   1              		.file	"util.c"
   2              		.text
   3              		.p2align 4
   4              		.globl	flSleep
   6              	flSleep:
   7              	.LFB56:
   8              		.cfi_startproc
   9 0000 F30F1EFA 		endbr64
  10 0004 69FFE803 		imull	$1000, %edi, %edi
  10      0000
  11 000a E9000000 		jmp	usleep@PLT
  11      00
  12              		.cfi_endproc
  13              	.LFE56:
  15              		.section	.rodata.str1.1,"aMS",@progbits,1
  16              	.LC0:
  17 0000 726200   		.string	"rb"
  18              		.text
  19 000f 90       		.p2align 4
  20              		.globl	flLoadFile
  22              	flLoadFile:
  23              	.LFB57:
  24              		.cfi_startproc
  25 0010 F30F1EFA 		endbr64
  26 0014 4155     		pushq	%r13
  27              		.cfi_def_cfa_offset 16
  28              		.cfi_offset 13, -16
  29 0016 4989F5   		movq	%rsi, %r13
  30 0019 488D3500 		leaq	.LC0(%rip), %rsi
  30      000000
  31 0020 4154     		pushq	%r12
  32              		.cfi_def_cfa_offset 24
  33              		.cfi_offset 12, -24
  34 0022 55       		pushq	%rbp
  35              		.cfi_def_cfa_offset 32
  36              		.cfi_offset 6, -32
  37 0023 53       		pushq	%rbx
  38              		.cfi_def_cfa_offset 40
  39              		.cfi_offset 3, -40
  40 0024 4883EC08 		subq	$8, %rsp
  41              		.cfi_def_cfa_offset 48
  42 0028 E8000000 		call	fopen@PLT
  42      00
  43 002d 4885C0   		testq	%rax, %rax
  44 0030 7476     		je	.L7
  45 0032 4889C5   		movq	%rax, %rbp
  46 0035 BA020000 		movl	$2, %edx
  46      00
  47 003a 31F6     		xorl	%esi, %esi
  48 003c 4889C7   		movq	%rax, %rdi
  49 003f E8000000 		call	fseek@PLT
  49      00
  50 0044 4889EF   		movq	%rbp, %rdi
  51 0047 E8000000 		call	ftell@PLT
  51      00
  52 004c 31D2     		xorl	%edx, %edx
  53 004e 31F6     		xorl	%esi, %esi
  54 0050 4889EF   		movq	%rbp, %rdi
  55 0053 4889C3   		movq	%rax, %rbx
  56 0056 E8000000 		call	fseek@PLT
  56      00
  57 005b 488D7B01 		leaq	1(%rbx), %rdi
  58 005f E8000000 		call	malloc@PLT
  58      00
  59 0064 4989C4   		movq	%rax, %r12
  60 0067 4885C0   		testq	%rax, %rax
  61 006a 7426     		je	.L15
  62 006c 4889E9   		movq	%rbp, %rcx
  63 006f 4889DA   		movq	%rbx, %rdx
  64 0072 BE010000 		movl	$1, %esi
  64      00
  65 0077 4889C7   		movq	%rax, %rdi
  66 007a E8000000 		call	fread@PLT
  66      00
  67 007f 4839C3   		cmpq	%rax, %rbx
  68 0082 7509     		jne	.L6
  69 0084 4D85ED   		testq	%r13, %r13
  70 0087 7404     		je	.L6
  71 0089 49895D00 		movq	%rbx, 0(%r13)
  72              	.L6:
  73 008d 41C6041C 		movb	$0, (%r12,%rbx)
  73      00
  74              	.L15:
  75 0092 4889EF   		movq	%rbp, %rdi
  76 0095 E8000000 		call	fclose@PLT
  76      00
  77              	.L3:
  78 009a 4883C408 		addq	$8, %rsp
  79              		.cfi_remember_state
  80              		.cfi_def_cfa_offset 40
  81 009e 4C89E0   		movq	%r12, %rax
  82 00a1 5B       		popq	%rbx
  83              		.cfi_def_cfa_offset 32
  84 00a2 5D       		popq	%rbp
  85              		.cfi_def_cfa_offset 24
  86 00a3 415C     		popq	%r12
  87              		.cfi_def_cfa_offset 16
  88 00a5 415D     		popq	%r13
  89              		.cfi_def_cfa_offset 8
  90 00a7 C3       		ret
  91              	.L7:
  92              		.cfi_restore_state
  93 00a8 4531E4   		xorl	%r12d, %r12d
  94 00ab EBED     		jmp	.L3
  95              		.cfi_endproc
  96              	.LFE57:
  98 00ad 0F1F00   		.p2align 4
  99              		.globl	flFreeFile
 101              	flFreeFile:
 102              	.LFB58:
 103              		.cfi_startproc
 104 00b0 F30F1EFA 		endbr64
 105 00b4 E9000000 		jmp	free@PLT
 105      00
 106              		.cfi_endproc
 107              	.LFE58:
 109              		.section	.rodata.str1.1
 110              	.LC1:
 111 0003 666C426F 		.string	"flBootloader()"
 111      6F746C6F 
 111      61646572 
 111      282900
 112              		.text
 113 00b9 0F1F8000 		.p2align 4
 113      000000
 114              		.globl	flBootloader
 116              	flBootloader:
 117              	.LFB59:
 118              		.cfi_startproc
 119 00c0 F30F1EFA 		endbr64
 120 00c4 55       		pushq	%rbp
 121              		.cfi_def_cfa_offset 16
 122              		.cfi_offset 6, -16
 123 00c5 488B3F   		movq	(%rdi), %rdi
 124 00c8 31C9     		xorl	%ecx, %ecx
 125 00ca 31D2     		xorl	%edx, %edx
 126 00cc 56       		pushq	%rsi
 127              		.cfi_def_cfa_offset 24
 128 00cd 4889F5   		movq	%rsi, %rbp
 129 00d0 4531C9   		xorl	%r9d, %r9d
 130 00d3 4531C0   		xorl	%r8d, %r8d
 131 00d6 68E80300 		pushq	$1000
 131      00
 132              		.cfi_def_cfa_offset 32
 133 00db BE870000 		movl	$135, %esi
 133      00
 134 00e0 E8000000 		call	usbControlWrite@PLT
 134      00
 135 00e5 5A       		popq	%rdx
 136              		.cfi_def_cfa_offset 24
 137 00e6 59       		popq	%rcx
 138              		.cfi_def_cfa_offset 16
 139 00e7 85C0     		testl	%eax, %eax
 140 00e9 7505     		jne	.L23
 141 00eb 5D       		popq	%rbp
 142              		.cfi_remember_state
 143              		.cfi_def_cfa_offset 8
 144 00ec C3       		ret
 145 00ed 0F1F00   		.p2align 4,,10
 146              		.p2align 3
 147              	.L23:
 148              		.cfi_restore_state
 149              	.L18:
 150 00f0 4889EF   		movq	%rbp, %rdi
 151 00f3 488D3500 		leaq	.LC1(%rip), %rsi
 151      000000
 152 00fa E8000000 		call	errPrefix@PLT
 152      00
 153 00ff B8020000 		movl	$2, %eax
 153      00
 154 0104 5D       		popq	%rbp
 155              		.cfi_def_cfa_offset 8
 156 0105 C3       		ret
 157              		.cfi_endproc
 158              	.LFE59:
 160              		.ident	"GCC: (Ubuntu 11.3.0-1ubuntu1~22.04) 11.3.0"
 161              		.section	.note.GNU-stack,"",@progbits
 162              		.section	.note.gnu.property,"a"
 163              		.align 8
 164 0000 04000000 		.long	1f - 0f
 165 0004 10000000 		.long	4f - 1f
 166 0008 05000000 		.long	5
 167              	0:
 168 000c 474E5500 		.string	"GNU"
 169              	1:
 170              		.align 8
 171 0010 020000C0 		.long	0xc0000002
 172 0014 04000000 		.long	3f - 2f
 173              	2:
 174 0018 03000000 		.long	0x3
 175              	3:
 176 001c 00000000 		.align 8
 177              	4: