   1              		.file	"core.c"
   2              		.text
   3              		.section	.rodata.str1.8,"aMS",@progbits,1
   4              		.align 8
   5              	.LC0:
   6 0000 62756649 		.string	"bufInitialise(): Cannot allocate memory for buffer"
   6      6E697469 
   6      616C6973 
   6      6528293A 
   6      2043616E 
   7              		.text
   8              		.p2align 4
   9              		.globl	bufInitialise
  11              	bufInitialise:
  12              	.LFB34:
  13              		.cfi_startproc
  14 0000 F30F1EFA 		endbr64
  15 0004 4155     		pushq	%r13
  16              		.cfi_def_cfa_offset 16
  17              		.cfi_offset 13, -16
  18 0006 4989CD   		movq	%rcx, %r13
  19 0009 4154     		pushq	%r12
  20              		.cfi_def_cfa_offset 24
  21              		.cfi_offset 12, -24
  22 000b 4189D4   		movl	%edx, %r12d
  23 000e 55       		pushq	%rbp
  24              		.cfi_def_cfa_offset 32
  25              		.cfi_offset 6, -32
  26 000f 4889F5   		movq	%rsi, %rbp
  27 0012 53       		pushq	%rbx
  28              		.cfi_def_cfa_offset 40
  29              		.cfi_offset 3, -40
  30 0013 4889FB   		movq	%rdi, %rbx
  31 0016 4883EC08 		subq	$8, %rsp
  32              		.cfi_def_cfa_offset 48
  33 001a 885718   		movb	%dl, 24(%rdi)
  34 001d 4889F7   		movq	%rsi, %rdi
  35 0020 E8000000 		call	malloc@PLT
  35      00
  36 0025 488903   		movq	%rax, (%rbx)
  37 0028 4885C0   		testq	%rax, %rax
  38 002b 7431     		je	.L7
  39 002d 4889C7   		movq	%rax, %rdi
  40 0030 488D0428 		leaq	(%rax,%rbp), %rax
  41 0034 4839C7   		cmpq	%rax, %rdi
  42 0037 730C     		jnb	.L4
  43 0039 410FB6F4 		movzbl	%r12b, %esi
  44 003d 4889EA   		movq	%rbp, %rdx
  45 0040 E8000000 		call	memset@PLT
  45      00
  46              	.L4:
  47 0045 48896B10 		movq	%rbp, 16(%rbx)
  48 0049 31C0     		xorl	%eax, %eax
  49 004b 48C74308 		movq	$0, 8(%rbx)
  49      00000000 
  50              	.L3:
  51              	.L1:
  52 0053 4883C408 		addq	$8, %rsp
  53              		.cfi_remember_state
  54              		.cfi_def_cfa_offset 40
  55 0057 5B       		popq	%rbx
  56              		.cfi_def_cfa_offset 32
  57 0058 5D       		popq	%rbp
  58              		.cfi_def_cfa_offset 24
  59 0059 415C     		popq	%r12
  60              		.cfi_def_cfa_offset 16
  61 005b 415D     		popq	%r13
  62              		.cfi_def_cfa_offset 8
  63 005d C3       		ret
  64              	.L7:
  65              		.cfi_restore_state
  66 005e 488D3500 		leaq	.LC0(%rip), %rsi
  66      000000
  67 0065 4C89EF   		movq	%r13, %rdi
  68 0068 E8000000 		call	errPrefix@PLT
  68      00
  69 006d B8010000 		movl	$1, %eax
  69      00
  70 0072 EBDF     		jmp	.L1
  71              		.cfi_endproc
  72              	.LFE34:
  74 0074 66662E0F 		.p2align 4
  74      1F840000 
  74      00000090 
  75              		.globl	bufDestroy
  77              	bufDestroy:
  78              	.LFB35:
  79              		.cfi_startproc
  80 0080 F30F1EFA 		endbr64
  81 0084 53       		pushq	%rbx
  82              		.cfi_def_cfa_offset 16
  83              		.cfi_offset 3, -16
  84 0085 4889FB   		movq	%rdi, %rbx
  85 0088 488B3F   		movq	(%rdi), %rdi
  86 008b E8000000 		call	free@PLT
  86      00
  87 0090 660FEFC0 		pxor	%xmm0, %xmm0
  88 0094 48C70300 		movq	$0, (%rbx)
  88      000000
  89 009b C6431800 		movb	$0, 24(%rbx)
  90 009f 0F114308 		movups	%xmm0, 8(%rbx)
  91 00a3 5B       		popq	%rbx
  92              		.cfi_def_cfa_offset 8
  93 00a4 C3       		ret
  94              		.cfi_endproc
  95              	.LFE35:
  97              		.section	.rodata.str1.8
  98 0033 00000000 		.align 8
  98      00
  99              	.LC1:
 100 0038 62756644 		.string	"bufDeepCopy(): Cannot allocate memory for buffer"
 100      65657043 
 100      6F707928 
 100      293A2043 
 100      616E6E6F 
 101              		.text
 102 00a5 66662E0F 		.p2align 4
 102      1F840000 
 102      000000
 103              		.globl	bufDeepCopy
 105              	bufDeepCopy:
 106              	.LFB36:
 107              		.cfi_startproc
 108 00b0 F30F1EFA 		endbr64
 109 00b4 4154     		pushq	%r12
 110              		.cfi_def_cfa_offset 16
 111              		.cfi_offset 12, -16
 112 00b6 4989D4   		movq	%rdx, %r12
 113 00b9 55       		pushq	%rbp
 114              		.cfi_def_cfa_offset 24
 115              		.cfi_offset 6, -24
 116 00ba 4889F5   		movq	%rsi, %rbp
 117 00bd 53       		pushq	%rbx
 118              		.cfi_def_cfa_offset 32
 119              		.cfi_offset 3, -32
 120 00be 4889FB   		movq	%rdi, %rbx
 121 00c1 488B3F   		movq	(%rdi), %rdi
 122 00c4 4C8B4610 		movq	16(%rsi), %r8
 123 00c8 4885FF   		testq	%rdi, %rdi
 124 00cb 0F849F01 		je	.L14
 124      0000
 125 00d1 4C394310 		cmpq	%r8, 16(%rbx)
 126 00d5 0F827D01 		jb	.L38
 126      0000
 127              	.L13:
 128 00db 488B5508 		movq	8(%rbp), %rdx
 129 00df 48895308 		movq	%rdx, 8(%rbx)
 130 00e3 0FB64518 		movzbl	24(%rbp), %eax
 131 00e7 884318   		movb	%al, 24(%rbx)
 132 00ea 488B7500 		movq	0(%rbp), %rsi
 133 00ee E8000000 		call	memcpy@PLT
 133      00
 134 00f3 488B33   		movq	(%rbx), %rsi
 135 00f6 4C8B4308 		movq	8(%rbx), %r8
 136 00fa 488B4B10 		movq	16(%rbx), %rcx
 137 00fe 4A8D3C06 		leaq	(%rsi,%r8), %rdi
 138 0102 4801CE   		addq	%rcx, %rsi
 139 0105 4889F8   		movq	%rdi, %rax
 140 0108 4839F7   		cmpq	%rsi, %rdi
 141 010b 0F831201 		jnb	.L21
 141      0000
 142 0111 4C29C1   		subq	%r8, %rcx
 143 0114 4C8D4318 		leaq	24(%rbx), %r8
 144 0118 4C8D5319 		leaq	25(%rbx), %r10
 145 011c 4889FA   		movq	%rdi, %rdx
 146 011f 4C39C6   		cmpq	%r8, %rsi
 147 0122 4C8D49FF 		leaq	-1(%rcx), %r9
 148 0126 410F96C0 		setbe	%r8b
 149 012a 4C39D7   		cmpq	%r10, %rdi
 150 012d 410F93C2 		setnb	%r10b
 151 0131 4508D0   		orb	%r10b, %r8b
 152 0134 0F84F600 		je	.L31
 152      0000
 153 013a 4983F906 		cmpq	$6, %r9
 154 013e 0F86EC00 		jbe	.L31
 154      0000
 155 0144 4983F90E 		cmpq	$14, %r9
 156 0148 0F865A01 		jbe	.L26
 156      0000
 157 014e 0FB64318 		movzbl	24(%rbx), %eax
 158 0152 660F6EC0 		movd	%eax, %xmm0
 159 0156 4889C8   		movq	%rcx, %rax
 160 0159 660F60C0 		punpcklbw	%xmm0, %xmm0
 161 015d 4883E0F0 		andq	$-16, %rax
 162 0161 660F61C0 		punpcklwd	%xmm0, %xmm0
 163 0165 4801F8   		addq	%rdi, %rax
 164 0168 660F70C0 		pshufd	$0, %xmm0, %xmm0
 164      00
 165 016d 0F1F00   		.p2align 4,,10
 166              		.p2align 3
 167              	.L19:
 168 0170 0F1102   		movups	%xmm0, (%rdx)
 169 0173 4883C210 		addq	$16, %rdx
 170 0177 4839C2   		cmpq	%rax, %rdx
 171 017a 75F4     		jne	.L19
 172 017c 4989C8   		movq	%rcx, %r8
 173 017f 4983E0F0 		andq	$-16, %r8
 174 0183 4A8D0407 		leaq	(%rdi,%r8), %rax
 175 0187 4C39C1   		cmpq	%r8, %rcx
 176 018a 0F849300 		je	.L21
 176      0000
 177 0190 4C29C1   		subq	%r8, %rcx
 178 0193 488D51FF 		leaq	-1(%rcx), %rdx
 179 0197 4883FA06 		cmpq	$6, %rdx
 180 019b 762C     		jbe	.L23
 181              	.L18:
 182 019d 440FB64B 		movzbl	24(%rbx), %r9d
 182      18
 183 01a2 4489CA   		movl	%r9d, %edx
 184 01a5 C1E208   		sall	$8, %edx
 185 01a8 4409CA   		orl	%r9d, %edx
 186 01ab 660F6ECA 		movd	%edx, %xmm1
 187 01af 4889CA   		movq	%rcx, %rdx
 188 01b2 F20F70C1 		pshuflw	$0, %xmm1, %xmm0
 188      00
 189 01b7 4883E2F8 		andq	$-8, %rdx
 190 01bb 66420FD6 		movq	%xmm0, (%rdi,%r8)
 190      0407
 191 01c1 4801D0   		addq	%rdx, %rax
 192 01c4 4839D1   		cmpq	%rdx, %rcx
 193 01c7 745A     		je	.L21
 194              	.L23:
 195 01c9 0FB65318 		movzbl	24(%rbx), %edx
 196 01cd 488D4801 		leaq	1(%rax), %rcx
 197 01d1 8810     		movb	%dl, (%rax)
 198 01d3 4839CE   		cmpq	%rcx, %rsi
 199 01d6 764B     		jbe	.L21
 200 01d8 885001   		movb	%dl, 1(%rax)
 201 01db 488D5002 		leaq	2(%rax), %rdx
 202 01df 4839D6   		cmpq	%rdx, %rsi
 203 01e2 763F     		jbe	.L21
 204 01e4 0FB65318 		movzbl	24(%rbx), %edx
 205 01e8 488D4803 		leaq	3(%rax), %rcx
 206 01ec 885002   		movb	%dl, 2(%rax)
 207 01ef 4839CE   		cmpq	%rcx, %rsi
 208 01f2 762F     		jbe	.L21
 209 01f4 885003   		movb	%dl, 3(%rax)
 210 01f7 488D5004 		leaq	4(%rax), %rdx
 211 01fb 4839D6   		cmpq	%rdx, %rsi
 212 01fe 7623     		jbe	.L21
 213 0200 0FB65318 		movzbl	24(%rbx), %edx
 214 0204 488D4805 		leaq	5(%rax), %rcx
 215 0208 885004   		movb	%dl, 4(%rax)
 216 020b 4839CE   		cmpq	%rcx, %rsi
 217 020e 7613     		jbe	.L21
 218 0210 885005   		movb	%dl, 5(%rax)
 219 0213 488D5006 		leaq	6(%rax), %rdx
 220 0217 4839D6   		cmpq	%rdx, %rsi
 221 021a 7607     		jbe	.L21
 222 021c 0FB65318 		movzbl	24(%rbx), %edx
 223 0220 885006   		movb	%dl, 6(%rax)
 224              	.L21:
 225 0223 31C0     		xorl	%eax, %eax
 226              	.L15:
 227              	.L10:
 228 0225 5B       		popq	%rbx
 229              		.cfi_remember_state
 230              		.cfi_def_cfa_offset 24
 231 0226 5D       		popq	%rbp
 232              		.cfi_def_cfa_offset 16
 233 0227 415C     		popq	%r12
 234              		.cfi_def_cfa_offset 8
 235 0229 C3       		ret
 236 022a 660F1F44 		.p2align 4,,10
 236      0000
 237              		.p2align 3
 238              	.L31:
 239              		.cfi_restore_state
 240 0230 0FB65318 		movzbl	24(%rbx), %edx
 241 0234 4883C001 		addq	$1, %rax
 242 0238 8850FF   		movb	%dl, -1(%rax)
 243 023b 4839C6   		cmpq	%rax, %rsi
 244 023e 74E3     		je	.L21
 245 0240 0FB65318 		movzbl	24(%rbx), %edx
 246 0244 4883C001 		addq	$1, %rax
 247 0248 8850FF   		movb	%dl, -1(%rax)
 248 024b 4839C6   		cmpq	%rax, %rsi
 249 024e 75E0     		jne	.L31
 250 0250 EBD1     		jmp	.L21
 251              		.p2align 4,,10
 252 0252 660F1F44 		.p2align 3
 252      0000
 253              	.L38:
 254 0258 4889DF   		movq	%rbx, %rdi
 255 025b E8000000 		call	bufDestroy@PLT
 255      00
 256 0260 488B3B   		movq	(%rbx), %rdi
 257 0263 4885FF   		testq	%rdi, %rdi
 258 0266 0F856FFE 		jne	.L13
 258      FFFF
 259 026c 4C8B4510 		movq	16(%rbp), %r8
 260              		.p2align 4,,10
 261              		.p2align 3
 262              	.L14:
 263 0270 4C894310 		movq	%r8, 16(%rbx)
 264 0274 4C89C7   		movq	%r8, %rdi
 265 0277 E8000000 		call	malloc@PLT
 265      00
 266 027c 488903   		movq	%rax, (%rbx)
 267 027f 4889C7   		movq	%rax, %rdi
 268 0282 4885C0   		testq	%rax, %rax
 269 0285 0F8550FE 		jne	.L13
 269      FFFF
 270 028b 488D3500 		leaq	.LC1(%rip), %rsi
 270      000000
 271 0292 4C89E7   		movq	%r12, %rdi
 272 0295 E8000000 		call	errPrefix@PLT
 272      00
 273 029a B8010000 		movl	$1, %eax
 273      00
 274 029f EB84     		jmp	.L10
 275              		.p2align 4,,10
 276 02a1 0F1F8000 		.p2align 3
 276      000000
 277              	.L26:
 278 02a8 4531C0   		xorl	%r8d, %r8d
 279 02ab E9EDFEFF 		jmp	.L18
 279      FF
 280              		.cfi_endproc
 281              	.LFE36:
 283              		.p2align 4
 284              		.globl	bufSwap
 286              	bufSwap:
 287              	.LFB37:
 288              		.cfi_startproc
 289 02b0 F30F1EFA 		endbr64
 290 02b4 488B0E   		movq	(%rsi), %rcx
 291 02b7 F30F6F4E 		movdqu	8(%rsi), %xmm1
 291      08
 292 02bc 488B17   		movq	(%rdi), %rdx
 293 02bf F30F6F47 		movdqu	8(%rdi), %xmm0
 293      08
 294 02c4 48890F   		movq	%rcx, (%rdi)
 295 02c7 0FB64718 		movzbl	24(%rdi), %eax
 296 02cb 0F114F08 		movups	%xmm1, 8(%rdi)
 297 02cf 0FB64E18 		movzbl	24(%rsi), %ecx
 298 02d3 884F18   		movb	%cl, 24(%rdi)
 299 02d6 488916   		movq	%rdx, (%rsi)
 300 02d9 884618   		movb	%al, 24(%rsi)
 301 02dc 0F114608 		movups	%xmm0, 8(%rsi)
 302 02e0 C3       		ret
 303              		.cfi_endproc
 304              	.LFE37:
 306 02e1 66662E0F 		.p2align 4
 306      1F840000 
 306      0000000F 
 306      1F4000
 307              		.globl	bufZeroLength
 309              	bufZeroLength:
 310              	.LFB38:
 311              		.cfi_startproc
 312 02f0 F30F1EFA 		endbr64
 313 02f4 48837F10 		cmpq	$0, 16(%rdi)
 313      00
 314 02f9 48C74708 		movq	$0, 8(%rdi)
 314      00000000 
 315 0301 7419     		je	.L40
 316 0303 31C0     		xorl	%eax, %eax
 317              		.p2align 4,,10
 318 0305 0F1F00   		.p2align 3
 319              	.L42:
 320 0308 0FB64F18 		movzbl	24(%rdi), %ecx
 321 030c 488B17   		movq	(%rdi), %rdx
 322 030f 880C02   		movb	%cl, (%rdx,%rax)
 323 0312 4883C001 		addq	$1, %rax
 324 0316 48394710 		cmpq	%rax, 16(%rdi)
 325 031a 77EC     		ja	.L42
 326              	.L40:
 327 031c C3       		ret
 328              		.cfi_endproc
 329              	.LFE38:
 331              		.section	.rodata.str1.8
 332 0069 00000000 		.align 8
 332      000000
 333              	.LC2:
 334 0070 43616E6E 		.string	"Cannot reallocate memory for buffer"
 334      6F742072 
 334      65616C6C 
 334      6F636174 
 334      65206D65 
 335              		.section	.rodata.str1.1,"aMS",@progbits,1
 336              	.LC3:
 337 0000 62756641 		.string	"bufAppendByte()"
 337      7070656E 
 337      64427974 
 337      65282900 
 338              		.text
 339 031d 0F1F00   		.p2align 4
 340              		.globl	bufAppendByte
 342              	bufAppendByte:
 343              	.LFB40:
 344              		.cfi_startproc
 345 0320 F30F1EFA 		endbr64
 346 0324 4156     		pushq	%r14
 347              		.cfi_def_cfa_offset 16
 348              		.cfi_offset 14, -16
 349 0326 4155     		pushq	%r13
 350              		.cfi_def_cfa_offset 24
 351              		.cfi_offset 13, -24
 352 0328 4189F5   		movl	%esi, %r13d
 353 032b 4154     		pushq	%r12
 354              		.cfi_def_cfa_offset 32
 355              		.cfi_offset 12, -32
 356 032d 55       		pushq	%rbp
 357              		.cfi_def_cfa_offset 40
 358              		.cfi_offset 6, -40
 359 032e 4889FD   		movq	%rdi, %rbp
 360 0331 53       		pushq	%rbx
 361              		.cfi_def_cfa_offset 48
 362              		.cfi_offset 3, -48
 363 0332 488B4708 		movq	8(%rdi), %rax
 364 0336 488B5F10 		movq	16(%rdi), %rbx
 365 033a 488B3F   		movq	(%rdi), %rdi
 366 033d 4C8D6001 		leaq	1(%rax), %r12
 367 0341 4C39E3   		cmpq	%r12, %rbx
 368 0344 721A     		jb	.L69
 369              	.L45:
 370 0346 44882C07 		movb	%r13b, (%rdi,%rax)
 371 034a 31C0     		xorl	%eax, %eax
 372 034c 48834508 		addq	$1, 8(%rbp)
 372      01
 373              	.L48:
 374              	.L44:
 375 0351 5B       		popq	%rbx
 376              		.cfi_remember_state
 377              		.cfi_def_cfa_offset 40
 378 0352 5D       		popq	%rbp
 379              		.cfi_def_cfa_offset 32
 380 0353 415C     		popq	%r12
 381              		.cfi_def_cfa_offset 24
 382 0355 415D     		popq	%r13
 383              		.cfi_def_cfa_offset 16
 384 0357 415E     		popq	%r14
 385              		.cfi_def_cfa_offset 8
 386 0359 C3       		ret
 387 035a 660F1F44 		.p2align 4,,10
 387      0000
 388              		.p2align 3
 389              	.L69:
 390              		.cfi_restore_state
 391 0360 4989D6   		movq	%rdx, %r14
 392              		.p2align 4,,10
 393 0363 0F1F4400 		.p2align 3
 393      00
 394              	.L46:
 395 0368 4801DB   		addq	%rbx, %rbx
 396 036b 4939DC   		cmpq	%rbx, %r12
 397 036e 77F8     		ja	.L46
 398 0370 4889DE   		movq	%rbx, %rsi
 399 0373 E8000000 		call	realloc@PLT
 399      00
 400 0378 4889C7   		movq	%rax, %rdi
 401 037b 4885C0   		testq	%rax, %rax
 402 037e 0F845E01 		je	.L70
 402      0000
 403 0384 4A8D0C20 		leaq	(%rax,%r12), %rcx
 404 0388 488D3418 		leaq	(%rax,%rbx), %rsi
 405 038c 48894500 		movq	%rax, 0(%rbp)
 406 0390 48895D10 		movq	%rbx, 16(%rbp)
 407 0394 4889CA   		movq	%rcx, %rdx
 408 0397 4839F1   		cmpq	%rsi, %rcx
 409 039a 0F831601 		jnb	.L67
 409      0000
 410 03a0 488D7D18 		leaq	24(%rbp), %rdi
 411 03a4 4C29E3   		subq	%r12, %rbx
 412 03a7 4C8D4D19 		leaq	25(%rbp), %r9
 413 03ab 4889C8   		movq	%rcx, %rax
 414 03ae 4839FE   		cmpq	%rdi, %rsi
 415 03b1 4C8D43FF 		leaq	-1(%rbx), %r8
 416 03b5 400F96C7 		setbe	%dil
 417 03b9 4C39C9   		cmpq	%r9, %rcx
 418 03bc 410F93C1 		setnb	%r9b
 419 03c0 4408CF   		orb	%r9b, %dil
 420 03c3 0F84F700 		je	.L60
 420      0000
 421 03c9 4983F806 		cmpq	$6, %r8
 422 03cd 0F86ED00 		jbe	.L60
 422      0000
 423 03d3 4983F80E 		cmpq	$14, %r8
 424 03d7 0F862D01 		jbe	.L57
 424      0000
 425 03dd 0FB65518 		movzbl	24(%rbp), %edx
 426 03e1 660F6EC2 		movd	%edx, %xmm0
 427 03e5 4889DA   		movq	%rbx, %rdx
 428 03e8 660F60C0 		punpcklbw	%xmm0, %xmm0
 429 03ec 4883E2F0 		andq	$-16, %rdx
 430 03f0 660F61C0 		punpcklwd	%xmm0, %xmm0
 431 03f4 4801CA   		addq	%rcx, %rdx
 432 03f7 660F70C0 		pshufd	$0, %xmm0, %xmm0
 432      00
 433 03fc 0F1F4000 		.p2align 4,,10
 434              		.p2align 3
 435              	.L52:
 436 0400 0F1100   		movups	%xmm0, (%rax)
 437 0403 4883C010 		addq	$16, %rax
 438 0407 4839D0   		cmpq	%rdx, %rax
 439 040a 75F4     		jne	.L52
 440 040c 4889DF   		movq	%rbx, %rdi
 441 040f 4883E7F0 		andq	$-16, %rdi
 442 0413 488D1439 		leaq	(%rcx,%rdi), %rdx
 443 0417 4839FB   		cmpq	%rdi, %rbx
 444 041a 0F849200 		je	.L56
 444      0000
 445 0420 4829FB   		subq	%rdi, %rbx
 446 0423 488D43FF 		leaq	-1(%rbx), %rax
 447 0427 4883F806 		cmpq	$6, %rax
 448 042b 762B     		jbe	.L54
 449              	.L51:
 450 042d 440FB645 		movzbl	24(%rbp), %r8d
 450      18
 451 0432 4489C0   		movl	%r8d, %eax
 452 0435 C1E008   		sall	$8, %eax
 453 0438 4409C0   		orl	%r8d, %eax
 454 043b 660F6EC8 		movd	%eax, %xmm1
 455 043f 4889D8   		movq	%rbx, %rax
 456 0442 F20F70C1 		pshuflw	$0, %xmm1, %xmm0
 456      00
 457 0447 4883E0F8 		andq	$-8, %rax
 458 044b 660FD604 		movq	%xmm0, (%rcx,%rdi)
 458      39
 459 0450 4801C2   		addq	%rax, %rdx
 460 0453 4839C3   		cmpq	%rax, %rbx
 461 0456 745A     		je	.L56
 462              	.L54:
 463 0458 0FB64518 		movzbl	24(%rbp), %eax
 464 045c 488D4A01 		leaq	1(%rdx), %rcx
 465 0460 8802     		movb	%al, (%rdx)
 466 0462 4839CE   		cmpq	%rcx, %rsi
 467 0465 764B     		jbe	.L56
 468 0467 884201   		movb	%al, 1(%rdx)
 469 046a 488D4202 		leaq	2(%rdx), %rax
 470 046e 4839C6   		cmpq	%rax, %rsi
 471 0471 763F     		jbe	.L56
 472 0473 0FB64518 		movzbl	24(%rbp), %eax
 473 0477 488D4A03 		leaq	3(%rdx), %rcx
 474 047b 884202   		movb	%al, 2(%rdx)
 475 047e 4839CE   		cmpq	%rcx, %rsi
 476 0481 762F     		jbe	.L56
 477 0483 884203   		movb	%al, 3(%rdx)
 478 0486 488D4204 		leaq	4(%rdx), %rax
 479 048a 4839C6   		cmpq	%rax, %rsi
 480 048d 7623     		jbe	.L56
 481 048f 0FB64518 		movzbl	24(%rbp), %eax
 482 0493 488D4A05 		leaq	5(%rdx), %rcx
 483 0497 884204   		movb	%al, 4(%rdx)
 484 049a 4839CE   		cmpq	%rcx, %rsi
 485 049d 7613     		jbe	.L56
 486 049f 884205   		movb	%al, 5(%rdx)
 487 04a2 488D4206 		leaq	6(%rdx), %rax
 488 04a6 4839C6   		cmpq	%rax, %rsi
 489 04a9 7607     		jbe	.L56
 490 04ab 0FB64518 		movzbl	24(%rbp), %eax
 491 04af 884206   		movb	%al, 6(%rdx)
 492              	.L56:
 493 04b2 488B7D00 		movq	0(%rbp), %rdi
 494              	.L67:
 495 04b6 488B4508 		movq	8(%rbp), %rax
 496 04ba E987FEFF 		jmp	.L45
 496      FF
 497 04bf 90       		.p2align 4,,10
 498              		.p2align 3
 499              	.L60:
 500 04c0 0FB64518 		movzbl	24(%rbp), %eax
 501 04c4 4883C201 		addq	$1, %rdx
 502 04c8 8842FF   		movb	%al, -1(%rdx)
 503 04cb 4839D6   		cmpq	%rdx, %rsi
 504 04ce 74E2     		je	.L56
 505 04d0 0FB64518 		movzbl	24(%rbp), %eax
 506 04d4 4883C201 		addq	$1, %rdx
 507 04d8 8842FF   		movb	%al, -1(%rdx)
 508 04db 4839D6   		cmpq	%rdx, %rsi
 509 04de 75E0     		jne	.L60
 510 04e0 EBD0     		jmp	.L56
 511              	.L70:
 512 04e2 488D3500 		leaq	.LC2(%rip), %rsi
 512      000000
 513 04e9 4C89F7   		movq	%r14, %rdi
 514 04ec E8000000 		call	errPrefix@PLT
 514      00
 515 04f1 488D3500 		leaq	.LC3(%rip), %rsi
 515      000000
 516 04f8 4C89F7   		movq	%r14, %rdi
 517 04fb E8000000 		call	errPrefix@PLT
 517      00
 518 0500 B8010000 		movl	$1, %eax
 518      00
 519 0505 E947FEFF 		jmp	.L44
 519      FF
 520              	.L57:
 521 050a 31FF     		xorl	%edi, %edi
 522 050c E91CFFFF 		jmp	.L51
 522      FF
 523              		.cfi_endproc
 524              	.LFE40:
 526              		.section	.rodata.str1.1
 527              	.LC4:
 528 0010 62756641 		.string	"bufAppendWordLE()"
 528      7070656E 
 528      64576F72 
 528      644C4528 
 528      2900
 529              		.text
 530 0511 66662E0F 		.p2align 4
 530      1F840000 
 530      0000000F 
 530      1F4000
 531              		.globl	bufAppendWordLE
 533              	bufAppendWordLE:
 534              	.LFB41:
 535              		.cfi_startproc
 536 0520 F30F1EFA 		endbr64
 537 0524 4156     		pushq	%r14
 538              		.cfi_def_cfa_offset 16
 539              		.cfi_offset 14, -16
 540 0526 4155     		pushq	%r13
 541              		.cfi_def_cfa_offset 24
 542              		.cfi_offset 13, -24
 543 0528 4189F5   		movl	%esi, %r13d
 544 052b 4154     		pushq	%r12
 545              		.cfi_def_cfa_offset 32
 546              		.cfi_offset 12, -32
 547 052d 55       		pushq	%rbp
 548              		.cfi_def_cfa_offset 40
 549              		.cfi_offset 6, -40
 550 052e 4889FD   		movq	%rdi, %rbp
 551 0531 53       		pushq	%rbx
 552              		.cfi_def_cfa_offset 48
 553              		.cfi_offset 3, -48
 554 0532 488B4708 		movq	8(%rdi), %rax
 555 0536 488B5F10 		movq	16(%rdi), %rbx
 556 053a 488B3F   		movq	(%rdi), %rdi
 557 053d 4C8D6002 		leaq	2(%rax), %r12
 558 0541 4C39E3   		cmpq	%r12, %rbx
 559 0544 722A     		jb	.L96
 560              	.L72:
 561 0546 44882C07 		movb	%r13b, (%rdi,%rax)
 562 054a 488B4508 		movq	8(%rbp), %rax
 563 054e 4489E9   		movl	%r13d, %ecx
 564 0551 488B5500 		movq	0(%rbp), %rdx
 565 0555 886C0201 		movb	%ch, 1(%rdx,%rax)
 566 0559 31C0     		xorl	%eax, %eax
 567 055b 48834508 		addq	$2, 8(%rbp)
 567      02
 568              	.L75:
 569              	.L71:
 570 0560 5B       		popq	%rbx
 571              		.cfi_remember_state
 572              		.cfi_def_cfa_offset 40
 573 0561 5D       		popq	%rbp
 574              		.cfi_def_cfa_offset 32
 575 0562 415C     		popq	%r12
 576              		.cfi_def_cfa_offset 24
 577 0564 415D     		popq	%r13
 578              		.cfi_def_cfa_offset 16
 579 0566 415E     		popq	%r14
 580              		.cfi_def_cfa_offset 8
 581 0568 C3       		ret
 582 0569 0F1F8000 		.p2align 4,,10
 582      000000
 583              		.p2align 3
 584              	.L96:
 585              		.cfi_restore_state
 586 0570 4989D6   		movq	%rdx, %r14
 587              		.p2align 4,,10
 588 0573 0F1F4400 		.p2align 3
 588      00
 589              	.L73:
 590 0578 4801DB   		addq	%rbx, %rbx
 591 057b 4939DC   		cmpq	%rbx, %r12
 592 057e 77F8     		ja	.L73
 593 0580 4889DE   		movq	%rbx, %rsi
 594 0583 E8000000 		call	realloc@PLT
 594      00
 595 0588 4889C7   		movq	%rax, %rdi
 596 058b 4885C0   		testq	%rax, %rax
 597 058e 0F845E01 		je	.L97
 597      0000
 598 0594 4A8D0C20 		leaq	(%rax,%r12), %rcx
 599 0598 488D3418 		leaq	(%rax,%rbx), %rsi
 600 059c 48894500 		movq	%rax, 0(%rbp)
 601 05a0 48895D10 		movq	%rbx, 16(%rbp)
 602 05a4 4889CA   		movq	%rcx, %rdx
 603 05a7 4839F1   		cmpq	%rsi, %rcx
 604 05aa 0F831601 		jnb	.L94
 604      0000
 605 05b0 488D7D18 		leaq	24(%rbp), %rdi
 606 05b4 4C29E3   		subq	%r12, %rbx
 607 05b7 4C8D4D19 		leaq	25(%rbp), %r9
 608 05bb 4889C8   		movq	%rcx, %rax
 609 05be 4839FE   		cmpq	%rdi, %rsi
 610 05c1 4C8D43FF 		leaq	-1(%rbx), %r8
 611 05c5 400F96C7 		setbe	%dil
 612 05c9 4C39C9   		cmpq	%r9, %rcx
 613 05cc 410F93C1 		setnb	%r9b
 614 05d0 4408CF   		orb	%r9b, %dil
 615 05d3 0F84F700 		je	.L87
 615      0000
 616 05d9 4983F806 		cmpq	$6, %r8
 617 05dd 0F86ED00 		jbe	.L87
 617      0000
 618 05e3 4983F80E 		cmpq	$14, %r8
 619 05e7 0F862D01 		jbe	.L84
 619      0000
 620 05ed 0FB65518 		movzbl	24(%rbp), %edx
 621 05f1 660F6EC2 		movd	%edx, %xmm0
 622 05f5 4889DA   		movq	%rbx, %rdx
 623 05f8 660F60C0 		punpcklbw	%xmm0, %xmm0
 624 05fc 4883E2F0 		andq	$-16, %rdx
 625 0600 660F61C0 		punpcklwd	%xmm0, %xmm0
 626 0604 4801CA   		addq	%rcx, %rdx
 627 0607 660F70C0 		pshufd	$0, %xmm0, %xmm0
 627      00
 628 060c 0F1F4000 		.p2align 4,,10
 629              		.p2align 3
 630              	.L79:
 631 0610 0F1100   		movups	%xmm0, (%rax)
 632 0613 4883C010 		addq	$16, %rax
 633 0617 4839D0   		cmpq	%rdx, %rax
 634 061a 75F4     		jne	.L79
 635 061c 4889DF   		movq	%rbx, %rdi
 636 061f 4883E7F0 		andq	$-16, %rdi
 637 0623 488D1439 		leaq	(%rcx,%rdi), %rdx
 638 0627 4839FB   		cmpq	%rdi, %rbx
 639 062a 0F849200 		je	.L83
 639      0000
 640 0630 4829FB   		subq	%rdi, %rbx
 641 0633 488D43FF 		leaq	-1(%rbx), %rax
 642 0637 4883F806 		cmpq	$6, %rax
 643 063b 762B     		jbe	.L81
 644              	.L78:
 645 063d 440FB645 		movzbl	24(%rbp), %r8d
 645      18
 646 0642 4489C0   		movl	%r8d, %eax
 647 0645 C1E008   		sall	$8, %eax
 648 0648 4409C0   		orl	%r8d, %eax
 649 064b 660F6EC8 		movd	%eax, %xmm1
 650 064f 4889D8   		movq	%rbx, %rax
 651 0652 F20F70C1 		pshuflw	$0, %xmm1, %xmm0
 651      00
 652 0657 4883E0F8 		andq	$-8, %rax
 653 065b 660FD604 		movq	%xmm0, (%rcx,%rdi)
 653      39
 654 0660 4801C2   		addq	%rax, %rdx
 655 0663 4839C3   		cmpq	%rax, %rbx
 656 0666 745A     		je	.L83
 657              	.L81:
 658 0668 0FB64518 		movzbl	24(%rbp), %eax
 659 066c 488D4A01 		leaq	1(%rdx), %rcx
 660 0670 8802     		movb	%al, (%rdx)
 661 0672 4839CE   		cmpq	%rcx, %rsi
 662 0675 764B     		jbe	.L83
 663 0677 884201   		movb	%al, 1(%rdx)
 664 067a 488D4202 		leaq	2(%rdx), %rax
 665 067e 4839C6   		cmpq	%rax, %rsi
 666 0681 763F     		jbe	.L83
 667 0683 0FB64518 		movzbl	24(%rbp), %eax
 668 0687 488D4A03 		leaq	3(%rdx), %rcx
 669 068b 884202   		movb	%al, 2(%rdx)
 670 068e 4839CE   		cmpq	%rcx, %rsi
 671 0691 762F     		jbe	.L83
 672 0693 884203   		movb	%al, 3(%rdx)
 673 0696 488D4204 		leaq	4(%rdx), %rax
 674 069a 4839C6   		cmpq	%rax, %rsi
 675 069d 7623     		jbe	.L83
 676 069f 0FB64518 		movzbl	24(%rbp), %eax
 677 06a3 488D4A05 		leaq	5(%rdx), %rcx
 678 06a7 884204   		movb	%al, 4(%rdx)
 679 06aa 4839CE   		cmpq	%rcx, %rsi
 680 06ad 7613     		jbe	.L83
 681 06af 884205   		movb	%al, 5(%rdx)
 682 06b2 488D4206 		leaq	6(%rdx), %rax
 683 06b6 4839C6   		cmpq	%rax, %rsi
 684 06b9 7607     		jbe	.L83
 685 06bb 0FB64518 		movzbl	24(%rbp), %eax
 686 06bf 884206   		movb	%al, 6(%rdx)
 687              	.L83:
 688 06c2 488B7D00 		movq	0(%rbp), %rdi
 689              	.L94:
 690 06c6 488B4508 		movq	8(%rbp), %rax
 691 06ca E977FEFF 		jmp	.L72
 691      FF
 692 06cf 90       		.p2align 4,,10
 693              		.p2align 3
 694              	.L87:
 695 06d0 0FB64518 		movzbl	24(%rbp), %eax
 696 06d4 4883C201 		addq	$1, %rdx
 697 06d8 8842FF   		movb	%al, -1(%rdx)
 698 06db 4839D6   		cmpq	%rdx, %rsi
 699 06de 74E2     		je	.L83
 700 06e0 0FB64518 		movzbl	24(%rbp), %eax
 701 06e4 4883C201 		addq	$1, %rdx
 702 06e8 8842FF   		movb	%al, -1(%rdx)
 703 06eb 4839D6   		cmpq	%rdx, %rsi
 704 06ee 75E0     		jne	.L87
 705 06f0 EBD0     		jmp	.L83
 706              	.L97:
 707 06f2 488D3500 		leaq	.LC2(%rip), %rsi
 707      000000
 708 06f9 4C89F7   		movq	%r14, %rdi
 709 06fc E8000000 		call	errPrefix@PLT
 709      00
 710 0701 488D3500 		leaq	.LC4(%rip), %rsi
 710      000000
 711 0708 4C89F7   		movq	%r14, %rdi
 712 070b E8000000 		call	errPrefix@PLT
 712      00
 713 0710 B8010000 		movl	$1, %eax
 713      00
 714 0715 E946FEFF 		jmp	.L71
 714      FF
 715              	.L84:
 716 071a 31FF     		xorl	%edi, %edi
 717 071c E91CFFFF 		jmp	.L78
 717      FF
 718              		.cfi_endproc
 719              	.LFE41:
 721              		.section	.rodata.str1.1
 722              	.LC5:
 723 0022 62756641 		.string	"bufAppendWordBE()"
 723      7070656E 
 723      64576F72 
 723      64424528 
 723      2900
 724              		.text
 725 0721 66662E0F 		.p2align 4
 725      1F840000 
 725      0000000F 
 725      1F4000
 726              		.globl	bufAppendWordBE
 728              	bufAppendWordBE:
 729              	.LFB42:
 730              		.cfi_startproc
 731 0730 F30F1EFA 		endbr64
 732 0734 4156     		pushq	%r14
 733              		.cfi_def_cfa_offset 16
 734              		.cfi_offset 14, -16
 735 0736 4155     		pushq	%r13
 736              		.cfi_def_cfa_offset 24
 737              		.cfi_offset 13, -24
 738 0738 4189F5   		movl	%esi, %r13d
 739 073b 4154     		pushq	%r12
 740              		.cfi_def_cfa_offset 32
 741              		.cfi_offset 12, -32
 742 073d 55       		pushq	%rbp
 743              		.cfi_def_cfa_offset 40
 744              		.cfi_offset 6, -40
 745 073e 4889FD   		movq	%rdi, %rbp
 746 0741 53       		pushq	%rbx
 747              		.cfi_def_cfa_offset 48
 748              		.cfi_offset 3, -48
 749 0742 488B4708 		movq	8(%rdi), %rax
 750 0746 488B5F10 		movq	16(%rdi), %rbx
 751 074a 488B3F   		movq	(%rdi), %rdi
 752 074d 4C8D6002 		leaq	2(%rax), %r12
 753 0751 4C39E3   		cmpq	%r12, %rbx
 754 0754 722A     		jb	.L123
 755              	.L99:
 756 0756 4489E9   		movl	%r13d, %ecx
 757 0759 882C07   		movb	%ch, (%rdi,%rax)
 758 075c 488B4508 		movq	8(%rbp), %rax
 759 0760 488B5500 		movq	0(%rbp), %rdx
 760 0764 44886C02 		movb	%r13b, 1(%rdx,%rax)
 760      01
 761 0769 31C0     		xorl	%eax, %eax
 762 076b 48834508 		addq	$2, 8(%rbp)
 762      02
 763              	.L102:
 764              	.L98:
 765 0770 5B       		popq	%rbx
 766              		.cfi_remember_state
 767              		.cfi_def_cfa_offset 40
 768 0771 5D       		popq	%rbp
 769              		.cfi_def_cfa_offset 32
 770 0772 415C     		popq	%r12
 771              		.cfi_def_cfa_offset 24
 772 0774 415D     		popq	%r13
 773              		.cfi_def_cfa_offset 16
 774 0776 415E     		popq	%r14
 775              		.cfi_def_cfa_offset 8
 776 0778 C3       		ret
 777 0779 0F1F8000 		.p2align 4,,10
 777      000000
 778              		.p2align 3
 779              	.L123:
 780              		.cfi_restore_state
 781 0780 4989D6   		movq	%rdx, %r14
 782              		.p2align 4,,10
 783 0783 0F1F4400 		.p2align 3
 783      00
 784              	.L100:
 785 0788 4801DB   		addq	%rbx, %rbx
 786 078b 4939DC   		cmpq	%rbx, %r12
 787 078e 77F8     		ja	.L100
 788 0790 4889DE   		movq	%rbx, %rsi
 789 0793 E8000000 		call	realloc@PLT
 789      00
 790 0798 4889C7   		movq	%rax, %rdi
 791 079b 4885C0   		testq	%rax, %rax
 792 079e 0F845E01 		je	.L124
 792      0000
 793 07a4 4A8D0C20 		leaq	(%rax,%r12), %rcx
 794 07a8 488D3418 		leaq	(%rax,%rbx), %rsi
 795 07ac 48894500 		movq	%rax, 0(%rbp)
 796 07b0 48895D10 		movq	%rbx, 16(%rbp)
 797 07b4 4889CA   		movq	%rcx, %rdx
 798 07b7 4839F1   		cmpq	%rsi, %rcx
 799 07ba 0F831601 		jnb	.L121
 799      0000
 800 07c0 488D7D18 		leaq	24(%rbp), %rdi
 801 07c4 4C29E3   		subq	%r12, %rbx
 802 07c7 4C8D4D19 		leaq	25(%rbp), %r9
 803 07cb 4889C8   		movq	%rcx, %rax
 804 07ce 4839FE   		cmpq	%rdi, %rsi
 805 07d1 4C8D43FF 		leaq	-1(%rbx), %r8
 806 07d5 400F96C7 		setbe	%dil
 807 07d9 4C39C9   		cmpq	%r9, %rcx
 808 07dc 410F93C1 		setnb	%r9b
 809 07e0 4408CF   		orb	%r9b, %dil
 810 07e3 0F84F700 		je	.L114
 810      0000
 811 07e9 4983F806 		cmpq	$6, %r8
 812 07ed 0F86ED00 		jbe	.L114
 812      0000
 813 07f3 4983F80E 		cmpq	$14, %r8
 814 07f7 0F862D01 		jbe	.L111
 814      0000
 815 07fd 0FB65518 		movzbl	24(%rbp), %edx
 816 0801 660F6EC2 		movd	%edx, %xmm0
 817 0805 4889DA   		movq	%rbx, %rdx
 818 0808 660F60C0 		punpcklbw	%xmm0, %xmm0
 819 080c 4883E2F0 		andq	$-16, %rdx
 820 0810 660F61C0 		punpcklwd	%xmm0, %xmm0
 821 0814 4801CA   		addq	%rcx, %rdx
 822 0817 660F70C0 		pshufd	$0, %xmm0, %xmm0
 822      00
 823 081c 0F1F4000 		.p2align 4,,10
 824              		.p2align 3
 825              	.L106:
 826 0820 0F1100   		movups	%xmm0, (%rax)
 827 0823 4883C010 		addq	$16, %rax
 828 0827 4839D0   		cmpq	%rdx, %rax
 829 082a 75F4     		jne	.L106
 830 082c 4889DF   		movq	%rbx, %rdi
 831 082f 4883E7F0 		andq	$-16, %rdi
 832 0833 488D1439 		leaq	(%rcx,%rdi), %rdx
 833 0837 4839FB   		cmpq	%rdi, %rbx
 834 083a 0F849200 		je	.L110
 834      0000
 835 0840 4829FB   		subq	%rdi, %rbx
 836 0843 488D43FF 		leaq	-1(%rbx), %rax
 837 0847 4883F806 		cmpq	$6, %rax
 838 084b 762B     		jbe	.L108
 839              	.L105:
 840 084d 440FB645 		movzbl	24(%rbp), %r8d
 840      18
 841 0852 4489C0   		movl	%r8d, %eax
 842 0855 C1E008   		sall	$8, %eax
 843 0858 4409C0   		orl	%r8d, %eax
 844 085b 660F6EC8 		movd	%eax, %xmm1
 845 085f 4889D8   		movq	%rbx, %rax
 846 0862 F20F70C1 		pshuflw	$0, %xmm1, %xmm0
 846      00
 847 0867 4883E0F8 		andq	$-8, %rax
 848 086b 660FD604 		movq	%xmm0, (%rcx,%rdi)
 848      39
 849 0870 4801C2   		addq	%rax, %rdx
 850 0873 4839C3   		cmpq	%rax, %rbx
 851 0876 745A     		je	.L110
 852              	.L108:
 853 0878 0FB64518 		movzbl	24(%rbp), %eax
 854 087c 488D4A01 		leaq	1(%rdx), %rcx
 855 0880 8802     		movb	%al, (%rdx)
 856 0882 4839CE   		cmpq	%rcx, %rsi
 857 0885 764B     		jbe	.L110
 858 0887 884201   		movb	%al, 1(%rdx)
 859 088a 488D4202 		leaq	2(%rdx), %rax
 860 088e 4839C6   		cmpq	%rax, %rsi
 861 0891 763F     		jbe	.L110
 862 0893 0FB64518 		movzbl	24(%rbp), %eax
 863 0897 488D4A03 		leaq	3(%rdx), %rcx
 864 089b 884202   		movb	%al, 2(%rdx)
 865 089e 4839CE   		cmpq	%rcx, %rsi
 866 08a1 762F     		jbe	.L110
 867 08a3 884203   		movb	%al, 3(%rdx)
 868 08a6 488D4204 		leaq	4(%rdx), %rax
 869 08aa 4839C6   		cmpq	%rax, %rsi
 870 08ad 7623     		jbe	.L110
 871 08af 0FB64518 		movzbl	24(%rbp), %eax
 872 08b3 488D4A05 		leaq	5(%rdx), %rcx
 873 08b7 884204   		movb	%al, 4(%rdx)
 874 08ba 4839CE   		cmpq	%rcx, %rsi
 875 08bd 7613     		jbe	.L110
 876 08bf 884205   		movb	%al, 5(%rdx)
 877 08c2 488D4206 		leaq	6(%rdx), %rax
 878 08c6 4839C6   		cmpq	%rax, %rsi
 879 08c9 7607     		jbe	.L110
 880 08cb 0FB64518 		movzbl	24(%rbp), %eax
 881 08cf 884206   		movb	%al, 6(%rdx)
 882              	.L110:
 883 08d2 488B7D00 		movq	0(%rbp), %rdi
 884              	.L121:
 885 08d6 488B4508 		movq	8(%rbp), %rax
 886 08da E977FEFF 		jmp	.L99
 886      FF
 887 08df 90       		.p2align 4,,10
 888              		.p2align 3
 889              	.L114:
 890 08e0 0FB64518 		movzbl	24(%rbp), %eax
 891 08e4 4883C201 		addq	$1, %rdx
 892 08e8 8842FF   		movb	%al, -1(%rdx)
 893 08eb 4839D6   		cmpq	%rdx, %rsi
 894 08ee 74E2     		je	.L110
 895 08f0 0FB64518 		movzbl	24(%rbp), %eax
 896 08f4 4883C201 		addq	$1, %rdx
 897 08f8 8842FF   		movb	%al, -1(%rdx)
 898 08fb 4839D6   		cmpq	%rdx, %rsi
 899 08fe 75E0     		jne	.L114
 900 0900 EBD0     		jmp	.L110
 901              	.L124:
 902 0902 488D3500 		leaq	.LC2(%rip), %rsi
 902      000000
 903 0909 4C89F7   		movq	%r14, %rdi
 904 090c E8000000 		call	errPrefix@PLT
 904      00
 905 0911 488D3500 		leaq	.LC5(%rip), %rsi
 905      000000
 906 0918 4C89F7   		movq	%r14, %rdi
 907 091b E8000000 		call	errPrefix@PLT
 907      00
 908 0920 B8010000 		movl	$1, %eax
 908      00
 909 0925 E946FEFF 		jmp	.L98
 909      FF
 910              	.L111:
 911 092a 31FF     		xorl	%edi, %edi
 912 092c E91CFFFF 		jmp	.L105
 912      FF
 913              		.cfi_endproc
 914              	.LFE42:
 916              		.section	.rodata.str1.1
 917              	.LC6:
 918 0034 62756641 		.string	"bufAppendLongLE()"
 918      7070656E 
 918      644C6F6E 
 918      674C4528 
 918      2900
 919              		.text
 920 0931 66662E0F 		.p2align 4
 920      1F840000 
 920      0000000F 
 920      1F4000
 921              		.globl	bufAppendLongLE
 923              	bufAppendLongLE:
 924              	.LFB43:
 925              		.cfi_startproc
 926 0940 F30F1EFA 		endbr64
 927 0944 4156     		pushq	%r14
 928              		.cfi_def_cfa_offset 16
 929              		.cfi_offset 14, -16
 930 0946 4155     		pushq	%r13
 931              		.cfi_def_cfa_offset 24
 932              		.cfi_offset 13, -24
 933 0948 4154     		pushq	%r12
 934              		.cfi_def_cfa_offset 32
 935              		.cfi_offset 12, -32
 936 094a 4189F4   		movl	%esi, %r12d
 937 094d 55       		pushq	%rbp
 938              		.cfi_def_cfa_offset 40
 939              		.cfi_offset 6, -40
 940 094e 53       		pushq	%rbx
 941              		.cfi_def_cfa_offset 48
 942              		.cfi_offset 3, -48
 943 094f 488B4708 		movq	8(%rdi), %rax
 944 0953 4889FB   		movq	%rdi, %rbx
 945 0956 488B6F10 		movq	16(%rdi), %rbp
 946 095a 488B3F   		movq	(%rdi), %rdi
 947 095d 4C8D6804 		leaq	4(%rax), %r13
 948 0961 4C39ED   		cmpq	%r13, %rbp
 949 0964 724A     		jb	.L150
 950              	.L126:
 951 0966 44882407 		movb	%r12b, (%rdi,%rax)
 952 096a 488B4308 		movq	8(%rbx), %rax
 953 096e 4489E1   		movl	%r12d, %ecx
 954 0971 41C1EC18 		shrl	$24, %r12d
 955 0975 488B13   		movq	(%rbx), %rdx
 956 0978 886C0201 		movb	%ch, 1(%rdx,%rax)
 957 097c 488B4308 		movq	8(%rbx), %rax
 958 0980 C1E910   		shrl	$16, %ecx
 959 0983 488B13   		movq	(%rbx), %rdx
 960 0986 884C0202 		movb	%cl, 2(%rdx,%rax)
 961 098a 488B4308 		movq	8(%rbx), %rax
 962 098e 488B13   		movq	(%rbx), %rdx
 963 0991 44886402 		movb	%r12b, 3(%rdx,%rax)
 963      03
 964 0996 31C0     		xorl	%eax, %eax
 965 0998 48834308 		addq	$4, 8(%rbx)
 965      04
 966              	.L129:
 967              	.L125:
 968 099d 5B       		popq	%rbx
 969              		.cfi_remember_state
 970              		.cfi_def_cfa_offset 40
 971 099e 5D       		popq	%rbp
 972              		.cfi_def_cfa_offset 32
 973 099f 415C     		popq	%r12
 974              		.cfi_def_cfa_offset 24
 975 09a1 415D     		popq	%r13
 976              		.cfi_def_cfa_offset 16
 977 09a3 415E     		popq	%r14
 978              		.cfi_def_cfa_offset 8
 979 09a5 C3       		ret
 980 09a6 662E0F1F 		.p2align 4,,10
 980      84000000 
 980      0000
 981              		.p2align 3
 982              	.L150:
 983              		.cfi_restore_state
 984 09b0 4989D6   		movq	%rdx, %r14
 985              		.p2align 4,,10
 986 09b3 0F1F4400 		.p2align 3
 986      00
 987              	.L127:
 988 09b8 4801ED   		addq	%rbp, %rbp
 989 09bb 4939ED   		cmpq	%rbp, %r13
 990 09be 77F8     		ja	.L127
 991 09c0 4889EE   		movq	%rbp, %rsi
 992 09c3 E8000000 		call	realloc@PLT
 992      00
 993 09c8 4889C7   		movq	%rax, %rdi
 994 09cb 4885C0   		testq	%rax, %rax
 995 09ce 0F845E01 		je	.L151
 995      0000
 996 09d4 4A8D0C28 		leaq	(%rax,%r13), %rcx
 997 09d8 488D3428 		leaq	(%rax,%rbp), %rsi
 998 09dc 488903   		movq	%rax, (%rbx)
 999 09df 48896B10 		movq	%rbp, 16(%rbx)
 1000 09e3 4889CA   		movq	%rcx, %rdx
 1001 09e6 4839F1   		cmpq	%rsi, %rcx
 1002 09e9 0F831601 		jnb	.L148
 1002      0000
 1003 09ef 488D7B18 		leaq	24(%rbx), %rdi
 1004 09f3 4C29ED   		subq	%r13, %rbp
 1005 09f6 4C8D4B19 		leaq	25(%rbx), %r9
 1006 09fa 4889C8   		movq	%rcx, %rax
 1007 09fd 4839FE   		cmpq	%rdi, %rsi
 1008 0a00 4C8D45FF 		leaq	-1(%rbp), %r8
 1009 0a04 400F96C7 		setbe	%dil
 1010 0a08 4C39C9   		cmpq	%r9, %rcx
 1011 0a0b 410F93C1 		setnb	%r9b
 1012 0a0f 4408CF   		orb	%r9b, %dil
 1013 0a12 0F84F800 		je	.L141
 1013      0000
 1014 0a18 4983F806 		cmpq	$6, %r8
 1015 0a1c 0F86EE00 		jbe	.L141
 1015      0000
 1016 0a22 4983F80E 		cmpq	$14, %r8
 1017 0a26 0F862E01 		jbe	.L138
 1017      0000
 1018 0a2c 0FB65318 		movzbl	24(%rbx), %edx
 1019 0a30 660F6EC2 		movd	%edx, %xmm0
 1020 0a34 4889EA   		movq	%rbp, %rdx
 1021 0a37 660F60C0 		punpcklbw	%xmm0, %xmm0
 1022 0a3b 4883E2F0 		andq	$-16, %rdx
 1023 0a3f 660F61C0 		punpcklwd	%xmm0, %xmm0
 1024 0a43 4801CA   		addq	%rcx, %rdx
 1025 0a46 660F70C0 		pshufd	$0, %xmm0, %xmm0
 1025      00
 1026 0a4b 0F1F4400 		.p2align 4,,10
 1026      00
 1027              		.p2align 3
 1028              	.L133:
 1029 0a50 0F1100   		movups	%xmm0, (%rax)
 1030 0a53 4883C010 		addq	$16, %rax
 1031 0a57 4839D0   		cmpq	%rdx, %rax
 1032 0a5a 75F4     		jne	.L133
 1033 0a5c 4889EF   		movq	%rbp, %rdi
 1034 0a5f 4883E7F0 		andq	$-16, %rdi
 1035 0a63 488D1439 		leaq	(%rcx,%rdi), %rdx
 1036 0a67 4839FD   		cmpq	%rdi, %rbp
 1037 0a6a 0F849200 		je	.L137
 1037      0000
 1038 0a70 4829FD   		subq	%rdi, %rbp
 1039 0a73 488D45FF 		leaq	-1(%rbp), %rax
 1040 0a77 4883F806 		cmpq	$6, %rax
 1041 0a7b 762B     		jbe	.L135
 1042              	.L132:
 1043 0a7d 440FB643 		movzbl	24(%rbx), %r8d
 1043      18
 1044 0a82 4489C0   		movl	%r8d, %eax
 1045 0a85 C1E008   		sall	$8, %eax
 1046 0a88 4409C0   		orl	%r8d, %eax
 1047 0a8b 660F6EC8 		movd	%eax, %xmm1
 1048 0a8f 4889E8   		movq	%rbp, %rax
 1049 0a92 F20F70C1 		pshuflw	$0, %xmm1, %xmm0
 1049      00
 1050 0a97 4883E0F8 		andq	$-8, %rax
 1051 0a9b 660FD604 		movq	%xmm0, (%rcx,%rdi)
 1051      39
 1052 0aa0 4801C2   		addq	%rax, %rdx
 1053 0aa3 4839C5   		cmpq	%rax, %rbp
 1054 0aa6 745A     		je	.L137
 1055              	.L135:
 1056 0aa8 0FB64318 		movzbl	24(%rbx), %eax
 1057 0aac 488D4A01 		leaq	1(%rdx), %rcx
 1058 0ab0 8802     		movb	%al, (%rdx)
 1059 0ab2 4839CE   		cmpq	%rcx, %rsi
 1060 0ab5 764B     		jbe	.L137
 1061 0ab7 884201   		movb	%al, 1(%rdx)
 1062 0aba 488D4202 		leaq	2(%rdx), %rax
 1063 0abe 4839C6   		cmpq	%rax, %rsi
 1064 0ac1 763F     		jbe	.L137
 1065 0ac3 0FB64318 		movzbl	24(%rbx), %eax
 1066 0ac7 488D4A03 		leaq	3(%rdx), %rcx
 1067 0acb 884202   		movb	%al, 2(%rdx)
 1068 0ace 4839CE   		cmpq	%rcx, %rsi
 1069 0ad1 762F     		jbe	.L137
 1070 0ad3 884203   		movb	%al, 3(%rdx)
 1071 0ad6 488D4204 		leaq	4(%rdx), %rax
 1072 0ada 4839C6   		cmpq	%rax, %rsi
 1073 0add 7623     		jbe	.L137
 1074 0adf 0FB64318 		movzbl	24(%rbx), %eax
 1075 0ae3 488D4A05 		leaq	5(%rdx), %rcx
 1076 0ae7 884204   		movb	%al, 4(%rdx)
 1077 0aea 4839CE   		cmpq	%rcx, %rsi
 1078 0aed 7613     		jbe	.L137
 1079 0aef 884205   		movb	%al, 5(%rdx)
 1080 0af2 488D4206 		leaq	6(%rdx), %rax
 1081 0af6 4839C6   		cmpq	%rax, %rsi
 1082 0af9 7607     		jbe	.L137
 1083 0afb 0FB64318 		movzbl	24(%rbx), %eax
 1084 0aff 884206   		movb	%al, 6(%rdx)
 1085              	.L137:
 1086 0b02 488B3B   		movq	(%rbx), %rdi
 1087              	.L148:
 1088 0b05 488B4308 		movq	8(%rbx), %rax
 1089 0b09 E958FEFF 		jmp	.L126
 1089      FF
 1090 0b0e 6690     		.p2align 4,,10
 1091              		.p2align 3
 1092              	.L141:
 1093 0b10 0FB64318 		movzbl	24(%rbx), %eax
 1094 0b14 4883C201 		addq	$1, %rdx
 1095 0b18 8842FF   		movb	%al, -1(%rdx)
 1096 0b1b 4839D6   		cmpq	%rdx, %rsi
 1097 0b1e 74E2     		je	.L137
 1098 0b20 0FB64318 		movzbl	24(%rbx), %eax
 1099 0b24 4883C201 		addq	$1, %rdx
 1100 0b28 8842FF   		movb	%al, -1(%rdx)
 1101 0b2b 4839D6   		cmpq	%rdx, %rsi
 1102 0b2e 75E0     		jne	.L141
 1103 0b30 EBD0     		jmp	.L137
 1104              	.L151:
 1105 0b32 488D3500 		leaq	.LC2(%rip), %rsi
 1105      000000
 1106 0b39 4C89F7   		movq	%r14, %rdi
 1107 0b3c E8000000 		call	errPrefix@PLT
 1107      00
 1108 0b41 488D3500 		leaq	.LC6(%rip), %rsi
 1108      000000
 1109 0b48 4C89F7   		movq	%r14, %rdi
 1110 0b4b E8000000 		call	errPrefix@PLT
 1110      00
 1111 0b50 B8010000 		movl	$1, %eax
 1111      00
 1112 0b55 E943FEFF 		jmp	.L125
 1112      FF
 1113              	.L138:
 1114 0b5a 31FF     		xorl	%edi, %edi
 1115 0b5c E91CFFFF 		jmp	.L132
 1115      FF
 1116              		.cfi_endproc
 1117              	.LFE43:
 1119              		.section	.rodata.str1.1
 1120              	.LC7:
 1121 0046 62756641 		.string	"bufAppendLongBE()"
 1121      7070656E 
 1121      644C6F6E 
 1121      67424528 
 1121      2900
 1122              		.text
 1123 0b61 66662E0F 		.p2align 4
 1123      1F840000 
 1123      0000000F 
 1123      1F4000
 1124              		.globl	bufAppendLongBE
 1126              	bufAppendLongBE:
 1127              	.LFB44:
 1128              		.cfi_startproc
 1129 0b70 F30F1EFA 		endbr64
 1130 0b74 4156     		pushq	%r14
 1131              		.cfi_def_cfa_offset 16
 1132              		.cfi_offset 14, -16
 1133 0b76 4155     		pushq	%r13
 1134              		.cfi_def_cfa_offset 24
 1135              		.cfi_offset 13, -24
 1136 0b78 4154     		pushq	%r12
 1137              		.cfi_def_cfa_offset 32
 1138              		.cfi_offset 12, -32
 1139 0b7a 4189F4   		movl	%esi, %r12d
 1140 0b7d 55       		pushq	%rbp
 1141              		.cfi_def_cfa_offset 40
 1142              		.cfi_offset 6, -40
 1143 0b7e 53       		pushq	%rbx
 1144              		.cfi_def_cfa_offset 48
 1145              		.cfi_offset 3, -48
 1146 0b7f 488B4708 		movq	8(%rdi), %rax
 1147 0b83 4889FB   		movq	%rdi, %rbx
 1148 0b86 488B6F10 		movq	16(%rdi), %rbp
 1149 0b8a 488B3F   		movq	(%rdi), %rdi
 1150 0b8d 4C8D6804 		leaq	4(%rax), %r13
 1151 0b91 4C39ED   		cmpq	%r13, %rbp
 1152 0b94 724A     		jb	.L177
 1153              	.L153:
 1154 0b96 4489E2   		movl	%r12d, %edx
 1155 0b99 4489E1   		movl	%r12d, %ecx
 1156 0b9c C1EA18   		shrl	$24, %edx
 1157 0b9f C1E910   		shrl	$16, %ecx
 1158 0ba2 881407   		movb	%dl, (%rdi,%rax)
 1159 0ba5 488B4308 		movq	8(%rbx), %rax
 1160 0ba9 488B13   		movq	(%rbx), %rdx
 1161 0bac 884C0201 		movb	%cl, 1(%rdx,%rax)
 1162 0bb0 488B4308 		movq	8(%rbx), %rax
 1163 0bb4 4489E1   		movl	%r12d, %ecx
 1164 0bb7 488B13   		movq	(%rbx), %rdx
 1165 0bba 886C0202 		movb	%ch, 2(%rdx,%rax)
 1166 0bbe 488B4308 		movq	8(%rbx), %rax
 1167 0bc2 488B13   		movq	(%rbx), %rdx
 1168 0bc5 44886402 		movb	%r12b, 3(%rdx,%rax)
 1168      03
 1169 0bca 31C0     		xorl	%eax, %eax
 1170 0bcc 48834308 		addq	$4, 8(%rbx)
 1170      04
 1171              	.L156:
 1172              	.L152:
 1173 0bd1 5B       		popq	%rbx
 1174              		.cfi_remember_state
 1175              		.cfi_def_cfa_offset 40
 1176 0bd2 5D       		popq	%rbp
 1177              		.cfi_def_cfa_offset 32
 1178 0bd3 415C     		popq	%r12
 1179              		.cfi_def_cfa_offset 24
 1180 0bd5 415D     		popq	%r13
 1181              		.cfi_def_cfa_offset 16
 1182 0bd7 415E     		popq	%r14
 1183              		.cfi_def_cfa_offset 8
 1184 0bd9 C3       		ret
 1185 0bda 660F1F44 		.p2align 4,,10
 1185      0000
 1186              		.p2align 3
 1187              	.L177:
 1188              		.cfi_restore_state
 1189 0be0 4989D6   		movq	%rdx, %r14
 1190              		.p2align 4,,10
 1191 0be3 0F1F4400 		.p2align 3
 1191      00
 1192              	.L154:
 1193 0be8 4801ED   		addq	%rbp, %rbp
 1194 0beb 4939ED   		cmpq	%rbp, %r13
 1195 0bee 77F8     		ja	.L154
 1196 0bf0 4889EE   		movq	%rbp, %rsi
 1197 0bf3 E8000000 		call	realloc@PLT
 1197      00
 1198 0bf8 4889C7   		movq	%rax, %rdi
 1199 0bfb 4885C0   		testq	%rax, %rax
 1200 0bfe 0F845E01 		je	.L178
 1200      0000
 1201 0c04 4A8D0C28 		leaq	(%rax,%r13), %rcx
 1202 0c08 488D3428 		leaq	(%rax,%rbp), %rsi
 1203 0c0c 488903   		movq	%rax, (%rbx)
 1204 0c0f 48896B10 		movq	%rbp, 16(%rbx)
 1205 0c13 4889CA   		movq	%rcx, %rdx
 1206 0c16 4839F1   		cmpq	%rsi, %rcx
 1207 0c19 0F831601 		jnb	.L175
 1207      0000
 1208 0c1f 488D7B18 		leaq	24(%rbx), %rdi
 1209 0c23 4C29ED   		subq	%r13, %rbp
 1210 0c26 4C8D4B19 		leaq	25(%rbx), %r9
 1211 0c2a 4889C8   		movq	%rcx, %rax
 1212 0c2d 4839FE   		cmpq	%rdi, %rsi
 1213 0c30 4C8D45FF 		leaq	-1(%rbp), %r8
 1214 0c34 400F96C7 		setbe	%dil
 1215 0c38 4C39C9   		cmpq	%r9, %rcx
 1216 0c3b 410F93C1 		setnb	%r9b
 1217 0c3f 4408CF   		orb	%r9b, %dil
 1218 0c42 0F84F800 		je	.L168
 1218      0000
 1219 0c48 4983F806 		cmpq	$6, %r8
 1220 0c4c 0F86EE00 		jbe	.L168
 1220      0000
 1221 0c52 4983F80E 		cmpq	$14, %r8
 1222 0c56 0F862E01 		jbe	.L165
 1222      0000
 1223 0c5c 0FB65318 		movzbl	24(%rbx), %edx
 1224 0c60 660F6EC2 		movd	%edx, %xmm0
 1225 0c64 4889EA   		movq	%rbp, %rdx
 1226 0c67 660F60C0 		punpcklbw	%xmm0, %xmm0
 1227 0c6b 4883E2F0 		andq	$-16, %rdx
 1228 0c6f 660F61C0 		punpcklwd	%xmm0, %xmm0
 1229 0c73 4801CA   		addq	%rcx, %rdx
 1230 0c76 660F70C0 		pshufd	$0, %xmm0, %xmm0
 1230      00
 1231 0c7b 0F1F4400 		.p2align 4,,10
 1231      00
 1232              		.p2align 3
 1233              	.L160:
 1234 0c80 0F1100   		movups	%xmm0, (%rax)
 1235 0c83 4883C010 		addq	$16, %rax
 1236 0c87 4839D0   		cmpq	%rdx, %rax
 1237 0c8a 75F4     		jne	.L160
 1238 0c8c 4889EF   		movq	%rbp, %rdi
 1239 0c8f 4883E7F0 		andq	$-16, %rdi
 1240 0c93 488D1439 		leaq	(%rcx,%rdi), %rdx
 1241 0c97 4839FD   		cmpq	%rdi, %rbp
 1242 0c9a 0F849200 		je	.L164
 1242      0000
 1243 0ca0 4829FD   		subq	%rdi, %rbp
 1244 0ca3 488D45FF 		leaq	-1(%rbp), %rax
 1245 0ca7 4883F806 		cmpq	$6, %rax
 1246 0cab 762B     		jbe	.L162
 1247              	.L159:
 1248 0cad 440FB643 		movzbl	24(%rbx), %r8d
 1248      18
 1249 0cb2 4489C0   		movl	%r8d, %eax
 1250 0cb5 C1E008   		sall	$8, %eax
 1251 0cb8 4409C0   		orl	%r8d, %eax
 1252 0cbb 660F6EC8 		movd	%eax, %xmm1
 1253 0cbf 4889E8   		movq	%rbp, %rax
 1254 0cc2 F20F70C1 		pshuflw	$0, %xmm1, %xmm0
 1254      00
 1255 0cc7 4883E0F8 		andq	$-8, %rax
 1256 0ccb 660FD604 		movq	%xmm0, (%rcx,%rdi)
 1256      39
 1257 0cd0 4801C2   		addq	%rax, %rdx
 1258 0cd3 4839C5   		cmpq	%rax, %rbp
 1259 0cd6 745A     		je	.L164
 1260              	.L162:
 1261 0cd8 0FB64318 		movzbl	24(%rbx), %eax
 1262 0cdc 488D4A01 		leaq	1(%rdx), %rcx
 1263 0ce0 8802     		movb	%al, (%rdx)
 1264 0ce2 4839CE   		cmpq	%rcx, %rsi
 1265 0ce5 764B     		jbe	.L164
 1266 0ce7 884201   		movb	%al, 1(%rdx)
 1267 0cea 488D4202 		leaq	2(%rdx), %rax
 1268 0cee 4839C6   		cmpq	%rax, %rsi
 1269 0cf1 763F     		jbe	.L164
 1270 0cf3 0FB64318 		movzbl	24(%rbx), %eax
 1271 0cf7 488D4A03 		leaq	3(%rdx), %rcx
 1272 0cfb 884202   		movb	%al, 2(%rdx)
 1273 0cfe 4839CE   		cmpq	%rcx, %rsi
 1274 0d01 762F     		jbe	.L164
 1275 0d03 884203   		movb	%al, 3(%rdx)
 1276 0d06 488D4204 		leaq	4(%rdx), %rax
 1277 0d0a 4839C6   		cmpq	%rax, %rsi
 1278 0d0d 7623     		jbe	.L164
 1279 0d0f 0FB64318 		movzbl	24(%rbx), %eax
 1280 0d13 488D4A05 		leaq	5(%rdx), %rcx
 1281 0d17 884204   		movb	%al, 4(%rdx)
 1282 0d1a 4839CE   		cmpq	%rcx, %rsi
 1283 0d1d 7613     		jbe	.L164
 1284 0d1f 884205   		movb	%al, 5(%rdx)
 1285 0d22 488D4206 		leaq	6(%rdx), %rax
 1286 0d26 4839C6   		cmpq	%rax, %rsi
 1287 0d29 7607     		jbe	.L164
 1288 0d2b 0FB64318 		movzbl	24(%rbx), %eax
 1289 0d2f 884206   		movb	%al, 6(%rdx)
 1290              	.L164:
 1291 0d32 488B3B   		movq	(%rbx), %rdi
 1292              	.L175:
 1293 0d35 488B4308 		movq	8(%rbx), %rax
 1294 0d39 E958FEFF 		jmp	.L153
 1294      FF
 1295 0d3e 6690     		.p2align 4,,10
 1296              		.p2align 3
 1297              	.L168:
 1298 0d40 0FB64318 		movzbl	24(%rbx), %eax
 1299 0d44 4883C201 		addq	$1, %rdx
 1300 0d48 8842FF   		movb	%al, -1(%rdx)
 1301 0d4b 4839D6   		cmpq	%rdx, %rsi
 1302 0d4e 74E2     		je	.L164
 1303 0d50 0FB64318 		movzbl	24(%rbx), %eax
 1304 0d54 4883C201 		addq	$1, %rdx
 1305 0d58 8842FF   		movb	%al, -1(%rdx)
 1306 0d5b 4839D6   		cmpq	%rdx, %rsi
 1307 0d5e 75E0     		jne	.L168
 1308 0d60 EBD0     		jmp	.L164
 1309              	.L178:
 1310 0d62 488D3500 		leaq	.LC2(%rip), %rsi
 1310      000000
 1311 0d69 4C89F7   		movq	%r14, %rdi
 1312 0d6c E8000000 		call	errPrefix@PLT
 1312      00
 1313 0d71 488D3500 		leaq	.LC7(%rip), %rsi
 1313      000000
 1314 0d78 4C89F7   		movq	%r14, %rdi
 1315 0d7b E8000000 		call	errPrefix@PLT
 1315      00
 1316 0d80 B8010000 		movl	$1, %eax
 1316      00
 1317 0d85 E947FEFF 		jmp	.L152
 1317      FF
 1318              	.L165:
 1319 0d8a 31FF     		xorl	%edi, %edi
 1320 0d8c E91CFFFF 		jmp	.L159
 1320      FF
 1321              		.cfi_endproc
 1322              	.LFE44:
 1324              		.section	.rodata.str1.1
 1325              	.LC8:
 1326 0058 62756641 		.string	"bufAppendConst()"
 1326      7070656E 
 1326      64436F6E 
 1326      73742829 
 1326      00
 1327              		.text
 1328 0d91 66662E0F 		.p2align 4
 1328      1F840000 
 1328      0000000F 
 1328      1F4000
 1329              		.globl	bufAppendConst
 1331              	bufAppendConst:
 1332              	.LFB45:
 1333              		.cfi_startproc
 1334 0da0 F30F1EFA 		endbr64
 1335 0da4 4157     		pushq	%r15
 1336              		.cfi_def_cfa_offset 16
 1337              		.cfi_offset 15, -16
 1338 0da6 4156     		pushq	%r14
 1339              		.cfi_def_cfa_offset 24
 1340              		.cfi_offset 14, -24
 1341 0da8 4989D6   		movq	%rdx, %r14
 1342 0dab 4155     		pushq	%r13
 1343              		.cfi_def_cfa_offset 32
 1344              		.cfi_offset 13, -32
 1345 0dad 4189F5   		movl	%esi, %r13d
 1346 0db0 4154     		pushq	%r12
 1347              		.cfi_def_cfa_offset 40
 1348              		.cfi_offset 12, -40
 1349 0db2 55       		pushq	%rbp
 1350              		.cfi_def_cfa_offset 48
 1351              		.cfi_offset 6, -48
 1352 0db3 4889FD   		movq	%rdi, %rbp
 1353 0db6 53       		pushq	%rbx
 1354              		.cfi_def_cfa_offset 56
 1355              		.cfi_offset 3, -56
 1356 0db7 4883EC08 		subq	$8, %rsp
 1357              		.cfi_def_cfa_offset 64
 1358 0dbb 488B4708 		movq	8(%rdi), %rax
 1359 0dbf 488B5F10 		movq	16(%rdi), %rbx
 1360 0dc3 488B3F   		movq	(%rdi), %rdi
 1361 0dc6 4C8D2410 		leaq	(%rax,%rdx), %r12
 1362 0dca 4C39E3   		cmpq	%r12, %rbx
 1363 0dcd 0F835F01 		jnb	.L180
 1363      0000
 1364 0dd3 4989CF   		movq	%rcx, %r15
 1365 0dd6 662E0F1F 		.p2align 4,,10
 1365      84000000 
 1365      0000
 1366              		.p2align 3
 1367              	.L181:
 1368 0de0 4801DB   		addq	%rbx, %rbx
 1369 0de3 4939DC   		cmpq	%rbx, %r12
 1370 0de6 77F8     		ja	.L181
 1371 0de8 4889DE   		movq	%rbx, %rsi
 1372 0deb E8000000 		call	realloc@PLT
 1372      00
 1373 0df0 4889C7   		movq	%rax, %rdi
 1374 0df3 4885C0   		testq	%rax, %rax
 1375 0df6 0F848601 		je	.L204
 1375      0000
 1376 0dfc 4A8D0C20 		leaq	(%rax,%r12), %rcx
 1377 0e00 488D3418 		leaq	(%rax,%rbx), %rsi
 1378 0e04 48894500 		movq	%rax, 0(%rbp)
 1379 0e08 48895D10 		movq	%rbx, 16(%rbp)
 1380 0e0c 4889CA   		movq	%rcx, %rdx
 1381 0e0f 4839F1   		cmpq	%rsi, %rcx
 1382 0e12 0F831601 		jnb	.L202
 1382      0000
 1383 0e18 488D7D18 		leaq	24(%rbp), %rdi
 1384 0e1c 4C29E3   		subq	%r12, %rbx
 1385 0e1f 4C8D4D19 		leaq	25(%rbp), %r9
 1386 0e23 4889C8   		movq	%rcx, %rax
 1387 0e26 4839FE   		cmpq	%rdi, %rsi
 1388 0e29 4C8D43FF 		leaq	-1(%rbx), %r8
 1389 0e2d 400F96C7 		setbe	%dil
 1390 0e31 4C39C9   		cmpq	%r9, %rcx
 1391 0e34 410F93C1 		setnb	%r9b
 1392 0e38 4408CF   		orb	%r9b, %dil
 1393 0e3b 0F841F01 		je	.L195
 1393      0000
 1394 0e41 4983F806 		cmpq	$6, %r8
 1395 0e45 0F861501 		jbe	.L195
 1395      0000
 1396 0e4b 4983F80E 		cmpq	$14, %r8
 1397 0e4f 0F865F01 		jbe	.L192
 1397      0000
 1398 0e55 0FB65518 		movzbl	24(%rbp), %edx
 1399 0e59 660F6EC2 		movd	%edx, %xmm0
 1400 0e5d 4889DA   		movq	%rbx, %rdx
 1401 0e60 660F60C0 		punpcklbw	%xmm0, %xmm0
 1402 0e64 4883E2F0 		andq	$-16, %rdx
 1403 0e68 660F61C0 		punpcklwd	%xmm0, %xmm0
 1404 0e6c 4801CA   		addq	%rcx, %rdx
 1405 0e6f 660F70C0 		pshufd	$0, %xmm0, %xmm0
 1405      00
 1406              		.p2align 4,,10
 1407 0e74 0F1F4000 		.p2align 3
 1408              	.L187:
 1409 0e78 0F1100   		movups	%xmm0, (%rax)
 1410 0e7b 4883C010 		addq	$16, %rax
 1411 0e7f 4839D0   		cmpq	%rdx, %rax
 1412 0e82 75F4     		jne	.L187
 1413 0e84 4889DF   		movq	%rbx, %rdi
 1414 0e87 4883E7F0 		andq	$-16, %rdi
 1415 0e8b 488D1439 		leaq	(%rcx,%rdi), %rdx
 1416 0e8f 4839FB   		cmpq	%rdi, %rbx
 1417 0e92 0F849200 		je	.L191
 1417      0000
 1418 0e98 4829FB   		subq	%rdi, %rbx
 1419 0e9b 488D43FF 		leaq	-1(%rbx), %rax
 1420 0e9f 4883F806 		cmpq	$6, %rax
 1421 0ea3 762B     		jbe	.L189
 1422              	.L186:
 1423 0ea5 440FB645 		movzbl	24(%rbp), %r8d
 1423      18
 1424 0eaa 4489C0   		movl	%r8d, %eax
 1425 0ead C1E008   		sall	$8, %eax
 1426 0eb0 4409C0   		orl	%r8d, %eax
 1427 0eb3 660F6EC8 		movd	%eax, %xmm1
 1428 0eb7 4889D8   		movq	%rbx, %rax
 1429 0eba F20F70C1 		pshuflw	$0, %xmm1, %xmm0
 1429      00
 1430 0ebf 4883E0F8 		andq	$-8, %rax
 1431 0ec3 660FD604 		movq	%xmm0, (%rcx,%rdi)
 1431      39
 1432 0ec8 4801C2   		addq	%rax, %rdx
 1433 0ecb 4839C3   		cmpq	%rax, %rbx
 1434 0ece 745A     		je	.L191
 1435              	.L189:
 1436 0ed0 0FB64518 		movzbl	24(%rbp), %eax
 1437 0ed4 488D4A01 		leaq	1(%rdx), %rcx
 1438 0ed8 8802     		movb	%al, (%rdx)
 1439 0eda 4839CE   		cmpq	%rcx, %rsi
 1440 0edd 764B     		jbe	.L191
 1441 0edf 884201   		movb	%al, 1(%rdx)
 1442 0ee2 488D4202 		leaq	2(%rdx), %rax
 1443 0ee6 4839C6   		cmpq	%rax, %rsi
 1444 0ee9 763F     		jbe	.L191
 1445 0eeb 0FB64518 		movzbl	24(%rbp), %eax
 1446 0eef 488D4A03 		leaq	3(%rdx), %rcx
 1447 0ef3 884202   		movb	%al, 2(%rdx)
 1448 0ef6 4839CE   		cmpq	%rcx, %rsi
 1449 0ef9 762F     		jbe	.L191
 1450 0efb 884203   		movb	%al, 3(%rdx)
 1451 0efe 488D4204 		leaq	4(%rdx), %rax
 1452 0f02 4839C6   		cmpq	%rax, %rsi
 1453 0f05 7623     		jbe	.L191
 1454 0f07 0FB64518 		movzbl	24(%rbp), %eax
 1455 0f0b 488D4A05 		leaq	5(%rdx), %rcx
 1456 0f0f 884204   		movb	%al, 4(%rdx)
 1457 0f12 4839CE   		cmpq	%rcx, %rsi
 1458 0f15 7613     		jbe	.L191
 1459 0f17 884205   		movb	%al, 5(%rdx)
 1460 0f1a 488D4206 		leaq	6(%rdx), %rax
 1461 0f1e 4839C6   		cmpq	%rax, %rsi
 1462 0f21 7607     		jbe	.L191
 1463 0f23 0FB64518 		movzbl	24(%rbp), %eax
 1464 0f27 884206   		movb	%al, 6(%rdx)
 1465              	.L191:
 1466 0f2a 488B7D00 		movq	0(%rbp), %rdi
 1467              	.L202:
 1468 0f2e 488B4508 		movq	8(%rbp), %rax
 1469              	.L180:
 1470              	.L183:
 1471 0f32 410FB6F5 		movzbl	%r13b, %esi
 1472 0f36 4C89F2   		movq	%r14, %rdx
 1473 0f39 4801C7   		addq	%rax, %rdi
 1474 0f3c E8000000 		call	memset@PLT
 1474      00
 1475 0f41 4C896508 		movq	%r12, 8(%rbp)
 1476 0f45 4883C408 		addq	$8, %rsp
 1477              		.cfi_remember_state
 1478              		.cfi_def_cfa_offset 56
 1479 0f49 31C0     		xorl	%eax, %eax
 1480 0f4b 5B       		popq	%rbx
 1481              		.cfi_def_cfa_offset 48
 1482 0f4c 5D       		popq	%rbp
 1483              		.cfi_def_cfa_offset 40
 1484 0f4d 415C     		popq	%r12
 1485              		.cfi_def_cfa_offset 32
 1486 0f4f 415D     		popq	%r13
 1487              		.cfi_def_cfa_offset 24
 1488 0f51 415E     		popq	%r14
 1489              		.cfi_def_cfa_offset 16
 1490 0f53 415F     		popq	%r15
 1491              		.cfi_def_cfa_offset 8
 1492 0f55 C3       		ret
 1493 0f56 662E0F1F 		.p2align 4,,10
 1493      84000000 
 1493      0000
 1494              		.p2align 3
 1495              	.L195:
 1496              		.cfi_restore_state
 1497 0f60 0FB64518 		movzbl	24(%rbp), %eax
 1498 0f64 4883C201 		addq	$1, %rdx
 1499 0f68 8842FF   		movb	%al, -1(%rdx)
 1500 0f6b 4839D6   		cmpq	%rdx, %rsi
 1501 0f6e 74BA     		je	.L191
 1502 0f70 0FB64518 		movzbl	24(%rbp), %eax
 1503 0f74 4883C201 		addq	$1, %rdx
 1504 0f78 8842FF   		movb	%al, -1(%rdx)
 1505 0f7b 4839D6   		cmpq	%rdx, %rsi
 1506 0f7e 75E0     		jne	.L195
 1507 0f80 EBA8     		jmp	.L191
 1508              	.L204:
 1509 0f82 4C89FF   		movq	%r15, %rdi
 1510 0f85 488D3500 		leaq	.LC2(%rip), %rsi
 1510      000000
 1511 0f8c E8000000 		call	errPrefix@PLT
 1511      00
 1512 0f91 4C89FF   		movq	%r15, %rdi
 1513 0f94 488D3500 		leaq	.LC8(%rip), %rsi
 1513      000000
 1514 0f9b E8000000 		call	errPrefix@PLT
 1514      00
 1515 0fa0 4883C408 		addq	$8, %rsp
 1516              		.cfi_remember_state
 1517              		.cfi_def_cfa_offset 56
 1518 0fa4 B8010000 		movl	$1, %eax
 1518      00
 1519 0fa9 5B       		popq	%rbx
 1520              		.cfi_def_cfa_offset 48
 1521 0faa 5D       		popq	%rbp
 1522              		.cfi_def_cfa_offset 40
 1523 0fab 415C     		popq	%r12
 1524              		.cfi_def_cfa_offset 32
 1525 0fad 415D     		popq	%r13
 1526              		.cfi_def_cfa_offset 24
 1527 0faf 415E     		popq	%r14
 1528              		.cfi_def_cfa_offset 16
 1529 0fb1 415F     		popq	%r15
 1530              		.cfi_def_cfa_offset 8
 1531 0fb3 C3       		ret
 1532              	.L192:
 1533              		.cfi_restore_state
 1534 0fb4 31FF     		xorl	%edi, %edi
 1535 0fb6 E9EAFEFF 		jmp	.L186
 1535      FF
 1536              		.cfi_endproc
 1537              	.LFE45:
 1539              		.section	.rodata.str1.1
 1540              	.LC9:
 1541 0069 62756641 		.string	"bufAppendBlock()"
 1541      7070656E 
 1541      64426C6F 
 1541      636B2829 
 1541      00
 1542              		.text
 1543 0fbb 0F1F4400 		.p2align 4
 1543      00
 1544              		.globl	bufAppendBlock
 1546              	bufAppendBlock:
 1547              	.LFB46:
 1548              		.cfi_startproc
 1549 0fc0 F30F1EFA 		endbr64
 1550 0fc4 4157     		pushq	%r15
 1551              		.cfi_def_cfa_offset 16
 1552              		.cfi_offset 15, -16
 1553 0fc6 4156     		pushq	%r14
 1554              		.cfi_def_cfa_offset 24
 1555              		.cfi_offset 14, -24
 1556 0fc8 4989D6   		movq	%rdx, %r14
 1557 0fcb 4155     		pushq	%r13
 1558              		.cfi_def_cfa_offset 32
 1559              		.cfi_offset 13, -32
 1560 0fcd 4989F5   		movq	%rsi, %r13
 1561 0fd0 4154     		pushq	%r12
 1562              		.cfi_def_cfa_offset 40
 1563              		.cfi_offset 12, -40
 1564 0fd2 55       		pushq	%rbp
 1565              		.cfi_def_cfa_offset 48
 1566              		.cfi_offset 6, -48
 1567 0fd3 4889FD   		movq	%rdi, %rbp
 1568 0fd6 53       		pushq	%rbx
 1569              		.cfi_def_cfa_offset 56
 1570              		.cfi_offset 3, -56
 1571 0fd7 4883EC08 		subq	$8, %rsp
 1572              		.cfi_def_cfa_offset 64
 1573 0fdb 488B4708 		movq	8(%rdi), %rax
 1574 0fdf 488B5F10 		movq	16(%rdi), %rbx
 1575 0fe3 488B3F   		movq	(%rdi), %rdi
 1576 0fe6 4C8D2410 		leaq	(%rax,%rdx), %r12
 1577 0fea 4C39E3   		cmpq	%r12, %rbx
 1578 0fed 0F835F01 		jnb	.L206
 1578      0000
 1579 0ff3 4989CF   		movq	%rcx, %r15
 1580 0ff6 662E0F1F 		.p2align 4,,10
 1580      84000000 
 1580      0000
 1581              		.p2align 3
 1582              	.L207:
 1583 1000 4801DB   		addq	%rbx, %rbx
 1584 1003 4939DC   		cmpq	%rbx, %r12
 1585 1006 77F8     		ja	.L207
 1586 1008 4889DE   		movq	%rbx, %rsi
 1587 100b E8000000 		call	realloc@PLT
 1587      00
 1588 1010 4889C7   		movq	%rax, %rdi
 1589 1013 4885C0   		testq	%rax, %rax
 1590 1016 0F847E01 		je	.L230
 1590      0000
 1591 101c 4A8D0C20 		leaq	(%rax,%r12), %rcx
 1592 1020 488D3418 		leaq	(%rax,%rbx), %rsi
 1593 1024 48894500 		movq	%rax, 0(%rbp)
 1594 1028 48895D10 		movq	%rbx, 16(%rbp)
 1595 102c 4889CA   		movq	%rcx, %rdx
 1596 102f 4839F1   		cmpq	%rsi, %rcx
 1597 1032 0F831601 		jnb	.L228
 1597      0000
 1598 1038 488D7D18 		leaq	24(%rbp), %rdi
 1599 103c 4C29E3   		subq	%r12, %rbx
 1600 103f 4C8D4D19 		leaq	25(%rbp), %r9
 1601 1043 4889C8   		movq	%rcx, %rax
 1602 1046 4839FE   		cmpq	%rdi, %rsi
 1603 1049 4C8D43FF 		leaq	-1(%rbx), %r8
 1604 104d 400F96C7 		setbe	%dil
 1605 1051 4C39C9   		cmpq	%r9, %rcx
 1606 1054 410F93C1 		setnb	%r9b
 1607 1058 4408CF   		orb	%r9b, %dil
 1608 105b 0F841701 		je	.L221
 1608      0000
 1609 1061 4983F806 		cmpq	$6, %r8
 1610 1065 0F860D01 		jbe	.L221
 1610      0000
 1611 106b 4983F80E 		cmpq	$14, %r8
 1612 106f 0F865701 		jbe	.L218
 1612      0000
 1613 1075 0FB65518 		movzbl	24(%rbp), %edx
 1614 1079 660F6EC2 		movd	%edx, %xmm0
 1615 107d 4889DA   		movq	%rbx, %rdx
 1616 1080 660F60C0 		punpcklbw	%xmm0, %xmm0
 1617 1084 4883E2F0 		andq	$-16, %rdx
 1618 1088 660F61C0 		punpcklwd	%xmm0, %xmm0
 1619 108c 4801CA   		addq	%rcx, %rdx
 1620 108f 660F70C0 		pshufd	$0, %xmm0, %xmm0
 1620      00
 1621              		.p2align 4,,10
 1622 1094 0F1F4000 		.p2align 3
 1623              	.L213:
 1624 1098 0F1100   		movups	%xmm0, (%rax)
 1625 109b 4883C010 		addq	$16, %rax
 1626 109f 4839D0   		cmpq	%rdx, %rax
 1627 10a2 75F4     		jne	.L213
 1628 10a4 4889DF   		movq	%rbx, %rdi
 1629 10a7 4883E7F0 		andq	$-16, %rdi
 1630 10ab 488D1439 		leaq	(%rcx,%rdi), %rdx
 1631 10af 4839FB   		cmpq	%rdi, %rbx
 1632 10b2 0F849200 		je	.L217
 1632      0000
 1633 10b8 4829FB   		subq	%rdi, %rbx
 1634 10bb 488D43FF 		leaq	-1(%rbx), %rax
 1635 10bf 4883F806 		cmpq	$6, %rax
 1636 10c3 762B     		jbe	.L215
 1637              	.L212:
 1638 10c5 440FB645 		movzbl	24(%rbp), %r8d
 1638      18
 1639 10ca 4489C0   		movl	%r8d, %eax
 1640 10cd C1E008   		sall	$8, %eax
 1641 10d0 4409C0   		orl	%r8d, %eax
 1642 10d3 660F6EC8 		movd	%eax, %xmm1
 1643 10d7 4889D8   		movq	%rbx, %rax
 1644 10da F20F70C1 		pshuflw	$0, %xmm1, %xmm0
 1644      00
 1645 10df 4883E0F8 		andq	$-8, %rax
 1646 10e3 660FD604 		movq	%xmm0, (%rcx,%rdi)
 1646      39
 1647 10e8 4801C2   		addq	%rax, %rdx
 1648 10eb 4839C3   		cmpq	%rax, %rbx
 1649 10ee 745A     		je	.L217
 1650              	.L215:
 1651 10f0 0FB64518 		movzbl	24(%rbp), %eax
 1652 10f4 488D4A01 		leaq	1(%rdx), %rcx
 1653 10f8 8802     		movb	%al, (%rdx)
 1654 10fa 4839CE   		cmpq	%rcx, %rsi
 1655 10fd 764B     		jbe	.L217
 1656 10ff 884201   		movb	%al, 1(%rdx)
 1657 1102 488D4202 		leaq	2(%rdx), %rax
 1658 1106 4839C6   		cmpq	%rax, %rsi
 1659 1109 763F     		jbe	.L217
 1660 110b 0FB64518 		movzbl	24(%rbp), %eax
 1661 110f 488D4A03 		leaq	3(%rdx), %rcx
 1662 1113 884202   		movb	%al, 2(%rdx)
 1663 1116 4839CE   		cmpq	%rcx, %rsi
 1664 1119 762F     		jbe	.L217
 1665 111b 884203   		movb	%al, 3(%rdx)
 1666 111e 488D4204 		leaq	4(%rdx), %rax
 1667 1122 4839C6   		cmpq	%rax, %rsi
 1668 1125 7623     		jbe	.L217
 1669 1127 0FB64518 		movzbl	24(%rbp), %eax
 1670 112b 488D4A05 		leaq	5(%rdx), %rcx
 1671 112f 884204   		movb	%al, 4(%rdx)
 1672 1132 4839CE   		cmpq	%rcx, %rsi
 1673 1135 7613     		jbe	.L217
 1674 1137 884205   		movb	%al, 5(%rdx)
 1675 113a 488D4206 		leaq	6(%rdx), %rax
 1676 113e 4839C6   		cmpq	%rax, %rsi
 1677 1141 7607     		jbe	.L217
 1678 1143 0FB64518 		movzbl	24(%rbp), %eax
 1679 1147 884206   		movb	%al, 6(%rdx)
 1680              	.L217:
 1681 114a 488B7D00 		movq	0(%rbp), %rdi
 1682              	.L228:
 1683 114e 488B4508 		movq	8(%rbp), %rax
 1684              	.L206:
 1685              	.L209:
 1686 1152 4C89F2   		movq	%r14, %rdx
 1687 1155 4C89EE   		movq	%r13, %rsi
 1688 1158 4801C7   		addq	%rax, %rdi
 1689 115b E8000000 		call	memcpy@PLT
 1689      00
 1690 1160 4C896508 		movq	%r12, 8(%rbp)
 1691 1164 4883C408 		addq	$8, %rsp
 1692              		.cfi_remember_state
 1693              		.cfi_def_cfa_offset 56
 1694 1168 31C0     		xorl	%eax, %eax
 1695 116a 5B       		popq	%rbx
 1696              		.cfi_def_cfa_offset 48
 1697 116b 5D       		popq	%rbp
 1698              		.cfi_def_cfa_offset 40
 1699 116c 415C     		popq	%r12
 1700              		.cfi_def_cfa_offset 32
 1701 116e 415D     		popq	%r13
 1702              		.cfi_def_cfa_offset 24
 1703 1170 415E     		popq	%r14
 1704              		.cfi_def_cfa_offset 16
 1705 1172 415F     		popq	%r15
 1706              		.cfi_def_cfa_offset 8
 1707 1174 C3       		ret
 1708              		.p2align 4,,10
 1709 1175 0F1F00   		.p2align 3
 1710              	.L221:
 1711              		.cfi_restore_state
 1712 1178 0FB64518 		movzbl	24(%rbp), %eax
 1713 117c 4883C201 		addq	$1, %rdx
 1714 1180 8842FF   		movb	%al, -1(%rdx)
 1715 1183 4839D6   		cmpq	%rdx, %rsi
 1716 1186 74C2     		je	.L217
 1717 1188 0FB64518 		movzbl	24(%rbp), %eax
 1718 118c 4883C201 		addq	$1, %rdx
 1719 1190 8842FF   		movb	%al, -1(%rdx)
 1720 1193 4839D6   		cmpq	%rdx, %rsi
 1721 1196 75E0     		jne	.L221
 1722 1198 EBB0     		jmp	.L217
 1723              	.L230:
 1724 119a 4C89FF   		movq	%r15, %rdi
 1725 119d 488D3500 		leaq	.LC2(%rip), %rsi
 1725      000000
 1726 11a4 E8000000 		call	errPrefix@PLT
 1726      00
 1727 11a9 4C89FF   		movq	%r15, %rdi
 1728 11ac 488D3500 		leaq	.LC9(%rip), %rsi
 1728      000000
 1729 11b3 E8000000 		call	errPrefix@PLT
 1729      00
 1730 11b8 4883C408 		addq	$8, %rsp
 1731              		.cfi_remember_state
 1732              		.cfi_def_cfa_offset 56
 1733 11bc B8010000 		movl	$1, %eax
 1733      00
 1734 11c1 5B       		popq	%rbx
 1735              		.cfi_def_cfa_offset 48
 1736 11c2 5D       		popq	%rbp
 1737              		.cfi_def_cfa_offset 40
 1738 11c3 415C     		popq	%r12
 1739              		.cfi_def_cfa_offset 32
 1740 11c5 415D     		popq	%r13
 1741              		.cfi_def_cfa_offset 24
 1742 11c7 415E     		popq	%r14
 1743              		.cfi_def_cfa_offset 16
 1744 11c9 415F     		popq	%r15
 1745              		.cfi_def_cfa_offset 8
 1746 11cb C3       		ret
 1747              	.L218:
 1748              		.cfi_restore_state
 1749 11cc 31FF     		xorl	%edi, %edi
 1750 11ce E9F2FEFF 		jmp	.L212
 1750      FF
 1751              		.cfi_endproc
 1752              	.LFE46:
 1754              		.section	.rodata.str1.1
 1755              	.LC10:
 1756 007a 6D617962 		.string	"maybeReallocate()"
 1756      65526561 
 1756      6C6C6F63 
 1756      61746528 
 1756      2900
 1757              	.LC11:
 1758 008c 62756657 		.string	"bufWriteByte()"
 1758      72697465 
 1758      42797465 
 1758      282900
 1759              		.text
 1760 11d3 66662E0F 		.p2align 4
 1760      1F840000 
 1760      00000066 
 1760      90
 1761              		.globl	bufWriteByte
 1763              	bufWriteByte:
 1764              	.LFB48:
 1765              		.cfi_startproc
 1766 11e0 F30F1EFA 		endbr64
 1767 11e4 4157     		pushq	%r15
 1768              		.cfi_def_cfa_offset 16
 1769              		.cfi_offset 15, -16
 1770 11e6 4989CF   		movq	%rcx, %r15
 1771 11e9 4156     		pushq	%r14
 1772              		.cfi_def_cfa_offset 24
 1773              		.cfi_offset 14, -24
 1774 11eb 4189D6   		movl	%edx, %r14d
 1775 11ee 4155     		pushq	%r13
 1776              		.cfi_def_cfa_offset 32
 1777              		.cfi_offset 13, -32
 1778 11f0 4C8D6E01 		leaq	1(%rsi), %r13
 1779 11f4 4154     		pushq	%r12
 1780              		.cfi_def_cfa_offset 40
 1781              		.cfi_offset 12, -40
 1782 11f6 4989F4   		movq	%rsi, %r12
 1783 11f9 55       		pushq	%rbp
 1784              		.cfi_def_cfa_offset 48
 1785              		.cfi_offset 6, -48
 1786 11fa 53       		pushq	%rbx
 1787              		.cfi_def_cfa_offset 56
 1788              		.cfi_offset 3, -56
 1789 11fb 4889FB   		movq	%rdi, %rbx
 1790 11fe 4883EC08 		subq	$8, %rsp
 1791              		.cfi_def_cfa_offset 64
 1792 1202 4C8B4708 		movq	8(%rdi), %r8
 1793 1206 488B3F   		movq	(%rdi), %rdi
 1794 1209 4C39C6   		cmpq	%r8, %rsi
 1795 120c 0F82AE02 		jb	.L232
 1795      0000
 1796 1212 488B6B10 		movq	16(%rbx), %rbp
 1797 1216 4939ED   		cmpq	%rbp, %r13
 1798 1219 0F874101 		ja	.L234
 1798      0000
 1799              	.L233:
 1800 121f 4E8D0C07 		leaq	(%rdi,%r8), %r9
 1801 1223 4A8D0427 		leaq	(%rdi,%r12), %rax
 1802 1227 4C89CA   		movq	%r9, %rdx
 1803 122a 4939C1   		cmpq	%rax, %r9
 1804 122d 0F831E01 		jnb	.L245
 1804      0000
 1805 1233 488D7B18 		leaq	24(%rbx), %rdi
 1806 1237 4C89E6   		movq	%r12, %rsi
 1807 123a 4C8D5319 		leaq	25(%rbx), %r10
 1808 123e 4C89C9   		movq	%r9, %rcx
 1809 1241 4C29C6   		subq	%r8, %rsi
 1810 1244 4839F8   		cmpq	%rdi, %rax
 1811 1247 400F96C7 		setbe	%dil
 1812 124b 4D39D1   		cmpq	%r10, %r9
 1813 124e 4C8D46FF 		leaq	-1(%rsi), %r8
 1814 1252 410F93C2 		setnb	%r10b
 1815 1256 4408D7   		orb	%r10b, %dil
 1816 1259 0F848102 		je	.L276
 1816      0000
 1817 125f 4983F806 		cmpq	$6, %r8
 1818 1263 0F867702 		jbe	.L276
 1818      0000
 1819 1269 4983F80E 		cmpq	$14, %r8
 1820 126d 0F86A604 		jbe	.L266
 1820      0000
 1821 1273 0FB65318 		movzbl	24(%rbx), %edx
 1822 1277 660F6EC2 		movd	%edx, %xmm0
 1823 127b 4889F2   		movq	%rsi, %rdx
 1824 127e 660F60C0 		punpcklbw	%xmm0, %xmm0
 1825 1282 4883E2F0 		andq	$-16, %rdx
 1826 1286 660F61C0 		punpcklwd	%xmm0, %xmm0
 1827 128a 4C01CA   		addq	%r9, %rdx
 1828 128d 660F70C0 		pshufd	$0, %xmm0, %xmm0
 1828      00
 1829              		.p2align 4,,10
 1830 1292 660F1F44 		.p2align 3
 1830      0000
 1831              	.L248:
 1832 1298 0F1101   		movups	%xmm0, (%rcx)
 1833 129b 4883C110 		addq	$16, %rcx
 1834 129f 4839D1   		cmpq	%rdx, %rcx
 1835 12a2 75F4     		jne	.L248
 1836 12a4 4889F7   		movq	%rsi, %rdi
 1837 12a7 4883E7F0 		andq	$-16, %rdi
 1838 12ab 498D1439 		leaq	(%r9,%rdi), %rdx
 1839 12af 4839FE   		cmpq	%rdi, %rsi
 1840 12b2 0F849300 		je	.L252
 1840      0000
 1841 12b8 4829FE   		subq	%rdi, %rsi
 1842 12bb 488D4EFF 		leaq	-1(%rsi), %rcx
 1843 12bf 4883F906 		cmpq	$6, %rcx
 1844 12c3 762C     		jbe	.L250
 1845              	.L247:
 1846 12c5 440FB643 		movzbl	24(%rbx), %r8d
 1846      18
 1847 12ca 4489C1   		movl	%r8d, %ecx
 1848 12cd C1E108   		sall	$8, %ecx
 1849 12d0 4409C1   		orl	%r8d, %ecx
 1850 12d3 660F6EC9 		movd	%ecx, %xmm1
 1851 12d7 4889F1   		movq	%rsi, %rcx
 1852 12da F20F70C1 		pshuflw	$0, %xmm1, %xmm0
 1852      00
 1853 12df 4883E1F8 		andq	$-8, %rcx
 1854 12e3 66410FD6 		movq	%xmm0, (%r9,%rdi)
 1854      0439
 1855 12e9 4801CA   		addq	%rcx, %rdx
 1856 12ec 4839F1   		cmpq	%rsi, %rcx
 1857 12ef 745A     		je	.L252
 1858              	.L250:
 1859 12f1 0FB64B18 		movzbl	24(%rbx), %ecx
 1860 12f5 488D7201 		leaq	1(%rdx), %rsi
 1861 12f9 880A     		movb	%cl, (%rdx)
 1862 12fb 4839F0   		cmpq	%rsi, %rax
 1863 12fe 764B     		jbe	.L252
 1864 1300 884A01   		movb	%cl, 1(%rdx)
 1865 1303 488D4A02 		leaq	2(%rdx), %rcx
 1866 1307 4839C8   		cmpq	%rcx, %rax
 1867 130a 763F     		jbe	.L252
 1868 130c 0FB64B18 		movzbl	24(%rbx), %ecx
 1869 1310 488D7203 		leaq	3(%rdx), %rsi
 1870 1314 884A02   		movb	%cl, 2(%rdx)
 1871 1317 4839F0   		cmpq	%rsi, %rax
 1872 131a 762F     		jbe	.L252
 1873 131c 884A03   		movb	%cl, 3(%rdx)
 1874 131f 488D4A04 		leaq	4(%rdx), %rcx
 1875 1323 4839C8   		cmpq	%rcx, %rax
 1876 1326 7623     		jbe	.L252
 1877 1328 0FB64B18 		movzbl	24(%rbx), %ecx
 1878 132c 488D7205 		leaq	5(%rdx), %rsi
 1879 1330 884A04   		movb	%cl, 4(%rdx)
 1880 1333 4839F0   		cmpq	%rsi, %rax
 1881 1336 7613     		jbe	.L252
 1882 1338 884A05   		movb	%cl, 5(%rdx)
 1883 133b 488D4A06 		leaq	6(%rdx), %rcx
 1884 133f 4839C8   		cmpq	%rcx, %rax
 1885 1342 7607     		jbe	.L252
 1886 1344 0FB64318 		movzbl	24(%rbx), %eax
 1887 1348 884206   		movb	%al, 6(%rdx)
 1888              	.L252:
 1889 134b 488B03   		movq	(%rbx), %rax
 1890 134e 4C01E0   		addq	%r12, %rax
 1891              	.L245:
 1892 1351 4C896B08 		movq	%r13, 8(%rbx)
 1893 1355 E96F0100 		jmp	.L253
 1893      00
 1894 135a 660F1F44 		.p2align 4,,10
 1894      0000
 1895              		.p2align 3
 1896              	.L234:
 1897 1360 4801ED   		addq	%rbp, %rbp
 1898 1363 4939ED   		cmpq	%rbp, %r13
 1899 1366 77F8     		ja	.L234
 1900 1368 4889EE   		movq	%rbp, %rsi
 1901 136b E8000000 		call	realloc@PLT
 1901      00
 1902 1370 4889C7   		movq	%rax, %rdi
 1903 1373 4885C0   		testq	%rax, %rax
 1904 1376 0F845C03 		je	.L257
 1904      0000
 1905 137c 4A8D0C28 		leaq	(%rax,%r13), %rcx
 1906 1380 488D3428 		leaq	(%rax,%rbp), %rsi
 1907 1384 488903   		movq	%rax, (%rbx)
 1908 1387 48896B10 		movq	%rbp, 16(%rbx)
 1909 138b 4889CA   		movq	%rcx, %rdx
 1910 138e 4839F1   		cmpq	%rsi, %rcx
 1911 1391 0F831601 		jnb	.L295
 1911      0000
 1912 1397 488D7B18 		leaq	24(%rbx), %rdi
 1913 139b 4C29ED   		subq	%r13, %rbp
 1914 139e 4C8D4B19 		leaq	25(%rbx), %r9
 1915 13a2 4889C8   		movq	%rcx, %rax
 1916 13a5 4839FE   		cmpq	%rdi, %rsi
 1917 13a8 4C8D45FF 		leaq	-1(%rbp), %r8
 1918 13ac 400F96C7 		setbe	%dil
 1919 13b0 4C39C9   		cmpq	%r9, %rcx
 1920 13b3 410F93C1 		setnb	%r9b
 1921 13b7 4408CF   		orb	%r9b, %dil
 1922 13ba 0F84C002 		je	.L277
 1922      0000
 1923 13c0 4983F806 		cmpq	$6, %r8
 1924 13c4 0F86B602 		jbe	.L277
 1924      0000
 1925 13ca 4983F80E 		cmpq	$14, %r8
 1926 13ce 0F864C03 		jbe	.L265
 1926      0000
 1927 13d4 0FB65318 		movzbl	24(%rbx), %edx
 1928 13d8 660F6EC2 		movd	%edx, %xmm0
 1929 13dc 4889EA   		movq	%rbp, %rdx
 1930 13df 660F60C0 		punpcklbw	%xmm0, %xmm0
 1931 13e3 4883E2F0 		andq	$-16, %rdx
 1932 13e7 660F61C0 		punpcklwd	%xmm0, %xmm0
 1933 13eb 4801CA   		addq	%rcx, %rdx
 1934 13ee 660F70C0 		pshufd	$0, %xmm0, %xmm0
 1934      00
 1935              		.p2align 4,,10
 1936 13f3 0F1F4400 		.p2align 3
 1936      00
 1937              	.L240:
 1938 13f8 0F1100   		movups	%xmm0, (%rax)
 1939 13fb 4883C010 		addq	$16, %rax
 1940 13ff 4839D0   		cmpq	%rdx, %rax
 1941 1402 75F4     		jne	.L240
 1942 1404 4889EF   		movq	%rbp, %rdi
 1943 1407 4883E7F0 		andq	$-16, %rdi
 1944 140b 488D1439 		leaq	(%rcx,%rdi), %rdx
 1945 140f 4839FD   		cmpq	%rdi, %rbp
 1946 1412 0F849200 		je	.L244
 1946      0000
 1947 1418 4829FD   		subq	%rdi, %rbp
 1948 141b 488D45FF 		leaq	-1(%rbp), %rax
 1949 141f 4883F806 		cmpq	$6, %rax
 1950 1423 762B     		jbe	.L242
 1951              	.L239:
 1952 1425 440FB643 		movzbl	24(%rbx), %r8d
 1952      18
 1953 142a 4489C0   		movl	%r8d, %eax
 1954 142d C1E008   		sall	$8, %eax
 1955 1430 4409C0   		orl	%r8d, %eax
 1956 1433 660F6ED0 		movd	%eax, %xmm2
 1957 1437 4889E8   		movq	%rbp, %rax
 1958 143a F20F70C2 		pshuflw	$0, %xmm2, %xmm0
 1958      00
 1959 143f 4883E0F8 		andq	$-8, %rax
 1960 1443 660FD604 		movq	%xmm0, (%rcx,%rdi)
 1960      39
 1961 1448 4801C2   		addq	%rax, %rdx
 1962 144b 4839E8   		cmpq	%rbp, %rax
 1963 144e 745A     		je	.L244
 1964              	.L242:
 1965 1450 0FB64318 		movzbl	24(%rbx), %eax
 1966 1454 488D4A01 		leaq	1(%rdx), %rcx
 1967 1458 8802     		movb	%al, (%rdx)
 1968 145a 4839CE   		cmpq	%rcx, %rsi
 1969 145d 764B     		jbe	.L244
 1970 145f 884201   		movb	%al, 1(%rdx)
 1971 1462 488D4202 		leaq	2(%rdx), %rax
 1972 1466 4839C6   		cmpq	%rax, %rsi
 1973 1469 763F     		jbe	.L244
 1974 146b 0FB64318 		movzbl	24(%rbx), %eax
 1975 146f 488D4A03 		leaq	3(%rdx), %rcx
 1976 1473 884202   		movb	%al, 2(%rdx)
 1977 1476 4839CE   		cmpq	%rcx, %rsi
 1978 1479 762F     		jbe	.L244
 1979 147b 884203   		movb	%al, 3(%rdx)
 1980 147e 488D4204 		leaq	4(%rdx), %rax
 1981 1482 4839C6   		cmpq	%rax, %rsi
 1982 1485 7623     		jbe	.L244
 1983 1487 0FB64318 		movzbl	24(%rbx), %eax
 1984 148b 488D4A05 		leaq	5(%rdx), %rcx
 1985 148f 884204   		movb	%al, 4(%rdx)
 1986 1492 4839CE   		cmpq	%rcx, %rsi
 1987 1495 7613     		jbe	.L244
 1988 1497 884205   		movb	%al, 5(%rdx)
 1989 149a 488D4206 		leaq	6(%rdx), %rax
 1990 149e 4839C6   		cmpq	%rax, %rsi
 1991 14a1 7607     		jbe	.L244
 1992 14a3 0FB64318 		movzbl	24(%rbx), %eax
 1993 14a7 884206   		movb	%al, 6(%rdx)
 1994              	.L244:
 1995 14aa 488B3B   		movq	(%rbx), %rdi
 1996              	.L295:
 1997 14ad 4C8B4308 		movq	8(%rbx), %r8
 1998 14b1 E969FDFF 		jmp	.L233
 1998      FF
 1999 14b6 662E0F1F 		.p2align 4,,10
 1999      84000000 
 1999      0000
 2000              		.p2align 3
 2001              	.L232:
 2002 14c0 4D39C5   		cmpq	%r8, %r13
 2003 14c3 774B     		ja	.L299
 2004 14c5 488D0437 		leaq	(%rdi,%rsi), %rax
 2005              	.L253:
 2006              	.L236:
 2007 14c9 448830   		movb	%r14b, (%rax)
 2008 14cc 4883C408 		addq	$8, %rsp
 2009              		.cfi_remember_state
 2010              		.cfi_def_cfa_offset 56
 2011 14d0 31C0     		xorl	%eax, %eax
 2012 14d2 5B       		popq	%rbx
 2013              		.cfi_def_cfa_offset 48
 2014 14d3 5D       		popq	%rbp
 2015              		.cfi_def_cfa_offset 40
 2016 14d4 415C     		popq	%r12
 2017              		.cfi_def_cfa_offset 32
 2018 14d6 415D     		popq	%r13
 2019              		.cfi_def_cfa_offset 24
 2020 14d8 415E     		popq	%r14
 2021              		.cfi_def_cfa_offset 16
 2022 14da 415F     		popq	%r15
 2023              		.cfi_def_cfa_offset 8
 2024 14dc C3       		ret
 2025 14dd 0F1F00   		.p2align 4,,10
 2026              		.p2align 3
 2027              	.L276:
 2028              		.cfi_restore_state
 2029 14e0 0FB64B18 		movzbl	24(%rbx), %ecx
 2030 14e4 4883C201 		addq	$1, %rdx
 2031 14e8 884AFF   		movb	%cl, -1(%rdx)
 2032 14eb 4839D0   		cmpq	%rdx, %rax
 2033 14ee 0F8457FE 		je	.L252
 2033      FFFF
 2034 14f4 0FB64B18 		movzbl	24(%rbx), %ecx
 2035 14f8 4883C201 		addq	$1, %rdx
 2036 14fc 884AFF   		movb	%cl, -1(%rdx)
 2037 14ff 4839D0   		cmpq	%rdx, %rax
 2038 1502 75DC     		jne	.L276
 2039 1504 E942FEFF 		jmp	.L252
 2039      FF
 2040 1509 0F1F8000 		.p2align 4,,10
 2040      000000
 2041              		.p2align 3
 2042              	.L299:
 2043 1510 488B6B10 		movq	16(%rbx), %rbp
 2044 1514 4939ED   		cmpq	%rbp, %r13
 2045 1517 770F     		ja	.L256
 2046              	.L255:
 2047 1519 4C896B08 		movq	%r13, 8(%rbx)
 2048 151d 4A8D0427 		leaq	(%rdi,%r12), %rax
 2049 1521 EBA6     		jmp	.L253
 2050              		.p2align 4,,10
 2051 1523 0F1F4400 		.p2align 3
 2051      00
 2052              	.L256:
 2053 1528 4801ED   		addq	%rbp, %rbp
 2054 152b 4939ED   		cmpq	%rbp, %r13
 2055 152e 77F8     		ja	.L256
 2056 1530 4889EE   		movq	%rbp, %rsi
 2057 1533 E8000000 		call	realloc@PLT
 2057      00
 2058 1538 4889C7   		movq	%rax, %rdi
 2059 153b 4885C0   		testq	%rax, %rax
 2060 153e 0F849401 		je	.L257
 2060      0000
 2061 1544 4A8D0C28 		leaq	(%rax,%r13), %rcx
 2062 1548 488D3428 		leaq	(%rax,%rbp), %rsi
 2063 154c 488903   		movq	%rax, (%rbx)
 2064 154f 48896B10 		movq	%rbp, 16(%rbx)
 2065 1553 4889CA   		movq	%rcx, %rdx
 2066 1556 4839F1   		cmpq	%rsi, %rcx
 2067 1559 73BE     		jnb	.L255
 2068 155b 488D7B18 		leaq	24(%rbx), %rdi
 2069 155f 4C29ED   		subq	%r13, %rbp
 2070 1562 4C8D4B19 		leaq	25(%rbx), %r9
 2071 1566 4889C8   		movq	%rcx, %rax
 2072 1569 4839FE   		cmpq	%rdi, %rsi
 2073 156c 4C8D45FF 		leaq	-1(%rbp), %r8
 2074 1570 400F96C7 		setbe	%dil
 2075 1574 4C39C9   		cmpq	%r9, %rcx
 2076 1577 410F93C1 		setnb	%r9b
 2077 157b 4408CF   		orb	%r9b, %dil
 2078 157e 0F842C01 		je	.L278
 2078      0000
 2079 1584 4983F806 		cmpq	$6, %r8
 2080 1588 0F862201 		jbe	.L278
 2080      0000
 2081 158e 4983F80E 		cmpq	$14, %r8
 2082 1592 0F868F01 		jbe	.L267
 2082      0000
 2083 1598 0FB65318 		movzbl	24(%rbx), %edx
 2084 159c 660F6EC2 		movd	%edx, %xmm0
 2085 15a0 4889EA   		movq	%rbp, %rdx
 2086 15a3 660F60C0 		punpcklbw	%xmm0, %xmm0
 2087 15a7 4883E2F0 		andq	$-16, %rdx
 2088 15ab 660F61C0 		punpcklwd	%xmm0, %xmm0
 2089 15af 4801CA   		addq	%rcx, %rdx
 2090 15b2 660F70C0 		pshufd	$0, %xmm0, %xmm0
 2090      00
 2091 15b7 660F1F84 		.p2align 4,,10
 2091      00000000 
 2091      00
 2092              		.p2align 3
 2093              	.L260:
 2094 15c0 0F1100   		movups	%xmm0, (%rax)
 2095 15c3 4883C010 		addq	$16, %rax
 2096 15c7 4839D0   		cmpq	%rdx, %rax
 2097 15ca 75F4     		jne	.L260
 2098 15cc 4889EF   		movq	%rbp, %rdi
 2099 15cf 4883E7F0 		andq	$-16, %rdi
 2100 15d3 488D1439 		leaq	(%rcx,%rdi), %rdx
 2101 15d7 4839FD   		cmpq	%rdi, %rbp
 2102 15da 0F849200 		je	.L264
 2102      0000
 2103 15e0 4829FD   		subq	%rdi, %rbp
 2104 15e3 488D45FF 		leaq	-1(%rbp), %rax
 2105 15e7 4883F806 		cmpq	$6, %rax
 2106 15eb 762B     		jbe	.L262
 2107              	.L259:
 2108 15ed 440FB643 		movzbl	24(%rbx), %r8d
 2108      18
 2109 15f2 4489C0   		movl	%r8d, %eax
 2110 15f5 C1E008   		sall	$8, %eax
 2111 15f8 4409C0   		orl	%r8d, %eax
 2112 15fb 660F6ED8 		movd	%eax, %xmm3
 2113 15ff 4889E8   		movq	%rbp, %rax
 2114 1602 F20F70C3 		pshuflw	$0, %xmm3, %xmm0
 2114      00
 2115 1607 4883E0F8 		andq	$-8, %rax
 2116 160b 660FD604 		movq	%xmm0, (%rcx,%rdi)
 2116      39
 2117 1610 4801C2   		addq	%rax, %rdx
 2118 1613 4839E8   		cmpq	%rbp, %rax
 2119 1616 745A     		je	.L264
 2120              	.L262:
 2121 1618 0FB64318 		movzbl	24(%rbx), %eax
 2122 161c 488D4A01 		leaq	1(%rdx), %rcx
 2123 1620 8802     		movb	%al, (%rdx)
 2124 1622 4839CE   		cmpq	%rcx, %rsi
 2125 1625 764B     		jbe	.L264
 2126 1627 884201   		movb	%al, 1(%rdx)
 2127 162a 488D4202 		leaq	2(%rdx), %rax
 2128 162e 4839C6   		cmpq	%rax, %rsi
 2129 1631 763F     		jbe	.L264
 2130 1633 0FB64318 		movzbl	24(%rbx), %eax
 2131 1637 488D4A03 		leaq	3(%rdx), %rcx
 2132 163b 884202   		movb	%al, 2(%rdx)
 2133 163e 4839CE   		cmpq	%rcx, %rsi
 2134 1641 762F     		jbe	.L264
 2135 1643 884203   		movb	%al, 3(%rdx)
 2136 1646 488D4204 		leaq	4(%rdx), %rax
 2137 164a 4839C6   		cmpq	%rax, %rsi
 2138 164d 7623     		jbe	.L264
 2139 164f 0FB64318 		movzbl	24(%rbx), %eax
 2140 1653 488D4A05 		leaq	5(%rdx), %rcx
 2141 1657 884204   		movb	%al, 4(%rdx)
 2142 165a 4839CE   		cmpq	%rcx, %rsi
 2143 165d 7613     		jbe	.L264
 2144 165f 884205   		movb	%al, 5(%rdx)
 2145 1662 488D4206 		leaq	6(%rdx), %rax
 2146 1666 4839C6   		cmpq	%rax, %rsi
 2147 1669 7607     		jbe	.L264
 2148 166b 0FB64318 		movzbl	24(%rbx), %eax
 2149 166f 884206   		movb	%al, 6(%rdx)
 2150              	.L264:
 2151 1672 488B3B   		movq	(%rbx), %rdi
 2152 1675 E99FFEFF 		jmp	.L255
 2152      FF
 2153 167a 660F1F44 		.p2align 4,,10
 2153      0000
 2154              		.p2align 3
 2155              	.L277:
 2156 1680 0FB64318 		movzbl	24(%rbx), %eax
 2157 1684 4883C201 		addq	$1, %rdx
 2158 1688 8842FF   		movb	%al, -1(%rdx)
 2159 168b 4839D6   		cmpq	%rdx, %rsi
 2160 168e 0F8416FE 		je	.L244
 2160      FFFF
 2161 1694 0FB64318 		movzbl	24(%rbx), %eax
 2162 1698 4883C201 		addq	$1, %rdx
 2163 169c 8842FF   		movb	%al, -1(%rdx)
 2164 169f 4839D6   		cmpq	%rdx, %rsi
 2165 16a2 75DC     		jne	.L277
 2166 16a4 E901FEFF 		jmp	.L244
 2166      FF
 2167 16a9 0F1F8000 		.p2align 4,,10
 2167      000000
 2168              		.p2align 3
 2169              	.L278:
 2170 16b0 0FB64318 		movzbl	24(%rbx), %eax
 2171 16b4 4883C201 		addq	$1, %rdx
 2172 16b8 8842FF   		movb	%al, -1(%rdx)
 2173 16bb 4839D6   		cmpq	%rdx, %rsi
 2174 16be 74B2     		je	.L264
 2175 16c0 0FB64318 		movzbl	24(%rbx), %eax
 2176 16c4 4883C201 		addq	$1, %rdx
 2177 16c8 8842FF   		movb	%al, -1(%rdx)
 2178 16cb 4839D6   		cmpq	%rdx, %rsi
 2179 16ce 75E0     		jne	.L278
 2180 16d0 EBA0     		jmp	.L264
 2181              		.p2align 4,,10
 2182 16d2 660F1F44 		.p2align 3
 2182      0000
 2183              	.L257:
 2184 16d8 4C89FF   		movq	%r15, %rdi
 2185 16db 488D3500 		leaq	.LC2(%rip), %rsi
 2185      000000
 2186 16e2 E8000000 		call	errPrefix@PLT
 2186      00
 2187 16e7 4C89FF   		movq	%r15, %rdi
 2188 16ea 488D3500 		leaq	.LC10(%rip), %rsi
 2188      000000
 2189 16f1 E8000000 		call	errPrefix@PLT
 2189      00
 2190 16f6 4C89FF   		movq	%r15, %rdi
 2191 16f9 488D3500 		leaq	.LC11(%rip), %rsi
 2191      000000
 2192 1700 E8000000 		call	errPrefix@PLT
 2192      00
 2193 1705 4883C408 		addq	$8, %rsp
 2194              		.cfi_remember_state
 2195              		.cfi_def_cfa_offset 56
 2196 1709 B8010000 		movl	$1, %eax
 2196      00
 2197 170e 5B       		popq	%rbx
 2198              		.cfi_def_cfa_offset 48
 2199 170f 5D       		popq	%rbp
 2200              		.cfi_def_cfa_offset 40
 2201 1710 415C     		popq	%r12
 2202              		.cfi_def_cfa_offset 32
 2203 1712 415D     		popq	%r13
 2204              		.cfi_def_cfa_offset 24
 2205 1714 415E     		popq	%r14
 2206              		.cfi_def_cfa_offset 16
 2207 1716 415F     		popq	%r15
 2208              		.cfi_def_cfa_offset 8
 2209 1718 C3       		ret
 2210              	.L266:
 2211              		.cfi_restore_state
 2212 1719 31FF     		xorl	%edi, %edi
 2213 171b E9A5FBFF 		jmp	.L247
 2213      FF
 2214              	.L265:
 2215 1720 31FF     		xorl	%edi, %edi
 2216 1722 E9FEFCFF 		jmp	.L239
 2216      FF
 2217              	.L267:
 2218 1727 31FF     		xorl	%edi, %edi
 2219 1729 E9BFFEFF 		jmp	.L259
 2219      FF
 2220              		.cfi_endproc
 2221              	.LFE48:
 2223              		.section	.rodata.str1.1
 2224              	.LC12:
 2225 009b 62756657 		.string	"bufWriteWordLE()"
 2225      72697465 
 2225      576F7264 
 2225      4C452829 
 2225      00
 2226              		.text
 2227 172e 6690     		.p2align 4
 2228              		.globl	bufWriteWordLE
 2230              	bufWriteWordLE:
 2231              	.LFB49:
 2232              		.cfi_startproc
 2233 1730 F30F1EFA 		endbr64
 2234 1734 4157     		pushq	%r15
 2235              		.cfi_def_cfa_offset 16
 2236              		.cfi_offset 15, -16
 2237 1736 4989CF   		movq	%rcx, %r15
 2238 1739 4156     		pushq	%r14
 2239              		.cfi_def_cfa_offset 24
 2240              		.cfi_offset 14, -24
 2241 173b 4189D6   		movl	%edx, %r14d
 2242 173e 4155     		pushq	%r13
 2243              		.cfi_def_cfa_offset 32
 2244              		.cfi_offset 13, -32
 2245 1740 4C8D6E02 		leaq	2(%rsi), %r13
 2246 1744 4154     		pushq	%r12
 2247              		.cfi_def_cfa_offset 40
 2248              		.cfi_offset 12, -40
 2249 1746 4989F4   		movq	%rsi, %r12
 2250 1749 55       		pushq	%rbp
 2251              		.cfi_def_cfa_offset 48
 2252              		.cfi_offset 6, -48
 2253 174a 53       		pushq	%rbx
 2254              		.cfi_def_cfa_offset 56
 2255              		.cfi_offset 3, -56
 2256 174b 4889FB   		movq	%rdi, %rbx
 2257 174e 4883EC08 		subq	$8, %rsp
 2258              		.cfi_def_cfa_offset 64
 2259 1752 4C8B4708 		movq	8(%rdi), %r8
 2260 1756 488B3F   		movq	(%rdi), %rdi
 2261 1759 4C39C6   		cmpq	%r8, %rsi
 2262 175c 0F82AE02 		jb	.L301
 2262      0000
 2263 1762 488B6B10 		movq	16(%rbx), %rbp
 2264 1766 4939ED   		cmpq	%rbp, %r13
 2265 1769 0F874101 		ja	.L303
 2265      0000
 2266              	.L302:
 2267 176f 4E8D0C07 		leaq	(%rdi,%r8), %r9
 2268 1773 4A8D0427 		leaq	(%rdi,%r12), %rax
 2269 1777 4C89CA   		movq	%r9, %rdx
 2270 177a 4939C1   		cmpq	%rax, %r9
 2271 177d 0F831E01 		jnb	.L314
 2271      0000
 2272 1783 488D7B18 		leaq	24(%rbx), %rdi
 2273 1787 4C89E6   		movq	%r12, %rsi
 2274 178a 4C8D5319 		leaq	25(%rbx), %r10
 2275 178e 4C89C9   		movq	%r9, %rcx
 2276 1791 4C29C6   		subq	%r8, %rsi
 2277 1794 4839F8   		cmpq	%rdi, %rax
 2278 1797 400F96C7 		setbe	%dil
 2279 179b 4D39D1   		cmpq	%r10, %r9
 2280 179e 4C8D46FF 		leaq	-1(%rsi), %r8
 2281 17a2 410F93C2 		setnb	%r10b
 2282 17a6 4408D7   		orb	%r10b, %dil
 2283 17a9 0F849102 		je	.L345
 2283      0000
 2284 17af 4983F806 		cmpq	$6, %r8
 2285 17b3 0F868702 		jbe	.L345
 2285      0000
 2286 17b9 4983F80E 		cmpq	$14, %r8
 2287 17bd 0F86B604 		jbe	.L335
 2287      0000
 2288 17c3 0FB65318 		movzbl	24(%rbx), %edx
 2289 17c7 660F6EC2 		movd	%edx, %xmm0
 2290 17cb 4889F2   		movq	%rsi, %rdx
 2291 17ce 660F60C0 		punpcklbw	%xmm0, %xmm0
 2292 17d2 4883E2F0 		andq	$-16, %rdx
 2293 17d6 660F61C0 		punpcklwd	%xmm0, %xmm0
 2294 17da 4C01CA   		addq	%r9, %rdx
 2295 17dd 660F70C0 		pshufd	$0, %xmm0, %xmm0
 2295      00
 2296              		.p2align 4,,10
 2297 17e2 660F1F44 		.p2align 3
 2297      0000
 2298              	.L317:
 2299 17e8 0F1101   		movups	%xmm0, (%rcx)
 2300 17eb 4883C110 		addq	$16, %rcx
 2301 17ef 4839D1   		cmpq	%rdx, %rcx
 2302 17f2 75F4     		jne	.L317
 2303 17f4 4889F7   		movq	%rsi, %rdi
 2304 17f7 4883E7F0 		andq	$-16, %rdi
 2305 17fb 498D1439 		leaq	(%r9,%rdi), %rdx
 2306 17ff 4839FE   		cmpq	%rdi, %rsi
 2307 1802 0F849300 		je	.L321
 2307      0000
 2308 1808 4829FE   		subq	%rdi, %rsi
 2309 180b 488D4EFF 		leaq	-1(%rsi), %rcx
 2310 180f 4883F906 		cmpq	$6, %rcx
 2311 1813 762C     		jbe	.L319
 2312              	.L316:
 2313 1815 440FB643 		movzbl	24(%rbx), %r8d
 2313      18
 2314 181a 4489C1   		movl	%r8d, %ecx
 2315 181d C1E108   		sall	$8, %ecx
 2316 1820 4409C1   		orl	%r8d, %ecx
 2317 1823 660F6EC9 		movd	%ecx, %xmm1
 2318 1827 4889F1   		movq	%rsi, %rcx
 2319 182a F20F70C1 		pshuflw	$0, %xmm1, %xmm0
 2319      00
 2320 182f 4883E1F8 		andq	$-8, %rcx
 2321 1833 66410FD6 		movq	%xmm0, (%r9,%rdi)
 2321      0439
 2322 1839 4801CA   		addq	%rcx, %rdx
 2323 183c 4839F1   		cmpq	%rsi, %rcx
 2324 183f 745A     		je	.L321
 2325              	.L319:
 2326 1841 0FB64B18 		movzbl	24(%rbx), %ecx
 2327 1845 488D7201 		leaq	1(%rdx), %rsi
 2328 1849 880A     		movb	%cl, (%rdx)
 2329 184b 4839F0   		cmpq	%rsi, %rax
 2330 184e 764B     		jbe	.L321
 2331 1850 884A01   		movb	%cl, 1(%rdx)
 2332 1853 488D4A02 		leaq	2(%rdx), %rcx
 2333 1857 4839C8   		cmpq	%rcx, %rax
 2334 185a 763F     		jbe	.L321
 2335 185c 0FB64B18 		movzbl	24(%rbx), %ecx
 2336 1860 488D7203 		leaq	3(%rdx), %rsi
 2337 1864 884A02   		movb	%cl, 2(%rdx)
 2338 1867 4839F0   		cmpq	%rsi, %rax
 2339 186a 762F     		jbe	.L321
 2340 186c 884A03   		movb	%cl, 3(%rdx)
 2341 186f 488D4A04 		leaq	4(%rdx), %rcx
 2342 1873 4839C8   		cmpq	%rcx, %rax
 2343 1876 7623     		jbe	.L321
 2344 1878 0FB64B18 		movzbl	24(%rbx), %ecx
 2345 187c 488D7205 		leaq	5(%rdx), %rsi
 2346 1880 884A04   		movb	%cl, 4(%rdx)
 2347 1883 4839F0   		cmpq	%rsi, %rax
 2348 1886 7613     		jbe	.L321
 2349 1888 884A05   		movb	%cl, 5(%rdx)
 2350 188b 488D4A06 		leaq	6(%rdx), %rcx
 2351 188f 4839C8   		cmpq	%rcx, %rax
 2352 1892 7607     		jbe	.L321
 2353 1894 0FB64318 		movzbl	24(%rbx), %eax
 2354 1898 884206   		movb	%al, 6(%rdx)
 2355              	.L321:
 2356 189b 488B03   		movq	(%rbx), %rax
 2357 189e 4C01E0   		addq	%r12, %rax
 2358              	.L314:
 2359 18a1 4C896B08 		movq	%r13, 8(%rbx)
 2360 18a5 E96F0100 		jmp	.L322
 2360      00
 2361 18aa 660F1F44 		.p2align 4,,10
 2361      0000
 2362              		.p2align 3
 2363              	.L303:
 2364 18b0 4801ED   		addq	%rbp, %rbp
 2365 18b3 4939ED   		cmpq	%rbp, %r13
 2366 18b6 77F8     		ja	.L303
 2367 18b8 4889EE   		movq	%rbp, %rsi
 2368 18bb E8000000 		call	realloc@PLT
 2368      00
 2369 18c0 4889C7   		movq	%rax, %rdi
 2370 18c3 4885C0   		testq	%rax, %rax
 2371 18c6 0F846C03 		je	.L326
 2371      0000
 2372 18cc 4A8D0C28 		leaq	(%rax,%r13), %rcx
 2373 18d0 488D3428 		leaq	(%rax,%rbp), %rsi
 2374 18d4 488903   		movq	%rax, (%rbx)
 2375 18d7 48896B10 		movq	%rbp, 16(%rbx)
 2376 18db 4889CA   		movq	%rcx, %rdx
 2377 18de 4839F1   		cmpq	%rsi, %rcx
 2378 18e1 0F831601 		jnb	.L364
 2378      0000
 2379 18e7 488D7B18 		leaq	24(%rbx), %rdi
 2380 18eb 4C29ED   		subq	%r13, %rbp
 2381 18ee 4C8D4B19 		leaq	25(%rbx), %r9
 2382 18f2 4889C8   		movq	%rcx, %rax
 2383 18f5 4839FE   		cmpq	%rdi, %rsi
 2384 18f8 4C8D45FF 		leaq	-1(%rbp), %r8
 2385 18fc 400F96C7 		setbe	%dil
 2386 1900 4C39C9   		cmpq	%r9, %rcx
 2387 1903 410F93C1 		setnb	%r9b
 2388 1907 4408CF   		orb	%r9b, %dil
 2389 190a 0F84D002 		je	.L346
 2389      0000
 2390 1910 4983F806 		cmpq	$6, %r8
 2391 1914 0F86C602 		jbe	.L346
 2391      0000
 2392 191a 4983F80E 		cmpq	$14, %r8
 2393 191e 0F865C03 		jbe	.L334
 2393      0000
 2394 1924 0FB65318 		movzbl	24(%rbx), %edx
 2395 1928 660F6EC2 		movd	%edx, %xmm0
 2396 192c 4889EA   		movq	%rbp, %rdx
 2397 192f 660F60C0 		punpcklbw	%xmm0, %xmm0
 2398 1933 4883E2F0 		andq	$-16, %rdx
 2399 1937 660F61C0 		punpcklwd	%xmm0, %xmm0
 2400 193b 4801CA   		addq	%rcx, %rdx
 2401 193e 660F70C0 		pshufd	$0, %xmm0, %xmm0
 2401      00
 2402              		.p2align 4,,10
 2403 1943 0F1F4400 		.p2align 3
 2403      00
 2404              	.L309:
 2405 1948 0F1100   		movups	%xmm0, (%rax)
 2406 194b 4883C010 		addq	$16, %rax
 2407 194f 4839D0   		cmpq	%rdx, %rax
 2408 1952 75F4     		jne	.L309
 2409 1954 4889EF   		movq	%rbp, %rdi
 2410 1957 4883E7F0 		andq	$-16, %rdi
 2411 195b 488D1439 		leaq	(%rcx,%rdi), %rdx
 2412 195f 4839FD   		cmpq	%rdi, %rbp
 2413 1962 0F849200 		je	.L313
 2413      0000
 2414 1968 4829FD   		subq	%rdi, %rbp
 2415 196b 488D45FF 		leaq	-1(%rbp), %rax
 2416 196f 4883F806 		cmpq	$6, %rax
 2417 1973 762B     		jbe	.L311
 2418              	.L308:
 2419 1975 440FB643 		movzbl	24(%rbx), %r8d
 2419      18
 2420 197a 4489C0   		movl	%r8d, %eax
 2421 197d C1E008   		sall	$8, %eax
 2422 1980 4409C0   		orl	%r8d, %eax
 2423 1983 660F6ED0 		movd	%eax, %xmm2
 2424 1987 4889E8   		movq	%rbp, %rax
 2425 198a F20F70C2 		pshuflw	$0, %xmm2, %xmm0
 2425      00
 2426 198f 4883E0F8 		andq	$-8, %rax
 2427 1993 660FD604 		movq	%xmm0, (%rcx,%rdi)
 2427      39
 2428 1998 4801C2   		addq	%rax, %rdx
 2429 199b 4839E8   		cmpq	%rbp, %rax
 2430 199e 745A     		je	.L313
 2431              	.L311:
 2432 19a0 0FB64318 		movzbl	24(%rbx), %eax
 2433 19a4 488D4A01 		leaq	1(%rdx), %rcx
 2434 19a8 8802     		movb	%al, (%rdx)
 2435 19aa 4839CE   		cmpq	%rcx, %rsi
 2436 19ad 764B     		jbe	.L313
 2437 19af 884201   		movb	%al, 1(%rdx)
 2438 19b2 488D4202 		leaq	2(%rdx), %rax
 2439 19b6 4839C6   		cmpq	%rax, %rsi
 2440 19b9 763F     		jbe	.L313
 2441 19bb 0FB64318 		movzbl	24(%rbx), %eax
 2442 19bf 488D4A03 		leaq	3(%rdx), %rcx
 2443 19c3 884202   		movb	%al, 2(%rdx)
 2444 19c6 4839CE   		cmpq	%rcx, %rsi
 2445 19c9 762F     		jbe	.L313
 2446 19cb 884203   		movb	%al, 3(%rdx)
 2447 19ce 488D4204 		leaq	4(%rdx), %rax
 2448 19d2 4839C6   		cmpq	%rax, %rsi
 2449 19d5 7623     		jbe	.L313
 2450 19d7 0FB64318 		movzbl	24(%rbx), %eax
 2451 19db 488D4A05 		leaq	5(%rdx), %rcx
 2452 19df 884204   		movb	%al, 4(%rdx)
 2453 19e2 4839CE   		cmpq	%rcx, %rsi
 2454 19e5 7613     		jbe	.L313
 2455 19e7 884205   		movb	%al, 5(%rdx)
 2456 19ea 488D4206 		leaq	6(%rdx), %rax
 2457 19ee 4839C6   		cmpq	%rax, %rsi
 2458 19f1 7607     		jbe	.L313
 2459 19f3 0FB64318 		movzbl	24(%rbx), %eax
 2460 19f7 884206   		movb	%al, 6(%rdx)
 2461              	.L313:
 2462 19fa 488B3B   		movq	(%rbx), %rdi
 2463              	.L364:
 2464 19fd 4C8B4308 		movq	8(%rbx), %r8
 2465 1a01 E969FDFF 		jmp	.L302
 2465      FF
 2466 1a06 662E0F1F 		.p2align 4,,10
 2466      84000000 
 2466      0000
 2467              		.p2align 3
 2468              	.L301:
 2469 1a10 4D39C5   		cmpq	%r8, %r13
 2470 1a13 775B     		ja	.L368
 2471 1a15 488D0437 		leaq	(%rdi,%rsi), %rax
 2472              	.L322:
 2473              	.L305:
 2474 1a19 448830   		movb	%r14b, (%rax)
 2475 1a1c 488B03   		movq	(%rbx), %rax
 2476 1a1f 4489F3   		movl	%r14d, %ebx
 2477 1a22 0FB6DF   		movzbl	%bh, %ebx
 2478 1a25 42885C20 		movb	%bl, 1(%rax,%r12)
 2478      01
 2479 1a2a 4883C408 		addq	$8, %rsp
 2480              		.cfi_remember_state
 2481              		.cfi_def_cfa_offset 56
 2482 1a2e 31C0     		xorl	%eax, %eax
 2483 1a30 5B       		popq	%rbx
 2484              		.cfi_def_cfa_offset 48
 2485 1a31 5D       		popq	%rbp
 2486              		.cfi_def_cfa_offset 40
 2487 1a32 415C     		popq	%r12
 2488              		.cfi_def_cfa_offset 32
 2489 1a34 415D     		popq	%r13
 2490              		.cfi_def_cfa_offset 24
 2491 1a36 415E     		popq	%r14
 2492              		.cfi_def_cfa_offset 16
 2493 1a38 415F     		popq	%r15
 2494              		.cfi_def_cfa_offset 8
 2495 1a3a C3       		ret
 2496 1a3b 0F1F4400 		.p2align 4,,10
 2496      00
 2497              		.p2align 3
 2498              	.L345:
 2499              		.cfi_restore_state
 2500 1a40 0FB64B18 		movzbl	24(%rbx), %ecx
 2501 1a44 4883C201 		addq	$1, %rdx
 2502 1a48 884AFF   		movb	%cl, -1(%rdx)
 2503 1a4b 4839D0   		cmpq	%rdx, %rax
 2504 1a4e 0F8447FE 		je	.L321
 2504      FFFF
 2505 1a54 0FB64B18 		movzbl	24(%rbx), %ecx
 2506 1a58 4883C201 		addq	$1, %rdx
 2507 1a5c 884AFF   		movb	%cl, -1(%rdx)
 2508 1a5f 4839D0   		cmpq	%rdx, %rax
 2509 1a62 75DC     		jne	.L345
 2510 1a64 E932FEFF 		jmp	.L321
 2510      FF
 2511 1a69 0F1F8000 		.p2align 4,,10
 2511      000000
 2512              		.p2align 3
 2513              	.L368:
 2514 1a70 488B6B10 		movq	16(%rbx), %rbp
 2515 1a74 4939ED   		cmpq	%rbp, %r13
 2516 1a77 770F     		ja	.L325
 2517              	.L324:
 2518 1a79 4C896B08 		movq	%r13, 8(%rbx)
 2519 1a7d 4A8D0427 		leaq	(%rdi,%r12), %rax
 2520 1a81 EB96     		jmp	.L322
 2521              		.p2align 4,,10
 2522 1a83 0F1F4400 		.p2align 3
 2522      00
 2523              	.L325:
 2524 1a88 4801ED   		addq	%rbp, %rbp
 2525 1a8b 4939ED   		cmpq	%rbp, %r13
 2526 1a8e 77F8     		ja	.L325
 2527 1a90 4889EE   		movq	%rbp, %rsi
 2528 1a93 E8000000 		call	realloc@PLT
 2528      00
 2529 1a98 4889C7   		movq	%rax, %rdi
 2530 1a9b 4885C0   		testq	%rax, %rax
 2531 1a9e 0F849401 		je	.L326
 2531      0000
 2532 1aa4 4A8D0C28 		leaq	(%rax,%r13), %rcx
 2533 1aa8 488D3428 		leaq	(%rax,%rbp), %rsi
 2534 1aac 488903   		movq	%rax, (%rbx)
 2535 1aaf 48896B10 		movq	%rbp, 16(%rbx)
 2536 1ab3 4889CA   		movq	%rcx, %rdx
 2537 1ab6 4839F1   		cmpq	%rsi, %rcx
 2538 1ab9 73BE     		jnb	.L324
 2539 1abb 488D7B18 		leaq	24(%rbx), %rdi
 2540 1abf 4C29ED   		subq	%r13, %rbp
 2541 1ac2 4C8D4B19 		leaq	25(%rbx), %r9
 2542 1ac6 4889C8   		movq	%rcx, %rax
 2543 1ac9 4839FE   		cmpq	%rdi, %rsi
 2544 1acc 4C8D45FF 		leaq	-1(%rbp), %r8
 2545 1ad0 400F96C7 		setbe	%dil
 2546 1ad4 4C39C9   		cmpq	%r9, %rcx
 2547 1ad7 410F93C1 		setnb	%r9b
 2548 1adb 4408CF   		orb	%r9b, %dil
 2549 1ade 0F842C01 		je	.L347
 2549      0000
 2550 1ae4 4983F806 		cmpq	$6, %r8
 2551 1ae8 0F862201 		jbe	.L347
 2551      0000
 2552 1aee 4983F80E 		cmpq	$14, %r8
 2553 1af2 0F868F01 		jbe	.L336
 2553      0000
 2554 1af8 0FB65318 		movzbl	24(%rbx), %edx
 2555 1afc 660F6EC2 		movd	%edx, %xmm0
 2556 1b00 4889EA   		movq	%rbp, %rdx
 2557 1b03 660F60C0 		punpcklbw	%xmm0, %xmm0
 2558 1b07 4883E2F0 		andq	$-16, %rdx
 2559 1b0b 660F61C0 		punpcklwd	%xmm0, %xmm0
 2560 1b0f 4801CA   		addq	%rcx, %rdx
 2561 1b12 660F70C0 		pshufd	$0, %xmm0, %xmm0
 2561      00
 2562 1b17 660F1F84 		.p2align 4,,10
 2562      00000000 
 2562      00
 2563              		.p2align 3
 2564              	.L329:
 2565 1b20 0F1100   		movups	%xmm0, (%rax)
 2566 1b23 4883C010 		addq	$16, %rax
 2567 1b27 4839D0   		cmpq	%rdx, %rax
 2568 1b2a 75F4     		jne	.L329
 2569 1b2c 4889EF   		movq	%rbp, %rdi
 2570 1b2f 4883E7F0 		andq	$-16, %rdi
 2571 1b33 488D1439 		leaq	(%rcx,%rdi), %rdx
 2572 1b37 4839FD   		cmpq	%rdi, %rbp
 2573 1b3a 0F849200 		je	.L333
 2573      0000
 2574 1b40 4829FD   		subq	%rdi, %rbp
 2575 1b43 488D45FF 		leaq	-1(%rbp), %rax
 2576 1b47 4883F806 		cmpq	$6, %rax
 2577 1b4b 762B     		jbe	.L331
 2578              	.L328:
 2579 1b4d 440FB643 		movzbl	24(%rbx), %r8d
 2579      18
 2580 1b52 4489C0   		movl	%r8d, %eax
 2581 1b55 C1E008   		sall	$8, %eax
 2582 1b58 4409C0   		orl	%r8d, %eax
 2583 1b5b 660F6ED8 		movd	%eax, %xmm3
 2584 1b5f 4889E8   		movq	%rbp, %rax
 2585 1b62 F20F70C3 		pshuflw	$0, %xmm3, %xmm0
 2585      00
 2586 1b67 4883E0F8 		andq	$-8, %rax
 2587 1b6b 660FD604 		movq	%xmm0, (%rcx,%rdi)
 2587      39
 2588 1b70 4801C2   		addq	%rax, %rdx
 2589 1b73 4839E8   		cmpq	%rbp, %rax
 2590 1b76 745A     		je	.L333
 2591              	.L331:
 2592 1b78 0FB64318 		movzbl	24(%rbx), %eax
 2593 1b7c 488D4A01 		leaq	1(%rdx), %rcx
 2594 1b80 8802     		movb	%al, (%rdx)
 2595 1b82 4839CE   		cmpq	%rcx, %rsi
 2596 1b85 764B     		jbe	.L333
 2597 1b87 884201   		movb	%al, 1(%rdx)
 2598 1b8a 488D4202 		leaq	2(%rdx), %rax
 2599 1b8e 4839C6   		cmpq	%rax, %rsi
 2600 1b91 763F     		jbe	.L333
 2601 1b93 0FB64318 		movzbl	24(%rbx), %eax
 2602 1b97 488D4A03 		leaq	3(%rdx), %rcx
 2603 1b9b 884202   		movb	%al, 2(%rdx)
 2604 1b9e 4839CE   		cmpq	%rcx, %rsi
 2605 1ba1 762F     		jbe	.L333
 2606 1ba3 884203   		movb	%al, 3(%rdx)
 2607 1ba6 488D4204 		leaq	4(%rdx), %rax
 2608 1baa 4839C6   		cmpq	%rax, %rsi
 2609 1bad 7623     		jbe	.L333
 2610 1baf 0FB64318 		movzbl	24(%rbx), %eax
 2611 1bb3 488D4A05 		leaq	5(%rdx), %rcx
 2612 1bb7 884204   		movb	%al, 4(%rdx)
 2613 1bba 4839CE   		cmpq	%rcx, %rsi
 2614 1bbd 7613     		jbe	.L333
 2615 1bbf 884205   		movb	%al, 5(%rdx)
 2616 1bc2 488D4206 		leaq	6(%rdx), %rax
 2617 1bc6 4839C6   		cmpq	%rax, %rsi
 2618 1bc9 7607     		jbe	.L333
 2619 1bcb 0FB64318 		movzbl	24(%rbx), %eax
 2620 1bcf 884206   		movb	%al, 6(%rdx)
 2621              	.L333:
 2622 1bd2 488B3B   		movq	(%rbx), %rdi
 2623 1bd5 E99FFEFF 		jmp	.L324
 2623      FF
 2624 1bda 660F1F44 		.p2align 4,,10
 2624      0000
 2625              		.p2align 3
 2626              	.L346:
 2627 1be0 0FB64318 		movzbl	24(%rbx), %eax
 2628 1be4 4883C201 		addq	$1, %rdx
 2629 1be8 8842FF   		movb	%al, -1(%rdx)
 2630 1beb 4839D6   		cmpq	%rdx, %rsi
 2631 1bee 0F8406FE 		je	.L313
 2631      FFFF
 2632 1bf4 0FB64318 		movzbl	24(%rbx), %eax
 2633 1bf8 4883C201 		addq	$1, %rdx
 2634 1bfc 8842FF   		movb	%al, -1(%rdx)
 2635 1bff 4839D6   		cmpq	%rdx, %rsi
 2636 1c02 75DC     		jne	.L346
 2637 1c04 E9F1FDFF 		jmp	.L313
 2637      FF
 2638 1c09 0F1F8000 		.p2align 4,,10
 2638      000000
 2639              		.p2align 3
 2640              	.L347:
 2641 1c10 0FB64318 		movzbl	24(%rbx), %eax
 2642 1c14 4883C201 		addq	$1, %rdx
 2643 1c18 8842FF   		movb	%al, -1(%rdx)
 2644 1c1b 4839D6   		cmpq	%rdx, %rsi
 2645 1c1e 74B2     		je	.L333
 2646 1c20 0FB64318 		movzbl	24(%rbx), %eax
 2647 1c24 4883C201 		addq	$1, %rdx
 2648 1c28 8842FF   		movb	%al, -1(%rdx)
 2649 1c2b 4839D6   		cmpq	%rdx, %rsi
 2650 1c2e 75E0     		jne	.L347
 2651 1c30 EBA0     		jmp	.L333
 2652              		.p2align 4,,10
 2653 1c32 660F1F44 		.p2align 3
 2653      0000
 2654              	.L326:
 2655 1c38 4C89FF   		movq	%r15, %rdi
 2656 1c3b 488D3500 		leaq	.LC2(%rip), %rsi
 2656      000000
 2657 1c42 E8000000 		call	errPrefix@PLT
 2657      00
 2658 1c47 4C89FF   		movq	%r15, %rdi
 2659 1c4a 488D3500 		leaq	.LC10(%rip), %rsi
 2659      000000
 2660 1c51 E8000000 		call	errPrefix@PLT
 2660      00
 2661 1c56 4C89FF   		movq	%r15, %rdi
 2662 1c59 488D3500 		leaq	.LC12(%rip), %rsi
 2662      000000
 2663 1c60 E8000000 		call	errPrefix@PLT
 2663      00
 2664 1c65 4883C408 		addq	$8, %rsp
 2665              		.cfi_remember_state
 2666              		.cfi_def_cfa_offset 56
 2667 1c69 B8010000 		movl	$1, %eax
 2667      00
 2668 1c6e 5B       		popq	%rbx
 2669              		.cfi_def_cfa_offset 48
 2670 1c6f 5D       		popq	%rbp
 2671              		.cfi_def_cfa_offset 40
 2672 1c70 415C     		popq	%r12
 2673              		.cfi_def_cfa_offset 32
 2674 1c72 415D     		popq	%r13
 2675              		.cfi_def_cfa_offset 24
 2676 1c74 415E     		popq	%r14
 2677              		.cfi_def_cfa_offset 16
 2678 1c76 415F     		popq	%r15
 2679              		.cfi_def_cfa_offset 8
 2680 1c78 C3       		ret
 2681              	.L335:
 2682              		.cfi_restore_state
 2683 1c79 31FF     		xorl	%edi, %edi
 2684 1c7b E995FBFF 		jmp	.L316
 2684      FF
 2685              	.L334:
 2686 1c80 31FF     		xorl	%edi, %edi
 2687 1c82 E9EEFCFF 		jmp	.L308
 2687      FF
 2688              	.L336:
 2689 1c87 31FF     		xorl	%edi, %edi
 2690 1c89 E9BFFEFF 		jmp	.L328
 2690      FF
 2691              		.cfi_endproc
 2692              	.LFE49:
 2694              		.section	.rodata.str1.1
 2695              	.LC13:
 2696 00ac 62756657 		.string	"bufWriteWordBE()"
 2696      72697465 
 2696      576F7264 
 2696      42452829 
 2696      00
 2697              		.text
 2698 1c8e 6690     		.p2align 4
 2699              		.globl	bufWriteWordBE
 2701              	bufWriteWordBE:
 2702              	.LFB50:
 2703              		.cfi_startproc
 2704 1c90 F30F1EFA 		endbr64
 2705 1c94 4157     		pushq	%r15
 2706              		.cfi_def_cfa_offset 16
 2707              		.cfi_offset 15, -16
 2708 1c96 4989CF   		movq	%rcx, %r15
 2709 1c99 4156     		pushq	%r14
 2710              		.cfi_def_cfa_offset 24
 2711              		.cfi_offset 14, -24
 2712 1c9b 4189D6   		movl	%edx, %r14d
 2713 1c9e 4155     		pushq	%r13
 2714              		.cfi_def_cfa_offset 32
 2715              		.cfi_offset 13, -32
 2716 1ca0 4C8D6E02 		leaq	2(%rsi), %r13
 2717 1ca4 4154     		pushq	%r12
 2718              		.cfi_def_cfa_offset 40
 2719              		.cfi_offset 12, -40
 2720 1ca6 4989F4   		movq	%rsi, %r12
 2721 1ca9 55       		pushq	%rbp
 2722              		.cfi_def_cfa_offset 48
 2723              		.cfi_offset 6, -48
 2724 1caa 53       		pushq	%rbx
 2725              		.cfi_def_cfa_offset 56
 2726              		.cfi_offset 3, -56
 2727 1cab 4889FB   		movq	%rdi, %rbx
 2728 1cae 4883EC08 		subq	$8, %rsp
 2729              		.cfi_def_cfa_offset 64
 2730 1cb2 4C8B4708 		movq	8(%rdi), %r8
 2731 1cb6 488B3F   		movq	(%rdi), %rdi
 2732 1cb9 4C39C6   		cmpq	%r8, %rsi
 2733 1cbc 0F82AE02 		jb	.L370
 2733      0000
 2734 1cc2 488B6B10 		movq	16(%rbx), %rbp
 2735 1cc6 4939ED   		cmpq	%rbp, %r13
 2736 1cc9 0F874101 		ja	.L372
 2736      0000
 2737              	.L371:
 2738 1ccf 4E8D0C07 		leaq	(%rdi,%r8), %r9
 2739 1cd3 4A8D0427 		leaq	(%rdi,%r12), %rax
 2740 1cd7 4C89CA   		movq	%r9, %rdx
 2741 1cda 4939C1   		cmpq	%rax, %r9
 2742 1cdd 0F831E01 		jnb	.L383
 2742      0000
 2743 1ce3 488D7B18 		leaq	24(%rbx), %rdi
 2744 1ce7 4C89E6   		movq	%r12, %rsi
 2745 1cea 4C8D5319 		leaq	25(%rbx), %r10
 2746 1cee 4C89C9   		movq	%r9, %rcx
 2747 1cf1 4C29C6   		subq	%r8, %rsi
 2748 1cf4 4839F8   		cmpq	%rdi, %rax
 2749 1cf7 400F96C7 		setbe	%dil
 2750 1cfb 4D39D1   		cmpq	%r10, %r9
 2751 1cfe 4C8D46FF 		leaq	-1(%rsi), %r8
 2752 1d02 410F93C2 		setnb	%r10b
 2753 1d06 4408D7   		orb	%r10b, %dil
 2754 1d09 0F849102 		je	.L414
 2754      0000
 2755 1d0f 4983F806 		cmpq	$6, %r8
 2756 1d13 0F868702 		jbe	.L414
 2756      0000
 2757 1d19 4983F80E 		cmpq	$14, %r8
 2758 1d1d 0F86B604 		jbe	.L404
 2758      0000
 2759 1d23 0FB65318 		movzbl	24(%rbx), %edx
 2760 1d27 660F6EC2 		movd	%edx, %xmm0
 2761 1d2b 4889F2   		movq	%rsi, %rdx
 2762 1d2e 660F60C0 		punpcklbw	%xmm0, %xmm0
 2763 1d32 4883E2F0 		andq	$-16, %rdx
 2764 1d36 660F61C0 		punpcklwd	%xmm0, %xmm0
 2765 1d3a 4C01CA   		addq	%r9, %rdx
 2766 1d3d 660F70C0 		pshufd	$0, %xmm0, %xmm0
 2766      00
 2767              		.p2align 4,,10
 2768 1d42 660F1F44 		.p2align 3
 2768      0000
 2769              	.L386:
 2770 1d48 0F1101   		movups	%xmm0, (%rcx)
 2771 1d4b 4883C110 		addq	$16, %rcx
 2772 1d4f 4839D1   		cmpq	%rdx, %rcx
 2773 1d52 75F4     		jne	.L386
 2774 1d54 4889F7   		movq	%rsi, %rdi
 2775 1d57 4883E7F0 		andq	$-16, %rdi
 2776 1d5b 498D1439 		leaq	(%r9,%rdi), %rdx
 2777 1d5f 4839FE   		cmpq	%rdi, %rsi
 2778 1d62 0F849300 		je	.L390
 2778      0000
 2779 1d68 4829FE   		subq	%rdi, %rsi
 2780 1d6b 488D4EFF 		leaq	-1(%rsi), %rcx
 2781 1d6f 4883F906 		cmpq	$6, %rcx
 2782 1d73 762C     		jbe	.L388
 2783              	.L385:
 2784 1d75 440FB643 		movzbl	24(%rbx), %r8d
 2784      18
 2785 1d7a 4489C1   		movl	%r8d, %ecx
 2786 1d7d C1E108   		sall	$8, %ecx
 2787 1d80 4409C1   		orl	%r8d, %ecx
 2788 1d83 660F6EC9 		movd	%ecx, %xmm1
 2789 1d87 4889F1   		movq	%rsi, %rcx
 2790 1d8a F20F70C1 		pshuflw	$0, %xmm1, %xmm0
 2790      00
 2791 1d8f 4883E1F8 		andq	$-8, %rcx
 2792 1d93 66410FD6 		movq	%xmm0, (%r9,%rdi)
 2792      0439
 2793 1d99 4801CA   		addq	%rcx, %rdx
 2794 1d9c 4839F1   		cmpq	%rsi, %rcx
 2795 1d9f 745A     		je	.L390
 2796              	.L388:
 2797 1da1 0FB64B18 		movzbl	24(%rbx), %ecx
 2798 1da5 488D7201 		leaq	1(%rdx), %rsi
 2799 1da9 880A     		movb	%cl, (%rdx)
 2800 1dab 4839F0   		cmpq	%rsi, %rax
 2801 1dae 764B     		jbe	.L390
 2802 1db0 884A01   		movb	%cl, 1(%rdx)
 2803 1db3 488D4A02 		leaq	2(%rdx), %rcx
 2804 1db7 4839C8   		cmpq	%rcx, %rax
 2805 1dba 763F     		jbe	.L390
 2806 1dbc 0FB64B18 		movzbl	24(%rbx), %ecx
 2807 1dc0 488D7203 		leaq	3(%rdx), %rsi
 2808 1dc4 884A02   		movb	%cl, 2(%rdx)
 2809 1dc7 4839F0   		cmpq	%rsi, %rax
 2810 1dca 762F     		jbe	.L390
 2811 1dcc 884A03   		movb	%cl, 3(%rdx)
 2812 1dcf 488D4A04 		leaq	4(%rdx), %rcx
 2813 1dd3 4839C8   		cmpq	%rcx, %rax
 2814 1dd6 7623     		jbe	.L390
 2815 1dd8 0FB64B18 		movzbl	24(%rbx), %ecx
 2816 1ddc 488D7205 		leaq	5(%rdx), %rsi
 2817 1de0 884A04   		movb	%cl, 4(%rdx)
 2818 1de3 4839F0   		cmpq	%rsi, %rax
 2819 1de6 7613     		jbe	.L390
 2820 1de8 884A05   		movb	%cl, 5(%rdx)
 2821 1deb 488D4A06 		leaq	6(%rdx), %rcx
 2822 1def 4839C8   		cmpq	%rcx, %rax
 2823 1df2 7607     		jbe	.L390
 2824 1df4 0FB64318 		movzbl	24(%rbx), %eax
 2825 1df8 884206   		movb	%al, 6(%rdx)
 2826              	.L390:
 2827 1dfb 488B03   		movq	(%rbx), %rax
 2828 1dfe 4C01E0   		addq	%r12, %rax
 2829              	.L383:
 2830 1e01 4C896B08 		movq	%r13, 8(%rbx)
 2831 1e05 E96F0100 		jmp	.L391
 2831      00
 2832 1e0a 660F1F44 		.p2align 4,,10
 2832      0000
 2833              		.p2align 3
 2834              	.L372:
 2835 1e10 4801ED   		addq	%rbp, %rbp
 2836 1e13 4939ED   		cmpq	%rbp, %r13
 2837 1e16 77F8     		ja	.L372
 2838 1e18 4889EE   		movq	%rbp, %rsi
 2839 1e1b E8000000 		call	realloc@PLT
 2839      00
 2840 1e20 4889C7   		movq	%rax, %rdi
 2841 1e23 4885C0   		testq	%rax, %rax
 2842 1e26 0F846C03 		je	.L395
 2842      0000
 2843 1e2c 4A8D0C28 		leaq	(%rax,%r13), %rcx
 2844 1e30 488D3428 		leaq	(%rax,%rbp), %rsi
 2845 1e34 488903   		movq	%rax, (%rbx)
 2846 1e37 48896B10 		movq	%rbp, 16(%rbx)
 2847 1e3b 4889CA   		movq	%rcx, %rdx
 2848 1e3e 4839F1   		cmpq	%rsi, %rcx
 2849 1e41 0F831601 		jnb	.L433
 2849      0000
 2850 1e47 488D7B18 		leaq	24(%rbx), %rdi
 2851 1e4b 4C29ED   		subq	%r13, %rbp
 2852 1e4e 4C8D4B19 		leaq	25(%rbx), %r9
 2853 1e52 4889C8   		movq	%rcx, %rax
 2854 1e55 4839FE   		cmpq	%rdi, %rsi
 2855 1e58 4C8D45FF 		leaq	-1(%rbp), %r8
 2856 1e5c 400F96C7 		setbe	%dil
 2857 1e60 4C39C9   		cmpq	%r9, %rcx
 2858 1e63 410F93C1 		setnb	%r9b
 2859 1e67 4408CF   		orb	%r9b, %dil
 2860 1e6a 0F84D002 		je	.L415
 2860      0000
 2861 1e70 4983F806 		cmpq	$6, %r8
 2862 1e74 0F86C602 		jbe	.L415
 2862      0000
 2863 1e7a 4983F80E 		cmpq	$14, %r8
 2864 1e7e 0F865C03 		jbe	.L403
 2864      0000
 2865 1e84 0FB65318 		movzbl	24(%rbx), %edx
 2866 1e88 660F6EC2 		movd	%edx, %xmm0
 2867 1e8c 4889EA   		movq	%rbp, %rdx
 2868 1e8f 660F60C0 		punpcklbw	%xmm0, %xmm0
 2869 1e93 4883E2F0 		andq	$-16, %rdx
 2870 1e97 660F61C0 		punpcklwd	%xmm0, %xmm0
 2871 1e9b 4801CA   		addq	%rcx, %rdx
 2872 1e9e 660F70C0 		pshufd	$0, %xmm0, %xmm0
 2872      00
 2873              		.p2align 4,,10
 2874 1ea3 0F1F4400 		.p2align 3
 2874      00
 2875              	.L378:
 2876 1ea8 0F1100   		movups	%xmm0, (%rax)
 2877 1eab 4883C010 		addq	$16, %rax
 2878 1eaf 4839D0   		cmpq	%rdx, %rax
 2879 1eb2 75F4     		jne	.L378
 2880 1eb4 4889EF   		movq	%rbp, %rdi
 2881 1eb7 4883E7F0 		andq	$-16, %rdi
 2882 1ebb 488D1439 		leaq	(%rcx,%rdi), %rdx
 2883 1ebf 4839FD   		cmpq	%rdi, %rbp
 2884 1ec2 0F849200 		je	.L382
 2884      0000
 2885 1ec8 4829FD   		subq	%rdi, %rbp
 2886 1ecb 488D45FF 		leaq	-1(%rbp), %rax
 2887 1ecf 4883F806 		cmpq	$6, %rax
 2888 1ed3 762B     		jbe	.L380
 2889              	.L377:
 2890 1ed5 440FB643 		movzbl	24(%rbx), %r8d
 2890      18
 2891 1eda 4489C0   		movl	%r8d, %eax
 2892 1edd C1E008   		sall	$8, %eax
 2893 1ee0 4409C0   		orl	%r8d, %eax
 2894 1ee3 660F6ED0 		movd	%eax, %xmm2
 2895 1ee7 4889E8   		movq	%rbp, %rax
 2896 1eea F20F70C2 		pshuflw	$0, %xmm2, %xmm0
 2896      00
 2897 1eef 4883E0F8 		andq	$-8, %rax
 2898 1ef3 660FD604 		movq	%xmm0, (%rcx,%rdi)
 2898      39
 2899 1ef8 4801C2   		addq	%rax, %rdx
 2900 1efb 4839E8   		cmpq	%rbp, %rax
 2901 1efe 745A     		je	.L382
 2902              	.L380:
 2903 1f00 0FB64318 		movzbl	24(%rbx), %eax
 2904 1f04 488D4A01 		leaq	1(%rdx), %rcx
 2905 1f08 8802     		movb	%al, (%rdx)
 2906 1f0a 4839CE   		cmpq	%rcx, %rsi
 2907 1f0d 764B     		jbe	.L382
 2908 1f0f 884201   		movb	%al, 1(%rdx)
 2909 1f12 488D4202 		leaq	2(%rdx), %rax
 2910 1f16 4839C6   		cmpq	%rax, %rsi
 2911 1f19 763F     		jbe	.L382
 2912 1f1b 0FB64318 		movzbl	24(%rbx), %eax
 2913 1f1f 488D4A03 		leaq	3(%rdx), %rcx
 2914 1f23 884202   		movb	%al, 2(%rdx)
 2915 1f26 4839CE   		cmpq	%rcx, %rsi
 2916 1f29 762F     		jbe	.L382
 2917 1f2b 884203   		movb	%al, 3(%rdx)
 2918 1f2e 488D4204 		leaq	4(%rdx), %rax
 2919 1f32 4839C6   		cmpq	%rax, %rsi
 2920 1f35 7623     		jbe	.L382
 2921 1f37 0FB64318 		movzbl	24(%rbx), %eax
 2922 1f3b 488D4A05 		leaq	5(%rdx), %rcx
 2923 1f3f 884204   		movb	%al, 4(%rdx)
 2924 1f42 4839CE   		cmpq	%rcx, %rsi
 2925 1f45 7613     		jbe	.L382
 2926 1f47 884205   		movb	%al, 5(%rdx)
 2927 1f4a 488D4206 		leaq	6(%rdx), %rax
 2928 1f4e 4839C6   		cmpq	%rax, %rsi
 2929 1f51 7607     		jbe	.L382
 2930 1f53 0FB64318 		movzbl	24(%rbx), %eax
 2931 1f57 884206   		movb	%al, 6(%rdx)
 2932              	.L382:
 2933 1f5a 488B3B   		movq	(%rbx), %rdi
 2934              	.L433:
 2935 1f5d 4C8B4308 		movq	8(%rbx), %r8
 2936 1f61 E969FDFF 		jmp	.L371
 2936      FF
 2937 1f66 662E0F1F 		.p2align 4,,10
 2937      84000000 
 2937      0000
 2938              		.p2align 3
 2939              	.L370:
 2940 1f70 4D39C5   		cmpq	%r8, %r13
 2941 1f73 775B     		ja	.L437
 2942 1f75 488D0437 		leaq	(%rdi,%rsi), %rax
 2943              	.L391:
 2944              	.L374:
 2945 1f79 4489F2   		movl	%r14d, %edx
 2946 1f7c 8830     		movb	%dh, (%rax)
 2947 1f7e 488B03   		movq	(%rbx), %rax
 2948 1f81 46887420 		movb	%r14b, 1(%rax,%r12)
 2948      01
 2949 1f86 4883C408 		addq	$8, %rsp
 2950              		.cfi_remember_state
 2951              		.cfi_def_cfa_offset 56
 2952 1f8a 31C0     		xorl	%eax, %eax
 2953 1f8c 5B       		popq	%rbx
 2954              		.cfi_def_cfa_offset 48
 2955 1f8d 5D       		popq	%rbp
 2956              		.cfi_def_cfa_offset 40
 2957 1f8e 415C     		popq	%r12
 2958              		.cfi_def_cfa_offset 32
 2959 1f90 415D     		popq	%r13
 2960              		.cfi_def_cfa_offset 24
 2961 1f92 415E     		popq	%r14
 2962              		.cfi_def_cfa_offset 16
 2963 1f94 415F     		popq	%r15
 2964              		.cfi_def_cfa_offset 8
 2965 1f96 C3       		ret
 2966 1f97 660F1F84 		.p2align 4,,10
 2966      00000000 
 2966      00
 2967              		.p2align 3
 2968              	.L414:
 2969              		.cfi_restore_state
 2970 1fa0 0FB64B18 		movzbl	24(%rbx), %ecx
 2971 1fa4 4883C201 		addq	$1, %rdx
 2972 1fa8 884AFF   		movb	%cl, -1(%rdx)
 2973 1fab 4839D0   		cmpq	%rdx, %rax
 2974 1fae 0F8447FE 		je	.L390
 2974      FFFF
 2975 1fb4 0FB64B18 		movzbl	24(%rbx), %ecx
 2976 1fb8 4883C201 		addq	$1, %rdx
 2977 1fbc 884AFF   		movb	%cl, -1(%rdx)
 2978 1fbf 4839D0   		cmpq	%rdx, %rax
 2979 1fc2 75DC     		jne	.L414
 2980 1fc4 E932FEFF 		jmp	.L390
 2980      FF
 2981 1fc9 0F1F8000 		.p2align 4,,10
 2981      000000
 2982              		.p2align 3
 2983              	.L437:
 2984 1fd0 488B6B10 		movq	16(%rbx), %rbp
 2985 1fd4 4939ED   		cmpq	%rbp, %r13
 2986 1fd7 770F     		ja	.L394
 2987              	.L393:
 2988 1fd9 4C896B08 		movq	%r13, 8(%rbx)
 2989 1fdd 4A8D0427 		leaq	(%rdi,%r12), %rax
 2990 1fe1 EB96     		jmp	.L391
 2991              		.p2align 4,,10
 2992 1fe3 0F1F4400 		.p2align 3
 2992      00
 2993              	.L394:
 2994 1fe8 4801ED   		addq	%rbp, %rbp
 2995 1feb 4939ED   		cmpq	%rbp, %r13
 2996 1fee 77F8     		ja	.L394
 2997 1ff0 4889EE   		movq	%rbp, %rsi
 2998 1ff3 E8000000 		call	realloc@PLT
 2998      00
 2999 1ff8 4889C7   		movq	%rax, %rdi
 3000 1ffb 4885C0   		testq	%rax, %rax
 3001 1ffe 0F849401 		je	.L395
 3001      0000
 3002 2004 4A8D0C28 		leaq	(%rax,%r13), %rcx
 3003 2008 488D3428 		leaq	(%rax,%rbp), %rsi
 3004 200c 488903   		movq	%rax, (%rbx)
 3005 200f 48896B10 		movq	%rbp, 16(%rbx)
 3006 2013 4889CA   		movq	%rcx, %rdx
 3007 2016 4839F1   		cmpq	%rsi, %rcx
 3008 2019 73BE     		jnb	.L393
 3009 201b 488D7B18 		leaq	24(%rbx), %rdi
 3010 201f 4C29ED   		subq	%r13, %rbp
 3011 2022 4C8D4B19 		leaq	25(%rbx), %r9
 3012 2026 4889C8   		movq	%rcx, %rax
 3013 2029 4839FE   		cmpq	%rdi, %rsi
 3014 202c 4C8D45FF 		leaq	-1(%rbp), %r8
 3015 2030 400F96C7 		setbe	%dil
 3016 2034 4C39C9   		cmpq	%r9, %rcx
 3017 2037 410F93C1 		setnb	%r9b
 3018 203b 4408CF   		orb	%r9b, %dil
 3019 203e 0F842C01 		je	.L416
 3019      0000
 3020 2044 4983F806 		cmpq	$6, %r8
 3021 2048 0F862201 		jbe	.L416
 3021      0000
 3022 204e 4983F80E 		cmpq	$14, %r8
 3023 2052 0F868F01 		jbe	.L405
 3023      0000
 3024 2058 0FB65318 		movzbl	24(%rbx), %edx
 3025 205c 660F6EC2 		movd	%edx, %xmm0
 3026 2060 4889EA   		movq	%rbp, %rdx
 3027 2063 660F60C0 		punpcklbw	%xmm0, %xmm0
 3028 2067 4883E2F0 		andq	$-16, %rdx
 3029 206b 660F61C0 		punpcklwd	%xmm0, %xmm0
 3030 206f 4801CA   		addq	%rcx, %rdx
 3031 2072 660F70C0 		pshufd	$0, %xmm0, %xmm0
 3031      00
 3032 2077 660F1F84 		.p2align 4,,10
 3032      00000000 
 3032      00
 3033              		.p2align 3
 3034              	.L398:
 3035 2080 0F1100   		movups	%xmm0, (%rax)
 3036 2083 4883C010 		addq	$16, %rax
 3037 2087 4839D0   		cmpq	%rdx, %rax
 3038 208a 75F4     		jne	.L398
 3039 208c 4889EF   		movq	%rbp, %rdi
 3040 208f 4883E7F0 		andq	$-16, %rdi
 3041 2093 488D1439 		leaq	(%rcx,%rdi), %rdx
 3042 2097 4839FD   		cmpq	%rdi, %rbp
 3043 209a 0F849200 		je	.L402
 3043      0000
 3044 20a0 4829FD   		subq	%rdi, %rbp
 3045 20a3 488D45FF 		leaq	-1(%rbp), %rax
 3046 20a7 4883F806 		cmpq	$6, %rax
 3047 20ab 762B     		jbe	.L400
 3048              	.L397:
 3049 20ad 440FB643 		movzbl	24(%rbx), %r8d
 3049      18
 3050 20b2 4489C0   		movl	%r8d, %eax
 3051 20b5 C1E008   		sall	$8, %eax
 3052 20b8 4409C0   		orl	%r8d, %eax
 3053 20bb 660F6ED8 		movd	%eax, %xmm3
 3054 20bf 4889E8   		movq	%rbp, %rax
 3055 20c2 F20F70C3 		pshuflw	$0, %xmm3, %xmm0
 3055      00
 3056 20c7 4883E0F8 		andq	$-8, %rax
 3057 20cb 660FD604 		movq	%xmm0, (%rcx,%rdi)
 3057      39
 3058 20d0 4801C2   		addq	%rax, %rdx
 3059 20d3 4839E8   		cmpq	%rbp, %rax
 3060 20d6 745A     		je	.L402
 3061              	.L400:
 3062 20d8 0FB64318 		movzbl	24(%rbx), %eax
 3063 20dc 488D4A01 		leaq	1(%rdx), %rcx
 3064 20e0 8802     		movb	%al, (%rdx)
 3065 20e2 4839CE   		cmpq	%rcx, %rsi
 3066 20e5 764B     		jbe	.L402
 3067 20e7 884201   		movb	%al, 1(%rdx)
 3068 20ea 488D4202 		leaq	2(%rdx), %rax
 3069 20ee 4839C6   		cmpq	%rax, %rsi
 3070 20f1 763F     		jbe	.L402
 3071 20f3 0FB64318 		movzbl	24(%rbx), %eax
 3072 20f7 488D4A03 		leaq	3(%rdx), %rcx
 3073 20fb 884202   		movb	%al, 2(%rdx)
 3074 20fe 4839CE   		cmpq	%rcx, %rsi
 3075 2101 762F     		jbe	.L402
 3076 2103 884203   		movb	%al, 3(%rdx)
 3077 2106 488D4204 		leaq	4(%rdx), %rax
 3078 210a 4839C6   		cmpq	%rax, %rsi
 3079 210d 7623     		jbe	.L402
 3080 210f 0FB64318 		movzbl	24(%rbx), %eax
 3081 2113 488D4A05 		leaq	5(%rdx), %rcx
 3082 2117 884204   		movb	%al, 4(%rdx)
 3083 211a 4839CE   		cmpq	%rcx, %rsi
 3084 211d 7613     		jbe	.L402
 3085 211f 884205   		movb	%al, 5(%rdx)
 3086 2122 488D4206 		leaq	6(%rdx), %rax
 3087 2126 4839C6   		cmpq	%rax, %rsi
 3088 2129 7607     		jbe	.L402
 3089 212b 0FB64318 		movzbl	24(%rbx), %eax
 3090 212f 884206   		movb	%al, 6(%rdx)
 3091              	.L402:
 3092 2132 488B3B   		movq	(%rbx), %rdi
 3093 2135 E99FFEFF 		jmp	.L393
 3093      FF
 3094 213a 660F1F44 		.p2align 4,,10
 3094      0000
 3095              		.p2align 3
 3096              	.L415:
 3097 2140 0FB64318 		movzbl	24(%rbx), %eax
 3098 2144 4883C201 		addq	$1, %rdx
 3099 2148 8842FF   		movb	%al, -1(%rdx)
 3100 214b 4839D6   		cmpq	%rdx, %rsi
 3101 214e 0F8406FE 		je	.L382
 3101      FFFF
 3102 2154 0FB64318 		movzbl	24(%rbx), %eax
 3103 2158 4883C201 		addq	$1, %rdx
 3104 215c 8842FF   		movb	%al, -1(%rdx)
 3105 215f 4839D6   		cmpq	%rdx, %rsi
 3106 2162 75DC     		jne	.L415
 3107 2164 E9F1FDFF 		jmp	.L382
 3107      FF
 3108 2169 0F1F8000 		.p2align 4,,10
 3108      000000
 3109              		.p2align 3
 3110              	.L416:
 3111 2170 0FB64318 		movzbl	24(%rbx), %eax
 3112 2174 4883C201 		addq	$1, %rdx
 3113 2178 8842FF   		movb	%al, -1(%rdx)
 3114 217b 4839D6   		cmpq	%rdx, %rsi
 3115 217e 74B2     		je	.L402
 3116 2180 0FB64318 		movzbl	24(%rbx), %eax
 3117 2184 4883C201 		addq	$1, %rdx
 3118 2188 8842FF   		movb	%al, -1(%rdx)
 3119 218b 4839D6   		cmpq	%rdx, %rsi
 3120 218e 75E0     		jne	.L416
 3121 2190 EBA0     		jmp	.L402
 3122              		.p2align 4,,10
 3123 2192 660F1F44 		.p2align 3
 3123      0000
 3124              	.L395:
 3125 2198 4C89FF   		movq	%r15, %rdi
 3126 219b 488D3500 		leaq	.LC2(%rip), %rsi
 3126      000000
 3127 21a2 E8000000 		call	errPrefix@PLT
 3127      00
 3128 21a7 4C89FF   		movq	%r15, %rdi
 3129 21aa 488D3500 		leaq	.LC10(%rip), %rsi
 3129      000000
 3130 21b1 E8000000 		call	errPrefix@PLT
 3130      00
 3131 21b6 4C89FF   		movq	%r15, %rdi
 3132 21b9 488D3500 		leaq	.LC13(%rip), %rsi
 3132      000000
 3133 21c0 E8000000 		call	errPrefix@PLT
 3133      00
 3134 21c5 4883C408 		addq	$8, %rsp
 3135              		.cfi_remember_state
 3136              		.cfi_def_cfa_offset 56
 3137 21c9 B8010000 		movl	$1, %eax
 3137      00
 3138 21ce 5B       		popq	%rbx
 3139              		.cfi_def_cfa_offset 48
 3140 21cf 5D       		popq	%rbp
 3141              		.cfi_def_cfa_offset 40
 3142 21d0 415C     		popq	%r12
 3143              		.cfi_def_cfa_offset 32
 3144 21d2 415D     		popq	%r13
 3145              		.cfi_def_cfa_offset 24
 3146 21d4 415E     		popq	%r14
 3147              		.cfi_def_cfa_offset 16
 3148 21d6 415F     		popq	%r15
 3149              		.cfi_def_cfa_offset 8
 3150 21d8 C3       		ret
 3151              	.L404:
 3152              		.cfi_restore_state
 3153 21d9 31FF     		xorl	%edi, %edi
 3154 21db E995FBFF 		jmp	.L385
 3154      FF
 3155              	.L403:
 3156 21e0 31FF     		xorl	%edi, %edi
 3157 21e2 E9EEFCFF 		jmp	.L377
 3157      FF
 3158              	.L405:
 3159 21e7 31FF     		xorl	%edi, %edi
 3160 21e9 E9BFFEFF 		jmp	.L397
 3160      FF
 3161              		.cfi_endproc
 3162              	.LFE50:
 3164              		.section	.rodata.str1.1
 3165              	.LC14:
 3166 00bd 62756657 		.string	"bufWriteLongLE()"
 3166      72697465 
 3166      4C6F6E67 
 3166      4C452829 
 3166      00
 3167              		.text
 3168 21ee 6690     		.p2align 4
 3169              		.globl	bufWriteLongLE
 3171              	bufWriteLongLE:
 3172              	.LFB51:
 3173              		.cfi_startproc
 3174 21f0 F30F1EFA 		endbr64
 3175 21f4 4157     		pushq	%r15
 3176              		.cfi_def_cfa_offset 16
 3177              		.cfi_offset 15, -16
 3178 21f6 4989CF   		movq	%rcx, %r15
 3179 21f9 4156     		pushq	%r14
 3180              		.cfi_def_cfa_offset 24
 3181              		.cfi_offset 14, -24
 3182 21fb 4C8D7604 		leaq	4(%rsi), %r14
 3183 21ff 4155     		pushq	%r13
 3184              		.cfi_def_cfa_offset 32
 3185              		.cfi_offset 13, -32
 3186 2201 4189D5   		movl	%edx, %r13d
 3187 2204 4154     		pushq	%r12
 3188              		.cfi_def_cfa_offset 40
 3189              		.cfi_offset 12, -40
 3190 2206 4989F4   		movq	%rsi, %r12
 3191 2209 55       		pushq	%rbp
 3192              		.cfi_def_cfa_offset 48
 3193              		.cfi_offset 6, -48
 3194 220a 53       		pushq	%rbx
 3195              		.cfi_def_cfa_offset 56
 3196              		.cfi_offset 3, -56
 3197 220b 4889FB   		movq	%rdi, %rbx
 3198 220e 4883EC08 		subq	$8, %rsp
 3199              		.cfi_def_cfa_offset 64
 3200 2212 4C8B4708 		movq	8(%rdi), %r8
 3201 2216 488B3F   		movq	(%rdi), %rdi
 3202 2219 4C39C6   		cmpq	%r8, %rsi
 3203 221c 0F82AE02 		jb	.L439
 3203      0000
 3204 2222 488B6B10 		movq	16(%rbx), %rbp
 3205 2226 4939EE   		cmpq	%rbp, %r14
 3206 2229 0F874101 		ja	.L441
 3206      0000
 3207              	.L440:
 3208 222f 4E8D0C07 		leaq	(%rdi,%r8), %r9
 3209 2233 4A8D0427 		leaq	(%rdi,%r12), %rax
 3210 2237 4C89CA   		movq	%r9, %rdx
 3211 223a 4939C1   		cmpq	%rax, %r9
 3212 223d 0F831E01 		jnb	.L452
 3212      0000
 3213 2243 488D7B18 		leaq	24(%rbx), %rdi
 3214 2247 4C89E6   		movq	%r12, %rsi
 3215 224a 4C8D5319 		leaq	25(%rbx), %r10
 3216 224e 4C89C9   		movq	%r9, %rcx
 3217 2251 4C29C6   		subq	%r8, %rsi
 3218 2254 4839F8   		cmpq	%rdi, %rax
 3219 2257 400F96C7 		setbe	%dil
 3220 225b 4D39D1   		cmpq	%r10, %r9
 3221 225e 4C8D46FF 		leaq	-1(%rsi), %r8
 3222 2262 410F93C2 		setnb	%r10b
 3223 2266 4408D7   		orb	%r10b, %dil
 3224 2269 0F84A902 		je	.L483
 3224      0000
 3225 226f 4983F806 		cmpq	$6, %r8
 3226 2273 0F869F02 		jbe	.L483
 3226      0000
 3227 2279 4983F80E 		cmpq	$14, %r8
 3228 227d 0F86C604 		jbe	.L473
 3228      0000
 3229 2283 0FB65318 		movzbl	24(%rbx), %edx
 3230 2287 660F6EC2 		movd	%edx, %xmm0
 3231 228b 4889F2   		movq	%rsi, %rdx
 3232 228e 660F60C0 		punpcklbw	%xmm0, %xmm0
 3233 2292 4883E2F0 		andq	$-16, %rdx
 3234 2296 660F61C0 		punpcklwd	%xmm0, %xmm0
 3235 229a 4C01CA   		addq	%r9, %rdx
 3236 229d 660F70C0 		pshufd	$0, %xmm0, %xmm0
 3236      00
 3237              		.p2align 4,,10
 3238 22a2 660F1F44 		.p2align 3
 3238      0000
 3239              	.L455:
 3240 22a8 0F1101   		movups	%xmm0, (%rcx)
 3241 22ab 4883C110 		addq	$16, %rcx
 3242 22af 4839D1   		cmpq	%rdx, %rcx
 3243 22b2 75F4     		jne	.L455
 3244 22b4 4889F7   		movq	%rsi, %rdi
 3245 22b7 4883E7F0 		andq	$-16, %rdi
 3246 22bb 498D1439 		leaq	(%r9,%rdi), %rdx
 3247 22bf 4839FE   		cmpq	%rdi, %rsi
 3248 22c2 0F849300 		je	.L459
 3248      0000
 3249 22c8 4829FE   		subq	%rdi, %rsi
 3250 22cb 488D4EFF 		leaq	-1(%rsi), %rcx
 3251 22cf 4883F906 		cmpq	$6, %rcx
 3252 22d3 762C     		jbe	.L457
 3253              	.L454:
 3254 22d5 440FB643 		movzbl	24(%rbx), %r8d
 3254      18
 3255 22da 4489C1   		movl	%r8d, %ecx
 3256 22dd C1E108   		sall	$8, %ecx
 3257 22e0 4409C1   		orl	%r8d, %ecx
 3258 22e3 660F6EC9 		movd	%ecx, %xmm1
 3259 22e7 4889F1   		movq	%rsi, %rcx
 3260 22ea F20F70C1 		pshuflw	$0, %xmm1, %xmm0
 3260      00
 3261 22ef 4883E1F8 		andq	$-8, %rcx
 3262 22f3 66410FD6 		movq	%xmm0, (%r9,%rdi)
 3262      0439
 3263 22f9 4801CA   		addq	%rcx, %rdx
 3264 22fc 4839F1   		cmpq	%rsi, %rcx
 3265 22ff 745A     		je	.L459
 3266              	.L457:
 3267 2301 0FB64B18 		movzbl	24(%rbx), %ecx
 3268 2305 488D7201 		leaq	1(%rdx), %rsi
 3269 2309 880A     		movb	%cl, (%rdx)
 3270 230b 4839F0   		cmpq	%rsi, %rax
 3271 230e 764B     		jbe	.L459
 3272 2310 884A01   		movb	%cl, 1(%rdx)
 3273 2313 488D4A02 		leaq	2(%rdx), %rcx
 3274 2317 4839C8   		cmpq	%rcx, %rax
 3275 231a 763F     		jbe	.L459
 3276 231c 0FB64B18 		movzbl	24(%rbx), %ecx
 3277 2320 488D7203 		leaq	3(%rdx), %rsi
 3278 2324 884A02   		movb	%cl, 2(%rdx)
 3279 2327 4839F0   		cmpq	%rsi, %rax
 3280 232a 762F     		jbe	.L459
 3281 232c 884A03   		movb	%cl, 3(%rdx)
 3282 232f 488D4A04 		leaq	4(%rdx), %rcx
 3283 2333 4839C8   		cmpq	%rcx, %rax
 3284 2336 7623     		jbe	.L459
 3285 2338 0FB64B18 		movzbl	24(%rbx), %ecx
 3286 233c 488D7205 		leaq	5(%rdx), %rsi
 3287 2340 884A04   		movb	%cl, 4(%rdx)
 3288 2343 4839F0   		cmpq	%rsi, %rax
 3289 2346 7613     		jbe	.L459
 3290 2348 884A05   		movb	%cl, 5(%rdx)
 3291 234b 488D4A06 		leaq	6(%rdx), %rcx
 3292 234f 4839C8   		cmpq	%rcx, %rax
 3293 2352 7607     		jbe	.L459
 3294 2354 0FB64318 		movzbl	24(%rbx), %eax
 3295 2358 884206   		movb	%al, 6(%rdx)
 3296              	.L459:
 3297 235b 488B03   		movq	(%rbx), %rax
 3298 235e 4C01E0   		addq	%r12, %rax
 3299              	.L452:
 3300 2361 4C897308 		movq	%r14, 8(%rbx)
 3301 2365 E96F0100 		jmp	.L460
 3301      00
 3302 236a 660F1F44 		.p2align 4,,10
 3302      0000
 3303              		.p2align 3
 3304              	.L441:
 3305 2370 4801ED   		addq	%rbp, %rbp
 3306 2373 4939EE   		cmpq	%rbp, %r14
 3307 2376 77F8     		ja	.L441
 3308 2378 4889EE   		movq	%rbp, %rsi
 3309 237b E8000000 		call	realloc@PLT
 3309      00
 3310 2380 4889C7   		movq	%rax, %rdi
 3311 2383 4885C0   		testq	%rax, %rax
 3312 2386 0F847C03 		je	.L464
 3312      0000
 3313 238c 4A8D0C30 		leaq	(%rax,%r14), %rcx
 3314 2390 488D3428 		leaq	(%rax,%rbp), %rsi
 3315 2394 488903   		movq	%rax, (%rbx)
 3316 2397 48896B10 		movq	%rbp, 16(%rbx)
 3317 239b 4889CA   		movq	%rcx, %rdx
 3318 239e 4839F1   		cmpq	%rsi, %rcx
 3319 23a1 0F831601 		jnb	.L502
 3319      0000
 3320 23a7 488D7B18 		leaq	24(%rbx), %rdi
 3321 23ab 4C29F5   		subq	%r14, %rbp
 3322 23ae 4C8D4B19 		leaq	25(%rbx), %r9
 3323 23b2 4889C8   		movq	%rcx, %rax
 3324 23b5 4839FE   		cmpq	%rdi, %rsi
 3325 23b8 4C8D45FF 		leaq	-1(%rbp), %r8
 3326 23bc 400F96C7 		setbe	%dil
 3327 23c0 4C39C9   		cmpq	%r9, %rcx
 3328 23c3 410F93C1 		setnb	%r9b
 3329 23c7 4408CF   		orb	%r9b, %dil
 3330 23ca 0F84E002 		je	.L484
 3330      0000
 3331 23d0 4983F806 		cmpq	$6, %r8
 3332 23d4 0F86D602 		jbe	.L484
 3332      0000
 3333 23da 4983F80E 		cmpq	$14, %r8
 3334 23de 0F866C03 		jbe	.L472
 3334      0000
 3335 23e4 0FB65318 		movzbl	24(%rbx), %edx
 3336 23e8 660F6EC2 		movd	%edx, %xmm0
 3337 23ec 4889EA   		movq	%rbp, %rdx
 3338 23ef 660F60C0 		punpcklbw	%xmm0, %xmm0
 3339 23f3 4883E2F0 		andq	$-16, %rdx
 3340 23f7 660F61C0 		punpcklwd	%xmm0, %xmm0
 3341 23fb 4801CA   		addq	%rcx, %rdx
 3342 23fe 660F70C0 		pshufd	$0, %xmm0, %xmm0
 3342      00
 3343              		.p2align 4,,10
 3344 2403 0F1F4400 		.p2align 3
 3344      00
 3345              	.L447:
 3346 2408 0F1100   		movups	%xmm0, (%rax)
 3347 240b 4883C010 		addq	$16, %rax
 3348 240f 4839D0   		cmpq	%rdx, %rax
 3349 2412 75F4     		jne	.L447
 3350 2414 4889EF   		movq	%rbp, %rdi
 3351 2417 4883E7F0 		andq	$-16, %rdi
 3352 241b 488D1439 		leaq	(%rcx,%rdi), %rdx
 3353 241f 4839FD   		cmpq	%rdi, %rbp
 3354 2422 0F849200 		je	.L451
 3354      0000
 3355 2428 4829FD   		subq	%rdi, %rbp
 3356 242b 488D45FF 		leaq	-1(%rbp), %rax
 3357 242f 4883F806 		cmpq	$6, %rax
 3358 2433 762B     		jbe	.L449
 3359              	.L446:
 3360 2435 440FB643 		movzbl	24(%rbx), %r8d
 3360      18
 3361 243a 4489C0   		movl	%r8d, %eax
 3362 243d C1E008   		sall	$8, %eax
 3363 2440 4409C0   		orl	%r8d, %eax
 3364 2443 660F6ED0 		movd	%eax, %xmm2
 3365 2447 4889E8   		movq	%rbp, %rax
 3366 244a F20F70C2 		pshuflw	$0, %xmm2, %xmm0
 3366      00
 3367 244f 4883E0F8 		andq	$-8, %rax
 3368 2453 660FD604 		movq	%xmm0, (%rcx,%rdi)
 3368      39
 3369 2458 4801C2   		addq	%rax, %rdx
 3370 245b 4839E8   		cmpq	%rbp, %rax
 3371 245e 745A     		je	.L451
 3372              	.L449:
 3373 2460 0FB64318 		movzbl	24(%rbx), %eax
 3374 2464 488D4A01 		leaq	1(%rdx), %rcx
 3375 2468 8802     		movb	%al, (%rdx)
 3376 246a 4839CE   		cmpq	%rcx, %rsi
 3377 246d 764B     		jbe	.L451
 3378 246f 884201   		movb	%al, 1(%rdx)
 3379 2472 488D4202 		leaq	2(%rdx), %rax
 3380 2476 4839C6   		cmpq	%rax, %rsi
 3381 2479 763F     		jbe	.L451
 3382 247b 0FB64318 		movzbl	24(%rbx), %eax
 3383 247f 488D4A03 		leaq	3(%rdx), %rcx
 3384 2483 884202   		movb	%al, 2(%rdx)
 3385 2486 4839CE   		cmpq	%rcx, %rsi
 3386 2489 762F     		jbe	.L451
 3387 248b 884203   		movb	%al, 3(%rdx)
 3388 248e 488D4204 		leaq	4(%rdx), %rax
 3389 2492 4839C6   		cmpq	%rax, %rsi
 3390 2495 7623     		jbe	.L451
 3391 2497 0FB64318 		movzbl	24(%rbx), %eax
 3392 249b 488D4A05 		leaq	5(%rdx), %rcx
 3393 249f 884204   		movb	%al, 4(%rdx)
 3394 24a2 4839CE   		cmpq	%rcx, %rsi
 3395 24a5 7613     		jbe	.L451
 3396 24a7 884205   		movb	%al, 5(%rdx)
 3397 24aa 488D4206 		leaq	6(%rdx), %rax
 3398 24ae 4839C6   		cmpq	%rax, %rsi
 3399 24b1 7607     		jbe	.L451
 3400 24b3 0FB64318 		movzbl	24(%rbx), %eax
 3401 24b7 884206   		movb	%al, 6(%rdx)
 3402              	.L451:
 3403 24ba 488B3B   		movq	(%rbx), %rdi
 3404              	.L502:
 3405 24bd 4C8B4308 		movq	8(%rbx), %r8
 3406 24c1 E969FDFF 		jmp	.L440
 3406      FF
 3407 24c6 662E0F1F 		.p2align 4,,10
 3407      84000000 
 3407      0000
 3408              		.p2align 3
 3409              	.L439:
 3410 24d0 4D39C6   		cmpq	%r8, %r14
 3411 24d3 7773     		ja	.L506
 3412 24d5 488D0437 		leaq	(%rdi,%rsi), %rax
 3413              	.L460:
 3414              	.L443:
 3415 24d9 448828   		movb	%r13b, (%rax)
 3416 24dc 4489EA   		movl	%r13d, %edx
 3417 24df 488B03   		movq	(%rbx), %rax
 3418 24e2 0FB6CE   		movzbl	%dh, %ecx
 3419 24e5 C1EA10   		shrl	$16, %edx
 3420 24e8 42884C20 		movb	%cl, 1(%rax,%r12)
 3420      01
 3421 24ed 488B03   		movq	(%rbx), %rax
 3422 24f0 42885420 		movb	%dl, 2(%rax,%r12)
 3422      02
 3423 24f5 4489E8   		movl	%r13d, %eax
 3424 24f8 488B13   		movq	(%rbx), %rdx
 3425 24fb C1E818   		shrl	$24, %eax
 3426 24fe 42884422 		movb	%al, 3(%rdx,%r12)
 3426      03
 3427 2503 4883C408 		addq	$8, %rsp
 3428              		.cfi_remember_state
 3429              		.cfi_def_cfa_offset 56
 3430 2507 31C0     		xorl	%eax, %eax
 3431 2509 5B       		popq	%rbx
 3432              		.cfi_def_cfa_offset 48
 3433 250a 5D       		popq	%rbp
 3434              		.cfi_def_cfa_offset 40
 3435 250b 415C     		popq	%r12
 3436              		.cfi_def_cfa_offset 32
 3437 250d 415D     		popq	%r13
 3438              		.cfi_def_cfa_offset 24
 3439 250f 415E     		popq	%r14
 3440              		.cfi_def_cfa_offset 16
 3441 2511 415F     		popq	%r15
 3442              		.cfi_def_cfa_offset 8
 3443 2513 C3       		ret
 3444              		.p2align 4,,10
 3445 2514 0F1F4000 		.p2align 3
 3446              	.L483:
 3447              		.cfi_restore_state
 3448 2518 0FB64B18 		movzbl	24(%rbx), %ecx
 3449 251c 4883C201 		addq	$1, %rdx
 3450 2520 884AFF   		movb	%cl, -1(%rdx)
 3451 2523 4839D0   		cmpq	%rdx, %rax
 3452 2526 0F842FFE 		je	.L459
 3452      FFFF
 3453 252c 0FB64B18 		movzbl	24(%rbx), %ecx
 3454 2530 4883C201 		addq	$1, %rdx
 3455 2534 884AFF   		movb	%cl, -1(%rdx)
 3456 2537 4839D0   		cmpq	%rdx, %rax
 3457 253a 75DC     		jne	.L483
 3458 253c E91AFEFF 		jmp	.L459
 3458      FF
 3459              		.p2align 4,,10
 3460 2541 0F1F8000 		.p2align 3
 3460      000000
 3461              	.L506:
 3462 2548 488B6B10 		movq	16(%rbx), %rbp
 3463 254c 4939EE   		cmpq	%rbp, %r14
 3464 254f 770F     		ja	.L463
 3465              	.L462:
 3466 2551 4C897308 		movq	%r14, 8(%rbx)
 3467 2555 4A8D0427 		leaq	(%rdi,%r12), %rax
 3468 2559 E97BFFFF 		jmp	.L460
 3468      FF
 3469 255e 6690     		.p2align 4,,10
 3470              		.p2align 3
 3471              	.L463:
 3472 2560 4801ED   		addq	%rbp, %rbp
 3473 2563 4939EE   		cmpq	%rbp, %r14
 3474 2566 77F8     		ja	.L463
 3475 2568 4889EE   		movq	%rbp, %rsi
 3476 256b E8000000 		call	realloc@PLT
 3476      00
 3477 2570 4889C7   		movq	%rax, %rdi
 3478 2573 4885C0   		testq	%rax, %rax
 3479 2576 0F848C01 		je	.L464
 3479      0000
 3480 257c 4A8D0C30 		leaq	(%rax,%r14), %rcx
 3481 2580 488D3428 		leaq	(%rax,%rbp), %rsi
 3482 2584 488903   		movq	%rax, (%rbx)
 3483 2587 48896B10 		movq	%rbp, 16(%rbx)
 3484 258b 4889CA   		movq	%rcx, %rdx
 3485 258e 4839F1   		cmpq	%rsi, %rcx
 3486 2591 73BE     		jnb	.L462
 3487 2593 488D7B18 		leaq	24(%rbx), %rdi
 3488 2597 4C29F5   		subq	%r14, %rbp
 3489 259a 4C8D4B19 		leaq	25(%rbx), %r9
 3490 259e 4889C8   		movq	%rcx, %rax
 3491 25a1 4839FE   		cmpq	%rdi, %rsi
 3492 25a4 4C8D45FF 		leaq	-1(%rbp), %r8
 3493 25a8 400F96C7 		setbe	%dil
 3494 25ac 4C39C9   		cmpq	%r9, %rcx
 3495 25af 410F93C1 		setnb	%r9b
 3496 25b3 4408CF   		orb	%r9b, %dil
 3497 25b6 0F842401 		je	.L485
 3497      0000
 3498 25bc 4983F806 		cmpq	$6, %r8
 3499 25c0 0F861A01 		jbe	.L485
 3499      0000
 3500 25c6 4983F80E 		cmpq	$14, %r8
 3501 25ca 0F868701 		jbe	.L474
 3501      0000
 3502 25d0 0FB65318 		movzbl	24(%rbx), %edx
 3503 25d4 660F6EC2 		movd	%edx, %xmm0
 3504 25d8 4889EA   		movq	%rbp, %rdx
 3505 25db 660F60C0 		punpcklbw	%xmm0, %xmm0
 3506 25df 4883E2F0 		andq	$-16, %rdx
 3507 25e3 660F61C0 		punpcklwd	%xmm0, %xmm0
 3508 25e7 4801CA   		addq	%rcx, %rdx
 3509 25ea 660F70C0 		pshufd	$0, %xmm0, %xmm0
 3509      00
 3510 25ef 90       		.p2align 4,,10
 3511              		.p2align 3
 3512              	.L467:
 3513 25f0 0F1100   		movups	%xmm0, (%rax)
 3514 25f3 4883C010 		addq	$16, %rax
 3515 25f7 4839D0   		cmpq	%rdx, %rax
 3516 25fa 75F4     		jne	.L467
 3517 25fc 4889EF   		movq	%rbp, %rdi
 3518 25ff 4883E7F0 		andq	$-16, %rdi
 3519 2603 488D1439 		leaq	(%rcx,%rdi), %rdx
 3520 2607 4839FD   		cmpq	%rdi, %rbp
 3521 260a 0F849200 		je	.L471
 3521      0000
 3522 2610 4829FD   		subq	%rdi, %rbp
 3523 2613 488D45FF 		leaq	-1(%rbp), %rax
 3524 2617 4883F806 		cmpq	$6, %rax
 3525 261b 762B     		jbe	.L469
 3526              	.L466:
 3527 261d 440FB643 		movzbl	24(%rbx), %r8d
 3527      18
 3528 2622 4489C0   		movl	%r8d, %eax
 3529 2625 C1E008   		sall	$8, %eax
 3530 2628 4409C0   		orl	%r8d, %eax
 3531 262b 660F6ED8 		movd	%eax, %xmm3
 3532 262f 4889E8   		movq	%rbp, %rax
 3533 2632 F20F70C3 		pshuflw	$0, %xmm3, %xmm0
 3533      00
 3534 2637 4883E0F8 		andq	$-8, %rax
 3535 263b 660FD604 		movq	%xmm0, (%rcx,%rdi)
 3535      39
 3536 2640 4801C2   		addq	%rax, %rdx
 3537 2643 4839E8   		cmpq	%rbp, %rax
 3538 2646 745A     		je	.L471
 3539              	.L469:
 3540 2648 0FB64318 		movzbl	24(%rbx), %eax
 3541 264c 488D4A01 		leaq	1(%rdx), %rcx
 3542 2650 8802     		movb	%al, (%rdx)
 3543 2652 4839CE   		cmpq	%rcx, %rsi
 3544 2655 764B     		jbe	.L471
 3545 2657 884201   		movb	%al, 1(%rdx)
 3546 265a 488D4202 		leaq	2(%rdx), %rax
 3547 265e 4839C6   		cmpq	%rax, %rsi
 3548 2661 763F     		jbe	.L471
 3549 2663 0FB64318 		movzbl	24(%rbx), %eax
 3550 2667 488D4A03 		leaq	3(%rdx), %rcx
 3551 266b 884202   		movb	%al, 2(%rdx)
 3552 266e 4839CE   		cmpq	%rcx, %rsi
 3553 2671 762F     		jbe	.L471
 3554 2673 884203   		movb	%al, 3(%rdx)
 3555 2676 488D4204 		leaq	4(%rdx), %rax
 3556 267a 4839C6   		cmpq	%rax, %rsi
 3557 267d 7623     		jbe	.L471
 3558 267f 0FB64318 		movzbl	24(%rbx), %eax
 3559 2683 488D4A05 		leaq	5(%rdx), %rcx
 3560 2687 884204   		movb	%al, 4(%rdx)
 3561 268a 4839CE   		cmpq	%rcx, %rsi
 3562 268d 7613     		jbe	.L471
 3563 268f 884205   		movb	%al, 5(%rdx)
 3564 2692 488D4206 		leaq	6(%rdx), %rax
 3565 2696 4839C6   		cmpq	%rax, %rsi
 3566 2699 7607     		jbe	.L471
 3567 269b 0FB64318 		movzbl	24(%rbx), %eax
 3568 269f 884206   		movb	%al, 6(%rdx)
 3569              	.L471:
 3570 26a2 488B3B   		movq	(%rbx), %rdi
 3571 26a5 E9A7FEFF 		jmp	.L462
 3571      FF
 3572 26aa 660F1F44 		.p2align 4,,10
 3572      0000
 3573              		.p2align 3
 3574              	.L484:
 3575 26b0 0FB64318 		movzbl	24(%rbx), %eax
 3576 26b4 4883C201 		addq	$1, %rdx
 3577 26b8 8842FF   		movb	%al, -1(%rdx)
 3578 26bb 4839D6   		cmpq	%rdx, %rsi
 3579 26be 0F84F6FD 		je	.L451
 3579      FFFF
 3580 26c4 0FB64318 		movzbl	24(%rbx), %eax
 3581 26c8 4883C201 		addq	$1, %rdx
 3582 26cc 8842FF   		movb	%al, -1(%rdx)
 3583 26cf 4839D6   		cmpq	%rdx, %rsi
 3584 26d2 75DC     		jne	.L484
 3585 26d4 E9E1FDFF 		jmp	.L451
 3585      FF
 3586 26d9 0F1F8000 		.p2align 4,,10
 3586      000000
 3587              		.p2align 3
 3588              	.L485:
 3589 26e0 0FB64318 		movzbl	24(%rbx), %eax
 3590 26e4 4883C201 		addq	$1, %rdx
 3591 26e8 8842FF   		movb	%al, -1(%rdx)
 3592 26eb 4839D6   		cmpq	%rdx, %rsi
 3593 26ee 74B2     		je	.L471
 3594 26f0 0FB64318 		movzbl	24(%rbx), %eax
 3595 26f4 4883C201 		addq	$1, %rdx
 3596 26f8 8842FF   		movb	%al, -1(%rdx)
 3597 26fb 4839D6   		cmpq	%rdx, %rsi
 3598 26fe 75E0     		jne	.L485
 3599 2700 EBA0     		jmp	.L471
 3600              		.p2align 4,,10
 3601 2702 660F1F44 		.p2align 3
 3601      0000
 3602              	.L464:
 3603 2708 4C89FF   		movq	%r15, %rdi
 3604 270b 488D3500 		leaq	.LC2(%rip), %rsi
 3604      000000
 3605 2712 E8000000 		call	errPrefix@PLT
 3605      00
 3606 2717 4C89FF   		movq	%r15, %rdi
 3607 271a 488D3500 		leaq	.LC10(%rip), %rsi
 3607      000000
 3608 2721 E8000000 		call	errPrefix@PLT
 3608      00
 3609 2726 4C89FF   		movq	%r15, %rdi
 3610 2729 488D3500 		leaq	.LC14(%rip), %rsi
 3610      000000
 3611 2730 E8000000 		call	errPrefix@PLT
 3611      00
 3612 2735 4883C408 		addq	$8, %rsp
 3613              		.cfi_remember_state
 3614              		.cfi_def_cfa_offset 56
 3615 2739 B8010000 		movl	$1, %eax
 3615      00
 3616 273e 5B       		popq	%rbx
 3617              		.cfi_def_cfa_offset 48
 3618 273f 5D       		popq	%rbp
 3619              		.cfi_def_cfa_offset 40
 3620 2740 415C     		popq	%r12
 3621              		.cfi_def_cfa_offset 32
 3622 2742 415D     		popq	%r13
 3623              		.cfi_def_cfa_offset 24
 3624 2744 415E     		popq	%r14
 3625              		.cfi_def_cfa_offset 16
 3626 2746 415F     		popq	%r15
 3627              		.cfi_def_cfa_offset 8
 3628 2748 C3       		ret
 3629              	.L473:
 3630              		.cfi_restore_state
 3631 2749 31FF     		xorl	%edi, %edi
 3632 274b E985FBFF 		jmp	.L454
 3632      FF
 3633              	.L472:
 3634 2750 31FF     		xorl	%edi, %edi
 3635 2752 E9DEFCFF 		jmp	.L446
 3635      FF
 3636              	.L474:
 3637 2757 31FF     		xorl	%edi, %edi
 3638 2759 E9BFFEFF 		jmp	.L466
 3638      FF
 3639              		.cfi_endproc
 3640              	.LFE51:
 3642              		.section	.rodata.str1.1
 3643              	.LC15:
 3644 00ce 62756657 		.string	"bufWriteLongBE()"
 3644      72697465 
 3644      4C6F6E67 
 3644      42452829 
 3644      00
 3645              		.text
 3646 275e 6690     		.p2align 4
 3647              		.globl	bufWriteLongBE
 3649              	bufWriteLongBE:
 3650              	.LFB52:
 3651              		.cfi_startproc
 3652 2760 F30F1EFA 		endbr64
 3653 2764 4157     		pushq	%r15
 3654              		.cfi_def_cfa_offset 16
 3655              		.cfi_offset 15, -16
 3656 2766 4989CF   		movq	%rcx, %r15
 3657 2769 4156     		pushq	%r14
 3658              		.cfi_def_cfa_offset 24
 3659              		.cfi_offset 14, -24
 3660 276b 4C8D7604 		leaq	4(%rsi), %r14
 3661 276f 4155     		pushq	%r13
 3662              		.cfi_def_cfa_offset 32
 3663              		.cfi_offset 13, -32
 3664 2771 4189D5   		movl	%edx, %r13d
 3665 2774 4154     		pushq	%r12
 3666              		.cfi_def_cfa_offset 40
 3667              		.cfi_offset 12, -40
 3668 2776 4989F4   		movq	%rsi, %r12
 3669 2779 55       		pushq	%rbp
 3670              		.cfi_def_cfa_offset 48
 3671              		.cfi_offset 6, -48
 3672 277a 53       		pushq	%rbx
 3673              		.cfi_def_cfa_offset 56
 3674              		.cfi_offset 3, -56
 3675 277b 4889FB   		movq	%rdi, %rbx
 3676 277e 4883EC08 		subq	$8, %rsp
 3677              		.cfi_def_cfa_offset 64
 3678 2782 4C8B4708 		movq	8(%rdi), %r8
 3679 2786 488B3F   		movq	(%rdi), %rdi
 3680 2789 4C39C6   		cmpq	%r8, %rsi
 3681 278c 0F82AE02 		jb	.L508
 3681      0000
 3682 2792 488B6B10 		movq	16(%rbx), %rbp
 3683 2796 4939EE   		cmpq	%rbp, %r14
 3684 2799 0F874101 		ja	.L510
 3684      0000
 3685              	.L509:
 3686 279f 4E8D0C07 		leaq	(%rdi,%r8), %r9
 3687 27a3 4A8D0427 		leaq	(%rdi,%r12), %rax
 3688 27a7 4C89CA   		movq	%r9, %rdx
 3689 27aa 4939C1   		cmpq	%rax, %r9
 3690 27ad 0F831E01 		jnb	.L521
 3690      0000
 3691 27b3 488D7B18 		leaq	24(%rbx), %rdi
 3692 27b7 4C89E6   		movq	%r12, %rsi
 3693 27ba 4C8D5319 		leaq	25(%rbx), %r10
 3694 27be 4C89C9   		movq	%r9, %rcx
 3695 27c1 4C29C6   		subq	%r8, %rsi
 3696 27c4 4839F8   		cmpq	%rdi, %rax
 3697 27c7 400F96C7 		setbe	%dil
 3698 27cb 4D39D1   		cmpq	%r10, %r9
 3699 27ce 4C8D46FF 		leaq	-1(%rsi), %r8
 3700 27d2 410F93C2 		setnb	%r10b
 3701 27d6 4408D7   		orb	%r10b, %dil
 3702 27d9 0F84B102 		je	.L552
 3702      0000
 3703 27df 4983F806 		cmpq	$6, %r8
 3704 27e3 0F86A702 		jbe	.L552
 3704      0000
 3705 27e9 4983F80E 		cmpq	$14, %r8
 3706 27ed 0F86D604 		jbe	.L542
 3706      0000
 3707 27f3 0FB65318 		movzbl	24(%rbx), %edx
 3708 27f7 660F6EC2 		movd	%edx, %xmm0
 3709 27fb 4889F2   		movq	%rsi, %rdx
 3710 27fe 660F60C0 		punpcklbw	%xmm0, %xmm0
 3711 2802 4883E2F0 		andq	$-16, %rdx
 3712 2806 660F61C0 		punpcklwd	%xmm0, %xmm0
 3713 280a 4C01CA   		addq	%r9, %rdx
 3714 280d 660F70C0 		pshufd	$0, %xmm0, %xmm0
 3714      00
 3715              		.p2align 4,,10
 3716 2812 660F1F44 		.p2align 3
 3716      0000
 3717              	.L524:
 3718 2818 0F1101   		movups	%xmm0, (%rcx)
 3719 281b 4883C110 		addq	$16, %rcx
 3720 281f 4839D1   		cmpq	%rdx, %rcx
 3721 2822 75F4     		jne	.L524
 3722 2824 4889F7   		movq	%rsi, %rdi
 3723 2827 4883E7F0 		andq	$-16, %rdi
 3724 282b 498D1439 		leaq	(%r9,%rdi), %rdx
 3725 282f 4839FE   		cmpq	%rdi, %rsi
 3726 2832 0F849300 		je	.L528
 3726      0000
 3727 2838 4829FE   		subq	%rdi, %rsi
 3728 283b 488D4EFF 		leaq	-1(%rsi), %rcx
 3729 283f 4883F906 		cmpq	$6, %rcx
 3730 2843 762C     		jbe	.L526
 3731              	.L523:
 3732 2845 440FB643 		movzbl	24(%rbx), %r8d
 3732      18
 3733 284a 4489C1   		movl	%r8d, %ecx
 3734 284d C1E108   		sall	$8, %ecx
 3735 2850 4409C1   		orl	%r8d, %ecx
 3736 2853 660F6EC9 		movd	%ecx, %xmm1
 3737 2857 4889F1   		movq	%rsi, %rcx
 3738 285a F20F70C1 		pshuflw	$0, %xmm1, %xmm0
 3738      00
 3739 285f 4883E1F8 		andq	$-8, %rcx
 3740 2863 66410FD6 		movq	%xmm0, (%r9,%rdi)
 3740      0439
 3741 2869 4801CA   		addq	%rcx, %rdx
 3742 286c 4839F1   		cmpq	%rsi, %rcx
 3743 286f 745A     		je	.L528
 3744              	.L526:
 3745 2871 0FB64B18 		movzbl	24(%rbx), %ecx
 3746 2875 488D7201 		leaq	1(%rdx), %rsi
 3747 2879 880A     		movb	%cl, (%rdx)
 3748 287b 4839F0   		cmpq	%rsi, %rax
 3749 287e 764B     		jbe	.L528
 3750 2880 884A01   		movb	%cl, 1(%rdx)
 3751 2883 488D4A02 		leaq	2(%rdx), %rcx
 3752 2887 4839C8   		cmpq	%rcx, %rax
 3753 288a 763F     		jbe	.L528
 3754 288c 0FB64B18 		movzbl	24(%rbx), %ecx
 3755 2890 488D7203 		leaq	3(%rdx), %rsi
 3756 2894 884A02   		movb	%cl, 2(%rdx)
 3757 2897 4839F0   		cmpq	%rsi, %rax
 3758 289a 762F     		jbe	.L528
 3759 289c 884A03   		movb	%cl, 3(%rdx)
 3760 289f 488D4A04 		leaq	4(%rdx), %rcx
 3761 28a3 4839C8   		cmpq	%rcx, %rax
 3762 28a6 7623     		jbe	.L528
 3763 28a8 0FB64B18 		movzbl	24(%rbx), %ecx
 3764 28ac 488D7205 		leaq	5(%rdx), %rsi
 3765 28b0 884A04   		movb	%cl, 4(%rdx)
 3766 28b3 4839F0   		cmpq	%rsi, %rax
 3767 28b6 7613     		jbe	.L528
 3768 28b8 884A05   		movb	%cl, 5(%rdx)
 3769 28bb 488D4A06 		leaq	6(%rdx), %rcx
 3770 28bf 4839C8   		cmpq	%rcx, %rax
 3771 28c2 7607     		jbe	.L528
 3772 28c4 0FB64318 		movzbl	24(%rbx), %eax
 3773 28c8 884206   		movb	%al, 6(%rdx)
 3774              	.L528:
 3775 28cb 488B03   		movq	(%rbx), %rax
 3776 28ce 4C01E0   		addq	%r12, %rax
 3777              	.L521:
 3778 28d1 4C897308 		movq	%r14, 8(%rbx)
 3779 28d5 E96F0100 		jmp	.L529
 3779      00
 3780 28da 660F1F44 		.p2align 4,,10
 3780      0000
 3781              		.p2align 3
 3782              	.L510:
 3783 28e0 4801ED   		addq	%rbp, %rbp
 3784 28e3 4939EE   		cmpq	%rbp, %r14
 3785 28e6 77F8     		ja	.L510
 3786 28e8 4889EE   		movq	%rbp, %rsi
 3787 28eb E8000000 		call	realloc@PLT
 3787      00
 3788 28f0 4889C7   		movq	%rax, %rdi
 3789 28f3 4885C0   		testq	%rax, %rax
 3790 28f6 0F848C03 		je	.L533
 3790      0000
 3791 28fc 4A8D0C30 		leaq	(%rax,%r14), %rcx
 3792 2900 488D3428 		leaq	(%rax,%rbp), %rsi
 3793 2904 488903   		movq	%rax, (%rbx)
 3794 2907 48896B10 		movq	%rbp, 16(%rbx)
 3795 290b 4889CA   		movq	%rcx, %rdx
 3796 290e 4839F1   		cmpq	%rsi, %rcx
 3797 2911 0F831601 		jnb	.L571
 3797      0000
 3798 2917 488D7B18 		leaq	24(%rbx), %rdi
 3799 291b 4C29F5   		subq	%r14, %rbp
 3800 291e 4C8D4B19 		leaq	25(%rbx), %r9
 3801 2922 4889C8   		movq	%rcx, %rax
 3802 2925 4839FE   		cmpq	%rdi, %rsi
 3803 2928 4C8D45FF 		leaq	-1(%rbp), %r8
 3804 292c 400F96C7 		setbe	%dil
 3805 2930 4C39C9   		cmpq	%r9, %rcx
 3806 2933 410F93C1 		setnb	%r9b
 3807 2937 4408CF   		orb	%r9b, %dil
 3808 293a 0F84F002 		je	.L553
 3808      0000
 3809 2940 4983F806 		cmpq	$6, %r8
 3810 2944 0F86E602 		jbe	.L553
 3810      0000
 3811 294a 4983F80E 		cmpq	$14, %r8
 3812 294e 0F867C03 		jbe	.L541
 3812      0000
 3813 2954 0FB65318 		movzbl	24(%rbx), %edx
 3814 2958 660F6EC2 		movd	%edx, %xmm0
 3815 295c 4889EA   		movq	%rbp, %rdx
 3816 295f 660F60C0 		punpcklbw	%xmm0, %xmm0
 3817 2963 4883E2F0 		andq	$-16, %rdx
 3818 2967 660F61C0 		punpcklwd	%xmm0, %xmm0
 3819 296b 4801CA   		addq	%rcx, %rdx
 3820 296e 660F70C0 		pshufd	$0, %xmm0, %xmm0
 3820      00
 3821              		.p2align 4,,10
 3822 2973 0F1F4400 		.p2align 3
 3822      00
 3823              	.L516:
 3824 2978 0F1100   		movups	%xmm0, (%rax)
 3825 297b 4883C010 		addq	$16, %rax
 3826 297f 4839D0   		cmpq	%rdx, %rax
 3827 2982 75F4     		jne	.L516
 3828 2984 4889EF   		movq	%rbp, %rdi
 3829 2987 4883E7F0 		andq	$-16, %rdi
 3830 298b 488D1439 		leaq	(%rcx,%rdi), %rdx
 3831 298f 4839FD   		cmpq	%rdi, %rbp
 3832 2992 0F849200 		je	.L520
 3832      0000
 3833 2998 4829FD   		subq	%rdi, %rbp
 3834 299b 488D45FF 		leaq	-1(%rbp), %rax
 3835 299f 4883F806 		cmpq	$6, %rax
 3836 29a3 762B     		jbe	.L518
 3837              	.L515:
 3838 29a5 440FB643 		movzbl	24(%rbx), %r8d
 3838      18
 3839 29aa 4489C0   		movl	%r8d, %eax
 3840 29ad C1E008   		sall	$8, %eax
 3841 29b0 4409C0   		orl	%r8d, %eax
 3842 29b3 660F6ED0 		movd	%eax, %xmm2
 3843 29b7 4889E8   		movq	%rbp, %rax
 3844 29ba F20F70C2 		pshuflw	$0, %xmm2, %xmm0
 3844      00
 3845 29bf 4883E0F8 		andq	$-8, %rax
 3846 29c3 660FD604 		movq	%xmm0, (%rcx,%rdi)
 3846      39
 3847 29c8 4801C2   		addq	%rax, %rdx
 3848 29cb 4839E8   		cmpq	%rbp, %rax
 3849 29ce 745A     		je	.L520
 3850              	.L518:
 3851 29d0 0FB64318 		movzbl	24(%rbx), %eax
 3852 29d4 488D4A01 		leaq	1(%rdx), %rcx
 3853 29d8 8802     		movb	%al, (%rdx)
 3854 29da 4839CE   		cmpq	%rcx, %rsi
 3855 29dd 764B     		jbe	.L520
 3856 29df 884201   		movb	%al, 1(%rdx)
 3857 29e2 488D4202 		leaq	2(%rdx), %rax
 3858 29e6 4839C6   		cmpq	%rax, %rsi
 3859 29e9 763F     		jbe	.L520
 3860 29eb 0FB64318 		movzbl	24(%rbx), %eax
 3861 29ef 488D4A03 		leaq	3(%rdx), %rcx
 3862 29f3 884202   		movb	%al, 2(%rdx)
 3863 29f6 4839CE   		cmpq	%rcx, %rsi
 3864 29f9 762F     		jbe	.L520
 3865 29fb 884203   		movb	%al, 3(%rdx)
 3866 29fe 488D4204 		leaq	4(%rdx), %rax
 3867 2a02 4839C6   		cmpq	%rax, %rsi
 3868 2a05 7623     		jbe	.L520
 3869 2a07 0FB64318 		movzbl	24(%rbx), %eax
 3870 2a0b 488D4A05 		leaq	5(%rdx), %rcx
 3871 2a0f 884204   		movb	%al, 4(%rdx)
 3872 2a12 4839CE   		cmpq	%rcx, %rsi
 3873 2a15 7613     		jbe	.L520
 3874 2a17 884205   		movb	%al, 5(%rdx)
 3875 2a1a 488D4206 		leaq	6(%rdx), %rax
 3876 2a1e 4839C6   		cmpq	%rax, %rsi
 3877 2a21 7607     		jbe	.L520
 3878 2a23 0FB64318 		movzbl	24(%rbx), %eax
 3879 2a27 884206   		movb	%al, 6(%rdx)
 3880              	.L520:
 3881 2a2a 488B3B   		movq	(%rbx), %rdi
 3882              	.L571:
 3883 2a2d 4C8B4308 		movq	8(%rbx), %r8
 3884 2a31 E969FDFF 		jmp	.L509
 3884      FF
 3885 2a36 662E0F1F 		.p2align 4,,10
 3885      84000000 
 3885      0000
 3886              		.p2align 3
 3887              	.L508:
 3888 2a40 4D39C6   		cmpq	%r8, %r14
 3889 2a43 777B     		ja	.L575
 3890 2a45 488D0437 		leaq	(%rdi,%rsi), %rax
 3891              	.L529:
 3892              	.L512:
 3893 2a49 4489EA   		movl	%r13d, %edx
 3894 2a4c C1EA18   		shrl	$24, %edx
 3895 2a4f 8810     		movb	%dl, (%rax)
 3896 2a51 4489EA   		movl	%r13d, %edx
 3897 2a54 488B03   		movq	(%rbx), %rax
 3898 2a57 C1EA10   		shrl	$16, %edx
 3899 2a5a 42885420 		movb	%dl, 1(%rax,%r12)
 3899      01
 3900 2a5f 4489EA   		movl	%r13d, %edx
 3901 2a62 488B03   		movq	(%rbx), %rax
 3902 2a65 0FB6CE   		movzbl	%dh, %ecx
 3903 2a68 42884C20 		movb	%cl, 2(%rax,%r12)
 3903      02
 3904 2a6d 488B03   		movq	(%rbx), %rax
 3905 2a70 46886C20 		movb	%r13b, 3(%rax,%r12)
 3905      03
 3906 2a75 4883C408 		addq	$8, %rsp
 3907              		.cfi_remember_state
 3908              		.cfi_def_cfa_offset 56
 3909 2a79 31C0     		xorl	%eax, %eax
 3910 2a7b 5B       		popq	%rbx
 3911              		.cfi_def_cfa_offset 48
 3912 2a7c 5D       		popq	%rbp
 3913              		.cfi_def_cfa_offset 40
 3914 2a7d 415C     		popq	%r12
 3915              		.cfi_def_cfa_offset 32
 3916 2a7f 415D     		popq	%r13
 3917              		.cfi_def_cfa_offset 24
 3918 2a81 415E     		popq	%r14
 3919              		.cfi_def_cfa_offset 16
 3920 2a83 415F     		popq	%r15
 3921              		.cfi_def_cfa_offset 8
 3922 2a85 C3       		ret
 3923 2a86 662E0F1F 		.p2align 4,,10
 3923      84000000 
 3923      0000
 3924              		.p2align 3
 3925              	.L552:
 3926              		.cfi_restore_state
 3927 2a90 0FB64B18 		movzbl	24(%rbx), %ecx
 3928 2a94 4883C201 		addq	$1, %rdx
 3929 2a98 884AFF   		movb	%cl, -1(%rdx)
 3930 2a9b 4839D0   		cmpq	%rdx, %rax
 3931 2a9e 0F8427FE 		je	.L528
 3931      FFFF
 3932 2aa4 0FB64B18 		movzbl	24(%rbx), %ecx
 3933 2aa8 4883C201 		addq	$1, %rdx
 3934 2aac 884AFF   		movb	%cl, -1(%rdx)
 3935 2aaf 4839D0   		cmpq	%rdx, %rax
 3936 2ab2 75DC     		jne	.L552
 3937 2ab4 E912FEFF 		jmp	.L528
 3937      FF
 3938 2ab9 0F1F8000 		.p2align 4,,10
 3938      000000
 3939              		.p2align 3
 3940              	.L575:
 3941 2ac0 488B6B10 		movq	16(%rbx), %rbp
 3942 2ac4 4939EE   		cmpq	%rbp, %r14
 3943 2ac7 7717     		ja	.L532
 3944              	.L531:
 3945 2ac9 4C897308 		movq	%r14, 8(%rbx)
 3946 2acd 4A8D0427 		leaq	(%rdi,%r12), %rax
 3947 2ad1 E973FFFF 		jmp	.L529
 3947      FF
 3948 2ad6 662E0F1F 		.p2align 4,,10
 3948      84000000 
 3948      0000
 3949              		.p2align 3
 3950              	.L532:
 3951 2ae0 4801ED   		addq	%rbp, %rbp
 3952 2ae3 4939EE   		cmpq	%rbp, %r14
 3953 2ae6 77F8     		ja	.L532
 3954 2ae8 4889EE   		movq	%rbp, %rsi
 3955 2aeb E8000000 		call	realloc@PLT
 3955      00
 3956 2af0 4889C7   		movq	%rax, %rdi
 3957 2af3 4885C0   		testq	%rax, %rax
 3958 2af6 0F848C01 		je	.L533
 3958      0000
 3959 2afc 4A8D0C30 		leaq	(%rax,%r14), %rcx
 3960 2b00 488D3428 		leaq	(%rax,%rbp), %rsi
 3961 2b04 488903   		movq	%rax, (%rbx)
 3962 2b07 48896B10 		movq	%rbp, 16(%rbx)
 3963 2b0b 4889CA   		movq	%rcx, %rdx
 3964 2b0e 4839F1   		cmpq	%rsi, %rcx
 3965 2b11 73B6     		jnb	.L531
 3966 2b13 488D7B18 		leaq	24(%rbx), %rdi
 3967 2b17 4C29F5   		subq	%r14, %rbp
 3968 2b1a 4C8D4B19 		leaq	25(%rbx), %r9
 3969 2b1e 4889C8   		movq	%rcx, %rax
 3970 2b21 4839FE   		cmpq	%rdi, %rsi
 3971 2b24 4C8D45FF 		leaq	-1(%rbp), %r8
 3972 2b28 400F96C7 		setbe	%dil
 3973 2b2c 4C39C9   		cmpq	%r9, %rcx
 3974 2b2f 410F93C1 		setnb	%r9b
 3975 2b33 4408CF   		orb	%r9b, %dil
 3976 2b36 0F842401 		je	.L554
 3976      0000
 3977 2b3c 4983F806 		cmpq	$6, %r8
 3978 2b40 0F861A01 		jbe	.L554
 3978      0000
 3979 2b46 4983F80E 		cmpq	$14, %r8
 3980 2b4a 0F868701 		jbe	.L543
 3980      0000
 3981 2b50 0FB65318 		movzbl	24(%rbx), %edx
 3982 2b54 660F6EC2 		movd	%edx, %xmm0
 3983 2b58 4889EA   		movq	%rbp, %rdx
 3984 2b5b 660F60C0 		punpcklbw	%xmm0, %xmm0
 3985 2b5f 4883E2F0 		andq	$-16, %rdx
 3986 2b63 660F61C0 		punpcklwd	%xmm0, %xmm0
 3987 2b67 4801CA   		addq	%rcx, %rdx
 3988 2b6a 660F70C0 		pshufd	$0, %xmm0, %xmm0
 3988      00
 3989 2b6f 90       		.p2align 4,,10
 3990              		.p2align 3
 3991              	.L536:
 3992 2b70 0F1100   		movups	%xmm0, (%rax)
 3993 2b73 4883C010 		addq	$16, %rax
 3994 2b77 4839D0   		cmpq	%rdx, %rax
 3995 2b7a 75F4     		jne	.L536
 3996 2b7c 4889EF   		movq	%rbp, %rdi
 3997 2b7f 4883E7F0 		andq	$-16, %rdi
 3998 2b83 488D1439 		leaq	(%rcx,%rdi), %rdx
 3999 2b87 4839FD   		cmpq	%rdi, %rbp
 4000 2b8a 0F849200 		je	.L540
 4000      0000
 4001 2b90 4829FD   		subq	%rdi, %rbp
 4002 2b93 488D45FF 		leaq	-1(%rbp), %rax
 4003 2b97 4883F806 		cmpq	$6, %rax
 4004 2b9b 762B     		jbe	.L538
 4005              	.L535:
 4006 2b9d 440FB643 		movzbl	24(%rbx), %r8d
 4006      18
 4007 2ba2 4489C0   		movl	%r8d, %eax
 4008 2ba5 C1E008   		sall	$8, %eax
 4009 2ba8 4409C0   		orl	%r8d, %eax
 4010 2bab 660F6ED8 		movd	%eax, %xmm3
 4011 2baf 4889E8   		movq	%rbp, %rax
 4012 2bb2 F20F70C3 		pshuflw	$0, %xmm3, %xmm0
 4012      00
 4013 2bb7 4883E0F8 		andq	$-8, %rax
 4014 2bbb 660FD604 		movq	%xmm0, (%rcx,%rdi)
 4014      39
 4015 2bc0 4801C2   		addq	%rax, %rdx
 4016 2bc3 4839E8   		cmpq	%rbp, %rax
 4017 2bc6 745A     		je	.L540
 4018              	.L538:
 4019 2bc8 0FB64318 		movzbl	24(%rbx), %eax
 4020 2bcc 488D4A01 		leaq	1(%rdx), %rcx
 4021 2bd0 8802     		movb	%al, (%rdx)
 4022 2bd2 4839CE   		cmpq	%rcx, %rsi
 4023 2bd5 764B     		jbe	.L540
 4024 2bd7 884201   		movb	%al, 1(%rdx)
 4025 2bda 488D4202 		leaq	2(%rdx), %rax
 4026 2bde 4839C6   		cmpq	%rax, %rsi
 4027 2be1 763F     		jbe	.L540
 4028 2be3 0FB64318 		movzbl	24(%rbx), %eax
 4029 2be7 488D4A03 		leaq	3(%rdx), %rcx
 4030 2beb 884202   		movb	%al, 2(%rdx)
 4031 2bee 4839CE   		cmpq	%rcx, %rsi
 4032 2bf1 762F     		jbe	.L540
 4033 2bf3 884203   		movb	%al, 3(%rdx)
 4034 2bf6 488D4204 		leaq	4(%rdx), %rax
 4035 2bfa 4839C6   		cmpq	%rax, %rsi
 4036 2bfd 7623     		jbe	.L540
 4037 2bff 0FB64318 		movzbl	24(%rbx), %eax
 4038 2c03 488D4A05 		leaq	5(%rdx), %rcx
 4039 2c07 884204   		movb	%al, 4(%rdx)
 4040 2c0a 4839CE   		cmpq	%rcx, %rsi
 4041 2c0d 7613     		jbe	.L540
 4042 2c0f 884205   		movb	%al, 5(%rdx)
 4043 2c12 488D4206 		leaq	6(%rdx), %rax
 4044 2c16 4839C6   		cmpq	%rax, %rsi
 4045 2c19 7607     		jbe	.L540
 4046 2c1b 0FB64318 		movzbl	24(%rbx), %eax
 4047 2c1f 884206   		movb	%al, 6(%rdx)
 4048              	.L540:
 4049 2c22 488B3B   		movq	(%rbx), %rdi
 4050 2c25 E99FFEFF 		jmp	.L531
 4050      FF
 4051 2c2a 660F1F44 		.p2align 4,,10
 4051      0000
 4052              		.p2align 3
 4053              	.L553:
 4054 2c30 0FB64318 		movzbl	24(%rbx), %eax
 4055 2c34 4883C201 		addq	$1, %rdx
 4056 2c38 8842FF   		movb	%al, -1(%rdx)
 4057 2c3b 4839D6   		cmpq	%rdx, %rsi
 4058 2c3e 0F84E6FD 		je	.L520
 4058      FFFF
 4059 2c44 0FB64318 		movzbl	24(%rbx), %eax
 4060 2c48 4883C201 		addq	$1, %rdx
 4061 2c4c 8842FF   		movb	%al, -1(%rdx)
 4062 2c4f 4839D6   		cmpq	%rdx, %rsi
 4063 2c52 75DC     		jne	.L553
 4064 2c54 E9D1FDFF 		jmp	.L520
 4064      FF
 4065 2c59 0F1F8000 		.p2align 4,,10
 4065      000000
 4066              		.p2align 3
 4067              	.L554:
 4068 2c60 0FB64318 		movzbl	24(%rbx), %eax
 4069 2c64 4883C201 		addq	$1, %rdx
 4070 2c68 8842FF   		movb	%al, -1(%rdx)
 4071 2c6b 4839D6   		cmpq	%rdx, %rsi
 4072 2c6e 74B2     		je	.L540
 4073 2c70 0FB64318 		movzbl	24(%rbx), %eax
 4074 2c74 4883C201 		addq	$1, %rdx
 4075 2c78 8842FF   		movb	%al, -1(%rdx)
 4076 2c7b 4839D6   		cmpq	%rdx, %rsi
 4077 2c7e 75E0     		jne	.L554
 4078 2c80 EBA0     		jmp	.L540
 4079              		.p2align 4,,10
 4080 2c82 660F1F44 		.p2align 3
 4080      0000
 4081              	.L533:
 4082 2c88 4C89FF   		movq	%r15, %rdi
 4083 2c8b 488D3500 		leaq	.LC2(%rip), %rsi
 4083      000000
 4084 2c92 E8000000 		call	errPrefix@PLT
 4084      00
 4085 2c97 4C89FF   		movq	%r15, %rdi
 4086 2c9a 488D3500 		leaq	.LC10(%rip), %rsi
 4086      000000
 4087 2ca1 E8000000 		call	errPrefix@PLT
 4087      00
 4088 2ca6 4C89FF   		movq	%r15, %rdi
 4089 2ca9 488D3500 		leaq	.LC15(%rip), %rsi
 4089      000000
 4090 2cb0 E8000000 		call	errPrefix@PLT
 4090      00
 4091 2cb5 4883C408 		addq	$8, %rsp
 4092              		.cfi_remember_state
 4093              		.cfi_def_cfa_offset 56
 4094 2cb9 B8010000 		movl	$1, %eax
 4094      00
 4095 2cbe 5B       		popq	%rbx
 4096              		.cfi_def_cfa_offset 48
 4097 2cbf 5D       		popq	%rbp
 4098              		.cfi_def_cfa_offset 40
 4099 2cc0 415C     		popq	%r12
 4100              		.cfi_def_cfa_offset 32
 4101 2cc2 415D     		popq	%r13
 4102              		.cfi_def_cfa_offset 24
 4103 2cc4 415E     		popq	%r14
 4104              		.cfi_def_cfa_offset 16
 4105 2cc6 415F     		popq	%r15
 4106              		.cfi_def_cfa_offset 8
 4107 2cc8 C3       		ret
 4108              	.L542:
 4109              		.cfi_restore_state
 4110 2cc9 31FF     		xorl	%edi, %edi
 4111 2ccb E975FBFF 		jmp	.L523
 4111      FF
 4112              	.L541:
 4113 2cd0 31FF     		xorl	%edi, %edi
 4114 2cd2 E9CEFCFF 		jmp	.L515
 4114      FF
 4115              	.L543:
 4116 2cd7 31FF     		xorl	%edi, %edi
 4117 2cd9 E9BFFEFF 		jmp	.L535
 4117      FF
 4118              		.cfi_endproc
 4119              	.LFE52:
 4121              		.section	.rodata.str1.1
 4122              	.LC16:
 4123 00df 62756657 		.string	"bufWriteConst()"
 4123      72697465 
 4123      436F6E73 
 4123      74282900 
 4124              		.text
 4125 2cde 6690     		.p2align 4
 4126              		.globl	bufWriteConst
 4128              	bufWriteConst:
 4129              	.LFB53:
 4130              		.cfi_startproc
 4131 2ce0 F30F1EFA 		endbr64
 4132 2ce4 4157     		pushq	%r15
 4133              		.cfi_def_cfa_offset 16
 4134              		.cfi_offset 15, -16
 4135 2ce6 4C8D3C0E 		leaq	(%rsi,%rcx), %r15
 4136 2cea 4156     		pushq	%r14
 4137              		.cfi_def_cfa_offset 24
 4138              		.cfi_offset 14, -24
 4139 2cec 4989CE   		movq	%rcx, %r14
 4140 2cef 4155     		pushq	%r13
 4141              		.cfi_def_cfa_offset 32
 4142              		.cfi_offset 13, -32
 4143 2cf1 4189D5   		movl	%edx, %r13d
 4144 2cf4 4154     		pushq	%r12
 4145              		.cfi_def_cfa_offset 40
 4146              		.cfi_offset 12, -40
 4147 2cf6 4989F4   		movq	%rsi, %r12
 4148 2cf9 55       		pushq	%rbp
 4149              		.cfi_def_cfa_offset 48
 4150              		.cfi_offset 6, -48
 4151 2cfa 53       		pushq	%rbx
 4152              		.cfi_def_cfa_offset 56
 4153              		.cfi_offset 3, -56
 4154 2cfb 4889FB   		movq	%rdi, %rbx
 4155 2cfe 4883EC18 		subq	$24, %rsp
 4156              		.cfi_def_cfa_offset 80
 4157 2d02 488B7708 		movq	8(%rdi), %rsi
 4158 2d06 488B3F   		movq	(%rdi), %rdi
 4159 2d09 4939F4   		cmpq	%rsi, %r12
 4160 2d0c 0F82AE02 		jb	.L577
 4160      0000
 4161 2d12 488B6B10 		movq	16(%rbx), %rbp
 4162 2d16 4939EF   		cmpq	%rbp, %r15
 4163 2d19 0F874101 		ja	.L579
 4163      0000
 4164              	.L578:
 4165 2d1f 4C8D0437 		leaq	(%rdi,%rsi), %r8
 4166 2d23 4C01E7   		addq	%r12, %rdi
 4167 2d26 4C89C0   		movq	%r8, %rax
 4168 2d29 4939F8   		cmpq	%rdi, %r8
 4169 2d2c 0F831F01 		jnb	.L590
 4169      0000
 4170 2d32 4C89E1   		movq	%r12, %rcx
 4171 2d35 4C8D5319 		leaq	25(%rbx), %r10
 4172 2d39 4C89C2   		movq	%r8, %rdx
 4173 2d3c 4829F1   		subq	%rsi, %rcx
 4174 2d3f 488D7318 		leaq	24(%rbx), %rsi
 4175 2d43 4839F7   		cmpq	%rsi, %rdi
 4176 2d46 4C8D49FF 		leaq	-1(%rcx), %r9
 4177 2d4a 400F96C6 		setbe	%sil
 4178 2d4e 4D39D0   		cmpq	%r10, %r8
 4179 2d51 410F93C2 		setnb	%r10b
 4180 2d55 4408D6   		orb	%r10b, %sil
 4181 2d58 0F848A02 		je	.L621
 4181      0000
 4182 2d5e 4983F906 		cmpq	$6, %r9
 4183 2d62 0F868002 		jbe	.L621
 4183      0000
 4184 2d68 4983F90E 		cmpq	$14, %r9
 4185 2d6c 0F86C004 		jbe	.L611
 4185      0000
 4186 2d72 0FB64318 		movzbl	24(%rbx), %eax
 4187 2d76 660F6EC0 		movd	%eax, %xmm0
 4188 2d7a 4889C8   		movq	%rcx, %rax
 4189 2d7d 660F60C0 		punpcklbw	%xmm0, %xmm0
 4190 2d81 4883E0F0 		andq	$-16, %rax
 4191 2d85 660F61C0 		punpcklwd	%xmm0, %xmm0
 4192 2d89 4C01C0   		addq	%r8, %rax
 4193 2d8c 660F70C0 		pshufd	$0, %xmm0, %xmm0
 4193      00
 4194              		.p2align 4,,10
 4195 2d91 0F1F8000 		.p2align 3
 4195      000000
 4196              	.L593:
 4197 2d98 0F1102   		movups	%xmm0, (%rdx)
 4198 2d9b 4883C210 		addq	$16, %rdx
 4199 2d9f 4839C2   		cmpq	%rax, %rdx
 4200 2da2 75F4     		jne	.L593
 4201 2da4 4889CE   		movq	%rcx, %rsi
 4202 2da7 4883E6F0 		andq	$-16, %rsi
 4203 2dab 498D0430 		leaq	(%r8,%rsi), %rax
 4204 2daf 4839F1   		cmpq	%rsi, %rcx
 4205 2db2 0F849300 		je	.L597
 4205      0000
 4206 2db8 4829F1   		subq	%rsi, %rcx
 4207 2dbb 488D51FF 		leaq	-1(%rcx), %rdx
 4208 2dbf 4883FA06 		cmpq	$6, %rdx
 4209 2dc3 762C     		jbe	.L595
 4210              	.L592:
 4211 2dc5 440FB64B 		movzbl	24(%rbx), %r9d
 4211      18
 4212 2dca 4489CA   		movl	%r9d, %edx
 4213 2dcd C1E208   		sall	$8, %edx
 4214 2dd0 4409CA   		orl	%r9d, %edx
 4215 2dd3 660F6ECA 		movd	%edx, %xmm1
 4216 2dd7 4889CA   		movq	%rcx, %rdx
 4217 2dda F20F70C1 		pshuflw	$0, %xmm1, %xmm0
 4217      00
 4218 2ddf 4883E2F8 		andq	$-8, %rdx
 4219 2de3 66410FD6 		movq	%xmm0, (%r8,%rsi)
 4219      0430
 4220 2de9 4801D0   		addq	%rdx, %rax
 4221 2dec 4839CA   		cmpq	%rcx, %rdx
 4222 2def 745A     		je	.L597
 4223              	.L595:
 4224 2df1 0FB65318 		movzbl	24(%rbx), %edx
 4225 2df5 488D4801 		leaq	1(%rax), %rcx
 4226 2df9 8810     		movb	%dl, (%rax)
 4227 2dfb 4839CF   		cmpq	%rcx, %rdi
 4228 2dfe 764B     		jbe	.L597
 4229 2e00 885001   		movb	%dl, 1(%rax)
 4230 2e03 488D5002 		leaq	2(%rax), %rdx
 4231 2e07 4839D7   		cmpq	%rdx, %rdi
 4232 2e0a 763F     		jbe	.L597
 4233 2e0c 0FB65318 		movzbl	24(%rbx), %edx
 4234 2e10 488D4803 		leaq	3(%rax), %rcx
 4235 2e14 885002   		movb	%dl, 2(%rax)
 4236 2e17 4839CF   		cmpq	%rcx, %rdi
 4237 2e1a 762F     		jbe	.L597
 4238 2e1c 885003   		movb	%dl, 3(%rax)
 4239 2e1f 488D5004 		leaq	4(%rax), %rdx
 4240 2e23 4839D7   		cmpq	%rdx, %rdi
 4241 2e26 7623     		jbe	.L597
 4242 2e28 0FB65318 		movzbl	24(%rbx), %edx
 4243 2e2c 488D4805 		leaq	5(%rax), %rcx
 4244 2e30 885004   		movb	%dl, 4(%rax)
 4245 2e33 4839CF   		cmpq	%rcx, %rdi
 4246 2e36 7613     		jbe	.L597
 4247 2e38 885005   		movb	%dl, 5(%rax)
 4248 2e3b 488D5006 		leaq	6(%rax), %rdx
 4249 2e3f 4839D7   		cmpq	%rdx, %rdi
 4250 2e42 7607     		jbe	.L597
 4251 2e44 0FB65318 		movzbl	24(%rbx), %edx
 4252 2e48 885006   		movb	%dl, 6(%rax)
 4253              	.L597:
 4254 2e4b 488B3B   		movq	(%rbx), %rdi
 4255 2e4e 4C01E7   		addq	%r12, %rdi
 4256              	.L590:
 4257 2e51 4C897B08 		movq	%r15, 8(%rbx)
 4258 2e55 E96E0100 		jmp	.L598
 4258      00
 4259 2e5a 660F1F44 		.p2align 4,,10
 4259      0000
 4260              		.p2align 3
 4261              	.L579:
 4262 2e60 4801ED   		addq	%rbp, %rbp
 4263 2e63 4939EF   		cmpq	%rbp, %r15
 4264 2e66 77F8     		ja	.L579
 4265 2e68 4889EE   		movq	%rbp, %rsi
 4266 2e6b 4C894424 		movq	%r8, 8(%rsp)
 4266      08
 4267 2e70 E8000000 		call	realloc@PLT
 4267      00
 4268 2e75 4C8B4424 		movq	8(%rsp), %r8
 4268      08
 4269 2e7a 4885C0   		testq	%rax, %rax
 4270 2e7d 4889C7   		movq	%rax, %rdi
 4271 2e80 0F846203 		je	.L602
 4271      0000
 4272 2e86 4A8D0C38 		leaq	(%rax,%r15), %rcx
 4273 2e8a 488D3428 		leaq	(%rax,%rbp), %rsi
 4274 2e8e 488903   		movq	%rax, (%rbx)
 4275 2e91 48896B10 		movq	%rbp, 16(%rbx)
 4276 2e95 4889CA   		movq	%rcx, %rdx
 4277 2e98 4839F1   		cmpq	%rsi, %rcx
 4278 2e9b 0F831401 		jnb	.L640
 4278      0000
 4279 2ea1 488D7B18 		leaq	24(%rbx), %rdi
 4280 2ea5 4C29FD   		subq	%r15, %rbp
 4281 2ea8 4C8D4B19 		leaq	25(%rbx), %r9
 4282 2eac 4889C8   		movq	%rcx, %rax
 4283 2eaf 4839FE   		cmpq	%rdi, %rsi
 4284 2eb2 4C8D45FF 		leaq	-1(%rbp), %r8
 4285 2eb6 400F96C7 		setbe	%dil
 4286 2eba 4C39C9   		cmpq	%r9, %rcx
 4287 2ebd 410F93C1 		setnb	%r9b
 4288 2ec1 4408CF   		orb	%r9b, %dil
 4289 2ec4 0F84C602 		je	.L622
 4289      0000
 4290 2eca 4983F806 		cmpq	$6, %r8
 4291 2ece 0F86BC02 		jbe	.L622
 4291      0000
 4292 2ed4 4983F80E 		cmpq	$14, %r8
 4293 2ed8 0F865B03 		jbe	.L610
 4293      0000
 4294 2ede 0FB65318 		movzbl	24(%rbx), %edx
 4295 2ee2 660F6EC2 		movd	%edx, %xmm0
 4296 2ee6 4889EA   		movq	%rbp, %rdx
 4297 2ee9 660F60C0 		punpcklbw	%xmm0, %xmm0
 4298 2eed 4883E2F0 		andq	$-16, %rdx
 4299 2ef1 660F61C0 		punpcklwd	%xmm0, %xmm0
 4300 2ef5 4801CA   		addq	%rcx, %rdx
 4301 2ef8 660F70C0 		pshufd	$0, %xmm0, %xmm0
 4301      00
 4302 2efd 0F1F00   		.p2align 4,,10
 4303              		.p2align 3
 4304              	.L585:
 4305 2f00 0F1100   		movups	%xmm0, (%rax)
 4306 2f03 4883C010 		addq	$16, %rax
 4307 2f07 4839D0   		cmpq	%rdx, %rax
 4308 2f0a 75F4     		jne	.L585
 4309 2f0c 4889EF   		movq	%rbp, %rdi
 4310 2f0f 4883E7F0 		andq	$-16, %rdi
 4311 2f13 488D1439 		leaq	(%rcx,%rdi), %rdx
 4312 2f17 4839FD   		cmpq	%rdi, %rbp
 4313 2f1a 0F849200 		je	.L589
 4313      0000
 4314 2f20 4829FD   		subq	%rdi, %rbp
 4315 2f23 488D45FF 		leaq	-1(%rbp), %rax
 4316 2f27 4883F806 		cmpq	$6, %rax
 4317 2f2b 762B     		jbe	.L587
 4318              	.L584:
 4319 2f2d 440FB643 		movzbl	24(%rbx), %r8d
 4319      18
 4320 2f32 4489C0   		movl	%r8d, %eax
 4321 2f35 C1E008   		sall	$8, %eax
 4322 2f38 4409C0   		orl	%r8d, %eax
 4323 2f3b 660F6ED0 		movd	%eax, %xmm2
 4324 2f3f 4889E8   		movq	%rbp, %rax
 4325 2f42 F20F70C2 		pshuflw	$0, %xmm2, %xmm0
 4325      00
 4326 2f47 4883E0F8 		andq	$-8, %rax
 4327 2f4b 660FD604 		movq	%xmm0, (%rcx,%rdi)
 4327      39
 4328 2f50 4801C2   		addq	%rax, %rdx
 4329 2f53 4839E8   		cmpq	%rbp, %rax
 4330 2f56 745A     		je	.L589
 4331              	.L587:
 4332 2f58 0FB64318 		movzbl	24(%rbx), %eax
 4333 2f5c 488D4A01 		leaq	1(%rdx), %rcx
 4334 2f60 8802     		movb	%al, (%rdx)
 4335 2f62 4839CE   		cmpq	%rcx, %rsi
 4336 2f65 764B     		jbe	.L589
 4337 2f67 884201   		movb	%al, 1(%rdx)
 4338 2f6a 488D4202 		leaq	2(%rdx), %rax
 4339 2f6e 4839C6   		cmpq	%rax, %rsi
 4340 2f71 763F     		jbe	.L589
 4341 2f73 0FB64318 		movzbl	24(%rbx), %eax
 4342 2f77 488D4A03 		leaq	3(%rdx), %rcx
 4343 2f7b 884202   		movb	%al, 2(%rdx)
 4344 2f7e 4839CE   		cmpq	%rcx, %rsi
 4345 2f81 762F     		jbe	.L589
 4346 2f83 884203   		movb	%al, 3(%rdx)
 4347 2f86 488D4204 		leaq	4(%rdx), %rax
 4348 2f8a 4839C6   		cmpq	%rax, %rsi
 4349 2f8d 7623     		jbe	.L589
 4350 2f8f 0FB64318 		movzbl	24(%rbx), %eax
 4351 2f93 488D4A05 		leaq	5(%rdx), %rcx
 4352 2f97 884204   		movb	%al, 4(%rdx)
 4353 2f9a 4839CE   		cmpq	%rcx, %rsi
 4354 2f9d 7613     		jbe	.L589
 4355 2f9f 884205   		movb	%al, 5(%rdx)
 4356 2fa2 488D4206 		leaq	6(%rdx), %rax
 4357 2fa6 4839C6   		cmpq	%rax, %rsi
 4358 2fa9 7607     		jbe	.L589
 4359 2fab 0FB64318 		movzbl	24(%rbx), %eax
 4360 2faf 884206   		movb	%al, 6(%rdx)
 4361              	.L589:
 4362 2fb2 488B3B   		movq	(%rbx), %rdi
 4363              	.L640:
 4364 2fb5 488B7308 		movq	8(%rbx), %rsi
 4365 2fb9 E961FDFF 		jmp	.L578
 4365      FF
 4366 2fbe 6690     		.p2align 4,,10
 4367              		.p2align 3
 4368              	.L577:
 4369 2fc0 4939F7   		cmpq	%rsi, %r15
 4370 2fc3 7753     		ja	.L644
 4371 2fc5 4C01E7   		addq	%r12, %rdi
 4372              	.L598:
 4373              	.L581:
 4374 2fc8 410FB6F5 		movzbl	%r13b, %esi
 4375 2fcc 4C89F2   		movq	%r14, %rdx
 4376 2fcf E8000000 		call	memset@PLT
 4376      00
 4377 2fd4 4883C418 		addq	$24, %rsp
 4378              		.cfi_remember_state
 4379              		.cfi_def_cfa_offset 56
 4380 2fd8 31C0     		xorl	%eax, %eax
 4381 2fda 5B       		popq	%rbx
 4382              		.cfi_def_cfa_offset 48
 4383 2fdb 5D       		popq	%rbp
 4384              		.cfi_def_cfa_offset 40
 4385 2fdc 415C     		popq	%r12
 4386              		.cfi_def_cfa_offset 32
 4387 2fde 415D     		popq	%r13
 4388              		.cfi_def_cfa_offset 24
 4389 2fe0 415E     		popq	%r14
 4390              		.cfi_def_cfa_offset 16
 4391 2fe2 415F     		popq	%r15
 4392              		.cfi_def_cfa_offset 8
 4393 2fe4 C3       		ret
 4394              		.p2align 4,,10
 4395 2fe5 0F1F00   		.p2align 3
 4396              	.L621:
 4397              		.cfi_restore_state
 4398 2fe8 0FB65318 		movzbl	24(%rbx), %edx
 4399 2fec 4883C001 		addq	$1, %rax
 4400 2ff0 8850FF   		movb	%dl, -1(%rax)
 4401 2ff3 4839C7   		cmpq	%rax, %rdi
 4402 2ff6 0F844FFE 		je	.L597
 4402      FFFF
 4403 2ffc 0FB65318 		movzbl	24(%rbx), %edx
 4404 3000 4883C001 		addq	$1, %rax
 4405 3004 8850FF   		movb	%dl, -1(%rax)
 4406 3007 4839C7   		cmpq	%rax, %rdi
 4407 300a 75DC     		jne	.L621
 4408 300c E93AFEFF 		jmp	.L597
 4408      FF
 4409              		.p2align 4,,10
 4410 3011 0F1F8000 		.p2align 3
 4410      000000
 4411              	.L644:
 4412 3018 488B6B10 		movq	16(%rbx), %rbp
 4413 301c 4939EF   		cmpq	%rbp, %r15
 4414 301f 770F     		ja	.L601
 4415              	.L600:
 4416 3021 4C897B08 		movq	%r15, 8(%rbx)
 4417 3025 4C01E7   		addq	%r12, %rdi
 4418 3028 EB9E     		jmp	.L598
 4419 302a 660F1F44 		.p2align 4,,10
 4419      0000
 4420              		.p2align 3
 4421              	.L601:
 4422 3030 4801ED   		addq	%rbp, %rbp
 4423 3033 4939EF   		cmpq	%rbp, %r15
 4424 3036 77F8     		ja	.L601
 4425 3038 4889EE   		movq	%rbp, %rsi
 4426 303b 4C894424 		movq	%r8, 8(%rsp)
 4426      08
 4427 3040 E8000000 		call	realloc@PLT
 4427      00
 4428 3045 4C8B4424 		movq	8(%rsp), %r8
 4428      08
 4429 304a 4885C0   		testq	%rax, %rax
 4430 304d 4889C7   		movq	%rax, %rdi
 4431 3050 0F849201 		je	.L602
 4431      0000
 4432 3056 4A8D0C38 		leaq	(%rax,%r15), %rcx
 4433 305a 488D3428 		leaq	(%rax,%rbp), %rsi
 4434 305e 488903   		movq	%rax, (%rbx)
 4435 3061 48896B10 		movq	%rbp, 16(%rbx)
 4436 3065 4889CA   		movq	%rcx, %rdx
 4437 3068 4839F1   		cmpq	%rsi, %rcx
 4438 306b 73B4     		jnb	.L600
 4439 306d 488D7B18 		leaq	24(%rbx), %rdi
 4440 3071 4C29FD   		subq	%r15, %rbp
 4441 3074 4C8D4B19 		leaq	25(%rbx), %r9
 4442 3078 4889C8   		movq	%rcx, %rax
 4443 307b 4839FE   		cmpq	%rdi, %rsi
 4444 307e 4C8D45FF 		leaq	-1(%rbp), %r8
 4445 3082 400F96C7 		setbe	%dil
 4446 3086 4C39C9   		cmpq	%r9, %rcx
 4447 3089 410F93C1 		setnb	%r9b
 4448 308d 4408CF   		orb	%r9b, %dil
 4449 3090 0F842A01 		je	.L623
 4449      0000
 4450 3096 4983F806 		cmpq	$6, %r8
 4451 309a 0F862001 		jbe	.L623
 4451      0000
 4452 30a0 4983F80E 		cmpq	$14, %r8
 4453 30a4 0F869601 		jbe	.L612
 4453      0000
 4454 30aa 0FB65318 		movzbl	24(%rbx), %edx
 4455 30ae 660F6EC2 		movd	%edx, %xmm0
 4456 30b2 4889EA   		movq	%rbp, %rdx
 4457 30b5 660F60C0 		punpcklbw	%xmm0, %xmm0
 4458 30b9 4883E2F0 		andq	$-16, %rdx
 4459 30bd 660F61C0 		punpcklwd	%xmm0, %xmm0
 4460 30c1 4801CA   		addq	%rcx, %rdx
 4461 30c4 660F70C0 		pshufd	$0, %xmm0, %xmm0
 4461      00
 4462 30c9 0F1F8000 		.p2align 4,,10
 4462      000000
 4463              		.p2align 3
 4464              	.L605:
 4465 30d0 0F1100   		movups	%xmm0, (%rax)
 4466 30d3 4883C010 		addq	$16, %rax
 4467 30d7 4839D0   		cmpq	%rdx, %rax
 4468 30da 75F4     		jne	.L605
 4469 30dc 4889EF   		movq	%rbp, %rdi
 4470 30df 4883E7F0 		andq	$-16, %rdi
 4471 30e3 488D1439 		leaq	(%rcx,%rdi), %rdx
 4472 30e7 4839FD   		cmpq	%rdi, %rbp
 4473 30ea 0F849200 		je	.L609
 4473      0000
 4474 30f0 4829FD   		subq	%rdi, %rbp
 4475 30f3 488D45FF 		leaq	-1(%rbp), %rax
 4476 30f7 4883F806 		cmpq	$6, %rax
 4477 30fb 762B     		jbe	.L607
 4478              	.L604:
 4479 30fd 440FB643 		movzbl	24(%rbx), %r8d
 4479      18
 4480 3102 4489C0   		movl	%r8d, %eax
 4481 3105 C1E008   		sall	$8, %eax
 4482 3108 4409C0   		orl	%r8d, %eax
 4483 310b 660F6ED8 		movd	%eax, %xmm3
 4484 310f 4889E8   		movq	%rbp, %rax
 4485 3112 F20F70C3 		pshuflw	$0, %xmm3, %xmm0
 4485      00
 4486 3117 4883E0F8 		andq	$-8, %rax
 4487 311b 660FD604 		movq	%xmm0, (%rcx,%rdi)
 4487      39
 4488 3120 4801C2   		addq	%rax, %rdx
 4489 3123 4839E8   		cmpq	%rbp, %rax
 4490 3126 745A     		je	.L609
 4491              	.L607:
 4492 3128 0FB64318 		movzbl	24(%rbx), %eax
 4493 312c 488D4A01 		leaq	1(%rdx), %rcx
 4494 3130 8802     		movb	%al, (%rdx)
 4495 3132 4839CE   		cmpq	%rcx, %rsi
 4496 3135 764B     		jbe	.L609
 4497 3137 884201   		movb	%al, 1(%rdx)
 4498 313a 488D4202 		leaq	2(%rdx), %rax
 4499 313e 4839C6   		cmpq	%rax, %rsi
 4500 3141 763F     		jbe	.L609
 4501 3143 0FB64318 		movzbl	24(%rbx), %eax
 4502 3147 488D4A03 		leaq	3(%rdx), %rcx
 4503 314b 884202   		movb	%al, 2(%rdx)
 4504 314e 4839CE   		cmpq	%rcx, %rsi
 4505 3151 762F     		jbe	.L609
 4506 3153 884203   		movb	%al, 3(%rdx)
 4507 3156 488D4204 		leaq	4(%rdx), %rax
 4508 315a 4839C6   		cmpq	%rax, %rsi
 4509 315d 7623     		jbe	.L609
 4510 315f 0FB64318 		movzbl	24(%rbx), %eax
 4511 3163 488D4A05 		leaq	5(%rdx), %rcx
 4512 3167 884204   		movb	%al, 4(%rdx)
 4513 316a 4839CE   		cmpq	%rcx, %rsi
 4514 316d 7613     		jbe	.L609
 4515 316f 884205   		movb	%al, 5(%rdx)
 4516 3172 488D4206 		leaq	6(%rdx), %rax
 4517 3176 4839C6   		cmpq	%rax, %rsi
 4518 3179 7607     		jbe	.L609
 4519 317b 0FB64318 		movzbl	24(%rbx), %eax
 4520 317f 884206   		movb	%al, 6(%rdx)
 4521              	.L609:
 4522 3182 488B3B   		movq	(%rbx), %rdi
 4523 3185 E997FEFF 		jmp	.L600
 4523      FF
 4524 318a 660F1F44 		.p2align 4,,10
 4524      0000
 4525              		.p2align 3
 4526              	.L622:
 4527 3190 0FB64318 		movzbl	24(%rbx), %eax
 4528 3194 4883C201 		addq	$1, %rdx
 4529 3198 8842FF   		movb	%al, -1(%rdx)
 4530 319b 4839D6   		cmpq	%rdx, %rsi
 4531 319e 0F840EFE 		je	.L589
 4531      FFFF
 4532 31a4 0FB64318 		movzbl	24(%rbx), %eax
 4533 31a8 4883C201 		addq	$1, %rdx
 4534 31ac 8842FF   		movb	%al, -1(%rdx)
 4535 31af 4839D6   		cmpq	%rdx, %rsi
 4536 31b2 75DC     		jne	.L622
 4537 31b4 E9F9FDFF 		jmp	.L589
 4537      FF
 4538 31b9 0F1F8000 		.p2align 4,,10
 4538      000000
 4539              		.p2align 3
 4540              	.L623:
 4541 31c0 0FB64318 		movzbl	24(%rbx), %eax
 4542 31c4 4883C201 		addq	$1, %rdx
 4543 31c8 8842FF   		movb	%al, -1(%rdx)
 4544 31cb 4839D6   		cmpq	%rdx, %rsi
 4545 31ce 74B2     		je	.L609
 4546 31d0 0FB64318 		movzbl	24(%rbx), %eax
 4547 31d4 4883C201 		addq	$1, %rdx
 4548 31d8 8842FF   		movb	%al, -1(%rdx)
 4549 31db 4839D6   		cmpq	%rdx, %rsi
 4550 31de 75E0     		jne	.L623
 4551 31e0 EBA0     		jmp	.L609
 4552              		.p2align 4,,10
 4553 31e2 660F1F44 		.p2align 3
 4553      0000
 4554              	.L602:
 4555 31e8 4C89C7   		movq	%r8, %rdi
 4556 31eb 488D3500 		leaq	.LC2(%rip), %rsi
 4556      000000
 4557 31f2 4C894424 		movq	%r8, 8(%rsp)
 4557      08
 4558 31f7 E8000000 		call	errPrefix@PLT
 4558      00
 4559 31fc 488B7C24 		movq	8(%rsp), %rdi
 4559      08
 4560 3201 488D3500 		leaq	.LC10(%rip), %rsi
 4560      000000
 4561 3208 E8000000 		call	errPrefix@PLT
 4561      00
 4562 320d 488B7C24 		movq	8(%rsp), %rdi
 4562      08
 4563 3212 488D3500 		leaq	.LC16(%rip), %rsi
 4563      000000
 4564 3219 E8000000 		call	errPrefix@PLT
 4564      00
 4565 321e 4883C418 		addq	$24, %rsp
 4566              		.cfi_remember_state
 4567              		.cfi_def_cfa_offset 56
 4568 3222 B8010000 		movl	$1, %eax
 4568      00
 4569 3227 5B       		popq	%rbx
 4570              		.cfi_def_cfa_offset 48
 4571 3228 5D       		popq	%rbp
 4572              		.cfi_def_cfa_offset 40
 4573 3229 415C     		popq	%r12
 4574              		.cfi_def_cfa_offset 32
 4575 322b 415D     		popq	%r13
 4576              		.cfi_def_cfa_offset 24
 4577 322d 415E     		popq	%r14
 4578              		.cfi_def_cfa_offset 16
 4579 322f 415F     		popq	%r15
 4580              		.cfi_def_cfa_offset 8
 4581 3231 C3       		ret
 4582              	.L611:
 4583              		.cfi_restore_state
 4584 3232 31F6     		xorl	%esi, %esi
 4585 3234 E98CFBFF 		jmp	.L592
 4585      FF
 4586              	.L610:
 4587 3239 31FF     		xorl	%edi, %edi
 4588 323b E9EDFCFF 		jmp	.L584
 4588      FF
 4589              	.L612:
 4590 3240 31FF     		xorl	%edi, %edi
 4591 3242 E9B6FEFF 		jmp	.L604
 4591      FF
 4592              		.cfi_endproc
 4593              	.LFE53:
 4595 3247 660F1F84 		.p2align 4
 4595      00000000 
 4595      00
 4596              		.globl	bufWriteBlock
 4598              	bufWriteBlock:
 4599              	.LFB54:
 4600              		.cfi_startproc
 4601 3250 F30F1EFA 		endbr64
 4602 3254 4157     		pushq	%r15
 4603              		.cfi_def_cfa_offset 16
 4604              		.cfi_offset 15, -16
 4605 3256 4C8D3C0E 		leaq	(%rsi,%rcx), %r15
 4606 325a 4156     		pushq	%r14
 4607              		.cfi_def_cfa_offset 24
 4608              		.cfi_offset 14, -24
 4609 325c 4989CE   		movq	%rcx, %r14
 4610 325f 4155     		pushq	%r13
 4611              		.cfi_def_cfa_offset 32
 4612              		.cfi_offset 13, -32
 4613 3261 4989D5   		movq	%rdx, %r13
 4614 3264 4154     		pushq	%r12
 4615              		.cfi_def_cfa_offset 40
 4616              		.cfi_offset 12, -40
 4617 3266 4989F4   		movq	%rsi, %r12
 4618 3269 55       		pushq	%rbp
 4619              		.cfi_def_cfa_offset 48
 4620              		.cfi_offset 6, -48
 4621 326a 53       		pushq	%rbx
 4622              		.cfi_def_cfa_offset 56
 4623              		.cfi_offset 3, -56
 4624 326b 4889FB   		movq	%rdi, %rbx
 4625 326e 4883EC18 		subq	$24, %rsp
 4626              		.cfi_def_cfa_offset 80
 4627 3272 488B7708 		movq	8(%rdi), %rsi
 4628 3276 488B3F   		movq	(%rdi), %rdi
 4629 3279 4939F4   		cmpq	%rsi, %r12
 4630 327c 0F82AE02 		jb	.L646
 4630      0000
 4631 3282 488B6B10 		movq	16(%rbx), %rbp
 4632 3286 4939EF   		cmpq	%rbp, %r15
 4633 3289 0F874101 		ja	.L648
 4633      0000
 4634              	.L647:
 4635 328f 4C8D0437 		leaq	(%rdi,%rsi), %r8
 4636 3293 4C01E7   		addq	%r12, %rdi
 4637 3296 4C89C0   		movq	%r8, %rax
 4638 3299 4939F8   		cmpq	%rdi, %r8
 4639 329c 0F831F01 		jnb	.L659
 4639      0000
 4640 32a2 4C89E1   		movq	%r12, %rcx
 4641 32a5 4C8D5319 		leaq	25(%rbx), %r10
 4642 32a9 4C89C2   		movq	%r8, %rdx
 4643 32ac 4829F1   		subq	%rsi, %rcx
 4644 32af 488D7318 		leaq	24(%rbx), %rsi
 4645 32b3 4839F7   		cmpq	%rsi, %rdi
 4646 32b6 4C8D49FF 		leaq	-1(%rcx), %r9
 4647 32ba 400F96C6 		setbe	%sil
 4648 32be 4D39D0   		cmpq	%r10, %r8
 4649 32c1 410F93C2 		setnb	%r10b
 4650 32c5 4408D6   		orb	%r10b, %sil
 4651 32c8 0F848A02 		je	.L690
 4651      0000
 4652 32ce 4983F906 		cmpq	$6, %r9
 4653 32d2 0F868002 		jbe	.L690
 4653      0000
 4654 32d8 4983F90E 		cmpq	$14, %r9
 4655 32dc 0F86C004 		jbe	.L680
 4655      0000
 4656 32e2 0FB64318 		movzbl	24(%rbx), %eax
 4657 32e6 660F6EC0 		movd	%eax, %xmm0
 4658 32ea 4889C8   		movq	%rcx, %rax
 4659 32ed 660F60C0 		punpcklbw	%xmm0, %xmm0
 4660 32f1 4883E0F0 		andq	$-16, %rax
 4661 32f5 660F61C0 		punpcklwd	%xmm0, %xmm0
 4662 32f9 4C01C0   		addq	%r8, %rax
 4663 32fc 660F70C0 		pshufd	$0, %xmm0, %xmm0
 4663      00
 4664              		.p2align 4,,10
 4665 3301 0F1F8000 		.p2align 3
 4665      000000
 4666              	.L662:
 4667 3308 0F1102   		movups	%xmm0, (%rdx)
 4668 330b 4883C210 		addq	$16, %rdx
 4669 330f 4839C2   		cmpq	%rax, %rdx
 4670 3312 75F4     		jne	.L662
 4671 3314 4889CE   		movq	%rcx, %rsi
 4672 3317 4883E6F0 		andq	$-16, %rsi
 4673 331b 498D0430 		leaq	(%r8,%rsi), %rax
 4674 331f 4839F1   		cmpq	%rsi, %rcx
 4675 3322 0F849300 		je	.L666
 4675      0000
 4676 3328 4829F1   		subq	%rsi, %rcx
 4677 332b 488D51FF 		leaq	-1(%rcx), %rdx
 4678 332f 4883FA06 		cmpq	$6, %rdx
 4679 3333 762C     		jbe	.L664
 4680              	.L661:
 4681 3335 440FB64B 		movzbl	24(%rbx), %r9d
 4681      18
 4682 333a 4489CA   		movl	%r9d, %edx
 4683 333d C1E208   		sall	$8, %edx
 4684 3340 4409CA   		orl	%r9d, %edx
 4685 3343 660F6ECA 		movd	%edx, %xmm1
 4686 3347 4889CA   		movq	%rcx, %rdx
 4687 334a F20F70C1 		pshuflw	$0, %xmm1, %xmm0
 4687      00
 4688 334f 4883E2F8 		andq	$-8, %rdx
 4689 3353 66410FD6 		movq	%xmm0, (%r8,%rsi)
 4689      0430
 4690 3359 4801D0   		addq	%rdx, %rax
 4691 335c 4839CA   		cmpq	%rcx, %rdx
 4692 335f 745A     		je	.L666
 4693              	.L664:
 4694 3361 0FB65318 		movzbl	24(%rbx), %edx
 4695 3365 488D4801 		leaq	1(%rax), %rcx
 4696 3369 8810     		movb	%dl, (%rax)
 4697 336b 4839CF   		cmpq	%rcx, %rdi
 4698 336e 764B     		jbe	.L666
 4699 3370 885001   		movb	%dl, 1(%rax)
 4700 3373 488D5002 		leaq	2(%rax), %rdx
 4701 3377 4839D7   		cmpq	%rdx, %rdi
 4702 337a 763F     		jbe	.L666
 4703 337c 0FB65318 		movzbl	24(%rbx), %edx
 4704 3380 488D4803 		leaq	3(%rax), %rcx
 4705 3384 885002   		movb	%dl, 2(%rax)
 4706 3387 4839CF   		cmpq	%rcx, %rdi
 4707 338a 762F     		jbe	.L666
 4708 338c 885003   		movb	%dl, 3(%rax)
 4709 338f 488D5004 		leaq	4(%rax), %rdx
 4710 3393 4839D7   		cmpq	%rdx, %rdi
 4711 3396 7623     		jbe	.L666
 4712 3398 0FB65318 		movzbl	24(%rbx), %edx
 4713 339c 488D4805 		leaq	5(%rax), %rcx
 4714 33a0 885004   		movb	%dl, 4(%rax)
 4715 33a3 4839CF   		cmpq	%rcx, %rdi
 4716 33a6 7613     		jbe	.L666
 4717 33a8 885005   		movb	%dl, 5(%rax)
 4718 33ab 488D5006 		leaq	6(%rax), %rdx
 4719 33af 4839D7   		cmpq	%rdx, %rdi
 4720 33b2 7607     		jbe	.L666
 4721 33b4 0FB65318 		movzbl	24(%rbx), %edx
 4722 33b8 885006   		movb	%dl, 6(%rax)
 4723              	.L666:
 4724 33bb 488B3B   		movq	(%rbx), %rdi
 4725 33be 4C01E7   		addq	%r12, %rdi
 4726              	.L659:
 4727 33c1 4C897B08 		movq	%r15, 8(%rbx)
 4728 33c5 E96E0100 		jmp	.L667
 4728      00
 4729 33ca 660F1F44 		.p2align 4,,10
 4729      0000
 4730              		.p2align 3
 4731              	.L648:
 4732 33d0 4801ED   		addq	%rbp, %rbp
 4733 33d3 4939EF   		cmpq	%rbp, %r15
 4734 33d6 77F8     		ja	.L648
 4735 33d8 4889EE   		movq	%rbp, %rsi
 4736 33db 4C894424 		movq	%r8, 8(%rsp)
 4736      08
 4737 33e0 E8000000 		call	realloc@PLT
 4737      00
 4738 33e5 4C8B4424 		movq	8(%rsp), %r8
 4738      08
 4739 33ea 4885C0   		testq	%rax, %rax
 4740 33ed 4889C7   		movq	%rax, %rdi
 4741 33f0 0F846203 		je	.L671
 4741      0000
 4742 33f6 4A8D0C38 		leaq	(%rax,%r15), %rcx
 4743 33fa 488D3428 		leaq	(%rax,%rbp), %rsi
 4744 33fe 488903   		movq	%rax, (%rbx)
 4745 3401 48896B10 		movq	%rbp, 16(%rbx)
 4746 3405 4889CA   		movq	%rcx, %rdx
 4747 3408 4839F1   		cmpq	%rsi, %rcx
 4748 340b 0F831401 		jnb	.L709
 4748      0000
 4749 3411 488D7B18 		leaq	24(%rbx), %rdi
 4750 3415 4C29FD   		subq	%r15, %rbp
 4751 3418 4C8D4B19 		leaq	25(%rbx), %r9
 4752 341c 4889C8   		movq	%rcx, %rax
 4753 341f 4839FE   		cmpq	%rdi, %rsi
 4754 3422 4C8D45FF 		leaq	-1(%rbp), %r8
 4755 3426 400F96C7 		setbe	%dil
 4756 342a 4C39C9   		cmpq	%r9, %rcx
 4757 342d 410F93C1 		setnb	%r9b
 4758 3431 4408CF   		orb	%r9b, %dil
 4759 3434 0F84C602 		je	.L691
 4759      0000
 4760 343a 4983F806 		cmpq	$6, %r8
 4761 343e 0F86BC02 		jbe	.L691
 4761      0000
 4762 3444 4983F80E 		cmpq	$14, %r8
 4763 3448 0F865B03 		jbe	.L679
 4763      0000
 4764 344e 0FB65318 		movzbl	24(%rbx), %edx
 4765 3452 660F6EC2 		movd	%edx, %xmm0
 4766 3456 4889EA   		movq	%rbp, %rdx
 4767 3459 660F60C0 		punpcklbw	%xmm0, %xmm0
 4768 345d 4883E2F0 		andq	$-16, %rdx
 4769 3461 660F61C0 		punpcklwd	%xmm0, %xmm0
 4770 3465 4801CA   		addq	%rcx, %rdx
 4771 3468 660F70C0 		pshufd	$0, %xmm0, %xmm0
 4771      00
 4772 346d 0F1F00   		.p2align 4,,10
 4773              		.p2align 3
 4774              	.L654:
 4775 3470 0F1100   		movups	%xmm0, (%rax)
 4776 3473 4883C010 		addq	$16, %rax
 4777 3477 4839D0   		cmpq	%rdx, %rax
 4778 347a 75F4     		jne	.L654
 4779 347c 4889EF   		movq	%rbp, %rdi
 4780 347f 4883E7F0 		andq	$-16, %rdi
 4781 3483 488D1439 		leaq	(%rcx,%rdi), %rdx
 4782 3487 4839FD   		cmpq	%rdi, %rbp
 4783 348a 0F849200 		je	.L658
 4783      0000
 4784 3490 4829FD   		subq	%rdi, %rbp
 4785 3493 488D45FF 		leaq	-1(%rbp), %rax
 4786 3497 4883F806 		cmpq	$6, %rax
 4787 349b 762B     		jbe	.L656
 4788              	.L653:
 4789 349d 440FB643 		movzbl	24(%rbx), %r8d
 4789      18
 4790 34a2 4489C0   		movl	%r8d, %eax
 4791 34a5 C1E008   		sall	$8, %eax
 4792 34a8 4409C0   		orl	%r8d, %eax
 4793 34ab 660F6ED0 		movd	%eax, %xmm2
 4794 34af 4889E8   		movq	%rbp, %rax
 4795 34b2 F20F70C2 		pshuflw	$0, %xmm2, %xmm0
 4795      00
 4796 34b7 4883E0F8 		andq	$-8, %rax
 4797 34bb 660FD604 		movq	%xmm0, (%rcx,%rdi)
 4797      39
 4798 34c0 4801C2   		addq	%rax, %rdx
 4799 34c3 4839E8   		cmpq	%rbp, %rax
 4800 34c6 745A     		je	.L658
 4801              	.L656:
 4802 34c8 0FB64318 		movzbl	24(%rbx), %eax
 4803 34cc 488D4A01 		leaq	1(%rdx), %rcx
 4804 34d0 8802     		movb	%al, (%rdx)
 4805 34d2 4839CE   		cmpq	%rcx, %rsi
 4806 34d5 764B     		jbe	.L658
 4807 34d7 884201   		movb	%al, 1(%rdx)
 4808 34da 488D4202 		leaq	2(%rdx), %rax
 4809 34de 4839C6   		cmpq	%rax, %rsi
 4810 34e1 763F     		jbe	.L658
 4811 34e3 0FB64318 		movzbl	24(%rbx), %eax
 4812 34e7 488D4A03 		leaq	3(%rdx), %rcx
 4813 34eb 884202   		movb	%al, 2(%rdx)
 4814 34ee 4839CE   		cmpq	%rcx, %rsi
 4815 34f1 762F     		jbe	.L658
 4816 34f3 884203   		movb	%al, 3(%rdx)
 4817 34f6 488D4204 		leaq	4(%rdx), %rax
 4818 34fa 4839C6   		cmpq	%rax, %rsi
 4819 34fd 7623     		jbe	.L658
 4820 34ff 0FB64318 		movzbl	24(%rbx), %eax
 4821 3503 488D4A05 		leaq	5(%rdx), %rcx
 4822 3507 884204   		movb	%al, 4(%rdx)
 4823 350a 4839CE   		cmpq	%rcx, %rsi
 4824 350d 7613     		jbe	.L658
 4825 350f 884205   		movb	%al, 5(%rdx)
 4826 3512 488D4206 		leaq	6(%rdx), %rax
 4827 3516 4839C6   		cmpq	%rax, %rsi
 4828 3519 7607     		jbe	.L658
 4829 351b 0FB64318 		movzbl	24(%rbx), %eax
 4830 351f 884206   		movb	%al, 6(%rdx)
 4831              	.L658:
 4832 3522 488B3B   		movq	(%rbx), %rdi
 4833              	.L709:
 4834 3525 488B7308 		movq	8(%rbx), %rsi
 4835 3529 E961FDFF 		jmp	.L647
 4835      FF
 4836 352e 6690     		.p2align 4,,10
 4837              		.p2align 3
 4838              	.L646:
 4839 3530 4939F7   		cmpq	%rsi, %r15
 4840 3533 7753     		ja	.L713
 4841 3535 4C01E7   		addq	%r12, %rdi
 4842              	.L667:
 4843              	.L650:
 4844 3538 4C89F2   		movq	%r14, %rdx
 4845 353b 4C89EE   		movq	%r13, %rsi
 4846 353e E8000000 		call	memcpy@PLT
 4846      00
 4847 3543 4883C418 		addq	$24, %rsp
 4848              		.cfi_remember_state
 4849              		.cfi_def_cfa_offset 56
 4850 3547 31C0     		xorl	%eax, %eax
 4851 3549 5B       		popq	%rbx
 4852              		.cfi_def_cfa_offset 48
 4853 354a 5D       		popq	%rbp
 4854              		.cfi_def_cfa_offset 40
 4855 354b 415C     		popq	%r12
 4856              		.cfi_def_cfa_offset 32
 4857 354d 415D     		popq	%r13
 4858              		.cfi_def_cfa_offset 24
 4859 354f 415E     		popq	%r14
 4860              		.cfi_def_cfa_offset 16
 4861 3551 415F     		popq	%r15
 4862              		.cfi_def_cfa_offset 8
 4863 3553 C3       		ret
 4864              		.p2align 4,,10
 4865 3554 0F1F4000 		.p2align 3
 4866              	.L690:
 4867              		.cfi_restore_state
 4868 3558 0FB65318 		movzbl	24(%rbx), %edx
 4869 355c 4883C001 		addq	$1, %rax
 4870 3560 8850FF   		movb	%dl, -1(%rax)
 4871 3563 4839C7   		cmpq	%rax, %rdi
 4872 3566 0F844FFE 		je	.L666
 4872      FFFF
 4873 356c 0FB65318 		movzbl	24(%rbx), %edx
 4874 3570 4883C001 		addq	$1, %rax
 4875 3574 8850FF   		movb	%dl, -1(%rax)
 4876 3577 4839C7   		cmpq	%rax, %rdi
 4877 357a 75DC     		jne	.L690
 4878 357c E93AFEFF 		jmp	.L666
 4878      FF
 4879              		.p2align 4,,10
 4880 3581 0F1F8000 		.p2align 3
 4880      000000
 4881              	.L713:
 4882 3588 488B6B10 		movq	16(%rbx), %rbp
 4883 358c 4939EF   		cmpq	%rbp, %r15
 4884 358f 770F     		ja	.L670
 4885              	.L669:
 4886 3591 4C897B08 		movq	%r15, 8(%rbx)
 4887 3595 4C01E7   		addq	%r12, %rdi
 4888 3598 EB9E     		jmp	.L667
 4889 359a 660F1F44 		.p2align 4,,10
 4889      0000
 4890              		.p2align 3
 4891              	.L670:
 4892 35a0 4801ED   		addq	%rbp, %rbp
 4893 35a3 4939EF   		cmpq	%rbp, %r15
 4894 35a6 77F8     		ja	.L670
 4895 35a8 4889EE   		movq	%rbp, %rsi
 4896 35ab 4C894424 		movq	%r8, 8(%rsp)
 4896      08
 4897 35b0 E8000000 		call	realloc@PLT
 4897      00
 4898 35b5 4C8B4424 		movq	8(%rsp), %r8
 4898      08
 4899 35ba 4885C0   		testq	%rax, %rax
 4900 35bd 4889C7   		movq	%rax, %rdi
 4901 35c0 0F849201 		je	.L671
 4901      0000
 4902 35c6 4A8D0C38 		leaq	(%rax,%r15), %rcx
 4903 35ca 488D3428 		leaq	(%rax,%rbp), %rsi
 4904 35ce 488903   		movq	%rax, (%rbx)
 4905 35d1 48896B10 		movq	%rbp, 16(%rbx)
 4906 35d5 4889CA   		movq	%rcx, %rdx
 4907 35d8 4839F1   		cmpq	%rsi, %rcx
 4908 35db 73B4     		jnb	.L669
 4909 35dd 488D7B18 		leaq	24(%rbx), %rdi
 4910 35e1 4C29FD   		subq	%r15, %rbp
 4911 35e4 4C8D4B19 		leaq	25(%rbx), %r9
 4912 35e8 4889C8   		movq	%rcx, %rax
 4913 35eb 4839FE   		cmpq	%rdi, %rsi
 4914 35ee 4C8D45FF 		leaq	-1(%rbp), %r8
 4915 35f2 400F96C7 		setbe	%dil
 4916 35f6 4C39C9   		cmpq	%r9, %rcx
 4917 35f9 410F93C1 		setnb	%r9b
 4918 35fd 4408CF   		orb	%r9b, %dil
 4919 3600 0F842A01 		je	.L692
 4919      0000
 4920 3606 4983F806 		cmpq	$6, %r8
 4921 360a 0F862001 		jbe	.L692
 4921      0000
 4922 3610 4983F80E 		cmpq	$14, %r8
 4923 3614 0F869601 		jbe	.L681
 4923      0000
 4924 361a 0FB65318 		movzbl	24(%rbx), %edx
 4925 361e 660F6EC2 		movd	%edx, %xmm0
 4926 3622 4889EA   		movq	%rbp, %rdx
 4927 3625 660F60C0 		punpcklbw	%xmm0, %xmm0
 4928 3629 4883E2F0 		andq	$-16, %rdx
 4929 362d 660F61C0 		punpcklwd	%xmm0, %xmm0
 4930 3631 4801CA   		addq	%rcx, %rdx
 4931 3634 660F70C0 		pshufd	$0, %xmm0, %xmm0
 4931      00
 4932 3639 0F1F8000 		.p2align 4,,10
 4932      000000
 4933              		.p2align 3
 4934              	.L674:
 4935 3640 0F1100   		movups	%xmm0, (%rax)
 4936 3643 4883C010 		addq	$16, %rax
 4937 3647 4839D0   		cmpq	%rdx, %rax
 4938 364a 75F4     		jne	.L674
 4939 364c 4889EF   		movq	%rbp, %rdi
 4940 364f 4883E7F0 		andq	$-16, %rdi
 4941 3653 488D1439 		leaq	(%rcx,%rdi), %rdx
 4942 3657 4839FD   		cmpq	%rdi, %rbp
 4943 365a 0F849200 		je	.L678
 4943      0000
 4944 3660 4829FD   		subq	%rdi, %rbp
 4945 3663 488D45FF 		leaq	-1(%rbp), %rax
 4946 3667 4883F806 		cmpq	$6, %rax
 4947 366b 762B     		jbe	.L676
 4948              	.L673:
 4949 366d 440FB643 		movzbl	24(%rbx), %r8d
 4949      18
 4950 3672 4489C0   		movl	%r8d, %eax
 4951 3675 C1E008   		sall	$8, %eax
 4952 3678 4409C0   		orl	%r8d, %eax
 4953 367b 660F6ED8 		movd	%eax, %xmm3
 4954 367f 4889E8   		movq	%rbp, %rax
 4955 3682 F20F70C3 		pshuflw	$0, %xmm3, %xmm0
 4955      00
 4956 3687 4883E0F8 		andq	$-8, %rax
 4957 368b 660FD604 		movq	%xmm0, (%rcx,%rdi)
 4957      39
 4958 3690 4801C2   		addq	%rax, %rdx
 4959 3693 4839E8   		cmpq	%rbp, %rax
 4960 3696 745A     		je	.L678
 4961              	.L676:
 4962 3698 0FB64318 		movzbl	24(%rbx), %eax
 4963 369c 488D4A01 		leaq	1(%rdx), %rcx
 4964 36a0 8802     		movb	%al, (%rdx)
 4965 36a2 4839CE   		cmpq	%rcx, %rsi
 4966 36a5 764B     		jbe	.L678
 4967 36a7 884201   		movb	%al, 1(%rdx)
 4968 36aa 488D4202 		leaq	2(%rdx), %rax
 4969 36ae 4839C6   		cmpq	%rax, %rsi
 4970 36b1 763F     		jbe	.L678
 4971 36b3 0FB64318 		movzbl	24(%rbx), %eax
 4972 36b7 488D4A03 		leaq	3(%rdx), %rcx
 4973 36bb 884202   		movb	%al, 2(%rdx)
 4974 36be 4839CE   		cmpq	%rcx, %rsi
 4975 36c1 762F     		jbe	.L678
 4976 36c3 884203   		movb	%al, 3(%rdx)
 4977 36c6 488D4204 		leaq	4(%rdx), %rax
 4978 36ca 4839C6   		cmpq	%rax, %rsi
 4979 36cd 7623     		jbe	.L678
 4980 36cf 0FB64318 		movzbl	24(%rbx), %eax
 4981 36d3 488D4A05 		leaq	5(%rdx), %rcx
 4982 36d7 884204   		movb	%al, 4(%rdx)
 4983 36da 4839CE   		cmpq	%rcx, %rsi
 4984 36dd 7613     		jbe	.L678
 4985 36df 884205   		movb	%al, 5(%rdx)
 4986 36e2 488D4206 		leaq	6(%rdx), %rax
 4987 36e6 4839C6   		cmpq	%rax, %rsi
 4988 36e9 7607     		jbe	.L678
 4989 36eb 0FB64318 		movzbl	24(%rbx), %eax
 4990 36ef 884206   		movb	%al, 6(%rdx)
 4991              	.L678:
 4992 36f2 488B3B   		movq	(%rbx), %rdi
 4993 36f5 E997FEFF 		jmp	.L669
 4993      FF
 4994 36fa 660F1F44 		.p2align 4,,10
 4994      0000
 4995              		.p2align 3
 4996              	.L691:
 4997 3700 0FB64318 		movzbl	24(%rbx), %eax
 4998 3704 4883C201 		addq	$1, %rdx
 4999 3708 8842FF   		movb	%al, -1(%rdx)
 5000 370b 4839D6   		cmpq	%rdx, %rsi
 5001 370e 0F840EFE 		je	.L658
 5001      FFFF
 5002 3714 0FB64318 		movzbl	24(%rbx), %eax
 5003 3718 4883C201 		addq	$1, %rdx
 5004 371c 8842FF   		movb	%al, -1(%rdx)
 5005 371f 4839D6   		cmpq	%rdx, %rsi
 5006 3722 75DC     		jne	.L691
 5007 3724 E9F9FDFF 		jmp	.L658
 5007      FF
 5008 3729 0F1F8000 		.p2align 4,,10
 5008      000000
 5009              		.p2align 3
 5010              	.L692:
 5011 3730 0FB64318 		movzbl	24(%rbx), %eax
 5012 3734 4883C201 		addq	$1, %rdx
 5013 3738 8842FF   		movb	%al, -1(%rdx)
 5014 373b 4839D6   		cmpq	%rdx, %rsi
 5015 373e 74B2     		je	.L678
 5016 3740 0FB64318 		movzbl	24(%rbx), %eax
 5017 3744 4883C201 		addq	$1, %rdx
 5018 3748 8842FF   		movb	%al, -1(%rdx)
 5019 374b 4839D6   		cmpq	%rdx, %rsi
 5020 374e 75E0     		jne	.L692
 5021 3750 EBA0     		jmp	.L678
 5022              		.p2align 4,,10
 5023 3752 660F1F44 		.p2align 3
 5023      0000
 5024              	.L671:
 5025 3758 4C89C7   		movq	%r8, %rdi
 5026 375b 488D3500 		leaq	.LC2(%rip), %rsi
 5026      000000
 5027 3762 4C894424 		movq	%r8, 8(%rsp)
 5027      08
 5028 3767 E8000000 		call	errPrefix@PLT
 5028      00
 5029 376c 488B7C24 		movq	8(%rsp), %rdi
 5029      08
 5030 3771 488D3500 		leaq	.LC10(%rip), %rsi
 5030      000000
 5031 3778 E8000000 		call	errPrefix@PLT
 5031      00
 5032 377d 488B7C24 		movq	8(%rsp), %rdi
 5032      08
 5033 3782 488D3500 		leaq	.LC16(%rip), %rsi
 5033      000000
 5034 3789 E8000000 		call	errPrefix@PLT
 5034      00
 5035 378e 4883C418 		addq	$24, %rsp
 5036              		.cfi_remember_state
 5037              		.cfi_def_cfa_offset 56
 5038 3792 B8010000 		movl	$1, %eax
 5038      00
 5039 3797 5B       		popq	%rbx
 5040              		.cfi_def_cfa_offset 48
 5041 3798 5D       		popq	%rbp
 5042              		.cfi_def_cfa_offset 40
 5043 3799 415C     		popq	%r12
 5044              		.cfi_def_cfa_offset 32
 5045 379b 415D     		popq	%r13
 5046              		.cfi_def_cfa_offset 24
 5047 379d 415E     		popq	%r14
 5048              		.cfi_def_cfa_offset 16
 5049 379f 415F     		popq	%r15
 5050              		.cfi_def_cfa_offset 8
 5051 37a1 C3       		ret
 5052              	.L680:
 5053              		.cfi_restore_state
 5054 37a2 31F6     		xorl	%esi, %esi
 5055 37a4 E98CFBFF 		jmp	.L661
 5055      FF
 5056              	.L679:
 5057 37a9 31FF     		xorl	%edi, %edi
 5058 37ab E9EDFCFF 		jmp	.L653
 5058      FF
 5059              	.L681:
 5060 37b0 31FF     		xorl	%edi, %edi
 5061 37b2 E9B6FEFF 		jmp	.L673
 5061      FF
 5062              		.cfi_endproc
 5063              	.LFE54:
 5065              		.ident	"GCC: (Ubuntu 11.3.0-1ubuntu1~22.04) 11.3.0"
 5066              		.section	.note.GNU-stack,"",@progbits
 5067              		.section	.note.gnu.property,"a"
 5068              		.align 8
 5069 0000 04000000 		.long	1f - 0f
 5070 0004 10000000 		.long	4f - 1f
 5071 0008 05000000 		.long	5
 5072              	0:
 5073 000c 474E5500 		.string	"GNU"
 5074              	1:
 5075              		.align 8
 5076 0010 020000C0 		.long	0xc0000002
 5077 0014 04000000 		.long	3f - 2f
 5078              	2:
 5079 0018 03000000 		.long	0x3
 5080              	3:
 5081 001c 00000000 		.align 8
 5082              	4: