   1              		.file	"testCore.cpp"
   2              		.text
   3              	.Ltext0:
   4              		.file 0 "/home/pong/FPGALink/makestuff/libs/libusbwrap/tests" "testCore.cpp"
   5              		.local	_ZStL8__ioinit
   6              		.comm	_ZStL8__ioinit,1,1
   7              		.section	.rodata
   8              	.LC0:
   9 0000 44656661 		.string	"DefaultSuite"
   9      756C7453 
   9      75697465 
   9      00
  10              		.section	.text._ZN13UnitTestSuite12GetSuiteNameEv,"axG",@progbits,_ZN13UnitTestSuite12GetSuiteName
  11              		.weak	_ZN13UnitTestSuite12GetSuiteNameEv
  13              	_ZN13UnitTestSuite12GetSuiteNameEv:
  14              	.LFB1101:
  15              		.file 1 "/home/pong/FPGALink/makestuff/libs/libutpp/TestSuite.h"
   1:/home/pong/FPGALink/makestuff/libs/libutpp/TestSuite.h **** #ifndef UNITTEST_TESTSUITE_H
   2:/home/pong/FPGALink/makestuff/libs/libutpp/TestSuite.h **** #define UNITTEST_TESTSUITE_H
   3:/home/pong/FPGALink/makestuff/libs/libutpp/TestSuite.h **** 
   4:/home/pong/FPGALink/makestuff/libs/libutpp/TestSuite.h **** namespace UnitTestSuite {
   5:/home/pong/FPGALink/makestuff/libs/libutpp/TestSuite.h **** 
   6:/home/pong/FPGALink/makestuff/libs/libutpp/TestSuite.h ****     inline char const* GetSuiteName ()
   7:/home/pong/FPGALink/makestuff/libs/libutpp/TestSuite.h ****     {
  16              		.loc 1 7 5
  17              		.cfi_startproc
  18 0000 F30F1EFA 		endbr64
  19 0004 55       		pushq	%rbp
  20              		.cfi_def_cfa_offset 16
  21              		.cfi_offset 6, -16
  22 0005 4889E5   		movq	%rsp, %rbp
  23              		.cfi_def_cfa_register 6
   8:/home/pong/FPGALink/makestuff/libs/libutpp/TestSuite.h ****         return "DefaultSuite";
  24              		.loc 1 8 16
  25 0008 488D0500 		leaq	.LC0(%rip), %rax
  25      000000
   9:/home/pong/FPGALink/makestuff/libs/libutpp/TestSuite.h ****     }
  26              		.loc 1 9 5
  27 000f 5D       		popq	%rbp
  28              		.cfi_def_cfa 7, 8
  29 0010 C3       		ret
  30              		.cfi_endproc
  31              	.LFE1101:
  33              		.section	.text._ZN8UnitTest15MemoryOutStreamC1Ev,"axG",@progbits,_ZN8UnitTest15MemoryOutStreamC1Ev
  34              		.align 2
  35              		.weak	_ZN8UnitTest15MemoryOutStreamC1Ev
  37              	_ZN8UnitTest15MemoryOutStreamC1Ev:
  38              	.LFB1142:
  39              		.file 2 "/home/pong/FPGALink/makestuff/libs/libutpp/MemoryOutStream.h"
   1:/home/pong/FPGALink/makestuff/libs/libutpp/MemoryOutStream.h **** #ifndef UNITTEST_MEMORYOUTSTREAM_H
   2:/home/pong/FPGALink/makestuff/libs/libutpp/MemoryOutStream.h **** #define UNITTEST_MEMORYOUTSTREAM_H
   3:/home/pong/FPGALink/makestuff/libs/libutpp/MemoryOutStream.h **** 
   4:/home/pong/FPGALink/makestuff/libs/libutpp/MemoryOutStream.h **** #include "Config.h"
   5:/home/pong/FPGALink/makestuff/libs/libutpp/MemoryOutStream.h **** 
   6:/home/pong/FPGALink/makestuff/libs/libutpp/MemoryOutStream.h **** #ifndef UNITTEST_USE_CUSTOM_STREAMS
   7:/home/pong/FPGALink/makestuff/libs/libutpp/MemoryOutStream.h **** 
   8:/home/pong/FPGALink/makestuff/libs/libutpp/MemoryOutStream.h **** #include <sstream>
   9:/home/pong/FPGALink/makestuff/libs/libutpp/MemoryOutStream.h **** 
  10:/home/pong/FPGALink/makestuff/libs/libutpp/MemoryOutStream.h **** namespace UnitTest
  11:/home/pong/FPGALink/makestuff/libs/libutpp/MemoryOutStream.h **** {
  12:/home/pong/FPGALink/makestuff/libs/libutpp/MemoryOutStream.h **** 
  13:/home/pong/FPGALink/makestuff/libs/libutpp/MemoryOutStream.h **** class MemoryOutStream : public std::ostringstream
  14:/home/pong/FPGALink/makestuff/libs/libutpp/MemoryOutStream.h **** {
  15:/home/pong/FPGALink/makestuff/libs/libutpp/MemoryOutStream.h **** public:
  16:/home/pong/FPGALink/makestuff/libs/libutpp/MemoryOutStream.h ****     MemoryOutStream() {}
  40              		.loc 2 16 5
  41              		.cfi_startproc
  42              		.cfi_personality 0x9b,DW.ref.__gxx_personality_v0
  43              		.cfi_lsda 0x1b,.LLSDA1142
  44 0000 F30F1EFA 		endbr64
  45 0004 55       		pushq	%rbp
  46              		.cfi_def_cfa_offset 16
  47              		.cfi_offset 6, -16
  48 0005 4889E5   		movq	%rsp, %rbp
  49              		.cfi_def_cfa_register 6
  50 0008 53       		pushq	%rbx
  51 0009 4883EC18 		subq	$24, %rsp
  52              		.cfi_offset 3, -24
  53 000d 48897DE8 		movq	%rdi, -24(%rbp)
  54              	.LBB2:
  55              		.loc 2 16 23
  56 0011 488B45E8 		movq	-24(%rbp), %rax
  57 0015 48059000 		addq	$144, %rax
  57      0000
  58 001b 4889C7   		movq	%rax, %rdi
  59              	.LEHB0:
  60 001e E8000000 		call	_ZNSt9basic_iosIcSt11char_traitsIcEEC2Ev@PLT
  60      00
  61              	.LEHE0:
  62 0023 488B45E8 		movq	-24(%rbp), %rax
  63 0027 488D1500 		leaq	8+_ZTTN8UnitTest15MemoryOutStreamE(%rip), %rdx
  63      000000
  64 002e 4889D6   		movq	%rdx, %rsi
  65 0031 4889C7   		movq	%rax, %rdi
  66              	.LEHB1:
  67 0034 E8000000 		call	_ZNSt7__cxx1119basic_ostringstreamIcSt11char_traitsIcESaIcEEC2Ev@PLT
  67      00
  68              	.LEHE1:
  69              		.loc 2 16 23 is_stmt 0 discriminator 2
  70 0039 488D1500 		leaq	24+_ZTVN8UnitTest15MemoryOutStreamE(%rip), %rdx
  70      000000
  71 0040 488B45E8 		movq	-24(%rbp), %rax
  72 0044 488910   		movq	%rdx, (%rax)
  73 0047 488B45E8 		movq	-24(%rbp), %rax
  74 004b 48059000 		addq	$144, %rax
  74      0000
  75 0051 488D1500 		leaq	64+_ZTVN8UnitTest15MemoryOutStreamE(%rip), %rdx
  75      000000
  76 0058 488910   		movq	%rdx, (%rax)
  77 005b 488B45E8 		movq	-24(%rbp), %rax
  78 005f 4883C070 		addq	$112, %rax
  79 0063 4889C7   		movq	%rax, %rdi
  80              	.LEHB2:
  81 0066 E8000000 		call	_ZNSt7__cxx1112basic_stringIcSt11char_traitsIcESaIcEEC1Ev@PLT
  81      00
  82              	.LEHE2:
  83              	.LBE2:
  84              		.loc 2 16 24 is_stmt 1
  85 006b EB43     		jmp	.L8
  86              	.L7:
  87 006d F30F1EFA 		endbr64
  88              	.LBB3:
  89 0071 4889C3   		movq	%rax, %rbx
  90 0074 488B45E8 		movq	-24(%rbp), %rax
  91 0078 488D1500 		leaq	8+_ZTTN8UnitTest15MemoryOutStreamE(%rip), %rdx
  91      000000
  92 007f 4889D6   		movq	%rdx, %rsi
  93 0082 4889C7   		movq	%rax, %rdi
  94 0085 E8000000 		call	_ZNSt7__cxx1119basic_ostringstreamIcSt11char_traitsIcESaIcEED2Ev@PLT
  94      00
  95 008a EB07     		jmp	.L5
  96              	.L6:
  97 008c F30F1EFA 		endbr64
  98 0090 4889C3   		movq	%rax, %rbx
  99              	.L5:
 100              		.loc 2 16 24 is_stmt 0 discriminator 1
 101 0093 488B45E8 		movq	-24(%rbp), %rax
 102 0097 48059000 		addq	$144, %rax
 102      0000
 103 009d 4889C7   		movq	%rax, %rdi
 104 00a0 E8000000 		call	_ZNSt9basic_iosIcSt11char_traitsIcEED2Ev@PLT
 104      00
 105 00a5 4889D8   		movq	%rbx, %rax
 106 00a8 4889C7   		movq	%rax, %rdi
 107              	.LEHB3:
 108 00ab E8000000 		call	_Unwind_Resume@PLT
 108      00
 109              	.LEHE3:
 110              	.L8:
 111              	.LBE3:
 112              		.loc 2 16 24
 113 00b0 488B5DF8 		movq	-8(%rbp), %rbx
 114 00b4 C9       		leave
 115              		.cfi_def_cfa 7, 8
 116 00b5 C3       		ret
 117              		.cfi_endproc
 118              	.LFE1142:
 119              		.globl	__gxx_personality_v0
 120              		.section	.gcc_except_table._ZN8UnitTest15MemoryOutStreamC1Ev,"aG",@progbits,_ZN8UnitTest15MemoryOu
 121              	.LLSDA1142:
 122 0000 FF       		.byte	0xff
 123 0001 FF       		.byte	0xff
 124 0002 01       		.byte	0x1
 125 0003 12       		.uleb128 .LLSDACSE1142-.LLSDACSB1142
 126              	.LLSDACSB1142:
 127 0004 1E       		.uleb128 .LEHB0-.LFB1142
 128 0005 05       		.uleb128 .LEHE0-.LEHB0
 129 0006 00       		.uleb128 0
 130 0007 00       		.uleb128 0
 131 0008 34       		.uleb128 .LEHB1-.LFB1142
 132 0009 05       		.uleb128 .LEHE1-.LEHB1
 133 000a 8C01     		.uleb128 .L6-.LFB1142
 134 000c 00       		.uleb128 0
 135 000d 66       		.uleb128 .LEHB2-.LFB1142
 136 000e 05       		.uleb128 .LEHE2-.LEHB2
 137 000f 6D       		.uleb128 .L7-.LFB1142
 138 0010 00       		.uleb128 0
 139 0011 AB01     		.uleb128 .LEHB3-.LFB1142
 140 0013 05       		.uleb128 .LEHE3-.LEHB3
 141 0014 00       		.uleb128 0
 142 0015 00       		.uleb128 0
 143              	.LLSDACSE1142:
 144              		.section	.text._ZN8UnitTest15MemoryOutStreamC1Ev,"axG",@progbits,_ZN8UnitTest15MemoryOutStreamC1Ev
 146              		.data
 147              		.align 4
 150              	_ZL7m_count:
 151 0000 01000000 		.long	1
 152              		.local	_ZL11m_allocFree
 153              		.comm	_ZL11m_allocFree,4,4
 154              		.text
 155              		.globl	createInt
 157              	createInt:
 158              	.LFB1159:
 159              		.file 3 "testCore.cpp"
   1:testCore.cpp  **** /*
   2:testCore.cpp  ****  * Copyright (C) 2009-2012 Chris McClelland
   3:testCore.cpp  ****  *
   4:testCore.cpp  ****  * This program is free software: you can redistribute it and/or modify
   5:testCore.cpp  ****  * it under the terms of the GNU Lesser General Public License as published by
   6:testCore.cpp  ****  * the Free Software Foundation, either version 3 of the License, or
   7:testCore.cpp  ****  * (at your option) any later version.
   8:testCore.cpp  ****  *
   9:testCore.cpp  ****  * This program is distributed in the hope that it will be useful,
  10:testCore.cpp  ****  * but WITHOUT ANY WARRANTY; without even the implied warranty of
  11:testCore.cpp  ****  * MERCHANTABILITY or FITNESS FOR A PARTICULAR PURPOSE.  See the
  12:testCore.cpp  ****  * GNU Lesser General Public License for more details.
  13:testCore.cpp  ****  *
  14:testCore.cpp  ****  * You should have received a copy of the GNU Lesser General Public License
  15:testCore.cpp  ****  * along with this program.  If not, see <http://www.gnu.org/licenses/>.
  16:testCore.cpp  ****  */
  17:testCore.cpp  **** #include <iostream>
  18:testCore.cpp  **** #include <cstdlib>
  19:testCore.cpp  **** #include <errno.h>
  20:testCore.cpp  **** #include <UnitTest++.h>
  21:testCore.cpp  **** #include <makestuff.h>
  22:testCore.cpp  **** #include "../unbounded_queue.h"
  23:testCore.cpp  **** 
  24:testCore.cpp  **** using namespace std;
  25:testCore.cpp  **** 
  26:testCore.cpp  **** extern "C" {
  27:testCore.cpp  **** 	static uint32 m_count = 1;
  28:testCore.cpp  **** 	static int m_allocFree = 0;
  29:testCore.cpp  **** 	uint32 *createInt(void) {
 160              		.loc 3 29 26 is_stmt 1
 161              		.cfi_startproc
 162 0000 F30F1EFA 		endbr64
 163 0004 55       		pushq	%rbp
 164              		.cfi_def_cfa_offset 16
 165              		.cfi_offset 6, -16
 166 0005 4889E5   		movq	%rsp, %rbp
 167              		.cfi_def_cfa_register 6
 168 0008 4883EC10 		subq	$16, %rsp
  30:testCore.cpp  **** 		uint32 *p;
  31:testCore.cpp  **** 		if ( m_count > 8 ) {
 169              		.loc 3 31 16
 170 000c 8B050000 		movl	_ZL7m_count(%rip), %eax
 170      0000
 171              		.loc 3 31 3
 172 0012 83F808   		cmpl	$8, %eax
 173 0015 7607     		jbe	.L10
  32:testCore.cpp  **** 			return NULL;  // simulate out-of-memory
 174              		.loc 3 32 11
 175 0017 B8000000 		movl	$0, %eax
 175      00
 176 001c EB3D     		jmp	.L11
 177              	.L10:
  33:testCore.cpp  **** 		}
  34:testCore.cpp  **** 		p = (uint32 *)malloc(sizeof(uint32));
 178              		.loc 3 34 23
 179 001e BF040000 		movl	$4, %edi
 179      00
 180 0023 E8000000 		call	malloc@PLT
 180      00
 181 0028 488945F8 		movq	%rax, -8(%rbp)
  35:testCore.cpp  **** 		if ( p ) {
 182              		.loc 3 35 3
 183 002c 48837DF8 		cmpq	$0, -8(%rbp)
 183      00
 184 0031 7415     		je	.L12
  36:testCore.cpp  **** 			*p = m_count++;
 185              		.loc 3 36 16
 186 0033 8B050000 		movl	_ZL7m_count(%rip), %eax
 186      0000
 187 0039 8D5001   		leal	1(%rax), %edx
 188 003c 89150000 		movl	%edx, _ZL7m_count(%rip)
 188      0000
 189              		.loc 3 36 7
 190 0042 488B55F8 		movq	-8(%rbp), %rdx
 191 0046 8902     		movl	%eax, (%rdx)
 192              	.L12:
  37:testCore.cpp  **** 		}
  38:testCore.cpp  **** 		m_allocFree++;
 193              		.loc 3 38 14
 194 0048 8B050000 		movl	_ZL11m_allocFree(%rip), %eax
 194      0000
 195 004e 83C001   		addl	$1, %eax
 196 0051 89050000 		movl	%eax, _ZL11m_allocFree(%rip)
 196      0000
  39:testCore.cpp  **** 		return p;
 197              		.loc 3 39 10
 198 0057 488B45F8 		movq	-8(%rbp), %rax
 199              	.L11:
  40:testCore.cpp  **** 	}
 200              		.loc 3 40 2
 201 005b C9       		leave
 202              		.cfi_def_cfa 7, 8
 203 005c C3       		ret
 204              		.cfi_endproc
 205              	.LFE1159:
 207              		.globl	destroyInt
 209              	destroyInt:
 210              	.LFB1160:
  41:testCore.cpp  **** 	void destroyInt(uint32 *p) {
 211              		.loc 3 41 29
 212              		.cfi_startproc
 213 005d F30F1EFA 		endbr64
 214 0061 55       		pushq	%rbp
 215              		.cfi_def_cfa_offset 16
 216              		.cfi_offset 6, -16
 217 0062 4889E5   		movq	%rsp, %rbp
 218              		.cfi_def_cfa_register 6
 219 0065 4883EC10 		subq	$16, %rsp
 220 0069 48897DF8 		movq	%rdi, -8(%rbp)
  42:testCore.cpp  **** 		if ( p ) {
 221              		.loc 3 42 3
 222 006d 48837DF8 		cmpq	$0, -8(%rbp)
 222      00
 223 0072 741B     		je	.L15
  43:testCore.cpp  **** 			m_allocFree--;
 224              		.loc 3 43 15
 225 0074 8B050000 		movl	_ZL11m_allocFree(%rip), %eax
 225      0000
 226 007a 83E801   		subl	$1, %eax
 227 007d 89050000 		movl	%eax, _ZL11m_allocFree(%rip)
 227      0000
  44:testCore.cpp  **** 			free((void*)p);
 228              		.loc 3 44 8
 229 0083 488B45F8 		movq	-8(%rbp), %rax
 230 0087 4889C7   		movq	%rax, %rdi
 231 008a E8000000 		call	free@PLT
 231      00
 232              	.L15:
  45:testCore.cpp  **** 		}
  46:testCore.cpp  **** 	}
 233              		.loc 3 46 2
 234 008f 90       		nop
 235 0090 C9       		leave
 236              		.cfi_def_cfa 7, 8
 237 0091 C3       		ret
 238              		.cfi_endproc
 239              	.LFE1160:
 242              	_ZL5derefPKv:
 243              	.LFB1161:
  47:testCore.cpp  **** }
  48:testCore.cpp  **** 
  49:testCore.cpp  **** static inline uint32 deref(Item p) {
 244              		.loc 3 49 36
 245              		.cfi_startproc
 246 0092 55       		pushq	%rbp
 247              		.cfi_def_cfa_offset 16
 248              		.cfi_offset 6, -16
 249 0093 4889E5   		movq	%rsp, %rbp
 250              		.cfi_def_cfa_register 6
 251 0096 48897DF8 		movq	%rdi, -8(%rbp)
  50:testCore.cpp  **** 	return *((const uint32 *)p);
 252              		.loc 3 50 28
 253 009a 488B45F8 		movq	-8(%rbp), %rax
 254 009e 8B00     		movl	(%rax), %eax
  51:testCore.cpp  **** }
 255              		.loc 3 51 1
 256 00a0 5D       		popq	%rbp
 257              		.cfi_def_cfa 7, 8
 258 00a1 C3       		ret
 259              		.cfi_endproc
 260              	.LFE1161:
 262              		.section	.rodata
 263              	.LC1:
 264 000d 74657374 		.string	"testCore.cpp"
 264      436F7265 
 264      2E637070 
 264      00
 265              	.LC2:
 266 001a 51756575 		.string	"Queue_testInit"
 266      655F7465 
 266      7374496E 
 266      697400
 267              		.section	.text._ZN18TestQueue_testInitC2Ev,"axG",@progbits,_ZN18TestQueue_testInitC5Ev,comdat
 268              		.align 2
 269              		.weak	_ZN18TestQueue_testInitC2Ev
 271              	_ZN18TestQueue_testInitC2Ev:
 272              	.LFB1163:
  52:testCore.cpp  **** 
  53:testCore.cpp  **** TEST(Queue_testInit) {
 273              		.loc 3 53 1
 274              		.cfi_startproc
 275 0000 F30F1EFA 		endbr64
 276 0004 55       		pushq	%rbp
 277              		.cfi_def_cfa_offset 16
 278              		.cfi_offset 6, -16
 279 0005 4889E5   		movq	%rsp, %rbp
 280              		.cfi_def_cfa_register 6
 281 0008 53       		pushq	%rbx
 282 0009 4883EC18 		subq	$24, %rsp
 283              		.cfi_offset 3, -24
 284 000d 48897DE8 		movq	%rdi, -24(%rbp)
 285              	.LBB4:
 286              		.loc 3 53 1
 287 0011 488B5DE8 		movq	-24(%rbp), %rbx
 288 0015 E8000000 		call	_ZN13UnitTestSuite12GetSuiteNameEv
 288      00
 289 001a 4889C2   		movq	%rax, %rdx
 290 001d 41B83500 		movl	$53, %r8d
 290      0000
 291 0023 488D0500 		leaq	.LC1(%rip), %rax
 291      000000
 292 002a 4889C1   		movq	%rax, %rcx
 293 002d 488D0500 		leaq	.LC2(%rip), %rax
 293      000000
 294 0034 4889C6   		movq	%rax, %rsi
 295 0037 4889DF   		movq	%rbx, %rdi
 296 003a E8000000 		call	_ZN8UnitTest4TestC2EPKcS2_S2_i@PLT
 296      00
 297 003f 488D1500 		leaq	16+_ZTV18TestQueue_testInit(%rip), %rdx
 297      000000
 298 0046 488B45E8 		movq	-24(%rbp), %rax
 299 004a 488910   		movq	%rdx, (%rax)
 300              	.LBE4:
 301 004d 90       		nop
 302 004e 488B5DF8 		movq	-8(%rbp), %rbx
 303 0052 C9       		leave
 304              		.cfi_def_cfa 7, 8
 305 0053 C3       		ret
 306              		.cfi_endproc
 307              	.LFE1163:
 309              		.weak	_ZN18TestQueue_testInitC1Ev
 310              		.set	_ZN18TestQueue_testInitC1Ev,_ZN18TestQueue_testInitC2Ev
 311              		.globl	testQueue_testInitInstance
 312              		.bss
 313              		.align 32
 316              	testQueue_testInitInstance:
 317 0000 00000000 		.zero	56
 317      00000000 
 317      00000000 
 317      00000000 
 317      00000000 
 318              		.globl	adderQueue_testInit
 321              	adderQueue_testInit:
 322 0038 00       		.zero	1
 323              		.section	.rodata
 324 0029 00000000 		.align 8
 324      000000
 325              	.LC3:
 326 0030 556E6861 		.string	"Unhandled exception in CHECK_EQUAL(USB_SUCCESS, status)"
 326      6E646C65 
 326      64206578 
 326      63657074 
 326      696F6E20 
 327              		.align 8
 328              	.LC4:
 329 0068 556E6861 		.string	"Unhandled exception in CHECK_EQUAL(4UL, queue.capacity)"
 329      6E646C65 
 329      64206578 
 329      63657074 
 329      696F6E20 
 330              		.align 8
 331              	.LC5:
 332 00a0 556E6861 		.string	"Unhandled exception in CHECK_EQUAL(0UL, queue.putIndex)"
 332      6E646C65 
 332      64206578 
 332      63657074 
 332      696F6E20 
 333              		.align 8
 334              	.LC6:
 335 00d8 556E6861 		.string	"Unhandled exception in CHECK_EQUAL(0UL, queue.takeIndex)"
 335      6E646C65 
 335      64206578 
 335      63657074 
 335      696F6E20 
 336 0111 00000000 		.align 8
 336      000000
 337              	.LC7:
 338 0118 556E6861 		.string	"Unhandled exception in CHECK_EQUAL(0UL, queue.numItems)"
 338      6E646C65 
 338      64206578 
 338      63657074 
 338      696F6E20 
 339              		.align 8
 340              	.LC8:
 341 0150 556E6861 		.string	"Unhandled exception in CHECK_EQUAL(1UL, deref(queue.itemArray[0]))"
 341      6E646C65 
 341      64206578 
 341      63657074 
 341      696F6E20 
 342 0193 00000000 		.align 8
 342      00
 343              	.LC9:
 344 0198 556E6861 		.string	"Unhandled exception in CHECK_EQUAL(2UL, deref(queue.itemArray[1]))"
 344      6E646C65 
 344      64206578 
 344      63657074 
 344      696F6E20 
 345 01db 00000000 		.align 8
 345      00
 346              	.LC10:
 347 01e0 556E6861 		.string	"Unhandled exception in CHECK_EQUAL(3UL, deref(queue.itemArray[2]))"
 347      6E646C65 
 347      64206578 
 347      63657074 
 347      696F6E20 
 348 0223 00000000 		.align 8
 348      00
 349              	.LC11:
 350 0228 556E6861 		.string	"Unhandled exception in CHECK_EQUAL(4UL, deref(queue.itemArray[3]))"
 350      6E646C65 
 350      64206578 
 350      63657074 
 350      696F6E20 
 351              		.text
 352              		.align 2
 353              		.globl	_ZNK18TestQueue_testInit7RunImplEv
 355              	_ZNK18TestQueue_testInit7RunImplEv:
 356              	.LFB1165:
 357              		.loc 3 53 22
 358              		.cfi_startproc
 359              		.cfi_personality 0x9b,DW.ref.__gxx_personality_v0
 360              		.cfi_lsda 0x1b,.LLSDA1165
 361 00a2 F30F1EFA 		endbr64
 362 00a6 55       		pushq	%rbp
 363              		.cfi_def_cfa_offset 16
 364              		.cfi_offset 6, -16
 365 00a7 4889E5   		movq	%rsp, %rbp
 366              		.cfi_def_cfa_register 6
 367 00aa 53       		pushq	%rbx
 368 00ab 4881EC88 		subq	$136, %rsp
 368      000000
 369              		.cfi_offset 3, -24
 370 00b2 4889BD78 		movq	%rdi, -136(%rbp)
 370      FFFFFF
 371              		.loc 3 53 22
 372 00b9 64488B04 		movq	%fs:40, %rax
 372      25280000 
 372      00
 373 00c2 488945E8 		movq	%rax, -24(%rbp)
 374 00c6 31C0     		xorl	%eax, %eax
  54:testCore.cpp  **** 	struct UnboundedQueue queue;
  55:testCore.cpp  **** 	m_count = 1;
 375              		.loc 3 55 10
 376 00c8 C7050000 		movl	$1, _ZL7m_count(%rip)
 376      00000100 
 376      0000
  56:testCore.cpp  **** 
  57:testCore.cpp  **** 	// Create queue
  58:testCore.cpp  **** 	USBStatus status = queueInit(&queue, 4, (CreateFunc)createInt, (DestroyFunc)destroyInt);
 377              		.loc 3 58 30
 378 00d2 488D45B0 		leaq	-80(%rbp), %rax
 379 00d6 488D1500 		leaq	destroyInt(%rip), %rdx
 379      000000
 380 00dd 4889D1   		movq	%rdx, %rcx
 381 00e0 488D1500 		leaq	createInt(%rip), %rdx
 381      000000
 382 00e7 BE040000 		movl	$4, %esi
 382      00
 383 00ec 4889C7   		movq	%rax, %rdi
 384              	.LEHB4:
 385 00ef E8000000 		call	queueInit@PLT
 385      00
 386              	.LEHE4:
 387              		.loc 3 58 88
 388 00f4 894580   		movl	%eax, -128(%rbp)
 389              	.LEHB5:
  59:testCore.cpp  **** 	CHECK_EQUAL(USB_SUCCESS, status);
 390              		.loc 3 59 2
 391 00f7 E8000000 		call	_ZN8UnitTest11CurrentTest7DetailsEv@PLT
 391      00
 392 00fc 488B08   		movq	(%rax), %rcx
 393 00ff 488D4590 		leaq	-112(%rbp), %rax
 394 0103 BA3B0000 		movl	$59, %edx
 394      00
 395 0108 4889CE   		movq	%rcx, %rsi
 396 010b 4889C7   		movq	%rax, %rdi
 397 010e E8000000 		call	_ZN8UnitTest11TestDetailsC1ERKS0_i@PLT
 397      00
 398              		.loc 3 59 2 is_stmt 0 discriminator 4
 399 0113 C7458800 		movl	$0, -120(%rbp)
 399      000000
 400 011a E8000000 		call	_ZN8UnitTest11CurrentTest7ResultsEv@PLT
 400      00
 401 011f 488B00   		movq	(%rax), %rax
 402 0122 488D4D90 		leaq	-112(%rbp), %rcx
 403 0126 488D5580 		leaq	-128(%rbp), %rdx
 404 012a 488D7588 		leaq	-120(%rbp), %rsi
 405 012e 4889C7   		movq	%rax, %rdi
 406 0131 E8000000 		call	_ZN8UnitTest10CheckEqualI9USBStatusS1_EEvRNS_11TestResultsERKT_RKT0_RKNS_11TestDetailsE
 406      00
 407              	.LEHE5:
 408              	.L21:
 409              	.LEHB6:
  60:testCore.cpp  **** 
  61:testCore.cpp  **** 	// Verify
  62:testCore.cpp  **** 	CHECK_EQUAL(4UL, queue.capacity);
 410              		.loc 3 62 2 is_stmt 1
 411 0136 E8000000 		call	_ZN8UnitTest11CurrentTest7DetailsEv@PLT
 411      00
 412 013b 488B08   		movq	(%rax), %rcx
 413 013e 488D4590 		leaq	-112(%rbp), %rax
 414 0142 BA3E0000 		movl	$62, %edx
 414      00
 415 0147 4889CE   		movq	%rcx, %rsi
 416 014a 4889C7   		movq	%rax, %rdi
 417 014d E8000000 		call	_ZN8UnitTest11TestDetailsC1ERKS0_i@PLT
 417      00
 418              		.loc 3 62 2 is_stmt 0 discriminator 4
 419 0152 48C74588 		movq	$4, -120(%rbp)
 419      04000000 
 420 015a E8000000 		call	_ZN8UnitTest11CurrentTest7ResultsEv@PLT
 420      00
 421 015f 488B00   		movq	(%rax), %rax
 422 0162 488D5590 		leaq	-112(%rbp), %rdx
 423 0166 488D4DB0 		leaq	-80(%rbp), %rcx
 424 016a 488D7908 		leaq	8(%rcx), %rdi
 425 016e 488D7588 		leaq	-120(%rbp), %rsi
 426 0172 4889D1   		movq	%rdx, %rcx
 427 0175 4889FA   		movq	%rdi, %rdx
 428 0178 4889C7   		movq	%rax, %rdi
 429 017b E8000000 		call	_ZN8UnitTest10CheckEqualImmEEvRNS_11TestResultsERKT_RKT0_RKNS_11TestDetailsE
 429      00
 430              	.LEHE6:
 431              	.L24:
 432              	.LEHB7:
  63:testCore.cpp  **** 	CHECK_EQUAL(0UL, queue.putIndex);
 433              		.loc 3 63 2 is_stmt 1
 434 0180 E8000000 		call	_ZN8UnitTest11CurrentTest7DetailsEv@PLT
 434      00
 435 0185 488B08   		movq	(%rax), %rcx
 436 0188 488D4590 		leaq	-112(%rbp), %rax
 437 018c BA3F0000 		movl	$63, %edx
 437      00
 438 0191 4889CE   		movq	%rcx, %rsi
 439 0194 4889C7   		movq	%rax, %rdi
 440 0197 E8000000 		call	_ZN8UnitTest11TestDetailsC1ERKS0_i@PLT
 440      00
 441              		.loc 3 63 2 is_stmt 0 discriminator 4
 442 019c 48C74588 		movq	$0, -120(%rbp)
 442      00000000 
 443 01a4 E8000000 		call	_ZN8UnitTest11CurrentTest7ResultsEv@PLT
 443      00
 444 01a9 488B00   		movq	(%rax), %rax
 445 01ac 488D5590 		leaq	-112(%rbp), %rdx
 446 01b0 488D4DB0 		leaq	-80(%rbp), %rcx
 447 01b4 488D7910 		leaq	16(%rcx), %rdi
 448 01b8 488D7588 		leaq	-120(%rbp), %rsi
 449 01bc 4889D1   		movq	%rdx, %rcx
 450 01bf 4889FA   		movq	%rdi, %rdx
 451 01c2 4889C7   		movq	%rax, %rdi
 452 01c5 E8000000 		call	_ZN8UnitTest10CheckEqualImmEEvRNS_11TestResultsERKT_RKT0_RKNS_11TestDetailsE
 452      00
 453              	.LEHE7:
 454              	.L27:
 455              	.LEHB8:
  64:testCore.cpp  **** 	CHECK_EQUAL(0UL, queue.takeIndex);
 456              		.loc 3 64 2 is_stmt 1
 457 01ca E8000000 		call	_ZN8UnitTest11CurrentTest7DetailsEv@PLT
 457      00
 458 01cf 488B08   		movq	(%rax), %rcx
 459 01d2 488D4590 		leaq	-112(%rbp), %rax
 460 01d6 BA400000 		movl	$64, %edx
 460      00
 461 01db 4889CE   		movq	%rcx, %rsi
 462 01de 4889C7   		movq	%rax, %rdi
 463 01e1 E8000000 		call	_ZN8UnitTest11TestDetailsC1ERKS0_i@PLT
 463      00
 464              		.loc 3 64 2 is_stmt 0 discriminator 4
 465 01e6 48C74588 		movq	$0, -120(%rbp)
 465      00000000 
 466 01ee E8000000 		call	_ZN8UnitTest11CurrentTest7ResultsEv@PLT
 466      00
 467 01f3 488B00   		movq	(%rax), %rax
 468 01f6 488D5590 		leaq	-112(%rbp), %rdx
 469 01fa 488D4DB0 		leaq	-80(%rbp), %rcx
 470 01fe 488D7918 		leaq	24(%rcx), %rdi
 471 0202 488D7588 		leaq	-120(%rbp), %rsi
 472 0206 4889D1   		movq	%rdx, %rcx
 473 0209 4889FA   		movq	%rdi, %rdx
 474 020c 4889C7   		movq	%rax, %rdi
 475 020f E8000000 		call	_ZN8UnitTest10CheckEqualImmEEvRNS_11TestResultsERKT_RKT0_RKNS_11TestDetailsE
 475      00
 476              	.LEHE8:
 477              	.L30:
 478              	.LEHB9:
  65:testCore.cpp  **** 	CHECK_EQUAL(0UL, queue.numItems);
 479              		.loc 3 65 2 is_stmt 1
 480 0214 E8000000 		call	_ZN8UnitTest11CurrentTest7DetailsEv@PLT
 480      00
 481 0219 488B08   		movq	(%rax), %rcx
 482 021c 488D4590 		leaq	-112(%rbp), %rax
 483 0220 BA410000 		movl	$65, %edx
 483      00
 484 0225 4889CE   		movq	%rcx, %rsi
 485 0228 4889C7   		movq	%rax, %rdi
 486 022b E8000000 		call	_ZN8UnitTest11TestDetailsC1ERKS0_i@PLT
 486      00
 487              		.loc 3 65 2 is_stmt 0 discriminator 4
 488 0230 48C74588 		movq	$0, -120(%rbp)
 488      00000000 
 489 0238 E8000000 		call	_ZN8UnitTest11CurrentTest7ResultsEv@PLT
 489      00
 490 023d 488B00   		movq	(%rax), %rax
 491 0240 488D5590 		leaq	-112(%rbp), %rdx
 492 0244 488D4DB0 		leaq	-80(%rbp), %rcx
 493 0248 488D7920 		leaq	32(%rcx), %rdi
 494 024c 488D7588 		leaq	-120(%rbp), %rsi
 495 0250 4889D1   		movq	%rdx, %rcx
 496 0253 4889FA   		movq	%rdi, %rdx
 497 0256 4889C7   		movq	%rax, %rdi
 498 0259 E8000000 		call	_ZN8UnitTest10CheckEqualImmEEvRNS_11TestResultsERKT_RKT0_RKNS_11TestDetailsE
 498      00
 499              	.LEHE9:
 500              	.L33:
 501              	.LEHB10:
  66:testCore.cpp  **** 
  67:testCore.cpp  **** 	// Verify array
  68:testCore.cpp  **** 	CHECK_EQUAL(1UL, deref(queue.itemArray[0]));
 502              		.loc 3 68 2 is_stmt 1
 503 025e E8000000 		call	_ZN8UnitTest11CurrentTest7DetailsEv@PLT
 503      00
 504 0263 488B08   		movq	(%rax), %rcx
 505 0266 488D4590 		leaq	-112(%rbp), %rax
 506 026a BA440000 		movl	$68, %edx
 506      00
 507 026f 4889CE   		movq	%rcx, %rsi
 508 0272 4889C7   		movq	%rax, %rdi
 509 0275 E8000000 		call	_ZN8UnitTest11TestDetailsC1ERKS0_i@PLT
 509      00
 510              		.loc 3 68 2 is_stmt 0 discriminator 4
 511 027a 488B45B0 		movq	-80(%rbp), %rax
 512 027e 488B00   		movq	(%rax), %rax
 513 0281 4889C7   		movq	%rax, %rdi
 514 0284 E809FEFF 		call	_ZL5derefPKv
 514      FF
 515 0289 894584   		movl	%eax, -124(%rbp)
 516 028c 48C74588 		movq	$1, -120(%rbp)
 516      01000000 
 517 0294 E8000000 		call	_ZN8UnitTest11CurrentTest7ResultsEv@PLT
 517      00
 518 0299 488B00   		movq	(%rax), %rax
 519 029c 488D4D90 		leaq	-112(%rbp), %rcx
 520 02a0 488D5584 		leaq	-124(%rbp), %rdx
 521 02a4 488D7588 		leaq	-120(%rbp), %rsi
 522 02a8 4889C7   		movq	%rax, %rdi
 523 02ab E8000000 		call	_ZN8UnitTest10CheckEqualImjEEvRNS_11TestResultsERKT_RKT0_RKNS_11TestDetailsE
 523      00
 524              	.LEHE10:
 525              	.L36:
 526              	.LEHB11:
  69:testCore.cpp  **** 	CHECK_EQUAL(2UL, deref(queue.itemArray[1]));
 527              		.loc 3 69 2 is_stmt 1
 528 02b0 E8000000 		call	_ZN8UnitTest11CurrentTest7DetailsEv@PLT
 528      00
 529 02b5 488B08   		movq	(%rax), %rcx
 530 02b8 488D4590 		leaq	-112(%rbp), %rax
 531 02bc BA450000 		movl	$69, %edx
 531      00
 532 02c1 4889CE   		movq	%rcx, %rsi
 533 02c4 4889C7   		movq	%rax, %rdi
 534 02c7 E8000000 		call	_ZN8UnitTest11TestDetailsC1ERKS0_i@PLT
 534      00
 535              		.loc 3 69 2 is_stmt 0 discriminator 4
 536 02cc 488B45B0 		movq	-80(%rbp), %rax
 537 02d0 4883C008 		addq	$8, %rax
 538 02d4 488B00   		movq	(%rax), %rax
 539 02d7 4889C7   		movq	%rax, %rdi
 540 02da E8B3FDFF 		call	_ZL5derefPKv
 540      FF
 541 02df 894584   		movl	%eax, -124(%rbp)
 542 02e2 48C74588 		movq	$2, -120(%rbp)
 542      02000000 
 543 02ea E8000000 		call	_ZN8UnitTest11CurrentTest7ResultsEv@PLT
 543      00
 544 02ef 488B00   		movq	(%rax), %rax
 545 02f2 488D4D90 		leaq	-112(%rbp), %rcx
 546 02f6 488D5584 		leaq	-124(%rbp), %rdx
 547 02fa 488D7588 		leaq	-120(%rbp), %rsi
 548 02fe 4889C7   		movq	%rax, %rdi
 549 0301 E8000000 		call	_ZN8UnitTest10CheckEqualImjEEvRNS_11TestResultsERKT_RKT0_RKNS_11TestDetailsE
 549      00
 550              	.LEHE11:
 551              	.L39:
 552              	.LEHB12:
  70:testCore.cpp  **** 	CHECK_EQUAL(3UL, deref(queue.itemArray[2]));
 553              		.loc 3 70 2 is_stmt 1
 554 0306 E8000000 		call	_ZN8UnitTest11CurrentTest7DetailsEv@PLT
 554      00
 555 030b 488B08   		movq	(%rax), %rcx
 556 030e 488D4590 		leaq	-112(%rbp), %rax
 557 0312 BA460000 		movl	$70, %edx
 557      00
 558 0317 4889CE   		movq	%rcx, %rsi
 559 031a 4889C7   		movq	%rax, %rdi
 560 031d E8000000 		call	_ZN8UnitTest11TestDetailsC1ERKS0_i@PLT
 560      00
 561              		.loc 3 70 2 is_stmt 0 discriminator 4
 562 0322 488B45B0 		movq	-80(%rbp), %rax
 563 0326 4883C010 		addq	$16, %rax
 564 032a 488B00   		movq	(%rax), %rax
 565 032d 4889C7   		movq	%rax, %rdi
 566 0330 E85DFDFF 		call	_ZL5derefPKv
 566      FF
 567 0335 894584   		movl	%eax, -124(%rbp)
 568 0338 48C74588 		movq	$3, -120(%rbp)
 568      03000000 
 569 0340 E8000000 		call	_ZN8UnitTest11CurrentTest7ResultsEv@PLT
 569      00
 570 0345 488B00   		movq	(%rax), %rax
 571 0348 488D4D90 		leaq	-112(%rbp), %rcx
 572 034c 488D5584 		leaq	-124(%rbp), %rdx
 573 0350 488D7588 		leaq	-120(%rbp), %rsi
 574 0354 4889C7   		movq	%rax, %rdi
 575 0357 E8000000 		call	_ZN8UnitTest10CheckEqualImjEEvRNS_11TestResultsERKT_RKT0_RKNS_11TestDetailsE
 575      00
 576              	.LEHE12:
 577              	.L42:
 578              	.LEHB13:
  71:testCore.cpp  **** 	CHECK_EQUAL(4UL, deref(queue.itemArray[3]));
 579              		.loc 3 71 2 is_stmt 1
 580 035c E8000000 		call	_ZN8UnitTest11CurrentTest7DetailsEv@PLT
 580      00
 581 0361 488B08   		movq	(%rax), %rcx
 582 0364 488D4590 		leaq	-112(%rbp), %rax
 583 0368 BA470000 		movl	$71, %edx
 583      00
 584 036d 4889CE   		movq	%rcx, %rsi
 585 0370 4889C7   		movq	%rax, %rdi
 586 0373 E8000000 		call	_ZN8UnitTest11TestDetailsC1ERKS0_i@PLT
 586      00
 587              		.loc 3 71 2 is_stmt 0 discriminator 4
 588 0378 488B45B0 		movq	-80(%rbp), %rax
 589 037c 4883C018 		addq	$24, %rax
 590 0380 488B00   		movq	(%rax), %rax
 591 0383 4889C7   		movq	%rax, %rdi
 592 0386 E807FDFF 		call	_ZL5derefPKv
 592      FF
 593 038b 894584   		movl	%eax, -124(%rbp)
 594 038e 48C74588 		movq	$4, -120(%rbp)
 594      04000000 
 595 0396 E8000000 		call	_ZN8UnitTest11CurrentTest7ResultsEv@PLT
 595      00
 596 039b 488B00   		movq	(%rax), %rax
 597 039e 488D4D90 		leaq	-112(%rbp), %rcx
 598 03a2 488D5584 		leaq	-124(%rbp), %rdx
 599 03a6 488D7588 		leaq	-120(%rbp), %rsi
 600 03aa 4889C7   		movq	%rax, %rdi
 601 03ad E8000000 		call	_ZN8UnitTest10CheckEqualImjEEvRNS_11TestResultsERKT_RKT0_RKNS_11TestDetailsE
 601      00
 602              	.LEHE13:
 603              	.L45:
  72:testCore.cpp  **** 
  73:testCore.cpp  **** 	// Clean up
  74:testCore.cpp  **** 	queueDestroy(&queue);
 604              		.loc 3 74 14 is_stmt 1
 605 03b2 488D45B0 		leaq	-80(%rbp), %rax
 606 03b6 4889C7   		movq	%rax, %rdi
 607              	.LEHB14:
 608 03b9 E8000000 		call	queueDestroy@PLT
 608      00
 609              	.LEHE14:
  75:testCore.cpp  **** }
 610              		.loc 3 75 1
 611 03be 90       		nop
 612 03bf 488B45E8 		movq	-24(%rbp), %rax
 613 03c3 64482B04 		subq	%fs:40, %rax
 613      25280000 
 613      00
 614 03cc 0F84A903 		je	.L47
 614      0000
 615 03d2 E99F0300 		jmp	.L66
 615      00
 616              	.L48:
 617 03d7 F30F1EFA 		endbr64
  59:testCore.cpp  **** 
 618              		.loc 3 59 2
 619 03db 4889C7   		movq	%rax, %rdi
 620 03de E8000000 		call	__cxa_begin_catch@PLT
 620      00
 621              	.LEHB15:
 622 03e3 E8000000 		call	_ZN8UnitTest11CurrentTest7ResultsEv@PLT
 622      00
  59:testCore.cpp  **** 
 623              		.loc 3 59 2 is_stmt 0 discriminator 3
 624 03e8 488B18   		movq	(%rax), %rbx
 625 03eb E8000000 		call	_ZN8UnitTest11CurrentTest7DetailsEv@PLT
 625      00
  59:testCore.cpp  **** 
 626              		.loc 3 59 2 discriminator 11
 627 03f0 488B08   		movq	(%rax), %rcx
 628 03f3 488D4590 		leaq	-112(%rbp), %rax
 629 03f7 BA3B0000 		movl	$59, %edx
 629      00
 630 03fc 4889CE   		movq	%rcx, %rsi
 631 03ff 4889C7   		movq	%rax, %rdi
 632 0402 E8000000 		call	_ZN8UnitTest11TestDetailsC1ERKS0_i@PLT
 632      00
  59:testCore.cpp  **** 
 633              		.loc 3 59 2 discriminator 15
 634 0407 488D4590 		leaq	-112(%rbp), %rax
 635 040b 488D1500 		leaq	.LC3(%rip), %rdx
 635      000000
 636 0412 4889C6   		movq	%rax, %rsi
 637 0415 4889DF   		movq	%rbx, %rdi
 638 0418 E8000000 		call	_ZN8UnitTest11TestResults13OnTestFailureERKNS_11TestDetailsEPKc@PLT
 638      00
 639              	.LEHE15:
 640              	.LEHB16:
  59:testCore.cpp  **** 
 641              		.loc 3 59 2 discriminator 17
 642 041d E8000000 		call	__cxa_end_catch@PLT
 642      00
 643              	.LEHE16:
 644 0422 E90FFDFF 		jmp	.L21
 644      FF
 645              	.L49:
 646 0427 F30F1EFA 		endbr64
  59:testCore.cpp  **** 
 647              		.loc 3 59 2
 648 042b 4889C3   		movq	%rax, %rbx
 649 042e E8000000 		call	__cxa_end_catch@PLT
 649      00
 650 0433 4889D8   		movq	%rbx, %rax
 651 0436 4889C7   		movq	%rax, %rdi
 652              	.LEHB17:
 653 0439 E8000000 		call	_Unwind_Resume@PLT
 653      00
 654              	.LEHE17:
 655              	.L50:
 656 043e F30F1EFA 		endbr64
  62:testCore.cpp  **** 	CHECK_EQUAL(0UL, queue.putIndex);
 657              		.loc 3 62 2 is_stmt 1
 658 0442 4889C7   		movq	%rax, %rdi
 659 0445 E8000000 		call	__cxa_begin_catch@PLT
 659      00
 660              	.LEHB18:
 661 044a E8000000 		call	_ZN8UnitTest11CurrentTest7ResultsEv@PLT
 661      00
  62:testCore.cpp  **** 	CHECK_EQUAL(0UL, queue.putIndex);
 662              		.loc 3 62 2 is_stmt 0 discriminator 3
 663 044f 488B18   		movq	(%rax), %rbx
 664 0452 E8000000 		call	_ZN8UnitTest11CurrentTest7DetailsEv@PLT
 664      00
  62:testCore.cpp  **** 	CHECK_EQUAL(0UL, queue.putIndex);
 665              		.loc 3 62 2 discriminator 11
 666 0457 488B08   		movq	(%rax), %rcx
 667 045a 488D4590 		leaq	-112(%rbp), %rax
 668 045e BA3E0000 		movl	$62, %edx
 668      00
 669 0463 4889CE   		movq	%rcx, %rsi
 670 0466 4889C7   		movq	%rax, %rdi
 671 0469 E8000000 		call	_ZN8UnitTest11TestDetailsC1ERKS0_i@PLT
 671      00
  62:testCore.cpp  **** 	CHECK_EQUAL(0UL, queue.putIndex);
 672              		.loc 3 62 2 discriminator 15
 673 046e 488D4590 		leaq	-112(%rbp), %rax
 674 0472 488D1500 		leaq	.LC4(%rip), %rdx
 674      000000
 675 0479 4889C6   		movq	%rax, %rsi
 676 047c 4889DF   		movq	%rbx, %rdi
 677 047f E8000000 		call	_ZN8UnitTest11TestResults13OnTestFailureERKNS_11TestDetailsEPKc@PLT
 677      00
 678              	.LEHE18:
 679              	.LEHB19:
  62:testCore.cpp  **** 	CHECK_EQUAL(0UL, queue.putIndex);
 680              		.loc 3 62 2 discriminator 17
 681 0484 E8000000 		call	__cxa_end_catch@PLT
 681      00
 682              	.LEHE19:
 683 0489 E9F2FCFF 		jmp	.L24
 683      FF
 684              	.L51:
 685 048e F30F1EFA 		endbr64
  62:testCore.cpp  **** 	CHECK_EQUAL(0UL, queue.putIndex);
 686              		.loc 3 62 2
 687 0492 4889C3   		movq	%rax, %rbx
 688 0495 E8000000 		call	__cxa_end_catch@PLT
 688      00
 689 049a 4889D8   		movq	%rbx, %rax
 690 049d 4889C7   		movq	%rax, %rdi
 691              	.LEHB20:
 692 04a0 E8000000 		call	_Unwind_Resume@PLT
 692      00
 693              	.LEHE20:
 694              	.L52:
 695 04a5 F30F1EFA 		endbr64
  63:testCore.cpp  **** 	CHECK_EQUAL(0UL, queue.takeIndex);
 696              		.loc 3 63 2 is_stmt 1
 697 04a9 4889C7   		movq	%rax, %rdi
 698 04ac E8000000 		call	__cxa_begin_catch@PLT
 698      00
 699              	.LEHB21:
 700 04b1 E8000000 		call	_ZN8UnitTest11CurrentTest7ResultsEv@PLT
 700      00
  63:testCore.cpp  **** 	CHECK_EQUAL(0UL, queue.takeIndex);
 701              		.loc 3 63 2 is_stmt 0 discriminator 3
 702 04b6 488B18   		movq	(%rax), %rbx
 703 04b9 E8000000 		call	_ZN8UnitTest11CurrentTest7DetailsEv@PLT
 703      00
  63:testCore.cpp  **** 	CHECK_EQUAL(0UL, queue.takeIndex);
 704              		.loc 3 63 2 discriminator 11
 705 04be 488B08   		movq	(%rax), %rcx
 706 04c1 488D4590 		leaq	-112(%rbp), %rax
 707 04c5 BA3F0000 		movl	$63, %edx
 707      00
 708 04ca 4889CE   		movq	%rcx, %rsi
 709 04cd 4889C7   		movq	%rax, %rdi
 710 04d0 E8000000 		call	_ZN8UnitTest11TestDetailsC1ERKS0_i@PLT
 710      00
  63:testCore.cpp  **** 	CHECK_EQUAL(0UL, queue.takeIndex);
 711              		.loc 3 63 2 discriminator 15
 712 04d5 488D4590 		leaq	-112(%rbp), %rax
 713 04d9 488D1500 		leaq	.LC5(%rip), %rdx
 713      000000
 714 04e0 4889C6   		movq	%rax, %rsi
 715 04e3 4889DF   		movq	%rbx, %rdi
 716 04e6 E8000000 		call	_ZN8UnitTest11TestResults13OnTestFailureERKNS_11TestDetailsEPKc@PLT
 716      00
 717              	.LEHE21:
 718              	.LEHB22:
  63:testCore.cpp  **** 	CHECK_EQUAL(0UL, queue.takeIndex);
 719              		.loc 3 63 2 discriminator 17
 720 04eb E8000000 		call	__cxa_end_catch@PLT
 720      00
 721              	.LEHE22:
 722 04f0 E9D5FCFF 		jmp	.L27
 722      FF
 723              	.L53:
 724 04f5 F30F1EFA 		endbr64
  63:testCore.cpp  **** 	CHECK_EQUAL(0UL, queue.takeIndex);
 725              		.loc 3 63 2
 726 04f9 4889C3   		movq	%rax, %rbx
 727 04fc E8000000 		call	__cxa_end_catch@PLT
 727      00
 728 0501 4889D8   		movq	%rbx, %rax
 729 0504 4889C7   		movq	%rax, %rdi
 730              	.LEHB23:
 731 0507 E8000000 		call	_Unwind_Resume@PLT
 731      00
 732              	.LEHE23:
 733              	.L54:
 734 050c F30F1EFA 		endbr64
  64:testCore.cpp  **** 	CHECK_EQUAL(0UL, queue.numItems);
 735              		.loc 3 64 2 is_stmt 1
 736 0510 4889C7   		movq	%rax, %rdi
 737 0513 E8000000 		call	__cxa_begin_catch@PLT
 737      00
 738              	.LEHB24:
 739 0518 E8000000 		call	_ZN8UnitTest11CurrentTest7ResultsEv@PLT
 739      00
  64:testCore.cpp  **** 	CHECK_EQUAL(0UL, queue.numItems);
 740              		.loc 3 64 2 is_stmt 0 discriminator 3
 741 051d 488B18   		movq	(%rax), %rbx
 742 0520 E8000000 		call	_ZN8UnitTest11CurrentTest7DetailsEv@PLT
 742      00
  64:testCore.cpp  **** 	CHECK_EQUAL(0UL, queue.numItems);
 743              		.loc 3 64 2 discriminator 11
 744 0525 488B08   		movq	(%rax), %rcx
 745 0528 488D4590 		leaq	-112(%rbp), %rax
 746 052c BA400000 		movl	$64, %edx
 746      00
 747 0531 4889CE   		movq	%rcx, %rsi
 748 0534 4889C7   		movq	%rax, %rdi
 749 0537 E8000000 		call	_ZN8UnitTest11TestDetailsC1ERKS0_i@PLT
 749      00
  64:testCore.cpp  **** 	CHECK_EQUAL(0UL, queue.numItems);
 750              		.loc 3 64 2 discriminator 15
 751 053c 488D4590 		leaq	-112(%rbp), %rax
 752 0540 488D1500 		leaq	.LC6(%rip), %rdx
 752      000000
 753 0547 4889C6   		movq	%rax, %rsi
 754 054a 4889DF   		movq	%rbx, %rdi
 755 054d E8000000 		call	_ZN8UnitTest11TestResults13OnTestFailureERKNS_11TestDetailsEPKc@PLT
 755      00
 756              	.LEHE24:
 757              	.LEHB25:
  64:testCore.cpp  **** 	CHECK_EQUAL(0UL, queue.numItems);
 758              		.loc 3 64 2 discriminator 17
 759 0552 E8000000 		call	__cxa_end_catch@PLT
 759      00
 760              	.LEHE25:
 761 0557 E9B8FCFF 		jmp	.L30
 761      FF
 762              	.L55:
 763 055c F30F1EFA 		endbr64
  64:testCore.cpp  **** 	CHECK_EQUAL(0UL, queue.numItems);
 764              		.loc 3 64 2
 765 0560 4889C3   		movq	%rax, %rbx
 766 0563 E8000000 		call	__cxa_end_catch@PLT
 766      00
 767 0568 4889D8   		movq	%rbx, %rax
 768 056b 4889C7   		movq	%rax, %rdi
 769              	.LEHB26:
 770 056e E8000000 		call	_Unwind_Resume@PLT
 770      00
 771              	.LEHE26:
 772              	.L56:
 773 0573 F30F1EFA 		endbr64
  65:testCore.cpp  **** 
 774              		.loc 3 65 2 is_stmt 1
 775 0577 4889C7   		movq	%rax, %rdi
 776 057a E8000000 		call	__cxa_begin_catch@PLT
 776      00
 777              	.LEHB27:
 778 057f E8000000 		call	_ZN8UnitTest11CurrentTest7ResultsEv@PLT
 778      00
  65:testCore.cpp  **** 
 779              		.loc 3 65 2 is_stmt 0 discriminator 3
 780 0584 488B18   		movq	(%rax), %rbx
 781 0587 E8000000 		call	_ZN8UnitTest11CurrentTest7DetailsEv@PLT
 781      00
  65:testCore.cpp  **** 
 782              		.loc 3 65 2 discriminator 11
 783 058c 488B08   		movq	(%rax), %rcx
 784 058f 488D4590 		leaq	-112(%rbp), %rax
 785 0593 BA410000 		movl	$65, %edx
 785      00
 786 0598 4889CE   		movq	%rcx, %rsi
 787 059b 4889C7   		movq	%rax, %rdi
 788 059e E8000000 		call	_ZN8UnitTest11TestDetailsC1ERKS0_i@PLT
 788      00
  65:testCore.cpp  **** 
 789              		.loc 3 65 2 discriminator 15
 790 05a3 488D4590 		leaq	-112(%rbp), %rax
 791 05a7 488D1500 		leaq	.LC7(%rip), %rdx
 791      000000
 792 05ae 4889C6   		movq	%rax, %rsi
 793 05b1 4889DF   		movq	%rbx, %rdi
 794 05b4 E8000000 		call	_ZN8UnitTest11TestResults13OnTestFailureERKNS_11TestDetailsEPKc@PLT
 794      00
 795              	.LEHE27:
 796              	.LEHB28:
  65:testCore.cpp  **** 
 797              		.loc 3 65 2 discriminator 17
 798 05b9 E8000000 		call	__cxa_end_catch@PLT
 798      00
 799              	.LEHE28:
 800 05be E99BFCFF 		jmp	.L33
 800      FF
 801              	.L57:
 802 05c3 F30F1EFA 		endbr64
  65:testCore.cpp  **** 
 803              		.loc 3 65 2
 804 05c7 4889C3   		movq	%rax, %rbx
 805 05ca E8000000 		call	__cxa_end_catch@PLT
 805      00
 806 05cf 4889D8   		movq	%rbx, %rax
 807 05d2 4889C7   		movq	%rax, %rdi
 808              	.LEHB29:
 809 05d5 E8000000 		call	_Unwind_Resume@PLT
 809      00
 810              	.LEHE29:
 811              	.L58:
 812 05da F30F1EFA 		endbr64
  68:testCore.cpp  **** 	CHECK_EQUAL(2UL, deref(queue.itemArray[1]));
 813              		.loc 3 68 2 is_stmt 1
 814 05de 4889C7   		movq	%rax, %rdi
 815 05e1 E8000000 		call	__cxa_begin_catch@PLT
 815      00
 816              	.LEHB30:
 817 05e6 E8000000 		call	_ZN8UnitTest11CurrentTest7ResultsEv@PLT
 817      00
  68:testCore.cpp  **** 	CHECK_EQUAL(2UL, deref(queue.itemArray[1]));
 818              		.loc 3 68 2 is_stmt 0 discriminator 3
 819 05eb 488B18   		movq	(%rax), %rbx
 820 05ee E8000000 		call	_ZN8UnitTest11CurrentTest7DetailsEv@PLT
 820      00
  68:testCore.cpp  **** 	CHECK_EQUAL(2UL, deref(queue.itemArray[1]));
 821              		.loc 3 68 2 discriminator 11
 822 05f3 488B08   		movq	(%rax), %rcx
 823 05f6 488D4590 		leaq	-112(%rbp), %rax
 824 05fa BA440000 		movl	$68, %edx
 824      00
 825 05ff 4889CE   		movq	%rcx, %rsi
 826 0602 4889C7   		movq	%rax, %rdi
 827 0605 E8000000 		call	_ZN8UnitTest11TestDetailsC1ERKS0_i@PLT
 827      00
  68:testCore.cpp  **** 	CHECK_EQUAL(2UL, deref(queue.itemArray[1]));
 828              		.loc 3 68 2 discriminator 15
 829 060a 488D4590 		leaq	-112(%rbp), %rax
 830 060e 488D1500 		leaq	.LC8(%rip), %rdx
 830      000000
 831 0615 4889C6   		movq	%rax, %rsi
 832 0618 4889DF   		movq	%rbx, %rdi
 833 061b E8000000 		call	_ZN8UnitTest11TestResults13OnTestFailureERKNS_11TestDetailsEPKc@PLT
 833      00
 834              	.LEHE30:
 835              	.LEHB31:
  68:testCore.cpp  **** 	CHECK_EQUAL(2UL, deref(queue.itemArray[1]));
 836              		.loc 3 68 2 discriminator 17
 837 0620 E8000000 		call	__cxa_end_catch@PLT
 837      00
 838              	.LEHE31:
 839 0625 E986FCFF 		jmp	.L36
 839      FF
 840              	.L59:
 841 062a F30F1EFA 		endbr64
  68:testCore.cpp  **** 	CHECK_EQUAL(2UL, deref(queue.itemArray[1]));
 842              		.loc 3 68 2
 843 062e 4889C3   		movq	%rax, %rbx
 844 0631 E8000000 		call	__cxa_end_catch@PLT
 844      00
 845 0636 4889D8   		movq	%rbx, %rax
 846 0639 4889C7   		movq	%rax, %rdi
 847              	.LEHB32:
 848 063c E8000000 		call	_Unwind_Resume@PLT
 848      00
 849              	.LEHE32:
 850              	.L60:
 851 0641 F30F1EFA 		endbr64
  69:testCore.cpp  **** 	CHECK_EQUAL(3UL, deref(queue.itemArray[2]));
 852              		.loc 3 69 2 is_stmt 1
 853 0645 4889C7   		movq	%rax, %rdi
 854 0648 E8000000 		call	__cxa_begin_catch@PLT
 854      00
 855              	.LEHB33:
 856 064d E8000000 		call	_ZN8UnitTest11CurrentTest7ResultsEv@PLT
 856      00
  69:testCore.cpp  **** 	CHECK_EQUAL(3UL, deref(queue.itemArray[2]));
 857              		.loc 3 69 2 is_stmt 0 discriminator 3
 858 0652 488B18   		movq	(%rax), %rbx
 859 0655 E8000000 		call	_ZN8UnitTest11CurrentTest7DetailsEv@PLT
 859      00
  69:testCore.cpp  **** 	CHECK_EQUAL(3UL, deref(queue.itemArray[2]));
 860              		.loc 3 69 2 discriminator 11
 861 065a 488B08   		movq	(%rax), %rcx
 862 065d 488D4590 		leaq	-112(%rbp), %rax
 863 0661 BA450000 		movl	$69, %edx
 863      00
 864 0666 4889CE   		movq	%rcx, %rsi
 865 0669 4889C7   		movq	%rax, %rdi
 866 066c E8000000 		call	_ZN8UnitTest11TestDetailsC1ERKS0_i@PLT
 866      00
  69:testCore.cpp  **** 	CHECK_EQUAL(3UL, deref(queue.itemArray[2]));
 867              		.loc 3 69 2 discriminator 15
 868 0671 488D4590 		leaq	-112(%rbp), %rax
 869 0675 488D1500 		leaq	.LC9(%rip), %rdx
 869      000000
 870 067c 4889C6   		movq	%rax, %rsi
 871 067f 4889DF   		movq	%rbx, %rdi
 872 0682 E8000000 		call	_ZN8UnitTest11TestResults13OnTestFailureERKNS_11TestDetailsEPKc@PLT
 872      00
 873              	.LEHE33:
 874              	.LEHB34:
  69:testCore.cpp  **** 	CHECK_EQUAL(3UL, deref(queue.itemArray[2]));
 875              		.loc 3 69 2 discriminator 17
 876 0687 E8000000 		call	__cxa_end_catch@PLT
 876      00
 877              	.LEHE34:
 878 068c E975FCFF 		jmp	.L39
 878      FF
 879              	.L61:
 880 0691 F30F1EFA 		endbr64
  69:testCore.cpp  **** 	CHECK_EQUAL(3UL, deref(queue.itemArray[2]));
 881              		.loc 3 69 2
 882 0695 4889C3   		movq	%rax, %rbx
 883 0698 E8000000 		call	__cxa_end_catch@PLT
 883      00
 884 069d 4889D8   		movq	%rbx, %rax
 885 06a0 4889C7   		movq	%rax, %rdi
 886              	.LEHB35:
 887 06a3 E8000000 		call	_Unwind_Resume@PLT
 887      00
 888              	.LEHE35:
 889              	.L62:
 890 06a8 F30F1EFA 		endbr64
  70:testCore.cpp  **** 	CHECK_EQUAL(4UL, deref(queue.itemArray[3]));
 891              		.loc 3 70 2 is_stmt 1
 892 06ac 4889C7   		movq	%rax, %rdi
 893 06af E8000000 		call	__cxa_begin_catch@PLT
 893      00
 894              	.LEHB36:
 895 06b4 E8000000 		call	_ZN8UnitTest11CurrentTest7ResultsEv@PLT
 895      00
  70:testCore.cpp  **** 	CHECK_EQUAL(4UL, deref(queue.itemArray[3]));
 896              		.loc 3 70 2 is_stmt 0 discriminator 3
 897 06b9 488B18   		movq	(%rax), %rbx
 898 06bc E8000000 		call	_ZN8UnitTest11CurrentTest7DetailsEv@PLT
 898      00
  70:testCore.cpp  **** 	CHECK_EQUAL(4UL, deref(queue.itemArray[3]));
 899              		.loc 3 70 2 discriminator 11
 900 06c1 488B08   		movq	(%rax), %rcx
 901 06c4 488D4590 		leaq	-112(%rbp), %rax
 902 06c8 BA460000 		movl	$70, %edx
 902      00
 903 06cd 4889CE   		movq	%rcx, %rsi
 904 06d0 4889C7   		movq	%rax, %rdi
 905 06d3 E8000000 		call	_ZN8UnitTest11TestDetailsC1ERKS0_i@PLT
 905      00
  70:testCore.cpp  **** 	CHECK_EQUAL(4UL, deref(queue.itemArray[3]));
 906              		.loc 3 70 2 discriminator 15
 907 06d8 488D4590 		leaq	-112(%rbp), %rax
 908 06dc 488D1500 		leaq	.LC10(%rip), %rdx
 908      000000
 909 06e3 4889C6   		movq	%rax, %rsi
 910 06e6 4889DF   		movq	%rbx, %rdi
 911 06e9 E8000000 		call	_ZN8UnitTest11TestResults13OnTestFailureERKNS_11TestDetailsEPKc@PLT
 911      00
 912              	.LEHE36:
 913              	.LEHB37:
  70:testCore.cpp  **** 	CHECK_EQUAL(4UL, deref(queue.itemArray[3]));
 914              		.loc 3 70 2 discriminator 17
 915 06ee E8000000 		call	__cxa_end_catch@PLT
 915      00
 916              	.LEHE37:
 917 06f3 E964FCFF 		jmp	.L42
 917      FF
 918              	.L63:
 919 06f8 F30F1EFA 		endbr64
  70:testCore.cpp  **** 	CHECK_EQUAL(4UL, deref(queue.itemArray[3]));
 920              		.loc 3 70 2
 921 06fc 4889C3   		movq	%rax, %rbx
 922 06ff E8000000 		call	__cxa_end_catch@PLT
 922      00
 923 0704 4889D8   		movq	%rbx, %rax
 924 0707 4889C7   		movq	%rax, %rdi
 925              	.LEHB38:
 926 070a E8000000 		call	_Unwind_Resume@PLT
 926      00
 927              	.LEHE38:
 928              	.L64:
 929 070f F30F1EFA 		endbr64
  71:testCore.cpp  **** 
 930              		.loc 3 71 2 is_stmt 1
 931 0713 4889C7   		movq	%rax, %rdi
 932 0716 E8000000 		call	__cxa_begin_catch@PLT
 932      00
 933              	.LEHB39:
 934 071b E8000000 		call	_ZN8UnitTest11CurrentTest7ResultsEv@PLT
 934      00
  71:testCore.cpp  **** 
 935              		.loc 3 71 2 is_stmt 0 discriminator 3
 936 0720 488B18   		movq	(%rax), %rbx
 937 0723 E8000000 		call	_ZN8UnitTest11CurrentTest7DetailsEv@PLT
 937      00
  71:testCore.cpp  **** 
 938              		.loc 3 71 2 discriminator 11
 939 0728 488B08   		movq	(%rax), %rcx
 940 072b 488D4590 		leaq	-112(%rbp), %rax
 941 072f BA470000 		movl	$71, %edx
 941      00
 942 0734 4889CE   		movq	%rcx, %rsi
 943 0737 4889C7   		movq	%rax, %rdi
 944 073a E8000000 		call	_ZN8UnitTest11TestDetailsC1ERKS0_i@PLT
 944      00
  71:testCore.cpp  **** 
 945              		.loc 3 71 2 discriminator 15
 946 073f 488D4590 		leaq	-112(%rbp), %rax
 947 0743 488D1500 		leaq	.LC11(%rip), %rdx
 947      000000
 948 074a 4889C6   		movq	%rax, %rsi
 949 074d 4889DF   		movq	%rbx, %rdi
 950 0750 E8000000 		call	_ZN8UnitTest11TestResults13OnTestFailureERKNS_11TestDetailsEPKc@PLT
 950      00
 951              	.LEHE39:
 952              	.LEHB40:
  71:testCore.cpp  **** 
 953              		.loc 3 71 2 discriminator 17
 954 0755 E8000000 		call	__cxa_end_catch@PLT
 954      00
 955              	.LEHE40:
 956 075a E953FCFF 		jmp	.L45
 956      FF
 957              	.L65:
 958 075f F30F1EFA 		endbr64
  71:testCore.cpp  **** 
 959              		.loc 3 71 2
 960 0763 4889C3   		movq	%rax, %rbx
 961 0766 E8000000 		call	__cxa_end_catch@PLT
 961      00
 962 076b 4889D8   		movq	%rbx, %rax
 963 076e 4889C7   		movq	%rax, %rdi
 964              	.LEHB41:
 965 0771 E8000000 		call	_Unwind_Resume@PLT
 965      00
 966              	.LEHE41:
 967              	.L66:
 968              		.loc 3 75 1 is_stmt 1
 969 0776 E8000000 		call	__stack_chk_fail@PLT
 969      00
 970              	.L47:
 971 077b 488B5DF8 		movq	-8(%rbp), %rbx
 972 077f C9       		leave
 973              		.cfi_def_cfa 7, 8
 974 0780 C3       		ret
 975              		.cfi_endproc
 976              	.LFE1165:
 977              		.section	.gcc_except_table,"a",@progbits
 978              		.align 4
 979              	.LLSDA1165:
 980 0000 FF       		.byte	0xff
 981 0001 9B       		.byte	0x9b
 982 0002 D801     		.uleb128 .LLSDATT1165-.LLSDATTD1165
 983              	.LLSDATTD1165:
 984 0004 01       		.byte	0x1
 985 0005 CE01     		.uleb128 .LLSDACSE1165-.LLSDACSB1165
 986              	.LLSDACSB1165:
 987 0007 4D       		.uleb128 .LEHB4-.LFB1165
 988 0008 05       		.uleb128 .LEHE4-.LEHB4
 989 0009 00       		.uleb128 0
 990 000a 00       		.uleb128 0
 991 000b 55       		.uleb128 .LEHB5-.LFB1165
 992 000c 3F       		.uleb128 .LEHE5-.LEHB5
 993 000d B506     		.uleb128 .L48-.LFB1165
 994 000f 01       		.uleb128 0x1
 995 0010 9401     		.uleb128 .LEHB6-.LFB1165
 996 0012 4A       		.uleb128 .LEHE6-.LEHB6
 997 0013 9C07     		.uleb128 .L50-.LFB1165
 998 0015 01       		.uleb128 0x1
 999 0016 DE01     		.uleb128 .LEHB7-.LFB1165
 1000 0018 4A       		.uleb128 .LEHE7-.LEHB7
 1001 0019 8308     		.uleb128 .L52-.LFB1165
 1002 001b 01       		.uleb128 0x1
 1003 001c A802     		.uleb128 .LEHB8-.LFB1165
 1004 001e 4A       		.uleb128 .LEHE8-.LEHB8
 1005 001f EA08     		.uleb128 .L54-.LFB1165
 1006 0021 01       		.uleb128 0x1
 1007 0022 F202     		.uleb128 .LEHB9-.LFB1165
 1008 0024 4A       		.uleb128 .LEHE9-.LEHB9
 1009 0025 D109     		.uleb128 .L56-.LFB1165
 1010 0027 01       		.uleb128 0x1
 1011 0028 BC03     		.uleb128 .LEHB10-.LFB1165
 1012 002a 52       		.uleb128 .LEHE10-.LEHB10
 1013 002b B80A     		.uleb128 .L58-.LFB1165
 1014 002d 01       		.uleb128 0x1
 1015 002e 8E04     		.uleb128 .LEHB11-.LFB1165
 1016 0030 56       		.uleb128 .LEHE11-.LEHB11
 1017 0031 9F0B     		.uleb128 .L60-.LFB1165
 1018 0033 01       		.uleb128 0x1
 1019 0034 E404     		.uleb128 .LEHB12-.LFB1165
 1020 0036 56       		.uleb128 .LEHE12-.LEHB12
 1021 0037 860C     		.uleb128 .L62-.LFB1165
 1022 0039 01       		.uleb128 0x1
 1023 003a BA05     		.uleb128 .LEHB13-.LFB1165
 1024 003c 56       		.uleb128 .LEHE13-.LEHB13
 1025 003d ED0C     		.uleb128 .L64-.LFB1165
 1026 003f 01       		.uleb128 0x1
 1027 0040 9706     		.uleb128 .LEHB14-.LFB1165
 1028 0042 05       		.uleb128 .LEHE14-.LEHB14
 1029 0043 00       		.uleb128 0
 1030 0044 00       		.uleb128 0
 1031 0045 C106     		.uleb128 .LEHB15-.LFB1165
 1032 0047 3A       		.uleb128 .LEHE15-.LEHB15
 1033 0048 8507     		.uleb128 .L49-.LFB1165
 1034 004a 00       		.uleb128 0
 1035 004b FB06     		.uleb128 .LEHB16-.LFB1165
 1036 004d 05       		.uleb128 .LEHE16-.LEHB16
 1037 004e 00       		.uleb128 0
 1038 004f 00       		.uleb128 0
 1039 0050 9707     		.uleb128 .LEHB17-.LFB1165
 1040 0052 05       		.uleb128 .LEHE17-.LEHB17
 1041 0053 00       		.uleb128 0
 1042 0054 00       		.uleb128 0
 1043 0055 A807     		.uleb128 .LEHB18-.LFB1165
 1044 0057 3A       		.uleb128 .LEHE18-.LEHB18
 1045 0058 EC07     		.uleb128 .L51-.LFB1165
 1046 005a 00       		.uleb128 0
 1047 005b E207     		.uleb128 .LEHB19-.LFB1165
 1048 005d 05       		.uleb128 .LEHE19-.LEHB19
 1049 005e 00       		.uleb128 0
 1050 005f 00       		.uleb128 0
 1051 0060 FE07     		.uleb128 .LEHB20-.LFB1165
 1052 0062 05       		.uleb128 .LEHE20-.LEHB20
 1053 0063 00       		.uleb128 0
 1054 0064 00       		.uleb128 0
 1055 0065 8F08     		.uleb128 .LEHB21-.LFB1165
 1056 0067 3A       		.uleb128 .LEHE21-.LEHB21
 1057 0068 D308     		.uleb128 .L53-.LFB1165
 1058 006a 00       		.uleb128 0
 1059 006b C908     		.uleb128 .LEHB22-.LFB1165
 1060 006d 05       		.uleb128 .LEHE22-.LEHB22
 1061 006e 00       		.uleb128 0
 1062 006f 00       		.uleb128 0
 1063 0070 E508     		.uleb128 .LEHB23-.LFB1165
 1064 0072 05       		.uleb128 .LEHE23-.LEHB23
 1065 0073 00       		.uleb128 0
 1066 0074 00       		.uleb128 0
 1067 0075 F608     		.uleb128 .LEHB24-.LFB1165
 1068 0077 3A       		.uleb128 .LEHE24-.LEHB24
 1069 0078 BA09     		.uleb128 .L55-.LFB1165
 1070 007a 00       		.uleb128 0
 1071 007b B009     		.uleb128 .LEHB25-.LFB1165
 1072 007d 05       		.uleb128 .LEHE25-.LEHB25
 1073 007e 00       		.uleb128 0
 1074 007f 00       		.uleb128 0
 1075 0080 CC09     		.uleb128 .LEHB26-.LFB1165
 1076 0082 05       		.uleb128 .LEHE26-.LEHB26
 1077 0083 00       		.uleb128 0
 1078 0084 00       		.uleb128 0
 1079 0085 DD09     		.uleb128 .LEHB27-.LFB1165
 1080 0087 3A       		.uleb128 .LEHE27-.LEHB27
 1081 0088 A10A     		.uleb128 .L57-.LFB1165
 1082 008a 00       		.uleb128 0
 1083 008b 970A     		.uleb128 .LEHB28-.LFB1165
 1084 008d 05       		.uleb128 .LEHE28-.LEHB28
 1085 008e 00       		.uleb128 0
 1086 008f 00       		.uleb128 0
 1087 0090 B30A     		.uleb128 .LEHB29-.LFB1165
 1088 0092 05       		.uleb128 .LEHE29-.LEHB29
 1089 0093 00       		.uleb128 0
 1090 0094 00       		.uleb128 0
 1091 0095 C40A     		.uleb128 .LEHB30-.LFB1165
 1092 0097 3A       		.uleb128 .LEHE30-.LEHB30
 1093 0098 880B     		.uleb128 .L59-.LFB1165
 1094 009a 00       		.uleb128 0
 1095 009b FE0A     		.uleb128 .LEHB31-.LFB1165
 1096 009d 05       		.uleb128 .LEHE31-.LEHB31
 1097 009e 00       		.uleb128 0
 1098 009f 00       		.uleb128 0
 1099 00a0 9A0B     		.uleb128 .LEHB32-.LFB1165
 1100 00a2 05       		.uleb128 .LEHE32-.LEHB32
 1101 00a3 00       		.uleb128 0
 1102 00a4 00       		.uleb128 0
 1103 00a5 AB0B     		.uleb128 .LEHB33-.LFB1165
 1104 00a7 3A       		.uleb128 .LEHE33-.LEHB33
 1105 00a8 EF0B     		.uleb128 .L61-.LFB1165
 1106 00aa 00       		.uleb128 0
 1107 00ab E50B     		.uleb128 .LEHB34-.LFB1165
 1108 00ad 05       		.uleb128 .LEHE34-.LEHB34
 1109 00ae 00       		.uleb128 0
 1110 00af 00       		.uleb128 0
 1111 00b0 810C     		.uleb128 .LEHB35-.LFB1165
 1112 00b2 05       		.uleb128 .LEHE35-.LEHB35
 1113 00b3 00       		.uleb128 0
 1114 00b4 00       		.uleb128 0
 1115 00b5 920C     		.uleb128 .LEHB36-.LFB1165
 1116 00b7 3A       		.uleb128 .LEHE36-.LEHB36
 1117 00b8 D60C     		.uleb128 .L63-.LFB1165
 1118 00ba 00       		.uleb128 0
 1119 00bb CC0C     		.uleb128 .LEHB37-.LFB1165
 1120 00bd 05       		.uleb128 .LEHE37-.LEHB37
 1121 00be 00       		.uleb128 0
 1122 00bf 00       		.uleb128 0
 1123 00c0 E80C     		.uleb128 .LEHB38-.LFB1165
 1124 00c2 05       		.uleb128 .LEHE38-.LEHB38
 1125 00c3 00       		.uleb128 0
 1126 00c4 00       		.uleb128 0
 1127 00c5 F90C     		.uleb128 .LEHB39-.LFB1165
 1128 00c7 3A       		.uleb128 .LEHE39-.LEHB39
 1129 00c8 BD0D     		.uleb128 .L65-.LFB1165
 1130 00ca 00       		.uleb128 0
 1131 00cb B30D     		.uleb128 .LEHB40-.LFB1165
 1132 00cd 05       		.uleb128 .LEHE40-.LEHB40
 1133 00ce 00       		.uleb128 0
 1134 00cf 00       		.uleb128 0
 1135 00d0 CF0D     		.uleb128 .LEHB41-.LFB1165
 1136 00d2 05       		.uleb128 .LEHE41-.LEHB41
 1137 00d3 00       		.uleb128 0
 1138 00d4 00       		.uleb128 0
 1139              	.LLSDACSE1165:
 1140 00d5 01       		.byte	0x1
 1141 00d6 00       		.byte	0
 1142 00d7 00       		.align 4
 1143 00d8 00000000 		.long	0
 1144              	
 1145              	.LLSDATT1165:
 1146              		.text
 1148              		.section	.rodata
 1149              	.LC12:
 1150 026b 51756575 		.string	"Queue_testPutNoWrap"
 1150      655F7465 
 1150      73745075 
 1150      744E6F57 
 1150      72617000 
 1151              		.section	.text._ZN23TestQueue_testPutNoWrapC2Ev,"axG",@progbits,_ZN23TestQueue_testPutNoWrapC5Ev,c
 1152              		.align 2
 1153              		.weak	_ZN23TestQueue_testPutNoWrapC2Ev
 1155              	_ZN23TestQueue_testPutNoWrapC2Ev:
 1156              	.LFB1167:
  76:testCore.cpp  **** 
  77:testCore.cpp  **** TEST(Queue_testPutNoWrap) {
 1157              		.loc 3 77 1
 1158              		.cfi_startproc
 1159 0000 F30F1EFA 		endbr64
 1160 0004 55       		pushq	%rbp
 1161              		.cfi_def_cfa_offset 16
 1162              		.cfi_offset 6, -16
 1163 0005 4889E5   		movq	%rsp, %rbp
 1164              		.cfi_def_cfa_register 6
 1165 0008 53       		pushq	%rbx
 1166 0009 4883EC18 		subq	$24, %rsp
 1167              		.cfi_offset 3, -24
 1168 000d 48897DE8 		movq	%rdi, -24(%rbp)
 1169              	.LBB5:
 1170              		.loc 3 77 1
 1171 0011 488B5DE8 		movq	-24(%rbp), %rbx
 1172 0015 E8000000 		call	_ZN13UnitTestSuite12GetSuiteNameEv
 1172      00
 1173 001a 4889C2   		movq	%rax, %rdx
 1174 001d 41B84D00 		movl	$77, %r8d
 1174      0000
 1175 0023 488D0500 		leaq	.LC1(%rip), %rax
 1175      000000
 1176 002a 4889C1   		movq	%rax, %rcx
 1177 002d 488D0500 		leaq	.LC12(%rip), %rax
 1177      000000
 1178 0034 4889C6   		movq	%rax, %rsi
 1179 0037 4889DF   		movq	%rbx, %rdi
 1180 003a E8000000 		call	_ZN8UnitTest4TestC2EPKcS2_S2_i@PLT
 1180      00
 1181 003f 488D1500 		leaq	16+_ZTV23TestQueue_testPutNoWrap(%rip), %rdx
 1181      000000
 1182 0046 488B45E8 		movq	-24(%rbp), %rax
 1183 004a 488910   		movq	%rdx, (%rax)
 1184              	.LBE5:
 1185 004d 90       		nop
 1186 004e 488B5DF8 		movq	-8(%rbp), %rbx
 1187 0052 C9       		leave
 1188              		.cfi_def_cfa 7, 8
 1189 0053 C3       		ret
 1190              		.cfi_endproc
 1191              	.LFE1167:
 1193              		.weak	_ZN23TestQueue_testPutNoWrapC1Ev
 1194              		.set	_ZN23TestQueue_testPutNoWrapC1Ev,_ZN23TestQueue_testPutNoWrapC2Ev
 1195              		.globl	testQueue_testPutNoWrapInstance
 1196              		.bss
 1197 0039 00000000 		.align 32
 1197      000000
 1200              	testQueue_testPutNoWrapInstance:
 1201 0040 00000000 		.zero	56
 1201      00000000 
 1201      00000000 
 1201      00000000 
 1201      00000000 
 1202              		.globl	adderQueue_testPutNoWrap
 1205              	adderQueue_testPutNoWrap:
 1206 0078 00       		.zero	1
 1207              		.section	.rodata
 1208 027f 00       		.align 8
 1209              	.LC13:
 1210 0280 556E6861 		.string	"Unhandled exception in CHECK_EQUAL(1UL, *item)"
 1210      6E646C65 
 1210      64206578 
 1210      63657074 
 1210      696F6E20 
 1211 02af 00       		.align 8
 1212              	.LC14:
 1213 02b0 556E6861 		.string	"Unhandled exception in CHECK_EQUAL(2UL, *item)"
 1213      6E646C65 
 1213      64206578 
 1213      63657074 
 1213      696F6E20 
 1214 02df 00       		.align 8
 1215              	.LC15:
 1216 02e0 556E6861 		.string	"Unhandled exception in CHECK_EQUAL(3UL, *item)"
 1216      6E646C65 
 1216      64206578 
 1216      63657074 
 1216      696F6E20 
 1217 030f 00       		.align 8
 1218              	.LC16:
 1219 0310 556E6861 		.string	"Unhandled exception in CHECK_EQUAL(3UL, queue.putIndex)"
 1219      6E646C65 
 1219      64206578 
 1219      63657074 
 1219      696F6E20 
 1220              		.align 8
 1221              	.LC17:
 1222 0348 556E6861 		.string	"Unhandled exception in CHECK_EQUAL(3UL, queue.numItems)"
 1222      6E646C65 
 1222      64206578 
 1222      63657074 
 1222      696F6E20 
 1223              		.align 8
 1224              	.LC18:
 1225 0380 556E6861 		.string	"Unhandled exception in CHECK_EQUAL(5UL, deref(queue.itemArray[0]))"
 1225      6E646C65 
 1225      64206578 
 1225      63657074 
 1225      696F6E20 
 1226 03c3 00000000 		.align 8
 1226      00
 1227              	.LC19:
 1228 03c8 556E6861 		.string	"Unhandled exception in CHECK_EQUAL(6UL, deref(queue.itemArray[1]))"
 1228      6E646C65 
 1228      64206578 
 1228      63657074 
 1228      696F6E20 
 1229 040b 00000000 		.align 8
 1229      00
 1230              	.LC20:
 1231 0410 556E6861 		.string	"Unhandled exception in CHECK_EQUAL(7UL, deref(queue.itemArray[2]))"
 1231      6E646C65 
 1231      64206578 
 1231      63657074 
 1231      696F6E20 
 1232              		.text
 1233 0781 90       		.align 2
 1234              		.globl	_ZNK23TestQueue_testPutNoWrap7RunImplEv
 1236              	_ZNK23TestQueue_testPutNoWrap7RunImplEv:
 1237              	.LFB1169:
 1238              		.loc 3 77 27
 1239              		.cfi_startproc
 1240              		.cfi_personality 0x9b,DW.ref.__gxx_personality_v0
 1241              		.cfi_lsda 0x1b,.LLSDA1169
 1242 0782 F30F1EFA 		endbr64
 1243 0786 55       		pushq	%rbp
 1244              		.cfi_def_cfa_offset 16
 1245              		.cfi_offset 6, -16
 1246 0787 4889E5   		movq	%rsp, %rbp
 1247              		.cfi_def_cfa_register 6
 1248 078a 53       		pushq	%rbx
 1249 078b 4881EC98 		subq	$152, %rsp
 1249      000000
 1250              		.cfi_offset 3, -24
 1251 0792 4889BD68 		movq	%rdi, -152(%rbp)
 1251      FFFFFF
 1252              		.loc 3 77 27
 1253 0799 64488B04 		movq	%fs:40, %rax
 1253      25280000 
 1253      00
 1254 07a2 488945E8 		movq	%rax, -24(%rbp)
 1255 07a6 31C0     		xorl	%eax, %eax
  78:testCore.cpp  **** 	struct UnboundedQueue queue;
  79:testCore.cpp  **** 	uint32 *item;
  80:testCore.cpp  **** 	m_count = 1;
 1256              		.loc 3 80 10
 1257 07a8 C7050000 		movl	$1, _ZL7m_count(%rip)
 1257      00000100 
 1257      0000
  81:testCore.cpp  **** 
  82:testCore.cpp  **** 	// Create queue
  83:testCore.cpp  **** 	USBStatus status = queueInit(&queue, 4, (CreateFunc)createInt, (DestroyFunc)destroyInt);
 1258              		.loc 3 83 30
 1259 07b2 488D45B0 		leaq	-80(%rbp), %rax
 1260 07b6 488D1500 		leaq	destroyInt(%rip), %rdx
 1260      000000
 1261 07bd 4889D1   		movq	%rdx, %rcx
 1262 07c0 488D1500 		leaq	createInt(%rip), %rdx
 1262      000000
 1263 07c7 BE040000 		movl	$4, %esi
 1263      00
 1264 07cc 4889C7   		movq	%rax, %rdi
 1265              	.LEHB42:
 1266 07cf E8000000 		call	queueInit@PLT
 1266      00
 1267              	.LEHE42:
 1268              		.loc 3 83 88
 1269 07d4 898578FF 		movl	%eax, -136(%rbp)
 1269      FFFF
 1270              	.LEHB43:
  84:testCore.cpp  **** 	CHECK_EQUAL(USB_SUCCESS, status);
 1271              		.loc 3 84 2
 1272 07da E8000000 		call	_ZN8UnitTest11CurrentTest7DetailsEv@PLT
 1272      00
 1273 07df 488B08   		movq	(%rax), %rcx
 1274 07e2 488D4590 		leaq	-112(%rbp), %rax
 1275 07e6 BA540000 		movl	$84, %edx
 1275      00
 1276 07eb 4889CE   		movq	%rcx, %rsi
 1277 07ee 4889C7   		movq	%rax, %rdi
 1278 07f1 E8000000 		call	_ZN8UnitTest11TestDetailsC1ERKS0_i@PLT
 1278      00
 1279              		.loc 3 84 2 is_stmt 0 discriminator 4
 1280 07f6 C7458800 		movl	$0, -120(%rbp)
 1280      000000
 1281 07fd E8000000 		call	_ZN8UnitTest11CurrentTest7ResultsEv@PLT
 1281      00
 1282 0802 488B00   		movq	(%rax), %rax
 1283 0805 488D4D90 		leaq	-112(%rbp), %rcx
 1284 0809 488D9578 		leaq	-136(%rbp), %rdx
 1284      FFFFFF
 1285 0810 488D7588 		leaq	-120(%rbp), %rsi
 1286 0814 4889C7   		movq	%rax, %rdi
 1287 0817 E8000000 		call	_ZN8UnitTest10CheckEqualI9USBStatusS1_EEvRNS_11TestResultsERKT_RKT0_RKNS_11TestDetailsE
 1287      00
 1288              	.LEHE43:
 1289              	.L70:
  85:testCore.cpp  **** 
  86:testCore.cpp  **** 	// Put three items into the queue
  87:testCore.cpp  **** 	status = queuePut(&queue, (Item*)&item);
 1290              		.loc 3 87 19 is_stmt 1
 1291 081c 488D5580 		leaq	-128(%rbp), %rdx
 1292 0820 488D45B0 		leaq	-80(%rbp), %rax
 1293 0824 4889D6   		movq	%rdx, %rsi
 1294 0827 4889C7   		movq	%rax, %rdi
 1295              	.LEHB44:
 1296 082a E8000000 		call	queuePut@PLT
 1296      00
 1297              	.LEHE44:
 1298              		.loc 3 87 9
 1299 082f 898578FF 		movl	%eax, -136(%rbp)
 1299      FFFF
 1300              	.LEHB45:
  88:testCore.cpp  **** 	CHECK_EQUAL(USB_SUCCESS, status);
 1301              		.loc 3 88 2
 1302 0835 E8000000 		call	_ZN8UnitTest11CurrentTest7DetailsEv@PLT
 1302      00
 1303 083a 488B08   		movq	(%rax), %rcx
 1304 083d 488D4590 		leaq	-112(%rbp), %rax
 1305 0841 BA580000 		movl	$88, %edx
 1305      00
 1306 0846 4889CE   		movq	%rcx, %rsi
 1307 0849 4889C7   		movq	%rax, %rdi
 1308 084c E8000000 		call	_ZN8UnitTest11TestDetailsC1ERKS0_i@PLT
 1308      00
 1309              		.loc 3 88 2 is_stmt 0 discriminator 4
 1310 0851 C7458800 		movl	$0, -120(%rbp)
 1310      000000
 1311 0858 E8000000 		call	_ZN8UnitTest11CurrentTest7ResultsEv@PLT
 1311      00
 1312 085d 488B00   		movq	(%rax), %rax
 1313 0860 488D4D90 		leaq	-112(%rbp), %rcx
 1314 0864 488D9578 		leaq	-136(%rbp), %rdx
 1314      FFFFFF
 1315 086b 488D7588 		leaq	-120(%rbp), %rsi
 1316 086f 4889C7   		movq	%rax, %rdi
 1317 0872 E8000000 		call	_ZN8UnitTest10CheckEqualI9USBStatusS1_EEvRNS_11TestResultsERKT_RKT0_RKNS_11TestDetailsE
 1317      00
 1318              	.LEHE45:
 1319              	.L73:
 1320              	.LEHB46:
  89:testCore.cpp  **** 	CHECK_EQUAL(1UL, *item);
 1321              		.loc 3 89 2 is_stmt 1
 1322 0877 E8000000 		call	_ZN8UnitTest11CurrentTest7DetailsEv@PLT
 1322      00
 1323 087c 488B08   		movq	(%rax), %rcx
 1324 087f 488D4590 		leaq	-112(%rbp), %rax
 1325 0883 BA590000 		movl	$89, %edx
 1325      00
 1326 0888 4889CE   		movq	%rcx, %rsi
 1327 088b 4889C7   		movq	%rax, %rdi
 1328 088e E8000000 		call	_ZN8UnitTest11TestDetailsC1ERKS0_i@PLT
 1328      00
 1329              		.loc 3 89 2 is_stmt 0 discriminator 4
 1330 0893 488B5D80 		movq	-128(%rbp), %rbx
 1331 0897 48C74588 		movq	$1, -120(%rbp)
 1331      01000000 
 1332 089f E8000000 		call	_ZN8UnitTest11CurrentTest7ResultsEv@PLT
 1332      00
 1333 08a4 488B00   		movq	(%rax), %rax
 1334 08a7 488D5590 		leaq	-112(%rbp), %rdx
 1335 08ab 488D7588 		leaq	-120(%rbp), %rsi
 1336 08af 4889D1   		movq	%rdx, %rcx
 1337 08b2 4889DA   		movq	%rbx, %rdx
 1338 08b5 4889C7   		movq	%rax, %rdi
 1339 08b8 E8000000 		call	_ZN8UnitTest10CheckEqualImjEEvRNS_11TestResultsERKT_RKT0_RKNS_11TestDetailsE
 1339      00
 1340              	.LEHE46:
 1341              	.L76:
  90:testCore.cpp  **** 	*item = 5;
 1342              		.loc 3 90 2 is_stmt 1
 1343 08bd 488B4580 		movq	-128(%rbp), %rax
 1344              		.loc 3 90 8
 1345 08c1 C7000500 		movl	$5, (%rax)
 1345      0000
  91:testCore.cpp  **** 	queueCommitPut(&queue);
 1346              		.loc 3 91 16
 1347 08c7 488D45B0 		leaq	-80(%rbp), %rax
 1348 08cb 4889C7   		movq	%rax, %rdi
 1349              	.LEHB47:
 1350 08ce E8000000 		call	queueCommitPut@PLT
 1350      00
  92:testCore.cpp  **** 	status = queuePut(&queue, (Item*)&item);
 1351              		.loc 3 92 19
 1352 08d3 488D5580 		leaq	-128(%rbp), %rdx
 1353 08d7 488D45B0 		leaq	-80(%rbp), %rax
 1354 08db 4889D6   		movq	%rdx, %rsi
 1355 08de 4889C7   		movq	%rax, %rdi
 1356 08e1 E8000000 		call	queuePut@PLT
 1356      00
 1357              	.LEHE47:
 1358              		.loc 3 92 9
 1359 08e6 898578FF 		movl	%eax, -136(%rbp)
 1359      FFFF
 1360              	.LEHB48:
  93:testCore.cpp  **** 	CHECK_EQUAL(USB_SUCCESS, status);
 1361              		.loc 3 93 2
 1362 08ec E8000000 		call	_ZN8UnitTest11CurrentTest7DetailsEv@PLT
 1362      00
 1363 08f1 488B08   		movq	(%rax), %rcx
 1364 08f4 488D4590 		leaq	-112(%rbp), %rax
 1365 08f8 BA5D0000 		movl	$93, %edx
 1365      00
 1366 08fd 4889CE   		movq	%rcx, %rsi
 1367 0900 4889C7   		movq	%rax, %rdi
 1368 0903 E8000000 		call	_ZN8UnitTest11TestDetailsC1ERKS0_i@PLT
 1368      00
 1369              		.loc 3 93 2 is_stmt 0 discriminator 4
 1370 0908 C7458800 		movl	$0, -120(%rbp)
 1370      000000
 1371 090f E8000000 		call	_ZN8UnitTest11CurrentTest7ResultsEv@PLT
 1371      00
 1372 0914 488B00   		movq	(%rax), %rax
 1373 0917 488D4D90 		leaq	-112(%rbp), %rcx
 1374 091b 488D9578 		leaq	-136(%rbp), %rdx
 1374      FFFFFF
 1375 0922 488D7588 		leaq	-120(%rbp), %rsi
 1376 0926 4889C7   		movq	%rax, %rdi
 1377 0929 E8000000 		call	_ZN8UnitTest10CheckEqualI9USBStatusS1_EEvRNS_11TestResultsERKT_RKT0_RKNS_11TestDetailsE
 1377      00
 1378              	.LEHE48:
 1379              	.L79:
 1380              	.LEHB49:
  94:testCore.cpp  **** 	CHECK_EQUAL(2UL, *item);
 1381              		.loc 3 94 2 is_stmt 1
 1382 092e E8000000 		call	_ZN8UnitTest11CurrentTest7DetailsEv@PLT
 1382      00
 1383 0933 488B08   		movq	(%rax), %rcx
 1384 0936 488D4590 		leaq	-112(%rbp), %rax
 1385 093a BA5E0000 		movl	$94, %edx
 1385      00
 1386 093f 4889CE   		movq	%rcx, %rsi
 1387 0942 4889C7   		movq	%rax, %rdi
 1388 0945 E8000000 		call	_ZN8UnitTest11TestDetailsC1ERKS0_i@PLT
 1388      00
 1389              		.loc 3 94 2 is_stmt 0 discriminator 4
 1390 094a 488B5D80 		movq	-128(%rbp), %rbx
 1391 094e 48C74588 		movq	$2, -120(%rbp)
 1391      02000000 
 1392 0956 E8000000 		call	_ZN8UnitTest11CurrentTest7ResultsEv@PLT
 1392      00
 1393 095b 488B00   		movq	(%rax), %rax
 1394 095e 488D5590 		leaq	-112(%rbp), %rdx
 1395 0962 488D7588 		leaq	-120(%rbp), %rsi
 1396 0966 4889D1   		movq	%rdx, %rcx
 1397 0969 4889DA   		movq	%rbx, %rdx
 1398 096c 4889C7   		movq	%rax, %rdi
 1399 096f E8000000 		call	_ZN8UnitTest10CheckEqualImjEEvRNS_11TestResultsERKT_RKT0_RKNS_11TestDetailsE
 1399      00
 1400              	.LEHE49:
 1401              	.L82:
  95:testCore.cpp  **** 	*item = 6;
 1402              		.loc 3 95 2 is_stmt 1
 1403 0974 488B4580 		movq	-128(%rbp), %rax
 1404              		.loc 3 95 8
 1405 0978 C7000600 		movl	$6, (%rax)
 1405      0000
  96:testCore.cpp  **** 	queueCommitPut(&queue);
 1406              		.loc 3 96 16
 1407 097e 488D45B0 		leaq	-80(%rbp), %rax
 1408 0982 4889C7   		movq	%rax, %rdi
 1409              	.LEHB50:
 1410 0985 E8000000 		call	queueCommitPut@PLT
 1410      00
  97:testCore.cpp  **** 	status = queuePut(&queue, (Item*)&item);
 1411              		.loc 3 97 19
 1412 098a 488D5580 		leaq	-128(%rbp), %rdx
 1413 098e 488D45B0 		leaq	-80(%rbp), %rax
 1414 0992 4889D6   		movq	%rdx, %rsi
 1415 0995 4889C7   		movq	%rax, %rdi
 1416 0998 E8000000 		call	queuePut@PLT
 1416      00
 1417              	.LEHE50:
 1418              		.loc 3 97 9
 1419 099d 898578FF 		movl	%eax, -136(%rbp)
 1419      FFFF
 1420              	.LEHB51:
  98:testCore.cpp  **** 	CHECK_EQUAL(USB_SUCCESS, status);
 1421              		.loc 3 98 2
 1422 09a3 E8000000 		call	_ZN8UnitTest11CurrentTest7DetailsEv@PLT
 1422      00
 1423 09a8 488B08   		movq	(%rax), %rcx
 1424 09ab 488D4590 		leaq	-112(%rbp), %rax
 1425 09af BA620000 		movl	$98, %edx
 1425      00
 1426 09b4 4889CE   		movq	%rcx, %rsi
 1427 09b7 4889C7   		movq	%rax, %rdi
 1428 09ba E8000000 		call	_ZN8UnitTest11TestDetailsC1ERKS0_i@PLT
 1428      00
 1429              		.loc 3 98 2 is_stmt 0 discriminator 4
 1430 09bf C7458800 		movl	$0, -120(%rbp)
 1430      000000
 1431 09c6 E8000000 		call	_ZN8UnitTest11CurrentTest7ResultsEv@PLT
 1431      00
 1432 09cb 488B00   		movq	(%rax), %rax
 1433 09ce 488D4D90 		leaq	-112(%rbp), %rcx
 1434 09d2 488D9578 		leaq	-136(%rbp), %rdx
 1434      FFFFFF
 1435 09d9 488D7588 		leaq	-120(%rbp), %rsi
 1436 09dd 4889C7   		movq	%rax, %rdi
 1437 09e0 E8000000 		call	_ZN8UnitTest10CheckEqualI9USBStatusS1_EEvRNS_11TestResultsERKT_RKT0_RKNS_11TestDetailsE
 1437      00
 1438              	.LEHE51:
 1439              	.L85:
 1440              	.LEHB52:
  99:testCore.cpp  **** 	CHECK_EQUAL(3UL, *item);
 1441              		.loc 3 99 2 is_stmt 1
 1442 09e5 E8000000 		call	_ZN8UnitTest11CurrentTest7DetailsEv@PLT
 1442      00
 1443 09ea 488B08   		movq	(%rax), %rcx
 1444 09ed 488D4590 		leaq	-112(%rbp), %rax
 1445 09f1 BA630000 		movl	$99, %edx
 1445      00
 1446 09f6 4889CE   		movq	%rcx, %rsi
 1447 09f9 4889C7   		movq	%rax, %rdi
 1448 09fc E8000000 		call	_ZN8UnitTest11TestDetailsC1ERKS0_i@PLT
 1448      00
 1449              		.loc 3 99 2 is_stmt 0 discriminator 4
 1450 0a01 488B5D80 		movq	-128(%rbp), %rbx
 1451 0a05 48C74588 		movq	$3, -120(%rbp)
 1451      03000000 
 1452 0a0d E8000000 		call	_ZN8UnitTest11CurrentTest7ResultsEv@PLT
 1452      00
 1453 0a12 488B00   		movq	(%rax), %rax
 1454 0a15 488D5590 		leaq	-112(%rbp), %rdx
 1455 0a19 488D7588 		leaq	-120(%rbp), %rsi
 1456 0a1d 4889D1   		movq	%rdx, %rcx
 1457 0a20 4889DA   		movq	%rbx, %rdx
 1458 0a23 4889C7   		movq	%rax, %rdi
 1459 0a26 E8000000 		call	_ZN8UnitTest10CheckEqualImjEEvRNS_11TestResultsERKT_RKT0_RKNS_11TestDetailsE
 1459      00
 1460              	.LEHE52:
 1461              	.L88:
 100:testCore.cpp  **** 	*item = 7;
 1462              		.loc 3 100 2 is_stmt 1
 1463 0a2b 488B4580 		movq	-128(%rbp), %rax
 1464              		.loc 3 100 8
 1465 0a2f C7000700 		movl	$7, (%rax)
 1465      0000
 101:testCore.cpp  **** 	queueCommitPut(&queue);
 1466              		.loc 3 101 16
 1467 0a35 488D45B0 		leaq	-80(%rbp), %rax
 1468 0a39 4889C7   		movq	%rax, %rdi
 1469              	.LEHB53:
 1470 0a3c E8000000 		call	queueCommitPut@PLT
 1470      00
 1471              	.LEHE53:
 1472              	.LEHB54:
 102:testCore.cpp  **** 
 103:testCore.cpp  **** 	// Verify
 104:testCore.cpp  **** 	CHECK_EQUAL(4UL, queue.capacity);
 1473              		.loc 3 104 2
 1474 0a41 E8000000 		call	_ZN8UnitTest11CurrentTest7DetailsEv@PLT
 1474      00
 1475 0a46 488B08   		movq	(%rax), %rcx
 1476 0a49 488D4590 		leaq	-112(%rbp), %rax
 1477 0a4d BA680000 		movl	$104, %edx
 1477      00
 1478 0a52 4889CE   		movq	%rcx, %rsi
 1479 0a55 4889C7   		movq	%rax, %rdi
 1480 0a58 E8000000 		call	_ZN8UnitTest11TestDetailsC1ERKS0_i@PLT
 1480      00
 1481              		.loc 3 104 2 is_stmt 0 discriminator 4
 1482 0a5d 48C74588 		movq	$4, -120(%rbp)
 1482      04000000 
 1483 0a65 E8000000 		call	_ZN8UnitTest11CurrentTest7ResultsEv@PLT
 1483      00
 1484 0a6a 488B00   		movq	(%rax), %rax
 1485 0a6d 488D5590 		leaq	-112(%rbp), %rdx
 1486 0a71 488D4DB0 		leaq	-80(%rbp), %rcx
 1487 0a75 488D7908 		leaq	8(%rcx), %rdi
 1488 0a79 488D7588 		leaq	-120(%rbp), %rsi
 1489 0a7d 4889D1   		movq	%rdx, %rcx
 1490 0a80 4889FA   		movq	%rdi, %rdx
 1491 0a83 4889C7   		movq	%rax, %rdi
 1492 0a86 E8000000 		call	_ZN8UnitTest10CheckEqualImmEEvRNS_11TestResultsERKT_RKT0_RKNS_11TestDetailsE
 1492      00
 1493              	.LEHE54:
 1494              	.L91:
 1495              	.LEHB55:
 105:testCore.cpp  **** 	CHECK_EQUAL(3UL, queue.putIndex);
 1496              		.loc 3 105 2 is_stmt 1
 1497 0a8b E8000000 		call	_ZN8UnitTest11CurrentTest7DetailsEv@PLT
 1497      00
 1498 0a90 488B08   		movq	(%rax), %rcx
 1499 0a93 488D4590 		leaq	-112(%rbp), %rax
 1500 0a97 BA690000 		movl	$105, %edx
 1500      00
 1501 0a9c 4889CE   		movq	%rcx, %rsi
 1502 0a9f 4889C7   		movq	%rax, %rdi
 1503 0aa2 E8000000 		call	_ZN8UnitTest11TestDetailsC1ERKS0_i@PLT
 1503      00
 1504              		.loc 3 105 2 is_stmt 0 discriminator 4
 1505 0aa7 48C74588 		movq	$3, -120(%rbp)
 1505      03000000 
 1506 0aaf E8000000 		call	_ZN8UnitTest11CurrentTest7ResultsEv@PLT
 1506      00
 1507 0ab4 488B00   		movq	(%rax), %rax
 1508 0ab7 488D5590 		leaq	-112(%rbp), %rdx
 1509 0abb 488D4DB0 		leaq	-80(%rbp), %rcx
 1510 0abf 488D7910 		leaq	16(%rcx), %rdi
 1511 0ac3 488D7588 		leaq	-120(%rbp), %rsi
 1512 0ac7 4889D1   		movq	%rdx, %rcx
 1513 0aca 4889FA   		movq	%rdi, %rdx
 1514 0acd 4889C7   		movq	%rax, %rdi
 1515 0ad0 E8000000 		call	_ZN8UnitTest10CheckEqualImmEEvRNS_11TestResultsERKT_RKT0_RKNS_11TestDetailsE
 1515      00
 1516              	.LEHE55:
 1517              	.L94:
 1518              	.LEHB56:
 106:testCore.cpp  **** 	CHECK_EQUAL(0UL, queue.takeIndex);
 1519              		.loc 3 106 2 is_stmt 1
 1520 0ad5 E8000000 		call	_ZN8UnitTest11CurrentTest7DetailsEv@PLT
 1520      00
 1521 0ada 488B08   		movq	(%rax), %rcx
 1522 0add 488D4590 		leaq	-112(%rbp), %rax
 1523 0ae1 BA6A0000 		movl	$106, %edx
 1523      00
 1524 0ae6 4889CE   		movq	%rcx, %rsi
 1525 0ae9 4889C7   		movq	%rax, %rdi
 1526 0aec E8000000 		call	_ZN8UnitTest11TestDetailsC1ERKS0_i@PLT
 1526      00
 1527              		.loc 3 106 2 is_stmt 0 discriminator 4
 1528 0af1 48C74588 		movq	$0, -120(%rbp)
 1528      00000000 
 1529 0af9 E8000000 		call	_ZN8UnitTest11CurrentTest7ResultsEv@PLT
 1529      00
 1530 0afe 488B00   		movq	(%rax), %rax
 1531 0b01 488D5590 		leaq	-112(%rbp), %rdx
 1532 0b05 488D4DB0 		leaq	-80(%rbp), %rcx
 1533 0b09 488D7918 		leaq	24(%rcx), %rdi
 1534 0b0d 488D7588 		leaq	-120(%rbp), %rsi
 1535 0b11 4889D1   		movq	%rdx, %rcx
 1536 0b14 4889FA   		movq	%rdi, %rdx
 1537 0b17 4889C7   		movq	%rax, %rdi
 1538 0b1a E8000000 		call	_ZN8UnitTest10CheckEqualImmEEvRNS_11TestResultsERKT_RKT0_RKNS_11TestDetailsE
 1538      00
 1539              	.LEHE56:
 1540              	.L97:
 1541              	.LEHB57:
 107:testCore.cpp  **** 	CHECK_EQUAL(3UL, queue.numItems);
 1542              		.loc 3 107 2 is_stmt 1
 1543 0b1f E8000000 		call	_ZN8UnitTest11CurrentTest7DetailsEv@PLT
 1543      00
 1544 0b24 488B08   		movq	(%rax), %rcx
 1545 0b27 488D4590 		leaq	-112(%rbp), %rax
 1546 0b2b BA6B0000 		movl	$107, %edx
 1546      00
 1547 0b30 4889CE   		movq	%rcx, %rsi
 1548 0b33 4889C7   		movq	%rax, %rdi
 1549 0b36 E8000000 		call	_ZN8UnitTest11TestDetailsC1ERKS0_i@PLT
 1549      00
 1550              		.loc 3 107 2 is_stmt 0 discriminator 4
 1551 0b3b 48C74588 		movq	$3, -120(%rbp)
 1551      03000000 
 1552 0b43 E8000000 		call	_ZN8UnitTest11CurrentTest7ResultsEv@PLT
 1552      00
 1553 0b48 488B00   		movq	(%rax), %rax
 1554 0b4b 488D5590 		leaq	-112(%rbp), %rdx
 1555 0b4f 488D4DB0 		leaq	-80(%rbp), %rcx
 1556 0b53 488D7920 		leaq	32(%rcx), %rdi
 1557 0b57 488D7588 		leaq	-120(%rbp), %rsi
 1558 0b5b 4889D1   		movq	%rdx, %rcx
 1559 0b5e 4889FA   		movq	%rdi, %rdx
 1560 0b61 4889C7   		movq	%rax, %rdi
 1561 0b64 E8000000 		call	_ZN8UnitTest10CheckEqualImmEEvRNS_11TestResultsERKT_RKT0_RKNS_11TestDetailsE
 1561      00
 1562              	.LEHE57:
 1563              	.L100:
 1564              	.LEHB58:
 108:testCore.cpp  **** 
 109:testCore.cpp  **** 	// Verify array
 110:testCore.cpp  **** 	CHECK_EQUAL(5UL, deref(queue.itemArray[0]));
 1565              		.loc 3 110 2 is_stmt 1
 1566 0b69 E8000000 		call	_ZN8UnitTest11CurrentTest7DetailsEv@PLT
 1566      00
 1567 0b6e 488B08   		movq	(%rax), %rcx
 1568 0b71 488D4590 		leaq	-112(%rbp), %rax
 1569 0b75 BA6E0000 		movl	$110, %edx
 1569      00
 1570 0b7a 4889CE   		movq	%rcx, %rsi
 1571 0b7d 4889C7   		movq	%rax, %rdi
 1572 0b80 E8000000 		call	_ZN8UnitTest11TestDetailsC1ERKS0_i@PLT
 1572      00
 1573              		.loc 3 110 2 is_stmt 0 discriminator 4
 1574 0b85 488B45B0 		movq	-80(%rbp), %rax
 1575 0b89 488B00   		movq	(%rax), %rax
 1576 0b8c 4889C7   		movq	%rax, %rdi
 1577 0b8f E8FEF4FF 		call	_ZL5derefPKv
 1577      FF
 1578 0b94 89857CFF 		movl	%eax, -132(%rbp)
 1578      FFFF
 1579 0b9a 48C74588 		movq	$5, -120(%rbp)
 1579      05000000 
 1580 0ba2 E8000000 		call	_ZN8UnitTest11CurrentTest7ResultsEv@PLT
 1580      00
 1581 0ba7 488B00   		movq	(%rax), %rax
 1582 0baa 488D4D90 		leaq	-112(%rbp), %rcx
 1583 0bae 488D957C 		leaq	-132(%rbp), %rdx
 1583      FFFFFF
 1584 0bb5 488D7588 		leaq	-120(%rbp), %rsi
 1585 0bb9 4889C7   		movq	%rax, %rdi
 1586 0bbc E8000000 		call	_ZN8UnitTest10CheckEqualImjEEvRNS_11TestResultsERKT_RKT0_RKNS_11TestDetailsE
 1586      00
 1587              	.LEHE58:
 1588              	.L103:
 1589              	.LEHB59:
 111:testCore.cpp  **** 	CHECK_EQUAL(6UL, deref(queue.itemArray[1]));
 1590              		.loc 3 111 2 is_stmt 1
 1591 0bc1 E8000000 		call	_ZN8UnitTest11CurrentTest7DetailsEv@PLT
 1591      00
 1592 0bc6 488B08   		movq	(%rax), %rcx
 1593 0bc9 488D4590 		leaq	-112(%rbp), %rax
 1594 0bcd BA6F0000 		movl	$111, %edx
 1594      00
 1595 0bd2 4889CE   		movq	%rcx, %rsi
 1596 0bd5 4889C7   		movq	%rax, %rdi
 1597 0bd8 E8000000 		call	_ZN8UnitTest11TestDetailsC1ERKS0_i@PLT
 1597      00
 1598              		.loc 3 111 2 is_stmt 0 discriminator 4
 1599 0bdd 488B45B0 		movq	-80(%rbp), %rax
 1600 0be1 4883C008 		addq	$8, %rax
 1601 0be5 488B00   		movq	(%rax), %rax
 1602 0be8 4889C7   		movq	%rax, %rdi
 1603 0beb E8A2F4FF 		call	_ZL5derefPKv
 1603      FF
 1604 0bf0 89857CFF 		movl	%eax, -132(%rbp)
 1604      FFFF
 1605 0bf6 48C74588 		movq	$6, -120(%rbp)
 1605      06000000 
 1606 0bfe E8000000 		call	_ZN8UnitTest11CurrentTest7ResultsEv@PLT
 1606      00
 1607 0c03 488B00   		movq	(%rax), %rax
 1608 0c06 488D4D90 		leaq	-112(%rbp), %rcx
 1609 0c0a 488D957C 		leaq	-132(%rbp), %rdx
 1609      FFFFFF
 1610 0c11 488D7588 		leaq	-120(%rbp), %rsi
 1611 0c15 4889C7   		movq	%rax, %rdi
 1612 0c18 E8000000 		call	_ZN8UnitTest10CheckEqualImjEEvRNS_11TestResultsERKT_RKT0_RKNS_11TestDetailsE
 1612      00
 1613              	.LEHE59:
 1614              	.L106:
 1615              	.LEHB60:
 112:testCore.cpp  **** 	CHECK_EQUAL(7UL, deref(queue.itemArray[2]));
 1616              		.loc 3 112 2 is_stmt 1
 1617 0c1d E8000000 		call	_ZN8UnitTest11CurrentTest7DetailsEv@PLT
 1617      00
 1618 0c22 488B08   		movq	(%rax), %rcx
 1619 0c25 488D4590 		leaq	-112(%rbp), %rax
 1620 0c29 BA700000 		movl	$112, %edx
 1620      00
 1621 0c2e 4889CE   		movq	%rcx, %rsi
 1622 0c31 4889C7   		movq	%rax, %rdi
 1623 0c34 E8000000 		call	_ZN8UnitTest11TestDetailsC1ERKS0_i@PLT
 1623      00
 1624              		.loc 3 112 2 is_stmt 0 discriminator 4
 1625 0c39 488B45B0 		movq	-80(%rbp), %rax
 1626 0c3d 4883C010 		addq	$16, %rax
 1627 0c41 488B00   		movq	(%rax), %rax
 1628 0c44 4889C7   		movq	%rax, %rdi
 1629 0c47 E846F4FF 		call	_ZL5derefPKv
 1629      FF
 1630 0c4c 89857CFF 		movl	%eax, -132(%rbp)
 1630      FFFF
 1631 0c52 48C74588 		movq	$7, -120(%rbp)
 1631      07000000 
 1632 0c5a E8000000 		call	_ZN8UnitTest11CurrentTest7ResultsEv@PLT
 1632      00
 1633 0c5f 488B00   		movq	(%rax), %rax
 1634 0c62 488D4D90 		leaq	-112(%rbp), %rcx
 1635 0c66 488D957C 		leaq	-132(%rbp), %rdx
 1635      FFFFFF
 1636 0c6d 488D7588 		leaq	-120(%rbp), %rsi
 1637 0c71 4889C7   		movq	%rax, %rdi
 1638 0c74 E8000000 		call	_ZN8UnitTest10CheckEqualImjEEvRNS_11TestResultsERKT_RKT0_RKNS_11TestDetailsE
 1638      00
 1639              	.LEHE60:
 1640              	.L109:
 1641              	.LEHB61:
 113:testCore.cpp  **** 	CHECK_EQUAL(4UL, deref(queue.itemArray[3]));
 1642              		.loc 3 113 2 is_stmt 1
 1643 0c79 E8000000 		call	_ZN8UnitTest11CurrentTest7DetailsEv@PLT
 1643      00
 1644 0c7e 488B08   		movq	(%rax), %rcx
 1645 0c81 488D4590 		leaq	-112(%rbp), %rax
 1646 0c85 BA710000 		movl	$113, %edx
 1646      00
 1647 0c8a 4889CE   		movq	%rcx, %rsi
 1648 0c8d 4889C7   		movq	%rax, %rdi
 1649 0c90 E8000000 		call	_ZN8UnitTest11TestDetailsC1ERKS0_i@PLT
 1649      00
 1650              		.loc 3 113 2 is_stmt 0 discriminator 4
 1651 0c95 488B45B0 		movq	-80(%rbp), %rax
 1652 0c99 4883C018 		addq	$24, %rax
 1653 0c9d 488B00   		movq	(%rax), %rax
 1654 0ca0 4889C7   		movq	%rax, %rdi
 1655 0ca3 E8EAF3FF 		call	_ZL5derefPKv
 1655      FF
 1656 0ca8 89857CFF 		movl	%eax, -132(%rbp)
 1656      FFFF
 1657 0cae 48C74588 		movq	$4, -120(%rbp)
 1657      04000000 
 1658 0cb6 E8000000 		call	_ZN8UnitTest11CurrentTest7ResultsEv@PLT
 1658      00
 1659 0cbb 488B00   		movq	(%rax), %rax
 1660 0cbe 488D4D90 		leaq	-112(%rbp), %rcx
 1661 0cc2 488D957C 		leaq	-132(%rbp), %rdx
 1661      FFFFFF
 1662 0cc9 488D7588 		leaq	-120(%rbp), %rsi
 1663 0ccd 4889C7   		movq	%rax, %rdi
 1664 0cd0 E8000000 		call	_ZN8UnitTest10CheckEqualImjEEvRNS_11TestResultsERKT_RKT0_RKNS_11TestDetailsE
 1664      00
 1665              	.LEHE61:
 1666              	.L112:
 114:testCore.cpp  **** 
 115:testCore.cpp  **** 	// Clean up
 116:testCore.cpp  **** 	queueDestroy(&queue);
 1667              		.loc 3 116 14 is_stmt 1
 1668 0cd5 488D45B0 		leaq	-80(%rbp), %rax
 1669 0cd9 4889C7   		movq	%rax, %rdi
 1670              	.LEHB62:
 1671 0cdc E8000000 		call	queueDestroy@PLT
 1671      00
 1672              	.LEHE62:
 117:testCore.cpp  **** }
 1673              		.loc 3 117 1
 1674 0ce1 90       		nop
 1675 0ce2 488B45E8 		movq	-24(%rbp), %rax
 1676 0ce6 64482B04 		subq	%fs:40, %rax
 1676      25280000 
 1676      00
 1677 0cef 0F841306 		je	.L114
 1677      0000
 1678 0cf5 E9090600 		jmp	.L145
 1678      00
 1679              	.L115:
 1680 0cfa F30F1EFA 		endbr64
  84:testCore.cpp  **** 
 1681              		.loc 3 84 2
 1682 0cfe 4889C7   		movq	%rax, %rdi
 1683 0d01 E8000000 		call	__cxa_begin_catch@PLT
 1683      00
 1684              	.LEHB63:
 1685 0d06 E8000000 		call	_ZN8UnitTest11CurrentTest7ResultsEv@PLT
 1685      00
  84:testCore.cpp  **** 
 1686              		.loc 3 84 2 is_stmt 0 discriminator 3
 1687 0d0b 488B18   		movq	(%rax), %rbx
 1688 0d0e E8000000 		call	_ZN8UnitTest11CurrentTest7DetailsEv@PLT
 1688      00
  84:testCore.cpp  **** 
 1689              		.loc 3 84 2 discriminator 11
 1690 0d13 488B08   		movq	(%rax), %rcx
 1691 0d16 488D4590 		leaq	-112(%rbp), %rax
 1692 0d1a BA540000 		movl	$84, %edx
 1692      00
 1693 0d1f 4889CE   		movq	%rcx, %rsi
 1694 0d22 4889C7   		movq	%rax, %rdi
 1695 0d25 E8000000 		call	_ZN8UnitTest11TestDetailsC1ERKS0_i@PLT
 1695      00
  84:testCore.cpp  **** 
 1696              		.loc 3 84 2 discriminator 15
 1697 0d2a 488D4590 		leaq	-112(%rbp), %rax
 1698 0d2e 488D1500 		leaq	.LC3(%rip), %rdx
 1698      000000
 1699 0d35 4889C6   		movq	%rax, %rsi
 1700 0d38 4889DF   		movq	%rbx, %rdi
 1701 0d3b E8000000 		call	_ZN8UnitTest11TestResults13OnTestFailureERKNS_11TestDetailsEPKc@PLT
 1701      00
 1702              	.LEHE63:
 1703              	.LEHB64:
  84:testCore.cpp  **** 
 1704              		.loc 3 84 2 discriminator 17
 1705 0d40 E8000000 		call	__cxa_end_catch@PLT
 1705      00
 1706              	.LEHE64:
 1707 0d45 E9D2FAFF 		jmp	.L70
 1707      FF
 1708              	.L116:
 1709 0d4a F30F1EFA 		endbr64
  84:testCore.cpp  **** 
 1710              		.loc 3 84 2
 1711 0d4e 4889C3   		movq	%rax, %rbx
 1712 0d51 E8000000 		call	__cxa_end_catch@PLT
 1712      00
 1713 0d56 4889D8   		movq	%rbx, %rax
 1714 0d59 4889C7   		movq	%rax, %rdi
 1715              	.LEHB65:
 1716 0d5c E8000000 		call	_Unwind_Resume@PLT
 1716      00
 1717              	.LEHE65:
 1718              	.L117:
 1719 0d61 F30F1EFA 		endbr64
  88:testCore.cpp  **** 	CHECK_EQUAL(1UL, *item);
 1720              		.loc 3 88 2 is_stmt 1
 1721 0d65 4889C7   		movq	%rax, %rdi
 1722 0d68 E8000000 		call	__cxa_begin_catch@PLT
 1722      00
 1723              	.LEHB66:
 1724 0d6d E8000000 		call	_ZN8UnitTest11CurrentTest7ResultsEv@PLT
 1724      00
  88:testCore.cpp  **** 	CHECK_EQUAL(1UL, *item);
 1725              		.loc 3 88 2 is_stmt 0 discriminator 3
 1726 0d72 488B18   		movq	(%rax), %rbx
 1727 0d75 E8000000 		call	_ZN8UnitTest11CurrentTest7DetailsEv@PLT
 1727      00
  88:testCore.cpp  **** 	CHECK_EQUAL(1UL, *item);
 1728              		.loc 3 88 2 discriminator 11
 1729 0d7a 488B08   		movq	(%rax), %rcx
 1730 0d7d 488D4590 		leaq	-112(%rbp), %rax
 1731 0d81 BA580000 		movl	$88, %edx
 1731      00
 1732 0d86 4889CE   		movq	%rcx, %rsi
 1733 0d89 4889C7   		movq	%rax, %rdi
 1734 0d8c E8000000 		call	_ZN8UnitTest11TestDetailsC1ERKS0_i@PLT
 1734      00
  88:testCore.cpp  **** 	CHECK_EQUAL(1UL, *item);
 1735              		.loc 3 88 2 discriminator 15
 1736 0d91 488D4590 		leaq	-112(%rbp), %rax
 1737 0d95 488D1500 		leaq	.LC3(%rip), %rdx
 1737      000000
 1738 0d9c 4889C6   		movq	%rax, %rsi
 1739 0d9f 4889DF   		movq	%rbx, %rdi
 1740 0da2 E8000000 		call	_ZN8UnitTest11TestResults13OnTestFailureERKNS_11TestDetailsEPKc@PLT
 1740      00
 1741              	.LEHE66:
 1742              	.LEHB67:
  88:testCore.cpp  **** 	CHECK_EQUAL(1UL, *item);
 1743              		.loc 3 88 2 discriminator 17
 1744 0da7 E8000000 		call	__cxa_end_catch@PLT
 1744      00
 1745              	.LEHE67:
 1746 0dac E9C6FAFF 		jmp	.L73
 1746      FF
 1747              	.L118:
 1748 0db1 F30F1EFA 		endbr64
  88:testCore.cpp  **** 	CHECK_EQUAL(1UL, *item);
 1749              		.loc 3 88 2
 1750 0db5 4889C3   		movq	%rax, %rbx
 1751 0db8 E8000000 		call	__cxa_end_catch@PLT
 1751      00
 1752 0dbd 4889D8   		movq	%rbx, %rax
 1753 0dc0 4889C7   		movq	%rax, %rdi
 1754              	.LEHB68:
 1755 0dc3 E8000000 		call	_Unwind_Resume@PLT
 1755      00
 1756              	.LEHE68:
 1757              	.L119:
 1758 0dc8 F30F1EFA 		endbr64
  89:testCore.cpp  **** 	*item = 5;
 1759              		.loc 3 89 2 is_stmt 1
 1760 0dcc 4889C7   		movq	%rax, %rdi
 1761 0dcf E8000000 		call	__cxa_begin_catch@PLT
 1761      00
 1762              	.LEHB69:
 1763 0dd4 E8000000 		call	_ZN8UnitTest11CurrentTest7ResultsEv@PLT
 1763      00
  89:testCore.cpp  **** 	*item = 5;
 1764              		.loc 3 89 2 is_stmt 0 discriminator 3
 1765 0dd9 488B18   		movq	(%rax), %rbx
 1766 0ddc E8000000 		call	_ZN8UnitTest11CurrentTest7DetailsEv@PLT
 1766      00
  89:testCore.cpp  **** 	*item = 5;
 1767              		.loc 3 89 2 discriminator 11
 1768 0de1 488B08   		movq	(%rax), %rcx
 1769 0de4 488D4590 		leaq	-112(%rbp), %rax
 1770 0de8 BA590000 		movl	$89, %edx
 1770      00
 1771 0ded 4889CE   		movq	%rcx, %rsi
 1772 0df0 4889C7   		movq	%rax, %rdi
 1773 0df3 E8000000 		call	_ZN8UnitTest11TestDetailsC1ERKS0_i@PLT
 1773      00
  89:testCore.cpp  **** 	*item = 5;
 1774              		.loc 3 89 2 discriminator 15
 1775 0df8 488D4590 		leaq	-112(%rbp), %rax
 1776 0dfc 488D1500 		leaq	.LC13(%rip), %rdx
 1776      000000
 1777 0e03 4889C6   		movq	%rax, %rsi
 1778 0e06 4889DF   		movq	%rbx, %rdi
 1779 0e09 E8000000 		call	_ZN8UnitTest11TestResults13OnTestFailureERKNS_11TestDetailsEPKc@PLT
 1779      00
 1780              	.LEHE69:
 1781              	.LEHB70:
  89:testCore.cpp  **** 	*item = 5;
 1782              		.loc 3 89 2 discriminator 17
 1783 0e0e E8000000 		call	__cxa_end_catch@PLT
 1783      00
 1784              	.LEHE70:
 1785 0e13 E9A5FAFF 		jmp	.L76
 1785      FF
 1786              	.L120:
 1787 0e18 F30F1EFA 		endbr64
  89:testCore.cpp  **** 	*item = 5;
 1788              		.loc 3 89 2
 1789 0e1c 4889C3   		movq	%rax, %rbx
 1790 0e1f E8000000 		call	__cxa_end_catch@PLT
 1790      00
 1791 0e24 4889D8   		movq	%rbx, %rax
 1792 0e27 4889C7   		movq	%rax, %rdi
 1793              	.LEHB71:
 1794 0e2a E8000000 		call	_Unwind_Resume@PLT
 1794      00
 1795              	.LEHE71:
 1796              	.L121:
 1797 0e2f F30F1EFA 		endbr64
  93:testCore.cpp  **** 	CHECK_EQUAL(2UL, *item);
 1798              		.loc 3 93 2 is_stmt 1
 1799 0e33 4889C7   		movq	%rax, %rdi
 1800 0e36 E8000000 		call	__cxa_begin_catch@PLT
 1800      00
 1801              	.LEHB72:
 1802 0e3b E8000000 		call	_ZN8UnitTest11CurrentTest7ResultsEv@PLT
 1802      00
  93:testCore.cpp  **** 	CHECK_EQUAL(2UL, *item);
 1803              		.loc 3 93 2 is_stmt 0 discriminator 3
 1804 0e40 488B18   		movq	(%rax), %rbx
 1805 0e43 E8000000 		call	_ZN8UnitTest11CurrentTest7DetailsEv@PLT
 1805      00
  93:testCore.cpp  **** 	CHECK_EQUAL(2UL, *item);
 1806              		.loc 3 93 2 discriminator 11
 1807 0e48 488B08   		movq	(%rax), %rcx
 1808 0e4b 488D4590 		leaq	-112(%rbp), %rax
 1809 0e4f BA5D0000 		movl	$93, %edx
 1809      00
 1810 0e54 4889CE   		movq	%rcx, %rsi
 1811 0e57 4889C7   		movq	%rax, %rdi
 1812 0e5a E8000000 		call	_ZN8UnitTest11TestDetailsC1ERKS0_i@PLT
 1812      00
  93:testCore.cpp  **** 	CHECK_EQUAL(2UL, *item);
 1813              		.loc 3 93 2 discriminator 15
 1814 0e5f 488D4590 		leaq	-112(%rbp), %rax
 1815 0e63 488D1500 		leaq	.LC3(%rip), %rdx
 1815      000000
 1816 0e6a 4889C6   		movq	%rax, %rsi
 1817 0e6d 4889DF   		movq	%rbx, %rdi
 1818 0e70 E8000000 		call	_ZN8UnitTest11TestResults13OnTestFailureERKNS_11TestDetailsEPKc@PLT
 1818      00
 1819              	.LEHE72:
 1820              	.LEHB73:
  93:testCore.cpp  **** 	CHECK_EQUAL(2UL, *item);
 1821              		.loc 3 93 2 discriminator 17
 1822 0e75 E8000000 		call	__cxa_end_catch@PLT
 1822      00
 1823              	.LEHE73:
 1824 0e7a E9AFFAFF 		jmp	.L79
 1824      FF
 1825              	.L122:
 1826 0e7f F30F1EFA 		endbr64
  93:testCore.cpp  **** 	CHECK_EQUAL(2UL, *item);
 1827              		.loc 3 93 2
 1828 0e83 4889C3   		movq	%rax, %rbx
 1829 0e86 E8000000 		call	__cxa_end_catch@PLT
 1829      00
 1830 0e8b 4889D8   		movq	%rbx, %rax
 1831 0e8e 4889C7   		movq	%rax, %rdi
 1832              	.LEHB74:
 1833 0e91 E8000000 		call	_Unwind_Resume@PLT
 1833      00
 1834              	.LEHE74:
 1835              	.L123:
 1836 0e96 F30F1EFA 		endbr64
  94:testCore.cpp  **** 	*item = 6;
 1837              		.loc 3 94 2 is_stmt 1
 1838 0e9a 4889C7   		movq	%rax, %rdi
 1839 0e9d E8000000 		call	__cxa_begin_catch@PLT
 1839      00
 1840              	.LEHB75:
 1841 0ea2 E8000000 		call	_ZN8UnitTest11CurrentTest7ResultsEv@PLT
 1841      00
  94:testCore.cpp  **** 	*item = 6;
 1842              		.loc 3 94 2 is_stmt 0 discriminator 3
 1843 0ea7 488B18   		movq	(%rax), %rbx
 1844 0eaa E8000000 		call	_ZN8UnitTest11CurrentTest7DetailsEv@PLT
 1844      00
  94:testCore.cpp  **** 	*item = 6;
 1845              		.loc 3 94 2 discriminator 11
 1846 0eaf 488B08   		movq	(%rax), %rcx
 1847 0eb2 488D4590 		leaq	-112(%rbp), %rax
 1848 0eb6 BA5E0000 		movl	$94, %edx
 1848      00
 1849 0ebb 4889CE   		movq	%rcx, %rsi
 1850 0ebe 4889C7   		movq	%rax, %rdi
 1851 0ec1 E8000000 		call	_ZN8UnitTest11TestDetailsC1ERKS0_i@PLT
 1851      00
  94:testCore.cpp  **** 	*item = 6;
 1852              		.loc 3 94 2 discriminator 15
 1853 0ec6 488D4590 		leaq	-112(%rbp), %rax
 1854 0eca 488D1500 		leaq	.LC14(%rip), %rdx
 1854      000000
 1855 0ed1 4889C6   		movq	%rax, %rsi
 1856 0ed4 4889DF   		movq	%rbx, %rdi
 1857 0ed7 E8000000 		call	_ZN8UnitTest11TestResults13OnTestFailureERKNS_11TestDetailsEPKc@PLT
 1857      00
 1858              	.LEHE75:
 1859              	.LEHB76:
  94:testCore.cpp  **** 	*item = 6;
 1860              		.loc 3 94 2 discriminator 17
 1861 0edc E8000000 		call	__cxa_end_catch@PLT
 1861      00
 1862              	.LEHE76:
 1863 0ee1 E98EFAFF 		jmp	.L82
 1863      FF
 1864              	.L124:
 1865 0ee6 F30F1EFA 		endbr64
  94:testCore.cpp  **** 	*item = 6;
 1866              		.loc 3 94 2
 1867 0eea 4889C3   		movq	%rax, %rbx
 1868 0eed E8000000 		call	__cxa_end_catch@PLT
 1868      00
 1869 0ef2 4889D8   		movq	%rbx, %rax
 1870 0ef5 4889C7   		movq	%rax, %rdi
 1871              	.LEHB77:
 1872 0ef8 E8000000 		call	_Unwind_Resume@PLT
 1872      00
 1873              	.LEHE77:
 1874              	.L125:
 1875 0efd F30F1EFA 		endbr64
  98:testCore.cpp  **** 	CHECK_EQUAL(3UL, *item);
 1876              		.loc 3 98 2 is_stmt 1
 1877 0f01 4889C7   		movq	%rax, %rdi
 1878 0f04 E8000000 		call	__cxa_begin_catch@PLT
 1878      00
 1879              	.LEHB78:
 1880 0f09 E8000000 		call	_ZN8UnitTest11CurrentTest7ResultsEv@PLT
 1880      00
  98:testCore.cpp  **** 	CHECK_EQUAL(3UL, *item);
 1881              		.loc 3 98 2 is_stmt 0 discriminator 3
 1882 0f0e 488B18   		movq	(%rax), %rbx
 1883 0f11 E8000000 		call	_ZN8UnitTest11CurrentTest7DetailsEv@PLT
 1883      00
  98:testCore.cpp  **** 	CHECK_EQUAL(3UL, *item);
 1884              		.loc 3 98 2 discriminator 11
 1885 0f16 488B08   		movq	(%rax), %rcx
 1886 0f19 488D4590 		leaq	-112(%rbp), %rax
 1887 0f1d BA620000 		movl	$98, %edx
 1887      00
 1888 0f22 4889CE   		movq	%rcx, %rsi
 1889 0f25 4889C7   		movq	%rax, %rdi
 1890 0f28 E8000000 		call	_ZN8UnitTest11TestDetailsC1ERKS0_i@PLT
 1890      00
  98:testCore.cpp  **** 	CHECK_EQUAL(3UL, *item);
 1891              		.loc 3 98 2 discriminator 15
 1892 0f2d 488D4590 		leaq	-112(%rbp), %rax
 1893 0f31 488D1500 		leaq	.LC3(%rip), %rdx
 1893      000000
 1894 0f38 4889C6   		movq	%rax, %rsi
 1895 0f3b 4889DF   		movq	%rbx, %rdi
 1896 0f3e E8000000 		call	_ZN8UnitTest11TestResults13OnTestFailureERKNS_11TestDetailsEPKc@PLT
 1896      00
 1897              	.LEHE78:
 1898              	.LEHB79:
  98:testCore.cpp  **** 	CHECK_EQUAL(3UL, *item);
 1899              		.loc 3 98 2 discriminator 17
 1900 0f43 E8000000 		call	__cxa_end_catch@PLT
 1900      00
 1901              	.LEHE79:
 1902 0f48 E998FAFF 		jmp	.L85
 1902      FF
 1903              	.L126:
 1904 0f4d F30F1EFA 		endbr64
  98:testCore.cpp  **** 	CHECK_EQUAL(3UL, *item);
 1905              		.loc 3 98 2
 1906 0f51 4889C3   		movq	%rax, %rbx
 1907 0f54 E8000000 		call	__cxa_end_catch@PLT
 1907      00
 1908 0f59 4889D8   		movq	%rbx, %rax
 1909 0f5c 4889C7   		movq	%rax, %rdi
 1910              	.LEHB80:
 1911 0f5f E8000000 		call	_Unwind_Resume@PLT
 1911      00
 1912              	.LEHE80:
 1913              	.L127:
 1914 0f64 F30F1EFA 		endbr64
  99:testCore.cpp  **** 	*item = 7;
 1915              		.loc 3 99 2 is_stmt 1
 1916 0f68 4889C7   		movq	%rax, %rdi
 1917 0f6b E8000000 		call	__cxa_begin_catch@PLT
 1917      00
 1918              	.LEHB81:
 1919 0f70 E8000000 		call	_ZN8UnitTest11CurrentTest7ResultsEv@PLT
 1919      00
  99:testCore.cpp  **** 	*item = 7;
 1920              		.loc 3 99 2 is_stmt 0 discriminator 3
 1921 0f75 488B18   		movq	(%rax), %rbx
 1922 0f78 E8000000 		call	_ZN8UnitTest11CurrentTest7DetailsEv@PLT
 1922      00
  99:testCore.cpp  **** 	*item = 7;
 1923              		.loc 3 99 2 discriminator 11
 1924 0f7d 488B08   		movq	(%rax), %rcx
 1925 0f80 488D4590 		leaq	-112(%rbp), %rax
 1926 0f84 BA630000 		movl	$99, %edx
 1926      00
 1927 0f89 4889CE   		movq	%rcx, %rsi
 1928 0f8c 4889C7   		movq	%rax, %rdi
 1929 0f8f E8000000 		call	_ZN8UnitTest11TestDetailsC1ERKS0_i@PLT
 1929      00
  99:testCore.cpp  **** 	*item = 7;
 1930              		.loc 3 99 2 discriminator 15
 1931 0f94 488D4590 		leaq	-112(%rbp), %rax
 1932 0f98 488D1500 		leaq	.LC15(%rip), %rdx
 1932      000000
 1933 0f9f 4889C6   		movq	%rax, %rsi
 1934 0fa2 4889DF   		movq	%rbx, %rdi
 1935 0fa5 E8000000 		call	_ZN8UnitTest11TestResults13OnTestFailureERKNS_11TestDetailsEPKc@PLT
 1935      00
 1936              	.LEHE81:
 1937              	.LEHB82:
  99:testCore.cpp  **** 	*item = 7;
 1938              		.loc 3 99 2 discriminator 17
 1939 0faa E8000000 		call	__cxa_end_catch@PLT
 1939      00
 1940              	.LEHE82:
 1941 0faf E977FAFF 		jmp	.L88
 1941      FF
 1942              	.L128:
 1943 0fb4 F30F1EFA 		endbr64
  99:testCore.cpp  **** 	*item = 7;
 1944              		.loc 3 99 2
 1945 0fb8 4889C3   		movq	%rax, %rbx
 1946 0fbb E8000000 		call	__cxa_end_catch@PLT
 1946      00
 1947 0fc0 4889D8   		movq	%rbx, %rax
 1948 0fc3 4889C7   		movq	%rax, %rdi
 1949              	.LEHB83:
 1950 0fc6 E8000000 		call	_Unwind_Resume@PLT
 1950      00
 1951              	.LEHE83:
 1952              	.L129:
 1953 0fcb F30F1EFA 		endbr64
 104:testCore.cpp  **** 	CHECK_EQUAL(3UL, queue.putIndex);
 1954              		.loc 3 104 2 is_stmt 1
 1955 0fcf 4889C7   		movq	%rax, %rdi
 1956 0fd2 E8000000 		call	__cxa_begin_catch@PLT
 1956      00
 1957              	.LEHB84:
 1958 0fd7 E8000000 		call	_ZN8UnitTest11CurrentTest7ResultsEv@PLT
 1958      00
 104:testCore.cpp  **** 	CHECK_EQUAL(3UL, queue.putIndex);
 1959              		.loc 3 104 2 is_stmt 0 discriminator 3
 1960 0fdc 488B18   		movq	(%rax), %rbx
 1961 0fdf E8000000 		call	_ZN8UnitTest11CurrentTest7DetailsEv@PLT
 1961      00
 104:testCore.cpp  **** 	CHECK_EQUAL(3UL, queue.putIndex);
 1962              		.loc 3 104 2 discriminator 11
 1963 0fe4 488B08   		movq	(%rax), %rcx
 1964 0fe7 488D4590 		leaq	-112(%rbp), %rax
 1965 0feb BA680000 		movl	$104, %edx
 1965      00
 1966 0ff0 4889CE   		movq	%rcx, %rsi
 1967 0ff3 4889C7   		movq	%rax, %rdi
 1968 0ff6 E8000000 		call	_ZN8UnitTest11TestDetailsC1ERKS0_i@PLT
 1968      00
 104:testCore.cpp  **** 	CHECK_EQUAL(3UL, queue.putIndex);
 1969              		.loc 3 104 2 discriminator 15
 1970 0ffb 488D4590 		leaq	-112(%rbp), %rax
 1971 0fff 488D1500 		leaq	.LC4(%rip), %rdx
 1971      000000
 1972 1006 4889C6   		movq	%rax, %rsi
 1973 1009 4889DF   		movq	%rbx, %rdi
 1974 100c E8000000 		call	_ZN8UnitTest11TestResults13OnTestFailureERKNS_11TestDetailsEPKc@PLT
 1974      00
 1975              	.LEHE84:
 1976              	.LEHB85:
 104:testCore.cpp  **** 	CHECK_EQUAL(3UL, queue.putIndex);
 1977              		.loc 3 104 2 discriminator 17
 1978 1011 E8000000 		call	__cxa_end_catch@PLT
 1978      00
 1979              	.LEHE85:
 1980 1016 E970FAFF 		jmp	.L91
 1980      FF
 1981              	.L130:
 1982 101b F30F1EFA 		endbr64
 104:testCore.cpp  **** 	CHECK_EQUAL(3UL, queue.putIndex);
 1983              		.loc 3 104 2
 1984 101f 4889C3   		movq	%rax, %rbx
 1985 1022 E8000000 		call	__cxa_end_catch@PLT
 1985      00
 1986 1027 4889D8   		movq	%rbx, %rax
 1987 102a 4889C7   		movq	%rax, %rdi
 1988              	.LEHB86:
 1989 102d E8000000 		call	_Unwind_Resume@PLT
 1989      00
 1990              	.LEHE86:
 1991              	.L131:
 1992 1032 F30F1EFA 		endbr64
 105:testCore.cpp  **** 	CHECK_EQUAL(0UL, queue.takeIndex);
 1993              		.loc 3 105 2 is_stmt 1
 1994 1036 4889C7   		movq	%rax, %rdi
 1995 1039 E8000000 		call	__cxa_begin_catch@PLT
 1995      00
 1996              	.LEHB87:
 1997 103e E8000000 		call	_ZN8UnitTest11CurrentTest7ResultsEv@PLT
 1997      00
 105:testCore.cpp  **** 	CHECK_EQUAL(0UL, queue.takeIndex);
 1998              		.loc 3 105 2 is_stmt 0 discriminator 3
 1999 1043 488B18   		movq	(%rax), %rbx
 2000 1046 E8000000 		call	_ZN8UnitTest11CurrentTest7DetailsEv@PLT
 2000      00
 105:testCore.cpp  **** 	CHECK_EQUAL(0UL, queue.takeIndex);
 2001              		.loc 3 105 2 discriminator 11
 2002 104b 488B08   		movq	(%rax), %rcx
 2003 104e 488D4590 		leaq	-112(%rbp), %rax
 2004 1052 BA690000 		movl	$105, %edx
 2004      00
 2005 1057 4889CE   		movq	%rcx, %rsi
 2006 105a 4889C7   		movq	%rax, %rdi
 2007 105d E8000000 		call	_ZN8UnitTest11TestDetailsC1ERKS0_i@PLT
 2007      00
 105:testCore.cpp  **** 	CHECK_EQUAL(0UL, queue.takeIndex);
 2008              		.loc 3 105 2 discriminator 15
 2009 1062 488D4590 		leaq	-112(%rbp), %rax
 2010 1066 488D1500 		leaq	.LC16(%rip), %rdx
 2010      000000
 2011 106d 4889C6   		movq	%rax, %rsi
 2012 1070 4889DF   		movq	%rbx, %rdi
 2013 1073 E8000000 		call	_ZN8UnitTest11TestResults13OnTestFailureERKNS_11TestDetailsEPKc@PLT
 2013      00
 2014              	.LEHE87:
 2015              	.LEHB88:
 105:testCore.cpp  **** 	CHECK_EQUAL(0UL, queue.takeIndex);
 2016              		.loc 3 105 2 discriminator 17
 2017 1078 E8000000 		call	__cxa_end_catch@PLT
 2017      00
 2018              	.LEHE88:
 2019 107d E953FAFF 		jmp	.L94
 2019      FF
 2020              	.L132:
 2021 1082 F30F1EFA 		endbr64
 105:testCore.cpp  **** 	CHECK_EQUAL(0UL, queue.takeIndex);
 2022              		.loc 3 105 2
 2023 1086 4889C3   		movq	%rax, %rbx
 2024 1089 E8000000 		call	__cxa_end_catch@PLT
 2024      00
 2025 108e 4889D8   		movq	%rbx, %rax
 2026 1091 4889C7   		movq	%rax, %rdi
 2027              	.LEHB89:
 2028 1094 E8000000 		call	_Unwind_Resume@PLT
 2028      00
 2029              	.LEHE89:
 2030              	.L133:
 2031 1099 F30F1EFA 		endbr64
 106:testCore.cpp  **** 	CHECK_EQUAL(3UL, queue.numItems);
 2032              		.loc 3 106 2 is_stmt 1
 2033 109d 4889C7   		movq	%rax, %rdi
 2034 10a0 E8000000 		call	__cxa_begin_catch@PLT
 2034      00
 2035              	.LEHB90:
 2036 10a5 E8000000 		call	_ZN8UnitTest11CurrentTest7ResultsEv@PLT
 2036      00
 106:testCore.cpp  **** 	CHECK_EQUAL(3UL, queue.numItems);
 2037              		.loc 3 106 2 is_stmt 0 discriminator 3
 2038 10aa 488B18   		movq	(%rax), %rbx
 2039 10ad E8000000 		call	_ZN8UnitTest11CurrentTest7DetailsEv@PLT
 2039      00
 106:testCore.cpp  **** 	CHECK_EQUAL(3UL, queue.numItems);
 2040              		.loc 3 106 2 discriminator 11
 2041 10b2 488B08   		movq	(%rax), %rcx
 2042 10b5 488D4590 		leaq	-112(%rbp), %rax
 2043 10b9 BA6A0000 		movl	$106, %edx
 2043      00
 2044 10be 4889CE   		movq	%rcx, %rsi
 2045 10c1 4889C7   		movq	%rax, %rdi
 2046 10c4 E8000000 		call	_ZN8UnitTest11TestDetailsC1ERKS0_i@PLT
 2046      00
 106:testCore.cpp  **** 	CHECK_EQUAL(3UL, queue.numItems);
 2047              		.loc 3 106 2 discriminator 15
 2048 10c9 488D4590 		leaq	-112(%rbp), %rax
 2049 10cd 488D1500 		leaq	.LC6(%rip), %rdx
 2049      000000
 2050 10d4 4889C6   		movq	%rax, %rsi
 2051 10d7 4889DF   		movq	%rbx, %rdi
 2052 10da E8000000 		call	_ZN8UnitTest11TestResults13OnTestFailureERKNS_11TestDetailsEPKc@PLT
 2052      00
 2053              	.LEHE90:
 2054              	.LEHB91:
 106:testCore.cpp  **** 	CHECK_EQUAL(3UL, queue.numItems);
 2055              		.loc 3 106 2 discriminator 17
 2056 10df E8000000 		call	__cxa_end_catch@PLT
 2056      00
 2057              	.LEHE91:
 2058 10e4 E936FAFF 		jmp	.L97
 2058      FF
 2059              	.L134:
 2060 10e9 F30F1EFA 		endbr64
 106:testCore.cpp  **** 	CHECK_EQUAL(3UL, queue.numItems);
 2061              		.loc 3 106 2
 2062 10ed 4889C3   		movq	%rax, %rbx
 2063 10f0 E8000000 		call	__cxa_end_catch@PLT
 2063      00
 2064 10f5 4889D8   		movq	%rbx, %rax
 2065 10f8 4889C7   		movq	%rax, %rdi
 2066              	.LEHB92:
 2067 10fb E8000000 		call	_Unwind_Resume@PLT
 2067      00
 2068              	.LEHE92:
 2069              	.L135:
 2070 1100 F30F1EFA 		endbr64
 107:testCore.cpp  **** 
 2071              		.loc 3 107 2 is_stmt 1
 2072 1104 4889C7   		movq	%rax, %rdi
 2073 1107 E8000000 		call	__cxa_begin_catch@PLT
 2073      00
 2074              	.LEHB93:
 2075 110c E8000000 		call	_ZN8UnitTest11CurrentTest7ResultsEv@PLT
 2075      00
 107:testCore.cpp  **** 
 2076              		.loc 3 107 2 is_stmt 0 discriminator 3
 2077 1111 488B18   		movq	(%rax), %rbx
 2078 1114 E8000000 		call	_ZN8UnitTest11CurrentTest7DetailsEv@PLT
 2078      00
 107:testCore.cpp  **** 
 2079              		.loc 3 107 2 discriminator 11
 2080 1119 488B08   		movq	(%rax), %rcx
 2081 111c 488D4590 		leaq	-112(%rbp), %rax
 2082 1120 BA6B0000 		movl	$107, %edx
 2082      00
 2083 1125 4889CE   		movq	%rcx, %rsi
 2084 1128 4889C7   		movq	%rax, %rdi
 2085 112b E8000000 		call	_ZN8UnitTest11TestDetailsC1ERKS0_i@PLT
 2085      00
 107:testCore.cpp  **** 
 2086              		.loc 3 107 2 discriminator 15
 2087 1130 488D4590 		leaq	-112(%rbp), %rax
 2088 1134 488D1500 		leaq	.LC17(%rip), %rdx
 2088      000000
 2089 113b 4889C6   		movq	%rax, %rsi
 2090 113e 4889DF   		movq	%rbx, %rdi
 2091 1141 E8000000 		call	_ZN8UnitTest11TestResults13OnTestFailureERKNS_11TestDetailsEPKc@PLT
 2091      00
 2092              	.LEHE93:
 2093              	.LEHB94:
 107:testCore.cpp  **** 
 2094              		.loc 3 107 2 discriminator 17
 2095 1146 E8000000 		call	__cxa_end_catch@PLT
 2095      00
 2096              	.LEHE94:
 2097 114b E919FAFF 		jmp	.L100
 2097      FF
 2098              	.L136:
 2099 1150 F30F1EFA 		endbr64
 107:testCore.cpp  **** 
 2100              		.loc 3 107 2
 2101 1154 4889C3   		movq	%rax, %rbx
 2102 1157 E8000000 		call	__cxa_end_catch@PLT
 2102      00
 2103 115c 4889D8   		movq	%rbx, %rax
 2104 115f 4889C7   		movq	%rax, %rdi
 2105              	.LEHB95:
 2106 1162 E8000000 		call	_Unwind_Resume@PLT
 2106      00
 2107              	.LEHE95:
 2108              	.L137:
 2109 1167 F30F1EFA 		endbr64
 110:testCore.cpp  **** 	CHECK_EQUAL(6UL, deref(queue.itemArray[1]));
 2110              		.loc 3 110 2 is_stmt 1
 2111 116b 4889C7   		movq	%rax, %rdi
 2112 116e E8000000 		call	__cxa_begin_catch@PLT
 2112      00
 2113              	.LEHB96:
 2114 1173 E8000000 		call	_ZN8UnitTest11CurrentTest7ResultsEv@PLT
 2114      00
 110:testCore.cpp  **** 	CHECK_EQUAL(6UL, deref(queue.itemArray[1]));
 2115              		.loc 3 110 2 is_stmt 0 discriminator 3
 2116 1178 488B18   		movq	(%rax), %rbx
 2117 117b E8000000 		call	_ZN8UnitTest11CurrentTest7DetailsEv@PLT
 2117      00
 110:testCore.cpp  **** 	CHECK_EQUAL(6UL, deref(queue.itemArray[1]));
 2118              		.loc 3 110 2 discriminator 11
 2119 1180 488B08   		movq	(%rax), %rcx
 2120 1183 488D4590 		leaq	-112(%rbp), %rax
 2121 1187 BA6E0000 		movl	$110, %edx
 2121      00
 2122 118c 4889CE   		movq	%rcx, %rsi
 2123 118f 4889C7   		movq	%rax, %rdi
 2124 1192 E8000000 		call	_ZN8UnitTest11TestDetailsC1ERKS0_i@PLT
 2124      00
 110:testCore.cpp  **** 	CHECK_EQUAL(6UL, deref(queue.itemArray[1]));
 2125              		.loc 3 110 2 discriminator 15
 2126 1197 488D4590 		leaq	-112(%rbp), %rax
 2127 119b 488D1500 		leaq	.LC18(%rip), %rdx
 2127      000000
 2128 11a2 4889C6   		movq	%rax, %rsi
 2129 11a5 4889DF   		movq	%rbx, %rdi
 2130 11a8 E8000000 		call	_ZN8UnitTest11TestResults13OnTestFailureERKNS_11TestDetailsEPKc@PLT
 2130      00
 2131              	.LEHE96:
 2132              	.LEHB97:
 110:testCore.cpp  **** 	CHECK_EQUAL(6UL, deref(queue.itemArray[1]));
 2133              		.loc 3 110 2 discriminator 17
 2134 11ad E8000000 		call	__cxa_end_catch@PLT
 2134      00
 2135              	.LEHE97:
 2136 11b2 E90AFAFF 		jmp	.L103
 2136      FF
 2137              	.L138:
 2138 11b7 F30F1EFA 		endbr64
 110:testCore.cpp  **** 	CHECK_EQUAL(6UL, deref(queue.itemArray[1]));
 2139              		.loc 3 110 2
 2140 11bb 4889C3   		movq	%rax, %rbx
 2141 11be E8000000 		call	__cxa_end_catch@PLT
 2141      00
 2142 11c3 4889D8   		movq	%rbx, %rax
 2143 11c6 4889C7   		movq	%rax, %rdi
 2144              	.LEHB98:
 2145 11c9 E8000000 		call	_Unwind_Resume@PLT
 2145      00
 2146              	.LEHE98:
 2147              	.L139:
 2148 11ce F30F1EFA 		endbr64
 111:testCore.cpp  **** 	CHECK_EQUAL(7UL, deref(queue.itemArray[2]));
 2149              		.loc 3 111 2 is_stmt 1
 2150 11d2 4889C7   		movq	%rax, %rdi
 2151 11d5 E8000000 		call	__cxa_begin_catch@PLT
 2151      00
 2152              	.LEHB99:
 2153 11da E8000000 		call	_ZN8UnitTest11CurrentTest7ResultsEv@PLT
 2153      00
 111:testCore.cpp  **** 	CHECK_EQUAL(7UL, deref(queue.itemArray[2]));
 2154              		.loc 3 111 2 is_stmt 0 discriminator 3
 2155 11df 488B18   		movq	(%rax), %rbx
 2156 11e2 E8000000 		call	_ZN8UnitTest11CurrentTest7DetailsEv@PLT
 2156      00
 111:testCore.cpp  **** 	CHECK_EQUAL(7UL, deref(queue.itemArray[2]));
 2157              		.loc 3 111 2 discriminator 11
 2158 11e7 488B08   		movq	(%rax), %rcx
 2159 11ea 488D4590 		leaq	-112(%rbp), %rax
 2160 11ee BA6F0000 		movl	$111, %edx
 2160      00
 2161 11f3 4889CE   		movq	%rcx, %rsi
 2162 11f6 4889C7   		movq	%rax, %rdi
 2163 11f9 E8000000 		call	_ZN8UnitTest11TestDetailsC1ERKS0_i@PLT
 2163      00
 111:testCore.cpp  **** 	CHECK_EQUAL(7UL, deref(queue.itemArray[2]));
 2164              		.loc 3 111 2 discriminator 15
 2165 11fe 488D4590 		leaq	-112(%rbp), %rax
 2166 1202 488D1500 		leaq	.LC19(%rip), %rdx
 2166      000000
 2167 1209 4889C6   		movq	%rax, %rsi
 2168 120c 4889DF   		movq	%rbx, %rdi
 2169 120f E8000000 		call	_ZN8UnitTest11TestResults13OnTestFailureERKNS_11TestDetailsEPKc@PLT
 2169      00
 2170              	.LEHE99:
 2171              	.LEHB100:
 111:testCore.cpp  **** 	CHECK_EQUAL(7UL, deref(queue.itemArray[2]));
 2172              		.loc 3 111 2 discriminator 17
 2173 1214 E8000000 		call	__cxa_end_catch@PLT
 2173      00
 2174              	.LEHE100:
 2175 1219 E9FFF9FF 		jmp	.L106
 2175      FF
 2176              	.L140:
 2177 121e F30F1EFA 		endbr64
 111:testCore.cpp  **** 	CHECK_EQUAL(7UL, deref(queue.itemArray[2]));
 2178              		.loc 3 111 2
 2179 1222 4889C3   		movq	%rax, %rbx
 2180 1225 E8000000 		call	__cxa_end_catch@PLT
 2180      00
 2181 122a 4889D8   		movq	%rbx, %rax
 2182 122d 4889C7   		movq	%rax, %rdi
 2183              	.LEHB101:
 2184 1230 E8000000 		call	_Unwind_Resume@PLT
 2184      00
 2185              	.LEHE101:
 2186              	.L141:
 2187 1235 F30F1EFA 		endbr64
 112:testCore.cpp  **** 	CHECK_EQUAL(4UL, deref(queue.itemArray[3]));
 2188              		.loc 3 112 2 is_stmt 1
 2189 1239 4889C7   		movq	%rax, %rdi
 2190 123c E8000000 		call	__cxa_begin_catch@PLT
 2190      00
 2191              	.LEHB102:
 2192 1241 E8000000 		call	_ZN8UnitTest11CurrentTest7ResultsEv@PLT
 2192      00
 112:testCore.cpp  **** 	CHECK_EQUAL(4UL, deref(queue.itemArray[3]));
 2193              		.loc 3 112 2 is_stmt 0 discriminator 3
 2194 1246 488B18   		movq	(%rax), %rbx
 2195 1249 E8000000 		call	_ZN8UnitTest11CurrentTest7DetailsEv@PLT
 2195      00
 112:testCore.cpp  **** 	CHECK_EQUAL(4UL, deref(queue.itemArray[3]));
 2196              		.loc 3 112 2 discriminator 11
 2197 124e 488B08   		movq	(%rax), %rcx
 2198 1251 488D4590 		leaq	-112(%rbp), %rax
 2199 1255 BA700000 		movl	$112, %edx
 2199      00
 2200 125a 4889CE   		movq	%rcx, %rsi
 2201 125d 4889C7   		movq	%rax, %rdi
 2202 1260 E8000000 		call	_ZN8UnitTest11TestDetailsC1ERKS0_i@PLT
 2202      00
 112:testCore.cpp  **** 	CHECK_EQUAL(4UL, deref(queue.itemArray[3]));
 2203              		.loc 3 112 2 discriminator 15
 2204 1265 488D4590 		leaq	-112(%rbp), %rax
 2205 1269 488D1500 		leaq	.LC20(%rip), %rdx
 2205      000000
 2206 1270 4889C6   		movq	%rax, %rsi
 2207 1273 4889DF   		movq	%rbx, %rdi
 2208 1276 E8000000 		call	_ZN8UnitTest11TestResults13OnTestFailureERKNS_11TestDetailsEPKc@PLT
 2208      00
 2209              	.LEHE102:
 2210              	.LEHB103:
 112:testCore.cpp  **** 	CHECK_EQUAL(4UL, deref(queue.itemArray[3]));
 2211              		.loc 3 112 2 discriminator 17
 2212 127b E8000000 		call	__cxa_end_catch@PLT
 2212      00
 2213              	.LEHE103:
 2214 1280 E9F4F9FF 		jmp	.L109
 2214      FF
 2215              	.L142:
 2216 1285 F30F1EFA 		endbr64
 112:testCore.cpp  **** 	CHECK_EQUAL(4UL, deref(queue.itemArray[3]));
 2217              		.loc 3 112 2
 2218 1289 4889C3   		movq	%rax, %rbx
 2219 128c E8000000 		call	__cxa_end_catch@PLT
 2219      00
 2220 1291 4889D8   		movq	%rbx, %rax
 2221 1294 4889C7   		movq	%rax, %rdi
 2222              	.LEHB104:
 2223 1297 E8000000 		call	_Unwind_Resume@PLT
 2223      00
 2224              	.LEHE104:
 2225              	.L143:
 2226 129c F30F1EFA 		endbr64
 113:testCore.cpp  **** 
 2227              		.loc 3 113 2 is_stmt 1
 2228 12a0 4889C7   		movq	%rax, %rdi
 2229 12a3 E8000000 		call	__cxa_begin_catch@PLT
 2229      00
 2230              	.LEHB105:
 2231 12a8 E8000000 		call	_ZN8UnitTest11CurrentTest7ResultsEv@PLT
 2231      00
 113:testCore.cpp  **** 
 2232              		.loc 3 113 2 is_stmt 0 discriminator 3
 2233 12ad 488B18   		movq	(%rax), %rbx
 2234 12b0 E8000000 		call	_ZN8UnitTest11CurrentTest7DetailsEv@PLT
 2234      00
 113:testCore.cpp  **** 
 2235              		.loc 3 113 2 discriminator 11
 2236 12b5 488B08   		movq	(%rax), %rcx
 2237 12b8 488D4590 		leaq	-112(%rbp), %rax
 2238 12bc BA710000 		movl	$113, %edx
 2238      00
 2239 12c1 4889CE   		movq	%rcx, %rsi
 2240 12c4 4889C7   		movq	%rax, %rdi
 2241 12c7 E8000000 		call	_ZN8UnitTest11TestDetailsC1ERKS0_i@PLT
 2241      00
 113:testCore.cpp  **** 
 2242              		.loc 3 113 2 discriminator 15
 2243 12cc 488D4590 		leaq	-112(%rbp), %rax
 2244 12d0 488D1500 		leaq	.LC11(%rip), %rdx
 2244      000000
 2245 12d7 4889C6   		movq	%rax, %rsi
 2246 12da 4889DF   		movq	%rbx, %rdi
 2247 12dd E8000000 		call	_ZN8UnitTest11TestResults13OnTestFailureERKNS_11TestDetailsEPKc@PLT
 2247      00
 2248              	.LEHE105:
 2249              	.LEHB106:
 113:testCore.cpp  **** 
 2250              		.loc 3 113 2 discriminator 17
 2251 12e2 E8000000 		call	__cxa_end_catch@PLT
 2251      00
 2252              	.LEHE106:
 2253 12e7 E9E9F9FF 		jmp	.L112
 2253      FF
 2254              	.L144:
 2255 12ec F30F1EFA 		endbr64
 113:testCore.cpp  **** 
 2256              		.loc 3 113 2
 2257 12f0 4889C3   		movq	%rax, %rbx
 2258 12f3 E8000000 		call	__cxa_end_catch@PLT
 2258      00
 2259 12f8 4889D8   		movq	%rbx, %rax
 2260 12fb 4889C7   		movq	%rax, %rdi
 2261              	.LEHB107:
 2262 12fe E8000000 		call	_Unwind_Resume@PLT
 2262      00
 2263              	.LEHE107:
 2264              	.L145:
 2265              		.loc 3 117 1 is_stmt 1
 2266 1303 E8000000 		call	__stack_chk_fail@PLT
 2266      00
 2267              	.L114:
 2268 1308 488B5DF8 		movq	-8(%rbp), %rbx
 2269 130c C9       		leave
 2270              		.cfi_def_cfa 7, 8
 2271 130d C3       		ret
 2272              		.cfi_endproc
 2273              	.LFE1169:
 2274              		.section	.gcc_except_table
 2275              		.align 4
 2276              	.LLSDA1169:
 2277 00dc FF       		.byte	0xff
 2278 00dd 9B       		.byte	0x9b
 2279 00de F002     		.uleb128 .LLSDATT1169-.LLSDATTD1169
 2280              	.LLSDATTD1169:
 2281 00e0 01       		.byte	0x1
 2282 00e1 E602     		.uleb128 .LLSDACSE1169-.LLSDACSB1169
 2283              	.LLSDACSB1169:
 2284 00e3 4D       		.uleb128 .LEHB42-.LFB1169
 2285 00e4 05       		.uleb128 .LEHE42-.LEHB42
 2286 00e5 00       		.uleb128 0
 2287 00e6 00       		.uleb128 0
 2288 00e7 58       		.uleb128 .LEHB43-.LFB1169
 2289 00e8 42       		.uleb128 .LEHE43-.LEHB43
 2290 00e9 F80A     		.uleb128 .L115-.LFB1169
 2291 00eb 01       		.uleb128 0x1
 2292 00ec A801     		.uleb128 .LEHB44-.LFB1169
 2293 00ee 05       		.uleb128 .LEHE44-.LEHB44
 2294 00ef 00       		.uleb128 0
 2295 00f0 00       		.uleb128 0
 2296 00f1 B301     		.uleb128 .LEHB45-.LFB1169
 2297 00f3 42       		.uleb128 .LEHE45-.LEHB45
 2298 00f4 DF0B     		.uleb128 .L117-.LFB1169
 2299 00f6 01       		.uleb128 0x1
 2300 00f7 F501     		.uleb128 .LEHB46-.LFB1169
 2301 00f9 46       		.uleb128 .LEHE46-.LEHB46
 2302 00fa C60C     		.uleb128 .L119-.LFB1169
 2303 00fc 01       		.uleb128 0x1
 2304 00fd CC02     		.uleb128 .LEHB47-.LFB1169
 2305 00ff 18       		.uleb128 .LEHE47-.LEHB47
 2306 0100 00       		.uleb128 0
 2307 0101 00       		.uleb128 0
 2308 0102 EA02     		.uleb128 .LEHB48-.LFB1169
 2309 0104 42       		.uleb128 .LEHE48-.LEHB48
 2310 0105 AD0D     		.uleb128 .L121-.LFB1169
 2311 0107 01       		.uleb128 0x1
 2312 0108 AC03     		.uleb128 .LEHB49-.LFB1169
 2313 010a 46       		.uleb128 .LEHE49-.LEHB49
 2314 010b 940E     		.uleb128 .L123-.LFB1169
 2315 010d 01       		.uleb128 0x1
 2316 010e 8304     		.uleb128 .LEHB50-.LFB1169
 2317 0110 18       		.uleb128 .LEHE50-.LEHB50
 2318 0111 00       		.uleb128 0
 2319 0112 00       		.uleb128 0
 2320 0113 A104     		.uleb128 .LEHB51-.LFB1169
 2321 0115 42       		.uleb128 .LEHE51-.LEHB51
 2322 0116 FB0E     		.uleb128 .L125-.LFB1169
 2323 0118 01       		.uleb128 0x1
 2324 0119 E304     		.uleb128 .LEHB52-.LFB1169
 2325 011b 46       		.uleb128 .LEHE52-.LEHB52
 2326 011c E20F     		.uleb128 .L127-.LFB1169
 2327 011e 01       		.uleb128 0x1
 2328 011f BA05     		.uleb128 .LEHB53-.LFB1169
 2329 0121 05       		.uleb128 .LEHE53-.LEHB53
 2330 0122 00       		.uleb128 0
 2331 0123 00       		.uleb128 0
 2332 0124 BF05     		.uleb128 .LEHB54-.LFB1169
 2333 0126 4A       		.uleb128 .LEHE54-.LEHB54
 2334 0127 C910     		.uleb128 .L129-.LFB1169
 2335 0129 01       		.uleb128 0x1
 2336 012a 8906     		.uleb128 .LEHB55-.LFB1169
 2337 012c 4A       		.uleb128 .LEHE55-.LEHB55
 2338 012d B011     		.uleb128 .L131-.LFB1169
 2339 012f 01       		.uleb128 0x1
 2340 0130 D306     		.uleb128 .LEHB56-.LFB1169
 2341 0132 4A       		.uleb128 .LEHE56-.LEHB56
 2342 0133 9712     		.uleb128 .L133-.LFB1169
 2343 0135 01       		.uleb128 0x1
 2344 0136 9D07     		.uleb128 .LEHB57-.LFB1169
 2345 0138 4A       		.uleb128 .LEHE57-.LEHB57
 2346 0139 FE12     		.uleb128 .L135-.LFB1169
 2347 013b 01       		.uleb128 0x1
 2348 013c E707     		.uleb128 .LEHB58-.LFB1169
 2349 013e 58       		.uleb128 .LEHE58-.LEHB58
 2350 013f E513     		.uleb128 .L137-.LFB1169
 2351 0141 01       		.uleb128 0x1
 2352 0142 BF08     		.uleb128 .LEHB59-.LFB1169
 2353 0144 5C       		.uleb128 .LEHE59-.LEHB59
 2354 0145 CC14     		.uleb128 .L139-.LFB1169
 2355 0147 01       		.uleb128 0x1
 2356 0148 9B09     		.uleb128 .LEHB60-.LFB1169
 2357 014a 5C       		.uleb128 .LEHE60-.LEHB60
 2358 014b B315     		.uleb128 .L141-.LFB1169
 2359 014d 01       		.uleb128 0x1
 2360 014e F709     		.uleb128 .LEHB61-.LFB1169
 2361 0150 5C       		.uleb128 .LEHE61-.LEHB61
 2362 0151 9A16     		.uleb128 .L143-.LFB1169
 2363 0153 01       		.uleb128 0x1
 2364 0154 DA0A     		.uleb128 .LEHB62-.LFB1169
 2365 0156 05       		.uleb128 .LEHE62-.LEHB62
 2366 0157 00       		.uleb128 0
 2367 0158 00       		.uleb128 0
 2368 0159 840B     		.uleb128 .LEHB63-.LFB1169
 2369 015b 3A       		.uleb128 .LEHE63-.LEHB63
 2370 015c C80B     		.uleb128 .L116-.LFB1169
 2371 015e 00       		.uleb128 0
 2372 015f BE0B     		.uleb128 .LEHB64-.LFB1169
 2373 0161 05       		.uleb128 .LEHE64-.LEHB64
 2374 0162 00       		.uleb128 0
 2375 0163 00       		.uleb128 0
 2376 0164 DA0B     		.uleb128 .LEHB65-.LFB1169
 2377 0166 05       		.uleb128 .LEHE65-.LEHB65
 2378 0167 00       		.uleb128 0
 2379 0168 00       		.uleb128 0
 2380 0169 EB0B     		.uleb128 .LEHB66-.LFB1169
 2381 016b 3A       		.uleb128 .LEHE66-.LEHB66
 2382 016c AF0C     		.uleb128 .L118-.LFB1169
 2383 016e 00       		.uleb128 0
 2384 016f A50C     		.uleb128 .LEHB67-.LFB1169
 2385 0171 05       		.uleb128 .LEHE67-.LEHB67
 2386 0172 00       		.uleb128 0
 2387 0173 00       		.uleb128 0
 2388 0174 C10C     		.uleb128 .LEHB68-.LFB1169
 2389 0176 05       		.uleb128 .LEHE68-.LEHB68
 2390 0177 00       		.uleb128 0
 2391 0178 00       		.uleb128 0
 2392 0179 D20C     		.uleb128 .LEHB69-.LFB1169
 2393 017b 3A       		.uleb128 .LEHE69-.LEHB69
 2394 017c 960D     		.uleb128 .L120-.LFB1169
 2395 017e 00       		.uleb128 0
 2396 017f 8C0D     		.uleb128 .LEHB70-.LFB1169
 2397 0181 05       		.uleb128 .LEHE70-.LEHB70
 2398 0182 00       		.uleb128 0
 2399 0183 00       		.uleb128 0
 2400 0184 A80D     		.uleb128 .LEHB71-.LFB1169
 2401 0186 05       		.uleb128 .LEHE71-.LEHB71
 2402 0187 00       		.uleb128 0
 2403 0188 00       		.uleb128 0
 2404 0189 B90D     		.uleb128 .LEHB72-.LFB1169
 2405 018b 3A       		.uleb128 .LEHE72-.LEHB72
 2406 018c FD0D     		.uleb128 .L122-.LFB1169
 2407 018e 00       		.uleb128 0
 2408 018f F30D     		.uleb128 .LEHB73-.LFB1169
 2409 0191 05       		.uleb128 .LEHE73-.LEHB73
 2410 0192 00       		.uleb128 0
 2411 0193 00       		.uleb128 0
 2412 0194 8F0E     		.uleb128 .LEHB74-.LFB1169
 2413 0196 05       		.uleb128 .LEHE74-.LEHB74
 2414 0197 00       		.uleb128 0
 2415 0198 00       		.uleb128 0
 2416 0199 A00E     		.uleb128 .LEHB75-.LFB1169
 2417 019b 3A       		.uleb128 .LEHE75-.LEHB75
 2418 019c E40E     		.uleb128 .L124-.LFB1169
 2419 019e 00       		.uleb128 0
 2420 019f DA0E     		.uleb128 .LEHB76-.LFB1169
 2421 01a1 05       		.uleb128 .LEHE76-.LEHB76
 2422 01a2 00       		.uleb128 0
 2423 01a3 00       		.uleb128 0
 2424 01a4 F60E     		.uleb128 .LEHB77-.LFB1169
 2425 01a6 05       		.uleb128 .LEHE77-.LEHB77
 2426 01a7 00       		.uleb128 0
 2427 01a8 00       		.uleb128 0
 2428 01a9 870F     		.uleb128 .LEHB78-.LFB1169
 2429 01ab 3A       		.uleb128 .LEHE78-.LEHB78
 2430 01ac CB0F     		.uleb128 .L126-.LFB1169
 2431 01ae 00       		.uleb128 0
 2432 01af C10F     		.uleb128 .LEHB79-.LFB1169
 2433 01b1 05       		.uleb128 .LEHE79-.LEHB79
 2434 01b2 00       		.uleb128 0
 2435 01b3 00       		.uleb128 0
 2436 01b4 DD0F     		.uleb128 .LEHB80-.LFB1169
 2437 01b6 05       		.uleb128 .LEHE80-.LEHB80
 2438 01b7 00       		.uleb128 0
 2439 01b8 00       		.uleb128 0
 2440 01b9 EE0F     		.uleb128 .LEHB81-.LFB1169
 2441 01bb 3A       		.uleb128 .LEHE81-.LEHB81
 2442 01bc B210     		.uleb128 .L128-.LFB1169
 2443 01be 00       		.uleb128 0
 2444 01bf A810     		.uleb128 .LEHB82-.LFB1169
 2445 01c1 05       		.uleb128 .LEHE82-.LEHB82
 2446 01c2 00       		.uleb128 0
 2447 01c3 00       		.uleb128 0
 2448 01c4 C410     		.uleb128 .LEHB83-.LFB1169
 2449 01c6 05       		.uleb128 .LEHE83-.LEHB83
 2450 01c7 00       		.uleb128 0
 2451 01c8 00       		.uleb128 0
 2452 01c9 D510     		.uleb128 .LEHB84-.LFB1169
 2453 01cb 3A       		.uleb128 .LEHE84-.LEHB84
 2454 01cc 9911     		.uleb128 .L130-.LFB1169
 2455 01ce 00       		.uleb128 0
 2456 01cf 8F11     		.uleb128 .LEHB85-.LFB1169
 2457 01d1 05       		.uleb128 .LEHE85-.LEHB85
 2458 01d2 00       		.uleb128 0
 2459 01d3 00       		.uleb128 0
 2460 01d4 AB11     		.uleb128 .LEHB86-.LFB1169
 2461 01d6 05       		.uleb128 .LEHE86-.LEHB86
 2462 01d7 00       		.uleb128 0
 2463 01d8 00       		.uleb128 0
 2464 01d9 BC11     		.uleb128 .LEHB87-.LFB1169
 2465 01db 3A       		.uleb128 .LEHE87-.LEHB87
 2466 01dc 8012     		.uleb128 .L132-.LFB1169
 2467 01de 00       		.uleb128 0
 2468 01df F611     		.uleb128 .LEHB88-.LFB1169
 2469 01e1 05       		.uleb128 .LEHE88-.LEHB88
 2470 01e2 00       		.uleb128 0
 2471 01e3 00       		.uleb128 0
 2472 01e4 9212     		.uleb128 .LEHB89-.LFB1169
 2473 01e6 05       		.uleb128 .LEHE89-.LEHB89
 2474 01e7 00       		.uleb128 0
 2475 01e8 00       		.uleb128 0
 2476 01e9 A312     		.uleb128 .LEHB90-.LFB1169
 2477 01eb 3A       		.uleb128 .LEHE90-.LEHB90
 2478 01ec E712     		.uleb128 .L134-.LFB1169
 2479 01ee 00       		.uleb128 0
 2480 01ef DD12     		.uleb128 .LEHB91-.LFB1169
 2481 01f1 05       		.uleb128 .LEHE91-.LEHB91
 2482 01f2 00       		.uleb128 0
 2483 01f3 00       		.uleb128 0
 2484 01f4 F912     		.uleb128 .LEHB92-.LFB1169
 2485 01f6 05       		.uleb128 .LEHE92-.LEHB92
 2486 01f7 00       		.uleb128 0
 2487 01f8 00       		.uleb128 0
 2488 01f9 8A13     		.uleb128 .LEHB93-.LFB1169
 2489 01fb 3A       		.uleb128 .LEHE93-.LEHB93
 2490 01fc CE13     		.uleb128 .L136-.LFB1169
 2491 01fe 00       		.uleb128 0
 2492 01ff C413     		.uleb128 .LEHB94-.LFB1169
 2493 0201 05       		.uleb128 .LEHE94-.LEHB94
 2494 0202 00       		.uleb128 0
 2495 0203 00       		.uleb128 0
 2496 0204 E013     		.uleb128 .LEHB95-.LFB1169
 2497 0206 05       		.uleb128 .LEHE95-.LEHB95
 2498 0207 00       		.uleb128 0
 2499 0208 00       		.uleb128 0
 2500 0209 F113     		.uleb128 .LEHB96-.LFB1169
 2501 020b 3A       		.uleb128 .LEHE96-.LEHB96
 2502 020c B514     		.uleb128 .L138-.LFB1169
 2503 020e 00       		.uleb128 0
 2504 020f AB14     		.uleb128 .LEHB97-.LFB1169
 2505 0211 05       		.uleb128 .LEHE97-.LEHB97
 2506 0212 00       		.uleb128 0
 2507 0213 00       		.uleb128 0
 2508 0214 C714     		.uleb128 .LEHB98-.LFB1169
 2509 0216 05       		.uleb128 .LEHE98-.LEHB98
 2510 0217 00       		.uleb128 0
 2511 0218 00       		.uleb128 0
 2512 0219 D814     		.uleb128 .LEHB99-.LFB1169
 2513 021b 3A       		.uleb128 .LEHE99-.LEHB99
 2514 021c 9C15     		.uleb128 .L140-.LFB1169
 2515 021e 00       		.uleb128 0
 2516 021f 9215     		.uleb128 .LEHB100-.LFB1169
 2517 0221 05       		.uleb128 .LEHE100-.LEHB100
 2518 0222 00       		.uleb128 0
 2519 0223 00       		.uleb128 0
 2520 0224 AE15     		.uleb128 .LEHB101-.LFB1169
 2521 0226 05       		.uleb128 .LEHE101-.LEHB101
 2522 0227 00       		.uleb128 0
 2523 0228 00       		.uleb128 0
 2524 0229 BF15     		.uleb128 .LEHB102-.LFB1169
 2525 022b 3A       		.uleb128 .LEHE102-.LEHB102
 2526 022c 8316     		.uleb128 .L142-.LFB1169
 2527 022e 00       		.uleb128 0
 2528 022f F915     		.uleb128 .LEHB103-.LFB1169
 2529 0231 05       		.uleb128 .LEHE103-.LEHB103
 2530 0232 00       		.uleb128 0
 2531 0233 00       		.uleb128 0
 2532 0234 9516     		.uleb128 .LEHB104-.LFB1169
 2533 0236 05       		.uleb128 .LEHE104-.LEHB104
 2534 0237 00       		.uleb128 0
 2535 0238 00       		.uleb128 0
 2536 0239 A616     		.uleb128 .LEHB105-.LFB1169
 2537 023b 3A       		.uleb128 .LEHE105-.LEHB105
 2538 023c EA16     		.uleb128 .L144-.LFB1169
 2539 023e 00       		.uleb128 0
 2540 023f E016     		.uleb128 .LEHB106-.LFB1169
 2541 0241 05       		.uleb128 .LEHE106-.LEHB106
 2542 0242 00       		.uleb128 0
 2543 0243 00       		.uleb128 0
 2544 0244 FC16     		.uleb128 .LEHB107-.LFB1169
 2545 0246 05       		.uleb128 .LEHE107-.LEHB107
 2546 0247 00       		.uleb128 0
 2547 0248 00       		.uleb128 0
 2548              	.LLSDACSE1169:
 2549 0249 01       		.byte	0x1
 2550 024a 00       		.byte	0
 2551 024b 00       		.align 4
 2552 024c 00000000 		.long	0
 2553              	
 2554              	.LLSDATT1169:
 2555              		.text
 2557              		.section	.rodata
 2558              	.LC21:
 2559 0453 51756575 		.string	"Queue_testPutWrap"
 2559      655F7465 
 2559      73745075 
 2559      74577261 
 2559      7000
 2560              		.section	.text._ZN21TestQueue_testPutWrapC2Ev,"axG",@progbits,_ZN21TestQueue_testPutWrapC5Ev,comda
 2561              		.align 2
 2562              		.weak	_ZN21TestQueue_testPutWrapC2Ev
 2564              	_ZN21TestQueue_testPutWrapC2Ev:
 2565              	.LFB1171:
 118:testCore.cpp  **** 
 119:testCore.cpp  **** TEST(Queue_testPutWrap) {
 2566              		.loc 3 119 1
 2567              		.cfi_startproc
 2568 0000 F30F1EFA 		endbr64
 2569 0004 55       		pushq	%rbp
 2570              		.cfi_def_cfa_offset 16
 2571              		.cfi_offset 6, -16
 2572 0005 4889E5   		movq	%rsp, %rbp
 2573              		.cfi_def_cfa_register 6
 2574 0008 53       		pushq	%rbx
 2575 0009 4883EC18 		subq	$24, %rsp
 2576              		.cfi_offset 3, -24
 2577 000d 48897DE8 		movq	%rdi, -24(%rbp)
 2578              	.LBB6:
 2579              		.loc 3 119 1
 2580 0011 488B5DE8 		movq	-24(%rbp), %rbx
 2581 0015 E8000000 		call	_ZN13UnitTestSuite12GetSuiteNameEv
 2581      00
 2582 001a 4889C2   		movq	%rax, %rdx
 2583 001d 41B87700 		movl	$119, %r8d
 2583      0000
 2584 0023 488D0500 		leaq	.LC1(%rip), %rax
 2584      000000
 2585 002a 4889C1   		movq	%rax, %rcx
 2586 002d 488D0500 		leaq	.LC21(%rip), %rax
 2586      000000
 2587 0034 4889C6   		movq	%rax, %rsi
 2588 0037 4889DF   		movq	%rbx, %rdi
 2589 003a E8000000 		call	_ZN8UnitTest4TestC2EPKcS2_S2_i@PLT
 2589      00
 2590 003f 488D1500 		leaq	16+_ZTV21TestQueue_testPutWrap(%rip), %rdx
 2590      000000
 2591 0046 488B45E8 		movq	-24(%rbp), %rax
 2592 004a 488910   		movq	%rdx, (%rax)
 2593              	.LBE6:
 2594 004d 90       		nop
 2595 004e 488B5DF8 		movq	-8(%rbp), %rbx
 2596 0052 C9       		leave
 2597              		.cfi_def_cfa 7, 8
 2598 0053 C3       		ret
 2599              		.cfi_endproc
 2600              	.LFE1171:
 2602              		.weak	_ZN21TestQueue_testPutWrapC1Ev
 2603              		.set	_ZN21TestQueue_testPutWrapC1Ev,_ZN21TestQueue_testPutWrapC2Ev
 2604              		.globl	testQueue_testPutWrapInstance
 2605              		.bss
 2606 0079 00000000 		.align 32
 2606      000000
 2609              	testQueue_testPutWrapInstance:
 2610 0080 00000000 		.zero	56
 2610      00000000 
 2610      00000000 
 2610      00000000 
 2610      00000000 
 2611              		.globl	adderQueue_testPutWrap
 2614              	adderQueue_testPutWrap:
 2615 00b8 00       		.zero	1
 2616              		.section	.rodata
 2617 0465 000000   		.align 8
 2618              	.LC22:
 2619 0468 556E6861 		.string	"Unhandled exception in CHECK_EQUAL(4UL, *item)"
 2619      6E646C65 
 2619      64206578 
 2619      63657074 
 2619      696F6E20 
 2620 0497 00       		.align 8
 2621              	.LC23:
 2622 0498 556E6861 		.string	"Unhandled exception in CHECK_EQUAL(4UL, queue.numItems)"
 2622      6E646C65 
 2622      64206578 
 2622      63657074 
 2622      696F6E20 
 2623              		.align 8
 2624              	.LC24:
 2625 04d0 556E6861 		.string	"Unhandled exception in CHECK_EQUAL(8UL, deref(queue.itemArray[3]))"
 2625      6E646C65 
 2625      64206578 
 2625      63657074 
 2625      696F6E20 
 2626              		.text
 2627              		.align 2
 2628              		.globl	_ZNK21TestQueue_testPutWrap7RunImplEv
 2630              	_ZNK21TestQueue_testPutWrap7RunImplEv:
 2631              	.LFB1173:
 2632              		.loc 3 119 25
 2633              		.cfi_startproc
 2634              		.cfi_personality 0x9b,DW.ref.__gxx_personality_v0
 2635              		.cfi_lsda 0x1b,.LLSDA1173
 2636 130e F30F1EFA 		endbr64
 2637 1312 55       		pushq	%rbp
 2638              		.cfi_def_cfa_offset 16
 2639              		.cfi_offset 6, -16
 2640 1313 4889E5   		movq	%rsp, %rbp
 2641              		.cfi_def_cfa_register 6
 2642 1316 53       		pushq	%rbx
 2643 1317 4881EC98 		subq	$152, %rsp
 2643      000000
 2644              		.cfi_offset 3, -24
 2645 131e 4889BD68 		movq	%rdi, -152(%rbp)
 2645      FFFFFF
 2646              		.loc 3 119 25
 2647 1325 64488B04 		movq	%fs:40, %rax
 2647      25280000 
 2647      00
 2648 132e 488945E8 		movq	%rax, -24(%rbp)
 2649 1332 31C0     		xorl	%eax, %eax
 120:testCore.cpp  **** 	struct UnboundedQueue queue;
 121:testCore.cpp  **** 	uint32 *item;
 122:testCore.cpp  **** 	m_count = 1;
 2650              		.loc 3 122 10
 2651 1334 C7050000 		movl	$1, _ZL7m_count(%rip)
 2651      00000100 
 2651      0000
 123:testCore.cpp  **** 
 124:testCore.cpp  **** 	// Create queue
 125:testCore.cpp  **** 	USBStatus status = queueInit(&queue, 4, (CreateFunc)createInt, (DestroyFunc)destroyInt);
 2652              		.loc 3 125 30
 2653 133e 488D45B0 		leaq	-80(%rbp), %rax
 2654 1342 488D1500 		leaq	destroyInt(%rip), %rdx
 2654      000000
 2655 1349 4889D1   		movq	%rdx, %rcx
 2656 134c 488D1500 		leaq	createInt(%rip), %rdx
 2656      000000
 2657 1353 BE040000 		movl	$4, %esi
 2657      00
 2658 1358 4889C7   		movq	%rax, %rdi
 2659              	.LEHB108:
 2660 135b E8000000 		call	queueInit@PLT
 2660      00
 2661              	.LEHE108:
 2662              		.loc 3 125 88
 2663 1360 898578FF 		movl	%eax, -136(%rbp)
 2663      FFFF
 2664              	.LEHB109:
 126:testCore.cpp  **** 	CHECK_EQUAL(USB_SUCCESS, status);
 2665              		.loc 3 126 2
 2666 1366 E8000000 		call	_ZN8UnitTest11CurrentTest7DetailsEv@PLT
 2666      00
 2667 136b 488B08   		movq	(%rax), %rcx
 2668 136e 488D4590 		leaq	-112(%rbp), %rax
 2669 1372 BA7E0000 		movl	$126, %edx
 2669      00
 2670 1377 4889CE   		movq	%rcx, %rsi
 2671 137a 4889C7   		movq	%rax, %rdi
 2672 137d E8000000 		call	_ZN8UnitTest11TestDetailsC1ERKS0_i@PLT
 2672      00
 2673              		.loc 3 126 2 is_stmt 0 discriminator 4
 2674 1382 C7458800 		movl	$0, -120(%rbp)
 2674      000000
 2675 1389 E8000000 		call	_ZN8UnitTest11CurrentTest7ResultsEv@PLT
 2675      00
 2676 138e 488B00   		movq	(%rax), %rax
 2677 1391 488D4D90 		leaq	-112(%rbp), %rcx
 2678 1395 488D9578 		leaq	-136(%rbp), %rdx
 2678      FFFFFF
 2679 139c 488D7588 		leaq	-120(%rbp), %rsi
 2680 13a0 4889C7   		movq	%rax, %rdi
 2681 13a3 E8000000 		call	_ZN8UnitTest10CheckEqualI9USBStatusS1_EEvRNS_11TestResultsERKT_RKT0_RKNS_11TestDetailsE
 2681      00
 2682              	.LEHE109:
 2683              	.L149:
 127:testCore.cpp  **** 
 128:testCore.cpp  **** 	// Put four items into the queue
 129:testCore.cpp  **** 	status = queuePut(&queue, (Item*)&item);
 2684              		.loc 3 129 19 is_stmt 1
 2685 13a8 488D5580 		leaq	-128(%rbp), %rdx
 2686 13ac 488D45B0 		leaq	-80(%rbp), %rax
 2687 13b0 4889D6   		movq	%rdx, %rsi
 2688 13b3 4889C7   		movq	%rax, %rdi
 2689              	.LEHB110:
 2690 13b6 E8000000 		call	queuePut@PLT
 2690      00
 2691              	.LEHE110:
 2692              		.loc 3 129 9
 2693 13bb 898578FF 		movl	%eax, -136(%rbp)
 2693      FFFF
 2694              	.LEHB111:
 130:testCore.cpp  **** 	CHECK_EQUAL(USB_SUCCESS, status);
 2695              		.loc 3 130 2
 2696 13c1 E8000000 		call	_ZN8UnitTest11CurrentTest7DetailsEv@PLT
 2696      00
 2697 13c6 488B08   		movq	(%rax), %rcx
 2698 13c9 488D4590 		leaq	-112(%rbp), %rax
 2699 13cd BA820000 		movl	$130, %edx
 2699      00
 2700 13d2 4889CE   		movq	%rcx, %rsi
 2701 13d5 4889C7   		movq	%rax, %rdi
 2702 13d8 E8000000 		call	_ZN8UnitTest11TestDetailsC1ERKS0_i@PLT
 2702      00
 2703              		.loc 3 130 2 is_stmt 0 discriminator 4
 2704 13dd C7458800 		movl	$0, -120(%rbp)
 2704      000000
 2705 13e4 E8000000 		call	_ZN8UnitTest11CurrentTest7ResultsEv@PLT
 2705      00
 2706 13e9 488B00   		movq	(%rax), %rax
 2707 13ec 488D4D90 		leaq	-112(%rbp), %rcx
 2708 13f0 488D9578 		leaq	-136(%rbp), %rdx
 2708      FFFFFF
 2709 13f7 488D7588 		leaq	-120(%rbp), %rsi
 2710 13fb 4889C7   		movq	%rax, %rdi
 2711 13fe E8000000 		call	_ZN8UnitTest10CheckEqualI9USBStatusS1_EEvRNS_11TestResultsERKT_RKT0_RKNS_11TestDetailsE
 2711      00
 2712              	.LEHE111:
 2713              	.L152:
 2714              	.LEHB112:
 131:testCore.cpp  **** 	CHECK_EQUAL(1UL, *item);
 2715              		.loc 3 131 2 is_stmt 1
 2716 1403 E8000000 		call	_ZN8UnitTest11CurrentTest7DetailsEv@PLT
 2716      00
 2717 1408 488B08   		movq	(%rax), %rcx
 2718 140b 488D4590 		leaq	-112(%rbp), %rax
 2719 140f BA830000 		movl	$131, %edx
 2719      00
 2720 1414 4889CE   		movq	%rcx, %rsi
 2721 1417 4889C7   		movq	%rax, %rdi
 2722 141a E8000000 		call	_ZN8UnitTest11TestDetailsC1ERKS0_i@PLT
 2722      00
 2723              		.loc 3 131 2 is_stmt 0 discriminator 4
 2724 141f 488B5D80 		movq	-128(%rbp), %rbx
 2725 1423 48C74588 		movq	$1, -120(%rbp)
 2725      01000000 
 2726 142b E8000000 		call	_ZN8UnitTest11CurrentTest7ResultsEv@PLT
 2726      00
 2727 1430 488B00   		movq	(%rax), %rax
 2728 1433 488D5590 		leaq	-112(%rbp), %rdx
 2729 1437 488D7588 		leaq	-120(%rbp), %rsi
 2730 143b 4889D1   		movq	%rdx, %rcx
 2731 143e 4889DA   		movq	%rbx, %rdx
 2732 1441 4889C7   		movq	%rax, %rdi
 2733 1444 E8000000 		call	_ZN8UnitTest10CheckEqualImjEEvRNS_11TestResultsERKT_RKT0_RKNS_11TestDetailsE
 2733      00
 2734              	.LEHE112:
 2735              	.L155:
 132:testCore.cpp  **** 	*item = 5;
 2736              		.loc 3 132 2 is_stmt 1
 2737 1449 488B4580 		movq	-128(%rbp), %rax
 2738              		.loc 3 132 8
 2739 144d C7000500 		movl	$5, (%rax)
 2739      0000
 133:testCore.cpp  **** 	queueCommitPut(&queue);
 2740              		.loc 3 133 16
 2741 1453 488D45B0 		leaq	-80(%rbp), %rax
 2742 1457 4889C7   		movq	%rax, %rdi
 2743              	.LEHB113:
 2744 145a E8000000 		call	queueCommitPut@PLT
 2744      00
 134:testCore.cpp  **** 	status = queuePut(&queue, (Item*)&item);
 2745              		.loc 3 134 19
 2746 145f 488D5580 		leaq	-128(%rbp), %rdx
 2747 1463 488D45B0 		leaq	-80(%rbp), %rax
 2748 1467 4889D6   		movq	%rdx, %rsi
 2749 146a 4889C7   		movq	%rax, %rdi
 2750 146d E8000000 		call	queuePut@PLT
 2750      00
 2751              	.LEHE113:
 2752              		.loc 3 134 9
 2753 1472 898578FF 		movl	%eax, -136(%rbp)
 2753      FFFF
 2754              	.LEHB114:
 135:testCore.cpp  **** 	CHECK_EQUAL(USB_SUCCESS, status);
 2755              		.loc 3 135 2
 2756 1478 E8000000 		call	_ZN8UnitTest11CurrentTest7DetailsEv@PLT
 2756      00
 2757 147d 488B08   		movq	(%rax), %rcx
 2758 1480 488D4590 		leaq	-112(%rbp), %rax
 2759 1484 BA870000 		movl	$135, %edx
 2759      00
 2760 1489 4889CE   		movq	%rcx, %rsi
 2761 148c 4889C7   		movq	%rax, %rdi
 2762 148f E8000000 		call	_ZN8UnitTest11TestDetailsC1ERKS0_i@PLT
 2762      00
 2763              		.loc 3 135 2 is_stmt 0 discriminator 4
 2764 1494 C7458800 		movl	$0, -120(%rbp)
 2764      000000
 2765 149b E8000000 		call	_ZN8UnitTest11CurrentTest7ResultsEv@PLT
 2765      00
 2766 14a0 488B00   		movq	(%rax), %rax
 2767 14a3 488D4D90 		leaq	-112(%rbp), %rcx
 2768 14a7 488D9578 		leaq	-136(%rbp), %rdx
 2768      FFFFFF
 2769 14ae 488D7588 		leaq	-120(%rbp), %rsi
 2770 14b2 4889C7   		movq	%rax, %rdi
 2771 14b5 E8000000 		call	_ZN8UnitTest10CheckEqualI9USBStatusS1_EEvRNS_11TestResultsERKT_RKT0_RKNS_11TestDetailsE
 2771      00
 2772              	.LEHE114:
 2773              	.L158:
 2774              	.LEHB115:
 136:testCore.cpp  **** 	CHECK_EQUAL(2UL, *item);
 2775              		.loc 3 136 2 is_stmt 1
 2776 14ba E8000000 		call	_ZN8UnitTest11CurrentTest7DetailsEv@PLT
 2776      00
 2777 14bf 488B08   		movq	(%rax), %rcx
 2778 14c2 488D4590 		leaq	-112(%rbp), %rax
 2779 14c6 BA880000 		movl	$136, %edx
 2779      00
 2780 14cb 4889CE   		movq	%rcx, %rsi
 2781 14ce 4889C7   		movq	%rax, %rdi
 2782 14d1 E8000000 		call	_ZN8UnitTest11TestDetailsC1ERKS0_i@PLT
 2782      00
 2783              		.loc 3 136 2 is_stmt 0 discriminator 4
 2784 14d6 488B5D80 		movq	-128(%rbp), %rbx
 2785 14da 48C74588 		movq	$2, -120(%rbp)
 2785      02000000 
 2786 14e2 E8000000 		call	_ZN8UnitTest11CurrentTest7ResultsEv@PLT
 2786      00
 2787 14e7 488B00   		movq	(%rax), %rax
 2788 14ea 488D5590 		leaq	-112(%rbp), %rdx
 2789 14ee 488D7588 		leaq	-120(%rbp), %rsi
 2790 14f2 4889D1   		movq	%rdx, %rcx
 2791 14f5 4889DA   		movq	%rbx, %rdx
 2792 14f8 4889C7   		movq	%rax, %rdi
 2793 14fb E8000000 		call	_ZN8UnitTest10CheckEqualImjEEvRNS_11TestResultsERKT_RKT0_RKNS_11TestDetailsE
 2793      00
 2794              	.LEHE115:
 2795              	.L161:
 137:testCore.cpp  **** 	*item = 6;
 2796              		.loc 3 137 2 is_stmt 1
 2797 1500 488B4580 		movq	-128(%rbp), %rax
 2798              		.loc 3 137 8
 2799 1504 C7000600 		movl	$6, (%rax)
 2799      0000
 138:testCore.cpp  **** 	queueCommitPut(&queue);
 2800              		.loc 3 138 16
 2801 150a 488D45B0 		leaq	-80(%rbp), %rax
 2802 150e 4889C7   		movq	%rax, %rdi
 2803              	.LEHB116:
 2804 1511 E8000000 		call	queueCommitPut@PLT
 2804      00
 139:testCore.cpp  **** 	status = queuePut(&queue, (Item*)&item);
 2805              		.loc 3 139 19
 2806 1516 488D5580 		leaq	-128(%rbp), %rdx
 2807 151a 488D45B0 		leaq	-80(%rbp), %rax
 2808 151e 4889D6   		movq	%rdx, %rsi
 2809 1521 4889C7   		movq	%rax, %rdi
 2810 1524 E8000000 		call	queuePut@PLT
 2810      00
 2811              	.LEHE116:
 2812              		.loc 3 139 9
 2813 1529 898578FF 		movl	%eax, -136(%rbp)
 2813      FFFF
 2814              	.LEHB117:
 140:testCore.cpp  **** 	CHECK_EQUAL(USB_SUCCESS, status);
 2815              		.loc 3 140 2
 2816 152f E8000000 		call	_ZN8UnitTest11CurrentTest7DetailsEv@PLT
 2816      00
 2817 1534 488B08   		movq	(%rax), %rcx
 2818 1537 488D4590 		leaq	-112(%rbp), %rax
 2819 153b BA8C0000 		movl	$140, %edx
 2819      00
 2820 1540 4889CE   		movq	%rcx, %rsi
 2821 1543 4889C7   		movq	%rax, %rdi
 2822 1546 E8000000 		call	_ZN8UnitTest11TestDetailsC1ERKS0_i@PLT
 2822      00
 2823              		.loc 3 140 2 is_stmt 0 discriminator 4
 2824 154b C7458800 		movl	$0, -120(%rbp)
 2824      000000
 2825 1552 E8000000 		call	_ZN8UnitTest11CurrentTest7ResultsEv@PLT
 2825      00
 2826 1557 488B00   		movq	(%rax), %rax
 2827 155a 488D4D90 		leaq	-112(%rbp), %rcx
 2828 155e 488D9578 		leaq	-136(%rbp), %rdx
 2828      FFFFFF
 2829 1565 488D7588 		leaq	-120(%rbp), %rsi
 2830 1569 4889C7   		movq	%rax, %rdi
 2831 156c E8000000 		call	_ZN8UnitTest10CheckEqualI9USBStatusS1_EEvRNS_11TestResultsERKT_RKT0_RKNS_11TestDetailsE
 2831      00
 2832              	.LEHE117:
 2833              	.L164:
 2834              	.LEHB118:
 141:testCore.cpp  **** 	CHECK_EQUAL(3UL, *item);
 2835              		.loc 3 141 2 is_stmt 1
 2836 1571 E8000000 		call	_ZN8UnitTest11CurrentTest7DetailsEv@PLT
 2836      00
 2837 1576 488B08   		movq	(%rax), %rcx
 2838 1579 488D4590 		leaq	-112(%rbp), %rax
 2839 157d BA8D0000 		movl	$141, %edx
 2839      00
 2840 1582 4889CE   		movq	%rcx, %rsi
 2841 1585 4889C7   		movq	%rax, %rdi
 2842 1588 E8000000 		call	_ZN8UnitTest11TestDetailsC1ERKS0_i@PLT
 2842      00
 2843              		.loc 3 141 2 is_stmt 0 discriminator 4
 2844 158d 488B5D80 		movq	-128(%rbp), %rbx
 2845 1591 48C74588 		movq	$3, -120(%rbp)
 2845      03000000 
 2846 1599 E8000000 		call	_ZN8UnitTest11CurrentTest7ResultsEv@PLT
 2846      00
 2847 159e 488B00   		movq	(%rax), %rax
 2848 15a1 488D5590 		leaq	-112(%rbp), %rdx
 2849 15a5 488D7588 		leaq	-120(%rbp), %rsi
 2850 15a9 4889D1   		movq	%rdx, %rcx
 2851 15ac 4889DA   		movq	%rbx, %rdx
 2852 15af 4889C7   		movq	%rax, %rdi
 2853 15b2 E8000000 		call	_ZN8UnitTest10CheckEqualImjEEvRNS_11TestResultsERKT_RKT0_RKNS_11TestDetailsE
 2853      00
 2854              	.LEHE118:
 2855              	.L167:
 142:testCore.cpp  **** 	*item = 7;
 2856              		.loc 3 142 2 is_stmt 1
 2857 15b7 488B4580 		movq	-128(%rbp), %rax
 2858              		.loc 3 142 8
 2859 15bb C7000700 		movl	$7, (%rax)
 2859      0000
 143:testCore.cpp  **** 	queueCommitPut(&queue);
 2860              		.loc 3 143 16
 2861 15c1 488D45B0 		leaq	-80(%rbp), %rax
 2862 15c5 4889C7   		movq	%rax, %rdi
 2863              	.LEHB119:
 2864 15c8 E8000000 		call	queueCommitPut@PLT
 2864      00
 144:testCore.cpp  **** 	status = queuePut(&queue, (Item*)&item);
 2865              		.loc 3 144 19
 2866 15cd 488D5580 		leaq	-128(%rbp), %rdx
 2867 15d1 488D45B0 		leaq	-80(%rbp), %rax
 2868 15d5 4889D6   		movq	%rdx, %rsi
 2869 15d8 4889C7   		movq	%rax, %rdi
 2870 15db E8000000 		call	queuePut@PLT
 2870      00
 2871              	.LEHE119:
 2872              		.loc 3 144 9
 2873 15e0 898578FF 		movl	%eax, -136(%rbp)
 2873      FFFF
 2874              	.LEHB120:
 145:testCore.cpp  **** 	CHECK_EQUAL(USB_SUCCESS, status);
 2875              		.loc 3 145 2
 2876 15e6 E8000000 		call	_ZN8UnitTest11CurrentTest7DetailsEv@PLT
 2876      00
 2877 15eb 488B08   		movq	(%rax), %rcx
 2878 15ee 488D4590 		leaq	-112(%rbp), %rax
 2879 15f2 BA910000 		movl	$145, %edx
 2879      00
 2880 15f7 4889CE   		movq	%rcx, %rsi
 2881 15fa 4889C7   		movq	%rax, %rdi
 2882 15fd E8000000 		call	_ZN8UnitTest11TestDetailsC1ERKS0_i@PLT
 2882      00
 2883              		.loc 3 145 2 is_stmt 0 discriminator 4
 2884 1602 C7458800 		movl	$0, -120(%rbp)
 2884      000000
 2885 1609 E8000000 		call	_ZN8UnitTest11CurrentTest7ResultsEv@PLT
 2885      00
 2886 160e 488B00   		movq	(%rax), %rax
 2887 1611 488D4D90 		leaq	-112(%rbp), %rcx
 2888 1615 488D9578 		leaq	-136(%rbp), %rdx
 2888      FFFFFF
 2889 161c 488D7588 		leaq	-120(%rbp), %rsi
 2890 1620 4889C7   		movq	%rax, %rdi
 2891 1623 E8000000 		call	_ZN8UnitTest10CheckEqualI9USBStatusS1_EEvRNS_11TestResultsERKT_RKT0_RKNS_11TestDetailsE
 2891      00
 2892              	.LEHE120:
 2893              	.L170:
 2894              	.LEHB121:
 146:testCore.cpp  **** 	CHECK_EQUAL(4UL, *item);
 2895              		.loc 3 146 2 is_stmt 1
 2896 1628 E8000000 		call	_ZN8UnitTest11CurrentTest7DetailsEv@PLT
 2896      00
 2897 162d 488B08   		movq	(%rax), %rcx
 2898 1630 488D4590 		leaq	-112(%rbp), %rax
 2899 1634 BA920000 		movl	$146, %edx
 2899      00
 2900 1639 4889CE   		movq	%rcx, %rsi
 2901 163c 4889C7   		movq	%rax, %rdi
 2902 163f E8000000 		call	_ZN8UnitTest11TestDetailsC1ERKS0_i@PLT
 2902      00
 2903              		.loc 3 146 2 is_stmt 0 discriminator 4
 2904 1644 488B5D80 		movq	-128(%rbp), %rbx
 2905 1648 48C74588 		movq	$4, -120(%rbp)
 2905      04000000 
 2906 1650 E8000000 		call	_ZN8UnitTest11CurrentTest7ResultsEv@PLT
 2906      00
 2907 1655 488B00   		movq	(%rax), %rax
 2908 1658 488D5590 		leaq	-112(%rbp), %rdx
 2909 165c 488D7588 		leaq	-120(%rbp), %rsi
 2910 1660 4889D1   		movq	%rdx, %rcx
 2911 1663 4889DA   		movq	%rbx, %rdx
 2912 1666 4889C7   		movq	%rax, %rdi
 2913 1669 E8000000 		call	_ZN8UnitTest10CheckEqualImjEEvRNS_11TestResultsERKT_RKT0_RKNS_11TestDetailsE
 2913      00
 2914              	.LEHE121:
 2915              	.L173:
 147:testCore.cpp  **** 	*item = 8;
 2916              		.loc 3 147 2 is_stmt 1
 2917 166e 488B4580 		movq	-128(%rbp), %rax
 2918              		.loc 3 147 8
 2919 1672 C7000800 		movl	$8, (%rax)
 2919      0000
 148:testCore.cpp  **** 	queueCommitPut(&queue);
 2920              		.loc 3 148 16
 2921 1678 488D45B0 		leaq	-80(%rbp), %rax
 2922 167c 4889C7   		movq	%rax, %rdi
 2923              	.LEHB122:
 2924 167f E8000000 		call	queueCommitPut@PLT
 2924      00
 2925              	.LEHE122:
 2926              	.LEHB123:
 149:testCore.cpp  **** 
 150:testCore.cpp  **** 	// Verify
 151:testCore.cpp  **** 	CHECK_EQUAL(4UL, queue.capacity);
 2927              		.loc 3 151 2
 2928 1684 E8000000 		call	_ZN8UnitTest11CurrentTest7DetailsEv@PLT
 2928      00
 2929 1689 488B08   		movq	(%rax), %rcx
 2930 168c 488D4590 		leaq	-112(%rbp), %rax
 2931 1690 BA970000 		movl	$151, %edx
 2931      00
 2932 1695 4889CE   		movq	%rcx, %rsi
 2933 1698 4889C7   		movq	%rax, %rdi
 2934 169b E8000000 		call	_ZN8UnitTest11TestDetailsC1ERKS0_i@PLT
 2934      00
 2935              		.loc 3 151 2 is_stmt 0 discriminator 4
 2936 16a0 48C74588 		movq	$4, -120(%rbp)
 2936      04000000 
 2937 16a8 E8000000 		call	_ZN8UnitTest11CurrentTest7ResultsEv@PLT
 2937      00
 2938 16ad 488B00   		movq	(%rax), %rax
 2939 16b0 488D5590 		leaq	-112(%rbp), %rdx
 2940 16b4 488D4DB0 		leaq	-80(%rbp), %rcx
 2941 16b8 488D7908 		leaq	8(%rcx), %rdi
 2942 16bc 488D7588 		leaq	-120(%rbp), %rsi
 2943 16c0 4889D1   		movq	%rdx, %rcx
 2944 16c3 4889FA   		movq	%rdi, %rdx
 2945 16c6 4889C7   		movq	%rax, %rdi
 2946 16c9 E8000000 		call	_ZN8UnitTest10CheckEqualImmEEvRNS_11TestResultsERKT_RKT0_RKNS_11TestDetailsE
 2946      00
 2947              	.LEHE123:
 2948              	.L176:
 2949              	.LEHB124:
 152:testCore.cpp  **** 	CHECK_EQUAL(0UL, queue.putIndex);
 2950              		.loc 3 152 2 is_stmt 1
 2951 16ce E8000000 		call	_ZN8UnitTest11CurrentTest7DetailsEv@PLT
 2951      00
 2952 16d3 488B08   		movq	(%rax), %rcx
 2953 16d6 488D4590 		leaq	-112(%rbp), %rax
 2954 16da BA980000 		movl	$152, %edx
 2954      00
 2955 16df 4889CE   		movq	%rcx, %rsi
 2956 16e2 4889C7   		movq	%rax, %rdi
 2957 16e5 E8000000 		call	_ZN8UnitTest11TestDetailsC1ERKS0_i@PLT
 2957      00
 2958              		.loc 3 152 2 is_stmt 0 discriminator 4
 2959 16ea 48C74588 		movq	$0, -120(%rbp)
 2959      00000000 
 2960 16f2 E8000000 		call	_ZN8UnitTest11CurrentTest7ResultsEv@PLT
 2960      00
 2961 16f7 488B00   		movq	(%rax), %rax
 2962 16fa 488D5590 		leaq	-112(%rbp), %rdx
 2963 16fe 488D4DB0 		leaq	-80(%rbp), %rcx
 2964 1702 488D7910 		leaq	16(%rcx), %rdi
 2965 1706 488D7588 		leaq	-120(%rbp), %rsi
 2966 170a 4889D1   		movq	%rdx, %rcx
 2967 170d 4889FA   		movq	%rdi, %rdx
 2968 1710 4889C7   		movq	%rax, %rdi
 2969 1713 E8000000 		call	_ZN8UnitTest10CheckEqualImmEEvRNS_11TestResultsERKT_RKT0_RKNS_11TestDetailsE
 2969      00
 2970              	.LEHE124:
 2971              	.L179:
 2972              	.LEHB125:
 153:testCore.cpp  **** 	CHECK_EQUAL(0UL, queue.takeIndex);
 2973              		.loc 3 153 2 is_stmt 1
 2974 1718 E8000000 		call	_ZN8UnitTest11CurrentTest7DetailsEv@PLT
 2974      00
 2975 171d 488B08   		movq	(%rax), %rcx
 2976 1720 488D4590 		leaq	-112(%rbp), %rax
 2977 1724 BA990000 		movl	$153, %edx
 2977      00
 2978 1729 4889CE   		movq	%rcx, %rsi
 2979 172c 4889C7   		movq	%rax, %rdi
 2980 172f E8000000 		call	_ZN8UnitTest11TestDetailsC1ERKS0_i@PLT
 2980      00
 2981              		.loc 3 153 2 is_stmt 0 discriminator 4
 2982 1734 48C74588 		movq	$0, -120(%rbp)
 2982      00000000 
 2983 173c E8000000 		call	_ZN8UnitTest11CurrentTest7ResultsEv@PLT
 2983      00
 2984 1741 488B00   		movq	(%rax), %rax
 2985 1744 488D5590 		leaq	-112(%rbp), %rdx
 2986 1748 488D4DB0 		leaq	-80(%rbp), %rcx
 2987 174c 488D7918 		leaq	24(%rcx), %rdi
 2988 1750 488D7588 		leaq	-120(%rbp), %rsi
 2989 1754 4889D1   		movq	%rdx, %rcx
 2990 1757 4889FA   		movq	%rdi, %rdx
 2991 175a 4889C7   		movq	%rax, %rdi
 2992 175d E8000000 		call	_ZN8UnitTest10CheckEqualImmEEvRNS_11TestResultsERKT_RKT0_RKNS_11TestDetailsE
 2992      00
 2993              	.LEHE125:
 2994              	.L182:
 2995              	.LEHB126:
 154:testCore.cpp  **** 	CHECK_EQUAL(4UL, queue.numItems);
 2996              		.loc 3 154 2 is_stmt 1
 2997 1762 E8000000 		call	_ZN8UnitTest11CurrentTest7DetailsEv@PLT
 2997      00
 2998 1767 488B08   		movq	(%rax), %rcx
 2999 176a 488D4590 		leaq	-112(%rbp), %rax
 3000 176e BA9A0000 		movl	$154, %edx
 3000      00
 3001 1773 4889CE   		movq	%rcx, %rsi
 3002 1776 4889C7   		movq	%rax, %rdi
 3003 1779 E8000000 		call	_ZN8UnitTest11TestDetailsC1ERKS0_i@PLT
 3003      00
 3004              		.loc 3 154 2 is_stmt 0 discriminator 4
 3005 177e 48C74588 		movq	$4, -120(%rbp)
 3005      04000000 
 3006 1786 E8000000 		call	_ZN8UnitTest11CurrentTest7ResultsEv@PLT
 3006      00
 3007 178b 488B00   		movq	(%rax), %rax
 3008 178e 488D5590 		leaq	-112(%rbp), %rdx
 3009 1792 488D4DB0 		leaq	-80(%rbp), %rcx
 3010 1796 488D7920 		leaq	32(%rcx), %rdi
 3011 179a 488D7588 		leaq	-120(%rbp), %rsi
 3012 179e 4889D1   		movq	%rdx, %rcx
 3013 17a1 4889FA   		movq	%rdi, %rdx
 3014 17a4 4889C7   		movq	%rax, %rdi
 3015 17a7 E8000000 		call	_ZN8UnitTest10CheckEqualImmEEvRNS_11TestResultsERKT_RKT0_RKNS_11TestDetailsE
 3015      00
 3016              	.LEHE126:
 3017              	.L185:
 3018              	.LEHB127:
 155:testCore.cpp  **** 
 156:testCore.cpp  **** 	// Verify array
 157:testCore.cpp  **** 	CHECK_EQUAL(5UL, deref(queue.itemArray[0]));
 3019              		.loc 3 157 2 is_stmt 1
 3020 17ac E8000000 		call	_ZN8UnitTest11CurrentTest7DetailsEv@PLT
 3020      00
 3021 17b1 488B08   		movq	(%rax), %rcx
 3022 17b4 488D4590 		leaq	-112(%rbp), %rax
 3023 17b8 BA9D0000 		movl	$157, %edx
 3023      00
 3024 17bd 4889CE   		movq	%rcx, %rsi
 3025 17c0 4889C7   		movq	%rax, %rdi
 3026 17c3 E8000000 		call	_ZN8UnitTest11TestDetailsC1ERKS0_i@PLT
 3026      00
 3027              		.loc 3 157 2 is_stmt 0 discriminator 4
 3028 17c8 488B45B0 		movq	-80(%rbp), %rax
 3029 17cc 488B00   		movq	(%rax), %rax
 3030 17cf 4889C7   		movq	%rax, %rdi
 3031 17d2 E8BBE8FF 		call	_ZL5derefPKv
 3031      FF
 3032 17d7 89857CFF 		movl	%eax, -132(%rbp)
 3032      FFFF
 3033 17dd 48C74588 		movq	$5, -120(%rbp)
 3033      05000000 
 3034 17e5 E8000000 		call	_ZN8UnitTest11CurrentTest7ResultsEv@PLT
 3034      00
 3035 17ea 488B00   		movq	(%rax), %rax
 3036 17ed 488D4D90 		leaq	-112(%rbp), %rcx
 3037 17f1 488D957C 		leaq	-132(%rbp), %rdx
 3037      FFFFFF
 3038 17f8 488D7588 		leaq	-120(%rbp), %rsi
 3039 17fc 4889C7   		movq	%rax, %rdi
 3040 17ff E8000000 		call	_ZN8UnitTest10CheckEqualImjEEvRNS_11TestResultsERKT_RKT0_RKNS_11TestDetailsE
 3040      00
 3041              	.LEHE127:
 3042              	.L188:
 3043              	.LEHB128:
 158:testCore.cpp  **** 	CHECK_EQUAL(6UL, deref(queue.itemArray[1]));
 3044              		.loc 3 158 2 is_stmt 1
 3045 1804 E8000000 		call	_ZN8UnitTest11CurrentTest7DetailsEv@PLT
 3045      00
 3046 1809 488B08   		movq	(%rax), %rcx
 3047 180c 488D4590 		leaq	-112(%rbp), %rax
 3048 1810 BA9E0000 		movl	$158, %edx
 3048      00
 3049 1815 4889CE   		movq	%rcx, %rsi
 3050 1818 4889C7   		movq	%rax, %rdi
 3051 181b E8000000 		call	_ZN8UnitTest11TestDetailsC1ERKS0_i@PLT
 3051      00
 3052              		.loc 3 158 2 is_stmt 0 discriminator 4
 3053 1820 488B45B0 		movq	-80(%rbp), %rax
 3054 1824 4883C008 		addq	$8, %rax
 3055 1828 488B00   		movq	(%rax), %rax
 3056 182b 4889C7   		movq	%rax, %rdi
 3057 182e E85FE8FF 		call	_ZL5derefPKv
 3057      FF
 3058 1833 89857CFF 		movl	%eax, -132(%rbp)
 3058      FFFF
 3059 1839 48C74588 		movq	$6, -120(%rbp)
 3059      06000000 
 3060 1841 E8000000 		call	_ZN8UnitTest11CurrentTest7ResultsEv@PLT
 3060      00
 3061 1846 488B00   		movq	(%rax), %rax
 3062 1849 488D4D90 		leaq	-112(%rbp), %rcx
 3063 184d 488D957C 		leaq	-132(%rbp), %rdx
 3063      FFFFFF
 3064 1854 488D7588 		leaq	-120(%rbp), %rsi
 3065 1858 4889C7   		movq	%rax, %rdi
 3066 185b E8000000 		call	_ZN8UnitTest10CheckEqualImjEEvRNS_11TestResultsERKT_RKT0_RKNS_11TestDetailsE
 3066      00
 3067              	.LEHE128:
 3068              	.L191:
 3069              	.LEHB129:
 159:testCore.cpp  **** 	CHECK_EQUAL(7UL, deref(queue.itemArray[2]));
 3070              		.loc 3 159 2 is_stmt 1
 3071 1860 E8000000 		call	_ZN8UnitTest11CurrentTest7DetailsEv@PLT
 3071      00
 3072 1865 488B08   		movq	(%rax), %rcx
 3073 1868 488D4590 		leaq	-112(%rbp), %rax
 3074 186c BA9F0000 		movl	$159, %edx
 3074      00
 3075 1871 4889CE   		movq	%rcx, %rsi
 3076 1874 4889C7   		movq	%rax, %rdi
 3077 1877 E8000000 		call	_ZN8UnitTest11TestDetailsC1ERKS0_i@PLT
 3077      00
 3078              		.loc 3 159 2 is_stmt 0 discriminator 4
 3079 187c 488B45B0 		movq	-80(%rbp), %rax
 3080 1880 4883C010 		addq	$16, %rax
 3081 1884 488B00   		movq	(%rax), %rax
 3082 1887 4889C7   		movq	%rax, %rdi
 3083 188a E803E8FF 		call	_ZL5derefPKv
 3083      FF
 3084 188f 89857CFF 		movl	%eax, -132(%rbp)
 3084      FFFF
 3085 1895 48C74588 		movq	$7, -120(%rbp)
 3085      07000000 
 3086 189d E8000000 		call	_ZN8UnitTest11CurrentTest7ResultsEv@PLT
 3086      00
 3087 18a2 488B00   		movq	(%rax), %rax
 3088 18a5 488D4D90 		leaq	-112(%rbp), %rcx
 3089 18a9 488D957C 		leaq	-132(%rbp), %rdx
 3089      FFFFFF
 3090 18b0 488D7588 		leaq	-120(%rbp), %rsi
 3091 18b4 4889C7   		movq	%rax, %rdi
 3092 18b7 E8000000 		call	_ZN8UnitTest10CheckEqualImjEEvRNS_11TestResultsERKT_RKT0_RKNS_11TestDetailsE
 3092      00
 3093              	.LEHE129:
 3094              	.L194:
 3095              	.LEHB130:
 160:testCore.cpp  **** 	CHECK_EQUAL(8UL, deref(queue.itemArray[3]));
 3096              		.loc 3 160 2 is_stmt 1
 3097 18bc E8000000 		call	_ZN8UnitTest11CurrentTest7DetailsEv@PLT
 3097      00
 3098 18c1 488B08   		movq	(%rax), %rcx
 3099 18c4 488D4590 		leaq	-112(%rbp), %rax
 3100 18c8 BAA00000 		movl	$160, %edx
 3100      00
 3101 18cd 4889CE   		movq	%rcx, %rsi
 3102 18d0 4889C7   		movq	%rax, %rdi
 3103 18d3 E8000000 		call	_ZN8UnitTest11TestDetailsC1ERKS0_i@PLT
 3103      00
 3104              		.loc 3 160 2 is_stmt 0 discriminator 4
 3105 18d8 488B45B0 		movq	-80(%rbp), %rax
 3106 18dc 4883C018 		addq	$24, %rax
 3107 18e0 488B00   		movq	(%rax), %rax
 3108 18e3 4889C7   		movq	%rax, %rdi
 3109 18e6 E8A7E7FF 		call	_ZL5derefPKv
 3109      FF
 3110 18eb 89857CFF 		movl	%eax, -132(%rbp)
 3110      FFFF
 3111 18f1 48C74588 		movq	$8, -120(%rbp)
 3111      08000000 
 3112 18f9 E8000000 		call	_ZN8UnitTest11CurrentTest7ResultsEv@PLT
 3112      00
 3113 18fe 488B00   		movq	(%rax), %rax
 3114 1901 488D4D90 		leaq	-112(%rbp), %rcx
 3115 1905 488D957C 		leaq	-132(%rbp), %rdx
 3115      FFFFFF
 3116 190c 488D7588 		leaq	-120(%rbp), %rsi
 3117 1910 4889C7   		movq	%rax, %rdi
 3118 1913 E8000000 		call	_ZN8UnitTest10CheckEqualImjEEvRNS_11TestResultsERKT_RKT0_RKNS_11TestDetailsE
 3118      00
 3119              	.LEHE130:
 3120              	.L197:
 161:testCore.cpp  **** 
 162:testCore.cpp  **** 	// Clean up
 163:testCore.cpp  **** 	queueDestroy(&queue);
 3121              		.loc 3 163 14 is_stmt 1
 3122 1918 488D45B0 		leaq	-80(%rbp), %rax
 3123 191c 4889C7   		movq	%rax, %rdi
 3124              	.LEHB131:
 3125 191f E8000000 		call	queueDestroy@PLT
 3125      00
 3126              	.LEHE131:
 164:testCore.cpp  **** }
 3127              		.loc 3 164 1
 3128 1924 90       		nop
 3129 1925 488B45E8 		movq	-24(%rbp), %rax
 3130 1929 64482B04 		subq	%fs:40, %rax
 3130      25280000 
 3130      00
 3131 1932 0F84E106 		je	.L199
 3131      0000
 3132 1938 E9D70600 		jmp	.L234
 3132      00
 3133              	.L200:
 3134 193d F30F1EFA 		endbr64
 126:testCore.cpp  **** 
 3135              		.loc 3 126 2
 3136 1941 4889C7   		movq	%rax, %rdi
 3137 1944 E8000000 		call	__cxa_begin_catch@PLT
 3137      00
 3138              	.LEHB132:
 3139 1949 E8000000 		call	_ZN8UnitTest11CurrentTest7ResultsEv@PLT
 3139      00
 126:testCore.cpp  **** 
 3140              		.loc 3 126 2 is_stmt 0 discriminator 3
 3141 194e 488B18   		movq	(%rax), %rbx
 3142 1951 E8000000 		call	_ZN8UnitTest11CurrentTest7DetailsEv@PLT
 3142      00
 126:testCore.cpp  **** 
 3143              		.loc 3 126 2 discriminator 11
 3144 1956 488B08   		movq	(%rax), %rcx
 3145 1959 488D4590 		leaq	-112(%rbp), %rax
 3146 195d BA7E0000 		movl	$126, %edx
 3146      00
 3147 1962 4889CE   		movq	%rcx, %rsi
 3148 1965 4889C7   		movq	%rax, %rdi
 3149 1968 E8000000 		call	_ZN8UnitTest11TestDetailsC1ERKS0_i@PLT
 3149      00
 126:testCore.cpp  **** 
 3150              		.loc 3 126 2 discriminator 15
 3151 196d 488D4590 		leaq	-112(%rbp), %rax
 3152 1971 488D1500 		leaq	.LC3(%rip), %rdx
 3152      000000
 3153 1978 4889C6   		movq	%rax, %rsi
 3154 197b 4889DF   		movq	%rbx, %rdi
 3155 197e E8000000 		call	_ZN8UnitTest11TestResults13OnTestFailureERKNS_11TestDetailsEPKc@PLT
 3155      00
 3156              	.LEHE132:
 3157              	.LEHB133:
 126:testCore.cpp  **** 
 3158              		.loc 3 126 2 discriminator 17
 3159 1983 E8000000 		call	__cxa_end_catch@PLT
 3159      00
 3160              	.LEHE133:
 3161 1988 E91BFAFF 		jmp	.L149
 3161      FF
 3162              	.L201:
 3163 198d F30F1EFA 		endbr64
 126:testCore.cpp  **** 
 3164              		.loc 3 126 2
 3165 1991 4889C3   		movq	%rax, %rbx
 3166 1994 E8000000 		call	__cxa_end_catch@PLT
 3166      00
 3167 1999 4889D8   		movq	%rbx, %rax
 3168 199c 4889C7   		movq	%rax, %rdi
 3169              	.LEHB134:
 3170 199f E8000000 		call	_Unwind_Resume@PLT
 3170      00
 3171              	.LEHE134:
 3172              	.L202:
 3173 19a4 F30F1EFA 		endbr64
 130:testCore.cpp  **** 	CHECK_EQUAL(1UL, *item);
 3174              		.loc 3 130 2 is_stmt 1
 3175 19a8 4889C7   		movq	%rax, %rdi
 3176 19ab E8000000 		call	__cxa_begin_catch@PLT
 3176      00
 3177              	.LEHB135:
 3178 19b0 E8000000 		call	_ZN8UnitTest11CurrentTest7ResultsEv@PLT
 3178      00
 130:testCore.cpp  **** 	CHECK_EQUAL(1UL, *item);
 3179              		.loc 3 130 2 is_stmt 0 discriminator 3
 3180 19b5 488B18   		movq	(%rax), %rbx
 3181 19b8 E8000000 		call	_ZN8UnitTest11CurrentTest7DetailsEv@PLT
 3181      00
 130:testCore.cpp  **** 	CHECK_EQUAL(1UL, *item);
 3182              		.loc 3 130 2 discriminator 11
 3183 19bd 488B08   		movq	(%rax), %rcx
 3184 19c0 488D4590 		leaq	-112(%rbp), %rax
 3185 19c4 BA820000 		movl	$130, %edx
 3185      00
 3186 19c9 4889CE   		movq	%rcx, %rsi
 3187 19cc 4889C7   		movq	%rax, %rdi
 3188 19cf E8000000 		call	_ZN8UnitTest11TestDetailsC1ERKS0_i@PLT
 3188      00
 130:testCore.cpp  **** 	CHECK_EQUAL(1UL, *item);
 3189              		.loc 3 130 2 discriminator 15
 3190 19d4 488D4590 		leaq	-112(%rbp), %rax
 3191 19d8 488D1500 		leaq	.LC3(%rip), %rdx
 3191      000000
 3192 19df 4889C6   		movq	%rax, %rsi
 3193 19e2 4889DF   		movq	%rbx, %rdi
 3194 19e5 E8000000 		call	_ZN8UnitTest11TestResults13OnTestFailureERKNS_11TestDetailsEPKc@PLT
 3194      00
 3195              	.LEHE135:
 3196              	.LEHB136:
 130:testCore.cpp  **** 	CHECK_EQUAL(1UL, *item);
 3197              		.loc 3 130 2 discriminator 17
 3198 19ea E8000000 		call	__cxa_end_catch@PLT
 3198      00
 3199              	.LEHE136:
 3200 19ef E90FFAFF 		jmp	.L152
 3200      FF
 3201              	.L203:
 3202 19f4 F30F1EFA 		endbr64
 130:testCore.cpp  **** 	CHECK_EQUAL(1UL, *item);
 3203              		.loc 3 130 2
 3204 19f8 4889C3   		movq	%rax, %rbx
 3205 19fb E8000000 		call	__cxa_end_catch@PLT
 3205      00
 3206 1a00 4889D8   		movq	%rbx, %rax
 3207 1a03 4889C7   		movq	%rax, %rdi
 3208              	.LEHB137:
 3209 1a06 E8000000 		call	_Unwind_Resume@PLT
 3209      00
 3210              	.LEHE137:
 3211              	.L204:
 3212 1a0b F30F1EFA 		endbr64
 131:testCore.cpp  **** 	*item = 5;
 3213              		.loc 3 131 2 is_stmt 1
 3214 1a0f 4889C7   		movq	%rax, %rdi
 3215 1a12 E8000000 		call	__cxa_begin_catch@PLT
 3215      00
 3216              	.LEHB138:
 3217 1a17 E8000000 		call	_ZN8UnitTest11CurrentTest7ResultsEv@PLT
 3217      00
 131:testCore.cpp  **** 	*item = 5;
 3218              		.loc 3 131 2 is_stmt 0 discriminator 3
 3219 1a1c 488B18   		movq	(%rax), %rbx
 3220 1a1f E8000000 		call	_ZN8UnitTest11CurrentTest7DetailsEv@PLT
 3220      00
 131:testCore.cpp  **** 	*item = 5;
 3221              		.loc 3 131 2 discriminator 11
 3222 1a24 488B08   		movq	(%rax), %rcx
 3223 1a27 488D4590 		leaq	-112(%rbp), %rax
 3224 1a2b BA830000 		movl	$131, %edx
 3224      00
 3225 1a30 4889CE   		movq	%rcx, %rsi
 3226 1a33 4889C7   		movq	%rax, %rdi
 3227 1a36 E8000000 		call	_ZN8UnitTest11TestDetailsC1ERKS0_i@PLT
 3227      00
 131:testCore.cpp  **** 	*item = 5;
 3228              		.loc 3 131 2 discriminator 15
 3229 1a3b 488D4590 		leaq	-112(%rbp), %rax
 3230 1a3f 488D1500 		leaq	.LC13(%rip), %rdx
 3230      000000
 3231 1a46 4889C6   		movq	%rax, %rsi
 3232 1a49 4889DF   		movq	%rbx, %rdi
 3233 1a4c E8000000 		call	_ZN8UnitTest11TestResults13OnTestFailureERKNS_11TestDetailsEPKc@PLT
 3233      00
 3234              	.LEHE138:
 3235              	.LEHB139:
 131:testCore.cpp  **** 	*item = 5;
 3236              		.loc 3 131 2 discriminator 17
 3237 1a51 E8000000 		call	__cxa_end_catch@PLT
 3237      00
 3238              	.LEHE139:
 3239 1a56 E9EEF9FF 		jmp	.L155
 3239      FF
 3240              	.L205:
 3241 1a5b F30F1EFA 		endbr64
 131:testCore.cpp  **** 	*item = 5;
 3242              		.loc 3 131 2
 3243 1a5f 4889C3   		movq	%rax, %rbx
 3244 1a62 E8000000 		call	__cxa_end_catch@PLT
 3244      00
 3245 1a67 4889D8   		movq	%rbx, %rax
 3246 1a6a 4889C7   		movq	%rax, %rdi
 3247              	.LEHB140:
 3248 1a6d E8000000 		call	_Unwind_Resume@PLT
 3248      00
 3249              	.LEHE140:
 3250              	.L206:
 3251 1a72 F30F1EFA 		endbr64
 135:testCore.cpp  **** 	CHECK_EQUAL(2UL, *item);
 3252              		.loc 3 135 2 is_stmt 1
 3253 1a76 4889C7   		movq	%rax, %rdi
 3254 1a79 E8000000 		call	__cxa_begin_catch@PLT
 3254      00
 3255              	.LEHB141:
 3256 1a7e E8000000 		call	_ZN8UnitTest11CurrentTest7ResultsEv@PLT
 3256      00
 135:testCore.cpp  **** 	CHECK_EQUAL(2UL, *item);
 3257              		.loc 3 135 2 is_stmt 0 discriminator 3
 3258 1a83 488B18   		movq	(%rax), %rbx
 3259 1a86 E8000000 		call	_ZN8UnitTest11CurrentTest7DetailsEv@PLT
 3259      00
 135:testCore.cpp  **** 	CHECK_EQUAL(2UL, *item);
 3260              		.loc 3 135 2 discriminator 11
 3261 1a8b 488B08   		movq	(%rax), %rcx
 3262 1a8e 488D4590 		leaq	-112(%rbp), %rax
 3263 1a92 BA870000 		movl	$135, %edx
 3263      00
 3264 1a97 4889CE   		movq	%rcx, %rsi
 3265 1a9a 4889C7   		movq	%rax, %rdi
 3266 1a9d E8000000 		call	_ZN8UnitTest11TestDetailsC1ERKS0_i@PLT
 3266      00
 135:testCore.cpp  **** 	CHECK_EQUAL(2UL, *item);
 3267              		.loc 3 135 2 discriminator 15
 3268 1aa2 488D4590 		leaq	-112(%rbp), %rax
 3269 1aa6 488D1500 		leaq	.LC3(%rip), %rdx
 3269      000000
 3270 1aad 4889C6   		movq	%rax, %rsi
 3271 1ab0 4889DF   		movq	%rbx, %rdi
 3272 1ab3 E8000000 		call	_ZN8UnitTest11TestResults13OnTestFailureERKNS_11TestDetailsEPKc@PLT
 3272      00
 3273              	.LEHE141:
 3274              	.LEHB142:
 135:testCore.cpp  **** 	CHECK_EQUAL(2UL, *item);
 3275              		.loc 3 135 2 discriminator 17
 3276 1ab8 E8000000 		call	__cxa_end_catch@PLT
 3276      00
 3277              	.LEHE142:
 3278 1abd E9F8F9FF 		jmp	.L158
 3278      FF
 3279              	.L207:
 3280 1ac2 F30F1EFA 		endbr64
 135:testCore.cpp  **** 	CHECK_EQUAL(2UL, *item);
 3281              		.loc 3 135 2
 3282 1ac6 4889C3   		movq	%rax, %rbx
 3283 1ac9 E8000000 		call	__cxa_end_catch@PLT
 3283      00
 3284 1ace 4889D8   		movq	%rbx, %rax
 3285 1ad1 4889C7   		movq	%rax, %rdi
 3286              	.LEHB143:
 3287 1ad4 E8000000 		call	_Unwind_Resume@PLT
 3287      00
 3288              	.LEHE143:
 3289              	.L208:
 3290 1ad9 F30F1EFA 		endbr64
 136:testCore.cpp  **** 	*item = 6;
 3291              		.loc 3 136 2 is_stmt 1
 3292 1add 4889C7   		movq	%rax, %rdi
 3293 1ae0 E8000000 		call	__cxa_begin_catch@PLT
 3293      00
 3294              	.LEHB144:
 3295 1ae5 E8000000 		call	_ZN8UnitTest11CurrentTest7ResultsEv@PLT
 3295      00
 136:testCore.cpp  **** 	*item = 6;
 3296              		.loc 3 136 2 is_stmt 0 discriminator 3
 3297 1aea 488B18   		movq	(%rax), %rbx
 3298 1aed E8000000 		call	_ZN8UnitTest11CurrentTest7DetailsEv@PLT
 3298      00
 136:testCore.cpp  **** 	*item = 6;
 3299              		.loc 3 136 2 discriminator 11
 3300 1af2 488B08   		movq	(%rax), %rcx
 3301 1af5 488D4590 		leaq	-112(%rbp), %rax
 3302 1af9 BA880000 		movl	$136, %edx
 3302      00
 3303 1afe 4889CE   		movq	%rcx, %rsi
 3304 1b01 4889C7   		movq	%rax, %rdi
 3305 1b04 E8000000 		call	_ZN8UnitTest11TestDetailsC1ERKS0_i@PLT
 3305      00
 136:testCore.cpp  **** 	*item = 6;
 3306              		.loc 3 136 2 discriminator 15
 3307 1b09 488D4590 		leaq	-112(%rbp), %rax
 3308 1b0d 488D1500 		leaq	.LC14(%rip), %rdx
 3308      000000
 3309 1b14 4889C6   		movq	%rax, %rsi
 3310 1b17 4889DF   		movq	%rbx, %rdi
 3311 1b1a E8000000 		call	_ZN8UnitTest11TestResults13OnTestFailureERKNS_11TestDetailsEPKc@PLT
 3311      00
 3312              	.LEHE144:
 3313              	.LEHB145:
 136:testCore.cpp  **** 	*item = 6;
 3314              		.loc 3 136 2 discriminator 17
 3315 1b1f E8000000 		call	__cxa_end_catch@PLT
 3315      00
 3316              	.LEHE145:
 3317 1b24 E9D7F9FF 		jmp	.L161
 3317      FF
 3318              	.L209:
 3319 1b29 F30F1EFA 		endbr64
 136:testCore.cpp  **** 	*item = 6;
 3320              		.loc 3 136 2
 3321 1b2d 4889C3   		movq	%rax, %rbx
 3322 1b30 E8000000 		call	__cxa_end_catch@PLT
 3322      00
 3323 1b35 4889D8   		movq	%rbx, %rax
 3324 1b38 4889C7   		movq	%rax, %rdi
 3325              	.LEHB146:
 3326 1b3b E8000000 		call	_Unwind_Resume@PLT
 3326      00
 3327              	.LEHE146:
 3328              	.L210:
 3329 1b40 F30F1EFA 		endbr64
 140:testCore.cpp  **** 	CHECK_EQUAL(3UL, *item);
 3330              		.loc 3 140 2 is_stmt 1
 3331 1b44 4889C7   		movq	%rax, %rdi
 3332 1b47 E8000000 		call	__cxa_begin_catch@PLT
 3332      00
 3333              	.LEHB147:
 3334 1b4c E8000000 		call	_ZN8UnitTest11CurrentTest7ResultsEv@PLT
 3334      00
 140:testCore.cpp  **** 	CHECK_EQUAL(3UL, *item);
 3335              		.loc 3 140 2 is_stmt 0 discriminator 3
 3336 1b51 488B18   		movq	(%rax), %rbx
 3337 1b54 E8000000 		call	_ZN8UnitTest11CurrentTest7DetailsEv@PLT
 3337      00
 140:testCore.cpp  **** 	CHECK_EQUAL(3UL, *item);
 3338              		.loc 3 140 2 discriminator 11
 3339 1b59 488B08   		movq	(%rax), %rcx
 3340 1b5c 488D4590 		leaq	-112(%rbp), %rax
 3341 1b60 BA8C0000 		movl	$140, %edx
 3341      00
 3342 1b65 4889CE   		movq	%rcx, %rsi
 3343 1b68 4889C7   		movq	%rax, %rdi
 3344 1b6b E8000000 		call	_ZN8UnitTest11TestDetailsC1ERKS0_i@PLT
 3344      00
 140:testCore.cpp  **** 	CHECK_EQUAL(3UL, *item);
 3345              		.loc 3 140 2 discriminator 15
 3346 1b70 488D4590 		leaq	-112(%rbp), %rax
 3347 1b74 488D1500 		leaq	.LC3(%rip), %rdx
 3347      000000
 3348 1b7b 4889C6   		movq	%rax, %rsi
 3349 1b7e 4889DF   		movq	%rbx, %rdi
 3350 1b81 E8000000 		call	_ZN8UnitTest11TestResults13OnTestFailureERKNS_11TestDetailsEPKc@PLT
 3350      00
 3351              	.LEHE147:
 3352              	.LEHB148:
 140:testCore.cpp  **** 	CHECK_EQUAL(3UL, *item);
 3353              		.loc 3 140 2 discriminator 17
 3354 1b86 E8000000 		call	__cxa_end_catch@PLT
 3354      00
 3355              	.LEHE148:
 3356 1b8b E9E1F9FF 		jmp	.L164
 3356      FF
 3357              	.L211:
 3358 1b90 F30F1EFA 		endbr64
 140:testCore.cpp  **** 	CHECK_EQUAL(3UL, *item);
 3359              		.loc 3 140 2
 3360 1b94 4889C3   		movq	%rax, %rbx
 3361 1b97 E8000000 		call	__cxa_end_catch@PLT
 3361      00
 3362 1b9c 4889D8   		movq	%rbx, %rax
 3363 1b9f 4889C7   		movq	%rax, %rdi
 3364              	.LEHB149:
 3365 1ba2 E8000000 		call	_Unwind_Resume@PLT
 3365      00
 3366              	.LEHE149:
 3367              	.L212:
 3368 1ba7 F30F1EFA 		endbr64
 141:testCore.cpp  **** 	*item = 7;
 3369              		.loc 3 141 2 is_stmt 1
 3370 1bab 4889C7   		movq	%rax, %rdi
 3371 1bae E8000000 		call	__cxa_begin_catch@PLT
 3371      00
 3372              	.LEHB150:
 3373 1bb3 E8000000 		call	_ZN8UnitTest11CurrentTest7ResultsEv@PLT
 3373      00
 141:testCore.cpp  **** 	*item = 7;
 3374              		.loc 3 141 2 is_stmt 0 discriminator 3
 3375 1bb8 488B18   		movq	(%rax), %rbx
 3376 1bbb E8000000 		call	_ZN8UnitTest11CurrentTest7DetailsEv@PLT
 3376      00
 141:testCore.cpp  **** 	*item = 7;
 3377              		.loc 3 141 2 discriminator 11
 3378 1bc0 488B08   		movq	(%rax), %rcx
 3379 1bc3 488D4590 		leaq	-112(%rbp), %rax
 3380 1bc7 BA8D0000 		movl	$141, %edx
 3380      00
 3381 1bcc 4889CE   		movq	%rcx, %rsi
 3382 1bcf 4889C7   		movq	%rax, %rdi
 3383 1bd2 E8000000 		call	_ZN8UnitTest11TestDetailsC1ERKS0_i@PLT
 3383      00
 141:testCore.cpp  **** 	*item = 7;
 3384              		.loc 3 141 2 discriminator 15
 3385 1bd7 488D4590 		leaq	-112(%rbp), %rax
 3386 1bdb 488D1500 		leaq	.LC15(%rip), %rdx
 3386      000000
 3387 1be2 4889C6   		movq	%rax, %rsi
 3388 1be5 4889DF   		movq	%rbx, %rdi
 3389 1be8 E8000000 		call	_ZN8UnitTest11TestResults13OnTestFailureERKNS_11TestDetailsEPKc@PLT
 3389      00
 3390              	.LEHE150:
 3391              	.LEHB151:
 141:testCore.cpp  **** 	*item = 7;
 3392              		.loc 3 141 2 discriminator 17
 3393 1bed E8000000 		call	__cxa_end_catch@PLT
 3393      00
 3394              	.LEHE151:
 3395 1bf2 E9C0F9FF 		jmp	.L167
 3395      FF
 3396              	.L213:
 3397 1bf7 F30F1EFA 		endbr64
 141:testCore.cpp  **** 	*item = 7;
 3398              		.loc 3 141 2
 3399 1bfb 4889C3   		movq	%rax, %rbx
 3400 1bfe E8000000 		call	__cxa_end_catch@PLT
 3400      00
 3401 1c03 4889D8   		movq	%rbx, %rax
 3402 1c06 4889C7   		movq	%rax, %rdi
 3403              	.LEHB152:
 3404 1c09 E8000000 		call	_Unwind_Resume@PLT
 3404      00
 3405              	.LEHE152:
 3406              	.L214:
 3407 1c0e F30F1EFA 		endbr64
 145:testCore.cpp  **** 	CHECK_EQUAL(4UL, *item);
 3408              		.loc 3 145 2 is_stmt 1
 3409 1c12 4889C7   		movq	%rax, %rdi
 3410 1c15 E8000000 		call	__cxa_begin_catch@PLT
 3410      00
 3411              	.LEHB153:
 3412 1c1a E8000000 		call	_ZN8UnitTest11CurrentTest7ResultsEv@PLT
 3412      00
 145:testCore.cpp  **** 	CHECK_EQUAL(4UL, *item);
 3413              		.loc 3 145 2 is_stmt 0 discriminator 3
 3414 1c1f 488B18   		movq	(%rax), %rbx
 3415 1c22 E8000000 		call	_ZN8UnitTest11CurrentTest7DetailsEv@PLT
 3415      00
 145:testCore.cpp  **** 	CHECK_EQUAL(4UL, *item);
 3416              		.loc 3 145 2 discriminator 11
 3417 1c27 488B08   		movq	(%rax), %rcx
 3418 1c2a 488D4590 		leaq	-112(%rbp), %rax
 3419 1c2e BA910000 		movl	$145, %edx
 3419      00
 3420 1c33 4889CE   		movq	%rcx, %rsi
 3421 1c36 4889C7   		movq	%rax, %rdi
 3422 1c39 E8000000 		call	_ZN8UnitTest11TestDetailsC1ERKS0_i@PLT
 3422      00
 145:testCore.cpp  **** 	CHECK_EQUAL(4UL, *item);
 3423              		.loc 3 145 2 discriminator 15
 3424 1c3e 488D4590 		leaq	-112(%rbp), %rax
 3425 1c42 488D1500 		leaq	.LC3(%rip), %rdx
 3425      000000
 3426 1c49 4889C6   		movq	%rax, %rsi
 3427 1c4c 4889DF   		movq	%rbx, %rdi
 3428 1c4f E8000000 		call	_ZN8UnitTest11TestResults13OnTestFailureERKNS_11TestDetailsEPKc@PLT
 3428      00
 3429              	.LEHE153:
 3430              	.LEHB154:
 145:testCore.cpp  **** 	CHECK_EQUAL(4UL, *item);
 3431              		.loc 3 145 2 discriminator 17
 3432 1c54 E8000000 		call	__cxa_end_catch@PLT
 3432      00
 3433              	.LEHE154:
 3434 1c59 E9CAF9FF 		jmp	.L170
 3434      FF
 3435              	.L215:
 3436 1c5e F30F1EFA 		endbr64
 145:testCore.cpp  **** 	CHECK_EQUAL(4UL, *item);
 3437              		.loc 3 145 2
 3438 1c62 4889C3   		movq	%rax, %rbx
 3439 1c65 E8000000 		call	__cxa_end_catch@PLT
 3439      00
 3440 1c6a 4889D8   		movq	%rbx, %rax
 3441 1c6d 4889C7   		movq	%rax, %rdi
 3442              	.LEHB155:
 3443 1c70 E8000000 		call	_Unwind_Resume@PLT
 3443      00
 3444              	.LEHE155:
 3445              	.L216:
 3446 1c75 F30F1EFA 		endbr64
 146:testCore.cpp  **** 	*item = 8;
 3447              		.loc 3 146 2 is_stmt 1
 3448 1c79 4889C7   		movq	%rax, %rdi
 3449 1c7c E8000000 		call	__cxa_begin_catch@PLT
 3449      00
 3450              	.LEHB156:
 3451 1c81 E8000000 		call	_ZN8UnitTest11CurrentTest7ResultsEv@PLT
 3451      00
 146:testCore.cpp  **** 	*item = 8;
 3452              		.loc 3 146 2 is_stmt 0 discriminator 3
 3453 1c86 488B18   		movq	(%rax), %rbx
 3454 1c89 E8000000 		call	_ZN8UnitTest11CurrentTest7DetailsEv@PLT
 3454      00
 146:testCore.cpp  **** 	*item = 8;
 3455              		.loc 3 146 2 discriminator 11
 3456 1c8e 488B08   		movq	(%rax), %rcx
 3457 1c91 488D4590 		leaq	-112(%rbp), %rax
 3458 1c95 BA920000 		movl	$146, %edx
 3458      00
 3459 1c9a 4889CE   		movq	%rcx, %rsi
 3460 1c9d 4889C7   		movq	%rax, %rdi
 3461 1ca0 E8000000 		call	_ZN8UnitTest11TestDetailsC1ERKS0_i@PLT
 3461      00
 146:testCore.cpp  **** 	*item = 8;
 3462              		.loc 3 146 2 discriminator 15
 3463 1ca5 488D4590 		leaq	-112(%rbp), %rax
 3464 1ca9 488D1500 		leaq	.LC22(%rip), %rdx
 3464      000000
 3465 1cb0 4889C6   		movq	%rax, %rsi
 3466 1cb3 4889DF   		movq	%rbx, %rdi
 3467 1cb6 E8000000 		call	_ZN8UnitTest11TestResults13OnTestFailureERKNS_11TestDetailsEPKc@PLT
 3467      00
 3468              	.LEHE156:
 3469              	.LEHB157:
 146:testCore.cpp  **** 	*item = 8;
 3470              		.loc 3 146 2 discriminator 17
 3471 1cbb E8000000 		call	__cxa_end_catch@PLT
 3471      00
 3472              	.LEHE157:
 3473 1cc0 E9A9F9FF 		jmp	.L173
 3473      FF
 3474              	.L217:
 3475 1cc5 F30F1EFA 		endbr64
 146:testCore.cpp  **** 	*item = 8;
 3476              		.loc 3 146 2
 3477 1cc9 4889C3   		movq	%rax, %rbx
 3478 1ccc E8000000 		call	__cxa_end_catch@PLT
 3478      00
 3479 1cd1 4889D8   		movq	%rbx, %rax
 3480 1cd4 4889C7   		movq	%rax, %rdi
 3481              	.LEHB158:
 3482 1cd7 E8000000 		call	_Unwind_Resume@PLT
 3482      00
 3483              	.LEHE158:
 3484              	.L218:
 3485 1cdc F30F1EFA 		endbr64
 151:testCore.cpp  **** 	CHECK_EQUAL(0UL, queue.putIndex);
 3486              		.loc 3 151 2 is_stmt 1
 3487 1ce0 4889C7   		movq	%rax, %rdi
 3488 1ce3 E8000000 		call	__cxa_begin_catch@PLT
 3488      00
 3489              	.LEHB159:
 3490 1ce8 E8000000 		call	_ZN8UnitTest11CurrentTest7ResultsEv@PLT
 3490      00
 151:testCore.cpp  **** 	CHECK_EQUAL(0UL, queue.putIndex);
 3491              		.loc 3 151 2 is_stmt 0 discriminator 3
 3492 1ced 488B18   		movq	(%rax), %rbx
 3493 1cf0 E8000000 		call	_ZN8UnitTest11CurrentTest7DetailsEv@PLT
 3493      00
 151:testCore.cpp  **** 	CHECK_EQUAL(0UL, queue.putIndex);
 3494              		.loc 3 151 2 discriminator 11
 3495 1cf5 488B08   		movq	(%rax), %rcx
 3496 1cf8 488D4590 		leaq	-112(%rbp), %rax
 3497 1cfc BA970000 		movl	$151, %edx
 3497      00
 3498 1d01 4889CE   		movq	%rcx, %rsi
 3499 1d04 4889C7   		movq	%rax, %rdi
 3500 1d07 E8000000 		call	_ZN8UnitTest11TestDetailsC1ERKS0_i@PLT
 3500      00
 151:testCore.cpp  **** 	CHECK_EQUAL(0UL, queue.putIndex);
 3501              		.loc 3 151 2 discriminator 15
 3502 1d0c 488D4590 		leaq	-112(%rbp), %rax
 3503 1d10 488D1500 		leaq	.LC4(%rip), %rdx
 3503      000000
 3504 1d17 4889C6   		movq	%rax, %rsi
 3505 1d1a 4889DF   		movq	%rbx, %rdi
 3506 1d1d E8000000 		call	_ZN8UnitTest11TestResults13OnTestFailureERKNS_11TestDetailsEPKc@PLT
 3506      00
 3507              	.LEHE159:
 3508              	.LEHB160:
 151:testCore.cpp  **** 	CHECK_EQUAL(0UL, queue.putIndex);
 3509              		.loc 3 151 2 discriminator 17
 3510 1d22 E8000000 		call	__cxa_end_catch@PLT
 3510      00
 3511              	.LEHE160:
 3512 1d27 E9A2F9FF 		jmp	.L176
 3512      FF
 3513              	.L219:
 3514 1d2c F30F1EFA 		endbr64
 151:testCore.cpp  **** 	CHECK_EQUAL(0UL, queue.putIndex);
 3515              		.loc 3 151 2
 3516 1d30 4889C3   		movq	%rax, %rbx
 3517 1d33 E8000000 		call	__cxa_end_catch@PLT
 3517      00
 3518 1d38 4889D8   		movq	%rbx, %rax
 3519 1d3b 4889C7   		movq	%rax, %rdi
 3520              	.LEHB161:
 3521 1d3e E8000000 		call	_Unwind_Resume@PLT
 3521      00
 3522              	.LEHE161:
 3523              	.L220:
 3524 1d43 F30F1EFA 		endbr64
 152:testCore.cpp  **** 	CHECK_EQUAL(0UL, queue.takeIndex);
 3525              		.loc 3 152 2 is_stmt 1
 3526 1d47 4889C7   		movq	%rax, %rdi
 3527 1d4a E8000000 		call	__cxa_begin_catch@PLT
 3527      00
 3528              	.LEHB162:
 3529 1d4f E8000000 		call	_ZN8UnitTest11CurrentTest7ResultsEv@PLT
 3529      00
 152:testCore.cpp  **** 	CHECK_EQUAL(0UL, queue.takeIndex);
 3530              		.loc 3 152 2 is_stmt 0 discriminator 3
 3531 1d54 488B18   		movq	(%rax), %rbx
 3532 1d57 E8000000 		call	_ZN8UnitTest11CurrentTest7DetailsEv@PLT
 3532      00
 152:testCore.cpp  **** 	CHECK_EQUAL(0UL, queue.takeIndex);
 3533              		.loc 3 152 2 discriminator 11
 3534 1d5c 488B08   		movq	(%rax), %rcx
 3535 1d5f 488D4590 		leaq	-112(%rbp), %rax
 3536 1d63 BA980000 		movl	$152, %edx
 3536      00
 3537 1d68 4889CE   		movq	%rcx, %rsi
 3538 1d6b 4889C7   		movq	%rax, %rdi
 3539 1d6e E8000000 		call	_ZN8UnitTest11TestDetailsC1ERKS0_i@PLT
 3539      00
 152:testCore.cpp  **** 	CHECK_EQUAL(0UL, queue.takeIndex);
 3540              		.loc 3 152 2 discriminator 15
 3541 1d73 488D4590 		leaq	-112(%rbp), %rax
 3542 1d77 488D1500 		leaq	.LC5(%rip), %rdx
 3542      000000
 3543 1d7e 4889C6   		movq	%rax, %rsi
 3544 1d81 4889DF   		movq	%rbx, %rdi
 3545 1d84 E8000000 		call	_ZN8UnitTest11TestResults13OnTestFailureERKNS_11TestDetailsEPKc@PLT
 3545      00
 3546              	.LEHE162:
 3547              	.LEHB163:
 152:testCore.cpp  **** 	CHECK_EQUAL(0UL, queue.takeIndex);
 3548              		.loc 3 152 2 discriminator 17
 3549 1d89 E8000000 		call	__cxa_end_catch@PLT
 3549      00
 3550              	.LEHE163:
 3551 1d8e E985F9FF 		jmp	.L179
 3551      FF
 3552              	.L221:
 3553 1d93 F30F1EFA 		endbr64
 152:testCore.cpp  **** 	CHECK_EQUAL(0UL, queue.takeIndex);
 3554              		.loc 3 152 2
 3555 1d97 4889C3   		movq	%rax, %rbx
 3556 1d9a E8000000 		call	__cxa_end_catch@PLT
 3556      00
 3557 1d9f 4889D8   		movq	%rbx, %rax
 3558 1da2 4889C7   		movq	%rax, %rdi
 3559              	.LEHB164:
 3560 1da5 E8000000 		call	_Unwind_Resume@PLT
 3560      00
 3561              	.LEHE164:
 3562              	.L222:
 3563 1daa F30F1EFA 		endbr64
 153:testCore.cpp  **** 	CHECK_EQUAL(4UL, queue.numItems);
 3564              		.loc 3 153 2 is_stmt 1
 3565 1dae 4889C7   		movq	%rax, %rdi
 3566 1db1 E8000000 		call	__cxa_begin_catch@PLT
 3566      00
 3567              	.LEHB165:
 3568 1db6 E8000000 		call	_ZN8UnitTest11CurrentTest7ResultsEv@PLT
 3568      00
 153:testCore.cpp  **** 	CHECK_EQUAL(4UL, queue.numItems);
 3569              		.loc 3 153 2 is_stmt 0 discriminator 3
 3570 1dbb 488B18   		movq	(%rax), %rbx
 3571 1dbe E8000000 		call	_ZN8UnitTest11CurrentTest7DetailsEv@PLT
 3571      00
 153:testCore.cpp  **** 	CHECK_EQUAL(4UL, queue.numItems);
 3572              		.loc 3 153 2 discriminator 11
 3573 1dc3 488B08   		movq	(%rax), %rcx
 3574 1dc6 488D4590 		leaq	-112(%rbp), %rax
 3575 1dca BA990000 		movl	$153, %edx
 3575      00
 3576 1dcf 4889CE   		movq	%rcx, %rsi
 3577 1dd2 4889C7   		movq	%rax, %rdi
 3578 1dd5 E8000000 		call	_ZN8UnitTest11TestDetailsC1ERKS0_i@PLT
 3578      00
 153:testCore.cpp  **** 	CHECK_EQUAL(4UL, queue.numItems);
 3579              		.loc 3 153 2 discriminator 15
 3580 1dda 488D4590 		leaq	-112(%rbp), %rax
 3581 1dde 488D1500 		leaq	.LC6(%rip), %rdx
 3581      000000
 3582 1de5 4889C6   		movq	%rax, %rsi
 3583 1de8 4889DF   		movq	%rbx, %rdi
 3584 1deb E8000000 		call	_ZN8UnitTest11TestResults13OnTestFailureERKNS_11TestDetailsEPKc@PLT
 3584      00
 3585              	.LEHE165:
 3586              	.LEHB166:
 153:testCore.cpp  **** 	CHECK_EQUAL(4UL, queue.numItems);
 3587              		.loc 3 153 2 discriminator 17
 3588 1df0 E8000000 		call	__cxa_end_catch@PLT
 3588      00
 3589              	.LEHE166:
 3590 1df5 E968F9FF 		jmp	.L182
 3590      FF
 3591              	.L223:
 3592 1dfa F30F1EFA 		endbr64
 153:testCore.cpp  **** 	CHECK_EQUAL(4UL, queue.numItems);
 3593              		.loc 3 153 2
 3594 1dfe 4889C3   		movq	%rax, %rbx
 3595 1e01 E8000000 		call	__cxa_end_catch@PLT
 3595      00
 3596 1e06 4889D8   		movq	%rbx, %rax
 3597 1e09 4889C7   		movq	%rax, %rdi
 3598              	.LEHB167:
 3599 1e0c E8000000 		call	_Unwind_Resume@PLT
 3599      00
 3600              	.LEHE167:
 3601              	.L224:
 3602 1e11 F30F1EFA 		endbr64
 154:testCore.cpp  **** 
 3603              		.loc 3 154 2 is_stmt 1
 3604 1e15 4889C7   		movq	%rax, %rdi
 3605 1e18 E8000000 		call	__cxa_begin_catch@PLT
 3605      00
 3606              	.LEHB168:
 3607 1e1d E8000000 		call	_ZN8UnitTest11CurrentTest7ResultsEv@PLT
 3607      00
 154:testCore.cpp  **** 
 3608              		.loc 3 154 2 is_stmt 0 discriminator 3
 3609 1e22 488B18   		movq	(%rax), %rbx
 3610 1e25 E8000000 		call	_ZN8UnitTest11CurrentTest7DetailsEv@PLT
 3610      00
 154:testCore.cpp  **** 
 3611              		.loc 3 154 2 discriminator 11
 3612 1e2a 488B08   		movq	(%rax), %rcx
 3613 1e2d 488D4590 		leaq	-112(%rbp), %rax
 3614 1e31 BA9A0000 		movl	$154, %edx
 3614      00
 3615 1e36 4889CE   		movq	%rcx, %rsi
 3616 1e39 4889C7   		movq	%rax, %rdi
 3617 1e3c E8000000 		call	_ZN8UnitTest11TestDetailsC1ERKS0_i@PLT
 3617      00
 154:testCore.cpp  **** 
 3618              		.loc 3 154 2 discriminator 15
 3619 1e41 488D4590 		leaq	-112(%rbp), %rax
 3620 1e45 488D1500 		leaq	.LC23(%rip), %rdx
 3620      000000
 3621 1e4c 4889C6   		movq	%rax, %rsi
 3622 1e4f 4889DF   		movq	%rbx, %rdi
 3623 1e52 E8000000 		call	_ZN8UnitTest11TestResults13OnTestFailureERKNS_11TestDetailsEPKc@PLT
 3623      00
 3624              	.LEHE168:
 3625              	.LEHB169:
 154:testCore.cpp  **** 
 3626              		.loc 3 154 2 discriminator 17
 3627 1e57 E8000000 		call	__cxa_end_catch@PLT
 3627      00
 3628              	.LEHE169:
 3629 1e5c E94BF9FF 		jmp	.L185
 3629      FF
 3630              	.L225:
 3631 1e61 F30F1EFA 		endbr64
 154:testCore.cpp  **** 
 3632              		.loc 3 154 2
 3633 1e65 4889C3   		movq	%rax, %rbx
 3634 1e68 E8000000 		call	__cxa_end_catch@PLT
 3634      00
 3635 1e6d 4889D8   		movq	%rbx, %rax
 3636 1e70 4889C7   		movq	%rax, %rdi
 3637              	.LEHB170:
 3638 1e73 E8000000 		call	_Unwind_Resume@PLT
 3638      00
 3639              	.LEHE170:
 3640              	.L226:
 3641 1e78 F30F1EFA 		endbr64
 157:testCore.cpp  **** 	CHECK_EQUAL(6UL, deref(queue.itemArray[1]));
 3642              		.loc 3 157 2 is_stmt 1
 3643 1e7c 4889C7   		movq	%rax, %rdi
 3644 1e7f E8000000 		call	__cxa_begin_catch@PLT
 3644      00
 3645              	.LEHB171:
 3646 1e84 E8000000 		call	_ZN8UnitTest11CurrentTest7ResultsEv@PLT
 3646      00
 157:testCore.cpp  **** 	CHECK_EQUAL(6UL, deref(queue.itemArray[1]));
 3647              		.loc 3 157 2 is_stmt 0 discriminator 3
 3648 1e89 488B18   		movq	(%rax), %rbx
 3649 1e8c E8000000 		call	_ZN8UnitTest11CurrentTest7DetailsEv@PLT
 3649      00
 157:testCore.cpp  **** 	CHECK_EQUAL(6UL, deref(queue.itemArray[1]));
 3650              		.loc 3 157 2 discriminator 11
 3651 1e91 488B08   		movq	(%rax), %rcx
 3652 1e94 488D4590 		leaq	-112(%rbp), %rax
 3653 1e98 BA9D0000 		movl	$157, %edx
 3653      00
 3654 1e9d 4889CE   		movq	%rcx, %rsi
 3655 1ea0 4889C7   		movq	%rax, %rdi
 3656 1ea3 E8000000 		call	_ZN8UnitTest11TestDetailsC1ERKS0_i@PLT
 3656      00
 157:testCore.cpp  **** 	CHECK_EQUAL(6UL, deref(queue.itemArray[1]));
 3657              		.loc 3 157 2 discriminator 15
 3658 1ea8 488D4590 		leaq	-112(%rbp), %rax
 3659 1eac 488D1500 		leaq	.LC18(%rip), %rdx
 3659      000000
 3660 1eb3 4889C6   		movq	%rax, %rsi
 3661 1eb6 4889DF   		movq	%rbx, %rdi
 3662 1eb9 E8000000 		call	_ZN8UnitTest11TestResults13OnTestFailureERKNS_11TestDetailsEPKc@PLT
 3662      00
 3663              	.LEHE171:
 3664              	.LEHB172:
 157:testCore.cpp  **** 	CHECK_EQUAL(6UL, deref(queue.itemArray[1]));
 3665              		.loc 3 157 2 discriminator 17
 3666 1ebe E8000000 		call	__cxa_end_catch@PLT
 3666      00
 3667              	.LEHE172:
 3668 1ec3 E93CF9FF 		jmp	.L188
 3668      FF
 3669              	.L227:
 3670 1ec8 F30F1EFA 		endbr64
 157:testCore.cpp  **** 	CHECK_EQUAL(6UL, deref(queue.itemArray[1]));
 3671              		.loc 3 157 2
 3672 1ecc 4889C3   		movq	%rax, %rbx
 3673 1ecf E8000000 		call	__cxa_end_catch@PLT
 3673      00
 3674 1ed4 4889D8   		movq	%rbx, %rax
 3675 1ed7 4889C7   		movq	%rax, %rdi
 3676              	.LEHB173:
 3677 1eda E8000000 		call	_Unwind_Resume@PLT
 3677      00
 3678              	.LEHE173:
 3679              	.L228:
 3680 1edf F30F1EFA 		endbr64
 158:testCore.cpp  **** 	CHECK_EQUAL(7UL, deref(queue.itemArray[2]));
 3681              		.loc 3 158 2 is_stmt 1
 3682 1ee3 4889C7   		movq	%rax, %rdi
 3683 1ee6 E8000000 		call	__cxa_begin_catch@PLT
 3683      00
 3684              	.LEHB174:
 3685 1eeb E8000000 		call	_ZN8UnitTest11CurrentTest7ResultsEv@PLT
 3685      00
 158:testCore.cpp  **** 	CHECK_EQUAL(7UL, deref(queue.itemArray[2]));
 3686              		.loc 3 158 2 is_stmt 0 discriminator 3
 3687 1ef0 488B18   		movq	(%rax), %rbx
 3688 1ef3 E8000000 		call	_ZN8UnitTest11CurrentTest7DetailsEv@PLT
 3688      00
 158:testCore.cpp  **** 	CHECK_EQUAL(7UL, deref(queue.itemArray[2]));
 3689              		.loc 3 158 2 discriminator 11
 3690 1ef8 488B08   		movq	(%rax), %rcx
 3691 1efb 488D4590 		leaq	-112(%rbp), %rax
 3692 1eff BA9E0000 		movl	$158, %edx
 3692      00
 3693 1f04 4889CE   		movq	%rcx, %rsi
 3694 1f07 4889C7   		movq	%rax, %rdi
 3695 1f0a E8000000 		call	_ZN8UnitTest11TestDetailsC1ERKS0_i@PLT
 3695      00
 158:testCore.cpp  **** 	CHECK_EQUAL(7UL, deref(queue.itemArray[2]));
 3696              		.loc 3 158 2 discriminator 15
 3697 1f0f 488D4590 		leaq	-112(%rbp), %rax
 3698 1f13 488D1500 		leaq	.LC19(%rip), %rdx
 3698      000000
 3699 1f1a 4889C6   		movq	%rax, %rsi
 3700 1f1d 4889DF   		movq	%rbx, %rdi
 3701 1f20 E8000000 		call	_ZN8UnitTest11TestResults13OnTestFailureERKNS_11TestDetailsEPKc@PLT
 3701      00
 3702              	.LEHE174:
 3703              	.LEHB175:
 158:testCore.cpp  **** 	CHECK_EQUAL(7UL, deref(queue.itemArray[2]));
 3704              		.loc 3 158 2 discriminator 17
 3705 1f25 E8000000 		call	__cxa_end_catch@PLT
 3705      00
 3706              	.LEHE175:
 3707 1f2a E931F9FF 		jmp	.L191
 3707      FF
 3708              	.L229:
 3709 1f2f F30F1EFA 		endbr64
 158:testCore.cpp  **** 	CHECK_EQUAL(7UL, deref(queue.itemArray[2]));
 3710              		.loc 3 158 2
 3711 1f33 4889C3   		movq	%rax, %rbx
 3712 1f36 E8000000 		call	__cxa_end_catch@PLT
 3712      00
 3713 1f3b 4889D8   		movq	%rbx, %rax
 3714 1f3e 4889C7   		movq	%rax, %rdi
 3715              	.LEHB176:
 3716 1f41 E8000000 		call	_Unwind_Resume@PLT
 3716      00
 3717              	.LEHE176:
 3718              	.L230:
 3719 1f46 F30F1EFA 		endbr64
 159:testCore.cpp  **** 	CHECK_EQUAL(8UL, deref(queue.itemArray[3]));
 3720              		.loc 3 159 2 is_stmt 1
 3721 1f4a 4889C7   		movq	%rax, %rdi
 3722 1f4d E8000000 		call	__cxa_begin_catch@PLT
 3722      00
 3723              	.LEHB177:
 3724 1f52 E8000000 		call	_ZN8UnitTest11CurrentTest7ResultsEv@PLT
 3724      00
 159:testCore.cpp  **** 	CHECK_EQUAL(8UL, deref(queue.itemArray[3]));
 3725              		.loc 3 159 2 is_stmt 0 discriminator 3
 3726 1f57 488B18   		movq	(%rax), %rbx
 3727 1f5a E8000000 		call	_ZN8UnitTest11CurrentTest7DetailsEv@PLT
 3727      00
 159:testCore.cpp  **** 	CHECK_EQUAL(8UL, deref(queue.itemArray[3]));
 3728              		.loc 3 159 2 discriminator 11
 3729 1f5f 488B08   		movq	(%rax), %rcx
 3730 1f62 488D4590 		leaq	-112(%rbp), %rax
 3731 1f66 BA9F0000 		movl	$159, %edx
 3731      00
 3732 1f6b 4889CE   		movq	%rcx, %rsi
 3733 1f6e 4889C7   		movq	%rax, %rdi
 3734 1f71 E8000000 		call	_ZN8UnitTest11TestDetailsC1ERKS0_i@PLT
 3734      00
 159:testCore.cpp  **** 	CHECK_EQUAL(8UL, deref(queue.itemArray[3]));
 3735              		.loc 3 159 2 discriminator 15
 3736 1f76 488D4590 		leaq	-112(%rbp), %rax
 3737 1f7a 488D1500 		leaq	.LC20(%rip), %rdx
 3737      000000
 3738 1f81 4889C6   		movq	%rax, %rsi
 3739 1f84 4889DF   		movq	%rbx, %rdi
 3740 1f87 E8000000 		call	_ZN8UnitTest11TestResults13OnTestFailureERKNS_11TestDetailsEPKc@PLT
 3740      00
 3741              	.LEHE177:
 3742              	.LEHB178:
 159:testCore.cpp  **** 	CHECK_EQUAL(8UL, deref(queue.itemArray[3]));
 3743              		.loc 3 159 2 discriminator 17
 3744 1f8c E8000000 		call	__cxa_end_catch@PLT
 3744      00
 3745              	.LEHE178:
 3746 1f91 E926F9FF 		jmp	.L194
 3746      FF
 3747              	.L231:
 3748 1f96 F30F1EFA 		endbr64
 159:testCore.cpp  **** 	CHECK_EQUAL(8UL, deref(queue.itemArray[3]));
 3749              		.loc 3 159 2
 3750 1f9a 4889C3   		movq	%rax, %rbx
 3751 1f9d E8000000 		call	__cxa_end_catch@PLT
 3751      00
 3752 1fa2 4889D8   		movq	%rbx, %rax
 3753 1fa5 4889C7   		movq	%rax, %rdi
 3754              	.LEHB179:
 3755 1fa8 E8000000 		call	_Unwind_Resume@PLT
 3755      00
 3756              	.LEHE179:
 3757              	.L232:
 3758 1fad F30F1EFA 		endbr64
 160:testCore.cpp  **** 
 3759              		.loc 3 160 2 is_stmt 1
 3760 1fb1 4889C7   		movq	%rax, %rdi
 3761 1fb4 E8000000 		call	__cxa_begin_catch@PLT
 3761      00
 3762              	.LEHB180:
 3763 1fb9 E8000000 		call	_ZN8UnitTest11CurrentTest7ResultsEv@PLT
 3763      00
 160:testCore.cpp  **** 
 3764              		.loc 3 160 2 is_stmt 0 discriminator 3
 3765 1fbe 488B18   		movq	(%rax), %rbx
 3766 1fc1 E8000000 		call	_ZN8UnitTest11CurrentTest7DetailsEv@PLT
 3766      00
 160:testCore.cpp  **** 
 3767              		.loc 3 160 2 discriminator 11
 3768 1fc6 488B08   		movq	(%rax), %rcx
 3769 1fc9 488D4590 		leaq	-112(%rbp), %rax
 3770 1fcd BAA00000 		movl	$160, %edx
 3770      00
 3771 1fd2 4889CE   		movq	%rcx, %rsi
 3772 1fd5 4889C7   		movq	%rax, %rdi
 3773 1fd8 E8000000 		call	_ZN8UnitTest11TestDetailsC1ERKS0_i@PLT
 3773      00
 160:testCore.cpp  **** 
 3774              		.loc 3 160 2 discriminator 15
 3775 1fdd 488D4590 		leaq	-112(%rbp), %rax
 3776 1fe1 488D1500 		leaq	.LC24(%rip), %rdx
 3776      000000
 3777 1fe8 4889C6   		movq	%rax, %rsi
 3778 1feb 4889DF   		movq	%rbx, %rdi
 3779 1fee E8000000 		call	_ZN8UnitTest11TestResults13OnTestFailureERKNS_11TestDetailsEPKc@PLT
 3779      00
 3780              	.LEHE180:
 3781              	.LEHB181:
 160:testCore.cpp  **** 
 3782              		.loc 3 160 2 discriminator 17
 3783 1ff3 E8000000 		call	__cxa_end_catch@PLT
 3783      00
 3784              	.LEHE181:
 3785 1ff8 E91BF9FF 		jmp	.L197
 3785      FF
 3786              	.L233:
 3787 1ffd F30F1EFA 		endbr64
 160:testCore.cpp  **** 
 3788              		.loc 3 160 2
 3789 2001 4889C3   		movq	%rax, %rbx
 3790 2004 E8000000 		call	__cxa_end_catch@PLT
 3790      00
 3791 2009 4889D8   		movq	%rbx, %rax
 3792 200c 4889C7   		movq	%rax, %rdi
 3793              	.LEHB182:
 3794 200f E8000000 		call	_Unwind_Resume@PLT
 3794      00
 3795              	.LEHE182:
 3796              	.L234:
 3797              		.loc 3 164 1 is_stmt 1
 3798 2014 E8000000 		call	__stack_chk_fail@PLT
 3798      00
 3799              	.L199:
 3800 2019 488B5DF8 		movq	-8(%rbp), %rbx
 3801 201d C9       		leave
 3802              		.cfi_def_cfa 7, 8
 3803 201e C3       		ret
 3804              		.cfi_endproc
 3805              	.LFE1173:
 3806              		.section	.gcc_except_table
 3807              		.align 4
 3808              	.LLSDA1173:
 3809 0250 FF       		.byte	0xff
 3810 0251 9B       		.byte	0x9b
 3811 0252 A003     		.uleb128 .LLSDATT1173-.LLSDATTD1173
 3812              	.LLSDATTD1173:
 3813 0254 01       		.byte	0x1
 3814 0255 9703     		.uleb128 .LLSDACSE1173-.LLSDACSB1173
 3815              	.LLSDACSB1173:
 3816 0257 4D       		.uleb128 .LEHB108-.LFB1173
 3817 0258 05       		.uleb128 .LEHE108-.LEHB108
 3818 0259 00       		.uleb128 0
 3819 025a 00       		.uleb128 0
 3820 025b 58       		.uleb128 .LEHB109-.LFB1173
 3821 025c 42       		.uleb128 .LEHE109-.LEHB109
 3822 025d AF0C     		.uleb128 .L200-.LFB1173
 3823 025f 01       		.uleb128 0x1
 3824 0260 A801     		.uleb128 .LEHB110-.LFB1173
 3825 0262 05       		.uleb128 .LEHE110-.LEHB110
 3826 0263 00       		.uleb128 0
 3827 0264 00       		.uleb128 0
 3828 0265 B301     		.uleb128 .LEHB111-.LFB1173
 3829 0267 42       		.uleb128 .LEHE111-.LEHB111
 3830 0268 960D     		.uleb128 .L202-.LFB1173
 3831 026a 01       		.uleb128 0x1
 3832 026b F501     		.uleb128 .LEHB112-.LFB1173
 3833 026d 46       		.uleb128 .LEHE112-.LEHB112
 3834 026e FD0D     		.uleb128 .L204-.LFB1173
 3835 0270 01       		.uleb128 0x1
 3836 0271 CC02     		.uleb128 .LEHB113-.LFB1173
 3837 0273 18       		.uleb128 .LEHE113-.LEHB113
 3838 0274 00       		.uleb128 0
 3839 0275 00       		.uleb128 0
 3840 0276 EA02     		.uleb128 .LEHB114-.LFB1173
 3841 0278 42       		.uleb128 .LEHE114-.LEHB114
 3842 0279 E40E     		.uleb128 .L206-.LFB1173
 3843 027b 01       		.uleb128 0x1
 3844 027c AC03     		.uleb128 .LEHB115-.LFB1173
 3845 027e 46       		.uleb128 .LEHE115-.LEHB115
 3846 027f CB0F     		.uleb128 .L208-.LFB1173
 3847 0281 01       		.uleb128 0x1
 3848 0282 8304     		.uleb128 .LEHB116-.LFB1173
 3849 0284 18       		.uleb128 .LEHE116-.LEHB116
 3850 0285 00       		.uleb128 0
 3851 0286 00       		.uleb128 0
 3852 0287 A104     		.uleb128 .LEHB117-.LFB1173
 3853 0289 42       		.uleb128 .LEHE117-.LEHB117
 3854 028a B210     		.uleb128 .L210-.LFB1173
 3855 028c 01       		.uleb128 0x1
 3856 028d E304     		.uleb128 .LEHB118-.LFB1173
 3857 028f 46       		.uleb128 .LEHE118-.LEHB118
 3858 0290 9911     		.uleb128 .L212-.LFB1173
 3859 0292 01       		.uleb128 0x1
 3860 0293 BA05     		.uleb128 .LEHB119-.LFB1173
 3861 0295 18       		.uleb128 .LEHE119-.LEHB119
 3862 0296 00       		.uleb128 0
 3863 0297 00       		.uleb128 0
 3864 0298 D805     		.uleb128 .LEHB120-.LFB1173
 3865 029a 42       		.uleb128 .LEHE120-.LEHB120
 3866 029b 8012     		.uleb128 .L214-.LFB1173
 3867 029d 01       		.uleb128 0x1
 3868 029e 9A06     		.uleb128 .LEHB121-.LFB1173
 3869 02a0 46       		.uleb128 .LEHE121-.LEHB121
 3870 02a1 E712     		.uleb128 .L216-.LFB1173
 3871 02a3 01       		.uleb128 0x1
 3872 02a4 F106     		.uleb128 .LEHB122-.LFB1173
 3873 02a6 05       		.uleb128 .LEHE122-.LEHB122
 3874 02a7 00       		.uleb128 0
 3875 02a8 00       		.uleb128 0
 3876 02a9 F606     		.uleb128 .LEHB123-.LFB1173
 3877 02ab 4A       		.uleb128 .LEHE123-.LEHB123
 3878 02ac CE13     		.uleb128 .L218-.LFB1173
 3879 02ae 01       		.uleb128 0x1
 3880 02af C007     		.uleb128 .LEHB124-.LFB1173
 3881 02b1 4A       		.uleb128 .LEHE124-.LEHB124
 3882 02b2 B514     		.uleb128 .L220-.LFB1173
 3883 02b4 01       		.uleb128 0x1
 3884 02b5 8A08     		.uleb128 .LEHB125-.LFB1173
 3885 02b7 4A       		.uleb128 .LEHE125-.LEHB125
 3886 02b8 9C15     		.uleb128 .L222-.LFB1173
 3887 02ba 01       		.uleb128 0x1
 3888 02bb D408     		.uleb128 .LEHB126-.LFB1173
 3889 02bd 4A       		.uleb128 .LEHE126-.LEHB126
 3890 02be 8316     		.uleb128 .L224-.LFB1173
 3891 02c0 01       		.uleb128 0x1
 3892 02c1 9E09     		.uleb128 .LEHB127-.LFB1173
 3893 02c3 58       		.uleb128 .LEHE127-.LEHB127
 3894 02c4 EA16     		.uleb128 .L226-.LFB1173
 3895 02c6 01       		.uleb128 0x1
 3896 02c7 F609     		.uleb128 .LEHB128-.LFB1173
 3897 02c9 5C       		.uleb128 .LEHE128-.LEHB128
 3898 02ca D117     		.uleb128 .L228-.LFB1173
 3899 02cc 01       		.uleb128 0x1
 3900 02cd D20A     		.uleb128 .LEHB129-.LFB1173
 3901 02cf 5C       		.uleb128 .LEHE129-.LEHB129
 3902 02d0 B818     		.uleb128 .L230-.LFB1173
 3903 02d2 01       		.uleb128 0x1
 3904 02d3 AE0B     		.uleb128 .LEHB130-.LFB1173
 3905 02d5 5C       		.uleb128 .LEHE130-.LEHB130
 3906 02d6 9F19     		.uleb128 .L232-.LFB1173
 3907 02d8 01       		.uleb128 0x1
 3908 02d9 910C     		.uleb128 .LEHB131-.LFB1173
 3909 02db 05       		.uleb128 .LEHE131-.LEHB131
 3910 02dc 00       		.uleb128 0
 3911 02dd 00       		.uleb128 0
 3912 02de BB0C     		.uleb128 .LEHB132-.LFB1173
 3913 02e0 3A       		.uleb128 .LEHE132-.LEHB132
 3914 02e1 FF0C     		.uleb128 .L201-.LFB1173
 3915 02e3 00       		.uleb128 0
 3916 02e4 F50C     		.uleb128 .LEHB133-.LFB1173
 3917 02e6 05       		.uleb128 .LEHE133-.LEHB133
 3918 02e7 00       		.uleb128 0
 3919 02e8 00       		.uleb128 0
 3920 02e9 910D     		.uleb128 .LEHB134-.LFB1173
 3921 02eb 05       		.uleb128 .LEHE134-.LEHB134
 3922 02ec 00       		.uleb128 0
 3923 02ed 00       		.uleb128 0
 3924 02ee A20D     		.uleb128 .LEHB135-.LFB1173
 3925 02f0 3A       		.uleb128 .LEHE135-.LEHB135
 3926 02f1 E60D     		.uleb128 .L203-.LFB1173
 3927 02f3 00       		.uleb128 0
 3928 02f4 DC0D     		.uleb128 .LEHB136-.LFB1173
 3929 02f6 05       		.uleb128 .LEHE136-.LEHB136
 3930 02f7 00       		.uleb128 0
 3931 02f8 00       		.uleb128 0
 3932 02f9 F80D     		.uleb128 .LEHB137-.LFB1173
 3933 02fb 05       		.uleb128 .LEHE137-.LEHB137
 3934 02fc 00       		.uleb128 0
 3935 02fd 00       		.uleb128 0
 3936 02fe 890E     		.uleb128 .LEHB138-.LFB1173
 3937 0300 3A       		.uleb128 .LEHE138-.LEHB138
 3938 0301 CD0E     		.uleb128 .L205-.LFB1173
 3939 0303 00       		.uleb128 0
 3940 0304 C30E     		.uleb128 .LEHB139-.LFB1173
 3941 0306 05       		.uleb128 .LEHE139-.LEHB139
 3942 0307 00       		.uleb128 0
 3943 0308 00       		.uleb128 0
 3944 0309 DF0E     		.uleb128 .LEHB140-.LFB1173
 3945 030b 05       		.uleb128 .LEHE140-.LEHB140
 3946 030c 00       		.uleb128 0
 3947 030d 00       		.uleb128 0
 3948 030e F00E     		.uleb128 .LEHB141-.LFB1173
 3949 0310 3A       		.uleb128 .LEHE141-.LEHB141
 3950 0311 B40F     		.uleb128 .L207-.LFB1173
 3951 0313 00       		.uleb128 0
 3952 0314 AA0F     		.uleb128 .LEHB142-.LFB1173
 3953 0316 05       		.uleb128 .LEHE142-.LEHB142
 3954 0317 00       		.uleb128 0
 3955 0318 00       		.uleb128 0
 3956 0319 C60F     		.uleb128 .LEHB143-.LFB1173
 3957 031b 05       		.uleb128 .LEHE143-.LEHB143
 3958 031c 00       		.uleb128 0
 3959 031d 00       		.uleb128 0
 3960 031e D70F     		.uleb128 .LEHB144-.LFB1173
 3961 0320 3A       		.uleb128 .LEHE144-.LEHB144
 3962 0321 9B10     		.uleb128 .L209-.LFB1173
 3963 0323 00       		.uleb128 0
 3964 0324 9110     		.uleb128 .LEHB145-.LFB1173
 3965 0326 05       		.uleb128 .LEHE145-.LEHB145
 3966 0327 00       		.uleb128 0
 3967 0328 00       		.uleb128 0
 3968 0329 AD10     		.uleb128 .LEHB146-.LFB1173
 3969 032b 05       		.uleb128 .LEHE146-.LEHB146
 3970 032c 00       		.uleb128 0
 3971 032d 00       		.uleb128 0
 3972 032e BE10     		.uleb128 .LEHB147-.LFB1173
 3973 0330 3A       		.uleb128 .LEHE147-.LEHB147
 3974 0331 8211     		.uleb128 .L211-.LFB1173
 3975 0333 00       		.uleb128 0
 3976 0334 F810     		.uleb128 .LEHB148-.LFB1173
 3977 0336 05       		.uleb128 .LEHE148-.LEHB148
 3978 0337 00       		.uleb128 0
 3979 0338 00       		.uleb128 0
 3980 0339 9411     		.uleb128 .LEHB149-.LFB1173
 3981 033b 05       		.uleb128 .LEHE149-.LEHB149
 3982 033c 00       		.uleb128 0
 3983 033d 00       		.uleb128 0
 3984 033e A511     		.uleb128 .LEHB150-.LFB1173
 3985 0340 3A       		.uleb128 .LEHE150-.LEHB150
 3986 0341 E911     		.uleb128 .L213-.LFB1173
 3987 0343 00       		.uleb128 0
 3988 0344 DF11     		.uleb128 .LEHB151-.LFB1173
 3989 0346 05       		.uleb128 .LEHE151-.LEHB151
 3990 0347 00       		.uleb128 0
 3991 0348 00       		.uleb128 0
 3992 0349 FB11     		.uleb128 .LEHB152-.LFB1173
 3993 034b 05       		.uleb128 .LEHE152-.LEHB152
 3994 034c 00       		.uleb128 0
 3995 034d 00       		.uleb128 0
 3996 034e 8C12     		.uleb128 .LEHB153-.LFB1173
 3997 0350 3A       		.uleb128 .LEHE153-.LEHB153
 3998 0351 D012     		.uleb128 .L215-.LFB1173
 3999 0353 00       		.uleb128 0
 4000 0354 C612     		.uleb128 .LEHB154-.LFB1173
 4001 0356 05       		.uleb128 .LEHE154-.LEHB154
 4002 0357 00       		.uleb128 0
 4003 0358 00       		.uleb128 0
 4004 0359 E212     		.uleb128 .LEHB155-.LFB1173
 4005 035b 05       		.uleb128 .LEHE155-.LEHB155
 4006 035c 00       		.uleb128 0
 4007 035d 00       		.uleb128 0
 4008 035e F312     		.uleb128 .LEHB156-.LFB1173
 4009 0360 3A       		.uleb128 .LEHE156-.LEHB156
 4010 0361 B713     		.uleb128 .L217-.LFB1173
 4011 0363 00       		.uleb128 0
 4012 0364 AD13     		.uleb128 .LEHB157-.LFB1173
 4013 0366 05       		.uleb128 .LEHE157-.LEHB157
 4014 0367 00       		.uleb128 0
 4015 0368 00       		.uleb128 0
 4016 0369 C913     		.uleb128 .LEHB158-.LFB1173
 4017 036b 05       		.uleb128 .LEHE158-.LEHB158
 4018 036c 00       		.uleb128 0
 4019 036d 00       		.uleb128 0
 4020 036e DA13     		.uleb128 .LEHB159-.LFB1173
 4021 0370 3A       		.uleb128 .LEHE159-.LEHB159
 4022 0371 9E14     		.uleb128 .L219-.LFB1173
 4023 0373 00       		.uleb128 0
 4024 0374 9414     		.uleb128 .LEHB160-.LFB1173
 4025 0376 05       		.uleb128 .LEHE160-.LEHB160
 4026 0377 00       		.uleb128 0
 4027 0378 00       		.uleb128 0
 4028 0379 B014     		.uleb128 .LEHB161-.LFB1173
 4029 037b 05       		.uleb128 .LEHE161-.LEHB161
 4030 037c 00       		.uleb128 0
 4031 037d 00       		.uleb128 0
 4032 037e C114     		.uleb128 .LEHB162-.LFB1173
 4033 0380 3A       		.uleb128 .LEHE162-.LEHB162
 4034 0381 8515     		.uleb128 .L221-.LFB1173
 4035 0383 00       		.uleb128 0
 4036 0384 FB14     		.uleb128 .LEHB163-.LFB1173
 4037 0386 05       		.uleb128 .LEHE163-.LEHB163
 4038 0387 00       		.uleb128 0
 4039 0388 00       		.uleb128 0
 4040 0389 9715     		.uleb128 .LEHB164-.LFB1173
 4041 038b 05       		.uleb128 .LEHE164-.LEHB164
 4042 038c 00       		.uleb128 0
 4043 038d 00       		.uleb128 0
 4044 038e A815     		.uleb128 .LEHB165-.LFB1173
 4045 0390 3A       		.uleb128 .LEHE165-.LEHB165
 4046 0391 EC15     		.uleb128 .L223-.LFB1173
 4047 0393 00       		.uleb128 0
 4048 0394 E215     		.uleb128 .LEHB166-.LFB1173
 4049 0396 05       		.uleb128 .LEHE166-.LEHB166
 4050 0397 00       		.uleb128 0
 4051 0398 00       		.uleb128 0
 4052 0399 FE15     		.uleb128 .LEHB167-.LFB1173
 4053 039b 05       		.uleb128 .LEHE167-.LEHB167
 4054 039c 00       		.uleb128 0
 4055 039d 00       		.uleb128 0
 4056 039e 8F16     		.uleb128 .LEHB168-.LFB1173
 4057 03a0 3A       		.uleb128 .LEHE168-.LEHB168
 4058 03a1 D316     		.uleb128 .L225-.LFB1173
 4059 03a3 00       		.uleb128 0
 4060 03a4 C916     		.uleb128 .LEHB169-.LFB1173
 4061 03a6 05       		.uleb128 .LEHE169-.LEHB169
 4062 03a7 00       		.uleb128 0
 4063 03a8 00       		.uleb128 0
 4064 03a9 E516     		.uleb128 .LEHB170-.LFB1173
 4065 03ab 05       		.uleb128 .LEHE170-.LEHB170
 4066 03ac 00       		.uleb128 0
 4067 03ad 00       		.uleb128 0
 4068 03ae F616     		.uleb128 .LEHB171-.LFB1173
 4069 03b0 3A       		.uleb128 .LEHE171-.LEHB171
 4070 03b1 BA17     		.uleb128 .L227-.LFB1173
 4071 03b3 00       		.uleb128 0
 4072 03b4 B017     		.uleb128 .LEHB172-.LFB1173
 4073 03b6 05       		.uleb128 .LEHE172-.LEHB172
 4074 03b7 00       		.uleb128 0
 4075 03b8 00       		.uleb128 0
 4076 03b9 CC17     		.uleb128 .LEHB173-.LFB1173
 4077 03bb 05       		.uleb128 .LEHE173-.LEHB173
 4078 03bc 00       		.uleb128 0
 4079 03bd 00       		.uleb128 0
 4080 03be DD17     		.uleb128 .LEHB174-.LFB1173
 4081 03c0 3A       		.uleb128 .LEHE174-.LEHB174
 4082 03c1 A118     		.uleb128 .L229-.LFB1173
 4083 03c3 00       		.uleb128 0
 4084 03c4 9718     		.uleb128 .LEHB175-.LFB1173
 4085 03c6 05       		.uleb128 .LEHE175-.LEHB175
 4086 03c7 00       		.uleb128 0
 4087 03c8 00       		.uleb128 0
 4088 03c9 B318     		.uleb128 .LEHB176-.LFB1173
 4089 03cb 05       		.uleb128 .LEHE176-.LEHB176
 4090 03cc 00       		.uleb128 0
 4091 03cd 00       		.uleb128 0
 4092 03ce C418     		.uleb128 .LEHB177-.LFB1173
 4093 03d0 3A       		.uleb128 .LEHE177-.LEHB177
 4094 03d1 8819     		.uleb128 .L231-.LFB1173
 4095 03d3 00       		.uleb128 0
 4096 03d4 FE18     		.uleb128 .LEHB178-.LFB1173
 4097 03d6 05       		.uleb128 .LEHE178-.LEHB178
 4098 03d7 00       		.uleb128 0
 4099 03d8 00       		.uleb128 0
 4100 03d9 9A19     		.uleb128 .LEHB179-.LFB1173
 4101 03db 05       		.uleb128 .LEHE179-.LEHB179
 4102 03dc 00       		.uleb128 0
 4103 03dd 00       		.uleb128 0
 4104 03de AB19     		.uleb128 .LEHB180-.LFB1173
 4105 03e0 3A       		.uleb128 .LEHE180-.LEHB180
 4106 03e1 EF19     		.uleb128 .L233-.LFB1173
 4107 03e3 00       		.uleb128 0
 4108 03e4 E519     		.uleb128 .LEHB181-.LFB1173
 4109 03e6 05       		.uleb128 .LEHE181-.LEHB181
 4110 03e7 00       		.uleb128 0
 4111 03e8 00       		.uleb128 0
 4112 03e9 811A     		.uleb128 .LEHB182-.LFB1173
 4113 03eb 05       		.uleb128 .LEHE182-.LEHB182
 4114 03ec 00       		.uleb128 0
 4115 03ed 00       		.uleb128 0
 4116              	.LLSDACSE1173:
 4117 03ee 01       		.byte	0x1
 4118 03ef 00       		.byte	0
 4119              		.align 4
 4120 03f0 00000000 		.long	0
 4121              	
 4122              	.LLSDATT1173:
 4123              		.text
 4125              		.section	.rodata
 4126              	.LC25:
 4127 0513 51756575 		.string	"Queue_testPutTake"
 4127      655F7465 
 4127      73745075 
 4127      7454616B 
 4127      6500
 4128              		.section	.text._ZN21TestQueue_testPutTakeC2Ev,"axG",@progbits,_ZN21TestQueue_testPutTakeC5Ev,comda
 4129              		.align 2
 4130              		.weak	_ZN21TestQueue_testPutTakeC2Ev
 4132              	_ZN21TestQueue_testPutTakeC2Ev:
 4133              	.LFB1175:
 165:testCore.cpp  **** 
 166:testCore.cpp  **** TEST(Queue_testPutTake) {
 4134              		.loc 3 166 1
 4135              		.cfi_startproc
 4136 0000 F30F1EFA 		endbr64
 4137 0004 55       		pushq	%rbp
 4138              		.cfi_def_cfa_offset 16
 4139              		.cfi_offset 6, -16
 4140 0005 4889E5   		movq	%rsp, %rbp
 4141              		.cfi_def_cfa_register 6
 4142 0008 53       		pushq	%rbx
 4143 0009 4883EC18 		subq	$24, %rsp
 4144              		.cfi_offset 3, -24
 4145 000d 48897DE8 		movq	%rdi, -24(%rbp)
 4146              	.LBB7:
 4147              		.loc 3 166 1
 4148 0011 488B5DE8 		movq	-24(%rbp), %rbx
 4149 0015 E8000000 		call	_ZN13UnitTestSuite12GetSuiteNameEv
 4149      00
 4150 001a 4889C2   		movq	%rax, %rdx
 4151 001d 41B8A600 		movl	$166, %r8d
 4151      0000
 4152 0023 488D0500 		leaq	.LC1(%rip), %rax
 4152      000000
 4153 002a 4889C1   		movq	%rax, %rcx
 4154 002d 488D0500 		leaq	.LC25(%rip), %rax
 4154      000000
 4155 0034 4889C6   		movq	%rax, %rsi
 4156 0037 4889DF   		movq	%rbx, %rdi
 4157 003a E8000000 		call	_ZN8UnitTest4TestC2EPKcS2_S2_i@PLT
 4157      00
 4158 003f 488D1500 		leaq	16+_ZTV21TestQueue_testPutTake(%rip), %rdx
 4158      000000
 4159 0046 488B45E8 		movq	-24(%rbp), %rax
 4160 004a 488910   		movq	%rdx, (%rax)
 4161              	.LBE7:
 4162 004d 90       		nop
 4163 004e 488B5DF8 		movq	-8(%rbp), %rbx
 4164 0052 C9       		leave
 4165              		.cfi_def_cfa 7, 8
 4166 0053 C3       		ret
 4167              		.cfi_endproc
 4168              	.LFE1175:
 4170              		.weak	_ZN21TestQueue_testPutTakeC1Ev
 4171              		.set	_ZN21TestQueue_testPutTakeC1Ev,_ZN21TestQueue_testPutTakeC2Ev
 4172              		.globl	testQueue_testPutTakeInstance
 4173              		.bss
 4174 00b9 00000000 		.align 32
 4174      000000
 4177              	testQueue_testPutTakeInstance:
 4178 00c0 00000000 		.zero	56
 4178      00000000 
 4178      00000000 
 4178      00000000 
 4178      00000000 
 4179              		.globl	adderQueue_testPutTake
 4182              	adderQueue_testPutTake:
 4183 00f8 00       		.zero	1
 4184              		.section	.rodata
 4185 0525 000000   		.align 8
 4186              	.LC26:
 4187 0528 556E6861 		.string	"Unhandled exception in CHECK_EQUAL(5UL, *item)"
 4187      6E646C65 
 4187      64206578 
 4187      63657074 
 4187      696F6E20 
 4188 0557 00       		.align 8
 4189              	.LC27:
 4190 0558 556E6861 		.string	"Unhandled exception in CHECK_EQUAL(6UL, *item)"
 4190      6E646C65 
 4190      64206578 
 4190      63657074 
 4190      696F6E20 
 4191 0587 00       		.align 8
 4192              	.LC28:
 4193 0588 556E6861 		.string	"Unhandled exception in CHECK_EQUAL(7UL, *item)"
 4193      6E646C65 
 4193      64206578 
 4193      63657074 
 4193      696F6E20 
 4194 05b7 00       		.align 8
 4195              	.LC29:
 4196 05b8 556E6861 		.string	"Unhandled exception in CHECK_EQUAL(8UL, *item)"
 4196      6E646C65 
 4196      64206578 
 4196      63657074 
 4196      696F6E20 
 4197              		.text
 4198 201f 90       		.align 2
 4199              		.globl	_ZNK21TestQueue_testPutTake7RunImplEv
 4201              	_ZNK21TestQueue_testPutTake7RunImplEv:
 4202              	.LFB1177:
 4203              		.loc 3 166 25
 4204              		.cfi_startproc
 4205              		.cfi_personality 0x9b,DW.ref.__gxx_personality_v0
 4206              		.cfi_lsda 0x1b,.LLSDA1177
 4207 2020 F30F1EFA 		endbr64
 4208 2024 55       		pushq	%rbp
 4209              		.cfi_def_cfa_offset 16
 4210              		.cfi_offset 6, -16
 4211 2025 4889E5   		movq	%rsp, %rbp
 4212              		.cfi_def_cfa_register 6
 4213 2028 53       		pushq	%rbx
 4214 2029 4881EC98 		subq	$152, %rsp
 4214      000000
 4215              		.cfi_offset 3, -24
 4216 2030 4889BD68 		movq	%rdi, -152(%rbp)
 4216      FFFFFF
 4217              		.loc 3 166 25
 4218 2037 64488B04 		movq	%fs:40, %rax
 4218      25280000 
 4218      00
 4219 2040 488945E8 		movq	%rax, -24(%rbp)
 4220 2044 31C0     		xorl	%eax, %eax
 167:testCore.cpp  **** 	struct UnboundedQueue queue;
 168:testCore.cpp  **** 	uint32 *item;
 169:testCore.cpp  **** 	m_count = 1;
 4221              		.loc 3 169 10
 4222 2046 C7050000 		movl	$1, _ZL7m_count(%rip)
 4222      00000100 
 4222      0000
 170:testCore.cpp  **** 
 171:testCore.cpp  **** 	// Create queue
 172:testCore.cpp  **** 	USBStatus status = queueInit(&queue, 4, (CreateFunc)createInt, (DestroyFunc)destroyInt);
 4223              		.loc 3 172 30
 4224 2050 488D45B0 		leaq	-80(%rbp), %rax
 4225 2054 488D1500 		leaq	destroyInt(%rip), %rdx
 4225      000000
 4226 205b 4889D1   		movq	%rdx, %rcx
 4227 205e 488D1500 		leaq	createInt(%rip), %rdx
 4227      000000
 4228 2065 BE040000 		movl	$4, %esi
 4228      00
 4229 206a 4889C7   		movq	%rax, %rdi
 4230              	.LEHB183:
 4231 206d E8000000 		call	queueInit@PLT
 4231      00
 4232              	.LEHE183:
 4233              		.loc 3 172 88
 4234 2072 898578FF 		movl	%eax, -136(%rbp)
 4234      FFFF
 4235              	.LEHB184:
 173:testCore.cpp  **** 	CHECK_EQUAL(USB_SUCCESS, status);
 4236              		.loc 3 173 2
 4237 2078 E8000000 		call	_ZN8UnitTest11CurrentTest7DetailsEv@PLT
 4237      00
 4238 207d 488B08   		movq	(%rax), %rcx
 4239 2080 488D4590 		leaq	-112(%rbp), %rax
 4240 2084 BAAD0000 		movl	$173, %edx
 4240      00
 4241 2089 4889CE   		movq	%rcx, %rsi
 4242 208c 4889C7   		movq	%rax, %rdi
 4243 208f E8000000 		call	_ZN8UnitTest11TestDetailsC1ERKS0_i@PLT
 4243      00
 4244              		.loc 3 173 2 is_stmt 0 discriminator 4
 4245 2094 C7458800 		movl	$0, -120(%rbp)
 4245      000000
 4246 209b E8000000 		call	_ZN8UnitTest11CurrentTest7ResultsEv@PLT
 4246      00
 4247 20a0 488B00   		movq	(%rax), %rax
 4248 20a3 488D4D90 		leaq	-112(%rbp), %rcx
 4249 20a7 488D9578 		leaq	-136(%rbp), %rdx
 4249      FFFFFF
 4250 20ae 488D7588 		leaq	-120(%rbp), %rsi
 4251 20b2 4889C7   		movq	%rax, %rdi
 4252 20b5 E8000000 		call	_ZN8UnitTest10CheckEqualI9USBStatusS1_EEvRNS_11TestResultsERKT_RKT0_RKNS_11TestDetailsE
 4252      00
 4253              	.LEHE184:
 4254              	.L238:
 174:testCore.cpp  **** 
 175:testCore.cpp  **** 	// Put four items into the queue
 176:testCore.cpp  **** 	status = queuePut(&queue, (Item*)&item);
 4255              		.loc 3 176 19 is_stmt 1
 4256 20ba 488D5580 		leaq	-128(%rbp), %rdx
 4257 20be 488D45B0 		leaq	-80(%rbp), %rax
 4258 20c2 4889D6   		movq	%rdx, %rsi
 4259 20c5 4889C7   		movq	%rax, %rdi
 4260              	.LEHB185:
 4261 20c8 E8000000 		call	queuePut@PLT
 4261      00
 4262              	.LEHE185:
 4263              		.loc 3 176 9
 4264 20cd 898578FF 		movl	%eax, -136(%rbp)
 4264      FFFF
 4265              	.LEHB186:
 177:testCore.cpp  **** 	CHECK_EQUAL(USB_SUCCESS, status);
 4266              		.loc 3 177 2
 4267 20d3 E8000000 		call	_ZN8UnitTest11CurrentTest7DetailsEv@PLT
 4267      00
 4268 20d8 488B08   		movq	(%rax), %rcx
 4269 20db 488D4590 		leaq	-112(%rbp), %rax
 4270 20df BAB10000 		movl	$177, %edx
 4270      00
 4271 20e4 4889CE   		movq	%rcx, %rsi
 4272 20e7 4889C7   		movq	%rax, %rdi
 4273 20ea E8000000 		call	_ZN8UnitTest11TestDetailsC1ERKS0_i@PLT
 4273      00
 4274              		.loc 3 177 2 is_stmt 0 discriminator 4
 4275 20ef C7458800 		movl	$0, -120(%rbp)
 4275      000000
 4276 20f6 E8000000 		call	_ZN8UnitTest11CurrentTest7ResultsEv@PLT
 4276      00
 4277 20fb 488B00   		movq	(%rax), %rax
 4278 20fe 488D4D90 		leaq	-112(%rbp), %rcx
 4279 2102 488D9578 		leaq	-136(%rbp), %rdx
 4279      FFFFFF
 4280 2109 488D7588 		leaq	-120(%rbp), %rsi
 4281 210d 4889C7   		movq	%rax, %rdi
 4282 2110 E8000000 		call	_ZN8UnitTest10CheckEqualI9USBStatusS1_EEvRNS_11TestResultsERKT_RKT0_RKNS_11TestDetailsE
 4282      00
 4283              	.LEHE186:
 4284              	.L241:
 4285              	.LEHB187:
 178:testCore.cpp  **** 	CHECK_EQUAL(1UL, *item);
 4286              		.loc 3 178 2 is_stmt 1
 4287 2115 E8000000 		call	_ZN8UnitTest11CurrentTest7DetailsEv@PLT
 4287      00
 4288 211a 488B08   		movq	(%rax), %rcx
 4289 211d 488D4590 		leaq	-112(%rbp), %rax
 4290 2121 BAB20000 		movl	$178, %edx
 4290      00
 4291 2126 4889CE   		movq	%rcx, %rsi
 4292 2129 4889C7   		movq	%rax, %rdi
 4293 212c E8000000 		call	_ZN8UnitTest11TestDetailsC1ERKS0_i@PLT
 4293      00
 4294              		.loc 3 178 2 is_stmt 0 discriminator 4
 4295 2131 488B5D80 		movq	-128(%rbp), %rbx
 4296 2135 48C74588 		movq	$1, -120(%rbp)
 4296      01000000 
 4297 213d E8000000 		call	_ZN8UnitTest11CurrentTest7ResultsEv@PLT
 4297      00
 4298 2142 488B00   		movq	(%rax), %rax
 4299 2145 488D5590 		leaq	-112(%rbp), %rdx
 4300 2149 488D7588 		leaq	-120(%rbp), %rsi
 4301 214d 4889D1   		movq	%rdx, %rcx
 4302 2150 4889DA   		movq	%rbx, %rdx
 4303 2153 4889C7   		movq	%rax, %rdi
 4304 2156 E8000000 		call	_ZN8UnitTest10CheckEqualImjEEvRNS_11TestResultsERKT_RKT0_RKNS_11TestDetailsE
 4304      00
 4305              	.LEHE187:
 4306              	.L244:
 179:testCore.cpp  **** 	*item = 5;
 4307              		.loc 3 179 2 is_stmt 1
 4308 215b 488B4580 		movq	-128(%rbp), %rax
 4309              		.loc 3 179 8
 4310 215f C7000500 		movl	$5, (%rax)
 4310      0000
 180:testCore.cpp  **** 	queueCommitPut(&queue);
 4311              		.loc 3 180 16
 4312 2165 488D45B0 		leaq	-80(%rbp), %rax
 4313 2169 4889C7   		movq	%rax, %rdi
 4314              	.LEHB188:
 4315 216c E8000000 		call	queueCommitPut@PLT
 4315      00
 181:testCore.cpp  **** 	status = queuePut(&queue, (Item*)&item);
 4316              		.loc 3 181 19
 4317 2171 488D5580 		leaq	-128(%rbp), %rdx
 4318 2175 488D45B0 		leaq	-80(%rbp), %rax
 4319 2179 4889D6   		movq	%rdx, %rsi
 4320 217c 4889C7   		movq	%rax, %rdi
 4321 217f E8000000 		call	queuePut@PLT
 4321      00
 4322              	.LEHE188:
 4323              		.loc 3 181 9
 4324 2184 898578FF 		movl	%eax, -136(%rbp)
 4324      FFFF
 4325              	.LEHB189:
 182:testCore.cpp  **** 	CHECK_EQUAL(USB_SUCCESS, status);
 4326              		.loc 3 182 2
 4327 218a E8000000 		call	_ZN8UnitTest11CurrentTest7DetailsEv@PLT
 4327      00
 4328 218f 488B08   		movq	(%rax), %rcx
 4329 2192 488D4590 		leaq	-112(%rbp), %rax
 4330 2196 BAB60000 		movl	$182, %edx
 4330      00
 4331 219b 4889CE   		movq	%rcx, %rsi
 4332 219e 4889C7   		movq	%rax, %rdi
 4333 21a1 E8000000 		call	_ZN8UnitTest11TestDetailsC1ERKS0_i@PLT
 4333      00
 4334              		.loc 3 182 2 is_stmt 0 discriminator 4
 4335 21a6 C7458800 		movl	$0, -120(%rbp)
 4335      000000
 4336 21ad E8000000 		call	_ZN8UnitTest11CurrentTest7ResultsEv@PLT
 4336      00
 4337 21b2 488B00   		movq	(%rax), %rax
 4338 21b5 488D4D90 		leaq	-112(%rbp), %rcx
 4339 21b9 488D9578 		leaq	-136(%rbp), %rdx
 4339      FFFFFF
 4340 21c0 488D7588 		leaq	-120(%rbp), %rsi
 4341 21c4 4889C7   		movq	%rax, %rdi
 4342 21c7 E8000000 		call	_ZN8UnitTest10CheckEqualI9USBStatusS1_EEvRNS_11TestResultsERKT_RKT0_RKNS_11TestDetailsE
 4342      00
 4343              	.LEHE189:
 4344              	.L247:
 4345              	.LEHB190:
 183:testCore.cpp  **** 	CHECK_EQUAL(2UL, *item);
 4346              		.loc 3 183 2 is_stmt 1
 4347 21cc E8000000 		call	_ZN8UnitTest11CurrentTest7DetailsEv@PLT
 4347      00
 4348 21d1 488B08   		movq	(%rax), %rcx
 4349 21d4 488D4590 		leaq	-112(%rbp), %rax
 4350 21d8 BAB70000 		movl	$183, %edx
 4350      00
 4351 21dd 4889CE   		movq	%rcx, %rsi
 4352 21e0 4889C7   		movq	%rax, %rdi
 4353 21e3 E8000000 		call	_ZN8UnitTest11TestDetailsC1ERKS0_i@PLT
 4353      00
 4354              		.loc 3 183 2 is_stmt 0 discriminator 4
 4355 21e8 488B5D80 		movq	-128(%rbp), %rbx
 4356 21ec 48C74588 		movq	$2, -120(%rbp)
 4356      02000000 
 4357 21f4 E8000000 		call	_ZN8UnitTest11CurrentTest7ResultsEv@PLT
 4357      00
 4358 21f9 488B00   		movq	(%rax), %rax
 4359 21fc 488D5590 		leaq	-112(%rbp), %rdx
 4360 2200 488D7588 		leaq	-120(%rbp), %rsi
 4361 2204 4889D1   		movq	%rdx, %rcx
 4362 2207 4889DA   		movq	%rbx, %rdx
 4363 220a 4889C7   		movq	%rax, %rdi
 4364 220d E8000000 		call	_ZN8UnitTest10CheckEqualImjEEvRNS_11TestResultsERKT_RKT0_RKNS_11TestDetailsE
 4364      00
 4365              	.LEHE190:
 4366              	.L250:
 184:testCore.cpp  **** 	*item = 6;
 4367              		.loc 3 184 2 is_stmt 1
 4368 2212 488B4580 		movq	-128(%rbp), %rax
 4369              		.loc 3 184 8
 4370 2216 C7000600 		movl	$6, (%rax)
 4370      0000
 185:testCore.cpp  **** 	queueCommitPut(&queue);
 4371              		.loc 3 185 16
 4372 221c 488D45B0 		leaq	-80(%rbp), %rax
 4373 2220 4889C7   		movq	%rax, %rdi
 4374              	.LEHB191:
 4375 2223 E8000000 		call	queueCommitPut@PLT
 4375      00
 186:testCore.cpp  **** 	status = queuePut(&queue, (Item*)&item);
 4376              		.loc 3 186 19
 4377 2228 488D5580 		leaq	-128(%rbp), %rdx
 4378 222c 488D45B0 		leaq	-80(%rbp), %rax
 4379 2230 4889D6   		movq	%rdx, %rsi
 4380 2233 4889C7   		movq	%rax, %rdi
 4381 2236 E8000000 		call	queuePut@PLT
 4381      00
 4382              	.LEHE191:
 4383              		.loc 3 186 9
 4384 223b 898578FF 		movl	%eax, -136(%rbp)
 4384      FFFF
 4385              	.LEHB192:
 187:testCore.cpp  **** 	CHECK_EQUAL(USB_SUCCESS, status);
 4386              		.loc 3 187 2
 4387 2241 E8000000 		call	_ZN8UnitTest11CurrentTest7DetailsEv@PLT
 4387      00
 4388 2246 488B08   		movq	(%rax), %rcx
 4389 2249 488D4590 		leaq	-112(%rbp), %rax
 4390 224d BABB0000 		movl	$187, %edx
 4390      00
 4391 2252 4889CE   		movq	%rcx, %rsi
 4392 2255 4889C7   		movq	%rax, %rdi
 4393 2258 E8000000 		call	_ZN8UnitTest11TestDetailsC1ERKS0_i@PLT
 4393      00
 4394              		.loc 3 187 2 is_stmt 0 discriminator 4
 4395 225d C7458800 		movl	$0, -120(%rbp)
 4395      000000
 4396 2264 E8000000 		call	_ZN8UnitTest11CurrentTest7ResultsEv@PLT
 4396      00
 4397 2269 488B00   		movq	(%rax), %rax
 4398 226c 488D4D90 		leaq	-112(%rbp), %rcx
 4399 2270 488D9578 		leaq	-136(%rbp), %rdx
 4399      FFFFFF
 4400 2277 488D7588 		leaq	-120(%rbp), %rsi
 4401 227b 4889C7   		movq	%rax, %rdi
 4402 227e E8000000 		call	_ZN8UnitTest10CheckEqualI9USBStatusS1_EEvRNS_11TestResultsERKT_RKT0_RKNS_11TestDetailsE
 4402      00
 4403              	.LEHE192:
 4404              	.L253:
 4405              	.LEHB193:
 188:testCore.cpp  **** 	CHECK_EQUAL(3UL, *item);
 4406              		.loc 3 188 2 is_stmt 1
 4407 2283 E8000000 		call	_ZN8UnitTest11CurrentTest7DetailsEv@PLT
 4407      00
 4408 2288 488B08   		movq	(%rax), %rcx
 4409 228b 488D4590 		leaq	-112(%rbp), %rax
 4410 228f BABC0000 		movl	$188, %edx
 4410      00
 4411 2294 4889CE   		movq	%rcx, %rsi
 4412 2297 4889C7   		movq	%rax, %rdi
 4413 229a E8000000 		call	_ZN8UnitTest11TestDetailsC1ERKS0_i@PLT
 4413      00
 4414              		.loc 3 188 2 is_stmt 0 discriminator 4
 4415 229f 488B5D80 		movq	-128(%rbp), %rbx
 4416 22a3 48C74588 		movq	$3, -120(%rbp)
 4416      03000000 
 4417 22ab E8000000 		call	_ZN8UnitTest11CurrentTest7ResultsEv@PLT
 4417      00
 4418 22b0 488B00   		movq	(%rax), %rax
 4419 22b3 488D5590 		leaq	-112(%rbp), %rdx
 4420 22b7 488D7588 		leaq	-120(%rbp), %rsi
 4421 22bb 4889D1   		movq	%rdx, %rcx
 4422 22be 4889DA   		movq	%rbx, %rdx
 4423 22c1 4889C7   		movq	%rax, %rdi
 4424 22c4 E8000000 		call	_ZN8UnitTest10CheckEqualImjEEvRNS_11TestResultsERKT_RKT0_RKNS_11TestDetailsE
 4424      00
 4425              	.LEHE193:
 4426              	.L256:
 189:testCore.cpp  **** 	*item = 7;
 4427              		.loc 3 189 2 is_stmt 1
 4428 22c9 488B4580 		movq	-128(%rbp), %rax
 4429              		.loc 3 189 8
 4430 22cd C7000700 		movl	$7, (%rax)
 4430      0000
 190:testCore.cpp  **** 	queueCommitPut(&queue);
 4431              		.loc 3 190 16
 4432 22d3 488D45B0 		leaq	-80(%rbp), %rax
 4433 22d7 4889C7   		movq	%rax, %rdi
 4434              	.LEHB194:
 4435 22da E8000000 		call	queueCommitPut@PLT
 4435      00
 191:testCore.cpp  **** 	status = queuePut(&queue, (Item*)&item);
 4436              		.loc 3 191 19
 4437 22df 488D5580 		leaq	-128(%rbp), %rdx
 4438 22e3 488D45B0 		leaq	-80(%rbp), %rax
 4439 22e7 4889D6   		movq	%rdx, %rsi
 4440 22ea 4889C7   		movq	%rax, %rdi
 4441 22ed E8000000 		call	queuePut@PLT
 4441      00
 4442              	.LEHE194:
 4443              		.loc 3 191 9
 4444 22f2 898578FF 		movl	%eax, -136(%rbp)
 4444      FFFF
 4445              	.LEHB195:
 192:testCore.cpp  **** 	CHECK_EQUAL(USB_SUCCESS, status);
 4446              		.loc 3 192 2
 4447 22f8 E8000000 		call	_ZN8UnitTest11CurrentTest7DetailsEv@PLT
 4447      00
 4448 22fd 488B08   		movq	(%rax), %rcx
 4449 2300 488D4590 		leaq	-112(%rbp), %rax
 4450 2304 BAC00000 		movl	$192, %edx
 4450      00
 4451 2309 4889CE   		movq	%rcx, %rsi
 4452 230c 4889C7   		movq	%rax, %rdi
 4453 230f E8000000 		call	_ZN8UnitTest11TestDetailsC1ERKS0_i@PLT
 4453      00
 4454              		.loc 3 192 2 is_stmt 0 discriminator 4
 4455 2314 C7458800 		movl	$0, -120(%rbp)
 4455      000000
 4456 231b E8000000 		call	_ZN8UnitTest11CurrentTest7ResultsEv@PLT
 4456      00
 4457 2320 488B00   		movq	(%rax), %rax
 4458 2323 488D4D90 		leaq	-112(%rbp), %rcx
 4459 2327 488D9578 		leaq	-136(%rbp), %rdx
 4459      FFFFFF
 4460 232e 488D7588 		leaq	-120(%rbp), %rsi
 4461 2332 4889C7   		movq	%rax, %rdi
 4462 2335 E8000000 		call	_ZN8UnitTest10CheckEqualI9USBStatusS1_EEvRNS_11TestResultsERKT_RKT0_RKNS_11TestDetailsE
 4462      00
 4463              	.LEHE195:
 4464              	.L259:
 4465              	.LEHB196:
 193:testCore.cpp  **** 	CHECK_EQUAL(4UL, *item);
 4466              		.loc 3 193 2 is_stmt 1
 4467 233a E8000000 		call	_ZN8UnitTest11CurrentTest7DetailsEv@PLT
 4467      00
 4468 233f 488B08   		movq	(%rax), %rcx
 4469 2342 488D4590 		leaq	-112(%rbp), %rax
 4470 2346 BAC10000 		movl	$193, %edx
 4470      00
 4471 234b 4889CE   		movq	%rcx, %rsi
 4472 234e 4889C7   		movq	%rax, %rdi
 4473 2351 E8000000 		call	_ZN8UnitTest11TestDetailsC1ERKS0_i@PLT
 4473      00
 4474              		.loc 3 193 2 is_stmt 0 discriminator 4
 4475 2356 488B5D80 		movq	-128(%rbp), %rbx
 4476 235a 48C74588 		movq	$4, -120(%rbp)
 4476      04000000 
 4477 2362 E8000000 		call	_ZN8UnitTest11CurrentTest7ResultsEv@PLT
 4477      00
 4478 2367 488B00   		movq	(%rax), %rax
 4479 236a 488D5590 		leaq	-112(%rbp), %rdx
 4480 236e 488D7588 		leaq	-120(%rbp), %rsi
 4481 2372 4889D1   		movq	%rdx, %rcx
 4482 2375 4889DA   		movq	%rbx, %rdx
 4483 2378 4889C7   		movq	%rax, %rdi
 4484 237b E8000000 		call	_ZN8UnitTest10CheckEqualImjEEvRNS_11TestResultsERKT_RKT0_RKNS_11TestDetailsE
 4484      00
 4485              	.LEHE196:
 4486              	.L262:
 194:testCore.cpp  **** 	*item = 8;
 4487              		.loc 3 194 2 is_stmt 1
 4488 2380 488B4580 		movq	-128(%rbp), %rax
 4489              		.loc 3 194 8
 4490 2384 C7000800 		movl	$8, (%rax)
 4490      0000
 195:testCore.cpp  **** 	queueCommitPut(&queue);
 4491              		.loc 3 195 16
 4492 238a 488D45B0 		leaq	-80(%rbp), %rax
 4493 238e 4889C7   		movq	%rax, %rdi
 4494              	.LEHB197:
 4495 2391 E8000000 		call	queueCommitPut@PLT
 4495      00
 196:testCore.cpp  **** 
 197:testCore.cpp  **** 	// Take four items out of the queue
 198:testCore.cpp  **** 	status = queueTake(&queue, (Item*)&item);
 4496              		.loc 3 198 20
 4497 2396 488D5580 		leaq	-128(%rbp), %rdx
 4498 239a 488D45B0 		leaq	-80(%rbp), %rax
 4499 239e 4889D6   		movq	%rdx, %rsi
 4500 23a1 4889C7   		movq	%rax, %rdi
 4501 23a4 E8000000 		call	queueTake@PLT
 4501      00
 4502              	.LEHE197:
 4503              		.loc 3 198 9
 4504 23a9 898578FF 		movl	%eax, -136(%rbp)
 4504      FFFF
 4505              	.LEHB198:
 199:testCore.cpp  **** 	CHECK_EQUAL(USB_SUCCESS, status);
 4506              		.loc 3 199 2
 4507 23af E8000000 		call	_ZN8UnitTest11CurrentTest7DetailsEv@PLT
 4507      00
 4508 23b4 488B08   		movq	(%rax), %rcx
 4509 23b7 488D4590 		leaq	-112(%rbp), %rax
 4510 23bb BAC70000 		movl	$199, %edx
 4510      00
 4511 23c0 4889CE   		movq	%rcx, %rsi
 4512 23c3 4889C7   		movq	%rax, %rdi
 4513 23c6 E8000000 		call	_ZN8UnitTest11TestDetailsC1ERKS0_i@PLT
 4513      00
 4514              		.loc 3 199 2 is_stmt 0 discriminator 4
 4515 23cb C7458800 		movl	$0, -120(%rbp)
 4515      000000
 4516 23d2 E8000000 		call	_ZN8UnitTest11CurrentTest7ResultsEv@PLT
 4516      00
 4517 23d7 488B00   		movq	(%rax), %rax
 4518 23da 488D4D90 		leaq	-112(%rbp), %rcx
 4519 23de 488D9578 		leaq	-136(%rbp), %rdx
 4519      FFFFFF
 4520 23e5 488D7588 		leaq	-120(%rbp), %rsi
 4521 23e9 4889C7   		movq	%rax, %rdi
 4522 23ec E8000000 		call	_ZN8UnitTest10CheckEqualI9USBStatusS1_EEvRNS_11TestResultsERKT_RKT0_RKNS_11TestDetailsE
 4522      00
 4523              	.LEHE198:
 4524              	.L265:
 4525              	.LEHB199:
 200:testCore.cpp  **** 	CHECK_EQUAL(5UL, *item);
 4526              		.loc 3 200 2 is_stmt 1
 4527 23f1 E8000000 		call	_ZN8UnitTest11CurrentTest7DetailsEv@PLT
 4527      00
 4528 23f6 488B08   		movq	(%rax), %rcx
 4529 23f9 488D4590 		leaq	-112(%rbp), %rax
 4530 23fd BAC80000 		movl	$200, %edx
 4530      00
 4531 2402 4889CE   		movq	%rcx, %rsi
 4532 2405 4889C7   		movq	%rax, %rdi
 4533 2408 E8000000 		call	_ZN8UnitTest11TestDetailsC1ERKS0_i@PLT
 4533      00
 4534              		.loc 3 200 2 is_stmt 0 discriminator 4
 4535 240d 488B5D80 		movq	-128(%rbp), %rbx
 4536 2411 48C74588 		movq	$5, -120(%rbp)
 4536      05000000 
 4537 2419 E8000000 		call	_ZN8UnitTest11CurrentTest7ResultsEv@PLT
 4537      00
 4538 241e 488B00   		movq	(%rax), %rax
 4539 2421 488D5590 		leaq	-112(%rbp), %rdx
 4540 2425 488D7588 		leaq	-120(%rbp), %rsi
 4541 2429 4889D1   		movq	%rdx, %rcx
 4542 242c 4889DA   		movq	%rbx, %rdx
 4543 242f 4889C7   		movq	%rax, %rdi
 4544 2432 E8000000 		call	_ZN8UnitTest10CheckEqualImjEEvRNS_11TestResultsERKT_RKT0_RKNS_11TestDetailsE
 4544      00
 4545              	.LEHE199:
 4546              	.L268:
 201:testCore.cpp  **** 	queueCommitTake(&queue);
 4547              		.loc 3 201 17 is_stmt 1
 4548 2437 488D45B0 		leaq	-80(%rbp), %rax
 4549 243b 4889C7   		movq	%rax, %rdi
 4550              	.LEHB200:
 4551 243e E8000000 		call	queueCommitTake@PLT
 4551      00
 202:testCore.cpp  **** 	status = queueTake(&queue, (Item*)&item);
 4552              		.loc 3 202 20
 4553 2443 488D5580 		leaq	-128(%rbp), %rdx
 4554 2447 488D45B0 		leaq	-80(%rbp), %rax
 4555 244b 4889D6   		movq	%rdx, %rsi
 4556 244e 4889C7   		movq	%rax, %rdi
 4557 2451 E8000000 		call	queueTake@PLT
 4557      00
 4558              	.LEHE200:
 4559              		.loc 3 202 9
 4560 2456 898578FF 		movl	%eax, -136(%rbp)
 4560      FFFF
 4561              	.LEHB201:
 203:testCore.cpp  **** 	CHECK_EQUAL(USB_SUCCESS, status);
 4562              		.loc 3 203 2
 4563 245c E8000000 		call	_ZN8UnitTest11CurrentTest7DetailsEv@PLT
 4563      00
 4564 2461 488B08   		movq	(%rax), %rcx
 4565 2464 488D4590 		leaq	-112(%rbp), %rax
 4566 2468 BACB0000 		movl	$203, %edx
 4566      00
 4567 246d 4889CE   		movq	%rcx, %rsi
 4568 2470 4889C7   		movq	%rax, %rdi
 4569 2473 E8000000 		call	_ZN8UnitTest11TestDetailsC1ERKS0_i@PLT
 4569      00
 4570              		.loc 3 203 2 is_stmt 0 discriminator 4
 4571 2478 C7458800 		movl	$0, -120(%rbp)
 4571      000000
 4572 247f E8000000 		call	_ZN8UnitTest11CurrentTest7ResultsEv@PLT
 4572      00
 4573 2484 488B00   		movq	(%rax), %rax
 4574 2487 488D4D90 		leaq	-112(%rbp), %rcx
 4575 248b 488D9578 		leaq	-136(%rbp), %rdx
 4575      FFFFFF
 4576 2492 488D7588 		leaq	-120(%rbp), %rsi
 4577 2496 4889C7   		movq	%rax, %rdi
 4578 2499 E8000000 		call	_ZN8UnitTest10CheckEqualI9USBStatusS1_EEvRNS_11TestResultsERKT_RKT0_RKNS_11TestDetailsE
 4578      00
 4579              	.LEHE201:
 4580              	.L271:
 4581              	.LEHB202:
 204:testCore.cpp  **** 	CHECK_EQUAL(6UL, *item);
 4582              		.loc 3 204 2 is_stmt 1
 4583 249e E8000000 		call	_ZN8UnitTest11CurrentTest7DetailsEv@PLT
 4583      00
 4584 24a3 488B08   		movq	(%rax), %rcx
 4585 24a6 488D4590 		leaq	-112(%rbp), %rax
 4586 24aa BACC0000 		movl	$204, %edx
 4586      00
 4587 24af 4889CE   		movq	%rcx, %rsi
 4588 24b2 4889C7   		movq	%rax, %rdi
 4589 24b5 E8000000 		call	_ZN8UnitTest11TestDetailsC1ERKS0_i@PLT
 4589      00
 4590              		.loc 3 204 2 is_stmt 0 discriminator 4
 4591 24ba 488B5D80 		movq	-128(%rbp), %rbx
 4592 24be 48C74588 		movq	$6, -120(%rbp)
 4592      06000000 
 4593 24c6 E8000000 		call	_ZN8UnitTest11CurrentTest7ResultsEv@PLT
 4593      00
 4594 24cb 488B00   		movq	(%rax), %rax
 4595 24ce 488D5590 		leaq	-112(%rbp), %rdx
 4596 24d2 488D7588 		leaq	-120(%rbp), %rsi
 4597 24d6 4889D1   		movq	%rdx, %rcx
 4598 24d9 4889DA   		movq	%rbx, %rdx
 4599 24dc 4889C7   		movq	%rax, %rdi
 4600 24df E8000000 		call	_ZN8UnitTest10CheckEqualImjEEvRNS_11TestResultsERKT_RKT0_RKNS_11TestDetailsE
 4600      00
 4601              	.LEHE202:
 4602              	.L274:
 205:testCore.cpp  **** 	queueCommitTake(&queue);
 4603              		.loc 3 205 17 is_stmt 1
 4604 24e4 488D45B0 		leaq	-80(%rbp), %rax
 4605 24e8 4889C7   		movq	%rax, %rdi
 4606              	.LEHB203:
 4607 24eb E8000000 		call	queueCommitTake@PLT
 4607      00
 206:testCore.cpp  **** 	status = queueTake(&queue, (Item*)&item);
 4608              		.loc 3 206 20
 4609 24f0 488D5580 		leaq	-128(%rbp), %rdx
 4610 24f4 488D45B0 		leaq	-80(%rbp), %rax
 4611 24f8 4889D6   		movq	%rdx, %rsi
 4612 24fb 4889C7   		movq	%rax, %rdi
 4613 24fe E8000000 		call	queueTake@PLT
 4613      00
 4614              	.LEHE203:
 4615              		.loc 3 206 9
 4616 2503 898578FF 		movl	%eax, -136(%rbp)
 4616      FFFF
 4617              	.LEHB204:
 207:testCore.cpp  **** 	CHECK_EQUAL(USB_SUCCESS, status);
 4618              		.loc 3 207 2
 4619 2509 E8000000 		call	_ZN8UnitTest11CurrentTest7DetailsEv@PLT
 4619      00
 4620 250e 488B08   		movq	(%rax), %rcx
 4621 2511 488D4590 		leaq	-112(%rbp), %rax
 4622 2515 BACF0000 		movl	$207, %edx
 4622      00
 4623 251a 4889CE   		movq	%rcx, %rsi
 4624 251d 4889C7   		movq	%rax, %rdi
 4625 2520 E8000000 		call	_ZN8UnitTest11TestDetailsC1ERKS0_i@PLT
 4625      00
 4626              		.loc 3 207 2 is_stmt 0 discriminator 4
 4627 2525 C7458800 		movl	$0, -120(%rbp)
 4627      000000
 4628 252c E8000000 		call	_ZN8UnitTest11CurrentTest7ResultsEv@PLT
 4628      00
 4629 2531 488B00   		movq	(%rax), %rax
 4630 2534 488D4D90 		leaq	-112(%rbp), %rcx
 4631 2538 488D9578 		leaq	-136(%rbp), %rdx
 4631      FFFFFF
 4632 253f 488D7588 		leaq	-120(%rbp), %rsi
 4633 2543 4889C7   		movq	%rax, %rdi
 4634 2546 E8000000 		call	_ZN8UnitTest10CheckEqualI9USBStatusS1_EEvRNS_11TestResultsERKT_RKT0_RKNS_11TestDetailsE
 4634      00
 4635              	.LEHE204:
 4636              	.L277:
 4637              	.LEHB205:
 208:testCore.cpp  **** 	CHECK_EQUAL(7UL, *item);
 4638              		.loc 3 208 2 is_stmt 1
 4639 254b E8000000 		call	_ZN8UnitTest11CurrentTest7DetailsEv@PLT
 4639      00
 4640 2550 488B08   		movq	(%rax), %rcx
 4641 2553 488D4590 		leaq	-112(%rbp), %rax
 4642 2557 BAD00000 		movl	$208, %edx
 4642      00
 4643 255c 4889CE   		movq	%rcx, %rsi
 4644 255f 4889C7   		movq	%rax, %rdi
 4645 2562 E8000000 		call	_ZN8UnitTest11TestDetailsC1ERKS0_i@PLT
 4645      00
 4646              		.loc 3 208 2 is_stmt 0 discriminator 4
 4647 2567 488B5D80 		movq	-128(%rbp), %rbx
 4648 256b 48C74588 		movq	$7, -120(%rbp)
 4648      07000000 
 4649 2573 E8000000 		call	_ZN8UnitTest11CurrentTest7ResultsEv@PLT
 4649      00
 4650 2578 488B00   		movq	(%rax), %rax
 4651 257b 488D5590 		leaq	-112(%rbp), %rdx
 4652 257f 488D7588 		leaq	-120(%rbp), %rsi
 4653 2583 4889D1   		movq	%rdx, %rcx
 4654 2586 4889DA   		movq	%rbx, %rdx
 4655 2589 4889C7   		movq	%rax, %rdi
 4656 258c E8000000 		call	_ZN8UnitTest10CheckEqualImjEEvRNS_11TestResultsERKT_RKT0_RKNS_11TestDetailsE
 4656      00
 4657              	.LEHE205:
 4658              	.L280:
 209:testCore.cpp  **** 	queueCommitTake(&queue);
 4659              		.loc 3 209 17 is_stmt 1
 4660 2591 488D45B0 		leaq	-80(%rbp), %rax
 4661 2595 4889C7   		movq	%rax, %rdi
 4662              	.LEHB206:
 4663 2598 E8000000 		call	queueCommitTake@PLT
 4663      00
 210:testCore.cpp  **** 	status = queueTake(&queue, (Item*)&item);
 4664              		.loc 3 210 20
 4665 259d 488D5580 		leaq	-128(%rbp), %rdx
 4666 25a1 488D45B0 		leaq	-80(%rbp), %rax
 4667 25a5 4889D6   		movq	%rdx, %rsi
 4668 25a8 4889C7   		movq	%rax, %rdi
 4669 25ab E8000000 		call	queueTake@PLT
 4669      00
 4670              	.LEHE206:
 4671              		.loc 3 210 9
 4672 25b0 898578FF 		movl	%eax, -136(%rbp)
 4672      FFFF
 4673              	.LEHB207:
 211:testCore.cpp  **** 	CHECK_EQUAL(USB_SUCCESS, status);
 4674              		.loc 3 211 2
 4675 25b6 E8000000 		call	_ZN8UnitTest11CurrentTest7DetailsEv@PLT
 4675      00
 4676 25bb 488B08   		movq	(%rax), %rcx
 4677 25be 488D4590 		leaq	-112(%rbp), %rax
 4678 25c2 BAD30000 		movl	$211, %edx
 4678      00
 4679 25c7 4889CE   		movq	%rcx, %rsi
 4680 25ca 4889C7   		movq	%rax, %rdi
 4681 25cd E8000000 		call	_ZN8UnitTest11TestDetailsC1ERKS0_i@PLT
 4681      00
 4682              		.loc 3 211 2 is_stmt 0 discriminator 4
 4683 25d2 C7458800 		movl	$0, -120(%rbp)
 4683      000000
 4684 25d9 E8000000 		call	_ZN8UnitTest11CurrentTest7ResultsEv@PLT
 4684      00
 4685 25de 488B00   		movq	(%rax), %rax
 4686 25e1 488D4D90 		leaq	-112(%rbp), %rcx
 4687 25e5 488D9578 		leaq	-136(%rbp), %rdx
 4687      FFFFFF
 4688 25ec 488D7588 		leaq	-120(%rbp), %rsi
 4689 25f0 4889C7   		movq	%rax, %rdi
 4690 25f3 E8000000 		call	_ZN8UnitTest10CheckEqualI9USBStatusS1_EEvRNS_11TestResultsERKT_RKT0_RKNS_11TestDetailsE
 4690      00
 4691              	.LEHE207:
 4692              	.L283:
 4693              	.LEHB208:
 212:testCore.cpp  **** 	CHECK_EQUAL(8UL, *item);
 4694              		.loc 3 212 2 is_stmt 1
 4695 25f8 E8000000 		call	_ZN8UnitTest11CurrentTest7DetailsEv@PLT
 4695      00
 4696 25fd 488B08   		movq	(%rax), %rcx
 4697 2600 488D4590 		leaq	-112(%rbp), %rax
 4698 2604 BAD40000 		movl	$212, %edx
 4698      00
 4699 2609 4889CE   		movq	%rcx, %rsi
 4700 260c 4889C7   		movq	%rax, %rdi
 4701 260f E8000000 		call	_ZN8UnitTest11TestDetailsC1ERKS0_i@PLT
 4701      00
 4702              		.loc 3 212 2 is_stmt 0 discriminator 4
 4703 2614 488B5D80 		movq	-128(%rbp), %rbx
 4704 2618 48C74588 		movq	$8, -120(%rbp)
 4704      08000000 
 4705 2620 E8000000 		call	_ZN8UnitTest11CurrentTest7ResultsEv@PLT
 4705      00
 4706 2625 488B00   		movq	(%rax), %rax
 4707 2628 488D5590 		leaq	-112(%rbp), %rdx
 4708 262c 488D7588 		leaq	-120(%rbp), %rsi
 4709 2630 4889D1   		movq	%rdx, %rcx
 4710 2633 4889DA   		movq	%rbx, %rdx
 4711 2636 4889C7   		movq	%rax, %rdi
 4712 2639 E8000000 		call	_ZN8UnitTest10CheckEqualImjEEvRNS_11TestResultsERKT_RKT0_RKNS_11TestDetailsE
 4712      00
 4713              	.LEHE208:
 4714              	.L286:
 213:testCore.cpp  **** 	queueCommitTake(&queue);
 4715              		.loc 3 213 17 is_stmt 1
 4716 263e 488D45B0 		leaq	-80(%rbp), %rax
 4717 2642 4889C7   		movq	%rax, %rdi
 4718              	.LEHB209:
 4719 2645 E8000000 		call	queueCommitTake@PLT
 4719      00
 4720              	.LEHE209:
 4721              	.LEHB210:
 214:testCore.cpp  **** 
 215:testCore.cpp  **** 	// Verify
 216:testCore.cpp  **** 	CHECK_EQUAL(4UL, queue.capacity);
 4722              		.loc 3 216 2
 4723 264a E8000000 		call	_ZN8UnitTest11CurrentTest7DetailsEv@PLT
 4723      00
 4724 264f 488B08   		movq	(%rax), %rcx
 4725 2652 488D4590 		leaq	-112(%rbp), %rax
 4726 2656 BAD80000 		movl	$216, %edx
 4726      00
 4727 265b 4889CE   		movq	%rcx, %rsi
 4728 265e 4889C7   		movq	%rax, %rdi
 4729 2661 E8000000 		call	_ZN8UnitTest11TestDetailsC1ERKS0_i@PLT
 4729      00
 4730              		.loc 3 216 2 is_stmt 0 discriminator 4
 4731 2666 48C74588 		movq	$4, -120(%rbp)
 4731      04000000 
 4732 266e E8000000 		call	_ZN8UnitTest11CurrentTest7ResultsEv@PLT
 4732      00
 4733 2673 488B00   		movq	(%rax), %rax
 4734 2676 488D5590 		leaq	-112(%rbp), %rdx
 4735 267a 488D4DB0 		leaq	-80(%rbp), %rcx
 4736 267e 488D7908 		leaq	8(%rcx), %rdi
 4737 2682 488D7588 		leaq	-120(%rbp), %rsi
 4738 2686 4889D1   		movq	%rdx, %rcx
 4739 2689 4889FA   		movq	%rdi, %rdx
 4740 268c 4889C7   		movq	%rax, %rdi
 4741 268f E8000000 		call	_ZN8UnitTest10CheckEqualImmEEvRNS_11TestResultsERKT_RKT0_RKNS_11TestDetailsE
 4741      00
 4742              	.LEHE210:
 4743              	.L289:
 4744              	.LEHB211:
 217:testCore.cpp  **** 	CHECK_EQUAL(0UL, queue.putIndex);
 4745              		.loc 3 217 2 is_stmt 1
 4746 2694 E8000000 		call	_ZN8UnitTest11CurrentTest7DetailsEv@PLT
 4746      00
 4747 2699 488B08   		movq	(%rax), %rcx
 4748 269c 488D4590 		leaq	-112(%rbp), %rax
 4749 26a0 BAD90000 		movl	$217, %edx
 4749      00
 4750 26a5 4889CE   		movq	%rcx, %rsi
 4751 26a8 4889C7   		movq	%rax, %rdi
 4752 26ab E8000000 		call	_ZN8UnitTest11TestDetailsC1ERKS0_i@PLT
 4752      00
 4753              		.loc 3 217 2 is_stmt 0 discriminator 4
 4754 26b0 48C74588 		movq	$0, -120(%rbp)
 4754      00000000 
 4755 26b8 E8000000 		call	_ZN8UnitTest11CurrentTest7ResultsEv@PLT
 4755      00
 4756 26bd 488B00   		movq	(%rax), %rax
 4757 26c0 488D5590 		leaq	-112(%rbp), %rdx
 4758 26c4 488D4DB0 		leaq	-80(%rbp), %rcx
 4759 26c8 488D7910 		leaq	16(%rcx), %rdi
 4760 26cc 488D7588 		leaq	-120(%rbp), %rsi
 4761 26d0 4889D1   		movq	%rdx, %rcx
 4762 26d3 4889FA   		movq	%rdi, %rdx
 4763 26d6 4889C7   		movq	%rax, %rdi
 4764 26d9 E8000000 		call	_ZN8UnitTest10CheckEqualImmEEvRNS_11TestResultsERKT_RKT0_RKNS_11TestDetailsE
 4764      00
 4765              	.LEHE211:
 4766              	.L292:
 4767              	.LEHB212:
 218:testCore.cpp  **** 	CHECK_EQUAL(0UL, queue.takeIndex);
 4768              		.loc 3 218 2 is_stmt 1
 4769 26de E8000000 		call	_ZN8UnitTest11CurrentTest7DetailsEv@PLT
 4769      00
 4770 26e3 488B08   		movq	(%rax), %rcx
 4771 26e6 488D4590 		leaq	-112(%rbp), %rax
 4772 26ea BADA0000 		movl	$218, %edx
 4772      00
 4773 26ef 4889CE   		movq	%rcx, %rsi
 4774 26f2 4889C7   		movq	%rax, %rdi
 4775 26f5 E8000000 		call	_ZN8UnitTest11TestDetailsC1ERKS0_i@PLT
 4775      00
 4776              		.loc 3 218 2 is_stmt 0 discriminator 4
 4777 26fa 48C74588 		movq	$0, -120(%rbp)
 4777      00000000 
 4778 2702 E8000000 		call	_ZN8UnitTest11CurrentTest7ResultsEv@PLT
 4778      00
 4779 2707 488B00   		movq	(%rax), %rax
 4780 270a 488D5590 		leaq	-112(%rbp), %rdx
 4781 270e 488D4DB0 		leaq	-80(%rbp), %rcx
 4782 2712 488D7918 		leaq	24(%rcx), %rdi
 4783 2716 488D7588 		leaq	-120(%rbp), %rsi
 4784 271a 4889D1   		movq	%rdx, %rcx
 4785 271d 4889FA   		movq	%rdi, %rdx
 4786 2720 4889C7   		movq	%rax, %rdi
 4787 2723 E8000000 		call	_ZN8UnitTest10CheckEqualImmEEvRNS_11TestResultsERKT_RKT0_RKNS_11TestDetailsE
 4787      00
 4788              	.LEHE212:
 4789              	.L295:
 4790              	.LEHB213:
 219:testCore.cpp  **** 	CHECK_EQUAL(0UL, queue.numItems);
 4791              		.loc 3 219 2 is_stmt 1
 4792 2728 E8000000 		call	_ZN8UnitTest11CurrentTest7DetailsEv@PLT
 4792      00
 4793 272d 488B08   		movq	(%rax), %rcx
 4794 2730 488D4590 		leaq	-112(%rbp), %rax
 4795 2734 BADB0000 		movl	$219, %edx
 4795      00
 4796 2739 4889CE   		movq	%rcx, %rsi
 4797 273c 4889C7   		movq	%rax, %rdi
 4798 273f E8000000 		call	_ZN8UnitTest11TestDetailsC1ERKS0_i@PLT
 4798      00
 4799              		.loc 3 219 2 is_stmt 0 discriminator 4
 4800 2744 48C74588 		movq	$0, -120(%rbp)
 4800      00000000 
 4801 274c E8000000 		call	_ZN8UnitTest11CurrentTest7ResultsEv@PLT
 4801      00
 4802 2751 488B00   		movq	(%rax), %rax
 4803 2754 488D5590 		leaq	-112(%rbp), %rdx
 4804 2758 488D4DB0 		leaq	-80(%rbp), %rcx
 4805 275c 488D7920 		leaq	32(%rcx), %rdi
 4806 2760 488D7588 		leaq	-120(%rbp), %rsi
 4807 2764 4889D1   		movq	%rdx, %rcx
 4808 2767 4889FA   		movq	%rdi, %rdx
 4809 276a 4889C7   		movq	%rax, %rdi
 4810 276d E8000000 		call	_ZN8UnitTest10CheckEqualImmEEvRNS_11TestResultsERKT_RKT0_RKNS_11TestDetailsE
 4810      00
 4811              	.LEHE213:
 4812              	.L298:
 4813              	.LEHB214:
 220:testCore.cpp  **** 
 221:testCore.cpp  **** 	// Verify array
 222:testCore.cpp  **** 	CHECK_EQUAL(5UL, deref(queue.itemArray[0]));
 4814              		.loc 3 222 2 is_stmt 1
 4815 2772 E8000000 		call	_ZN8UnitTest11CurrentTest7DetailsEv@PLT
 4815      00
 4816 2777 488B08   		movq	(%rax), %rcx
 4817 277a 488D4590 		leaq	-112(%rbp), %rax
 4818 277e BADE0000 		movl	$222, %edx
 4818      00
 4819 2783 4889CE   		movq	%rcx, %rsi
 4820 2786 4889C7   		movq	%rax, %rdi
 4821 2789 E8000000 		call	_ZN8UnitTest11TestDetailsC1ERKS0_i@PLT
 4821      00
 4822              		.loc 3 222 2 is_stmt 0 discriminator 4
 4823 278e 488B45B0 		movq	-80(%rbp), %rax
 4824 2792 488B00   		movq	(%rax), %rax
 4825 2795 4889C7   		movq	%rax, %rdi
 4826 2798 E8F5D8FF 		call	_ZL5derefPKv
 4826      FF
 4827 279d 89857CFF 		movl	%eax, -132(%rbp)
 4827      FFFF
 4828 27a3 48C74588 		movq	$5, -120(%rbp)
 4828      05000000 
 4829 27ab E8000000 		call	_ZN8UnitTest11CurrentTest7ResultsEv@PLT
 4829      00
 4830 27b0 488B00   		movq	(%rax), %rax
 4831 27b3 488D4D90 		leaq	-112(%rbp), %rcx
 4832 27b7 488D957C 		leaq	-132(%rbp), %rdx
 4832      FFFFFF
 4833 27be 488D7588 		leaq	-120(%rbp), %rsi
 4834 27c2 4889C7   		movq	%rax, %rdi
 4835 27c5 E8000000 		call	_ZN8UnitTest10CheckEqualImjEEvRNS_11TestResultsERKT_RKT0_RKNS_11TestDetailsE
 4835      00
 4836              	.LEHE214:
 4837              	.L301:
 4838              	.LEHB215:
 223:testCore.cpp  **** 	CHECK_EQUAL(6UL, deref(queue.itemArray[1]));
 4839              		.loc 3 223 2 is_stmt 1
 4840 27ca E8000000 		call	_ZN8UnitTest11CurrentTest7DetailsEv@PLT
 4840      00
 4841 27cf 488B08   		movq	(%rax), %rcx
 4842 27d2 488D4590 		leaq	-112(%rbp), %rax
 4843 27d6 BADF0000 		movl	$223, %edx
 4843      00
 4844 27db 4889CE   		movq	%rcx, %rsi
 4845 27de 4889C7   		movq	%rax, %rdi
 4846 27e1 E8000000 		call	_ZN8UnitTest11TestDetailsC1ERKS0_i@PLT
 4846      00
 4847              		.loc 3 223 2 is_stmt 0 discriminator 4
 4848 27e6 488B45B0 		movq	-80(%rbp), %rax
 4849 27ea 4883C008 		addq	$8, %rax
 4850 27ee 488B00   		movq	(%rax), %rax
 4851 27f1 4889C7   		movq	%rax, %rdi
 4852 27f4 E899D8FF 		call	_ZL5derefPKv
 4852      FF
 4853 27f9 89857CFF 		movl	%eax, -132(%rbp)
 4853      FFFF
 4854 27ff 48C74588 		movq	$6, -120(%rbp)
 4854      06000000 
 4855 2807 E8000000 		call	_ZN8UnitTest11CurrentTest7ResultsEv@PLT
 4855      00
 4856 280c 488B00   		movq	(%rax), %rax
 4857 280f 488D4D90 		leaq	-112(%rbp), %rcx
 4858 2813 488D957C 		leaq	-132(%rbp), %rdx
 4858      FFFFFF
 4859 281a 488D7588 		leaq	-120(%rbp), %rsi
 4860 281e 4889C7   		movq	%rax, %rdi
