   1              		.file	"testCore.cpp"
   2              		.text
   3              	.Ltext0:
   4              		.file 0 "/home/pong/FPGALink/makestuff/libs/libusbwrap/tests" "testCore.cpp"
   5              		.local	_ZStL8__ioinit
   6              		.comm	_ZStL8__ioinit,1,1
   7              		.section	.rodata
   8              	.LC0:
   9 0000 44656661 		.string	"DefaultSuite"
   9      756C7453 
   9      75697465 
   9      00
  10              		.section	.text._ZN13UnitTestSuite12GetSuiteNameEv,"axG",@progbits,_ZN13UnitTestSuite12GetSuiteName
  11              		.weak	_ZN13UnitTestSuite12GetSuiteNameEv
  13              	_ZN13UnitTestSuite12GetSuiteNameEv:
  14              	.LFB1101:
  15              		.file 1 "/home/pong/FPGALink/makestuff/libs/libutpp/TestSuite.h"
   1:/home/pong/FPGALink/makestuff/libs/libutpp/TestSuite.h **** #ifndef UNITTEST_TESTSUITE_H
   2:/home/pong/FPGALink/makestuff/libs/libutpp/TestSuite.h **** #define UNITTEST_TESTSUITE_H
   3:/home/pong/FPGALink/makestuff/libs/libutpp/TestSuite.h **** 
   4:/home/pong/FPGALink/makestuff/libs/libutpp/TestSuite.h **** namespace UnitTestSuite {
   5:/home/pong/FPGALink/makestuff/libs/libutpp/TestSuite.h **** 
   6:/home/pong/FPGALink/makestuff/libs/libutpp/TestSuite.h ****     inline char const* GetSuiteName ()
   7:/home/pong/FPGALink/makestuff/libs/libutpp/TestSuite.h ****     {
  16              		.loc 1 7 5
  17              		.cfi_startproc
  18 0000 F30F1EFA 		endbr64
  19 0004 55       		pushq	%rbp
  20              		.cfi_def_cfa_offset 16
  21              		.cfi_offset 6, -16
  22 0005 4889E5   		movq	%rsp, %rbp
  23              		.cfi_def_cfa_register 6
   8:/home/pong/FPGALink/makestuff/libs/libutpp/TestSuite.h ****         return "DefaultSuite";
  24              		.loc 1 8 16
  25 0008 488D0500 		leaq	.LC0(%rip), %rax
  25      000000
   9:/home/pong/FPGALink/makestuff/libs/libutpp/TestSuite.h ****     }
  26              		.loc 1 9 5
  27 000f 5D       		popq	%rbp
  28              		.cfi_def_cfa 7, 8
  29 0010 C3       		ret
  30              		.cfi_endproc
  31              	.LFE1101:
  33              		.section	.text._ZN8UnitTest15MemoryOutStreamC1Ev,"axG",@progbits,_ZN8UnitTest15MemoryOutStreamC1Ev
  34              		.align 2
  35              		.weak	_ZN8UnitTest15MemoryOutStreamC1Ev
  37              	_ZN8UnitTest15MemoryOutStreamC1Ev:
  38              	.LFB1142:
  39              		.file 2 "/home/pong/FPGALink/makestuff/libs/libutpp/MemoryOutStream.h"
   1:/home/pong/FPGALink/makestuff/libs/libutpp/MemoryOutStream.h **** #ifndef UNITTEST_MEMORYOUTSTREAM_H
   2:/home/pong/FPGALink/makestuff/libs/libutpp/MemoryOutStream.h **** #define UNITTEST_MEMORYOUTSTREAM_H
   3:/home/pong/FPGALink/makestuff/libs/libutpp/MemoryOutStream.h **** 
   4:/home/pong/FPGALink/makestuff/libs/libutpp/MemoryOutStream.h **** #include "Config.h"
   5:/home/pong/FPGALink/makestuff/libs/libutpp/MemoryOutStream.h **** 
   6:/home/pong/FPGALink/makestuff/libs/libutpp/MemoryOutStream.h **** #ifndef UNITTEST_USE_CUSTOM_STREAMS
   7:/home/pong/FPGALink/makestuff/libs/libutpp/MemoryOutStream.h **** 
   8:/home/pong/FPGALink/makestuff/libs/libutpp/MemoryOutStream.h **** #include <sstream>
   9:/home/pong/FPGALink/makestuff/libs/libutpp/MemoryOutStream.h **** 
  10:/home/pong/FPGALink/makestuff/libs/libutpp/MemoryOutStream.h **** namespace UnitTest
  11:/home/pong/FPGALink/makestuff/libs/libutpp/MemoryOutStream.h **** {
  12:/home/pong/FPGALink/makestuff/libs/libutpp/MemoryOutStream.h **** 
  13:/home/pong/FPGALink/makestuff/libs/libutpp/MemoryOutStream.h **** class MemoryOutStream : public std::ostringstream
  14:/home/pong/FPGALink/makestuff/libs/libutpp/MemoryOutStream.h **** {
  15:/home/pong/FPGALink/makestuff/libs/libutpp/MemoryOutStream.h **** public:
  16:/home/pong/FPGALink/makestuff/libs/libutpp/MemoryOutStream.h ****     MemoryOutStream() {}
  40              		.loc 2 16 5
  41              		.cfi_startproc
  42              		.cfi_personality 0x9b,DW.ref.__gxx_personality_v0
  43              		.cfi_lsda 0x1b,.LLSDA1142
  44 0000 F30F1EFA 		endbr64
  45 0004 55       		pushq	%rbp
  46              		.cfi_def_cfa_offset 16
  47              		.cfi_offset 6, -16
  48 0005 4889E5   		movq	%rsp, %rbp
  49              		.cfi_def_cfa_register 6
  50 0008 53       		pushq	%rbx
  51 0009 4883EC18 		subq	$24, %rsp
  52              		.cfi_offset 3, -24
  53 000d 48897DE8 		movq	%rdi, -24(%rbp)
  54              	.LBB2:
  55              		.loc 2 16 23
  56 0011 488B45E8 		movq	-24(%rbp), %rax
  57 0015 48059000 		addq	$144, %rax
  57      0000
  58 001b 4889C7   		movq	%rax, %rdi
  59              	.LEHB0:
  60 001e E8000000 		call	_ZNSt9basic_iosIcSt11char_traitsIcEEC2Ev@PLT
  60      00
  61              	.LEHE0:
  62 0023 488B45E8 		movq	-24(%rbp), %rax
  63 0027 488D1500 		leaq	8+_ZTTN8UnitTest15MemoryOutStreamE(%rip), %rdx
  63      000000
  64 002e 4889D6   		movq	%rdx, %rsi
  65 0031 4889C7   		movq	%rax, %rdi
  66              	.LEHB1:
  67 0034 E8000000 		call	_ZNSt7__cxx1119basic_ostringstreamIcSt11char_traitsIcESaIcEEC2Ev@PLT
  67      00
  68              	.LEHE1:
  69              		.loc 2 16 23 is_stmt 0 discriminator 2
  70 0039 488D1500 		leaq	24+_ZTVN8UnitTest15MemoryOutStreamE(%rip), %rdx
  70      000000
  71 0040 488B45E8 		movq	-24(%rbp), %rax
  72 0044 488910   		movq	%rdx, (%rax)
  73 0047 488B45E8 		movq	-24(%rbp), %rax
  74 004b 48059000 		addq	$144, %rax
  74      0000
  75 0051 488D1500 		leaq	64+_ZTVN8UnitTest15MemoryOutStreamE(%rip), %rdx
  75      000000
  76 0058 488910   		movq	%rdx, (%rax)
  77 005b 488B45E8 		movq	-24(%rbp), %rax
  78 005f 4883C070 		addq	$112, %rax
  79 0063 4889C7   		movq	%rax, %rdi
  80              	.LEHB2:
  81 0066 E8000000 		call	_ZNSt7__cxx1112basic_stringIcSt11char_traitsIcESaIcEEC1Ev@PLT
  81      00
  82              	.LEHE2:
  83              	.LBE2:
  84              		.loc 2 16 24 is_stmt 1
  85 006b EB43     		jmp	.L8
  86              	.L7:
  87 006d F30F1EFA 		endbr64
  88              	.LBB3:
  89 0071 4889C3   		movq	%rax, %rbx
  90 0074 488B45E8 		movq	-24(%rbp), %rax
  91 0078 488D1500 		leaq	8+_ZTTN8UnitTest15MemoryOutStreamE(%rip), %rdx
  91      000000
  92 007f 4889D6   		movq	%rdx, %rsi
  93 0082 4889C7   		movq	%rax, %rdi
  94 0085 E8000000 		call	_ZNSt7__cxx1119basic_ostringstreamIcSt11char_traitsIcESaIcEED2Ev@PLT
  94      00
  95 008a EB07     		jmp	.L5
  96              	.L6:
  97 008c F30F1EFA 		endbr64
  98 0090 4889C3   		movq	%rax, %rbx
  99              	.L5:
 100              		.loc 2 16 24 is_stmt 0 discriminator 1
 101 0093 488B45E8 		movq	-24(%rbp), %rax
 102 0097 48059000 		addq	$144, %rax
 102      0000
 103 009d 4889C7   		movq	%rax, %rdi
 104 00a0 E8000000 		call	_ZNSt9basic_iosIcSt11char_traitsIcEED2Ev@PLT
 104      00
 105 00a5 4889D8   		movq	%rbx, %rax
 106 00a8 4889C7   		movq	%rax, %rdi
 107              	.LEHB3:
 108 00ab E8000000 		call	_Unwind_Resume@PLT
 108      00
 109              	.LEHE3:
 110              	.L8:
 111              	.LBE3:
 112              		.loc 2 16 24
 113 00b0 488B5DF8 		movq	-8(%rbp), %rbx
 114 00b4 C9       		leave
 115              		.cfi_def_cfa 7, 8
 116 00b5 C3       		ret
 117              		.cfi_endproc
 118              	.LFE1142:
 119              		.globl	__gxx_personality_v0
 120              		.section	.gcc_except_table._ZN8UnitTest15MemoryOutStreamC1Ev,"aG",@progbits,_ZN8UnitTest15MemoryOu
 121              	.LLSDA1142:
 122 0000 FF       		.byte	0xff
 123 0001 FF       		.byte	0xff
 124 0002 01       		.byte	0x1
 125 0003 12       		.uleb128 .LLSDACSE1142-.LLSDACSB1142
 126              	.LLSDACSB1142:
 127 0004 1E       		.uleb128 .LEHB0-.LFB1142
 128 0005 05       		.uleb128 .LEHE0-.LEHB0
 129 0006 00       		.uleb128 0
 130 0007 00       		.uleb128 0
 131 0008 34       		.uleb128 .LEHB1-.LFB1142
 132 0009 05       		.uleb128 .LEHE1-.LEHB1
 133 000a 8C01     		.uleb128 .L6-.LFB1142
 134 000c 00       		.uleb128 0
 135 000d 66       		.uleb128 .LEHB2-.LFB1142
 136 000e 05       		.uleb128 .LEHE2-.LEHB2
 137 000f 6D       		.uleb128 .L7-.LFB1142
 138 0010 00       		.uleb128 0
 139 0011 AB01     		.uleb128 .LEHB3-.LFB1142
 140 0013 05       		.uleb128 .LEHE3-.LEHB3
 141 0014 00       		.uleb128 0
 142 0015 00       		.uleb128 0
 143              	.LLSDACSE1142:
 144              		.section	.text._ZN8UnitTest15MemoryOutStreamC1Ev,"axG",@progbits,_ZN8UnitTest15MemoryOutStreamC1Ev
 146              		.data
 147              		.align 4
 150              	_ZL7m_count:
 151 0000 01000000 		.long	1
 152              		.local	_ZL11m_allocFree
 153              		.comm	_ZL11m_allocFree,4,4
 154              		.text
 155              		.globl	createInt
 157              	createInt:
 158              	.LFB1159:
 159              		.file 3 "testCore.cpp"
   1:testCore.cpp  **** /*
   2:testCore.cpp  ****  * Copyright (C) 2009-2012 Chris McClelland
   3:testCore.cpp  ****  *
   4:testCore.cpp  ****  * This program is free software: you can redistribute it and/or modify
   5:testCore.cpp  ****  * it under the terms of the GNU Lesser General Public License as published by
   6:testCore.cpp  ****  * the Free Software Foundation, either version 3 of the License, or
   7:testCore.cpp  ****  * (at your option) any later version.
   8:testCore.cpp  ****  *
   9:testCore.cpp  ****  * This program is distributed in the hope that it will be useful,
  10:testCore.cpp  ****  * but WITHOUT ANY WARRANTY; without even the implied warranty of
  11:testCore.cpp  ****  * MERCHANTABILITY or FITNESS FOR A PARTICULAR PURPOSE.  See the
  12:testCore.cpp  ****  * GNU Lesser General Public License for more details.
  13:testCore.cpp  ****  *
  14:testCore.cpp  ****  * You should have received a copy of the GNU Lesser General Public License
  15:testCore.cpp  ****  * along with this program.  If not, see <http://www.gnu.org/licenses/>.
  16:testCore.cpp  ****  */
  17:testCore.cpp  **** #include <iostream>
  18:testCore.cpp  **** #include <cstdlib>
  19:testCore.cpp  **** #include <errno.h>
  20:testCore.cpp  **** #include <UnitTest++.h>
  21:testCore.cpp  **** #include <makestuff.h>
  22:testCore.cpp  **** #include "../unbounded_queue.h"
  23:testCore.cpp  **** 
  24:testCore.cpp  **** using namespace std;
  25:testCore.cpp  **** 
  26:testCore.cpp  **** extern "C" {
  27:testCore.cpp  **** 	static uint32 m_count = 1;
  28:testCore.cpp  **** 	static int m_allocFree = 0;
  29:testCore.cpp  **** 	uint32 *createInt(void) {
 160              		.loc 3 29 26 is_stmt 1
 161              		.cfi_startproc
 162 0000 F30F1EFA 		endbr64
 163 0004 55       		pushq	%rbp
 164              		.cfi_def_cfa_offset 16
 165              		.cfi_offset 6, -16
 166 0005 4889E5   		movq	%rsp, %rbp
 167              		.cfi_def_cfa_register 6
 168 0008 4883EC10 		subq	$16, %rsp
  30:testCore.cpp  **** 		uint32 *p;
  31:testCore.cpp  **** 		if ( m_count > 8 ) {
 169              		.loc 3 31 16
 170 000c 8B050000 		movl	_ZL7m_count(%rip), %eax
 170      0000
 171              		.loc 3 31 3
 172 0012 83F808   		cmpl	$8, %eax
 173 0015 7607     		jbe	.L10
  32:testCore.cpp  **** 			return NULL;  // simulate out-of-memory
 174              		.loc 3 32 11
 175 0017 B8000000 		movl	$0, %eax
 175      00
 176 001c EB3D     		jmp	.L11
 177              	.L10:
  33:testCore.cpp  **** 		}
  34:testCore.cpp  **** 		p = (uint32 *)malloc(sizeof(uint32));
 178              		.loc 3 34 23
 179 001e BF040000 		movl	$4, %edi
 179      00
 180 0023 E8000000 		call	malloc@PLT
 180      00
 181 0028 488945F8 		movq	%rax, -8(%rbp)
  35:testCore.cpp  **** 		if ( p ) {
 182              		.loc 3 35 3
 183 002c 48837DF8 		cmpq	$0, -8(%rbp)
 183      00
 184 0031 7415     		je	.L12
  36:testCore.cpp  **** 			*p = m_count++;
 185              		.loc 3 36 16
 186 0033 8B050000 		movl	_ZL7m_count(%rip), %eax
 186      0000
 187 0039 8D5001   		leal	1(%rax), %edx
 188 003c 89150000 		movl	%edx, _ZL7m_count(%rip)
 188      0000
 189              		.loc 3 36 7
 190 0042 488B55F8 		movq	-8(%rbp), %rdx
 191 0046 8902     		movl	%eax, (%rdx)
 192              	.L12:
  37:testCore.cpp  **** 		}
  38:testCore.cpp  **** 		m_allocFree++;
 193              		.loc 3 38 14
 194 0048 8B050000 		movl	_ZL11m_allocFree(%rip), %eax
 194      0000
 195 004e 83C001   		addl	$1, %eax
 196 0051 89050000 		movl	%eax, _ZL11m_allocFree(%rip)
 196      0000
  39:testCore.cpp  **** 		return p;
 197              		.loc 3 39 10
 198 0057 488B45F8 		movq	-8(%rbp), %rax
 199              	.L11:
  40:testCore.cpp  **** 	}
 200              		.loc 3 40 2
 201 005b C9       		leave
 202              		.cfi_def_cfa 7, 8
 203 005c C3       		ret
 204              		.cfi_endproc
 205              	.LFE1159:
 207              		.globl	destroyInt
 209              	destroyInt:
 210              	.LFB1160:
  41:testCore.cpp  **** 	void destroyInt(uint32 *p) {
 211              		.loc 3 41 29
 212              		.cfi_startproc
 213 005d F30F1EFA 		endbr64
 214 0061 55       		pushq	%rbp
 215              		.cfi_def_cfa_offset 16
 216              		.cfi_offset 6, -16
 217 0062 4889E5   		movq	%rsp, %rbp
 218              		.cfi_def_cfa_register 6
 219 0065 4883EC10 		subq	$16, %rsp
 220 0069 48897DF8 		movq	%rdi, -8(%rbp)
  42:testCore.cpp  **** 		if ( p ) {
 221              		.loc 3 42 3
 222 006d 48837DF8 		cmpq	$0, -8(%rbp)
 222      00
 223 0072 741B     		je	.L15
  43:testCore.cpp  **** 			m_allocFree--;
 224              		.loc 3 43 15
 225 0074 8B050000 		movl	_ZL11m_allocFree(%rip), %eax
 225      0000
 226 007a 83E801   		subl	$1, %eax
 227 007d 89050000 		movl	%eax, _ZL11m_allocFree(%rip)
 227      0000
  44:testCore.cpp  **** 			free((void*)p);
 228              		.loc 3 44 8
 229 0083 488B45F8 		movq	-8(%rbp), %rax
 230 0087 4889C7   		movq	%rax, %rdi
 231 008a E8000000 		call	free@PLT
 231      00
 232              	.L15:
  45:testCore.cpp  **** 		}
  46:testCore.cpp  **** 	}
 233              		.loc 3 46 2
 234 008f 90       		nop
 235 0090 C9       		leave
 236              		.cfi_def_cfa 7, 8
 237 0091 C3       		ret
 238              		.cfi_endproc
 239              	.LFE1160:
 242              	_ZL5derefPKv:
 243              	.LFB1161:
  47:testCore.cpp  **** }
  48:testCore.cpp  **** 
  49:testCore.cpp  **** static inline uint32 deref(Item p) {
 244              		.loc 3 49 36
 245              		.cfi_startproc
 246 0092 55       		pushq	%rbp
 247              		.cfi_def_cfa_offset 16
 248              		.cfi_offset 6, -16
 249 0093 4889E5   		movq	%rsp, %rbp
 250              		.cfi_def_cfa_register 6
 251 0096 48897DF8 		movq	%rdi, -8(%rbp)
  50:testCore.cpp  **** 	return *((const uint32 *)p);
 252              		.loc 3 50 28
 253 009a 488B45F8 		movq	-8(%rbp), %rax
 254 009e 8B00     		movl	(%rax), %eax
  51:testCore.cpp  **** }
 255              		.loc 3 51 1
 256 00a0 5D       		popq	%rbp
 257              		.cfi_def_cfa 7, 8
 258 00a1 C3       		ret
 259              		.cfi_endproc
 260              	.LFE1161:
 262              		.section	.rodata
 263              	.LC1:
 264 000d 74657374 		.string	"testCore.cpp"
 264      436F7265 
 264      2E637070 
 264      00
 265              	.LC2:
 266 001a 51756575 		.string	"Queue_testInit"
 266      655F7465 
 266      7374496E 
 266      697400
 267              		.section	.text._ZN18TestQueue_testInitC2Ev,"axG",@progbits,_ZN18TestQueue_testInitC5Ev,comdat
 268              		.align 2
 269              		.weak	_ZN18TestQueue_testInitC2Ev
 271              	_ZN18TestQueue_testInitC2Ev:
 272              	.LFB1163:
  52:testCore.cpp  **** 
  53:testCore.cpp  **** TEST(Queue_testInit) {
 273              		.loc 3 53 1
 274              		.cfi_startproc
 275 0000 F30F1EFA 		endbr64
 276 0004 55       		pushq	%rbp
 277              		.cfi_def_cfa_offset 16
 278              		.cfi_offset 6, -16
 279 0005 4889E5   		movq	%rsp, %rbp
 280              		.cfi_def_cfa_register 6
 281 0008 53       		pushq	%rbx
 282 0009 4883EC18 		subq	$24, %rsp
 283              		.cfi_offset 3, -24
 284 000d 48897DE8 		movq	%rdi, -24(%rbp)
 285              	.LBB4:
 286              		.loc 3 53 1
 287 0011 488B5DE8 		movq	-24(%rbp), %rbx
 288 0015 E8000000 		call	_ZN13UnitTestSuite12GetSuiteNameEv
 288      00
 289 001a 4889C2   		movq	%rax, %rdx
 290 001d 41B83500 		movl	$53, %r8d
 290      0000
 291 0023 488D0500 		leaq	.LC1(%rip), %rax
 291      000000
 292 002a 4889C1   		movq	%rax, %rcx
 293 002d 488D0500 		leaq	.LC2(%rip), %rax
 293      000000
 294 0034 4889C6   		movq	%rax, %rsi
 295 0037 4889DF   		movq	%rbx, %rdi
 296 003a E8000000 		call	_ZN8UnitTest4TestC2EPKcS2_S2_i@PLT
 296      00
 297 003f 488D1500 		leaq	16+_ZTV18TestQueue_testInit(%rip), %rdx
 297      000000
 298 0046 488B45E8 		movq	-24(%rbp), %rax
 299 004a 488910   		movq	%rdx, (%rax)
 300              	.LBE4:
 301 004d 90       		nop
 302 004e 488B5DF8 		movq	-8(%rbp), %rbx
 303 0052 C9       		leave
 304              		.cfi_def_cfa 7, 8
 305 0053 C3       		ret
 306              		.cfi_endproc
 307              	.LFE1163:
 309              		.weak	_ZN18TestQueue_testInitC1Ev
 310              		.set	_ZN18TestQueue_testInitC1Ev,_ZN18TestQueue_testInitC2Ev
 311              		.globl	testQueue_testInitInstance
 312              		.bss
 313              		.align 32
 316              	testQueue_testInitInstance:
 317 0000 00000000 		.zero	56
 317      00000000 
 317      00000000 
 317      00000000 
 317      00000000 
 318              		.globl	adderQueue_testInit
 321              	adderQueue_testInit:
 322 0038 00       		.zero	1
 323              		.section	.rodata
 324 0029 00000000 		.align 8
 324      000000
 325              	.LC3:
 326 0030 556E6861 		.string	"Unhandled exception in CHECK_EQUAL(USB_SUCCESS, status)"
 326      6E646C65 
 326      64206578 
 326      63657074 
 326      696F6E20 
 327              		.align 8
 328              	.LC4:
 329 0068 556E6861 		.string	"Unhandled exception in CHECK_EQUAL(4UL, queue.capacity)"
 329      6E646C65 
 329      64206578 
 329      63657074 
 329      696F6E20 
 330              		.align 8
 331              	.LC5:
 332 00a0 556E6861 		.string	"Unhandled exception in CHECK_EQUAL(0UL, queue.putIndex)"
 332      6E646C65 
 332      64206578 
 332      63657074 
 332      696F6E20 
 333              		.align 8
 334              	.LC6:
 335 00d8 556E6861 		.string	"Unhandled exception in CHECK_EQUAL(0UL, queue.takeIndex)"
 335      6E646C65 
 335      64206578 
 335      63657074 
 335      696F6E20 
 336 0111 00000000 		.align 8
 336      000000
 337              	.LC7:
 338 0118 556E6861 		.string	"Unhandled exception in CHECK_EQUAL(0UL, queue.numItems)"
 338      6E646C65 
 338      64206578 
 338      63657074 
 338      696F6E20 
 339              		.align 8
 340              	.LC8:
 341 0150 556E6861 		.string	"Unhandled exception in CHECK_EQUAL(1UL, deref(queue.itemArray[0]))"
 341      6E646C65 
 341      64206578 
 341      63657074 
 341      696F6E20 
 342 0193 00000000 		.align 8
 342      00
 343              	.LC9:
 344 0198 556E6861 		.string	"Unhandled exception in CHECK_EQUAL(2UL, deref(queue.itemArray[1]))"
 344      6E646C65 
 344      64206578 
 344      63657074 
 344      696F6E20 
 345 01db 00000000 		.align 8
 345      00
 346              	.LC10:
 347 01e0 556E6861 		.string	"Unhandled exception in CHECK_EQUAL(3UL, deref(queue.itemArray[2]))"
 347      6E646C65 
 347      64206578 
 347      63657074 
 347      696F6E20 
 348 0223 00000000 		.align 8
 348      00
 349              	.LC11:
 350 0228 556E6861 		.string	"Unhandled exception in CHECK_EQUAL(4UL, deref(queue.itemArray[3]))"
 350      6E646C65 
 350      64206578 
 350      63657074 
 350      696F6E20 
 351              		.text
 352              		.align 2
 353              		.globl	_ZNK18TestQueue_testInit7RunImplEv
 355              	_ZNK18TestQueue_testInit7RunImplEv:
 356              	.LFB1165:
 357              		.loc 3 53 22
 358              		.cfi_startproc
 359              		.cfi_personality 0x9b,DW.ref.__gxx_personality_v0
 360              		.cfi_lsda 0x1b,.LLSDA1165
 361 00a2 F30F1EFA 		endbr64
 362 00a6 55       		pushq	%rbp
 363              		.cfi_def_cfa_offset 16
 364              		.cfi_offset 6, -16
 365 00a7 4889E5   		movq	%rsp, %rbp
 366              		.cfi_def_cfa_register 6
 367 00aa 53       		pushq	%rbx
 368 00ab 4881EC88 		subq	$136, %rsp
 368      000000
 369              		.cfi_offset 3, -24
 370 00b2 4889BD78 		movq	%rdi, -136(%rbp)
 370      FFFFFF
 371              		.loc 3 53 22
 372 00b9 64488B04 		movq	%fs:40, %rax
 372      25280000 
 372      00
 373 00c2 488945E8 		movq	%rax, -24(%rbp)
 374 00c6 31C0     		xorl	%eax, %eax
  54:testCore.cpp  **** 	struct UnboundedQueue queue;
  55:testCore.cpp  **** 	m_count = 1;
 375              		.loc 3 55 10
 376 00c8 C7050000 		movl	$1, _ZL7m_count(%rip)
 376      00000100 
 376      0000
  56:testCore.cpp  **** 
  57:testCore.cpp  **** 	// Create queue
  58:testCore.cpp  **** 	USBStatus status = queueInit(&queue, 4, (CreateFunc)createInt, (DestroyFunc)destroyInt);
 377              		.loc 3 58 30
 378 00d2 488D45B0 		leaq	-80(%rbp), %rax
 379 00d6 488D1500 		leaq	destroyInt(%rip), %rdx
 379      000000
 380 00dd 4889D1   		movq	%rdx, %rcx
 381 00e0 488D1500 		leaq	createInt(%rip), %rdx
 381      000000
 382 00e7 BE040000 		movl	$4, %esi
 382      00
 383 00ec 4889C7   		movq	%rax, %rdi
 384              	.LEHB4:
 385 00ef E8000000 		call	queueInit@PLT
 385      00
 386              	.LEHE4:
 387              		.loc 3 58 88
 388 00f4 894580   		movl	%eax, -128(%rbp)
 389              	.LEHB5:
  59:testCore.cpp  **** 	CHECK_EQUAL(USB_SUCCESS, status);
 390              		.loc 3 59 2
 391 00f7 E8000000 		call	_ZN8UnitTest11CurrentTest7DetailsEv@PLT
 391      00
 392 00fc 488B08   		movq	(%rax), %rcx
 393 00ff 488D4590 		leaq	-112(%rbp), %rax
 394 0103 BA3B0000 		movl	$59, %edx
 394      00
 395 0108 4889CE   		movq	%rcx, %rsi
 396 010b 4889C7   		movq	%rax, %rdi
 397 010e E8000000 		call	_ZN8UnitTest11TestDetailsC1ERKS0_i@PLT
 397      00
 398              		.loc 3 59 2 is_stmt 0 discriminator 4
 399 0113 C7458800 		movl	$0, -120(%rbp)
 399      000000
 400 011a E8000000 		call	_ZN8UnitTest11CurrentTest7ResultsEv@PLT
 400      00
 401 011f 488B00   		movq	(%rax), %rax
 402 0122 488D4D90 		leaq	-112(%rbp), %rcx
 403 0126 488D5580 		leaq	-128(%rbp), %rdx
 404 012a 488D7588 		leaq	-120(%rbp), %rsi
 405 012e 4889C7   		movq	%rax, %rdi
 406 0131 E8000000 		call	_ZN8UnitTest10CheckEqualI9USBStatusS1_EEvRNS_11TestResultsERKT_RKT0_RKNS_11TestDetailsE
 406      00
 407              	.LEHE5:
 408              	.L21:
 409              	.LEHB6:
  60:testCore.cpp  **** 
  61:testCore.cpp  **** 	// Verify
  62:testCore.cpp  **** 	CHECK_EQUAL(4UL, queue.capacity);
 410              		.loc 3 62 2 is_stmt 1
 411 0136 E8000000 		call	_ZN8UnitTest11CurrentTest7DetailsEv@PLT
 411      00
 412 013b 488B08   		movq	(%rax), %rcx
 413 013e 488D4590 		leaq	-112(%rbp), %rax
 414 0142 BA3E0000 		movl	$62, %edx
 414      00
 415 0147 4889CE   		movq	%rcx, %rsi
 416 014a 4889C7   		movq	%rax, %rdi
 417 014d E8000000 		call	_ZN8UnitTest11TestDetailsC1ERKS0_i@PLT
 417      00
 418              		.loc 3 62 2 is_stmt 0 discriminator 4
 419 0152 48C74588 		movq	$4, -120(%rbp)
 419      04000000 
 420 015a E8000000 		call	_ZN8UnitTest11CurrentTest7ResultsEv@PLT
 420      00
 421 015f 488B00   		movq	(%rax), %rax
 422 0162 488D5590 		leaq	-112(%rbp), %rdx
 423 0166 488D4DB0 		leaq	-80(%rbp), %rcx
 424 016a 488D7908 		leaq	8(%rcx), %rdi
 425 016e 488D7588 		leaq	-120(%rbp), %rsi
 426 0172 4889D1   		movq	%rdx, %rcx
 427 0175 4889FA   		movq	%rdi, %rdx
 428 0178 4889C7   		movq	%rax, %rdi
 429 017b E8000000 		call	_ZN8UnitTest10CheckEqualImmEEvRNS_11TestResultsERKT_RKT0_RKNS_11TestDetailsE
 429      00
 430              	.LEHE6:
 431              	.L24:
 432              	.LEHB7:
  63:testCore.cpp  **** 	CHECK_EQUAL(0UL, queue.putIndex);
 433              		.loc 3 63 2 is_stmt 1
 434 0180 E8000000 		call	_ZN8UnitTest11CurrentTest7DetailsEv@PLT
 434      00
 435 0185 488B08   		movq	(%rax), %rcx
 436 0188 488D4590 		leaq	-112(%rbp), %rax
 437 018c BA3F0000 		movl	$63, %edx
 437      00
 438 0191 4889CE   		movq	%rcx, %rsi
 439 0194 4889C7   		movq	%rax, %rdi
 440 0197 E8000000 		call	_ZN8UnitTest11TestDetailsC1ERKS0_i@PLT
 440      00
 441              		.loc 3 63 2 is_stmt 0 discriminator 4
 442 019c 48C74588 		movq	$0, -120(%rbp)
 442      00000000 
 443 01a4 E8000000 		call	_ZN8UnitTest11CurrentTest7ResultsEv@PLT
 443      00
 444 01a9 488B00   		movq	(%rax), %rax
 445 01ac 488D5590 		leaq	-112(%rbp), %rdx
 446 01b0 488D4DB0 		leaq	-80(%rbp), %rcx
 447 01b4 488D7910 		leaq	16(%rcx), %rdi
 448 01b8 488D7588 		leaq	-120(%rbp), %rsi
 449 01bc 4889D1   		movq	%rdx, %rcx
 450 01bf 4889FA   		movq	%rdi, %rdx
 451 01c2 4889C7   		movq	%rax, %rdi
 452 01c5 E8000000 		call	_ZN8UnitTest10CheckEqualImmEEvRNS_11TestResultsERKT_RKT0_RKNS_11TestDetailsE
 452      00
 453              	.LEHE7:
 454              	.L27:
 455              	.LEHB8:
  64:testCore.cpp  **** 	CHECK_EQUAL(0UL, queue.takeIndex);
 456              		.loc 3 64 2 is_stmt 1
 457 01ca E8000000 		call	_ZN8UnitTest11CurrentTest7DetailsEv@PLT
 457      00
 458 01cf 488B08   		movq	(%rax), %rcx
 459 01d2 488D4590 		leaq	-112(%rbp), %rax
 460 01d6 BA400000 		movl	$64, %edx
 460      00
 461 01db 4889CE   		movq	%rcx, %rsi
 462 01de 4889C7   		movq	%rax, %rdi
 463 01e1 E8000000 		call	_ZN8UnitTest11TestDetailsC1ERKS0_i@PLT
 463      00
 464              		.loc 3 64 2 is_stmt 0 discriminator 4
 465 01e6 48C74588 		movq	$0, -120(%rbp)
 465      00000000 
 466 01ee E8000000 		call	_ZN8UnitTest11CurrentTest7ResultsEv@PLT
 466      00
 467 01f3 488B00   		movq	(%rax), %rax
 468 01f6 488D5590 		leaq	-112(%rbp), %rdx
 469 01fa 488D4DB0 		leaq	-80(%rbp), %rcx
 470 01fe 488D7918 		leaq	24(%rcx), %rdi
 471 0202 488D7588 		leaq	-120(%rbp), %rsi
 472 0206 4889D1   		movq	%rdx, %rcx
 473 0209 4889FA   		movq	%rdi, %rdx
 474 020c 4889C7   		movq	%rax, %rdi
 475 020f E8000000 		call	_ZN8UnitTest10CheckEqualImmEEvRNS_11TestResultsERKT_RKT0_RKNS_11TestDetailsE
 475      00
 476              	.LEHE8:
 477              	.L30:
 478              	.LEHB9:
  65:testCore.cpp  **** 	CHECK_EQUAL(0UL, queue.numItems);
 479              		.loc 3 65 2 is_stmt 1
 480 0214 E8000000 		call	_ZN8UnitTest11CurrentTest7DetailsEv@PLT
 480      00
 481 0219 488B08   		movq	(%rax), %rcx
 482 021c 488D4590 		leaq	-112(%rbp), %rax
 483 0220 BA410000 		movl	$65, %edx
 483      00
 484 0225 4889CE   		movq	%rcx, %rsi
 485 0228 4889C7   		movq	%rax, %rdi
 486 022b E8000000 		call	_ZN8UnitTest11TestDetailsC1ERKS0_i@PLT
 486      00
 487              		.loc 3 65 2 is_stmt 0 discriminator 4
 488 0230 48C74588 		movq	$0, -120(%rbp)
 488      00000000 
 489 0238 E8000000 		call	_ZN8UnitTest11CurrentTest7ResultsEv@PLT
 489      00
 490 023d 488B00   		movq	(%rax), %rax
 491 0240 488D5590 		leaq	-112(%rbp), %rdx
 492 0244 488D4DB0 		leaq	-80(%rbp), %rcx
 493 0248 488D7920 		leaq	32(%rcx), %rdi
 494 024c 488D7588 		leaq	-120(%rbp), %rsi
 495 0250 4889D1   		movq	%rdx, %rcx
 496 0253 4889FA   		movq	%rdi, %rdx
 497 0256 4889C7   		movq	%rax, %rdi
 498 0259 E8000000 		call	_ZN8UnitTest10CheckEqualImmEEvRNS_11TestResultsERKT_RKT0_RKNS_11TestDetailsE
 498      00
 499              	.LEHE9:
 500              	.L33:
 501              	.LEHB10:
  66:testCore.cpp  **** 
  67:testCore.cpp  **** 	// Verify array
  68:testCore.cpp  **** 	CHECK_EQUAL(1UL, deref(queue.itemArray[0]));
 502              		.loc 3 68 2 is_stmt 1
 503 025e E8000000 		call	_ZN8UnitTest11CurrentTest7DetailsEv@PLT
 503      00
 504 0263 488B08   		movq	(%rax), %rcx
 505 0266 488D4590 		leaq	-112(%rbp), %rax
 506 026a BA440000 		movl	$68, %edx
 506      00
 507 026f 4889CE   		movq	%rcx, %rsi
 508 0272 4889C7   		movq	%rax, %rdi
 509 0275 E8000000 		call	_ZN8UnitTest11TestDetailsC1ERKS0_i@PLT
 509      00
 510              		.loc 3 68 2 is_stmt 0 discriminator 4
 511 027a 488B45B0 		movq	-80(%rbp), %rax
 512 027e 488B00   		movq	(%rax), %rax
 513 0281 4889C7   		movq	%rax, %rdi
 514 0284 E809FEFF 		call	_ZL5derefPKv
 514      FF
 515 0289 894584   		movl	%eax, -124(%rbp)
 516 028c 48C74588 		movq	$1, -120(%rbp)
 516      01000000 
 517 0294 E8000000 		call	_ZN8UnitTest11CurrentTest7ResultsEv@PLT
 517      00
 518 0299 488B00   		movq	(%rax), %rax
 519 029c 488D4D90 		leaq	-112(%rbp), %rcx
 520 02a0 488D5584 		leaq	-124(%rbp), %rdx
 521 02a4 488D7588 		leaq	-120(%rbp), %rsi
 522 02a8 4889C7   		movq	%rax, %rdi
 523 02ab E8000000 		call	_ZN8UnitTest10CheckEqualImjEEvRNS_11TestResultsERKT_RKT0_RKNS_11TestDetailsE
 523      00
 524              	.LEHE10:
 525              	.L36:
 526              	.LEHB11:
  69:testCore.cpp  **** 	CHECK_EQUAL(2UL, deref(queue.itemArray[1]));
 527              		.loc 3 69 2 is_stmt 1
 528 02b0 E8000000 		call	_ZN8UnitTest11CurrentTest7DetailsEv@PLT
 528      00
 529 02b5 488B08   		movq	(%rax), %rcx
 530 02b8 488D4590 		leaq	-112(%rbp), %rax
 531 02bc BA450000 		movl	$69, %edx
 531      00
 532 02c1 4889CE   		movq	%rcx, %rsi
 533 02c4 4889C7   		movq	%rax, %rdi
 534 02c7 E8000000 		call	_ZN8UnitTest11TestDetailsC1ERKS0_i@PLT
 534      00
 535              		.loc 3 69 2 is_stmt 0 discriminator 4
 536 02cc 488B45B0 		movq	-80(%rbp), %rax
 537 02d0 4883C008 		addq	$8, %rax
 538 02d4 488B00   		movq	(%rax), %rax
 539 02d7 4889C7   		movq	%rax, %rdi
 540 02da E8B3FDFF 		call	_ZL5derefPKv
 540      FF
 541 02df 894584   		movl	%eax, -124(%rbp)
 542 02e2 48C74588 		movq	$2, -120(%rbp)
 542      02000000 
 543 02ea E8000000 		call	_ZN8UnitTest11CurrentTest7ResultsEv@PLT
 543      00
 544 02ef 488B00   		movq	(%rax), %rax
 545 02f2 488D4D90 		leaq	-112(%rbp), %rcx
 546 02f6 488D5584 		leaq	-124(%rbp), %rdx
 547 02fa 488D7588 		leaq	-120(%rbp), %rsi
 548 02fe 4889C7   		movq	%rax, %rdi
 549 0301 E8000000 		call	_ZN8UnitTest10CheckEqualImjEEvRNS_11TestResultsERKT_RKT0_RKNS_11TestDetailsE
 549      00
 550              	.LEHE11:
 551              	.L39:
 552              	.LEHB12:
  70:testCore.cpp  **** 	CHECK_EQUAL(3UL, deref(queue.itemArray[2]));
 553              		.loc 3 70 2 is_stmt 1
 554 0306 E8000000 		call	_ZN8UnitTest11CurrentTest7DetailsEv@PLT
 554      00
 555 030b 488B08   		movq	(%rax), %rcx
 556 030e 488D4590 		leaq	-112(%rbp), %rax
 557 0312 BA460000 		movl	$70, %edx
 557      00
 558 0317 4889CE   		movq	%rcx, %rsi
 559 031a 4889C7   		movq	%rax, %rdi
 560 031d E8000000 		call	_ZN8UnitTest11TestDetailsC1ERKS0_i@PLT
 560      00
 561              		.loc 3 70 2 is_stmt 0 discriminator 4
 562 0322 488B45B0 		movq	-80(%rbp), %rax
 563 0326 4883C010 		addq	$16, %rax
 564 032a 488B00   		movq	(%rax), %rax
 565 032d 4889C7   		movq	%rax, %rdi
 566 0330 E85DFDFF 		call	_ZL5derefPKv
 566      FF
 567 0335 894584   		movl	%eax, -124(%rbp)
 568 0338 48C74588 		movq	$3, -120(%rbp)
 568      03000000 
 569 0340 E8000000 		call	_ZN8UnitTest11CurrentTest7ResultsEv@PLT
 569      00
 570 0345 488B00   		movq	(%rax), %rax
 571 0348 488D4D90 		leaq	-112(%rbp), %rcx
 572 034c 488D5584 		leaq	-124(%rbp), %rdx
 573 0350 488D7588 		leaq	-120(%rbp), %rsi
 574 0354 4889C7   		movq	%rax, %rdi
 575 0357 E8000000 		call	_ZN8UnitTest10CheckEqualImjEEvRNS_11TestResultsERKT_RKT0_RKNS_11TestDetailsE
 575      00
 576              	.LEHE12:
 577              	.L42:
 578              	.LEHB13:
  71:testCore.cpp  **** 	CHECK_EQUAL(4UL, deref(queue.itemArray[3]));
 579              		.loc 3 71 2 is_stmt 1
 580 035c E8000000 		call	_ZN8UnitTest11CurrentTest7DetailsEv@PLT
 580      00
 581 0361 488B08   		movq	(%rax), %rcx
 582 0364 488D4590 		leaq	-112(%rbp), %rax
 583 0368 BA470000 		movl	$71, %edx
 583      00
 584 036d 4889CE   		movq	%rcx, %rsi
 585 0370 4889C7   		movq	%rax, %rdi
 586 0373 E8000000 		call	_ZN8UnitTest11TestDetailsC1ERKS0_i@PLT
 586      00
 587              		.loc 3 71 2 is_stmt 0 discriminator 4
 588 0378 488B45B0 		movq	-80(%rbp), %rax
 589 037c 4883C018 		addq	$24, %rax
 590 0380 488B00   		movq	(%rax), %rax
 591 0383 4889C7   		movq	%rax, %rdi
 592 0386 E807FDFF 		call	_ZL5derefPKv
 592      FF
 593 038b 894584   		movl	%eax, -124(%rbp)
 594 038e 48C74588 		movq	$4, -120(%rbp)
 594      04000000 
 595 0396 E8000000 		call	_ZN8UnitTest11CurrentTest7ResultsEv@PLT
 595      00
 596 039b 488B00   		movq	(%rax), %rax
 597 039e 488D4D90 		leaq	-112(%rbp), %rcx
 598 03a2 488D5584 		leaq	-124(%rbp), %rdx
 599 03a6 488D7588 		leaq	-120(%rbp), %rsi
 600 03aa 4889C7   		movq	%rax, %rdi
 601 03ad E8000000 		call	_ZN8UnitTest10CheckEqualImjEEvRNS_11TestResultsERKT_RKT0_RKNS_11TestDetailsE
 601      00
 602              	.LEHE13:
 603              	.L45:
  72:testCore.cpp  **** 
  73:testCore.cpp  **** 	// Clean up
  74:testCore.cpp  **** 	queueDestroy(&queue);
 604              		.loc 3 74 14 is_stmt 1
 605 03b2 488D45B0 		leaq	-80(%rbp), %rax
 606 03b6 4889C7   		movq	%rax, %rdi
 607              	.LEHB14:
 608 03b9 E8000000 		call	queueDestroy@PLT
 608      00
 609              	.LEHE14:
  75:testCore.cpp  **** }
 610              		.loc 3 75 1
 611 03be 90       		nop
 612 03bf 488B45E8 		movq	-24(%rbp), %rax
 613 03c3 64482B04 		subq	%fs:40, %rax
 613      25280000 
 613      00
 614 03cc 0F84A903 		je	.L47
 614      0000
 615 03d2 E99F0300 		jmp	.L66
 615      00
 616              	.L48:
 617 03d7 F30F1EFA 		endbr64
  59:testCore.cpp  **** 
 618              		.loc 3 59 2
 619 03db 4889C7   		movq	%rax, %rdi
 620 03de E8000000 		call	__cxa_begin_catch@PLT
 620      00
 621              	.LEHB15:
 622 03e3 E8000000 		call	_ZN8UnitTest11CurrentTest7ResultsEv@PLT
 622      00
  59:testCore.cpp  **** 
 623              		.loc 3 59 2 is_stmt 0 discriminator 3
 624 03e8 488B18   		movq	(%rax), %rbx
 625 03eb E8000000 		call	_ZN8UnitTest11CurrentTest7DetailsEv@PLT
 625      00
  59:testCore.cpp  **** 
 626              		.loc 3 59 2 discriminator 11
 627 03f0 488B08   		movq	(%rax), %rcx
 628 03f3 488D4590 		leaq	-112(%rbp), %rax
 629 03f7 BA3B0000 		movl	$59, %edx
 629      00
 630 03fc 4889CE   		movq	%rcx, %rsi
 631 03ff 4889C7   		movq	%rax, %rdi
 632 0402 E8000000 		call	_ZN8UnitTest11TestDetailsC1ERKS0_i@PLT
 632      00
  59:testCore.cpp  **** 
 633              		.loc 3 59 2 discriminator 15
 634 0407 488D4590 		leaq	-112(%rbp), %rax
 635 040b 488D1500 		leaq	.LC3(%rip), %rdx
 635      000000
 636 0412 4889C6   		movq	%rax, %rsi
 637 0415 4889DF   		movq	%rbx, %rdi
 638 0418 E8000000 		call	_ZN8UnitTest11TestResults13OnTestFailureERKNS_11TestDetailsEPKc@PLT
 638      00
 639              	.LEHE15:
 640              	.LEHB16:
  59:testCore.cpp  **** 
 641              		.loc 3 59 2 discriminator 17
 642 041d E8000000 		call	__cxa_end_catch@PLT
 642      00
 643              	.LEHE16:
 644 0422 E90FFDFF 		jmp	.L21
 644      FF
 645              	.L49:
 646 0427 F30F1EFA 		endbr64
  59:testCore.cpp  **** 
 647              		.loc 3 59 2
 648 042b 4889C3   		movq	%rax, %rbx
 649 042e E8000000 		call	__cxa_end_catch@PLT
 649      00
 650 0433 4889D8   		movq	%rbx, %rax
 651 0436 4889C7   		movq	%rax, %rdi
 652              	.LEHB17:
 653 0439 E8000000 		call	_Unwind_Resume@PLT
 653      00
 654              	.LEHE17:
 655              	.L50:
 656 043e F30F1EFA 		endbr64
  62:testCore.cpp  **** 	CHECK_EQUAL(0UL, queue.putIndex);
 657              		.loc 3 62 2 is_stmt 1
 658 0442 4889C7   		movq	%rax, %rdi
 659 0445 E8000000 		call	__cxa_begin_catch@PLT
 659      00
 660              	.LEHB18:
 661 044a E8000000 		call	_ZN8UnitTest11CurrentTest7ResultsEv@PLT
 661      00
  62:testCore.cpp  **** 	CHECK_EQUAL(0UL, queue.putIndex);
 662              		.loc 3 62 2 is_stmt 0 discriminator 3
 663 044f 488B18   		movq	(%rax), %rbx
 664 0452 E8000000 		call	_ZN8UnitTest11CurrentTest7DetailsEv@PLT
 664      00
  62:testCore.cpp  **** 	CHECK_EQUAL(0UL, queue.putIndex);
 665              		.loc 3 62 2 discriminator 11
 666 0457 488B08   		movq	(%rax), %rcx
 667 045a 488D4590 		leaq	-112(%rbp), %rax
 668 045e BA3E0000 		movl	$62, %edx
 668      00
 669 0463 4889CE   		movq	%rcx, %rsi
 670 0466 4889C7   		movq	%rax, %rdi
 671 0469 E8000000 		call	_ZN8UnitTest11TestDetailsC1ERKS0_i@PLT
 671      00
  62:testCore.cpp  **** 	CHECK_EQUAL(0UL, queue.putIndex);
 672              		.loc 3 62 2 discriminator 15
 673 046e 488D4590 		leaq	-112(%rbp), %rax
 674 0472 488D1500 		leaq	.LC4(%rip), %rdx
 674      000000
 675 0479 4889C6   		movq	%rax, %rsi
 676 047c 4889DF   		movq	%rbx, %rdi
 677 047f E8000000 		call	_ZN8UnitTest11TestResults13OnTestFailureERKNS_11TestDetailsEPKc@PLT
 677      00
 678              	.LEHE18:
 679              	.LEHB19:
  62:testCore.cpp  **** 	CHECK_EQUAL(0UL, queue.putIndex);
 680              		.loc 3 62 2 discriminator 17
 681 0484 E8000000 		call	__cxa_end_catch@PLT
 681      00
 682              	.LEHE19:
 683 0489 E9F2FCFF 		jmp	.L24
 683      FF
 684              	.L51:
 685 048e F30F1EFA 		endbr64
  62:testCore.cpp  **** 	CHECK_EQUAL(0UL, queue.putIndex);
 686              		.loc 3 62 2
 687 0492 4889C3   		movq	%rax, %rbx
 688 0495 E8000000 		call	__cxa_end_catch@PLT
 688      00
 689 049a 4889D8   		movq	%rbx, %rax
 690 049d 4889C7   		movq	%rax, %rdi
 691              	.LEHB20:
 692 04a0 E8000000 		call	_Unwind_Resume@PLT
 692      00
 693              	.LEHE20:
 694              	.L52:
 695 04a5 F30F1EFA 		endbr64
  63:testCore.cpp  **** 	CHECK_EQUAL(0UL, queue.takeIndex);
 696              		.loc 3 63 2 is_stmt 1
 697 04a9 4889C7   		movq	%rax, %rdi
 698 04ac E8000000 		call	__cxa_begin_catch@PLT
 698      00
 699              	.LEHB21:
 700 04b1 E8000000 		call	_ZN8UnitTest11CurrentTest7ResultsEv@PLT
 700      00
  63:testCore.cpp  **** 	CHECK_EQUAL(0UL, queue.takeIndex);
 701              		.loc 3 63 2 is_stmt 0 discriminator 3
 702 04b6 488B18   		movq	(%rax), %rbx
 703 04b9 E8000000 		call	_ZN8UnitTest11CurrentTest7DetailsEv@PLT
 703      00
  63:testCore.cpp  **** 	CHECK_EQUAL(0UL, queue.takeIndex);
 704              		.loc 3 63 2 discriminator 11
 705 04be 488B08   		movq	(%rax), %rcx
 706 04c1 488D4590 		leaq	-112(%rbp), %rax
 707 04c5 BA3F0000 		movl	$63, %edx
 707      00
 708 04ca 4889CE   		movq	%rcx, %rsi
 709 04cd 4889C7   		movq	%rax, %rdi
 710 04d0 E8000000 		call	_ZN8UnitTest11TestDetailsC1ERKS0_i@PLT
 710      00
  63:testCore.cpp  **** 	CHECK_EQUAL(0UL, queue.takeIndex);
 711              		.loc 3 63 2 discriminator 15
 712 04d5 488D4590 		leaq	-112(%rbp), %rax
 713 04d9 488D1500 		leaq	.LC5(%rip), %rdx
 713      000000
 714 04e0 4889C6   		movq	%rax, %rsi
 715 04e3 4889DF   		movq	%rbx, %rdi
 716 04e6 E8000000 		call	_ZN8UnitTest11TestResults13OnTestFailureERKNS_11TestDetailsEPKc@PLT
 716      00
 717              	.LEHE21:
 718              	.LEHB22:
  63:testCore.cpp  **** 	CHECK_EQUAL(0UL, queue.takeIndex);
 719              		.loc 3 63 2 discriminator 17
 720 04eb E8000000 		call	__cxa_end_catch@PLT
 720      00
 721              	.LEHE22:
 722 04f0 E9D5FCFF 		jmp	.L27
 722      FF
 723              	.L53:
 724 04f5 F30F1EFA 		endbr64
  63:testCore.cpp  **** 	CHECK_EQUAL(0UL, queue.takeIndex);
 725              		.loc 3 63 2
 726 04f9 4889C3   		movq	%rax, %rbx
 727 04fc E8000000 		call	__cxa_end_catch@PLT
 727      00
 728 0501 4889D8   		movq	%rbx, %rax
 729 0504 4889C7   		movq	%rax, %rdi
 730              	.LEHB23:
 731 0507 E8000000 		call	_Unwind_Resume@PLT
 731      00
 732              	.LEHE23:
 733              	.L54:
 734 050c F30F1EFA 		endbr64
  64:testCore.cpp  **** 	CHECK_EQUAL(0UL, queue.numItems);
 735              		.loc 3 64 2 is_stmt 1
 736 0510 4889C7   		movq	%rax, %rdi
 737 0513 E8000000 		call	__cxa_begin_catch@PLT
 737      00
 738              	.LEHB24:
 739 0518 E8000000 		call	_ZN8UnitTest11CurrentTest7ResultsEv@PLT
 739      00
  64:testCore.cpp  **** 	CHECK_EQUAL(0UL, queue.numItems);
 740              		.loc 3 64 2 is_stmt 0 discriminator 3
 741 051d 488B18   		movq	(%rax), %rbx
 742 0520 E8000000 		call	_ZN8UnitTest11CurrentTest7DetailsEv@PLT
 742      00
  64:testCore.cpp  **** 	CHECK_EQUAL(0UL, queue.numItems);
 743              		.loc 3 64 2 discriminator 11
 744 0525 488B08   		movq	(%rax), %rcx
 745 0528 488D4590 		leaq	-112(%rbp), %rax
 746 052c BA400000 		movl	$64, %edx
 746      00
 747 0531 4889CE   		movq	%rcx, %rsi
 748 0534 4889C7   		movq	%rax, %rdi
 749 0537 E8000000 		call	_ZN8UnitTest11TestDetailsC1ERKS0_i@PLT
 749      00
  64:testCore.cpp  **** 	CHECK_EQUAL(0UL, queue.numItems);
 750              		.loc 3 64 2 discriminator 15
 751 053c 488D4590 		leaq	-112(%rbp), %rax
 752 0540 488D1500 		leaq	.LC6(%rip), %rdx
 752      000000
 753 0547 4889C6   		movq	%rax, %rsi
 754 054a 4889DF   		movq	%rbx, %rdi
 755 054d E8000000 		call	_ZN8UnitTest11TestResults13OnTestFailureERKNS_11TestDetailsEPKc@PLT
 755      00
 756              	.LEHE24:
 757              	.LEHB25:
  64:testCore.cpp  **** 	CHECK_EQUAL(0UL, queue.numItems);
 758              		.loc 3 64 2 discriminator 17
 759 0552 E8000000 		call	__cxa_end_catch@PLT
 759      00
 760              	.LEHE25:
 761 0557 E9B8FCFF 		jmp	.L30
 761      FF
 762              	.L55:
 763 055c F30F1EFA 		endbr64
  64:testCore.cpp  **** 	CHECK_EQUAL(0UL, queue.numItems);
 764              		.loc 3 64 2
 765 0560 4889C3   		movq	%rax, %rbx
 766 0563 E8000000 		call	__cxa_end_catch@PLT
 766      00
 767 0568 4889D8   		movq	%rbx, %rax
 768 056b 4889C7   		movq	%rax, %rdi
 769              	.LEHB26:
 770 056e E8000000 		call	_Unwind_Resume@PLT
 770      00
 771              	.LEHE26:
 772              	.L56:
 773 0573 F30F1EFA 		endbr64
  65:testCore.cpp  **** 
 774              		.loc 3 65 2 is_stmt 1
 775 0577 4889C7   		movq	%rax, %rdi
 776 057a E8000000 		call	__cxa_begin_catch@PLT
 776      00
 777              	.LEHB27:
 778 057f E8000000 		call	_ZN8UnitTest11CurrentTest7ResultsEv@PLT
 778      00
  65:testCore.cpp  **** 
 779              		.loc 3 65 2 is_stmt 0 discriminator 3
 780 0584 488B18   		movq	(%rax), %rbx
 781 0587 E8000000 		call	_ZN8UnitTest11CurrentTest7DetailsEv@PLT
 781      00
  65:testCore.cpp  **** 
 782              		.loc 3 65 2 discriminator 11
 783 058c 488B08   		movq	(%rax), %rcx
 784 058f 488D4590 		leaq	-112(%rbp), %rax
 785 0593 BA410000 		movl	$65, %edx
 785      00
 786 0598 4889CE   		movq	%rcx, %rsi
 787 059b 4889C7   		movq	%rax, %rdi
 788 059e E8000000 		call	_ZN8UnitTest11TestDetailsC1ERKS0_i@PLT
 788      00
  65:testCore.cpp  **** 
 789              		.loc 3 65 2 discriminator 15
 790 05a3 488D4590 		leaq	-112(%rbp), %rax
 791 05a7 488D1500 		leaq	.LC7(%rip), %rdx
 791      000000
 792 05ae 4889C6   		movq	%rax, %rsi
 793 05b1 4889DF   		movq	%rbx, %rdi
 794 05b4 E8000000 		call	_ZN8UnitTest11TestResults13OnTestFailureERKNS_11TestDetailsEPKc@PLT
 794      00
 795              	.LEHE27:
 796              	.LEHB28:
  65:testCore.cpp  **** 
 797              		.loc 3 65 2 discriminator 17
 798 05b9 E8000000 		call	__cxa_end_catch@PLT
 798      00
 799              	.LEHE28:
 800 05be E99BFCFF 		jmp	.L33
 800      FF
 801              	.L57:
 802 05c3 F30F1EFA 		endbr64
  65:testCore.cpp  **** 
 803              		.loc 3 65 2
 804 05c7 4889C3   		movq	%rax, %rbx
 805 05ca E8000000 		call	__cxa_end_catch@PLT
 805      00
 806 05cf 4889D8   		movq	%rbx, %rax
 807 05d2 4889C7   		movq	%rax, %rdi
 808              	.LEHB29:
 809 05d5 E8000000 		call	_Unwind_Resume@PLT
 809      00
 810              	.LEHE29:
 811              	.L58:
 812 05da F30F1EFA 		endbr64
  68:testCore.cpp  **** 	CHECK_EQUAL(2UL, deref(queue.itemArray[1]));
 813              		.loc 3 68 2 is_stmt 1
 814 05de 4889C7   		movq	%rax, %rdi
 815 05e1 E8000000 		call	__cxa_begin_catch@PLT
 815      00
 816              	.LEHB30:
 817 05e6 E8000000 		call	_ZN8UnitTest11CurrentTest7ResultsEv@PLT
 817      00
  68:testCore.cpp  **** 	CHECK_EQUAL(2UL, deref(queue.itemArray[1]));
 818              		.loc 3 68 2 is_stmt 0 discriminator 3
 819 05eb 488B18   		movq	(%rax), %rbx
 820 05ee E8000000 		call	_ZN8UnitTest11CurrentTest7DetailsEv@PLT
 820      00
  68:testCore.cpp  **** 	CHECK_EQUAL(2UL, deref(queue.itemArray[1]));
 821              		.loc 3 68 2 discriminator 11
 822 05f3 488B08   		movq	(%rax), %rcx
 823 05f6 488D4590 		leaq	-112(%rbp), %rax
 824 05fa BA440000 		movl	$68, %edx
 824      00
 825 05ff 4889CE   		movq	%rcx, %rsi
 826 0602 4889C7   		movq	%rax, %rdi
 827 0605 E8000000 		call	_ZN8UnitTest11TestDetailsC1ERKS0_i@PLT
 827      00
  68:testCore.cpp  **** 	CHECK_EQUAL(2UL, deref(queue.itemArray[1]));
 828              		.loc 3 68 2 discriminator 15
 829 060a 488D4590 		leaq	-112(%rbp), %rax
 830 060e 488D1500 		leaq	.LC8(%rip), %rdx
 830      000000
 831 0615 4889C6   		movq	%rax, %rsi
 832 0618 4889DF   		movq	%rbx, %rdi
 833 061b E8000000 		call	_ZN8UnitTest11TestResults13OnTestFailureERKNS_11TestDetailsEPKc@PLT
 833      00
 834              	.LEHE30:
 835              	.LEHB31:
  68:testCore.cpp  **** 	CHECK_EQUAL(2UL, deref(queue.itemArray[1]));
 836              		.loc 3 68 2 discriminator 17
 837 0620 E8000000 		call	__cxa_end_catch@PLT
 837      00
 838              	.LEHE31:
 839 0625 E986FCFF 		jmp	.L36
 839      FF
 840              	.L59:
 841 062a F30F1EFA 		endbr64
  68:testCore.cpp  **** 	CHECK_EQUAL(2UL, deref(queue.itemArray[1]));
 842              		.loc 3 68 2
 843 062e 4889C3   		movq	%rax, %rbx
 844 0631 E8000000 		call	__cxa_end_catch@PLT
 844      00
 845 0636 4889D8   		movq	%rbx, %rax
 846 0639 4889C7   		movq	%rax, %rdi
 847              	.LEHB32:
 848 063c E8000000 		call	_Unwind_Resume@PLT
 848      00
 849              	.LEHE32:
 850              	.L60:
 851 0641 F30F1EFA 		endbr64
  69:testCore.cpp  **** 	CHECK_EQUAL(3UL, deref(queue.itemArray[2]));
 852              		.loc 3 69 2 is_stmt 1
 853 0645 4889C7   		movq	%rax, %rdi
 854 0648 E8000000 		call	__cxa_begin_catch@PLT
 854      00
 855              	.LEHB33:
 856 064d E8000000 		call	_ZN8UnitTest11CurrentTest7ResultsEv@PLT
 856      00
  69:testCore.cpp  **** 	CHECK_EQUAL(3UL, deref(queue.itemArray[2]));
 857              		.loc 3 69 2 is_stmt 0 discriminator 3
 858 0652 488B18   		movq	(%rax), %rbx
 859 0655 E8000000 		call	_ZN8UnitTest11CurrentTest7DetailsEv@PLT
 859      00
  69:testCore.cpp  **** 	CHECK_EQUAL(3UL, deref(queue.itemArray[2]));
 860              		.loc 3 69 2 discriminator 11
 861 065a 488B08   		movq	(%rax), %rcx
 862 065d 488D4590 		leaq	-112(%rbp), %rax
 863 0661 BA450000 		movl	$69, %edx
 863      00
 864 0666 4889CE   		movq	%rcx, %rsi
 865 0669 4889C7   		movq	%rax, %rdi
 866 066c E8000000 		call	_ZN8UnitTest11TestDetailsC1ERKS0_i@PLT
 866      00
  69:testCore.cpp  **** 	CHECK_EQUAL(3UL, deref(queue.itemArray[2]));
 867              		.loc 3 69 2 discriminator 15
 868 0671 488D4590 		leaq	-112(%rbp), %rax
 869 0675 488D1500 		leaq	.LC9(%rip), %rdx
 869      000000
 870 067c 4889C6   		movq	%rax, %rsi
 871 067f 4889DF   		movq	%rbx, %rdi
 872 0682 E8000000 		call	_ZN8UnitTest11TestResults13OnTestFailureERKNS_11TestDetailsEPKc@PLT
 872      00
 873              	.LEHE33:
 874              	.LEHB34:
  69:testCore.cpp  **** 	CHECK_EQUAL(3UL, deref(queue.itemArray[2]));
 875              		.loc 3 69 2 discriminator 17
 876 0687 E8000000 		call	__cxa_end_catch@PLT
 876      00
 877              	.LEHE34:
 878 068c E975FCFF 		jmp	.L39
 878      FF
 879              	.L61:
 880 0691 F30F1EFA 		endbr64
  69:testCore.cpp  **** 	CHECK_EQUAL(3UL, deref(queue.itemArray[2]));
 881              		.loc 3 69 2
 882 0695 4889C3   		movq	%rax, %rbx
 883 0698 E8000000 		call	__cxa_end_catch@PLT
 883      00
 884 069d 4889D8   		movq	%rbx, %rax
 885 06a0 4889C7   		movq	%rax, %rdi
 886              	.LEHB35:
 887 06a3 E8000000 		call	_Unwind_Resume@PLT
 887      00
 888              	.LEHE35:
 889              	.L62:
 890 06a8 F30F1EFA 		endbr64
  70:testCore.cpp  **** 	CHECK_EQUAL(4UL, deref(queue.itemArray[3]));
 891              		.loc 3 70 2 is_stmt 1
 892 06ac 4889C7   		movq	%rax, %rdi
 893 06af E8000000 		call	__cxa_begin_catch@PLT
 893      00
 894              	.LEHB36:
 895 06b4 E8000000 		call	_ZN8UnitTest11CurrentTest7ResultsEv@PLT
 895      00
  70:testCore.cpp  **** 	CHECK_EQUAL(4UL, deref(queue.itemArray[3]));
 896              		.loc 3 70 2 is_stmt 0 discriminator 3
 897 06b9 488B18   		movq	(%rax), %rbx
 898 06bc E8000000 		call	_ZN8UnitTest11CurrentTest7DetailsEv@PLT
 898      00
  70:testCore.cpp  **** 	CHECK_EQUAL(4UL, deref(queue.itemArray[3]));
 899              		.loc 3 70 2 discriminator 11
 900 06c1 488B08   		movq	(%rax), %rcx
 901 06c4 488D4590 		leaq	-112(%rbp), %rax
 902 06c8 BA460000 		movl	$70, %edx
 902      00
 903 06cd 4889CE   		movq	%rcx, %rsi
 904 06d0 4889C7   		movq	%rax, %rdi
 905 06d3 E8000000 		call	_ZN8UnitTest11TestDetailsC1ERKS0_i@PLT
 905      00
  70:testCore.cpp  **** 	CHECK_EQUAL(4UL, deref(queue.itemArray[3]));
 906              		.loc 3 70 2 discriminator 15
 907 06d8 488D4590 		leaq	-112(%rbp), %rax
 908 06dc 488D1500 		leaq	.LC10(%rip), %rdx
 908      000000
 909 06e3 4889C6   		movq	%rax, %rsi
 910 06e6 4889DF   		movq	%rbx, %rdi
 911 06e9 E8000000 		call	_ZN8UnitTest11TestResults13OnTestFailureERKNS_11TestDetailsEPKc@PLT
 911      00
 912              	.LEHE36:
 913              	.LEHB37:
  70:testCore.cpp  **** 	CHECK_EQUAL(4UL, deref(queue.itemArray[3]));
 914              		.loc 3 70 2 discriminator 17
 915 06ee E8000000 		call	__cxa_end_catch@PLT
 915      00
 916              	.LEHE37:
 917 06f3 E964FCFF 		jmp	.L42
 917      FF
 918              	.L63:
 919 06f8 F30F1EFA 		endbr64
  70:testCore.cpp  **** 	CHECK_EQUAL(4UL, deref(queue.itemArray[3]));
 920              		.loc 3 70 2
 921 06fc 4889C3   		movq	%rax, %rbx
 922 06ff E8000000 		call	__cxa_end_catch@PLT
 922      00
 923 0704 4889D8   		movq	%rbx, %rax
 924 0707 4889C7   		movq	%rax, %rdi
 925              	.LEHB38:
 926 070a E8000000 		call	_Unwind_Resume@PLT
 926      00
 927              	.LEHE38:
 928              	.L64:
 929 070f F30F1EFA 		endbr64
  71:testCore.cpp  **** 
 930              		.loc 3 71 2 is_stmt 1
 931 0713 4889C7   		movq	%rax, %rdi
 932 0716 E8000000 		call	__cxa_begin_catch@PLT
 932      00
 933              	.LEHB39:
 934 071b E8000000 		call	_ZN8UnitTest11CurrentTest7ResultsEv@PLT
 934      00
  71:testCore.cpp  **** 
 935              		.loc 3 71 2 is_stmt 0 discriminator 3
 936 0720 488B18   		movq	(%rax), %rbx
 937 0723 E8000000 		call	_ZN8UnitTest11CurrentTest7DetailsEv@PLT
 937      00
  71:testCore.cpp  **** 
 938              		.loc 3 71 2 discriminator 11
 939 0728 488B08   		movq	(%rax), %rcx
 940 072b 488D4590 		leaq	-112(%rbp), %rax
 941 072f BA470000 		movl	$71, %edx
 941      00
 942 0734 4889CE   		movq	%rcx, %rsi
 943 0737 4889C7   		movq	%rax, %rdi
 944 073a E8000000 		call	_ZN8UnitTest11TestDetailsC1ERKS0_i@PLT
 944      00
  71:testCore.cpp  **** 
 945              		.loc 3 71 2 discriminator 15
 946 073f 488D4590 		leaq	-112(%rbp), %rax
 947 0743 488D1500 		leaq	.LC11(%rip), %rdx
 947      000000
 948 074a 4889C6   		movq	%rax, %rsi
 949 074d 4889DF   		movq	%rbx, %rdi
 950 0750 E8000000 		call	_ZN8UnitTest11TestResults13OnTestFailureERKNS_11TestDetailsEPKc@PLT
 950      00
 951              	.LEHE39:
 952              	.LEHB40:
  71:testCore.cpp  **** 
 953              		.loc 3 71 2 discriminator 17
 954 0755 E8000000 		call	__cxa_end_catch@PLT
 954      00
 955              	.LEHE40:
 956 075a E953FCFF 		jmp	.L45
 956      FF
 957              	.L65:
 958 075f F30F1EFA 		endbr64
  71:testCore.cpp  **** 
 959              		.loc 3 71 2
 960 0763 4889C3   		movq	%rax, %rbx
 961 0766 E8000000 		call	__cxa_end_catch@PLT
 961      00
 962 076b 4889D8   		movq	%rbx, %rax
 963 076e 4889C7   		movq	%rax, %rdi
 964              	.LEHB41:
 965 0771 E8000000 		call	_Unwind_Resume@PLT
 965      00
 966              	.LEHE41:
 967              	.L66:
 968              		.loc 3 75 1 is_stmt 1
 969 0776 E8000000 		call	__stack_chk_fail@PLT
 969      00
 970              	.L47:
 971 077b 488B5DF8 		movq	-8(%rbp), %rbx
 972 077f C9       		leave
 973              		.cfi_def_cfa 7, 8
 974 0780 C3       		ret
 975              		.cfi_endproc
 976              	.LFE1165:
 977              		.section	.gcc_except_table,"a",@progbits
 978              		.align 4
 979              	.LLSDA1165:
 980 0000 FF       		.byte	0xff
 981 0001 9B       		.byte	0x9b
 982 0002 D801     		.uleb128 .LLSDATT1165-.LLSDATTD1165
 983              	.LLSDATTD1165:
 984 0004 01       		.byte	0x1
 985 0005 CE01     		.uleb128 .LLSDACSE1165-.LLSDACSB1165
 986              	.LLSDACSB1165:
 987 0007 4D       		.uleb128 .LEHB4-.LFB1165
 988 0008 05       		.uleb128 .LEHE4-.LEHB4
 989 0009 00       		.uleb128 0
 990 000a 00       		.uleb128 0
 991 000b 55       		.uleb128 .LEHB5-.LFB1165
 992 000c 3F       		.uleb128 .LEHE5-.LEHB5
 993 000d B506     		.uleb128 .L48-.LFB1165
 994 000f 01       		.uleb128 0x1
 995 0010 9401     		.uleb128 .LEHB6-.LFB1165
 996 0012 4A       		.uleb128 .LEHE6-.LEHB6
 997 0013 9C07     		.uleb128 .L50-.LFB1165
 998 0015 01       		.uleb128 0x1
 999 0016 DE01     		.uleb128 .LEHB7-.LFB1165
 1000 0018 4A       		.uleb128 .LEHE7-.LEHB7
 1001 0019 8308     		.uleb128 .L52-.LFB1165
 1002 001b 01       		.uleb128 0x1
 1003 001c A802     		.uleb128 .LEHB8-.LFB1165
 1004 001e 4A       		.uleb128 .LEHE8-.LEHB8
 1005 001f EA08     		.uleb128 .L54-.LFB1165
 1006 0021 01       		.uleb128 0x1
 1007 0022 F202     		.uleb128 .LEHB9-.LFB1165
 1008 0024 4A       		.uleb128 .LEHE9-.LEHB9
 1009 0025 D109     		.uleb128 .L56-.LFB1165
 1010 0027 01       		.uleb128 0x1
 1011 0028 BC03     		.uleb128 .LEHB10-.LFB1165
 1012 002a 52       		.uleb128 .LEHE10-.LEHB10
 1013 002b B80A     		.uleb128 .L58-.LFB1165
 1014 002d 01       		.uleb128 0x1
 1015 002e 8E04     		.uleb128 .LEHB11-.LFB1165
 1016 0030 56       		.uleb128 .LEHE11-.LEHB11
 1017 0031 9F0B     		.uleb128 .L60-.LFB1165
 1018 0033 01       		.uleb128 0x1
 1019 0034 E404     		.uleb128 .LEHB12-.LFB1165
 1020 0036 56       		.uleb128 .LEHE12-.LEHB12
 1021 0037 860C     		.uleb128 .L62-.LFB1165
 1022 0039 01       		.uleb128 0x1
 1023 003a BA05     		.uleb128 .LEHB13-.LFB1165
 1024 003c 56       		.uleb128 .LEHE13-.LEHB13
 1025 003d ED0C     		.uleb128 .L64-.LFB1165
 1026 003f 01       		.uleb128 0x1
 1027 0040 9706     		.uleb128 .LEHB14-.LFB1165
 1028 0042 05       		.uleb128 .LEHE14-.LEHB14
 1029 0043 00       		.uleb128 0
 1030 0044 00       		.uleb128 0
 1031 0045 C106     		.uleb128 .LEHB15-.LFB1165
 1032 0047 3A       		.uleb128 .LEHE15-.LEHB15
 1033 0048 8507     		.uleb128 .L49-.LFB1165
 1034 004a 00       		.uleb128 0
 1035 004b FB06     		.uleb128 .LEHB16-.LFB1165
 1036 004d 05       		.uleb128 .LEHE16-.LEHB16
 1037 004e 00       		.uleb128 0
 1038 004f 00       		.uleb128 0
 1039 0050 9707     		.uleb128 .LEHB17-.LFB1165
 1040 0052 05       		.uleb128 .LEHE17-.LEHB17
 1041 0053 00       		.uleb128 0
 1042 0054 00       		.uleb128 0
 1043 0055 A807     		.uleb128 .LEHB18-.LFB1165
 1044 0057 3A       		.uleb128 .LEHE18-.LEHB18
 1045 0058 EC07     		.uleb128 .L51-.LFB1165
 1046 005a 00       		.uleb128 0
 1047 005b E207     		.uleb128 .LEHB19-.LFB1165
 1048 005d 05       		.uleb128 .LEHE19-.LEHB19
 1049 005e 00       		.uleb128 0
 1050 005f 00       		.uleb128 0
 1051 0060 FE07     		.uleb128 .LEHB20-.LFB1165
 1052 0062 05       		.uleb128 .LEHE20-.LEHB20
 1053 0063 00       		.uleb128 0
 1054 0064 00       		.uleb128 0
 1055 0065 8F08     		.uleb128 .LEHB21-.LFB1165
 1056 0067 3A       		.uleb128 .LEHE21-.LEHB21
 1057 0068 D308     		.uleb128 .L53-.LFB1165
 1058 006a 00       		.uleb128 0
 1059 006b C908     		.uleb128 .LEHB22-.LFB1165
 1060 006d 05       		.uleb128 .LEHE22-.LEHB22
 1061 006e 00       		.uleb128 0
 1062 006f 00       		.uleb128 0
 1063 0070 E508     		.uleb128 .LEHB23-.LFB1165
 1064 0072 05       		.uleb128 .LEHE23-.LEHB23
 1065 0073 00       		.uleb128 0
 1066 0074 00       		.uleb128 0
 1067 0075 F608     		.uleb128 .LEHB24-.LFB1165
 1068 0077 3A       		.uleb128 .LEHE24-.LEHB24
 1069 0078 BA09     		.uleb128 .L55-.LFB1165
 1070 007a 00       		.uleb128 0
 1071 007b B009     		.uleb128 .LEHB25-.LFB1165
 1072 007d 05       		.uleb128 .LEHE25-.LEHB25
 1073 007e 00       		.uleb128 0
 1074 007f 00       		.uleb128 0
 1075 0080 CC09     		.uleb128 .LEHB26-.LFB1165
 1076 0082 05       		.uleb128 .LEHE26-.LEHB26
 1077 0083 00       		.uleb128 0
 1078 0084 00       		.uleb128 0
 1079 0085 DD09     		.uleb128 .LEHB27-.LFB1165
 1080 0087 3A       		.uleb128 .LEHE27-.LEHB27
 1081 0088 A10A     		.uleb128 .L57-.LFB1165
 1082 008a 00       		.uleb128 0
 1083 008b 970A     		.uleb128 .LEHB28-.LFB1165
 1084 008d 05       		.uleb128 .LEHE28-.LEHB28
 1085 008e 00       		.uleb128 0
 1086 008f 00       		.uleb128 0
 1087 0090 B30A     		.uleb128 .LEHB29-.LFB1165
 1088 0092 05       		.uleb128 .LEHE29-.LEHB29
 1089 0093 00       		.uleb128 0
 1090 0094 00       		.uleb128 0
 1091 0095 C40A     		.uleb128 .LEHB30-.LFB1165
 1092 0097 3A       		.uleb128 .LEHE30-.LEHB30
 1093 0098 880B     		.uleb128 .L59-.LFB1165
 1094 009a 00       		.uleb128 0
 1095 009b FE0A     		.uleb128 .LEHB31-.LFB1165
 1096 009d 05       		.uleb128 .LEHE31-.LEHB31
 1097 009e 00       		.uleb128 0
 1098 009f 00       		.uleb128 0
 1099 00a0 9A0B     		.uleb128 .LEHB32-.LFB1165
 1100 00a2 05       		.uleb128 .LEHE32-.LEHB32
 1101 00a3 00       		.uleb128 0
 1102 00a4 00       		.uleb128 0
 1103 00a5 AB0B     		.uleb128 .LEHB33-.LFB1165
 1104 00a7 3A       		.uleb128 .LEHE33-.LEHB33
 1105 00a8 EF0B     		.uleb128 .L61-.LFB1165
 1106 00aa 00       		.uleb128 0
 1107 00ab E50B     		.uleb128 .LEHB34-.LFB1165
 1108 00ad 05       		.uleb128 .LEHE34-.LEHB34
 1109 00ae 00       		.uleb128 0
 1110 00af 00       		.uleb128 0
 1111 00b0 810C     		.uleb128 .LEHB35-.LFB1165
 1112 00b2 05       		.uleb128 .LEHE35-.LEHB35
 1113 00b3 00       		.uleb128 0
 1114 00b4 00       		.uleb128 0
 1115 00b5 920C     		.uleb128 .LEHB36-.LFB1165
 1116 00b7 3A       		.uleb128 .LEHE36-.LEHB36
 1117 00b8 D60C     		.uleb128 .L63-.LFB1165
 1118 00ba 00       		.uleb128 0
 1119 00bb CC0C     		.uleb128 .LEHB37-.LFB1165
 1120 00bd 05       		.uleb128 .LEHE37-.LEHB37
 1121 00be 00       		.uleb128 0
 1122 00bf 00       		.uleb128 0
 1123 00c0 E80C     		.uleb128 .LEHB38-.LFB1165
 1124 00c2 05       		.uleb128 .LEHE38-.LEHB38
 1125 00c3 00       		.uleb128 0
 1126 00c4 00       		.uleb128 0
 1127 00c5 F90C     		.uleb128 .LEHB39-.LFB1165
 1128 00c7 3A       		.uleb128 .LEHE39-.LEHB39
 1129 00c8 BD0D     		.uleb128 .L65-.LFB1165
 1130 00ca 00       		.uleb128 0
 1131 00cb B30D     		.uleb128 .LEHB40-.LFB1165
 1132 00cd 05       		.uleb128 .LEHE40-.LEHB40
 1133 00ce 00       		.uleb128 0
 1134 00cf 00       		.uleb128 0
 1135 00d0 CF0D     		.uleb128 .LEHB41-.LFB1165
 1136 00d2 05       		.uleb128 .LEHE41-.LEHB41
 1137 00d3 00       		.uleb128 0
 1138 00d4 00       		.uleb128 0
 1139              	.LLSDACSE1165:
 1140 00d5 01       		.byte	0x1
 1141 00d6 00       		.byte	0
 1142 00d7 00       		.align 4
 1143 00d8 00000000 		.long	0
 1144              	
 1145              	.LLSDATT1165:
 1146              		.text
 1148              		.section	.rodata
 1149              	.LC12:
 1150 026b 51756575 		.string	"Queue_testPutNoWrap"
 1150      655F7465 
 1150      73745075 
 1150      744E6F57 
 1150      72617000 
 1151              		.section	.text._ZN23TestQueue_testPutNoWrapC2Ev,"axG",@progbits,_ZN23TestQueue_testPutNoWrapC5Ev,c
 1152              		.align 2
 1153              		.weak	_ZN23TestQueue_testPutNoWrapC2Ev
 1155              	_ZN23TestQueue_testPutNoWrapC2Ev:
 1156              	.LFB1167:
  76:testCore.cpp  **** 
  77:testCore.cpp  **** TEST(Queue_testPutNoWrap) {
 1157              		.loc 3 77 1
 1158              		.cfi_startproc
 1159 0000 F30F1EFA 		endbr64
 1160 0004 55       		pushq	%rbp
 1161              		.cfi_def_cfa_offset 16
 1162              		.cfi_offset 6, -16
 1163 0005 4889E5   		movq	%rsp, %rbp
 1164              		.cfi_def_cfa_register 6
 1165 0008 53       		pushq	%rbx
 1166 0009 4883EC18 		subq	$24, %rsp
 1167              		.cfi_offset 3, -24
 1168 000d 48897DE8 		movq	%rdi, -24(%rbp)
 1169              	.LBB5:
 1170              		.loc 3 77 1
 1171 0011 488B5DE8 		movq	-24(%rbp), %rbx
 1172 0015 E8000000 		call	_ZN13UnitTestSuite12GetSuiteNameEv
 1172      00
 1173 001a 4889C2   		movq	%rax, %rdx
 1174 001d 41B84D00 		movl	$77, %r8d
 1174      0000
 1175 0023 488D0500 		leaq	.LC1(%rip), %rax
 1175      000000
 1176 002a 4889C1   		movq	%rax, %rcx
 1177 002d 488D0500 		leaq	.LC12(%rip), %rax
 1177      000000
 1178 0034 4889C6   		movq	%rax, %rsi
 1179 0037 4889DF   		movq	%rbx, %rdi
 1180 003a E8000000 		call	_ZN8UnitTest4TestC2EPKcS2_S2_i@PLT
 1180      00
 1181 003f 488D1500 		leaq	16+_ZTV23TestQueue_testPutNoWrap(%rip), %rdx
 1181      000000
 1182 0046 488B45E8 		movq	-24(%rbp), %rax
 1183 004a 488910   		movq	%rdx, (%rax)
 1184              	.LBE5:
 1185 004d 90       		nop
 1186 004e 488B5DF8 		movq	-8(%rbp), %rbx
 1187 0052 C9       		leave
 1188              		.cfi_def_cfa 7, 8
 1189 0053 C3       		ret
 1190              		.cfi_endproc
 1191              	.LFE1167:
 1193              		.weak	_ZN23TestQueue_testPutNoWrapC1Ev
 1194              		.set	_ZN23TestQueue_testPutNoWrapC1Ev,_ZN23TestQueue_testPutNoWrapC2Ev
 1195              		.globl	testQueue_testPutNoWrapInstance
 1196              		.bss
 1197 0039 00000000 		.align 32
 1197      000000
 1200              	testQueue_testPutNoWrapInstance:
 1201 0040 00000000 		.zero	56
 1201      00000000 
 1201      00000000 
 1201      00000000 
 1201      00000000 
 1202              		.globl	adderQueue_testPutNoWrap
 1205              	adderQueue_testPutNoWrap:
 1206 0078 00       		.zero	1
 1207              		.section	.rodata
 1208 027f 00       		.align 8
 1209              	.LC13:
 1210 0280 556E6861 		.string	"Unhandled exception in CHECK_EQUAL(1UL, *item)"
 1210      6E646C65 
 1210      64206578 
 1210      63657074 
 1210      696F6E20 
 1211 02af 00       		.align 8
 1212              	.LC14:
 1213 02b0 556E6861 		.string	"Unhandled exception in CHECK_EQUAL(2UL, *item)"
 1213      6E646C65 
 1213      64206578 
 1213      63657074 
 1213      696F6E20 
 1214 02df 00       		.align 8
 1215              	.LC15:
 1216 02e0 556E6861 		.string	"Unhandled exception in CHECK_EQUAL(3UL, *item)"
 1216      6E646C65 
 1216      64206578 
 1216      63657074 
 1216      696F6E20 
 1217 030f 00       		.align 8
 1218              	.LC16:
 1219 0310 556E6861 		.string	"Unhandled exception in CHECK_EQUAL(3UL, queue.putIndex)"
 1219      6E646C65 
 1219      64206578 
 1219      63657074 
 1219      696F6E20 
 1220              		.align 8
 1221              	.LC17:
 1222 0348 556E6861 		.string	"Unhandled exception in CHECK_EQUAL(3UL, queue.numItems)"
 1222      6E646C65 
 1222      64206578 
 1222      63657074 
 1222      696F6E20 
 1223              		.align 8
 1224              	.LC18:
 1225 0380 556E6861 		.string	"Unhandled exception in CHECK_EQUAL(5UL, deref(queue.itemArray[0]))"
 1225      6E646C65 
 1225      64206578 
 1225      63657074 
 1225      696F6E20 
 1226 03c3 00000000 		.align 8
 1226      00
 1227              	.LC19:
 1228 03c8 556E6861 		.string	"Unhandled exception in CHECK_EQUAL(6UL, deref(queue.itemArray[1]))"
 1228      6E646C65 
 1228      64206578 
 1228      63657074 
 1228      696F6E20 
 1229 040b 00000000 		.align 8
 1229      00
 1230              	.LC20:
 1231 0410 556E6861 		.string	"Unhandled exception in CHECK_EQUAL(7UL, deref(queue.itemArray[2]))"
 1231      6E646C65 
 1231      64206578 
 1231      63657074 
 1231      696F6E20 
 1232              		.text
 1233 0781 90       		.align 2
 1234              		.globl	_ZNK23TestQueue_testPutNoWrap7RunImplEv
 1236              	_ZNK23TestQueue_testPutNoWrap7RunImplEv:
 1237              	.LFB1169:
 1238              		.loc 3 77 27
 1239              		.cfi_startproc
 1240              		.cfi_personality 0x9b,DW.ref.__gxx_personality_v0
 1241              		.cfi_lsda 0x1b,.LLSDA1169
 1242 0782 F30F1EFA 		endbr64
 1243 0786 55       		pushq	%rbp
 1244              		.cfi_def_cfa_offset 16
 1245              		.cfi_offset 6, -16
 1246 0787 4889E5   		movq	%rsp, %rbp
 1247              		.cfi_def_cfa_register 6
 1248 078a 53       		pushq	%rbx
 1249 078b 4881EC98 		subq	$152, %rsp
 1249      000000
 1250              		.cfi_offset 3, -24
 1251 0792 4889BD68 		movq	%rdi, -152(%rbp)
 1251      FFFFFF
 1252              		.loc 3 77 27
 1253 0799 64488B04 		movq	%fs:40, %rax
 1253      25280000 
 1253      00
 1254 07a2 488945E8 		movq	%rax, -24(%rbp)
 1255 07a6 31C0     		xorl	%eax, %eax
  78:testCore.cpp  **** 	struct UnboundedQueue queue;
  79:testCore.cpp  **** 	uint32 *item;
  80:testCore.cpp  **** 	m_count = 1;
 1256              		.loc 3 80 10
 1257 07a8 C7050000 		movl	$1, _ZL7m_count(%rip)
 1257      00000100 
 1257      0000
  81:testCore.cpp  **** 
  82:testCore.cpp  **** 	// Create queue
  83:testCore.cpp  **** 	USBStatus status = queueInit(&queue, 4, (CreateFunc)createInt, (DestroyFunc)destroyInt);
 1258              		.loc 3 83 30
 1259 07b2 488D45B0 		leaq	-80(%rbp), %rax
 1260 07b6 488D1500 		leaq	destroyInt(%rip), %rdx
 1260      000000
 1261 07bd 4889D1   		movq	%rdx, %rcx
 1262 07c0 488D1500 		leaq	createInt(%rip), %rdx
 1262      000000
 1263 07c7 BE040000 		movl	$4, %esi
 1263      00
 1264 07cc 4889C7   		movq	%rax, %rdi
 1265              	.LEHB42:
 1266 07cf E8000000 		call	queueInit@PLT
 1266      00
 1267              	.LEHE42:
 1268              		.loc 3 83 88
 1269 07d4 898578FF 		movl	%eax, -136(%rbp)
 1269      FFFF
 1270              	.LEHB43:
  84:testCore.cpp  **** 	CHECK_EQUAL(USB_SUCCESS, status);
 1271              		.loc 3 84 2
 1272 07da E8000000 		call	_ZN8UnitTest11CurrentTest7DetailsEv@PLT
 1272      00
 1273 07df 488B08   		movq	(%rax), %rcx
 1274 07e2 488D4590 		leaq	-112(%rbp), %rax
 1275 07e6 BA540000 		movl	$84, %edx
 1275      00
 1276 07eb 4889CE   		movq	%rcx, %rsi
 1277 07ee 4889C7   		movq	%rax, %rdi
 1278 07f1 E8000000 		call	_ZN8UnitTest11TestDetailsC1ERKS0_i@PLT
 1278      00
 1279              		.loc 3 84 2 is_stmt 0 discriminator 4
 1280 07f6 C7458800 		movl	$0, -120(%rbp)
 1280      000000
 1281 07fd E8000000 		call	_ZN8UnitTest11CurrentTest7ResultsEv@PLT
 1281      00
 1282 0802 488B00   		movq	(%rax), %rax
 1283 0805 488D4D90 		leaq	-112(%rbp), %rcx
 1284 0809 488D9578 		leaq	-136(%rbp), %rdx
 1284      FFFFFF
 1285 0810 488D7588 		leaq	-120(%rbp), %rsi
 1286 0814 4889C7   		movq	%rax, %rdi
 1287 0817 E8000000 		call	_ZN8UnitTest10CheckEqualI9USBStatusS1_EEvRNS_11TestResultsERKT_RKT0_RKNS_11TestDetailsE
 1287      00
 1288              	.LEHE43:
 1289              	.L70:
  85:testCore.cpp  **** 
  86:testCore.cpp  **** 	// Put three items into the queue
  87:testCore.cpp  **** 	status = queuePut(&queue, (Item*)&item);
 1290              		.loc 3 87 19 is_stmt 1
 1291 081c 488D5580 		leaq	-128(%rbp), %rdx
 1292 0820 488D45B0 		leaq	-80(%rbp), %rax
 1293 0824 4889D6   		movq	%rdx, %rsi
 1294 0827 4889C7   		movq	%rax, %rdi
 1295              	.LEHB44:
 1296 082a E8000000 		call	queuePut@PLT
 1296      00
 1297              	.LEHE44:
 1298              		.loc 3 87 9
 1299 082f 898578FF 		movl	%eax, -136(%rbp)
 1299      FFFF
 1300              	.LEHB45:
  88:testCore.cpp  **** 	CHECK_EQUAL(USB_SUCCESS, status);
 1301              		.loc 3 88 2
 1302 0835 E8000000 		call	_ZN8UnitTest11CurrentTest7DetailsEv@PLT
 1302      00
 1303 083a 488B08   		movq	(%rax), %rcx
 1304 083d 488D4590 		leaq	-112(%rbp), %rax
 1305 0841 BA580000 		movl	$88, %edx
 1305      00
 1306 0846 4889CE   		movq	%rcx, %rsi
 1307 0849 4889C7   		movq	%rax, %rdi
 1308 084c E8000000 		call	_ZN8UnitTest11TestDetailsC1ERKS0_i@PLT
 1308      00
 1309              		.loc 3 88 2 is_stmt 0 discriminator 4
 1310 0851 C7458800 		movl	$0, -120(%rbp)
 1310      000000
 1311 0858 E8000000 		call	_ZN8UnitTest11CurrentTest7ResultsEv@PLT
 1311      00
 1312 085d 488B00   		movq	(%rax), %rax
 1313 0860 488D4D90 		leaq	-112(%rbp), %rcx
 1314 0864 488D9578 		leaq	-136(%rbp), %rdx
 1314      FFFFFF
 1315 086b 488D7588 		leaq	-120(%rbp), %rsi
 1316 086f 4889C7   		movq	%rax, %rdi
 1317 0872 E8000000 		call	_ZN8UnitTest10CheckEqualI9USBStatusS1_EEvRNS_11TestResultsERKT_RKT0_RKNS_11TestDetailsE
 1317      00
 1318              	.LEHE45:
 1319              	.L73:
 1320              	.LEHB46:
  89:testCore.cpp  **** 	CHECK_EQUAL(1UL, *item);
 1321              		.loc 3 89 2 is_stmt 1
 1322 0877 E8000000 		call	_ZN8UnitTest11CurrentTest7DetailsEv@PLT
 1322      00
 1323 087c 488B08   		movq	(%rax), %rcx
 1324 087f 488D4590 		leaq	-112(%rbp), %rax
 1325 0883 BA590000 		movl	$89, %edx
 1325      00
 1326 0888 4889CE   		movq	%rcx, %rsi
 1327 088b 4889C7   		movq	%rax, %rdi
 1328 088e E8000000 		call	_ZN8UnitTest11TestDetailsC1ERKS0_i@PLT
 1328      00
 1329              		.loc 3 89 2 is_stmt 0 discriminator 4
 1330 0893 488B5D80 		movq	-128(%rbp), %rbx
 1331 0897 48C74588 		movq	$1, -120(%rbp)
 1331      01000000 
 1332 089f E8000000 		call	_ZN8UnitTest11CurrentTest7ResultsEv@PLT
 1332      00
 1333 08a4 488B00   		movq	(%rax), %rax
 1334 08a7 488D5590 		leaq	-112(%rbp), %rdx
 1335 08ab 488D7588 		leaq	-120(%rbp), %rsi
 1336 08af 4889D1   		movq	%rdx, %rcx
 1337 08b2 4889DA   		movq	%rbx, %rdx
 1338 08b5 4889C7   		movq	%rax, %rdi
 1339 08b8 E8000000 		call	_ZN8UnitTest10CheckEqualImjEEvRNS_11TestResultsERKT_RKT0_RKNS_11TestDetailsE
 1339      00
 1340              	.LEHE46:
 1341              	.L76:
  90:testCore.cpp  **** 	*item = 5;
 1342              		.loc 3 90 2 is_stmt 1
 1343 08bd 488B4580 		movq	-128(%rbp), %rax
 1344              		.loc 3 90 8
 1345 08c1 C7000500 		movl	$5, (%rax)
 1345      0000
  91:testCore.cpp  **** 	queueCommitPut(&queue);
 1346              		.loc 3 91 16
 1347 08c7 488D45B0 		leaq	-80(%rbp), %rax
 1348 08cb 4889C7   		movq	%rax, %rdi
 1349              	.LEHB47:
 1350 08ce E8000000 		call	queueCommitPut@PLT
 1350      00
  92:testCore.cpp  **** 	status = queuePut(&queue, (Item*)&item);
 1351              		.loc 3 92 19
 1352 08d3 488D5580 		leaq	-128(%rbp), %rdx
 1353 08d7 488D45B0 		leaq	-80(%rbp), %rax
 1354 08db 4889D6   		movq	%rdx, %rsi
 1355 08de 4889C7   		movq	%rax, %rdi
 1356 08e1 E8000000 		call	queuePut@PLT
 1356      00
 1357              	.LEHE47:
 1358              		.loc 3 92 9
 1359 08e6 898578FF 		movl	%eax, -136(%rbp)
 1359      FFFF
 1360              	.LEHB48:
  93:testCore.cpp  **** 	CHECK_EQUAL(USB_SUCCESS, status);
 1361              		.loc 3 93 2
 1362 08ec E8000000 		call	_ZN8UnitTest11CurrentTest7DetailsEv@PLT
 1362      00
 1363 08f1 488B08   		movq	(%rax), %rcx
 1364 08f4 488D4590 		leaq	-112(%rbp), %rax
 1365 08f8 BA5D0000 		movl	$93, %edx
 1365      00
 1366 08fd 4889CE   		movq	%rcx, %rsi
 1367 0900 4889C7   		movq	%rax, %rdi
 1368 0903 E8000000 		call	_ZN8UnitTest11TestDetailsC1ERKS0_i@PLT
 1368      00
 1369              		.loc 3 93 2 is_stmt 0 discriminator 4
 1370 0908 C7458800 		movl	$0, -120(%rbp)
 1370      000000
 1371 090f E8000000 		call	_ZN8UnitTest11CurrentTest7ResultsEv@PLT
 1371      00
 1372 0914 488B00   		movq	(%rax), %rax
 1373 0917 488D4D90 		leaq	-112(%rbp), %rcx
 1374 091b 488D9578 		leaq	-136(%rbp), %rdx
 1374      FFFFFF
 1375 0922 488D7588 		leaq	-120(%rbp), %rsi
 1376 0926 4889C7   		movq	%rax, %rdi
 1377 0929 E8000000 		call	_ZN8UnitTest10CheckEqualI9USBStatusS1_EEvRNS_11TestResultsERKT_RKT0_RKNS_11TestDetailsE
 1377      00
 1378              	.LEHE48:
 1379              	.L79:
 1380              	.LEHB49:
  94:testCore.cpp  **** 	CHECK_EQUAL(2UL, *item);
 1381              		.loc 3 94 2 is_stmt 1
 1382 092e E8000000 		call	_ZN8UnitTest11CurrentTest7DetailsEv@PLT
 1382      00
 1383 0933 488B08   		movq	(%rax), %rcx
 1384 0936 488D4590 		leaq	-112(%rbp), %rax
 1385 093a BA5E0000 		movl	$94, %edx
 1385      00
 1386 093f 4889CE   		movq	%rcx, %rsi
 1387 0942 4889C7   		movq	%rax, %rdi
 1388 0945 E8000000 		call	_ZN8UnitTest11TestDetailsC1ERKS0_i@PLT
 1388      00
 1389              		.loc 3 94 2 is_stmt 0 discriminator 4
 1390 094a 488B5D80 		movq	-128(%rbp), %rbx
 1391 094e 48C74588 		movq	$2, -120(%rbp)
 1391      02000000 
 1392 0956 E8000000 		call	_ZN8UnitTest11CurrentTest7ResultsEv@PLT
 1392      00
 1393 095b 488B00   		movq	(%rax), %rax
 1394 095e 488D5590 		leaq	-112(%rbp), %rdx
 1395 0962 488D7588 		leaq	-120(%rbp), %rsi
 1396 0966 4889D1   		movq	%rdx, %rcx
 1397 0969 4889DA   		movq	%rbx, %rdx
 1398 096c 4889C7   		movq	%rax, %rdi
 1399 096f E8000000 		call	_ZN8UnitTest10CheckEqualImjEEvRNS_11TestResultsERKT_RKT0_RKNS_11TestDetailsE
 1399      00
 1400              	.LEHE49:
 1401              	.L82:
  95:testCore.cpp  **** 	*item = 6;
 1402              		.loc 3 95 2 is_stmt 1
 1403 0974 488B4580 		movq	-128(%rbp), %rax
 1404              		.loc 3 95 8
 1405 0978 C7000600 		movl	$6, (%rax)
 1405      0000
  96:testCore.cpp  **** 	queueCommitPut(&queue);
 1406              		.loc 3 96 16
 1407 097e 488D45B0 		leaq	-80(%rbp), %rax
 1408 0982 4889C7   		movq	%rax, %rdi
 1409              	.LEHB50:
 1410 0985 E8000000 		call	queueCommitPut@PLT
 1410      00
  97:testCore.cpp  **** 	status = queuePut(&queue, (Item*)&item);
 1411              		.loc 3 97 19
 1412 098a 488D5580 		leaq	-128(%rbp), %rdx
 1413 098e 488D45B0 		leaq	-80(%rbp), %rax
 1414 0992 4889D6   		movq	%rdx, %rsi
 1415 0995 4889C7   		movq	%rax, %rdi
 1416 0998 E8000000 		call	queuePut@PLT
 1416      00
 1417              	.LEHE50:
 1418              		.loc 3 97 9
 1419 099d 898578FF 		movl	%eax, -136(%rbp)
 1419      FFFF
 1420              	.LEHB51:
  98:testCore.cpp  **** 	CHECK_EQUAL(USB_SUCCESS, status);
 1421              		.loc 3 98 2
 1422 09a3 E8000000 		call	_ZN8UnitTest11CurrentTest7DetailsEv@PLT
 1422      00
 1423 09a8 488B08   		movq	(%rax), %rcx
 1424 09ab 488D4590 		leaq	-112(%rbp), %rax
 1425 09af BA620000 		movl	$98, %edx
 1425      00
 1426 09b4 4889CE   		movq	%rcx, %rsi
 1427 09b7 4889C7   		movq	%rax, %rdi
 1428 09ba E8000000 		call	_ZN8UnitTest11TestDetailsC1ERKS0_i@PLT
 1428      00
 1429              		.loc 3 98 2 is_stmt 0 discriminator 4
 1430 09bf C7458800 		movl	$0, -120(%rbp)
 1430      000000
 1431 09c6 E8000000 		call	_ZN8UnitTest11CurrentTest7ResultsEv@PLT
 1431      00
 1432 09cb 488B00   		movq	(%rax), %rax
 1433 09ce 488D4D90 		leaq	-112(%rbp), %rcx
 1434 09d2 488D9578 		leaq	-136(%rbp), %rdx
 1434      FFFFFF
 1435 09d9 488D7588 		leaq	-120(%rbp), %rsi
 1436 09dd 4889C7   		movq	%rax, %rdi
 1437 09e0 E8000000 		call	_ZN8UnitTest10CheckEqualI9USBStatusS1_EEvRNS_11TestResultsERKT_RKT0_RKNS_11TestDetailsE
 1437      00
 1438              	.LEHE51:
 1439              	.L85:
 1440              	.LEHB52:
  99:testCore.cpp  **** 	CHECK_EQUAL(3UL, *item);
 1441              		.loc 3 99 2 is_stmt 1
 1442 09e5 E8000000 		call	_ZN8UnitTest11CurrentTest7DetailsEv@PLT
 1442      00
 1443 09ea 488B08   		movq	(%rax), %rcx
 1444 09ed 488D4590 		leaq	-112(%rbp), %rax
 1445 09f1 BA630000 		movl	$99, %edx
 1445      00
 1446 09f6 4889CE   		movq	%rcx, %rsi
 1447 09f9 4889C7   		movq	%rax, %rdi
 1448 09fc E8000000 		call	_ZN8UnitTest11TestDetailsC1ERKS0_i@PLT
 1448      00
 1449              		.loc 3 99 2 is_stmt 0 discriminator 4
 1450 0a01 488B5D80 		movq	-128(%rbp), %rbx
 1451 0a05 48C74588 		movq	$3, -120(%rbp)
 1451      03000000 
 1452 0a0d E8000000 		call	_ZN8UnitTest11CurrentTest7ResultsEv@PLT
 1452      00
 1453 0a12 488B00   		movq	(%rax), %rax
 1454 0a15 488D5590 		leaq	-112(%rbp), %rdx
 1455 0a19 488D7588 		leaq	-120(%rbp), %rsi
 1456 0a1d 4889D1   		movq	%rdx, %rcx
 1457 0a20 4889DA   		movq	%rbx, %rdx
 1458 0a23 4889C7   		movq	%rax, %rdi
 1459 0a26 E8000000 		call	_ZN8UnitTest10CheckEqualImjEEvRNS_11TestResultsERKT_RKT0_RKNS_11TestDetailsE
 1459      00
 1460              	.LEHE52:
 1461              	.L88:
 100:testCore.cpp  **** 	*item = 7;
 1462              		.loc 3 100 2 is_stmt 1
 1463 0a2b 488B4580 		movq	-128(%rbp), %rax
 1464              		.loc 3 100 8
 1465 0a2f C7000700 		movl	$7, (%rax)
 1465      0000
 101:testCore.cpp  **** 	queueCommitPut(&queue);
 1466              		.loc 3 101 16
 1467 0a35 488D45B0 		leaq	-80(%rbp), %rax
 1468 0a39 4889C7   		movq	%rax, %rdi
 1469              	.LEHB53:
 1470 0a3c E8000000 		call	queueCommitPut@PLT
 1470      00
 1471              	.LEHE53:
 1472              	.LEHB54:
 102:testCore.cpp  **** 
 103:testCore.cpp  **** 	// Verify
 104:testCore.cpp  **** 	CHECK_EQUAL(4UL, queue.capacity);
 1473              		.loc 3 104 2
 1474 0a41 E8000000 		call	_ZN8UnitTest11CurrentTest7DetailsEv@PLT
 1474      00
 1475 0a46 488B08   		movq	(%rax), %rcx
 1476 0a49 488D4590 		leaq	-112(%rbp), %rax
 1477 0a4d BA680000 		movl	$104, %edx
 1477      00
 1478 0a52 4889CE   		movq	%rcx, %rsi
 1479 0a55 4889C7   		movq	%rax, %rdi
 1480 0a58 E8000000 		call	_ZN8UnitTest11TestDetailsC1ERKS0_i@PLT
 1480      00
 1481              		.loc 3 104 2 is_stmt 0 discriminator 4
 1482 0a5d 48C74588 		movq	$4, -120(%rbp)
 1482      04000000 
 1483 0a65 E8000000 		call	_ZN8UnitTest11CurrentTest7ResultsEv@PLT
 1483      00
 1484 0a6a 488B00   		movq	(%rax), %rax
 1485 0a6d 488D5590 		leaq	-112(%rbp), %rdx
 1486 0a71 488D4DB0 		leaq	-80(%rbp), %rcx
 1487 0a75 488D7908 		leaq	8(%rcx), %rdi
 1488 0a79 488D7588 		leaq	-120(%rbp), %rsi
 1489 0a7d 4889D1   		movq	%rdx, %rcx
 1490 0a80 4889FA   		movq	%rdi, %rdx
 1491 0a83 4889C7   		movq	%rax, %rdi
 1492 0a86 E8000000 		call	_ZN8UnitTest10CheckEqualImmEEvRNS_11TestResultsERKT_RKT0_RKNS_11TestDetailsE
 1492      00
 1493              	.LEHE54:
 1494              	.L91:
 1495              	.LEHB55:
 105:testCore.cpp  **** 	CHECK_EQUAL(3UL, queue.putIndex);
 1496              		.loc 3 105 2 is_stmt 1
 1497 0a8b E8000000 		call	_ZN8UnitTest11CurrentTest7DetailsEv@PLT
 1497      00
 1498 0a90 488B08   		movq	(%rax), %rcx
 1499 0a93 488D4590 		leaq	-112(%rbp), %rax
 1500 0a97 BA690000 		movl	$105, %edx
 1500      00
 1501 0a9c 4889CE   		movq	%rcx, %rsi
 1502 0a9f 4889C7   		movq	%rax, %rdi
 1503 0aa2 E8000000 		call	_ZN8UnitTest11TestDetailsC1ERKS0_i@PLT
 1503      00
 1504              		.loc 3 105 2 is_stmt 0 discriminator 4
 1505 0aa7 48C74588 		movq	$3, -120(%rbp)
 1505      03000000 
 1506 0aaf E8000000 		call	_ZN8UnitTest11CurrentTest7ResultsEv@PLT
 1506      00
 1507 0ab4 488B00   		movq	(%rax), %rax
 1508 0ab7 488D5590 		leaq	-112(%rbp), %rdx
 1509 0abb 488D4DB0 		leaq	-80(%rbp), %rcx
 1510 0abf 488D7910 		leaq	16(%rcx), %rdi
 1511 0ac3 488D7588 		leaq	-120(%rbp), %rsi
 1512 0ac7 4889D1   		movq	%rdx, %rcx
 1513 0aca 4889FA   		movq	%rdi, %rdx
 1514 0acd 4889C7   		movq	%rax, %rdi
 1515 0ad0 E8000000 		call	_ZN8UnitTest10CheckEqualImmEEvRNS_11TestResultsERKT_RKT0_RKNS_11TestDetailsE
 1515      00
 1516              	.LEHE55:
 1517              	.L94:
 1518              	.LEHB56:
 106:testCore.cpp  **** 	CHECK_EQUAL(0UL, queue.takeIndex);
 1519              		.loc 3 106 2 is_stmt 1
 1520 0ad5 E8000000 		call	_ZN8UnitTest11CurrentTest7DetailsEv@PLT
 1520      00
 1521 0ada 488B08   		movq	(%rax), %rcx
 1522 0add 488D4590 		leaq	-112(%rbp), %rax
 1523 0ae1 BA6A0000 		movl	$106, %edx
 1523      00
 1524 0ae6 4889CE   		movq	%rcx, %rsi
 1525 0ae9 4889C7   		movq	%rax, %rdi
 1526 0aec E8000000 		call	_ZN8UnitTest11TestDetailsC1ERKS0_i@PLT
 1526      00
 1527              		.loc 3 106 2 is_stmt 0 discriminator 4
 1528 0af1 48C74588 		movq	$0, -120(%rbp)
 1528      00000000 
 1529 0af9 E8000000 		call	_ZN8UnitTest11CurrentTest7ResultsEv@PLT
 1529      00
 1530 0afe 488B00   		movq	(%rax), %rax
 1531 0b01 488D5590 		leaq	-112(%rbp), %rdx
 1532 0b05 488D4DB0 		leaq	-80(%rbp), %rcx
 1533 0b09 488D7918 		leaq	24(%rcx), %rdi
 1534 0b0d 488D7588 		leaq	-120(%rbp), %rsi
 1535 0b11 4889D1   		movq	%rdx, %rcx
 1536 0b14 4889FA   		movq	%rdi, %rdx
 1537 0b17 4889C7   		movq	%rax, %rdi
 1538 0b1a E8000000 		call	_ZN8UnitTest10CheckEqualImmEEvRNS_11TestResultsERKT_RKT0_RKNS_11TestDetailsE
 1538      00
 1539              	.LEHE56:
 1540              	.L97:
 1541              	.LEHB57:
 107:testCore.cpp  **** 	CHECK_EQUAL(3UL, queue.numItems);
 1542              		.loc 3 107 2 is_stmt 1
 1543 0b1f E8000000 		call	_ZN8UnitTest11CurrentTest7DetailsEv@PLT
 1543      00
 1544 0b24 488B08   		movq	(%rax), %rcx
 1545 0b27 488D4590 		leaq	-112(%rbp), %rax
 1546 0b2b BA6B0000 		movl	$107, %edx
 1546      00
 1547 0b30 4889CE   		movq	%rcx, %rsi
 1548 0b33 4889C7   		movq	%rax, %rdi
 1549 0b36 E8000000 		call	_ZN8UnitTest11TestDetailsC1ERKS0_i@PLT
 1549      00
 1550              		.loc 3 107 2 is_stmt 0 discriminator 4
 1551 0b3b 48C74588 		movq	$3, -120(%rbp)
 1551      03000000 
 1552 0b43 E8000000 		call	_ZN8UnitTest11CurrentTest7ResultsEv@PLT
 1552      00
 1553 0b48 488B00   		movq	(%rax), %rax
 1554 0b4b 488D5590 		leaq	-112(%rbp), %rdx
 1555 0b4f 488D4DB0 		leaq	-80(%rbp), %rcx
 1556 0b53 488D7920 		leaq	32(%rcx), %rdi
 1557 0b57 488D7588 		leaq	-120(%rbp), %rsi
 1558 0b5b 4889D1   		movq	%rdx, %rcx
 1559 0b5e 4889FA   		movq	%rdi, %rdx
 1560 0b61 4889C7   		movq	%rax, %rdi
 1561 0b64 E8000000 		call	_ZN8UnitTest10CheckEqualImmEEvRNS_11TestResultsERKT_RKT0_RKNS_11TestDetailsE
 1561      00
 1562              	.LEHE57:
 1563              	.L100:
 1564              	.LEHB58:
 108:testCore.cpp  **** 
 109:testCore.cpp  **** 	// Verify array
 110:testCore.cpp  **** 	CHECK_EQUAL(5UL, deref(queue.itemArray[0]));
 1565              		.loc 3 110 2 is_stmt 1
 1566 0b69 E8000000 		call	_ZN8UnitTest11CurrentTest7DetailsEv@PLT
 1566      00
 1567 0b6e 488B08   		movq	(%rax), %rcx
 1568 0b71 488D4590 		leaq	-112(%rbp), %rax
 1569 0b75 BA6E0000 		movl	$110, %edx
 1569      00
 1570 0b7a 4889CE   		movq	%rcx, %rsi
 1571 0b7d 4889C7   		movq	%rax, %rdi
 1572 0b80 E8000000 		call	_ZN8UnitTest11TestDetailsC1ERKS0_i@PLT
 1572      00
 1573              		.loc 3 110 2 is_stmt 0 discriminator 4
 1574 0b85 488B45B0 		movq	-80(%rbp), %rax
 1575 0b89 488B00   		movq	(%rax), %rax
 1576 0b8c 4889C7   		movq	%rax, %rdi
 1577 0b8f E8FEF4FF 		call	_ZL5derefPKv
 1577      FF
 1578 0b94 89857CFF 		movl	%eax, -132(%rbp)
 1578      FFFF
 1579 0b9a 48C74588 		movq	$5, -120(%rbp)
 1579      05000000 
 1580 0ba2 E8000000 		call	_ZN8UnitTest11CurrentTest7ResultsEv@PLT
 1580      00
 1581 0ba7 488B00   		movq	(%rax), %rax
 1582 0baa 488D4D90 		leaq	-112(%rbp), %rcx
 1583 0bae 488D957C 		leaq	-132(%rbp), %rdx
 1583      FFFFFF
 1584 0bb5 488D7588 		leaq	-120(%rbp), %rsi
 1585 0bb9 4889C7   		movq	%rax, %rdi
 1586 0bbc E8000000 		call	_ZN8UnitTest10CheckEqualImjEEvRNS_11TestResultsERKT_RKT0_RKNS_11TestDetailsE
 1586      00
 1587              	.LEHE58:
 1588              	.L103:
 1589              	.LEHB59:
 111:testCore.cpp  **** 	CHECK_EQUAL(6UL, deref(queue.itemArray[1]));
 1590              		.loc 3 111 2 is_stmt 1
 1591 0bc1 E8000000 		call	_ZN8UnitTest11CurrentTest7DetailsEv@PLT
 1591      00
 1592 0bc6 488B08   		movq	(%rax), %rcx
 1593 0bc9 488D4590 		leaq	-112(%rbp), %rax
 1594 0bcd BA6F0000 		movl	$111, %edx
 1594      00
 1595 0bd2 4889CE   		movq	%rcx, %rsi
 1596 0bd5 4889C7   		movq	%rax, %rdi
 1597 0bd8 E8000000 		call	_ZN8UnitTest11TestDetailsC1ERKS0_i@PLT
 1597      00
 1598              		.loc 3 111 2 is_stmt 0 discriminator 4
 1599 0bdd 488B45B0 		movq	-80(%rbp), %rax
 1600 0be1 4883C008 		addq	$8, %rax
 1601 0be5 488B00   		movq	(%rax), %rax
 1602 0be8 4889C7   		movq	%rax, %rdi
 1603 0beb E8A2F4FF 		call	_ZL5derefPKv
 1603      FF
 1604 0bf0 89857CFF 		movl	%eax, -132(%rbp)
 1604      FFFF
 1605 0bf6 48C74588 		movq	$6, -120(%rbp)
 1605      06000000 
 1606 0bfe E8000000 		call	_ZN8UnitTest11CurrentTest7ResultsEv@PLT
 1606      00
 1607 0c03 488B00   		movq	(%rax), %rax
 1608 0c06 488D4D90 		leaq	-112(%rbp), %rcx
 1609 0c0a 488D957C 		leaq	-132(%rbp), %rdx
 1609      FFFFFF
 1610 0c11 488D7588 		leaq	-120(%rbp), %rsi
 1611 0c15 4889C7   		movq	%rax, %rdi
 1612 0c18 E8000000 		call	_ZN8UnitTest10CheckEqualImjEEvRNS_11TestResultsERKT_RKT0_RKNS_11TestDetailsE
 1612      00
 1613              	.LEHE59:
 1614              	.L106:
 1615              	.LEHB60:
 112:testCore.cpp  **** 	CHECK_EQUAL(7UL, deref(queue.itemArray[2]));
 1616              		.loc 3 112 2 is_stmt 1
 1617 0c1d E8000000 		call	_ZN8UnitTest11CurrentTest7DetailsEv@PLT
 1617      00
 1618 0c22 488B08   		movq	(%rax), %rcx
 1619 0c25 488D4590 		leaq	-112(%rbp), %rax
 1620 0c29 BA700000 		movl	$112, %edx
 1620      00
 1621 0c2e 4889CE   		movq	%rcx, %rsi
 1622 0c31 4889C7   		movq	%rax, %rdi
 1623 0c34 E8000000 		call	_ZN8UnitTest11TestDetailsC1ERKS0_i@PLT
 1623      00
 1624              		.loc 3 112 2 is_stmt 0 discriminator 4
 1625 0c39 488B45B0 		movq	-80(%rbp), %rax
 1626 0c3d 4883C010 		addq	$16, %rax
 1627 0c41 488B00   		movq	(%rax), %rax
 1628 0c44 4889C7   		movq	%rax, %rdi
 1629 0c47 E846F4FF 		call	_ZL5derefPKv
 1629      FF
 1630 0c4c 89857CFF 		movl	%eax, -132(%rbp)
 1630      FFFF
 1631 0c52 48C74588 		movq	$7, -120(%rbp)
 1631      07000000 
 1632 0c5a E8000000 		call	_ZN8UnitTest11CurrentTest7ResultsEv@PLT
 1632      00
 1633 0c5f 488B00   		movq	(%rax), %rax
 1634 0c62 488D4D90 		leaq	-112(%rbp), %rcx
 1635 0c66 488D957C 		leaq	-132(%rbp), %rdx
 1635      FFFFFF
 1636 0c6d 488D7588 		leaq	-120(%rbp), %rsi
 1637 0c71 4889C7   		movq	%rax, %rdi
 1638 0c74 E8000000 		call	_ZN8UnitTest10CheckEqualImjEEvRNS_11TestResultsERKT_RKT0_RKNS_11TestDetailsE
 1638      00
 1639              	.LEHE60:
 1640              	.L109:
 1641              	.LEHB61:
 113:testCore.cpp  **** 	CHECK_EQUAL(4UL, deref(queue.itemArray[3]));
 1642              		.loc 3 113 2 is_stmt 1
 1643 0c79 E8000000 		call	_ZN8UnitTest11CurrentTest7DetailsEv@PLT
 1643      00
 1644 0c7e 488B08   		movq	(%rax), %rcx
 1645 0c81 488D4590 		leaq	-112(%rbp), %rax
 1646 0c85 BA710000 		movl	$113, %edx
 1646      00
 1647 0c8a 4889CE   		movq	%rcx, %rsi
 1648 0c8d 4889C7   		movq	%rax, %rdi
 1649 0c90 E8000000 		call	_ZN8UnitTest11TestDetailsC1ERKS0_i@PLT
 1649      00
 1650              		.loc 3 113 2 is_stmt 0 discriminator 4
 1651 0c95 488B45B0 		movq	-80(%rbp), %rax
 1652 0c99 4883C018 		addq	$24, %rax
 1653 0c9d 488B00   		movq	(%rax), %rax
 1654 0ca0 4889C7   		movq	%rax, %rdi
 1655 0ca3 E8EAF3FF 		call	_ZL5derefPKv
 1655      FF
 1656 0ca8 89857CFF 		movl	%eax, -132(%rbp)
 1656      FFFF
 1657 0cae 48C74588 		movq	$4, -120(%rbp)
 1657      04000000 
 1658 0cb6 E8000000 		call	_ZN8UnitTest11CurrentTest7ResultsEv@PLT
 1658      00
 1659 0cbb 488B00   		movq	(%rax), %rax
 1660 0cbe 488D4D90 		leaq	-112(%rbp), %rcx
 1661 0cc2 488D957C 		leaq	-132(%rbp), %rdx
 1661      FFFFFF
 1662 0cc9 488D7588 		leaq	-120(%rbp), %rsi
 1663 0ccd 4889C7   		movq	%rax, %rdi
 1664 0cd0 E8000000 		call	_ZN8UnitTest10CheckEqualImjEEvRNS_11TestResultsERKT_RKT0_RKNS_11TestDetailsE
 1664      00
 1665              	.LEHE61:
 1666              	.L112:
 114:testCore.cpp  **** 
 115:testCore.cpp  **** 	// Clean up
 116:testCore.cpp  **** 	queueDestroy(&queue);
 1667              		.loc 3 116 14 is_stmt 1
 1668 0cd5 488D45B0 		leaq	-80(%rbp), %rax
 1669 0cd9 4889C7   		movq	%rax, %rdi
 1670              	.LEHB62:
 1671 0cdc E8000000 		call	queueDestroy@PLT
 1671      00
 1672              	.LEHE62:
 117:testCore.cpp  **** }
 1673              		.loc 3 117 1
 1674 0ce1 90       		nop
 1675 0ce2 488B45E8 		movq	-24(%rbp), %rax
 1676 0ce6 64482B04 		subq	%fs:40, %rax
 1676      25280000 
 1676      00
 1677 0cef 0F841306 		je	.L114
 1677      0000
 1678 0cf5 E9090600 		jmp	.L145
 1678      00
 1679              	.L115:
 1680 0cfa F30F1EFA 		endbr64
  84:testCore.cpp  **** 
 1681              		.loc 3 84 2
 1682 0cfe 4889C7   		movq	%rax, %rdi
 1683 0d01 E8000000 		call	__cxa_begin_catch@PLT
 1683      00
 1684              	.LEHB63:
 1685 0d06 E8000000 		call	_ZN8UnitTest11CurrentTest7ResultsEv@PLT
 1685      00
  84:testCore.cpp  **** 
 1686              		.loc 3 84 2 is_stmt 0 discriminator 3
 1687 0d0b 488B18   		movq	(%rax), %rbx
 1688 0d0e E8000000 		call	_ZN8UnitTest11CurrentTest7DetailsEv@PLT
 1688      00
  84:testCore.cpp  **** 
 1689              		.loc 3 84 2 discriminator 11
 1690 0d13 488B08   		movq	(%rax), %rcx
 1691 0d16 488D4590 		leaq	-112(%rbp), %rax
 1692 0d1a BA540000 		movl	$84, %edx
 1692      00
 1693 0d1f 4889CE   		movq	%rcx, %rsi
 1694 0d22 4889C7   		movq	%rax, %rdi
 1695 0d25 E8000000 		call	_ZN8UnitTest11TestDetailsC1ERKS0_i@PLT
 1695      00
  84:testCore.cpp  **** 
 1696              		.loc 3 84 2 discriminator 15
 1697 0d2a 488D4590 		leaq	-112(%rbp), %rax
 1698 0d2e 488D1500 		leaq	.LC3(%rip), %rdx
 1698      000000
 1699 0d35 4889C6   		movq	%rax, %rsi
 1700 0d38 4889DF   		movq	%rbx, %rdi
 1701 0d3b E8000000 		call	_ZN8UnitTest11TestResults13OnTestFailureERKNS_11TestDetailsEPKc@PLT
 1701      00
 1702              	.LEHE63:
 1703              	.LEHB64:
  84:testCore.cpp  **** 
 1704              		.loc 3 84 2 discriminator 17
 1705 0d40 E8000000 		call	__cxa_end_catch@PLT
 1705      00
 1706              	.LEHE64:
 1707 0d45 E9D2FAFF 		jmp	.L70
 1707      FF
 1708              	.L116:
 1709 0d4a F30F1EFA 		endbr64
  84:testCore.cpp  **** 
 1710              		.loc 3 84 2
 1711 0d4e 4889C3   		movq	%rax, %rbx
 1712 0d51 E8000000 		call	__cxa_end_catch@PLT
 1712      00
 1713 0d56 4889D8   		movq	%rbx, %rax
 1714 0d59 4889C7   		movq	%rax, %rdi
 1715              	.LEHB65:
 1716 0d5c E8000000 		call	_Unwind_Resume@PLT
 1716      00
 1717              	.LEHE65:
 1718              	.L117:
 1719 0d61 F30F1EFA 		endbr64
  88:testCore.cpp  **** 	CHECK_EQUAL(1UL, *item);
 1720              		.loc 3 88 2 is_stmt 1
 1721 0d65 4889C7   		movq	%rax, %rdi
 1722 0d68 E8000000 		call	__cxa_begin_catch@PLT
 1722      00
 1723              	.LEHB66:
 1724 0d6d E8000000 		call	_ZN8UnitTest11CurrentTest7ResultsEv@PLT
 1724      00
  88:testCore.cpp  **** 	CHECK_EQUAL(1UL, *item);
 1725              		.loc 3 88 2 is_stmt 0 discriminator 3
 1726 0d72 488B18   		movq	(%rax), %rbx
 1727 0d75 E8000000 		call	_ZN8UnitTest11CurrentTest7DetailsEv@PLT
 1727      00
  88:testCore.cpp  **** 	CHECK_EQUAL(1UL, *item);
 1728              		.loc 3 88 2 discriminator 11
 1729 0d7a 488B08   		movq	(%rax), %rcx
 1730 0d7d 488D4590 		leaq	-112(%rbp), %rax
 1731 0d81 BA580000 		movl	$88, %edx
 1731      00
 1732 0d86 4889CE   		movq	%rcx, %rsi
 1733 0d89 4889C7   		movq	%rax, %rdi
 1734 0d8c E8000000 		call	_ZN8UnitTest11TestDetailsC1ERKS0_i@PLT
 1734      00
  88:testCore.cpp  **** 	CHECK_EQUAL(1UL, *item);
 1735              		.loc 3 88 2 discriminator 15
 1736 0d91 488D4590 		leaq	-112(%rbp), %rax
 1737 0d95 488D1500 		leaq	.LC3(%rip), %rdx
 1737      000000
 1738 0d9c 4889C6   		movq	%rax, %rsi
 1739 0d9f 4889DF   		movq	%rbx, %rdi
 1740 0da2 E8000000 		call	_ZN8UnitTest11TestResults13OnTestFailureERKNS_11TestDetailsEPKc@PLT
 1740      00
 1741              	.LEHE66:
 1742              	.LEHB67:
  88:testCore.cpp  **** 	CHECK_EQUAL(1UL, *item);
 1743              		.loc 3 88 2 discriminator 17
 1744 0da7 E8000000 		call	__cxa_end_catch@PLT
 1744      00
 1745              	.LEHE67:
 1746 0dac E9C6FAFF 		jmp	.L73
 1746      FF
 1747              	.L118:
 1748 0db1 F30F1EFA 		endbr64
  88:testCore.cpp  **** 	CHECK_EQUAL(1UL, *item);
 1749              		.loc 3 88 2
 1750 0db5 4889C3   		movq	%rax, %rbx
 1751 0db8 E8000000 		call	__cxa_end_catch@PLT
 1751      00
 1752 0dbd 4889D8   		movq	%rbx, %rax
 1753 0dc0 4889C7   		movq	%rax, %rdi
 1754              	.LEHB68:
 1755 0dc3 E8000000 		call	_Unwind_Resume@PLT
 1755      00
 1756              	.LEHE68:
 1757              	.L119:
 1758 0dc8 F30F1EFA 		endbr64
  89:testCore.cpp  **** 	*item = 5;
 1759              		.loc 3 89 2 is_stmt 1
 1760 0dcc 4889C7   		movq	%rax, %rdi
 1761 0dcf E8000000 		call	__cxa_begin_catch@PLT
 1761      00
 1762              	.LEHB69:
 1763 0dd4 E8000000 		call	_ZN8UnitTest11CurrentTest7ResultsEv@PLT
 1763      00
  89:testCore.cpp  **** 	*item = 5;
 1764              		.loc 3 89 2 is_stmt 0 discriminator 3
 1765 0dd9 488B18   		movq	(%rax), %rbx
 1766 0ddc E8000000 		call	_ZN8UnitTest11CurrentTest7DetailsEv@PLT
 1766      00
  89:testCore.cpp  **** 	*item = 5;
 1767              		.loc 3 89 2 discriminator 11
 1768 0de1 488B08   		movq	(%rax), %rcx
 1769 0de4 488D4590 		leaq	-112(%rbp), %rax
 1770 0de8 BA590000 		movl	$89, %edx
 1770      00
 1771 0ded 4889CE   		movq	%rcx, %rsi
 1772 0df0 4889C7   		movq	%rax, %rdi
 1773 0df3 E8000000 		call	_ZN8UnitTest11TestDetailsC1ERKS0_i@PLT
 1773      00
  89:testCore.cpp  **** 	*item = 5;
 1774              		.loc 3 89 2 discriminator 15
 1775 0df8 488D4590 		leaq	-112(%rbp), %rax
 1776 0dfc 488D1500 		leaq	.LC13(%rip), %rdx
 1776      000000
 1777 0e03 4889C6   		movq	%rax, %rsi
 1778 0e06 4889DF   		movq	%rbx, %rdi
 1779 0e09 E8000000 		call	_ZN8UnitTest11TestResults13OnTestFailureERKNS_11TestDetailsEPKc@PLT
 1779      00
 1780              	.LEHE69:
 1781              	.LEHB70:
  89:testCore.cpp  **** 	*item = 5;
 1782              		.loc 3 89 2 discriminator 17
 1783 0e0e E8000000 		call	__cxa_end_catch@PLT
 1783      00
 1784              	.LEHE70:
 1785 0e13 E9A5FAFF 		jmp	.L76
 1785      FF
 1786              	.L120:
 1787 0e18 F30F1EFA 		endbr64
  89:testCore.cpp  **** 	*item = 5;
 1788              		.loc 3 89 2
 1789 0e1c 4889C3   		movq	%rax, %rbx
 1790 0e1f E8000000 		call	__cxa_end_catch@PLT
 1790      00
 1791 0e24 4889D8   		movq	%rbx, %rax
 1792 0e27 4889C7   		movq	%rax, %rdi
 1793              	.LEHB71:
 1794 0e2a E8000000 		call	_Unwind_Resume@PLT
 1794      00
 1795              	.LEHE71:
 1796              	.L121:
 1797 0e2f F30F1EFA 		endbr64
  93:testCore.cpp  **** 	CHECK_EQUAL(2UL, *item);
 1798              		.loc 3 93 2 is_stmt 1
 1799 0e33 4889C7   		movq	%rax, %rdi
 1800 0e36 E8000000 		call	__cxa_begin_catch@PLT
 1800      00
 1801              	.LEHB72:
 1802 0e3b E8000000 		call	_ZN8UnitTest11CurrentTest7ResultsEv@PLT
 1802      00
  93:testCore.cpp  **** 	CHECK_EQUAL(2UL, *item);
 1803              		.loc 3 93 2 is_stmt 0 discriminator 3
 1804 0e40 488B18   		movq	(%rax), %rbx
 1805 0e43 E8000000 		call	_ZN8UnitTest11CurrentTest7DetailsEv@PLT
 1805      00
  93:testCore.cpp  **** 	CHECK_EQUAL(2UL, *item);
 1806              		.loc 3 93 2 discriminator 11
 1807 0e48 488B08   		movq	(%rax), %rcx
 1808 0e4b 488D4590 		leaq	-112(%rbp), %rax
 1809 0e4f BA5D0000 		movl	$93, %edx
 1809      00
 1810 0e54 4889CE   		movq	%rcx, %rsi
 1811 0e57 4889C7   		movq	%rax, %rdi
 1812 0e5a E8000000 		call	_ZN8UnitTest11TestDetailsC1ERKS0_i@PLT
 1812      00
  93:testCore.cpp  **** 	CHECK_EQUAL(2UL, *item);
 1813              		.loc 3 93 2 discriminator 15
 1814 0e5f 488D4590 		leaq	-112(%rbp), %rax
 1815 0e63 488D1500 		leaq	.LC3(%rip), %rdx
 1815      000000
 1816 0e6a 4889C6   		movq	%rax, %rsi
 1817 0e6d 4889DF   		movq	%rbx, %rdi
 1818 0e70 E8000000 		call	_ZN8UnitTest11TestResults13OnTestFailureERKNS_11TestDetailsEPKc@PLT
 1818      00
 1819              	.LEHE72:
 1820              	.LEHB73:
  93:testCore.cpp  **** 	CHECK_EQUAL(2UL, *item);
 1821              		.loc 3 93 2 discriminator 17
 1822 0e75 E8000000 		call	__cxa_end_catch@PLT
 1822      00
 1823              	.LEHE73:
 1824 0e7a E9AFFAFF 		jmp	.L79
 1824      FF
 1825              	.L122:
 1826 0e7f F30F1EFA 		endbr64
  93:testCore.cpp  **** 	CHECK_EQUAL(2UL, *item);
 1827              		.loc 3 93 2
 1828 0e83 4889C3   		movq	%rax, %rbx
 1829 0e86 E8000000 		call	__cxa_end_catch@PLT
 1829      00
 1830 0e8b 4889D8   		movq	%rbx, %rax
 1831 0e8e 4889C7   		movq	%rax, %rdi
 1832              	.LEHB74:
 1833 0e91 E8000000 		call	_Unwind_Resume@PLT
 1833      00
 1834              	.LEHE74:
 1835              	.L123:
 1836 0e96 F30F1EFA 		endbr64
  94:testCore.cpp  **** 	*item = 6;
 1837              		.loc 3 94 2 is_stmt 1
 1838 0e9a 4889C7   		movq	%rax, %rdi
 1839 0e9d E8000000 		call	__cxa_begin_catch@PLT
 1839      00
 1840              	.LEHB75:
 1841 0ea2 E8000000 		call	_ZN8UnitTest11CurrentTest7ResultsEv@PLT
 1841      00
  94:testCore.cpp  **** 	*item = 6;
 1842              		.loc 3 94 2 is_stmt 0 discriminator 3
 1843 0ea7 488B18   		movq	(%rax), %rbx
 1844 0eaa E8000000 		call	_ZN8UnitTest11CurrentTest7DetailsEv@PLT
 1844      00
  94:testCore.cpp  **** 	*item = 6;
 1845              		.loc 3 94 2 discriminator 11
 1846 0eaf 488B08   		movq	(%rax), %rcx
 1847 0eb2 488D4590 		leaq	-112(%rbp), %rax
 1848 0eb6 BA5E0000 		movl	$94, %edx
 1848      00
 1849 0ebb 4889CE   		movq	%rcx, %rsi
 1850 0ebe 4889C7   		movq	%rax, %rdi
 1851 0ec1 E8000000 		call	_ZN8UnitTest11TestDetailsC1ERKS0_i@PLT
 1851      00
  94:testCore.cpp  **** 	*item = 6;
 1852              		.loc 3 94 2 discriminator 15
 1853 0ec6 488D4590 		leaq	-112(%rbp), %rax
 1854 0eca 488D1500 		leaq	.LC14(%rip), %rdx
 1854      000000
 1855 0ed1 4889C6   		movq	%rax, %rsi
 1856 0ed4 4889DF   		movq	%rbx, %rdi
 1857 0ed7 E8000000 		call	_ZN8UnitTest11TestResults13OnTestFailureERKNS_11TestDetailsEPKc@PLT
 1857      00
 1858              	.LEHE75:
 1859              	.LEHB76:
  94:testCore.cpp  **** 	*item = 6;
 1860              		.loc 3 94 2 discriminator 17
 1861 0edc E8000000 		call	__cxa_end_catch@PLT
 1861      00
 1862              	.LEHE76:
 1863 0ee1 E98EFAFF 		jmp	.L82
 1863      FF
 1864              	.L124:
 1865 0ee6 F30F1EFA 		endbr64
  94:testCore.cpp  **** 	*item = 6;
 1866              		.loc 3 94 2
 1867 0eea 4889C3   		movq	%rax, %rbx
 1868 0eed E8000000 		call	__cxa_end_catch@PLT
 1868      00
 1869 0ef2 4889D8   		movq	%rbx, %rax
 1870 0ef5 4889C7   		movq	%rax, %rdi
 1871              	.LEHB77:
 1872 0ef8 E8000000 		call	_Unwind_Resume@PLT
 1872      00
 1873              	.LEHE77:
 1874              	.L125:
 1875 0efd F30F1EFA 		endbr64
  98:testCore.cpp  **** 	CHECK_EQUAL(3UL, *item);
 1876              		.loc 3 98 2 is_stmt 1
 1877 0f01 4889C7   		movq	%rax, %rdi
 1878 0f04 E8000000 		call	__cxa_begin_catch@PLT
 1878      00
 1879              	.LEHB78:
 1880 0f09 E8000000 		call	_ZN8UnitTest11CurrentTest7ResultsEv@PLT
 1880      00
  98:testCore.cpp  **** 	CHECK_EQUAL(3UL, *item);
 1881              		.loc 3 98 2 is_stmt 0 discriminator 3
 1882 0f0e 488B18   		movq	(%rax), %rbx
 1883 0f11 E8000000 		call	_ZN8UnitTest11CurrentTest7DetailsEv@PLT
 1883      00
  98:testCore.cpp  **** 	CHECK_EQUAL(3UL, *item);
 1884              		.loc 3 98 2 discriminator 11
 1885 0f16 488B08   		movq	(%rax), %rcx
 1886 0f19 488D4590 		leaq	-112(%rbp), %rax
 1887 0f1d BA620000 		movl	$98, %edx
 1887      00
 1888 0f22 4889CE   		movq	%rcx, %rsi
 1889 0f25 4889C7   		movq	%rax, %rdi
 1890 0f28 E8000000 		call	_ZN8UnitTest11TestDetailsC1ERKS0_i@PLT
 1890      00
  98:testCore.cpp  **** 	CHECK_EQUAL(3UL, *item);
 1891              		.loc 3 98 2 discriminator 15
 1892 0f2d 488D4590 		leaq	-112(%rbp), %rax
 1893 0f31 488D1500 		leaq	.LC3(%rip), %rdx
 1893      000000
 1894 0f38 4889C6   		movq	%rax, %rsi
 1895 0f3b 4889DF   		movq	%rbx, %rdi
 1896 0f3e E8000000 		call	_ZN8UnitTest11TestResults13OnTestFailureERKNS_11TestDetailsEPKc@PLT
 1896      00
 1897              	.LEHE78:
 1898              	.LEHB79:
  98:testCore.cpp  **** 	CHECK_EQUAL(3UL, *item);
 1899              		.loc 3 98 2 discriminator 17
 1900 0f43 E8000000 		call	__cxa_end_catch@PLT
 1900      00
 1901              	.LEHE79:
 1902 0f48 E998FAFF 		jmp	.L85
 1902      FF
 1903              	.L126:
 1904 0f4d F30F1EFA 		endbr64
  98:testCore.cpp  **** 	CHECK_EQUAL(3UL, *item);
 1905              		.loc 3 98 2
 1906 0f51 4889C3   		movq	%rax, %rbx
 1907 0f54 E8000000 		call	__cxa_end_catch@PLT
 1907      00
 1908 0f59 4889D8   		movq	%rbx, %rax
 1909 0f5c 4889C7   		movq	%rax, %rdi
 1910              	.LEHB80:
 1911 0f5f E8000000 		call	_Unwind_Resume@PLT
 1911      00
 1912              	.LEHE80:
 1913              	.L127:
 1914 0f64 F30F1EFA 		endbr64
  99:testCore.cpp  **** 	*item = 7;
 1915              		.loc 3 99 2 is_stmt 1
 1916 0f68 4889C7   		movq	%rax, %rdi
 1917 0f6b E8000000 		call	__cxa_begin_catch@PLT
 1917      00
 1918              	.LEHB81:
 1919 0f70 E8000000 		call	_ZN8UnitTest11CurrentTest7ResultsEv@PLT
 1919      00
  99:testCore.cpp  **** 	*item = 7;
 1920              		.loc 3 99 2 is_stmt 0 discriminator 3
 1921 0f75 488B18   		movq	(%rax), %rbx
 1922 0f78 E8000000 		call	_ZN8UnitTest11CurrentTest7DetailsEv@PLT
 1922      00
  99:testCore.cpp  **** 	*item = 7;
 1923              		.loc 3 99 2 discriminator 11
 1924 0f7d 488B08   		movq	(%rax), %rcx
 1925 0f80 488D4590 		leaq	-112(%rbp), %rax
 1926 0f84 BA630000 		movl	$99, %edx
 1926      00
 1927 0f89 4889CE   		movq	%rcx, %rsi
 1928 0f8c 4889C7   		movq	%rax, %rdi
 1929 0f8f E8000000 		call	_ZN8UnitTest11TestDetailsC1ERKS0_i@PLT
 1929      00
  99:testCore.cpp  **** 	*item = 7;
 1930              		.loc 3 99 2 discriminator 15
 1931 0f94 488D4590 		leaq	-112(%rbp), %rax
 1932 0f98 488D1500 		leaq	.LC15(%rip), %rdx
 1932      000000
 1933 0f9f 4889C6   		movq	%rax, %rsi
 1934 0fa2 4889DF   		movq	%rbx, %rdi
 1935 0fa5 E8000000 		call	_ZN8UnitTest11TestResults13OnTestFailureERKNS_11TestDetailsEPKc@PLT
 1935      00
 1936              	.LEHE81:
 1937              	.LEHB82:
  99:testCore.cpp  **** 	*item = 7;
 1938              		.loc 3 99 2 discriminator 17
 1939 0faa E8000000 		call	__cxa_end_catch@PLT
 1939      00
 1940              	.LEHE82:
 1941 0faf E977FAFF 		jmp	.L88
 1941      FF
 1942              	.L128:
 1943 0fb4 F30F1EFA 		endbr64
  99:testCore.cpp  **** 	*item = 7;
 1944              		.loc 3 99 2
 1945 0fb8 4889C3   		movq	%rax, %rbx
 1946 0fbb E8000000 		call	__cxa_end_catch@PLT
 1946      00
 1947 0fc0 4889D8   		movq	%rbx, %rax
 1948 0fc3 4889C7   		movq	%rax, %rdi
 1949              	.LEHB83:
 1950 0fc6 E8000000 		call	_Unwind_Resume@PLT
 1950      00
 1951              	.LEHE83:
 1952              	.L129:
 1953 0fcb F30F1EFA 		endbr64
 104:testCore.cpp  **** 	CHECK_EQUAL(3UL, queue.putIndex);
 1954              		.loc 3 104 2 is_stmt 1
 1955 0fcf 4889C7   		movq	%rax, %rdi
 1956 0fd2 E8000000 		call	__cxa_begin_catch@PLT
 1956      00
 1957              	.LEHB84:
 1958 0fd7 E8000000 		call	_ZN8UnitTest11CurrentTest7ResultsEv@PLT
 1958      00
 104:testCore.cpp  **** 	CHECK_EQUAL(3UL, queue.putIndex);
 1959              		.loc 3 104 2 is_stmt 0 discriminator 3
 1960 0fdc 488B18   		movq	(%rax), %rbx
 1961 0fdf E8000000 		call	_ZN8UnitTest11CurrentTest7DetailsEv@PLT
 1961      00
 104:testCore.cpp  **** 	CHECK_EQUAL(3UL, queue.putIndex);
 1962              		.loc 3 104 2 discriminator 11
 1963 0fe4 488B08   		movq	(%rax), %rcx
 1964 0fe7 488D4590 		leaq	-112(%rbp), %rax
 1965 0feb BA680000 		movl	$104, %edx
 1965      00
 1966 0ff0 4889CE   		movq	%rcx, %rsi
 1967 0ff3 4889C7   		movq	%rax, %rdi
 1968 0ff6 E8000000 		call	_ZN8UnitTest11TestDetailsC1ERKS0_i@PLT
 1968      00
 104:testCore.cpp  **** 	CHECK_EQUAL(3UL, queue.putIndex);
 1969              		.loc 3 104 2 discriminator 15
 1970 0ffb 488D4590 		leaq	-112(%rbp), %rax
 1971 0fff 488D1500 		leaq	.LC4(%rip), %rdx
 1971      000000
 1972 1006 4889C6   		movq	%rax, %rsi
 1973 1009 4889DF   		movq	%rbx, %rdi
 1974 100c E8000000 		call	_ZN8UnitTest11TestResults13OnTestFailureERKNS_11TestDetailsEPKc@PLT
 1974      00
 1975              	.LEHE84:
 1976              	.LEHB85:
 104:testCore.cpp  **** 	CHECK_EQUAL(3UL, queue.putIndex);
 1977              		.loc 3 104 2 discriminator 17
 1978 1011 E8000000 		call	__cxa_end_catch@PLT
 1978      00
 1979              	.LEHE85:
 1980 1016 E970FAFF 		jmp	.L91
 1980      FF
 1981              	.L130:
 1982 101b F30F1EFA 		endbr64
 104:testCore.cpp  **** 	CHECK_EQUAL(3UL, queue.putIndex);
 1983              		.loc 3 104 2
 1984 101f 4889C3   		movq	%rax, %rbx
 1985 1022 E8000000 		call	__cxa_end_catch@PLT
 1985      00
 1986 1027 4889D8   		movq	%rbx, %rax
 1987 102a 4889C7   		movq	%rax, %rdi
 1988              	.LEHB86:
 1989 102d E8000000 		call	_Unwind_Resume@PLT
 1989      00
 1990              	.LEHE86:
 1991              	.L131:
 1992 1032 F30F1EFA 		endbr64
 105:testCore.cpp  **** 	CHECK_EQUAL(0UL, queue.takeIndex);
 1993              		.loc 3 105 2 is_stmt 1
 1994 1036 4889C7   		movq	%rax, %rdi
 1995 1039 E8000000 		call	__cxa_begin_catch@PLT
 1995      00
 1996              	.LEHB87:
 1997 103e E8000000 		call	_ZN8UnitTest11CurrentTest7ResultsEv@PLT
 1997      00
 105:testCore.cpp  **** 	CHECK_EQUAL(0UL, queue.takeIndex);
 1998              		.loc 3 105 2 is_stmt 0 discriminator 3
 1999 1043 488B18   		movq	(%rax), %rbx
 2000 1046 E8000000 		call	_ZN8UnitTest11CurrentTest7DetailsEv@PLT
 2000      00
 105:testCore.cpp  **** 	CHECK_EQUAL(0UL, queue.takeIndex);
 2001              		.loc 3 105 2 discriminator 11
 2002 104b 488B08   		movq	(%rax), %rcx
 2003 104e 488D4590 		leaq	-112(%rbp), %rax
 2004 1052 BA690000 		movl	$105, %edx
 2004      00
 2005 1057 4889CE   		movq	%rcx, %rsi
 2006 105a 4889C7   		movq	%rax, %rdi
 2007 105d E8000000 		call	_ZN8UnitTest11TestDetailsC1ERKS0_i@PLT
 2007      00
 105:testCore.cpp  **** 	CHECK_EQUAL(0UL, queue.takeIndex);
 2008              		.loc 3 105 2 discriminator 15
 2009 1062 488D4590 		leaq	-112(%rbp), %rax
 2010 1066 488D1500 		leaq	.LC16(%rip), %rdx
 2010      000000
 2011 106d 4889C6   		movq	%rax, %rsi
 2012 1070 4889DF   		movq	%rbx, %rdi
 2013 1073 E8000000 		call	_ZN8UnitTest11TestResults13OnTestFailureERKNS_11TestDetailsEPKc@PLT
 2013      00
 2014              	.LEHE87:
 2015              	.LEHB88:
 105:testCore.cpp  **** 	CHECK_EQUAL(0UL, queue.takeIndex);
 2016              		.loc 3 105 2 discriminator 17
 2017 1078 E8000000 		call	__cxa_end_catch@PLT
 2017      00
 2018              	.LEHE88:
 2019 107d E953FAFF 		jmp	.L94
 2019      FF
 2020              	.L132:
 2021 1082 F30F1EFA 		endbr64
 105:testCore.cpp  **** 	CHECK_EQUAL(0UL, queue.takeIndex);
 2022              		.loc 3 105 2
 2023 1086 4889C3   		movq	%rax, %rbx
 2024 1089 E8000000 		call	__cxa_end_catch@PLT
 2024      00
 2025 108e 4889D8   		movq	%rbx, %rax
 2026 1091 4889C7   		movq	%rax, %rdi
 2027              	.LEHB89:
 2028 1094 E8000000 		call	_Unwind_Resume@PLT
 2028      00
 2029              	.LEHE89:
 2030              	.L133:
 2031 1099 F30F1EFA 		endbr64
 106:testCore.cpp  **** 	CHECK_EQUAL(3UL, queue.numItems);
 2032              		.loc 3 106 2 is_stmt 1
 2033 109d 4889C7   		movq	%rax, %rdi
 2034 10a0 E8000000 		call	__cxa_begin_catch@PLT
 2034      00
 2035              	.LEHB90:
 2036 10a5 E8000000 		call	_ZN8UnitTest11CurrentTest7ResultsEv@PLT
 2036      00
 106:testCore.cpp  **** 	CHECK_EQUAL(3UL, queue.numItems);
 2037              		.loc 3 106 2 is_stmt 0 discriminator 3
 2038 10aa 488B18   		movq	(%rax), %rbx
 2039 10ad E8000000 		call	_ZN8UnitTest11CurrentTest7DetailsEv@PLT
 2039      00
 106:testCore.cpp  **** 	CHECK_EQUAL(3UL, queue.numItems);
 2040              		.loc 3 106 2 discriminator 11
 2041 10b2 488B08   		movq	(%rax), %rcx
 2042 10b5 488D4590 		leaq	-112(%rbp), %rax
 2043 10b9 BA6A0000 		movl	$106, %edx
 2043      00
 2044 10be 4889CE   		movq	%rcx, %rsi
 2045 10c1 4889C7   		movq	%rax, %rdi
 2046 10c4 E8000000 		call	_ZN8UnitTest11TestDetailsC1ERKS0_i@PLT
 2046      00
 106:testCore.cpp  **** 	CHECK_EQUAL(3UL, queue.numItems);
 2047              		.loc 3 106 2 discriminator 15
 2048 10c9 488D4590 		leaq	-112(%rbp), %rax
 2049 10cd 488D1500 		leaq	.LC6(%rip), %rdx
 2049      000000
 2050 10d4 4889C6   		movq	%rax, %rsi
 2051 10d7 4889DF   		movq	%rbx, %rdi
 2052 10da E8000000 		call	_ZN8UnitTest11TestResults13OnTestFailureERKNS_11TestDetailsEPKc@PLT
 2052      00
 2053              	.LEHE90:
 2054              	.LEHB91:
 106:testCore.cpp  **** 	CHECK_EQUAL(3UL, queue.numItems);
 2055              		.loc 3 106 2 discriminator 17
 2056 10df E8000000 		call	__cxa_end_catch@PLT
 2056      00
 2057              	.LEHE91:
 2058 10e4 E936FAFF 		jmp	.L97
 2058      FF
 2059              	.L134:
 2060 10e9 F30F1EFA 		endbr64
 106:testCore.cpp  **** 	CHECK_EQUAL(3UL, queue.numItems);
 2061              		.loc 3 106 2
 2062 10ed 4889C3   		movq	%rax, %rbx
 2063 10f0 E8000000 		call	__cxa_end_catch@PLT
 2063      00
 2064 10f5 4889D8   		movq	%rbx, %rax
 2065 10f8 4889C7   		movq	%rax, %rdi
 2066              	.LEHB92:
 2067 10fb E8000000 		call	_Unwind_Resume@PLT
 2067      00
 2068              	.LEHE92:
 2069              	.L135:
 2070 1100 F30F1EFA 		endbr64
 107:testCore.cpp  **** 
 2071              		.loc 3 107 2 is_stmt 1
 2072 1104 4889C7   		movq	%rax, %rdi
 2073 1107 E8000000 		call	__cxa_begin_catch@PLT
 2073      00
 2074              	.LEHB93:
 2075 110c E8000000 		call	_ZN8UnitTest11CurrentTest7ResultsEv@PLT
 2075      00
 107:testCore.cpp  **** 
 2076              		.loc 3 107 2 is_stmt 0 discriminator 3
 2077 1111 488B18   		movq	(%rax), %rbx
 2078 1114 E8000000 		call	_ZN8UnitTest11CurrentTest7DetailsEv@PLT
 2078      00
 107:testCore.cpp  **** 
 2079              		.loc 3 107 2 discriminator 11
 2080 1119 488B08   		movq	(%rax), %rcx
 2081 111c 488D4590 		leaq	-112(%rbp), %rax
 2082 1120 BA6B0000 		movl	$107, %edx
 2082      00
 2083 1125 4889CE   		movq	%rcx, %rsi
 2084 1128 4889C7   		movq	%rax, %rdi
 2085 112b E8000000 		call	_ZN8UnitTest11TestDetailsC1ERKS0_i@PLT
 2085      00
 107:testCore.cpp  **** 
 2086              		.loc 3 107 2 discriminator 15
 2087 1130 488D4590 		leaq	-112(%rbp), %rax
 2088 1134 488D1500 		leaq	.LC17(%rip), %rdx
 2088      000000
 2089 113b 4889C6   		movq	%rax, %rsi
 2090 113e 4889DF   		movq	%rbx, %rdi
 2091 1141 E8000000 		call	_ZN8UnitTest11TestResults13OnTestFailureERKNS_11TestDetailsEPKc@PLT
 2091      00
 2092              	.LEHE93:
 2093              	.LEHB94:
 107:testCore.cpp  **** 
 2094              		.loc 3 107 2 discriminator 17
 2095 1146 E8000000 		call	__cxa_end_catch@PLT
 2095      00
 2096              	.LEHE94:
 2097 114b E919FAFF 		jmp	.L100
 2097      FF
 2098              	.L136:
 2099 1150 F30F1EFA 		endbr64
 107:testCore.cpp  **** 
 2100              		.loc 3 107 2
 2101 1154 4889C3   		movq	%rax, %rbx
 2102 1157 E8000000 		call	__cxa_end_catch@PLT
 2102      00
 2103 115c 4889D8   		movq	%rbx, %rax
 2104 115f 4889C7   		movq	%rax, %rdi
 2105              	.LEHB95:
 2106 1162 E8000000 		call	_Unwind_Resume@PLT
 2106      00
 2107              	.LEHE95:
 2108              	.L137:
 2109 1167 F30F1EFA 		endbr64
 110:testCore.cpp  **** 	CHECK_EQUAL(6UL, deref(queue.itemArray[1]));
 2110              		.loc 3 110 2 is_stmt 1
 2111 116b 4889C7   		movq	%rax, %rdi
 2112 116e E8000000 		call	__cxa_begin_catch@PLT
 2112      00
 2113              	.LEHB96:
 2114 1173 E8000000 		call	_ZN8UnitTest11CurrentTest7ResultsEv@PLT
 2114      00
 110:testCore.cpp  **** 	CHECK_EQUAL(6UL, deref(queue.itemArray[1]));
 2115              		.loc 3 110 2 is_stmt 0 discriminator 3
 2116 1178 488B18   		movq	(%rax), %rbx
 2117 117b E8000000 		call	_ZN8UnitTest11CurrentTest7DetailsEv@PLT
 2117      00
 110:testCore.cpp  **** 	CHECK_EQUAL(6UL, deref(queue.itemArray[1]));
 2118              		.loc 3 110 2 discriminator 11
 2119 1180 488B08   		movq	(%rax), %rcx
 2120 1183 488D4590 		leaq	-112(%rbp), %rax
 2121 1187 BA6E0000 		movl	$110, %edx
 2121      00
 2122 118c 4889CE   		movq	%rcx, %rsi
 2123 118f 4889C7   		movq	%rax, %rdi
 2124 1192 E8000000 		call	_ZN8UnitTest11TestDetailsC1ERKS0_i@PLT
 2124      00
 110:testCore.cpp  **** 	CHECK_EQUAL(6UL, deref(queue.itemArray[1]));
 2125              		.loc 3 110 2 discriminator 15
 2126 1197 488D4590 		leaq	-112(%rbp), %rax
 2127 119b 488D1500 		leaq	.LC18(%rip), %rdx
 2127      000000
 2128 11a2 4889C6   		movq	%rax, %rsi
 2129 11a5 4889DF   		movq	%rbx, %rdi
 2130 11a8 E8000000 		call	_ZN8UnitTest11TestResults13OnTestFailureERKNS_11TestDetailsEPKc@PLT
 2130      00
 2131              	.LEHE96:
 2132              	.LEHB97:
 110:testCore.cpp  **** 	CHECK_EQUAL(6UL, deref(queue.itemArray[1]));
 2133              		.loc 3 110 2 discriminator 17
 2134 11ad E8000000 		call	__cxa_end_catch@PLT
 2134      00
 2135              	.LEHE97:
 2136 11b2 E90AFAFF 		jmp	.L103
 2136      FF
 2137              	.L138:
 2138 11b7 F30F1EFA 		endbr64
 110:testCore.cpp  **** 	CHECK_EQUAL(6UL, deref(queue.itemArray[1]));
 2139              		.loc 3 110 2
 2140 11bb 4889C3   		movq	%rax, %rbx
 2141 11be E8000000 		call	__cxa_end_catch@PLT
 2141      00
 2142 11c3 4889D8   		movq	%rbx, %rax
 2143 11c6 4889C7   		movq	%rax, %rdi
 2144              	.LEHB98:
 2145 11c9 E8000000 		call	_Unwind_Resume@PLT
 2145      00
 2146              	.LEHE98:
 2147              	.L139:
 2148 11ce F30F1EFA 		endbr64
 111:testCore.cpp  **** 	CHECK_EQUAL(7UL, deref(queue.itemArray[2]));
 2149              		.loc 3 111 2 is_stmt 1
 2150 11d2 4889C7   		movq	%rax, %rdi
 2151 11d5 E8000000 		call	__cxa_begin_catch@PLT
 2151      00
 2152              	.LEHB99:
 2153 11da E8000000 		call	_ZN8UnitTest11CurrentTest7ResultsEv@PLT
 2153      00
 111:testCore.cpp  **** 	CHECK_EQUAL(7UL, deref(queue.itemArray[2]));
 2154              		.loc 3 111 2 is_stmt 0 discriminator 3
 2155 11df 488B18   		movq	(%rax), %rbx
 2156 11e2 E8000000 		call	_ZN8UnitTest11CurrentTest7DetailsEv@PLT
 2156      00
 111:testCore.cpp  **** 	CHECK_EQUAL(7UL, deref(queue.itemArray[2]));
 2157              		.loc 3 111 2 discriminator 11
 2158 11e7 488B08   		movq	(%rax), %rcx
 2159 11ea 488D4590 		leaq	-112(%rbp), %rax
 2160 11ee BA6F0000 		movl	$111, %edx
 2160      00
 2161 11f3 4889CE   		movq	%rcx, %rsi
 2162 11f6 4889C7   		movq	%rax, %rdi
 2163 11f9 E8000000 		call	_ZN8UnitTest11TestDetailsC1ERKS0_i@PLT
 2163      00
 111:testCore.cpp  **** 	CHECK_EQUAL(7UL, deref(queue.itemArray[2]));
 2164              		.loc 3 111 2 discriminator 15
 2165 11fe 488D4590 		leaq	-112(%rbp), %rax
 2166 1202 488D1500 		leaq	.LC19(%rip), %rdx
 2166      000000
 2167 1209 4889C6   		movq	%rax, %rsi
 2168 120c 4889DF   		movq	%rbx, %rdi
 2169 120f E8000000 		call	_ZN8UnitTest11TestResults13OnTestFailureERKNS_11TestDetailsEPKc@PLT
 2169      00
 2170              	.LEHE99:
 2171              	.LEHB100:
 111:testCore.cpp  **** 	CHECK_EQUAL(7UL, deref(queue.itemArray[2]));
 2172              		.loc 3 111 2 discriminator 17
 2173 1214 E8000000 		call	__cxa_end_catch@PLT
 2173      00
 2174              	.LEHE100:
 2175 1219 E9FFF9FF 		jmp	.L106
 2175      FF
 2176              	.L140:
 2177 121e F30F1EFA 		endbr64
 111:testCore.cpp  **** 	CHECK_EQUAL(7UL, deref(queue.itemArray[2]));
 2178              		.loc 3 111 2
 2179 1222 4889C3   		movq	%rax, %rbx
 2180 1225 E8000000 		call	__cxa_end_catch@PLT
 2180      00
 2181 122a 4889D8   		movq	%rbx, %rax
 2182 122d 4889C7   		movq	%rax, %rdi
 2183              	.LEHB101:
 2184 1230 E8000000 		call	_Unwind_Resume@PLT
 2184      00
 2185              	.LEHE101:
 2186              	.L141:
 2187 1235 F30F1EFA 		endbr64
 112:testCore.cpp  **** 	CHECK_EQUAL(4UL, deref(queue.itemArray[3]));
 2188              		.loc 3 112 2 is_stmt 1
 2189 1239 4889C7   		movq	%rax, %rdi
 2190 123c E8000000 		call	__cxa_begin_catch@PLT
 2190      00
 2191              	.LEHB102:
 2192 1241 E8000000 		call	_ZN8UnitTest11CurrentTest7ResultsEv@PLT
 2192      00
 112:testCore.cpp  **** 	CHECK_EQUAL(4UL, deref(queue.itemArray[3]));
 2193              		.loc 3 112 2 is_stmt 0 discriminator 3
 2194 1246 488B18   		movq	(%rax), %rbx
 2195 1249 E8000000 		call	_ZN8UnitTest11CurrentTest7DetailsEv@PLT
 2195      00
 112:testCore.cpp  **** 	CHECK_EQUAL(4UL, deref(queue.itemArray[3]));
 2196              		.loc 3 112 2 discriminator 11
 2197 124e 488B08   		movq	(%rax), %rcx
 2198 1251 488D4590 		leaq	-112(%rbp), %rax
 2199 1255 BA700000 		movl	$112, %edx
 2199      00
 2200 125a 4889CE   		movq	%rcx, %rsi
 2201 125d 4889C7   		movq	%rax, %rdi
 2202 1260 E8000000 		call	_ZN8UnitTest11TestDetailsC1ERKS0_i@PLT
 2202      00
 112:testCore.cpp  **** 	CHECK_EQUAL(4UL, deref(queue.itemArray[3]));
 2203              		.loc 3 112 2 discriminator 15
 2204 1265 488D4590 		leaq	-112(%rbp), %rax
 2205 1269 488D1500 		leaq	.LC20(%rip), %rdx
 2205      000000
 2206 1270 4889C6   		movq	%rax, %rsi
 2207 1273 4889DF   		movq	%rbx, %rdi
 2208 1276 E8000000 		call	_ZN8UnitTest11TestResults13OnTestFailureERKNS_11TestDetailsEPKc@PLT
 2208      00
 2209              	.LEHE102:
 2210              	.LEHB103:
 112:testCore.cpp  **** 	CHECK_EQUAL(4UL, deref(queue.itemArray[3]));
 2211              		.loc 3 112 2 discriminator 17
 2212 127b E8000000 		call	__cxa_end_catch@PLT
 2212      00
 2213              	.LEHE103:
 2214 1280 E9F4F9FF 		jmp	.L109
 2214      FF
 2215              	.L142:
 2216 1285 F30F1EFA 		endbr64
 112:testCore.cpp  **** 	CHECK_EQUAL(4UL, deref(queue.itemArray[3]));
 2217              		.loc 3 112 2
 2218 1289 4889C3   		movq	%rax, %rbx
 2219 128c E8000000 		call	__cxa_end_catch@PLT
 2219      00
 2220 1291 4889D8   		movq	%rbx, %rax
 2221 1294 4889C7   		movq	%rax, %rdi
 2222              	.LEHB104:
 2223 1297 E8000000 		call	_Unwind_Resume@PLT
 2223      00
 2224              	.LEHE104:
 2225              	.L143:
 2226 129c F30F1EFA 		endbr64
 113:testCore.cpp  **** 
 2227              		.loc 3 113 2 is_stmt 1
 2228 12a0 4889C7   		movq	%rax, %rdi
 2229 12a3 E8000000 		call	__cxa_begin_catch@PLT
 2229      00
 2230              	.LEHB105:
 2231 12a8 E8000000 		call	_ZN8UnitTest11CurrentTest7ResultsEv@PLT
 2231      00
 113:testCore.cpp  **** 
 2232              		.loc 3 113 2 is_stmt 0 discriminator 3
 2233 12ad 488B18   		movq	(%rax), %rbx
 2234 12b0 E8000000 		call	_ZN8UnitTest11CurrentTest7DetailsEv@PLT
 2234      00
 113:testCore.cpp  **** 
 2235              		.loc 3 113 2 discriminator 11
 2236 12b5 488B08   		movq	(%rax), %rcx
 2237 12b8 488D4590 		leaq	-112(%rbp), %rax
 2238 12bc BA710000 		movl	$113, %edx
 2238      00
 2239 12c1 4889CE   		movq	%rcx, %rsi
 2240 12c4 4889C7   		movq	%rax, %rdi
 2241 12c7 E8000000 		call	_ZN8UnitTest11TestDetailsC1ERKS0_i@PLT
 2241      00
 113:testCore.cpp  **** 
 2242              		.loc 3 113 2 discriminator 15
 2243 12cc 488D4590 		leaq	-112(%rbp), %rax
 2244 12d0 488D1500 		leaq	.LC11(%rip), %rdx
 2244      000000
 2245 12d7 4889C6   		movq	%rax, %rsi
 2246 12da 4889DF   		movq	%rbx, %rdi
 2247 12dd E8000000 		call	_ZN8UnitTest11TestResults13OnTestFailureERKNS_11TestDetailsEPKc@PLT
 2247      00
 2248              	.LEHE105:
 2249              	.LEHB106:
 113:testCore.cpp  **** 
 2250              		.loc 3 113 2 discriminator 17
 2251 12e2 E8000000 		call	__cxa_end_catch@PLT
 2251      00
 2252              	.LEHE106:
 2253 12e7 E9E9F9FF 		jmp	.L112
 2253      FF
 2254              	.L144:
 2255 12ec F30F1EFA 		endbr64
 113:testCore.cpp  **** 
 2256              		.loc 3 113 2
 2257 12f0 4889C3   		movq	%rax, %rbx
 2258 12f3 E8000000 		call	__cxa_end_catch@PLT
 2258      00
 2259 12f8 4889D8   		movq	%rbx, %rax
 2260 12fb 4889C7   		movq	%rax, %rdi
 2261              	.LEHB107:
 2262 12fe E8000000 		call	_Unwind_Resume@PLT
 2262      00
 2263              	.LEHE107:
 2264              	.L145:
 2265              		.loc 3 117 1 is_stmt 1
 2266 1303 E8000000 		call	__stack_chk_fail@PLT
 2266      00
 2267              	.L114:
 2268 1308 488B5DF8 		movq	-8(%rbp), %rbx
 2269 130c C9       		leave
 2270              		.cfi_def_cfa 7, 8
 2271 130d C3       		ret
 2272              		.cfi_endproc
 2273              	.LFE1169:
 2274              		.section	.gcc_except_table
 2275              		.align 4
 2276              	.LLSDA1169:
 2277 00dc FF       		.byte	0xff
 2278 00dd 9B       		.byte	0x9b
 2279 00de F002     		.uleb128 .LLSDATT1169-.LLSDATTD1169
 2280              	.LLSDATTD1169:
 2281 00e0 01       		.byte	0x1
 2282 00e1 E602     		.uleb128 .LLSDACSE1169-.LLSDACSB1169
 2283              	.LLSDACSB1169:
 2284 00e3 4D       		.uleb128 .LEHB42-.LFB1169
 2285 00e4 05       		.uleb128 .LEHE42-.LEHB42
 2286 00e5 00       		.uleb128 0
 2287 00e6 00       		.uleb128 0
 2288 00e7 58       		.uleb128 .LEHB43-.LFB1169
 2289 00e8 42       		.uleb128 .LEHE43-.LEHB43
 2290 00e9 F80A     		.uleb128 .L115-.LFB1169
 2291 00eb 01       		.uleb128 0x1
 2292 00ec A801     		.uleb128 .LEHB44-.LFB1169
 2293 00ee 05       		.uleb128 .LEHE44-.LEHB44
 2294 00ef 00       		.uleb128 0
 2295 00f0 00       		.uleb128 0
 2296 00f1 B301     		.uleb128 .LEHB45-.LFB1169
 2297 00f3 42       		.uleb128 .LEHE45-.LEHB45
 2298 00f4 DF0B     		.uleb128 .L117-.LFB1169
 2299 00f6 01       		.uleb128 0x1
 2300 00f7 F501     		.uleb128 .LEHB46-.LFB1169
 2301 00f9 46       		.uleb128 .LEHE46-.LEHB46
 2302 00fa C60C     		.uleb128 .L119-.LFB1169
 2303 00fc 01       		.uleb128 0x1
 2304 00fd CC02     		.uleb128 .LEHB47-.LFB1169
 2305 00ff 18       		.uleb128 .LEHE47-.LEHB47
 2306 0100 00       		.uleb128 0
 2307 0101 00       		.uleb128 0
 2308 0102 EA02     		.uleb128 .LEHB48-.LFB1169
 2309 0104 42       		.uleb128 .LEHE48-.LEHB48
 2310 0105 AD0D     		.uleb128 .L121-.LFB1169
 2311 0107 01       		.uleb128 0x1
 2312 0108 AC03     		.uleb128 .LEHB49-.LFB1169
 2313 010a 46       		.uleb128 .LEHE49-.LEHB49
 2314 010b 940E     		.uleb128 .L123-.LFB1169
 2315 010d 01       		.uleb128 0x1
 2316 010e 8304     		.uleb128 .LEHB50-.LFB1169
 2317 0110 18       		.uleb128 .LEHE50-.LEHB50
 2318 0111 00       		.uleb128 0
 2319 0112 00       		.uleb128 0
 2320 0113 A104     		.uleb128 .LEHB51-.LFB1169
 2321 0115 42       		.uleb128 .LEHE51-.LEHB51
 2322 0116 FB0E     		.uleb128 .L125-.LFB1169
 2323 0118 01       		.uleb128 0x1
 2324 0119 E304     		.uleb128 .LEHB52-.LFB1169
 2325 011b 46       		.uleb128 .LEHE52-.LEHB52
 2326 011c E20F     		.uleb128 .L127-.LFB1169
 2327 011e 01       		.uleb128 0x1
 2328 011f BA05     		.uleb128 .LEHB53-.LFB1169
 2329 0121 05       		.uleb128 .LEHE53-.LEHB53
 2330 0122 00       		.uleb128 0
 2331 0123 00       		.uleb128 0
 2332 0124 BF05     		.uleb128 .LEHB54-.LFB1169
 2333 0126 4A       		.uleb128 .LEHE54-.LEHB54
 2334 0127 C910     		.uleb128 .L129-.LFB1169
 2335 0129 01       		.uleb128 0x1
 2336 012a 8906     		.uleb128 .LEHB55-.LFB1169
 2337 012c 4A       		.uleb128 .LEHE55-.LEHB55
 2338 012d B011     		.uleb128 .L131-.LFB1169
 2339 012f 01       		.uleb128 0x1
 2340 0130 D306     		.uleb128 .LEHB56-.LFB1169
 2341 0132 4A       		.uleb128 .LEHE56-.LEHB56
 2342 0133 9712     		.uleb128 .L133-.LFB1169
 2343 0135 01       		.uleb128 0x1
 2344 0136 9D07     		.uleb128 .LEHB57-.LFB1169
 2345 0138 4A       		.uleb128 .LEHE57-.LEHB57
 2346 0139 FE12     		.uleb128 .L135-.LFB1169
 2347 013b 01       		.uleb128 0x1
 2348 013c E707     		.uleb128 .LEHB58-.LFB1169
 2349 013e 58       		.uleb128 .LEHE58-.LEHB58
 2350 013f E513     		.uleb128 .L137-.LFB1169
 2351 0141 01       		.uleb128 0x1
 2352 0142 BF08     		.uleb128 .LEHB59-.LFB1169
 2353 0144 5C       		.uleb128 .LEHE59-.LEHB59
 2354 0145 CC14     		.uleb128 .L139-.LFB1169
 2355 0147 01       		.uleb128 0x1
 2356 0148 9B09     		.uleb128 .LEHB60-.LFB1169
 2357 014a 5C       		.uleb128 .LEHE60-.LEHB60
 2358 014b B315     		.uleb128 .L141-.LFB1169
 2359 014d 01       		.uleb128 0x1
 2360 014e F709     		.uleb128 .LEHB61-.LFB1169
 2361 0150 5C       		.uleb128 .LEHE61-.LEHB61
 2362 0151 9A16     		.uleb128 .L143-.LFB1169
 2363 0153 01       		.uleb128 0x1
 2364 0154 DA0A     		.uleb128 .LEHB62-.LFB1169
 2365 0156 05       		.uleb128 .LEHE62-.LEHB62
 2366 0157 00       		.uleb128 0
 2367 0158 00       		.uleb128 0
 2368 0159 840B     		.uleb128 .LEHB63-.LFB1169
 2369 015b 3A       		.uleb128 .LEHE63-.LEHB63
 2370 015c C80B     		.uleb128 .L116-.LFB1169
 2371 015e 00       		.uleb128 0
 2372 015f BE0B     		.uleb128 .LEHB64-.LFB1169
 2373 0161 05       		.uleb128 .LEHE64-.LEHB64
 2374 0162 00       		.uleb128 0
 2375 0163 00       		.uleb128 0
 2376 0164 DA0B     		.uleb128 .LEHB65-.LFB1169
 2377 0166 05       		.uleb128 .LEHE65-.LEHB65
 2378 0167 00       		.uleb128 0
 2379 0168 00       		.uleb128 0
 2380 0169 EB0B     		.uleb128 .LEHB66-.LFB1169
 2381 016b 3A       		.uleb128 .LEHE66-.LEHB66
 2382 016c AF0C     		.uleb128 .L118-.LFB1169
 2383 016e 00       		.uleb128 0
 2384 016f A50C     		.uleb128 .LEHB67-.LFB1169
 2385 0171 05       		.uleb128 .LEHE67-.LEHB67
 2386 0172 00       		.uleb128 0
 2387 0173 00       		.uleb128 0
 2388 0174 C10C     		.uleb128 .LEHB68-.LFB1169
 2389 0176 05       		.uleb128 .LEHE68-.LEHB68
 2390 0177 00       		.uleb128 0
 2391 0178 00       		.uleb128 0
 2392 0179 D20C     		.uleb128 .LEHB69-.LFB1169
 2393 017b 3A       		.uleb128 .LEHE69-.LEHB69
 2394 017c 960D     		.uleb128 .L120-.LFB1169
 2395 017e 00       		.uleb128 0
 2396 017f 8C0D     		.uleb128 .LEHB70-.LFB1169
 2397 0181 05       		.uleb128 .LEHE70-.LEHB70
 2398 0182 00       		.uleb128 0
 2399 0183 00       		.uleb128 0
 2400 0184 A80D     		.uleb128 .LEHB71-.LFB1169
 2401 0186 05       		.uleb128 .LEHE71-.LEHB71
 2402 0187 00       		.uleb128 0
 2403 0188 00       		.uleb128 0
 2404 0189 B90D     		.uleb128 .LEHB72-.LFB1169
 2405 018b 3A       		.uleb128 .LEHE72-.LEHB72
 2406 018c FD0D     		.uleb128 .L122-.LFB1169
 2407 018e 00       		.uleb128 0
 2408 018f F30D     		.uleb128 .LEHB73-.LFB1169
 2409 0191 05       		.uleb128 .LEHE73-.LEHB73
 2410 0192 00       		.uleb128 0
 2411 0193 00       		.uleb128 0
 2412 0194 8F0E     		.uleb128 .LEHB74-.LFB1169
 2413 0196 05       		.uleb128 .LEHE74-.LEHB74
 2414 0197 00       		.uleb128 0
 2415 0198 00       		.uleb128 0
 2416 0199 A00E     		.uleb128 .LEHB75-.LFB1169
 2417 019b 3A       		.uleb128 .LEHE75-.LEHB75
 2418 019c E40E     		.uleb128 .L124-.LFB1169
 2419 019e 00       		.uleb128 0
 2420 019f DA0E     		.uleb128 .LEHB76-.LFB1169
 2421 01a1 05       		.uleb128 .LEHE76-.LEHB76
 2422 01a2 00       		.uleb128 0
 2423 01a3 00       		.uleb128 0
 2424 01a4 F60E     		.uleb128 .LEHB77-.LFB1169
 2425 01a6 05       		.uleb128 .LEHE77-.LEHB77
 2426 01a7 00       		.uleb128 0
 2427 01a8 00       		.uleb128 0
 2428 01a9 870F     		.uleb128 .LEHB78-.LFB1169
 2429 01ab 3A       		.uleb128 .LEHE78-.LEHB78
 2430 01ac CB0F     		.uleb128 .L126-.LFB1169
 2431 01ae 00       		.uleb128 0
 2432 01af C10F     		.uleb128 .LEHB79-.LFB1169
 2433 01b1 05       		.uleb128 .LEHE79-.LEHB79
 2434 01b2 00       		.uleb128 0
 2435 01b3 00       		.uleb128 0
 2436 01b4 DD0F     		.uleb128 .LEHB80-.LFB1169
 2437 01b6 05       		.uleb128 .LEHE80-.LEHB80
 2438 01b7 00       		.uleb128 0
 2439 01b8 00       		.uleb128 0
 2440 01b9 EE0F     		.uleb128 .LEHB81-.LFB1169
 2441 01bb 3A       		.uleb128 .LEHE81-.LEHB81
 2442 01bc B210     		.uleb128 .L128-.LFB1169
 2443 01be 00       		.uleb128 0
 2444 01bf A810     		.uleb128 .LEHB82-.LFB1169
 2445 01c1 05       		.uleb128 .LEHE82-.LEHB82
 2446 01c2 00       		.uleb128 0
 2447 01c3 00       		.uleb128 0
 2448 01c4 C410     		.uleb128 .LEHB83-.LFB1169
 2449 01c6 05       		.uleb128 .LEHE83-.LEHB83
 2450 01c7 00       		.uleb128 0
 2451 01c8 00       		.uleb128 0
 2452 01c9 D510     		.uleb128 .LEHB84-.LFB1169
 2453 01cb 3A       		.uleb128 .LEHE84-.LEHB84
 2454 01cc 9911     		.uleb128 .L130-.LFB1169
 2455 01ce 00       		.uleb128 0
 2456 01cf 8F11     		.uleb128 .LEHB85-.LFB1169
 2457 01d1 05       		.uleb128 .LEHE85-.LEHB85
 2458 01d2 00       		.uleb128 0
 2459 01d3 00       		.uleb128 0
 2460 01d4 AB11     		.uleb128 .LEHB86-.LFB1169
 2461 01d6 05       		.uleb128 .LEHE86-.LEHB86
 2462 01d7 00       		.uleb128 0
 2463 01d8 00       		.uleb128 0
 2464 01d9 BC11     		.uleb128 .LEHB87-.LFB1169
 2465 01db 3A       		.uleb128 .LEHE87-.LEHB87
 2466 01dc 8012     		.uleb128 .L132-.LFB1169
 2467 01de 00       		.uleb128 0
 2468 01df F611     		.uleb128 .LEHB88-.LFB1169
 2469 01e1 05       		.uleb128 .LEHE88-.LEHB88
 2470 01e2 00       		.uleb128 0
 2471 01e3 00       		.uleb128 0
 2472 01e4 9212     		.uleb128 .LEHB89-.LFB1169
 2473 01e6 05       		.uleb128 .LEHE89-.LEHB89
 2474 01e7 00       		.uleb128 0
 2475 01e8 00       		.uleb128 0
 2476 01e9 A312     		.uleb128 .LEHB90-.LFB1169
 2477 01eb 3A       		.uleb128 .LEHE90-.LEHB90
 2478 01ec E712     		.uleb128 .L134-.LFB1169
 2479 01ee 00       		.uleb128 0
 2480 01ef DD12     		.uleb128 .LEHB91-.LFB1169
 2481 01f1 05       		.uleb128 .LEHE91-.LEHB91
 2482 01f2 00       		.uleb128 0
 2483 01f3 00       		.uleb128 0
 2484 01f4 F912     		.uleb128 .LEHB92-.LFB1169
 2485 01f6 05       		.uleb128 .LEHE92-.LEHB92
 2486 01f7 00       		.uleb128 0
 2487 01f8 00       		.uleb128 0
 2488 01f9 8A13     		.uleb128 .LEHB93-.LFB1169
 2489 01fb 3A       		.uleb128 .LEHE93-.LEHB93
 2490 01fc CE13     		.uleb128 .L136-.LFB1169
 2491 01fe 00       		.uleb128 0
 2492 01ff C413     		.uleb128 .LEHB94-.LFB1169
 2493 0201 05       		.uleb128 .LEHE94-.LEHB94
 2494 0202 00       		.uleb128 0
 2495 0203 00       		.uleb128 0
 2496 0204 E013     		.uleb128 .LEHB95-.LFB1169
 2497 0206 05       		.uleb128 .LEHE95-.LEHB95
 2498 0207 00       		.uleb128 0
 2499 0208 00       		.uleb128 0
 2500 0209 F113     		.uleb128 .LEHB96-.LFB1169
 2501 020b 3A       		.uleb128 .LEHE96-.LEHB96
 2502 020c B514     		.uleb128 .L138-.LFB1169
 2503 020e 00       		.uleb128 0
 2504 020f AB14     		.uleb128 .LEHB97-.LFB1169
 2505 0211 05       		.uleb128 .LEHE97-.LEHB97
 2506 0212 00       		.uleb128 0
 2507 0213 00       		.uleb128 0
 2508 0214 C714     		.uleb128 .LEHB98-.LFB1169
 2509 0216 05       		.uleb128 .LEHE98-.LEHB98
 2510 0217 00       		.uleb128 0
 2511 0218 00       		.uleb128 0
 2512 0219 D814     		.uleb128 .LEHB99-.LFB1169
 2513 021b 3A       		.uleb128 .LEHE99-.LEHB99
 2514 021c 9C15     		.uleb128 .L140-.LFB1169
 2515 021e 00       		.uleb128 0
 2516 021f 9215     		.uleb128 .LEHB100-.LFB1169
 2517 0221 05       		.uleb128 .LEHE100-.LEHB100
 2518 0222 00       		.uleb128 0
 2519 0223 00       		.uleb128 0
 2520 0224 AE15     		.uleb128 .LEHB101-.LFB1169
 2521 0226 05       		.uleb128 .LEHE101-.LEHB101
 2522 0227 00       		.uleb128 0
 2523 0228 00       		.uleb128 0
 2524 0229 BF15     		.uleb128 .LEHB102-.LFB1169
 2525 022b 3A       		.uleb128 .LEHE102-.LEHB102
 2526 022c 8316     		.uleb128 .L142-.LFB1169
 2527 022e 00       		.uleb128 0
 2528 022f F915     		.uleb128 .LEHB103-.LFB1169
 2529 0231 05       		.uleb128 .LEHE103-.LEHB103
 2530 0232 00       		.uleb128 0
 2531 0233 00       		.uleb128 0
 2532 0234 9516     		.uleb128 .LEHB104-.LFB1169
 2533 0236 05       		.uleb128 .LEHE104-.LEHB104
 2534 0237 00       		.uleb128 0
 2535 0238 00       		.uleb128 0
 2536 0239 A616     		.uleb128 .LEHB105-.LFB1169
 2537 023b 3A       		.uleb128 .LEHE105-.LEHB105
 2538 023c EA16     		.uleb128 .L144-.LFB1169
 2539 023e 00       		.uleb128 0
 2540 023f E016     		.uleb128 .LEHB106-.LFB1169
 2541 0241 05       		.uleb128 .LEHE106-.LEHB106
 2542 0242 00       		.uleb128 0
 2543 0243 00       		.uleb128 0
 2544 0244 FC16     		.uleb128 .LEHB107-.LFB1169
 2545 0246 05       		.uleb128 .LEHE107-.LEHB107
 2546 0247 00       		.uleb128 0
 2547 0248 00       		.uleb128 0
 2548              	.LLSDACSE1169:
 2549 0249 01       		.byte	0x1
 2550 024a 00       		.byte	0
 2551 024b 00       		.align 4
 2552 024c 00000000 		.long	0
 2553              	
 2554              	.LLSDATT1169:
 2555              		.text
 2557              		.section	.rodata
 2558              	.LC21:
 2559 0453 51756575 		.string	"Queue_testPutWrap"
 2559      655F7465 
 2559      73745075 
 2559      74577261 
 2559      7000
 2560              		.section	.text._ZN21TestQueue_testPutWrapC2Ev,"axG",@progbits,_ZN21TestQueue_testPutWrapC5Ev,comda
 2561              		.align 2
 2562              		.weak	_ZN21TestQueue_testPutWrapC2Ev
 2564              	_ZN21TestQueue_testPutWrapC2Ev:
 2565              	.LFB1171:
 118:testCore.cpp  **** 
 119:testCore.cpp  **** TEST(Queue_testPutWrap) {
 2566              		.loc 3 119 1
 2567              		.cfi_startproc
 2568 0000 F30F1EFA 		endbr64
 2569 0004 55       		pushq	%rbp
 2570              		.cfi_def_cfa_offset 16
 2571              		.cfi_offset 6, -16
 2572 0005 4889E5   		movq	%rsp, %rbp
 2573              		.cfi_def_cfa_register 6
 2574 0008 53       		pushq	%rbx
 2575 0009 4883EC18 		subq	$24, %rsp
 2576              		.cfi_offset 3, -24
 2577 000d 48897DE8 		movq	%rdi, -24(%rbp)
 2578              	.LBB6:
 2579              		.loc 3 119 1
 2580 0011 488B5DE8 		movq	-24(%rbp), %rbx
 2581 0015 E8000000 		call	_ZN13UnitTestSuite12GetSuiteNameEv
 2581      00
 2582 001a 4889C2   		movq	%rax, %rdx
 2583 001d 41B87700 		movl	$119, %r8d
 2583      0000
 2584 0023 488D0500 		leaq	.LC1(%rip), %rax
 2584      000000
 2585 002a 4889C1   		movq	%rax, %rcx
 2586 002d 488D0500 		leaq	.LC21(%rip), %rax
 2586      000000
 2587 0034 4889C6   		movq	%rax, %rsi
 2588 0037 4889DF   		movq	%rbx, %rdi
 2589 003a E8000000 		call	_ZN8UnitTest4TestC2EPKcS2_S2_i@PLT
 2589      00
 2590 003f 488D1500 		leaq	16+_ZTV21TestQueue_testPutWrap(%rip), %rdx
 2590      000000
 2591 0046 488B45E8 		movq	-24(%rbp), %rax
 2592 004a 488910   		movq	%rdx, (%rax)
 2593              	.LBE6:
 2594 004d 90       		nop
 2595 004e 488B5DF8 		movq	-8(%rbp), %rbx
 2596 0052 C9       		leave
 2597              		.cfi_def_cfa 7, 8
 2598 0053 C3       		ret
 2599              		.cfi_endproc
 2600              	.LFE1171:
 2602              		.weak	_ZN21TestQueue_testPutWrapC1Ev
 2603              		.set	_ZN21TestQueue_testPutWrapC1Ev,_ZN21TestQueue_testPutWrapC2Ev
 2604              		.globl	testQueue_testPutWrapInstance
 2605              		.bss
 2606 0079 00000000 		.align 32
 2606      000000
 2609              	testQueue_testPutWrapInstance:
 2610 0080 00000000 		.zero	56
 2610      00000000 
 2610      00000000 
 2610      00000000 
 2610      00000000 
 2611              		.globl	adderQueue_testPutWrap
 2614              	adderQueue_testPutWrap:
 2615 00b8 00       		.zero	1
 2616              		.section	.rodata
 2617 0465 000000   		.align 8
 2618              	.LC22:
 2619 0468 556E6861 		.string	"Unhandled exception in CHECK_EQUAL(4UL, *item)"
 2619      6E646C65 
 2619      64206578 
 2619      63657074 
 2619      696F6E20 
 2620 0497 00       		.align 8
 2621              	.LC23:
 2622 0498 556E6861 		.string	"Unhandled exception in CHECK_EQUAL(4UL, queue.numItems)"
 2622      6E646C65 
 2622      64206578 
 2622      63657074 
 2622      696F6E20 
 2623              		.align 8
 2624              	.LC24:
 2625 04d0 556E6861 		.string	"Unhandled exception in CHECK_EQUAL(8UL, deref(queue.itemArray[3]))"
 2625      6E646C65 
 2625      64206578 
 2625      63657074 
 2625      696F6E20 
 2626              		.text
 2627              		.align 2
 2628              		.globl	_ZNK21TestQueue_testPutWrap7RunImplEv
 2630              	_ZNK21TestQueue_testPutWrap7RunImplEv:
 2631              	.LFB1173:
 2632              		.loc 3 119 25
 2633              		.cfi_startproc
 2634              		.cfi_personality 0x9b,DW.ref.__gxx_personality_v0
 2635              		.cfi_lsda 0x1b,.LLSDA1173
 2636 130e F30F1EFA 		endbr64
 2637 1312 55       		pushq	%rbp
 2638              		.cfi_def_cfa_offset 16
 2639              		.cfi_offset 6, -16
 2640 1313 4889E5   		movq	%rsp, %rbp
 2641              		.cfi_def_cfa_register 6
 2642 1316 53       		pushq	%rbx
 2643 1317 4881EC98 		subq	$152, %rsp
 2643      000000
 2644              		.cfi_offset 3, -24
 2645 131e 4889BD68 		movq	%rdi, -152(%rbp)
 2645      FFFFFF
 2646              		.loc 3 119 25
 2647 1325 64488B04 		movq	%fs:40, %rax
 2647      25280000 
 2647      00
 2648 132e 488945E8 		movq	%rax, -24(%rbp)
 2649 1332 31C0     		xorl	%eax, %eax
 120:testCore.cpp  **** 	struct UnboundedQueue queue;
 121:testCore.cpp  **** 	uint32 *item;
 122:testCore.cpp  **** 	m_count = 1;
 2650              		.loc 3 122 10
 2651 1334 C7050000 		movl	$1, _ZL7m_count(%rip)
 2651      00000100 
 2651      0000
 123:testCore.cpp  **** 
 124:testCore.cpp  **** 	// Create queue
 125:testCore.cpp  **** 	USBStatus status = queueInit(&queue, 4, (CreateFunc)createInt, (DestroyFunc)destroyInt);
 2652              		.loc 3 125 30
 2653 133e 488D45B0 		leaq	-80(%rbp), %rax
 2654 1342 488D1500 		leaq	destroyInt(%rip), %rdx
 2654      000000
 2655 1349 4889D1   		movq	%rdx, %rcx
 2656 134c 488D1500 		leaq	createInt(%rip), %rdx
 2656      000000
 2657 1353 BE040000 		movl	$4, %esi
 2657      00
 2658 1358 4889C7   		movq	%rax, %rdi
 2659              	.LEHB108:
 2660 135b E8000000 		call	queueInit@PLT
 2660      00
 2661              	.LEHE108:
 2662              		.loc 3 125 88
 2663 1360 898578FF 		movl	%eax, -136(%rbp)
 2663      FFFF
 2664              	.LEHB109:
 126:testCore.cpp  **** 	CHECK_EQUAL(USB_SUCCESS, status);
 2665              		.loc 3 126 2
 2666 1366 E8000000 		call	_ZN8UnitTest11CurrentTest7DetailsEv@PLT
 2666      00
 2667 136b 488B08   		movq	(%rax), %rcx
 2668 136e 488D4590 		leaq	-112(%rbp), %rax
 2669 1372 BA7E0000 		movl	$126, %edx
 2669      00
 2670 1377 4889CE   		movq	%rcx, %rsi
 2671 137a 4889C7   		movq	%rax, %rdi
 2672 137d E8000000 		call	_ZN8UnitTest11TestDetailsC1ERKS0_i@PLT
 2672      00
 2673              		.loc 3 126 2 is_stmt 0 discriminator 4
 2674 1382 C7458800 		movl	$0, -120(%rbp)
 2674      000000
 2675 1389 E8000000 		call	_ZN8UnitTest11CurrentTest7ResultsEv@PLT
 2675      00
 2676 138e 488B00   		movq	(%rax), %rax
 2677 1391 488D4D90 		leaq	-112(%rbp), %rcx
 2678 1395 488D9578 		leaq	-136(%rbp), %rdx
 2678      FFFFFF
 2679 139c 488D7588 		leaq	-120(%rbp), %rsi
 2680 13a0 4889C7   		movq	%rax, %rdi
 2681 13a3 E8000000 		call	_ZN8UnitTest10CheckEqualI9USBStatusS1_EEvRNS_11TestResultsERKT_RKT0_RKNS_11TestDetailsE
 2681      00
 2682              	.LEHE109:
 2683              	.L149:
 127:testCore.cpp  **** 
 128:testCore.cpp  **** 	// Put four items into the queue
 129:testCore.cpp  **** 	status = queuePut(&queue, (Item*)&item);
 2684              		.loc 3 129 19 is_stmt 1
 2685 13a8 488D5580 		leaq	-128(%rbp), %rdx
 2686 13ac 488D45B0 		leaq	-80(%rbp), %rax
 2687 13b0 4889D6   		movq	%rdx, %rsi
 2688 13b3 4889C7   		movq	%rax, %rdi
 2689              	.LEHB110:
 2690 13b6 E8000000 		call	queuePut@PLT
 2690      00
 2691              	.LEHE110:
 2692              		.loc 3 129 9
 2693 13bb 898578FF 		movl	%eax, -136(%rbp)
 2693      FFFF
 2694              	.LEHB111:
 130:testCore.cpp  **** 	CHECK_EQUAL(USB_SUCCESS, status);
 2695              		.loc 3 130 2
 2696 13c1 E8000000 		call	_ZN8UnitTest11CurrentTest7DetailsEv@PLT
 2696      00
 2697 13c6 488B08   		movq	(%rax), %rcx
 2698 13c9 488D4590 		leaq	-112(%rbp), %rax
 2699 13cd BA820000 		movl	$130, %edx
 2699      00
 2700 13d2 4889CE   		movq	%rcx, %rsi
 2701 13d5 4889C7   		movq	%rax, %rdi
 2702 13d8 E8000000 		call	_ZN8UnitTest11TestDetailsC1ERKS0_i@PLT
 2702      00
 2703              		.loc 3 130 2 is_stmt 0 discriminator 4
 2704 13dd C7458800 		movl	$0, -120(%rbp)
 2704      000000
 2705 13e4 E8000000 		call	_ZN8UnitTest11CurrentTest7ResultsEv@PLT
 2705      00
 2706 13e9 488B00   		movq	(%rax), %rax
 2707 13ec 488D4D90 		leaq	-112(%rbp), %rcx
 2708 13f0 488D9578 		leaq	-136(%rbp), %rdx
 2708      FFFFFF
 2709 13f7 488D7588 		leaq	-120(%rbp), %rsi
 2710 13fb 4889C7   		movq	%rax, %rdi
 2711 13fe E8000000 		call	_ZN8UnitTest10CheckEqualI9USBStatusS1_EEvRNS_11TestResultsERKT_RKT0_RKNS_11TestDetailsE
 2711      00
 2712              	.LEHE111:
 2713              	.L152:
 2714              	.LEHB112:
 131:testCore.cpp  **** 	CHECK_EQUAL(1UL, *item);
 2715              		.loc 3 131 2 is_stmt 1
 2716 1403 E8000000 		call	_ZN8UnitTest11CurrentTest7DetailsEv@PLT
 2716      00
 2717 1408 488B08   		movq	(%rax), %rcx
 2718 140b 488D4590 		leaq	-112(%rbp), %rax
 2719 140f BA830000 		movl	$131, %edx
 2719      00
 2720 1414 4889CE   		movq	%rcx, %rsi
 2721 1417 4889C7   		movq	%rax, %rdi
 2722 141a E8000000 		call	_ZN8UnitTest11TestDetailsC1ERKS0_i@PLT
 2722      00
 2723              		.loc 3 131 2 is_stmt 0 discriminator 4
 2724 141f 488B5D80 		movq	-128(%rbp), %rbx
 2725 1423 48C74588 		movq	$1, -120(%rbp)
 2725      01000000 
 2726 142b E8000000 		call	_ZN8UnitTest11CurrentTest7ResultsEv@PLT
 2726      00
 2727 1430 488B00   		movq	(%rax), %rax
 2728 1433 488D5590 		leaq	-112(%rbp), %rdx
 2729 1437 488D7588 		leaq	-120(%rbp), %rsi
 2730 143b 4889D1   		movq	%rdx, %rcx
 2731 143e 4889DA   		movq	%rbx, %rdx
 2732 1441 4889C7   		movq	%rax, %rdi
 2733 1444 E8000000 		call	_ZN8UnitTest10CheckEqualImjEEvRNS_11TestResultsERKT_RKT0_RKNS_11TestDetailsE
 2733      00
 2734              	.LEHE112:
 2735              	.L155:
 132:testCore.cpp  **** 	*item = 5;
 2736              		.loc 3 132 2 is_stmt 1
 2737 1449 488B4580 		movq	-128(%rbp), %rax
 2738              		.loc 3 132 8
 2739 144d C7000500 		movl	$5, (%rax)
 2739      0000
 133:testCore.cpp  **** 	queueCommitPut(&queue);
 2740              		.loc 3 133 16
 2741 1453 488D45B0 		leaq	-80(%rbp), %rax
 2742 1457 4889C7   		movq	%rax, %rdi
 2743              	.LEHB113:
 2744 145a E8000000 		call	queueCommitPut@PLT
 2744      00
 134:testCore.cpp  **** 	status = queuePut(&queue, (Item*)&item);
 2745              		.loc 3 134 19
 2746 145f 488D5580 		leaq	-128(%rbp), %rdx
 2747 1463 488D45B0 		leaq	-80(%rbp), %rax
 2748 1467 4889D6   		movq	%rdx, %rsi
 2749 146a 4889C7   		movq	%rax, %rdi
 2750 146d E8000000 		call	queuePut@PLT
 2750      00
 2751              	.LEHE113:
 2752              		.loc 3 134 9
 2753 1472 898578FF 		movl	%eax, -136(%rbp)
 2753      FFFF
 2754              	.LEHB114:
 135:testCore.cpp  **** 	CHECK_EQUAL(USB_SUCCESS, status);
 2755              		.loc 3 135 2
 2756 1478 E8000000 		call	_ZN8UnitTest11CurrentTest7DetailsEv@PLT
 2756      00
 2757 147d 488B08   		movq	(%rax), %rcx
 2758 1480 488D4590 		leaq	-112(%rbp), %rax
 2759 1484 BA870000 		movl	$135, %edx
 2759      00
 2760 1489 4889CE   		movq	%rcx, %rsi
 2761 148c 4889C7   		movq	%rax, %rdi
 2762 148f E8000000 		call	_ZN8UnitTest11TestDetailsC1ERKS0_i@PLT
 2762      00
 2763              		.loc 3 135 2 is_stmt 0 discriminator 4
 2764 1494 C7458800 		movl	$0, -120(%rbp)
 2764      000000
 2765 149b E8000000 		call	_ZN8UnitTest11CurrentTest7ResultsEv@PLT
 2765      00
 2766 14a0 488B00   		movq	(%rax), %rax
 2767 14a3 488D4D90 		leaq	-112(%rbp), %rcx
 2768 14a7 488D9578 		leaq	-136(%rbp), %rdx
 2768      FFFFFF
 2769 14ae 488D7588 		leaq	-120(%rbp), %rsi
 2770 14b2 4889C7   		movq	%rax, %rdi
 2771 14b5 E8000000 		call	_ZN8UnitTest10CheckEqualI9USBStatusS1_EEvRNS_11TestResultsERKT_RKT0_RKNS_11TestDetailsE
 2771      00
 2772              	.LEHE114:
 2773              	.L158:
 2774              	.LEHB115:
 136:testCore.cpp  **** 	CHECK_EQUAL(2UL, *item);
 2775              		.loc 3 136 2 is_stmt 1
 2776 14ba E8000000 		call	_ZN8UnitTest11CurrentTest7DetailsEv@PLT
 2776      00
 2777 14bf 488B08   		movq	(%rax), %rcx
 2778 14c2 488D4590 		leaq	-112(%rbp), %rax
 2779 14c6 BA880000 		movl	$136, %edx
 2779      00
 2780 14cb 4889CE   		movq	%rcx, %rsi
 2781 14ce 4889C7   		movq	%rax, %rdi
 2782 14d1 E8000000 		call	_ZN8UnitTest11TestDetailsC1ERKS0_i@PLT
 2782      00
 2783              		.loc 3 136 2 is_stmt 0 discriminator 4
 2784 14d6 488B5D80 		movq	-128(%rbp), %rbx
 2785 14da 48C74588 		movq	$2, -120(%rbp)
 2785      02000000 
 2786 14e2 E8000000 		call	_ZN8UnitTest11CurrentTest7ResultsEv@PLT
 2786      00
 2787 14e7 488B00   		movq	(%rax), %rax
 2788 14ea 488D5590 		leaq	-112(%rbp), %rdx
 2789 14ee 488D7588 		leaq	-120(%rbp), %rsi
 2790 14f2 4889D1   		movq	%rdx, %rcx
 2791 14f5 4889DA   		movq	%rbx, %rdx
 2792 14f8 4889C7   		movq	%rax, %rdi
 2793 14fb E8000000 		call	_ZN8UnitTest10CheckEqualImjEEvRNS_11TestResultsERKT_RKT0_RKNS_11TestDetailsE
 2793      00
 2794              	.LEHE115:
 2795              	.L161:
 137:testCore.cpp  **** 	*item = 6;
 2796              		.loc 3 137 2 is_stmt 1
 2797 1500 488B4580 		movq	-128(%rbp), %rax
 2798              		.loc 3 137 8
 2799 1504 C7000600 		movl	$6, (%rax)
 2799      0000
 138:testCore.cpp  **** 	queueCommitPut(&queue);
 2800              		.loc 3 138 16
 2801 150a 488D45B0 		leaq	-80(%rbp), %rax
 2802 150e 4889C7   		movq	%rax, %rdi
 2803              	.LEHB116:
 2804 1511 E8000000 		call	queueCommitPut@PLT
 2804      00
 139:testCore.cpp  **** 	status = queuePut(&queue, (Item*)&item);
 2805              		.loc 3 139 19
 2806 1516 488D5580 		leaq	-128(%rbp), %rdx
 2807 151a 488D45B0 		leaq	-80(%rbp), %rax
 2808 151e 4889D6   		movq	%rdx, %rsi
 2809 1521 4889C7   		movq	%rax, %rdi
 2810 1524 E8000000 		call	queuePut@PLT
 2810      00
 2811              	.LEHE116:
 2812              		.loc 3 139 9
 2813 1529 898578FF 		movl	%eax, -136(%rbp)
 2813      FFFF
 2814              	.LEHB117:
 140:testCore.cpp  **** 	CHECK_EQUAL(USB_SUCCESS, status);
 2815              		.loc 3 140 2
 2816 152f E8000000 		call	_ZN8UnitTest11CurrentTest7DetailsEv@PLT
 2816      00
 2817 1534 488B08   		movq	(%rax), %rcx
 2818 1537 488D4590 		leaq	-112(%rbp), %rax
 2819 153b BA8C0000 		movl	$140, %edx
 2819      00
 2820 1540 4889CE   		movq	%rcx, %rsi
 2821 1543 4889C7   		movq	%rax, %rdi
 2822 1546 E8000000 		call	_ZN8UnitTest11TestDetailsC1ERKS0_i@PLT
 2822      00
 2823              		.loc 3 140 2 is_stmt 0 discriminator 4
 2824 154b C7458800 		movl	$0, -120(%rbp)
 2824      000000
 2825 1552 E8000000 		call	_ZN8UnitTest11CurrentTest7ResultsEv@PLT
 2825      00
 2826 1557 488B00   		movq	(%rax), %rax
 2827 155a 488D4D90 		leaq	-112(%rbp), %rcx
 2828 155e 488D9578 		leaq	-136(%rbp), %rdx
 2828      FFFFFF
 2829 1565 488D7588 		leaq	-120(%rbp), %rsi
 2830 1569 4889C7   		movq	%rax, %rdi
 2831 156c E8000000 		call	_ZN8UnitTest10CheckEqualI9USBStatusS1_EEvRNS_11TestResultsERKT_RKT0_RKNS_11TestDetailsE
 2831      00
 2832              	.LEHE117:
 2833              	.L164:
 2834              	.LEHB118:
 141:testCore.cpp  **** 	CHECK_EQUAL(3UL, *item);
 2835              		.loc 3 141 2 is_stmt 1
 2836 1571 E8000000 		call	_ZN8UnitTest11CurrentTest7DetailsEv@PLT
 2836      00
 2837 1576 488B08   		movq	(%rax), %rcx
 2838 1579 488D4590 		leaq	-112(%rbp), %rax
 2839 157d BA8D0000 		movl	$141, %edx
 2839      00
 2840 1582 4889CE   		movq	%rcx, %rsi
 2841 1585 4889C7   		movq	%rax, %rdi
 2842 1588 E8000000 		call	_ZN8UnitTest11TestDetailsC1ERKS0_i@PLT
 2842      00
 2843              		.loc 3 141 2 is_stmt 0 discriminator 4
 2844 158d 488B5D80 		movq	-128(%rbp), %rbx
 2845 1591 48C74588 		movq	$3, -120(%rbp)
 2845      03000000 
 2846 1599 E8000000 		call	_ZN8UnitTest11CurrentTest7ResultsEv@PLT
 2846      00
 2847 159e 488B00   		movq	(%rax), %rax
 2848 15a1 488D5590 		leaq	-112(%rbp), %rdx
 2849 15a5 488D7588 		leaq	-120(%rbp), %rsi
 2850 15a9 4889D1   		movq	%rdx, %rcx
 2851 15ac 4889DA   		movq	%rbx, %rdx
 2852 15af 4889C7   		movq	%rax, %rdi
 2853 15b2 E8000000 		call	_ZN8UnitTest10CheckEqualImjEEvRNS_11TestResultsERKT_RKT0_RKNS_11TestDetailsE
 2853      00
 2854              	.LEHE118:
 2855              	.L167:
 142:testCore.cpp  **** 	*item = 7;
 2856              		.loc 3 142 2 is_stmt 1
 2857 15b7 488B4580 		movq	-128(%rbp), %rax
 2858              		.loc 3 142 8
 2859 15bb C7000700 		movl	$7, (%rax)
 2859      0000
 143:testCore.cpp  **** 	queueCommitPut(&queue);
 2860              		.loc 3 143 16
 2861 15c1 488D45B0 		leaq	-80(%rbp), %rax
 2862 15c5 4889C7   		movq	%rax, %rdi
 2863              	.LEHB119:
 2864 15c8 E8000000 		call	queueCommitPut@PLT
 2864      00
 144:testCore.cpp  **** 	status = queuePut(&queue, (Item*)&item);
 2865              		.loc 3 144 19
 2866 15cd 488D5580 		leaq	-128(%rbp), %rdx
 2867 15d1 488D45B0 		leaq	-80(%rbp), %rax
 2868 15d5 4889D6   		movq	%rdx, %rsi
 2869 15d8 4889C7   		movq	%rax, %rdi
 2870 15db E8000000 		call	queuePut@PLT
 2870      00
 2871              	.LEHE119:
 2872              		.loc 3 144 9
 2873 15e0 898578FF 		movl	%eax, -136(%rbp)
 2873      FFFF
 2874              	.LEHB120:
 145:testCore.cpp  **** 	CHECK_EQUAL(USB_SUCCESS, status);
 2875              		.loc 3 145 2
 2876 15e6 E8000000 		call	_ZN8UnitTest11CurrentTest7DetailsEv@PLT
 2876      00
 2877 15eb 488B08   		movq	(%rax), %rcx
 2878 15ee 488D4590 		leaq	-112(%rbp), %rax
 2879 15f2 BA910000 		movl	$145, %edx
 2879      00
 2880 15f7 4889CE   		movq	%rcx, %rsi
 2881 15fa 4889C7   		movq	%rax, %rdi
 2882 15fd E8000000 		call	_ZN8UnitTest11TestDetailsC1ERKS0_i@PLT
 2882      00
 2883              		.loc 3 145 2 is_stmt 0 discriminator 4
 2884 1602 C7458800 		movl	$0, -120(%rbp)
 2884      000000
 2885 1609 E8000000 		call	_ZN8UnitTest11CurrentTest7ResultsEv@PLT
 2885      00
 2886 160e 488B00   		movq	(%rax), %rax
 2887 1611 488D4D90 		leaq	-112(%rbp), %rcx
 2888 1615 488D9578 		leaq	-136(%rbp), %rdx
 2888      FFFFFF
 2889 161c 488D7588 		leaq	-120(%rbp), %rsi
 2890 1620 4889C7   		movq	%rax, %rdi
 2891 1623 E8000000 		call	_ZN8UnitTest10CheckEqualI9USBStatusS1_EEvRNS_11TestResultsERKT_RKT0_RKNS_11TestDetailsE
 2891      00
 2892              	.LEHE120:
 2893              	.L170:
 2894              	.LEHB121:
 146:testCore.cpp  **** 	CHECK_EQUAL(4UL, *item);
 2895              		.loc 3 146 2 is_stmt 1
 2896 1628 E8000000 		call	_ZN8UnitTest11CurrentTest7DetailsEv@PLT
 2896      00
 2897 162d 488B08   		movq	(%rax), %rcx
 2898 1630 488D4590 		leaq	-112(%rbp), %rax
 2899 1634 BA920000 		movl	$146, %edx
 2899      00
 2900 1639 4889CE   		movq	%rcx, %rsi
 2901 163c 4889C7   		movq	%rax, %rdi
 2902 163f E8000000 		call	_ZN8UnitTest11TestDetailsC1ERKS0_i@PLT
 2902      00
 2903              		.loc 3 146 2 is_stmt 0 discriminator 4
 2904 1644 488B5D80 		movq	-128(%rbp), %rbx
 2905 1648 48C74588 		movq	$4, -120(%rbp)
 2905      04000000 
 2906 1650 E8000000 		call	_ZN8UnitTest11CurrentTest7ResultsEv@PLT
 2906      00
 2907 1655 488B00   		movq	(%rax), %rax
 2908 1658 488D5590 		leaq	-112(%rbp), %rdx
 2909 165c 488D7588 		leaq	-120(%rbp), %rsi
 2910 1660 4889D1   		movq	%rdx, %rcx
 2911 1663 4889DA   		movq	%rbx, %rdx
 2912 1666 4889C7   		movq	%rax, %rdi
 2913 1669 E8000000 		call	_ZN8UnitTest10CheckEqualImjEEvRNS_11TestResultsERKT_RKT0_RKNS_11TestDetailsE
 2913      00
 2914              	.LEHE121:
 2915              	.L173:
 147:testCore.cpp  **** 	*item = 8;
 2916              		.loc 3 147 2 is_stmt 1
 2917 166e 488B4580 		movq	-128(%rbp), %rax
 2918              		.loc 3 147 8
 2919 1672 C7000800 		movl	$8, (%rax)
 2919      0000
 148:testCore.cpp  **** 	queueCommitPut(&queue);
 2920              		.loc 3 148 16
 2921 1678 488D45B0 		leaq	-80(%rbp), %rax
 2922 167c 4889C7   		movq	%rax, %rdi
 2923              	.LEHB122:
 2924 167f E8000000 		call	queueCommitPut@PLT
 2924      00
 2925              	.LEHE122:
 2926              	.LEHB123:
 149:testCore.cpp  **** 
 150:testCore.cpp  **** 	// Verify
 151:testCore.cpp  **** 	CHECK_EQUAL(4UL, queue.capacity);
 2927              		.loc 3 151 2
 2928 1684 E8000000 		call	_ZN8UnitTest11CurrentTest7DetailsEv@PLT
 2928      00
 2929 1689 488B08   		movq	(%rax), %rcx
 2930 168c 488D4590 		leaq	-112(%rbp), %rax
 2931 1690 BA970000 		movl	$151, %edx
 2931      00
 2932 1695 4889CE   		movq	%rcx, %rsi
 2933 1698 4889C7   		movq	%rax, %rdi
 2934 169b E8000000 		call	_ZN8UnitTest11TestDetailsC1ERKS0_i@PLT
 2934      00
 2935              		.loc 3 151 2 is_stmt 0 discriminator 4
 2936 16a0 48C74588 		movq	$4, -120(%rbp)
 2936      04000000 
 2937 16a8 E8000000 		call	_ZN8UnitTest11CurrentTest7ResultsEv@PLT
 2937      00
 2938 16ad 488B00   		movq	(%rax), %rax
 2939 16b0 488D5590 		leaq	-112(%rbp), %rdx
 2940 16b4 488D4DB0 		leaq	-80(%rbp), %rcx
 2941 16b8 488D7908 		leaq	8(%rcx), %rdi
 2942 16bc 488D7588 		leaq	-120(%rbp), %rsi
 2943 16c0 4889D1   		movq	%rdx, %rcx
 2944 16c3 4889FA   		movq	%rdi, %rdx
 2945 16c6 4889C7   		movq	%rax, %rdi
 2946 16c9 E8000000 		call	_ZN8UnitTest10CheckEqualImmEEvRNS_11TestResultsERKT_RKT0_RKNS_11TestDetailsE
 2946      00
 2947              	.LEHE123:
 2948              	.L176:
 2949              	.LEHB124:
 152:testCore.cpp  **** 	CHECK_EQUAL(0UL, queue.putIndex);
 2950              		.loc 3 152 2 is_stmt 1
 2951 16ce E8000000 		call	_ZN8UnitTest11CurrentTest7DetailsEv@PLT
 2951      00
 2952 16d3 488B08   		movq	(%rax), %rcx
 2953 16d6 488D4590 		leaq	-112(%rbp), %rax
 2954 16da BA980000 		movl	$152, %edx
 2954      00
 2955 16df 4889CE   		movq	%rcx, %rsi
 2956 16e2 4889C7   		movq	%rax, %rdi
 2957 16e5 E8000000 		call	_ZN8UnitTest11TestDetailsC1ERKS0_i@PLT
 2957      00
 2958              		.loc 3 152 2 is_stmt 0 discriminator 4
 2959 16ea 48C74588 		movq	$0, -120(%rbp)
 2959      00000000 
 2960 16f2 E8000000 		call	_ZN8UnitTest11CurrentTest7ResultsEv@PLT
 2960      00
 2961 16f7 488B00   		movq	(%rax), %rax
 2962 16fa 488D5590 		leaq	-112(%rbp), %rdx
 2963 16fe 488D4DB0 		leaq	-80(%rbp), %rcx
 2964 1702 488D7910 		leaq	16(%rcx), %rdi
 2965 1706 488D7588 		leaq	-120(%rbp), %rsi
 2966 170a 4889D1   		movq	%rdx, %rcx
 2967 170d 4889FA   		movq	%rdi, %rdx
 2968 1710 4889C7   		movq	%rax, %rdi
 2969 1713 E8000000 		call	_ZN8UnitTest10CheckEqualImmEEvRNS_11TestResultsERKT_RKT0_RKNS_11TestDetailsE
 2969      00
 2970              	.LEHE124:
 2971              	.L179:
 2972              	.LEHB125:
 153:testCore.cpp  **** 	CHECK_EQUAL(0UL, queue.takeIndex);
 2973              		.loc 3 153 2 is_stmt 1
 2974 1718 E8000000 		call	_ZN8UnitTest11CurrentTest7DetailsEv@PLT
 2974      00
 2975 171d 488B08   		movq	(%rax), %rcx
 2976 1720 488D4590 		leaq	-112(%rbp), %rax
 2977 1724 BA990000 		movl	$153, %edx
 2977      00
 2978 1729 4889CE   		movq	%rcx, %rsi
 2979 172c 4889C7   		movq	%rax, %rdi
 2980 172f E8000000 		call	_ZN8UnitTest11TestDetailsC1ERKS0_i@PLT
 2980      00
 2981              		.loc 3 153 2 is_stmt 0 discriminator 4
 2982 1734 48C74588 		movq	$0, -120(%rbp)
 2982      00000000 
 2983 173c E8000000 		call	_ZN8UnitTest11CurrentTest7ResultsEv@PLT
 2983      00
 2984 1741 488B00   		movq	(%rax), %rax
 2985 1744 488D5590 		leaq	-112(%rbp), %rdx
 2986 1748 488D4DB0 		leaq	-80(%rbp), %rcx
 2987 174c 488D7918 		leaq	24(%rcx), %rdi
 2988 1750 488D7588 		leaq	-120(%rbp), %rsi
 2989 1754 4889D1   		movq	%rdx, %rcx
 2990 1757 4889FA   		movq	%rdi, %rdx
 2991 175a 4889C7   		movq	%rax, %rdi
 2992 175d E8000000 		call	_ZN8UnitTest10CheckEqualImmEEvRNS_11TestResultsERKT_RKT0_RKNS_11TestDetailsE
 2992      00
 2993              	.LEHE125:
 2994              	.L182:
 2995              	.LEHB126:
 154:testCore.cpp  **** 	CHECK_EQUAL(4UL, queue.numItems);
 2996              		.loc 3 154 2 is_stmt 1
 2997 1762 E8000000 		call	_ZN8UnitTest11CurrentTest7DetailsEv@PLT
 2997      00
 2998 1767 488B08   		movq	(%rax), %rcx
 2999 176a 488D4590 		leaq	-112(%rbp), %rax
 3000 176e BA9A0000 		movl	$154, %edx
 3000      00
 3001 1773 4889CE   		movq	%rcx, %rsi
 3002 1776 4889C7   		movq	%rax, %rdi
 3003 1779 E8000000 		call	_ZN8UnitTest11TestDetailsC1ERKS0_i@PLT
 3003      00
 3004              		.loc 3 154 2 is_stmt 0 discriminator 4
 3005 177e 48C74588 		movq	$4, -120(%rbp)
 3005      04000000 
 3006 1786 E8000000 		call	_ZN8UnitTest11CurrentTest7ResultsEv@PLT
 3006      00
 3007 178b 488B00   		movq	(%rax), %rax
 3008 178e 488D5590 		leaq	-112(%rbp), %rdx
 3009 1792 488D4DB0 		leaq	-80(%rbp), %rcx
 3010 1796 488D7920 		leaq	32(%rcx), %rdi
 3011 179a 488D7588 		leaq	-120(%rbp), %rsi
 3012 179e 4889D1   		movq	%rdx, %rcx
 3013 17a1 4889FA   		movq	%rdi, %rdx
 3014 17a4 4889C7   		movq	%rax, %rdi
 3015 17a7 E8000000 		call	_ZN8UnitTest10CheckEqualImmEEvRNS_11TestResultsERKT_RKT0_RKNS_11TestDetailsE
 3015      00
 3016              	.LEHE126:
 3017              	.L185:
 3018              	.LEHB127:
 155:testCore.cpp  **** 
 156:testCore.cpp  **** 	// Verify array
 157:testCore.cpp  **** 	CHECK_EQUAL(5UL, deref(queue.itemArray[0]));
 3019              		.loc 3 157 2 is_stmt 1
 3020 17ac E8000000 		call	_ZN8UnitTest11CurrentTest7DetailsEv@PLT
 3020      00
 3021 17b1 488B08   		movq	(%rax), %rcx
 3022 17b4 488D4590 		leaq	-112(%rbp), %rax
 3023 17b8 BA9D0000 		movl	$157, %edx
 3023      00
 3024 17bd 4889CE   		movq	%rcx, %rsi
 3025 17c0 4889C7   		movq	%rax, %rdi
 3026 17c3 E8000000 		call	_ZN8UnitTest11TestDetailsC1ERKS0_i@PLT
 3026      00
 3027              		.loc 3 157 2 is_stmt 0 discriminator 4
 3028 17c8 488B45B0 		movq	-80(%rbp), %rax
 3029 17cc 488B00   		movq	(%rax), %rax
 3030 17cf 4889C7   		movq	%rax, %rdi
 3031 17d2 E8BBE8FF 		call	_ZL5derefPKv
 3031      FF
 3032 17d7 89857CFF 		movl	%eax, -132(%rbp)
 3032      FFFF
 3033 17dd 48C74588 		movq	$5, -120(%rbp)
 3033      05000000 
 3034 17e5 E8000000 		call	_ZN8UnitTest11CurrentTest7ResultsEv@PLT
 3034      00
 3035 17ea 488B00   		movq	(%rax), %rax
 3036 17ed 488D4D90 		leaq	-112(%rbp), %rcx
 3037 17f1 488D957C 		leaq	-132(%rbp), %rdx
 3037      FFFFFF
 3038 17f8 488D7588 		leaq	-120(%rbp), %rsi
 3039 17fc 4889C7   		movq	%rax, %rdi
 3040 17ff E8000000 		call	_ZN8UnitTest10CheckEqualImjEEvRNS_11TestResultsERKT_RKT0_RKNS_11TestDetailsE
 3040      00
 3041              	.LEHE127:
 3042              	.L188:
 3043              	.LEHB128:
 158:testCore.cpp  **** 	CHECK_EQUAL(6UL, deref(queue.itemArray[1]));
 3044              		.loc 3 158 2 is_stmt 1
 3045 1804 E8000000 		call	_ZN8UnitTest11CurrentTest7DetailsEv@PLT
 3045      00
 3046 1809 488B08   		movq	(%rax), %rcx
 3047 180c 488D4590 		leaq	-112(%rbp), %rax
 3048 1810 BA9E0000 		movl	$158, %edx
 3048      00
 3049 1815 4889CE   		movq	%rcx, %rsi
 3050 1818 4889C7   		movq	%rax, %rdi
 3051 181b E8000000 		call	_ZN8UnitTest11TestDetailsC1ERKS0_i@PLT
 3051      00
 3052              		.loc 3 158 2 is_stmt 0 discriminator 4
 3053 1820 488B45B0 		movq	-80(%rbp), %rax
 3054 1824 4883C008 		addq	$8, %rax
 3055 1828 488B00   		movq	(%rax), %rax
 3056 182b 4889C7   		movq	%rax, %rdi
 3057 182e E85FE8FF 		call	_ZL5derefPKv
 3057      FF
 3058 1833 89857CFF 		movl	%eax, -132(%rbp)
 3058      FFFF
 3059 1839 48C74588 		movq	$6, -120(%rbp)
 3059      06000000 
 3060 1841 E8000000 		call	_ZN8UnitTest11CurrentTest7ResultsEv@PLT
 3060      00
 3061 1846 488B00   		movq	(%rax), %rax
 3062 1849 488D4D90 		leaq	-112(%rbp), %rcx
 3063 184d 488D957C 		leaq	-132(%rbp), %rdx
 3063      FFFFFF
 3064 1854 488D7588 		leaq	-120(%rbp), %rsi
 3065 1858 4889C7   		movq	%rax, %rdi
 3066 185b E8000000 		call	_ZN8UnitTest10CheckEqualImjEEvRNS_11TestResultsERKT_RKT0_RKNS_11TestDetailsE
 3066      00
 3067              	.LEHE128:
 3068              	.L191:
 3069              	.LEHB129:
 159:testCore.cpp  **** 	CHECK_EQUAL(7UL, deref(queue.itemArray[2]));
 3070              		.loc 3 159 2 is_stmt 1
 3071 1860 E8000000 		call	_ZN8UnitTest11CurrentTest7DetailsEv@PLT
 3071      00
 3072 1865 488B08   		movq	(%rax), %rcx
 3073 1868 488D4590 		leaq	-112(%rbp), %rax
 3074 186c BA9F0000 		movl	$159, %edx
 3074      00
 3075 1871 4889CE   		movq	%rcx, %rsi
 3076 1874 4889C7   		movq	%rax, %rdi
 3077 1877 E8000000 		call	_ZN8UnitTest11TestDetailsC1ERKS0_i@PLT
 3077      00
 3078              		.loc 3 159 2 is_stmt 0 discriminator 4
 3079 187c 488B45B0 		movq	-80(%rbp), %rax
 3080 1880 4883C010 		addq	$16, %rax
 3081 1884 488B00   		movq	(%rax), %rax
 3082 1887 4889C7   		movq	%rax, %rdi
 3083 188a E803E8FF 		call	_ZL5derefPKv
 3083      FF
 3084 188f 89857CFF 		movl	%eax, -132(%rbp)
 3084      FFFF
 3085 1895 48C74588 		movq	$7, -120(%rbp)
 3085      07000000 
 3086 189d E8000000 		call	_ZN8UnitTest11CurrentTest7ResultsEv@PLT
 3086      00
 3087 18a2 488B00   		movq	(%rax), %rax
 3088 18a5 488D4D90 		leaq	-112(%rbp), %rcx
 3089 18a9 488D957C 		leaq	-132(%rbp), %rdx
 3089      FFFFFF
 3090 18b0 488D7588 		leaq	-120(%rbp), %rsi
 3091 18b4 4889C7   		movq	%rax, %rdi
 3092 18b7 E8000000 		call	_ZN8UnitTest10CheckEqualImjEEvRNS_11TestResultsERKT_RKT0_RKNS_11TestDetailsE
 3092      00
 3093              	.LEHE129:
 3094              	.L194:
 3095              	.LEHB130:
 160:testCore.cpp  **** 	CHECK_EQUAL(8UL, deref(queue.itemArray[3]));
 3096              		.loc 3 160 2 is_stmt 1
 3097 18bc E8000000 		call	_ZN8UnitTest11CurrentTest7DetailsEv@PLT
 3097      00
 3098 18c1 488B08   		movq	(%rax), %rcx
 3099 18c4 488D4590 		leaq	-112(%rbp), %rax
 3100 18c8 BAA00000 		movl	$160, %edx
 3100      00
 3101 18cd 4889CE   		movq	%rcx, %rsi
 3102 18d0 4889C7   		movq	%rax, %rdi
 3103 18d3 E8000000 		call	_ZN8UnitTest11TestDetailsC1ERKS0_i@PLT
 3103      00
 3104              		.loc 3 160 2 is_stmt 0 discriminator 4
 3105 18d8 488B45B0 		movq	-80(%rbp), %rax
 3106 18dc 4883C018 		addq	$24, %rax
 3107 18e0 488B00   		movq	(%rax), %rax
 3108 18e3 4889C7   		movq	%rax, %rdi
 3109 18e6 E8A7E7FF 		call	_ZL5derefPKv
 3109      FF
 3110 18eb 89857CFF 		movl	%eax, -132(%rbp)
 3110      FFFF
 3111 18f1 48C74588 		movq	$8, -120(%rbp)
 3111      08000000 
 3112 18f9 E8000000 		call	_ZN8UnitTest11CurrentTest7ResultsEv@PLT
 3112      00
 3113 18fe 488B00   		movq	(%rax), %rax
 3114 1901 488D4D90 		leaq	-112(%rbp), %rcx
 3115 1905 488D957C 		leaq	-132(%rbp), %rdx
 3115      FFFFFF
 3116 190c 488D7588 		leaq	-120(%rbp), %rsi
 3117 1910 4889C7   		movq	%rax, %rdi
 3118 1913 E8000000 		call	_ZN8UnitTest10CheckEqualImjEEvRNS_11TestResultsERKT_RKT0_RKNS_11TestDetailsE
 3118      00
 3119              	.LEHE130:
 3120              	.L197:
 161:testCore.cpp  **** 
 162:testCore.cpp  **** 	// Clean up
 163:testCore.cpp  **** 	queueDestroy(&queue);
 3121              		.loc 3 163 14 is_stmt 1
 3122 1918 488D45B0 		leaq	-80(%rbp), %rax
 3123 191c 4889C7   		movq	%rax, %rdi
 3124              	.LEHB131:
 3125 191f E8000000 		call	queueDestroy@PLT
 3125      00
 3126              	.LEHE131:
 164:testCore.cpp  **** }
 3127              		.loc 3 164 1
 3128 1924 90       		nop
 3129 1925 488B45E8 		movq	-24(%rbp), %rax
 3130 1929 64482B04 		subq	%fs:40, %rax
 3130      25280000 
 3130      00
 3131 1932 0F84E106 		je	.L199
 3131      0000
 3132 1938 E9D70600 		jmp	.L234
 3132      00
 3133              	.L200:
 3134 193d F30F1EFA 		endbr64
 126:testCore.cpp  **** 
 3135              		.loc 3 126 2
 3136 1941 4889C7   		movq	%rax, %rdi
 3137 1944 E8000000 		call	__cxa_begin_catch@PLT
 3137      00
 3138              	.LEHB132:
 3139 1949 E8000000 		call	_ZN8UnitTest11CurrentTest7ResultsEv@PLT
 3139      00
 126:testCore.cpp  **** 
 3140              		.loc 3 126 2 is_stmt 0 discriminator 3
 3141 194e 488B18   		movq	(%rax), %rbx
 3142 1951 E8000000 		call	_ZN8UnitTest11CurrentTest7DetailsEv@PLT
 3142      00
 126:testCore.cpp  **** 
 3143              		.loc 3 126 2 discriminator 11
 3144 1956 488B08   		movq	(%rax), %rcx
 3145 1959 488D4590 		leaq	-112(%rbp), %rax
 3146 195d BA7E0000 		movl	$126, %edx
 3146      00
 3147 1962 4889CE   		movq	%rcx, %rsi
 3148 1965 4889C7   		movq	%rax, %rdi
 3149 1968 E8000000 		call	_ZN8UnitTest11TestDetailsC1ERKS0_i@PLT
 3149      00
 126:testCore.cpp  **** 
 3150              		.loc 3 126 2 discriminator 15
 3151 196d 488D4590 		leaq	-112(%rbp), %rax
 3152 1971 488D1500 		leaq	.LC3(%rip), %rdx
 3152      000000
 3153 1978 4889C6   		movq	%rax, %rsi
 3154 197b 4889DF   		movq	%rbx, %rdi
 3155 197e E8000000 		call	_ZN8UnitTest11TestResults13OnTestFailureERKNS_11TestDetailsEPKc@PLT
 3155      00
 3156              	.LEHE132:
 3157              	.LEHB133:
 126:testCore.cpp  **** 
 3158              		.loc 3 126 2 discriminator 17
 3159 1983 E8000000 		call	__cxa_end_catch@PLT
 3159      00
 3160              	.LEHE133:
 3161 1988 E91BFAFF 		jmp	.L149
 3161      FF
 3162              	.L201:
 3163 198d F30F1EFA 		endbr64
 126:testCore.cpp  **** 
 3164              		.loc 3 126 2
 3165 1991 4889C3   		movq	%rax, %rbx
 3166 1994 E8000000 		call	__cxa_end_catch@PLT
 3166      00
 3167 1999 4889D8   		movq	%rbx, %rax
 3168 199c 4889C7   		movq	%rax, %rdi
 3169              	.LEHB134:
 3170 199f E8000000 		call	_Unwind_Resume@PLT
 3170      00
 3171              	.LEHE134:
 3172              	.L202:
 3173 19a4 F30F1EFA 		endbr64
 130:testCore.cpp  **** 	CHECK_EQUAL(1UL, *item);
 3174              		.loc 3 130 2 is_stmt 1
 3175 19a8 4889C7   		movq	%rax, %rdi
 3176 19ab E8000000 		call	__cxa_begin_catch@PLT
 3176      00
 3177              	.LEHB135:
 3178 19b0 E8000000 		call	_ZN8UnitTest11CurrentTest7ResultsEv@PLT
 3178      00
 130:testCore.cpp  **** 	CHECK_EQUAL(1UL, *item);
 3179              		.loc 3 130 2 is_stmt 0 discriminator 3
 3180 19b5 488B18   		movq	(%rax), %rbx
 3181 19b8 E8000000 		call	_ZN8UnitTest11CurrentTest7DetailsEv@PLT
 3181      00
 130:testCore.cpp  **** 	CHECK_EQUAL(1UL, *item);
 3182              		.loc 3 130 2 discriminator 11
 3183 19bd 488B08   		movq	(%rax), %rcx
 3184 19c0 488D4590 		leaq	-112(%rbp), %rax
 3185 19c4 BA820000 		movl	$130, %edx
 3185      00
 3186 19c9 4889CE   		movq	%rcx, %rsi
 3187 19cc 4889C7   		movq	%rax, %rdi
 3188 19cf E8000000 		call	_ZN8UnitTest11TestDetailsC1ERKS0_i@PLT
 3188      00
 130:testCore.cpp  **** 	CHECK_EQUAL(1UL, *item);
 3189              		.loc 3 130 2 discriminator 15
 3190 19d4 488D4590 		leaq	-112(%rbp), %rax
 3191 19d8 488D1500 		leaq	.LC3(%rip), %rdx
 3191      000000
 3192 19df 4889C6   		movq	%rax, %rsi
 3193 19e2 4889DF   		movq	%rbx, %rdi
 3194 19e5 E8000000 		call	_ZN8UnitTest11TestResults13OnTestFailureERKNS_11TestDetailsEPKc@PLT
 3194      00
 3195              	.LEHE135:
 3196              	.LEHB136:
 130:testCore.cpp  **** 	CHECK_EQUAL(1UL, *item);
 3197              		.loc 3 130 2 discriminator 17
 3198 19ea E8000000 		call	__cxa_end_catch@PLT
 3198      00
 3199              	.LEHE136:
 3200 19ef E90FFAFF 		jmp	.L152
 3200      FF
 3201              	.L203:
 3202 19f4 F30F1EFA 		endbr64
 130:testCore.cpp  **** 	CHECK_EQUAL(1UL, *item);
 3203              		.loc 3 130 2
 3204 19f8 4889C3   		movq	%rax, %rbx
 3205 19fb E8000000 		call	__cxa_end_catch@PLT
 3205      00
 3206 1a00 4889D8   		movq	%rbx, %rax
 3207 1a03 4889C7   		movq	%rax, %rdi
 3208              	.LEHB137:
 3209 1a06 E8000000 		call	_Unwind_Resume@PLT
 3209      00
 3210              	.LEHE137:
 3211              	.L204:
 3212 1a0b F30F1EFA 		endbr64
 131:testCore.cpp  **** 	*item = 5;
 3213              		.loc 3 131 2 is_stmt 1
 3214 1a0f 4889C7   		movq	%rax, %rdi
 3215 1a12 E8000000 		call	__cxa_begin_catch@PLT
 3215      00
 3216              	.LEHB138:
 3217 1a17 E8000000 		call	_ZN8UnitTest11CurrentTest7ResultsEv@PLT
 3217      00
 131:testCore.cpp  **** 	*item = 5;
 3218              		.loc 3 131 2 is_stmt 0 discriminator 3
 3219 1a1c 488B18   		movq	(%rax), %rbx
 3220 1a1f E8000000 		call	_ZN8UnitTest11CurrentTest7DetailsEv@PLT
 3220      00
 131:testCore.cpp  **** 	*item = 5;
 3221              		.loc 3 131 2 discriminator 11
 3222 1a24 488B08   		movq	(%rax), %rcx
 3223 1a27 488D4590 		leaq	-112(%rbp), %rax
 3224 1a2b BA830000 		movl	$131, %edx
 3224      00
 3225 1a30 4889CE   		movq	%rcx, %rsi
 3226 1a33 4889C7   		movq	%rax, %rdi
 3227 1a36 E8000000 		call	_ZN8UnitTest11TestDetailsC1ERKS0_i@PLT
 3227      00
 131:testCore.cpp  **** 	*item = 5;
 3228              		.loc 3 131 2 discriminator 15
 3229 1a3b 488D4590 		leaq	-112(%rbp), %rax
 3230 1a3f 488D1500 		leaq	.LC13(%rip), %rdx
 3230      000000
 3231 1a46 4889C6   		movq	%rax, %rsi
 3232 1a49 4889DF   		movq	%rbx, %rdi
 3233 1a4c E8000000 		call	_ZN8UnitTest11TestResults13OnTestFailureERKNS_11TestDetailsEPKc@PLT
 3233      00
 3234              	.LEHE138:
 3235              	.LEHB139:
 131:testCore.cpp  **** 	*item = 5;
 3236              		.loc 3 131 2 discriminator 17
 3237 1a51 E8000000 		call	__cxa_end_catch@PLT
 3237      00
 3238              	.LEHE139:
 3239 1a56 E9EEF9FF 		jmp	.L155
 3239      FF
 3240              	.L205:
 3241 1a5b F30F1EFA 		endbr64
 131:testCore.cpp  **** 	*item = 5;
 3242              		.loc 3 131 2
 3243 1a5f 4889C3   		movq	%rax, %rbx
 3244 1a62 E8000000 		call	__cxa_end_catch@PLT
 3244      00
 3245 1a67 4889D8   		movq	%rbx, %rax
 3246 1a6a 4889C7   		movq	%rax, %rdi
 3247              	.LEHB140:
 3248 1a6d E8000000 		call	_Unwind_Resume@PLT
 3248      00
 3249              	.LEHE140:
 3250              	.L206:
 3251 1a72 F30F1EFA 		endbr64
 135:testCore.cpp  **** 	CHECK_EQUAL(2UL, *item);
 3252              		.loc 3 135 2 is_stmt 1
 3253 1a76 4889C7   		movq	%rax, %rdi
 3254 1a79 E8000000 		call	__cxa_begin_catch@PLT
 3254      00
 3255              	.LEHB141:
 3256 1a7e E8000000 		call	_ZN8UnitTest11CurrentTest7ResultsEv@PLT
 3256      00
 135:testCore.cpp  **** 	CHECK_EQUAL(2UL, *item);
 3257              		.loc 3 135 2 is_stmt 0 discriminator 3
 3258 1a83 488B18   		movq	(%rax), %rbx
 3259 1a86 E8000000 		call	_ZN8UnitTest11CurrentTest7DetailsEv@PLT
 3259      00
 135:testCore.cpp  **** 	CHECK_EQUAL(2UL, *item);
 3260              		.loc 3 135 2 discriminator 11
 3261 1a8b 488B08   		movq	(%rax), %rcx
 3262 1a8e 488D4590 		leaq	-112(%rbp), %rax
 3263 1a92 BA870000 		movl	$135, %edx
 3263      00
 3264 1a97 4889CE   		movq	%rcx, %rsi
 3265 1a9a 4889C7   		movq	%rax, %rdi
 3266 1a9d E8000000 		call	_ZN8UnitTest11TestDetailsC1ERKS0_i@PLT
 3266      00
 135:testCore.cpp  **** 	CHECK_EQUAL(2UL, *item);
 3267              		.loc 3 135 2 discriminator 15
 3268 1aa2 488D4590 		leaq	-112(%rbp), %rax
 3269 1aa6 488D1500 		leaq	.LC3(%rip), %rdx
 3269      000000
 3270 1aad 4889C6   		movq	%rax, %rsi
 3271 1ab0 4889DF   		movq	%rbx, %rdi
 3272 1ab3 E8000000 		call	_ZN8UnitTest11TestResults13OnTestFailureERKNS_11TestDetailsEPKc@PLT
 3272      00
 3273              	.LEHE141:
 3274              	.LEHB142:
 135:testCore.cpp  **** 	CHECK_EQUAL(2UL, *item);
 3275              		.loc 3 135 2 discriminator 17
 3276 1ab8 E8000000 		call	__cxa_end_catch@PLT
 3276      00
 3277              	.LEHE142:
 3278 1abd E9F8F9FF 		jmp	.L158
 3278      FF
 3279              	.L207:
 3280 1ac2 F30F1EFA 		endbr64
 135:testCore.cpp  **** 	CHECK_EQUAL(2UL, *item);
 3281              		.loc 3 135 2
 3282 1ac6 4889C3   		movq	%rax, %rbx
 3283 1ac9 E8000000 		call	__cxa_end_catch@PLT
 3283      00
 3284 1ace 4889D8   		movq	%rbx, %rax
 3285 1ad1 4889C7   		movq	%rax, %rdi
 3286              	.LEHB143:
 3287 1ad4 E8000000 		call	_Unwind_Resume@PLT
 3287      00
 3288              	.LEHE143:
 3289              	.L208:
 3290 1ad9 F30F1EFA 		endbr64
 136:testCore.cpp  **** 	*item = 6;
 3291              		.loc 3 136 2 is_stmt 1
 3292 1add 4889C7   		movq	%rax, %rdi
 3293 1ae0 E8000000 		call	__cxa_begin_catch@PLT
 3293      00
 3294              	.LEHB144:
 3295 1ae5 E8000000 		call	_ZN8UnitTest11CurrentTest7ResultsEv@PLT
 3295      00
 136:testCore.cpp  **** 	*item = 6;
 3296              		.loc 3 136 2 is_stmt 0 discriminator 3
 3297 1aea 488B18   		movq	(%rax), %rbx
 3298 1aed E8000000 		call	_ZN8UnitTest11CurrentTest7DetailsEv@PLT
 3298      00
 136:testCore.cpp  **** 	*item = 6;
 3299              		.loc 3 136 2 discriminator 11
 3300 1af2 488B08   		movq	(%rax), %rcx
 3301 1af5 488D4590 		leaq	-112(%rbp), %rax
 3302 1af9 BA880000 		movl	$136, %edx
 3302      00
 3303 1afe 4889CE   		movq	%rcx, %rsi
 3304 1b01 4889C7   		movq	%rax, %rdi
 3305 1b04 E8000000 		call	_ZN8UnitTest11TestDetailsC1ERKS0_i@PLT
 3305      00
 136:testCore.cpp  **** 	*item = 6;
 3306              		.loc 3 136 2 discriminator 15
 3307 1b09 488D4590 		leaq	-112(%rbp), %rax
 3308 1b0d 488D1500 		leaq	.LC14(%rip), %rdx
 3308      000000
 3309 1b14 4889C6   		movq	%rax, %rsi
 3310 1b17 4889DF   		movq	%rbx, %rdi
 3311 1b1a E8000000 		call	_ZN8UnitTest11TestResults13OnTestFailureERKNS_11TestDetailsEPKc@PLT
 3311      00
 3312              	.LEHE144:
 3313              	.LEHB145:
 136:testCore.cpp  **** 	*item = 6;
 3314              		.loc 3 136 2 discriminator 17
 3315 1b1f E8000000 		call	__cxa_end_catch@PLT
 3315      00
 3316              	.LEHE145:
 3317 1b24 E9D7F9FF 		jmp	.L161
 3317      FF
 3318              	.L209:
 3319 1b29 F30F1EFA 		endbr64
 136:testCore.cpp  **** 	*item = 6;
 3320              		.loc 3 136 2
 3321 1b2d 4889C3   		movq	%rax, %rbx
 3322 1b30 E8000000 		call	__cxa_end_catch@PLT
 3322      00
 3323 1b35 4889D8   		movq	%rbx, %rax
 3324 1b38 4889C7   		movq	%rax, %rdi
 3325              	.LEHB146:
 3326 1b3b E8000000 		call	_Unwind_Resume@PLT
 3326      00
 3327              	.LEHE146:
 3328              	.L210:
 3329 1b40 F30F1EFA 		endbr64
 140:testCore.cpp  **** 	CHECK_EQUAL(3UL, *item);
 3330              		.loc 3 140 2 is_stmt 1
 3331 1b44 4889C7   		movq	%rax, %rdi
 3332 1b47 E8000000 		call	__cxa_begin_catch@PLT
 3332      00
 3333              	.LEHB147:
 3334 1b4c E8000000 		call	_ZN8UnitTest11CurrentTest7ResultsEv@PLT
 3334      00
 140:testCore.cpp  **** 	CHECK_EQUAL(3UL, *item);
 3335              		.loc 3 140 2 is_stmt 0 discriminator 3
 3336 1b51 488B18   		movq	(%rax), %rbx
 3337 1b54 E8000000 		call	_ZN8UnitTest11CurrentTest7DetailsEv@PLT
 3337      00
 140:testCore.cpp  **** 	CHECK_EQUAL(3UL, *item);
 3338              		.loc 3 140 2 discriminator 11
 3339 1b59 488B08   		movq	(%rax), %rcx
 3340 1b5c 488D4590 		leaq	-112(%rbp), %rax
 3341 1b60 BA8C0000 		movl	$140, %edx
 3341      00
 3342 1b65 4889CE   		movq	%rcx, %rsi
 3343 1b68 4889C7   		movq	%rax, %rdi
 3344 1b6b E8000000 		call	_ZN8UnitTest11TestDetailsC1ERKS0_i@PLT
 3344      00
 140:testCore.cpp  **** 	CHECK_EQUAL(3UL, *item);
 3345              		.loc 3 140 2 discriminator 15
 3346 1b70 488D4590 		leaq	-112(%rbp), %rax
 3347 1b74 488D1500 		leaq	.LC3(%rip), %rdx
 3347      000000
 3348 1b7b 4889C6   		movq	%rax, %rsi
 3349 1b7e 4889DF   		movq	%rbx, %rdi
 3350 1b81 E8000000 		call	_ZN8UnitTest11TestResults13OnTestFailureERKNS_11TestDetailsEPKc@PLT
 3350      00
 3351              	.LEHE147:
 3352              	.LEHB148:
 140:testCore.cpp  **** 	CHECK_EQUAL(3UL, *item);
 3353              		.loc 3 140 2 discriminator 17
 3354 1b86 E8000000 		call	__cxa_end_catch@PLT
 3354      00
 3355              	.LEHE148:
 3356 1b8b E9E1F9FF 		jmp	.L164
 3356      FF
 3357              	.L211:
 3358 1b90 F30F1EFA 		endbr64
 140:testCore.cpp  **** 	CHECK_EQUAL(3UL, *item);
 3359              		.loc 3 140 2
 3360 1b94 4889C3   		movq	%rax, %rbx
 3361 1b97 E8000000 		call	__cxa_end_catch@PLT
 3361      00
 3362 1b9c 4889D8   		movq	%rbx, %rax
 3363 1b9f 4889C7   		movq	%rax, %rdi
 3364              	.LEHB149:
 3365 1ba2 E8000000 		call	_Unwind_Resume@PLT
 3365      00
 3366              	.LEHE149:
 3367              	.L212:
 3368 1ba7 F30F1EFA 		endbr64
 141:testCore.cpp  **** 	*item = 7;
 3369              		.loc 3 141 2 is_stmt 1
 3370 1bab 4889C7   		movq	%rax, %rdi
 3371 1bae E8000000 		call	__cxa_begin_catch@PLT
 3371      00
 3372              	.LEHB150:
 3373 1bb3 E8000000 		call	_ZN8UnitTest11CurrentTest7ResultsEv@PLT
 3373      00
 141:testCore.cpp  **** 	*item = 7;
 3374              		.loc 3 141 2 is_stmt 0 discriminator 3
 3375 1bb8 488B18   		movq	(%rax), %rbx
 3376 1bbb E8000000 		call	_ZN8UnitTest11CurrentTest7DetailsEv@PLT
 3376      00
 141:testCore.cpp  **** 	*item = 7;
 3377              		.loc 3 141 2 discriminator 11
 3378 1bc0 488B08   		movq	(%rax), %rcx
 3379 1bc3 488D4590 		leaq	-112(%rbp), %rax
 3380 1bc7 BA8D0000 		movl	$141, %edx
 3380      00
 3381 1bcc 4889CE   		movq	%rcx, %rsi
 3382 1bcf 4889C7   		movq	%rax, %rdi
 3383 1bd2 E8000000 		call	_ZN8UnitTest11TestDetailsC1ERKS0_i@PLT
 3383      00
 141:testCore.cpp  **** 	*item = 7;
 3384              		.loc 3 141 2 discriminator 15
 3385 1bd7 488D4590 		leaq	-112(%rbp), %rax
 3386 1bdb 488D1500 		leaq	.LC15(%rip), %rdx
 3386      000000
 3387 1be2 4889C6   		movq	%rax, %rsi
 3388 1be5 4889DF   		movq	%rbx, %rdi
 3389 1be8 E8000000 		call	_ZN8UnitTest11TestResults13OnTestFailureERKNS_11TestDetailsEPKc@PLT
 3389      00
 3390              	.LEHE150:
 3391              	.LEHB151:
 141:testCore.cpp  **** 	*item = 7;
 3392              		.loc 3 141 2 discriminator 17
 3393 1bed E8000000 		call	__cxa_end_catch@PLT
 3393      00
 3394              	.LEHE151:
 3395 1bf2 E9C0F9FF 		jmp	.L167
 3395      FF
 3396              	.L213:
 3397 1bf7 F30F1EFA 		endbr64
 141:testCore.cpp  **** 	*item = 7;
 3398              		.loc 3 141 2
 3399 1bfb 4889C3   		movq	%rax, %rbx
 3400 1bfe E8000000 		call	__cxa_end_catch@PLT
 3400      00
 3401 1c03 4889D8   		movq	%rbx, %rax
 3402 1c06 4889C7   		movq	%rax, %rdi
 3403              	.LEHB152:
 3404 1c09 E8000000 		call	_Unwind_Resume@PLT
 3404      00
 3405              	.LEHE152:
 3406              	.L214:
 3407 1c0e F30F1EFA 		endbr64
 145:testCore.cpp  **** 	CHECK_EQUAL(4UL, *item);
 3408              		.loc 3 145 2 is_stmt 1
 3409 1c12 4889C7   		movq	%rax, %rdi
 3410 1c15 E8000000 		call	__cxa_begin_catch@PLT
 3410      00
 3411              	.LEHB153:
 3412 1c1a E8000000 		call	_ZN8UnitTest11CurrentTest7ResultsEv@PLT
 3412      00
 145:testCore.cpp  **** 	CHECK_EQUAL(4UL, *item);
 3413              		.loc 3 145 2 is_stmt 0 discriminator 3
 3414 1c1f 488B18   		movq	(%rax), %rbx
 3415 1c22 E8000000 		call	_ZN8UnitTest11CurrentTest7DetailsEv@PLT
 3415      00
 145:testCore.cpp  **** 	CHECK_EQUAL(4UL, *item);
 3416              		.loc 3 145 2 discriminator 11
 3417 1c27 488B08   		movq	(%rax), %rcx
 3418 1c2a 488D4590 		leaq	-112(%rbp), %rax
 3419 1c2e BA910000 		movl	$145, %edx
 3419      00
 3420 1c33 4889CE   		movq	%rcx, %rsi
 3421 1c36 4889C7   		movq	%rax, %rdi
 3422 1c39 E8000000 		call	_ZN8UnitTest11TestDetailsC1ERKS0_i@PLT
 3422      00
 145:testCore.cpp  **** 	CHECK_EQUAL(4UL, *item);
 3423              		.loc 3 145 2 discriminator 15
 3424 1c3e 488D4590 		leaq	-112(%rbp), %rax
 3425 1c42 488D1500 		leaq	.LC3(%rip), %rdx
 3425      000000
 3426 1c49 4889C6   		movq	%rax, %rsi
 3427 1c4c 4889DF   		movq	%rbx, %rdi
 3428 1c4f E8000000 		call	_ZN8UnitTest11TestResults13OnTestFailureERKNS_11TestDetailsEPKc@PLT
 3428      00
 3429              	.LEHE153:
 3430              	.LEHB154:
 145:testCore.cpp  **** 	CHECK_EQUAL(4UL, *item);
 3431              		.loc 3 145 2 discriminator 17
 3432 1c54 E8000000 		call	__cxa_end_catch@PLT
 3432      00
 3433              	.LEHE154:
 3434 1c59 E9CAF9FF 		jmp	.L170
 3434      FF
 3435              	.L215:
 3436 1c5e F30F1EFA 		endbr64
 145:testCore.cpp  **** 	CHECK_EQUAL(4UL, *item);
 3437              		.loc 3 145 2
 3438 1c62 4889C3   		movq	%rax, %rbx
 3439 1c65 E8000000 		call	__cxa_end_catch@PLT
 3439      00
 3440 1c6a 4889D8   		movq	%rbx, %rax
 3441 1c6d 4889C7   		movq	%rax, %rdi
 3442              	.LEHB155:
 3443 1c70 E8000000 		call	_Unwind_Resume@PLT
 3443      00
 3444              	.LEHE155:
 3445              	.L216:
 3446 1c75 F30F1EFA 		endbr64
 146:testCore.cpp  **** 	*item = 8;
 3447              		.loc 3 146 2 is_stmt 1
 3448 1c79 4889C7   		movq	%rax, %rdi
 3449 1c7c E8000000 		call	__cxa_begin_catch@PLT
 3449      00
 3450              	.LEHB156:
 3451 1c81 E8000000 		call	_ZN8UnitTest11CurrentTest7ResultsEv@PLT
 3451      00
 146:testCore.cpp  **** 	*item = 8;
 3452              		.loc 3 146 2 is_stmt 0 discriminator 3
 3453 1c86 488B18   		movq	(%rax), %rbx
 3454 1c89 E8000000 		call	_ZN8UnitTest11CurrentTest7DetailsEv@PLT
 3454      00
 146:testCore.cpp  **** 	*item = 8;
 3455              		.loc 3 146 2 discriminator 11
 3456 1c8e 488B08   		movq	(%rax), %rcx
 3457 1c91 488D4590 		leaq	-112(%rbp), %rax
 3458 1c95 BA920000 		movl	$146, %edx
 3458      00
 3459 1c9a 4889CE   		movq	%rcx, %rsi
 3460 1c9d 4889C7   		movq	%rax, %rdi
 3461 1ca0 E8000000 		call	_ZN8UnitTest11TestDetailsC1ERKS0_i@PLT
 3461      00
 146:testCore.cpp  **** 	*item = 8;
 3462              		.loc 3 146 2 discriminator 15
 3463 1ca5 488D4590 		leaq	-112(%rbp), %rax
 3464 1ca9 488D1500 		leaq	.LC22(%rip), %rdx
 3464      000000
 3465 1cb0 4889C6   		movq	%rax, %rsi
 3466 1cb3 4889DF   		movq	%rbx, %rdi
 3467 1cb6 E8000000 		call	_ZN8UnitTest11TestResults13OnTestFailureERKNS_11TestDetailsEPKc@PLT
 3467      00
 3468              	.LEHE156:
 3469              	.LEHB157:
 146:testCore.cpp  **** 	*item = 8;
 3470              		.loc 3 146 2 discriminator 17
 3471 1cbb E8000000 		call	__cxa_end_catch@PLT
 3471      00
 3472              	.LEHE157:
 3473 1cc0 E9A9F9FF 		jmp	.L173
 3473      FF
 3474              	.L217:
 3475 1cc5 F30F1EFA 		endbr64
 146:testCore.cpp  **** 	*item = 8;
 3476              		.loc 3 146 2
 3477 1cc9 4889C3   		movq	%rax, %rbx
 3478 1ccc E8000000 		call	__cxa_end_catch@PLT
 3478      00
 3479 1cd1 4889D8   		movq	%rbx, %rax
 3480 1cd4 4889C7   		movq	%rax, %rdi
 3481              	.LEHB158:
 3482 1cd7 E8000000 		call	_Unwind_Resume@PLT
 3482      00
 3483              	.LEHE158:
 3484              	.L218:
 3485 1cdc F30F1EFA 		endbr64
 151:testCore.cpp  **** 	CHECK_EQUAL(0UL, queue.putIndex);
 3486              		.loc 3 151 2 is_stmt 1
 3487 1ce0 4889C7   		movq	%rax, %rdi
 3488 1ce3 E8000000 		call	__cxa_begin_catch@PLT
 3488      00
 3489              	.LEHB159:
 3490 1ce8 E8000000 		call	_ZN8UnitTest11CurrentTest7ResultsEv@PLT
 3490      00
 151:testCore.cpp  **** 	CHECK_EQUAL(0UL, queue.putIndex);
 3491              		.loc 3 151 2 is_stmt 0 discriminator 3
 3492 1ced 488B18   		movq	(%rax), %rbx
 3493 1cf0 E8000000 		call	_ZN8UnitTest11CurrentTest7DetailsEv@PLT
 3493      00
 151:testCore.cpp  **** 	CHECK_EQUAL(0UL, queue.putIndex);
 3494              		.loc 3 151 2 discriminator 11
 3495 1cf5 488B08   		movq	(%rax), %rcx
 3496 1cf8 488D4590 		leaq	-112(%rbp), %rax
 3497 1cfc BA970000 		movl	$151, %edx
 3497      00
 3498 1d01 4889CE   		movq	%rcx, %rsi
 3499 1d04 4889C7   		movq	%rax, %rdi
 3500 1d07 E8000000 		call	_ZN8UnitTest11TestDetailsC1ERKS0_i@PLT
 3500      00
 151:testCore.cpp  **** 	CHECK_EQUAL(0UL, queue.putIndex);
 3501              		.loc 3 151 2 discriminator 15
 3502 1d0c 488D4590 		leaq	-112(%rbp), %rax
 3503 1d10 488D1500 		leaq	.LC4(%rip), %rdx
 3503      000000
 3504 1d17 4889C6   		movq	%rax, %rsi
 3505 1d1a 4889DF   		movq	%rbx, %rdi
 3506 1d1d E8000000 		call	_ZN8UnitTest11TestResults13OnTestFailureERKNS_11TestDetailsEPKc@PLT
 3506      00
 3507              	.LEHE159:
 3508              	.LEHB160:
 151:testCore.cpp  **** 	CHECK_EQUAL(0UL, queue.putIndex);
 3509              		.loc 3 151 2 discriminator 17
 3510 1d22 E8000000 		call	__cxa_end_catch@PLT
 3510      00
 3511              	.LEHE160:
 3512 1d27 E9A2F9FF 		jmp	.L176
 3512      FF
 3513              	.L219:
 3514 1d2c F30F1EFA 		endbr64
 151:testCore.cpp  **** 	CHECK_EQUAL(0UL, queue.putIndex);
 3515              		.loc 3 151 2
 3516 1d30 4889C3   		movq	%rax, %rbx
 3517 1d33 E8000000 		call	__cxa_end_catch@PLT
 3517      00
 3518 1d38 4889D8   		movq	%rbx, %rax
 3519 1d3b 4889C7   		movq	%rax, %rdi
 3520              	.LEHB161:
 3521 1d3e E8000000 		call	_Unwind_Resume@PLT
 3521      00
 3522              	.LEHE161:
 3523              	.L220:
 3524 1d43 F30F1EFA 		endbr64
 152:testCore.cpp  **** 	CHECK_EQUAL(0UL, queue.takeIndex);
 3525              		.loc 3 152 2 is_stmt 1
 3526 1d47 4889C7   		movq	%rax, %rdi
 3527 1d4a E8000000 		call	__cxa_begin_catch@PLT
 3527      00
 3528              	.LEHB162:
 3529 1d4f E8000000 		call	_ZN8UnitTest11CurrentTest7ResultsEv@PLT
 3529      00
 152:testCore.cpp  **** 	CHECK_EQUAL(0UL, queue.takeIndex);
 3530              		.loc 3 152 2 is_stmt 0 discriminator 3
 3531 1d54 488B18   		movq	(%rax), %rbx
 3532 1d57 E8000000 		call	_ZN8UnitTest11CurrentTest7DetailsEv@PLT
 3532      00
 152:testCore.cpp  **** 	CHECK_EQUAL(0UL, queue.takeIndex);
 3533              		.loc 3 152 2 discriminator 11
 3534 1d5c 488B08   		movq	(%rax), %rcx
 3535 1d5f 488D4590 		leaq	-112(%rbp), %rax
 3536 1d63 BA980000 		movl	$152, %edx
 3536      00
 3537 1d68 4889CE   		movq	%rcx, %rsi
 3538 1d6b 4889C7   		movq	%rax, %rdi
 3539 1d6e E8000000 		call	_ZN8UnitTest11TestDetailsC1ERKS0_i@PLT
 3539      00
 152:testCore.cpp  **** 	CHECK_EQUAL(0UL, queue.takeIndex);
 3540              		.loc 3 152 2 discriminator 15
 3541 1d73 488D4590 		leaq	-112(%rbp), %rax
 3542 1d77 488D1500 		leaq	.LC5(%rip), %rdx
 3542      000000
 3543 1d7e 4889C6   		movq	%rax, %rsi
 3544 1d81 4889DF   		movq	%rbx, %rdi
 3545 1d84 E8000000 		call	_ZN8UnitTest11TestResults13OnTestFailureERKNS_11TestDetailsEPKc@PLT
 3545      00
 3546              	.LEHE162:
 3547              	.LEHB163:
 152:testCore.cpp  **** 	CHECK_EQUAL(0UL, queue.takeIndex);
 3548              		.loc 3 152 2 discriminator 17
 3549 1d89 E8000000 		call	__cxa_end_catch@PLT
 3549      00
 3550              	.LEHE163:
 3551 1d8e E985F9FF 		jmp	.L179
 3551      FF
 3552              	.L221:
 3553 1d93 F30F1EFA 		endbr64
 152:testCore.cpp  **** 	CHECK_EQUAL(0UL, queue.takeIndex);
 3554              		.loc 3 152 2
 3555 1d97 4889C3   		movq	%rax, %rbx
 3556 1d9a E8000000 		call	__cxa_end_catch@PLT
 3556      00
 3557 1d9f 4889D8   		movq	%rbx, %rax
 3558 1da2 4889C7   		movq	%rax, %rdi
 3559              	.LEHB164:
 3560 1da5 E8000000 		call	_Unwind_Resume@PLT
 3560      00
 3561              	.LEHE164:
 3562              	.L222:
 3563 1daa F30F1EFA 		endbr64
 153:testCore.cpp  **** 	CHECK_EQUAL(4UL, queue.numItems);
 3564              		.loc 3 153 2 is_stmt 1
 3565 1dae 4889C7   		movq	%rax, %rdi
 3566 1db1 E8000000 		call	__cxa_begin_catch@PLT
 3566      00
 3567              	.LEHB165:
 3568 1db6 E8000000 		call	_ZN8UnitTest11CurrentTest7ResultsEv@PLT
 3568      00
 153:testCore.cpp  **** 	CHECK_EQUAL(4UL, queue.numItems);
 3569              		.loc 3 153 2 is_stmt 0 discriminator 3
 3570 1dbb 488B18   		movq	(%rax), %rbx
 3571 1dbe E8000000 		call	_ZN8UnitTest11CurrentTest7DetailsEv@PLT
 3571      00
 153:testCore.cpp  **** 	CHECK_EQUAL(4UL, queue.numItems);
 3572              		.loc 3 153 2 discriminator 11
 3573 1dc3 488B08   		movq	(%rax), %rcx
 3574 1dc6 488D4590 		leaq	-112(%rbp), %rax
 3575 1dca BA990000 		movl	$153, %edx
 3575      00
 3576 1dcf 4889CE   		movq	%rcx, %rsi
 3577 1dd2 4889C7   		movq	%rax, %rdi
 3578 1dd5 E8000000 		call	_ZN8UnitTest11TestDetailsC1ERKS0_i@PLT
 3578      00
 153:testCore.cpp  **** 	CHECK_EQUAL(4UL, queue.numItems);
 3579              		.loc 3 153 2 discriminator 15
 3580 1dda 488D4590 		leaq	-112(%rbp), %rax
 3581 1dde 488D1500 		leaq	.LC6(%rip), %rdx
 3581      000000
 3582 1de5 4889C6   		movq	%rax, %rsi
 3583 1de8 4889DF   		movq	%rbx, %rdi
 3584 1deb E8000000 		call	_ZN8UnitTest11TestResults13OnTestFailureERKNS_11TestDetailsEPKc@PLT
 3584      00
 3585              	.LEHE165:
 3586              	.LEHB166:
 153:testCore.cpp  **** 	CHECK_EQUAL(4UL, queue.numItems);
 3587              		.loc 3 153 2 discriminator 17
 3588 1df0 E8000000 		call	__cxa_end_catch@PLT
 3588      00
 3589              	.LEHE166:
 3590 1df5 E968F9FF 		jmp	.L182
 3590      FF
 3591              	.L223:
 3592 1dfa F30F1EFA 		endbr64
 153:testCore.cpp  **** 	CHECK_EQUAL(4UL, queue.numItems);
 3593              		.loc 3 153 2
 3594 1dfe 4889C3   		movq	%rax, %rbx
 3595 1e01 E8000000 		call	__cxa_end_catch@PLT
 3595      00
 3596 1e06 4889D8   		movq	%rbx, %rax
 3597 1e09 4889C7   		movq	%rax, %rdi
 3598              	.LEHB167:
 3599 1e0c E8000000 		call	_Unwind_Resume@PLT
 3599      00
 3600              	.LEHE167:
 3601              	.L224:
 3602 1e11 F30F1EFA 		endbr64
 154:testCore.cpp  **** 
 3603              		.loc 3 154 2 is_stmt 1
 3604 1e15 4889C7   		movq	%rax, %rdi
 3605 1e18 E8000000 		call	__cxa_begin_catch@PLT
 3605      00
 3606              	.LEHB168:
 3607 1e1d E8000000 		call	_ZN8UnitTest11CurrentTest7ResultsEv@PLT
 3607      00
 154:testCore.cpp  **** 
 3608              		.loc 3 154 2 is_stmt 0 discriminator 3
 3609 1e22 488B18   		movq	(%rax), %rbx
 3610 1e25 E8000000 		call	_ZN8UnitTest11CurrentTest7DetailsEv@PLT
 3610      00
 154:testCore.cpp  **** 
 3611              		.loc 3 154 2 discriminator 11
 3612 1e2a 488B08   		movq	(%rax), %rcx
 3613 1e2d 488D4590 		leaq	-112(%rbp), %rax
 3614 1e31 BA9A0000 		movl	$154, %edx
 3614      00
 3615 1e36 4889CE   		movq	%rcx, %rsi
 3616 1e39 4889C7   		movq	%rax, %rdi
 3617 1e3c E8000000 		call	_ZN8UnitTest11TestDetailsC1ERKS0_i@PLT
 3617      00
 154:testCore.cpp  **** 
 3618              		.loc 3 154 2 discriminator 15
 3619 1e41 488D4590 		leaq	-112(%rbp), %rax
 3620 1e45 488D1500 		leaq	.LC23(%rip), %rdx
 3620      000000
 3621 1e4c 4889C6   		movq	%rax, %rsi
 3622 1e4f 4889DF   		movq	%rbx, %rdi
 3623 1e52 E8000000 		call	_ZN8UnitTest11TestResults13OnTestFailureERKNS_11TestDetailsEPKc@PLT
 3623      00
 3624              	.LEHE168:
 3625              	.LEHB169:
 154:testCore.cpp  **** 
 3626              		.loc 3 154 2 discriminator 17
 3627 1e57 E8000000 		call	__cxa_end_catch@PLT
 3627      00
 3628              	.LEHE169:
 3629 1e5c E94BF9FF 		jmp	.L185
 3629      FF
 3630              	.L225:
 3631 1e61 F30F1EFA 		endbr64
 154:testCore.cpp  **** 
 3632              		.loc 3 154 2
 3633 1e65 4889C3   		movq	%rax, %rbx
 3634 1e68 E8000000 		call	__cxa_end_catch@PLT
 3634      00
 3635 1e6d 4889D8   		movq	%rbx, %rax
 3636 1e70 4889C7   		movq	%rax, %rdi
 3637              	.LEHB170:
 3638 1e73 E8000000 		call	_Unwind_Resume@PLT
 3638      00
 3639              	.LEHE170:
 3640              	.L226:
 3641 1e78 F30F1EFA 		endbr64
 157:testCore.cpp  **** 	CHECK_EQUAL(6UL, deref(queue.itemArray[1]));
 3642              		.loc 3 157 2 is_stmt 1
 3643 1e7c 4889C7   		movq	%rax, %rdi
 3644 1e7f E8000000 		call	__cxa_begin_catch@PLT
 3644      00
 3645              	.LEHB171:
 3646 1e84 E8000000 		call	_ZN8UnitTest11CurrentTest7ResultsEv@PLT
 3646      00
 157:testCore.cpp  **** 	CHECK_EQUAL(6UL, deref(queue.itemArray[1]));
 3647              		.loc 3 157 2 is_stmt 0 discriminator 3
 3648 1e89 488B18   		movq	(%rax), %rbx
 3649 1e8c E8000000 		call	_ZN8UnitTest11CurrentTest7DetailsEv@PLT
 3649      00
 157:testCore.cpp  **** 	CHECK_EQUAL(6UL, deref(queue.itemArray[1]));
 3650              		.loc 3 157 2 discriminator 11
 3651 1e91 488B08   		movq	(%rax), %rcx
 3652 1e94 488D4590 		leaq	-112(%rbp), %rax
 3653 1e98 BA9D0000 		movl	$157, %edx
 3653      00
 3654 1e9d 4889CE   		movq	%rcx, %rsi
 3655 1ea0 4889C7   		movq	%rax, %rdi
 3656 1ea3 E8000000 		call	_ZN8UnitTest11TestDetailsC1ERKS0_i@PLT
 3656      00
 157:testCore.cpp  **** 	CHECK_EQUAL(6UL, deref(queue.itemArray[1]));
 3657              		.loc 3 157 2 discriminator 15
 3658 1ea8 488D4590 		leaq	-112(%rbp), %rax
 3659 1eac 488D1500 		leaq	.LC18(%rip), %rdx
 3659      000000
 3660 1eb3 4889C6   		movq	%rax, %rsi
 3661 1eb6 4889DF   		movq	%rbx, %rdi
 3662 1eb9 E8000000 		call	_ZN8UnitTest11TestResults13OnTestFailureERKNS_11TestDetailsEPKc@PLT
 3662      00
 3663              	.LEHE171:
 3664              	.LEHB172:
 157:testCore.cpp  **** 	CHECK_EQUAL(6UL, deref(queue.itemArray[1]));
 3665              		.loc 3 157 2 discriminator 17
 3666 1ebe E8000000 		call	__cxa_end_catch@PLT
 3666      00
 3667              	.LEHE172:
 3668 1ec3 E93CF9FF 		jmp	.L188
 3668      FF
 3669              	.L227:
 3670 1ec8 F30F1EFA 		endbr64
 157:testCore.cpp  **** 	CHECK_EQUAL(6UL, deref(queue.itemArray[1]));
 3671              		.loc 3 157 2
 3672 1ecc 4889C3   		movq	%rax, %rbx
 3673 1ecf E8000000 		call	__cxa_end_catch@PLT
 3673      00
 3674 1ed4 4889D8   		movq	%rbx, %rax
 3675 1ed7 4889C7   		movq	%rax, %rdi
 3676              	.LEHB173:
 3677 1eda E8000000 		call	_Unwind_Resume@PLT
 3677      00
 3678              	.LEHE173:
 3679              	.L228:
 3680 1edf F30F1EFA 		endbr64
 158:testCore.cpp  **** 	CHECK_EQUAL(7UL, deref(queue.itemArray[2]));
 3681              		.loc 3 158 2 is_stmt 1
 3682 1ee3 4889C7   		movq	%rax, %rdi
 3683 1ee6 E8000000 		call	__cxa_begin_catch@PLT
 3683      00
 3684              	.LEHB174:
 3685 1eeb E8000000 		call	_ZN8UnitTest11CurrentTest7ResultsEv@PLT
 3685      00
 158:testCore.cpp  **** 	CHECK_EQUAL(7UL, deref(queue.itemArray[2]));
 3686              		.loc 3 158 2 is_stmt 0 discriminator 3
 3687 1ef0 488B18   		movq	(%rax), %rbx
 3688 1ef3 E8000000 		call	_ZN8UnitTest11CurrentTest7DetailsEv@PLT
 3688      00
 158:testCore.cpp  **** 	CHECK_EQUAL(7UL, deref(queue.itemArray[2]));
 3689              		.loc 3 158 2 discriminator 11
 3690 1ef8 488B08   		movq	(%rax), %rcx
 3691 1efb 488D4590 		leaq	-112(%rbp), %rax
 3692 1eff BA9E0000 		movl	$158, %edx
 3692      00
 3693 1f04 4889CE   		movq	%rcx, %rsi
 3694 1f07 4889C7   		movq	%rax, %rdi
 3695 1f0a E8000000 		call	_ZN8UnitTest11TestDetailsC1ERKS0_i@PLT
 3695      00
 158:testCore.cpp  **** 	CHECK_EQUAL(7UL, deref(queue.itemArray[2]));
 3696              		.loc 3 158 2 discriminator 15
 3697 1f0f 488D4590 		leaq	-112(%rbp), %rax
 3698 1f13 488D1500 		leaq	.LC19(%rip), %rdx
 3698      000000
 3699 1f1a 4889C6   		movq	%rax, %rsi
 3700 1f1d 4889DF   		movq	%rbx, %rdi
 3701 1f20 E8000000 		call	_ZN8UnitTest11TestResults13OnTestFailureERKNS_11TestDetailsEPKc@PLT
 3701      00
 3702              	.LEHE174:
 3703              	.LEHB175:
 158:testCore.cpp  **** 	CHECK_EQUAL(7UL, deref(queue.itemArray[2]));
 3704              		.loc 3 158 2 discriminator 17
 3705 1f25 E8000000 		call	__cxa_end_catch@PLT
 3705      00
 3706              	.LEHE175:
 3707 1f2a E931F9FF 		jmp	.L191
 3707      FF
 3708              	.L229:
 3709 1f2f F30F1EFA 		endbr64
 158:testCore.cpp  **** 	CHECK_EQUAL(7UL, deref(queue.itemArray[2]));
 3710              		.loc 3 158 2
 3711 1f33 4889C3   		movq	%rax, %rbx
 3712 1f36 E8000000 		call	__cxa_end_catch@PLT
 3712      00
 3713 1f3b 4889D8   		movq	%rbx, %rax
 3714 1f3e 4889C7   		movq	%rax, %rdi
 3715              	.LEHB176:
 3716 1f41 E8000000 		call	_Unwind_Resume@PLT
 3716      00
 3717              	.LEHE176:
 3718              	.L230:
 3719 1f46 F30F1EFA 		endbr64
 159:testCore.cpp  **** 	CHECK_EQUAL(8UL, deref(queue.itemArray[3]));
 3720              		.loc 3 159 2 is_stmt 1
 3721 1f4a 4889C7   		movq	%rax, %rdi
 3722 1f4d E8000000 		call	__cxa_begin_catch@PLT
 3722      00
 3723              	.LEHB177:
 3724 1f52 E8000000 		call	_ZN8UnitTest11CurrentTest7ResultsEv@PLT
 3724      00
 159:testCore.cpp  **** 	CHECK_EQUAL(8UL, deref(queue.itemArray[3]));
 3725              		.loc 3 159 2 is_stmt 0 discriminator 3
 3726 1f57 488B18   		movq	(%rax), %rbx
 3727 1f5a E8000000 		call	_ZN8UnitTest11CurrentTest7DetailsEv@PLT
 3727      00
 159:testCore.cpp  **** 	CHECK_EQUAL(8UL, deref(queue.itemArray[3]));
 3728              		.loc 3 159 2 discriminator 11
 3729 1f5f 488B08   		movq	(%rax), %rcx
 3730 1f62 488D4590 		leaq	-112(%rbp), %rax
 3731 1f66 BA9F0000 		movl	$159, %edx
 3731      00
 3732 1f6b 4889CE   		movq	%rcx, %rsi
 3733 1f6e 4889C7   		movq	%rax, %rdi
 3734 1f71 E8000000 		call	_ZN8UnitTest11TestDetailsC1ERKS0_i@PLT
 3734      00
 159:testCore.cpp  **** 	CHECK_EQUAL(8UL, deref(queue.itemArray[3]));
 3735              		.loc 3 159 2 discriminator 15
 3736 1f76 488D4590 		leaq	-112(%rbp), %rax
 3737 1f7a 488D1500 		leaq	.LC20(%rip), %rdx
 3737      000000
 3738 1f81 4889C6   		movq	%rax, %rsi
 3739 1f84 4889DF   		movq	%rbx, %rdi
 3740 1f87 E8000000 		call	_ZN8UnitTest11TestResults13OnTestFailureERKNS_11TestDetailsEPKc@PLT
 3740      00
 3741              	.LEHE177:
 3742              	.LEHB178:
 159:testCore.cpp  **** 	CHECK_EQUAL(8UL, deref(queue.itemArray[3]));
 3743              		.loc 3 159 2 discriminator 17
 3744 1f8c E8000000 		call	__cxa_end_catch@PLT
 3744      00
 3745              	.LEHE178:
 3746 1f91 E926F9FF 		jmp	.L194
 3746      FF
 3747              	.L231:
 3748 1f96 F30F1EFA 		endbr64
 159:testCore.cpp  **** 	CHECK_EQUAL(8UL, deref(queue.itemArray[3]));
 3749              		.loc 3 159 2
 3750 1f9a 4889C3   		movq	%rax, %rbx
 3751 1f9d E8000000 		call	__cxa_end_catch@PLT
 3751      00
 3752 1fa2 4889D8   		movq	%rbx, %rax
 3753 1fa5 4889C7   		movq	%rax, %rdi
 3754              	.LEHB179:
 3755 1fa8 E8000000 		call	_Unwind_Resume@PLT
 3755      00
 3756              	.LEHE179:
 3757              	.L232:
 3758 1fad F30F1EFA 		endbr64
 160:testCore.cpp  **** 
 3759              		.loc 3 160 2 is_stmt 1
 3760 1fb1 4889C7   		movq	%rax, %rdi
 3761 1fb4 E8000000 		call	__cxa_begin_catch@PLT
 3761      00
 3762              	.LEHB180:
 3763 1fb9 E8000000 		call	_ZN8UnitTest11CurrentTest7ResultsEv@PLT
 3763      00
 160:testCore.cpp  **** 
 3764              		.loc 3 160 2 is_stmt 0 discriminator 3
 3765 1fbe 488B18   		movq	(%rax), %rbx
 3766 1fc1 E8000000 		call	_ZN8UnitTest11CurrentTest7DetailsEv@PLT
 3766      00
 160:testCore.cpp  **** 
 3767              		.loc 3 160 2 discriminator 11
 3768 1fc6 488B08   		movq	(%rax), %rcx
 3769 1fc9 488D4590 		leaq	-112(%rbp), %rax
 3770 1fcd BAA00000 		movl	$160, %edx
 3770      00
 3771 1fd2 4889CE   		movq	%rcx, %rsi
 3772 1fd5 4889C7   		movq	%rax, %rdi
 3773 1fd8 E8000000 		call	_ZN8UnitTest11TestDetailsC1ERKS0_i@PLT
 3773      00
 160:testCore.cpp  **** 
 3774              		.loc 3 160 2 discriminator 15
 3775 1fdd 488D4590 		leaq	-112(%rbp), %rax
 3776 1fe1 488D1500 		leaq	.LC24(%rip), %rdx
 3776      000000
 3777 1fe8 4889C6   		movq	%rax, %rsi
 3778 1feb 4889DF   		movq	%rbx, %rdi
 3779 1fee E8000000 		call	_ZN8UnitTest11TestResults13OnTestFailureERKNS_11TestDetailsEPKc@PLT
 3779      00
 3780              	.LEHE180:
 3781              	.LEHB181:
 160:testCore.cpp  **** 
 3782              		.loc 3 160 2 discriminator 17
 3783 1ff3 E8000000 		call	__cxa_end_catch@PLT
 3783      00
 3784              	.LEHE181:
 3785 1ff8 E91BF9FF 		jmp	.L197
 3785      FF
 3786              	.L233:
 3787 1ffd F30F1EFA 		endbr64
 160:testCore.cpp  **** 
 3788              		.loc 3 160 2
 3789 2001 4889C3   		movq	%rax, %rbx
 3790 2004 E8000000 		call	__cxa_end_catch@PLT
 3790      00
 3791 2009 4889D8   		movq	%rbx, %rax
 3792 200c 4889C7   		movq	%rax, %rdi
 3793              	.LEHB182:
 3794 200f E8000000 		call	_Unwind_Resume@PLT
 3794      00
 3795              	.LEHE182:
 3796              	.L234:
 3797              		.loc 3 164 1 is_stmt 1
 3798 2014 E8000000 		call	__stack_chk_fail@PLT
 3798      00
 3799              	.L199:
 3800 2019 488B5DF8 		movq	-8(%rbp), %rbx
 3801 201d C9       		leave
 3802              		.cfi_def_cfa 7, 8
 3803 201e C3       		ret
 3804              		.cfi_endproc
 3805              	.LFE1173:
 3806              		.section	.gcc_except_table
 3807              		.align 4
 3808              	.LLSDA1173:
 3809 0250 FF       		.byte	0xff
 3810 0251 9B       		.byte	0x9b
 3811 0252 A003     		.uleb128 .LLSDATT1173-.LLSDATTD1173
 3812              	.LLSDATTD1173:
 3813 0254 01       		.byte	0x1
 3814 0255 9703     		.uleb128 .LLSDACSE1173-.LLSDACSB1173
 3815              	.LLSDACSB1173:
 3816 0257 4D       		.uleb128 .LEHB108-.LFB1173
 3817 0258 05       		.uleb128 .LEHE108-.LEHB108
 3818 0259 00       		.uleb128 0
 3819 025a 00       		.uleb128 0
 3820 025b 58       		.uleb128 .LEHB109-.LFB1173
 3821 025c 42       		.uleb128 .LEHE109-.LEHB109
 3822 025d AF0C     		.uleb128 .L200-.LFB1173
 3823 025f 01       		.uleb128 0x1
 3824 0260 A801     		.uleb128 .LEHB110-.LFB1173
 3825 0262 05       		.uleb128 .LEHE110-.LEHB110
 3826 0263 00       		.uleb128 0
 3827 0264 00       		.uleb128 0
 3828 0265 B301     		.uleb128 .LEHB111-.LFB1173
 3829 0267 42       		.uleb128 .LEHE111-.LEHB111
 3830 0268 960D     		.uleb128 .L202-.LFB1173
 3831 026a 01       		.uleb128 0x1
 3832 026b F501     		.uleb128 .LEHB112-.LFB1173
 3833 026d 46       		.uleb128 .LEHE112-.LEHB112
 3834 026e FD0D     		.uleb128 .L204-.LFB1173
 3835 0270 01       		.uleb128 0x1
 3836 0271 CC02     		.uleb128 .LEHB113-.LFB1173
 3837 0273 18       		.uleb128 .LEHE113-.LEHB113
 3838 0274 00       		.uleb128 0
 3839 0275 00       		.uleb128 0
 3840 0276 EA02     		.uleb128 .LEHB114-.LFB1173
 3841 0278 42       		.uleb128 .LEHE114-.LEHB114
 3842 0279 E40E     		.uleb128 .L206-.LFB1173
 3843 027b 01       		.uleb128 0x1
 3844 027c AC03     		.uleb128 .LEHB115-.LFB1173
 3845 027e 46       		.uleb128 .LEHE115-.LEHB115
 3846 027f CB0F     		.uleb128 .L208-.LFB1173
 3847 0281 01       		.uleb128 0x1
 3848 0282 8304     		.uleb128 .LEHB116-.LFB1173
 3849 0284 18       		.uleb128 .LEHE116-.LEHB116
 3850 0285 00       		.uleb128 0
 3851 0286 00       		.uleb128 0
 3852 0287 A104     		.uleb128 .LEHB117-.LFB1173
 3853 0289 42       		.uleb128 .LEHE117-.LEHB117
 3854 028a B210     		.uleb128 .L210-.LFB1173
 3855 028c 01       		.uleb128 0x1
 3856 028d E304     		.uleb128 .LEHB118-.LFB1173
 3857 028f 46       		.uleb128 .LEHE118-.LEHB118
 3858 0290 9911     		.uleb128 .L212-.LFB1173
 3859 0292 01       		.uleb128 0x1
 3860 0293 BA05     		.uleb128 .LEHB119-.LFB1173
 3861 0295 18       		.uleb128 .LEHE119-.LEHB119
 3862 0296 00       		.uleb128 0
 3863 0297 00       		.uleb128 0
 3864 0298 D805     		.uleb128 .LEHB120-.LFB1173
 3865 029a 42       		.uleb128 .LEHE120-.LEHB120
 3866 029b 8012     		.uleb128 .L214-.LFB1173
 3867 029d 01       		.uleb128 0x1
 3868 029e 9A06     		.uleb128 .LEHB121-.LFB1173
 3869 02a0 46       		.uleb128 .LEHE121-.LEHB121
 3870 02a1 E712     		.uleb128 .L216-.LFB1173
 3871 02a3 01       		.uleb128 0x1
 3872 02a4 F106     		.uleb128 .LEHB122-.LFB1173
 3873 02a6 05       		.uleb128 .LEHE122-.LEHB122
 3874 02a7 00       		.uleb128 0
 3875 02a8 00       		.uleb128 0
 3876 02a9 F606     		.uleb128 .LEHB123-.LFB1173
 3877 02ab 4A       		.uleb128 .LEHE123-.LEHB123
 3878 02ac CE13     		.uleb128 .L218-.LFB1173
 3879 02ae 01       		.uleb128 0x1
 3880 02af C007     		.uleb128 .LEHB124-.LFB1173
 3881 02b1 4A       		.uleb128 .LEHE124-.LEHB124
 3882 02b2 B514     		.uleb128 .L220-.LFB1173
 3883 02b4 01       		.uleb128 0x1
 3884 02b5 8A08     		.uleb128 .LEHB125-.LFB1173
 3885 02b7 4A       		.uleb128 .LEHE125-.LEHB125
 3886 02b8 9C15     		.uleb128 .L222-.LFB1173
 3887 02ba 01       		.uleb128 0x1
 3888 02bb D408     		.uleb128 .LEHB126-.LFB1173
 3889 02bd 4A       		.uleb128 .LEHE126-.LEHB126
 3890 02be 8316     		.uleb128 .L224-.LFB1173
 3891 02c0 01       		.uleb128 0x1
 3892 02c1 9E09     		.uleb128 .LEHB127-.LFB1173
 3893 02c3 58       		.uleb128 .LEHE127-.LEHB127
 3894 02c4 EA16     		.uleb128 .L226-.LFB1173
 3895 02c6 01       		.uleb128 0x1
 3896 02c7 F609     		.uleb128 .LEHB128-.LFB1173
 3897 02c9 5C       		.uleb128 .LEHE128-.LEHB128
 3898 02ca D117     		.uleb128 .L228-.LFB1173
 3899 02cc 01       		.uleb128 0x1
 3900 02cd D20A     		.uleb128 .LEHB129-.LFB1173
 3901 02cf 5C       		.uleb128 .LEHE129-.LEHB129
 3902 02d0 B818     		.uleb128 .L230-.LFB1173
 3903 02d2 01       		.uleb128 0x1
 3904 02d3 AE0B     		.uleb128 .LEHB130-.LFB1173
 3905 02d5 5C       		.uleb128 .LEHE130-.LEHB130
 3906 02d6 9F19     		.uleb128 .L232-.LFB1173
 3907 02d8 01       		.uleb128 0x1
 3908 02d9 910C     		.uleb128 .LEHB131-.LFB1173
 3909 02db 05       		.uleb128 .LEHE131-.LEHB131
 3910 02dc 00       		.uleb128 0
 3911 02dd 00       		.uleb128 0
 3912 02de BB0C     		.uleb128 .LEHB132-.LFB1173
 3913 02e0 3A       		.uleb128 .LEHE132-.LEHB132
 3914 02e1 FF0C     		.uleb128 .L201-.LFB1173
 3915 02e3 00       		.uleb128 0
 3916 02e4 F50C     		.uleb128 .LEHB133-.LFB1173
 3917 02e6 05       		.uleb128 .LEHE133-.LEHB133
 3918 02e7 00       		.uleb128 0
 3919 02e8 00       		.uleb128 0
 3920 02e9 910D     		.uleb128 .LEHB134-.LFB1173
 3921 02eb 05       		.uleb128 .LEHE134-.LEHB134
 3922 02ec 00       		.uleb128 0
 3923 02ed 00       		.uleb128 0
 3924 02ee A20D     		.uleb128 .LEHB135-.LFB1173
 3925 02f0 3A       		.uleb128 .LEHE135-.LEHB135
 3926 02f1 E60D     		.uleb128 .L203-.LFB1173
 3927 02f3 00       		.uleb128 0
 3928 02f4 DC0D     		.uleb128 .LEHB136-.LFB1173
 3929 02f6 05       		.uleb128 .LEHE136-.LEHB136
 3930 02f7 00       		.uleb128 0
 3931 02f8 00       		.uleb128 0
 3932 02f9 F80D     		.uleb128 .LEHB137-.LFB1173
 3933 02fb 05       		.uleb128 .LEHE137-.LEHB137
 3934 02fc 00       		.uleb128 0
 3935 02fd 00       		.uleb128 0
 3936 02fe 890E     		.uleb128 .LEHB138-.LFB1173
 3937 0300 3A       		.uleb128 .LEHE138-.LEHB138
 3938 0301 CD0E     		.uleb128 .L205-.LFB1173
 3939 0303 00       		.uleb128 0
 3940 0304 C30E     		.uleb128 .LEHB139-.LFB1173
 3941 0306 05       		.uleb128 .LEHE139-.LEHB139
 3942 0307 00       		.uleb128 0
 3943 0308 00       		.uleb128 0
 3944 0309 DF0E     		.uleb128 .LEHB140-.LFB1173
 3945 030b 05       		.uleb128 .LEHE140-.LEHB140
 3946 030c 00       		.uleb128 0
 3947 030d 00       		.uleb128 0
 3948 030e F00E     		.uleb128 .LEHB141-.LFB1173
 3949 0310 3A       		.uleb128 .LEHE141-.LEHB141
 3950 0311 B40F     		.uleb128 .L207-.LFB1173
 3951 0313 00       		.uleb128 0
 3952 0314 AA0F     		.uleb128 .LEHB142-.LFB1173
 3953 0316 05       		.uleb128 .LEHE142-.LEHB142
 3954 0317 00       		.uleb128 0
 3955 0318 00       		.uleb128 0
 3956 0319 C60F     		.uleb128 .LEHB143-.LFB1173
 3957 031b 05       		.uleb128 .LEHE143-.LEHB143
 3958 031c 00       		.uleb128 0
 3959 031d 00       		.uleb128 0
 3960 031e D70F     		.uleb128 .LEHB144-.LFB1173
 3961 0320 3A       		.uleb128 .LEHE144-.LEHB144
 3962 0321 9B10     		.uleb128 .L209-.LFB1173
 3963 0323 00       		.uleb128 0
 3964 0324 9110     		.uleb128 .LEHB145-.LFB1173
 3965 0326 05       		.uleb128 .LEHE145-.LEHB145
 3966 0327 00       		.uleb128 0
 3967 0328 00       		.uleb128 0
 3968 0329 AD10     		.uleb128 .LEHB146-.LFB1173
 3969 032b 05       		.uleb128 .LEHE146-.LEHB146
 3970 032c 00       		.uleb128 0
 3971 032d 00       		.uleb128 0
 3972 032e BE10     		.uleb128 .LEHB147-.LFB1173
 3973 0330 3A       		.uleb128 .LEHE147-.LEHB147
 3974 0331 8211     		.uleb128 .L211-.LFB1173
 3975 0333 00       		.uleb128 0
 3976 0334 F810     		.uleb128 .LEHB148-.LFB1173
 3977 0336 05       		.uleb128 .LEHE148-.LEHB148
 3978 0337 00       		.uleb128 0
 3979 0338 00       		.uleb128 0
 3980 0339 9411     		.uleb128 .LEHB149-.LFB1173
 3981 033b 05       		.uleb128 .LEHE149-.LEHB149
 3982 033c 00       		.uleb128 0
 3983 033d 00       		.uleb128 0
 3984 033e A511     		.uleb128 .LEHB150-.LFB1173
 3985 0340 3A       		.uleb128 .LEHE150-.LEHB150
 3986 0341 E911     		.uleb128 .L213-.LFB1173
 3987 0343 00       		.uleb128 0
 3988 0344 DF11     		.uleb128 .LEHB151-.LFB1173
 3989 0346 05       		.uleb128 .LEHE151-.LEHB151
 3990 0347 00       		.uleb128 0
 3991 0348 00       		.uleb128 0
 3992 0349 FB11     		.uleb128 .LEHB152-.LFB1173
 3993 034b 05       		.uleb128 .LEHE152-.LEHB152
 3994 034c 00       		.uleb128 0
 3995 034d 00       		.uleb128 0
 3996 034e 8C12     		.uleb128 .LEHB153-.LFB1173
 3997 0350 3A       		.uleb128 .LEHE153-.LEHB153
 3998 0351 D012     		.uleb128 .L215-.LFB1173
 3999 0353 00       		.uleb128 0
 4000 0354 C612     		.uleb128 .LEHB154-.LFB1173
 4001 0356 05       		.uleb128 .LEHE154-.LEHB154
 4002 0357 00       		.uleb128 0
 4003 0358 00       		.uleb128 0
 4004 0359 E212     		.uleb128 .LEHB155-.LFB1173
 4005 035b 05       		.uleb128 .LEHE155-.LEHB155
 4006 035c 00       		.uleb128 0
 4007 035d 00       		.uleb128 0
 4008 035e F312     		.uleb128 .LEHB156-.LFB1173
 4009 0360 3A       		.uleb128 .LEHE156-.LEHB156
 4010 0361 B713     		.uleb128 .L217-.LFB1173
 4011 0363 00       		.uleb128 0
 4012 0364 AD13     		.uleb128 .LEHB157-.LFB1173
 4013 0366 05       		.uleb128 .LEHE157-.LEHB157
 4014 0367 00       		.uleb128 0
 4015 0368 00       		.uleb128 0
 4016 0369 C913     		.uleb128 .LEHB158-.LFB1173
 4017 036b 05       		.uleb128 .LEHE158-.LEHB158
 4018 036c 00       		.uleb128 0
 4019 036d 00       		.uleb128 0
 4020 036e DA13     		.uleb128 .LEHB159-.LFB1173
 4021 0370 3A       		.uleb128 .LEHE159-.LEHB159
 4022 0371 9E14     		.uleb128 .L219-.LFB1173
 4023 0373 00       		.uleb128 0
 4024 0374 9414     		.uleb128 .LEHB160-.LFB1173
 4025 0376 05       		.uleb128 .LEHE160-.LEHB160
 4026 0377 00       		.uleb128 0
 4027 0378 00       		.uleb128 0
 4028 0379 B014     		.uleb128 .LEHB161-.LFB1173
 4029 037b 05       		.uleb128 .LEHE161-.LEHB161
 4030 037c 00       		.uleb128 0
 4031 037d 00       		.uleb128 0
 4032 037e C114     		.uleb128 .LEHB162-.LFB1173
 4033 0380 3A       		.uleb128 .LEHE162-.LEHB162
 4034 0381 8515     		.uleb128 .L221-.LFB1173
 4035 0383 00       		.uleb128 0
 4036 0384 FB14     		.uleb128 .LEHB163-.LFB1173
 4037 0386 05       		.uleb128 .LEHE163-.LEHB163
 4038 0387 00       		.uleb128 0
 4039 0388 00       		.uleb128 0
 4040 0389 9715     		.uleb128 .LEHB164-.LFB1173
 4041 038b 05       		.uleb128 .LEHE164-.LEHB164
 4042 038c 00       		.uleb128 0
 4043 038d 00       		.uleb128 0
 4044 038e A815     		.uleb128 .LEHB165-.LFB1173
 4045 0390 3A       		.uleb128 .LEHE165-.LEHB165
 4046 0391 EC15     		.uleb128 .L223-.LFB1173
 4047 0393 00       		.uleb128 0
 4048 0394 E215     		.uleb128 .LEHB166-.LFB1173
 4049 0396 05       		.uleb128 .LEHE166-.LEHB166
 4050 0397 00       		.uleb128 0
 4051 0398 00       		.uleb128 0
 4052 0399 FE15     		.uleb128 .LEHB167-.LFB1173
 4053 039b 05       		.uleb128 .LEHE167-.LEHB167
 4054 039c 00       		.uleb128 0
 4055 039d 00       		.uleb128 0
 4056 039e 8F16     		.uleb128 .LEHB168-.LFB1173
 4057 03a0 3A       		.uleb128 .LEHE168-.LEHB168
 4058 03a1 D316     		.uleb128 .L225-.LFB1173
 4059 03a3 00       		.uleb128 0
 4060 03a4 C916     		.uleb128 .LEHB169-.LFB1173
 4061 03a6 05       		.uleb128 .LEHE169-.LEHB169
 4062 03a7 00       		.uleb128 0
 4063 03a8 00       		.uleb128 0
 4064 03a9 E516     		.uleb128 .LEHB170-.LFB1173
 4065 03ab 05       		.uleb128 .LEHE170-.LEHB170
 4066 03ac 00       		.uleb128 0
 4067 03ad 00       		.uleb128 0
 4068 03ae F616     		.uleb128 .LEHB171-.LFB1173
 4069 03b0 3A       		.uleb128 .LEHE171-.LEHB171
 4070 03b1 BA17     		.uleb128 .L227-.LFB1173
 4071 03b3 00       		.uleb128 0
 4072 03b4 B017     		.uleb128 .LEHB172-.LFB1173
 4073 03b6 05       		.uleb128 .LEHE172-.LEHB172
 4074 03b7 00       		.uleb128 0
 4075 03b8 00       		.uleb128 0
 4076 03b9 CC17     		.uleb128 .LEHB173-.LFB1173
 4077 03bb 05       		.uleb128 .LEHE173-.LEHB173
 4078 03bc 00       		.uleb128 0
 4079 03bd 00       		.uleb128 0
 4080 03be DD17     		.uleb128 .LEHB174-.LFB1173
 4081 03c0 3A       		.uleb128 .LEHE174-.LEHB174
 4082 03c1 A118     		.uleb128 .L229-.LFB1173
 4083 03c3 00       		.uleb128 0
 4084 03c4 9718     		.uleb128 .LEHB175-.LFB1173
 4085 03c6 05       		.uleb128 .LEHE175-.LEHB175
 4086 03c7 00       		.uleb128 0
 4087 03c8 00       		.uleb128 0
 4088 03c9 B318     		.uleb128 .LEHB176-.LFB1173
 4089 03cb 05       		.uleb128 .LEHE176-.LEHB176
 4090 03cc 00       		.uleb128 0
 4091 03cd 00       		.uleb128 0
 4092 03ce C418     		.uleb128 .LEHB177-.LFB1173
 4093 03d0 3A       		.uleb128 .LEHE177-.LEHB177
 4094 03d1 8819     		.uleb128 .L231-.LFB1173
 4095 03d3 00       		.uleb128 0
 4096 03d4 FE18     		.uleb128 .LEHB178-.LFB1173
 4097 03d6 05       		.uleb128 .LEHE178-.LEHB178
 4098 03d7 00       		.uleb128 0
 4099 03d8 00       		.uleb128 0
 4100 03d9 9A19     		.uleb128 .LEHB179-.LFB1173
 4101 03db 05       		.uleb128 .LEHE179-.LEHB179
 4102 03dc 00       		.uleb128 0
 4103 03dd 00       		.uleb128 0
 4104 03de AB19     		.uleb128 .LEHB180-.LFB1173
 4105 03e0 3A       		.uleb128 .LEHE180-.LEHB180
 4106 03e1 EF19     		.uleb128 .L233-.LFB1173
 4107 03e3 00       		.uleb128 0
 4108 03e4 E519     		.uleb128 .LEHB181-.LFB1173
 4109 03e6 05       		.uleb128 .LEHE181-.LEHB181
 4110 03e7 00       		.uleb128 0
 4111 03e8 00       		.uleb128 0
 4112 03e9 811A     		.uleb128 .LEHB182-.LFB1173
 4113 03eb 05       		.uleb128 .LEHE182-.LEHB182
 4114 03ec 00       		.uleb128 0
 4115 03ed 00       		.uleb128 0
 4116              	.LLSDACSE1173:
 4117 03ee 01       		.byte	0x1
 4118 03ef 00       		.byte	0
 4119              		.align 4
 4120 03f0 00000000 		.long	0
 4121              	
 4122              	.LLSDATT1173:
 4123              		.text
 4125              		.section	.rodata
 4126              	.LC25:
 4127 0513 51756575 		.string	"Queue_testPutTake"
 4127      655F7465 
 4127      73745075 
 4127      7454616B 
 4127      6500
 4128              		.section	.text._ZN21TestQueue_testPutTakeC2Ev,"axG",@progbits,_ZN21TestQueue_testPutTakeC5Ev,comda
 4129              		.align 2
 4130              		.weak	_ZN21TestQueue_testPutTakeC2Ev
 4132              	_ZN21TestQueue_testPutTakeC2Ev:
 4133              	.LFB1175:
 165:testCore.cpp  **** 
 166:testCore.cpp  **** TEST(Queue_testPutTake) {
 4134              		.loc 3 166 1
 4135              		.cfi_startproc
 4136 0000 F30F1EFA 		endbr64
 4137 0004 55       		pushq	%rbp
 4138              		.cfi_def_cfa_offset 16
 4139              		.cfi_offset 6, -16
 4140 0005 4889E5   		movq	%rsp, %rbp
 4141              		.cfi_def_cfa_register 6
 4142 0008 53       		pushq	%rbx
 4143 0009 4883EC18 		subq	$24, %rsp
 4144              		.cfi_offset 3, -24
 4145 000d 48897DE8 		movq	%rdi, -24(%rbp)
 4146              	.LBB7:
 4147              		.loc 3 166 1
 4148 0011 488B5DE8 		movq	-24(%rbp), %rbx
 4149 0015 E8000000 		call	_ZN13UnitTestSuite12GetSuiteNameEv
 4149      00
 4150 001a 4889C2   		movq	%rax, %rdx
 4151 001d 41B8A600 		movl	$166, %r8d
 4151      0000
 4152 0023 488D0500 		leaq	.LC1(%rip), %rax
 4152      000000
 4153 002a 4889C1   		movq	%rax, %rcx
 4154 002d 488D0500 		leaq	.LC25(%rip), %rax
 4154      000000
 4155 0034 4889C6   		movq	%rax, %rsi
 4156 0037 4889DF   		movq	%rbx, %rdi
 4157 003a E8000000 		call	_ZN8UnitTest4TestC2EPKcS2_S2_i@PLT
 4157      00
 4158 003f 488D1500 		leaq	16+_ZTV21TestQueue_testPutTake(%rip), %rdx
 4158      000000
 4159 0046 488B45E8 		movq	-24(%rbp), %rax
 4160 004a 488910   		movq	%rdx, (%rax)
 4161              	.LBE7:
 4162 004d 90       		nop
 4163 004e 488B5DF8 		movq	-8(%rbp), %rbx
 4164 0052 C9       		leave
 4165              		.cfi_def_cfa 7, 8
 4166 0053 C3       		ret
 4167              		.cfi_endproc
 4168              	.LFE1175:
 4170              		.weak	_ZN21TestQueue_testPutTakeC1Ev
 4171              		.set	_ZN21TestQueue_testPutTakeC1Ev,_ZN21TestQueue_testPutTakeC2Ev
 4172              		.globl	testQueue_testPutTakeInstance
 4173              		.bss
 4174 00b9 00000000 		.align 32
 4174      000000
 4177              	testQueue_testPutTakeInstance:
 4178 00c0 00000000 		.zero	56
 4178      00000000 
 4178      00000000 
 4178      00000000 
 4178      00000000 
 4179              		.globl	adderQueue_testPutTake
 4182              	adderQueue_testPutTake:
 4183 00f8 00       		.zero	1
 4184              		.section	.rodata
 4185 0525 000000   		.align 8
 4186              	.LC26:
 4187 0528 556E6861 		.string	"Unhandled exception in CHECK_EQUAL(5UL, *item)"
 4187      6E646C65 
 4187      64206578 
 4187      63657074 
 4187      696F6E20 
 4188 0557 00       		.align 8
 4189              	.LC27:
 4190 0558 556E6861 		.string	"Unhandled exception in CHECK_EQUAL(6UL, *item)"
 4190      6E646C65 
 4190      64206578 
 4190      63657074 
 4190      696F6E20 
 4191 0587 00       		.align 8
 4192              	.LC28:
 4193 0588 556E6861 		.string	"Unhandled exception in CHECK_EQUAL(7UL, *item)"
 4193      6E646C65 
 4193      64206578 
 4193      63657074 
 4193      696F6E20 
 4194 05b7 00       		.align 8
 4195              	.LC29:
 4196 05b8 556E6861 		.string	"Unhandled exception in CHECK_EQUAL(8UL, *item)"
 4196      6E646C65 
 4196      64206578 
 4196      63657074 
 4196      696F6E20 
 4197              		.text
 4198 201f 90       		.align 2
 4199              		.globl	_ZNK21TestQueue_testPutTake7RunImplEv
 4201              	_ZNK21TestQueue_testPutTake7RunImplEv:
 4202              	.LFB1177:
 4203              		.loc 3 166 25
 4204              		.cfi_startproc
 4205              		.cfi_personality 0x9b,DW.ref.__gxx_personality_v0
 4206              		.cfi_lsda 0x1b,.LLSDA1177
 4207 2020 F30F1EFA 		endbr64
 4208 2024 55       		pushq	%rbp
 4209              		.cfi_def_cfa_offset 16
 4210              		.cfi_offset 6, -16
 4211 2025 4889E5   		movq	%rsp, %rbp
 4212              		.cfi_def_cfa_register 6
 4213 2028 53       		pushq	%rbx
 4214 2029 4881EC98 		subq	$152, %rsp
 4214      000000
 4215              		.cfi_offset 3, -24
 4216 2030 4889BD68 		movq	%rdi, -152(%rbp)
 4216      FFFFFF
 4217              		.loc 3 166 25
 4218 2037 64488B04 		movq	%fs:40, %rax
 4218      25280000 
 4218      00
 4219 2040 488945E8 		movq	%rax, -24(%rbp)
 4220 2044 31C0     		xorl	%eax, %eax
 167:testCore.cpp  **** 	struct UnboundedQueue queue;
 168:testCore.cpp  **** 	uint32 *item;
 169:testCore.cpp  **** 	m_count = 1;
 4221              		.loc 3 169 10
 4222 2046 C7050000 		movl	$1, _ZL7m_count(%rip)
 4222      00000100 
 4222      0000
 170:testCore.cpp  **** 
 171:testCore.cpp  **** 	// Create queue
 172:testCore.cpp  **** 	USBStatus status = queueInit(&queue, 4, (CreateFunc)createInt, (DestroyFunc)destroyInt);
 4223              		.loc 3 172 30
 4224 2050 488D45B0 		leaq	-80(%rbp), %rax
 4225 2054 488D1500 		leaq	destroyInt(%rip), %rdx
 4225      000000
 4226 205b 4889D1   		movq	%rdx, %rcx
 4227 205e 488D1500 		leaq	createInt(%rip), %rdx
 4227      000000
 4228 2065 BE040000 		movl	$4, %esi
 4228      00
 4229 206a 4889C7   		movq	%rax, %rdi
 4230              	.LEHB183:
 4231 206d E8000000 		call	queueInit@PLT
 4231      00
 4232              	.LEHE183:
 4233              		.loc 3 172 88
 4234 2072 898578FF 		movl	%eax, -136(%rbp)
 4234      FFFF
 4235              	.LEHB184:
 173:testCore.cpp  **** 	CHECK_EQUAL(USB_SUCCESS, status);
 4236              		.loc 3 173 2
 4237 2078 E8000000 		call	_ZN8UnitTest11CurrentTest7DetailsEv@PLT
 4237      00
 4238 207d 488B08   		movq	(%rax), %rcx
 4239 2080 488D4590 		leaq	-112(%rbp), %rax
 4240 2084 BAAD0000 		movl	$173, %edx
 4240      00
 4241 2089 4889CE   		movq	%rcx, %rsi
 4242 208c 4889C7   		movq	%rax, %rdi
 4243 208f E8000000 		call	_ZN8UnitTest11TestDetailsC1ERKS0_i@PLT
 4243      00
 4244              		.loc 3 173 2 is_stmt 0 discriminator 4
 4245 2094 C7458800 		movl	$0, -120(%rbp)
 4245      000000
 4246 209b E8000000 		call	_ZN8UnitTest11CurrentTest7ResultsEv@PLT
 4246      00
 4247 20a0 488B00   		movq	(%rax), %rax
 4248 20a3 488D4D90 		leaq	-112(%rbp), %rcx
 4249 20a7 488D9578 		leaq	-136(%rbp), %rdx
 4249      FFFFFF
 4250 20ae 488D7588 		leaq	-120(%rbp), %rsi
 4251 20b2 4889C7   		movq	%rax, %rdi
 4252 20b5 E8000000 		call	_ZN8UnitTest10CheckEqualI9USBStatusS1_EEvRNS_11TestResultsERKT_RKT0_RKNS_11TestDetailsE
 4252      00
 4253              	.LEHE184:
 4254              	.L238:
 174:testCore.cpp  **** 
 175:testCore.cpp  **** 	// Put four items into the queue
 176:testCore.cpp  **** 	status = queuePut(&queue, (Item*)&item);
 4255              		.loc 3 176 19 is_stmt 1
 4256 20ba 488D5580 		leaq	-128(%rbp), %rdx
 4257 20be 488D45B0 		leaq	-80(%rbp), %rax
 4258 20c2 4889D6   		movq	%rdx, %rsi
 4259 20c5 4889C7   		movq	%rax, %rdi
 4260              	.LEHB185:
 4261 20c8 E8000000 		call	queuePut@PLT
 4261      00
 4262              	.LEHE185:
 4263              		.loc 3 176 9
 4264 20cd 898578FF 		movl	%eax, -136(%rbp)
 4264      FFFF
 4265              	.LEHB186:
 177:testCore.cpp  **** 	CHECK_EQUAL(USB_SUCCESS, status);
 4266              		.loc 3 177 2
 4267 20d3 E8000000 		call	_ZN8UnitTest11CurrentTest7DetailsEv@PLT
 4267      00
 4268 20d8 488B08   		movq	(%rax), %rcx
 4269 20db 488D4590 		leaq	-112(%rbp), %rax
 4270 20df BAB10000 		movl	$177, %edx
 4270      00
 4271 20e4 4889CE   		movq	%rcx, %rsi
 4272 20e7 4889C7   		movq	%rax, %rdi
 4273 20ea E8000000 		call	_ZN8UnitTest11TestDetailsC1ERKS0_i@PLT
 4273      00
 4274              		.loc 3 177 2 is_stmt 0 discriminator 4
 4275 20ef C7458800 		movl	$0, -120(%rbp)
 4275      000000
 4276 20f6 E8000000 		call	_ZN8UnitTest11CurrentTest7ResultsEv@PLT
 4276      00
 4277 20fb 488B00   		movq	(%rax), %rax
 4278 20fe 488D4D90 		leaq	-112(%rbp), %rcx
 4279 2102 488D9578 		leaq	-136(%rbp), %rdx
 4279      FFFFFF
 4280 2109 488D7588 		leaq	-120(%rbp), %rsi
 4281 210d 4889C7   		movq	%rax, %rdi
 4282 2110 E8000000 		call	_ZN8UnitTest10CheckEqualI9USBStatusS1_EEvRNS_11TestResultsERKT_RKT0_RKNS_11TestDetailsE
 4282      00
 4283              	.LEHE186:
 4284              	.L241:
 4285              	.LEHB187:
 178:testCore.cpp  **** 	CHECK_EQUAL(1UL, *item);
 4286              		.loc 3 178 2 is_stmt 1
 4287 2115 E8000000 		call	_ZN8UnitTest11CurrentTest7DetailsEv@PLT
 4287      00
 4288 211a 488B08   		movq	(%rax), %rcx
 4289 211d 488D4590 		leaq	-112(%rbp), %rax
 4290 2121 BAB20000 		movl	$178, %edx
 4290      00
 4291 2126 4889CE   		movq	%rcx, %rsi
 4292 2129 4889C7   		movq	%rax, %rdi
 4293 212c E8000000 		call	_ZN8UnitTest11TestDetailsC1ERKS0_i@PLT
 4293      00
 4294              		.loc 3 178 2 is_stmt 0 discriminator 4
 4295 2131 488B5D80 		movq	-128(%rbp), %rbx
 4296 2135 48C74588 		movq	$1, -120(%rbp)
 4296      01000000 
 4297 213d E8000000 		call	_ZN8UnitTest11CurrentTest7ResultsEv@PLT
 4297      00
 4298 2142 488B00   		movq	(%rax), %rax
 4299 2145 488D5590 		leaq	-112(%rbp), %rdx
 4300 2149 488D7588 		leaq	-120(%rbp), %rsi
 4301 214d 4889D1   		movq	%rdx, %rcx
 4302 2150 4889DA   		movq	%rbx, %rdx
 4303 2153 4889C7   		movq	%rax, %rdi
 4304 2156 E8000000 		call	_ZN8UnitTest10CheckEqualImjEEvRNS_11TestResultsERKT_RKT0_RKNS_11TestDetailsE
 4304      00
 4305              	.LEHE187:
 4306              	.L244:
 179:testCore.cpp  **** 	*item = 5;
 4307              		.loc 3 179 2 is_stmt 1
 4308 215b 488B4580 		movq	-128(%rbp), %rax
 4309              		.loc 3 179 8
 4310 215f C7000500 		movl	$5, (%rax)
 4310      0000
 180:testCore.cpp  **** 	queueCommitPut(&queue);
 4311              		.loc 3 180 16
 4312 2165 488D45B0 		leaq	-80(%rbp), %rax
 4313 2169 4889C7   		movq	%rax, %rdi
 4314              	.LEHB188:
 4315 216c E8000000 		call	queueCommitPut@PLT
 4315      00
 181:testCore.cpp  **** 	status = queuePut(&queue, (Item*)&item);
 4316              		.loc 3 181 19
 4317 2171 488D5580 		leaq	-128(%rbp), %rdx
 4318 2175 488D45B0 		leaq	-80(%rbp), %rax
 4319 2179 4889D6   		movq	%rdx, %rsi
 4320 217c 4889C7   		movq	%rax, %rdi
 4321 217f E8000000 		call	queuePut@PLT
 4321      00
 4322              	.LEHE188:
 4323              		.loc 3 181 9
 4324 2184 898578FF 		movl	%eax, -136(%rbp)
 4324      FFFF
 4325              	.LEHB189:
 182:testCore.cpp  **** 	CHECK_EQUAL(USB_SUCCESS, status);
 4326              		.loc 3 182 2
 4327 218a E8000000 		call	_ZN8UnitTest11CurrentTest7DetailsEv@PLT
 4327      00
 4328 218f 488B08   		movq	(%rax), %rcx
 4329 2192 488D4590 		leaq	-112(%rbp), %rax
 4330 2196 BAB60000 		movl	$182, %edx
 4330      00
 4331 219b 4889CE   		movq	%rcx, %rsi
 4332 219e 4889C7   		movq	%rax, %rdi
 4333 21a1 E8000000 		call	_ZN8UnitTest11TestDetailsC1ERKS0_i@PLT
 4333      00
 4334              		.loc 3 182 2 is_stmt 0 discriminator 4
 4335 21a6 C7458800 		movl	$0, -120(%rbp)
 4335      000000
 4336 21ad E8000000 		call	_ZN8UnitTest11CurrentTest7ResultsEv@PLT
 4336      00
 4337 21b2 488B00   		movq	(%rax), %rax
 4338 21b5 488D4D90 		leaq	-112(%rbp), %rcx
 4339 21b9 488D9578 		leaq	-136(%rbp), %rdx
 4339      FFFFFF
 4340 21c0 488D7588 		leaq	-120(%rbp), %rsi
 4341 21c4 4889C7   		movq	%rax, %rdi
 4342 21c7 E8000000 		call	_ZN8UnitTest10CheckEqualI9USBStatusS1_EEvRNS_11TestResultsERKT_RKT0_RKNS_11TestDetailsE
 4342      00
 4343              	.LEHE189:
 4344              	.L247:
 4345              	.LEHB190:
 183:testCore.cpp  **** 	CHECK_EQUAL(2UL, *item);
 4346              		.loc 3 183 2 is_stmt 1
 4347 21cc E8000000 		call	_ZN8UnitTest11CurrentTest7DetailsEv@PLT
 4347      00
 4348 21d1 488B08   		movq	(%rax), %rcx
 4349 21d4 488D4590 		leaq	-112(%rbp), %rax
 4350 21d8 BAB70000 		movl	$183, %edx
 4350      00
 4351 21dd 4889CE   		movq	%rcx, %rsi
 4352 21e0 4889C7   		movq	%rax, %rdi
 4353 21e3 E8000000 		call	_ZN8UnitTest11TestDetailsC1ERKS0_i@PLT
 4353      00
 4354              		.loc 3 183 2 is_stmt 0 discriminator 4
 4355 21e8 488B5D80 		movq	-128(%rbp), %rbx
 4356 21ec 48C74588 		movq	$2, -120(%rbp)
 4356      02000000 
 4357 21f4 E8000000 		call	_ZN8UnitTest11CurrentTest7ResultsEv@PLT
 4357      00
 4358 21f9 488B00   		movq	(%rax), %rax
 4359 21fc 488D5590 		leaq	-112(%rbp), %rdx
 4360 2200 488D7588 		leaq	-120(%rbp), %rsi
 4361 2204 4889D1   		movq	%rdx, %rcx
 4362 2207 4889DA   		movq	%rbx, %rdx
 4363 220a 4889C7   		movq	%rax, %rdi
 4364 220d E8000000 		call	_ZN8UnitTest10CheckEqualImjEEvRNS_11TestResultsERKT_RKT0_RKNS_11TestDetailsE
 4364      00
 4365              	.LEHE190:
 4366              	.L250:
 184:testCore.cpp  **** 	*item = 6;
 4367              		.loc 3 184 2 is_stmt 1
 4368 2212 488B4580 		movq	-128(%rbp), %rax
 4369              		.loc 3 184 8
 4370 2216 C7000600 		movl	$6, (%rax)
 4370      0000
 185:testCore.cpp  **** 	queueCommitPut(&queue);
 4371              		.loc 3 185 16
 4372 221c 488D45B0 		leaq	-80(%rbp), %rax
 4373 2220 4889C7   		movq	%rax, %rdi
 4374              	.LEHB191:
 4375 2223 E8000000 		call	queueCommitPut@PLT
 4375      00
 186:testCore.cpp  **** 	status = queuePut(&queue, (Item*)&item);
 4376              		.loc 3 186 19
 4377 2228 488D5580 		leaq	-128(%rbp), %rdx
 4378 222c 488D45B0 		leaq	-80(%rbp), %rax
 4379 2230 4889D6   		movq	%rdx, %rsi
 4380 2233 4889C7   		movq	%rax, %rdi
 4381 2236 E8000000 		call	queuePut@PLT
 4381      00
 4382              	.LEHE191:
 4383              		.loc 3 186 9
 4384 223b 898578FF 		movl	%eax, -136(%rbp)
 4384      FFFF
 4385              	.LEHB192:
 187:testCore.cpp  **** 	CHECK_EQUAL(USB_SUCCESS, status);
 4386              		.loc 3 187 2
 4387 2241 E8000000 		call	_ZN8UnitTest11CurrentTest7DetailsEv@PLT
 4387      00
 4388 2246 488B08   		movq	(%rax), %rcx
 4389 2249 488D4590 		leaq	-112(%rbp), %rax
 4390 224d BABB0000 		movl	$187, %edx
 4390      00
 4391 2252 4889CE   		movq	%rcx, %rsi
 4392 2255 4889C7   		movq	%rax, %rdi
 4393 2258 E8000000 		call	_ZN8UnitTest11TestDetailsC1ERKS0_i@PLT
 4393      00
 4394              		.loc 3 187 2 is_stmt 0 discriminator 4
 4395 225d C7458800 		movl	$0, -120(%rbp)
 4395      000000
 4396 2264 E8000000 		call	_ZN8UnitTest11CurrentTest7ResultsEv@PLT
 4396      00
 4397 2269 488B00   		movq	(%rax), %rax
 4398 226c 488D4D90 		leaq	-112(%rbp), %rcx
 4399 2270 488D9578 		leaq	-136(%rbp), %rdx
 4399      FFFFFF
 4400 2277 488D7588 		leaq	-120(%rbp), %rsi
 4401 227b 4889C7   		movq	%rax, %rdi
 4402 227e E8000000 		call	_ZN8UnitTest10CheckEqualI9USBStatusS1_EEvRNS_11TestResultsERKT_RKT0_RKNS_11TestDetailsE
 4402      00
 4403              	.LEHE192:
 4404              	.L253:
 4405              	.LEHB193:
 188:testCore.cpp  **** 	CHECK_EQUAL(3UL, *item);
 4406              		.loc 3 188 2 is_stmt 1
 4407 2283 E8000000 		call	_ZN8UnitTest11CurrentTest7DetailsEv@PLT
 4407      00
 4408 2288 488B08   		movq	(%rax), %rcx
 4409 228b 488D4590 		leaq	-112(%rbp), %rax
 4410 228f BABC0000 		movl	$188, %edx
 4410      00
 4411 2294 4889CE   		movq	%rcx, %rsi
 4412 2297 4889C7   		movq	%rax, %rdi
 4413 229a E8000000 		call	_ZN8UnitTest11TestDetailsC1ERKS0_i@PLT
 4413      00
 4414              		.loc 3 188 2 is_stmt 0 discriminator 4
 4415 229f 488B5D80 		movq	-128(%rbp), %rbx
 4416 22a3 48C74588 		movq	$3, -120(%rbp)
 4416      03000000 
 4417 22ab E8000000 		call	_ZN8UnitTest11CurrentTest7ResultsEv@PLT
 4417      00
 4418 22b0 488B00   		movq	(%rax), %rax
 4419 22b3 488D5590 		leaq	-112(%rbp), %rdx
 4420 22b7 488D7588 		leaq	-120(%rbp), %rsi
 4421 22bb 4889D1   		movq	%rdx, %rcx
 4422 22be 4889DA   		movq	%rbx, %rdx
 4423 22c1 4889C7   		movq	%rax, %rdi
 4424 22c4 E8000000 		call	_ZN8UnitTest10CheckEqualImjEEvRNS_11TestResultsERKT_RKT0_RKNS_11TestDetailsE
 4424      00
 4425              	.LEHE193:
 4426              	.L256:
 189:testCore.cpp  **** 	*item = 7;
 4427              		.loc 3 189 2 is_stmt 1
 4428 22c9 488B4580 		movq	-128(%rbp), %rax
 4429              		.loc 3 189 8
 4430 22cd C7000700 		movl	$7, (%rax)
 4430      0000
 190:testCore.cpp  **** 	queueCommitPut(&queue);
 4431              		.loc 3 190 16
 4432 22d3 488D45B0 		leaq	-80(%rbp), %rax
 4433 22d7 4889C7   		movq	%rax, %rdi
 4434              	.LEHB194:
 4435 22da E8000000 		call	queueCommitPut@PLT
 4435      00
 191:testCore.cpp  **** 	status = queuePut(&queue, (Item*)&item);
 4436              		.loc 3 191 19
 4437 22df 488D5580 		leaq	-128(%rbp), %rdx
 4438 22e3 488D45B0 		leaq	-80(%rbp), %rax
 4439 22e7 4889D6   		movq	%rdx, %rsi
 4440 22ea 4889C7   		movq	%rax, %rdi
 4441 22ed E8000000 		call	queuePut@PLT
 4441      00
 4442              	.LEHE194:
 4443              		.loc 3 191 9
 4444 22f2 898578FF 		movl	%eax, -136(%rbp)
 4444      FFFF
 4445              	.LEHB195:
 192:testCore.cpp  **** 	CHECK_EQUAL(USB_SUCCESS, status);
 4446              		.loc 3 192 2
 4447 22f8 E8000000 		call	_ZN8UnitTest11CurrentTest7DetailsEv@PLT
 4447      00
 4448 22fd 488B08   		movq	(%rax), %rcx
 4449 2300 488D4590 		leaq	-112(%rbp), %rax
 4450 2304 BAC00000 		movl	$192, %edx
 4450      00
 4451 2309 4889CE   		movq	%rcx, %rsi
 4452 230c 4889C7   		movq	%rax, %rdi
 4453 230f E8000000 		call	_ZN8UnitTest11TestDetailsC1ERKS0_i@PLT
 4453      00
 4454              		.loc 3 192 2 is_stmt 0 discriminator 4
 4455 2314 C7458800 		movl	$0, -120(%rbp)
 4455      000000
 4456 231b E8000000 		call	_ZN8UnitTest11CurrentTest7ResultsEv@PLT
 4456      00
 4457 2320 488B00   		movq	(%rax), %rax
 4458 2323 488D4D90 		leaq	-112(%rbp), %rcx
 4459 2327 488D9578 		leaq	-136(%rbp), %rdx
 4459      FFFFFF
 4460 232e 488D7588 		leaq	-120(%rbp), %rsi
 4461 2332 4889C7   		movq	%rax, %rdi
 4462 2335 E8000000 		call	_ZN8UnitTest10CheckEqualI9USBStatusS1_EEvRNS_11TestResultsERKT_RKT0_RKNS_11TestDetailsE
 4462      00
 4463              	.LEHE195:
 4464              	.L259:
 4465              	.LEHB196:
 193:testCore.cpp  **** 	CHECK_EQUAL(4UL, *item);
 4466              		.loc 3 193 2 is_stmt 1
 4467 233a E8000000 		call	_ZN8UnitTest11CurrentTest7DetailsEv@PLT
 4467      00
 4468 233f 488B08   		movq	(%rax), %rcx
 4469 2342 488D4590 		leaq	-112(%rbp), %rax
 4470 2346 BAC10000 		movl	$193, %edx
 4470      00
 4471 234b 4889CE   		movq	%rcx, %rsi
 4472 234e 4889C7   		movq	%rax, %rdi
 4473 2351 E8000000 		call	_ZN8UnitTest11TestDetailsC1ERKS0_i@PLT
 4473      00
 4474              		.loc 3 193 2 is_stmt 0 discriminator 4
 4475 2356 488B5D80 		movq	-128(%rbp), %rbx
 4476 235a 48C74588 		movq	$4, -120(%rbp)
 4476      04000000 
 4477 2362 E8000000 		call	_ZN8UnitTest11CurrentTest7ResultsEv@PLT
 4477      00
 4478 2367 488B00   		movq	(%rax), %rax
 4479 236a 488D5590 		leaq	-112(%rbp), %rdx
 4480 236e 488D7588 		leaq	-120(%rbp), %rsi
 4481 2372 4889D1   		movq	%rdx, %rcx
 4482 2375 4889DA   		movq	%rbx, %rdx
 4483 2378 4889C7   		movq	%rax, %rdi
 4484 237b E8000000 		call	_ZN8UnitTest10CheckEqualImjEEvRNS_11TestResultsERKT_RKT0_RKNS_11TestDetailsE
 4484      00
 4485              	.LEHE196:
 4486              	.L262:
 194:testCore.cpp  **** 	*item = 8;
 4487              		.loc 3 194 2 is_stmt 1
 4488 2380 488B4580 		movq	-128(%rbp), %rax
 4489              		.loc 3 194 8
 4490 2384 C7000800 		movl	$8, (%rax)
 4490      0000
 195:testCore.cpp  **** 	queueCommitPut(&queue);
 4491              		.loc 3 195 16
 4492 238a 488D45B0 		leaq	-80(%rbp), %rax
 4493 238e 4889C7   		movq	%rax, %rdi
 4494              	.LEHB197:
 4495 2391 E8000000 		call	queueCommitPut@PLT
 4495      00
 196:testCore.cpp  **** 
 197:testCore.cpp  **** 	// Take four items out of the queue
 198:testCore.cpp  **** 	status = queueTake(&queue, (Item*)&item);
 4496              		.loc 3 198 20
 4497 2396 488D5580 		leaq	-128(%rbp), %rdx
 4498 239a 488D45B0 		leaq	-80(%rbp), %rax
 4499 239e 4889D6   		movq	%rdx, %rsi
 4500 23a1 4889C7   		movq	%rax, %rdi
 4501 23a4 E8000000 		call	queueTake@PLT
 4501      00
 4502              	.LEHE197:
 4503              		.loc 3 198 9
 4504 23a9 898578FF 		movl	%eax, -136(%rbp)
 4504      FFFF
 4505              	.LEHB198:
 199:testCore.cpp  **** 	CHECK_EQUAL(USB_SUCCESS, status);
 4506              		.loc 3 199 2
 4507 23af E8000000 		call	_ZN8UnitTest11CurrentTest7DetailsEv@PLT
 4507      00
 4508 23b4 488B08   		movq	(%rax), %rcx
 4509 23b7 488D4590 		leaq	-112(%rbp), %rax
 4510 23bb BAC70000 		movl	$199, %edx
 4510      00
 4511 23c0 4889CE   		movq	%rcx, %rsi
 4512 23c3 4889C7   		movq	%rax, %rdi
 4513 23c6 E8000000 		call	_ZN8UnitTest11TestDetailsC1ERKS0_i@PLT
 4513      00
 4514              		.loc 3 199 2 is_stmt 0 discriminator 4
 4515 23cb C7458800 		movl	$0, -120(%rbp)
 4515      000000
 4516 23d2 E8000000 		call	_ZN8UnitTest11CurrentTest7ResultsEv@PLT
 4516      00
 4517 23d7 488B00   		movq	(%rax), %rax
 4518 23da 488D4D90 		leaq	-112(%rbp), %rcx
 4519 23de 488D9578 		leaq	-136(%rbp), %rdx
 4519      FFFFFF
 4520 23e5 488D7588 		leaq	-120(%rbp), %rsi
 4521 23e9 4889C7   		movq	%rax, %rdi
 4522 23ec E8000000 		call	_ZN8UnitTest10CheckEqualI9USBStatusS1_EEvRNS_11TestResultsERKT_RKT0_RKNS_11TestDetailsE
 4522      00
 4523              	.LEHE198:
 4524              	.L265:
 4525              	.LEHB199:
 200:testCore.cpp  **** 	CHECK_EQUAL(5UL, *item);
 4526              		.loc 3 200 2 is_stmt 1
 4527 23f1 E8000000 		call	_ZN8UnitTest11CurrentTest7DetailsEv@PLT
 4527      00
 4528 23f6 488B08   		movq	(%rax), %rcx
 4529 23f9 488D4590 		leaq	-112(%rbp), %rax
 4530 23fd BAC80000 		movl	$200, %edx
 4530      00
 4531 2402 4889CE   		movq	%rcx, %rsi
 4532 2405 4889C7   		movq	%rax, %rdi
 4533 2408 E8000000 		call	_ZN8UnitTest11TestDetailsC1ERKS0_i@PLT
 4533      00
 4534              		.loc 3 200 2 is_stmt 0 discriminator 4
 4535 240d 488B5D80 		movq	-128(%rbp), %rbx
 4536 2411 48C74588 		movq	$5, -120(%rbp)
 4536      05000000 
 4537 2419 E8000000 		call	_ZN8UnitTest11CurrentTest7ResultsEv@PLT
 4537      00
 4538 241e 488B00   		movq	(%rax), %rax
 4539 2421 488D5590 		leaq	-112(%rbp), %rdx
 4540 2425 488D7588 		leaq	-120(%rbp), %rsi
 4541 2429 4889D1   		movq	%rdx, %rcx
 4542 242c 4889DA   		movq	%rbx, %rdx
 4543 242f 4889C7   		movq	%rax, %rdi
 4544 2432 E8000000 		call	_ZN8UnitTest10CheckEqualImjEEvRNS_11TestResultsERKT_RKT0_RKNS_11TestDetailsE
 4544      00
 4545              	.LEHE199:
 4546              	.L268:
 201:testCore.cpp  **** 	queueCommitTake(&queue);
 4547              		.loc 3 201 17 is_stmt 1
 4548 2437 488D45B0 		leaq	-80(%rbp), %rax
 4549 243b 4889C7   		movq	%rax, %rdi
 4550              	.LEHB200:
 4551 243e E8000000 		call	queueCommitTake@PLT
 4551      00
 202:testCore.cpp  **** 	status = queueTake(&queue, (Item*)&item);
 4552              		.loc 3 202 20
 4553 2443 488D5580 		leaq	-128(%rbp), %rdx
 4554 2447 488D45B0 		leaq	-80(%rbp), %rax
 4555 244b 4889D6   		movq	%rdx, %rsi
 4556 244e 4889C7   		movq	%rax, %rdi
 4557 2451 E8000000 		call	queueTake@PLT
 4557      00
 4558              	.LEHE200:
 4559              		.loc 3 202 9
 4560 2456 898578FF 		movl	%eax, -136(%rbp)
 4560      FFFF
 4561              	.LEHB201:
 203:testCore.cpp  **** 	CHECK_EQUAL(USB_SUCCESS, status);
 4562              		.loc 3 203 2
 4563 245c E8000000 		call	_ZN8UnitTest11CurrentTest7DetailsEv@PLT
 4563      00
 4564 2461 488B08   		movq	(%rax), %rcx
 4565 2464 488D4590 		leaq	-112(%rbp), %rax
 4566 2468 BACB0000 		movl	$203, %edx
 4566      00
 4567 246d 4889CE   		movq	%rcx, %rsi
 4568 2470 4889C7   		movq	%rax, %rdi
 4569 2473 E8000000 		call	_ZN8UnitTest11TestDetailsC1ERKS0_i@PLT
 4569      00
 4570              		.loc 3 203 2 is_stmt 0 discriminator 4
 4571 2478 C7458800 		movl	$0, -120(%rbp)
 4571      000000
 4572 247f E8000000 		call	_ZN8UnitTest11CurrentTest7ResultsEv@PLT
 4572      00
 4573 2484 488B00   		movq	(%rax), %rax
 4574 2487 488D4D90 		leaq	-112(%rbp), %rcx
 4575 248b 488D9578 		leaq	-136(%rbp), %rdx
 4575      FFFFFF
 4576 2492 488D7588 		leaq	-120(%rbp), %rsi
 4577 2496 4889C7   		movq	%rax, %rdi
 4578 2499 E8000000 		call	_ZN8UnitTest10CheckEqualI9USBStatusS1_EEvRNS_11TestResultsERKT_RKT0_RKNS_11TestDetailsE
 4578      00
 4579              	.LEHE201:
 4580              	.L271:
 4581              	.LEHB202:
 204:testCore.cpp  **** 	CHECK_EQUAL(6UL, *item);
 4582              		.loc 3 204 2 is_stmt 1
 4583 249e E8000000 		call	_ZN8UnitTest11CurrentTest7DetailsEv@PLT
 4583      00
 4584 24a3 488B08   		movq	(%rax), %rcx
 4585 24a6 488D4590 		leaq	-112(%rbp), %rax
 4586 24aa BACC0000 		movl	$204, %edx
 4586      00
 4587 24af 4889CE   		movq	%rcx, %rsi
 4588 24b2 4889C7   		movq	%rax, %rdi
 4589 24b5 E8000000 		call	_ZN8UnitTest11TestDetailsC1ERKS0_i@PLT
 4589      00
 4590              		.loc 3 204 2 is_stmt 0 discriminator 4
 4591 24ba 488B5D80 		movq	-128(%rbp), %rbx
 4592 24be 48C74588 		movq	$6, -120(%rbp)
 4592      06000000 
 4593 24c6 E8000000 		call	_ZN8UnitTest11CurrentTest7ResultsEv@PLT
 4593      00
 4594 24cb 488B00   		movq	(%rax), %rax
 4595 24ce 488D5590 		leaq	-112(%rbp), %rdx
 4596 24d2 488D7588 		leaq	-120(%rbp), %rsi
 4597 24d6 4889D1   		movq	%rdx, %rcx
 4598 24d9 4889DA   		movq	%rbx, %rdx
 4599 24dc 4889C7   		movq	%rax, %rdi
 4600 24df E8000000 		call	_ZN8UnitTest10CheckEqualImjEEvRNS_11TestResultsERKT_RKT0_RKNS_11TestDetailsE
 4600      00
 4601              	.LEHE202:
 4602              	.L274:
 205:testCore.cpp  **** 	queueCommitTake(&queue);
 4603              		.loc 3 205 17 is_stmt 1
 4604 24e4 488D45B0 		leaq	-80(%rbp), %rax
 4605 24e8 4889C7   		movq	%rax, %rdi
 4606              	.LEHB203:
 4607 24eb E8000000 		call	queueCommitTake@PLT
 4607      00
 206:testCore.cpp  **** 	status = queueTake(&queue, (Item*)&item);
 4608              		.loc 3 206 20
 4609 24f0 488D5580 		leaq	-128(%rbp), %rdx
 4610 24f4 488D45B0 		leaq	-80(%rbp), %rax
 4611 24f8 4889D6   		movq	%rdx, %rsi
 4612 24fb 4889C7   		movq	%rax, %rdi
 4613 24fe E8000000 		call	queueTake@PLT
 4613      00
 4614              	.LEHE203:
 4615              		.loc 3 206 9
 4616 2503 898578FF 		movl	%eax, -136(%rbp)
 4616      FFFF
 4617              	.LEHB204:
 207:testCore.cpp  **** 	CHECK_EQUAL(USB_SUCCESS, status);
 4618              		.loc 3 207 2
 4619 2509 E8000000 		call	_ZN8UnitTest11CurrentTest7DetailsEv@PLT
 4619      00
 4620 250e 488B08   		movq	(%rax), %rcx
 4621 2511 488D4590 		leaq	-112(%rbp), %rax
 4622 2515 BACF0000 		movl	$207, %edx
 4622      00
 4623 251a 4889CE   		movq	%rcx, %rsi
 4624 251d 4889C7   		movq	%rax, %rdi
 4625 2520 E8000000 		call	_ZN8UnitTest11TestDetailsC1ERKS0_i@PLT
 4625      00
 4626              		.loc 3 207 2 is_stmt 0 discriminator 4
 4627 2525 C7458800 		movl	$0, -120(%rbp)
 4627      000000
 4628 252c E8000000 		call	_ZN8UnitTest11CurrentTest7ResultsEv@PLT
 4628      00
 4629 2531 488B00   		movq	(%rax), %rax
 4630 2534 488D4D90 		leaq	-112(%rbp), %rcx
 4631 2538 488D9578 		leaq	-136(%rbp), %rdx
 4631      FFFFFF
 4632 253f 488D7588 		leaq	-120(%rbp), %rsi
 4633 2543 4889C7   		movq	%rax, %rdi
 4634 2546 E8000000 		call	_ZN8UnitTest10CheckEqualI9USBStatusS1_EEvRNS_11TestResultsERKT_RKT0_RKNS_11TestDetailsE
 4634      00
 4635              	.LEHE204:
 4636              	.L277:
 4637              	.LEHB205:
 208:testCore.cpp  **** 	CHECK_EQUAL(7UL, *item);
 4638              		.loc 3 208 2 is_stmt 1
 4639 254b E8000000 		call	_ZN8UnitTest11CurrentTest7DetailsEv@PLT
 4639      00
 4640 2550 488B08   		movq	(%rax), %rcx
 4641 2553 488D4590 		leaq	-112(%rbp), %rax
 4642 2557 BAD00000 		movl	$208, %edx
 4642      00
 4643 255c 4889CE   		movq	%rcx, %rsi
 4644 255f 4889C7   		movq	%rax, %rdi
 4645 2562 E8000000 		call	_ZN8UnitTest11TestDetailsC1ERKS0_i@PLT
 4645      00
 4646              		.loc 3 208 2 is_stmt 0 discriminator 4
 4647 2567 488B5D80 		movq	-128(%rbp), %rbx
 4648 256b 48C74588 		movq	$7, -120(%rbp)
 4648      07000000 
 4649 2573 E8000000 		call	_ZN8UnitTest11CurrentTest7ResultsEv@PLT
 4649      00
 4650 2578 488B00   		movq	(%rax), %rax
 4651 257b 488D5590 		leaq	-112(%rbp), %rdx
 4652 257f 488D7588 		leaq	-120(%rbp), %rsi
 4653 2583 4889D1   		movq	%rdx, %rcx
 4654 2586 4889DA   		movq	%rbx, %rdx
 4655 2589 4889C7   		movq	%rax, %rdi
 4656 258c E8000000 		call	_ZN8UnitTest10CheckEqualImjEEvRNS_11TestResultsERKT_RKT0_RKNS_11TestDetailsE
 4656      00
 4657              	.LEHE205:
 4658              	.L280:
 209:testCore.cpp  **** 	queueCommitTake(&queue);
 4659              		.loc 3 209 17 is_stmt 1
 4660 2591 488D45B0 		leaq	-80(%rbp), %rax
 4661 2595 4889C7   		movq	%rax, %rdi
 4662              	.LEHB206:
 4663 2598 E8000000 		call	queueCommitTake@PLT
 4663      00
 210:testCore.cpp  **** 	status = queueTake(&queue, (Item*)&item);
 4664              		.loc 3 210 20
 4665 259d 488D5580 		leaq	-128(%rbp), %rdx
 4666 25a1 488D45B0 		leaq	-80(%rbp), %rax
 4667 25a5 4889D6   		movq	%rdx, %rsi
 4668 25a8 4889C7   		movq	%rax, %rdi
 4669 25ab E8000000 		call	queueTake@PLT
 4669      00
 4670              	.LEHE206:
 4671              		.loc 3 210 9
 4672 25b0 898578FF 		movl	%eax, -136(%rbp)
 4672      FFFF
 4673              	.LEHB207:
 211:testCore.cpp  **** 	CHECK_EQUAL(USB_SUCCESS, status);
 4674              		.loc 3 211 2
 4675 25b6 E8000000 		call	_ZN8UnitTest11CurrentTest7DetailsEv@PLT
 4675      00
 4676 25bb 488B08   		movq	(%rax), %rcx
 4677 25be 488D4590 		leaq	-112(%rbp), %rax
 4678 25c2 BAD30000 		movl	$211, %edx
 4678      00
 4679 25c7 4889CE   		movq	%rcx, %rsi
 4680 25ca 4889C7   		movq	%rax, %rdi
 4681 25cd E8000000 		call	_ZN8UnitTest11TestDetailsC1ERKS0_i@PLT
 4681      00
 4682              		.loc 3 211 2 is_stmt 0 discriminator 4
 4683 25d2 C7458800 		movl	$0, -120(%rbp)
 4683      000000
 4684 25d9 E8000000 		call	_ZN8UnitTest11CurrentTest7ResultsEv@PLT
 4684      00
 4685 25de 488B00   		movq	(%rax), %rax
 4686 25e1 488D4D90 		leaq	-112(%rbp), %rcx
 4687 25e5 488D9578 		leaq	-136(%rbp), %rdx
 4687      FFFFFF
 4688 25ec 488D7588 		leaq	-120(%rbp), %rsi
 4689 25f0 4889C7   		movq	%rax, %rdi
 4690 25f3 E8000000 		call	_ZN8UnitTest10CheckEqualI9USBStatusS1_EEvRNS_11TestResultsERKT_RKT0_RKNS_11TestDetailsE
 4690      00
 4691              	.LEHE207:
 4692              	.L283:
 4693              	.LEHB208:
 212:testCore.cpp  **** 	CHECK_EQUAL(8UL, *item);
 4694              		.loc 3 212 2 is_stmt 1
 4695 25f8 E8000000 		call	_ZN8UnitTest11CurrentTest7DetailsEv@PLT
 4695      00
 4696 25fd 488B08   		movq	(%rax), %rcx
 4697 2600 488D4590 		leaq	-112(%rbp), %rax
 4698 2604 BAD40000 		movl	$212, %edx
 4698      00
 4699 2609 4889CE   		movq	%rcx, %rsi
 4700 260c 4889C7   		movq	%rax, %rdi
 4701 260f E8000000 		call	_ZN8UnitTest11TestDetailsC1ERKS0_i@PLT
 4701      00
 4702              		.loc 3 212 2 is_stmt 0 discriminator 4
 4703 2614 488B5D80 		movq	-128(%rbp), %rbx
 4704 2618 48C74588 		movq	$8, -120(%rbp)
 4704      08000000 
 4705 2620 E8000000 		call	_ZN8UnitTest11CurrentTest7ResultsEv@PLT
 4705      00
 4706 2625 488B00   		movq	(%rax), %rax
 4707 2628 488D5590 		leaq	-112(%rbp), %rdx
 4708 262c 488D7588 		leaq	-120(%rbp), %rsi
 4709 2630 4889D1   		movq	%rdx, %rcx
 4710 2633 4889DA   		movq	%rbx, %rdx
 4711 2636 4889C7   		movq	%rax, %rdi
 4712 2639 E8000000 		call	_ZN8UnitTest10CheckEqualImjEEvRNS_11TestResultsERKT_RKT0_RKNS_11TestDetailsE
 4712      00
 4713              	.LEHE208:
 4714              	.L286:
 213:testCore.cpp  **** 	queueCommitTake(&queue);
 4715              		.loc 3 213 17 is_stmt 1
 4716 263e 488D45B0 		leaq	-80(%rbp), %rax
 4717 2642 4889C7   		movq	%rax, %rdi
 4718              	.LEHB209:
 4719 2645 E8000000 		call	queueCommitTake@PLT
 4719      00
 4720              	.LEHE209:
 4721              	.LEHB210:
 214:testCore.cpp  **** 
 215:testCore.cpp  **** 	// Verify
 216:testCore.cpp  **** 	CHECK_EQUAL(4UL, queue.capacity);
 4722              		.loc 3 216 2
 4723 264a E8000000 		call	_ZN8UnitTest11CurrentTest7DetailsEv@PLT
 4723      00
 4724 264f 488B08   		movq	(%rax), %rcx
 4725 2652 488D4590 		leaq	-112(%rbp), %rax
 4726 2656 BAD80000 		movl	$216, %edx
 4726      00
 4727 265b 4889CE   		movq	%rcx, %rsi
 4728 265e 4889C7   		movq	%rax, %rdi
 4729 2661 E8000000 		call	_ZN8UnitTest11TestDetailsC1ERKS0_i@PLT
 4729      00
 4730              		.loc 3 216 2 is_stmt 0 discriminator 4
 4731 2666 48C74588 		movq	$4, -120(%rbp)
 4731      04000000 
 4732 266e E8000000 		call	_ZN8UnitTest11CurrentTest7ResultsEv@PLT
 4732      00
 4733 2673 488B00   		movq	(%rax), %rax
 4734 2676 488D5590 		leaq	-112(%rbp), %rdx
 4735 267a 488D4DB0 		leaq	-80(%rbp), %rcx
 4736 267e 488D7908 		leaq	8(%rcx), %rdi
 4737 2682 488D7588 		leaq	-120(%rbp), %rsi
 4738 2686 4889D1   		movq	%rdx, %rcx
 4739 2689 4889FA   		movq	%rdi, %rdx
 4740 268c 4889C7   		movq	%rax, %rdi
 4741 268f E8000000 		call	_ZN8UnitTest10CheckEqualImmEEvRNS_11TestResultsERKT_RKT0_RKNS_11TestDetailsE
 4741      00
 4742              	.LEHE210:
 4743              	.L289:
 4744              	.LEHB211:
 217:testCore.cpp  **** 	CHECK_EQUAL(0UL, queue.putIndex);
 4745              		.loc 3 217 2 is_stmt 1
 4746 2694 E8000000 		call	_ZN8UnitTest11CurrentTest7DetailsEv@PLT
 4746      00
 4747 2699 488B08   		movq	(%rax), %rcx
 4748 269c 488D4590 		leaq	-112(%rbp), %rax
 4749 26a0 BAD90000 		movl	$217, %edx
 4749      00
 4750 26a5 4889CE   		movq	%rcx, %rsi
 4751 26a8 4889C7   		movq	%rax, %rdi
 4752 26ab E8000000 		call	_ZN8UnitTest11TestDetailsC1ERKS0_i@PLT
 4752      00
 4753              		.loc 3 217 2 is_stmt 0 discriminator 4
 4754 26b0 48C74588 		movq	$0, -120(%rbp)
 4754      00000000 
 4755 26b8 E8000000 		call	_ZN8UnitTest11CurrentTest7ResultsEv@PLT
 4755      00
 4756 26bd 488B00   		movq	(%rax), %rax
 4757 26c0 488D5590 		leaq	-112(%rbp), %rdx
 4758 26c4 488D4DB0 		leaq	-80(%rbp), %rcx
 4759 26c8 488D7910 		leaq	16(%rcx), %rdi
 4760 26cc 488D7588 		leaq	-120(%rbp), %rsi
 4761 26d0 4889D1   		movq	%rdx, %rcx
 4762 26d3 4889FA   		movq	%rdi, %rdx
 4763 26d6 4889C7   		movq	%rax, %rdi
 4764 26d9 E8000000 		call	_ZN8UnitTest10CheckEqualImmEEvRNS_11TestResultsERKT_RKT0_RKNS_11TestDetailsE
 4764      00
 4765              	.LEHE211:
 4766              	.L292:
 4767              	.LEHB212:
 218:testCore.cpp  **** 	CHECK_EQUAL(0UL, queue.takeIndex);
 4768              		.loc 3 218 2 is_stmt 1
 4769 26de E8000000 		call	_ZN8UnitTest11CurrentTest7DetailsEv@PLT
 4769      00
 4770 26e3 488B08   		movq	(%rax), %rcx
 4771 26e6 488D4590 		leaq	-112(%rbp), %rax
 4772 26ea BADA0000 		movl	$218, %edx
 4772      00
 4773 26ef 4889CE   		movq	%rcx, %rsi
 4774 26f2 4889C7   		movq	%rax, %rdi
 4775 26f5 E8000000 		call	_ZN8UnitTest11TestDetailsC1ERKS0_i@PLT
 4775      00
 4776              		.loc 3 218 2 is_stmt 0 discriminator 4
 4777 26fa 48C74588 		movq	$0, -120(%rbp)
 4777      00000000 
 4778 2702 E8000000 		call	_ZN8UnitTest11CurrentTest7ResultsEv@PLT
 4778      00
 4779 2707 488B00   		movq	(%rax), %rax
 4780 270a 488D5590 		leaq	-112(%rbp), %rdx
 4781 270e 488D4DB0 		leaq	-80(%rbp), %rcx
 4782 2712 488D7918 		leaq	24(%rcx), %rdi
 4783 2716 488D7588 		leaq	-120(%rbp), %rsi
 4784 271a 4889D1   		movq	%rdx, %rcx
 4785 271d 4889FA   		movq	%rdi, %rdx
 4786 2720 4889C7   		movq	%rax, %rdi
 4787 2723 E8000000 		call	_ZN8UnitTest10CheckEqualImmEEvRNS_11TestResultsERKT_RKT0_RKNS_11TestDetailsE
 4787      00
 4788              	.LEHE212:
 4789              	.L295:
 4790              	.LEHB213:
 219:testCore.cpp  **** 	CHECK_EQUAL(0UL, queue.numItems);
 4791              		.loc 3 219 2 is_stmt 1
 4792 2728 E8000000 		call	_ZN8UnitTest11CurrentTest7DetailsEv@PLT
 4792      00
 4793 272d 488B08   		movq	(%rax), %rcx
 4794 2730 488D4590 		leaq	-112(%rbp), %rax
 4795 2734 BADB0000 		movl	$219, %edx
 4795      00
 4796 2739 4889CE   		movq	%rcx, %rsi
 4797 273c 4889C7   		movq	%rax, %rdi
 4798 273f E8000000 		call	_ZN8UnitTest11TestDetailsC1ERKS0_i@PLT
 4798      00
 4799              		.loc 3 219 2 is_stmt 0 discriminator 4
 4800 2744 48C74588 		movq	$0, -120(%rbp)
 4800      00000000 
 4801 274c E8000000 		call	_ZN8UnitTest11CurrentTest7ResultsEv@PLT
 4801      00
 4802 2751 488B00   		movq	(%rax), %rax
 4803 2754 488D5590 		leaq	-112(%rbp), %rdx
 4804 2758 488D4DB0 		leaq	-80(%rbp), %rcx
 4805 275c 488D7920 		leaq	32(%rcx), %rdi
 4806 2760 488D7588 		leaq	-120(%rbp), %rsi
 4807 2764 4889D1   		movq	%rdx, %rcx
 4808 2767 4889FA   		movq	%rdi, %rdx
 4809 276a 4889C7   		movq	%rax, %rdi
 4810 276d E8000000 		call	_ZN8UnitTest10CheckEqualImmEEvRNS_11TestResultsERKT_RKT0_RKNS_11TestDetailsE
 4810      00
 4811              	.LEHE213:
 4812              	.L298:
 4813              	.LEHB214:
 220:testCore.cpp  **** 
 221:testCore.cpp  **** 	// Verify array
 222:testCore.cpp  **** 	CHECK_EQUAL(5UL, deref(queue.itemArray[0]));
 4814              		.loc 3 222 2 is_stmt 1
 4815 2772 E8000000 		call	_ZN8UnitTest11CurrentTest7DetailsEv@PLT
 4815      00
 4816 2777 488B08   		movq	(%rax), %rcx
 4817 277a 488D4590 		leaq	-112(%rbp), %rax
 4818 277e BADE0000 		movl	$222, %edx
 4818      00
 4819 2783 4889CE   		movq	%rcx, %rsi
 4820 2786 4889C7   		movq	%rax, %rdi
 4821 2789 E8000000 		call	_ZN8UnitTest11TestDetailsC1ERKS0_i@PLT
 4821      00
 4822              		.loc 3 222 2 is_stmt 0 discriminator 4
 4823 278e 488B45B0 		movq	-80(%rbp), %rax
 4824 2792 488B00   		movq	(%rax), %rax
 4825 2795 4889C7   		movq	%rax, %rdi
 4826 2798 E8F5D8FF 		call	_ZL5derefPKv
 4826      FF
 4827 279d 89857CFF 		movl	%eax, -132(%rbp)
 4827      FFFF
 4828 27a3 48C74588 		movq	$5, -120(%rbp)
 4828      05000000 
 4829 27ab E8000000 		call	_ZN8UnitTest11CurrentTest7ResultsEv@PLT
 4829      00
 4830 27b0 488B00   		movq	(%rax), %rax
 4831 27b3 488D4D90 		leaq	-112(%rbp), %rcx
 4832 27b7 488D957C 		leaq	-132(%rbp), %rdx
 4832      FFFFFF
 4833 27be 488D7588 		leaq	-120(%rbp), %rsi
 4834 27c2 4889C7   		movq	%rax, %rdi
 4835 27c5 E8000000 		call	_ZN8UnitTest10CheckEqualImjEEvRNS_11TestResultsERKT_RKT0_RKNS_11TestDetailsE
 4835      00
 4836              	.LEHE214:
 4837              	.L301:
 4838              	.LEHB215:
 223:testCore.cpp  **** 	CHECK_EQUAL(6UL, deref(queue.itemArray[1]));
 4839              		.loc 3 223 2 is_stmt 1
 4840 27ca E8000000 		call	_ZN8UnitTest11CurrentTest7DetailsEv@PLT
 4840      00
 4841 27cf 488B08   		movq	(%rax), %rcx
 4842 27d2 488D4590 		leaq	-112(%rbp), %rax
 4843 27d6 BADF0000 		movl	$223, %edx
 4843      00
 4844 27db 4889CE   		movq	%rcx, %rsi
 4845 27de 4889C7   		movq	%rax, %rdi
 4846 27e1 E8000000 		call	_ZN8UnitTest11TestDetailsC1ERKS0_i@PLT
 4846      00
 4847              		.loc 3 223 2 is_stmt 0 discriminator 4
 4848 27e6 488B45B0 		movq	-80(%rbp), %rax
 4849 27ea 4883C008 		addq	$8, %rax
 4850 27ee 488B00   		movq	(%rax), %rax
 4851 27f1 4889C7   		movq	%rax, %rdi
 4852 27f4 E899D8FF 		call	_ZL5derefPKv
 4852      FF
 4853 27f9 89857CFF 		movl	%eax, -132(%rbp)
 4853      FFFF
 4854 27ff 48C74588 		movq	$6, -120(%rbp)
 4854      06000000 
 4855 2807 E8000000 		call	_ZN8UnitTest11CurrentTest7ResultsEv@PLT
 4855      00
 4856 280c 488B00   		movq	(%rax), %rax
 4857 280f 488D4D90 		leaq	-112(%rbp), %rcx
 4858 2813 488D957C 		leaq	-132(%rbp), %rdx
 4858      FFFFFF
 4859 281a 488D7588 		leaq	-120(%rbp), %rsi
 4860 281e 4889C7   		movq	%rax, %rdi
 4861 2821 E8000000 		call	_ZN8UnitTest10CheckEqualImjEEvRNS_11TestResultsERKT_RKT0_RKNS_11TestDetailsE
 4861      00
 4862              	.LEHE215:
 4863              	.L304:
 4864              	.LEHB216:
 224:testCore.cpp  **** 	CHECK_EQUAL(7UL, deref(queue.itemArray[2]));
 4865              		.loc 3 224 2 is_stmt 1
 4866 2826 E8000000 		call	_ZN8UnitTest11CurrentTest7DetailsEv@PLT
 4866      00
 4867 282b 488B08   		movq	(%rax), %rcx
 4868 282e 488D4590 		leaq	-112(%rbp), %rax
 4869 2832 BAE00000 		movl	$224, %edx
 4869      00
 4870 2837 4889CE   		movq	%rcx, %rsi
 4871 283a 4889C7   		movq	%rax, %rdi
 4872 283d E8000000 		call	_ZN8UnitTest11TestDetailsC1ERKS0_i@PLT
 4872      00
 4873              		.loc 3 224 2 is_stmt 0 discriminator 4
 4874 2842 488B45B0 		movq	-80(%rbp), %rax
 4875 2846 4883C010 		addq	$16, %rax
 4876 284a 488B00   		movq	(%rax), %rax
 4877 284d 4889C7   		movq	%rax, %rdi
 4878 2850 E83DD8FF 		call	_ZL5derefPKv
 4878      FF
 4879 2855 89857CFF 		movl	%eax, -132(%rbp)
 4879      FFFF
 4880 285b 48C74588 		movq	$7, -120(%rbp)
 4880      07000000 
 4881 2863 E8000000 		call	_ZN8UnitTest11CurrentTest7ResultsEv@PLT
 4881      00
 4882 2868 488B00   		movq	(%rax), %rax
 4883 286b 488D4D90 		leaq	-112(%rbp), %rcx
 4884 286f 488D957C 		leaq	-132(%rbp), %rdx
 4884      FFFFFF
 4885 2876 488D7588 		leaq	-120(%rbp), %rsi
 4886 287a 4889C7   		movq	%rax, %rdi
 4887 287d E8000000 		call	_ZN8UnitTest10CheckEqualImjEEvRNS_11TestResultsERKT_RKT0_RKNS_11TestDetailsE
 4887      00
 4888              	.LEHE216:
 4889              	.L307:
 4890              	.LEHB217:
 225:testCore.cpp  **** 	CHECK_EQUAL(8UL, deref(queue.itemArray[3]));
 4891              		.loc 3 225 2 is_stmt 1
 4892 2882 E8000000 		call	_ZN8UnitTest11CurrentTest7DetailsEv@PLT
 4892      00
 4893 2887 488B08   		movq	(%rax), %rcx
 4894 288a 488D4590 		leaq	-112(%rbp), %rax
 4895 288e BAE10000 		movl	$225, %edx
 4895      00
 4896 2893 4889CE   		movq	%rcx, %rsi
 4897 2896 4889C7   		movq	%rax, %rdi
 4898 2899 E8000000 		call	_ZN8UnitTest11TestDetailsC1ERKS0_i@PLT
 4898      00
 4899              		.loc 3 225 2 is_stmt 0 discriminator 4
 4900 289e 488B45B0 		movq	-80(%rbp), %rax
 4901 28a2 4883C018 		addq	$24, %rax
 4902 28a6 488B00   		movq	(%rax), %rax
 4903 28a9 4889C7   		movq	%rax, %rdi
 4904 28ac E8E1D7FF 		call	_ZL5derefPKv
 4904      FF
 4905 28b1 89857CFF 		movl	%eax, -132(%rbp)
 4905      FFFF
 4906 28b7 48C74588 		movq	$8, -120(%rbp)
 4906      08000000 
 4907 28bf E8000000 		call	_ZN8UnitTest11CurrentTest7ResultsEv@PLT
 4907      00
 4908 28c4 488B00   		movq	(%rax), %rax
 4909 28c7 488D4D90 		leaq	-112(%rbp), %rcx
 4910 28cb 488D957C 		leaq	-132(%rbp), %rdx
 4910      FFFFFF
 4911 28d2 488D7588 		leaq	-120(%rbp), %rsi
 4912 28d6 4889C7   		movq	%rax, %rdi
 4913 28d9 E8000000 		call	_ZN8UnitTest10CheckEqualImjEEvRNS_11TestResultsERKT_RKT0_RKNS_11TestDetailsE
 4913      00
 4914              	.LEHE217:
 4915              	.L310:
 226:testCore.cpp  **** 
 227:testCore.cpp  **** 	// Clean up
 228:testCore.cpp  **** 	queueDestroy(&queue);
 4916              		.loc 3 228 14 is_stmt 1
 4917 28de 488D45B0 		leaq	-80(%rbp), %rax
 4918 28e2 4889C7   		movq	%rax, %rdi
 4919              	.LEHB218:
 4920 28e5 E8000000 		call	queueDestroy@PLT
 4920      00
 4921              	.LEHE218:
 229:testCore.cpp  **** }
 4922              		.loc 3 229 1
 4923 28ea 90       		nop
 4924 28eb 488B45E8 		movq	-24(%rbp), %rax
 4925 28ef 64482B04 		subq	%fs:40, %rax
 4925      25280000 
 4925      00
 4926 28f8 0F84190A 		je	.L312
 4926      0000
 4927 28fe E90F0A00 		jmp	.L363
 4927      00
 4928              	.L313:
 4929 2903 F30F1EFA 		endbr64
 173:testCore.cpp  **** 
 4930              		.loc 3 173 2
 4931 2907 4889C7   		movq	%rax, %rdi
 4932 290a E8000000 		call	__cxa_begin_catch@PLT
 4932      00
 4933              	.LEHB219:
 4934 290f E8000000 		call	_ZN8UnitTest11CurrentTest7ResultsEv@PLT
 4934      00
 173:testCore.cpp  **** 
 4935              		.loc 3 173 2 is_stmt 0 discriminator 3
 4936 2914 488B18   		movq	(%rax), %rbx
 4937 2917 E8000000 		call	_ZN8UnitTest11CurrentTest7DetailsEv@PLT
 4937      00
 173:testCore.cpp  **** 
 4938              		.loc 3 173 2 discriminator 11
 4939 291c 488B08   		movq	(%rax), %rcx
 4940 291f 488D4590 		leaq	-112(%rbp), %rax
 4941 2923 BAAD0000 		movl	$173, %edx
 4941      00
 4942 2928 4889CE   		movq	%rcx, %rsi
 4943 292b 4889C7   		movq	%rax, %rdi
 4944 292e E8000000 		call	_ZN8UnitTest11TestDetailsC1ERKS0_i@PLT
 4944      00
 173:testCore.cpp  **** 
 4945              		.loc 3 173 2 discriminator 15
 4946 2933 488D4590 		leaq	-112(%rbp), %rax
 4947 2937 488D1500 		leaq	.LC3(%rip), %rdx
 4947      000000
 4948 293e 4889C6   		movq	%rax, %rsi
 4949 2941 4889DF   		movq	%rbx, %rdi
 4950 2944 E8000000 		call	_ZN8UnitTest11TestResults13OnTestFailureERKNS_11TestDetailsEPKc@PLT
 4950      00
 4951              	.LEHE219:
 4952              	.LEHB220:
 173:testCore.cpp  **** 
 4953              		.loc 3 173 2 discriminator 17
 4954 2949 E8000000 		call	__cxa_end_catch@PLT
 4954      00
 4955              	.LEHE220:
 4956 294e E967F7FF 		jmp	.L238
 4956      FF
 4957              	.L314:
 4958 2953 F30F1EFA 		endbr64
 173:testCore.cpp  **** 
 4959              		.loc 3 173 2
 4960 2957 4889C3   		movq	%rax, %rbx
 4961 295a E8000000 		call	__cxa_end_catch@PLT
 4961      00
 4962 295f 4889D8   		movq	%rbx, %rax
 4963 2962 4889C7   		movq	%rax, %rdi
 4964              	.LEHB221:
 4965 2965 E8000000 		call	_Unwind_Resume@PLT
 4965      00
 4966              	.LEHE221:
 4967              	.L315:
 4968 296a F30F1EFA 		endbr64
 177:testCore.cpp  **** 	CHECK_EQUAL(1UL, *item);
 4969              		.loc 3 177 2 is_stmt 1
 4970 296e 4889C7   		movq	%rax, %rdi
 4971 2971 E8000000 		call	__cxa_begin_catch@PLT
 4971      00
 4972              	.LEHB222:
 4973 2976 E8000000 		call	_ZN8UnitTest11CurrentTest7ResultsEv@PLT
 4973      00
 177:testCore.cpp  **** 	CHECK_EQUAL(1UL, *item);
 4974              		.loc 3 177 2 is_stmt 0 discriminator 3
 4975 297b 488B18   		movq	(%rax), %rbx
 4976 297e E8000000 		call	_ZN8UnitTest11CurrentTest7DetailsEv@PLT
 4976      00
 177:testCore.cpp  **** 	CHECK_EQUAL(1UL, *item);
 4977              		.loc 3 177 2 discriminator 11
 4978 2983 488B08   		movq	(%rax), %rcx
 4979 2986 488D4590 		leaq	-112(%rbp), %rax
 4980 298a BAB10000 		movl	$177, %edx
 4980      00
 4981 298f 4889CE   		movq	%rcx, %rsi
 4982 2992 4889C7   		movq	%rax, %rdi
 4983 2995 E8000000 		call	_ZN8UnitTest11TestDetailsC1ERKS0_i@PLT
 4983      00
 177:testCore.cpp  **** 	CHECK_EQUAL(1UL, *item);
 4984              		.loc 3 177 2 discriminator 15
 4985 299a 488D4590 		leaq	-112(%rbp), %rax
 4986 299e 488D1500 		leaq	.LC3(%rip), %rdx
 4986      000000
 4987 29a5 4889C6   		movq	%rax, %rsi
 4988 29a8 4889DF   		movq	%rbx, %rdi
 4989 29ab E8000000 		call	_ZN8UnitTest11TestResults13OnTestFailureERKNS_11TestDetailsEPKc@PLT
 4989      00
 4990              	.LEHE222:
 4991              	.LEHB223:
 177:testCore.cpp  **** 	CHECK_EQUAL(1UL, *item);
 4992              		.loc 3 177 2 discriminator 17
 4993 29b0 E8000000 		call	__cxa_end_catch@PLT
 4993      00
 4994              	.LEHE223:
 4995 29b5 E95BF7FF 		jmp	.L241
 4995      FF
 4996              	.L316:
 4997 29ba F30F1EFA 		endbr64
 177:testCore.cpp  **** 	CHECK_EQUAL(1UL, *item);
 4998              		.loc 3 177 2
 4999 29be 4889C3   		movq	%rax, %rbx
 5000 29c1 E8000000 		call	__cxa_end_catch@PLT
 5000      00
 5001 29c6 4889D8   		movq	%rbx, %rax
 5002 29c9 4889C7   		movq	%rax, %rdi
 5003              	.LEHB224:
 5004 29cc E8000000 		call	_Unwind_Resume@PLT
 5004      00
 5005              	.LEHE224:
 5006              	.L317:
 5007 29d1 F30F1EFA 		endbr64
 178:testCore.cpp  **** 	*item = 5;
 5008              		.loc 3 178 2 is_stmt 1
 5009 29d5 4889C7   		movq	%rax, %rdi
 5010 29d8 E8000000 		call	__cxa_begin_catch@PLT
 5010      00
 5011              	.LEHB225:
 5012 29dd E8000000 		call	_ZN8UnitTest11CurrentTest7ResultsEv@PLT
 5012      00
 178:testCore.cpp  **** 	*item = 5;
 5013              		.loc 3 178 2 is_stmt 0 discriminator 3
 5014 29e2 488B18   		movq	(%rax), %rbx
 5015 29e5 E8000000 		call	_ZN8UnitTest11CurrentTest7DetailsEv@PLT
 5015      00
 178:testCore.cpp  **** 	*item = 5;
 5016              		.loc 3 178 2 discriminator 11
 5017 29ea 488B08   		movq	(%rax), %rcx
 5018 29ed 488D4590 		leaq	-112(%rbp), %rax
 5019 29f1 BAB20000 		movl	$178, %edx
 5019      00
 5020 29f6 4889CE   		movq	%rcx, %rsi
 5021 29f9 4889C7   		movq	%rax, %rdi
 5022 29fc E8000000 		call	_ZN8UnitTest11TestDetailsC1ERKS0_i@PLT
 5022      00
 178:testCore.cpp  **** 	*item = 5;
 5023              		.loc 3 178 2 discriminator 15
 5024 2a01 488D4590 		leaq	-112(%rbp), %rax
 5025 2a05 488D1500 		leaq	.LC13(%rip), %rdx
 5025      000000
 5026 2a0c 4889C6   		movq	%rax, %rsi
 5027 2a0f 4889DF   		movq	%rbx, %rdi
 5028 2a12 E8000000 		call	_ZN8UnitTest11TestResults13OnTestFailureERKNS_11TestDetailsEPKc@PLT
 5028      00
 5029              	.LEHE225:
 5030              	.LEHB226:
 178:testCore.cpp  **** 	*item = 5;
 5031              		.loc 3 178 2 discriminator 17
 5032 2a17 E8000000 		call	__cxa_end_catch@PLT
 5032      00
 5033              	.LEHE226:
 5034 2a1c E93AF7FF 		jmp	.L244
 5034      FF
 5035              	.L318:
 5036 2a21 F30F1EFA 		endbr64
 178:testCore.cpp  **** 	*item = 5;
 5037              		.loc 3 178 2
 5038 2a25 4889C3   		movq	%rax, %rbx
 5039 2a28 E8000000 		call	__cxa_end_catch@PLT
 5039      00
 5040 2a2d 4889D8   		movq	%rbx, %rax
 5041 2a30 4889C7   		movq	%rax, %rdi
 5042              	.LEHB227:
 5043 2a33 E8000000 		call	_Unwind_Resume@PLT
 5043      00
 5044              	.LEHE227:
 5045              	.L319:
 5046 2a38 F30F1EFA 		endbr64
 182:testCore.cpp  **** 	CHECK_EQUAL(2UL, *item);
 5047              		.loc 3 182 2 is_stmt 1
 5048 2a3c 4889C7   		movq	%rax, %rdi
 5049 2a3f E8000000 		call	__cxa_begin_catch@PLT
 5049      00
 5050              	.LEHB228:
 5051 2a44 E8000000 		call	_ZN8UnitTest11CurrentTest7ResultsEv@PLT
 5051      00
 182:testCore.cpp  **** 	CHECK_EQUAL(2UL, *item);
 5052              		.loc 3 182 2 is_stmt 0 discriminator 3
 5053 2a49 488B18   		movq	(%rax), %rbx
 5054 2a4c E8000000 		call	_ZN8UnitTest11CurrentTest7DetailsEv@PLT
 5054      00
 182:testCore.cpp  **** 	CHECK_EQUAL(2UL, *item);
 5055              		.loc 3 182 2 discriminator 11
 5056 2a51 488B08   		movq	(%rax), %rcx
 5057 2a54 488D4590 		leaq	-112(%rbp), %rax
 5058 2a58 BAB60000 		movl	$182, %edx
 5058      00
 5059 2a5d 4889CE   		movq	%rcx, %rsi
 5060 2a60 4889C7   		movq	%rax, %rdi
 5061 2a63 E8000000 		call	_ZN8UnitTest11TestDetailsC1ERKS0_i@PLT
 5061      00
 182:testCore.cpp  **** 	CHECK_EQUAL(2UL, *item);
 5062              		.loc 3 182 2 discriminator 15
 5063 2a68 488D4590 		leaq	-112(%rbp), %rax
 5064 2a6c 488D1500 		leaq	.LC3(%rip), %rdx
 5064      000000
 5065 2a73 4889C6   		movq	%rax, %rsi
 5066 2a76 4889DF   		movq	%rbx, %rdi
 5067 2a79 E8000000 		call	_ZN8UnitTest11TestResults13OnTestFailureERKNS_11TestDetailsEPKc@PLT
 5067      00
 5068              	.LEHE228:
 5069              	.LEHB229:
 182:testCore.cpp  **** 	CHECK_EQUAL(2UL, *item);
 5070              		.loc 3 182 2 discriminator 17
 5071 2a7e E8000000 		call	__cxa_end_catch@PLT
 5071      00
 5072              	.LEHE229:
 5073 2a83 E944F7FF 		jmp	.L247
 5073      FF
 5074              	.L320:
 5075 2a88 F30F1EFA 		endbr64
 182:testCore.cpp  **** 	CHECK_EQUAL(2UL, *item);
 5076              		.loc 3 182 2
 5077 2a8c 4889C3   		movq	%rax, %rbx
 5078 2a8f E8000000 		call	__cxa_end_catch@PLT
 5078      00
 5079 2a94 4889D8   		movq	%rbx, %rax
 5080 2a97 4889C7   		movq	%rax, %rdi
 5081              	.LEHB230:
 5082 2a9a E8000000 		call	_Unwind_Resume@PLT
 5082      00
 5083              	.LEHE230:
 5084              	.L321:
 5085 2a9f F30F1EFA 		endbr64
 183:testCore.cpp  **** 	*item = 6;
 5086              		.loc 3 183 2 is_stmt 1
 5087 2aa3 4889C7   		movq	%rax, %rdi
 5088 2aa6 E8000000 		call	__cxa_begin_catch@PLT
 5088      00
 5089              	.LEHB231:
 5090 2aab E8000000 		call	_ZN8UnitTest11CurrentTest7ResultsEv@PLT
 5090      00
 183:testCore.cpp  **** 	*item = 6;
 5091              		.loc 3 183 2 is_stmt 0 discriminator 3
 5092 2ab0 488B18   		movq	(%rax), %rbx
 5093 2ab3 E8000000 		call	_ZN8UnitTest11CurrentTest7DetailsEv@PLT
 5093      00
 183:testCore.cpp  **** 	*item = 6;
 5094              		.loc 3 183 2 discriminator 11
 5095 2ab8 488B08   		movq	(%rax), %rcx
 5096 2abb 488D4590 		leaq	-112(%rbp), %rax
 5097 2abf BAB70000 		movl	$183, %edx
 5097      00
 5098 2ac4 4889CE   		movq	%rcx, %rsi
 5099 2ac7 4889C7   		movq	%rax, %rdi
 5100 2aca E8000000 		call	_ZN8UnitTest11TestDetailsC1ERKS0_i@PLT
 5100      00
 183:testCore.cpp  **** 	*item = 6;
 5101              		.loc 3 183 2 discriminator 15
 5102 2acf 488D4590 		leaq	-112(%rbp), %rax
 5103 2ad3 488D1500 		leaq	.LC14(%rip), %rdx
 5103      000000
 5104 2ada 4889C6   		movq	%rax, %rsi
 5105 2add 4889DF   		movq	%rbx, %rdi
 5106 2ae0 E8000000 		call	_ZN8UnitTest11TestResults13OnTestFailureERKNS_11TestDetailsEPKc@PLT
 5106      00
 5107              	.LEHE231:
 5108              	.LEHB232:
 183:testCore.cpp  **** 	*item = 6;
 5109              		.loc 3 183 2 discriminator 17
 5110 2ae5 E8000000 		call	__cxa_end_catch@PLT
 5110      00
 5111              	.LEHE232:
 5112 2aea E923F7FF 		jmp	.L250
 5112      FF
 5113              	.L322:
 5114 2aef F30F1EFA 		endbr64
 183:testCore.cpp  **** 	*item = 6;
 5115              		.loc 3 183 2
 5116 2af3 4889C3   		movq	%rax, %rbx
 5117 2af6 E8000000 		call	__cxa_end_catch@PLT
 5117      00
 5118 2afb 4889D8   		movq	%rbx, %rax
 5119 2afe 4889C7   		movq	%rax, %rdi
 5120              	.LEHB233:
 5121 2b01 E8000000 		call	_Unwind_Resume@PLT
 5121      00
 5122              	.LEHE233:
 5123              	.L323:
 5124 2b06 F30F1EFA 		endbr64
 187:testCore.cpp  **** 	CHECK_EQUAL(3UL, *item);
 5125              		.loc 3 187 2 is_stmt 1
 5126 2b0a 4889C7   		movq	%rax, %rdi
 5127 2b0d E8000000 		call	__cxa_begin_catch@PLT
 5127      00
 5128              	.LEHB234:
 5129 2b12 E8000000 		call	_ZN8UnitTest11CurrentTest7ResultsEv@PLT
 5129      00
 187:testCore.cpp  **** 	CHECK_EQUAL(3UL, *item);
 5130              		.loc 3 187 2 is_stmt 0 discriminator 3
 5131 2b17 488B18   		movq	(%rax), %rbx
 5132 2b1a E8000000 		call	_ZN8UnitTest11CurrentTest7DetailsEv@PLT
 5132      00
 187:testCore.cpp  **** 	CHECK_EQUAL(3UL, *item);
 5133              		.loc 3 187 2 discriminator 11
 5134 2b1f 488B08   		movq	(%rax), %rcx
 5135 2b22 488D4590 		leaq	-112(%rbp), %rax
 5136 2b26 BABB0000 		movl	$187, %edx
 5136      00
 5137 2b2b 4889CE   		movq	%rcx, %rsi
 5138 2b2e 4889C7   		movq	%rax, %rdi
 5139 2b31 E8000000 		call	_ZN8UnitTest11TestDetailsC1ERKS0_i@PLT
 5139      00
 187:testCore.cpp  **** 	CHECK_EQUAL(3UL, *item);
 5140              		.loc 3 187 2 discriminator 15
 5141 2b36 488D4590 		leaq	-112(%rbp), %rax
 5142 2b3a 488D1500 		leaq	.LC3(%rip), %rdx
 5142      000000
 5143 2b41 4889C6   		movq	%rax, %rsi
 5144 2b44 4889DF   		movq	%rbx, %rdi
 5145 2b47 E8000000 		call	_ZN8UnitTest11TestResults13OnTestFailureERKNS_11TestDetailsEPKc@PLT
 5145      00
 5146              	.LEHE234:
 5147              	.LEHB235:
 187:testCore.cpp  **** 	CHECK_EQUAL(3UL, *item);
 5148              		.loc 3 187 2 discriminator 17
 5149 2b4c E8000000 		call	__cxa_end_catch@PLT
 5149      00
 5150              	.LEHE235:
 5151 2b51 E92DF7FF 		jmp	.L253
 5151      FF
 5152              	.L324:
 5153 2b56 F30F1EFA 		endbr64
 187:testCore.cpp  **** 	CHECK_EQUAL(3UL, *item);
 5154              		.loc 3 187 2
 5155 2b5a 4889C3   		movq	%rax, %rbx
 5156 2b5d E8000000 		call	__cxa_end_catch@PLT
 5156      00
 5157 2b62 4889D8   		movq	%rbx, %rax
 5158 2b65 4889C7   		movq	%rax, %rdi
 5159              	.LEHB236:
 5160 2b68 E8000000 		call	_Unwind_Resume@PLT
 5160      00
 5161              	.LEHE236:
 5162              	.L325:
 5163 2b6d F30F1EFA 		endbr64
 188:testCore.cpp  **** 	*item = 7;
 5164              		.loc 3 188 2 is_stmt 1
 5165 2b71 4889C7   		movq	%rax, %rdi
 5166 2b74 E8000000 		call	__cxa_begin_catch@PLT
 5166      00
 5167              	.LEHB237:
 5168 2b79 E8000000 		call	_ZN8UnitTest11CurrentTest7ResultsEv@PLT
 5168      00
 188:testCore.cpp  **** 	*item = 7;
 5169              		.loc 3 188 2 is_stmt 0 discriminator 3
 5170 2b7e 488B18   		movq	(%rax), %rbx
 5171 2b81 E8000000 		call	_ZN8UnitTest11CurrentTest7DetailsEv@PLT
 5171      00
 188:testCore.cpp  **** 	*item = 7;
 5172              		.loc 3 188 2 discriminator 11
 5173 2b86 488B08   		movq	(%rax), %rcx
 5174 2b89 488D4590 		leaq	-112(%rbp), %rax
 5175 2b8d BABC0000 		movl	$188, %edx
 5175      00
 5176 2b92 4889CE   		movq	%rcx, %rsi
 5177 2b95 4889C7   		movq	%rax, %rdi
 5178 2b98 E8000000 		call	_ZN8UnitTest11TestDetailsC1ERKS0_i@PLT
 5178      00
 188:testCore.cpp  **** 	*item = 7;
 5179              		.loc 3 188 2 discriminator 15
 5180 2b9d 488D4590 		leaq	-112(%rbp), %rax
 5181 2ba1 488D1500 		leaq	.LC15(%rip), %rdx
 5181      000000
 5182 2ba8 4889C6   		movq	%rax, %rsi
 5183 2bab 4889DF   		movq	%rbx, %rdi
 5184 2bae E8000000 		call	_ZN8UnitTest11TestResults13OnTestFailureERKNS_11TestDetailsEPKc@PLT
 5184      00
 5185              	.LEHE237:
 5186              	.LEHB238:
 188:testCore.cpp  **** 	*item = 7;
 5187              		.loc 3 188 2 discriminator 17
 5188 2bb3 E8000000 		call	__cxa_end_catch@PLT
 5188      00
 5189              	.LEHE238:
 5190 2bb8 E90CF7FF 		jmp	.L256
 5190      FF
 5191              	.L326:
 5192 2bbd F30F1EFA 		endbr64
 188:testCore.cpp  **** 	*item = 7;
 5193              		.loc 3 188 2
 5194 2bc1 4889C3   		movq	%rax, %rbx
 5195 2bc4 E8000000 		call	__cxa_end_catch@PLT
 5195      00
 5196 2bc9 4889D8   		movq	%rbx, %rax
 5197 2bcc 4889C7   		movq	%rax, %rdi
 5198              	.LEHB239:
 5199 2bcf E8000000 		call	_Unwind_Resume@PLT
 5199      00
 5200              	.LEHE239:
 5201              	.L327:
 5202 2bd4 F30F1EFA 		endbr64
 192:testCore.cpp  **** 	CHECK_EQUAL(4UL, *item);
 5203              		.loc 3 192 2 is_stmt 1
 5204 2bd8 4889C7   		movq	%rax, %rdi
 5205 2bdb E8000000 		call	__cxa_begin_catch@PLT
 5205      00
 5206              	.LEHB240:
 5207 2be0 E8000000 		call	_ZN8UnitTest11CurrentTest7ResultsEv@PLT
 5207      00
 192:testCore.cpp  **** 	CHECK_EQUAL(4UL, *item);
 5208              		.loc 3 192 2 is_stmt 0 discriminator 3
 5209 2be5 488B18   		movq	(%rax), %rbx
 5210 2be8 E8000000 		call	_ZN8UnitTest11CurrentTest7DetailsEv@PLT
 5210      00
 192:testCore.cpp  **** 	CHECK_EQUAL(4UL, *item);
 5211              		.loc 3 192 2 discriminator 11
 5212 2bed 488B08   		movq	(%rax), %rcx
 5213 2bf0 488D4590 		leaq	-112(%rbp), %rax
 5214 2bf4 BAC00000 		movl	$192, %edx
 5214      00
 5215 2bf9 4889CE   		movq	%rcx, %rsi
 5216 2bfc 4889C7   		movq	%rax, %rdi
 5217 2bff E8000000 		call	_ZN8UnitTest11TestDetailsC1ERKS0_i@PLT
 5217      00
 192:testCore.cpp  **** 	CHECK_EQUAL(4UL, *item);
 5218              		.loc 3 192 2 discriminator 15
 5219 2c04 488D4590 		leaq	-112(%rbp), %rax
 5220 2c08 488D1500 		leaq	.LC3(%rip), %rdx
 5220      000000
 5221 2c0f 4889C6   		movq	%rax, %rsi
 5222 2c12 4889DF   		movq	%rbx, %rdi
 5223 2c15 E8000000 		call	_ZN8UnitTest11TestResults13OnTestFailureERKNS_11TestDetailsEPKc@PLT
 5223      00
 5224              	.LEHE240:
 5225              	.LEHB241:
 192:testCore.cpp  **** 	CHECK_EQUAL(4UL, *item);
 5226              		.loc 3 192 2 discriminator 17
 5227 2c1a E8000000 		call	__cxa_end_catch@PLT
 5227      00
 5228              	.LEHE241:
 5229 2c1f E916F7FF 		jmp	.L259
 5229      FF
 5230              	.L328:
 5231 2c24 F30F1EFA 		endbr64
 192:testCore.cpp  **** 	CHECK_EQUAL(4UL, *item);
 5232              		.loc 3 192 2
 5233 2c28 4889C3   		movq	%rax, %rbx
 5234 2c2b E8000000 		call	__cxa_end_catch@PLT
 5234      00
 5235 2c30 4889D8   		movq	%rbx, %rax
 5236 2c33 4889C7   		movq	%rax, %rdi
 5237              	.LEHB242:
 5238 2c36 E8000000 		call	_Unwind_Resume@PLT
 5238      00
 5239              	.LEHE242:
 5240              	.L329:
 5241 2c3b F30F1EFA 		endbr64
 193:testCore.cpp  **** 	*item = 8;
 5242              		.loc 3 193 2 is_stmt 1
 5243 2c3f 4889C7   		movq	%rax, %rdi
 5244 2c42 E8000000 		call	__cxa_begin_catch@PLT
 5244      00
 5245              	.LEHB243:
 5246 2c47 E8000000 		call	_ZN8UnitTest11CurrentTest7ResultsEv@PLT
 5246      00
 193:testCore.cpp  **** 	*item = 8;
 5247              		.loc 3 193 2 is_stmt 0 discriminator 3
 5248 2c4c 488B18   		movq	(%rax), %rbx
 5249 2c4f E8000000 		call	_ZN8UnitTest11CurrentTest7DetailsEv@PLT
 5249      00
 193:testCore.cpp  **** 	*item = 8;
 5250              		.loc 3 193 2 discriminator 11
 5251 2c54 488B08   		movq	(%rax), %rcx
 5252 2c57 488D4590 		leaq	-112(%rbp), %rax
 5253 2c5b BAC10000 		movl	$193, %edx
 5253      00
 5254 2c60 4889CE   		movq	%rcx, %rsi
 5255 2c63 4889C7   		movq	%rax, %rdi
 5256 2c66 E8000000 		call	_ZN8UnitTest11TestDetailsC1ERKS0_i@PLT
 5256      00
 193:testCore.cpp  **** 	*item = 8;
 5257              		.loc 3 193 2 discriminator 15
 5258 2c6b 488D4590 		leaq	-112(%rbp), %rax
 5259 2c6f 488D1500 		leaq	.LC22(%rip), %rdx
 5259      000000
 5260 2c76 4889C6   		movq	%rax, %rsi
 5261 2c79 4889DF   		movq	%rbx, %rdi
 5262 2c7c E8000000 		call	_ZN8UnitTest11TestResults13OnTestFailureERKNS_11TestDetailsEPKc@PLT
 5262      00
 5263              	.LEHE243:
 5264              	.LEHB244:
 193:testCore.cpp  **** 	*item = 8;
 5265              		.loc 3 193 2 discriminator 17
 5266 2c81 E8000000 		call	__cxa_end_catch@PLT
 5266      00
 5267              	.LEHE244:
 5268 2c86 E9F5F6FF 		jmp	.L262
 5268      FF
 5269              	.L330:
 5270 2c8b F30F1EFA 		endbr64
 193:testCore.cpp  **** 	*item = 8;
 5271              		.loc 3 193 2
 5272 2c8f 4889C3   		movq	%rax, %rbx
 5273 2c92 E8000000 		call	__cxa_end_catch@PLT
 5273      00
 5274 2c97 4889D8   		movq	%rbx, %rax
 5275 2c9a 4889C7   		movq	%rax, %rdi
 5276              	.LEHB245:
 5277 2c9d E8000000 		call	_Unwind_Resume@PLT
 5277      00
 5278              	.LEHE245:
 5279              	.L331:
 5280 2ca2 F30F1EFA 		endbr64
 199:testCore.cpp  **** 	CHECK_EQUAL(5UL, *item);
 5281              		.loc 3 199 2 is_stmt 1
 5282 2ca6 4889C7   		movq	%rax, %rdi
 5283 2ca9 E8000000 		call	__cxa_begin_catch@PLT
 5283      00
 5284              	.LEHB246:
 5285 2cae E8000000 		call	_ZN8UnitTest11CurrentTest7ResultsEv@PLT
 5285      00
 199:testCore.cpp  **** 	CHECK_EQUAL(5UL, *item);
 5286              		.loc 3 199 2 is_stmt 0 discriminator 3
 5287 2cb3 488B18   		movq	(%rax), %rbx
 5288 2cb6 E8000000 		call	_ZN8UnitTest11CurrentTest7DetailsEv@PLT
 5288      00
 199:testCore.cpp  **** 	CHECK_EQUAL(5UL, *item);
 5289              		.loc 3 199 2 discriminator 11
 5290 2cbb 488B08   		movq	(%rax), %rcx
 5291 2cbe 488D4590 		leaq	-112(%rbp), %rax
 5292 2cc2 BAC70000 		movl	$199, %edx
 5292      00
 5293 2cc7 4889CE   		movq	%rcx, %rsi
 5294 2cca 4889C7   		movq	%rax, %rdi
 5295 2ccd E8000000 		call	_ZN8UnitTest11TestDetailsC1ERKS0_i@PLT
 5295      00
 199:testCore.cpp  **** 	CHECK_EQUAL(5UL, *item);
 5296              		.loc 3 199 2 discriminator 15
 5297 2cd2 488D4590 		leaq	-112(%rbp), %rax
 5298 2cd6 488D1500 		leaq	.LC3(%rip), %rdx
 5298      000000
 5299 2cdd 4889C6   		movq	%rax, %rsi
 5300 2ce0 4889DF   		movq	%rbx, %rdi
 5301 2ce3 E8000000 		call	_ZN8UnitTest11TestResults13OnTestFailureERKNS_11TestDetailsEPKc@PLT
 5301      00
 5302              	.LEHE246:
 5303              	.LEHB247:
 199:testCore.cpp  **** 	CHECK_EQUAL(5UL, *item);
 5304              		.loc 3 199 2 discriminator 17
 5305 2ce8 E8000000 		call	__cxa_end_catch@PLT
 5305      00
 5306              	.LEHE247:
 5307 2ced E9FFF6FF 		jmp	.L265
 5307      FF
 5308              	.L332:
 5309 2cf2 F30F1EFA 		endbr64
 199:testCore.cpp  **** 	CHECK_EQUAL(5UL, *item);
 5310              		.loc 3 199 2
 5311 2cf6 4889C3   		movq	%rax, %rbx
 5312 2cf9 E8000000 		call	__cxa_end_catch@PLT
 5312      00
 5313 2cfe 4889D8   		movq	%rbx, %rax
 5314 2d01 4889C7   		movq	%rax, %rdi
 5315              	.LEHB248:
 5316 2d04 E8000000 		call	_Unwind_Resume@PLT
 5316      00
 5317              	.LEHE248:
 5318              	.L333:
 5319 2d09 F30F1EFA 		endbr64
 200:testCore.cpp  **** 	queueCommitTake(&queue);
 5320              		.loc 3 200 2 is_stmt 1
 5321 2d0d 4889C7   		movq	%rax, %rdi
 5322 2d10 E8000000 		call	__cxa_begin_catch@PLT
 5322      00
 5323              	.LEHB249:
 5324 2d15 E8000000 		call	_ZN8UnitTest11CurrentTest7ResultsEv@PLT
 5324      00
 200:testCore.cpp  **** 	queueCommitTake(&queue);
 5325              		.loc 3 200 2 is_stmt 0 discriminator 3
 5326 2d1a 488B18   		movq	(%rax), %rbx
 5327 2d1d E8000000 		call	_ZN8UnitTest11CurrentTest7DetailsEv@PLT
 5327      00
 200:testCore.cpp  **** 	queueCommitTake(&queue);
 5328              		.loc 3 200 2 discriminator 11
 5329 2d22 488B08   		movq	(%rax), %rcx
 5330 2d25 488D4590 		leaq	-112(%rbp), %rax
 5331 2d29 BAC80000 		movl	$200, %edx
 5331      00
 5332 2d2e 4889CE   		movq	%rcx, %rsi
 5333 2d31 4889C7   		movq	%rax, %rdi
 5334 2d34 E8000000 		call	_ZN8UnitTest11TestDetailsC1ERKS0_i@PLT
 5334      00
 200:testCore.cpp  **** 	queueCommitTake(&queue);
 5335              		.loc 3 200 2 discriminator 15
 5336 2d39 488D4590 		leaq	-112(%rbp), %rax
 5337 2d3d 488D1500 		leaq	.LC26(%rip), %rdx
 5337      000000
 5338 2d44 4889C6   		movq	%rax, %rsi
 5339 2d47 4889DF   		movq	%rbx, %rdi
 5340 2d4a E8000000 		call	_ZN8UnitTest11TestResults13OnTestFailureERKNS_11TestDetailsEPKc@PLT
 5340      00
 5341              	.LEHE249:
 5342              	.LEHB250:
 200:testCore.cpp  **** 	queueCommitTake(&queue);
 5343              		.loc 3 200 2 discriminator 17
 5344 2d4f E8000000 		call	__cxa_end_catch@PLT
 5344      00
 5345              	.LEHE250:
 5346 2d54 E9DEF6FF 		jmp	.L268
 5346      FF
 5347              	.L334:
 5348 2d59 F30F1EFA 		endbr64
 200:testCore.cpp  **** 	queueCommitTake(&queue);
 5349              		.loc 3 200 2
 5350 2d5d 4889C3   		movq	%rax, %rbx
 5351 2d60 E8000000 		call	__cxa_end_catch@PLT
 5351      00
 5352 2d65 4889D8   		movq	%rbx, %rax
 5353 2d68 4889C7   		movq	%rax, %rdi
 5354              	.LEHB251:
 5355 2d6b E8000000 		call	_Unwind_Resume@PLT
 5355      00
 5356              	.LEHE251:
 5357              	.L335:
 5358 2d70 F30F1EFA 		endbr64
 203:testCore.cpp  **** 	CHECK_EQUAL(6UL, *item);
 5359              		.loc 3 203 2 is_stmt 1
 5360 2d74 4889C7   		movq	%rax, %rdi
 5361 2d77 E8000000 		call	__cxa_begin_catch@PLT
 5361      00
 5362              	.LEHB252:
 5363 2d7c E8000000 		call	_ZN8UnitTest11CurrentTest7ResultsEv@PLT
 5363      00
 203:testCore.cpp  **** 	CHECK_EQUAL(6UL, *item);
 5364              		.loc 3 203 2 is_stmt 0 discriminator 3
 5365 2d81 488B18   		movq	(%rax), %rbx
 5366 2d84 E8000000 		call	_ZN8UnitTest11CurrentTest7DetailsEv@PLT
 5366      00
 203:testCore.cpp  **** 	CHECK_EQUAL(6UL, *item);
 5367              		.loc 3 203 2 discriminator 11
 5368 2d89 488B08   		movq	(%rax), %rcx
 5369 2d8c 488D4590 		leaq	-112(%rbp), %rax
 5370 2d90 BACB0000 		movl	$203, %edx
 5370      00
 5371 2d95 4889CE   		movq	%rcx, %rsi
 5372 2d98 4889C7   		movq	%rax, %rdi
 5373 2d9b E8000000 		call	_ZN8UnitTest11TestDetailsC1ERKS0_i@PLT
 5373      00
 203:testCore.cpp  **** 	CHECK_EQUAL(6UL, *item);
 5374              		.loc 3 203 2 discriminator 15
 5375 2da0 488D4590 		leaq	-112(%rbp), %rax
 5376 2da4 488D1500 		leaq	.LC3(%rip), %rdx
 5376      000000
 5377 2dab 4889C6   		movq	%rax, %rsi
 5378 2dae 4889DF   		movq	%rbx, %rdi
 5379 2db1 E8000000 		call	_ZN8UnitTest11TestResults13OnTestFailureERKNS_11TestDetailsEPKc@PLT
 5379      00
 5380              	.LEHE252:
 5381              	.LEHB253:
 203:testCore.cpp  **** 	CHECK_EQUAL(6UL, *item);
 5382              		.loc 3 203 2 discriminator 17
 5383 2db6 E8000000 		call	__cxa_end_catch@PLT
 5383      00
 5384              	.LEHE253:
 5385 2dbb E9DEF6FF 		jmp	.L271
 5385      FF
 5386              	.L336:
 5387 2dc0 F30F1EFA 		endbr64
 203:testCore.cpp  **** 	CHECK_EQUAL(6UL, *item);
 5388              		.loc 3 203 2
 5389 2dc4 4889C3   		movq	%rax, %rbx
 5390 2dc7 E8000000 		call	__cxa_end_catch@PLT
 5390      00
 5391 2dcc 4889D8   		movq	%rbx, %rax
 5392 2dcf 4889C7   		movq	%rax, %rdi
 5393              	.LEHB254:
 5394 2dd2 E8000000 		call	_Unwind_Resume@PLT
 5394      00
 5395              	.LEHE254:
 5396              	.L337:
 5397 2dd7 F30F1EFA 		endbr64
 204:testCore.cpp  **** 	queueCommitTake(&queue);
 5398              		.loc 3 204 2 is_stmt 1
 5399 2ddb 4889C7   		movq	%rax, %rdi
 5400 2dde E8000000 		call	__cxa_begin_catch@PLT
 5400      00
 5401              	.LEHB255:
 5402 2de3 E8000000 		call	_ZN8UnitTest11CurrentTest7ResultsEv@PLT
 5402      00
 204:testCore.cpp  **** 	queueCommitTake(&queue);
 5403              		.loc 3 204 2 is_stmt 0 discriminator 3
 5404 2de8 488B18   		movq	(%rax), %rbx
 5405 2deb E8000000 		call	_ZN8UnitTest11CurrentTest7DetailsEv@PLT
 5405      00
 204:testCore.cpp  **** 	queueCommitTake(&queue);
 5406              		.loc 3 204 2 discriminator 11
 5407 2df0 488B08   		movq	(%rax), %rcx
 5408 2df3 488D4590 		leaq	-112(%rbp), %rax
 5409 2df7 BACC0000 		movl	$204, %edx
 5409      00
 5410 2dfc 4889CE   		movq	%rcx, %rsi
 5411 2dff 4889C7   		movq	%rax, %rdi
 5412 2e02 E8000000 		call	_ZN8UnitTest11TestDetailsC1ERKS0_i@PLT
 5412      00
 204:testCore.cpp  **** 	queueCommitTake(&queue);
 5413              		.loc 3 204 2 discriminator 15
 5414 2e07 488D4590 		leaq	-112(%rbp), %rax
 5415 2e0b 488D1500 		leaq	.LC27(%rip), %rdx
 5415      000000
 5416 2e12 4889C6   		movq	%rax, %rsi
 5417 2e15 4889DF   		movq	%rbx, %rdi
 5418 2e18 E8000000 		call	_ZN8UnitTest11TestResults13OnTestFailureERKNS_11TestDetailsEPKc@PLT
 5418      00
 5419              	.LEHE255:
 5420              	.LEHB256:
 204:testCore.cpp  **** 	queueCommitTake(&queue);
 5421              		.loc 3 204 2 discriminator 17
 5422 2e1d E8000000 		call	__cxa_end_catch@PLT
 5422      00
 5423              	.LEHE256:
 5424 2e22 E9BDF6FF 		jmp	.L274
 5424      FF
 5425              	.L338:
 5426 2e27 F30F1EFA 		endbr64
 204:testCore.cpp  **** 	queueCommitTake(&queue);
 5427              		.loc 3 204 2
 5428 2e2b 4889C3   		movq	%rax, %rbx
 5429 2e2e E8000000 		call	__cxa_end_catch@PLT
 5429      00
 5430 2e33 4889D8   		movq	%rbx, %rax
 5431 2e36 4889C7   		movq	%rax, %rdi
 5432              	.LEHB257:
 5433 2e39 E8000000 		call	_Unwind_Resume@PLT
 5433      00
 5434              	.LEHE257:
 5435              	.L339:
 5436 2e3e F30F1EFA 		endbr64
 207:testCore.cpp  **** 	CHECK_EQUAL(7UL, *item);
 5437              		.loc 3 207 2 is_stmt 1
 5438 2e42 4889C7   		movq	%rax, %rdi
 5439 2e45 E8000000 		call	__cxa_begin_catch@PLT
 5439      00
 5440              	.LEHB258:
 5441 2e4a E8000000 		call	_ZN8UnitTest11CurrentTest7ResultsEv@PLT
 5441      00
 207:testCore.cpp  **** 	CHECK_EQUAL(7UL, *item);
 5442              		.loc 3 207 2 is_stmt 0 discriminator 3
 5443 2e4f 488B18   		movq	(%rax), %rbx
 5444 2e52 E8000000 		call	_ZN8UnitTest11CurrentTest7DetailsEv@PLT
 5444      00
 207:testCore.cpp  **** 	CHECK_EQUAL(7UL, *item);
 5445              		.loc 3 207 2 discriminator 11
 5446 2e57 488B08   		movq	(%rax), %rcx
 5447 2e5a 488D4590 		leaq	-112(%rbp), %rax
 5448 2e5e BACF0000 		movl	$207, %edx
 5448      00
 5449 2e63 4889CE   		movq	%rcx, %rsi
 5450 2e66 4889C7   		movq	%rax, %rdi
 5451 2e69 E8000000 		call	_ZN8UnitTest11TestDetailsC1ERKS0_i@PLT
 5451      00
 207:testCore.cpp  **** 	CHECK_EQUAL(7UL, *item);
 5452              		.loc 3 207 2 discriminator 15
 5453 2e6e 488D4590 		leaq	-112(%rbp), %rax
 5454 2e72 488D1500 		leaq	.LC3(%rip), %rdx
 5454      000000
 5455 2e79 4889C6   		movq	%rax, %rsi
 5456 2e7c 4889DF   		movq	%rbx, %rdi
 5457 2e7f E8000000 		call	_ZN8UnitTest11TestResults13OnTestFailureERKNS_11TestDetailsEPKc@PLT
 5457      00
 5458              	.LEHE258:
 5459              	.LEHB259:
 207:testCore.cpp  **** 	CHECK_EQUAL(7UL, *item);
 5460              		.loc 3 207 2 discriminator 17
 5461 2e84 E8000000 		call	__cxa_end_catch@PLT
 5461      00
 5462              	.LEHE259:
 5463 2e89 E9BDF6FF 		jmp	.L277
 5463      FF
 5464              	.L340:
 5465 2e8e F30F1EFA 		endbr64
 207:testCore.cpp  **** 	CHECK_EQUAL(7UL, *item);
 5466              		.loc 3 207 2
 5467 2e92 4889C3   		movq	%rax, %rbx
 5468 2e95 E8000000 		call	__cxa_end_catch@PLT
 5468      00
 5469 2e9a 4889D8   		movq	%rbx, %rax
 5470 2e9d 4889C7   		movq	%rax, %rdi
 5471              	.LEHB260:
 5472 2ea0 E8000000 		call	_Unwind_Resume@PLT
 5472      00
 5473              	.LEHE260:
 5474              	.L341:
 5475 2ea5 F30F1EFA 		endbr64
 208:testCore.cpp  **** 	queueCommitTake(&queue);
 5476              		.loc 3 208 2 is_stmt 1
 5477 2ea9 4889C7   		movq	%rax, %rdi
 5478 2eac E8000000 		call	__cxa_begin_catch@PLT
 5478      00
 5479              	.LEHB261:
 5480 2eb1 E8000000 		call	_ZN8UnitTest11CurrentTest7ResultsEv@PLT
 5480      00
 208:testCore.cpp  **** 	queueCommitTake(&queue);
 5481              		.loc 3 208 2 is_stmt 0 discriminator 3
 5482 2eb6 488B18   		movq	(%rax), %rbx
 5483 2eb9 E8000000 		call	_ZN8UnitTest11CurrentTest7DetailsEv@PLT
 5483      00
 208:testCore.cpp  **** 	queueCommitTake(&queue);
 5484              		.loc 3 208 2 discriminator 11
 5485 2ebe 488B08   		movq	(%rax), %rcx
 5486 2ec1 488D4590 		leaq	-112(%rbp), %rax
 5487 2ec5 BAD00000 		movl	$208, %edx
 5487      00
 5488 2eca 4889CE   		movq	%rcx, %rsi
 5489 2ecd 4889C7   		movq	%rax, %rdi
 5490 2ed0 E8000000 		call	_ZN8UnitTest11TestDetailsC1ERKS0_i@PLT
 5490      00
 208:testCore.cpp  **** 	queueCommitTake(&queue);
 5491              		.loc 3 208 2 discriminator 15
 5492 2ed5 488D4590 		leaq	-112(%rbp), %rax
 5493 2ed9 488D1500 		leaq	.LC28(%rip), %rdx
 5493      000000
 5494 2ee0 4889C6   		movq	%rax, %rsi
 5495 2ee3 4889DF   		movq	%rbx, %rdi
 5496 2ee6 E8000000 		call	_ZN8UnitTest11TestResults13OnTestFailureERKNS_11TestDetailsEPKc@PLT
 5496      00
 5497              	.LEHE261:
 5498              	.LEHB262:
 208:testCore.cpp  **** 	queueCommitTake(&queue);
 5499              		.loc 3 208 2 discriminator 17
 5500 2eeb E8000000 		call	__cxa_end_catch@PLT
 5500      00
 5501              	.LEHE262:
 5502 2ef0 E99CF6FF 		jmp	.L280
 5502      FF
 5503              	.L342:
 5504 2ef5 F30F1EFA 		endbr64
 208:testCore.cpp  **** 	queueCommitTake(&queue);
 5505              		.loc 3 208 2
 5506 2ef9 4889C3   		movq	%rax, %rbx
 5507 2efc E8000000 		call	__cxa_end_catch@PLT
 5507      00
 5508 2f01 4889D8   		movq	%rbx, %rax
 5509 2f04 4889C7   		movq	%rax, %rdi
 5510              	.LEHB263:
 5511 2f07 E8000000 		call	_Unwind_Resume@PLT
 5511      00
 5512              	.LEHE263:
 5513              	.L343:
 5514 2f0c F30F1EFA 		endbr64
 211:testCore.cpp  **** 	CHECK_EQUAL(8UL, *item);
 5515              		.loc 3 211 2 is_stmt 1
 5516 2f10 4889C7   		movq	%rax, %rdi
 5517 2f13 E8000000 		call	__cxa_begin_catch@PLT
 5517      00
 5518              	.LEHB264:
 5519 2f18 E8000000 		call	_ZN8UnitTest11CurrentTest7ResultsEv@PLT
 5519      00
 211:testCore.cpp  **** 	CHECK_EQUAL(8UL, *item);
 5520              		.loc 3 211 2 is_stmt 0 discriminator 3
 5521 2f1d 488B18   		movq	(%rax), %rbx
 5522 2f20 E8000000 		call	_ZN8UnitTest11CurrentTest7DetailsEv@PLT
 5522      00
 211:testCore.cpp  **** 	CHECK_EQUAL(8UL, *item);
 5523              		.loc 3 211 2 discriminator 11
 5524 2f25 488B08   		movq	(%rax), %rcx
 5525 2f28 488D4590 		leaq	-112(%rbp), %rax
 5526 2f2c BAD30000 		movl	$211, %edx
 5526      00
 5527 2f31 4889CE   		movq	%rcx, %rsi
 5528 2f34 4889C7   		movq	%rax, %rdi
 5529 2f37 E8000000 		call	_ZN8UnitTest11TestDetailsC1ERKS0_i@PLT
 5529      00
 211:testCore.cpp  **** 	CHECK_EQUAL(8UL, *item);
 5530              		.loc 3 211 2 discriminator 15
 5531 2f3c 488D4590 		leaq	-112(%rbp), %rax
 5532 2f40 488D1500 		leaq	.LC3(%rip), %rdx
 5532      000000
 5533 2f47 4889C6   		movq	%rax, %rsi
 5534 2f4a 4889DF   		movq	%rbx, %rdi
 5535 2f4d E8000000 		call	_ZN8UnitTest11TestResults13OnTestFailureERKNS_11TestDetailsEPKc@PLT
 5535      00
 5536              	.LEHE264:
 5537              	.LEHB265:
 211:testCore.cpp  **** 	CHECK_EQUAL(8UL, *item);
 5538              		.loc 3 211 2 discriminator 17
 5539 2f52 E8000000 		call	__cxa_end_catch@PLT
 5539      00
 5540              	.LEHE265:
 5541 2f57 E99CF6FF 		jmp	.L283
 5541      FF
 5542              	.L344:
 5543 2f5c F30F1EFA 		endbr64
 211:testCore.cpp  **** 	CHECK_EQUAL(8UL, *item);
 5544              		.loc 3 211 2
 5545 2f60 4889C3   		movq	%rax, %rbx
 5546 2f63 E8000000 		call	__cxa_end_catch@PLT
 5546      00
 5547 2f68 4889D8   		movq	%rbx, %rax
 5548 2f6b 4889C7   		movq	%rax, %rdi
 5549              	.LEHB266:
 5550 2f6e E8000000 		call	_Unwind_Resume@PLT
 5550      00
 5551              	.LEHE266:
 5552              	.L345:
 5553 2f73 F30F1EFA 		endbr64
 212:testCore.cpp  **** 	queueCommitTake(&queue);
 5554              		.loc 3 212 2 is_stmt 1
 5555 2f77 4889C7   		movq	%rax, %rdi
 5556 2f7a E8000000 		call	__cxa_begin_catch@PLT
 5556      00
 5557              	.LEHB267:
 5558 2f7f E8000000 		call	_ZN8UnitTest11CurrentTest7ResultsEv@PLT
 5558      00
 212:testCore.cpp  **** 	queueCommitTake(&queue);
 5559              		.loc 3 212 2 is_stmt 0 discriminator 3
 5560 2f84 488B18   		movq	(%rax), %rbx
 5561 2f87 E8000000 		call	_ZN8UnitTest11CurrentTest7DetailsEv@PLT
 5561      00
 212:testCore.cpp  **** 	queueCommitTake(&queue);
 5562              		.loc 3 212 2 discriminator 11
 5563 2f8c 488B08   		movq	(%rax), %rcx
 5564 2f8f 488D4590 		leaq	-112(%rbp), %rax
 5565 2f93 BAD40000 		movl	$212, %edx
 5565      00
 5566 2f98 4889CE   		movq	%rcx, %rsi
 5567 2f9b 4889C7   		movq	%rax, %rdi
 5568 2f9e E8000000 		call	_ZN8UnitTest11TestDetailsC1ERKS0_i@PLT
 5568      00
 212:testCore.cpp  **** 	queueCommitTake(&queue);
 5569              		.loc 3 212 2 discriminator 15
 5570 2fa3 488D4590 		leaq	-112(%rbp), %rax
 5571 2fa7 488D1500 		leaq	.LC29(%rip), %rdx
 5571      000000
 5572 2fae 4889C6   		movq	%rax, %rsi
 5573 2fb1 4889DF   		movq	%rbx, %rdi
 5574 2fb4 E8000000 		call	_ZN8UnitTest11TestResults13OnTestFailureERKNS_11TestDetailsEPKc@PLT
 5574      00
 5575              	.LEHE267:
 5576              	.LEHB268:
 212:testCore.cpp  **** 	queueCommitTake(&queue);
 5577              		.loc 3 212 2 discriminator 17
 5578 2fb9 E8000000 		call	__cxa_end_catch@PLT
 5578      00
 5579              	.LEHE268:
 5580 2fbe E97BF6FF 		jmp	.L286
 5580      FF
 5581              	.L346:
 5582 2fc3 F30F1EFA 		endbr64
 212:testCore.cpp  **** 	queueCommitTake(&queue);
 5583              		.loc 3 212 2
 5584 2fc7 4889C3   		movq	%rax, %rbx
 5585 2fca E8000000 		call	__cxa_end_catch@PLT
 5585      00
 5586 2fcf 4889D8   		movq	%rbx, %rax
 5587 2fd2 4889C7   		movq	%rax, %rdi
 5588              	.LEHB269:
 5589 2fd5 E8000000 		call	_Unwind_Resume@PLT
 5589      00
 5590              	.LEHE269:
 5591              	.L347:
 5592 2fda F30F1EFA 		endbr64
 216:testCore.cpp  **** 	CHECK_EQUAL(0UL, queue.putIndex);
 5593              		.loc 3 216 2 is_stmt 1
 5594 2fde 4889C7   		movq	%rax, %rdi
 5595 2fe1 E8000000 		call	__cxa_begin_catch@PLT
 5595      00
 5596              	.LEHB270:
 5597 2fe6 E8000000 		call	_ZN8UnitTest11CurrentTest7ResultsEv@PLT
 5597      00
 216:testCore.cpp  **** 	CHECK_EQUAL(0UL, queue.putIndex);
 5598              		.loc 3 216 2 is_stmt 0 discriminator 3
 5599 2feb 488B18   		movq	(%rax), %rbx
 5600 2fee E8000000 		call	_ZN8UnitTest11CurrentTest7DetailsEv@PLT
 5600      00
 216:testCore.cpp  **** 	CHECK_EQUAL(0UL, queue.putIndex);
 5601              		.loc 3 216 2 discriminator 11
 5602 2ff3 488B08   		movq	(%rax), %rcx
 5603 2ff6 488D4590 		leaq	-112(%rbp), %rax
 5604 2ffa BAD80000 		movl	$216, %edx
 5604      00
 5605 2fff 4889CE   		movq	%rcx, %rsi
 5606 3002 4889C7   		movq	%rax, %rdi
 5607 3005 E8000000 		call	_ZN8UnitTest11TestDetailsC1ERKS0_i@PLT
 5607      00
 216:testCore.cpp  **** 	CHECK_EQUAL(0UL, queue.putIndex);
 5608              		.loc 3 216 2 discriminator 15
 5609 300a 488D4590 		leaq	-112(%rbp), %rax
 5610 300e 488D1500 		leaq	.LC4(%rip), %rdx
 5610      000000
 5611 3015 4889C6   		movq	%rax, %rsi
 5612 3018 4889DF   		movq	%rbx, %rdi
 5613 301b E8000000 		call	_ZN8UnitTest11TestResults13OnTestFailureERKNS_11TestDetailsEPKc@PLT
 5613      00
 5614              	.LEHE270:
 5615              	.LEHB271:
 216:testCore.cpp  **** 	CHECK_EQUAL(0UL, queue.putIndex);
 5616              		.loc 3 216 2 discriminator 17
 5617 3020 E8000000 		call	__cxa_end_catch@PLT
 5617      00
 5618              	.LEHE271:
 5619 3025 E96AF6FF 		jmp	.L289
 5619      FF
 5620              	.L348:
 5621 302a F30F1EFA 		endbr64
 216:testCore.cpp  **** 	CHECK_EQUAL(0UL, queue.putIndex);
 5622              		.loc 3 216 2
 5623 302e 4889C3   		movq	%rax, %rbx
 5624 3031 E8000000 		call	__cxa_end_catch@PLT
 5624      00
 5625 3036 4889D8   		movq	%rbx, %rax
 5626 3039 4889C7   		movq	%rax, %rdi
 5627              	.LEHB272:
 5628 303c E8000000 		call	_Unwind_Resume@PLT
 5628      00
 5629              	.LEHE272:
 5630              	.L349:
 5631 3041 F30F1EFA 		endbr64
 217:testCore.cpp  **** 	CHECK_EQUAL(0UL, queue.takeIndex);
 5632              		.loc 3 217 2 is_stmt 1
 5633 3045 4889C7   		movq	%rax, %rdi
 5634 3048 E8000000 		call	__cxa_begin_catch@PLT
 5634      00
 5635              	.LEHB273:
 5636 304d E8000000 		call	_ZN8UnitTest11CurrentTest7ResultsEv@PLT
 5636      00
 217:testCore.cpp  **** 	CHECK_EQUAL(0UL, queue.takeIndex);
 5637              		.loc 3 217 2 is_stmt 0 discriminator 3
 5638 3052 488B18   		movq	(%rax), %rbx
 5639 3055 E8000000 		call	_ZN8UnitTest11CurrentTest7DetailsEv@PLT
 5639      00
 217:testCore.cpp  **** 	CHECK_EQUAL(0UL, queue.takeIndex);
 5640              		.loc 3 217 2 discriminator 11
 5641 305a 488B08   		movq	(%rax), %rcx
 5642 305d 488D4590 		leaq	-112(%rbp), %rax
 5643 3061 BAD90000 		movl	$217, %edx
 5643      00
 5644 3066 4889CE   		movq	%rcx, %rsi
 5645 3069 4889C7   		movq	%rax, %rdi
 5646 306c E8000000 		call	_ZN8UnitTest11TestDetailsC1ERKS0_i@PLT
 5646      00
 217:testCore.cpp  **** 	CHECK_EQUAL(0UL, queue.takeIndex);
 5647              		.loc 3 217 2 discriminator 15
 5648 3071 488D4590 		leaq	-112(%rbp), %rax
 5649 3075 488D1500 		leaq	.LC5(%rip), %rdx
 5649      000000
 5650 307c 4889C6   		movq	%rax, %rsi
 5651 307f 4889DF   		movq	%rbx, %rdi
 5652 3082 E8000000 		call	_ZN8UnitTest11TestResults13OnTestFailureERKNS_11TestDetailsEPKc@PLT
 5652      00
 5653              	.LEHE273:
 5654              	.LEHB274:
 217:testCore.cpp  **** 	CHECK_EQUAL(0UL, queue.takeIndex);
 5655              		.loc 3 217 2 discriminator 17
 5656 3087 E8000000 		call	__cxa_end_catch@PLT
 5656      00
 5657              	.LEHE274:
 5658 308c E94DF6FF 		jmp	.L292
 5658      FF
 5659              	.L350:
 5660 3091 F30F1EFA 		endbr64
 217:testCore.cpp  **** 	CHECK_EQUAL(0UL, queue.takeIndex);
 5661              		.loc 3 217 2
 5662 3095 4889C3   		movq	%rax, %rbx
 5663 3098 E8000000 		call	__cxa_end_catch@PLT
 5663      00
 5664 309d 4889D8   		movq	%rbx, %rax
 5665 30a0 4889C7   		movq	%rax, %rdi
 5666              	.LEHB275:
 5667 30a3 E8000000 		call	_Unwind_Resume@PLT
 5667      00
 5668              	.LEHE275:
 5669              	.L351:
 5670 30a8 F30F1EFA 		endbr64
 218:testCore.cpp  **** 	CHECK_EQUAL(0UL, queue.numItems);
 5671              		.loc 3 218 2 is_stmt 1
 5672 30ac 4889C7   		movq	%rax, %rdi
 5673 30af E8000000 		call	__cxa_begin_catch@PLT
 5673      00
 5674              	.LEHB276:
 5675 30b4 E8000000 		call	_ZN8UnitTest11CurrentTest7ResultsEv@PLT
 5675      00
 218:testCore.cpp  **** 	CHECK_EQUAL(0UL, queue.numItems);
 5676              		.loc 3 218 2 is_stmt 0 discriminator 3
 5677 30b9 488B18   		movq	(%rax), %rbx
 5678 30bc E8000000 		call	_ZN8UnitTest11CurrentTest7DetailsEv@PLT
 5678      00
 218:testCore.cpp  **** 	CHECK_EQUAL(0UL, queue.numItems);
 5679              		.loc 3 218 2 discriminator 11
 5680 30c1 488B08   		movq	(%rax), %rcx
 5681 30c4 488D4590 		leaq	-112(%rbp), %rax
 5682 30c8 BADA0000 		movl	$218, %edx
 5682      00
 5683 30cd 4889CE   		movq	%rcx, %rsi
 5684 30d0 4889C7   		movq	%rax, %rdi
 5685 30d3 E8000000 		call	_ZN8UnitTest11TestDetailsC1ERKS0_i@PLT
 5685      00
 218:testCore.cpp  **** 	CHECK_EQUAL(0UL, queue.numItems);
 5686              		.loc 3 218 2 discriminator 15
 5687 30d8 488D4590 		leaq	-112(%rbp), %rax
 5688 30dc 488D1500 		leaq	.LC6(%rip), %rdx
 5688      000000
 5689 30e3 4889C6   		movq	%rax, %rsi
 5690 30e6 4889DF   		movq	%rbx, %rdi
 5691 30e9 E8000000 		call	_ZN8UnitTest11TestResults13OnTestFailureERKNS_11TestDetailsEPKc@PLT
 5691      00
 5692              	.LEHE276:
 5693              	.LEHB277:
 218:testCore.cpp  **** 	CHECK_EQUAL(0UL, queue.numItems);
 5694              		.loc 3 218 2 discriminator 17
 5695 30ee E8000000 		call	__cxa_end_catch@PLT
 5695      00
 5696              	.LEHE277:
 5697 30f3 E930F6FF 		jmp	.L295
 5697      FF
 5698              	.L352:
 5699 30f8 F30F1EFA 		endbr64
 218:testCore.cpp  **** 	CHECK_EQUAL(0UL, queue.numItems);
 5700              		.loc 3 218 2
 5701 30fc 4889C3   		movq	%rax, %rbx
 5702 30ff E8000000 		call	__cxa_end_catch@PLT
 5702      00
 5703 3104 4889D8   		movq	%rbx, %rax
 5704 3107 4889C7   		movq	%rax, %rdi
 5705              	.LEHB278:
 5706 310a E8000000 		call	_Unwind_Resume@PLT
 5706      00
 5707              	.LEHE278:
 5708              	.L353:
 5709 310f F30F1EFA 		endbr64
 219:testCore.cpp  **** 
 5710              		.loc 3 219 2 is_stmt 1
 5711 3113 4889C7   		movq	%rax, %rdi
 5712 3116 E8000000 		call	__cxa_begin_catch@PLT
 5712      00
 5713              	.LEHB279:
 5714 311b E8000000 		call	_ZN8UnitTest11CurrentTest7ResultsEv@PLT
 5714      00
 219:testCore.cpp  **** 
 5715              		.loc 3 219 2 is_stmt 0 discriminator 3
 5716 3120 488B18   		movq	(%rax), %rbx
 5717 3123 E8000000 		call	_ZN8UnitTest11CurrentTest7DetailsEv@PLT
 5717      00
 219:testCore.cpp  **** 
 5718              		.loc 3 219 2 discriminator 11
 5719 3128 488B08   		movq	(%rax), %rcx
 5720 312b 488D4590 		leaq	-112(%rbp), %rax
 5721 312f BADB0000 		movl	$219, %edx
 5721      00
 5722 3134 4889CE   		movq	%rcx, %rsi
 5723 3137 4889C7   		movq	%rax, %rdi
 5724 313a E8000000 		call	_ZN8UnitTest11TestDetailsC1ERKS0_i@PLT
 5724      00
 219:testCore.cpp  **** 
 5725              		.loc 3 219 2 discriminator 15
 5726 313f 488D4590 		leaq	-112(%rbp), %rax
 5727 3143 488D1500 		leaq	.LC7(%rip), %rdx
 5727      000000
 5728 314a 4889C6   		movq	%rax, %rsi
 5729 314d 4889DF   		movq	%rbx, %rdi
 5730 3150 E8000000 		call	_ZN8UnitTest11TestResults13OnTestFailureERKNS_11TestDetailsEPKc@PLT
 5730      00
 5731              	.LEHE279:
 5732              	.LEHB280:
 219:testCore.cpp  **** 
 5733              		.loc 3 219 2 discriminator 17
 5734 3155 E8000000 		call	__cxa_end_catch@PLT
 5734      00
 5735              	.LEHE280:
 5736 315a E913F6FF 		jmp	.L298
 5736      FF
 5737              	.L354:
 5738 315f F30F1EFA 		endbr64
 219:testCore.cpp  **** 
 5739              		.loc 3 219 2
 5740 3163 4889C3   		movq	%rax, %rbx
 5741 3166 E8000000 		call	__cxa_end_catch@PLT
 5741      00
 5742 316b 4889D8   		movq	%rbx, %rax
 5743 316e 4889C7   		movq	%rax, %rdi
 5744              	.LEHB281:
 5745 3171 E8000000 		call	_Unwind_Resume@PLT
 5745      00
 5746              	.LEHE281:
 5747              	.L355:
 5748 3176 F30F1EFA 		endbr64
 222:testCore.cpp  **** 	CHECK_EQUAL(6UL, deref(queue.itemArray[1]));
 5749              		.loc 3 222 2 is_stmt 1
 5750 317a 4889C7   		movq	%rax, %rdi
 5751 317d E8000000 		call	__cxa_begin_catch@PLT
 5751      00
 5752              	.LEHB282:
 5753 3182 E8000000 		call	_ZN8UnitTest11CurrentTest7ResultsEv@PLT
 5753      00
 222:testCore.cpp  **** 	CHECK_EQUAL(6UL, deref(queue.itemArray[1]));
 5754              		.loc 3 222 2 is_stmt 0 discriminator 3
 5755 3187 488B18   		movq	(%rax), %rbx
 5756 318a E8000000 		call	_ZN8UnitTest11CurrentTest7DetailsEv@PLT
 5756      00
 222:testCore.cpp  **** 	CHECK_EQUAL(6UL, deref(queue.itemArray[1]));
 5757              		.loc 3 222 2 discriminator 11
 5758 318f 488B08   		movq	(%rax), %rcx
 5759 3192 488D4590 		leaq	-112(%rbp), %rax
 5760 3196 BADE0000 		movl	$222, %edx
 5760      00
 5761 319b 4889CE   		movq	%rcx, %rsi
 5762 319e 4889C7   		movq	%rax, %rdi
 5763 31a1 E8000000 		call	_ZN8UnitTest11TestDetailsC1ERKS0_i@PLT
 5763      00
 222:testCore.cpp  **** 	CHECK_EQUAL(6UL, deref(queue.itemArray[1]));
 5764              		.loc 3 222 2 discriminator 15
 5765 31a6 488D4590 		leaq	-112(%rbp), %rax
 5766 31aa 488D1500 		leaq	.LC18(%rip), %rdx
 5766      000000
 5767 31b1 4889C6   		movq	%rax, %rsi
 5768 31b4 4889DF   		movq	%rbx, %rdi
 5769 31b7 E8000000 		call	_ZN8UnitTest11TestResults13OnTestFailureERKNS_11TestDetailsEPKc@PLT
 5769      00
 5770              	.LEHE282:
 5771              	.LEHB283:
 222:testCore.cpp  **** 	CHECK_EQUAL(6UL, deref(queue.itemArray[1]));
 5772              		.loc 3 222 2 discriminator 17
 5773 31bc E8000000 		call	__cxa_end_catch@PLT
 5773      00
 5774              	.LEHE283:
 5775 31c1 E904F6FF 		jmp	.L301
 5775      FF
 5776              	.L356:
 5777 31c6 F30F1EFA 		endbr64
 222:testCore.cpp  **** 	CHECK_EQUAL(6UL, deref(queue.itemArray[1]));
 5778              		.loc 3 222 2
 5779 31ca 4889C3   		movq	%rax, %rbx
 5780 31cd E8000000 		call	__cxa_end_catch@PLT
 5780      00
 5781 31d2 4889D8   		movq	%rbx, %rax
 5782 31d5 4889C7   		movq	%rax, %rdi
 5783              	.LEHB284:
 5784 31d8 E8000000 		call	_Unwind_Resume@PLT
 5784      00
 5785              	.LEHE284:
 5786              	.L357:
 5787 31dd F30F1EFA 		endbr64
 223:testCore.cpp  **** 	CHECK_EQUAL(7UL, deref(queue.itemArray[2]));
 5788              		.loc 3 223 2 is_stmt 1
 5789 31e1 4889C7   		movq	%rax, %rdi
 5790 31e4 E8000000 		call	__cxa_begin_catch@PLT
 5790      00
 5791              	.LEHB285:
 5792 31e9 E8000000 		call	_ZN8UnitTest11CurrentTest7ResultsEv@PLT
 5792      00
 223:testCore.cpp  **** 	CHECK_EQUAL(7UL, deref(queue.itemArray[2]));
 5793              		.loc 3 223 2 is_stmt 0 discriminator 3
 5794 31ee 488B18   		movq	(%rax), %rbx
 5795 31f1 E8000000 		call	_ZN8UnitTest11CurrentTest7DetailsEv@PLT
 5795      00
 223:testCore.cpp  **** 	CHECK_EQUAL(7UL, deref(queue.itemArray[2]));
 5796              		.loc 3 223 2 discriminator 11
 5797 31f6 488B08   		movq	(%rax), %rcx
 5798 31f9 488D4590 		leaq	-112(%rbp), %rax
 5799 31fd BADF0000 		movl	$223, %edx
 5799      00
 5800 3202 4889CE   		movq	%rcx, %rsi
 5801 3205 4889C7   		movq	%rax, %rdi
 5802 3208 E8000000 		call	_ZN8UnitTest11TestDetailsC1ERKS0_i@PLT
 5802      00
 223:testCore.cpp  **** 	CHECK_EQUAL(7UL, deref(queue.itemArray[2]));
 5803              		.loc 3 223 2 discriminator 15
 5804 320d 488D4590 		leaq	-112(%rbp), %rax
 5805 3211 488D1500 		leaq	.LC19(%rip), %rdx
 5805      000000
 5806 3218 4889C6   		movq	%rax, %rsi
 5807 321b 4889DF   		movq	%rbx, %rdi
 5808 321e E8000000 		call	_ZN8UnitTest11TestResults13OnTestFailureERKNS_11TestDetailsEPKc@PLT
 5808      00
 5809              	.LEHE285:
 5810              	.LEHB286:
 223:testCore.cpp  **** 	CHECK_EQUAL(7UL, deref(queue.itemArray[2]));
 5811              		.loc 3 223 2 discriminator 17
 5812 3223 E8000000 		call	__cxa_end_catch@PLT
 5812      00
 5813              	.LEHE286:
 5814 3228 E9F9F5FF 		jmp	.L304
 5814      FF
 5815              	.L358:
 5816 322d F30F1EFA 		endbr64
 223:testCore.cpp  **** 	CHECK_EQUAL(7UL, deref(queue.itemArray[2]));
 5817              		.loc 3 223 2
 5818 3231 4889C3   		movq	%rax, %rbx
 5819 3234 E8000000 		call	__cxa_end_catch@PLT
 5819      00
 5820 3239 4889D8   		movq	%rbx, %rax
 5821 323c 4889C7   		movq	%rax, %rdi
 5822              	.LEHB287:
 5823 323f E8000000 		call	_Unwind_Resume@PLT
 5823      00
 5824              	.LEHE287:
 5825              	.L359:
 5826 3244 F30F1EFA 		endbr64
 224:testCore.cpp  **** 	CHECK_EQUAL(8UL, deref(queue.itemArray[3]));
 5827              		.loc 3 224 2 is_stmt 1
 5828 3248 4889C7   		movq	%rax, %rdi
 5829 324b E8000000 		call	__cxa_begin_catch@PLT
 5829      00
 5830              	.LEHB288:
 5831 3250 E8000000 		call	_ZN8UnitTest11CurrentTest7ResultsEv@PLT
 5831      00
 224:testCore.cpp  **** 	CHECK_EQUAL(8UL, deref(queue.itemArray[3]));
 5832              		.loc 3 224 2 is_stmt 0 discriminator 3
 5833 3255 488B18   		movq	(%rax), %rbx
 5834 3258 E8000000 		call	_ZN8UnitTest11CurrentTest7DetailsEv@PLT
 5834      00
 224:testCore.cpp  **** 	CHECK_EQUAL(8UL, deref(queue.itemArray[3]));
 5835              		.loc 3 224 2 discriminator 11
 5836 325d 488B08   		movq	(%rax), %rcx
 5837 3260 488D4590 		leaq	-112(%rbp), %rax
 5838 3264 BAE00000 		movl	$224, %edx
 5838      00
 5839 3269 4889CE   		movq	%rcx, %rsi
 5840 326c 4889C7   		movq	%rax, %rdi
 5841 326f E8000000 		call	_ZN8UnitTest11TestDetailsC1ERKS0_i@PLT
 5841      00
 224:testCore.cpp  **** 	CHECK_EQUAL(8UL, deref(queue.itemArray[3]));
 5842              		.loc 3 224 2 discriminator 15
 5843 3274 488D4590 		leaq	-112(%rbp), %rax
 5844 3278 488D1500 		leaq	.LC20(%rip), %rdx
 5844      000000
 5845 327f 4889C6   		movq	%rax, %rsi
 5846 3282 4889DF   		movq	%rbx, %rdi
 5847 3285 E8000000 		call	_ZN8UnitTest11TestResults13OnTestFailureERKNS_11TestDetailsEPKc@PLT
 5847      00
 5848              	.LEHE288:
 5849              	.LEHB289:
 224:testCore.cpp  **** 	CHECK_EQUAL(8UL, deref(queue.itemArray[3]));
 5850              		.loc 3 224 2 discriminator 17
 5851 328a E8000000 		call	__cxa_end_catch@PLT
 5851      00
 5852              	.LEHE289:
 5853 328f E9EEF5FF 		jmp	.L307
 5853      FF
 5854              	.L360:
 5855 3294 F30F1EFA 		endbr64
 224:testCore.cpp  **** 	CHECK_EQUAL(8UL, deref(queue.itemArray[3]));
 5856              		.loc 3 224 2
 5857 3298 4889C3   		movq	%rax, %rbx
 5858 329b E8000000 		call	__cxa_end_catch@PLT
 5858      00
 5859 32a0 4889D8   		movq	%rbx, %rax
 5860 32a3 4889C7   		movq	%rax, %rdi
 5861              	.LEHB290:
 5862 32a6 E8000000 		call	_Unwind_Resume@PLT
 5862      00
 5863              	.LEHE290:
 5864              	.L361:
 5865 32ab F30F1EFA 		endbr64
 225:testCore.cpp  **** 
 5866              		.loc 3 225 2 is_stmt 1
 5867 32af 4889C7   		movq	%rax, %rdi
 5868 32b2 E8000000 		call	__cxa_begin_catch@PLT
 5868      00
 5869              	.LEHB291:
 5870 32b7 E8000000 		call	_ZN8UnitTest11CurrentTest7ResultsEv@PLT
 5870      00
 225:testCore.cpp  **** 
 5871              		.loc 3 225 2 is_stmt 0 discriminator 3
 5872 32bc 488B18   		movq	(%rax), %rbx
 5873 32bf E8000000 		call	_ZN8UnitTest11CurrentTest7DetailsEv@PLT
 5873      00
 225:testCore.cpp  **** 
 5874              		.loc 3 225 2 discriminator 11
 5875 32c4 488B08   		movq	(%rax), %rcx
 5876 32c7 488D4590 		leaq	-112(%rbp), %rax
 5877 32cb BAE10000 		movl	$225, %edx
 5877      00
 5878 32d0 4889CE   		movq	%rcx, %rsi
 5879 32d3 4889C7   		movq	%rax, %rdi
 5880 32d6 E8000000 		call	_ZN8UnitTest11TestDetailsC1ERKS0_i@PLT
 5880      00
 225:testCore.cpp  **** 
 5881              		.loc 3 225 2 discriminator 15
 5882 32db 488D4590 		leaq	-112(%rbp), %rax
 5883 32df 488D1500 		leaq	.LC24(%rip), %rdx
 5883      000000
 5884 32e6 4889C6   		movq	%rax, %rsi
 5885 32e9 4889DF   		movq	%rbx, %rdi
 5886 32ec E8000000 		call	_ZN8UnitTest11TestResults13OnTestFailureERKNS_11TestDetailsEPKc@PLT
 5886      00
 5887              	.LEHE291:
 5888              	.LEHB292:
 225:testCore.cpp  **** 
 5889              		.loc 3 225 2 discriminator 17
 5890 32f1 E8000000 		call	__cxa_end_catch@PLT
 5890      00
 5891              	.LEHE292:
 5892 32f6 E9E3F5FF 		jmp	.L310
 5892      FF
 5893              	.L362:
 5894 32fb F30F1EFA 		endbr64
 225:testCore.cpp  **** 
 5895              		.loc 3 225 2
 5896 32ff 4889C3   		movq	%rax, %rbx
 5897 3302 E8000000 		call	__cxa_end_catch@PLT
 5897      00
 5898 3307 4889D8   		movq	%rbx, %rax
 5899 330a 4889C7   		movq	%rax, %rdi
 5900              	.LEHB293:
 5901 330d E8000000 		call	_Unwind_Resume@PLT
 5901      00
 5902              	.LEHE293:
 5903              	.L363:
 5904              		.loc 3 229 1 is_stmt 1
 5905 3312 E8000000 		call	__stack_chk_fail@PLT
 5905      00
 5906              	.L312:
 5907 3317 488B5DF8 		movq	-8(%rbp), %rbx
 5908 331b C9       		leave
 5909              		.cfi_def_cfa 7, 8
 5910 331c C3       		ret
 5911              		.cfi_endproc
 5912              	.LFE1177:
 5913              		.section	.gcc_except_table
 5914              		.align 4
 5915              	.LLSDA1177:
 5916 03f4 FF       		.byte	0xff
 5917 03f5 9B       		.byte	0x9b
 5918 03f6 E404     		.uleb128 .LLSDATT1177-.LLSDATTD1177
 5919              	.LLSDATTD1177:
 5920 03f8 01       		.byte	0x1
 5921 03f9 DB04     		.uleb128 .LLSDACSE1177-.LLSDACSB1177
 5922              	.LLSDACSB1177:
 5923 03fb 4D       		.uleb128 .LEHB183-.LFB1177
 5924 03fc 05       		.uleb128 .LEHE183-.LEHB183
 5925 03fd 00       		.uleb128 0
 5926 03fe 00       		.uleb128 0
 5927 03ff 58       		.uleb128 .LEHB184-.LFB1177
 5928 0400 42       		.uleb128 .LEHE184-.LEHB184
 5929 0401 E311     		.uleb128 .L313-.LFB1177
 5930 0403 01       		.uleb128 0x1
 5931 0404 A801     		.uleb128 .LEHB185-.LFB1177
 5932 0406 05       		.uleb128 .LEHE185-.LEHB185
 5933 0407 00       		.uleb128 0
 5934 0408 00       		.uleb128 0
 5935 0409 B301     		.uleb128 .LEHB186-.LFB1177
 5936 040b 42       		.uleb128 .LEHE186-.LEHB186
 5937 040c CA12     		.uleb128 .L315-.LFB1177
 5938 040e 01       		.uleb128 0x1
 5939 040f F501     		.uleb128 .LEHB187-.LFB1177
 5940 0411 46       		.uleb128 .LEHE187-.LEHB187
 5941 0412 B113     		.uleb128 .L317-.LFB1177
 5942 0414 01       		.uleb128 0x1
 5943 0415 CC02     		.uleb128 .LEHB188-.LFB1177
 5944 0417 18       		.uleb128 .LEHE188-.LEHB188
 5945 0418 00       		.uleb128 0
 5946 0419 00       		.uleb128 0
 5947 041a EA02     		.uleb128 .LEHB189-.LFB1177
 5948 041c 42       		.uleb128 .LEHE189-.LEHB189
 5949 041d 9814     		.uleb128 .L319-.LFB1177
 5950 041f 01       		.uleb128 0x1
 5951 0420 AC03     		.uleb128 .LEHB190-.LFB1177
 5952 0422 46       		.uleb128 .LEHE190-.LEHB190
 5953 0423 FF14     		.uleb128 .L321-.LFB1177
 5954 0425 01       		.uleb128 0x1
 5955 0426 8304     		.uleb128 .LEHB191-.LFB1177
 5956 0428 18       		.uleb128 .LEHE191-.LEHB191
 5957 0429 00       		.uleb128 0
 5958 042a 00       		.uleb128 0
 5959 042b A104     		.uleb128 .LEHB192-.LFB1177
 5960 042d 42       		.uleb128 .LEHE192-.LEHB192
 5961 042e E615     		.uleb128 .L323-.LFB1177
 5962 0430 01       		.uleb128 0x1
 5963 0431 E304     		.uleb128 .LEHB193-.LFB1177
 5964 0433 46       		.uleb128 .LEHE193-.LEHB193
 5965 0434 CD16     		.uleb128 .L325-.LFB1177
 5966 0436 01       		.uleb128 0x1
 5967 0437 BA05     		.uleb128 .LEHB194-.LFB1177
 5968 0439 18       		.uleb128 .LEHE194-.LEHB194
 5969 043a 00       		.uleb128 0
 5970 043b 00       		.uleb128 0
 5971 043c D805     		.uleb128 .LEHB195-.LFB1177
 5972 043e 42       		.uleb128 .LEHE195-.LEHB195
 5973 043f B417     		.uleb128 .L327-.LFB1177
 5974 0441 01       		.uleb128 0x1
 5975 0442 9A06     		.uleb128 .LEHB196-.LFB1177
 5976 0444 46       		.uleb128 .LEHE196-.LEHB196
 5977 0445 9B18     		.uleb128 .L329-.LFB1177
 5978 0447 01       		.uleb128 0x1
 5979 0448 F106     		.uleb128 .LEHB197-.LFB1177
 5980 044a 18       		.uleb128 .LEHE197-.LEHB197
 5981 044b 00       		.uleb128 0
 5982 044c 00       		.uleb128 0
 5983 044d 8F07     		.uleb128 .LEHB198-.LFB1177
 5984 044f 42       		.uleb128 .LEHE198-.LEHB198
 5985 0450 8219     		.uleb128 .L331-.LFB1177
 5986 0452 01       		.uleb128 0x1
 5987 0453 D107     		.uleb128 .LEHB199-.LFB1177
 5988 0455 46       		.uleb128 .LEHE199-.LEHB199
 5989 0456 E919     		.uleb128 .L333-.LFB1177
 5990 0458 01       		.uleb128 0x1
 5991 0459 9E08     		.uleb128 .LEHB200-.LFB1177
 5992 045b 18       		.uleb128 .LEHE200-.LEHB200
 5993 045c 00       		.uleb128 0
 5994 045d 00       		.uleb128 0
 5995 045e BC08     		.uleb128 .LEHB201-.LFB1177
 5996 0460 42       		.uleb128 .LEHE201-.LEHB201
 5997 0461 D01A     		.uleb128 .L335-.LFB1177
 5998 0463 01       		.uleb128 0x1
 5999 0464 FE08     		.uleb128 .LEHB202-.LFB1177
 6000 0466 46       		.uleb128 .LEHE202-.LEHB202
 6001 0467 B71B     		.uleb128 .L337-.LFB1177
 6002 0469 01       		.uleb128 0x1
 6003 046a CB09     		.uleb128 .LEHB203-.LFB1177
 6004 046c 18       		.uleb128 .LEHE203-.LEHB203
 6005 046d 00       		.uleb128 0
 6006 046e 00       		.uleb128 0
 6007 046f E909     		.uleb128 .LEHB204-.LFB1177
 6008 0471 42       		.uleb128 .LEHE204-.LEHB204
 6009 0472 9E1C     		.uleb128 .L339-.LFB1177
 6010 0474 01       		.uleb128 0x1
 6011 0475 AB0A     		.uleb128 .LEHB205-.LFB1177
 6012 0477 46       		.uleb128 .LEHE205-.LEHB205
 6013 0478 851D     		.uleb128 .L341-.LFB1177
 6014 047a 01       		.uleb128 0x1
 6015 047b F80A     		.uleb128 .LEHB206-.LFB1177
 6016 047d 18       		.uleb128 .LEHE206-.LEHB206
 6017 047e 00       		.uleb128 0
 6018 047f 00       		.uleb128 0
 6019 0480 960B     		.uleb128 .LEHB207-.LFB1177
 6020 0482 42       		.uleb128 .LEHE207-.LEHB207
 6021 0483 EC1D     		.uleb128 .L343-.LFB1177
 6022 0485 01       		.uleb128 0x1
 6023 0486 D80B     		.uleb128 .LEHB208-.LFB1177
 6024 0488 46       		.uleb128 .LEHE208-.LEHB208
 6025 0489 D31E     		.uleb128 .L345-.LFB1177
 6026 048b 01       		.uleb128 0x1
 6027 048c A50C     		.uleb128 .LEHB209-.LFB1177
 6028 048e 05       		.uleb128 .LEHE209-.LEHB209
 6029 048f 00       		.uleb128 0
 6030 0490 00       		.uleb128 0
 6031 0491 AA0C     		.uleb128 .LEHB210-.LFB1177
 6032 0493 4A       		.uleb128 .LEHE210-.LEHB210
 6033 0494 BA1F     		.uleb128 .L347-.LFB1177
 6034 0496 01       		.uleb128 0x1
 6035 0497 F40C     		.uleb128 .LEHB211-.LFB1177
 6036 0499 4A       		.uleb128 .LEHE211-.LEHB211
 6037 049a A120     		.uleb128 .L349-.LFB1177
 6038 049c 01       		.uleb128 0x1
 6039 049d BE0D     		.uleb128 .LEHB212-.LFB1177
 6040 049f 4A       		.uleb128 .LEHE212-.LEHB212
 6041 04a0 8821     		.uleb128 .L351-.LFB1177
 6042 04a2 01       		.uleb128 0x1
 6043 04a3 880E     		.uleb128 .LEHB213-.LFB1177
 6044 04a5 4A       		.uleb128 .LEHE213-.LEHB213
 6045 04a6 EF21     		.uleb128 .L353-.LFB1177
 6046 04a8 01       		.uleb128 0x1
 6047 04a9 D20E     		.uleb128 .LEHB214-.LFB1177
 6048 04ab 58       		.uleb128 .LEHE214-.LEHB214
 6049 04ac D622     		.uleb128 .L355-.LFB1177
 6050 04ae 01       		.uleb128 0x1
 6051 04af AA0F     		.uleb128 .LEHB215-.LFB1177
 6052 04b1 5C       		.uleb128 .LEHE215-.LEHB215
 6053 04b2 BD23     		.uleb128 .L357-.LFB1177
 6054 04b4 01       		.uleb128 0x1
 6055 04b5 8610     		.uleb128 .LEHB216-.LFB1177
 6056 04b7 5C       		.uleb128 .LEHE216-.LEHB216
 6057 04b8 A424     		.uleb128 .L359-.LFB1177
 6058 04ba 01       		.uleb128 0x1
 6059 04bb E210     		.uleb128 .LEHB217-.LFB1177
 6060 04bd 5C       		.uleb128 .LEHE217-.LEHB217
 6061 04be 8B25     		.uleb128 .L361-.LFB1177
 6062 04c0 01       		.uleb128 0x1
 6063 04c1 C511     		.uleb128 .LEHB218-.LFB1177
 6064 04c3 05       		.uleb128 .LEHE218-.LEHB218
 6065 04c4 00       		.uleb128 0
 6066 04c5 00       		.uleb128 0
 6067 04c6 EF11     		.uleb128 .LEHB219-.LFB1177
 6068 04c8 3A       		.uleb128 .LEHE219-.LEHB219
 6069 04c9 B312     		.uleb128 .L314-.LFB1177
 6070 04cb 00       		.uleb128 0
 6071 04cc A912     		.uleb128 .LEHB220-.LFB1177
 6072 04ce 05       		.uleb128 .LEHE220-.LEHB220
 6073 04cf 00       		.uleb128 0
 6074 04d0 00       		.uleb128 0
 6075 04d1 C512     		.uleb128 .LEHB221-.LFB1177
 6076 04d3 05       		.uleb128 .LEHE221-.LEHB221
 6077 04d4 00       		.uleb128 0
 6078 04d5 00       		.uleb128 0
 6079 04d6 D612     		.uleb128 .LEHB222-.LFB1177
 6080 04d8 3A       		.uleb128 .LEHE222-.LEHB222
 6081 04d9 9A13     		.uleb128 .L316-.LFB1177
 6082 04db 00       		.uleb128 0
 6083 04dc 9013     		.uleb128 .LEHB223-.LFB1177
 6084 04de 05       		.uleb128 .LEHE223-.LEHB223
 6085 04df 00       		.uleb128 0
 6086 04e0 00       		.uleb128 0
 6087 04e1 AC13     		.uleb128 .LEHB224-.LFB1177
 6088 04e3 05       		.uleb128 .LEHE224-.LEHB224
 6089 04e4 00       		.uleb128 0
 6090 04e5 00       		.uleb128 0
 6091 04e6 BD13     		.uleb128 .LEHB225-.LFB1177
 6092 04e8 3A       		.uleb128 .LEHE225-.LEHB225
 6093 04e9 8114     		.uleb128 .L318-.LFB1177
 6094 04eb 00       		.uleb128 0
 6095 04ec F713     		.uleb128 .LEHB226-.LFB1177
 6096 04ee 05       		.uleb128 .LEHE226-.LEHB226
 6097 04ef 00       		.uleb128 0
 6098 04f0 00       		.uleb128 0
 6099 04f1 9314     		.uleb128 .LEHB227-.LFB1177
 6100 04f3 05       		.uleb128 .LEHE227-.LEHB227
 6101 04f4 00       		.uleb128 0
 6102 04f5 00       		.uleb128 0
 6103 04f6 A414     		.uleb128 .LEHB228-.LFB1177
 6104 04f8 3A       		.uleb128 .LEHE228-.LEHB228
 6105 04f9 E814     		.uleb128 .L320-.LFB1177
 6106 04fb 00       		.uleb128 0
 6107 04fc DE14     		.uleb128 .LEHB229-.LFB1177
 6108 04fe 05       		.uleb128 .LEHE229-.LEHB229
 6109 04ff 00       		.uleb128 0
 6110 0500 00       		.uleb128 0
 6111 0501 FA14     		.uleb128 .LEHB230-.LFB1177
 6112 0503 05       		.uleb128 .LEHE230-.LEHB230
 6113 0504 00       		.uleb128 0
 6114 0505 00       		.uleb128 0
 6115 0506 8B15     		.uleb128 .LEHB231-.LFB1177
 6116 0508 3A       		.uleb128 .LEHE231-.LEHB231
 6117 0509 CF15     		.uleb128 .L322-.LFB1177
 6118 050b 00       		.uleb128 0
 6119 050c C515     		.uleb128 .LEHB232-.LFB1177
 6120 050e 05       		.uleb128 .LEHE232-.LEHB232
 6121 050f 00       		.uleb128 0
 6122 0510 00       		.uleb128 0
 6123 0511 E115     		.uleb128 .LEHB233-.LFB1177
 6124 0513 05       		.uleb128 .LEHE233-.LEHB233
 6125 0514 00       		.uleb128 0
 6126 0515 00       		.uleb128 0
 6127 0516 F215     		.uleb128 .LEHB234-.LFB1177
 6128 0518 3A       		.uleb128 .LEHE234-.LEHB234
 6129 0519 B616     		.uleb128 .L324-.LFB1177
 6130 051b 00       		.uleb128 0
 6131 051c AC16     		.uleb128 .LEHB235-.LFB1177
 6132 051e 05       		.uleb128 .LEHE235-.LEHB235
 6133 051f 00       		.uleb128 0
 6134 0520 00       		.uleb128 0
 6135 0521 C816     		.uleb128 .LEHB236-.LFB1177
 6136 0523 05       		.uleb128 .LEHE236-.LEHB236
 6137 0524 00       		.uleb128 0
 6138 0525 00       		.uleb128 0
 6139 0526 D916     		.uleb128 .LEHB237-.LFB1177
 6140 0528 3A       		.uleb128 .LEHE237-.LEHB237
 6141 0529 9D17     		.uleb128 .L326-.LFB1177
 6142 052b 00       		.uleb128 0
 6143 052c 9317     		.uleb128 .LEHB238-.LFB1177
 6144 052e 05       		.uleb128 .LEHE238-.LEHB238
 6145 052f 00       		.uleb128 0
 6146 0530 00       		.uleb128 0
 6147 0531 AF17     		.uleb128 .LEHB239-.LFB1177
 6148 0533 05       		.uleb128 .LEHE239-.LEHB239
 6149 0534 00       		.uleb128 0
 6150 0535 00       		.uleb128 0
 6151 0536 C017     		.uleb128 .LEHB240-.LFB1177
 6152 0538 3A       		.uleb128 .LEHE240-.LEHB240
 6153 0539 8418     		.uleb128 .L328-.LFB1177
 6154 053b 00       		.uleb128 0
 6155 053c FA17     		.uleb128 .LEHB241-.LFB1177
 6156 053e 05       		.uleb128 .LEHE241-.LEHB241
 6157 053f 00       		.uleb128 0
 6158 0540 00       		.uleb128 0
 6159 0541 9618     		.uleb128 .LEHB242-.LFB1177
 6160 0543 05       		.uleb128 .LEHE242-.LEHB242
 6161 0544 00       		.uleb128 0
 6162 0545 00       		.uleb128 0
 6163 0546 A718     		.uleb128 .LEHB243-.LFB1177
 6164 0548 3A       		.uleb128 .LEHE243-.LEHB243
 6165 0549 EB18     		.uleb128 .L330-.LFB1177
 6166 054b 00       		.uleb128 0
 6167 054c E118     		.uleb128 .LEHB244-.LFB1177
 6168 054e 05       		.uleb128 .LEHE244-.LEHB244
 6169 054f 00       		.uleb128 0
 6170 0550 00       		.uleb128 0
 6171 0551 FD18     		.uleb128 .LEHB245-.LFB1177
 6172 0553 05       		.uleb128 .LEHE245-.LEHB245
 6173 0554 00       		.uleb128 0
 6174 0555 00       		.uleb128 0
 6175 0556 8E19     		.uleb128 .LEHB246-.LFB1177
 6176 0558 3A       		.uleb128 .LEHE246-.LEHB246
 6177 0559 D219     		.uleb128 .L332-.LFB1177
 6178 055b 00       		.uleb128 0
 6179 055c C819     		.uleb128 .LEHB247-.LFB1177
 6180 055e 05       		.uleb128 .LEHE247-.LEHB247
 6181 055f 00       		.uleb128 0
 6182 0560 00       		.uleb128 0
 6183 0561 E419     		.uleb128 .LEHB248-.LFB1177
 6184 0563 05       		.uleb128 .LEHE248-.LEHB248
 6185 0564 00       		.uleb128 0
 6186 0565 00       		.uleb128 0
 6187 0566 F519     		.uleb128 .LEHB249-.LFB1177
 6188 0568 3A       		.uleb128 .LEHE249-.LEHB249
 6189 0569 B91A     		.uleb128 .L334-.LFB1177
 6190 056b 00       		.uleb128 0
 6191 056c AF1A     		.uleb128 .LEHB250-.LFB1177
 6192 056e 05       		.uleb128 .LEHE250-.LEHB250
 6193 056f 00       		.uleb128 0
 6194 0570 00       		.uleb128 0
 6195 0571 CB1A     		.uleb128 .LEHB251-.LFB1177
 6196 0573 05       		.uleb128 .LEHE251-.LEHB251
 6197 0574 00       		.uleb128 0
 6198 0575 00       		.uleb128 0
 6199 0576 DC1A     		.uleb128 .LEHB252-.LFB1177
 6200 0578 3A       		.uleb128 .LEHE252-.LEHB252
 6201 0579 A01B     		.uleb128 .L336-.LFB1177
 6202 057b 00       		.uleb128 0
 6203 057c 961B     		.uleb128 .LEHB253-.LFB1177
 6204 057e 05       		.uleb128 .LEHE253-.LEHB253
 6205 057f 00       		.uleb128 0
 6206 0580 00       		.uleb128 0
 6207 0581 B21B     		.uleb128 .LEHB254-.LFB1177
 6208 0583 05       		.uleb128 .LEHE254-.LEHB254
 6209 0584 00       		.uleb128 0
 6210 0585 00       		.uleb128 0
 6211 0586 C31B     		.uleb128 .LEHB255-.LFB1177
 6212 0588 3A       		.uleb128 .LEHE255-.LEHB255
 6213 0589 871C     		.uleb128 .L338-.LFB1177
 6214 058b 00       		.uleb128 0
 6215 058c FD1B     		.uleb128 .LEHB256-.LFB1177
 6216 058e 05       		.uleb128 .LEHE256-.LEHB256
 6217 058f 00       		.uleb128 0
 6218 0590 00       		.uleb128 0
 6219 0591 991C     		.uleb128 .LEHB257-.LFB1177
 6220 0593 05       		.uleb128 .LEHE257-.LEHB257
 6221 0594 00       		.uleb128 0
 6222 0595 00       		.uleb128 0
 6223 0596 AA1C     		.uleb128 .LEHB258-.LFB1177
 6224 0598 3A       		.uleb128 .LEHE258-.LEHB258
 6225 0599 EE1C     		.uleb128 .L340-.LFB1177
 6226 059b 00       		.uleb128 0
 6227 059c E41C     		.uleb128 .LEHB259-.LFB1177
 6228 059e 05       		.uleb128 .LEHE259-.LEHB259
 6229 059f 00       		.uleb128 0
 6230 05a0 00       		.uleb128 0
 6231 05a1 801D     		.uleb128 .LEHB260-.LFB1177
 6232 05a3 05       		.uleb128 .LEHE260-.LEHB260
 6233 05a4 00       		.uleb128 0
 6234 05a5 00       		.uleb128 0
 6235 05a6 911D     		.uleb128 .LEHB261-.LFB1177
 6236 05a8 3A       		.uleb128 .LEHE261-.LEHB261
 6237 05a9 D51D     		.uleb128 .L342-.LFB1177
 6238 05ab 00       		.uleb128 0
 6239 05ac CB1D     		.uleb128 .LEHB262-.LFB1177
 6240 05ae 05       		.uleb128 .LEHE262-.LEHB262
 6241 05af 00       		.uleb128 0
 6242 05b0 00       		.uleb128 0
 6243 05b1 E71D     		.uleb128 .LEHB263-.LFB1177
 6244 05b3 05       		.uleb128 .LEHE263-.LEHB263
 6245 05b4 00       		.uleb128 0
 6246 05b5 00       		.uleb128 0
 6247 05b6 F81D     		.uleb128 .LEHB264-.LFB1177
 6248 05b8 3A       		.uleb128 .LEHE264-.LEHB264
 6249 05b9 BC1E     		.uleb128 .L344-.LFB1177
 6250 05bb 00       		.uleb128 0
 6251 05bc B21E     		.uleb128 .LEHB265-.LFB1177
 6252 05be 05       		.uleb128 .LEHE265-.LEHB265
 6253 05bf 00       		.uleb128 0
 6254 05c0 00       		.uleb128 0
 6255 05c1 CE1E     		.uleb128 .LEHB266-.LFB1177
 6256 05c3 05       		.uleb128 .LEHE266-.LEHB266
 6257 05c4 00       		.uleb128 0
 6258 05c5 00       		.uleb128 0
 6259 05c6 DF1E     		.uleb128 .LEHB267-.LFB1177
 6260 05c8 3A       		.uleb128 .LEHE267-.LEHB267
 6261 05c9 A31F     		.uleb128 .L346-.LFB1177
 6262 05cb 00       		.uleb128 0
 6263 05cc 991F     		.uleb128 .LEHB268-.LFB1177
 6264 05ce 05       		.uleb128 .LEHE268-.LEHB268
 6265 05cf 00       		.uleb128 0
 6266 05d0 00       		.uleb128 0
 6267 05d1 B51F     		.uleb128 .LEHB269-.LFB1177
 6268 05d3 05       		.uleb128 .LEHE269-.LEHB269
 6269 05d4 00       		.uleb128 0
 6270 05d5 00       		.uleb128 0
 6271 05d6 C61F     		.uleb128 .LEHB270-.LFB1177
 6272 05d8 3A       		.uleb128 .LEHE270-.LEHB270
 6273 05d9 8A20     		.uleb128 .L348-.LFB1177
 6274 05db 00       		.uleb128 0
 6275 05dc 8020     		.uleb128 .LEHB271-.LFB1177
 6276 05de 05       		.uleb128 .LEHE271-.LEHB271
 6277 05df 00       		.uleb128 0
 6278 05e0 00       		.uleb128 0
 6279 05e1 9C20     		.uleb128 .LEHB272-.LFB1177
 6280 05e3 05       		.uleb128 .LEHE272-.LEHB272
 6281 05e4 00       		.uleb128 0
 6282 05e5 00       		.uleb128 0
 6283 05e6 AD20     		.uleb128 .LEHB273-.LFB1177
 6284 05e8 3A       		.uleb128 .LEHE273-.LEHB273
 6285 05e9 F120     		.uleb128 .L350-.LFB1177
 6286 05eb 00       		.uleb128 0
 6287 05ec E720     		.uleb128 .LEHB274-.LFB1177
 6288 05ee 05       		.uleb128 .LEHE274-.LEHB274
 6289 05ef 00       		.uleb128 0
 6290 05f0 00       		.uleb128 0
 6291 05f1 8321     		.uleb128 .LEHB275-.LFB1177
 6292 05f3 05       		.uleb128 .LEHE275-.LEHB275
 6293 05f4 00       		.uleb128 0
 6294 05f5 00       		.uleb128 0
 6295 05f6 9421     		.uleb128 .LEHB276-.LFB1177
 6296 05f8 3A       		.uleb128 .LEHE276-.LEHB276
 6297 05f9 D821     		.uleb128 .L352-.LFB1177
 6298 05fb 00       		.uleb128 0
 6299 05fc CE21     		.uleb128 .LEHB277-.LFB1177
 6300 05fe 05       		.uleb128 .LEHE277-.LEHB277
 6301 05ff 00       		.uleb128 0
 6302 0600 00       		.uleb128 0
 6303 0601 EA21     		.uleb128 .LEHB278-.LFB1177
 6304 0603 05       		.uleb128 .LEHE278-.LEHB278
 6305 0604 00       		.uleb128 0
 6306 0605 00       		.uleb128 0
 6307 0606 FB21     		.uleb128 .LEHB279-.LFB1177
 6308 0608 3A       		.uleb128 .LEHE279-.LEHB279
 6309 0609 BF22     		.uleb128 .L354-.LFB1177
 6310 060b 00       		.uleb128 0
 6311 060c B522     		.uleb128 .LEHB280-.LFB1177
 6312 060e 05       		.uleb128 .LEHE280-.LEHB280
 6313 060f 00       		.uleb128 0
 6314 0610 00       		.uleb128 0
 6315 0611 D122     		.uleb128 .LEHB281-.LFB1177
 6316 0613 05       		.uleb128 .LEHE281-.LEHB281
 6317 0614 00       		.uleb128 0
 6318 0615 00       		.uleb128 0
 6319 0616 E222     		.uleb128 .LEHB282-.LFB1177
 6320 0618 3A       		.uleb128 .LEHE282-.LEHB282
 6321 0619 A623     		.uleb128 .L356-.LFB1177
 6322 061b 00       		.uleb128 0
 6323 061c 9C23     		.uleb128 .LEHB283-.LFB1177
 6324 061e 05       		.uleb128 .LEHE283-.LEHB283
 6325 061f 00       		.uleb128 0
 6326 0620 00       		.uleb128 0
 6327 0621 B823     		.uleb128 .LEHB284-.LFB1177
 6328 0623 05       		.uleb128 .LEHE284-.LEHB284
 6329 0624 00       		.uleb128 0
 6330 0625 00       		.uleb128 0
 6331 0626 C923     		.uleb128 .LEHB285-.LFB1177
 6332 0628 3A       		.uleb128 .LEHE285-.LEHB285
 6333 0629 8D24     		.uleb128 .L358-.LFB1177
 6334 062b 00       		.uleb128 0
 6335 062c 8324     		.uleb128 .LEHB286-.LFB1177
 6336 062e 05       		.uleb128 .LEHE286-.LEHB286
 6337 062f 00       		.uleb128 0
 6338 0630 00       		.uleb128 0
 6339 0631 9F24     		.uleb128 .LEHB287-.LFB1177
 6340 0633 05       		.uleb128 .LEHE287-.LEHB287
 6341 0634 00       		.uleb128 0
 6342 0635 00       		.uleb128 0
 6343 0636 B024     		.uleb128 .LEHB288-.LFB1177
 6344 0638 3A       		.uleb128 .LEHE288-.LEHB288
 6345 0639 F424     		.uleb128 .L360-.LFB1177
 6346 063b 00       		.uleb128 0
 6347 063c EA24     		.uleb128 .LEHB289-.LFB1177
 6348 063e 05       		.uleb128 .LEHE289-.LEHB289
 6349 063f 00       		.uleb128 0
 6350 0640 00       		.uleb128 0
 6351 0641 8625     		.uleb128 .LEHB290-.LFB1177
 6352 0643 05       		.uleb128 .LEHE290-.LEHB290
 6353 0644 00       		.uleb128 0
 6354 0645 00       		.uleb128 0
 6355 0646 9725     		.uleb128 .LEHB291-.LFB1177
 6356 0648 3A       		.uleb128 .LEHE291-.LEHB291
 6357 0649 DB25     		.uleb128 .L362-.LFB1177
 6358 064b 00       		.uleb128 0
 6359 064c D125     		.uleb128 .LEHB292-.LFB1177
 6360 064e 05       		.uleb128 .LEHE292-.LEHB292
 6361 064f 00       		.uleb128 0
 6362 0650 00       		.uleb128 0
 6363 0651 ED25     		.uleb128 .LEHB293-.LFB1177
 6364 0653 05       		.uleb128 .LEHE293-.LEHB293
 6365 0654 00       		.uleb128 0
 6366 0655 00       		.uleb128 0
 6367              	.LLSDACSE1177:
 6368 0656 01       		.byte	0x1
 6369 0657 00       		.byte	0
 6370              		.align 4
 6371 0658 00000000 		.long	0
 6372              	
 6373              	.LLSDATT1177:
 6374              		.text
 6376              		.section	.rodata
 6377 05e7 00       		.align 8
 6378              	.LC30:
 6379 05e8 556E6861 		.string	"Unhandled exception in CHECK_EQUAL((offset) % 4 + 1UL, *item)"
 6379      6E646C65 
 6379      64206578 
 6379      63657074 
 6379      696F6E20 
 6380 0626 0000     		.align 8
 6381              	.LC31:
 6382 0628 556E6861 		.string	"Unhandled exception in CHECK_EQUAL((offset + 1UL) % 4 + 1UL, *item)"
 6382      6E646C65 
 6382      64206578 
 6382      63657074 
 6382      696F6E20 
 6383 066c 00000000 		.align 8
 6384              	.LC32:
 6385 0670 556E6861 		.string	"Unhandled exception in CHECK_EQUAL((offset + 2UL) % 4 + 1UL, *item)"
 6385      6E646C65 
 6385      64206578 
 6385      63657074 
 6385      696F6E20 
 6386 06b4 00000000 		.align 8
 6387              	.LC33:
 6388 06b8 556E6861 		.string	"Unhandled exception in CHECK_EQUAL((offset + 3UL) % 4 + 1UL, *item)"
 6388      6E646C65 
 6388      64206578 
 6388      63657074 
 6388      696F6E20 
 6389 06fc 00000000 		.align 8
 6390              	.LC34:
 6391 0700 556E6861 		.string	"Unhandled exception in CHECK_EQUAL(offset, queue.putIndex)"
 6391      6E646C65 
 6391      64206578 
 6391      63657074 
 6391      696F6E20 
 6392 073b 00000000 		.align 8
 6392      00
 6393              	.LC35:
 6394 0740 556E6861 		.string	"Unhandled exception in CHECK_EQUAL(offset, queue.takeIndex)"
 6394      6E646C65 
 6394      64206578 
 6394      63657074 
 6394      696F6E20 
 6395 077c 00000000 		.align 8
 6396              	.LC36:
 6397 0780 556E6861 		.string	"Unhandled exception in CHECK_EQUAL(8UL, queue.capacity)"
 6397      6E646C65 
 6397      64206578 
 6397      63657074 
 6397      696F6E20 
 6398              		.align 8
 6399              	.LC37:
 6400 07b8 556E6861 		.string	"Unhandled exception in CHECK_EQUAL(5UL, queue.putIndex)"
 6400      6E646C65 
 6400      64206578 
 6400      63657074 
 6400      696F6E20 
 6401              		.align 8
 6402              	.LC38:
 6403 07f0 556E6861 		.string	"Unhandled exception in CHECK_EQUAL(5UL, queue.numItems)"
 6403      6E646C65 
 6403      64206578 
 6403      63657074 
 6403      696F6E20 
 6404              		.align 8
 6405              	.LC39:
 6406 0828 556E6861 		.string	"Unhandled exception in CHECK_EQUAL(100UL, deref(queue.itemArray[0]))"
 6406      6E646C65 
 6406      64206578 
 6406      63657074 
 6406      696F6E20 
 6407 086d 000000   		.align 8
 6408              	.LC40:
 6409 0870 556E6861 		.string	"Unhandled exception in CHECK_EQUAL(101UL, deref(queue.itemArray[1]))"
 6409      6E646C65 
 6409      64206578 
 6409      63657074 
 6409      696F6E20 
 6410 08b5 000000   		.align 8
 6411              	.LC41:
 6412 08b8 556E6861 		.string	"Unhandled exception in CHECK_EQUAL(102UL, deref(queue.itemArray[2]))"
 6412      6E646C65 
 6412      64206578 
 6412      63657074 
 6412      696F6E20 
 6413 08fd 000000   		.align 8
 6414              	.LC42:
 6415 0900 556E6861 		.string	"Unhandled exception in CHECK_EQUAL(103UL, deref(queue.itemArray[3]))"
 6415      6E646C65 
 6415      64206578 
 6415      63657074 
 6415      696F6E20 
 6416 0945 000000   		.align 8
 6417              	.LC43:
 6418 0948 556E6861 		.string	"Unhandled exception in CHECK_EQUAL(104UL, deref(queue.itemArray[4]))"
 6418      6E646C65 
 6418      64206578 
 6418      63657074 
 6418      696F6E20 
 6419 098d 000000   		.align 8
 6420              	.LC44:
 6421 0990 556E6861 		.string	"Unhandled exception in CHECK_EQUAL(6UL, deref(queue.itemArray[5]))"
 6421      6E646C65 
 6421      64206578 
 6421      63657074 
 6421      696F6E20 
 6422 09d3 00000000 		.align 8
 6422      00
 6423              	.LC45:
 6424 09d8 556E6861 		.string	"Unhandled exception in CHECK_EQUAL(7UL, deref(queue.itemArray[6]))"
 6424      6E646C65 
 6424      64206578 
 6424      63657074 
 6424      696F6E20 
 6425 0a1b 00000000 		.align 8
 6425      00
 6426              	.LC46:
 6427 0a20 556E6861 		.string	"Unhandled exception in CHECK_EQUAL(8UL, deref(queue.itemArray[7]))"
 6427      6E646C65 
 6427      64206578 
 6427      63657074 
 6427      696F6E20 
 6428 0a63 00000000 		.align 8
 6428      00
 6429              	.LC47:
 6430 0a68 556E6861 		.string	"Unhandled exception in CHECK_EQUAL(100UL, *item)"
 6430      6E646C65 
 6430      64206578 
 6430      63657074 
 6430      696F6E20 
 6431 0a99 00000000 		.align 8
 6431      000000
 6432              	.LC48:
 6433 0aa0 556E6861 		.string	"Unhandled exception in CHECK_EQUAL(101UL, *item)"
 6433      6E646C65 
 6433      64206578 
 6433      63657074 
 6433      696F6E20 
 6434 0ad1 00000000 		.align 8
 6434      000000
 6435              	.LC49:
 6436 0ad8 556E6861 		.string	"Unhandled exception in CHECK_EQUAL(102UL, *item)"
 6436      6E646C65 
 6436      64206578 
 6436      63657074 
 6436      696F6E20 
 6437 0b09 00000000 		.align 8
 6437      000000
 6438              	.LC50:
 6439 0b10 556E6861 		.string	"Unhandled exception in CHECK_EQUAL(103UL, *item)"
 6439      6E646C65 
 6439      64206578 
 6439      63657074 
 6439      696F6E20 
 6440 0b41 00000000 		.align 8
 6440      000000
 6441              	.LC51:
 6442 0b48 556E6861 		.string	"Unhandled exception in CHECK_EQUAL(104UL, *item)"
 6442      6E646C65 
 6442      64206578 
 6442      63657074 
 6442      696F6E20 
 6443 0b79 00000000 		.align 8
 6443      000000
 6444              	.LC52:
 6445 0b80 556E6861 		.string	"Unhandled exception in CHECK_EQUAL(USB_EMPTY_QUEUE, status)"
 6445      6E646C65 
 6445      64206578 
 6445      63657074 
 6445      696F6E20 
 6446              		.text
 6447              		.globl	_Z11testReallocm
 6449              	_Z11testReallocm:
 6450              	.LFB1178:
 230:testCore.cpp  **** 
 231:testCore.cpp  **** void testRealloc(const size_t offset) {
 6451              		.loc 3 231 39
 6452              		.cfi_startproc
 6453              		.cfi_personality 0x9b,DW.ref.__gxx_personality_v0
 6454              		.cfi_lsda 0x1b,.LLSDA1178
 6455 331d F30F1EFA 		endbr64
 6456 3321 55       		pushq	%rbp
 6457              		.cfi_def_cfa_offset 16
 6458              		.cfi_offset 6, -16
 6459 3322 4889E5   		movq	%rsp, %rbp
 6460              		.cfi_def_cfa_register 6
 6461 3325 53       		pushq	%rbx
 6462 3326 4881EC98 		subq	$152, %rsp
 6462      000000
 6463              		.cfi_offset 3, -24
 6464 332d 4889BD68 		movq	%rdi, -152(%rbp)
 6464      FFFFFF
 6465              		.loc 3 231 39
 6466 3334 64488B04 		movq	%fs:40, %rax
 6466      25280000 
 6466      00
 6467 333d 488945E8 		movq	%rax, -24(%rbp)
 6468 3341 31C0     		xorl	%eax, %eax
 232:testCore.cpp  **** 	struct UnboundedQueue queue;
 233:testCore.cpp  **** 	uint32 *item;
 234:testCore.cpp  **** 	m_count = 1;
 6469              		.loc 3 234 10
 6470 3343 C7050000 		movl	$1, _ZL7m_count(%rip)
 6470      00000100 
 6470      0000
 235:testCore.cpp  **** 
 236:testCore.cpp  **** 	// Create queue
 237:testCore.cpp  **** 	USBStatus status = queueInit(&queue, 4, (CreateFunc)createInt, (DestroyFunc)destroyInt);
 6471              		.loc 3 237 30
 6472 334d 488D45B0 		leaq	-80(%rbp), %rax
 6473 3351 488D1500 		leaq	destroyInt(%rip), %rdx
 6473      000000
 6474 3358 4889D1   		movq	%rdx, %rcx
 6475 335b 488D1500 		leaq	createInt(%rip), %rdx
 6475      000000
 6476 3362 BE040000 		movl	$4, %esi
 6476      00
 6477 3367 4889C7   		movq	%rax, %rdi
 6478              	.LEHB294:
 6479 336a E8000000 		call	queueInit@PLT
 6479      00
 6480              	.LEHE294:
 6481              		.loc 3 237 88
 6482 336f 898578FF 		movl	%eax, -136(%rbp)
 6482      FFFF
 6483              	.LEHB295:
 238:testCore.cpp  **** 	CHECK_EQUAL(USB_SUCCESS, status);
 6484              		.loc 3 238 2
 6485 3375 E8000000 		call	_ZN8UnitTest11CurrentTest7DetailsEv@PLT
 6485      00
 6486 337a 488B08   		movq	(%rax), %rcx
 6487 337d 488D4590 		leaq	-112(%rbp), %rax
 6488 3381 BAEE0000 		movl	$238, %edx
 6488      00
 6489 3386 4889CE   		movq	%rcx, %rsi
 6490 3389 4889C7   		movq	%rax, %rdi
 6491 338c E8000000 		call	_ZN8UnitTest11TestDetailsC1ERKS0_i@PLT
 6491      00
 6492              		.loc 3 238 2 is_stmt 0 discriminator 4
 6493 3391 C7458800 		movl	$0, -120(%rbp)
 6493      000000
 6494 3398 E8000000 		call	_ZN8UnitTest11CurrentTest7ResultsEv@PLT
 6494      00
 6495 339d 488B00   		movq	(%rax), %rax
 6496 33a0 488D4D90 		leaq	-112(%rbp), %rcx
 6497 33a4 488D9578 		leaq	-136(%rbp), %rdx
 6497      FFFFFF
 6498 33ab 488D7588 		leaq	-120(%rbp), %rsi
 6499 33af 4889C7   		movq	%rax, %rdi
 6500 33b2 E8000000 		call	_ZN8UnitTest10CheckEqualI9USBStatusS1_EEvRNS_11TestResultsERKT_RKT0_RKNS_11TestDetailsE
 6500      00
 6501              	.LEHE295:
 6502              	.L366:
 239:testCore.cpp  **** 
 240:testCore.cpp  **** 	// Shift indices so realloc has to do more work
 241:testCore.cpp  **** 	queue.putIndex = offset;
 6503              		.loc 3 241 17 is_stmt 1
 6504 33b7 488B8568 		movq	-152(%rbp), %rax
 6504      FFFFFF
 6505 33be 488945C0 		movq	%rax, -64(%rbp)
 242:testCore.cpp  **** 	queue.takeIndex = offset;
 6506              		.loc 3 242 18
 6507 33c2 488B8568 		movq	-152(%rbp), %rax
 6507      FFFFFF
 6508 33c9 488945C8 		movq	%rax, -56(%rbp)
 243:testCore.cpp  **** 
 244:testCore.cpp  **** 	// Now fill the queue to capacity
 245:testCore.cpp  **** 	status = queuePut(&queue, (Item*)&item);
 6509              		.loc 3 245 19
 6510 33cd 488D5580 		leaq	-128(%rbp), %rdx
 6511 33d1 488D45B0 		leaq	-80(%rbp), %rax
 6512 33d5 4889D6   		movq	%rdx, %rsi
 6513 33d8 4889C7   		movq	%rax, %rdi
 6514              	.LEHB296:
 6515 33db E8000000 		call	queuePut@PLT
 6515      00
 6516              	.LEHE296:
 6517              		.loc 3 245 9
 6518 33e0 898578FF 		movl	%eax, -136(%rbp)
 6518      FFFF
 6519              	.LEHB297:
 246:testCore.cpp  **** 	CHECK_EQUAL(USB_SUCCESS, status);
 6520              		.loc 3 246 2
 6521 33e6 E8000000 		call	_ZN8UnitTest11CurrentTest7DetailsEv@PLT
 6521      00
 6522 33eb 488B08   		movq	(%rax), %rcx
 6523 33ee 488D4590 		leaq	-112(%rbp), %rax
 6524 33f2 BAF60000 		movl	$246, %edx
 6524      00
 6525 33f7 4889CE   		movq	%rcx, %rsi
 6526 33fa 4889C7   		movq	%rax, %rdi
 6527 33fd E8000000 		call	_ZN8UnitTest11TestDetailsC1ERKS0_i@PLT
 6527      00
 6528              		.loc 3 246 2 is_stmt 0 discriminator 4
 6529 3402 C7458800 		movl	$0, -120(%rbp)
 6529      000000
 6530 3409 E8000000 		call	_ZN8UnitTest11CurrentTest7ResultsEv@PLT
 6530      00
 6531 340e 488B00   		movq	(%rax), %rax
 6532 3411 488D4D90 		leaq	-112(%rbp), %rcx
 6533 3415 488D9578 		leaq	-136(%rbp), %rdx
 6533      FFFFFF
 6534 341c 488D7588 		leaq	-120(%rbp), %rsi
 6535 3420 4889C7   		movq	%rax, %rdi
 6536 3423 E8000000 		call	_ZN8UnitTest10CheckEqualI9USBStatusS1_EEvRNS_11TestResultsERKT_RKT0_RKNS_11TestDetailsE
 6536      00
 6537              	.LEHE297:
 6538              	.L369:
 6539              	.LEHB298:
 247:testCore.cpp  **** 	CHECK_EQUAL((offset) % 4 + 1UL, *item);
 6540              		.loc 3 247 2 is_stmt 1
 6541 3428 E8000000 		call	_ZN8UnitTest11CurrentTest7DetailsEv@PLT
 6541      00
 6542 342d 488B08   		movq	(%rax), %rcx
 6543 3430 488D4590 		leaq	-112(%rbp), %rax
 6544 3434 BAF70000 		movl	$247, %edx
 6544      00
 6545 3439 4889CE   		movq	%rcx, %rsi
 6546 343c 4889C7   		movq	%rax, %rdi
 6547 343f E8000000 		call	_ZN8UnitTest11TestDetailsC1ERKS0_i@PLT
 6547      00
 6548              		.loc 3 247 2 is_stmt 0 discriminator 4
 6549 3444 488B5D80 		movq	-128(%rbp), %rbx
 6550 3448 488B8568 		movq	-152(%rbp), %rax
 6550      FFFFFF
 6551 344f 83E003   		andl	$3, %eax
 6552 3452 4883C001 		addq	$1, %rax
 6553 3456 48894588 		movq	%rax, -120(%rbp)
 6554 345a E8000000 		call	_ZN8UnitTest11CurrentTest7ResultsEv@PLT
 6554      00
 6555 345f 488B00   		movq	(%rax), %rax
 6556 3462 488D5590 		leaq	-112(%rbp), %rdx
 6557 3466 488D7588 		leaq	-120(%rbp), %rsi
 6558 346a 4889D1   		movq	%rdx, %rcx
 6559 346d 4889DA   		movq	%rbx, %rdx
 6560 3470 4889C7   		movq	%rax, %rdi
 6561 3473 E8000000 		call	_ZN8UnitTest10CheckEqualImjEEvRNS_11TestResultsERKT_RKT0_RKNS_11TestDetailsE
 6561      00
 6562              	.LEHE298:
 6563              	.L372:
 248:testCore.cpp  **** 	*item = 100;
 6564              		.loc 3 248 2 is_stmt 1
 6565 3478 488B4580 		movq	-128(%rbp), %rax
 6566              		.loc 3 248 8
 6567 347c C7006400 		movl	$100, (%rax)
 6567      0000
 249:testCore.cpp  **** 	queueCommitPut(&queue);
 6568              		.loc 3 249 16
 6569 3482 488D45B0 		leaq	-80(%rbp), %rax
 6570 3486 4889C7   		movq	%rax, %rdi
 6571              	.LEHB299:
 6572 3489 E8000000 		call	queueCommitPut@PLT
 6572      00
 250:testCore.cpp  **** 	status = queuePut(&queue, (Item*)&item);
 6573              		.loc 3 250 19
 6574 348e 488D5580 		leaq	-128(%rbp), %rdx
 6575 3492 488D45B0 		leaq	-80(%rbp), %rax
 6576 3496 4889D6   		movq	%rdx, %rsi
 6577 3499 4889C7   		movq	%rax, %rdi
 6578 349c E8000000 		call	queuePut@PLT
 6578      00
 6579              	.LEHE299:
 6580              		.loc 3 250 9
 6581 34a1 898578FF 		movl	%eax, -136(%rbp)
 6581      FFFF
 6582              	.LEHB300:
 251:testCore.cpp  **** 	CHECK_EQUAL(USB_SUCCESS, status);
 6583              		.loc 3 251 2
 6584 34a7 E8000000 		call	_ZN8UnitTest11CurrentTest7DetailsEv@PLT
 6584      00
 6585 34ac 488B08   		movq	(%rax), %rcx
 6586 34af 488D4590 		leaq	-112(%rbp), %rax
 6587 34b3 BAFB0000 		movl	$251, %edx
 6587      00
 6588 34b8 4889CE   		movq	%rcx, %rsi
 6589 34bb 4889C7   		movq	%rax, %rdi
 6590 34be E8000000 		call	_ZN8UnitTest11TestDetailsC1ERKS0_i@PLT
 6590      00
 6591              		.loc 3 251 2 is_stmt 0 discriminator 4
 6592 34c3 C7458800 		movl	$0, -120(%rbp)
 6592      000000
 6593 34ca E8000000 		call	_ZN8UnitTest11CurrentTest7ResultsEv@PLT
 6593      00
 6594 34cf 488B00   		movq	(%rax), %rax
 6595 34d2 488D4D90 		leaq	-112(%rbp), %rcx
 6596 34d6 488D9578 		leaq	-136(%rbp), %rdx
 6596      FFFFFF
 6597 34dd 488D7588 		leaq	-120(%rbp), %rsi
 6598 34e1 4889C7   		movq	%rax, %rdi
 6599 34e4 E8000000 		call	_ZN8UnitTest10CheckEqualI9USBStatusS1_EEvRNS_11TestResultsERKT_RKT0_RKNS_11TestDetailsE
 6599      00
 6600              	.LEHE300:
 6601              	.L375:
 6602              	.LEHB301:
 252:testCore.cpp  **** 	CHECK_EQUAL((offset + 1UL) % 4 + 1UL, *item);
 6603              		.loc 3 252 2 is_stmt 1
 6604 34e9 E8000000 		call	_ZN8UnitTest11CurrentTest7DetailsEv@PLT
 6604      00
 6605 34ee 488B08   		movq	(%rax), %rcx
 6606 34f1 488D4590 		leaq	-112(%rbp), %rax
 6607 34f5 BAFC0000 		movl	$252, %edx
 6607      00
 6608 34fa 4889CE   		movq	%rcx, %rsi
 6609 34fd 4889C7   		movq	%rax, %rdi
 6610 3500 E8000000 		call	_ZN8UnitTest11TestDetailsC1ERKS0_i@PLT
 6610      00
 6611              		.loc 3 252 2 is_stmt 0 discriminator 4
 6612 3505 488B5D80 		movq	-128(%rbp), %rbx
 6613 3509 488B8568 		movq	-152(%rbp), %rax
 6613      FFFFFF
 6614 3510 4883C001 		addq	$1, %rax
 6615 3514 83E003   		andl	$3, %eax
 6616 3517 4883C001 		addq	$1, %rax
 6617 351b 48894588 		movq	%rax, -120(%rbp)
 6618 351f E8000000 		call	_ZN8UnitTest11CurrentTest7ResultsEv@PLT
 6618      00
 6619 3524 488B00   		movq	(%rax), %rax
 6620 3527 488D5590 		leaq	-112(%rbp), %rdx
 6621 352b 488D7588 		leaq	-120(%rbp), %rsi
 6622 352f 4889D1   		movq	%rdx, %rcx
 6623 3532 4889DA   		movq	%rbx, %rdx
 6624 3535 4889C7   		movq	%rax, %rdi
 6625 3538 E8000000 		call	_ZN8UnitTest10CheckEqualImjEEvRNS_11TestResultsERKT_RKT0_RKNS_11TestDetailsE
 6625      00
 6626              	.LEHE301:
 6627              	.L378:
 253:testCore.cpp  **** 	*item = 101;
 6628              		.loc 3 253 2 is_stmt 1
 6629 353d 488B4580 		movq	-128(%rbp), %rax
 6630              		.loc 3 253 8
 6631 3541 C7006500 		movl	$101, (%rax)
 6631      0000
 254:testCore.cpp  **** 	queueCommitPut(&queue);
 6632              		.loc 3 254 16
 6633 3547 488D45B0 		leaq	-80(%rbp), %rax
 6634 354b 4889C7   		movq	%rax, %rdi
 6635              	.LEHB302:
 6636 354e E8000000 		call	queueCommitPut@PLT
 6636      00
 255:testCore.cpp  **** 	status = queuePut(&queue, (Item*)&item);
 6637              		.loc 3 255 19
 6638 3553 488D5580 		leaq	-128(%rbp), %rdx
 6639 3557 488D45B0 		leaq	-80(%rbp), %rax
 6640 355b 4889D6   		movq	%rdx, %rsi
 6641 355e 4889C7   		movq	%rax, %rdi
 6642 3561 E8000000 		call	queuePut@PLT
 6642      00
 6643              	.LEHE302:
 6644              		.loc 3 255 9
 6645 3566 898578FF 		movl	%eax, -136(%rbp)
 6645      FFFF
 6646              	.LEHB303:
 256:testCore.cpp  **** 	CHECK_EQUAL(USB_SUCCESS, status);
 6647              		.loc 3 256 2
 6648 356c E8000000 		call	_ZN8UnitTest11CurrentTest7DetailsEv@PLT
 6648      00
 6649 3571 488B08   		movq	(%rax), %rcx
 6650 3574 488D4590 		leaq	-112(%rbp), %rax
 6651 3578 BA000100 		movl	$256, %edx
 6651      00
 6652 357d 4889CE   		movq	%rcx, %rsi
 6653 3580 4889C7   		movq	%rax, %rdi
 6654 3583 E8000000 		call	_ZN8UnitTest11TestDetailsC1ERKS0_i@PLT
 6654      00
 6655              		.loc 3 256 2 is_stmt 0 discriminator 4
 6656 3588 C7458800 		movl	$0, -120(%rbp)
 6656      000000
 6657 358f E8000000 		call	_ZN8UnitTest11CurrentTest7ResultsEv@PLT
 6657      00
 6658 3594 488B00   		movq	(%rax), %rax
 6659 3597 488D4D90 		leaq	-112(%rbp), %rcx
 6660 359b 488D9578 		leaq	-136(%rbp), %rdx
 6660      FFFFFF
 6661 35a2 488D7588 		leaq	-120(%rbp), %rsi
 6662 35a6 4889C7   		movq	%rax, %rdi
 6663 35a9 E8000000 		call	_ZN8UnitTest10CheckEqualI9USBStatusS1_EEvRNS_11TestResultsERKT_RKT0_RKNS_11TestDetailsE
 6663      00
 6664              	.LEHE303:
 6665              	.L381:
 6666              	.LEHB304:
 257:testCore.cpp  **** 	CHECK_EQUAL((offset + 2UL) % 4 + 1UL, *item);
 6667              		.loc 3 257 2 is_stmt 1
 6668 35ae E8000000 		call	_ZN8UnitTest11CurrentTest7DetailsEv@PLT
 6668      00
 6669 35b3 488B08   		movq	(%rax), %rcx
 6670 35b6 488D4590 		leaq	-112(%rbp), %rax
 6671 35ba BA010100 		movl	$257, %edx
 6671      00
 6672 35bf 4889CE   		movq	%rcx, %rsi
 6673 35c2 4889C7   		movq	%rax, %rdi
 6674 35c5 E8000000 		call	_ZN8UnitTest11TestDetailsC1ERKS0_i@PLT
 6674      00
 6675              		.loc 3 257 2 is_stmt 0 discriminator 4
 6676 35ca 488B5D80 		movq	-128(%rbp), %rbx
 6677 35ce 488B8568 		movq	-152(%rbp), %rax
 6677      FFFFFF
 6678 35d5 4883C002 		addq	$2, %rax
 6679 35d9 83E003   		andl	$3, %eax
 6680 35dc 4883C001 		addq	$1, %rax
 6681 35e0 48894588 		movq	%rax, -120(%rbp)
 6682 35e4 E8000000 		call	_ZN8UnitTest11CurrentTest7ResultsEv@PLT
 6682      00
 6683 35e9 488B00   		movq	(%rax), %rax
 6684 35ec 488D5590 		leaq	-112(%rbp), %rdx
 6685 35f0 488D7588 		leaq	-120(%rbp), %rsi
 6686 35f4 4889D1   		movq	%rdx, %rcx
 6687 35f7 4889DA   		movq	%rbx, %rdx
 6688 35fa 4889C7   		movq	%rax, %rdi
 6689 35fd E8000000 		call	_ZN8UnitTest10CheckEqualImjEEvRNS_11TestResultsERKT_RKT0_RKNS_11TestDetailsE
 6689      00
 6690              	.LEHE304:
 6691              	.L384:
 258:testCore.cpp  **** 	*item = 102;
 6692              		.loc 3 258 2 is_stmt 1
 6693 3602 488B4580 		movq	-128(%rbp), %rax
 6694              		.loc 3 258 8
 6695 3606 C7006600 		movl	$102, (%rax)
 6695      0000
 259:testCore.cpp  **** 	queueCommitPut(&queue);
 6696              		.loc 3 259 16
 6697 360c 488D45B0 		leaq	-80(%rbp), %rax
 6698 3610 4889C7   		movq	%rax, %rdi
 6699              	.LEHB305:
 6700 3613 E8000000 		call	queueCommitPut@PLT
 6700      00
 260:testCore.cpp  **** 	status = queuePut(&queue, (Item*)&item);
 6701              		.loc 3 260 19
 6702 3618 488D5580 		leaq	-128(%rbp), %rdx
 6703 361c 488D45B0 		leaq	-80(%rbp), %rax
 6704 3620 4889D6   		movq	%rdx, %rsi
 6705 3623 4889C7   		movq	%rax, %rdi
 6706 3626 E8000000 		call	queuePut@PLT
 6706      00
 6707              	.LEHE305:
 6708              		.loc 3 260 9
 6709 362b 898578FF 		movl	%eax, -136(%rbp)
 6709      FFFF
 6710              	.LEHB306:
 261:testCore.cpp  **** 	CHECK_EQUAL(USB_SUCCESS, status);
 6711              		.loc 3 261 2
 6712 3631 E8000000 		call	_ZN8UnitTest11CurrentTest7DetailsEv@PLT
 6712      00
 6713 3636 488B08   		movq	(%rax), %rcx
 6714 3639 488D4590 		leaq	-112(%rbp), %rax
 6715 363d BA050100 		movl	$261, %edx
 6715      00
 6716 3642 4889CE   		movq	%rcx, %rsi
 6717 3645 4889C7   		movq	%rax, %rdi
 6718 3648 E8000000 		call	_ZN8UnitTest11TestDetailsC1ERKS0_i@PLT
 6718      00
 6719              		.loc 3 261 2 is_stmt 0 discriminator 4
 6720 364d C7458800 		movl	$0, -120(%rbp)
 6720      000000
 6721 3654 E8000000 		call	_ZN8UnitTest11CurrentTest7ResultsEv@PLT
 6721      00
 6722 3659 488B00   		movq	(%rax), %rax
 6723 365c 488D4D90 		leaq	-112(%rbp), %rcx
 6724 3660 488D9578 		leaq	-136(%rbp), %rdx
 6724      FFFFFF
 6725 3667 488D7588 		leaq	-120(%rbp), %rsi
 6726 366b 4889C7   		movq	%rax, %rdi
 6727 366e E8000000 		call	_ZN8UnitTest10CheckEqualI9USBStatusS1_EEvRNS_11TestResultsERKT_RKT0_RKNS_11TestDetailsE
 6727      00
 6728              	.LEHE306:
 6729              	.L387:
 6730              	.LEHB307:
 262:testCore.cpp  **** 	CHECK_EQUAL((offset + 3UL) % 4 + 1UL, *item);
 6731              		.loc 3 262 2 is_stmt 1
 6732 3673 E8000000 		call	_ZN8UnitTest11CurrentTest7DetailsEv@PLT
 6732      00
 6733 3678 488B08   		movq	(%rax), %rcx
 6734 367b 488D4590 		leaq	-112(%rbp), %rax
 6735 367f BA060100 		movl	$262, %edx
 6735      00
 6736 3684 4889CE   		movq	%rcx, %rsi
 6737 3687 4889C7   		movq	%rax, %rdi
 6738 368a E8000000 		call	_ZN8UnitTest11TestDetailsC1ERKS0_i@PLT
 6738      00
 6739              		.loc 3 262 2 is_stmt 0 discriminator 4
 6740 368f 488B5D80 		movq	-128(%rbp), %rbx
 6741 3693 488B8568 		movq	-152(%rbp), %rax
 6741      FFFFFF
 6742 369a 4883C003 		addq	$3, %rax
 6743 369e 83E003   		andl	$3, %eax
 6744 36a1 4883C001 		addq	$1, %rax
 6745 36a5 48894588 		movq	%rax, -120(%rbp)
 6746 36a9 E8000000 		call	_ZN8UnitTest11CurrentTest7ResultsEv@PLT
 6746      00
 6747 36ae 488B00   		movq	(%rax), %rax
 6748 36b1 488D5590 		leaq	-112(%rbp), %rdx
 6749 36b5 488D7588 		leaq	-120(%rbp), %rsi
 6750 36b9 4889D1   		movq	%rdx, %rcx
 6751 36bc 4889DA   		movq	%rbx, %rdx
 6752 36bf 4889C7   		movq	%rax, %rdi
 6753 36c2 E8000000 		call	_ZN8UnitTest10CheckEqualImjEEvRNS_11TestResultsERKT_RKT0_RKNS_11TestDetailsE
 6753      00
 6754              	.LEHE307:
 6755              	.L390:
 263:testCore.cpp  **** 	*item = 103;
 6756              		.loc 3 263 2 is_stmt 1
 6757 36c7 488B4580 		movq	-128(%rbp), %rax
 6758              		.loc 3 263 8
 6759 36cb C7006700 		movl	$103, (%rax)
 6759      0000
 264:testCore.cpp  **** 	queueCommitPut(&queue);
 6760              		.loc 3 264 16
 6761 36d1 488D45B0 		leaq	-80(%rbp), %rax
 6762 36d5 4889C7   		movq	%rax, %rdi
 6763              	.LEHB308:
 6764 36d8 E8000000 		call	queueCommitPut@PLT
 6764      00
 6765              	.LEHE308:
 6766              	.LEHB309:
 265:testCore.cpp  **** 
 266:testCore.cpp  **** 	// Verify
 267:testCore.cpp  **** 	CHECK_EQUAL(4UL, queue.capacity);
 6767              		.loc 3 267 2
 6768 36dd E8000000 		call	_ZN8UnitTest11CurrentTest7DetailsEv@PLT
 6768      00
 6769 36e2 488B08   		movq	(%rax), %rcx
 6770 36e5 488D4590 		leaq	-112(%rbp), %rax
 6771 36e9 BA0B0100 		movl	$267, %edx
 6771      00
 6772 36ee 4889CE   		movq	%rcx, %rsi
 6773 36f1 4889C7   		movq	%rax, %rdi
 6774 36f4 E8000000 		call	_ZN8UnitTest11TestDetailsC1ERKS0_i@PLT
 6774      00
 6775              		.loc 3 267 2 is_stmt 0 discriminator 4
 6776 36f9 48C74588 		movq	$4, -120(%rbp)
 6776      04000000 
 6777 3701 E8000000 		call	_ZN8UnitTest11CurrentTest7ResultsEv@PLT
 6777      00
 6778 3706 488B00   		movq	(%rax), %rax
 6779 3709 488D5590 		leaq	-112(%rbp), %rdx
 6780 370d 488D4DB0 		leaq	-80(%rbp), %rcx
 6781 3711 488D7908 		leaq	8(%rcx), %rdi
 6782 3715 488D7588 		leaq	-120(%rbp), %rsi
 6783 3719 4889D1   		movq	%rdx, %rcx
 6784 371c 4889FA   		movq	%rdi, %rdx
 6785 371f 4889C7   		movq	%rax, %rdi
 6786 3722 E8000000 		call	_ZN8UnitTest10CheckEqualImmEEvRNS_11TestResultsERKT_RKT0_RKNS_11TestDetailsE
 6786      00
 6787              	.LEHE309:
 6788              	.L393:
 6789              	.LEHB310:
 268:testCore.cpp  **** 	CHECK_EQUAL(offset, queue.putIndex);
 6790              		.loc 3 268 2 is_stmt 1
 6791 3727 E8000000 		call	_ZN8UnitTest11CurrentTest7DetailsEv@PLT
 6791      00
 6792 372c 488B08   		movq	(%rax), %rcx
 6793 372f 488D4590 		leaq	-112(%rbp), %rax
 6794 3733 BA0C0100 		movl	$268, %edx
 6794      00
 6795 3738 4889CE   		movq	%rcx, %rsi
 6796 373b 4889C7   		movq	%rax, %rdi
 6797 373e E8000000 		call	_ZN8UnitTest11TestDetailsC1ERKS0_i@PLT
 6797      00
 6798              		.loc 3 268 2 is_stmt 0 discriminator 4
 6799 3743 E8000000 		call	_ZN8UnitTest11CurrentTest7ResultsEv@PLT
 6799      00
 6800 3748 488B00   		movq	(%rax), %rax
 6801 374b 488D5590 		leaq	-112(%rbp), %rdx
 6802 374f 488D4DB0 		leaq	-80(%rbp), %rcx
 6803 3753 488D7910 		leaq	16(%rcx), %rdi
 6804 3757 488DB568 		leaq	-152(%rbp), %rsi
 6804      FFFFFF
 6805 375e 4889D1   		movq	%rdx, %rcx
 6806 3761 4889FA   		movq	%rdi, %rdx
 6807 3764 4889C7   		movq	%rax, %rdi
 6808 3767 E8000000 		call	_ZN8UnitTest10CheckEqualImmEEvRNS_11TestResultsERKT_RKT0_RKNS_11TestDetailsE
 6808      00
 6809              	.LEHE310:
 6810              	.L396:
 6811              	.LEHB311:
 269:testCore.cpp  **** 	CHECK_EQUAL(offset, queue.takeIndex);
 6812              		.loc 3 269 2 is_stmt 1
 6813 376c E8000000 		call	_ZN8UnitTest11CurrentTest7DetailsEv@PLT
 6813      00
 6814 3771 488B08   		movq	(%rax), %rcx
 6815 3774 488D4590 		leaq	-112(%rbp), %rax
 6816 3778 BA0D0100 		movl	$269, %edx
 6816      00
 6817 377d 4889CE   		movq	%rcx, %rsi
 6818 3780 4889C7   		movq	%rax, %rdi
 6819 3783 E8000000 		call	_ZN8UnitTest11TestDetailsC1ERKS0_i@PLT
 6819      00
 6820              		.loc 3 269 2 is_stmt 0 discriminator 4
 6821 3788 E8000000 		call	_ZN8UnitTest11CurrentTest7ResultsEv@PLT
 6821      00
 6822 378d 488B00   		movq	(%rax), %rax
 6823 3790 488D5590 		leaq	-112(%rbp), %rdx
 6824 3794 488D4DB0 		leaq	-80(%rbp), %rcx
 6825 3798 488D7918 		leaq	24(%rcx), %rdi
 6826 379c 488DB568 		leaq	-152(%rbp), %rsi
 6826      FFFFFF
 6827 37a3 4889D1   		movq	%rdx, %rcx
 6828 37a6 4889FA   		movq	%rdi, %rdx
 6829 37a9 4889C7   		movq	%rax, %rdi
 6830 37ac E8000000 		call	_ZN8UnitTest10CheckEqualImmEEvRNS_11TestResultsERKT_RKT0_RKNS_11TestDetailsE
 6830      00
 6831              	.LEHE311:
 6832              	.L399:
 6833              	.LEHB312:
 270:testCore.cpp  **** 	CHECK_EQUAL(4UL, queue.numItems);
 6834              		.loc 3 270 2 is_stmt 1
 6835 37b1 E8000000 		call	_ZN8UnitTest11CurrentTest7DetailsEv@PLT
 6835      00
 6836 37b6 488B08   		movq	(%rax), %rcx
 6837 37b9 488D4590 		leaq	-112(%rbp), %rax
 6838 37bd BA0E0100 		movl	$270, %edx
 6838      00
 6839 37c2 4889CE   		movq	%rcx, %rsi
 6840 37c5 4889C7   		movq	%rax, %rdi
 6841 37c8 E8000000 		call	_ZN8UnitTest11TestDetailsC1ERKS0_i@PLT
 6841      00
 6842              		.loc 3 270 2 is_stmt 0 discriminator 4
 6843 37cd 48C74588 		movq	$4, -120(%rbp)
 6843      04000000 
 6844 37d5 E8000000 		call	_ZN8UnitTest11CurrentTest7ResultsEv@PLT
 6844      00
 6845 37da 488B00   		movq	(%rax), %rax
 6846 37dd 488D5590 		leaq	-112(%rbp), %rdx
 6847 37e1 488D4DB0 		leaq	-80(%rbp), %rcx
 6848 37e5 488D7920 		leaq	32(%rcx), %rdi
 6849 37e9 488D7588 		leaq	-120(%rbp), %rsi
 6850 37ed 4889D1   		movq	%rdx, %rcx
 6851 37f0 4889FA   		movq	%rdi, %rdx
 6852 37f3 4889C7   		movq	%rax, %rdi
 6853 37f6 E8000000 		call	_ZN8UnitTest10CheckEqualImmEEvRNS_11TestResultsERKT_RKT0_RKNS_11TestDetailsE
 6853      00
 6854              	.LEHE312:
 6855              	.L402:
 271:testCore.cpp  **** 
 272:testCore.cpp  **** 	// Force reallocation
 273:testCore.cpp  **** 	status = queuePut(&queue, (Item*)&item);
 6856              		.loc 3 273 19 is_stmt 1
 6857 37fb 488D5580 		leaq	-128(%rbp), %rdx
 6858 37ff 488D45B0 		leaq	-80(%rbp), %rax
 6859 3803 4889D6   		movq	%rdx, %rsi
 6860 3806 4889C7   		movq	%rax, %rdi
 6861              	.LEHB313:
 6862 3809 E8000000 		call	queuePut@PLT
 6862      00
 6863              	.LEHE313:
 6864              		.loc 3 273 9
 6865 380e 898578FF 		movl	%eax, -136(%rbp)
 6865      FFFF
 6866              	.LEHB314:
 274:testCore.cpp  **** 	CHECK_EQUAL(USB_SUCCESS, status);
 6867              		.loc 3 274 2
 6868 3814 E8000000 		call	_ZN8UnitTest11CurrentTest7DetailsEv@PLT
 6868      00
 6869 3819 488B08   		movq	(%rax), %rcx
 6870 381c 488D4590 		leaq	-112(%rbp), %rax
 6871 3820 BA120100 		movl	$274, %edx
 6871      00
 6872 3825 4889CE   		movq	%rcx, %rsi
 6873 3828 4889C7   		movq	%rax, %rdi
 6874 382b E8000000 		call	_ZN8UnitTest11TestDetailsC1ERKS0_i@PLT
 6874      00
 6875              		.loc 3 274 2 is_stmt 0 discriminator 4
 6876 3830 C7458800 		movl	$0, -120(%rbp)
 6876      000000
 6877 3837 E8000000 		call	_ZN8UnitTest11CurrentTest7ResultsEv@PLT
 6877      00
 6878 383c 488B00   		movq	(%rax), %rax
 6879 383f 488D4D90 		leaq	-112(%rbp), %rcx
 6880 3843 488D9578 		leaq	-136(%rbp), %rdx
 6880      FFFFFF
 6881 384a 488D7588 		leaq	-120(%rbp), %rsi
 6882 384e 4889C7   		movq	%rax, %rdi
 6883 3851 E8000000 		call	_ZN8UnitTest10CheckEqualI9USBStatusS1_EEvRNS_11TestResultsERKT_RKT0_RKNS_11TestDetailsE
 6883      00
 6884              	.LEHE314:
 6885              	.L405:
 6886              	.LEHB315:
 275:testCore.cpp  **** 	CHECK_EQUAL(5UL, *item);
 6887              		.loc 3 275 2 is_stmt 1
 6888 3856 E8000000 		call	_ZN8UnitTest11CurrentTest7DetailsEv@PLT
 6888      00
 6889 385b 488B08   		movq	(%rax), %rcx
 6890 385e 488D4590 		leaq	-112(%rbp), %rax
 6891 3862 BA130100 		movl	$275, %edx
 6891      00
 6892 3867 4889CE   		movq	%rcx, %rsi
 6893 386a 4889C7   		movq	%rax, %rdi
 6894 386d E8000000 		call	_ZN8UnitTest11TestDetailsC1ERKS0_i@PLT
 6894      00
 6895              		.loc 3 275 2 is_stmt 0 discriminator 4
 6896 3872 488B5D80 		movq	-128(%rbp), %rbx
 6897 3876 48C74588 		movq	$5, -120(%rbp)
 6897      05000000 
 6898 387e E8000000 		call	_ZN8UnitTest11CurrentTest7ResultsEv@PLT
 6898      00
 6899 3883 488B00   		movq	(%rax), %rax
 6900 3886 488D5590 		leaq	-112(%rbp), %rdx
 6901 388a 488D7588 		leaq	-120(%rbp), %rsi
 6902 388e 4889D1   		movq	%rdx, %rcx
 6903 3891 4889DA   		movq	%rbx, %rdx
 6904 3894 4889C7   		movq	%rax, %rdi
 6905 3897 E8000000 		call	_ZN8UnitTest10CheckEqualImjEEvRNS_11TestResultsERKT_RKT0_RKNS_11TestDetailsE
 6905      00
 6906              	.LEHE315:
 6907              	.L408:
 276:testCore.cpp  **** 	*item = 104;
 6908              		.loc 3 276 2 is_stmt 1
 6909 389c 488B4580 		movq	-128(%rbp), %rax
 6910              		.loc 3 276 8
 6911 38a0 C7006800 		movl	$104, (%rax)
 6911      0000
 277:testCore.cpp  **** 	queueCommitPut(&queue);
 6912              		.loc 3 277 16
 6913 38a6 488D45B0 		leaq	-80(%rbp), %rax
 6914 38aa 4889C7   		movq	%rax, %rdi
 6915              	.LEHB316:
 6916 38ad E8000000 		call	queueCommitPut@PLT
 6916      00
 6917              	.LEHE316:
 6918              	.LEHB317:
 278:testCore.cpp  **** 
 279:testCore.cpp  **** 	// Verify
 280:testCore.cpp  **** 	CHECK_EQUAL(8UL, queue.capacity);
 6919              		.loc 3 280 2
 6920 38b2 E8000000 		call	_ZN8UnitTest11CurrentTest7DetailsEv@PLT
 6920      00
 6921 38b7 488B08   		movq	(%rax), %rcx
 6922 38ba 488D4590 		leaq	-112(%rbp), %rax
 6923 38be BA180100 		movl	$280, %edx
 6923      00
 6924 38c3 4889CE   		movq	%rcx, %rsi
 6925 38c6 4889C7   		movq	%rax, %rdi
 6926 38c9 E8000000 		call	_ZN8UnitTest11TestDetailsC1ERKS0_i@PLT
 6926      00
 6927              		.loc 3 280 2 is_stmt 0 discriminator 4
 6928 38ce 48C74588 		movq	$8, -120(%rbp)
 6928      08000000 
 6929 38d6 E8000000 		call	_ZN8UnitTest11CurrentTest7ResultsEv@PLT
 6929      00
 6930 38db 488B00   		movq	(%rax), %rax
 6931 38de 488D5590 		leaq	-112(%rbp), %rdx
 6932 38e2 488D4DB0 		leaq	-80(%rbp), %rcx
 6933 38e6 488D7908 		leaq	8(%rcx), %rdi
 6934 38ea 488D7588 		leaq	-120(%rbp), %rsi
 6935 38ee 4889D1   		movq	%rdx, %rcx
 6936 38f1 4889FA   		movq	%rdi, %rdx
 6937 38f4 4889C7   		movq	%rax, %rdi
 6938 38f7 E8000000 		call	_ZN8UnitTest10CheckEqualImmEEvRNS_11TestResultsERKT_RKT0_RKNS_11TestDetailsE
 6938      00
 6939              	.LEHE317:
 6940              	.L411:
 6941              	.LEHB318:
 281:testCore.cpp  **** 	CHECK_EQUAL(5UL, queue.putIndex);
 6942              		.loc 3 281 2 is_stmt 1
 6943 38fc E8000000 		call	_ZN8UnitTest11CurrentTest7DetailsEv@PLT
 6943      00
 6944 3901 488B08   		movq	(%rax), %rcx
 6945 3904 488D4590 		leaq	-112(%rbp), %rax
 6946 3908 BA190100 		movl	$281, %edx
 6946      00
 6947 390d 4889CE   		movq	%rcx, %rsi
 6948 3910 4889C7   		movq	%rax, %rdi
 6949 3913 E8000000 		call	_ZN8UnitTest11TestDetailsC1ERKS0_i@PLT
 6949      00
 6950              		.loc 3 281 2 is_stmt 0 discriminator 4
 6951 3918 48C74588 		movq	$5, -120(%rbp)
 6951      05000000 
 6952 3920 E8000000 		call	_ZN8UnitTest11CurrentTest7ResultsEv@PLT
 6952      00
 6953 3925 488B00   		movq	(%rax), %rax
 6954 3928 488D5590 		leaq	-112(%rbp), %rdx
 6955 392c 488D4DB0 		leaq	-80(%rbp), %rcx
 6956 3930 488D7910 		leaq	16(%rcx), %rdi
 6957 3934 488D7588 		leaq	-120(%rbp), %rsi
 6958 3938 4889D1   		movq	%rdx, %rcx
 6959 393b 4889FA   		movq	%rdi, %rdx
 6960 393e 4889C7   		movq	%rax, %rdi
 6961 3941 E8000000 		call	_ZN8UnitTest10CheckEqualImmEEvRNS_11TestResultsERKT_RKT0_RKNS_11TestDetailsE
 6961      00
 6962              	.LEHE318:
 6963              	.L414:
 6964              	.LEHB319:
 282:testCore.cpp  **** 	CHECK_EQUAL(0UL, queue.takeIndex);
 6965              		.loc 3 282 2 is_stmt 1
 6966 3946 E8000000 		call	_ZN8UnitTest11CurrentTest7DetailsEv@PLT
 6966      00
 6967 394b 488B08   		movq	(%rax), %rcx
 6968 394e 488D4590 		leaq	-112(%rbp), %rax
 6969 3952 BA1A0100 		movl	$282, %edx
 6969      00
 6970 3957 4889CE   		movq	%rcx, %rsi
 6971 395a 4889C7   		movq	%rax, %rdi
 6972 395d E8000000 		call	_ZN8UnitTest11TestDetailsC1ERKS0_i@PLT
 6972      00
 6973              		.loc 3 282 2 is_stmt 0 discriminator 4
 6974 3962 48C74588 		movq	$0, -120(%rbp)
 6974      00000000 
 6975 396a E8000000 		call	_ZN8UnitTest11CurrentTest7ResultsEv@PLT
 6975      00
 6976 396f 488B00   		movq	(%rax), %rax
 6977 3972 488D5590 		leaq	-112(%rbp), %rdx
 6978 3976 488D4DB0 		leaq	-80(%rbp), %rcx
 6979 397a 488D7918 		leaq	24(%rcx), %rdi
 6980 397e 488D7588 		leaq	-120(%rbp), %rsi
 6981 3982 4889D1   		movq	%rdx, %rcx
 6982 3985 4889FA   		movq	%rdi, %rdx
 6983 3988 4889C7   		movq	%rax, %rdi
 6984 398b E8000000 		call	_ZN8UnitTest10CheckEqualImmEEvRNS_11TestResultsERKT_RKT0_RKNS_11TestDetailsE
 6984      00
 6985              	.LEHE319:
 6986              	.L417:
 6987              	.LEHB320:
 283:testCore.cpp  **** 	CHECK_EQUAL(5UL, queue.numItems);
 6988              		.loc 3 283 2 is_stmt 1
 6989 3990 E8000000 		call	_ZN8UnitTest11CurrentTest7DetailsEv@PLT
 6989      00
 6990 3995 488B08   		movq	(%rax), %rcx
 6991 3998 488D4590 		leaq	-112(%rbp), %rax
 6992 399c BA1B0100 		movl	$283, %edx
 6992      00
 6993 39a1 4889CE   		movq	%rcx, %rsi
 6994 39a4 4889C7   		movq	%rax, %rdi
 6995 39a7 E8000000 		call	_ZN8UnitTest11TestDetailsC1ERKS0_i@PLT
 6995      00
 6996              		.loc 3 283 2 is_stmt 0 discriminator 4
 6997 39ac 48C74588 		movq	$5, -120(%rbp)
 6997      05000000 
 6998 39b4 E8000000 		call	_ZN8UnitTest11CurrentTest7ResultsEv@PLT
 6998      00
 6999 39b9 488B00   		movq	(%rax), %rax
 7000 39bc 488D5590 		leaq	-112(%rbp), %rdx
 7001 39c0 488D4DB0 		leaq	-80(%rbp), %rcx
 7002 39c4 488D7920 		leaq	32(%rcx), %rdi
 7003 39c8 488D7588 		leaq	-120(%rbp), %rsi
 7004 39cc 4889D1   		movq	%rdx, %rcx
 7005 39cf 4889FA   		movq	%rdi, %rdx
 7006 39d2 4889C7   		movq	%rax, %rdi
 7007 39d5 E8000000 		call	_ZN8UnitTest10CheckEqualImmEEvRNS_11TestResultsERKT_RKT0_RKNS_11TestDetailsE
 7007      00
 7008              	.LEHE320:
 7009              	.L420:
 7010              	.LEHB321:
 284:testCore.cpp  **** 
 285:testCore.cpp  **** 	// Verify array
 286:testCore.cpp  **** 	CHECK_EQUAL(100UL, deref(queue.itemArray[0]));
 7011              		.loc 3 286 2 is_stmt 1
 7012 39da E8000000 		call	_ZN8UnitTest11CurrentTest7DetailsEv@PLT
 7012      00
 7013 39df 488B08   		movq	(%rax), %rcx
 7014 39e2 488D4590 		leaq	-112(%rbp), %rax
 7015 39e6 BA1E0100 		movl	$286, %edx
 7015      00
 7016 39eb 4889CE   		movq	%rcx, %rsi
 7017 39ee 4889C7   		movq	%rax, %rdi
 7018 39f1 E8000000 		call	_ZN8UnitTest11TestDetailsC1ERKS0_i@PLT
 7018      00
 7019              		.loc 3 286 2 is_stmt 0 discriminator 4
 7020 39f6 488B45B0 		movq	-80(%rbp), %rax
 7021 39fa 488B00   		movq	(%rax), %rax
 7022 39fd 4889C7   		movq	%rax, %rdi
 7023 3a00 E88DC6FF 		call	_ZL5derefPKv
 7023      FF
 7024 3a05 89857CFF 		movl	%eax, -132(%rbp)
 7024      FFFF
 7025 3a0b 48C74588 		movq	$100, -120(%rbp)
 7025      64000000 
 7026 3a13 E8000000 		call	_ZN8UnitTest11CurrentTest7ResultsEv@PLT
 7026      00
 7027 3a18 488B00   		movq	(%rax), %rax
 7028 3a1b 488D4D90 		leaq	-112(%rbp), %rcx
 7029 3a1f 488D957C 		leaq	-132(%rbp), %rdx
 7029      FFFFFF
 7030 3a26 488D7588 		leaq	-120(%rbp), %rsi
 7031 3a2a 4889C7   		movq	%rax, %rdi
 7032 3a2d E8000000 		call	_ZN8UnitTest10CheckEqualImjEEvRNS_11TestResultsERKT_RKT0_RKNS_11TestDetailsE
 7032      00
 7033              	.LEHE321:
 7034              	.L423:
 7035              	.LEHB322:
 287:testCore.cpp  **** 	CHECK_EQUAL(101UL, deref(queue.itemArray[1]));
 7036              		.loc 3 287 2 is_stmt 1
 7037 3a32 E8000000 		call	_ZN8UnitTest11CurrentTest7DetailsEv@PLT
 7037      00
 7038 3a37 488B08   		movq	(%rax), %rcx
 7039 3a3a 488D4590 		leaq	-112(%rbp), %rax
 7040 3a3e BA1F0100 		movl	$287, %edx
 7040      00
 7041 3a43 4889CE   		movq	%rcx, %rsi
 7042 3a46 4889C7   		movq	%rax, %rdi
 7043 3a49 E8000000 		call	_ZN8UnitTest11TestDetailsC1ERKS0_i@PLT
 7043      00
 7044              		.loc 3 287 2 is_stmt 0 discriminator 4
 7045 3a4e 488B45B0 		movq	-80(%rbp), %rax
 7046 3a52 4883C008 		addq	$8, %rax
 7047 3a56 488B00   		movq	(%rax), %rax
 7048 3a59 4889C7   		movq	%rax, %rdi
 7049 3a5c E831C6FF 		call	_ZL5derefPKv
 7049      FF
 7050 3a61 89857CFF 		movl	%eax, -132(%rbp)
 7050      FFFF
 7051 3a67 48C74588 		movq	$101, -120(%rbp)
 7051      65000000 
 7052 3a6f E8000000 		call	_ZN8UnitTest11CurrentTest7ResultsEv@PLT
 7052      00
 7053 3a74 488B00   		movq	(%rax), %rax
 7054 3a77 488D4D90 		leaq	-112(%rbp), %rcx
 7055 3a7b 488D957C 		leaq	-132(%rbp), %rdx
 7055      FFFFFF
 7056 3a82 488D7588 		leaq	-120(%rbp), %rsi
 7057 3a86 4889C7   		movq	%rax, %rdi
 7058 3a89 E8000000 		call	_ZN8UnitTest10CheckEqualImjEEvRNS_11TestResultsERKT_RKT0_RKNS_11TestDetailsE
 7058      00
 7059              	.LEHE322:
 7060              	.L426:
 7061              	.LEHB323:
 288:testCore.cpp  **** 	CHECK_EQUAL(102UL, deref(queue.itemArray[2]));
 7062              		.loc 3 288 2 is_stmt 1
 7063 3a8e E8000000 		call	_ZN8UnitTest11CurrentTest7DetailsEv@PLT
 7063      00
 7064 3a93 488B08   		movq	(%rax), %rcx
 7065 3a96 488D4590 		leaq	-112(%rbp), %rax
 7066 3a9a BA200100 		movl	$288, %edx
 7066      00
 7067 3a9f 4889CE   		movq	%rcx, %rsi
 7068 3aa2 4889C7   		movq	%rax, %rdi
 7069 3aa5 E8000000 		call	_ZN8UnitTest11TestDetailsC1ERKS0_i@PLT
 7069      00
 7070              		.loc 3 288 2 is_stmt 0 discriminator 4
 7071 3aaa 488B45B0 		movq	-80(%rbp), %rax
 7072 3aae 4883C010 		addq	$16, %rax
 7073 3ab2 488B00   		movq	(%rax), %rax
 7074 3ab5 4889C7   		movq	%rax, %rdi
 7075 3ab8 E8D5C5FF 		call	_ZL5derefPKv
 7075      FF
 7076 3abd 89857CFF 		movl	%eax, -132(%rbp)
 7076      FFFF
 7077 3ac3 48C74588 		movq	$102, -120(%rbp)
 7077      66000000 
 7078 3acb E8000000 		call	_ZN8UnitTest11CurrentTest7ResultsEv@PLT
 7078      00
 7079 3ad0 488B00   		movq	(%rax), %rax
 7080 3ad3 488D4D90 		leaq	-112(%rbp), %rcx
 7081 3ad7 488D957C 		leaq	-132(%rbp), %rdx
 7081      FFFFFF
 7082 3ade 488D7588 		leaq	-120(%rbp), %rsi
 7083 3ae2 4889C7   		movq	%rax, %rdi
 7084 3ae5 E8000000 		call	_ZN8UnitTest10CheckEqualImjEEvRNS_11TestResultsERKT_RKT0_RKNS_11TestDetailsE
 7084      00
 7085              	.LEHE323:
 7086              	.L429:
 7087              	.LEHB324:
 289:testCore.cpp  **** 	CHECK_EQUAL(103UL, deref(queue.itemArray[3]));
 7088              		.loc 3 289 2 is_stmt 1
 7089 3aea E8000000 		call	_ZN8UnitTest11CurrentTest7DetailsEv@PLT
 7089      00
 7090 3aef 488B08   		movq	(%rax), %rcx
 7091 3af2 488D4590 		leaq	-112(%rbp), %rax
 7092 3af6 BA210100 		movl	$289, %edx
 7092      00
 7093 3afb 4889CE   		movq	%rcx, %rsi
 7094 3afe 4889C7   		movq	%rax, %rdi
 7095 3b01 E8000000 		call	_ZN8UnitTest11TestDetailsC1ERKS0_i@PLT
 7095      00
 7096              		.loc 3 289 2 is_stmt 0 discriminator 4
 7097 3b06 488B45B0 		movq	-80(%rbp), %rax
 7098 3b0a 4883C018 		addq	$24, %rax
 7099 3b0e 488B00   		movq	(%rax), %rax
 7100 3b11 4889C7   		movq	%rax, %rdi
 7101 3b14 E879C5FF 		call	_ZL5derefPKv
 7101      FF
 7102 3b19 89857CFF 		movl	%eax, -132(%rbp)
 7102      FFFF
 7103 3b1f 48C74588 		movq	$103, -120(%rbp)
 7103      67000000 
 7104 3b27 E8000000 		call	_ZN8UnitTest11CurrentTest7ResultsEv@PLT
 7104      00
 7105 3b2c 488B00   		movq	(%rax), %rax
 7106 3b2f 488D4D90 		leaq	-112(%rbp), %rcx
 7107 3b33 488D957C 		leaq	-132(%rbp), %rdx
 7107      FFFFFF
 7108 3b3a 488D7588 		leaq	-120(%rbp), %rsi
 7109 3b3e 4889C7   		movq	%rax, %rdi
 7110 3b41 E8000000 		call	_ZN8UnitTest10CheckEqualImjEEvRNS_11TestResultsERKT_RKT0_RKNS_11TestDetailsE
 7110      00
 7111              	.LEHE324:
 7112              	.L432:
 7113              	.LEHB325:
 290:testCore.cpp  **** 	CHECK_EQUAL(104UL, deref(queue.itemArray[4]));
 7114              		.loc 3 290 2 is_stmt 1
 7115 3b46 E8000000 		call	_ZN8UnitTest11CurrentTest7DetailsEv@PLT
 7115      00
 7116 3b4b 488B08   		movq	(%rax), %rcx
 7117 3b4e 488D4590 		leaq	-112(%rbp), %rax
 7118 3b52 BA220100 		movl	$290, %edx
 7118      00
 7119 3b57 4889CE   		movq	%rcx, %rsi
 7120 3b5a 4889C7   		movq	%rax, %rdi
 7121 3b5d E8000000 		call	_ZN8UnitTest11TestDetailsC1ERKS0_i@PLT
 7121      00
 7122              		.loc 3 290 2 is_stmt 0 discriminator 4
 7123 3b62 488B45B0 		movq	-80(%rbp), %rax
 7124 3b66 4883C020 		addq	$32, %rax
 7125 3b6a 488B00   		movq	(%rax), %rax
 7126 3b6d 4889C7   		movq	%rax, %rdi
 7127 3b70 E81DC5FF 		call	_ZL5derefPKv
 7127      FF
 7128 3b75 89857CFF 		movl	%eax, -132(%rbp)
 7128      FFFF
 7129 3b7b 48C74588 		movq	$104, -120(%rbp)
 7129      68000000 
 7130 3b83 E8000000 		call	_ZN8UnitTest11CurrentTest7ResultsEv@PLT
 7130      00
 7131 3b88 488B00   		movq	(%rax), %rax
 7132 3b8b 488D4D90 		leaq	-112(%rbp), %rcx
 7133 3b8f 488D957C 		leaq	-132(%rbp), %rdx
 7133      FFFFFF
 7134 3b96 488D7588 		leaq	-120(%rbp), %rsi
 7135 3b9a 4889C7   		movq	%rax, %rdi
 7136 3b9d E8000000 		call	_ZN8UnitTest10CheckEqualImjEEvRNS_11TestResultsERKT_RKT0_RKNS_11TestDetailsE
 7136      00
 7137              	.LEHE325:
 7138              	.L435:
 7139              	.LEHB326:
 291:testCore.cpp  **** 	CHECK_EQUAL(6UL, deref(queue.itemArray[5]));
 7140              		.loc 3 291 2 is_stmt 1
 7141 3ba2 E8000000 		call	_ZN8UnitTest11CurrentTest7DetailsEv@PLT
 7141      00
 7142 3ba7 488B08   		movq	(%rax), %rcx
 7143 3baa 488D4590 		leaq	-112(%rbp), %rax
 7144 3bae BA230100 		movl	$291, %edx
 7144      00
 7145 3bb3 4889CE   		movq	%rcx, %rsi
 7146 3bb6 4889C7   		movq	%rax, %rdi
 7147 3bb9 E8000000 		call	_ZN8UnitTest11TestDetailsC1ERKS0_i@PLT
 7147      00
 7148              		.loc 3 291 2 is_stmt 0 discriminator 4
 7149 3bbe 488B45B0 		movq	-80(%rbp), %rax
 7150 3bc2 4883C028 		addq	$40, %rax
 7151 3bc6 488B00   		movq	(%rax), %rax
 7152 3bc9 4889C7   		movq	%rax, %rdi
 7153 3bcc E8C1C4FF 		call	_ZL5derefPKv
 7153      FF
 7154 3bd1 89857CFF 		movl	%eax, -132(%rbp)
 7154      FFFF
 7155 3bd7 48C74588 		movq	$6, -120(%rbp)
 7155      06000000 
 7156 3bdf E8000000 		call	_ZN8UnitTest11CurrentTest7ResultsEv@PLT
 7156      00
 7157 3be4 488B00   		movq	(%rax), %rax
 7158 3be7 488D4D90 		leaq	-112(%rbp), %rcx
 7159 3beb 488D957C 		leaq	-132(%rbp), %rdx
 7159      FFFFFF
 7160 3bf2 488D7588 		leaq	-120(%rbp), %rsi
 7161 3bf6 4889C7   		movq	%rax, %rdi
 7162 3bf9 E8000000 		call	_ZN8UnitTest10CheckEqualImjEEvRNS_11TestResultsERKT_RKT0_RKNS_11TestDetailsE
 7162      00
 7163              	.LEHE326:
 7164              	.L438:
 7165              	.LEHB327:
 292:testCore.cpp  **** 	CHECK_EQUAL(7UL, deref(queue.itemArray[6]));
 7166              		.loc 3 292 2 is_stmt 1
 7167 3bfe E8000000 		call	_ZN8UnitTest11CurrentTest7DetailsEv@PLT
 7167      00
 7168 3c03 488B08   		movq	(%rax), %rcx
 7169 3c06 488D4590 		leaq	-112(%rbp), %rax
 7170 3c0a BA240100 		movl	$292, %edx
 7170      00
 7171 3c0f 4889CE   		movq	%rcx, %rsi
 7172 3c12 4889C7   		movq	%rax, %rdi
 7173 3c15 E8000000 		call	_ZN8UnitTest11TestDetailsC1ERKS0_i@PLT
 7173      00
 7174              		.loc 3 292 2 is_stmt 0 discriminator 4
 7175 3c1a 488B45B0 		movq	-80(%rbp), %rax
 7176 3c1e 4883C030 		addq	$48, %rax
 7177 3c22 488B00   		movq	(%rax), %rax
 7178 3c25 4889C7   		movq	%rax, %rdi
 7179 3c28 E865C4FF 		call	_ZL5derefPKv
 7179      FF
 7180 3c2d 89857CFF 		movl	%eax, -132(%rbp)
 7180      FFFF
 7181 3c33 48C74588 		movq	$7, -120(%rbp)
 7181      07000000 
 7182 3c3b E8000000 		call	_ZN8UnitTest11CurrentTest7ResultsEv@PLT
 7182      00
 7183 3c40 488B00   		movq	(%rax), %rax
 7184 3c43 488D4D90 		leaq	-112(%rbp), %rcx
 7185 3c47 488D957C 		leaq	-132(%rbp), %rdx
 7185      FFFFFF
 7186 3c4e 488D7588 		leaq	-120(%rbp), %rsi
 7187 3c52 4889C7   		movq	%rax, %rdi
 7188 3c55 E8000000 		call	_ZN8UnitTest10CheckEqualImjEEvRNS_11TestResultsERKT_RKT0_RKNS_11TestDetailsE
 7188      00
 7189              	.LEHE327:
 7190              	.L441:
 7191              	.LEHB328:
 293:testCore.cpp  **** 	CHECK_EQUAL(8UL, deref(queue.itemArray[7]));
 7192              		.loc 3 293 2 is_stmt 1
 7193 3c5a E8000000 		call	_ZN8UnitTest11CurrentTest7DetailsEv@PLT
 7193      00
 7194 3c5f 488B08   		movq	(%rax), %rcx
 7195 3c62 488D4590 		leaq	-112(%rbp), %rax
 7196 3c66 BA250100 		movl	$293, %edx
 7196      00
 7197 3c6b 4889CE   		movq	%rcx, %rsi
 7198 3c6e 4889C7   		movq	%rax, %rdi
 7199 3c71 E8000000 		call	_ZN8UnitTest11TestDetailsC1ERKS0_i@PLT
 7199      00
 7200              		.loc 3 293 2 is_stmt 0 discriminator 4
 7201 3c76 488B45B0 		movq	-80(%rbp), %rax
 7202 3c7a 4883C038 		addq	$56, %rax
 7203 3c7e 488B00   		movq	(%rax), %rax
 7204 3c81 4889C7   		movq	%rax, %rdi
 7205 3c84 E809C4FF 		call	_ZL5derefPKv
 7205      FF
 7206 3c89 89857CFF 		movl	%eax, -132(%rbp)
 7206      FFFF
 7207 3c8f 48C74588 		movq	$8, -120(%rbp)
 7207      08000000 
 7208 3c97 E8000000 		call	_ZN8UnitTest11CurrentTest7ResultsEv@PLT
 7208      00
 7209 3c9c 488B00   		movq	(%rax), %rax
 7210 3c9f 488D4D90 		leaq	-112(%rbp), %rcx
 7211 3ca3 488D957C 		leaq	-132(%rbp), %rdx
 7211      FFFFFF
 7212 3caa 488D7588 		leaq	-120(%rbp), %rsi
 7213 3cae 4889C7   		movq	%rax, %rdi
 7214 3cb1 E8000000 		call	_ZN8UnitTest10CheckEqualImjEEvRNS_11TestResultsERKT_RKT0_RKNS_11TestDetailsE
 7214      00
 7215              	.LEHE328:
 7216              	.L444:
 294:testCore.cpp  **** 
 295:testCore.cpp  **** 	// Take five items out of the queue
 296:testCore.cpp  **** 	status = queueTake(&queue, (Item*)&item);
 7217              		.loc 3 296 20 is_stmt 1
 7218 3cb6 488D5580 		leaq	-128(%rbp), %rdx
 7219 3cba 488D45B0 		leaq	-80(%rbp), %rax
 7220 3cbe 4889D6   		movq	%rdx, %rsi
 7221 3cc1 4889C7   		movq	%rax, %rdi
 7222              	.LEHB329:
 7223 3cc4 E8000000 		call	queueTake@PLT
 7223      00
 7224              	.LEHE329:
 7225              		.loc 3 296 9
 7226 3cc9 898578FF 		movl	%eax, -136(%rbp)
 7226      FFFF
 7227              	.LEHB330:
 297:testCore.cpp  **** 	CHECK_EQUAL(USB_SUCCESS, status);
 7228              		.loc 3 297 2
 7229 3ccf E8000000 		call	_ZN8UnitTest11CurrentTest7DetailsEv@PLT
 7229      00
 7230 3cd4 488B08   		movq	(%rax), %rcx
 7231 3cd7 488D4590 		leaq	-112(%rbp), %rax
 7232 3cdb BA290100 		movl	$297, %edx
 7232      00
 7233 3ce0 4889CE   		movq	%rcx, %rsi
 7234 3ce3 4889C7   		movq	%rax, %rdi
 7235 3ce6 E8000000 		call	_ZN8UnitTest11TestDetailsC1ERKS0_i@PLT
 7235      00
 7236              		.loc 3 297 2 is_stmt 0 discriminator 4
 7237 3ceb C7458800 		movl	$0, -120(%rbp)
 7237      000000
 7238 3cf2 E8000000 		call	_ZN8UnitTest11CurrentTest7ResultsEv@PLT
 7238      00
 7239 3cf7 488B00   		movq	(%rax), %rax
 7240 3cfa 488D4D90 		leaq	-112(%rbp), %rcx
 7241 3cfe 488D9578 		leaq	-136(%rbp), %rdx
 7241      FFFFFF
 7242 3d05 488D7588 		leaq	-120(%rbp), %rsi
 7243 3d09 4889C7   		movq	%rax, %rdi
 7244 3d0c E8000000 		call	_ZN8UnitTest10CheckEqualI9USBStatusS1_EEvRNS_11TestResultsERKT_RKT0_RKNS_11TestDetailsE
 7244      00
 7245              	.LEHE330:
 7246              	.L447:
 7247              	.LEHB331:
 298:testCore.cpp  **** 	CHECK_EQUAL(100UL, *item);
 7248              		.loc 3 298 2 is_stmt 1
 7249 3d11 E8000000 		call	_ZN8UnitTest11CurrentTest7DetailsEv@PLT
 7249      00
 7250 3d16 488B08   		movq	(%rax), %rcx
 7251 3d19 488D4590 		leaq	-112(%rbp), %rax
 7252 3d1d BA2A0100 		movl	$298, %edx
 7252      00
 7253 3d22 4889CE   		movq	%rcx, %rsi
 7254 3d25 4889C7   		movq	%rax, %rdi
 7255 3d28 E8000000 		call	_ZN8UnitTest11TestDetailsC1ERKS0_i@PLT
 7255      00
 7256              		.loc 3 298 2 is_stmt 0 discriminator 4
 7257 3d2d 488B5D80 		movq	-128(%rbp), %rbx
 7258 3d31 48C74588 		movq	$100, -120(%rbp)
 7258      64000000 
 7259 3d39 E8000000 		call	_ZN8UnitTest11CurrentTest7ResultsEv@PLT
 7259      00
 7260 3d3e 488B00   		movq	(%rax), %rax
 7261 3d41 488D5590 		leaq	-112(%rbp), %rdx
 7262 3d45 488D7588 		leaq	-120(%rbp), %rsi
 7263 3d49 4889D1   		movq	%rdx, %rcx
 7264 3d4c 4889DA   		movq	%rbx, %rdx
 7265 3d4f 4889C7   		movq	%rax, %rdi
 7266 3d52 E8000000 		call	_ZN8UnitTest10CheckEqualImjEEvRNS_11TestResultsERKT_RKT0_RKNS_11TestDetailsE
 7266      00
 7267              	.LEHE331:
 7268              	.L450:
 299:testCore.cpp  **** 	queueCommitTake(&queue);
 7269              		.loc 3 299 17 is_stmt 1
 7270 3d57 488D45B0 		leaq	-80(%rbp), %rax
 7271 3d5b 4889C7   		movq	%rax, %rdi
 7272              	.LEHB332:
 7273 3d5e E8000000 		call	queueCommitTake@PLT
 7273      00
 300:testCore.cpp  **** 	status = queueTake(&queue, (Item*)&item);
 7274              		.loc 3 300 20
 7275 3d63 488D5580 		leaq	-128(%rbp), %rdx
 7276 3d67 488D45B0 		leaq	-80(%rbp), %rax
 7277 3d6b 4889D6   		movq	%rdx, %rsi
 7278 3d6e 4889C7   		movq	%rax, %rdi
 7279 3d71 E8000000 		call	queueTake@PLT
 7279      00
 7280              	.LEHE332:
 7281              		.loc 3 300 9
 7282 3d76 898578FF 		movl	%eax, -136(%rbp)
 7282      FFFF
 7283              	.LEHB333:
 301:testCore.cpp  **** 	CHECK_EQUAL(USB_SUCCESS, status);
 7284              		.loc 3 301 2
 7285 3d7c E8000000 		call	_ZN8UnitTest11CurrentTest7DetailsEv@PLT
 7285      00
 7286 3d81 488B08   		movq	(%rax), %rcx
 7287 3d84 488D4590 		leaq	-112(%rbp), %rax
 7288 3d88 BA2D0100 		movl	$301, %edx
 7288      00
 7289 3d8d 4889CE   		movq	%rcx, %rsi
 7290 3d90 4889C7   		movq	%rax, %rdi
 7291 3d93 E8000000 		call	_ZN8UnitTest11TestDetailsC1ERKS0_i@PLT
 7291      00
 7292              		.loc 3 301 2 is_stmt 0 discriminator 4
 7293 3d98 C7458800 		movl	$0, -120(%rbp)
 7293      000000
 7294 3d9f E8000000 		call	_ZN8UnitTest11CurrentTest7ResultsEv@PLT
 7294      00
 7295 3da4 488B00   		movq	(%rax), %rax
 7296 3da7 488D4D90 		leaq	-112(%rbp), %rcx
 7297 3dab 488D9578 		leaq	-136(%rbp), %rdx
 7297      FFFFFF
 7298 3db2 488D7588 		leaq	-120(%rbp), %rsi
 7299 3db6 4889C7   		movq	%rax, %rdi
 7300 3db9 E8000000 		call	_ZN8UnitTest10CheckEqualI9USBStatusS1_EEvRNS_11TestResultsERKT_RKT0_RKNS_11TestDetailsE
 7300      00
 7301              	.LEHE333:
 7302              	.L453:
 7303              	.LEHB334:
 302:testCore.cpp  **** 	CHECK_EQUAL(101UL, *item);
 7304              		.loc 3 302 2 is_stmt 1
 7305 3dbe E8000000 		call	_ZN8UnitTest11CurrentTest7DetailsEv@PLT
 7305      00
 7306 3dc3 488B08   		movq	(%rax), %rcx
 7307 3dc6 488D4590 		leaq	-112(%rbp), %rax
 7308 3dca BA2E0100 		movl	$302, %edx
 7308      00
 7309 3dcf 4889CE   		movq	%rcx, %rsi
 7310 3dd2 4889C7   		movq	%rax, %rdi
 7311 3dd5 E8000000 		call	_ZN8UnitTest11TestDetailsC1ERKS0_i@PLT
 7311      00
 7312              		.loc 3 302 2 is_stmt 0 discriminator 4
 7313 3dda 488B5D80 		movq	-128(%rbp), %rbx
 7314 3dde 48C74588 		movq	$101, -120(%rbp)
 7314      65000000 
 7315 3de6 E8000000 		call	_ZN8UnitTest11CurrentTest7ResultsEv@PLT
 7315      00
 7316 3deb 488B00   		movq	(%rax), %rax
 7317 3dee 488D5590 		leaq	-112(%rbp), %rdx
 7318 3df2 488D7588 		leaq	-120(%rbp), %rsi
 7319 3df6 4889D1   		movq	%rdx, %rcx
 7320 3df9 4889DA   		movq	%rbx, %rdx
 7321 3dfc 4889C7   		movq	%rax, %rdi
 7322 3dff E8000000 		call	_ZN8UnitTest10CheckEqualImjEEvRNS_11TestResultsERKT_RKT0_RKNS_11TestDetailsE
 7322      00
 7323              	.LEHE334:
 7324              	.L456:
 303:testCore.cpp  **** 	queueCommitTake(&queue);
 7325              		.loc 3 303 17 is_stmt 1
 7326 3e04 488D45B0 		leaq	-80(%rbp), %rax
 7327 3e08 4889C7   		movq	%rax, %rdi
 7328              	.LEHB335:
 7329 3e0b E8000000 		call	queueCommitTake@PLT
 7329      00
 304:testCore.cpp  **** 	status = queueTake(&queue, (Item*)&item);
 7330              		.loc 3 304 20
 7331 3e10 488D5580 		leaq	-128(%rbp), %rdx
 7332 3e14 488D45B0 		leaq	-80(%rbp), %rax
 7333 3e18 4889D6   		movq	%rdx, %rsi
 7334 3e1b 4889C7   		movq	%rax, %rdi
 7335 3e1e E8000000 		call	queueTake@PLT
 7335      00
 7336              	.LEHE335:
 7337              		.loc 3 304 9
 7338 3e23 898578FF 		movl	%eax, -136(%rbp)
 7338      FFFF
 7339              	.LEHB336:
 305:testCore.cpp  **** 	CHECK_EQUAL(USB_SUCCESS, status);
 7340              		.loc 3 305 2
 7341 3e29 E8000000 		call	_ZN8UnitTest11CurrentTest7DetailsEv@PLT
 7341      00
 7342 3e2e 488B08   		movq	(%rax), %rcx
 7343 3e31 488D4590 		leaq	-112(%rbp), %rax
 7344 3e35 BA310100 		movl	$305, %edx
 7344      00
 7345 3e3a 4889CE   		movq	%rcx, %rsi
 7346 3e3d 4889C7   		movq	%rax, %rdi
 7347 3e40 E8000000 		call	_ZN8UnitTest11TestDetailsC1ERKS0_i@PLT
 7347      00
 7348              		.loc 3 305 2 is_stmt 0 discriminator 4
 7349 3e45 C7458800 		movl	$0, -120(%rbp)
 7349      000000
 7350 3e4c E8000000 		call	_ZN8UnitTest11CurrentTest7ResultsEv@PLT
 7350      00
 7351 3e51 488B00   		movq	(%rax), %rax
 7352 3e54 488D4D90 		leaq	-112(%rbp), %rcx
 7353 3e58 488D9578 		leaq	-136(%rbp), %rdx
 7353      FFFFFF
 7354 3e5f 488D7588 		leaq	-120(%rbp), %rsi
 7355 3e63 4889C7   		movq	%rax, %rdi
 7356 3e66 E8000000 		call	_ZN8UnitTest10CheckEqualI9USBStatusS1_EEvRNS_11TestResultsERKT_RKT0_RKNS_11TestDetailsE
 7356      00
 7357              	.LEHE336:
 7358              	.L459:
 7359              	.LEHB337:
 306:testCore.cpp  **** 	CHECK_EQUAL(102UL, *item);
 7360              		.loc 3 306 2 is_stmt 1
 7361 3e6b E8000000 		call	_ZN8UnitTest11CurrentTest7DetailsEv@PLT
 7361      00
 7362 3e70 488B08   		movq	(%rax), %rcx
 7363 3e73 488D4590 		leaq	-112(%rbp), %rax
 7364 3e77 BA320100 		movl	$306, %edx
 7364      00
 7365 3e7c 4889CE   		movq	%rcx, %rsi
 7366 3e7f 4889C7   		movq	%rax, %rdi
 7367 3e82 E8000000 		call	_ZN8UnitTest11TestDetailsC1ERKS0_i@PLT
 7367      00
 7368              		.loc 3 306 2 is_stmt 0 discriminator 4
 7369 3e87 488B5D80 		movq	-128(%rbp), %rbx
 7370 3e8b 48C74588 		movq	$102, -120(%rbp)
 7370      66000000 
 7371 3e93 E8000000 		call	_ZN8UnitTest11CurrentTest7ResultsEv@PLT
 7371      00
 7372 3e98 488B00   		movq	(%rax), %rax
 7373 3e9b 488D5590 		leaq	-112(%rbp), %rdx
 7374 3e9f 488D7588 		leaq	-120(%rbp), %rsi
 7375 3ea3 4889D1   		movq	%rdx, %rcx
 7376 3ea6 4889DA   		movq	%rbx, %rdx
 7377 3ea9 4889C7   		movq	%rax, %rdi
 7378 3eac E8000000 		call	_ZN8UnitTest10CheckEqualImjEEvRNS_11TestResultsERKT_RKT0_RKNS_11TestDetailsE
 7378      00
 7379              	.LEHE337:
 7380              	.L462:
 307:testCore.cpp  **** 	queueCommitTake(&queue);
 7381              		.loc 3 307 17 is_stmt 1
 7382 3eb1 488D45B0 		leaq	-80(%rbp), %rax
 7383 3eb5 4889C7   		movq	%rax, %rdi
 7384              	.LEHB338:
 7385 3eb8 E8000000 		call	queueCommitTake@PLT
 7385      00
 308:testCore.cpp  **** 	status = queueTake(&queue, (Item*)&item);
 7386              		.loc 3 308 20
 7387 3ebd 488D5580 		leaq	-128(%rbp), %rdx
 7388 3ec1 488D45B0 		leaq	-80(%rbp), %rax
 7389 3ec5 4889D6   		movq	%rdx, %rsi
 7390 3ec8 4889C7   		movq	%rax, %rdi
 7391 3ecb E8000000 		call	queueTake@PLT
 7391      00
 7392              	.LEHE338:
 7393              		.loc 3 308 9
 7394 3ed0 898578FF 		movl	%eax, -136(%rbp)
 7394      FFFF
 7395              	.LEHB339:
 309:testCore.cpp  **** 	CHECK_EQUAL(USB_SUCCESS, status);
 7396              		.loc 3 309 2
 7397 3ed6 E8000000 		call	_ZN8UnitTest11CurrentTest7DetailsEv@PLT
 7397      00
 7398 3edb 488B08   		movq	(%rax), %rcx
 7399 3ede 488D4590 		leaq	-112(%rbp), %rax
 7400 3ee2 BA350100 		movl	$309, %edx
 7400      00
 7401 3ee7 4889CE   		movq	%rcx, %rsi
 7402 3eea 4889C7   		movq	%rax, %rdi
 7403 3eed E8000000 		call	_ZN8UnitTest11TestDetailsC1ERKS0_i@PLT
 7403      00
 7404              		.loc 3 309 2 is_stmt 0 discriminator 4
 7405 3ef2 C7458800 		movl	$0, -120(%rbp)
 7405      000000
 7406 3ef9 E8000000 		call	_ZN8UnitTest11CurrentTest7ResultsEv@PLT
 7406      00
 7407 3efe 488B00   		movq	(%rax), %rax
 7408 3f01 488D4D90 		leaq	-112(%rbp), %rcx
 7409 3f05 488D9578 		leaq	-136(%rbp), %rdx
 7409      FFFFFF
 7410 3f0c 488D7588 		leaq	-120(%rbp), %rsi
 7411 3f10 4889C7   		movq	%rax, %rdi
 7412 3f13 E8000000 		call	_ZN8UnitTest10CheckEqualI9USBStatusS1_EEvRNS_11TestResultsERKT_RKT0_RKNS_11TestDetailsE
 7412      00
 7413              	.LEHE339:
 7414              	.L465:
 7415              	.LEHB340:
 310:testCore.cpp  **** 	CHECK_EQUAL(103UL, *item);
 7416              		.loc 3 310 2 is_stmt 1
 7417 3f18 E8000000 		call	_ZN8UnitTest11CurrentTest7DetailsEv@PLT
 7417      00
 7418 3f1d 488B08   		movq	(%rax), %rcx
 7419 3f20 488D4590 		leaq	-112(%rbp), %rax
 7420 3f24 BA360100 		movl	$310, %edx
 7420      00
 7421 3f29 4889CE   		movq	%rcx, %rsi
 7422 3f2c 4889C7   		movq	%rax, %rdi
 7423 3f2f E8000000 		call	_ZN8UnitTest11TestDetailsC1ERKS0_i@PLT
 7423      00
 7424              		.loc 3 310 2 is_stmt 0 discriminator 4
 7425 3f34 488B5D80 		movq	-128(%rbp), %rbx
 7426 3f38 48C74588 		movq	$103, -120(%rbp)
 7426      67000000 
 7427 3f40 E8000000 		call	_ZN8UnitTest11CurrentTest7ResultsEv@PLT
 7427      00
 7428 3f45 488B00   		movq	(%rax), %rax
 7429 3f48 488D5590 		leaq	-112(%rbp), %rdx
 7430 3f4c 488D7588 		leaq	-120(%rbp), %rsi
 7431 3f50 4889D1   		movq	%rdx, %rcx
 7432 3f53 4889DA   		movq	%rbx, %rdx
 7433 3f56 4889C7   		movq	%rax, %rdi
 7434 3f59 E8000000 		call	_ZN8UnitTest10CheckEqualImjEEvRNS_11TestResultsERKT_RKT0_RKNS_11TestDetailsE
 7434      00
 7435              	.LEHE340:
 7436              	.L468:
 311:testCore.cpp  **** 	queueCommitTake(&queue);
 7437              		.loc 3 311 17 is_stmt 1
 7438 3f5e 488D45B0 		leaq	-80(%rbp), %rax
 7439 3f62 4889C7   		movq	%rax, %rdi
 7440              	.LEHB341:
 7441 3f65 E8000000 		call	queueCommitTake@PLT
 7441      00
 312:testCore.cpp  **** 	status = queueTake(&queue, (Item*)&item);
 7442              		.loc 3 312 20
 7443 3f6a 488D5580 		leaq	-128(%rbp), %rdx
 7444 3f6e 488D45B0 		leaq	-80(%rbp), %rax
 7445 3f72 4889D6   		movq	%rdx, %rsi
 7446 3f75 4889C7   		movq	%rax, %rdi
 7447 3f78 E8000000 		call	queueTake@PLT
 7447      00
 7448              	.LEHE341:
 7449              		.loc 3 312 9
 7450 3f7d 898578FF 		movl	%eax, -136(%rbp)
 7450      FFFF
 7451              	.LEHB342:
 313:testCore.cpp  **** 	CHECK_EQUAL(USB_SUCCESS, status);
 7452              		.loc 3 313 2
 7453 3f83 E8000000 		call	_ZN8UnitTest11CurrentTest7DetailsEv@PLT
 7453      00
 7454 3f88 488B08   		movq	(%rax), %rcx
 7455 3f8b 488D4590 		leaq	-112(%rbp), %rax
 7456 3f8f BA390100 		movl	$313, %edx
 7456      00
 7457 3f94 4889CE   		movq	%rcx, %rsi
 7458 3f97 4889C7   		movq	%rax, %rdi
 7459 3f9a E8000000 		call	_ZN8UnitTest11TestDetailsC1ERKS0_i@PLT
 7459      00
 7460              		.loc 3 313 2 is_stmt 0 discriminator 4
 7461 3f9f C7458800 		movl	$0, -120(%rbp)
 7461      000000
 7462 3fa6 E8000000 		call	_ZN8UnitTest11CurrentTest7ResultsEv@PLT
 7462      00
 7463 3fab 488B00   		movq	(%rax), %rax
 7464 3fae 488D4D90 		leaq	-112(%rbp), %rcx
 7465 3fb2 488D9578 		leaq	-136(%rbp), %rdx
 7465      FFFFFF
 7466 3fb9 488D7588 		leaq	-120(%rbp), %rsi
 7467 3fbd 4889C7   		movq	%rax, %rdi
 7468 3fc0 E8000000 		call	_ZN8UnitTest10CheckEqualI9USBStatusS1_EEvRNS_11TestResultsERKT_RKT0_RKNS_11TestDetailsE
 7468      00
 7469              	.LEHE342:
 7470              	.L471:
 7471              	.LEHB343:
 314:testCore.cpp  **** 	CHECK_EQUAL(104UL, *item);
 7472              		.loc 3 314 2 is_stmt 1
 7473 3fc5 E8000000 		call	_ZN8UnitTest11CurrentTest7DetailsEv@PLT
 7473      00
 7474 3fca 488B08   		movq	(%rax), %rcx
 7475 3fcd 488D4590 		leaq	-112(%rbp), %rax
 7476 3fd1 BA3A0100 		movl	$314, %edx
 7476      00
 7477 3fd6 4889CE   		movq	%rcx, %rsi
 7478 3fd9 4889C7   		movq	%rax, %rdi
 7479 3fdc E8000000 		call	_ZN8UnitTest11TestDetailsC1ERKS0_i@PLT
 7479      00
 7480              		.loc 3 314 2 is_stmt 0 discriminator 4
 7481 3fe1 488B5D80 		movq	-128(%rbp), %rbx
 7482 3fe5 48C74588 		movq	$104, -120(%rbp)
 7482      68000000 
 7483 3fed E8000000 		call	_ZN8UnitTest11CurrentTest7ResultsEv@PLT
 7483      00
 7484 3ff2 488B00   		movq	(%rax), %rax
 7485 3ff5 488D5590 		leaq	-112(%rbp), %rdx
 7486 3ff9 488D7588 		leaq	-120(%rbp), %rsi
 7487 3ffd 4889D1   		movq	%rdx, %rcx
 7488 4000 4889DA   		movq	%rbx, %rdx
 7489 4003 4889C7   		movq	%rax, %rdi
 7490 4006 E8000000 		call	_ZN8UnitTest10CheckEqualImjEEvRNS_11TestResultsERKT_RKT0_RKNS_11TestDetailsE
 7490      00
 7491              	.LEHE343:
 7492              	.L474:
 315:testCore.cpp  **** 	queueCommitTake(&queue);
 7493              		.loc 3 315 17 is_stmt 1
 7494 400b 488D45B0 		leaq	-80(%rbp), %rax
 7495 400f 4889C7   		movq	%rax, %rdi
 7496              	.LEHB344:
 7497 4012 E8000000 		call	queueCommitTake@PLT
 7497      00
 316:testCore.cpp  **** 
 317:testCore.cpp  **** 	// Try to take one more
 318:testCore.cpp  **** 	status = queueTake(&queue, (Item*)&item);
 7498              		.loc 3 318 20
 7499 4017 488D5580 		leaq	-128(%rbp), %rdx
 7500 401b 488D45B0 		leaq	-80(%rbp), %rax
 7501 401f 4889D6   		movq	%rdx, %rsi
 7502 4022 4889C7   		movq	%rax, %rdi
 7503 4025 E8000000 		call	queueTake@PLT
 7503      00
 7504              	.LEHE344:
 7505              		.loc 3 318 9
 7506 402a 898578FF 		movl	%eax, -136(%rbp)
 7506      FFFF
 7507              	.LEHB345:
 319:testCore.cpp  **** 	CHECK_EQUAL(USB_EMPTY_QUEUE, status);
 7508              		.loc 3 319 2
 7509 4030 E8000000 		call	_ZN8UnitTest11CurrentTest7DetailsEv@PLT
 7509      00
 7510 4035 488B08   		movq	(%rax), %rcx
 7511 4038 488D4590 		leaq	-112(%rbp), %rax
 7512 403c BA3F0100 		movl	$319, %edx
 7512      00
 7513 4041 4889CE   		movq	%rcx, %rsi
 7514 4044 4889C7   		movq	%rax, %rdi
 7515 4047 E8000000 		call	_ZN8UnitTest11TestDetailsC1ERKS0_i@PLT
 7515      00
 7516              		.loc 3 319 2 is_stmt 0 discriminator 4
 7517 404c C745880D 		movl	$13, -120(%rbp)
 7517      000000
 7518 4053 E8000000 		call	_ZN8UnitTest11CurrentTest7ResultsEv@PLT
 7518      00
 7519 4058 488B00   		movq	(%rax), %rax
 7520 405b 488D4D90 		leaq	-112(%rbp), %rcx
 7521 405f 488D9578 		leaq	-136(%rbp), %rdx
 7521      FFFFFF
 7522 4066 488D7588 		leaq	-120(%rbp), %rsi
 7523 406a 4889C7   		movq	%rax, %rdi
 7524 406d E8000000 		call	_ZN8UnitTest10CheckEqualI9USBStatusS1_EEvRNS_11TestResultsERKT_RKT0_RKNS_11TestDetailsE
 7524      00
 7525              	.LEHE345:
 7526              	.L477:
 320:testCore.cpp  **** 
 321:testCore.cpp  **** 	queueDestroy(&queue);
 7527              		.loc 3 321 14 is_stmt 1
 7528 4072 488D45B0 		leaq	-80(%rbp), %rax
 7529 4076 4889C7   		movq	%rax, %rdi
 7530              	.LEHB346:
 7531 4079 E8000000 		call	queueDestroy@PLT
 7531      00
 7532              	.LEHE346:
 322:testCore.cpp  **** }
 7533              		.loc 3 322 1
 7534 407e 90       		nop
 7535 407f 488B45E8 		movq	-24(%rbp), %rax
 7536 4083 64482B04 		subq	%fs:40, %rax
 7536      25280000 
 7536      00
 7537 408c 0F84540F 		je	.L479
 7537      0000
 7538 4092 E94A0F00 		jmp	.L556
 7538      00
 7539              	.L480:
 7540 4097 F30F1EFA 		endbr64
 238:testCore.cpp  **** 
 7541              		.loc 3 238 2
 7542 409b 4889C7   		movq	%rax, %rdi
 7543 409e E8000000 		call	__cxa_begin_catch@PLT
 7543      00
 7544              	.LEHB347:
 7545 40a3 E8000000 		call	_ZN8UnitTest11CurrentTest7ResultsEv@PLT
 7545      00
 238:testCore.cpp  **** 
 7546              		.loc 3 238 2 is_stmt 0 discriminator 3
 7547 40a8 488B18   		movq	(%rax), %rbx
 7548 40ab E8000000 		call	_ZN8UnitTest11CurrentTest7DetailsEv@PLT
 7548      00
 238:testCore.cpp  **** 
 7549              		.loc 3 238 2 discriminator 11
 7550 40b0 488B08   		movq	(%rax), %rcx
 7551 40b3 488D4590 		leaq	-112(%rbp), %rax
 7552 40b7 BAEE0000 		movl	$238, %edx
 7552      00
 7553 40bc 4889CE   		movq	%rcx, %rsi
 7554 40bf 4889C7   		movq	%rax, %rdi
 7555 40c2 E8000000 		call	_ZN8UnitTest11TestDetailsC1ERKS0_i@PLT
 7555      00
 238:testCore.cpp  **** 
 7556              		.loc 3 238 2 discriminator 15
 7557 40c7 488D4590 		leaq	-112(%rbp), %rax
 7558 40cb 488D1500 		leaq	.LC3(%rip), %rdx
 7558      000000
 7559 40d2 4889C6   		movq	%rax, %rsi
 7560 40d5 4889DF   		movq	%rbx, %rdi
 7561 40d8 E8000000 		call	_ZN8UnitTest11TestResults13OnTestFailureERKNS_11TestDetailsEPKc@PLT
 7561      00
 7562              	.LEHE347:
 7563              	.LEHB348:
 238:testCore.cpp  **** 
 7564              		.loc 3 238 2 discriminator 17
 7565 40dd E8000000 		call	__cxa_end_catch@PLT
 7565      00
 7566              	.LEHE348:
 7567 40e2 E9D0F2FF 		jmp	.L366
 7567      FF
 7568              	.L481:
 7569 40e7 F30F1EFA 		endbr64
 238:testCore.cpp  **** 
 7570              		.loc 3 238 2
 7571 40eb 4889C3   		movq	%rax, %rbx
 7572 40ee E8000000 		call	__cxa_end_catch@PLT
 7572      00
 7573 40f3 4889D8   		movq	%rbx, %rax
 7574 40f6 4889C7   		movq	%rax, %rdi
 7575              	.LEHB349:
 7576 40f9 E8000000 		call	_Unwind_Resume@PLT
 7576      00
 7577              	.LEHE349:
 7578              	.L482:
 7579 40fe F30F1EFA 		endbr64
 246:testCore.cpp  **** 	CHECK_EQUAL((offset) % 4 + 1UL, *item);
 7580              		.loc 3 246 2 is_stmt 1
 7581 4102 4889C7   		movq	%rax, %rdi
 7582 4105 E8000000 		call	__cxa_begin_catch@PLT
 7582      00
 7583              	.LEHB350:
 7584 410a E8000000 		call	_ZN8UnitTest11CurrentTest7ResultsEv@PLT
 7584      00
 246:testCore.cpp  **** 	CHECK_EQUAL((offset) % 4 + 1UL, *item);
 7585              		.loc 3 246 2 is_stmt 0 discriminator 3
 7586 410f 488B18   		movq	(%rax), %rbx
 7587 4112 E8000000 		call	_ZN8UnitTest11CurrentTest7DetailsEv@PLT
 7587      00
 246:testCore.cpp  **** 	CHECK_EQUAL((offset) % 4 + 1UL, *item);
 7588              		.loc 3 246 2 discriminator 11
 7589 4117 488B08   		movq	(%rax), %rcx
 7590 411a 488D4590 		leaq	-112(%rbp), %rax
 7591 411e BAF60000 		movl	$246, %edx
 7591      00
 7592 4123 4889CE   		movq	%rcx, %rsi
 7593 4126 4889C7   		movq	%rax, %rdi
 7594 4129 E8000000 		call	_ZN8UnitTest11TestDetailsC1ERKS0_i@PLT
 7594      00
 246:testCore.cpp  **** 	CHECK_EQUAL((offset) % 4 + 1UL, *item);
 7595              		.loc 3 246 2 discriminator 15
 7596 412e 488D4590 		leaq	-112(%rbp), %rax
 7597 4132 488D1500 		leaq	.LC3(%rip), %rdx
 7597      000000
 7598 4139 4889C6   		movq	%rax, %rsi
 7599 413c 4889DF   		movq	%rbx, %rdi
 7600 413f E8000000 		call	_ZN8UnitTest11TestResults13OnTestFailureERKNS_11TestDetailsEPKc@PLT
 7600      00
 7601              	.LEHE350:
 7602              	.LEHB351:
 246:testCore.cpp  **** 	CHECK_EQUAL((offset) % 4 + 1UL, *item);
 7603              		.loc 3 246 2 discriminator 17
 7604 4144 E8000000 		call	__cxa_end_catch@PLT
 7604      00
 7605              	.LEHE351:
 7606 4149 E9DAF2FF 		jmp	.L369
 7606      FF
 7607              	.L483:
 7608 414e F30F1EFA 		endbr64
 246:testCore.cpp  **** 	CHECK_EQUAL((offset) % 4 + 1UL, *item);
 7609              		.loc 3 246 2
 7610 4152 4889C3   		movq	%rax, %rbx
 7611 4155 E8000000 		call	__cxa_end_catch@PLT
 7611      00
 7612 415a 4889D8   		movq	%rbx, %rax
 7613 415d 4889C7   		movq	%rax, %rdi
 7614              	.LEHB352:
 7615 4160 E8000000 		call	_Unwind_Resume@PLT
 7615      00
 7616              	.LEHE352:
 7617              	.L484:
 7618 4165 F30F1EFA 		endbr64
 247:testCore.cpp  **** 	*item = 100;
 7619              		.loc 3 247 2 is_stmt 1
 7620 4169 4889C7   		movq	%rax, %rdi
 7621 416c E8000000 		call	__cxa_begin_catch@PLT
 7621      00
 7622              	.LEHB353:
 7623 4171 E8000000 		call	_ZN8UnitTest11CurrentTest7ResultsEv@PLT
 7623      00
 247:testCore.cpp  **** 	*item = 100;
 7624              		.loc 3 247 2 is_stmt 0 discriminator 3
 7625 4176 488B18   		movq	(%rax), %rbx
 7626 4179 E8000000 		call	_ZN8UnitTest11CurrentTest7DetailsEv@PLT
 7626      00
 247:testCore.cpp  **** 	*item = 100;
 7627              		.loc 3 247 2 discriminator 11
 7628 417e 488B08   		movq	(%rax), %rcx
 7629 4181 488D4590 		leaq	-112(%rbp), %rax
 7630 4185 BAF70000 		movl	$247, %edx
 7630      00
 7631 418a 4889CE   		movq	%rcx, %rsi
 7632 418d 4889C7   		movq	%rax, %rdi
 7633 4190 E8000000 		call	_ZN8UnitTest11TestDetailsC1ERKS0_i@PLT
 7633      00
 247:testCore.cpp  **** 	*item = 100;
 7634              		.loc 3 247 2 discriminator 15
 7635 4195 488D4590 		leaq	-112(%rbp), %rax
 7636 4199 488D1500 		leaq	.LC30(%rip), %rdx
 7636      000000
 7637 41a0 4889C6   		movq	%rax, %rsi
 7638 41a3 4889DF   		movq	%rbx, %rdi
 7639 41a6 E8000000 		call	_ZN8UnitTest11TestResults13OnTestFailureERKNS_11TestDetailsEPKc@PLT
 7639      00
 7640              	.LEHE353:
 7641              	.LEHB354:
 247:testCore.cpp  **** 	*item = 100;
 7642              		.loc 3 247 2 discriminator 17
 7643 41ab E8000000 		call	__cxa_end_catch@PLT
 7643      00
 7644              	.LEHE354:
 7645 41b0 E9C3F2FF 		jmp	.L372
 7645      FF
 7646              	.L485:
 7647 41b5 F30F1EFA 		endbr64
 247:testCore.cpp  **** 	*item = 100;
 7648              		.loc 3 247 2
 7649 41b9 4889C3   		movq	%rax, %rbx
 7650 41bc E8000000 		call	__cxa_end_catch@PLT
 7650      00
 7651 41c1 4889D8   		movq	%rbx, %rax
 7652 41c4 4889C7   		movq	%rax, %rdi
 7653              	.LEHB355:
 7654 41c7 E8000000 		call	_Unwind_Resume@PLT
 7654      00
 7655              	.LEHE355:
 7656              	.L486:
 7657 41cc F30F1EFA 		endbr64
 251:testCore.cpp  **** 	CHECK_EQUAL((offset + 1UL) % 4 + 1UL, *item);
 7658              		.loc 3 251 2 is_stmt 1
 7659 41d0 4889C7   		movq	%rax, %rdi
 7660 41d3 E8000000 		call	__cxa_begin_catch@PLT
 7660      00
 7661              	.LEHB356:
 7662 41d8 E8000000 		call	_ZN8UnitTest11CurrentTest7ResultsEv@PLT
 7662      00
 251:testCore.cpp  **** 	CHECK_EQUAL((offset + 1UL) % 4 + 1UL, *item);
 7663              		.loc 3 251 2 is_stmt 0 discriminator 3
 7664 41dd 488B18   		movq	(%rax), %rbx
 7665 41e0 E8000000 		call	_ZN8UnitTest11CurrentTest7DetailsEv@PLT
 7665      00
 251:testCore.cpp  **** 	CHECK_EQUAL((offset + 1UL) % 4 + 1UL, *item);
 7666              		.loc 3 251 2 discriminator 11
 7667 41e5 488B08   		movq	(%rax), %rcx
 7668 41e8 488D4590 		leaq	-112(%rbp), %rax
 7669 41ec BAFB0000 		movl	$251, %edx
 7669      00
 7670 41f1 4889CE   		movq	%rcx, %rsi
 7671 41f4 4889C7   		movq	%rax, %rdi
 7672 41f7 E8000000 		call	_ZN8UnitTest11TestDetailsC1ERKS0_i@PLT
 7672      00
 251:testCore.cpp  **** 	CHECK_EQUAL((offset + 1UL) % 4 + 1UL, *item);
 7673              		.loc 3 251 2 discriminator 15
 7674 41fc 488D4590 		leaq	-112(%rbp), %rax
 7675 4200 488D1500 		leaq	.LC3(%rip), %rdx
 7675      000000
 7676 4207 4889C6   		movq	%rax, %rsi
 7677 420a 4889DF   		movq	%rbx, %rdi
 7678 420d E8000000 		call	_ZN8UnitTest11TestResults13OnTestFailureERKNS_11TestDetailsEPKc@PLT
 7678      00
 7679              	.LEHE356:
 7680              	.LEHB357:
 251:testCore.cpp  **** 	CHECK_EQUAL((offset + 1UL) % 4 + 1UL, *item);
 7681              		.loc 3 251 2 discriminator 17
 7682 4212 E8000000 		call	__cxa_end_catch@PLT
 7682      00
 7683              	.LEHE357:
 7684 4217 E9CDF2FF 		jmp	.L375
 7684      FF
 7685              	.L487:
 7686 421c F30F1EFA 		endbr64
 251:testCore.cpp  **** 	CHECK_EQUAL((offset + 1UL) % 4 + 1UL, *item);
 7687              		.loc 3 251 2
 7688 4220 4889C3   		movq	%rax, %rbx
 7689 4223 E8000000 		call	__cxa_end_catch@PLT
 7689      00
 7690 4228 4889D8   		movq	%rbx, %rax
 7691 422b 4889C7   		movq	%rax, %rdi
 7692              	.LEHB358:
 7693 422e E8000000 		call	_Unwind_Resume@PLT
 7693      00
 7694              	.LEHE358:
 7695              	.L488:
 7696 4233 F30F1EFA 		endbr64
 252:testCore.cpp  **** 	*item = 101;
 7697              		.loc 3 252 2 is_stmt 1
 7698 4237 4889C7   		movq	%rax, %rdi
 7699 423a E8000000 		call	__cxa_begin_catch@PLT
 7699      00
 7700              	.LEHB359:
 7701 423f E8000000 		call	_ZN8UnitTest11CurrentTest7ResultsEv@PLT
 7701      00
 252:testCore.cpp  **** 	*item = 101;
 7702              		.loc 3 252 2 is_stmt 0 discriminator 3
 7703 4244 488B18   		movq	(%rax), %rbx
 7704 4247 E8000000 		call	_ZN8UnitTest11CurrentTest7DetailsEv@PLT
 7704      00
 252:testCore.cpp  **** 	*item = 101;
 7705              		.loc 3 252 2 discriminator 11
 7706 424c 488B08   		movq	(%rax), %rcx
 7707 424f 488D4590 		leaq	-112(%rbp), %rax
 7708 4253 BAFC0000 		movl	$252, %edx
 7708      00
 7709 4258 4889CE   		movq	%rcx, %rsi
 7710 425b 4889C7   		movq	%rax, %rdi
 7711 425e E8000000 		call	_ZN8UnitTest11TestDetailsC1ERKS0_i@PLT
 7711      00
 252:testCore.cpp  **** 	*item = 101;
 7712              		.loc 3 252 2 discriminator 15
 7713 4263 488D4590 		leaq	-112(%rbp), %rax
 7714 4267 488D1500 		leaq	.LC31(%rip), %rdx
 7714      000000
 7715 426e 4889C6   		movq	%rax, %rsi
 7716 4271 4889DF   		movq	%rbx, %rdi
 7717 4274 E8000000 		call	_ZN8UnitTest11TestResults13OnTestFailureERKNS_11TestDetailsEPKc@PLT
 7717      00
 7718              	.LEHE359:
 7719              	.LEHB360:
 252:testCore.cpp  **** 	*item = 101;
 7720              		.loc 3 252 2 discriminator 17
 7721 4279 E8000000 		call	__cxa_end_catch@PLT
 7721      00
 7722              	.LEHE360:
 7723 427e E9BAF2FF 		jmp	.L378
 7723      FF
 7724              	.L489:
 7725 4283 F30F1EFA 		endbr64
 252:testCore.cpp  **** 	*item = 101;
 7726              		.loc 3 252 2
 7727 4287 4889C3   		movq	%rax, %rbx
 7728 428a E8000000 		call	__cxa_end_catch@PLT
 7728      00
 7729 428f 4889D8   		movq	%rbx, %rax
 7730 4292 4889C7   		movq	%rax, %rdi
 7731              	.LEHB361:
 7732 4295 E8000000 		call	_Unwind_Resume@PLT
 7732      00
 7733              	.LEHE361:
 7734              	.L490:
 7735 429a F30F1EFA 		endbr64
 256:testCore.cpp  **** 	CHECK_EQUAL((offset + 2UL) % 4 + 1UL, *item);
 7736              		.loc 3 256 2 is_stmt 1
 7737 429e 4889C7   		movq	%rax, %rdi
 7738 42a1 E8000000 		call	__cxa_begin_catch@PLT
 7738      00
 7739              	.LEHB362:
 7740 42a6 E8000000 		call	_ZN8UnitTest11CurrentTest7ResultsEv@PLT
 7740      00
 256:testCore.cpp  **** 	CHECK_EQUAL((offset + 2UL) % 4 + 1UL, *item);
 7741              		.loc 3 256 2 is_stmt 0 discriminator 3
 7742 42ab 488B18   		movq	(%rax), %rbx
 7743 42ae E8000000 		call	_ZN8UnitTest11CurrentTest7DetailsEv@PLT
 7743      00
 256:testCore.cpp  **** 	CHECK_EQUAL((offset + 2UL) % 4 + 1UL, *item);
 7744              		.loc 3 256 2 discriminator 11
 7745 42b3 488B08   		movq	(%rax), %rcx
 7746 42b6 488D4590 		leaq	-112(%rbp), %rax
 7747 42ba BA000100 		movl	$256, %edx
 7747      00
 7748 42bf 4889CE   		movq	%rcx, %rsi
 7749 42c2 4889C7   		movq	%rax, %rdi
 7750 42c5 E8000000 		call	_ZN8UnitTest11TestDetailsC1ERKS0_i@PLT
 7750      00
 256:testCore.cpp  **** 	CHECK_EQUAL((offset + 2UL) % 4 + 1UL, *item);
 7751              		.loc 3 256 2 discriminator 15
 7752 42ca 488D4590 		leaq	-112(%rbp), %rax
 7753 42ce 488D1500 		leaq	.LC3(%rip), %rdx
 7753      000000
 7754 42d5 4889C6   		movq	%rax, %rsi
 7755 42d8 4889DF   		movq	%rbx, %rdi
 7756 42db E8000000 		call	_ZN8UnitTest11TestResults13OnTestFailureERKNS_11TestDetailsEPKc@PLT
 7756      00
 7757              	.LEHE362:
 7758              	.LEHB363:
 256:testCore.cpp  **** 	CHECK_EQUAL((offset + 2UL) % 4 + 1UL, *item);
 7759              		.loc 3 256 2 discriminator 17
 7760 42e0 E8000000 		call	__cxa_end_catch@PLT
 7760      00
 7761              	.LEHE363:
 7762 42e5 E9C4F2FF 		jmp	.L381
 7762      FF
 7763              	.L491:
 7764 42ea F30F1EFA 		endbr64
 256:testCore.cpp  **** 	CHECK_EQUAL((offset + 2UL) % 4 + 1UL, *item);
 7765              		.loc 3 256 2
 7766 42ee 4889C3   		movq	%rax, %rbx
 7767 42f1 E8000000 		call	__cxa_end_catch@PLT
 7767      00
 7768 42f6 4889D8   		movq	%rbx, %rax
 7769 42f9 4889C7   		movq	%rax, %rdi
 7770              	.LEHB364:
 7771 42fc E8000000 		call	_Unwind_Resume@PLT
 7771      00
 7772              	.LEHE364:
 7773              	.L492:
 7774 4301 F30F1EFA 		endbr64
 257:testCore.cpp  **** 	*item = 102;
 7775              		.loc 3 257 2 is_stmt 1
 7776 4305 4889C7   		movq	%rax, %rdi
 7777 4308 E8000000 		call	__cxa_begin_catch@PLT
 7777      00
 7778              	.LEHB365:
 7779 430d E8000000 		call	_ZN8UnitTest11CurrentTest7ResultsEv@PLT
 7779      00
 257:testCore.cpp  **** 	*item = 102;
 7780              		.loc 3 257 2 is_stmt 0 discriminator 3
 7781 4312 488B18   		movq	(%rax), %rbx
 7782 4315 E8000000 		call	_ZN8UnitTest11CurrentTest7DetailsEv@PLT
 7782      00
 257:testCore.cpp  **** 	*item = 102;
 7783              		.loc 3 257 2 discriminator 11
 7784 431a 488B08   		movq	(%rax), %rcx
 7785 431d 488D4590 		leaq	-112(%rbp), %rax
 7786 4321 BA010100 		movl	$257, %edx
 7786      00
 7787 4326 4889CE   		movq	%rcx, %rsi
 7788 4329 4889C7   		movq	%rax, %rdi
 7789 432c E8000000 		call	_ZN8UnitTest11TestDetailsC1ERKS0_i@PLT
 7789      00
 257:testCore.cpp  **** 	*item = 102;
 7790              		.loc 3 257 2 discriminator 15
 7791 4331 488D4590 		leaq	-112(%rbp), %rax
 7792 4335 488D1500 		leaq	.LC32(%rip), %rdx
 7792      000000
 7793 433c 4889C6   		movq	%rax, %rsi
 7794 433f 4889DF   		movq	%rbx, %rdi
 7795 4342 E8000000 		call	_ZN8UnitTest11TestResults13OnTestFailureERKNS_11TestDetailsEPKc@PLT
 7795      00
 7796              	.LEHE365:
 7797              	.LEHB366:
 257:testCore.cpp  **** 	*item = 102;
 7798              		.loc 3 257 2 discriminator 17
 7799 4347 E8000000 		call	__cxa_end_catch@PLT
 7799      00
 7800              	.LEHE366:
 7801 434c E9B1F2FF 		jmp	.L384
 7801      FF
 7802              	.L493:
 7803 4351 F30F1EFA 		endbr64
 257:testCore.cpp  **** 	*item = 102;
 7804              		.loc 3 257 2
 7805 4355 4889C3   		movq	%rax, %rbx
 7806 4358 E8000000 		call	__cxa_end_catch@PLT
 7806      00
 7807 435d 4889D8   		movq	%rbx, %rax
 7808 4360 4889C7   		movq	%rax, %rdi
 7809              	.LEHB367:
 7810 4363 E8000000 		call	_Unwind_Resume@PLT
 7810      00
 7811              	.LEHE367:
 7812              	.L494:
 7813 4368 F30F1EFA 		endbr64
 261:testCore.cpp  **** 	CHECK_EQUAL((offset + 3UL) % 4 + 1UL, *item);
 7814              		.loc 3 261 2 is_stmt 1
 7815 436c 4889C7   		movq	%rax, %rdi
 7816 436f E8000000 		call	__cxa_begin_catch@PLT
 7816      00
 7817              	.LEHB368:
 7818 4374 E8000000 		call	_ZN8UnitTest11CurrentTest7ResultsEv@PLT
 7818      00
 261:testCore.cpp  **** 	CHECK_EQUAL((offset + 3UL) % 4 + 1UL, *item);
 7819              		.loc 3 261 2 is_stmt 0 discriminator 3
 7820 4379 488B18   		movq	(%rax), %rbx
 7821 437c E8000000 		call	_ZN8UnitTest11CurrentTest7DetailsEv@PLT
 7821      00
 261:testCore.cpp  **** 	CHECK_EQUAL((offset + 3UL) % 4 + 1UL, *item);
 7822              		.loc 3 261 2 discriminator 11
 7823 4381 488B08   		movq	(%rax), %rcx
 7824 4384 488D4590 		leaq	-112(%rbp), %rax
 7825 4388 BA050100 		movl	$261, %edx
 7825      00
 7826 438d 4889CE   		movq	%rcx, %rsi
 7827 4390 4889C7   		movq	%rax, %rdi
 7828 4393 E8000000 		call	_ZN8UnitTest11TestDetailsC1ERKS0_i@PLT
 7828      00
 261:testCore.cpp  **** 	CHECK_EQUAL((offset + 3UL) % 4 + 1UL, *item);
 7829              		.loc 3 261 2 discriminator 15
 7830 4398 488D4590 		leaq	-112(%rbp), %rax
 7831 439c 488D1500 		leaq	.LC3(%rip), %rdx
 7831      000000
 7832 43a3 4889C6   		movq	%rax, %rsi
 7833 43a6 4889DF   		movq	%rbx, %rdi
 7834 43a9 E8000000 		call	_ZN8UnitTest11TestResults13OnTestFailureERKNS_11TestDetailsEPKc@PLT
 7834      00
 7835              	.LEHE368:
 7836              	.LEHB369:
 261:testCore.cpp  **** 	CHECK_EQUAL((offset + 3UL) % 4 + 1UL, *item);
 7837              		.loc 3 261 2 discriminator 17
 7838 43ae E8000000 		call	__cxa_end_catch@PLT
 7838      00
 7839              	.LEHE369:
 7840 43b3 E9BBF2FF 		jmp	.L387
 7840      FF
 7841              	.L495:
 7842 43b8 F30F1EFA 		endbr64
 261:testCore.cpp  **** 	CHECK_EQUAL((offset + 3UL) % 4 + 1UL, *item);
 7843              		.loc 3 261 2
 7844 43bc 4889C3   		movq	%rax, %rbx
 7845 43bf E8000000 		call	__cxa_end_catch@PLT
 7845      00
 7846 43c4 4889D8   		movq	%rbx, %rax
 7847 43c7 4889C7   		movq	%rax, %rdi
 7848              	.LEHB370:
 7849 43ca E8000000 		call	_Unwind_Resume@PLT
 7849      00
 7850              	.LEHE370:
 7851              	.L496:
 7852 43cf F30F1EFA 		endbr64
 262:testCore.cpp  **** 	*item = 103;
 7853              		.loc 3 262 2 is_stmt 1
 7854 43d3 4889C7   		movq	%rax, %rdi
 7855 43d6 E8000000 		call	__cxa_begin_catch@PLT
 7855      00
 7856              	.LEHB371:
 7857 43db E8000000 		call	_ZN8UnitTest11CurrentTest7ResultsEv@PLT
 7857      00
 262:testCore.cpp  **** 	*item = 103;
 7858              		.loc 3 262 2 is_stmt 0 discriminator 3
 7859 43e0 488B18   		movq	(%rax), %rbx
 7860 43e3 E8000000 		call	_ZN8UnitTest11CurrentTest7DetailsEv@PLT
 7860      00
 262:testCore.cpp  **** 	*item = 103;
 7861              		.loc 3 262 2 discriminator 11
 7862 43e8 488B08   		movq	(%rax), %rcx
 7863 43eb 488D4590 		leaq	-112(%rbp), %rax
 7864 43ef BA060100 		movl	$262, %edx
 7864      00
 7865 43f4 4889CE   		movq	%rcx, %rsi
 7866 43f7 4889C7   		movq	%rax, %rdi
 7867 43fa E8000000 		call	_ZN8UnitTest11TestDetailsC1ERKS0_i@PLT
 7867      00
 262:testCore.cpp  **** 	*item = 103;
 7868              		.loc 3 262 2 discriminator 15
 7869 43ff 488D4590 		leaq	-112(%rbp), %rax
 7870 4403 488D1500 		leaq	.LC33(%rip), %rdx
 7870      000000
 7871 440a 4889C6   		movq	%rax, %rsi
 7872 440d 4889DF   		movq	%rbx, %rdi
 7873 4410 E8000000 		call	_ZN8UnitTest11TestResults13OnTestFailureERKNS_11TestDetailsEPKc@PLT
 7873      00
 7874              	.LEHE371:
 7875              	.LEHB372:
 262:testCore.cpp  **** 	*item = 103;
 7876              		.loc 3 262 2 discriminator 17
 7877 4415 E8000000 		call	__cxa_end_catch@PLT
 7877      00
 7878              	.LEHE372:
 7879 441a E9A8F2FF 		jmp	.L390
 7879      FF
 7880              	.L497:
 7881 441f F30F1EFA 		endbr64
 262:testCore.cpp  **** 	*item = 103;
 7882              		.loc 3 262 2
 7883 4423 4889C3   		movq	%rax, %rbx
 7884 4426 E8000000 		call	__cxa_end_catch@PLT
 7884      00
 7885 442b 4889D8   		movq	%rbx, %rax
 7886 442e 4889C7   		movq	%rax, %rdi
 7887              	.LEHB373:
 7888 4431 E8000000 		call	_Unwind_Resume@PLT
 7888      00
 7889              	.LEHE373:
 7890              	.L498:
 7891 4436 F30F1EFA 		endbr64
 267:testCore.cpp  **** 	CHECK_EQUAL(offset, queue.putIndex);
 7892              		.loc 3 267 2 is_stmt 1
 7893 443a 4889C7   		movq	%rax, %rdi
 7894 443d E8000000 		call	__cxa_begin_catch@PLT
 7894      00
 7895              	.LEHB374:
 7896 4442 E8000000 		call	_ZN8UnitTest11CurrentTest7ResultsEv@PLT
 7896      00
 267:testCore.cpp  **** 	CHECK_EQUAL(offset, queue.putIndex);
 7897              		.loc 3 267 2 is_stmt 0 discriminator 3
 7898 4447 488B18   		movq	(%rax), %rbx
 7899 444a E8000000 		call	_ZN8UnitTest11CurrentTest7DetailsEv@PLT
 7899      00
 267:testCore.cpp  **** 	CHECK_EQUAL(offset, queue.putIndex);
 7900              		.loc 3 267 2 discriminator 11
 7901 444f 488B08   		movq	(%rax), %rcx
 7902 4452 488D4590 		leaq	-112(%rbp), %rax
 7903 4456 BA0B0100 		movl	$267, %edx
 7903      00
 7904 445b 4889CE   		movq	%rcx, %rsi
 7905 445e 4889C7   		movq	%rax, %rdi
 7906 4461 E8000000 		call	_ZN8UnitTest11TestDetailsC1ERKS0_i@PLT
 7906      00
 267:testCore.cpp  **** 	CHECK_EQUAL(offset, queue.putIndex);
 7907              		.loc 3 267 2 discriminator 15
 7908 4466 488D4590 		leaq	-112(%rbp), %rax
 7909 446a 488D1500 		leaq	.LC4(%rip), %rdx
 7909      000000
 7910 4471 4889C6   		movq	%rax, %rsi
 7911 4474 4889DF   		movq	%rbx, %rdi
 7912 4477 E8000000 		call	_ZN8UnitTest11TestResults13OnTestFailureERKNS_11TestDetailsEPKc@PLT
 7912      00
 7913              	.LEHE374:
 7914              	.LEHB375:
 267:testCore.cpp  **** 	CHECK_EQUAL(offset, queue.putIndex);
 7915              		.loc 3 267 2 discriminator 17
 7916 447c E8000000 		call	__cxa_end_catch@PLT
 7916      00
 7917              	.LEHE375:
 7918 4481 E9A1F2FF 		jmp	.L393
 7918      FF
 7919              	.L499:
 7920 4486 F30F1EFA 		endbr64
 267:testCore.cpp  **** 	CHECK_EQUAL(offset, queue.putIndex);
 7921              		.loc 3 267 2
 7922 448a 4889C3   		movq	%rax, %rbx
 7923 448d E8000000 		call	__cxa_end_catch@PLT
 7923      00
 7924 4492 4889D8   		movq	%rbx, %rax
 7925 4495 4889C7   		movq	%rax, %rdi
 7926              	.LEHB376:
 7927 4498 E8000000 		call	_Unwind_Resume@PLT
 7927      00
 7928              	.LEHE376:
 7929              	.L500:
 7930 449d F30F1EFA 		endbr64
 268:testCore.cpp  **** 	CHECK_EQUAL(offset, queue.takeIndex);
 7931              		.loc 3 268 2 is_stmt 1
 7932 44a1 4889C7   		movq	%rax, %rdi
 7933 44a4 E8000000 		call	__cxa_begin_catch@PLT
 7933      00
 7934              	.LEHB377:
 7935 44a9 E8000000 		call	_ZN8UnitTest11CurrentTest7ResultsEv@PLT
 7935      00
 268:testCore.cpp  **** 	CHECK_EQUAL(offset, queue.takeIndex);
 7936              		.loc 3 268 2 is_stmt 0 discriminator 3
 7937 44ae 488B18   		movq	(%rax), %rbx
 7938 44b1 E8000000 		call	_ZN8UnitTest11CurrentTest7DetailsEv@PLT
 7938      00
 268:testCore.cpp  **** 	CHECK_EQUAL(offset, queue.takeIndex);
 7939              		.loc 3 268 2 discriminator 11
 7940 44b6 488B08   		movq	(%rax), %rcx
 7941 44b9 488D4590 		leaq	-112(%rbp), %rax
 7942 44bd BA0C0100 		movl	$268, %edx
 7942      00
 7943 44c2 4889CE   		movq	%rcx, %rsi
 7944 44c5 4889C7   		movq	%rax, %rdi
 7945 44c8 E8000000 		call	_ZN8UnitTest11TestDetailsC1ERKS0_i@PLT
 7945      00
 268:testCore.cpp  **** 	CHECK_EQUAL(offset, queue.takeIndex);
 7946              		.loc 3 268 2 discriminator 15
 7947 44cd 488D4590 		leaq	-112(%rbp), %rax
 7948 44d1 488D1500 		leaq	.LC34(%rip), %rdx
 7948      000000
 7949 44d8 4889C6   		movq	%rax, %rsi
 7950 44db 4889DF   		movq	%rbx, %rdi
 7951 44de E8000000 		call	_ZN8UnitTest11TestResults13OnTestFailureERKNS_11TestDetailsEPKc@PLT
 7951      00
 7952              	.LEHE377:
 7953              	.LEHB378:
 268:testCore.cpp  **** 	CHECK_EQUAL(offset, queue.takeIndex);
 7954              		.loc 3 268 2 discriminator 17
 7955 44e3 E8000000 		call	__cxa_end_catch@PLT
 7955      00
 7956              	.LEHE378:
 7957 44e8 E97FF2FF 		jmp	.L396
 7957      FF
 7958              	.L501:
 7959 44ed F30F1EFA 		endbr64
 268:testCore.cpp  **** 	CHECK_EQUAL(offset, queue.takeIndex);
 7960              		.loc 3 268 2
 7961 44f1 4889C3   		movq	%rax, %rbx
 7962 44f4 E8000000 		call	__cxa_end_catch@PLT
 7962      00
 7963 44f9 4889D8   		movq	%rbx, %rax
 7964 44fc 4889C7   		movq	%rax, %rdi
 7965              	.LEHB379:
 7966 44ff E8000000 		call	_Unwind_Resume@PLT
 7966      00
 7967              	.LEHE379:
 7968              	.L502:
 7969 4504 F30F1EFA 		endbr64
 269:testCore.cpp  **** 	CHECK_EQUAL(4UL, queue.numItems);
 7970              		.loc 3 269 2 is_stmt 1
 7971 4508 4889C7   		movq	%rax, %rdi
 7972 450b E8000000 		call	__cxa_begin_catch@PLT
 7972      00
 7973              	.LEHB380:
 7974 4510 E8000000 		call	_ZN8UnitTest11CurrentTest7ResultsEv@PLT
 7974      00
 269:testCore.cpp  **** 	CHECK_EQUAL(4UL, queue.numItems);
 7975              		.loc 3 269 2 is_stmt 0 discriminator 3
 7976 4515 488B18   		movq	(%rax), %rbx
 7977 4518 E8000000 		call	_ZN8UnitTest11CurrentTest7DetailsEv@PLT
 7977      00
 269:testCore.cpp  **** 	CHECK_EQUAL(4UL, queue.numItems);
 7978              		.loc 3 269 2 discriminator 11
 7979 451d 488B08   		movq	(%rax), %rcx
 7980 4520 488D4590 		leaq	-112(%rbp), %rax
 7981 4524 BA0D0100 		movl	$269, %edx
 7981      00
 7982 4529 4889CE   		movq	%rcx, %rsi
 7983 452c 4889C7   		movq	%rax, %rdi
 7984 452f E8000000 		call	_ZN8UnitTest11TestDetailsC1ERKS0_i@PLT
 7984      00
 269:testCore.cpp  **** 	CHECK_EQUAL(4UL, queue.numItems);
 7985              		.loc 3 269 2 discriminator 15
 7986 4534 488D4590 		leaq	-112(%rbp), %rax
 7987 4538 488D1500 		leaq	.LC35(%rip), %rdx
 7987      000000
 7988 453f 4889C6   		movq	%rax, %rsi
 7989 4542 4889DF   		movq	%rbx, %rdi
 7990 4545 E8000000 		call	_ZN8UnitTest11TestResults13OnTestFailureERKNS_11TestDetailsEPKc@PLT
 7990      00
 7991              	.LEHE380:
 7992              	.LEHB381:
 269:testCore.cpp  **** 	CHECK_EQUAL(4UL, queue.numItems);
 7993              		.loc 3 269 2 discriminator 17
 7994 454a E8000000 		call	__cxa_end_catch@PLT
 7994      00
 7995              	.LEHE381:
 7996 454f E95DF2FF 		jmp	.L399
 7996      FF
 7997              	.L503:
 7998 4554 F30F1EFA 		endbr64
 269:testCore.cpp  **** 	CHECK_EQUAL(4UL, queue.numItems);
 7999              		.loc 3 269 2
 8000 4558 4889C3   		movq	%rax, %rbx
 8001 455b E8000000 		call	__cxa_end_catch@PLT
 8001      00
 8002 4560 4889D8   		movq	%rbx, %rax
 8003 4563 4889C7   		movq	%rax, %rdi
 8004              	.LEHB382:
 8005 4566 E8000000 		call	_Unwind_Resume@PLT
 8005      00
 8006              	.LEHE382:
 8007              	.L504:
 8008 456b F30F1EFA 		endbr64
 270:testCore.cpp  **** 
 8009              		.loc 3 270 2 is_stmt 1
 8010 456f 4889C7   		movq	%rax, %rdi
 8011 4572 E8000000 		call	__cxa_begin_catch@PLT
 8011      00
 8012              	.LEHB383:
 8013 4577 E8000000 		call	_ZN8UnitTest11CurrentTest7ResultsEv@PLT
 8013      00
 270:testCore.cpp  **** 
 8014              		.loc 3 270 2 is_stmt 0 discriminator 3
 8015 457c 488B18   		movq	(%rax), %rbx
 8016 457f E8000000 		call	_ZN8UnitTest11CurrentTest7DetailsEv@PLT
 8016      00
 270:testCore.cpp  **** 
 8017              		.loc 3 270 2 discriminator 11
 8018 4584 488B08   		movq	(%rax), %rcx
 8019 4587 488D4590 		leaq	-112(%rbp), %rax
 8020 458b BA0E0100 		movl	$270, %edx
 8020      00
 8021 4590 4889CE   		movq	%rcx, %rsi
 8022 4593 4889C7   		movq	%rax, %rdi
 8023 4596 E8000000 		call	_ZN8UnitTest11TestDetailsC1ERKS0_i@PLT
 8023      00
 270:testCore.cpp  **** 
 8024              		.loc 3 270 2 discriminator 15
 8025 459b 488D4590 		leaq	-112(%rbp), %rax
 8026 459f 488D1500 		leaq	.LC23(%rip), %rdx
 8026      000000
 8027 45a6 4889C6   		movq	%rax, %rsi
 8028 45a9 4889DF   		movq	%rbx, %rdi
 8029 45ac E8000000 		call	_ZN8UnitTest11TestResults13OnTestFailureERKNS_11TestDetailsEPKc@PLT
 8029      00
 8030              	.LEHE383:
 8031              	.LEHB384:
 270:testCore.cpp  **** 
 8032              		.loc 3 270 2 discriminator 17
 8033 45b1 E8000000 		call	__cxa_end_catch@PLT
 8033      00
 8034              	.LEHE384:
 8035 45b6 E940F2FF 		jmp	.L402
 8035      FF
 8036              	.L505:
 8037 45bb F30F1EFA 		endbr64
 270:testCore.cpp  **** 
 8038              		.loc 3 270 2
 8039 45bf 4889C3   		movq	%rax, %rbx
 8040 45c2 E8000000 		call	__cxa_end_catch@PLT
 8040      00
 8041 45c7 4889D8   		movq	%rbx, %rax
 8042 45ca 4889C7   		movq	%rax, %rdi
 8043              	.LEHB385:
 8044 45cd E8000000 		call	_Unwind_Resume@PLT
 8044      00
 8045              	.LEHE385:
 8046              	.L506:
 8047 45d2 F30F1EFA 		endbr64
 274:testCore.cpp  **** 	CHECK_EQUAL(5UL, *item);
 8048              		.loc 3 274 2 is_stmt 1
 8049 45d6 4889C7   		movq	%rax, %rdi
 8050 45d9 E8000000 		call	__cxa_begin_catch@PLT
 8050      00
 8051              	.LEHB386:
 8052 45de E8000000 		call	_ZN8UnitTest11CurrentTest7ResultsEv@PLT
 8052      00
 274:testCore.cpp  **** 	CHECK_EQUAL(5UL, *item);
 8053              		.loc 3 274 2 is_stmt 0 discriminator 3
 8054 45e3 488B18   		movq	(%rax), %rbx
 8055 45e6 E8000000 		call	_ZN8UnitTest11CurrentTest7DetailsEv@PLT
 8055      00
 274:testCore.cpp  **** 	CHECK_EQUAL(5UL, *item);
 8056              		.loc 3 274 2 discriminator 11
 8057 45eb 488B08   		movq	(%rax), %rcx
 8058 45ee 488D4590 		leaq	-112(%rbp), %rax
 8059 45f2 BA120100 		movl	$274, %edx
 8059      00
 8060 45f7 4889CE   		movq	%rcx, %rsi
 8061 45fa 4889C7   		movq	%rax, %rdi
 8062 45fd E8000000 		call	_ZN8UnitTest11TestDetailsC1ERKS0_i@PLT
 8062      00
 274:testCore.cpp  **** 	CHECK_EQUAL(5UL, *item);
 8063              		.loc 3 274 2 discriminator 15
 8064 4602 488D4590 		leaq	-112(%rbp), %rax
 8065 4606 488D1500 		leaq	.LC3(%rip), %rdx
 8065      000000
 8066 460d 4889C6   		movq	%rax, %rsi
 8067 4610 4889DF   		movq	%rbx, %rdi
 8068 4613 E8000000 		call	_ZN8UnitTest11TestResults13OnTestFailureERKNS_11TestDetailsEPKc@PLT
 8068      00
 8069              	.LEHE386:
 8070              	.LEHB387:
 274:testCore.cpp  **** 	CHECK_EQUAL(5UL, *item);
 8071              		.loc 3 274 2 discriminator 17
 8072 4618 E8000000 		call	__cxa_end_catch@PLT
 8072      00
 8073              	.LEHE387:
 8074 461d E934F2FF 		jmp	.L405
 8074      FF
 8075              	.L507:
 8076 4622 F30F1EFA 		endbr64
 274:testCore.cpp  **** 	CHECK_EQUAL(5UL, *item);
 8077              		.loc 3 274 2
 8078 4626 4889C3   		movq	%rax, %rbx
 8079 4629 E8000000 		call	__cxa_end_catch@PLT
 8079      00
 8080 462e 4889D8   		movq	%rbx, %rax
 8081 4631 4889C7   		movq	%rax, %rdi
 8082              	.LEHB388:
 8083 4634 E8000000 		call	_Unwind_Resume@PLT
 8083      00
 8084              	.LEHE388:
 8085              	.L508:
 8086 4639 F30F1EFA 		endbr64
 275:testCore.cpp  **** 	*item = 104;
 8087              		.loc 3 275 2 is_stmt 1
 8088 463d 4889C7   		movq	%rax, %rdi
 8089 4640 E8000000 		call	__cxa_begin_catch@PLT
 8089      00
 8090              	.LEHB389:
 8091 4645 E8000000 		call	_ZN8UnitTest11CurrentTest7ResultsEv@PLT
 8091      00
 275:testCore.cpp  **** 	*item = 104;
 8092              		.loc 3 275 2 is_stmt 0 discriminator 3
 8093 464a 488B18   		movq	(%rax), %rbx
 8094 464d E8000000 		call	_ZN8UnitTest11CurrentTest7DetailsEv@PLT
 8094      00
 275:testCore.cpp  **** 	*item = 104;
 8095              		.loc 3 275 2 discriminator 11
 8096 4652 488B08   		movq	(%rax), %rcx
 8097 4655 488D4590 		leaq	-112(%rbp), %rax
 8098 4659 BA130100 		movl	$275, %edx
 8098      00
 8099 465e 4889CE   		movq	%rcx, %rsi
 8100 4661 4889C7   		movq	%rax, %rdi
 8101 4664 E8000000 		call	_ZN8UnitTest11TestDetailsC1ERKS0_i@PLT
 8101      00
 275:testCore.cpp  **** 	*item = 104;
 8102              		.loc 3 275 2 discriminator 15
 8103 4669 488D4590 		leaq	-112(%rbp), %rax
 8104 466d 488D1500 		leaq	.LC26(%rip), %rdx
 8104      000000
 8105 4674 4889C6   		movq	%rax, %rsi
 8106 4677 4889DF   		movq	%rbx, %rdi
 8107 467a E8000000 		call	_ZN8UnitTest11TestResults13OnTestFailureERKNS_11TestDetailsEPKc@PLT
 8107      00
 8108              	.LEHE389:
 8109              	.LEHB390:
 275:testCore.cpp  **** 	*item = 104;
 8110              		.loc 3 275 2 discriminator 17
 8111 467f E8000000 		call	__cxa_end_catch@PLT
 8111      00
 8112              	.LEHE390:
 8113 4684 E913F2FF 		jmp	.L408
 8113      FF
 8114              	.L509:
 8115 4689 F30F1EFA 		endbr64
 275:testCore.cpp  **** 	*item = 104;
 8116              		.loc 3 275 2
 8117 468d 4889C3   		movq	%rax, %rbx
 8118 4690 E8000000 		call	__cxa_end_catch@PLT
 8118      00
 8119 4695 4889D8   		movq	%rbx, %rax
 8120 4698 4889C7   		movq	%rax, %rdi
 8121              	.LEHB391:
 8122 469b E8000000 		call	_Unwind_Resume@PLT
 8122      00
 8123              	.LEHE391:
 8124              	.L510:
 8125 46a0 F30F1EFA 		endbr64
 280:testCore.cpp  **** 	CHECK_EQUAL(5UL, queue.putIndex);
 8126              		.loc 3 280 2 is_stmt 1
 8127 46a4 4889C7   		movq	%rax, %rdi
 8128 46a7 E8000000 		call	__cxa_begin_catch@PLT
 8128      00
 8129              	.LEHB392:
 8130 46ac E8000000 		call	_ZN8UnitTest11CurrentTest7ResultsEv@PLT
 8130      00
 280:testCore.cpp  **** 	CHECK_EQUAL(5UL, queue.putIndex);
 8131              		.loc 3 280 2 is_stmt 0 discriminator 3
 8132 46b1 488B18   		movq	(%rax), %rbx
 8133 46b4 E8000000 		call	_ZN8UnitTest11CurrentTest7DetailsEv@PLT
 8133      00
 280:testCore.cpp  **** 	CHECK_EQUAL(5UL, queue.putIndex);
 8134              		.loc 3 280 2 discriminator 11
 8135 46b9 488B08   		movq	(%rax), %rcx
 8136 46bc 488D4590 		leaq	-112(%rbp), %rax
 8137 46c0 BA180100 		movl	$280, %edx
 8137      00
 8138 46c5 4889CE   		movq	%rcx, %rsi
 8139 46c8 4889C7   		movq	%rax, %rdi
 8140 46cb E8000000 		call	_ZN8UnitTest11TestDetailsC1ERKS0_i@PLT
 8140      00
 280:testCore.cpp  **** 	CHECK_EQUAL(5UL, queue.putIndex);
 8141              		.loc 3 280 2 discriminator 15
 8142 46d0 488D4590 		leaq	-112(%rbp), %rax
 8143 46d4 488D1500 		leaq	.LC36(%rip), %rdx
 8143      000000
 8144 46db 4889C6   		movq	%rax, %rsi
 8145 46de 4889DF   		movq	%rbx, %rdi
 8146 46e1 E8000000 		call	_ZN8UnitTest11TestResults13OnTestFailureERKNS_11TestDetailsEPKc@PLT
 8146      00
 8147              	.LEHE392:
 8148              	.LEHB393:
 280:testCore.cpp  **** 	CHECK_EQUAL(5UL, queue.putIndex);
 8149              		.loc 3 280 2 discriminator 17
 8150 46e6 E8000000 		call	__cxa_end_catch@PLT
 8150      00
 8151              	.LEHE393:
 8152 46eb E90CF2FF 		jmp	.L411
 8152      FF
 8153              	.L511:
 8154 46f0 F30F1EFA 		endbr64
 280:testCore.cpp  **** 	CHECK_EQUAL(5UL, queue.putIndex);
 8155              		.loc 3 280 2
 8156 46f4 4889C3   		movq	%rax, %rbx
 8157 46f7 E8000000 		call	__cxa_end_catch@PLT
 8157      00
 8158 46fc 4889D8   		movq	%rbx, %rax
 8159 46ff 4889C7   		movq	%rax, %rdi
 8160              	.LEHB394:
 8161 4702 E8000000 		call	_Unwind_Resume@PLT
 8161      00
 8162              	.LEHE394:
 8163              	.L512:
 8164 4707 F30F1EFA 		endbr64
 281:testCore.cpp  **** 	CHECK_EQUAL(0UL, queue.takeIndex);
 8165              		.loc 3 281 2 is_stmt 1
 8166 470b 4889C7   		movq	%rax, %rdi
 8167 470e E8000000 		call	__cxa_begin_catch@PLT
 8167      00
 8168              	.LEHB395:
 8169 4713 E8000000 		call	_ZN8UnitTest11CurrentTest7ResultsEv@PLT
 8169      00
 281:testCore.cpp  **** 	CHECK_EQUAL(0UL, queue.takeIndex);
 8170              		.loc 3 281 2 is_stmt 0 discriminator 3
 8171 4718 488B18   		movq	(%rax), %rbx
 8172 471b E8000000 		call	_ZN8UnitTest11CurrentTest7DetailsEv@PLT
 8172      00
 281:testCore.cpp  **** 	CHECK_EQUAL(0UL, queue.takeIndex);
 8173              		.loc 3 281 2 discriminator 11
 8174 4720 488B08   		movq	(%rax), %rcx
 8175 4723 488D4590 		leaq	-112(%rbp), %rax
 8176 4727 BA190100 		movl	$281, %edx
 8176      00
 8177 472c 4889CE   		movq	%rcx, %rsi
 8178 472f 4889C7   		movq	%rax, %rdi
 8179 4732 E8000000 		call	_ZN8UnitTest11TestDetailsC1ERKS0_i@PLT
 8179      00
 281:testCore.cpp  **** 	CHECK_EQUAL(0UL, queue.takeIndex);
 8180              		.loc 3 281 2 discriminator 15
 8181 4737 488D4590 		leaq	-112(%rbp), %rax
 8182 473b 488D1500 		leaq	.LC37(%rip), %rdx
 8182      000000
 8183 4742 4889C6   		movq	%rax, %rsi
 8184 4745 4889DF   		movq	%rbx, %rdi
 8185 4748 E8000000 		call	_ZN8UnitTest11TestResults13OnTestFailureERKNS_11TestDetailsEPKc@PLT
 8185      00
 8186              	.LEHE395:
 8187              	.LEHB396:
 281:testCore.cpp  **** 	CHECK_EQUAL(0UL, queue.takeIndex);
 8188              		.loc 3 281 2 discriminator 17
 8189 474d E8000000 		call	__cxa_end_catch@PLT
 8189      00
 8190              	.LEHE396:
 8191 4752 E9EFF1FF 		jmp	.L414
 8191      FF
 8192              	.L513:
 8193 4757 F30F1EFA 		endbr64
 281:testCore.cpp  **** 	CHECK_EQUAL(0UL, queue.takeIndex);
 8194              		.loc 3 281 2
 8195 475b 4889C3   		movq	%rax, %rbx
 8196 475e E8000000 		call	__cxa_end_catch@PLT
 8196      00
 8197 4763 4889D8   		movq	%rbx, %rax
 8198 4766 4889C7   		movq	%rax, %rdi
 8199              	.LEHB397:
 8200 4769 E8000000 		call	_Unwind_Resume@PLT
 8200      00
 8201              	.LEHE397:
 8202              	.L514:
 8203 476e F30F1EFA 		endbr64
 282:testCore.cpp  **** 	CHECK_EQUAL(5UL, queue.numItems);
 8204              		.loc 3 282 2 is_stmt 1
 8205 4772 4889C7   		movq	%rax, %rdi
 8206 4775 E8000000 		call	__cxa_begin_catch@PLT
 8206      00
 8207              	.LEHB398:
 8208 477a E8000000 		call	_ZN8UnitTest11CurrentTest7ResultsEv@PLT
 8208      00
 282:testCore.cpp  **** 	CHECK_EQUAL(5UL, queue.numItems);
 8209              		.loc 3 282 2 is_stmt 0 discriminator 3
 8210 477f 488B18   		movq	(%rax), %rbx
 8211 4782 E8000000 		call	_ZN8UnitTest11CurrentTest7DetailsEv@PLT
 8211      00
 282:testCore.cpp  **** 	CHECK_EQUAL(5UL, queue.numItems);
 8212              		.loc 3 282 2 discriminator 11
 8213 4787 488B08   		movq	(%rax), %rcx
 8214 478a 488D4590 		leaq	-112(%rbp), %rax
 8215 478e BA1A0100 		movl	$282, %edx
 8215      00
 8216 4793 4889CE   		movq	%rcx, %rsi
 8217 4796 4889C7   		movq	%rax, %rdi
 8218 4799 E8000000 		call	_ZN8UnitTest11TestDetailsC1ERKS0_i@PLT
 8218      00
 282:testCore.cpp  **** 	CHECK_EQUAL(5UL, queue.numItems);
 8219              		.loc 3 282 2 discriminator 15
 8220 479e 488D4590 		leaq	-112(%rbp), %rax
 8221 47a2 488D1500 		leaq	.LC6(%rip), %rdx
 8221      000000
 8222 47a9 4889C6   		movq	%rax, %rsi
 8223 47ac 4889DF   		movq	%rbx, %rdi
 8224 47af E8000000 		call	_ZN8UnitTest11TestResults13OnTestFailureERKNS_11TestDetailsEPKc@PLT
 8224      00
 8225              	.LEHE398:
 8226              	.LEHB399:
 282:testCore.cpp  **** 	CHECK_EQUAL(5UL, queue.numItems);
 8227              		.loc 3 282 2 discriminator 17
 8228 47b4 E8000000 		call	__cxa_end_catch@PLT
 8228      00
 8229              	.LEHE399:
 8230 47b9 E9D2F1FF 		jmp	.L417
 8230      FF
 8231              	.L515:
 8232 47be F30F1EFA 		endbr64
 282:testCore.cpp  **** 	CHECK_EQUAL(5UL, queue.numItems);
 8233              		.loc 3 282 2
 8234 47c2 4889C3   		movq	%rax, %rbx
 8235 47c5 E8000000 		call	__cxa_end_catch@PLT
 8235      00
 8236 47ca 4889D8   		movq	%rbx, %rax
 8237 47cd 4889C7   		movq	%rax, %rdi
 8238              	.LEHB400:
 8239 47d0 E8000000 		call	_Unwind_Resume@PLT
 8239      00
 8240              	.LEHE400:
 8241              	.L516:
 8242 47d5 F30F1EFA 		endbr64
 283:testCore.cpp  **** 
 8243              		.loc 3 283 2 is_stmt 1
 8244 47d9 4889C7   		movq	%rax, %rdi
 8245 47dc E8000000 		call	__cxa_begin_catch@PLT
 8245      00
 8246              	.LEHB401:
 8247 47e1 E8000000 		call	_ZN8UnitTest11CurrentTest7ResultsEv@PLT
 8247      00
 283:testCore.cpp  **** 
 8248              		.loc 3 283 2 is_stmt 0 discriminator 3
 8249 47e6 488B18   		movq	(%rax), %rbx
 8250 47e9 E8000000 		call	_ZN8UnitTest11CurrentTest7DetailsEv@PLT
 8250      00
 283:testCore.cpp  **** 
 8251              		.loc 3 283 2 discriminator 11
 8252 47ee 488B08   		movq	(%rax), %rcx
 8253 47f1 488D4590 		leaq	-112(%rbp), %rax
 8254 47f5 BA1B0100 		movl	$283, %edx
 8254      00
 8255 47fa 4889CE   		movq	%rcx, %rsi
 8256 47fd 4889C7   		movq	%rax, %rdi
 8257 4800 E8000000 		call	_ZN8UnitTest11TestDetailsC1ERKS0_i@PLT
 8257      00
 283:testCore.cpp  **** 
 8258              		.loc 3 283 2 discriminator 15
 8259 4805 488D4590 		leaq	-112(%rbp), %rax
 8260 4809 488D1500 		leaq	.LC38(%rip), %rdx
 8260      000000
 8261 4810 4889C6   		movq	%rax, %rsi
 8262 4813 4889DF   		movq	%rbx, %rdi
 8263 4816 E8000000 		call	_ZN8UnitTest11TestResults13OnTestFailureERKNS_11TestDetailsEPKc@PLT
 8263      00
 8264              	.LEHE401:
 8265              	.LEHB402:
 283:testCore.cpp  **** 
 8266              		.loc 3 283 2 discriminator 17
 8267 481b E8000000 		call	__cxa_end_catch@PLT
 8267      00
 8268              	.LEHE402:
 8269 4820 E9B5F1FF 		jmp	.L420
 8269      FF
 8270              	.L517:
 8271 4825 F30F1EFA 		endbr64
 283:testCore.cpp  **** 
 8272              		.loc 3 283 2
 8273 4829 4889C3   		movq	%rax, %rbx
 8274 482c E8000000 		call	__cxa_end_catch@PLT
 8274      00
 8275 4831 4889D8   		movq	%rbx, %rax
 8276 4834 4889C7   		movq	%rax, %rdi
 8277              	.LEHB403:
 8278 4837 E8000000 		call	_Unwind_Resume@PLT
 8278      00
 8279              	.LEHE403:
 8280              	.L518:
 8281 483c F30F1EFA 		endbr64
 286:testCore.cpp  **** 	CHECK_EQUAL(101UL, deref(queue.itemArray[1]));
 8282              		.loc 3 286 2 is_stmt 1
 8283 4840 4889C7   		movq	%rax, %rdi
 8284 4843 E8000000 		call	__cxa_begin_catch@PLT
 8284      00
 8285              	.LEHB404:
 8286 4848 E8000000 		call	_ZN8UnitTest11CurrentTest7ResultsEv@PLT
 8286      00
 286:testCore.cpp  **** 	CHECK_EQUAL(101UL, deref(queue.itemArray[1]));
 8287              		.loc 3 286 2 is_stmt 0 discriminator 3
 8288 484d 488B18   		movq	(%rax), %rbx
 8289 4850 E8000000 		call	_ZN8UnitTest11CurrentTest7DetailsEv@PLT
 8289      00
 286:testCore.cpp  **** 	CHECK_EQUAL(101UL, deref(queue.itemArray[1]));
 8290              		.loc 3 286 2 discriminator 11
 8291 4855 488B08   		movq	(%rax), %rcx
 8292 4858 488D4590 		leaq	-112(%rbp), %rax
 8293 485c BA1E0100 		movl	$286, %edx
 8293      00
 8294 4861 4889CE   		movq	%rcx, %rsi
 8295 4864 4889C7   		movq	%rax, %rdi
 8296 4867 E8000000 		call	_ZN8UnitTest11TestDetailsC1ERKS0_i@PLT
 8296      00
 286:testCore.cpp  **** 	CHECK_EQUAL(101UL, deref(queue.itemArray[1]));
 8297              		.loc 3 286 2 discriminator 15
 8298 486c 488D4590 		leaq	-112(%rbp), %rax
 8299 4870 488D1500 		leaq	.LC39(%rip), %rdx
 8299      000000
 8300 4877 4889C6   		movq	%rax, %rsi
 8301 487a 4889DF   		movq	%rbx, %rdi
 8302 487d E8000000 		call	_ZN8UnitTest11TestResults13OnTestFailureERKNS_11TestDetailsEPKc@PLT
 8302      00
 8303              	.LEHE404:
 8304              	.LEHB405:
 286:testCore.cpp  **** 	CHECK_EQUAL(101UL, deref(queue.itemArray[1]));
 8305              		.loc 3 286 2 discriminator 17
 8306 4882 E8000000 		call	__cxa_end_catch@PLT
 8306      00
 8307              	.LEHE405:
 8308 4887 E9A6F1FF 		jmp	.L423
 8308      FF
 8309              	.L519:
 8310 488c F30F1EFA 		endbr64
 286:testCore.cpp  **** 	CHECK_EQUAL(101UL, deref(queue.itemArray[1]));
 8311              		.loc 3 286 2
 8312 4890 4889C3   		movq	%rax, %rbx
 8313 4893 E8000000 		call	__cxa_end_catch@PLT
 8313      00
 8314 4898 4889D8   		movq	%rbx, %rax
 8315 489b 4889C7   		movq	%rax, %rdi
 8316              	.LEHB406:
 8317 489e E8000000 		call	_Unwind_Resume@PLT
 8317      00
 8318              	.LEHE406:
 8319              	.L520:
 8320 48a3 F30F1EFA 		endbr64
 287:testCore.cpp  **** 	CHECK_EQUAL(102UL, deref(queue.itemArray[2]));
 8321              		.loc 3 287 2 is_stmt 1
 8322 48a7 4889C7   		movq	%rax, %rdi
 8323 48aa E8000000 		call	__cxa_begin_catch@PLT
 8323      00
 8324              	.LEHB407:
 8325 48af E8000000 		call	_ZN8UnitTest11CurrentTest7ResultsEv@PLT
 8325      00
 287:testCore.cpp  **** 	CHECK_EQUAL(102UL, deref(queue.itemArray[2]));
 8326              		.loc 3 287 2 is_stmt 0 discriminator 3
 8327 48b4 488B18   		movq	(%rax), %rbx
 8328 48b7 E8000000 		call	_ZN8UnitTest11CurrentTest7DetailsEv@PLT
 8328      00
 287:testCore.cpp  **** 	CHECK_EQUAL(102UL, deref(queue.itemArray[2]));
 8329              		.loc 3 287 2 discriminator 11
 8330 48bc 488B08   		movq	(%rax), %rcx
 8331 48bf 488D4590 		leaq	-112(%rbp), %rax
 8332 48c3 BA1F0100 		movl	$287, %edx
 8332      00
 8333 48c8 4889CE   		movq	%rcx, %rsi
 8334 48cb 4889C7   		movq	%rax, %rdi
 8335 48ce E8000000 		call	_ZN8UnitTest11TestDetailsC1ERKS0_i@PLT
 8335      00
 287:testCore.cpp  **** 	CHECK_EQUAL(102UL, deref(queue.itemArray[2]));
 8336              		.loc 3 287 2 discriminator 15
 8337 48d3 488D4590 		leaq	-112(%rbp), %rax
 8338 48d7 488D1500 		leaq	.LC40(%rip), %rdx
 8338      000000
 8339 48de 4889C6   		movq	%rax, %rsi
 8340 48e1 4889DF   		movq	%rbx, %rdi
 8341 48e4 E8000000 		call	_ZN8UnitTest11TestResults13OnTestFailureERKNS_11TestDetailsEPKc@PLT
 8341      00
 8342              	.LEHE407:
 8343              	.LEHB408:
 287:testCore.cpp  **** 	CHECK_EQUAL(102UL, deref(queue.itemArray[2]));
 8344              		.loc 3 287 2 discriminator 17
 8345 48e9 E8000000 		call	__cxa_end_catch@PLT
 8345      00
 8346              	.LEHE408:
 8347 48ee E99BF1FF 		jmp	.L426
 8347      FF
 8348              	.L521:
 8349 48f3 F30F1EFA 		endbr64
 287:testCore.cpp  **** 	CHECK_EQUAL(102UL, deref(queue.itemArray[2]));
 8350              		.loc 3 287 2
 8351 48f7 4889C3   		movq	%rax, %rbx
 8352 48fa E8000000 		call	__cxa_end_catch@PLT
 8352      00
 8353 48ff 4889D8   		movq	%rbx, %rax
 8354 4902 4889C7   		movq	%rax, %rdi
 8355              	.LEHB409:
 8356 4905 E8000000 		call	_Unwind_Resume@PLT
 8356      00
 8357              	.LEHE409:
 8358              	.L522:
 8359 490a F30F1EFA 		endbr64
 288:testCore.cpp  **** 	CHECK_EQUAL(103UL, deref(queue.itemArray[3]));
 8360              		.loc 3 288 2 is_stmt 1
 8361 490e 4889C7   		movq	%rax, %rdi
 8362 4911 E8000000 		call	__cxa_begin_catch@PLT
 8362      00
 8363              	.LEHB410:
 8364 4916 E8000000 		call	_ZN8UnitTest11CurrentTest7ResultsEv@PLT
 8364      00
 288:testCore.cpp  **** 	CHECK_EQUAL(103UL, deref(queue.itemArray[3]));
 8365              		.loc 3 288 2 is_stmt 0 discriminator 3
 8366 491b 488B18   		movq	(%rax), %rbx
 8367 491e E8000000 		call	_ZN8UnitTest11CurrentTest7DetailsEv@PLT
 8367      00
 288:testCore.cpp  **** 	CHECK_EQUAL(103UL, deref(queue.itemArray[3]));
 8368              		.loc 3 288 2 discriminator 11
 8369 4923 488B08   		movq	(%rax), %rcx
 8370 4926 488D4590 		leaq	-112(%rbp), %rax
 8371 492a BA200100 		movl	$288, %edx
 8371      00
 8372 492f 4889CE   		movq	%rcx, %rsi
 8373 4932 4889C7   		movq	%rax, %rdi
 8374 4935 E8000000 		call	_ZN8UnitTest11TestDetailsC1ERKS0_i@PLT
 8374      00
 288:testCore.cpp  **** 	CHECK_EQUAL(103UL, deref(queue.itemArray[3]));
 8375              		.loc 3 288 2 discriminator 15
 8376 493a 488D4590 		leaq	-112(%rbp), %rax
 8377 493e 488D1500 		leaq	.LC41(%rip), %rdx
 8377      000000
 8378 4945 4889C6   		movq	%rax, %rsi
 8379 4948 4889DF   		movq	%rbx, %rdi
 8380 494b E8000000 		call	_ZN8UnitTest11TestResults13OnTestFailureERKNS_11TestDetailsEPKc@PLT
 8380      00
 8381              	.LEHE410:
 8382              	.LEHB411:
 288:testCore.cpp  **** 	CHECK_EQUAL(103UL, deref(queue.itemArray[3]));
 8383              		.loc 3 288 2 discriminator 17
 8384 4950 E8000000 		call	__cxa_end_catch@PLT
 8384      00
 8385              	.LEHE411:
 8386 4955 E990F1FF 		jmp	.L429
 8386      FF
 8387              	.L523:
 8388 495a F30F1EFA 		endbr64
 288:testCore.cpp  **** 	CHECK_EQUAL(103UL, deref(queue.itemArray[3]));
 8389              		.loc 3 288 2
 8390 495e 4889C3   		movq	%rax, %rbx
 8391 4961 E8000000 		call	__cxa_end_catch@PLT
 8391      00
 8392 4966 4889D8   		movq	%rbx, %rax
 8393 4969 4889C7   		movq	%rax, %rdi
 8394              	.LEHB412:
 8395 496c E8000000 		call	_Unwind_Resume@PLT
 8395      00
 8396              	.LEHE412:
 8397              	.L524:
 8398 4971 F30F1EFA 		endbr64
 289:testCore.cpp  **** 	CHECK_EQUAL(104UL, deref(queue.itemArray[4]));
 8399              		.loc 3 289 2 is_stmt 1
 8400 4975 4889C7   		movq	%rax, %rdi
 8401 4978 E8000000 		call	__cxa_begin_catch@PLT
 8401      00
 8402              	.LEHB413:
 8403 497d E8000000 		call	_ZN8UnitTest11CurrentTest7ResultsEv@PLT
 8403      00
 289:testCore.cpp  **** 	CHECK_EQUAL(104UL, deref(queue.itemArray[4]));
 8404              		.loc 3 289 2 is_stmt 0 discriminator 3
 8405 4982 488B18   		movq	(%rax), %rbx
 8406 4985 E8000000 		call	_ZN8UnitTest11CurrentTest7DetailsEv@PLT
 8406      00
 289:testCore.cpp  **** 	CHECK_EQUAL(104UL, deref(queue.itemArray[4]));
 8407              		.loc 3 289 2 discriminator 11
 8408 498a 488B08   		movq	(%rax), %rcx
 8409 498d 488D4590 		leaq	-112(%rbp), %rax
 8410 4991 BA210100 		movl	$289, %edx
 8410      00
 8411 4996 4889CE   		movq	%rcx, %rsi
 8412 4999 4889C7   		movq	%rax, %rdi
 8413 499c E8000000 		call	_ZN8UnitTest11TestDetailsC1ERKS0_i@PLT
 8413      00
 289:testCore.cpp  **** 	CHECK_EQUAL(104UL, deref(queue.itemArray[4]));
 8414              		.loc 3 289 2 discriminator 15
 8415 49a1 488D4590 		leaq	-112(%rbp), %rax
 8416 49a5 488D1500 		leaq	.LC42(%rip), %rdx
 8416      000000
 8417 49ac 4889C6   		movq	%rax, %rsi
 8418 49af 4889DF   		movq	%rbx, %rdi
 8419 49b2 E8000000 		call	_ZN8UnitTest11TestResults13OnTestFailureERKNS_11TestDetailsEPKc@PLT
 8419      00
 8420              	.LEHE413:
 8421              	.LEHB414:
 289:testCore.cpp  **** 	CHECK_EQUAL(104UL, deref(queue.itemArray[4]));
 8422              		.loc 3 289 2 discriminator 17
 8423 49b7 E8000000 		call	__cxa_end_catch@PLT
 8423      00
 8424              	.LEHE414:
 8425 49bc E985F1FF 		jmp	.L432
 8425      FF
 8426              	.L525:
 8427 49c1 F30F1EFA 		endbr64
 289:testCore.cpp  **** 	CHECK_EQUAL(104UL, deref(queue.itemArray[4]));
 8428              		.loc 3 289 2
 8429 49c5 4889C3   		movq	%rax, %rbx
 8430 49c8 E8000000 		call	__cxa_end_catch@PLT
 8430      00
 8431 49cd 4889D8   		movq	%rbx, %rax
 8432 49d0 4889C7   		movq	%rax, %rdi
 8433              	.LEHB415:
 8434 49d3 E8000000 		call	_Unwind_Resume@PLT
 8434      00
 8435              	.LEHE415:
 8436              	.L526:
 8437 49d8 F30F1EFA 		endbr64
 290:testCore.cpp  **** 	CHECK_EQUAL(6UL, deref(queue.itemArray[5]));
 8438              		.loc 3 290 2 is_stmt 1
 8439 49dc 4889C7   		movq	%rax, %rdi
 8440 49df E8000000 		call	__cxa_begin_catch@PLT
 8440      00
 8441              	.LEHB416:
 8442 49e4 E8000000 		call	_ZN8UnitTest11CurrentTest7ResultsEv@PLT
 8442      00
 290:testCore.cpp  **** 	CHECK_EQUAL(6UL, deref(queue.itemArray[5]));
 8443              		.loc 3 290 2 is_stmt 0 discriminator 3
 8444 49e9 488B18   		movq	(%rax), %rbx
 8445 49ec E8000000 		call	_ZN8UnitTest11CurrentTest7DetailsEv@PLT
 8445      00
 290:testCore.cpp  **** 	CHECK_EQUAL(6UL, deref(queue.itemArray[5]));
 8446              		.loc 3 290 2 discriminator 11
 8447 49f1 488B08   		movq	(%rax), %rcx
 8448 49f4 488D4590 		leaq	-112(%rbp), %rax
 8449 49f8 BA220100 		movl	$290, %edx
 8449      00
 8450 49fd 4889CE   		movq	%rcx, %rsi
 8451 4a00 4889C7   		movq	%rax, %rdi
 8452 4a03 E8000000 		call	_ZN8UnitTest11TestDetailsC1ERKS0_i@PLT
 8452      00
 290:testCore.cpp  **** 	CHECK_EQUAL(6UL, deref(queue.itemArray[5]));
 8453              		.loc 3 290 2 discriminator 15
 8454 4a08 488D4590 		leaq	-112(%rbp), %rax
 8455 4a0c 488D1500 		leaq	.LC43(%rip), %rdx
 8455      000000
 8456 4a13 4889C6   		movq	%rax, %rsi
 8457 4a16 4889DF   		movq	%rbx, %rdi
 8458 4a19 E8000000 		call	_ZN8UnitTest11TestResults13OnTestFailureERKNS_11TestDetailsEPKc@PLT
 8458      00
 8459              	.LEHE416:
 8460              	.LEHB417:
 290:testCore.cpp  **** 	CHECK_EQUAL(6UL, deref(queue.itemArray[5]));
 8461              		.loc 3 290 2 discriminator 17
 8462 4a1e E8000000 		call	__cxa_end_catch@PLT
 8462      00
 8463              	.LEHE417:
 8464 4a23 E97AF1FF 		jmp	.L435
 8464      FF
 8465              	.L527:
 8466 4a28 F30F1EFA 		endbr64
 290:testCore.cpp  **** 	CHECK_EQUAL(6UL, deref(queue.itemArray[5]));
 8467              		.loc 3 290 2
 8468 4a2c 4889C3   		movq	%rax, %rbx
 8469 4a2f E8000000 		call	__cxa_end_catch@PLT
 8469      00
 8470 4a34 4889D8   		movq	%rbx, %rax
 8471 4a37 4889C7   		movq	%rax, %rdi
 8472              	.LEHB418:
 8473 4a3a E8000000 		call	_Unwind_Resume@PLT
 8473      00
 8474              	.LEHE418:
 8475              	.L528:
 8476 4a3f F30F1EFA 		endbr64
 291:testCore.cpp  **** 	CHECK_EQUAL(7UL, deref(queue.itemArray[6]));
 8477              		.loc 3 291 2 is_stmt 1
 8478 4a43 4889C7   		movq	%rax, %rdi
 8479 4a46 E8000000 		call	__cxa_begin_catch@PLT
 8479      00
 8480              	.LEHB419:
 8481 4a4b E8000000 		call	_ZN8UnitTest11CurrentTest7ResultsEv@PLT
 8481      00
 291:testCore.cpp  **** 	CHECK_EQUAL(7UL, deref(queue.itemArray[6]));
 8482              		.loc 3 291 2 is_stmt 0 discriminator 3
 8483 4a50 488B18   		movq	(%rax), %rbx
 8484 4a53 E8000000 		call	_ZN8UnitTest11CurrentTest7DetailsEv@PLT
 8484      00
 291:testCore.cpp  **** 	CHECK_EQUAL(7UL, deref(queue.itemArray[6]));
 8485              		.loc 3 291 2 discriminator 11
 8486 4a58 488B08   		movq	(%rax), %rcx
 8487 4a5b 488D4590 		leaq	-112(%rbp), %rax
 8488 4a5f BA230100 		movl	$291, %edx
 8488      00
 8489 4a64 4889CE   		movq	%rcx, %rsi
 8490 4a67 4889C7   		movq	%rax, %rdi
 8491 4a6a E8000000 		call	_ZN8UnitTest11TestDetailsC1ERKS0_i@PLT
 8491      00
 291:testCore.cpp  **** 	CHECK_EQUAL(7UL, deref(queue.itemArray[6]));
 8492              		.loc 3 291 2 discriminator 15
 8493 4a6f 488D4590 		leaq	-112(%rbp), %rax
 8494 4a73 488D1500 		leaq	.LC44(%rip), %rdx
 8494      000000
 8495 4a7a 4889C6   		movq	%rax, %rsi
 8496 4a7d 4889DF   		movq	%rbx, %rdi
 8497 4a80 E8000000 		call	_ZN8UnitTest11TestResults13OnTestFailureERKNS_11TestDetailsEPKc@PLT
 8497      00
 8498              	.LEHE419:
 8499              	.LEHB420:
 291:testCore.cpp  **** 	CHECK_EQUAL(7UL, deref(queue.itemArray[6]));
 8500              		.loc 3 291 2 discriminator 17
 8501 4a85 E8000000 		call	__cxa_end_catch@PLT
 8501      00
 8502              	.LEHE420:
 8503 4a8a E96FF1FF 		jmp	.L438
 8503      FF
 8504              	.L529:
 8505 4a8f F30F1EFA 		endbr64
 291:testCore.cpp  **** 	CHECK_EQUAL(7UL, deref(queue.itemArray[6]));
 8506              		.loc 3 291 2
 8507 4a93 4889C3   		movq	%rax, %rbx
 8508 4a96 E8000000 		call	__cxa_end_catch@PLT
 8508      00
 8509 4a9b 4889D8   		movq	%rbx, %rax
 8510 4a9e 4889C7   		movq	%rax, %rdi
 8511              	.LEHB421:
 8512 4aa1 E8000000 		call	_Unwind_Resume@PLT
 8512      00
 8513              	.LEHE421:
 8514              	.L530:
 8515 4aa6 F30F1EFA 		endbr64
 292:testCore.cpp  **** 	CHECK_EQUAL(8UL, deref(queue.itemArray[7]));
 8516              		.loc 3 292 2 is_stmt 1
 8517 4aaa 4889C7   		movq	%rax, %rdi
 8518 4aad E8000000 		call	__cxa_begin_catch@PLT
 8518      00
 8519              	.LEHB422:
 8520 4ab2 E8000000 		call	_ZN8UnitTest11CurrentTest7ResultsEv@PLT
 8520      00
 292:testCore.cpp  **** 	CHECK_EQUAL(8UL, deref(queue.itemArray[7]));
 8521              		.loc 3 292 2 is_stmt 0 discriminator 3
 8522 4ab7 488B18   		movq	(%rax), %rbx
 8523 4aba E8000000 		call	_ZN8UnitTest11CurrentTest7DetailsEv@PLT
 8523      00
 292:testCore.cpp  **** 	CHECK_EQUAL(8UL, deref(queue.itemArray[7]));
 8524              		.loc 3 292 2 discriminator 11
 8525 4abf 488B08   		movq	(%rax), %rcx
 8526 4ac2 488D4590 		leaq	-112(%rbp), %rax
 8527 4ac6 BA240100 		movl	$292, %edx
 8527      00
 8528 4acb 4889CE   		movq	%rcx, %rsi
 8529 4ace 4889C7   		movq	%rax, %rdi
 8530 4ad1 E8000000 		call	_ZN8UnitTest11TestDetailsC1ERKS0_i@PLT
 8530      00
 292:testCore.cpp  **** 	CHECK_EQUAL(8UL, deref(queue.itemArray[7]));
 8531              		.loc 3 292 2 discriminator 15
 8532 4ad6 488D4590 		leaq	-112(%rbp), %rax
 8533 4ada 488D1500 		leaq	.LC45(%rip), %rdx
 8533      000000
 8534 4ae1 4889C6   		movq	%rax, %rsi
 8535 4ae4 4889DF   		movq	%rbx, %rdi
 8536 4ae7 E8000000 		call	_ZN8UnitTest11TestResults13OnTestFailureERKNS_11TestDetailsEPKc@PLT
 8536      00
 8537              	.LEHE422:
 8538              	.LEHB423:
 292:testCore.cpp  **** 	CHECK_EQUAL(8UL, deref(queue.itemArray[7]));
 8539              		.loc 3 292 2 discriminator 17
 8540 4aec E8000000 		call	__cxa_end_catch@PLT
 8540      00
 8541              	.LEHE423:
 8542 4af1 E964F1FF 		jmp	.L441
 8542      FF
 8543              	.L531:
 8544 4af6 F30F1EFA 		endbr64
 292:testCore.cpp  **** 	CHECK_EQUAL(8UL, deref(queue.itemArray[7]));
 8545              		.loc 3 292 2
 8546 4afa 4889C3   		movq	%rax, %rbx
 8547 4afd E8000000 		call	__cxa_end_catch@PLT
 8547      00
 8548 4b02 4889D8   		movq	%rbx, %rax
 8549 4b05 4889C7   		movq	%rax, %rdi
 8550              	.LEHB424:
 8551 4b08 E8000000 		call	_Unwind_Resume@PLT
 8551      00
 8552              	.LEHE424:
 8553              	.L532:
 8554 4b0d F30F1EFA 		endbr64
 293:testCore.cpp  **** 
 8555              		.loc 3 293 2 is_stmt 1
 8556 4b11 4889C7   		movq	%rax, %rdi
 8557 4b14 E8000000 		call	__cxa_begin_catch@PLT
 8557      00
 8558              	.LEHB425:
 8559 4b19 E8000000 		call	_ZN8UnitTest11CurrentTest7ResultsEv@PLT
 8559      00
 293:testCore.cpp  **** 
 8560              		.loc 3 293 2 is_stmt 0 discriminator 3
 8561 4b1e 488B18   		movq	(%rax), %rbx
 8562 4b21 E8000000 		call	_ZN8UnitTest11CurrentTest7DetailsEv@PLT
 8562      00
 293:testCore.cpp  **** 
 8563              		.loc 3 293 2 discriminator 11
 8564 4b26 488B08   		movq	(%rax), %rcx
 8565 4b29 488D4590 		leaq	-112(%rbp), %rax
 8566 4b2d BA250100 		movl	$293, %edx
 8566      00
 8567 4b32 4889CE   		movq	%rcx, %rsi
 8568 4b35 4889C7   		movq	%rax, %rdi
 8569 4b38 E8000000 		call	_ZN8UnitTest11TestDetailsC1ERKS0_i@PLT
 8569      00
 293:testCore.cpp  **** 
 8570              		.loc 3 293 2 discriminator 15
 8571 4b3d 488D4590 		leaq	-112(%rbp), %rax
 8572 4b41 488D1500 		leaq	.LC46(%rip), %rdx
 8572      000000
 8573 4b48 4889C6   		movq	%rax, %rsi
 8574 4b4b 4889DF   		movq	%rbx, %rdi
 8575 4b4e E8000000 		call	_ZN8UnitTest11TestResults13OnTestFailureERKNS_11TestDetailsEPKc@PLT
 8575      00
 8576              	.LEHE425:
 8577              	.LEHB426:
 293:testCore.cpp  **** 
 8578              		.loc 3 293 2 discriminator 17
 8579 4b53 E8000000 		call	__cxa_end_catch@PLT
 8579      00
 8580              	.LEHE426:
 8581 4b58 E959F1FF 		jmp	.L444
 8581      FF
 8582              	.L533:
 8583 4b5d F30F1EFA 		endbr64
 293:testCore.cpp  **** 
 8584              		.loc 3 293 2
 8585 4b61 4889C3   		movq	%rax, %rbx
 8586 4b64 E8000000 		call	__cxa_end_catch@PLT
 8586      00
 8587 4b69 4889D8   		movq	%rbx, %rax
 8588 4b6c 4889C7   		movq	%rax, %rdi
 8589              	.LEHB427:
 8590 4b6f E8000000 		call	_Unwind_Resume@PLT
 8590      00
 8591              	.LEHE427:
 8592              	.L534:
 8593 4b74 F30F1EFA 		endbr64
 297:testCore.cpp  **** 	CHECK_EQUAL(100UL, *item);
 8594              		.loc 3 297 2 is_stmt 1
 8595 4b78 4889C7   		movq	%rax, %rdi
 8596 4b7b E8000000 		call	__cxa_begin_catch@PLT
 8596      00
 8597              	.LEHB428:
 8598 4b80 E8000000 		call	_ZN8UnitTest11CurrentTest7ResultsEv@PLT
 8598      00
 297:testCore.cpp  **** 	CHECK_EQUAL(100UL, *item);
 8599              		.loc 3 297 2 is_stmt 0 discriminator 3
 8600 4b85 488B18   		movq	(%rax), %rbx
 8601 4b88 E8000000 		call	_ZN8UnitTest11CurrentTest7DetailsEv@PLT
 8601      00
 297:testCore.cpp  **** 	CHECK_EQUAL(100UL, *item);
 8602              		.loc 3 297 2 discriminator 11
 8603 4b8d 488B08   		movq	(%rax), %rcx
 8604 4b90 488D4590 		leaq	-112(%rbp), %rax
 8605 4b94 BA290100 		movl	$297, %edx
 8605      00
 8606 4b99 4889CE   		movq	%rcx, %rsi
 8607 4b9c 4889C7   		movq	%rax, %rdi
 8608 4b9f E8000000 		call	_ZN8UnitTest11TestDetailsC1ERKS0_i@PLT
 8608      00
 297:testCore.cpp  **** 	CHECK_EQUAL(100UL, *item);
 8609              		.loc 3 297 2 discriminator 15
 8610 4ba4 488D4590 		leaq	-112(%rbp), %rax
 8611 4ba8 488D1500 		leaq	.LC3(%rip), %rdx
 8611      000000
 8612 4baf 4889C6   		movq	%rax, %rsi
 8613 4bb2 4889DF   		movq	%rbx, %rdi
 8614 4bb5 E8000000 		call	_ZN8UnitTest11TestResults13OnTestFailureERKNS_11TestDetailsEPKc@PLT
 8614      00
 8615              	.LEHE428:
 8616              	.LEHB429:
 297:testCore.cpp  **** 	CHECK_EQUAL(100UL, *item);
 8617              		.loc 3 297 2 discriminator 17
 8618 4bba E8000000 		call	__cxa_end_catch@PLT
 8618      00
 8619              	.LEHE429:
 8620 4bbf E94DF1FF 		jmp	.L447
 8620      FF
 8621              	.L535:
 8622 4bc4 F30F1EFA 		endbr64
 297:testCore.cpp  **** 	CHECK_EQUAL(100UL, *item);
 8623              		.loc 3 297 2
 8624 4bc8 4889C3   		movq	%rax, %rbx
 8625 4bcb E8000000 		call	__cxa_end_catch@PLT
 8625      00
 8626 4bd0 4889D8   		movq	%rbx, %rax
 8627 4bd3 4889C7   		movq	%rax, %rdi
 8628              	.LEHB430:
 8629 4bd6 E8000000 		call	_Unwind_Resume@PLT
 8629      00
 8630              	.LEHE430:
 8631              	.L536:
 8632 4bdb F30F1EFA 		endbr64
 298:testCore.cpp  **** 	queueCommitTake(&queue);
 8633              		.loc 3 298 2 is_stmt 1
 8634 4bdf 4889C7   		movq	%rax, %rdi
 8635 4be2 E8000000 		call	__cxa_begin_catch@PLT
 8635      00
 8636              	.LEHB431:
 8637 4be7 E8000000 		call	_ZN8UnitTest11CurrentTest7ResultsEv@PLT
 8637      00
 298:testCore.cpp  **** 	queueCommitTake(&queue);
 8638              		.loc 3 298 2 is_stmt 0 discriminator 3
 8639 4bec 488B18   		movq	(%rax), %rbx
 8640 4bef E8000000 		call	_ZN8UnitTest11CurrentTest7DetailsEv@PLT
 8640      00
 298:testCore.cpp  **** 	queueCommitTake(&queue);
 8641              		.loc 3 298 2 discriminator 11
 8642 4bf4 488B08   		movq	(%rax), %rcx
 8643 4bf7 488D4590 		leaq	-112(%rbp), %rax
 8644 4bfb BA2A0100 		movl	$298, %edx
 8644      00
 8645 4c00 4889CE   		movq	%rcx, %rsi
 8646 4c03 4889C7   		movq	%rax, %rdi
 8647 4c06 E8000000 		call	_ZN8UnitTest11TestDetailsC1ERKS0_i@PLT
 8647      00
 298:testCore.cpp  **** 	queueCommitTake(&queue);
 8648              		.loc 3 298 2 discriminator 15
 8649 4c0b 488D4590 		leaq	-112(%rbp), %rax
 8650 4c0f 488D1500 		leaq	.LC47(%rip), %rdx
 8650      000000
 8651 4c16 4889C6   		movq	%rax, %rsi
 8652 4c19 4889DF   		movq	%rbx, %rdi
 8653 4c1c E8000000 		call	_ZN8UnitTest11TestResults13OnTestFailureERKNS_11TestDetailsEPKc@PLT
 8653      00
 8654              	.LEHE431:
 8655              	.LEHB432:
 298:testCore.cpp  **** 	queueCommitTake(&queue);
 8656              		.loc 3 298 2 discriminator 17
 8657 4c21 E8000000 		call	__cxa_end_catch@PLT
 8657      00
 8658              	.LEHE432:
 8659 4c26 E92CF1FF 		jmp	.L450
 8659      FF
 8660              	.L537:
 8661 4c2b F30F1EFA 		endbr64
 298:testCore.cpp  **** 	queueCommitTake(&queue);
 8662              		.loc 3 298 2
 8663 4c2f 4889C3   		movq	%rax, %rbx
 8664 4c32 E8000000 		call	__cxa_end_catch@PLT
 8664      00
 8665 4c37 4889D8   		movq	%rbx, %rax
 8666 4c3a 4889C7   		movq	%rax, %rdi
 8667              	.LEHB433:
 8668 4c3d E8000000 		call	_Unwind_Resume@PLT
 8668      00
 8669              	.LEHE433:
 8670              	.L538:
 8671 4c42 F30F1EFA 		endbr64
 301:testCore.cpp  **** 	CHECK_EQUAL(101UL, *item);
 8672              		.loc 3 301 2 is_stmt 1
 8673 4c46 4889C7   		movq	%rax, %rdi
 8674 4c49 E8000000 		call	__cxa_begin_catch@PLT
 8674      00
 8675              	.LEHB434:
 8676 4c4e E8000000 		call	_ZN8UnitTest11CurrentTest7ResultsEv@PLT
 8676      00
 301:testCore.cpp  **** 	CHECK_EQUAL(101UL, *item);
 8677              		.loc 3 301 2 is_stmt 0 discriminator 3
 8678 4c53 488B18   		movq	(%rax), %rbx
 8679 4c56 E8000000 		call	_ZN8UnitTest11CurrentTest7DetailsEv@PLT
 8679      00
 301:testCore.cpp  **** 	CHECK_EQUAL(101UL, *item);
 8680              		.loc 3 301 2 discriminator 11
 8681 4c5b 488B08   		movq	(%rax), %rcx
 8682 4c5e 488D4590 		leaq	-112(%rbp), %rax
 8683 4c62 BA2D0100 		movl	$301, %edx
 8683      00
 8684 4c67 4889CE   		movq	%rcx, %rsi
 8685 4c6a 4889C7   		movq	%rax, %rdi
 8686 4c6d E8000000 		call	_ZN8UnitTest11TestDetailsC1ERKS0_i@PLT
 8686      00
 301:testCore.cpp  **** 	CHECK_EQUAL(101UL, *item);
 8687              		.loc 3 301 2 discriminator 15
 8688 4c72 488D4590 		leaq	-112(%rbp), %rax
 8689 4c76 488D1500 		leaq	.LC3(%rip), %rdx
 8689      000000
 8690 4c7d 4889C6   		movq	%rax, %rsi
 8691 4c80 4889DF   		movq	%rbx, %rdi
 8692 4c83 E8000000 		call	_ZN8UnitTest11TestResults13OnTestFailureERKNS_11TestDetailsEPKc@PLT
 8692      00
 8693              	.LEHE434:
 8694              	.LEHB435:
 301:testCore.cpp  **** 	CHECK_EQUAL(101UL, *item);
 8695              		.loc 3 301 2 discriminator 17
 8696 4c88 E8000000 		call	__cxa_end_catch@PLT
 8696      00
 8697              	.LEHE435:
 8698 4c8d E92CF1FF 		jmp	.L453
 8698      FF
 8699              	.L539:
 8700 4c92 F30F1EFA 		endbr64
 301:testCore.cpp  **** 	CHECK_EQUAL(101UL, *item);
 8701              		.loc 3 301 2
 8702 4c96 4889C3   		movq	%rax, %rbx
 8703 4c99 E8000000 		call	__cxa_end_catch@PLT
 8703      00
 8704 4c9e 4889D8   		movq	%rbx, %rax
 8705 4ca1 4889C7   		movq	%rax, %rdi
 8706              	.LEHB436:
 8707 4ca4 E8000000 		call	_Unwind_Resume@PLT
 8707      00
 8708              	.LEHE436:
 8709              	.L540:
 8710 4ca9 F30F1EFA 		endbr64
 302:testCore.cpp  **** 	queueCommitTake(&queue);
 8711              		.loc 3 302 2 is_stmt 1
 8712 4cad 4889C7   		movq	%rax, %rdi
 8713 4cb0 E8000000 		call	__cxa_begin_catch@PLT
 8713      00
 8714              	.LEHB437:
 8715 4cb5 E8000000 		call	_ZN8UnitTest11CurrentTest7ResultsEv@PLT
 8715      00
 302:testCore.cpp  **** 	queueCommitTake(&queue);
 8716              		.loc 3 302 2 is_stmt 0 discriminator 3
 8717 4cba 488B18   		movq	(%rax), %rbx
 8718 4cbd E8000000 		call	_ZN8UnitTest11CurrentTest7DetailsEv@PLT
 8718      00
 302:testCore.cpp  **** 	queueCommitTake(&queue);
 8719              		.loc 3 302 2 discriminator 11
 8720 4cc2 488B08   		movq	(%rax), %rcx
 8721 4cc5 488D4590 		leaq	-112(%rbp), %rax
 8722 4cc9 BA2E0100 		movl	$302, %edx
 8722      00
 8723 4cce 4889CE   		movq	%rcx, %rsi
 8724 4cd1 4889C7   		movq	%rax, %rdi
 8725 4cd4 E8000000 		call	_ZN8UnitTest11TestDetailsC1ERKS0_i@PLT
 8725      00
 302:testCore.cpp  **** 	queueCommitTake(&queue);
 8726              		.loc 3 302 2 discriminator 15
 8727 4cd9 488D4590 		leaq	-112(%rbp), %rax
 8728 4cdd 488D1500 		leaq	.LC48(%rip), %rdx
 8728      000000
 8729 4ce4 4889C6   		movq	%rax, %rsi
 8730 4ce7 4889DF   		movq	%rbx, %rdi
 8731 4cea E8000000 		call	_ZN8UnitTest11TestResults13OnTestFailureERKNS_11TestDetailsEPKc@PLT
 8731      00
 8732              	.LEHE437:
 8733              	.LEHB438:
 302:testCore.cpp  **** 	queueCommitTake(&queue);
 8734              		.loc 3 302 2 discriminator 17
 8735 4cef E8000000 		call	__cxa_end_catch@PLT
 8735      00
 8736              	.LEHE438:
 8737 4cf4 E90BF1FF 		jmp	.L456
 8737      FF
 8738              	.L541:
 8739 4cf9 F30F1EFA 		endbr64
 302:testCore.cpp  **** 	queueCommitTake(&queue);
 8740              		.loc 3 302 2
 8741 4cfd 4889C3   		movq	%rax, %rbx
 8742 4d00 E8000000 		call	__cxa_end_catch@PLT
 8742      00
 8743 4d05 4889D8   		movq	%rbx, %rax
 8744 4d08 4889C7   		movq	%rax, %rdi
 8745              	.LEHB439:
 8746 4d0b E8000000 		call	_Unwind_Resume@PLT
 8746      00
 8747              	.LEHE439:
 8748              	.L542:
 8749 4d10 F30F1EFA 		endbr64
 305:testCore.cpp  **** 	CHECK_EQUAL(102UL, *item);
 8750              		.loc 3 305 2 is_stmt 1
 8751 4d14 4889C7   		movq	%rax, %rdi
 8752 4d17 E8000000 		call	__cxa_begin_catch@PLT
 8752      00
 8753              	.LEHB440:
 8754 4d1c E8000000 		call	_ZN8UnitTest11CurrentTest7ResultsEv@PLT
 8754      00
 305:testCore.cpp  **** 	CHECK_EQUAL(102UL, *item);
 8755              		.loc 3 305 2 is_stmt 0 discriminator 3
 8756 4d21 488B18   		movq	(%rax), %rbx
 8757 4d24 E8000000 		call	_ZN8UnitTest11CurrentTest7DetailsEv@PLT
 8757      00
 305:testCore.cpp  **** 	CHECK_EQUAL(102UL, *item);
 8758              		.loc 3 305 2 discriminator 11
 8759 4d29 488B08   		movq	(%rax), %rcx
 8760 4d2c 488D4590 		leaq	-112(%rbp), %rax
 8761 4d30 BA310100 		movl	$305, %edx
 8761      00
 8762 4d35 4889CE   		movq	%rcx, %rsi
 8763 4d38 4889C7   		movq	%rax, %rdi
 8764 4d3b E8000000 		call	_ZN8UnitTest11TestDetailsC1ERKS0_i@PLT
 8764      00
 305:testCore.cpp  **** 	CHECK_EQUAL(102UL, *item);
 8765              		.loc 3 305 2 discriminator 15
 8766 4d40 488D4590 		leaq	-112(%rbp), %rax
 8767 4d44 488D1500 		leaq	.LC3(%rip), %rdx
 8767      000000
 8768 4d4b 4889C6   		movq	%rax, %rsi
 8769 4d4e 4889DF   		movq	%rbx, %rdi
 8770 4d51 E8000000 		call	_ZN8UnitTest11TestResults13OnTestFailureERKNS_11TestDetailsEPKc@PLT
 8770      00
 8771              	.LEHE440:
 8772              	.LEHB441:
 305:testCore.cpp  **** 	CHECK_EQUAL(102UL, *item);
 8773              		.loc 3 305 2 discriminator 17
 8774 4d56 E8000000 		call	__cxa_end_catch@PLT
 8774      00
 8775              	.LEHE441:
 8776 4d5b E90BF1FF 		jmp	.L459
 8776      FF
 8777              	.L543:
 8778 4d60 F30F1EFA 		endbr64
 305:testCore.cpp  **** 	CHECK_EQUAL(102UL, *item);
 8779              		.loc 3 305 2
 8780 4d64 4889C3   		movq	%rax, %rbx
 8781 4d67 E8000000 		call	__cxa_end_catch@PLT
 8781      00
 8782 4d6c 4889D8   		movq	%rbx, %rax
 8783 4d6f 4889C7   		movq	%rax, %rdi
 8784              	.LEHB442:
 8785 4d72 E8000000 		call	_Unwind_Resume@PLT
 8785      00
 8786              	.LEHE442:
 8787              	.L544:
 8788 4d77 F30F1EFA 		endbr64
 306:testCore.cpp  **** 	queueCommitTake(&queue);
 8789              		.loc 3 306 2 is_stmt 1
 8790 4d7b 4889C7   		movq	%rax, %rdi
 8791 4d7e E8000000 		call	__cxa_begin_catch@PLT
 8791      00
 8792              	.LEHB443:
 8793 4d83 E8000000 		call	_ZN8UnitTest11CurrentTest7ResultsEv@PLT
 8793      00
 306:testCore.cpp  **** 	queueCommitTake(&queue);
 8794              		.loc 3 306 2 is_stmt 0 discriminator 3
 8795 4d88 488B18   		movq	(%rax), %rbx
 8796 4d8b E8000000 		call	_ZN8UnitTest11CurrentTest7DetailsEv@PLT
 8796      00
 306:testCore.cpp  **** 	queueCommitTake(&queue);
 8797              		.loc 3 306 2 discriminator 11
 8798 4d90 488B08   		movq	(%rax), %rcx
 8799 4d93 488D4590 		leaq	-112(%rbp), %rax
 8800 4d97 BA320100 		movl	$306, %edx
 8800      00
 8801 4d9c 4889CE   		movq	%rcx, %rsi
 8802 4d9f 4889C7   		movq	%rax, %rdi
 8803 4da2 E8000000 		call	_ZN8UnitTest11TestDetailsC1ERKS0_i@PLT
 8803      00
 306:testCore.cpp  **** 	queueCommitTake(&queue);
 8804              		.loc 3 306 2 discriminator 15
 8805 4da7 488D4590 		leaq	-112(%rbp), %rax
 8806 4dab 488D1500 		leaq	.LC49(%rip), %rdx
 8806      000000
 8807 4db2 4889C6   		movq	%rax, %rsi
 8808 4db5 4889DF   		movq	%rbx, %rdi
 8809 4db8 E8000000 		call	_ZN8UnitTest11TestResults13OnTestFailureERKNS_11TestDetailsEPKc@PLT
 8809      00
 8810              	.LEHE443:
 8811              	.LEHB444:
 306:testCore.cpp  **** 	queueCommitTake(&queue);
 8812              		.loc 3 306 2 discriminator 17
 8813 4dbd E8000000 		call	__cxa_end_catch@PLT
 8813      00
 8814              	.LEHE444:
 8815 4dc2 E9EAF0FF 		jmp	.L462
 8815      FF
 8816              	.L545:
 8817 4dc7 F30F1EFA 		endbr64
 306:testCore.cpp  **** 	queueCommitTake(&queue);
 8818              		.loc 3 306 2
 8819 4dcb 4889C3   		movq	%rax, %rbx
 8820 4dce E8000000 		call	__cxa_end_catch@PLT
 8820      00
 8821 4dd3 4889D8   		movq	%rbx, %rax
 8822 4dd6 4889C7   		movq	%rax, %rdi
 8823              	.LEHB445:
 8824 4dd9 E8000000 		call	_Unwind_Resume@PLT
 8824      00
 8825              	.LEHE445:
 8826              	.L546:
 8827 4dde F30F1EFA 		endbr64
 309:testCore.cpp  **** 	CHECK_EQUAL(103UL, *item);
 8828              		.loc 3 309 2 is_stmt 1
 8829 4de2 4889C7   		movq	%rax, %rdi
 8830 4de5 E8000000 		call	__cxa_begin_catch@PLT
 8830      00
 8831              	.LEHB446:
 8832 4dea E8000000 		call	_ZN8UnitTest11CurrentTest7ResultsEv@PLT
 8832      00
 309:testCore.cpp  **** 	CHECK_EQUAL(103UL, *item);
 8833              		.loc 3 309 2 is_stmt 0 discriminator 3
 8834 4def 488B18   		movq	(%rax), %rbx
 8835 4df2 E8000000 		call	_ZN8UnitTest11CurrentTest7DetailsEv@PLT
 8835      00
 309:testCore.cpp  **** 	CHECK_EQUAL(103UL, *item);
 8836              		.loc 3 309 2 discriminator 11
 8837 4df7 488B08   		movq	(%rax), %rcx
 8838 4dfa 488D4590 		leaq	-112(%rbp), %rax
 8839 4dfe BA350100 		movl	$309, %edx
 8839      00
 8840 4e03 4889CE   		movq	%rcx, %rsi
 8841 4e06 4889C7   		movq	%rax, %rdi
 8842 4e09 E8000000 		call	_ZN8UnitTest11TestDetailsC1ERKS0_i@PLT
 8842      00
 309:testCore.cpp  **** 	CHECK_EQUAL(103UL, *item);
 8843              		.loc 3 309 2 discriminator 15
 8844 4e0e 488D4590 		leaq	-112(%rbp), %rax
 8845 4e12 488D1500 		leaq	.LC3(%rip), %rdx
 8845      000000
 8846 4e19 4889C6   		movq	%rax, %rsi
 8847 4e1c 4889DF   		movq	%rbx, %rdi
 8848 4e1f E8000000 		call	_ZN8UnitTest11TestResults13OnTestFailureERKNS_11TestDetailsEPKc@PLT
 8848      00
 8849              	.LEHE446:
 8850              	.LEHB447:
 309:testCore.cpp  **** 	CHECK_EQUAL(103UL, *item);
 8851              		.loc 3 309 2 discriminator 17
 8852 4e24 E8000000 		call	__cxa_end_catch@PLT
 8852      00
 8853              	.LEHE447:
 8854 4e29 E9EAF0FF 		jmp	.L465
 8854      FF
 8855              	.L547:
 8856 4e2e F30F1EFA 		endbr64
 309:testCore.cpp  **** 	CHECK_EQUAL(103UL, *item);
 8857              		.loc 3 309 2
 8858 4e32 4889C3   		movq	%rax, %rbx
 8859 4e35 E8000000 		call	__cxa_end_catch@PLT
 8859      00
 8860 4e3a 4889D8   		movq	%rbx, %rax
 8861 4e3d 4889C7   		movq	%rax, %rdi
 8862              	.LEHB448:
 8863 4e40 E8000000 		call	_Unwind_Resume@PLT
 8863      00
 8864              	.LEHE448:
 8865              	.L548:
 8866 4e45 F30F1EFA 		endbr64
 310:testCore.cpp  **** 	queueCommitTake(&queue);
 8867              		.loc 3 310 2 is_stmt 1
 8868 4e49 4889C7   		movq	%rax, %rdi
 8869 4e4c E8000000 		call	__cxa_begin_catch@PLT
 8869      00
 8870              	.LEHB449:
 8871 4e51 E8000000 		call	_ZN8UnitTest11CurrentTest7ResultsEv@PLT
 8871      00
 310:testCore.cpp  **** 	queueCommitTake(&queue);
 8872              		.loc 3 310 2 is_stmt 0 discriminator 3
 8873 4e56 488B18   		movq	(%rax), %rbx
 8874 4e59 E8000000 		call	_ZN8UnitTest11CurrentTest7DetailsEv@PLT
 8874      00
 310:testCore.cpp  **** 	queueCommitTake(&queue);
 8875              		.loc 3 310 2 discriminator 11
 8876 4e5e 488B08   		movq	(%rax), %rcx
 8877 4e61 488D4590 		leaq	-112(%rbp), %rax
 8878 4e65 BA360100 		movl	$310, %edx
 8878      00
 8879 4e6a 4889CE   		movq	%rcx, %rsi
 8880 4e6d 4889C7   		movq	%rax, %rdi
 8881 4e70 E8000000 		call	_ZN8UnitTest11TestDetailsC1ERKS0_i@PLT
 8881      00
 310:testCore.cpp  **** 	queueCommitTake(&queue);
 8882              		.loc 3 310 2 discriminator 15
 8883 4e75 488D4590 		leaq	-112(%rbp), %rax
 8884 4e79 488D1500 		leaq	.LC50(%rip), %rdx
 8884      000000
 8885 4e80 4889C6   		movq	%rax, %rsi
 8886 4e83 4889DF   		movq	%rbx, %rdi
 8887 4e86 E8000000 		call	_ZN8UnitTest11TestResults13OnTestFailureERKNS_11TestDetailsEPKc@PLT
 8887      00
 8888              	.LEHE449:
 8889              	.LEHB450:
 310:testCore.cpp  **** 	queueCommitTake(&queue);
 8890              		.loc 3 310 2 discriminator 17
 8891 4e8b E8000000 		call	__cxa_end_catch@PLT
 8891      00
 8892              	.LEHE450:
 8893 4e90 E9C9F0FF 		jmp	.L468
 8893      FF
 8894              	.L549:
 8895 4e95 F30F1EFA 		endbr64
 310:testCore.cpp  **** 	queueCommitTake(&queue);
 8896              		.loc 3 310 2
 8897 4e99 4889C3   		movq	%rax, %rbx
 8898 4e9c E8000000 		call	__cxa_end_catch@PLT
 8898      00
 8899 4ea1 4889D8   		movq	%rbx, %rax
 8900 4ea4 4889C7   		movq	%rax, %rdi
 8901              	.LEHB451:
 8902 4ea7 E8000000 		call	_Unwind_Resume@PLT
 8902      00
 8903              	.LEHE451:
 8904              	.L550:
 8905 4eac F30F1EFA 		endbr64
 313:testCore.cpp  **** 	CHECK_EQUAL(104UL, *item);
 8906              		.loc 3 313 2 is_stmt 1
 8907 4eb0 4889C7   		movq	%rax, %rdi
 8908 4eb3 E8000000 		call	__cxa_begin_catch@PLT
 8908      00
 8909              	.LEHB452:
 8910 4eb8 E8000000 		call	_ZN8UnitTest11CurrentTest7ResultsEv@PLT
 8910      00
 313:testCore.cpp  **** 	CHECK_EQUAL(104UL, *item);
 8911              		.loc 3 313 2 is_stmt 0 discriminator 3
 8912 4ebd 488B18   		movq	(%rax), %rbx
 8913 4ec0 E8000000 		call	_ZN8UnitTest11CurrentTest7DetailsEv@PLT
 8913      00
 313:testCore.cpp  **** 	CHECK_EQUAL(104UL, *item);
 8914              		.loc 3 313 2 discriminator 11
 8915 4ec5 488B08   		movq	(%rax), %rcx
 8916 4ec8 488D4590 		leaq	-112(%rbp), %rax
 8917 4ecc BA390100 		movl	$313, %edx
 8917      00
 8918 4ed1 4889CE   		movq	%rcx, %rsi
 8919 4ed4 4889C7   		movq	%rax, %rdi
 8920 4ed7 E8000000 		call	_ZN8UnitTest11TestDetailsC1ERKS0_i@PLT
 8920      00
 313:testCore.cpp  **** 	CHECK_EQUAL(104UL, *item);
 8921              		.loc 3 313 2 discriminator 15
 8922 4edc 488D4590 		leaq	-112(%rbp), %rax
 8923 4ee0 488D1500 		leaq	.LC3(%rip), %rdx
 8923      000000
 8924 4ee7 4889C6   		movq	%rax, %rsi
 8925 4eea 4889DF   		movq	%rbx, %rdi
 8926 4eed E8000000 		call	_ZN8UnitTest11TestResults13OnTestFailureERKNS_11TestDetailsEPKc@PLT
 8926      00
 8927              	.LEHE452:
 8928              	.LEHB453:
 313:testCore.cpp  **** 	CHECK_EQUAL(104UL, *item);
 8929              		.loc 3 313 2 discriminator 17
 8930 4ef2 E8000000 		call	__cxa_end_catch@PLT
 8930      00
 8931              	.LEHE453:
 8932 4ef7 E9C9F0FF 		jmp	.L471
 8932      FF
 8933              	.L551:
 8934 4efc F30F1EFA 		endbr64
 313:testCore.cpp  **** 	CHECK_EQUAL(104UL, *item);
 8935              		.loc 3 313 2
 8936 4f00 4889C3   		movq	%rax, %rbx
 8937 4f03 E8000000 		call	__cxa_end_catch@PLT
 8937      00
 8938 4f08 4889D8   		movq	%rbx, %rax
 8939 4f0b 4889C7   		movq	%rax, %rdi
 8940              	.LEHB454:
 8941 4f0e E8000000 		call	_Unwind_Resume@PLT
 8941      00
 8942              	.LEHE454:
 8943              	.L552:
 8944 4f13 F30F1EFA 		endbr64
 314:testCore.cpp  **** 	queueCommitTake(&queue);
 8945              		.loc 3 314 2 is_stmt 1
 8946 4f17 4889C7   		movq	%rax, %rdi
 8947 4f1a E8000000 		call	__cxa_begin_catch@PLT
 8947      00
 8948              	.LEHB455:
 8949 4f1f E8000000 		call	_ZN8UnitTest11CurrentTest7ResultsEv@PLT
 8949      00
 314:testCore.cpp  **** 	queueCommitTake(&queue);
 8950              		.loc 3 314 2 is_stmt 0 discriminator 3
 8951 4f24 488B18   		movq	(%rax), %rbx
 8952 4f27 E8000000 		call	_ZN8UnitTest11CurrentTest7DetailsEv@PLT
 8952      00
 314:testCore.cpp  **** 	queueCommitTake(&queue);
 8953              		.loc 3 314 2 discriminator 11
 8954 4f2c 488B08   		movq	(%rax), %rcx
 8955 4f2f 488D4590 		leaq	-112(%rbp), %rax
 8956 4f33 BA3A0100 		movl	$314, %edx
 8956      00
 8957 4f38 4889CE   		movq	%rcx, %rsi
 8958 4f3b 4889C7   		movq	%rax, %rdi
 8959 4f3e E8000000 		call	_ZN8UnitTest11TestDetailsC1ERKS0_i@PLT
 8959      00
 314:testCore.cpp  **** 	queueCommitTake(&queue);
 8960              		.loc 3 314 2 discriminator 15
 8961 4f43 488D4590 		leaq	-112(%rbp), %rax
 8962 4f47 488D1500 		leaq	.LC51(%rip), %rdx
 8962      000000
 8963 4f4e 4889C6   		movq	%rax, %rsi
 8964 4f51 4889DF   		movq	%rbx, %rdi
 8965 4f54 E8000000 		call	_ZN8UnitTest11TestResults13OnTestFailureERKNS_11TestDetailsEPKc@PLT
 8965      00
 8966              	.LEHE455:
 8967              	.LEHB456:
 314:testCore.cpp  **** 	queueCommitTake(&queue);
 8968              		.loc 3 314 2 discriminator 17
 8969 4f59 E8000000 		call	__cxa_end_catch@PLT
 8969      00
 8970              	.LEHE456:
 8971 4f5e E9A8F0FF 		jmp	.L474
 8971      FF
 8972              	.L553:
 8973 4f63 F30F1EFA 		endbr64
 314:testCore.cpp  **** 	queueCommitTake(&queue);
 8974              		.loc 3 314 2
 8975 4f67 4889C3   		movq	%rax, %rbx
 8976 4f6a E8000000 		call	__cxa_end_catch@PLT
 8976      00
 8977 4f6f 4889D8   		movq	%rbx, %rax
 8978 4f72 4889C7   		movq	%rax, %rdi
 8979              	.LEHB457:
 8980 4f75 E8000000 		call	_Unwind_Resume@PLT
 8980      00
 8981              	.LEHE457:
 8982              	.L554:
 8983 4f7a F30F1EFA 		endbr64
 319:testCore.cpp  **** 
 8984              		.loc 3 319 2 is_stmt 1
 8985 4f7e 4889C7   		movq	%rax, %rdi
 8986 4f81 E8000000 		call	__cxa_begin_catch@PLT
 8986      00
 8987              	.LEHB458:
 8988 4f86 E8000000 		call	_ZN8UnitTest11CurrentTest7ResultsEv@PLT
 8988      00
 319:testCore.cpp  **** 
 8989              		.loc 3 319 2 is_stmt 0 discriminator 3
 8990 4f8b 488B18   		movq	(%rax), %rbx
 8991 4f8e E8000000 		call	_ZN8UnitTest11CurrentTest7DetailsEv@PLT
 8991      00
 319:testCore.cpp  **** 
 8992              		.loc 3 319 2 discriminator 11
 8993 4f93 488B08   		movq	(%rax), %rcx
 8994 4f96 488D4590 		leaq	-112(%rbp), %rax
 8995 4f9a BA3F0100 		movl	$319, %edx
 8995      00
 8996 4f9f 4889CE   		movq	%rcx, %rsi
 8997 4fa2 4889C7   		movq	%rax, %rdi
 8998 4fa5 E8000000 		call	_ZN8UnitTest11TestDetailsC1ERKS0_i@PLT
 8998      00
 319:testCore.cpp  **** 
 8999              		.loc 3 319 2 discriminator 15
 9000 4faa 488D4590 		leaq	-112(%rbp), %rax
 9001 4fae 488D1500 		leaq	.LC52(%rip), %rdx
 9001      000000
 9002 4fb5 4889C6   		movq	%rax, %rsi
 9003 4fb8 4889DF   		movq	%rbx, %rdi
 9004 4fbb E8000000 		call	_ZN8UnitTest11TestResults13OnTestFailureERKNS_11TestDetailsEPKc@PLT
 9004      00
 9005              	.LEHE458:
 9006              	.LEHB459:
 319:testCore.cpp  **** 
 9007              		.loc 3 319 2 discriminator 17
 9008 4fc0 E8000000 		call	__cxa_end_catch@PLT
 9008      00
 9009              	.LEHE459:
 9010 4fc5 E9A8F0FF 		jmp	.L477
 9010      FF
 9011              	.L555:
 9012 4fca F30F1EFA 		endbr64
 319:testCore.cpp  **** 
 9013              		.loc 3 319 2
 9014 4fce 4889C3   		movq	%rax, %rbx
 9015 4fd1 E8000000 		call	__cxa_end_catch@PLT
 9015      00
 9016 4fd6 4889D8   		movq	%rbx, %rax
 9017 4fd9 4889C7   		movq	%rax, %rdi
 9018              	.LEHB460:
 9019 4fdc E8000000 		call	_Unwind_Resume@PLT
 9019      00
 9020              	.LEHE460:
 9021              	.L556:
 9022              		.loc 3 322 1 is_stmt 1
 9023 4fe1 E8000000 		call	__stack_chk_fail@PLT
 9023      00
 9024              	.L479:
 9025 4fe6 488B5DF8 		movq	-8(%rbp), %rbx
 9026 4fea C9       		leave
 9027              		.cfi_def_cfa 7, 8
 9028 4feb C3       		ret
 9029              		.cfi_endproc
 9030              	.LFE1178:
 9031              		.section	.gcc_except_table
 9032              		.align 4
 9033              	.LLSDA1178:
 9034 065c FF       		.byte	0xff
 9035 065d 9B       		.byte	0x9b
 9036 065e 9807     		.uleb128 .LLSDATT1178-.LLSDATTD1178
 9037              	.LLSDATTD1178:
 9038 0660 01       		.byte	0x1
 9039 0661 8D07     		.uleb128 .LLSDACSE1178-.LLSDACSB1178
 9040              	.LLSDACSB1178:
 9041 0663 4D       		.uleb128 .LEHB294-.LFB1178
 9042 0664 05       		.uleb128 .LEHE294-.LEHB294
 9043 0665 00       		.uleb128 0
 9044 0666 00       		.uleb128 0
 9045 0667 58       		.uleb128 .LEHB295-.LFB1178
 9046 0668 42       		.uleb128 .LEHE295-.LEHB295
 9047 0669 FA1A     		.uleb128 .L480-.LFB1178
 9048 066b 01       		.uleb128 0x1
 9049 066c BE01     		.uleb128 .LEHB296-.LFB1178
 9050 066e 05       		.uleb128 .LEHE296-.LEHB296
 9051 066f 00       		.uleb128 0
 9052 0670 00       		.uleb128 0
 9053 0671 C901     		.uleb128 .LEHB297-.LFB1178
 9054 0673 42       		.uleb128 .LEHE297-.LEHB297
 9055 0674 E11B     		.uleb128 .L482-.LFB1178
 9056 0676 01       		.uleb128 0x1
 9057 0677 8B02     		.uleb128 .LEHB298-.LFB1178
 9058 0679 50       		.uleb128 .LEHE298-.LEHB298
 9059 067a C81C     		.uleb128 .L484-.LFB1178
 9060 067c 01       		.uleb128 0x1
 9061 067d EC02     		.uleb128 .LEHB299-.LFB1178
 9062 067f 18       		.uleb128 .LEHE299-.LEHB299
 9063 0680 00       		.uleb128 0
 9064 0681 00       		.uleb128 0
 9065 0682 8A03     		.uleb128 .LEHB300-.LFB1178
 9066 0684 42       		.uleb128 .LEHE300-.LEHB300
 9067 0685 AF1D     		.uleb128 .L486-.LFB1178
 9068 0687 01       		.uleb128 0x1
 9069 0688 CC03     		.uleb128 .LEHB301-.LFB1178
 9070 068a 54       		.uleb128 .LEHE301-.LEHB301
 9071 068b 961E     		.uleb128 .L488-.LFB1178
 9072 068d 01       		.uleb128 0x1
 9073 068e B104     		.uleb128 .LEHB302-.LFB1178
 9074 0690 18       		.uleb128 .LEHE302-.LEHB302
 9075 0691 00       		.uleb128 0
 9076 0692 00       		.uleb128 0
 9077 0693 CF04     		.uleb128 .LEHB303-.LFB1178
 9078 0695 42       		.uleb128 .LEHE303-.LEHB303
 9079 0696 FD1E     		.uleb128 .L490-.LFB1178
 9080 0698 01       		.uleb128 0x1
 9081 0699 9105     		.uleb128 .LEHB304-.LFB1178
 9082 069b 54       		.uleb128 .LEHE304-.LEHB304
 9083 069c E41F     		.uleb128 .L492-.LFB1178
 9084 069e 01       		.uleb128 0x1
 9085 069f F605     		.uleb128 .LEHB305-.LFB1178
 9086 06a1 18       		.uleb128 .LEHE305-.LEHB305
 9087 06a2 00       		.uleb128 0
 9088 06a3 00       		.uleb128 0
 9089 06a4 9406     		.uleb128 .LEHB306-.LFB1178
 9090 06a6 42       		.uleb128 .LEHE306-.LEHB306
 9091 06a7 CB20     		.uleb128 .L494-.LFB1178
 9092 06a9 01       		.uleb128 0x1
 9093 06aa D606     		.uleb128 .LEHB307-.LFB1178
 9094 06ac 54       		.uleb128 .LEHE307-.LEHB307
 9095 06ad B221     		.uleb128 .L496-.LFB1178
 9096 06af 01       		.uleb128 0x1
 9097 06b0 BB07     		.uleb128 .LEHB308-.LFB1178
 9098 06b2 05       		.uleb128 .LEHE308-.LEHB308
 9099 06b3 00       		.uleb128 0
 9100 06b4 00       		.uleb128 0
 9101 06b5 C007     		.uleb128 .LEHB309-.LFB1178
 9102 06b7 4A       		.uleb128 .LEHE309-.LEHB309
 9103 06b8 9922     		.uleb128 .L498-.LFB1178
 9104 06ba 01       		.uleb128 0x1
 9105 06bb 8A08     		.uleb128 .LEHB310-.LFB1178
 9106 06bd 45       		.uleb128 .LEHE310-.LEHB310
 9107 06be 8023     		.uleb128 .L500-.LFB1178
 9108 06c0 01       		.uleb128 0x1
 9109 06c1 CF08     		.uleb128 .LEHB311-.LFB1178
 9110 06c3 45       		.uleb128 .LEHE311-.LEHB311
 9111 06c4 E723     		.uleb128 .L502-.LFB1178
 9112 06c6 01       		.uleb128 0x1
 9113 06c7 9409     		.uleb128 .LEHB312-.LFB1178
 9114 06c9 4A       		.uleb128 .LEHE312-.LEHB312
 9115 06ca CE24     		.uleb128 .L504-.LFB1178
 9116 06cc 01       		.uleb128 0x1
 9117 06cd EC09     		.uleb128 .LEHB313-.LFB1178
 9118 06cf 05       		.uleb128 .LEHE313-.LEHB313
 9119 06d0 00       		.uleb128 0
 9120 06d1 00       		.uleb128 0
 9121 06d2 F709     		.uleb128 .LEHB314-.LFB1178
 9122 06d4 42       		.uleb128 .LEHE314-.LEHB314
 9123 06d5 B525     		.uleb128 .L506-.LFB1178
 9124 06d7 01       		.uleb128 0x1
 9125 06d8 B90A     		.uleb128 .LEHB315-.LFB1178
 9126 06da 46       		.uleb128 .LEHE315-.LEHB315
 9127 06db 9C26     		.uleb128 .L508-.LFB1178
 9128 06dd 01       		.uleb128 0x1
 9129 06de 900B     		.uleb128 .LEHB316-.LFB1178
 9130 06e0 05       		.uleb128 .LEHE316-.LEHB316
 9131 06e1 00       		.uleb128 0
 9132 06e2 00       		.uleb128 0
 9133 06e3 950B     		.uleb128 .LEHB317-.LFB1178
 9134 06e5 4A       		.uleb128 .LEHE317-.LEHB317
 9135 06e6 8327     		.uleb128 .L510-.LFB1178
 9136 06e8 01       		.uleb128 0x1
 9137 06e9 DF0B     		.uleb128 .LEHB318-.LFB1178
 9138 06eb 4A       		.uleb128 .LEHE318-.LEHB318
 9139 06ec EA27     		.uleb128 .L512-.LFB1178
 9140 06ee 01       		.uleb128 0x1
 9141 06ef A90C     		.uleb128 .LEHB319-.LFB1178
 9142 06f1 4A       		.uleb128 .LEHE319-.LEHB319
 9143 06f2 D128     		.uleb128 .L514-.LFB1178
 9144 06f4 01       		.uleb128 0x1
 9145 06f5 F30C     		.uleb128 .LEHB320-.LFB1178
 9146 06f7 4A       		.uleb128 .LEHE320-.LEHB320
 9147 06f8 B829     		.uleb128 .L516-.LFB1178
 9148 06fa 01       		.uleb128 0x1
 9149 06fb BD0D     		.uleb128 .LEHB321-.LFB1178
 9150 06fd 58       		.uleb128 .LEHE321-.LEHB321
 9151 06fe 9F2A     		.uleb128 .L518-.LFB1178
 9152 0700 01       		.uleb128 0x1
 9153 0701 950E     		.uleb128 .LEHB322-.LFB1178
 9154 0703 5C       		.uleb128 .LEHE322-.LEHB322
 9155 0704 862B     		.uleb128 .L520-.LFB1178
 9156 0706 01       		.uleb128 0x1
 9157 0707 F10E     		.uleb128 .LEHB323-.LFB1178
 9158 0709 5C       		.uleb128 .LEHE323-.LEHB323
 9159 070a ED2B     		.uleb128 .L522-.LFB1178
 9160 070c 01       		.uleb128 0x1
 9161 070d CD0F     		.uleb128 .LEHB324-.LFB1178
 9162 070f 5C       		.uleb128 .LEHE324-.LEHB324
 9163 0710 D42C     		.uleb128 .L524-.LFB1178
 9164 0712 01       		.uleb128 0x1
 9165 0713 A910     		.uleb128 .LEHB325-.LFB1178
 9166 0715 5C       		.uleb128 .LEHE325-.LEHB325
 9167 0716 BB2D     		.uleb128 .L526-.LFB1178
 9168 0718 01       		.uleb128 0x1
 9169 0719 8511     		.uleb128 .LEHB326-.LFB1178
 9170 071b 5C       		.uleb128 .LEHE326-.LEHB326
 9171 071c A22E     		.uleb128 .L528-.LFB1178
 9172 071e 01       		.uleb128 0x1
 9173 071f E111     		.uleb128 .LEHB327-.LFB1178
 9174 0721 5C       		.uleb128 .LEHE327-.LEHB327
 9175 0722 892F     		.uleb128 .L530-.LFB1178
 9176 0724 01       		.uleb128 0x1
 9177 0725 BD12     		.uleb128 .LEHB328-.LFB1178
 9178 0727 5C       		.uleb128 .LEHE328-.LEHB328
 9179 0728 F02F     		.uleb128 .L532-.LFB1178
 9180 072a 01       		.uleb128 0x1
 9181 072b A713     		.uleb128 .LEHB329-.LFB1178
 9182 072d 05       		.uleb128 .LEHE329-.LEHB329
 9183 072e 00       		.uleb128 0
 9184 072f 00       		.uleb128 0
 9185 0730 B213     		.uleb128 .LEHB330-.LFB1178
 9186 0732 42       		.uleb128 .LEHE330-.LEHB330
 9187 0733 D730     		.uleb128 .L534-.LFB1178
 9188 0735 01       		.uleb128 0x1
 9189 0736 F413     		.uleb128 .LEHB331-.LFB1178
 9190 0738 46       		.uleb128 .LEHE331-.LEHB331
 9191 0739 BE31     		.uleb128 .L536-.LFB1178
 9192 073b 01       		.uleb128 0x1
 9193 073c C114     		.uleb128 .LEHB332-.LFB1178
 9194 073e 18       		.uleb128 .LEHE332-.LEHB332
 9195 073f 00       		.uleb128 0
 9196 0740 00       		.uleb128 0
 9197 0741 DF14     		.uleb128 .LEHB333-.LFB1178
 9198 0743 42       		.uleb128 .LEHE333-.LEHB333
 9199 0744 A532     		.uleb128 .L538-.LFB1178
 9200 0746 01       		.uleb128 0x1
 9201 0747 A115     		.uleb128 .LEHB334-.LFB1178
 9202 0749 46       		.uleb128 .LEHE334-.LEHB334
 9203 074a 8C33     		.uleb128 .L540-.LFB1178
 9204 074c 01       		.uleb128 0x1
 9205 074d EE15     		.uleb128 .LEHB335-.LFB1178
 9206 074f 18       		.uleb128 .LEHE335-.LEHB335
 9207 0750 00       		.uleb128 0
 9208 0751 00       		.uleb128 0
 9209 0752 8C16     		.uleb128 .LEHB336-.LFB1178
 9210 0754 42       		.uleb128 .LEHE336-.LEHB336
 9211 0755 F333     		.uleb128 .L542-.LFB1178
 9212 0757 01       		.uleb128 0x1
 9213 0758 CE16     		.uleb128 .LEHB337-.LFB1178
 9214 075a 46       		.uleb128 .LEHE337-.LEHB337
 9215 075b DA34     		.uleb128 .L544-.LFB1178
 9216 075d 01       		.uleb128 0x1
 9217 075e 9B17     		.uleb128 .LEHB338-.LFB1178
 9218 0760 18       		.uleb128 .LEHE338-.LEHB338
 9219 0761 00       		.uleb128 0
 9220 0762 00       		.uleb128 0
 9221 0763 B917     		.uleb128 .LEHB339-.LFB1178
 9222 0765 42       		.uleb128 .LEHE339-.LEHB339
 9223 0766 C135     		.uleb128 .L546-.LFB1178
 9224 0768 01       		.uleb128 0x1
 9225 0769 FB17     		.uleb128 .LEHB340-.LFB1178
 9226 076b 46       		.uleb128 .LEHE340-.LEHB340
 9227 076c A836     		.uleb128 .L548-.LFB1178
 9228 076e 01       		.uleb128 0x1
 9229 076f C818     		.uleb128 .LEHB341-.LFB1178
 9230 0771 18       		.uleb128 .LEHE341-.LEHB341
 9231 0772 00       		.uleb128 0
 9232 0773 00       		.uleb128 0
 9233 0774 E618     		.uleb128 .LEHB342-.LFB1178
 9234 0776 42       		.uleb128 .LEHE342-.LEHB342
 9235 0777 8F37     		.uleb128 .L550-.LFB1178
 9236 0779 01       		.uleb128 0x1
 9237 077a A819     		.uleb128 .LEHB343-.LFB1178
 9238 077c 46       		.uleb128 .LEHE343-.LEHB343
 9239 077d F637     		.uleb128 .L552-.LFB1178
 9240 077f 01       		.uleb128 0x1
 9241 0780 F519     		.uleb128 .LEHB344-.LFB1178
 9242 0782 18       		.uleb128 .LEHE344-.LEHB344
 9243 0783 00       		.uleb128 0
 9244 0784 00       		.uleb128 0
 9245 0785 931A     		.uleb128 .LEHB345-.LFB1178
 9246 0787 42       		.uleb128 .LEHE345-.LEHB345
 9247 0788 DD38     		.uleb128 .L554-.LFB1178
 9248 078a 01       		.uleb128 0x1
 9249 078b DC1A     		.uleb128 .LEHB346-.LFB1178
 9250 078d 05       		.uleb128 .LEHE346-.LEHB346
 9251 078e 00       		.uleb128 0
 9252 078f 00       		.uleb128 0
 9253 0790 861B     		.uleb128 .LEHB347-.LFB1178
 9254 0792 3A       		.uleb128 .LEHE347-.LEHB347
 9255 0793 CA1B     		.uleb128 .L481-.LFB1178
 9256 0795 00       		.uleb128 0
 9257 0796 C01B     		.uleb128 .LEHB348-.LFB1178
 9258 0798 05       		.uleb128 .LEHE348-.LEHB348
 9259 0799 00       		.uleb128 0
 9260 079a 00       		.uleb128 0
 9261 079b DC1B     		.uleb128 .LEHB349-.LFB1178
 9262 079d 05       		.uleb128 .LEHE349-.LEHB349
 9263 079e 00       		.uleb128 0
 9264 079f 00       		.uleb128 0
 9265 07a0 ED1B     		.uleb128 .LEHB350-.LFB1178
 9266 07a2 3A       		.uleb128 .LEHE350-.LEHB350
 9267 07a3 B11C     		.uleb128 .L483-.LFB1178
 9268 07a5 00       		.uleb128 0
 9269 07a6 A71C     		.uleb128 .LEHB351-.LFB1178
 9270 07a8 05       		.uleb128 .LEHE351-.LEHB351
 9271 07a9 00       		.uleb128 0
 9272 07aa 00       		.uleb128 0
 9273 07ab C31C     		.uleb128 .LEHB352-.LFB1178
 9274 07ad 05       		.uleb128 .LEHE352-.LEHB352
 9275 07ae 00       		.uleb128 0
 9276 07af 00       		.uleb128 0
 9277 07b0 D41C     		.uleb128 .LEHB353-.LFB1178
 9278 07b2 3A       		.uleb128 .LEHE353-.LEHB353
 9279 07b3 981D     		.uleb128 .L485-.LFB1178
 9280 07b5 00       		.uleb128 0
 9281 07b6 8E1D     		.uleb128 .LEHB354-.LFB1178
 9282 07b8 05       		.uleb128 .LEHE354-.LEHB354
 9283 07b9 00       		.uleb128 0
 9284 07ba 00       		.uleb128 0
 9285 07bb AA1D     		.uleb128 .LEHB355-.LFB1178
 9286 07bd 05       		.uleb128 .LEHE355-.LEHB355
 9287 07be 00       		.uleb128 0
 9288 07bf 00       		.uleb128 0
 9289 07c0 BB1D     		.uleb128 .LEHB356-.LFB1178
 9290 07c2 3A       		.uleb128 .LEHE356-.LEHB356
 9291 07c3 FF1D     		.uleb128 .L487-.LFB1178
 9292 07c5 00       		.uleb128 0
 9293 07c6 F51D     		.uleb128 .LEHB357-.LFB1178
 9294 07c8 05       		.uleb128 .LEHE357-.LEHB357
 9295 07c9 00       		.uleb128 0
 9296 07ca 00       		.uleb128 0
 9297 07cb 911E     		.uleb128 .LEHB358-.LFB1178
 9298 07cd 05       		.uleb128 .LEHE358-.LEHB358
 9299 07ce 00       		.uleb128 0
 9300 07cf 00       		.uleb128 0
 9301 07d0 A21E     		.uleb128 .LEHB359-.LFB1178
 9302 07d2 3A       		.uleb128 .LEHE359-.LEHB359
 9303 07d3 E61E     		.uleb128 .L489-.LFB1178
 9304 07d5 00       		.uleb128 0
 9305 07d6 DC1E     		.uleb128 .LEHB360-.LFB1178
 9306 07d8 05       		.uleb128 .LEHE360-.LEHB360
 9307 07d9 00       		.uleb128 0
 9308 07da 00       		.uleb128 0
 9309 07db F81E     		.uleb128 .LEHB361-.LFB1178
 9310 07dd 05       		.uleb128 .LEHE361-.LEHB361
 9311 07de 00       		.uleb128 0
 9312 07df 00       		.uleb128 0
 9313 07e0 891F     		.uleb128 .LEHB362-.LFB1178
 9314 07e2 3A       		.uleb128 .LEHE362-.LEHB362
 9315 07e3 CD1F     		.uleb128 .L491-.LFB1178
 9316 07e5 00       		.uleb128 0
 9317 07e6 C31F     		.uleb128 .LEHB363-.LFB1178
 9318 07e8 05       		.uleb128 .LEHE363-.LEHB363
 9319 07e9 00       		.uleb128 0
 9320 07ea 00       		.uleb128 0
 9321 07eb DF1F     		.uleb128 .LEHB364-.LFB1178
 9322 07ed 05       		.uleb128 .LEHE364-.LEHB364
 9323 07ee 00       		.uleb128 0
 9324 07ef 00       		.uleb128 0
 9325 07f0 F01F     		.uleb128 .LEHB365-.LFB1178
 9326 07f2 3A       		.uleb128 .LEHE365-.LEHB365
 9327 07f3 B420     		.uleb128 .L493-.LFB1178
 9328 07f5 00       		.uleb128 0
 9329 07f6 AA20     		.uleb128 .LEHB366-.LFB1178
 9330 07f8 05       		.uleb128 .LEHE366-.LEHB366
 9331 07f9 00       		.uleb128 0
 9332 07fa 00       		.uleb128 0
 9333 07fb C620     		.uleb128 .LEHB367-.LFB1178
 9334 07fd 05       		.uleb128 .LEHE367-.LEHB367
 9335 07fe 00       		.uleb128 0
 9336 07ff 00       		.uleb128 0
 9337 0800 D720     		.uleb128 .LEHB368-.LFB1178
 9338 0802 3A       		.uleb128 .LEHE368-.LEHB368
 9339 0803 9B21     		.uleb128 .L495-.LFB1178
 9340 0805 00       		.uleb128 0
 9341 0806 9121     		.uleb128 .LEHB369-.LFB1178
 9342 0808 05       		.uleb128 .LEHE369-.LEHB369
 9343 0809 00       		.uleb128 0
 9344 080a 00       		.uleb128 0
 9345 080b AD21     		.uleb128 .LEHB370-.LFB1178
 9346 080d 05       		.uleb128 .LEHE370-.LEHB370
 9347 080e 00       		.uleb128 0
 9348 080f 00       		.uleb128 0
 9349 0810 BE21     		.uleb128 .LEHB371-.LFB1178
 9350 0812 3A       		.uleb128 .LEHE371-.LEHB371
 9351 0813 8222     		.uleb128 .L497-.LFB1178
 9352 0815 00       		.uleb128 0
 9353 0816 F821     		.uleb128 .LEHB372-.LFB1178
 9354 0818 05       		.uleb128 .LEHE372-.LEHB372
 9355 0819 00       		.uleb128 0
 9356 081a 00       		.uleb128 0
 9357 081b 9422     		.uleb128 .LEHB373-.LFB1178
 9358 081d 05       		.uleb128 .LEHE373-.LEHB373
 9359 081e 00       		.uleb128 0
 9360 081f 00       		.uleb128 0
 9361 0820 A522     		.uleb128 .LEHB374-.LFB1178
 9362 0822 3A       		.uleb128 .LEHE374-.LEHB374
 9363 0823 E922     		.uleb128 .L499-.LFB1178
 9364 0825 00       		.uleb128 0
 9365 0826 DF22     		.uleb128 .LEHB375-.LFB1178
 9366 0828 05       		.uleb128 .LEHE375-.LEHB375
 9367 0829 00       		.uleb128 0
 9368 082a 00       		.uleb128 0
 9369 082b FB22     		.uleb128 .LEHB376-.LFB1178
 9370 082d 05       		.uleb128 .LEHE376-.LEHB376
 9371 082e 00       		.uleb128 0
 9372 082f 00       		.uleb128 0
 9373 0830 8C23     		.uleb128 .LEHB377-.LFB1178
 9374 0832 3A       		.uleb128 .LEHE377-.LEHB377
 9375 0833 D023     		.uleb128 .L501-.LFB1178
 9376 0835 00       		.uleb128 0
 9377 0836 C623     		.uleb128 .LEHB378-.LFB1178
 9378 0838 05       		.uleb128 .LEHE378-.LEHB378
 9379 0839 00       		.uleb128 0
 9380 083a 00       		.uleb128 0
 9381 083b E223     		.uleb128 .LEHB379-.LFB1178
 9382 083d 05       		.uleb128 .LEHE379-.LEHB379
 9383 083e 00       		.uleb128 0
 9384 083f 00       		.uleb128 0
 9385 0840 F323     		.uleb128 .LEHB380-.LFB1178
 9386 0842 3A       		.uleb128 .LEHE380-.LEHB380
 9387 0843 B724     		.uleb128 .L503-.LFB1178
 9388 0845 00       		.uleb128 0
 9389 0846 AD24     		.uleb128 .LEHB381-.LFB1178
 9390 0848 05       		.uleb128 .LEHE381-.LEHB381
 9391 0849 00       		.uleb128 0
 9392 084a 00       		.uleb128 0
 9393 084b C924     		.uleb128 .LEHB382-.LFB1178
 9394 084d 05       		.uleb128 .LEHE382-.LEHB382
 9395 084e 00       		.uleb128 0
 9396 084f 00       		.uleb128 0
 9397 0850 DA24     		.uleb128 .LEHB383-.LFB1178
 9398 0852 3A       		.uleb128 .LEHE383-.LEHB383
 9399 0853 9E25     		.uleb128 .L505-.LFB1178
 9400 0855 00       		.uleb128 0
 9401 0856 9425     		.uleb128 .LEHB384-.LFB1178
 9402 0858 05       		.uleb128 .LEHE384-.LEHB384
 9403 0859 00       		.uleb128 0
 9404 085a 00       		.uleb128 0
 9405 085b B025     		.uleb128 .LEHB385-.LFB1178
 9406 085d 05       		.uleb128 .LEHE385-.LEHB385
 9407 085e 00       		.uleb128 0
 9408 085f 00       		.uleb128 0
 9409 0860 C125     		.uleb128 .LEHB386-.LFB1178
 9410 0862 3A       		.uleb128 .LEHE386-.LEHB386
 9411 0863 8526     		.uleb128 .L507-.LFB1178
 9412 0865 00       		.uleb128 0
 9413 0866 FB25     		.uleb128 .LEHB387-.LFB1178
 9414 0868 05       		.uleb128 .LEHE387-.LEHB387
 9415 0869 00       		.uleb128 0
 9416 086a 00       		.uleb128 0
 9417 086b 9726     		.uleb128 .LEHB388-.LFB1178
 9418 086d 05       		.uleb128 .LEHE388-.LEHB388
 9419 086e 00       		.uleb128 0
 9420 086f 00       		.uleb128 0
 9421 0870 A826     		.uleb128 .LEHB389-.LFB1178
 9422 0872 3A       		.uleb128 .LEHE389-.LEHB389
 9423 0873 EC26     		.uleb128 .L509-.LFB1178
 9424 0875 00       		.uleb128 0
 9425 0876 E226     		.uleb128 .LEHB390-.LFB1178
 9426 0878 05       		.uleb128 .LEHE390-.LEHB390
 9427 0879 00       		.uleb128 0
 9428 087a 00       		.uleb128 0
 9429 087b FE26     		.uleb128 .LEHB391-.LFB1178
 9430 087d 05       		.uleb128 .LEHE391-.LEHB391
 9431 087e 00       		.uleb128 0
 9432 087f 00       		.uleb128 0
 9433 0880 8F27     		.uleb128 .LEHB392-.LFB1178
 9434 0882 3A       		.uleb128 .LEHE392-.LEHB392
 9435 0883 D327     		.uleb128 .L511-.LFB1178
 9436 0885 00       		.uleb128 0
 9437 0886 C927     		.uleb128 .LEHB393-.LFB1178
 9438 0888 05       		.uleb128 .LEHE393-.LEHB393
 9439 0889 00       		.uleb128 0
 9440 088a 00       		.uleb128 0
 9441 088b E527     		.uleb128 .LEHB394-.LFB1178
 9442 088d 05       		.uleb128 .LEHE394-.LEHB394
 9443 088e 00       		.uleb128 0
 9444 088f 00       		.uleb128 0
 9445 0890 F627     		.uleb128 .LEHB395-.LFB1178
 9446 0892 3A       		.uleb128 .LEHE395-.LEHB395
 9447 0893 BA28     		.uleb128 .L513-.LFB1178
 9448 0895 00       		.uleb128 0
 9449 0896 B028     		.uleb128 .LEHB396-.LFB1178
 9450 0898 05       		.uleb128 .LEHE396-.LEHB396
 9451 0899 00       		.uleb128 0
 9452 089a 00       		.uleb128 0
 9453 089b CC28     		.uleb128 .LEHB397-.LFB1178
 9454 089d 05       		.uleb128 .LEHE397-.LEHB397
 9455 089e 00       		.uleb128 0
 9456 089f 00       		.uleb128 0
 9457 08a0 DD28     		.uleb128 .LEHB398-.LFB1178
 9458 08a2 3A       		.uleb128 .LEHE398-.LEHB398
 9459 08a3 A129     		.uleb128 .L515-.LFB1178
 9460 08a5 00       		.uleb128 0
 9461 08a6 9729     		.uleb128 .LEHB399-.LFB1178
 9462 08a8 05       		.uleb128 .LEHE399-.LEHB399
 9463 08a9 00       		.uleb128 0
 9464 08aa 00       		.uleb128 0
 9465 08ab B329     		.uleb128 .LEHB400-.LFB1178
 9466 08ad 05       		.uleb128 .LEHE400-.LEHB400
 9467 08ae 00       		.uleb128 0
 9468 08af 00       		.uleb128 0
 9469 08b0 C429     		.uleb128 .LEHB401-.LFB1178
 9470 08b2 3A       		.uleb128 .LEHE401-.LEHB401
 9471 08b3 882A     		.uleb128 .L517-.LFB1178
 9472 08b5 00       		.uleb128 0
 9473 08b6 FE29     		.uleb128 .LEHB402-.LFB1178
 9474 08b8 05       		.uleb128 .LEHE402-.LEHB402
 9475 08b9 00       		.uleb128 0
 9476 08ba 00       		.uleb128 0
 9477 08bb 9A2A     		.uleb128 .LEHB403-.LFB1178
 9478 08bd 05       		.uleb128 .LEHE403-.LEHB403
 9479 08be 00       		.uleb128 0
 9480 08bf 00       		.uleb128 0
 9481 08c0 AB2A     		.uleb128 .LEHB404-.LFB1178
 9482 08c2 3A       		.uleb128 .LEHE404-.LEHB404
 9483 08c3 EF2A     		.uleb128 .L519-.LFB1178
 9484 08c5 00       		.uleb128 0
 9485 08c6 E52A     		.uleb128 .LEHB405-.LFB1178
 9486 08c8 05       		.uleb128 .LEHE405-.LEHB405
 9487 08c9 00       		.uleb128 0
 9488 08ca 00       		.uleb128 0
 9489 08cb 812B     		.uleb128 .LEHB406-.LFB1178
 9490 08cd 05       		.uleb128 .LEHE406-.LEHB406
 9491 08ce 00       		.uleb128 0
 9492 08cf 00       		.uleb128 0
 9493 08d0 922B     		.uleb128 .LEHB407-.LFB1178
 9494 08d2 3A       		.uleb128 .LEHE407-.LEHB407
 9495 08d3 D62B     		.uleb128 .L521-.LFB1178
 9496 08d5 00       		.uleb128 0
 9497 08d6 CC2B     		.uleb128 .LEHB408-.LFB1178
 9498 08d8 05       		.uleb128 .LEHE408-.LEHB408
 9499 08d9 00       		.uleb128 0
 9500 08da 00       		.uleb128 0
 9501 08db E82B     		.uleb128 .LEHB409-.LFB1178
 9502 08dd 05       		.uleb128 .LEHE409-.LEHB409
 9503 08de 00       		.uleb128 0
 9504 08df 00       		.uleb128 0
 9505 08e0 F92B     		.uleb128 .LEHB410-.LFB1178
 9506 08e2 3A       		.uleb128 .LEHE410-.LEHB410
 9507 08e3 BD2C     		.uleb128 .L523-.LFB1178
 9508 08e5 00       		.uleb128 0
 9509 08e6 B32C     		.uleb128 .LEHB411-.LFB1178
 9510 08e8 05       		.uleb128 .LEHE411-.LEHB411
 9511 08e9 00       		.uleb128 0
 9512 08ea 00       		.uleb128 0
 9513 08eb CF2C     		.uleb128 .LEHB412-.LFB1178
 9514 08ed 05       		.uleb128 .LEHE412-.LEHB412
 9515 08ee 00       		.uleb128 0
 9516 08ef 00       		.uleb128 0
 9517 08f0 E02C     		.uleb128 .LEHB413-.LFB1178
 9518 08f2 3A       		.uleb128 .LEHE413-.LEHB413
 9519 08f3 A42D     		.uleb128 .L525-.LFB1178
 9520 08f5 00       		.uleb128 0
 9521 08f6 9A2D     		.uleb128 .LEHB414-.LFB1178
 9522 08f8 05       		.uleb128 .LEHE414-.LEHB414
 9523 08f9 00       		.uleb128 0
 9524 08fa 00       		.uleb128 0
 9525 08fb B62D     		.uleb128 .LEHB415-.LFB1178
 9526 08fd 05       		.uleb128 .LEHE415-.LEHB415
 9527 08fe 00       		.uleb128 0
 9528 08ff 00       		.uleb128 0
 9529 0900 C72D     		.uleb128 .LEHB416-.LFB1178
 9530 0902 3A       		.uleb128 .LEHE416-.LEHB416
 9531 0903 8B2E     		.uleb128 .L527-.LFB1178
 9532 0905 00       		.uleb128 0
 9533 0906 812E     		.uleb128 .LEHB417-.LFB1178
 9534 0908 05       		.uleb128 .LEHE417-.LEHB417
 9535 0909 00       		.uleb128 0
 9536 090a 00       		.uleb128 0
 9537 090b 9D2E     		.uleb128 .LEHB418-.LFB1178
 9538 090d 05       		.uleb128 .LEHE418-.LEHB418
 9539 090e 00       		.uleb128 0
 9540 090f 00       		.uleb128 0
 9541 0910 AE2E     		.uleb128 .LEHB419-.LFB1178
 9542 0912 3A       		.uleb128 .LEHE419-.LEHB419
 9543 0913 F22E     		.uleb128 .L529-.LFB1178
 9544 0915 00       		.uleb128 0
 9545 0916 E82E     		.uleb128 .LEHB420-.LFB1178
 9546 0918 05       		.uleb128 .LEHE420-.LEHB420
 9547 0919 00       		.uleb128 0
 9548 091a 00       		.uleb128 0
 9549 091b 842F     		.uleb128 .LEHB421-.LFB1178
 9550 091d 05       		.uleb128 .LEHE421-.LEHB421
 9551 091e 00       		.uleb128 0
 9552 091f 00       		.uleb128 0
 9553 0920 952F     		.uleb128 .LEHB422-.LFB1178
 9554 0922 3A       		.uleb128 .LEHE422-.LEHB422
 9555 0923 D92F     		.uleb128 .L531-.LFB1178
 9556 0925 00       		.uleb128 0
 9557 0926 CF2F     		.uleb128 .LEHB423-.LFB1178
 9558 0928 05       		.uleb128 .LEHE423-.LEHB423
 9559 0929 00       		.uleb128 0
 9560 092a 00       		.uleb128 0
 9561 092b EB2F     		.uleb128 .LEHB424-.LFB1178
 9562 092d 05       		.uleb128 .LEHE424-.LEHB424
 9563 092e 00       		.uleb128 0
 9564 092f 00       		.uleb128 0
 9565 0930 FC2F     		.uleb128 .LEHB425-.LFB1178
 9566 0932 3A       		.uleb128 .LEHE425-.LEHB425
 9567 0933 C030     		.uleb128 .L533-.LFB1178
 9568 0935 00       		.uleb128 0
 9569 0936 B630     		.uleb128 .LEHB426-.LFB1178
 9570 0938 05       		.uleb128 .LEHE426-.LEHB426
 9571 0939 00       		.uleb128 0
 9572 093a 00       		.uleb128 0
 9573 093b D230     		.uleb128 .LEHB427-.LFB1178
 9574 093d 05       		.uleb128 .LEHE427-.LEHB427
 9575 093e 00       		.uleb128 0
 9576 093f 00       		.uleb128 0
 9577 0940 E330     		.uleb128 .LEHB428-.LFB1178
 9578 0942 3A       		.uleb128 .LEHE428-.LEHB428
 9579 0943 A731     		.uleb128 .L535-.LFB1178
 9580 0945 00       		.uleb128 0
 9581 0946 9D31     		.uleb128 .LEHB429-.LFB1178
 9582 0948 05       		.uleb128 .LEHE429-.LEHB429
 9583 0949 00       		.uleb128 0
 9584 094a 00       		.uleb128 0
 9585 094b B931     		.uleb128 .LEHB430-.LFB1178
 9586 094d 05       		.uleb128 .LEHE430-.LEHB430
 9587 094e 00       		.uleb128 0
 9588 094f 00       		.uleb128 0
 9589 0950 CA31     		.uleb128 .LEHB431-.LFB1178
 9590 0952 3A       		.uleb128 .LEHE431-.LEHB431
 9591 0953 8E32     		.uleb128 .L537-.LFB1178
 9592 0955 00       		.uleb128 0
 9593 0956 8432     		.uleb128 .LEHB432-.LFB1178
 9594 0958 05       		.uleb128 .LEHE432-.LEHB432
 9595 0959 00       		.uleb128 0
 9596 095a 00       		.uleb128 0
 9597 095b A032     		.uleb128 .LEHB433-.LFB1178
 9598 095d 05       		.uleb128 .LEHE433-.LEHB433
 9599 095e 00       		.uleb128 0
 9600 095f 00       		.uleb128 0
 9601 0960 B132     		.uleb128 .LEHB434-.LFB1178
 9602 0962 3A       		.uleb128 .LEHE434-.LEHB434
 9603 0963 F532     		.uleb128 .L539-.LFB1178
 9604 0965 00       		.uleb128 0
 9605 0966 EB32     		.uleb128 .LEHB435-.LFB1178
 9606 0968 05       		.uleb128 .LEHE435-.LEHB435
 9607 0969 00       		.uleb128 0
 9608 096a 00       		.uleb128 0
 9609 096b 8733     		.uleb128 .LEHB436-.LFB1178
 9610 096d 05       		.uleb128 .LEHE436-.LEHB436
 9611 096e 00       		.uleb128 0
 9612 096f 00       		.uleb128 0
 9613 0970 9833     		.uleb128 .LEHB437-.LFB1178
 9614 0972 3A       		.uleb128 .LEHE437-.LEHB437
 9615 0973 DC33     		.uleb128 .L541-.LFB1178
 9616 0975 00       		.uleb128 0
 9617 0976 D233     		.uleb128 .LEHB438-.LFB1178
 9618 0978 05       		.uleb128 .LEHE438-.LEHB438
 9619 0979 00       		.uleb128 0
 9620 097a 00       		.uleb128 0
 9621 097b EE33     		.uleb128 .LEHB439-.LFB1178
 9622 097d 05       		.uleb128 .LEHE439-.LEHB439
 9623 097e 00       		.uleb128 0
 9624 097f 00       		.uleb128 0
 9625 0980 FF33     		.uleb128 .LEHB440-.LFB1178
 9626 0982 3A       		.uleb128 .LEHE440-.LEHB440
 9627 0983 C334     		.uleb128 .L543-.LFB1178
 9628 0985 00       		.uleb128 0
 9629 0986 B934     		.uleb128 .LEHB441-.LFB1178
 9630 0988 05       		.uleb128 .LEHE441-.LEHB441
 9631 0989 00       		.uleb128 0
 9632 098a 00       		.uleb128 0
 9633 098b D534     		.uleb128 .LEHB442-.LFB1178
 9634 098d 05       		.uleb128 .LEHE442-.LEHB442
 9635 098e 00       		.uleb128 0
 9636 098f 00       		.uleb128 0
 9637 0990 E634     		.uleb128 .LEHB443-.LFB1178
 9638 0992 3A       		.uleb128 .LEHE443-.LEHB443
 9639 0993 AA35     		.uleb128 .L545-.LFB1178
 9640 0995 00       		.uleb128 0
 9641 0996 A035     		.uleb128 .LEHB444-.LFB1178
 9642 0998 05       		.uleb128 .LEHE444-.LEHB444
 9643 0999 00       		.uleb128 0
 9644 099a 00       		.uleb128 0
 9645 099b BC35     		.uleb128 .LEHB445-.LFB1178
 9646 099d 05       		.uleb128 .LEHE445-.LEHB445
 9647 099e 00       		.uleb128 0
 9648 099f 00       		.uleb128 0
 9649 09a0 CD35     		.uleb128 .LEHB446-.LFB1178
 9650 09a2 3A       		.uleb128 .LEHE446-.LEHB446
 9651 09a3 9136     		.uleb128 .L547-.LFB1178
 9652 09a5 00       		.uleb128 0
 9653 09a6 8736     		.uleb128 .LEHB447-.LFB1178
 9654 09a8 05       		.uleb128 .LEHE447-.LEHB447
 9655 09a9 00       		.uleb128 0
 9656 09aa 00       		.uleb128 0
 9657 09ab A336     		.uleb128 .LEHB448-.LFB1178
 9658 09ad 05       		.uleb128 .LEHE448-.LEHB448
 9659 09ae 00       		.uleb128 0
 9660 09af 00       		.uleb128 0
 9661 09b0 B436     		.uleb128 .LEHB449-.LFB1178
 9662 09b2 3A       		.uleb128 .LEHE449-.LEHB449
 9663 09b3 F836     		.uleb128 .L549-.LFB1178
 9664 09b5 00       		.uleb128 0
 9665 09b6 EE36     		.uleb128 .LEHB450-.LFB1178
 9666 09b8 05       		.uleb128 .LEHE450-.LEHB450
 9667 09b9 00       		.uleb128 0
 9668 09ba 00       		.uleb128 0
 9669 09bb 8A37     		.uleb128 .LEHB451-.LFB1178
 9670 09bd 05       		.uleb128 .LEHE451-.LEHB451
 9671 09be 00       		.uleb128 0
 9672 09bf 00       		.uleb128 0
 9673 09c0 9B37     		.uleb128 .LEHB452-.LFB1178
 9674 09c2 3A       		.uleb128 .LEHE452-.LEHB452
 9675 09c3 DF37     		.uleb128 .L551-.LFB1178
 9676 09c5 00       		.uleb128 0
 9677 09c6 D537     		.uleb128 .LEHB453-.LFB1178
 9678 09c8 05       		.uleb128 .LEHE453-.LEHB453
 9679 09c9 00       		.uleb128 0
 9680 09ca 00       		.uleb128 0
 9681 09cb F137     		.uleb128 .LEHB454-.LFB1178
 9682 09cd 05       		.uleb128 .LEHE454-.LEHB454
 9683 09ce 00       		.uleb128 0
 9684 09cf 00       		.uleb128 0
 9685 09d0 8238     		.uleb128 .LEHB455-.LFB1178
 9686 09d2 3A       		.uleb128 .LEHE455-.LEHB455
 9687 09d3 C638     		.uleb128 .L553-.LFB1178
 9688 09d5 00       		.uleb128 0
 9689 09d6 BC38     		.uleb128 .LEHB456-.LFB1178
 9690 09d8 05       		.uleb128 .LEHE456-.LEHB456
 9691 09d9 00       		.uleb128 0
 9692 09da 00       		.uleb128 0
 9693 09db D838     		.uleb128 .LEHB457-.LFB1178
 9694 09dd 05       		.uleb128 .LEHE457-.LEHB457
 9695 09de 00       		.uleb128 0
 9696 09df 00       		.uleb128 0
 9697 09e0 E938     		.uleb128 .LEHB458-.LFB1178
 9698 09e2 3A       		.uleb128 .LEHE458-.LEHB458
 9699 09e3 AD39     		.uleb128 .L555-.LFB1178
 9700 09e5 00       		.uleb128 0
 9701 09e6 A339     		.uleb128 .LEHB459-.LFB1178
 9702 09e8 05       		.uleb128 .LEHE459-.LEHB459
 9703 09e9 00       		.uleb128 0
 9704 09ea 00       		.uleb128 0
 9705 09eb BF39     		.uleb128 .LEHB460-.LFB1178
 9706 09ed 05       		.uleb128 .LEHE460-.LEHB460
 9707 09ee 00       		.uleb128 0
 9708 09ef 00       		.uleb128 0
 9709              	.LLSDACSE1178:
 9710 09f0 01       		.byte	0x1
 9711 09f1 00       		.byte	0
 9712 09f2 0000     		.align 4
 9713 09f4 00000000 		.long	0
 9714              	
 9715              	.LLSDATT1178:
 9716              		.text
 9718              		.section	.rodata
 9719              	.LC53:
 9720 0bbc 51756575 		.string	"Queue_testRealloc"
 9720      655F7465 
 9720      73745265 
 9720      616C6C6F 
 9720      6300
 9721              		.section	.text._ZN21TestQueue_testReallocC2Ev,"axG",@progbits,_ZN21TestQueue_testReallocC5Ev,comda
 9722              		.align 2
 9723              		.weak	_ZN21TestQueue_testReallocC2Ev
 9725              	_ZN21TestQueue_testReallocC2Ev:
 9726              	.LFB1180:
 323:testCore.cpp  **** 
 324:testCore.cpp  **** TEST(Queue_testRealloc) {
 9727              		.loc 3 324 1
 9728              		.cfi_startproc
 9729 0000 F30F1EFA 		endbr64
 9730 0004 55       		pushq	%rbp
 9731              		.cfi_def_cfa_offset 16
 9732              		.cfi_offset 6, -16
 9733 0005 4889E5   		movq	%rsp, %rbp
 9734              		.cfi_def_cfa_register 6
 9735 0008 53       		pushq	%rbx
 9736 0009 4883EC18 		subq	$24, %rsp
 9737              		.cfi_offset 3, -24
 9738 000d 48897DE8 		movq	%rdi, -24(%rbp)
 9739              	.LBB8:
 9740              		.loc 3 324 1
 9741 0011 488B5DE8 		movq	-24(%rbp), %rbx
 9742 0015 E8000000 		call	_ZN13UnitTestSuite12GetSuiteNameEv
 9742      00
 9743 001a 4889C2   		movq	%rax, %rdx
 9744 001d 41B84401 		movl	$324, %r8d
 9744      0000
 9745 0023 488D0500 		leaq	.LC1(%rip), %rax
 9745      000000
 9746 002a 4889C1   		movq	%rax, %rcx
 9747 002d 488D0500 		leaq	.LC53(%rip), %rax
 9747      000000
 9748 0034 4889C6   		movq	%rax, %rsi
 9749 0037 4889DF   		movq	%rbx, %rdi
 9750 003a E8000000 		call	_ZN8UnitTest4TestC2EPKcS2_S2_i@PLT
 9750      00
 9751 003f 488D1500 		leaq	16+_ZTV21TestQueue_testRealloc(%rip), %rdx
 9751      000000
 9752 0046 488B45E8 		movq	-24(%rbp), %rax
 9753 004a 488910   		movq	%rdx, (%rax)
 9754              	.LBE8:
 9755 004d 90       		nop
 9756 004e 488B5DF8 		movq	-8(%rbp), %rbx
 9757 0052 C9       		leave
 9758              		.cfi_def_cfa 7, 8
 9759 0053 C3       		ret
 9760              		.cfi_endproc
 9761              	.LFE1180:
 9763              		.weak	_ZN21TestQueue_testReallocC1Ev
 9764              		.set	_ZN21TestQueue_testReallocC1Ev,_ZN21TestQueue_testReallocC2Ev
 9765              		.globl	testQueue_testReallocInstance
 9766              		.bss
 9767 00f9 00000000 		.align 32
 9767      000000
 9770              	testQueue_testReallocInstance:
 9771 0100 00000000 		.zero	56
 9771      00000000 
 9771      00000000 
 9771      00000000 
 9771      00000000 
 9772              		.globl	adderQueue_testRealloc
 9775              	adderQueue_testRealloc:
 9776 0138 00       		.zero	1
 9777              		.text
 9778              		.align 2
 9779              		.globl	_ZNK21TestQueue_testRealloc7RunImplEv
 9781              	_ZNK21TestQueue_testRealloc7RunImplEv:
 9782              	.LFB1182:
 9783              		.loc 3 324 25
 9784              		.cfi_startproc
 9785 4fec F30F1EFA 		endbr64
 9786 4ff0 55       		pushq	%rbp
 9787              		.cfi_def_cfa_offset 16
 9788              		.cfi_offset 6, -16
 9789 4ff1 4889E5   		movq	%rsp, %rbp
 9790              		.cfi_def_cfa_register 6
 9791 4ff4 4883EC10 		subq	$16, %rsp
 9792 4ff8 48897DF8 		movq	%rdi, -8(%rbp)
 325:testCore.cpp  **** 	testRealloc(0);
 9793              		.loc 3 325 13
 9794 4ffc BF000000 		movl	$0, %edi
 9794      00
 9795 5001 E8000000 		call	_Z11testReallocm
 9795      00
 326:testCore.cpp  **** 	testRealloc(1);
 9796              		.loc 3 326 13
 9797 5006 BF010000 		movl	$1, %edi
 9797      00
 9798 500b E8000000 		call	_Z11testReallocm
 9798      00
 327:testCore.cpp  **** 	testRealloc(2);
 9799              		.loc 3 327 13
 9800 5010 BF020000 		movl	$2, %edi
 9800      00
 9801 5015 E8000000 		call	_Z11testReallocm
 9801      00
 328:testCore.cpp  **** 	testRealloc(3);
 9802              		.loc 3 328 13
 9803 501a BF030000 		movl	$3, %edi
 9803      00
 9804 501f E8000000 		call	_Z11testReallocm
 9804      00
 329:testCore.cpp  **** }
 9805              		.loc 3 329 1
 9806 5024 90       		nop
 9807 5025 C9       		leave
 9808              		.cfi_def_cfa 7, 8
 9809 5026 C3       		ret
 9810              		.cfi_endproc
 9811              	.LFE1182:
 9813              		.section	.rodata
 9814              	.LC54:
 9815 0bce 51756575 		.string	"Queue_testAllocOOM"
 9815      655F7465 
 9815      7374416C 
 9815      6C6F634F 
 9815      4F4D00
 9816              		.section	.text._ZN22TestQueue_testAllocOOMC2Ev,"axG",@progbits,_ZN22TestQueue_testAllocOOMC5Ev,com
 9817              		.align 2
 9818              		.weak	_ZN22TestQueue_testAllocOOMC2Ev
 9820              	_ZN22TestQueue_testAllocOOMC2Ev:
 9821              	.LFB1184:
 330:testCore.cpp  **** 
 331:testCore.cpp  **** TEST(Queue_testAllocOOM) {
 9822              		.loc 3 331 1
 9823              		.cfi_startproc
 9824 0000 F30F1EFA 		endbr64
 9825 0004 55       		pushq	%rbp
 9826              		.cfi_def_cfa_offset 16
 9827              		.cfi_offset 6, -16
 9828 0005 4889E5   		movq	%rsp, %rbp
 9829              		.cfi_def_cfa_register 6
 9830 0008 53       		pushq	%rbx
 9831 0009 4883EC18 		subq	$24, %rsp
 9832              		.cfi_offset 3, -24
 9833 000d 48897DE8 		movq	%rdi, -24(%rbp)
 9834              	.LBB9:
 9835              		.loc 3 331 1
 9836 0011 488B5DE8 		movq	-24(%rbp), %rbx
 9837 0015 E8000000 		call	_ZN13UnitTestSuite12GetSuiteNameEv
 9837      00
 9838 001a 4889C2   		movq	%rax, %rdx
 9839 001d 41B84B01 		movl	$331, %r8d
 9839      0000
 9840 0023 488D0500 		leaq	.LC1(%rip), %rax
 9840      000000
 9841 002a 4889C1   		movq	%rax, %rcx
 9842 002d 488D0500 		leaq	.LC54(%rip), %rax
 9842      000000
 9843 0034 4889C6   		movq	%rax, %rsi
 9844 0037 4889DF   		movq	%rbx, %rdi
 9845 003a E8000000 		call	_ZN8UnitTest4TestC2EPKcS2_S2_i@PLT
 9845      00
 9846 003f 488D1500 		leaq	16+_ZTV22TestQueue_testAllocOOM(%rip), %rdx
 9846      000000
 9847 0046 488B45E8 		movq	-24(%rbp), %rax
 9848 004a 488910   		movq	%rdx, (%rax)
 9849              	.LBE9:
 9850 004d 90       		nop
 9851 004e 488B5DF8 		movq	-8(%rbp), %rbx
 9852 0052 C9       		leave
 9853              		.cfi_def_cfa 7, 8
 9854 0053 C3       		ret
 9855              		.cfi_endproc
 9856              	.LFE1184:
 9858              		.weak	_ZN22TestQueue_testAllocOOMC1Ev
 9859              		.set	_ZN22TestQueue_testAllocOOMC1Ev,_ZN22TestQueue_testAllocOOMC2Ev
 9860              		.globl	testQueue_testAllocOOMInstance
 9861              		.bss
 9862 0139 00000000 		.align 32
 9862      000000
 9865              	testQueue_testAllocOOMInstance:
 9866 0140 00000000 		.zero	56
 9866      00000000 
 9866      00000000 
 9866      00000000 
 9866      00000000 
 9867              		.globl	adderQueue_testAllocOOM
 9870              	adderQueue_testAllocOOM:
 9871 0178 00       		.zero	1
 9872              		.section	.rodata
 9873 0be1 00000000 		.align 8
 9873      000000
 9874              	.LC55:
 9875 0be8 556E6861 		.string	"Unhandled exception in CHECK_EQUAL(USB_ALLOC_ERR, status)"
 9875      6E646C65 
 9875      64206578 
 9875      63657074 
 9875      696F6E20 
 9876              		.text
 9877 5027 90       		.align 2
 9878              		.globl	_ZNK22TestQueue_testAllocOOM7RunImplEv
 9880              	_ZNK22TestQueue_testAllocOOM7RunImplEv:
 9881              	.LFB1186:
 9882              		.loc 3 331 26
 9883              		.cfi_startproc
 9884              		.cfi_personality 0x9b,DW.ref.__gxx_personality_v0
 9885              		.cfi_lsda 0x1b,.LLSDA1186
 9886 5028 F30F1EFA 		endbr64
 9887 502c 55       		pushq	%rbp
 9888              		.cfi_def_cfa_offset 16
 9889              		.cfi_offset 6, -16
 9890 502d 4889E5   		movq	%rsp, %rbp
 9891              		.cfi_def_cfa_register 6
 9892 5030 53       		pushq	%rbx
 9893 5031 4881EC88 		subq	$136, %rsp
 9893      000000
 9894              		.cfi_offset 3, -24
 9895 5038 4889BD78 		movq	%rdi, -136(%rbp)
 9895      FFFFFF
 9896              		.loc 3 331 26
 9897 503f 64488B04 		movq	%fs:40, %rax
 9897      25280000 
 9897      00
 9898 5048 488945E8 		movq	%rax, -24(%rbp)
 9899 504c 31C0     		xorl	%eax, %eax
 332:testCore.cpp  **** 	struct UnboundedQueue queue;
 333:testCore.cpp  **** 	m_count = 1;
 9900              		.loc 3 333 10
 9901 504e C7050000 		movl	$1, _ZL7m_count(%rip)
 9901      00000100 
 9901      0000
 334:testCore.cpp  **** 
 335:testCore.cpp  **** 	// Create queue
 336:testCore.cpp  **** 	USBStatus status = queueInit(&queue, 9, (CreateFunc)createInt, (DestroyFunc)destroyInt);
 9902              		.loc 3 336 30
 9903 5058 488D45B0 		leaq	-80(%rbp), %rax
 9904 505c 488D1500 		leaq	destroyInt(%rip), %rdx
 9904      000000
 9905 5063 4889D1   		movq	%rdx, %rcx
 9906 5066 488D1500 		leaq	createInt(%rip), %rdx
 9906      000000
 9907 506d BE090000 		movl	$9, %esi
 9907      00
 9908 5072 4889C7   		movq	%rax, %rdi
 9909              	.LEHB461:
 9910 5075 E8000000 		call	queueInit@PLT
 9910      00
 9911              	.LEHE461:
 9912              		.loc 3 336 88
 9913 507a 894588   		movl	%eax, -120(%rbp)
 9914              	.LEHB462:
 337:testCore.cpp  **** 	CHECK_EQUAL(USB_ALLOC_ERR, status);
 9915              		.loc 3 337 2
 9916 507d E8000000 		call	_ZN8UnitTest11CurrentTest7DetailsEv@PLT
 9916      00
 9917 5082 488B08   		movq	(%rax), %rcx
 9918 5085 488D4590 		leaq	-112(%rbp), %rax
 9919 5089 BA510100 		movl	$337, %edx
 9919      00
 9920 508e 4889CE   		movq	%rcx, %rsi
 9921 5091 4889C7   		movq	%rax, %rdi
 9922 5094 E8000000 		call	_ZN8UnitTest11TestDetailsC1ERKS0_i@PLT
 9922      00
 9923              		.loc 3 337 2 is_stmt 0 discriminator 4
 9924 5099 C7458C0C 		movl	$12, -116(%rbp)
 9924      000000
 9925 50a0 E8000000 		call	_ZN8UnitTest11CurrentTest7ResultsEv@PLT
 9925      00
 9926 50a5 488B00   		movq	(%rax), %rax
 9927 50a8 488D4D90 		leaq	-112(%rbp), %rcx
 9928 50ac 488D5588 		leaq	-120(%rbp), %rdx
 9929 50b0 488D758C 		leaq	-116(%rbp), %rsi
 9930 50b4 4889C7   		movq	%rax, %rdi
 9931 50b7 E8000000 		call	_ZN8UnitTest10CheckEqualI9USBStatusS1_EEvRNS_11TestResultsERKT_RKT0_RKNS_11TestDetailsE
 9931      00
 9932              	.LEHE462:
 9933              	.L562:
 338:testCore.cpp  **** 
 339:testCore.cpp  **** 	queueDestroy(&queue);
 9934              		.loc 3 339 14 is_stmt 1
 9935 50bc 488D45B0 		leaq	-80(%rbp), %rax
 9936 50c0 4889C7   		movq	%rax, %rdi
 9937              	.LEHB463:
 9938 50c3 E8000000 		call	queueDestroy@PLT
 9938      00
 9939              	.LEHE463:
 340:testCore.cpp  **** }
 9940              		.loc 3 340 1
 9941 50c8 90       		nop
 9942 50c9 488B45E8 		movq	-24(%rbp), %rax
 9943 50cd 64482B04 		subq	%fs:40, %rax
 9943      25280000 
 9943      00
 9944 50d6 746B     		je	.L564
 9945 50d8 EB64     		jmp	.L567
 9946              	.L565:
 9947 50da F30F1EFA 		endbr64
 337:testCore.cpp  **** 	CHECK_EQUAL(USB_ALLOC_ERR, status);
 9948              		.loc 3 337 2
 9949 50de 4889C7   		movq	%rax, %rdi
 9950 50e1 E8000000 		call	__cxa_begin_catch@PLT
 9950      00
 9951              	.LEHB464:
 9952 50e6 E8000000 		call	_ZN8UnitTest11CurrentTest7ResultsEv@PLT
 9952      00
 337:testCore.cpp  **** 	CHECK_EQUAL(USB_ALLOC_ERR, status);
 9953              		.loc 3 337 2 is_stmt 0 discriminator 3
 9954 50eb 488B18   		movq	(%rax), %rbx
 9955 50ee E8000000 		call	_ZN8UnitTest11CurrentTest7DetailsEv@PLT
 9955      00
 337:testCore.cpp  **** 	CHECK_EQUAL(USB_ALLOC_ERR, status);
 9956              		.loc 3 337 2 discriminator 11
 9957 50f3 488B08   		movq	(%rax), %rcx
 9958 50f6 488D4590 		leaq	-112(%rbp), %rax
 9959 50fa BA510100 		movl	$337, %edx
 9959      00
 9960 50ff 4889CE   		movq	%rcx, %rsi
 9961 5102 4889C7   		movq	%rax, %rdi
 9962 5105 E8000000 		call	_ZN8UnitTest11TestDetailsC1ERKS0_i@PLT
 9962      00
 337:testCore.cpp  **** 	CHECK_EQUAL(USB_ALLOC_ERR, status);
 9963              		.loc 3 337 2 discriminator 15
 9964 510a 488D4590 		leaq	-112(%rbp), %rax
 9965 510e 488D1500 		leaq	.LC55(%rip), %rdx
 9965      000000
 9966 5115 4889C6   		movq	%rax, %rsi
 9967 5118 4889DF   		movq	%rbx, %rdi
 9968 511b E8000000 		call	_ZN8UnitTest11TestResults13OnTestFailureERKNS_11TestDetailsEPKc@PLT
 9968      00
 9969              	.LEHE464:
 9970              	.LEHB465:
 337:testCore.cpp  **** 	CHECK_EQUAL(USB_ALLOC_ERR, status);
 9971              		.loc 3 337 2 discriminator 17
 9972 5120 E8000000 		call	__cxa_end_catch@PLT
 9972      00
 9973              	.LEHE465:
 9974 5125 EB95     		jmp	.L562
 9975              	.L566:
 9976 5127 F30F1EFA 		endbr64
 337:testCore.cpp  **** 	CHECK_EQUAL(USB_ALLOC_ERR, status);
 9977              		.loc 3 337 2
 9978 512b 4889C3   		movq	%rax, %rbx
 9979 512e E8000000 		call	__cxa_end_catch@PLT
 9979      00
 9980 5133 4889D8   		movq	%rbx, %rax
 9981 5136 4889C7   		movq	%rax, %rdi
 9982              	.LEHB466:
 9983 5139 E8000000 		call	_Unwind_Resume@PLT
 9983      00
 9984              	.LEHE466:
 9985              	.L567:
 9986              		.loc 3 340 1 is_stmt 1
 9987 513e E8000000 		call	__stack_chk_fail@PLT
 9987      00
 9988              	.L564:
 9989 5143 488B5DF8 		movq	-8(%rbp), %rbx
 9990 5147 C9       		leave
 9991              		.cfi_def_cfa 7, 8
 9992 5148 C3       		ret
 9993              		.cfi_endproc
 9994              	.LFE1186:
 9995              		.section	.gcc_except_table
 9996              		.align 4
 9997              	.LLSDA1186:
 9998 09f8 FF       		.byte	0xff
 9999 09f9 9B       		.byte	0x9b
 10000 09fa 29       		.uleb128 .LLSDATT1186-.LLSDATTD1186
 10001              	.LLSDATTD1186:
 10002 09fb 01       		.byte	0x1
 10003 09fc 1E       		.uleb128 .LLSDACSE1186-.LLSDACSB1186
 10004              	.LLSDACSB1186:
 10005 09fd 4D       		.uleb128 .LEHB461-.LFB1186
 10006 09fe 05       		.uleb128 .LEHE461-.LEHB461
 10007 09ff 00       		.uleb128 0
 10008 0a00 00       		.uleb128 0
 10009 0a01 55       		.uleb128 .LEHB462-.LFB1186
 10010 0a02 3F       		.uleb128 .LEHE462-.LEHB462
 10011 0a03 B201     		.uleb128 .L565-.LFB1186
 10012 0a05 01       		.uleb128 0x1
 10013 0a06 9B01     		.uleb128 .LEHB463-.LFB1186
 10014 0a08 05       		.uleb128 .LEHE463-.LEHB463
 10015 0a09 00       		.uleb128 0
 10016 0a0a 00       		.uleb128 0
 10017 0a0b BE01     		.uleb128 .LEHB464-.LFB1186
 10018 0a0d 3A       		.uleb128 .LEHE464-.LEHB464
 10019 0a0e FF01     		.uleb128 .L566-.LFB1186
 10020 0a10 00       		.uleb128 0
 10021 0a11 F801     		.uleb128 .LEHB465-.LFB1186
 10022 0a13 05       		.uleb128 .LEHE465-.LEHB465
 10023 0a14 00       		.uleb128 0
 10024 0a15 00       		.uleb128 0
 10025 0a16 9102     		.uleb128 .LEHB466-.LFB1186
 10026 0a18 05       		.uleb128 .LEHE466-.LEHB466
 10027 0a19 00       		.uleb128 0
 10028 0a1a 00       		.uleb128 0
 10029              	.LLSDACSE1186:
 10030 0a1b 01       		.byte	0x1
 10031 0a1c 00       		.byte	0
 10032 0a1d 000000   		.align 4
 10033 0a20 00000000 		.long	0
 10034              	
 10035              	.LLSDATT1186:
 10036              		.text
 10038              		.section	.rodata
 10039              	.LC56:
 10040 0c22 51756575 		.string	"Queue_testReallocOOM"
 10040      655F7465 
 10040      73745265 
 10040      616C6C6F 
 10040      634F4F4D 
 10041              		.section	.text._ZN24TestQueue_testReallocOOMC2Ev,"axG",@progbits,_ZN24TestQueue_testReallocOOMC5Ev
 10042              		.align 2
 10043              		.weak	_ZN24TestQueue_testReallocOOMC2Ev
 10045              	_ZN24TestQueue_testReallocOOMC2Ev:
 10046              	.LFB1188:
 341:testCore.cpp  **** 
 342:testCore.cpp  **** TEST(Queue_testReallocOOM) {
 10047              		.loc 3 342 1
 10048              		.cfi_startproc
 10049 0000 F30F1EFA 		endbr64
 10050 0004 55       		pushq	%rbp
 10051              		.cfi_def_cfa_offset 16
 10052              		.cfi_offset 6, -16
 10053 0005 4889E5   		movq	%rsp, %rbp
 10054              		.cfi_def_cfa_register 6
 10055 0008 53       		pushq	%rbx
 10056 0009 4883EC18 		subq	$24, %rsp
 10057              		.cfi_offset 3, -24
 10058 000d 48897DE8 		movq	%rdi, -24(%rbp)
 10059              	.LBB10:
 10060              		.loc 3 342 1
 10061 0011 488B5DE8 		movq	-24(%rbp), %rbx
 10062 0015 E8000000 		call	_ZN13UnitTestSuite12GetSuiteNameEv
 10062      00
 10063 001a 4889C2   		movq	%rax, %rdx
 10064 001d 41B85601 		movl	$342, %r8d
 10064      0000
 10065 0023 488D0500 		leaq	.LC1(%rip), %rax
 10065      000000
 10066 002a 4889C1   		movq	%rax, %rcx
 10067 002d 488D0500 		leaq	.LC56(%rip), %rax
 10067      000000
 10068 0034 4889C6   		movq	%rax, %rsi
 10069 0037 4889DF   		movq	%rbx, %rdi
 10070 003a E8000000 		call	_ZN8UnitTest4TestC2EPKcS2_S2_i@PLT
 10070      00
 10071 003f 488D1500 		leaq	16+_ZTV24TestQueue_testReallocOOM(%rip), %rdx
 10071      000000
 10072 0046 488B45E8 		movq	-24(%rbp), %rax
 10073 004a 488910   		movq	%rdx, (%rax)
 10074              	.LBE10:
 10075 004d 90       		nop
 10076 004e 488B5DF8 		movq	-8(%rbp), %rbx
 10077 0052 C9       		leave
 10078              		.cfi_def_cfa 7, 8
 10079 0053 C3       		ret
 10080              		.cfi_endproc
 10081              	.LFE1188:
 10083              		.weak	_ZN24TestQueue_testReallocOOMC1Ev
 10084              		.set	_ZN24TestQueue_testReallocOOMC1Ev,_ZN24TestQueue_testReallocOOMC2Ev
 10085              		.globl	testQueue_testReallocOOMInstance
 10086              		.bss
 10087 0179 00000000 		.align 32
 10087      000000
 10090              	testQueue_testReallocOOMInstance:
 10091 0180 00000000 		.zero	56
 10091      00000000 
 10091      00000000 
 10091      00000000 
 10091      00000000 
 10092              		.globl	adderQueue_testReallocOOM
 10095              	adderQueue_testReallocOOM:
 10096 01b8 00       		.zero	1
 10097              		.text
 10098 5149 90       		.align 2
 10099              		.globl	_ZNK24TestQueue_testReallocOOM7RunImplEv
 10101              	_ZNK24TestQueue_testReallocOOM7RunImplEv:
 10102              	.LFB1190:
 10103              		.loc 3 342 28
 10104              		.cfi_startproc
 10105              		.cfi_personality 0x9b,DW.ref.__gxx_personality_v0
 10106              		.cfi_lsda 0x1b,.LLSDA1190
 10107 514a F30F1EFA 		endbr64
 10108 514e 55       		pushq	%rbp
 10109              		.cfi_def_cfa_offset 16
 10110              		.cfi_offset 6, -16
 10111 514f 4889E5   		movq	%rsp, %rbp
 10112              		.cfi_def_cfa_register 6
 10113 5152 53       		pushq	%rbx
 10114 5153 4881EC88 		subq	$136, %rsp
 10114      000000
 10115              		.cfi_offset 3, -24
 10116 515a 4889BD78 		movq	%rdi, -136(%rbp)
 10116      FFFFFF
 10117              		.loc 3 342 28
 10118 5161 64488B04 		movq	%fs:40, %rax
 10118      25280000 
 10118      00
 10119 516a 488945E8 		movq	%rax, -24(%rbp)
 10120 516e 31C0     		xorl	%eax, %eax
 343:testCore.cpp  **** 	struct UnboundedQueue queue;
 344:testCore.cpp  **** 	uint32 *item;
 345:testCore.cpp  **** 	m_count = 1;
 10121              		.loc 3 345 10
 10122 5170 C7050000 		movl	$1, _ZL7m_count(%rip)
 10122      00000100 
 10122      0000
 346:testCore.cpp  **** 
 347:testCore.cpp  **** 	// Create queue
 348:testCore.cpp  **** 	USBStatus status = queueInit(&queue, 8, (CreateFunc)createInt, (DestroyFunc)destroyInt);
 10123              		.loc 3 348 30
 10124 517a 488D45B0 		leaq	-80(%rbp), %rax
 10125 517e 488D1500 		leaq	destroyInt(%rip), %rdx
 10125      000000
 10126 5185 4889D1   		movq	%rdx, %rcx
 10127 5188 488D1500 		leaq	createInt(%rip), %rdx
 10127      000000
 10128 518f BE080000 		movl	$8, %esi
 10128      00
 10129 5194 4889C7   		movq	%rax, %rdi
 10130              	.LEHB467:
 10131 5197 E8000000 		call	queueInit@PLT
 10131      00
 10132              	.LEHE467:
 10133              		.loc 3 348 88
 10134 519c 894580   		movl	%eax, -128(%rbp)
 10135              	.LEHB468:
 349:testCore.cpp  **** 	CHECK_EQUAL(USB_SUCCESS, status);
 10136              		.loc 3 349 2
 10137 519f E8000000 		call	_ZN8UnitTest11CurrentTest7DetailsEv@PLT
 10137      00
 10138 51a4 488B08   		movq	(%rax), %rcx
 10139 51a7 488D4590 		leaq	-112(%rbp), %rax
 10140 51ab BA5D0100 		movl	$349, %edx
 10140      00
 10141 51b0 4889CE   		movq	%rcx, %rsi
 10142 51b3 4889C7   		movq	%rax, %rdi
 10143 51b6 E8000000 		call	_ZN8UnitTest11TestDetailsC1ERKS0_i@PLT
 10143      00
 10144              		.loc 3 349 2 is_stmt 0 discriminator 4
 10145 51bb C7458800 		movl	$0, -120(%rbp)
 10145      000000
 10146 51c2 E8000000 		call	_ZN8UnitTest11CurrentTest7ResultsEv@PLT
 10146      00
 10147 51c7 488B00   		movq	(%rax), %rax
 10148 51ca 488D4D90 		leaq	-112(%rbp), %rcx
 10149 51ce 488D5580 		leaq	-128(%rbp), %rdx
 10150 51d2 488D7588 		leaq	-120(%rbp), %rsi
 10151 51d6 4889C7   		movq	%rax, %rdi
 10152 51d9 E8000000 		call	_ZN8UnitTest10CheckEqualI9USBStatusS1_EEvRNS_11TestResultsERKT_RKT0_RKNS_11TestDetailsE
 10152      00
 10153              	.LEHE468:
 10154              	.L571:
 350:testCore.cpp  **** 
 351:testCore.cpp  **** 	// Put eight items into the queue
 352:testCore.cpp  **** 	status = queuePut(&queue, (Item*)&item);
 10155              		.loc 3 352 19 is_stmt 1
 10156 51de 488D5588 		leaq	-120(%rbp), %rdx
 10157 51e2 488D45B0 		leaq	-80(%rbp), %rax
 10158 51e6 4889D6   		movq	%rdx, %rsi
 10159 51e9 4889C7   		movq	%rax, %rdi
 10160              	.LEHB469:
 10161 51ec E8000000 		call	queuePut@PLT
 10161      00
 10162              	.LEHE469:
 10163              		.loc 3 352 9
 10164 51f1 894580   		movl	%eax, -128(%rbp)
 10165              	.LEHB470:
 353:testCore.cpp  **** 	CHECK_EQUAL(USB_SUCCESS, status);
 10166              		.loc 3 353 2
 10167 51f4 E8000000 		call	_ZN8UnitTest11CurrentTest7DetailsEv@PLT
 10167      00
 10168 51f9 488B08   		movq	(%rax), %rcx
 10169 51fc 488D4590 		leaq	-112(%rbp), %rax
 10170 5200 BA610100 		movl	$353, %edx
 10170      00
 10171 5205 4889CE   		movq	%rcx, %rsi
 10172 5208 4889C7   		movq	%rax, %rdi
 10173 520b E8000000 		call	_ZN8UnitTest11TestDetailsC1ERKS0_i@PLT
 10173      00
 10174              		.loc 3 353 2 is_stmt 0 discriminator 4
 10175 5210 C7458400 		movl	$0, -124(%rbp)
 10175      000000
 10176 5217 E8000000 		call	_ZN8UnitTest11CurrentTest7ResultsEv@PLT
 10176      00
 10177 521c 488B00   		movq	(%rax), %rax
 10178 521f 488D4D90 		leaq	-112(%rbp), %rcx
 10179 5223 488D5580 		leaq	-128(%rbp), %rdx
 10180 5227 488D7584 		leaq	-124(%rbp), %rsi
 10181 522b 4889C7   		movq	%rax, %rdi
 10182 522e E8000000 		call	_ZN8UnitTest10CheckEqualI9USBStatusS1_EEvRNS_11TestResultsERKT_RKT0_RKNS_11TestDetailsE
 10182      00
 10183              	.LEHE470:
 10184              	.L574:
 354:testCore.cpp  **** 	queueCommitPut(&queue);
 10185              		.loc 3 354 16 is_stmt 1
 10186 5233 488D45B0 		leaq	-80(%rbp), %rax
 10187 5237 4889C7   		movq	%rax, %rdi
 10188              	.LEHB471:
 10189 523a E8000000 		call	queueCommitPut@PLT
 10189      00
 355:testCore.cpp  **** 	status = queuePut(&queue, (Item*)&item);
 10190              		.loc 3 355 19
 10191 523f 488D5588 		leaq	-120(%rbp), %rdx
 10192 5243 488D45B0 		leaq	-80(%rbp), %rax
 10193 5247 4889D6   		movq	%rdx, %rsi
 10194 524a 4889C7   		movq	%rax, %rdi
 10195 524d E8000000 		call	queuePut@PLT
 10195      00
 10196              	.LEHE471:
 10197              		.loc 3 355 9
 10198 5252 894580   		movl	%eax, -128(%rbp)
 10199              	.LEHB472:
 356:testCore.cpp  **** 	CHECK_EQUAL(USB_SUCCESS, status);
 10200              		.loc 3 356 2
 10201 5255 E8000000 		call	_ZN8UnitTest11CurrentTest7DetailsEv@PLT
 10201      00
 10202 525a 488B08   		movq	(%rax), %rcx
 10203 525d 488D4590 		leaq	-112(%rbp), %rax
 10204 5261 BA640100 		movl	$356, %edx
 10204      00
 10205 5266 4889CE   		movq	%rcx, %rsi
 10206 5269 4889C7   		movq	%rax, %rdi
 10207 526c E8000000 		call	_ZN8UnitTest11TestDetailsC1ERKS0_i@PLT
 10207      00
 10208              		.loc 3 356 2 is_stmt 0 discriminator 4
 10209 5271 C7458400 		movl	$0, -124(%rbp)
 10209      000000
 10210 5278 E8000000 		call	_ZN8UnitTest11CurrentTest7ResultsEv@PLT
 10210      00
 10211 527d 488B00   		movq	(%rax), %rax
 10212 5280 488D4D90 		leaq	-112(%rbp), %rcx
 10213 5284 488D5580 		leaq	-128(%rbp), %rdx
 10214 5288 488D7584 		leaq	-124(%rbp), %rsi
 10215 528c 4889C7   		movq	%rax, %rdi
 10216 528f E8000000 		call	_ZN8UnitTest10CheckEqualI9USBStatusS1_EEvRNS_11TestResultsERKT_RKT0_RKNS_11TestDetailsE
 10216      00
 10217              	.LEHE472:
 10218              	.L577:
 357:testCore.cpp  **** 	queueCommitPut(&queue);
 10219              		.loc 3 357 16 is_stmt 1
 10220 5294 488D45B0 		leaq	-80(%rbp), %rax
 10221 5298 4889C7   		movq	%rax, %rdi
 10222              	.LEHB473:
 10223 529b E8000000 		call	queueCommitPut@PLT
 10223      00
 358:testCore.cpp  **** 	status = queuePut(&queue, (Item*)&item);
 10224              		.loc 3 358 19
 10225 52a0 488D5588 		leaq	-120(%rbp), %rdx
 10226 52a4 488D45B0 		leaq	-80(%rbp), %rax
 10227 52a8 4889D6   		movq	%rdx, %rsi
 10228 52ab 4889C7   		movq	%rax, %rdi
 10229 52ae E8000000 		call	queuePut@PLT
 10229      00
 10230              	.LEHE473:
 10231              		.loc 3 358 9
 10232 52b3 894580   		movl	%eax, -128(%rbp)
 10233              	.LEHB474:
 359:testCore.cpp  **** 	CHECK_EQUAL(USB_SUCCESS, status);
 10234              		.loc 3 359 2
 10235 52b6 E8000000 		call	_ZN8UnitTest11CurrentTest7DetailsEv@PLT
 10235      00
 10236 52bb 488B08   		movq	(%rax), %rcx
 10237 52be 488D4590 		leaq	-112(%rbp), %rax
 10238 52c2 BA670100 		movl	$359, %edx
 10238      00
 10239 52c7 4889CE   		movq	%rcx, %rsi
 10240 52ca 4889C7   		movq	%rax, %rdi
 10241 52cd E8000000 		call	_ZN8UnitTest11TestDetailsC1ERKS0_i@PLT
 10241      00
 10242              		.loc 3 359 2 is_stmt 0 discriminator 4
 10243 52d2 C7458400 		movl	$0, -124(%rbp)
 10243      000000
 10244 52d9 E8000000 		call	_ZN8UnitTest11CurrentTest7ResultsEv@PLT
 10244      00
 10245 52de 488B00   		movq	(%rax), %rax
 10246 52e1 488D4D90 		leaq	-112(%rbp), %rcx
 10247 52e5 488D5580 		leaq	-128(%rbp), %rdx
 10248 52e9 488D7584 		leaq	-124(%rbp), %rsi
 10249 52ed 4889C7   		movq	%rax, %rdi
 10250 52f0 E8000000 		call	_ZN8UnitTest10CheckEqualI9USBStatusS1_EEvRNS_11TestResultsERKT_RKT0_RKNS_11TestDetailsE
 10250      00
 10251              	.LEHE474:
 10252              	.L580:
 360:testCore.cpp  **** 	queueCommitPut(&queue);
 10253              		.loc 3 360 16 is_stmt 1
 10254 52f5 488D45B0 		leaq	-80(%rbp), %rax
 10255 52f9 4889C7   		movq	%rax, %rdi
 10256              	.LEHB475:
 10257 52fc E8000000 		call	queueCommitPut@PLT
 10257      00
 361:testCore.cpp  **** 	status = queuePut(&queue, (Item*)&item);
 10258              		.loc 3 361 19
 10259 5301 488D5588 		leaq	-120(%rbp), %rdx
 10260 5305 488D45B0 		leaq	-80(%rbp), %rax
 10261 5309 4889D6   		movq	%rdx, %rsi
 10262 530c 4889C7   		movq	%rax, %rdi
 10263 530f E8000000 		call	queuePut@PLT
 10263      00
 10264              	.LEHE475:
 10265              		.loc 3 361 9
 10266 5314 894580   		movl	%eax, -128(%rbp)
 10267              	.LEHB476:
 362:testCore.cpp  **** 	CHECK_EQUAL(USB_SUCCESS, status);
 10268              		.loc 3 362 2
 10269 5317 E8000000 		call	_ZN8UnitTest11CurrentTest7DetailsEv@PLT
 10269      00
 10270 531c 488B08   		movq	(%rax), %rcx
 10271 531f 488D4590 		leaq	-112(%rbp), %rax
 10272 5323 BA6A0100 		movl	$362, %edx
 10272      00
 10273 5328 4889CE   		movq	%rcx, %rsi
 10274 532b 4889C7   		movq	%rax, %rdi
 10275 532e E8000000 		call	_ZN8UnitTest11TestDetailsC1ERKS0_i@PLT
 10275      00
 10276              		.loc 3 362 2 is_stmt 0 discriminator 4
 10277 5333 C7458400 		movl	$0, -124(%rbp)
 10277      000000
 10278 533a E8000000 		call	_ZN8UnitTest11CurrentTest7ResultsEv@PLT
 10278      00
 10279 533f 488B00   		movq	(%rax), %rax
 10280 5342 488D4D90 		leaq	-112(%rbp), %rcx
 10281 5346 488D5580 		leaq	-128(%rbp), %rdx
 10282 534a 488D7584 		leaq	-124(%rbp), %rsi
 10283 534e 4889C7   		movq	%rax, %rdi
 10284 5351 E8000000 		call	_ZN8UnitTest10CheckEqualI9USBStatusS1_EEvRNS_11TestResultsERKT_RKT0_RKNS_11TestDetailsE
 10284      00
 10285              	.LEHE476:
 10286              	.L583:
 363:testCore.cpp  **** 	queueCommitPut(&queue);
 10287              		.loc 3 363 16 is_stmt 1
 10288 5356 488D45B0 		leaq	-80(%rbp), %rax
 10289 535a 4889C7   		movq	%rax, %rdi
 10290              	.LEHB477:
 10291 535d E8000000 		call	queueCommitPut@PLT
 10291      00
 364:testCore.cpp  **** 	status = queuePut(&queue, (Item*)&item);
 10292              		.loc 3 364 19
 10293 5362 488D5588 		leaq	-120(%rbp), %rdx
 10294 5366 488D45B0 		leaq	-80(%rbp), %rax
 10295 536a 4889D6   		movq	%rdx, %rsi
 10296 536d 4889C7   		movq	%rax, %rdi
 10297 5370 E8000000 		call	queuePut@PLT
 10297      00
 10298              	.LEHE477:
 10299              		.loc 3 364 9
 10300 5375 894580   		movl	%eax, -128(%rbp)
 10301              	.LEHB478:
 365:testCore.cpp  **** 	CHECK_EQUAL(USB_SUCCESS, status);
 10302              		.loc 3 365 2
 10303 5378 E8000000 		call	_ZN8UnitTest11CurrentTest7DetailsEv@PLT
 10303      00
 10304 537d 488B08   		movq	(%rax), %rcx
 10305 5380 488D4590 		leaq	-112(%rbp), %rax
 10306 5384 BA6D0100 		movl	$365, %edx
 10306      00
 10307 5389 4889CE   		movq	%rcx, %rsi
 10308 538c 4889C7   		movq	%rax, %rdi
 10309 538f E8000000 		call	_ZN8UnitTest11TestDetailsC1ERKS0_i@PLT
 10309      00
 10310              		.loc 3 365 2 is_stmt 0 discriminator 4
 10311 5394 C7458400 		movl	$0, -124(%rbp)
 10311      000000
 10312 539b E8000000 		call	_ZN8UnitTest11CurrentTest7ResultsEv@PLT
 10312      00
 10313 53a0 488B00   		movq	(%rax), %rax
 10314 53a3 488D4D90 		leaq	-112(%rbp), %rcx
 10315 53a7 488D5580 		leaq	-128(%rbp), %rdx
 10316 53ab 488D7584 		leaq	-124(%rbp), %rsi
 10317 53af 4889C7   		movq	%rax, %rdi
 10318 53b2 E8000000 		call	_ZN8UnitTest10CheckEqualI9USBStatusS1_EEvRNS_11TestResultsERKT_RKT0_RKNS_11TestDetailsE
 10318      00
 10319              	.LEHE478:
 10320              	.L586:
 366:testCore.cpp  **** 	queueCommitPut(&queue);
 10321              		.loc 3 366 16 is_stmt 1
 10322 53b7 488D45B0 		leaq	-80(%rbp), %rax
 10323 53bb 4889C7   		movq	%rax, %rdi
 10324              	.LEHB479:
 10325 53be E8000000 		call	queueCommitPut@PLT
 10325      00
 367:testCore.cpp  **** 	status = queuePut(&queue, (Item*)&item);
 10326              		.loc 3 367 19
 10327 53c3 488D5588 		leaq	-120(%rbp), %rdx
 10328 53c7 488D45B0 		leaq	-80(%rbp), %rax
 10329 53cb 4889D6   		movq	%rdx, %rsi
 10330 53ce 4889C7   		movq	%rax, %rdi
 10331 53d1 E8000000 		call	queuePut@PLT
 10331      00
 10332              	.LEHE479:
 10333              		.loc 3 367 9
 10334 53d6 894580   		movl	%eax, -128(%rbp)
 10335              	.LEHB480:
 368:testCore.cpp  **** 	CHECK_EQUAL(USB_SUCCESS, status);
 10336              		.loc 3 368 2
 10337 53d9 E8000000 		call	_ZN8UnitTest11CurrentTest7DetailsEv@PLT
 10337      00
 10338 53de 488B08   		movq	(%rax), %rcx
 10339 53e1 488D4590 		leaq	-112(%rbp), %rax
 10340 53e5 BA700100 		movl	$368, %edx
 10340      00
 10341 53ea 4889CE   		movq	%rcx, %rsi
 10342 53ed 4889C7   		movq	%rax, %rdi
 10343 53f0 E8000000 		call	_ZN8UnitTest11TestDetailsC1ERKS0_i@PLT
 10343      00
 10344              		.loc 3 368 2 is_stmt 0 discriminator 4
 10345 53f5 C7458400 		movl	$0, -124(%rbp)
 10345      000000
 10346 53fc E8000000 		call	_ZN8UnitTest11CurrentTest7ResultsEv@PLT
 10346      00
 10347 5401 488B00   		movq	(%rax), %rax
 10348 5404 488D4D90 		leaq	-112(%rbp), %rcx
 10349 5408 488D5580 		leaq	-128(%rbp), %rdx
 10350 540c 488D7584 		leaq	-124(%rbp), %rsi
 10351 5410 4889C7   		movq	%rax, %rdi
 10352 5413 E8000000 		call	_ZN8UnitTest10CheckEqualI9USBStatusS1_EEvRNS_11TestResultsERKT_RKT0_RKNS_11TestDetailsE
 10352      00
 10353              	.LEHE480:
 10354              	.L589:
 369:testCore.cpp  **** 	queueCommitPut(&queue);
 10355              		.loc 3 369 16 is_stmt 1
 10356 5418 488D45B0 		leaq	-80(%rbp), %rax
 10357 541c 4889C7   		movq	%rax, %rdi
 10358              	.LEHB481:
 10359 541f E8000000 		call	queueCommitPut@PLT
 10359      00
 370:testCore.cpp  **** 	status = queuePut(&queue, (Item*)&item);
 10360              		.loc 3 370 19
 10361 5424 488D5588 		leaq	-120(%rbp), %rdx
 10362 5428 488D45B0 		leaq	-80(%rbp), %rax
 10363 542c 4889D6   		movq	%rdx, %rsi
 10364 542f 4889C7   		movq	%rax, %rdi
 10365 5432 E8000000 		call	queuePut@PLT
 10365      00
 10366              	.LEHE481:
 10367              		.loc 3 370 9
 10368 5437 894580   		movl	%eax, -128(%rbp)
 10369              	.LEHB482:
 371:testCore.cpp  **** 	CHECK_EQUAL(USB_SUCCESS, status);
 10370              		.loc 3 371 2
 10371 543a E8000000 		call	_ZN8UnitTest11CurrentTest7DetailsEv@PLT
 10371      00
 10372 543f 488B08   		movq	(%rax), %rcx
 10373 5442 488D4590 		leaq	-112(%rbp), %rax
 10374 5446 BA730100 		movl	$371, %edx
 10374      00
 10375 544b 4889CE   		movq	%rcx, %rsi
 10376 544e 4889C7   		movq	%rax, %rdi
 10377 5451 E8000000 		call	_ZN8UnitTest11TestDetailsC1ERKS0_i@PLT
 10377      00
 10378              		.loc 3 371 2 is_stmt 0 discriminator 4
 10379 5456 C7458400 		movl	$0, -124(%rbp)
 10379      000000
 10380 545d E8000000 		call	_ZN8UnitTest11CurrentTest7ResultsEv@PLT
 10380      00
 10381 5462 488B00   		movq	(%rax), %rax
 10382 5465 488D4D90 		leaq	-112(%rbp), %rcx
 10383 5469 488D5580 		leaq	-128(%rbp), %rdx
 10384 546d 488D7584 		leaq	-124(%rbp), %rsi
 10385 5471 4889C7   		movq	%rax, %rdi
 10386 5474 E8000000 		call	_ZN8UnitTest10CheckEqualI9USBStatusS1_EEvRNS_11TestResultsERKT_RKT0_RKNS_11TestDetailsE
 10386      00
 10387              	.LEHE482:
 10388              	.L592:
 372:testCore.cpp  **** 	queueCommitPut(&queue);
 10389              		.loc 3 372 16 is_stmt 1
 10390 5479 488D45B0 		leaq	-80(%rbp), %rax
 10391 547d 4889C7   		movq	%rax, %rdi
 10392              	.LEHB483:
 10393 5480 E8000000 		call	queueCommitPut@PLT
 10393      00
 373:testCore.cpp  **** 	status = queuePut(&queue, (Item*)&item);
 10394              		.loc 3 373 19
 10395 5485 488D5588 		leaq	-120(%rbp), %rdx
 10396 5489 488D45B0 		leaq	-80(%rbp), %rax
 10397 548d 4889D6   		movq	%rdx, %rsi
 10398 5490 4889C7   		movq	%rax, %rdi
 10399 5493 E8000000 		call	queuePut@PLT
 10399      00
 10400              	.LEHE483:
 10401              		.loc 3 373 9
 10402 5498 894580   		movl	%eax, -128(%rbp)
 10403              	.LEHB484:
 374:testCore.cpp  **** 	CHECK_EQUAL(USB_SUCCESS, status);
 10404              		.loc 3 374 2
 10405 549b E8000000 		call	_ZN8UnitTest11CurrentTest7DetailsEv@PLT
 10405      00
 10406 54a0 488B08   		movq	(%rax), %rcx
 10407 54a3 488D4590 		leaq	-112(%rbp), %rax
 10408 54a7 BA760100 		movl	$374, %edx
 10408      00
 10409 54ac 4889CE   		movq	%rcx, %rsi
 10410 54af 4889C7   		movq	%rax, %rdi
 10411 54b2 E8000000 		call	_ZN8UnitTest11TestDetailsC1ERKS0_i@PLT
 10411      00
 10412              		.loc 3 374 2 is_stmt 0 discriminator 4
 10413 54b7 C7458400 		movl	$0, -124(%rbp)
 10413      000000
 10414 54be E8000000 		call	_ZN8UnitTest11CurrentTest7ResultsEv@PLT
 10414      00
 10415 54c3 488B00   		movq	(%rax), %rax
 10416 54c6 488D4D90 		leaq	-112(%rbp), %rcx
 10417 54ca 488D5580 		leaq	-128(%rbp), %rdx
 10418 54ce 488D7584 		leaq	-124(%rbp), %rsi
 10419 54d2 4889C7   		movq	%rax, %rdi
 10420 54d5 E8000000 		call	_ZN8UnitTest10CheckEqualI9USBStatusS1_EEvRNS_11TestResultsERKT_RKT0_RKNS_11TestDetailsE
 10420      00
 10421              	.LEHE484:
 10422              	.L595:
 375:testCore.cpp  **** 	queueCommitPut(&queue);
 10423              		.loc 3 375 16 is_stmt 1
 10424 54da 488D45B0 		leaq	-80(%rbp), %rax
 10425 54de 4889C7   		movq	%rax, %rdi
 10426              	.LEHB485:
 10427 54e1 E8000000 		call	queueCommitPut@PLT
 10427      00
 376:testCore.cpp  **** 
 377:testCore.cpp  **** 	// The ninth allocation fails
 378:testCore.cpp  **** 	status = queuePut(&queue, (Item*)&item);
 10428              		.loc 3 378 19
 10429 54e6 488D5588 		leaq	-120(%rbp), %rdx
 10430 54ea 488D45B0 		leaq	-80(%rbp), %rax
 10431 54ee 4889D6   		movq	%rdx, %rsi
 10432 54f1 4889C7   		movq	%rax, %rdi
 10433 54f4 E8000000 		call	queuePut@PLT
 10433      00
 10434              	.LEHE485:
 10435              		.loc 3 378 9
 10436 54f9 894580   		movl	%eax, -128(%rbp)
 10437              	.LEHB486:
 379:testCore.cpp  **** 	CHECK_EQUAL(USB_ALLOC_ERR, status);
 10438              		.loc 3 379 2
 10439 54fc E8000000 		call	_ZN8UnitTest11CurrentTest7DetailsEv@PLT
 10439      00
 10440 5501 488B08   		movq	(%rax), %rcx
 10441 5504 488D4590 		leaq	-112(%rbp), %rax
 10442 5508 BA7B0100 		movl	$379, %edx
 10442      00
 10443 550d 4889CE   		movq	%rcx, %rsi
 10444 5510 4889C7   		movq	%rax, %rdi
 10445 5513 E8000000 		call	_ZN8UnitTest11TestDetailsC1ERKS0_i@PLT
 10445      00
 10446              		.loc 3 379 2 is_stmt 0 discriminator 4
 10447 5518 C745840C 		movl	$12, -124(%rbp)
 10447      000000
 10448 551f E8000000 		call	_ZN8UnitTest11CurrentTest7ResultsEv@PLT
 10448      00
 10449 5524 488B00   		movq	(%rax), %rax
 10450 5527 488D4D90 		leaq	-112(%rbp), %rcx
 10451 552b 488D5580 		leaq	-128(%rbp), %rdx
 10452 552f 488D7584 		leaq	-124(%rbp), %rsi
 10453 5533 4889C7   		movq	%rax, %rdi
 10454 5536 E8000000 		call	_ZN8UnitTest10CheckEqualI9USBStatusS1_EEvRNS_11TestResultsERKT_RKT0_RKNS_11TestDetailsE
 10454      00
 10455              	.LEHE486:
 10456              	.L598:
 380:testCore.cpp  **** 
 381:testCore.cpp  **** 	queueDestroy(&queue);
 10457              		.loc 3 381 14 is_stmt 1
 10458 553b 488D45B0 		leaq	-80(%rbp), %rax
 10459 553f 4889C7   		movq	%rax, %rdi
 10460              	.LEHB487:
 10461 5542 E8000000 		call	queueDestroy@PLT
 10461      00
 10462              	.LEHE487:
 382:testCore.cpp  **** }
 10463              		.loc 3 382 1
 10464 5547 90       		nop
 10465 5548 488B45E8 		movq	-24(%rbp), %rax
 10466 554c 64482B04 		subq	%fs:40, %rax
 10466      25280000 
 10466      00
 10467 5555 0F841004 		je	.L600
 10467      0000
 10468 555b E9060400 		jmp	.L621
 10468      00
 10469              	.L601:
 10470 5560 F30F1EFA 		endbr64
 349:testCore.cpp  **** 
 10471              		.loc 3 349 2
 10472 5564 4889C7   		movq	%rax, %rdi
 10473 5567 E8000000 		call	__cxa_begin_catch@PLT
 10473      00
 10474              	.LEHB488:
 10475 556c E8000000 		call	_ZN8UnitTest11CurrentTest7ResultsEv@PLT
 10475      00
 349:testCore.cpp  **** 
 10476              		.loc 3 349 2 is_stmt 0 discriminator 3
 10477 5571 488B18   		movq	(%rax), %rbx
 10478 5574 E8000000 		call	_ZN8UnitTest11CurrentTest7DetailsEv@PLT
 10478      00
 349:testCore.cpp  **** 
 10479              		.loc 3 349 2 discriminator 11
 10480 5579 488B08   		movq	(%rax), %rcx
 10481 557c 488D4590 		leaq	-112(%rbp), %rax
 10482 5580 BA5D0100 		movl	$349, %edx
 10482      00
 10483 5585 4889CE   		movq	%rcx, %rsi
 10484 5588 4889C7   		movq	%rax, %rdi
 10485 558b E8000000 		call	_ZN8UnitTest11TestDetailsC1ERKS0_i@PLT
 10485      00
 349:testCore.cpp  **** 
 10486              		.loc 3 349 2 discriminator 15
 10487 5590 488D4590 		leaq	-112(%rbp), %rax
 10488 5594 488D1500 		leaq	.LC3(%rip), %rdx
 10488      000000
 10489 559b 4889C6   		movq	%rax, %rsi
 10490 559e 4889DF   		movq	%rbx, %rdi
 10491 55a1 E8000000 		call	_ZN8UnitTest11TestResults13OnTestFailureERKNS_11TestDetailsEPKc@PLT
 10491      00
 10492              	.LEHE488:
 10493              	.LEHB489:
 349:testCore.cpp  **** 
 10494              		.loc 3 349 2 discriminator 17
 10495 55a6 E8000000 		call	__cxa_end_catch@PLT
 10495      00
 10496              	.LEHE489:
 10497 55ab E92EFCFF 		jmp	.L571
 10497      FF
 10498              	.L602:
 10499 55b0 F30F1EFA 		endbr64
 349:testCore.cpp  **** 
 10500              		.loc 3 349 2
 10501 55b4 4889C3   		movq	%rax, %rbx
 10502 55b7 E8000000 		call	__cxa_end_catch@PLT
 10502      00
 10503 55bc 4889D8   		movq	%rbx, %rax
 10504 55bf 4889C7   		movq	%rax, %rdi
 10505              	.LEHB490:
 10506 55c2 E8000000 		call	_Unwind_Resume@PLT
 10506      00
 10507              	.LEHE490:
 10508              	.L603:
 10509 55c7 F30F1EFA 		endbr64
 353:testCore.cpp  **** 	queueCommitPut(&queue);
 10510              		.loc 3 353 2 is_stmt 1
 10511 55cb 4889C7   		movq	%rax, %rdi
 10512 55ce E8000000 		call	__cxa_begin_catch@PLT
 10512      00
 10513              	.LEHB491:
 10514 55d3 E8000000 		call	_ZN8UnitTest11CurrentTest7ResultsEv@PLT
 10514      00
 353:testCore.cpp  **** 	queueCommitPut(&queue);
 10515              		.loc 3 353 2 is_stmt 0 discriminator 3
 10516 55d8 488B18   		movq	(%rax), %rbx
 10517 55db E8000000 		call	_ZN8UnitTest11CurrentTest7DetailsEv@PLT
 10517      00
 353:testCore.cpp  **** 	queueCommitPut(&queue);
 10518              		.loc 3 353 2 discriminator 11
 10519 55e0 488B08   		movq	(%rax), %rcx
 10520 55e3 488D4590 		leaq	-112(%rbp), %rax
 10521 55e7 BA610100 		movl	$353, %edx
 10521      00
 10522 55ec 4889CE   		movq	%rcx, %rsi
 10523 55ef 4889C7   		movq	%rax, %rdi
 10524 55f2 E8000000 		call	_ZN8UnitTest11TestDetailsC1ERKS0_i@PLT
 10524      00
 353:testCore.cpp  **** 	queueCommitPut(&queue);
 10525              		.loc 3 353 2 discriminator 15
 10526 55f7 488D4590 		leaq	-112(%rbp), %rax
 10527 55fb 488D1500 		leaq	.LC3(%rip), %rdx
 10527      000000
 10528 5602 4889C6   		movq	%rax, %rsi
 10529 5605 4889DF   		movq	%rbx, %rdi
 10530 5608 E8000000 		call	_ZN8UnitTest11TestResults13OnTestFailureERKNS_11TestDetailsEPKc@PLT
 10530      00
 10531              	.LEHE491:
 10532              	.LEHB492:
 353:testCore.cpp  **** 	queueCommitPut(&queue);
 10533              		.loc 3 353 2 discriminator 17
 10534 560d E8000000 		call	__cxa_end_catch@PLT
 10534      00
 10535              	.LEHE492:
 10536 5612 E91CFCFF 		jmp	.L574
 10536      FF
 10537              	.L604:
 10538 5617 F30F1EFA 		endbr64
 353:testCore.cpp  **** 	queueCommitPut(&queue);
 10539              		.loc 3 353 2
 10540 561b 4889C3   		movq	%rax, %rbx
 10541 561e E8000000 		call	__cxa_end_catch@PLT
 10541      00
 10542 5623 4889D8   		movq	%rbx, %rax
 10543 5626 4889C7   		movq	%rax, %rdi
 10544              	.LEHB493:
 10545 5629 E8000000 		call	_Unwind_Resume@PLT
 10545      00
 10546              	.LEHE493:
 10547              	.L605:
 10548 562e F30F1EFA 		endbr64
 356:testCore.cpp  **** 	queueCommitPut(&queue);
 10549              		.loc 3 356 2 is_stmt 1
 10550 5632 4889C7   		movq	%rax, %rdi
 10551 5635 E8000000 		call	__cxa_begin_catch@PLT
 10551      00
 10552              	.LEHB494:
 10553 563a E8000000 		call	_ZN8UnitTest11CurrentTest7ResultsEv@PLT
 10553      00
 356:testCore.cpp  **** 	queueCommitPut(&queue);
 10554              		.loc 3 356 2 is_stmt 0 discriminator 3
 10555 563f 488B18   		movq	(%rax), %rbx
 10556 5642 E8000000 		call	_ZN8UnitTest11CurrentTest7DetailsEv@PLT
 10556      00
 356:testCore.cpp  **** 	queueCommitPut(&queue);
 10557              		.loc 3 356 2 discriminator 11
 10558 5647 488B08   		movq	(%rax), %rcx
 10559 564a 488D4590 		leaq	-112(%rbp), %rax
 10560 564e BA640100 		movl	$356, %edx
 10560      00
 10561 5653 4889CE   		movq	%rcx, %rsi
 10562 5656 4889C7   		movq	%rax, %rdi
 10563 5659 E8000000 		call	_ZN8UnitTest11TestDetailsC1ERKS0_i@PLT
 10563      00
 356:testCore.cpp  **** 	queueCommitPut(&queue);
 10564              		.loc 3 356 2 discriminator 15
 10565 565e 488D4590 		leaq	-112(%rbp), %rax
 10566 5662 488D1500 		leaq	.LC3(%rip), %rdx
 10566      000000
 10567 5669 4889C6   		movq	%rax, %rsi
 10568 566c 4889DF   		movq	%rbx, %rdi
 10569 566f E8000000 		call	_ZN8UnitTest11TestResults13OnTestFailureERKNS_11TestDetailsEPKc@PLT
 10569      00
 10570              	.LEHE494:
 10571              	.LEHB495:
 356:testCore.cpp  **** 	queueCommitPut(&queue);
 10572              		.loc 3 356 2 discriminator 17
 10573 5674 E8000000 		call	__cxa_end_catch@PLT
 10573      00
 10574              	.LEHE495:
 10575 5679 E916FCFF 		jmp	.L577
 10575      FF
 10576              	.L606:
 10577 567e F30F1EFA 		endbr64
 356:testCore.cpp  **** 	queueCommitPut(&queue);
 10578              		.loc 3 356 2
 10579 5682 4889C3   		movq	%rax, %rbx
 10580 5685 E8000000 		call	__cxa_end_catch@PLT
 10580      00
 10581 568a 4889D8   		movq	%rbx, %rax
 10582 568d 4889C7   		movq	%rax, %rdi
 10583              	.LEHB496:
 10584 5690 E8000000 		call	_Unwind_Resume@PLT
 10584      00
 10585              	.LEHE496:
 10586              	.L607:
 10587 5695 F30F1EFA 		endbr64
 359:testCore.cpp  **** 	queueCommitPut(&queue);
 10588              		.loc 3 359 2 is_stmt 1
 10589 5699 4889C7   		movq	%rax, %rdi
 10590 569c E8000000 		call	__cxa_begin_catch@PLT
 10590      00
 10591              	.LEHB497:
 10592 56a1 E8000000 		call	_ZN8UnitTest11CurrentTest7ResultsEv@PLT
 10592      00
 359:testCore.cpp  **** 	queueCommitPut(&queue);
 10593              		.loc 3 359 2 is_stmt 0 discriminator 3
 10594 56a6 488B18   		movq	(%rax), %rbx
 10595 56a9 E8000000 		call	_ZN8UnitTest11CurrentTest7DetailsEv@PLT
 10595      00
 359:testCore.cpp  **** 	queueCommitPut(&queue);
 10596              		.loc 3 359 2 discriminator 11
 10597 56ae 488B08   		movq	(%rax), %rcx
 10598 56b1 488D4590 		leaq	-112(%rbp), %rax
 10599 56b5 BA670100 		movl	$359, %edx
 10599      00
 10600 56ba 4889CE   		movq	%rcx, %rsi
 10601 56bd 4889C7   		movq	%rax, %rdi
 10602 56c0 E8000000 		call	_ZN8UnitTest11TestDetailsC1ERKS0_i@PLT
 10602      00
 359:testCore.cpp  **** 	queueCommitPut(&queue);
 10603              		.loc 3 359 2 discriminator 15
 10604 56c5 488D4590 		leaq	-112(%rbp), %rax
 10605 56c9 488D1500 		leaq	.LC3(%rip), %rdx
 10605      000000
 10606 56d0 4889C6   		movq	%rax, %rsi
 10607 56d3 4889DF   		movq	%rbx, %rdi
 10608 56d6 E8000000 		call	_ZN8UnitTest11TestResults13OnTestFailureERKNS_11TestDetailsEPKc@PLT
 10608      00
 10609              	.LEHE497:
 10610              	.LEHB498:
 359:testCore.cpp  **** 	queueCommitPut(&queue);
 10611              		.loc 3 359 2 discriminator 17
 10612 56db E8000000 		call	__cxa_end_catch@PLT
 10612      00
 10613              	.LEHE498:
 10614 56e0 E910FCFF 		jmp	.L580
 10614      FF
 10615              	.L608:
 10616 56e5 F30F1EFA 		endbr64
 359:testCore.cpp  **** 	queueCommitPut(&queue);
 10617              		.loc 3 359 2
 10618 56e9 4889C3   		movq	%rax, %rbx
 10619 56ec E8000000 		call	__cxa_end_catch@PLT
 10619      00
 10620 56f1 4889D8   		movq	%rbx, %rax
 10621 56f4 4889C7   		movq	%rax, %rdi
 10622              	.LEHB499:
 10623 56f7 E8000000 		call	_Unwind_Resume@PLT
 10623      00
 10624              	.LEHE499:
 10625              	.L609:
 10626 56fc F30F1EFA 		endbr64
 362:testCore.cpp  **** 	queueCommitPut(&queue);
 10627              		.loc 3 362 2 is_stmt 1
 10628 5700 4889C7   		movq	%rax, %rdi
 10629 5703 E8000000 		call	__cxa_begin_catch@PLT
 10629      00
 10630              	.LEHB500:
 10631 5708 E8000000 		call	_ZN8UnitTest11CurrentTest7ResultsEv@PLT
 10631      00
 362:testCore.cpp  **** 	queueCommitPut(&queue);
 10632              		.loc 3 362 2 is_stmt 0 discriminator 3
 10633 570d 488B18   		movq	(%rax), %rbx
 10634 5710 E8000000 		call	_ZN8UnitTest11CurrentTest7DetailsEv@PLT
 10634      00
 362:testCore.cpp  **** 	queueCommitPut(&queue);
 10635              		.loc 3 362 2 discriminator 11
 10636 5715 488B08   		movq	(%rax), %rcx
 10637 5718 488D4590 		leaq	-112(%rbp), %rax
 10638 571c BA6A0100 		movl	$362, %edx
 10638      00
 10639 5721 4889CE   		movq	%rcx, %rsi
 10640 5724 4889C7   		movq	%rax, %rdi
 10641 5727 E8000000 		call	_ZN8UnitTest11TestDetailsC1ERKS0_i@PLT
 10641      00
 362:testCore.cpp  **** 	queueCommitPut(&queue);
 10642              		.loc 3 362 2 discriminator 15
 10643 572c 488D4590 		leaq	-112(%rbp), %rax
 10644 5730 488D1500 		leaq	.LC3(%rip), %rdx
 10644      000000
 10645 5737 4889C6   		movq	%rax, %rsi
 10646 573a 4889DF   		movq	%rbx, %rdi
 10647 573d E8000000 		call	_ZN8UnitTest11TestResults13OnTestFailureERKNS_11TestDetailsEPKc@PLT
 10647      00
 10648              	.LEHE500:
 10649              	.LEHB501:
 362:testCore.cpp  **** 	queueCommitPut(&queue);
 10650              		.loc 3 362 2 discriminator 17
 10651 5742 E8000000 		call	__cxa_end_catch@PLT
 10651      00
 10652              	.LEHE501:
 10653 5747 E90AFCFF 		jmp	.L583
 10653      FF
 10654              	.L610:
 10655 574c F30F1EFA 		endbr64
 362:testCore.cpp  **** 	queueCommitPut(&queue);
 10656              		.loc 3 362 2
 10657 5750 4889C3   		movq	%rax, %rbx
 10658 5753 E8000000 		call	__cxa_end_catch@PLT
 10658      00
 10659 5758 4889D8   		movq	%rbx, %rax
 10660 575b 4889C7   		movq	%rax, %rdi
 10661              	.LEHB502:
 10662 575e E8000000 		call	_Unwind_Resume@PLT
 10662      00
 10663              	.LEHE502:
 10664              	.L611:
 10665 5763 F30F1EFA 		endbr64
 365:testCore.cpp  **** 	queueCommitPut(&queue);
 10666              		.loc 3 365 2 is_stmt 1
 10667 5767 4889C7   		movq	%rax, %rdi
 10668 576a E8000000 		call	__cxa_begin_catch@PLT
 10668      00
 10669              	.LEHB503:
 10670 576f E8000000 		call	_ZN8UnitTest11CurrentTest7ResultsEv@PLT
 10670      00
 365:testCore.cpp  **** 	queueCommitPut(&queue);
 10671              		.loc 3 365 2 is_stmt 0 discriminator 3
 10672 5774 488B18   		movq	(%rax), %rbx
 10673 5777 E8000000 		call	_ZN8UnitTest11CurrentTest7DetailsEv@PLT
 10673      00
 365:testCore.cpp  **** 	queueCommitPut(&queue);
 10674              		.loc 3 365 2 discriminator 11
 10675 577c 488B08   		movq	(%rax), %rcx
 10676 577f 488D4590 		leaq	-112(%rbp), %rax
 10677 5783 BA6D0100 		movl	$365, %edx
 10677      00
 10678 5788 4889CE   		movq	%rcx, %rsi
 10679 578b 4889C7   		movq	%rax, %rdi
 10680 578e E8000000 		call	_ZN8UnitTest11TestDetailsC1ERKS0_i@PLT
 10680      00
 365:testCore.cpp  **** 	queueCommitPut(&queue);
 10681              		.loc 3 365 2 discriminator 15
 10682 5793 488D4590 		leaq	-112(%rbp), %rax
 10683 5797 488D1500 		leaq	.LC3(%rip), %rdx
 10683      000000
 10684 579e 4889C6   		movq	%rax, %rsi
 10685 57a1 4889DF   		movq	%rbx, %rdi
 10686 57a4 E8000000 		call	_ZN8UnitTest11TestResults13OnTestFailureERKNS_11TestDetailsEPKc@PLT
 10686      00
 10687              	.LEHE503:
 10688              	.LEHB504:
 365:testCore.cpp  **** 	queueCommitPut(&queue);
 10689              		.loc 3 365 2 discriminator 17
 10690 57a9 E8000000 		call	__cxa_end_catch@PLT
 10690      00
 10691              	.LEHE504:
 10692 57ae E904FCFF 		jmp	.L586
 10692      FF
 10693              	.L612:
 10694 57b3 F30F1EFA 		endbr64
 365:testCore.cpp  **** 	queueCommitPut(&queue);
 10695              		.loc 3 365 2
 10696 57b7 4889C3   		movq	%rax, %rbx
 10697 57ba E8000000 		call	__cxa_end_catch@PLT
 10697      00
 10698 57bf 4889D8   		movq	%rbx, %rax
 10699 57c2 4889C7   		movq	%rax, %rdi
 10700              	.LEHB505:
 10701 57c5 E8000000 		call	_Unwind_Resume@PLT
 10701      00
 10702              	.LEHE505:
 10703              	.L613:
 10704 57ca F30F1EFA 		endbr64
 368:testCore.cpp  **** 	queueCommitPut(&queue);
 10705              		.loc 3 368 2 is_stmt 1
 10706 57ce 4889C7   		movq	%rax, %rdi
 10707 57d1 E8000000 		call	__cxa_begin_catch@PLT
 10707      00
 10708              	.LEHB506:
 10709 57d6 E8000000 		call	_ZN8UnitTest11CurrentTest7ResultsEv@PLT
 10709      00
 368:testCore.cpp  **** 	queueCommitPut(&queue);
 10710              		.loc 3 368 2 is_stmt 0 discriminator 3
 10711 57db 488B18   		movq	(%rax), %rbx
 10712 57de E8000000 		call	_ZN8UnitTest11CurrentTest7DetailsEv@PLT
 10712      00
 368:testCore.cpp  **** 	queueCommitPut(&queue);
 10713              		.loc 3 368 2 discriminator 11
 10714 57e3 488B08   		movq	(%rax), %rcx
 10715 57e6 488D4590 		leaq	-112(%rbp), %rax
 10716 57ea BA700100 		movl	$368, %edx
 10716      00
 10717 57ef 4889CE   		movq	%rcx, %rsi
 10718 57f2 4889C7   		movq	%rax, %rdi
 10719 57f5 E8000000 		call	_ZN8UnitTest11TestDetailsC1ERKS0_i@PLT
 10719      00
 368:testCore.cpp  **** 	queueCommitPut(&queue);
 10720              		.loc 3 368 2 discriminator 15
 10721 57fa 488D4590 		leaq	-112(%rbp), %rax
 10722 57fe 488D1500 		leaq	.LC3(%rip), %rdx
 10722      000000
 10723 5805 4889C6   		movq	%rax, %rsi
 10724 5808 4889DF   		movq	%rbx, %rdi
 10725 580b E8000000 		call	_ZN8UnitTest11TestResults13OnTestFailureERKNS_11TestDetailsEPKc@PLT
 10725      00
 10726              	.LEHE506:
 10727              	.LEHB507:
 368:testCore.cpp  **** 	queueCommitPut(&queue);
 10728              		.loc 3 368 2 discriminator 17
 10729 5810 E8000000 		call	__cxa_end_catch@PLT
 10729      00
 10730              	.LEHE507:
 10731 5815 E9FEFBFF 		jmp	.L589
 10731      FF
 10732              	.L614:
 10733 581a F30F1EFA 		endbr64
 368:testCore.cpp  **** 	queueCommitPut(&queue);
 10734              		.loc 3 368 2
 10735 581e 4889C3   		movq	%rax, %rbx
 10736 5821 E8000000 		call	__cxa_end_catch@PLT
 10736      00
 10737 5826 4889D8   		movq	%rbx, %rax
 10738 5829 4889C7   		movq	%rax, %rdi
 10739              	.LEHB508:
 10740 582c E8000000 		call	_Unwind_Resume@PLT
 10740      00
 10741              	.LEHE508:
 10742              	.L615:
 10743 5831 F30F1EFA 		endbr64
 371:testCore.cpp  **** 	queueCommitPut(&queue);
 10744              		.loc 3 371 2 is_stmt 1
 10745 5835 4889C7   		movq	%rax, %rdi
 10746 5838 E8000000 		call	__cxa_begin_catch@PLT
 10746      00
 10747              	.LEHB509:
 10748 583d E8000000 		call	_ZN8UnitTest11CurrentTest7ResultsEv@PLT
 10748      00
 371:testCore.cpp  **** 	queueCommitPut(&queue);
 10749              		.loc 3 371 2 is_stmt 0 discriminator 3
 10750 5842 488B18   		movq	(%rax), %rbx
 10751 5845 E8000000 		call	_ZN8UnitTest11CurrentTest7DetailsEv@PLT
 10751      00
 371:testCore.cpp  **** 	queueCommitPut(&queue);
 10752              		.loc 3 371 2 discriminator 11
 10753 584a 488B08   		movq	(%rax), %rcx
 10754 584d 488D4590 		leaq	-112(%rbp), %rax
 10755 5851 BA730100 		movl	$371, %edx
 10755      00
 10756 5856 4889CE   		movq	%rcx, %rsi
 10757 5859 4889C7   		movq	%rax, %rdi
 10758 585c E8000000 		call	_ZN8UnitTest11TestDetailsC1ERKS0_i@PLT
 10758      00
 371:testCore.cpp  **** 	queueCommitPut(&queue);
 10759              		.loc 3 371 2 discriminator 15
 10760 5861 488D4590 		leaq	-112(%rbp), %rax
 10761 5865 488D1500 		leaq	.LC3(%rip), %rdx
 10761      000000
 10762 586c 4889C6   		movq	%rax, %rsi
 10763 586f 4889DF   		movq	%rbx, %rdi
 10764 5872 E8000000 		call	_ZN8UnitTest11TestResults13OnTestFailureERKNS_11TestDetailsEPKc@PLT
 10764      00
 10765              	.LEHE509:
 10766              	.LEHB510:
 371:testCore.cpp  **** 	queueCommitPut(&queue);
 10767              		.loc 3 371 2 discriminator 17
 10768 5877 E8000000 		call	__cxa_end_catch@PLT
 10768      00
 10769              	.LEHE510:
 10770 587c E9F8FBFF 		jmp	.L592
 10770      FF
 10771              	.L616:
 10772 5881 F30F1EFA 		endbr64
 371:testCore.cpp  **** 	queueCommitPut(&queue);
 10773              		.loc 3 371 2
 10774 5885 4889C3   		movq	%rax, %rbx
 10775 5888 E8000000 		call	__cxa_end_catch@PLT
 10775      00
 10776 588d 4889D8   		movq	%rbx, %rax
 10777 5890 4889C7   		movq	%rax, %rdi
 10778              	.LEHB511:
 10779 5893 E8000000 		call	_Unwind_Resume@PLT
 10779      00
 10780              	.LEHE511:
 10781              	.L617:
 10782 5898 F30F1EFA 		endbr64
 374:testCore.cpp  **** 	queueCommitPut(&queue);
 10783              		.loc 3 374 2 is_stmt 1
 10784 589c 4889C7   		movq	%rax, %rdi
 10785 589f E8000000 		call	__cxa_begin_catch@PLT
 10785      00
 10786              	.LEHB512:
 10787 58a4 E8000000 		call	_ZN8UnitTest11CurrentTest7ResultsEv@PLT
 10787      00
 374:testCore.cpp  **** 	queueCommitPut(&queue);
 10788              		.loc 3 374 2 is_stmt 0 discriminator 3
 10789 58a9 488B18   		movq	(%rax), %rbx
 10790 58ac E8000000 		call	_ZN8UnitTest11CurrentTest7DetailsEv@PLT
 10790      00
 374:testCore.cpp  **** 	queueCommitPut(&queue);
 10791              		.loc 3 374 2 discriminator 11
 10792 58b1 488B08   		movq	(%rax), %rcx
 10793 58b4 488D4590 		leaq	-112(%rbp), %rax
 10794 58b8 BA760100 		movl	$374, %edx
 10794      00
 10795 58bd 4889CE   		movq	%rcx, %rsi
 10796 58c0 4889C7   		movq	%rax, %rdi
 10797 58c3 E8000000 		call	_ZN8UnitTest11TestDetailsC1ERKS0_i@PLT
 10797      00
 374:testCore.cpp  **** 	queueCommitPut(&queue);
 10798              		.loc 3 374 2 discriminator 15
 10799 58c8 488D4590 		leaq	-112(%rbp), %rax
 10800 58cc 488D1500 		leaq	.LC3(%rip), %rdx
 10800      000000
 10801 58d3 4889C6   		movq	%rax, %rsi
 10802 58d6 4889DF   		movq	%rbx, %rdi
 10803 58d9 E8000000 		call	_ZN8UnitTest11TestResults13OnTestFailureERKNS_11TestDetailsEPKc@PLT
 10803      00
 10804              	.LEHE512:
 10805              	.LEHB513:
 374:testCore.cpp  **** 	queueCommitPut(&queue);
 10806              		.loc 3 374 2 discriminator 17
 10807 58de E8000000 		call	__cxa_end_catch@PLT
 10807      00
 10808              	.LEHE513:
 10809 58e3 E9F2FBFF 		jmp	.L595
 10809      FF
 10810              	.L618:
 10811 58e8 F30F1EFA 		endbr64
 374:testCore.cpp  **** 	queueCommitPut(&queue);
 10812              		.loc 3 374 2
 10813 58ec 4889C3   		movq	%rax, %rbx
 10814 58ef E8000000 		call	__cxa_end_catch@PLT
 10814      00
 10815 58f4 4889D8   		movq	%rbx, %rax
 10816 58f7 4889C7   		movq	%rax, %rdi
 10817              	.LEHB514:
 10818 58fa E8000000 		call	_Unwind_Resume@PLT
 10818      00
 10819              	.LEHE514:
 10820              	.L619:
 10821 58ff F30F1EFA 		endbr64
 379:testCore.cpp  **** 
 10822              		.loc 3 379 2 is_stmt 1
 10823 5903 4889C7   		movq	%rax, %rdi
 10824 5906 E8000000 		call	__cxa_begin_catch@PLT
 10824      00
 10825              	.LEHB515:
 10826 590b E8000000 		call	_ZN8UnitTest11CurrentTest7ResultsEv@PLT
 10826      00
 379:testCore.cpp  **** 
 10827              		.loc 3 379 2 is_stmt 0 discriminator 3
 10828 5910 488B18   		movq	(%rax), %rbx
 10829 5913 E8000000 		call	_ZN8UnitTest11CurrentTest7DetailsEv@PLT
 10829      00
 379:testCore.cpp  **** 
 10830              		.loc 3 379 2 discriminator 11
 10831 5918 488B08   		movq	(%rax), %rcx
 10832 591b 488D4590 		leaq	-112(%rbp), %rax
 10833 591f BA7B0100 		movl	$379, %edx
 10833      00
 10834 5924 4889CE   		movq	%rcx, %rsi
 10835 5927 4889C7   		movq	%rax, %rdi
 10836 592a E8000000 		call	_ZN8UnitTest11TestDetailsC1ERKS0_i@PLT
 10836      00
 379:testCore.cpp  **** 
 10837              		.loc 3 379 2 discriminator 15
 10838 592f 488D4590 		leaq	-112(%rbp), %rax
 10839 5933 488D1500 		leaq	.LC55(%rip), %rdx
 10839      000000
 10840 593a 4889C6   		movq	%rax, %rsi
 10841 593d 4889DF   		movq	%rbx, %rdi
 10842 5940 E8000000 		call	_ZN8UnitTest11TestResults13OnTestFailureERKNS_11TestDetailsEPKc@PLT
 10842      00
 10843              	.LEHE515:
 10844              	.LEHB516:
 379:testCore.cpp  **** 
 10845              		.loc 3 379 2 discriminator 17
 10846 5945 E8000000 		call	__cxa_end_catch@PLT
 10846      00
 10847              	.LEHE516:
 10848 594a E9ECFBFF 		jmp	.L598
 10848      FF
 10849              	.L620:
 10850 594f F30F1EFA 		endbr64
 379:testCore.cpp  **** 
 10851              		.loc 3 379 2
 10852 5953 4889C3   		movq	%rax, %rbx
 10853 5956 E8000000 		call	__cxa_end_catch@PLT
 10853      00
 10854 595b 4889D8   		movq	%rbx, %rax
 10855 595e 4889C7   		movq	%rax, %rdi
 10856              	.LEHB517:
 10857 5961 E8000000 		call	_Unwind_Resume@PLT
 10857      00
 10858              	.LEHE517:
 10859              	.L621:
 10860              		.loc 3 382 1 is_stmt 1
 10861 5966 E8000000 		call	__stack_chk_fail@PLT
 10861      00
 10862              	.L600:
 10863 596b 488B5DF8 		movq	-8(%rbp), %rbx
 10864 596f C9       		leave
 10865              		.cfi_def_cfa 7, 8
 10866 5970 C3       		ret
 10867              		.cfi_endproc
 10868              	.LFE1190:
 10869              		.section	.gcc_except_table
 10870              		.align 4
 10871              	.LLSDA1190:
 10872 0a24 FF       		.byte	0xff
 10873 0a25 9B       		.byte	0x9b
 10874 0a26 9C02     		.uleb128 .LLSDATT1190-.LLSDATTD1190
 10875              	.LLSDATTD1190:
 10876 0a28 01       		.byte	0x1
 10877 0a29 9102     		.uleb128 .LLSDACSE1190-.LLSDACSB1190
 10878              	.LLSDACSB1190:
 10879 0a2b 4D       		.uleb128 .LEHB467-.LFB1190
 10880 0a2c 05       		.uleb128 .LEHE467-.LEHB467
 10881 0a2d 00       		.uleb128 0
 10882 0a2e 00       		.uleb128 0
 10883 0a2f 55       		.uleb128 .LEHB468-.LFB1190
 10884 0a30 3F       		.uleb128 .LEHE468-.LEHB468
 10885 0a31 9608     		.uleb128 .L601-.LFB1190
 10886 0a33 01       		.uleb128 0x1
 10887 0a34 A201     		.uleb128 .LEHB469-.LFB1190
 10888 0a36 05       		.uleb128 .LEHE469-.LEHB469
 10889 0a37 00       		.uleb128 0
 10890 0a38 00       		.uleb128 0
 10891 0a39 AA01     		.uleb128 .LEHB470-.LFB1190
 10892 0a3b 3F       		.uleb128 .LEHE470-.LEHB470
 10893 0a3c FD08     		.uleb128 .L603-.LFB1190
 10894 0a3e 01       		.uleb128 0x1
 10895 0a3f F001     		.uleb128 .LEHB471-.LFB1190
 10896 0a41 18       		.uleb128 .LEHE471-.LEHB471
 10897 0a42 00       		.uleb128 0
 10898 0a43 00       		.uleb128 0
 10899 0a44 8B02     		.uleb128 .LEHB472-.LFB1190
 10900 0a46 3F       		.uleb128 .LEHE472-.LEHB472
 10901 0a47 E409     		.uleb128 .L605-.LFB1190
 10902 0a49 01       		.uleb128 0x1
 10903 0a4a D102     		.uleb128 .LEHB473-.LFB1190
 10904 0a4c 18       		.uleb128 .LEHE473-.LEHB473
 10905 0a4d 00       		.uleb128 0
 10906 0a4e 00       		.uleb128 0
 10907 0a4f EC02     		.uleb128 .LEHB474-.LFB1190
 10908 0a51 3F       		.uleb128 .LEHE474-.LEHB474
 10909 0a52 CB0A     		.uleb128 .L607-.LFB1190
 10910 0a54 01       		.uleb128 0x1
 10911 0a55 B203     		.uleb128 .LEHB475-.LFB1190
 10912 0a57 18       		.uleb128 .LEHE475-.LEHB475
 10913 0a58 00       		.uleb128 0
 10914 0a59 00       		.uleb128 0
 10915 0a5a CD03     		.uleb128 .LEHB476-.LFB1190
 10916 0a5c 3F       		.uleb128 .LEHE476-.LEHB476
 10917 0a5d B20B     		.uleb128 .L609-.LFB1190
 10918 0a5f 01       		.uleb128 0x1
 10919 0a60 9304     		.uleb128 .LEHB477-.LFB1190
 10920 0a62 18       		.uleb128 .LEHE477-.LEHB477
 10921 0a63 00       		.uleb128 0
 10922 0a64 00       		.uleb128 0
 10923 0a65 AE04     		.uleb128 .LEHB478-.LFB1190
 10924 0a67 3F       		.uleb128 .LEHE478-.LEHB478
 10925 0a68 990C     		.uleb128 .L611-.LFB1190
 10926 0a6a 01       		.uleb128 0x1
 10927 0a6b F404     		.uleb128 .LEHB479-.LFB1190
 10928 0a6d 18       		.uleb128 .LEHE479-.LEHB479
 10929 0a6e 00       		.uleb128 0
 10930 0a6f 00       		.uleb128 0
 10931 0a70 8F05     		.uleb128 .LEHB480-.LFB1190
 10932 0a72 3F       		.uleb128 .LEHE480-.LEHB480
 10933 0a73 800D     		.uleb128 .L613-.LFB1190
 10934 0a75 01       		.uleb128 0x1
 10935 0a76 D505     		.uleb128 .LEHB481-.LFB1190
 10936 0a78 18       		.uleb128 .LEHE481-.LEHB481
 10937 0a79 00       		.uleb128 0
 10938 0a7a 00       		.uleb128 0
 10939 0a7b F005     		.uleb128 .LEHB482-.LFB1190
 10940 0a7d 3F       		.uleb128 .LEHE482-.LEHB482
 10941 0a7e E70D     		.uleb128 .L615-.LFB1190
 10942 0a80 01       		.uleb128 0x1
 10943 0a81 B606     		.uleb128 .LEHB483-.LFB1190
 10944 0a83 18       		.uleb128 .LEHE483-.LEHB483
 10945 0a84 00       		.uleb128 0
 10946 0a85 00       		.uleb128 0
 10947 0a86 D106     		.uleb128 .LEHB484-.LFB1190
 10948 0a88 3F       		.uleb128 .LEHE484-.LEHB484
 10949 0a89 CE0E     		.uleb128 .L617-.LFB1190
 10950 0a8b 01       		.uleb128 0x1
 10951 0a8c 9707     		.uleb128 .LEHB485-.LFB1190
 10952 0a8e 18       		.uleb128 .LEHE485-.LEHB485
 10953 0a8f 00       		.uleb128 0
 10954 0a90 00       		.uleb128 0
 10955 0a91 B207     		.uleb128 .LEHB486-.LFB1190
 10956 0a93 3F       		.uleb128 .LEHE486-.LEHB486
 10957 0a94 B50F     		.uleb128 .L619-.LFB1190
 10958 0a96 01       		.uleb128 0x1
 10959 0a97 F807     		.uleb128 .LEHB487-.LFB1190
 10960 0a99 05       		.uleb128 .LEHE487-.LEHB487
 10961 0a9a 00       		.uleb128 0
 10962 0a9b 00       		.uleb128 0
 10963 0a9c A208     		.uleb128 .LEHB488-.LFB1190
 10964 0a9e 3A       		.uleb128 .LEHE488-.LEHB488
 10965 0a9f E608     		.uleb128 .L602-.LFB1190
 10966 0aa1 00       		.uleb128 0
 10967 0aa2 DC08     		.uleb128 .LEHB489-.LFB1190
 10968 0aa4 05       		.uleb128 .LEHE489-.LEHB489
 10969 0aa5 00       		.uleb128 0
 10970 0aa6 00       		.uleb128 0
 10971 0aa7 F808     		.uleb128 .LEHB490-.LFB1190
 10972 0aa9 05       		.uleb128 .LEHE490-.LEHB490
 10973 0aaa 00       		.uleb128 0
 10974 0aab 00       		.uleb128 0
 10975 0aac 8909     		.uleb128 .LEHB491-.LFB1190
 10976 0aae 3A       		.uleb128 .LEHE491-.LEHB491
 10977 0aaf CD09     		.uleb128 .L604-.LFB1190
 10978 0ab1 00       		.uleb128 0
 10979 0ab2 C309     		.uleb128 .LEHB492-.LFB1190
 10980 0ab4 05       		.uleb128 .LEHE492-.LEHB492
 10981 0ab5 00       		.uleb128 0
 10982 0ab6 00       		.uleb128 0
 10983 0ab7 DF09     		.uleb128 .LEHB493-.LFB1190
 10984 0ab9 05       		.uleb128 .LEHE493-.LEHB493
 10985 0aba 00       		.uleb128 0
 10986 0abb 00       		.uleb128 0
 10987 0abc F009     		.uleb128 .LEHB494-.LFB1190
 10988 0abe 3A       		.uleb128 .LEHE494-.LEHB494
 10989 0abf B40A     		.uleb128 .L606-.LFB1190
 10990 0ac1 00       		.uleb128 0
 10991 0ac2 AA0A     		.uleb128 .LEHB495-.LFB1190
 10992 0ac4 05       		.uleb128 .LEHE495-.LEHB495
 10993 0ac5 00       		.uleb128 0
 10994 0ac6 00       		.uleb128 0
 10995 0ac7 C60A     		.uleb128 .LEHB496-.LFB1190
 10996 0ac9 05       		.uleb128 .LEHE496-.LEHB496
 10997 0aca 00       		.uleb128 0
 10998 0acb 00       		.uleb128 0
 10999 0acc D70A     		.uleb128 .LEHB497-.LFB1190
 11000 0ace 3A       		.uleb128 .LEHE497-.LEHB497
 11001 0acf 9B0B     		.uleb128 .L608-.LFB1190
 11002 0ad1 00       		.uleb128 0
 11003 0ad2 910B     		.uleb128 .LEHB498-.LFB1190
 11004 0ad4 05       		.uleb128 .LEHE498-.LEHB498
 11005 0ad5 00       		.uleb128 0
 11006 0ad6 00       		.uleb128 0
 11007 0ad7 AD0B     		.uleb128 .LEHB499-.LFB1190
 11008 0ad9 05       		.uleb128 .LEHE499-.LEHB499
 11009 0ada 00       		.uleb128 0
 11010 0adb 00       		.uleb128 0
 11011 0adc BE0B     		.uleb128 .LEHB500-.LFB1190
 11012 0ade 3A       		.uleb128 .LEHE500-.LEHB500
 11013 0adf 820C     		.uleb128 .L610-.LFB1190
 11014 0ae1 00       		.uleb128 0
 11015 0ae2 F80B     		.uleb128 .LEHB501-.LFB1190
 11016 0ae4 05       		.uleb128 .LEHE501-.LEHB501
 11017 0ae5 00       		.uleb128 0
 11018 0ae6 00       		.uleb128 0
 11019 0ae7 940C     		.uleb128 .LEHB502-.LFB1190
 11020 0ae9 05       		.uleb128 .LEHE502-.LEHB502
 11021 0aea 00       		.uleb128 0
 11022 0aeb 00       		.uleb128 0
 11023 0aec A50C     		.uleb128 .LEHB503-.LFB1190
 11024 0aee 3A       		.uleb128 .LEHE503-.LEHB503
 11025 0aef E90C     		.uleb128 .L612-.LFB1190
 11026 0af1 00       		.uleb128 0
 11027 0af2 DF0C     		.uleb128 .LEHB504-.LFB1190
 11028 0af4 05       		.uleb128 .LEHE504-.LEHB504
 11029 0af5 00       		.uleb128 0
 11030 0af6 00       		.uleb128 0
 11031 0af7 FB0C     		.uleb128 .LEHB505-.LFB1190
 11032 0af9 05       		.uleb128 .LEHE505-.LEHB505
 11033 0afa 00       		.uleb128 0
 11034 0afb 00       		.uleb128 0
 11035 0afc 8C0D     		.uleb128 .LEHB506-.LFB1190
 11036 0afe 3A       		.uleb128 .LEHE506-.LEHB506
 11037 0aff D00D     		.uleb128 .L614-.LFB1190
 11038 0b01 00       		.uleb128 0
 11039 0b02 C60D     		.uleb128 .LEHB507-.LFB1190
 11040 0b04 05       		.uleb128 .LEHE507-.LEHB507
 11041 0b05 00       		.uleb128 0
 11042 0b06 00       		.uleb128 0
 11043 0b07 E20D     		.uleb128 .LEHB508-.LFB1190
 11044 0b09 05       		.uleb128 .LEHE508-.LEHB508
 11045 0b0a 00       		.uleb128 0
 11046 0b0b 00       		.uleb128 0
 11047 0b0c F30D     		.uleb128 .LEHB509-.LFB1190
 11048 0b0e 3A       		.uleb128 .LEHE509-.LEHB509
 11049 0b0f B70E     		.uleb128 .L616-.LFB1190
 11050 0b11 00       		.uleb128 0
 11051 0b12 AD0E     		.uleb128 .LEHB510-.LFB1190
 11052 0b14 05       		.uleb128 .LEHE510-.LEHB510
 11053 0b15 00       		.uleb128 0
 11054 0b16 00       		.uleb128 0
 11055 0b17 C90E     		.uleb128 .LEHB511-.LFB1190
 11056 0b19 05       		.uleb128 .LEHE511-.LEHB511
 11057 0b1a 00       		.uleb128 0
 11058 0b1b 00       		.uleb128 0
 11059 0b1c DA0E     		.uleb128 .LEHB512-.LFB1190
 11060 0b1e 3A       		.uleb128 .LEHE512-.LEHB512
 11061 0b1f 9E0F     		.uleb128 .L618-.LFB1190
 11062 0b21 00       		.uleb128 0
 11063 0b22 940F     		.uleb128 .LEHB513-.LFB1190
 11064 0b24 05       		.uleb128 .LEHE513-.LEHB513
 11065 0b25 00       		.uleb128 0
 11066 0b26 00       		.uleb128 0
 11067 0b27 B00F     		.uleb128 .LEHB514-.LFB1190
 11068 0b29 05       		.uleb128 .LEHE514-.LEHB514
 11069 0b2a 00       		.uleb128 0
 11070 0b2b 00       		.uleb128 0
 11071 0b2c C10F     		.uleb128 .LEHB515-.LFB1190
 11072 0b2e 3A       		.uleb128 .LEHE515-.LEHB515
 11073 0b2f 8510     		.uleb128 .L620-.LFB1190
 11074 0b31 00       		.uleb128 0
 11075 0b32 FB0F     		.uleb128 .LEHB516-.LFB1190
 11076 0b34 05       		.uleb128 .LEHE516-.LEHB516
 11077 0b35 00       		.uleb128 0
 11078 0b36 00       		.uleb128 0
 11079 0b37 9710     		.uleb128 .LEHB517-.LFB1190
 11080 0b39 05       		.uleb128 .LEHE517-.LEHB517
 11081 0b3a 00       		.uleb128 0
 11082 0b3b 00       		.uleb128 0
 11083              	.LLSDACSE1190:
 11084 0b3c 01       		.byte	0x1
 11085 0b3d 00       		.byte	0
 11086 0b3e 0000     		.align 4
 11087 0b40 00000000 		.long	0
 11088              	
 11089              	.LLSDATT1190:
 11090              		.text
 11092              		.section	.rodata
 11093              	.LC57:
 11094 0c37 51756575 		.string	"Queue_testAllocFreeMatching"
 11094      655F7465 
 11094      7374416C 
 11094      6C6F6346 
 11094      7265654D 
 11095              		.section	.text._ZN31TestQueue_testAllocFreeMatchingC2Ev,"axG",@progbits,_ZN31TestQueue_testAllocFr
 11096              		.align 2
 11097              		.weak	_ZN31TestQueue_testAllocFreeMatchingC2Ev
 11099              	_ZN31TestQueue_testAllocFreeMatchingC2Ev:
 11100              	.LFB1192:
 383:testCore.cpp  **** 
 384:testCore.cpp  **** TEST(Queue_testAllocFreeMatching) {
 11101              		.loc 3 384 1
 11102              		.cfi_startproc
 11103 0000 F30F1EFA 		endbr64
 11104 0004 55       		pushq	%rbp
 11105              		.cfi_def_cfa_offset 16
 11106              		.cfi_offset 6, -16
 11107 0005 4889E5   		movq	%rsp, %rbp
 11108              		.cfi_def_cfa_register 6
 11109 0008 53       		pushq	%rbx
 11110 0009 4883EC18 		subq	$24, %rsp
 11111              		.cfi_offset 3, -24
 11112 000d 48897DE8 		movq	%rdi, -24(%rbp)
 11113              	.LBB11:
 11114              		.loc 3 384 1
 11115 0011 488B5DE8 		movq	-24(%rbp), %rbx
 11116 0015 E8000000 		call	_ZN13UnitTestSuite12GetSuiteNameEv
 11116      00
 11117 001a 4889C2   		movq	%rax, %rdx
 11118 001d 41B88001 		movl	$384, %r8d
 11118      0000
 11119 0023 488D0500 		leaq	.LC1(%rip), %rax
 11119      000000
 11120 002a 4889C1   		movq	%rax, %rcx
 11121 002d 488D0500 		leaq	.LC57(%rip), %rax
 11121      000000
 11122 0034 4889C6   		movq	%rax, %rsi
 11123 0037 4889DF   		movq	%rbx, %rdi
 11124 003a E8000000 		call	_ZN8UnitTest4TestC2EPKcS2_S2_i@PLT
 11124      00
 11125 003f 488D1500 		leaq	16+_ZTV31TestQueue_testAllocFreeMatching(%rip), %rdx
 11125      000000
 11126 0046 488B45E8 		movq	-24(%rbp), %rax
 11127 004a 488910   		movq	%rdx, (%rax)
 11128              	.LBE11:
 11129 004d 90       		nop
 11130 004e 488B5DF8 		movq	-8(%rbp), %rbx
 11131 0052 C9       		leave
 11132              		.cfi_def_cfa 7, 8
 11133 0053 C3       		ret
 11134              		.cfi_endproc
 11135              	.LFE1192:
 11137              		.weak	_ZN31TestQueue_testAllocFreeMatchingC1Ev
 11138              		.set	_ZN31TestQueue_testAllocFreeMatchingC1Ev,_ZN31TestQueue_testAllocFreeMatchingC2Ev
 11139              		.globl	testQueue_testAllocFreeMatchingInstance
 11140              		.bss
 11141 01b9 00000000 		.align 32
 11141      000000
 11144              	testQueue_testAllocFreeMatchingInstance:
 11145 01c0 00000000 		.zero	56
 11145      00000000 
 11145      00000000 
 11145      00000000 
 11145      00000000 
 11146              		.globl	adderQueue_testAllocFreeMatching
 11149              	adderQueue_testAllocFreeMatching:
 11150 01f8 00       		.zero	1
 11151              		.section	.rodata
 11152 0c53 00000000 		.align 8
 11152      00
 11153              	.LC58:
 11154 0c58 556E6861 		.string	"Unhandled exception in CHECK_EQUAL(0, m_allocFree)"
 11154      6E646C65 
 11154      64206578 
 11154      63657074 
 11154      696F6E20 
 11155              		.text
 11156 5971 90       		.align 2
 11157              		.globl	_ZNK31TestQueue_testAllocFreeMatching7RunImplEv
 11159              	_ZNK31TestQueue_testAllocFreeMatching7RunImplEv:
 11160              	.LFB1194:
 11161              		.loc 3 384 35
 11162              		.cfi_startproc
 11163              		.cfi_personality 0x9b,DW.ref.__gxx_personality_v0
 11164              		.cfi_lsda 0x1b,.LLSDA1194
 11165 5972 F30F1EFA 		endbr64
 11166 5976 55       		pushq	%rbp
 11167              		.cfi_def_cfa_offset 16
 11168              		.cfi_offset 6, -16
 11169 5977 4889E5   		movq	%rsp, %rbp
 11170              		.cfi_def_cfa_register 6
 11171 597a 53       		pushq	%rbx
 11172 597b 4883EC58 		subq	$88, %rsp
 11173              		.cfi_offset 3, -24
 11174 597f 48897DA8 		movq	%rdi, -88(%rbp)
 11175              		.loc 3 384 35
 11176 5983 64488B04 		movq	%fs:40, %rax
 11176      25280000 
 11176      00
 11177 598c 488945E8 		movq	%rax, -24(%rbp)
 11178 5990 31C0     		xorl	%eax, %eax
 11179              	.LEHB518:
 385:testCore.cpp  **** 	CHECK_EQUAL(0, m_allocFree);
 11180              		.loc 3 385 2
 11181 5992 E8000000 		call	_ZN8UnitTest11CurrentTest7DetailsEv@PLT
 11181      00
 11182 5997 488B08   		movq	(%rax), %rcx
 11183 599a 488D45C0 		leaq	-64(%rbp), %rax
 11184 599e BA810100 		movl	$385, %edx
 11184      00
 11185 59a3 4889CE   		movq	%rcx, %rsi
 11186 59a6 4889C7   		movq	%rax, %rdi
 11187 59a9 E8000000 		call	_ZN8UnitTest11TestDetailsC1ERKS0_i@PLT
 11187      00
 11188              		.loc 3 385 2 is_stmt 0 discriminator 4
 11189 59ae C745BC00 		movl	$0, -68(%rbp)
 11189      000000
 11190 59b5 E8000000 		call	_ZN8UnitTest11CurrentTest7ResultsEv@PLT
 11190      00
 11191 59ba 488B00   		movq	(%rax), %rax
 11192 59bd 488D55C0 		leaq	-64(%rbp), %rdx
 11193 59c1 488D75BC 		leaq	-68(%rbp), %rsi
 11194 59c5 4889D1   		movq	%rdx, %rcx
 11195 59c8 488D1500 		leaq	_ZL11m_allocFree(%rip), %rdx
 11195      000000
 11196 59cf 4889C7   		movq	%rax, %rdi
 11197 59d2 E8000000 		call	_ZN8UnitTest10CheckEqualIiiEEvRNS_11TestResultsERKT_RKT0_RKNS_11TestDetailsE
 11197      00
 11198              	.LEHE518:
 386:testCore.cpp  **** }
 11199              		.loc 3 386 1 is_stmt 1
 11200 59d7 EB64     		jmp	.L623
 11201              	.L628:
 11202 59d9 F30F1EFA 		endbr64
 385:testCore.cpp  **** 	CHECK_EQUAL(0, m_allocFree);
 11203              		.loc 3 385 2
 11204 59dd 4889C7   		movq	%rax, %rdi
 11205 59e0 E8000000 		call	__cxa_begin_catch@PLT
 11205      00
 11206              	.LEHB519:
 11207 59e5 E8000000 		call	_ZN8UnitTest11CurrentTest7ResultsEv@PLT
 11207      00
 385:testCore.cpp  **** 	CHECK_EQUAL(0, m_allocFree);
 11208              		.loc 3 385 2 is_stmt 0 discriminator 3
 11209 59ea 488B18   		movq	(%rax), %rbx
 11210 59ed E8000000 		call	_ZN8UnitTest11CurrentTest7DetailsEv@PLT
 11210      00
 385:testCore.cpp  **** 	CHECK_EQUAL(0, m_allocFree);
 11211              		.loc 3 385 2 discriminator 11
 11212 59f2 488B08   		movq	(%rax), %rcx
 11213 59f5 488D45C0 		leaq	-64(%rbp), %rax
 11214 59f9 BA810100 		movl	$385, %edx
 11214      00
 11215 59fe 4889CE   		movq	%rcx, %rsi
 11216 5a01 4889C7   		movq	%rax, %rdi
 11217 5a04 E8000000 		call	_ZN8UnitTest11TestDetailsC1ERKS0_i@PLT
 11217      00
 385:testCore.cpp  **** 	CHECK_EQUAL(0, m_allocFree);
 11218              		.loc 3 385 2 discriminator 15
 11219 5a09 488D45C0 		leaq	-64(%rbp), %rax
 11220 5a0d 488D1500 		leaq	.LC58(%rip), %rdx
 11220      000000
 11221 5a14 4889C6   		movq	%rax, %rsi
 11222 5a17 4889DF   		movq	%rbx, %rdi
 11223 5a1a E8000000 		call	_ZN8UnitTest11TestResults13OnTestFailureERKNS_11TestDetailsEPKc@PLT
 11223      00
 11224              	.LEHE519:
 11225              	.LEHB520:
 385:testCore.cpp  **** 	CHECK_EQUAL(0, m_allocFree);
 11226              		.loc 3 385 2 discriminator 17
 11227 5a1f E8000000 		call	__cxa_end_catch@PLT
 11227      00
 11228              	.LEHE520:
 11229              		.loc 3 386 1 is_stmt 1 discriminator 17
 11230 5a24 EB17     		jmp	.L623
 11231              	.L629:
 11232 5a26 F30F1EFA 		endbr64
 385:testCore.cpp  **** 	CHECK_EQUAL(0, m_allocFree);
 11233              		.loc 3 385 2
 11234 5a2a 4889C3   		movq	%rax, %rbx
 11235 5a2d E8000000 		call	__cxa_end_catch@PLT
 11235      00
 11236 5a32 4889D8   		movq	%rbx, %rax
 11237 5a35 4889C7   		movq	%rax, %rdi
 11238              	.LEHB521:
 11239 5a38 E8000000 		call	_Unwind_Resume@PLT
 11239      00
 11240              	.LEHE521:
 11241              	.L623:
 11242              		.loc 3 386 1
 11243 5a3d 488B45E8 		movq	-24(%rbp), %rax
 11244 5a41 64482B04 		subq	%fs:40, %rax
 11244      25280000 
 11244      00
 11245 5a4a 7405     		je	.L627
 11246 5a4c E8000000 		call	__stack_chk_fail@PLT
 11246      00
 11247              	.L627:
 11248 5a51 488B5DF8 		movq	-8(%rbp), %rbx
 11249 5a55 C9       		leave
 11250              		.cfi_def_cfa 7, 8
 11251 5a56 C3       		ret
 11252              		.cfi_endproc
 11253              	.LFE1194:
 11254              		.section	.gcc_except_table
 11255              		.align 4
 11256              	.LLSDA1194:
 11257 0b44 FF       		.byte	0xff
 11258 0b45 9B       		.byte	0x9b
 11259 0b46 1D       		.uleb128 .LLSDATT1194-.LLSDATTD1194
 11260              	.LLSDATTD1194:
 11261 0b47 01       		.byte	0x1
 11262 0b48 13       		.uleb128 .LLSDACSE1194-.LLSDACSB1194
 11263              	.LLSDACSB1194:
 11264 0b49 20       		.uleb128 .LEHB518-.LFB1194
 11265 0b4a 45       		.uleb128 .LEHE518-.LEHB518
 11266 0b4b 67       		.uleb128 .L628-.LFB1194
 11267 0b4c 01       		.uleb128 0x1
 11268 0b4d 73       		.uleb128 .LEHB519-.LFB1194
 11269 0b4e 3A       		.uleb128 .LEHE519-.LEHB519
 11270 0b4f B401     		.uleb128 .L629-.LFB1194
 11271 0b51 00       		.uleb128 0
 11272 0b52 AD01     		.uleb128 .LEHB520-.LFB1194
 11273 0b54 05       		.uleb128 .LEHE520-.LEHB520
 11274 0b55 00       		.uleb128 0
 11275 0b56 00       		.uleb128 0
 11276 0b57 C601     		.uleb128 .LEHB521-.LFB1194
 11277 0b59 05       		.uleb128 .LEHE521-.LEHB521
 11278 0b5a 00       		.uleb128 0
 11279 0b5b 00       		.uleb128 0
 11280              	.LLSDACSE1194:
 11281 0b5c 01       		.byte	0x1
 11282 0b5d 00       		.byte	0
 11283 0b5e 0000     		.align 4
 11284 0b60 00000000 		.long	0
 11285              	
 11286              	.LLSDATT1194:
 11287              		.text
 11289              		.section	.text._ZN8UnitTest15MemoryOutStreamD1Ev,"axG",@progbits,_ZN8UnitTest15MemoryOutStreamD1Ev
 11290              		.align 2
 11291              		.weak	_ZN8UnitTest15MemoryOutStreamD1Ev
 11293              	_ZN8UnitTest15MemoryOutStreamD1Ev:
 11294              	.LFB1225:
  13:/home/pong/FPGALink/makestuff/libs/libutpp/MemoryOutStream.h **** {
 11295              		.loc 2 13 7
 11296              		.cfi_startproc
 11297              		.cfi_personality 0x9b,DW.ref.__gxx_personality_v0
 11298              		.cfi_lsda 0x1b,.LLSDA1225
 11299 0000 F30F1EFA 		endbr64
 11300 0004 55       		pushq	%rbp
 11301              		.cfi_def_cfa_offset 16
 11302              		.cfi_offset 6, -16
 11303 0005 4889E5   		movq	%rsp, %rbp
 11304              		.cfi_def_cfa_register 6
 11305 0008 53       		pushq	%rbx
 11306 0009 4883EC18 		subq	$24, %rsp
 11307              		.cfi_offset 3, -24
 11308 000d 48897DE8 		movq	%rdi, -24(%rbp)
 11309              	.LBB12:
  13:/home/pong/FPGALink/makestuff/libs/libutpp/MemoryOutStream.h **** {
 11310              		.loc 2 13 7
 11311 0011 488D1500 		leaq	24+_ZTVN8UnitTest15MemoryOutStreamE(%rip), %rdx
 11311      000000
 11312 0018 488B45E8 		movq	-24(%rbp), %rax
 11313 001c 488910   		movq	%rdx, (%rax)
 11314 001f 488B45E8 		movq	-24(%rbp), %rax
 11315 0023 48059000 		addq	$144, %rax
 11315      0000
 11316 0029 488D1500 		leaq	64+_ZTVN8UnitTest15MemoryOutStreamE(%rip), %rdx
 11316      000000
 11317 0030 488910   		movq	%rdx, (%rax)
 11318 0033 488B45E8 		movq	-24(%rbp), %rax
 11319 0037 4883C070 		addq	$112, %rax
 11320 003b 4889C7   		movq	%rax, %rdi
 11321              	.LEHB522:
 11322 003e E8000000 		call	_ZNSt7__cxx1112basic_stringIcSt11char_traitsIcESaIcEED1Ev@PLT
 11322      00
 11323              	.LEHE522:
  13:/home/pong/FPGALink/makestuff/libs/libutpp/MemoryOutStream.h **** {
 11324              		.loc 2 13 7 is_stmt 0 discriminator 2
 11325 0043 488B45E8 		movq	-24(%rbp), %rax
 11326 0047 488D1500 		leaq	8+_ZTTN8UnitTest15MemoryOutStreamE(%rip), %rdx
 11326      000000
 11327 004e 4889D6   		movq	%rdx, %rsi
 11328 0051 4889C7   		movq	%rax, %rdi
 11329              	.LEHB523:
 11330 0054 E8000000 		call	_ZNSt7__cxx1119basic_ostringstreamIcSt11char_traitsIcESaIcEED2Ev@PLT
 11330      00
 11331              	.LEHE523:
  13:/home/pong/FPGALink/makestuff/libs/libutpp/MemoryOutStream.h **** {
 11332              		.loc 2 13 7 discriminator 4
 11333 0059 488B45E8 		movq	-24(%rbp), %rax
 11334 005d 48059000 		addq	$144, %rax
 11334      0000
 11335 0063 4889C7   		movq	%rax, %rdi
 11336              	.LEHB524:
 11337 0066 E8000000 		call	_ZNSt9basic_iosIcSt11char_traitsIcEED2Ev@PLT
 11337      00
 11338              	.LEHE524:
 11339              	.LBE12:
 11340 006b EB43     		jmp	.L635
 11341              	.L633:
 11342 006d F30F1EFA 		endbr64
 11343              	.LBB13:
  13:/home/pong/FPGALink/makestuff/libs/libutpp/MemoryOutStream.h **** {
 11344              		.loc 2 13 7
 11345 0071 4889C3   		movq	%rax, %rbx
 11346 0074 488B45E8 		movq	-24(%rbp), %rax
 11347 0078 488D1500 		leaq	8+_ZTTN8UnitTest15MemoryOutStreamE(%rip), %rdx
 11347      000000
 11348 007f 4889D6   		movq	%rdx, %rsi
 11349 0082 4889C7   		movq	%rax, %rdi
 11350 0085 E8000000 		call	_ZNSt7__cxx1119basic_ostringstreamIcSt11char_traitsIcESaIcEED2Ev@PLT
 11350      00
 11351 008a EB07     		jmp	.L632
 11352              	.L634:
 11353 008c F30F1EFA 		endbr64
 11354 0090 4889C3   		movq	%rax, %rbx
 11355              	.L632:
  13:/home/pong/FPGALink/makestuff/libs/libutpp/MemoryOutStream.h **** {
 11356              		.loc 2 13 7 discriminator 3
 11357 0093 488B45E8 		movq	-24(%rbp), %rax
 11358 0097 48059000 		addq	$144, %rax
 11358      0000
 11359 009d 4889C7   		movq	%rax, %rdi
 11360 00a0 E8000000 		call	_ZNSt9basic_iosIcSt11char_traitsIcEED2Ev@PLT
 11360      00
 11361 00a5 4889D8   		movq	%rbx, %rax
 11362 00a8 4889C7   		movq	%rax, %rdi
 11363              	.LEHB525:
 11364 00ab E8000000 		call	_Unwind_Resume@PLT
 11364      00
 11365              	.LEHE525:
 11366              	.L635:
 11367              	.LBE13:
  13:/home/pong/FPGALink/makestuff/libs/libutpp/MemoryOutStream.h **** {
 11368              		.loc 2 13 7
 11369 00b0 488B5DF8 		movq	-8(%rbp), %rbx
 11370 00b4 C9       		leave
 11371              		.cfi_def_cfa 7, 8
 11372 00b5 C3       		ret
 11373              		.cfi_endproc
 11374              	.LFE1225:
 11375              		.section	.gcc_except_table
 11376              	.LLSDA1225:
 11377 0b64 FF       		.byte	0xff
 11378 0b65 FF       		.byte	0xff
 11379 0b66 01       		.byte	0x1
 11380 0b67 12       		.uleb128 .LLSDACSE1225-.LLSDACSB1225
 11381              	.LLSDACSB1225:
 11382 0b68 3E       		.uleb128 .LEHB522-.LFB1225
 11383 0b69 05       		.uleb128 .LEHE522-.LEHB522
 11384 0b6a 6D       		.uleb128 .L633-.LFB1225
 11385 0b6b 00       		.uleb128 0
 11386 0b6c 54       		.uleb128 .LEHB523-.LFB1225
 11387 0b6d 05       		.uleb128 .LEHE523-.LEHB523
 11388 0b6e 8C01     		.uleb128 .L634-.LFB1225
 11389 0b70 00       		.uleb128 0
 11390 0b71 66       		.uleb128 .LEHB524-.LFB1225
 11391 0b72 05       		.uleb128 .LEHE524-.LEHB524
 11392 0b73 00       		.uleb128 0
 11393 0b74 00       		.uleb128 0
 11394 0b75 AB01     		.uleb128 .LEHB525-.LFB1225
 11395 0b77 05       		.uleb128 .LEHE525-.LEHB525
 11396 0b78 00       		.uleb128 0
 11397 0b79 00       		.uleb128 0
 11398              	.LLSDACSE1225:
 11399              		.section	.text._ZN8UnitTest15MemoryOutStreamD1Ev,"axG",@progbits,_ZN8UnitTest15MemoryOutStreamD1Ev
 11401              		.set	.LTHUNK0,_ZN8UnitTest15MemoryOutStreamD1Ev
 11402              		.weak	_ZTv0_n24_N8UnitTest15MemoryOutStreamD1Ev
 11404              	_ZTv0_n24_N8UnitTest15MemoryOutStreamD1Ev:
 11405              	.LFB1318:
  13:/home/pong/FPGALink/makestuff/libs/libutpp/MemoryOutStream.h **** {
 11406              		.loc 2 13 7 is_stmt 1
 11407              		.cfi_startproc
 11408 00b6 F30F1EFA 		endbr64
 11409 00ba 4C8B17   		movq	(%rdi), %r10
 11410 00bd 49037AE8 		addq	-24(%r10), %rdi
 11411 00c1 E93AFFFF 		jmp	.LTHUNK0
 11411      FF
 11412              		.cfi_endproc
 11413              	.LFE1318:
 11415              		.section	.text._ZN8UnitTest15MemoryOutStreamD0Ev,"axG",@progbits,_ZN8UnitTest15MemoryOutStreamD0Ev
 11416              		.align 2
 11417              		.weak	_ZN8UnitTest15MemoryOutStreamD0Ev
 11419              	_ZN8UnitTest15MemoryOutStreamD0Ev:
 11420              	.LFB1226:
  13:/home/pong/FPGALink/makestuff/libs/libutpp/MemoryOutStream.h **** {
 11421              		.loc 2 13 7
 11422              		.cfi_startproc
 11423              		.cfi_personality 0x9b,DW.ref.__gxx_personality_v0
 11424              		.cfi_lsda 0x1b,.LLSDA1226
 11425 0000 F30F1EFA 		endbr64
 11426 0004 55       		pushq	%rbp
 11427              		.cfi_def_cfa_offset 16
 11428              		.cfi_offset 6, -16
 11429 0005 4889E5   		movq	%rsp, %rbp
 11430              		.cfi_def_cfa_register 6
 11431 0008 53       		pushq	%rbx
 11432 0009 4883EC18 		subq	$24, %rsp
 11433              		.cfi_offset 3, -24
 11434 000d 48897DE8 		movq	%rdi, -24(%rbp)
  13:/home/pong/FPGALink/makestuff/libs/libutpp/MemoryOutStream.h **** {
 11435              		.loc 2 13 7
 11436 0011 488B45E8 		movq	-24(%rbp), %rax
 11437 0015 4889C7   		movq	%rax, %rdi
 11438              	.LEHB526:
 11439 0018 E8000000 		call	_ZN8UnitTest15MemoryOutStreamD1Ev
 11439      00
 11440              	.LEHE526:
  13:/home/pong/FPGALink/makestuff/libs/libutpp/MemoryOutStream.h **** {
 11441              		.loc 2 13 7 is_stmt 0 discriminator 2
 11442 001d 488B45E8 		movq	-24(%rbp), %rax
 11443 0021 4889C7   		movq	%rax, %rdi
 11444 0024 E8000000 		call	_ZdlPv@PLT
 11444      00
 11445 0029 EB1E     		jmp	.L639
 11446              	.L638:
 11447 002b F30F1EFA 		endbr64
  13:/home/pong/FPGALink/makestuff/libs/libutpp/MemoryOutStream.h **** {
 11448              		.loc 2 13 7
 11449 002f 4889C3   		movq	%rax, %rbx
 11450 0032 488B45E8 		movq	-24(%rbp), %rax
 11451 0036 4889C7   		movq	%rax, %rdi
 11452 0039 E8000000 		call	_ZdlPv@PLT
 11452      00
 11453 003e 4889D8   		movq	%rbx, %rax
 11454 0041 4889C7   		movq	%rax, %rdi
 11455              	.LEHB527:
 11456 0044 E8000000 		call	_Unwind_Resume@PLT
 11456      00
 11457              	.LEHE527:
 11458              	.L639:
 11459 0049 488B5DF8 		movq	-8(%rbp), %rbx
 11460 004d C9       		leave
 11461              		.cfi_def_cfa 7, 8
 11462 004e C3       		ret
 11463              		.cfi_endproc
 11464              	.LFE1226:
 11465              		.section	.gcc_except_table
 11466              	.LLSDA1226:
 11467 0b7a FF       		.byte	0xff
 11468 0b7b FF       		.byte	0xff
 11469 0b7c 01       		.byte	0x1
 11470 0b7d 08       		.uleb128 .LLSDACSE1226-.LLSDACSB1226
 11471              	.LLSDACSB1226:
 11472 0b7e 18       		.uleb128 .LEHB526-.LFB1226
 11473 0b7f 05       		.uleb128 .LEHE526-.LEHB526
 11474 0b80 2B       		.uleb128 .L638-.LFB1226
 11475 0b81 00       		.uleb128 0
 11476 0b82 44       		.uleb128 .LEHB527-.LFB1226
 11477 0b83 05       		.uleb128 .LEHE527-.LEHB527
 11478 0b84 00       		.uleb128 0
 11479 0b85 00       		.uleb128 0
 11480              	.LLSDACSE1226:
 11481              		.section	.text._ZN8UnitTest15MemoryOutStreamD0Ev,"axG",@progbits,_ZN8UnitTest15MemoryOutStreamD0Ev
 11483              		.set	.LTHUNK1,_ZN8UnitTest15MemoryOutStreamD0Ev
 11484              		.weak	_ZTv0_n24_N8UnitTest15MemoryOutStreamD0Ev
 11486              	_ZTv0_n24_N8UnitTest15MemoryOutStreamD0Ev:
 11487              	.LFB1319:
  13:/home/pong/FPGALink/makestuff/libs/libutpp/MemoryOutStream.h **** {
 11488              		.loc 2 13 7 is_stmt 1
 11489              		.cfi_startproc
 11490 004f F30F1EFA 		endbr64
 11491 0053 4C8B17   		movq	(%rdi), %r10
 11492 0056 49037AE8 		addq	-24(%r10), %rdi
 11493 005a EBA4     		jmp	.LTHUNK1
 11494              		.cfi_endproc
 11495              	.LFE1319:
 11497              		.section	.rodata
 11498              	.LC59:
 11499 0c8b 45787065 		.string	"Expected "
 11499      63746564 
 11499      2000
 11500              	.LC60:
 11501 0c95 20627574 		.string	" but was "
 11501      20776173 
 11501      2000
 11502              		.section	.text._ZN8UnitTest10CheckEqualI9USBStatusS1_EEvRNS_11TestResultsERKT_RKT0_RKNS_11TestDeta
 11503              		.weak	_ZN8UnitTest10CheckEqualI9USBStatusS1_EEvRNS_11TestResultsERKT_RKT0_RKNS_11TestDetailsE
 11505              	_ZN8UnitTest10CheckEqualI9USBStatusS1_EEvRNS_11TestResultsERKT_RKT0_RKNS_11TestDetailsE:
 11506              	.LFB1222:
 11507              		.file 4 "/home/pong/FPGALink/makestuff/libs/libutpp/Checks.h"
   1:/home/pong/FPGALink/makestuff/libs/libutpp/Checks.h **** #ifndef UNITTEST_CHECKS_H
   2:/home/pong/FPGALink/makestuff/libs/libutpp/Checks.h **** #define UNITTEST_CHECKS_H
   3:/home/pong/FPGALink/makestuff/libs/libutpp/Checks.h **** 
   4:/home/pong/FPGALink/makestuff/libs/libutpp/Checks.h **** #include "Config.h"
   5:/home/pong/FPGALink/makestuff/libs/libutpp/Checks.h **** #include "TestResults.h"
   6:/home/pong/FPGALink/makestuff/libs/libutpp/Checks.h **** #include "MemoryOutStream.h"
   7:/home/pong/FPGALink/makestuff/libs/libutpp/Checks.h **** 
   8:/home/pong/FPGALink/makestuff/libs/libutpp/Checks.h **** namespace UnitTest {
   9:/home/pong/FPGALink/makestuff/libs/libutpp/Checks.h **** 
  10:/home/pong/FPGALink/makestuff/libs/libutpp/Checks.h **** 
  11:/home/pong/FPGALink/makestuff/libs/libutpp/Checks.h **** template< typename Value >
  12:/home/pong/FPGALink/makestuff/libs/libutpp/Checks.h **** bool Check(Value const value)
  13:/home/pong/FPGALink/makestuff/libs/libutpp/Checks.h **** {
  14:/home/pong/FPGALink/makestuff/libs/libutpp/Checks.h ****     return !!value; // doing double negative to avoid silly VS warnings
  15:/home/pong/FPGALink/makestuff/libs/libutpp/Checks.h **** }
  16:/home/pong/FPGALink/makestuff/libs/libutpp/Checks.h **** 
  17:/home/pong/FPGALink/makestuff/libs/libutpp/Checks.h **** 
  18:/home/pong/FPGALink/makestuff/libs/libutpp/Checks.h **** template< typename Expected, typename Actual >
  19:/home/pong/FPGALink/makestuff/libs/libutpp/Checks.h **** void CheckEqual(TestResults& results, Expected const& expected, Actual const& actual, TestDetails c
 11508              		.loc 4 19 6
 11509              		.cfi_startproc
 11510              		.cfi_personality 0x9b,DW.ref.__gxx_personality_v0
 11511              		.cfi_lsda 0x1b,.LLSDA1222
 11512 0000 F30F1EFA 		endbr64
 11513 0004 55       		pushq	%rbp
 11514              		.cfi_def_cfa_offset 16
 11515              		.cfi_offset 6, -16
 11516 0005 4889E5   		movq	%rsp, %rbp
 11517              		.cfi_def_cfa_register 6
 11518 0008 53       		pushq	%rbx
 11519 0009 4881ECC8 		subq	$456, %rsp
 11519      010000
 11520              		.cfi_offset 3, -24
 11521 0010 4889BD48 		movq	%rdi, -440(%rbp)
 11521      FEFFFF
 11522 0017 4889B540 		movq	%rsi, -448(%rbp)
 11522      FEFFFF
 11523 001e 48899538 		movq	%rdx, -456(%rbp)
 11523      FEFFFF
 11524 0025 48898D30 		movq	%rcx, -464(%rbp)
 11524      FEFFFF
 11525              		.loc 4 19 6
 11526 002c 64488B04 		movq	%fs:40, %rax
 11526      25280000 
 11526      00
 11527 0035 488945E8 		movq	%rax, -24(%rbp)
 11528 0039 31C0     		xorl	%eax, %eax
 11529              	.LBB14:
  20:/home/pong/FPGALink/makestuff/libs/libutpp/Checks.h **** {
  21:/home/pong/FPGALink/makestuff/libs/libutpp/Checks.h ****     if (!(expected == actual))
 11530              		.loc 4 21 20
 11531 003b 488B8540 		movq	-448(%rbp), %rax
 11531      FEFFFF
 11532 0042 8B10     		movl	(%rax), %edx
 11533 0044 488B8538 		movq	-456(%rbp), %rax
 11533      FEFFFF
 11534 004b 8B00     		movl	(%rax), %eax
 11535              		.loc 4 21 5
 11536 004d 39C2     		cmpl	%eax, %edx
 11537 004f 0F84C600 		je	.L645
 11537      0000
 11538              	.LBB15:
  22:/home/pong/FPGALink/makestuff/libs/libutpp/Checks.h ****     {
  23:/home/pong/FPGALink/makestuff/libs/libutpp/Checks.h ****         UnitTest::MemoryOutStream stream;
 11539              		.loc 4 23 35
 11540 0055 488D8550 		leaq	-432(%rbp), %rax
 11540      FEFFFF
 11541 005c 4889C7   		movq	%rax, %rdi
 11542              	.LEHB528:
 11543 005f E8000000 		call	_ZN8UnitTest15MemoryOutStreamC1Ev
 11543      00
 11544              	.LEHE528:
  24:/home/pong/FPGALink/makestuff/libs/libutpp/Checks.h ****         stream << "Expected " << expected << " but was " << actual;
 11545              		.loc 4 24 16
 11546 0064 488D8550 		leaq	-432(%rbp), %rax
 11546      FEFFFF
 11547 006b 488D1500 		leaq	.LC59(%rip), %rdx
 11547      000000
 11548 0072 4889D6   		movq	%rdx, %rsi
 11549 0075 4889C7   		movq	%rax, %rdi
 11550              	.LEHB529:
 11551 0078 E8000000 		call	_ZStlsISt11char_traitsIcEERSt13basic_ostreamIcT_ES5_PKc@PLT
 11551      00
 11552 007d 4889C2   		movq	%rax, %rdx
 11553              		.loc 4 24 43
 11554 0080 488B8540 		movq	-448(%rbp), %rax
 11554      FEFFFF
 11555 0087 8B00     		movl	(%rax), %eax
 11556 0089 89C6     		movl	%eax, %esi
 11557 008b 4889D7   		movq	%rdx, %rdi
 11558 008e E8000000 		call	_ZNSolsEi@PLT
 11558      00
 11559              		.loc 4 24 43 is_stmt 0 discriminator 1
 11560 0093 4889C2   		movq	%rax, %rdx
 11561 0096 488D0500 		leaq	.LC60(%rip), %rax
 11561      000000
 11562 009d 4889C6   		movq	%rax, %rsi
 11563 00a0 4889D7   		movq	%rdx, %rdi
 11564 00a3 E8000000 		call	_ZStlsISt11char_traitsIcEERSt13basic_ostreamIcT_ES5_PKc@PLT
 11564      00
 11565              		.loc 4 24 43 discriminator 2
 11566 00a8 4889C2   		movq	%rax, %rdx
 11567              		.loc 4 24 58 is_stmt 1 discriminator 2
 11568 00ab 488B8538 		movq	-456(%rbp), %rax
 11568      FEFFFF
 11569 00b2 8B00     		movl	(%rax), %eax
 11570 00b4 89C6     		movl	%eax, %esi
 11571 00b6 4889D7   		movq	%rdx, %rdi
 11572 00b9 E8000000 		call	_ZNSolsEi@PLT
 11572      00
  25:/home/pong/FPGALink/makestuff/libs/libutpp/Checks.h **** 
  26:/home/pong/FPGALink/makestuff/libs/libutpp/Checks.h ****         results.OnTestFailure(details, stream.GetText());
 11573              		.loc 4 26 30
 11574 00be 488D8550 		leaq	-432(%rbp), %rax
 11574      FEFFFF
 11575 00c5 4889C7   		movq	%rax, %rdi
 11576 00c8 E8000000 		call	_ZNK8UnitTest15MemoryOutStream7GetTextEv@PLT
 11576      00
 11577 00cd 4889C2   		movq	%rax, %rdx
 11578 00d0 488B8D30 		movq	-464(%rbp), %rcx
 11578      FEFFFF
 11579 00d7 488B8548 		movq	-440(%rbp), %rax
 11579      FEFFFF
 11580 00de 4889CE   		movq	%rcx, %rsi
 11581 00e1 4889C7   		movq	%rax, %rdi
 11582 00e4 E8000000 		call	_ZN8UnitTest11TestResults13OnTestFailureERKNS_11TestDetailsEPKc@PLT
 11582      00
 11583              	.LEHE529:
  27:/home/pong/FPGALink/makestuff/libs/libutpp/Checks.h ****     }
 11584              		.loc 4 27 5
 11585 00e9 488D8550 		leaq	-432(%rbp), %rax
 11585      FEFFFF
 11586 00f0 4889C7   		movq	%rax, %rdi
 11587              	.LEHB530:
 11588 00f3 E8000000 		call	_ZN8UnitTest15MemoryOutStreamD1Ev
 11588      00
 11589              	.LEHE530:
 11590              	.LBE15:
 11591              	.LBE14:
  28:/home/pong/FPGALink/makestuff/libs/libutpp/Checks.h **** }
 11592              		.loc 4 28 1
 11593 00f8 EB21     		jmp	.L645
 11594              	.L644:
 11595 00fa F30F1EFA 		endbr64
 11596              	.LBB17:
 11597              	.LBB16:
  27:/home/pong/FPGALink/makestuff/libs/libutpp/Checks.h ****     }
 11598              		.loc 4 27 5
 11599 00fe 4889C3   		movq	%rax, %rbx
 11600 0101 488D8550 		leaq	-432(%rbp), %rax
 11600      FEFFFF
 11601 0108 4889C7   		movq	%rax, %rdi
 11602 010b E8000000 		call	_ZN8UnitTest15MemoryOutStreamD1Ev
 11602      00
 11603 0110 4889D8   		movq	%rbx, %rax
 11604 0113 4889C7   		movq	%rax, %rdi
 11605              	.LEHB531:
 11606 0116 E8000000 		call	_Unwind_Resume@PLT
 11606      00
 11607              	.LEHE531:
 11608              	.L645:
 11609              	.LBE16:
 11610              	.LBE17:
 11611              		.loc 4 28 1
 11612 011b 90       		nop
 11613 011c 488B45E8 		movq	-24(%rbp), %rax
 11614 0120 64482B04 		subq	%fs:40, %rax
 11614      25280000 
 11614      00
 11615 0129 7405     		je	.L643
 11616 012b E8000000 		call	__stack_chk_fail@PLT
 11616      00
 11617              	.L643:
 11618 0130 488B5DF8 		movq	-8(%rbp), %rbx
 11619 0134 C9       		leave
 11620              		.cfi_def_cfa 7, 8
 11621 0135 C3       		ret
 11622              		.cfi_endproc
 11623              	.LFE1222:
 11624              		.section	.gcc_except_table
 11625              	.LLSDA1222:
 11626 0b86 FF       		.byte	0xff
 11627 0b87 FF       		.byte	0xff
 11628 0b88 01       		.byte	0x1
 11629 0b89 13       		.uleb128 .LLSDACSE1222-.LLSDACSB1222
 11630              	.LLSDACSB1222:
 11631 0b8a 5F       		.uleb128 .LEHB528-.LFB1222
 11632 0b8b 05       		.uleb128 .LEHE528-.LEHB528
 11633 0b8c 00       		.uleb128 0
 11634 0b8d 00       		.uleb128 0
 11635 0b8e 78       		.uleb128 .LEHB529-.LFB1222
 11636 0b8f 71       		.uleb128 .LEHE529-.LEHB529
 11637 0b90 FA01     		.uleb128 .L644-.LFB1222
 11638 0b92 00       		.uleb128 0
 11639 0b93 F301     		.uleb128 .LEHB530-.LFB1222
 11640 0b95 05       		.uleb128 .LEHE530-.LEHB530
 11641 0b96 00       		.uleb128 0
 11642 0b97 00       		.uleb128 0
 11643 0b98 9602     		.uleb128 .LEHB531-.LFB1222
 11644 0b9a 05       		.uleb128 .LEHE531-.LEHB531
 11645 0b9b 00       		.uleb128 0
 11646 0b9c 00       		.uleb128 0
 11647              	.LLSDACSE1222:
 11648              		.section	.text._ZN8UnitTest10CheckEqualI9USBStatusS1_EEvRNS_11TestResultsERKT_RKT0_RKNS_11TestDeta
 11650              		.section	.text._ZN8UnitTest10CheckEqualImmEEvRNS_11TestResultsERKT_RKT0_RKNS_11TestDetailsE,"axG",
 11651              		.weak	_ZN8UnitTest10CheckEqualImmEEvRNS_11TestResultsERKT_RKT0_RKNS_11TestDetailsE
 11653              	_ZN8UnitTest10CheckEqualImmEEvRNS_11TestResultsERKT_RKT0_RKNS_11TestDetailsE:
 11654              	.LFB1227:
  19:/home/pong/FPGALink/makestuff/libs/libutpp/Checks.h **** {
 11655              		.loc 4 19 6
 11656              		.cfi_startproc
 11657              		.cfi_personality 0x9b,DW.ref.__gxx_personality_v0
 11658              		.cfi_lsda 0x1b,.LLSDA1227
 11659 0000 F30F1EFA 		endbr64
 11660 0004 55       		pushq	%rbp
 11661              		.cfi_def_cfa_offset 16
 11662              		.cfi_offset 6, -16
 11663 0005 4889E5   		movq	%rsp, %rbp
 11664              		.cfi_def_cfa_register 6
 11665 0008 53       		pushq	%rbx
 11666 0009 4881ECC8 		subq	$456, %rsp
 11666      010000
 11667              		.cfi_offset 3, -24
 11668 0010 4889BD48 		movq	%rdi, -440(%rbp)
 11668      FEFFFF
 11669 0017 4889B540 		movq	%rsi, -448(%rbp)
 11669      FEFFFF
 11670 001e 48899538 		movq	%rdx, -456(%rbp)
 11670      FEFFFF
 11671 0025 48898D30 		movq	%rcx, -464(%rbp)
 11671      FEFFFF
  19:/home/pong/FPGALink/makestuff/libs/libutpp/Checks.h **** {
 11672              		.loc 4 19 6
 11673 002c 64488B04 		movq	%fs:40, %rax
 11673      25280000 
 11673      00
 11674 0035 488945E8 		movq	%rax, -24(%rbp)
 11675 0039 31C0     		xorl	%eax, %eax
 11676              	.LBB18:
  21:/home/pong/FPGALink/makestuff/libs/libutpp/Checks.h ****     {
 11677              		.loc 4 21 20
 11678 003b 488B8540 		movq	-448(%rbp), %rax
 11678      FEFFFF
 11679 0042 488B10   		movq	(%rax), %rdx
 11680 0045 488B8538 		movq	-456(%rbp), %rax
 11680      FEFFFF
 11681 004c 488B00   		movq	(%rax), %rax
  21:/home/pong/FPGALink/makestuff/libs/libutpp/Checks.h ****     {
 11682              		.loc 4 21 5
 11683 004f 4839C2   		cmpq	%rax, %rdx
 11684 0052 0F84CA00 		je	.L651
 11684      0000
 11685              	.LBB19:
  23:/home/pong/FPGALink/makestuff/libs/libutpp/Checks.h ****         stream << "Expected " << expected << " but was " << actual;
 11686              		.loc 4 23 35
 11687 0058 488D8550 		leaq	-432(%rbp), %rax
 11687      FEFFFF
 11688 005f 4889C7   		movq	%rax, %rdi
 11689              	.LEHB532:
 11690 0062 E8000000 		call	_ZN8UnitTest15MemoryOutStreamC1Ev
 11690      00
 11691              	.LEHE532:
  24:/home/pong/FPGALink/makestuff/libs/libutpp/Checks.h **** 
 11692              		.loc 4 24 16
 11693 0067 488D8550 		leaq	-432(%rbp), %rax
 11693      FEFFFF
 11694 006e 488D1500 		leaq	.LC59(%rip), %rdx
 11694      000000
 11695 0075 4889D6   		movq	%rdx, %rsi
 11696 0078 4889C7   		movq	%rax, %rdi
 11697              	.LEHB533:
 11698 007b E8000000 		call	_ZStlsISt11char_traitsIcEERSt13basic_ostreamIcT_ES5_PKc@PLT
 11698      00
 11699 0080 4889C2   		movq	%rax, %rdx
  24:/home/pong/FPGALink/makestuff/libs/libutpp/Checks.h **** 
 11700              		.loc 4 24 31
 11701 0083 488B8540 		movq	-448(%rbp), %rax
 11701      FEFFFF
 11702 008a 488B00   		movq	(%rax), %rax
 11703 008d 4889C6   		movq	%rax, %rsi
 11704 0090 4889D7   		movq	%rdx, %rdi
 11705 0093 E8000000 		call	_ZNSolsEm@PLT
 11705      00
  24:/home/pong/FPGALink/makestuff/libs/libutpp/Checks.h **** 
 11706              		.loc 4 24 31 is_stmt 0 discriminator 1
 11707 0098 4889C2   		movq	%rax, %rdx
  24:/home/pong/FPGALink/makestuff/libs/libutpp/Checks.h **** 
 11708              		.loc 4 24 43 is_stmt 1 discriminator 1
 11709 009b 488D0500 		leaq	.LC60(%rip), %rax
 11709      000000
 11710 00a2 4889C6   		movq	%rax, %rsi
 11711 00a5 4889D7   		movq	%rdx, %rdi
 11712 00a8 E8000000 		call	_ZStlsISt11char_traitsIcEERSt13basic_ostreamIcT_ES5_PKc@PLT
 11712      00
  24:/home/pong/FPGALink/makestuff/libs/libutpp/Checks.h **** 
 11713              		.loc 4 24 43 is_stmt 0 discriminator 2
 11714 00ad 4889C2   		movq	%rax, %rdx
  24:/home/pong/FPGALink/makestuff/libs/libutpp/Checks.h **** 
 11715              		.loc 4 24 58 is_stmt 1 discriminator 2
 11716 00b0 488B8538 		movq	-456(%rbp), %rax
 11716      FEFFFF
 11717 00b7 488B00   		movq	(%rax), %rax
 11718 00ba 4889C6   		movq	%rax, %rsi
 11719 00bd 4889D7   		movq	%rdx, %rdi
 11720 00c0 E8000000 		call	_ZNSolsEm@PLT
 11720      00
  26:/home/pong/FPGALink/makestuff/libs/libutpp/Checks.h ****     }
 11721              		.loc 4 26 30
 11722 00c5 488D8550 		leaq	-432(%rbp), %rax
 11722      FEFFFF
 11723 00cc 4889C7   		movq	%rax, %rdi
 11724 00cf E8000000 		call	_ZNK8UnitTest15MemoryOutStream7GetTextEv@PLT
 11724      00
 11725 00d4 4889C2   		movq	%rax, %rdx
 11726 00d7 488B8D30 		movq	-464(%rbp), %rcx
 11726      FEFFFF
 11727 00de 488B8548 		movq	-440(%rbp), %rax
 11727      FEFFFF
 11728 00e5 4889CE   		movq	%rcx, %rsi
 11729 00e8 4889C7   		movq	%rax, %rdi
 11730 00eb E8000000 		call	_ZN8UnitTest11TestResults13OnTestFailureERKNS_11TestDetailsEPKc@PLT
 11730      00
 11731              	.LEHE533:
  27:/home/pong/FPGALink/makestuff/libs/libutpp/Checks.h **** }
 11732              		.loc 4 27 5
 11733 00f0 488D8550 		leaq	-432(%rbp), %rax
 11733      FEFFFF
 11734 00f7 4889C7   		movq	%rax, %rdi
 11735              	.LEHB534:
 11736 00fa E8000000 		call	_ZN8UnitTest15MemoryOutStreamD1Ev
 11736      00
 11737              	.LEHE534:
 11738              	.LBE19:
 11739              	.LBE18:
 11740              		.loc 4 28 1
 11741 00ff EB21     		jmp	.L651
 11742              	.L650:
 11743 0101 F30F1EFA 		endbr64
 11744              	.LBB21:
 11745              	.LBB20:
  27:/home/pong/FPGALink/makestuff/libs/libutpp/Checks.h **** }
 11746              		.loc 4 27 5
 11747 0105 4889C3   		movq	%rax, %rbx
 11748 0108 488D8550 		leaq	-432(%rbp), %rax
 11748      FEFFFF
 11749 010f 4889C7   		movq	%rax, %rdi
 11750 0112 E8000000 		call	_ZN8UnitTest15MemoryOutStreamD1Ev
 11750      00
 11751 0117 4889D8   		movq	%rbx, %rax
 11752 011a 4889C7   		movq	%rax, %rdi
 11753              	.LEHB535:
 11754 011d E8000000 		call	_Unwind_Resume@PLT
 11754      00
 11755              	.LEHE535:
 11756              	.L651:
 11757              	.LBE20:
 11758              	.LBE21:
 11759              		.loc 4 28 1
 11760 0122 90       		nop
 11761 0123 488B45E8 		movq	-24(%rbp), %rax
 11762 0127 64482B04 		subq	%fs:40, %rax
 11762      25280000 
 11762      00
 11763 0130 7405     		je	.L649
 11764 0132 E8000000 		call	__stack_chk_fail@PLT
 11764      00
 11765              	.L649:
 11766 0137 488B5DF8 		movq	-8(%rbp), %rbx
 11767 013b C9       		leave
 11768              		.cfi_def_cfa 7, 8
 11769 013c C3       		ret
 11770              		.cfi_endproc
 11771              	.LFE1227:
 11772              		.section	.gcc_except_table
 11773              	.LLSDA1227:
 11774 0b9d FF       		.byte	0xff
 11775 0b9e FF       		.byte	0xff
 11776 0b9f 01       		.byte	0x1
 11777 0ba0 13       		.uleb128 .LLSDACSE1227-.LLSDACSB1227
 11778              	.LLSDACSB1227:
 11779 0ba1 62       		.uleb128 .LEHB532-.LFB1227
 11780 0ba2 05       		.uleb128 .LEHE532-.LEHB532
 11781 0ba3 00       		.uleb128 0
 11782 0ba4 00       		.uleb128 0
 11783 0ba5 7B       		.uleb128 .LEHB533-.LFB1227
 11784 0ba6 75       		.uleb128 .LEHE533-.LEHB533
 11785 0ba7 8102     		.uleb128 .L650-.LFB1227
 11786 0ba9 00       		.uleb128 0
 11787 0baa FA01     		.uleb128 .LEHB534-.LFB1227
 11788 0bac 05       		.uleb128 .LEHE534-.LEHB534
 11789 0bad 00       		.uleb128 0
 11790 0bae 00       		.uleb128 0
 11791 0baf 9D02     		.uleb128 .LEHB535-.LFB1227
 11792 0bb1 05       		.uleb128 .LEHE535-.LEHB535
 11793 0bb2 00       		.uleb128 0
 11794 0bb3 00       		.uleb128 0
 11795              	.LLSDACSE1227:
 11796              		.section	.text._ZN8UnitTest10CheckEqualImmEEvRNS_11TestResultsERKT_RKT0_RKNS_11TestDetailsE,"axG",
 11798              		.section	.text._ZN8UnitTest10CheckEqualImjEEvRNS_11TestResultsERKT_RKT0_RKNS_11TestDetailsE,"axG",
 11799              		.weak	_ZN8UnitTest10CheckEqualImjEEvRNS_11TestResultsERKT_RKT0_RKNS_11TestDetailsE
 11801              	_ZN8UnitTest10CheckEqualImjEEvRNS_11TestResultsERKT_RKT0_RKNS_11TestDetailsE:
 11802              	.LFB1228:
  19:/home/pong/FPGALink/makestuff/libs/libutpp/Checks.h **** {
 11803              		.loc 4 19 6
 11804              		.cfi_startproc
 11805              		.cfi_personality 0x9b,DW.ref.__gxx_personality_v0
 11806              		.cfi_lsda 0x1b,.LLSDA1228
 11807 0000 F30F1EFA 		endbr64
 11808 0004 55       		pushq	%rbp
 11809              		.cfi_def_cfa_offset 16
 11810              		.cfi_offset 6, -16
 11811 0005 4889E5   		movq	%rsp, %rbp
 11812              		.cfi_def_cfa_register 6
 11813 0008 53       		pushq	%rbx
 11814 0009 4881ECC8 		subq	$456, %rsp
 11814      010000
 11815              		.cfi_offset 3, -24
 11816 0010 4889BD48 		movq	%rdi, -440(%rbp)
 11816      FEFFFF
 11817 0017 4889B540 		movq	%rsi, -448(%rbp)
 11817      FEFFFF
 11818 001e 48899538 		movq	%rdx, -456(%rbp)
 11818      FEFFFF
 11819 0025 48898D30 		movq	%rcx, -464(%rbp)
 11819      FEFFFF
  19:/home/pong/FPGALink/makestuff/libs/libutpp/Checks.h **** {
 11820              		.loc 4 19 6
 11821 002c 64488B04 		movq	%fs:40, %rax
 11821      25280000 
 11821      00
 11822 0035 488945E8 		movq	%rax, -24(%rbp)
 11823 0039 31C0     		xorl	%eax, %eax
 11824              	.LBB22:
  21:/home/pong/FPGALink/makestuff/libs/libutpp/Checks.h ****     {
 11825              		.loc 4 21 20
 11826 003b 488B8540 		movq	-448(%rbp), %rax
 11826      FEFFFF
 11827 0042 488B10   		movq	(%rax), %rdx
 11828 0045 488B8538 		movq	-456(%rbp), %rax
 11828      FEFFFF
 11829 004c 8B00     		movl	(%rax), %eax
 11830 004e 89C0     		movl	%eax, %eax
  21:/home/pong/FPGALink/makestuff/libs/libutpp/Checks.h ****     {
 11831              		.loc 4 21 5
 11832 0050 4839C2   		cmpq	%rax, %rdx
 11833 0053 0F84C800 		je	.L657
 11833      0000
 11834              	.LBB23:
  23:/home/pong/FPGALink/makestuff/libs/libutpp/Checks.h ****         stream << "Expected " << expected << " but was " << actual;
 11835              		.loc 4 23 35
 11836 0059 488D8550 		leaq	-432(%rbp), %rax
 11836      FEFFFF
 11837 0060 4889C7   		movq	%rax, %rdi
 11838              	.LEHB536:
 11839 0063 E8000000 		call	_ZN8UnitTest15MemoryOutStreamC1Ev
 11839      00
 11840              	.LEHE536:
  24:/home/pong/FPGALink/makestuff/libs/libutpp/Checks.h **** 
 11841              		.loc 4 24 16
 11842 0068 488D8550 		leaq	-432(%rbp), %rax
 11842      FEFFFF
 11843 006f 488D1500 		leaq	.LC59(%rip), %rdx
 11843      000000
 11844 0076 4889D6   		movq	%rdx, %rsi
 11845 0079 4889C7   		movq	%rax, %rdi
 11846              	.LEHB537:
 11847 007c E8000000 		call	_ZStlsISt11char_traitsIcEERSt13basic_ostreamIcT_ES5_PKc@PLT
 11847      00
 11848 0081 4889C2   		movq	%rax, %rdx
  24:/home/pong/FPGALink/makestuff/libs/libutpp/Checks.h **** 
 11849              		.loc 4 24 31
 11850 0084 488B8540 		movq	-448(%rbp), %rax
 11850      FEFFFF
 11851 008b 488B00   		movq	(%rax), %rax
 11852 008e 4889C6   		movq	%rax, %rsi
 11853 0091 4889D7   		movq	%rdx, %rdi
 11854 0094 E8000000 		call	_ZNSolsEm@PLT
 11854      00
  24:/home/pong/FPGALink/makestuff/libs/libutpp/Checks.h **** 
 11855              		.loc 4 24 31 is_stmt 0 discriminator 1
 11856 0099 4889C2   		movq	%rax, %rdx
  24:/home/pong/FPGALink/makestuff/libs/libutpp/Checks.h **** 
 11857              		.loc 4 24 43 is_stmt 1 discriminator 1
 11858 009c 488D0500 		leaq	.LC60(%rip), %rax
 11858      000000
 11859 00a3 4889C6   		movq	%rax, %rsi
 11860 00a6 4889D7   		movq	%rdx, %rdi
 11861 00a9 E8000000 		call	_ZStlsISt11char_traitsIcEERSt13basic_ostreamIcT_ES5_PKc@PLT
 11861      00
  24:/home/pong/FPGALink/makestuff/libs/libutpp/Checks.h **** 
 11862              		.loc 4 24 43 is_stmt 0 discriminator 2
 11863 00ae 4889C2   		movq	%rax, %rdx
  24:/home/pong/FPGALink/makestuff/libs/libutpp/Checks.h **** 
 11864              		.loc 4 24 58 is_stmt 1 discriminator 2
 11865 00b1 488B8538 		movq	-456(%rbp), %rax
 11865      FEFFFF
 11866 00b8 8B00     		movl	(%rax), %eax
 11867 00ba 89C6     		movl	%eax, %esi
 11868 00bc 4889D7   		movq	%rdx, %rdi
 11869 00bf E8000000 		call	_ZNSolsEj@PLT
 11869      00
  26:/home/pong/FPGALink/makestuff/libs/libutpp/Checks.h ****     }
 11870              		.loc 4 26 30
 11871 00c4 488D8550 		leaq	-432(%rbp), %rax
 11871      FEFFFF
 11872 00cb 4889C7   		movq	%rax, %rdi
 11873 00ce E8000000 		call	_ZNK8UnitTest15MemoryOutStream7GetTextEv@PLT
 11873      00
 11874 00d3 4889C2   		movq	%rax, %rdx
 11875 00d6 488B8D30 		movq	-464(%rbp), %rcx
 11875      FEFFFF
 11876 00dd 488B8548 		movq	-440(%rbp), %rax
 11876      FEFFFF
 11877 00e4 4889CE   		movq	%rcx, %rsi
 11878 00e7 4889C7   		movq	%rax, %rdi
 11879 00ea E8000000 		call	_ZN8UnitTest11TestResults13OnTestFailureERKNS_11TestDetailsEPKc@PLT
 11879      00
 11880              	.LEHE537:
  27:/home/pong/FPGALink/makestuff/libs/libutpp/Checks.h **** }
 11881              		.loc 4 27 5
 11882 00ef 488D8550 		leaq	-432(%rbp), %rax
 11882      FEFFFF
 11883 00f6 4889C7   		movq	%rax, %rdi
 11884              	.LEHB538:
 11885 00f9 E8000000 		call	_ZN8UnitTest15MemoryOutStreamD1Ev
 11885      00
 11886              	.LEHE538:
 11887              	.LBE23:
 11888              	.LBE22:
 11889              		.loc 4 28 1
 11890 00fe EB21     		jmp	.L657
 11891              	.L656:
 11892 0100 F30F1EFA 		endbr64
 11893              	.LBB25:
 11894              	.LBB24:
  27:/home/pong/FPGALink/makestuff/libs/libutpp/Checks.h **** }
 11895              		.loc 4 27 5
 11896 0104 4889C3   		movq	%rax, %rbx
 11897 0107 488D8550 		leaq	-432(%rbp), %rax
 11897      FEFFFF
 11898 010e 4889C7   		movq	%rax, %rdi
 11899 0111 E8000000 		call	_ZN8UnitTest15MemoryOutStreamD1Ev
 11899      00
 11900 0116 4889D8   		movq	%rbx, %rax
 11901 0119 4889C7   		movq	%rax, %rdi
 11902              	.LEHB539:
 11903 011c E8000000 		call	_Unwind_Resume@PLT
 11903      00
 11904              	.LEHE539:
 11905              	.L657:
 11906              	.LBE24:
 11907              	.LBE25:
 11908              		.loc 4 28 1
 11909 0121 90       		nop
 11910 0122 488B45E8 		movq	-24(%rbp), %rax
 11911 0126 64482B04 		subq	%fs:40, %rax
 11911      25280000 
 11911      00
 11912 012f 7405     		je	.L655
 11913 0131 E8000000 		call	__stack_chk_fail@PLT
 11913      00
 11914              	.L655:
 11915 0136 488B5DF8 		movq	-8(%rbp), %rbx
 11916 013a C9       		leave
 11917              		.cfi_def_cfa 7, 8
 11918 013b C3       		ret
 11919              		.cfi_endproc
 11920              	.LFE1228:
 11921              		.section	.gcc_except_table
 11922              	.LLSDA1228:
 11923 0bb4 FF       		.byte	0xff
 11924 0bb5 FF       		.byte	0xff
 11925 0bb6 01       		.byte	0x1
 11926 0bb7 13       		.uleb128 .LLSDACSE1228-.LLSDACSB1228
 11927              	.LLSDACSB1228:
 11928 0bb8 63       		.uleb128 .LEHB536-.LFB1228
 11929 0bb9 05       		.uleb128 .LEHE536-.LEHB536
 11930 0bba 00       		.uleb128 0
 11931 0bbb 00       		.uleb128 0
 11932 0bbc 7C       		.uleb128 .LEHB537-.LFB1228
 11933 0bbd 73       		.uleb128 .LEHE537-.LEHB537
 11934 0bbe 8002     		.uleb128 .L656-.LFB1228
 11935 0bc0 00       		.uleb128 0
 11936 0bc1 F901     		.uleb128 .LEHB538-.LFB1228
 11937 0bc3 05       		.uleb128 .LEHE538-.LEHB538
 11938 0bc4 00       		.uleb128 0
 11939 0bc5 00       		.uleb128 0
 11940 0bc6 9C02     		.uleb128 .LEHB539-.LFB1228
 11941 0bc8 05       		.uleb128 .LEHE539-.LEHB539
 11942 0bc9 00       		.uleb128 0
 11943 0bca 00       		.uleb128 0
 11944              	.LLSDACSE1228:
 11945              		.section	.text._ZN8UnitTest10CheckEqualImjEEvRNS_11TestResultsERKT_RKT0_RKNS_11TestDetailsE,"axG",
 11947              		.section	.text._ZN8UnitTest10CheckEqualIiiEEvRNS_11TestResultsERKT_RKT0_RKNS_11TestDetailsE,"axG",
 11948              		.weak	_ZN8UnitTest10CheckEqualIiiEEvRNS_11TestResultsERKT_RKT0_RKNS_11TestDetailsE
 11950              	_ZN8UnitTest10CheckEqualIiiEEvRNS_11TestResultsERKT_RKT0_RKNS_11TestDetailsE:
 11951              	.LFB1229:
  19:/home/pong/FPGALink/makestuff/libs/libutpp/Checks.h **** {
 11952              		.loc 4 19 6
 11953              		.cfi_startproc
 11954              		.cfi_personality 0x9b,DW.ref.__gxx_personality_v0
 11955              		.cfi_lsda 0x1b,.LLSDA1229
 11956 0000 F30F1EFA 		endbr64
 11957 0004 55       		pushq	%rbp
 11958              		.cfi_def_cfa_offset 16
 11959              		.cfi_offset 6, -16
 11960 0005 4889E5   		movq	%rsp, %rbp
 11961              		.cfi_def_cfa_register 6
 11962 0008 53       		pushq	%rbx
 11963 0009 4881ECC8 		subq	$456, %rsp
 11963      010000
 11964              		.cfi_offset 3, -24
 11965 0010 4889BD48 		movq	%rdi, -440(%rbp)
 11965      FEFFFF
 11966 0017 4889B540 		movq	%rsi, -448(%rbp)
 11966      FEFFFF
 11967 001e 48899538 		movq	%rdx, -456(%rbp)
 11967      FEFFFF
 11968 0025 48898D30 		movq	%rcx, -464(%rbp)
 11968      FEFFFF
  19:/home/pong/FPGALink/makestuff/libs/libutpp/Checks.h **** {
 11969              		.loc 4 19 6
 11970 002c 64488B04 		movq	%fs:40, %rax
 11970      25280000 
 11970      00
 11971 0035 488945E8 		movq	%rax, -24(%rbp)
 11972 0039 31C0     		xorl	%eax, %eax
 11973              	.LBB26:
  21:/home/pong/FPGALink/makestuff/libs/libutpp/Checks.h ****     {
 11974              		.loc 4 21 20
 11975 003b 488B8540 		movq	-448(%rbp), %rax
 11975      FEFFFF
 11976 0042 8B10     		movl	(%rax), %edx
 11977 0044 488B8538 		movq	-456(%rbp), %rax
 11977      FEFFFF
 11978 004b 8B00     		movl	(%rax), %eax
  21:/home/pong/FPGALink/makestuff/libs/libutpp/Checks.h ****     {
 11979              		.loc 4 21 5
 11980 004d 39C2     		cmpl	%eax, %edx
 11981 004f 0F84C600 		je	.L663
 11981      0000
 11982              	.LBB27:
  23:/home/pong/FPGALink/makestuff/libs/libutpp/Checks.h ****         stream << "Expected " << expected << " but was " << actual;
 11983              		.loc 4 23 35
 11984 0055 488D8550 		leaq	-432(%rbp), %rax
 11984      FEFFFF
 11985 005c 4889C7   		movq	%rax, %rdi
 11986              	.LEHB540:
 11987 005f E8000000 		call	_ZN8UnitTest15MemoryOutStreamC1Ev
 11987      00
 11988              	.LEHE540:
  24:/home/pong/FPGALink/makestuff/libs/libutpp/Checks.h **** 
 11989              		.loc 4 24 16
 11990 0064 488D8550 		leaq	-432(%rbp), %rax
 11990      FEFFFF
 11991 006b 488D1500 		leaq	.LC59(%rip), %rdx
 11991      000000
 11992 0072 4889D6   		movq	%rdx, %rsi
 11993 0075 4889C7   		movq	%rax, %rdi
 11994              	.LEHB541:
 11995 0078 E8000000 		call	_ZStlsISt11char_traitsIcEERSt13basic_ostreamIcT_ES5_PKc@PLT
 11995      00
 11996 007d 4889C2   		movq	%rax, %rdx
  24:/home/pong/FPGALink/makestuff/libs/libutpp/Checks.h **** 
 11997              		.loc 4 24 43
 11998 0080 488B8540 		movq	-448(%rbp), %rax
 11998      FEFFFF
 11999 0087 8B00     		movl	(%rax), %eax
 12000 0089 89C6     		movl	%eax, %esi
 12001 008b 4889D7   		movq	%rdx, %rdi
 12002 008e E8000000 		call	_ZNSolsEi@PLT
 12002      00
  24:/home/pong/FPGALink/makestuff/libs/libutpp/Checks.h **** 
 12003              		.loc 4 24 43 is_stmt 0 discriminator 1
 12004 0093 4889C2   		movq	%rax, %rdx
 12005 0096 488D0500 		leaq	.LC60(%rip), %rax
 12005      000000
 12006 009d 4889C6   		movq	%rax, %rsi
 12007 00a0 4889D7   		movq	%rdx, %rdi
 12008 00a3 E8000000 		call	_ZStlsISt11char_traitsIcEERSt13basic_ostreamIcT_ES5_PKc@PLT
 12008      00
  24:/home/pong/FPGALink/makestuff/libs/libutpp/Checks.h **** 
 12009              		.loc 4 24 43 discriminator 2
 12010 00a8 4889C2   		movq	%rax, %rdx
  24:/home/pong/FPGALink/makestuff/libs/libutpp/Checks.h **** 
 12011              		.loc 4 24 58 is_stmt 1 discriminator 2
 12012 00ab 488B8538 		movq	-456(%rbp), %rax
 12012      FEFFFF
 12013 00b2 8B00     		movl	(%rax), %eax
 12014 00b4 89C6     		movl	%eax, %esi
 12015 00b6 4889D7   		movq	%rdx, %rdi
 12016 00b9 E8000000 		call	_ZNSolsEi@PLT
 12016      00
  26:/home/pong/FPGALink/makestuff/libs/libutpp/Checks.h ****     }
 12017              		.loc 4 26 30
 12018 00be 488D8550 		leaq	-432(%rbp), %rax
 12018      FEFFFF
 12019 00c5 4889C7   		movq	%rax, %rdi
 12020 00c8 E8000000 		call	_ZNK8UnitTest15MemoryOutStream7GetTextEv@PLT
 12020      00
 12021 00cd 4889C2   		movq	%rax, %rdx
 12022 00d0 488B8D30 		movq	-464(%rbp), %rcx
 12022      FEFFFF
 12023 00d7 488B8548 		movq	-440(%rbp), %rax
 12023      FEFFFF
 12024 00de 4889CE   		movq	%rcx, %rsi
 12025 00e1 4889C7   		movq	%rax, %rdi
 12026 00e4 E8000000 		call	_ZN8UnitTest11TestResults13OnTestFailureERKNS_11TestDetailsEPKc@PLT
 12026      00
 12027              	.LEHE541:
  27:/home/pong/FPGALink/makestuff/libs/libutpp/Checks.h **** }
 12028              		.loc 4 27 5
 12029 00e9 488D8550 		leaq	-432(%rbp), %rax
 12029      FEFFFF
 12030 00f0 4889C7   		movq	%rax, %rdi
 12031              	.LEHB542:
 12032 00f3 E8000000 		call	_ZN8UnitTest15MemoryOutStreamD1Ev
 12032      00
 12033              	.LEHE542:
 12034              	.LBE27:
 12035              	.LBE26:
 12036              		.loc 4 28 1
 12037 00f8 EB21     		jmp	.L663
 12038              	.L662:
 12039 00fa F30F1EFA 		endbr64
 12040              	.LBB29:
 12041              	.LBB28:
  27:/home/pong/FPGALink/makestuff/libs/libutpp/Checks.h **** }
 12042              		.loc 4 27 5
 12043 00fe 4889C3   		movq	%rax, %rbx
 12044 0101 488D8550 		leaq	-432(%rbp), %rax
 12044      FEFFFF
 12045 0108 4889C7   		movq	%rax, %rdi
 12046 010b E8000000 		call	_ZN8UnitTest15MemoryOutStreamD1Ev
 12046      00
 12047 0110 4889D8   		movq	%rbx, %rax
 12048 0113 4889C7   		movq	%rax, %rdi
 12049              	.LEHB543:
 12050 0116 E8000000 		call	_Unwind_Resume@PLT
 12050      00
 12051              	.LEHE543:
 12052              	.L663:
 12053              	.LBE28:
 12054              	.LBE29:
 12055              		.loc 4 28 1
 12056 011b 90       		nop
 12057 011c 488B45E8 		movq	-24(%rbp), %rax
 12058 0120 64482B04 		subq	%fs:40, %rax
 12058      25280000 
 12058      00
 12059 0129 7405     		je	.L661
 12060 012b E8000000 		call	__stack_chk_fail@PLT
 12060      00
 12061              	.L661:
 12062 0130 488B5DF8 		movq	-8(%rbp), %rbx
 12063 0134 C9       		leave
 12064              		.cfi_def_cfa 7, 8
 12065 0135 C3       		ret
 12066              		.cfi_endproc
 12067              	.LFE1229:
 12068              		.section	.gcc_except_table
 12069              	.LLSDA1229:
 12070 0bcb FF       		.byte	0xff
 12071 0bcc FF       		.byte	0xff
 12072 0bcd 01       		.byte	0x1
 12073 0bce 13       		.uleb128 .LLSDACSE1229-.LLSDACSB1229
 12074              	.LLSDACSB1229:
 12075 0bcf 5F       		.uleb128 .LEHB540-.LFB1229
 12076 0bd0 05       		.uleb128 .LEHE540-.LEHB540
 12077 0bd1 00       		.uleb128 0
 12078 0bd2 00       		.uleb128 0
 12079 0bd3 78       		.uleb128 .LEHB541-.LFB1229
 12080 0bd4 71       		.uleb128 .LEHE541-.LEHB541
 12081 0bd5 FA01     		.uleb128 .L662-.LFB1229
 12082 0bd7 00       		.uleb128 0
 12083 0bd8 F301     		.uleb128 .LEHB542-.LFB1229
 12084 0bda 05       		.uleb128 .LEHE542-.LEHB542
 12085 0bdb 00       		.uleb128 0
 12086 0bdc 00       		.uleb128 0
 12087 0bdd 9602     		.uleb128 .LEHB543-.LFB1229
 12088 0bdf 05       		.uleb128 .LEHE543-.LEHB543
 12089 0be0 00       		.uleb128 0
 12090 0be1 00       		.uleb128 0
 12091              	.LLSDACSE1229:
 12092              		.section	.text._ZN8UnitTest10CheckEqualIiiEEvRNS_11TestResultsERKT_RKT0_RKNS_11TestDetailsE,"axG",
 12094              		.weak	_ZTV31TestQueue_testAllocFreeMatching
 12095              		.section	.data.rel.ro.local._ZTV31TestQueue_testAllocFreeMatching,"awG",@progbits,_ZTV31TestQueue_
 12096              		.align 8
 12099              	_ZTV31TestQueue_testAllocFreeMatching:
 12100 0000 00000000 		.quad	0
 12100      00000000 
 12101 0008 00000000 		.quad	_ZTI31TestQueue_testAllocFreeMatching
 12101      00000000 
 12102 0010 00000000 		.quad	_ZN31TestQueue_testAllocFreeMatchingD1Ev
 12102      00000000 
 12103 0018 00000000 		.quad	_ZN31TestQueue_testAllocFreeMatchingD0Ev
 12103      00000000 
 12104 0020 00000000 		.quad	_ZNK31TestQueue_testAllocFreeMatching7RunImplEv
 12104      00000000 
 12105              		.section	.text._ZN31TestQueue_testAllocFreeMatchingD2Ev,"axG",@progbits,_ZN31TestQueue_testAllocFr
 12106              		.align 2
 12107              		.weak	_ZN31TestQueue_testAllocFreeMatchingD2Ev
 12109              	_ZN31TestQueue_testAllocFreeMatchingD2Ev:
 12110              	.LFB1285:
 384:testCore.cpp  **** 	CHECK_EQUAL(0, m_allocFree);
 12111              		.loc 3 384 1
 12112              		.cfi_startproc
 12113 0000 F30F1EFA 		endbr64
 12114 0004 55       		pushq	%rbp
 12115              		.cfi_def_cfa_offset 16
 12116              		.cfi_offset 6, -16
 12117 0005 4889E5   		movq	%rsp, %rbp
 12118              		.cfi_def_cfa_register 6
 12119 0008 4883EC10 		subq	$16, %rsp
 12120 000c 48897DF8 		movq	%rdi, -8(%rbp)
 12121              	.LBB30:
 384:testCore.cpp  **** 	CHECK_EQUAL(0, m_allocFree);
 12122              		.loc 3 384 1
 12123 0010 488D1500 		leaq	16+_ZTV31TestQueue_testAllocFreeMatching(%rip), %rdx
 12123      000000
 12124 0017 488B45F8 		movq	-8(%rbp), %rax
 12125 001b 488910   		movq	%rdx, (%rax)
 12126 001e 488B45F8 		movq	-8(%rbp), %rax
 12127 0022 4889C7   		movq	%rax, %rdi
 12128 0025 E8000000 		call	_ZN8UnitTest4TestD2Ev@PLT
 12128      00
 12129              	.LBE30:
 12130 002a 90       		nop
 12131 002b C9       		leave
 12132              		.cfi_def_cfa 7, 8
 12133 002c C3       		ret
 12134              		.cfi_endproc
 12135              	.LFE1285:
 12137              		.weak	_ZN31TestQueue_testAllocFreeMatchingD1Ev
 12138              		.set	_ZN31TestQueue_testAllocFreeMatchingD1Ev,_ZN31TestQueue_testAllocFreeMatchingD2Ev
 12139              		.section	.text._ZN31TestQueue_testAllocFreeMatchingD0Ev,"axG",@progbits,_ZN31TestQueue_testAllocFr
 12140              		.align 2
 12141              		.weak	_ZN31TestQueue_testAllocFreeMatchingD0Ev
 12143              	_ZN31TestQueue_testAllocFreeMatchingD0Ev:
 12144              	.LFB1287:
 384:testCore.cpp  **** 	CHECK_EQUAL(0, m_allocFree);
 12145              		.loc 3 384 1
 12146              		.cfi_startproc
 12147              		.cfi_personality 0x9b,DW.ref.__gxx_personality_v0
 12148              		.cfi_lsda 0x1b,.LLSDA1287
 12149 0000 F30F1EFA 		endbr64
 12150 0004 55       		pushq	%rbp
 12151              		.cfi_def_cfa_offset 16
 12152              		.cfi_offset 6, -16
 12153 0005 4889E5   		movq	%rsp, %rbp
 12154              		.cfi_def_cfa_register 6
 12155 0008 53       		pushq	%rbx
 12156 0009 4883EC18 		subq	$24, %rsp
 12157              		.cfi_offset 3, -24
 12158 000d 48897DE8 		movq	%rdi, -24(%rbp)
 384:testCore.cpp  **** 	CHECK_EQUAL(0, m_allocFree);
 12159              		.loc 3 384 1
 12160 0011 488B45E8 		movq	-24(%rbp), %rax
 12161 0015 4889C7   		movq	%rax, %rdi
 12162              	.LEHB544:
 12163 0018 E8000000 		call	_ZN31TestQueue_testAllocFreeMatchingD1Ev
 12163      00
 12164              	.LEHE544:
 384:testCore.cpp  **** 	CHECK_EQUAL(0, m_allocFree);
 12165              		.loc 3 384 1 is_stmt 0 discriminator 2
 12166 001d 488B45E8 		movq	-24(%rbp), %rax
 12167 0021 4889C7   		movq	%rax, %rdi
 12168 0024 E8000000 		call	_ZdlPv@PLT
 12168      00
 12169 0029 EB1E     		jmp	.L668
 12170              	.L667:
 12171 002b F30F1EFA 		endbr64
 384:testCore.cpp  **** 	CHECK_EQUAL(0, m_allocFree);
 12172              		.loc 3 384 1
 12173 002f 4889C3   		movq	%rax, %rbx
 12174 0032 488B45E8 		movq	-24(%rbp), %rax
 12175 0036 4889C7   		movq	%rax, %rdi
 12176 0039 E8000000 		call	_ZdlPv@PLT
 12176      00
 12177 003e 4889D8   		movq	%rbx, %rax
 12178 0041 4889C7   		movq	%rax, %rdi
 12179              	.LEHB545:
 12180 0044 E8000000 		call	_Unwind_Resume@PLT
 12180      00
 12181              	.LEHE545:
 12182              	.L668:
 12183 0049 488B5DF8 		movq	-8(%rbp), %rbx
 12184 004d C9       		leave
 12185              		.cfi_def_cfa 7, 8
 12186 004e C3       		ret
 12187              		.cfi_endproc
 12188              	.LFE1287:
 12189              		.section	.gcc_except_table
 12190              	.LLSDA1287:
 12191 0be2 FF       		.byte	0xff
 12192 0be3 FF       		.byte	0xff
 12193 0be4 01       		.byte	0x1
 12194 0be5 08       		.uleb128 .LLSDACSE1287-.LLSDACSB1287
 12195              	.LLSDACSB1287:
 12196 0be6 18       		.uleb128 .LEHB544-.LFB1287
 12197 0be7 05       		.uleb128 .LEHE544-.LEHB544
 12198 0be8 2B       		.uleb128 .L667-.LFB1287
 12199 0be9 00       		.uleb128 0
 12200 0bea 44       		.uleb128 .LEHB545-.LFB1287
 12201 0beb 05       		.uleb128 .LEHE545-.LEHB545
 12202 0bec 00       		.uleb128 0
 12203 0bed 00       		.uleb128 0
 12204              	.LLSDACSE1287:
 12205              		.section	.text._ZN31TestQueue_testAllocFreeMatchingD0Ev,"axG",@progbits,_ZN31TestQueue_testAllocFr
 12207              		.weak	_ZTV24TestQueue_testReallocOOM
 12208              		.section	.data.rel.ro.local._ZTV24TestQueue_testReallocOOM,"awG",@progbits,_ZTV24TestQueue_testRea
 12209              		.align 8
 12212              	_ZTV24TestQueue_testReallocOOM:
 12213 0000 00000000 		.quad	0
 12213      00000000 
 12214 0008 00000000 		.quad	_ZTI24TestQueue_testReallocOOM
 12214      00000000 
 12215 0010 00000000 		.quad	_ZN24TestQueue_testReallocOOMD1Ev
 12215      00000000 
 12216 0018 00000000 		.quad	_ZN24TestQueue_testReallocOOMD0Ev
 12216      00000000 
 12217 0020 00000000 		.quad	_ZNK24TestQueue_testReallocOOM7RunImplEv
 12217      00000000 
 12218              		.section	.text._ZN24TestQueue_testReallocOOMD2Ev,"axG",@progbits,_ZN24TestQueue_testReallocOOMD5Ev
 12219              		.align 2
 12220              		.weak	_ZN24TestQueue_testReallocOOMD2Ev
 12222              	_ZN24TestQueue_testReallocOOMD2Ev:
 12223              	.LFB1289:
 342:testCore.cpp  **** 	struct UnboundedQueue queue;
 12224              		.loc 3 342 1 is_stmt 1
 12225              		.cfi_startproc
 12226 0000 F30F1EFA 		endbr64
 12227 0004 55       		pushq	%rbp
 12228              		.cfi_def_cfa_offset 16
 12229              		.cfi_offset 6, -16
 12230 0005 4889E5   		movq	%rsp, %rbp
 12231              		.cfi_def_cfa_register 6
 12232 0008 4883EC10 		subq	$16, %rsp
 12233 000c 48897DF8 		movq	%rdi, -8(%rbp)
 12234              	.LBB31:
 342:testCore.cpp  **** 	struct UnboundedQueue queue;
 12235              		.loc 3 342 1
 12236 0010 488D1500 		leaq	16+_ZTV24TestQueue_testReallocOOM(%rip), %rdx
 12236      000000
 12237 0017 488B45F8 		movq	-8(%rbp), %rax
 12238 001b 488910   		movq	%rdx, (%rax)
 12239 001e 488B45F8 		movq	-8(%rbp), %rax
 12240 0022 4889C7   		movq	%rax, %rdi
 12241 0025 E8000000 		call	_ZN8UnitTest4TestD2Ev@PLT
 12241      00
 12242              	.LBE31:
 12243 002a 90       		nop
 12244 002b C9       		leave
 12245              		.cfi_def_cfa 7, 8
 12246 002c C3       		ret
 12247              		.cfi_endproc
 12248              	.LFE1289:
 12250              		.weak	_ZN24TestQueue_testReallocOOMD1Ev
 12251              		.set	_ZN24TestQueue_testReallocOOMD1Ev,_ZN24TestQueue_testReallocOOMD2Ev
 12252              		.section	.text._ZN24TestQueue_testReallocOOMD0Ev,"axG",@progbits,_ZN24TestQueue_testReallocOOMD5Ev
 12253              		.align 2
 12254              		.weak	_ZN24TestQueue_testReallocOOMD0Ev
 12256              	_ZN24TestQueue_testReallocOOMD0Ev:
 12257              	.LFB1291:
 342:testCore.cpp  **** 	struct UnboundedQueue queue;
 12258              		.loc 3 342 1
 12259              		.cfi_startproc
 12260              		.cfi_personality 0x9b,DW.ref.__gxx_personality_v0
 12261              		.cfi_lsda 0x1b,.LLSDA1291
 12262 0000 F30F1EFA 		endbr64
 12263 0004 55       		pushq	%rbp
 12264              		.cfi_def_cfa_offset 16
 12265              		.cfi_offset 6, -16
 12266 0005 4889E5   		movq	%rsp, %rbp
 12267              		.cfi_def_cfa_register 6
 12268 0008 53       		pushq	%rbx
 12269 0009 4883EC18 		subq	$24, %rsp
 12270              		.cfi_offset 3, -24
 12271 000d 48897DE8 		movq	%rdi, -24(%rbp)
 342:testCore.cpp  **** 	struct UnboundedQueue queue;
 12272              		.loc 3 342 1
 12273 0011 488B45E8 		movq	-24(%rbp), %rax
 12274 0015 4889C7   		movq	%rax, %rdi
 12275              	.LEHB546:
 12276 0018 E8000000 		call	_ZN24TestQueue_testReallocOOMD1Ev
 12276      00
 12277              	.LEHE546:
 342:testCore.cpp  **** 	struct UnboundedQueue queue;
 12278              		.loc 3 342 1 is_stmt 0 discriminator 2
 12279 001d 488B45E8 		movq	-24(%rbp), %rax
 12280 0021 4889C7   		movq	%rax, %rdi
 12281 0024 E8000000 		call	_ZdlPv@PLT
 12281      00
 12282 0029 EB1E     		jmp	.L673
 12283              	.L672:
 12284 002b F30F1EFA 		endbr64
 342:testCore.cpp  **** 	struct UnboundedQueue queue;
 12285              		.loc 3 342 1
 12286 002f 4889C3   		movq	%rax, %rbx
 12287 0032 488B45E8 		movq	-24(%rbp), %rax
 12288 0036 4889C7   		movq	%rax, %rdi
 12289 0039 E8000000 		call	_ZdlPv@PLT
 12289      00
 12290 003e 4889D8   		movq	%rbx, %rax
 12291 0041 4889C7   		movq	%rax, %rdi
 12292              	.LEHB547:
 12293 0044 E8000000 		call	_Unwind_Resume@PLT
 12293      00
 12294              	.LEHE547:
 12295              	.L673:
 12296 0049 488B5DF8 		movq	-8(%rbp), %rbx
 12297 004d C9       		leave
 12298              		.cfi_def_cfa 7, 8
 12299 004e C3       		ret
 12300              		.cfi_endproc
 12301              	.LFE1291:
 12302              		.section	.gcc_except_table
 12303              	.LLSDA1291:
 12304 0bee FF       		.byte	0xff
 12305 0bef FF       		.byte	0xff
 12306 0bf0 01       		.byte	0x1
 12307 0bf1 08       		.uleb128 .LLSDACSE1291-.LLSDACSB1291
 12308              	.LLSDACSB1291:
 12309 0bf2 18       		.uleb128 .LEHB546-.LFB1291
 12310 0bf3 05       		.uleb128 .LEHE546-.LEHB546
 12311 0bf4 2B       		.uleb128 .L672-.LFB1291
 12312 0bf5 00       		.uleb128 0
 12313 0bf6 44       		.uleb128 .LEHB547-.LFB1291
 12314 0bf7 05       		.uleb128 .LEHE547-.LEHB547
 12315 0bf8 00       		.uleb128 0
 12316 0bf9 00       		.uleb128 0
 12317              	.LLSDACSE1291:
 12318              		.section	.text._ZN24TestQueue_testReallocOOMD0Ev,"axG",@progbits,_ZN24TestQueue_testReallocOOMD5Ev
 12320              		.weak	_ZTV22TestQueue_testAllocOOM
 12321              		.section	.data.rel.ro.local._ZTV22TestQueue_testAllocOOM,"awG",@progbits,_ZTV22TestQueue_testAlloc
 12322              		.align 8
 12325              	_ZTV22TestQueue_testAllocOOM:
 12326 0000 00000000 		.quad	0
 12326      00000000 
 12327 0008 00000000 		.quad	_ZTI22TestQueue_testAllocOOM
 12327      00000000 
 12328 0010 00000000 		.quad	_ZN22TestQueue_testAllocOOMD1Ev
 12328      00000000 
 12329 0018 00000000 		.quad	_ZN22TestQueue_testAllocOOMD0Ev
 12329      00000000 
 12330 0020 00000000 		.quad	_ZNK22TestQueue_testAllocOOM7RunImplEv
 12330      00000000 
 12331              		.section	.text._ZN22TestQueue_testAllocOOMD2Ev,"axG",@progbits,_ZN22TestQueue_testAllocOOMD5Ev,com
 12332              		.align 2
 12333              		.weak	_ZN22TestQueue_testAllocOOMD2Ev
 12335              	_ZN22TestQueue_testAllocOOMD2Ev:
 12336              	.LFB1293:
 331:testCore.cpp  **** 	struct UnboundedQueue queue;
 12337              		.loc 3 331 1 is_stmt 1
 12338              		.cfi_startproc
 12339 0000 F30F1EFA 		endbr64
 12340 0004 55       		pushq	%rbp
 12341              		.cfi_def_cfa_offset 16
 12342              		.cfi_offset 6, -16
 12343 0005 4889E5   		movq	%rsp, %rbp
 12344              		.cfi_def_cfa_register 6
 12345 0008 4883EC10 		subq	$16, %rsp
 12346 000c 48897DF8 		movq	%rdi, -8(%rbp)
 12347              	.LBB32:
 331:testCore.cpp  **** 	struct UnboundedQueue queue;
 12348              		.loc 3 331 1
 12349 0010 488D1500 		leaq	16+_ZTV22TestQueue_testAllocOOM(%rip), %rdx
 12349      000000
 12350 0017 488B45F8 		movq	-8(%rbp), %rax
 12351 001b 488910   		movq	%rdx, (%rax)
 12352 001e 488B45F8 		movq	-8(%rbp), %rax
 12353 0022 4889C7   		movq	%rax, %rdi
 12354 0025 E8000000 		call	_ZN8UnitTest4TestD2Ev@PLT
 12354      00
 12355              	.LBE32:
 12356 002a 90       		nop
 12357 002b C9       		leave
 12358              		.cfi_def_cfa 7, 8
 12359 002c C3       		ret
 12360              		.cfi_endproc
 12361              	.LFE1293:
 12363              		.weak	_ZN22TestQueue_testAllocOOMD1Ev
 12364              		.set	_ZN22TestQueue_testAllocOOMD1Ev,_ZN22TestQueue_testAllocOOMD2Ev
 12365              		.section	.text._ZN22TestQueue_testAllocOOMD0Ev,"axG",@progbits,_ZN22TestQueue_testAllocOOMD5Ev,com
 12366              		.align 2
 12367              		.weak	_ZN22TestQueue_testAllocOOMD0Ev
 12369              	_ZN22TestQueue_testAllocOOMD0Ev:
 12370              	.LFB1295:
 331:testCore.cpp  **** 	struct UnboundedQueue queue;
 12371              		.loc 3 331 1
 12372              		.cfi_startproc
 12373              		.cfi_personality 0x9b,DW.ref.__gxx_personality_v0
 12374              		.cfi_lsda 0x1b,.LLSDA1295
 12375 0000 F30F1EFA 		endbr64
 12376 0004 55       		pushq	%rbp
 12377              		.cfi_def_cfa_offset 16
 12378              		.cfi_offset 6, -16
 12379 0005 4889E5   		movq	%rsp, %rbp
 12380              		.cfi_def_cfa_register 6
 12381 0008 53       		pushq	%rbx
 12382 0009 4883EC18 		subq	$24, %rsp
 12383              		.cfi_offset 3, -24
 12384 000d 48897DE8 		movq	%rdi, -24(%rbp)
 331:testCore.cpp  **** 	struct UnboundedQueue queue;
 12385              		.loc 3 331 1
 12386 0011 488B45E8 		movq	-24(%rbp), %rax
 12387 0015 4889C7   		movq	%rax, %rdi
 12388              	.LEHB548:
 12389 0018 E8000000 		call	_ZN22TestQueue_testAllocOOMD1Ev
 12389      00
 12390              	.LEHE548:
 331:testCore.cpp  **** 	struct UnboundedQueue queue;
 12391              		.loc 3 331 1 is_stmt 0 discriminator 2
 12392 001d 488B45E8 		movq	-24(%rbp), %rax
 12393 0021 4889C7   		movq	%rax, %rdi
 12394 0024 E8000000 		call	_ZdlPv@PLT
 12394      00
 12395 0029 EB1E     		jmp	.L678
 12396              	.L677:
 12397 002b F30F1EFA 		endbr64
 331:testCore.cpp  **** 	struct UnboundedQueue queue;
 12398              		.loc 3 331 1
 12399 002f 4889C3   		movq	%rax, %rbx
 12400 0032 488B45E8 		movq	-24(%rbp), %rax
 12401 0036 4889C7   		movq	%rax, %rdi
 12402 0039 E8000000 		call	_ZdlPv@PLT
 12402      00
 12403 003e 4889D8   		movq	%rbx, %rax
 12404 0041 4889C7   		movq	%rax, %rdi
 12405              	.LEHB549:
 12406 0044 E8000000 		call	_Unwind_Resume@PLT
 12406      00
 12407              	.LEHE549:
 12408              	.L678:
 12409 0049 488B5DF8 		movq	-8(%rbp), %rbx
 12410 004d C9       		leave
 12411              		.cfi_def_cfa 7, 8
 12412 004e C3       		ret
 12413              		.cfi_endproc
 12414              	.LFE1295:
 12415              		.section	.gcc_except_table
 12416              	.LLSDA1295:
 12417 0bfa FF       		.byte	0xff
 12418 0bfb FF       		.byte	0xff
 12419 0bfc 01       		.byte	0x1
 12420 0bfd 08       		.uleb128 .LLSDACSE1295-.LLSDACSB1295
 12421              	.LLSDACSB1295:
 12422 0bfe 18       		.uleb128 .LEHB548-.LFB1295
 12423 0bff 05       		.uleb128 .LEHE548-.LEHB548
 12424 0c00 2B       		.uleb128 .L677-.LFB1295
 12425 0c01 00       		.uleb128 0
 12426 0c02 44       		.uleb128 .LEHB549-.LFB1295
 12427 0c03 05       		.uleb128 .LEHE549-.LEHB549
 12428 0c04 00       		.uleb128 0
 12429 0c05 00       		.uleb128 0
 12430              	.LLSDACSE1295:
 12431              		.section	.text._ZN22TestQueue_testAllocOOMD0Ev,"axG",@progbits,_ZN22TestQueue_testAllocOOMD5Ev,com
 12433              		.weak	_ZTV21TestQueue_testRealloc
 12434              		.section	.data.rel.ro.local._ZTV21TestQueue_testRealloc,"awG",@progbits,_ZTV21TestQueue_testReallo
 12435              		.align 8
 12438              	_ZTV21TestQueue_testRealloc:
 12439 0000 00000000 		.quad	0
 12439      00000000 
 12440 0008 00000000 		.quad	_ZTI21TestQueue_testRealloc
 12440      00000000 
 12441 0010 00000000 		.quad	_ZN21TestQueue_testReallocD1Ev
 12441      00000000 
 12442 0018 00000000 		.quad	_ZN21TestQueue_testReallocD0Ev
 12442      00000000 
 12443 0020 00000000 		.quad	_ZNK21TestQueue_testRealloc7RunImplEv
 12443      00000000 
 12444              		.section	.text._ZN21TestQueue_testReallocD2Ev,"axG",@progbits,_ZN21TestQueue_testReallocD5Ev,comda
 12445              		.align 2
 12446              		.weak	_ZN21TestQueue_testReallocD2Ev
 12448              	_ZN21TestQueue_testReallocD2Ev:
 12449              	.LFB1297:
 324:testCore.cpp  **** 	testRealloc(0);
 12450              		.loc 3 324 1 is_stmt 1
 12451              		.cfi_startproc
 12452 0000 F30F1EFA 		endbr64
 12453 0004 55       		pushq	%rbp
 12454              		.cfi_def_cfa_offset 16
 12455              		.cfi_offset 6, -16
 12456 0005 4889E5   		movq	%rsp, %rbp
 12457              		.cfi_def_cfa_register 6
 12458 0008 4883EC10 		subq	$16, %rsp
 12459 000c 48897DF8 		movq	%rdi, -8(%rbp)
 12460              	.LBB33:
 324:testCore.cpp  **** 	testRealloc(0);
 12461              		.loc 3 324 1
 12462 0010 488D1500 		leaq	16+_ZTV21TestQueue_testRealloc(%rip), %rdx
 12462      000000
 12463 0017 488B45F8 		movq	-8(%rbp), %rax
 12464 001b 488910   		movq	%rdx, (%rax)
 12465 001e 488B45F8 		movq	-8(%rbp), %rax
 12466 0022 4889C7   		movq	%rax, %rdi
 12467 0025 E8000000 		call	_ZN8UnitTest4TestD2Ev@PLT
 12467      00
 12468              	.LBE33:
 12469 002a 90       		nop
 12470 002b C9       		leave
 12471              		.cfi_def_cfa 7, 8
 12472 002c C3       		ret
 12473              		.cfi_endproc
 12474              	.LFE1297:
 12476              		.weak	_ZN21TestQueue_testReallocD1Ev
 12477              		.set	_ZN21TestQueue_testReallocD1Ev,_ZN21TestQueue_testReallocD2Ev
 12478              		.section	.text._ZN21TestQueue_testReallocD0Ev,"axG",@progbits,_ZN21TestQueue_testReallocD5Ev,comda
 12479              		.align 2
 12480              		.weak	_ZN21TestQueue_testReallocD0Ev
 12482              	_ZN21TestQueue_testReallocD0Ev:
 12483              	.LFB1299:
 324:testCore.cpp  **** 	testRealloc(0);
 12484              		.loc 3 324 1
 12485              		.cfi_startproc
 12486              		.cfi_personality 0x9b,DW.ref.__gxx_personality_v0
 12487              		.cfi_lsda 0x1b,.LLSDA1299
 12488 0000 F30F1EFA 		endbr64
 12489 0004 55       		pushq	%rbp
 12490              		.cfi_def_cfa_offset 16
 12491              		.cfi_offset 6, -16
 12492 0005 4889E5   		movq	%rsp, %rbp
 12493              		.cfi_def_cfa_register 6
 12494 0008 53       		pushq	%rbx
 12495 0009 4883EC18 		subq	$24, %rsp
 12496              		.cfi_offset 3, -24
 12497 000d 48897DE8 		movq	%rdi, -24(%rbp)
 324:testCore.cpp  **** 	testRealloc(0);
 12498              		.loc 3 324 1
 12499 0011 488B45E8 		movq	-24(%rbp), %rax
 12500 0015 4889C7   		movq	%rax, %rdi
 12501              	.LEHB550:
 12502 0018 E8000000 		call	_ZN21TestQueue_testReallocD1Ev
 12502      00
 12503              	.LEHE550:
 324:testCore.cpp  **** 	testRealloc(0);
 12504              		.loc 3 324 1 is_stmt 0 discriminator 2
 12505 001d 488B45E8 		movq	-24(%rbp), %rax
 12506 0021 4889C7   		movq	%rax, %rdi
 12507 0024 E8000000 		call	_ZdlPv@PLT
 12507      00
 12508 0029 EB1E     		jmp	.L683
 12509              	.L682:
 12510 002b F30F1EFA 		endbr64
 324:testCore.cpp  **** 	testRealloc(0);
 12511              		.loc 3 324 1
 12512 002f 4889C3   		movq	%rax, %rbx
 12513 0032 488B45E8 		movq	-24(%rbp), %rax
 12514 0036 4889C7   		movq	%rax, %rdi
 12515 0039 E8000000 		call	_ZdlPv@PLT
 12515      00
 12516 003e 4889D8   		movq	%rbx, %rax
 12517 0041 4889C7   		movq	%rax, %rdi
 12518              	.LEHB551:
 12519 0044 E8000000 		call	_Unwind_Resume@PLT
 12519      00
 12520              	.LEHE551:
 12521              	.L683:
 12522 0049 488B5DF8 		movq	-8(%rbp), %rbx
 12523 004d C9       		leave
 12524              		.cfi_def_cfa 7, 8
 12525 004e C3       		ret
 12526              		.cfi_endproc
 12527              	.LFE1299:
 12528              		.section	.gcc_except_table
 12529              	.LLSDA1299:
 12530 0c06 FF       		.byte	0xff
 12531 0c07 FF       		.byte	0xff
 12532 0c08 01       		.byte	0x1
 12533 0c09 08       		.uleb128 .LLSDACSE1299-.LLSDACSB1299
 12534              	.LLSDACSB1299:
 12535 0c0a 18       		.uleb128 .LEHB550-.LFB1299
 12536 0c0b 05       		.uleb128 .LEHE550-.LEHB550
 12537 0c0c 2B       		.uleb128 .L682-.LFB1299
 12538 0c0d 00       		.uleb128 0
 12539 0c0e 44       		.uleb128 .LEHB551-.LFB1299
 12540 0c0f 05       		.uleb128 .LEHE551-.LEHB551
 12541 0c10 00       		.uleb128 0
 12542 0c11 00       		.uleb128 0
 12543              	.LLSDACSE1299:
 12544              		.section	.text._ZN21TestQueue_testReallocD0Ev,"axG",@progbits,_ZN21TestQueue_testReallocD5Ev,comda
 12546              		.weak	_ZTV21TestQueue_testPutTake
 12547              		.section	.data.rel.ro.local._ZTV21TestQueue_testPutTake,"awG",@progbits,_ZTV21TestQueue_testPutTak
 12548              		.align 8
 12551              	_ZTV21TestQueue_testPutTake:
 12552 0000 00000000 		.quad	0
 12552      00000000 
 12553 0008 00000000 		.quad	_ZTI21TestQueue_testPutTake
 12553      00000000 
 12554 0010 00000000 		.quad	_ZN21TestQueue_testPutTakeD1Ev
 12554      00000000 
 12555 0018 00000000 		.quad	_ZN21TestQueue_testPutTakeD0Ev
 12555      00000000 
 12556 0020 00000000 		.quad	_ZNK21TestQueue_testPutTake7RunImplEv
 12556      00000000 
 12557              		.section	.text._ZN21TestQueue_testPutTakeD2Ev,"axG",@progbits,_ZN21TestQueue_testPutTakeD5Ev,comda
 12558              		.align 2
 12559              		.weak	_ZN21TestQueue_testPutTakeD2Ev
 12561              	_ZN21TestQueue_testPutTakeD2Ev:
 12562              	.LFB1301:
 166:testCore.cpp  **** 	struct UnboundedQueue queue;
 12563              		.loc 3 166 1 is_stmt 1
 12564              		.cfi_startproc
 12565 0000 F30F1EFA 		endbr64
 12566 0004 55       		pushq	%rbp
 12567              		.cfi_def_cfa_offset 16
 12568              		.cfi_offset 6, -16
 12569 0005 4889E5   		movq	%rsp, %rbp
 12570              		.cfi_def_cfa_register 6
 12571 0008 4883EC10 		subq	$16, %rsp
 12572 000c 48897DF8 		movq	%rdi, -8(%rbp)
 12573              	.LBB34:
 166:testCore.cpp  **** 	struct UnboundedQueue queue;
 12574              		.loc 3 166 1
 12575 0010 488D1500 		leaq	16+_ZTV21TestQueue_testPutTake(%rip), %rdx
 12575      000000
 12576 0017 488B45F8 		movq	-8(%rbp), %rax
 12577 001b 488910   		movq	%rdx, (%rax)
 12578 001e 488B45F8 		movq	-8(%rbp), %rax
 12579 0022 4889C7   		movq	%rax, %rdi
 12580 0025 E8000000 		call	_ZN8UnitTest4TestD2Ev@PLT
 12580      00
 12581              	.LBE34:
 12582 002a 90       		nop
 12583 002b C9       		leave
 12584              		.cfi_def_cfa 7, 8
 12585 002c C3       		ret
 12586              		.cfi_endproc
 12587              	.LFE1301:
 12589              		.weak	_ZN21TestQueue_testPutTakeD1Ev
 12590              		.set	_ZN21TestQueue_testPutTakeD1Ev,_ZN21TestQueue_testPutTakeD2Ev
 12591              		.section	.text._ZN21TestQueue_testPutTakeD0Ev,"axG",@progbits,_ZN21TestQueue_testPutTakeD5Ev,comda
 12592              		.align 2
 12593              		.weak	_ZN21TestQueue_testPutTakeD0Ev
 12595              	_ZN21TestQueue_testPutTakeD0Ev:
 12596              	.LFB1303:
 166:testCore.cpp  **** 	struct UnboundedQueue queue;
 12597              		.loc 3 166 1
 12598              		.cfi_startproc
 12599              		.cfi_personality 0x9b,DW.ref.__gxx_personality_v0
 12600              		.cfi_lsda 0x1b,.LLSDA1303
 12601 0000 F30F1EFA 		endbr64
 12602 0004 55       		pushq	%rbp
 12603              		.cfi_def_cfa_offset 16
 12604              		.cfi_offset 6, -16
 12605 0005 4889E5   		movq	%rsp, %rbp
 12606              		.cfi_def_cfa_register 6
 12607 0008 53       		pushq	%rbx
 12608 0009 4883EC18 		subq	$24, %rsp
 12609              		.cfi_offset 3, -24
 12610 000d 48897DE8 		movq	%rdi, -24(%rbp)
 166:testCore.cpp  **** 	struct UnboundedQueue queue;
 12611              		.loc 3 166 1
 12612 0011 488B45E8 		movq	-24(%rbp), %rax
 12613 0015 4889C7   		movq	%rax, %rdi
 12614              	.LEHB552:
 12615 0018 E8000000 		call	_ZN21TestQueue_testPutTakeD1Ev
 12615      00
 12616              	.LEHE552:
 166:testCore.cpp  **** 	struct UnboundedQueue queue;
 12617              		.loc 3 166 1 is_stmt 0 discriminator 2
 12618 001d 488B45E8 		movq	-24(%rbp), %rax
 12619 0021 4889C7   		movq	%rax, %rdi
 12620 0024 E8000000 		call	_ZdlPv@PLT
 12620      00
 12621 0029 EB1E     		jmp	.L688
 12622              	.L687:
 12623 002b F30F1EFA 		endbr64
 166:testCore.cpp  **** 	struct UnboundedQueue queue;
 12624              		.loc 3 166 1
 12625 002f 4889C3   		movq	%rax, %rbx
 12626 0032 488B45E8 		movq	-24(%rbp), %rax
 12627 0036 4889C7   		movq	%rax, %rdi
 12628 0039 E8000000 		call	_ZdlPv@PLT
 12628      00
 12629 003e 4889D8   		movq	%rbx, %rax
 12630 0041 4889C7   		movq	%rax, %rdi
 12631              	.LEHB553:
 12632 0044 E8000000 		call	_Unwind_Resume@PLT
 12632      00
 12633              	.LEHE553:
 12634              	.L688:
 12635 0049 488B5DF8 		movq	-8(%rbp), %rbx
 12636 004d C9       		leave
 12637              		.cfi_def_cfa 7, 8
 12638 004e C3       		ret
 12639              		.cfi_endproc
 12640              	.LFE1303:
 12641              		.section	.gcc_except_table
 12642              	.LLSDA1303:
 12643 0c12 FF       		.byte	0xff
 12644 0c13 FF       		.byte	0xff
 12645 0c14 01       		.byte	0x1
 12646 0c15 08       		.uleb128 .LLSDACSE1303-.LLSDACSB1303
 12647              	.LLSDACSB1303:
 12648 0c16 18       		.uleb128 .LEHB552-.LFB1303
 12649 0c17 05       		.uleb128 .LEHE552-.LEHB552
 12650 0c18 2B       		.uleb128 .L687-.LFB1303
 12651 0c19 00       		.uleb128 0
 12652 0c1a 44       		.uleb128 .LEHB553-.LFB1303
 12653 0c1b 05       		.uleb128 .LEHE553-.LEHB553
 12654 0c1c 00       		.uleb128 0
 12655 0c1d 00       		.uleb128 0
 12656              	.LLSDACSE1303:
 12657              		.section	.text._ZN21TestQueue_testPutTakeD0Ev,"axG",@progbits,_ZN21TestQueue_testPutTakeD5Ev,comda
 12659              		.weak	_ZTV21TestQueue_testPutWrap
 12660              		.section	.data.rel.ro.local._ZTV21TestQueue_testPutWrap,"awG",@progbits,_ZTV21TestQueue_testPutWra
 12661              		.align 8
 12664              	_ZTV21TestQueue_testPutWrap:
 12665 0000 00000000 		.quad	0
 12665      00000000 
 12666 0008 00000000 		.quad	_ZTI21TestQueue_testPutWrap
 12666      00000000 
 12667 0010 00000000 		.quad	_ZN21TestQueue_testPutWrapD1Ev
 12667      00000000 
 12668 0018 00000000 		.quad	_ZN21TestQueue_testPutWrapD0Ev
 12668      00000000 
 12669 0020 00000000 		.quad	_ZNK21TestQueue_testPutWrap7RunImplEv
 12669      00000000 
 12670              		.section	.text._ZN21TestQueue_testPutWrapD2Ev,"axG",@progbits,_ZN21TestQueue_testPutWrapD5Ev,comda
 12671              		.align 2
 12672              		.weak	_ZN21TestQueue_testPutWrapD2Ev
 12674              	_ZN21TestQueue_testPutWrapD2Ev:
 12675              	.LFB1305:
 119:testCore.cpp  **** 	struct UnboundedQueue queue;
 12676              		.loc 3 119 1 is_stmt 1
 12677              		.cfi_startproc
 12678 0000 F30F1EFA 		endbr64
 12679 0004 55       		pushq	%rbp
 12680              		.cfi_def_cfa_offset 16
 12681              		.cfi_offset 6, -16
 12682 0005 4889E5   		movq	%rsp, %rbp
 12683              		.cfi_def_cfa_register 6
 12684 0008 4883EC10 		subq	$16, %rsp
 12685 000c 48897DF8 		movq	%rdi, -8(%rbp)
 12686              	.LBB35:
 119:testCore.cpp  **** 	struct UnboundedQueue queue;
 12687              		.loc 3 119 1
 12688 0010 488D1500 		leaq	16+_ZTV21TestQueue_testPutWrap(%rip), %rdx
 12688      000000
 12689 0017 488B45F8 		movq	-8(%rbp), %rax
 12690 001b 488910   		movq	%rdx, (%rax)
 12691 001e 488B45F8 		movq	-8(%rbp), %rax
 12692 0022 4889C7   		movq	%rax, %rdi
 12693 0025 E8000000 		call	_ZN8UnitTest4TestD2Ev@PLT
 12693      00
 12694              	.LBE35:
 12695 002a 90       		nop
 12696 002b C9       		leave
 12697              		.cfi_def_cfa 7, 8
 12698 002c C3       		ret
 12699              		.cfi_endproc
 12700              	.LFE1305:
 12702              		.weak	_ZN21TestQueue_testPutWrapD1Ev
 12703              		.set	_ZN21TestQueue_testPutWrapD1Ev,_ZN21TestQueue_testPutWrapD2Ev
 12704              		.section	.text._ZN21TestQueue_testPutWrapD0Ev,"axG",@progbits,_ZN21TestQueue_testPutWrapD5Ev,comda
 12705              		.align 2
 12706              		.weak	_ZN21TestQueue_testPutWrapD0Ev
 12708              	_ZN21TestQueue_testPutWrapD0Ev:
 12709              	.LFB1307:
 119:testCore.cpp  **** 	struct UnboundedQueue queue;
 12710              		.loc 3 119 1
 12711              		.cfi_startproc
 12712              		.cfi_personality 0x9b,DW.ref.__gxx_personality_v0
 12713              		.cfi_lsda 0x1b,.LLSDA1307
 12714 0000 F30F1EFA 		endbr64
 12715 0004 55       		pushq	%rbp
 12716              		.cfi_def_cfa_offset 16
 12717              		.cfi_offset 6, -16
 12718 0005 4889E5   		movq	%rsp, %rbp
 12719              		.cfi_def_cfa_register 6
 12720 0008 53       		pushq	%rbx
 12721 0009 4883EC18 		subq	$24, %rsp
 12722              		.cfi_offset 3, -24
 12723 000d 48897DE8 		movq	%rdi, -24(%rbp)
 119:testCore.cpp  **** 	struct UnboundedQueue queue;
 12724              		.loc 3 119 1
 12725 0011 488B45E8 		movq	-24(%rbp), %rax
 12726 0015 4889C7   		movq	%rax, %rdi
 12727              	.LEHB554:
 12728 0018 E8000000 		call	_ZN21TestQueue_testPutWrapD1Ev
 12728      00
 12729              	.LEHE554:
 119:testCore.cpp  **** 	struct UnboundedQueue queue;
 12730              		.loc 3 119 1 is_stmt 0 discriminator 2
 12731 001d 488B45E8 		movq	-24(%rbp), %rax
 12732 0021 4889C7   		movq	%rax, %rdi
 12733 0024 E8000000 		call	_ZdlPv@PLT
 12733      00
 12734 0029 EB1E     		jmp	.L693
 12735              	.L692:
 12736 002b F30F1EFA 		endbr64
 119:testCore.cpp  **** 	struct UnboundedQueue queue;
 12737              		.loc 3 119 1
 12738 002f 4889C3   		movq	%rax, %rbx
 12739 0032 488B45E8 		movq	-24(%rbp), %rax
 12740 0036 4889C7   		movq	%rax, %rdi
 12741 0039 E8000000 		call	_ZdlPv@PLT
 12741      00
 12742 003e 4889D8   		movq	%rbx, %rax
 12743 0041 4889C7   		movq	%rax, %rdi
 12744              	.LEHB555:
 12745 0044 E8000000 		call	_Unwind_Resume@PLT
 12745      00
 12746              	.LEHE555:
 12747              	.L693:
 12748 0049 488B5DF8 		movq	-8(%rbp), %rbx
 12749 004d C9       		leave
 12750              		.cfi_def_cfa 7, 8
 12751 004e C3       		ret
 12752              		.cfi_endproc
 12753              	.LFE1307:
 12754              		.section	.gcc_except_table
 12755              	.LLSDA1307:
 12756 0c1e FF       		.byte	0xff
 12757 0c1f FF       		.byte	0xff
 12758 0c20 01       		.byte	0x1
 12759 0c21 08       		.uleb128 .LLSDACSE1307-.LLSDACSB1307
 12760              	.LLSDACSB1307:
 12761 0c22 18       		.uleb128 .LEHB554-.LFB1307
 12762 0c23 05       		.uleb128 .LEHE554-.LEHB554
 12763 0c24 2B       		.uleb128 .L692-.LFB1307
 12764 0c25 00       		.uleb128 0
 12765 0c26 44       		.uleb128 .LEHB555-.LFB1307
 12766 0c27 05       		.uleb128 .LEHE555-.LEHB555
 12767 0c28 00       		.uleb128 0
 12768 0c29 00       		.uleb128 0
 12769              	.LLSDACSE1307:
 12770              		.section	.text._ZN21TestQueue_testPutWrapD0Ev,"axG",@progbits,_ZN21TestQueue_testPutWrapD5Ev,comda
 12772              		.weak	_ZTV23TestQueue_testPutNoWrap
 12773              		.section	.data.rel.ro.local._ZTV23TestQueue_testPutNoWrap,"awG",@progbits,_ZTV23TestQueue_testPutN
 12774              		.align 8
 12777              	_ZTV23TestQueue_testPutNoWrap:
 12778 0000 00000000 		.quad	0
 12778      00000000 
 12779 0008 00000000 		.quad	_ZTI23TestQueue_testPutNoWrap
 12779      00000000 
 12780 0010 00000000 		.quad	_ZN23TestQueue_testPutNoWrapD1Ev
 12780      00000000 
 12781 0018 00000000 		.quad	_ZN23TestQueue_testPutNoWrapD0Ev
 12781      00000000 
 12782 0020 00000000 		.quad	_ZNK23TestQueue_testPutNoWrap7RunImplEv
 12782      00000000 
 12783              		.section	.text._ZN23TestQueue_testPutNoWrapD2Ev,"axG",@progbits,_ZN23TestQueue_testPutNoWrapD5Ev,c
 12784              		.align 2
 12785              		.weak	_ZN23TestQueue_testPutNoWrapD2Ev
 12787              	_ZN23TestQueue_testPutNoWrapD2Ev:
 12788              	.LFB1309:
  77:testCore.cpp  **** 	struct UnboundedQueue queue;
 12789              		.loc 3 77 1 is_stmt 1
 12790              		.cfi_startproc
 12791 0000 F30F1EFA 		endbr64
 12792 0004 55       		pushq	%rbp
 12793              		.cfi_def_cfa_offset 16
 12794              		.cfi_offset 6, -16
 12795 0005 4889E5   		movq	%rsp, %rbp
 12796              		.cfi_def_cfa_register 6
 12797 0008 4883EC10 		subq	$16, %rsp
 12798 000c 48897DF8 		movq	%rdi, -8(%rbp)
 12799              	.LBB36:
  77:testCore.cpp  **** 	struct UnboundedQueue queue;
 12800              		.loc 3 77 1
 12801 0010 488D1500 		leaq	16+_ZTV23TestQueue_testPutNoWrap(%rip), %rdx
 12801      000000
 12802 0017 488B45F8 		movq	-8(%rbp), %rax
 12803 001b 488910   		movq	%rdx, (%rax)
 12804 001e 488B45F8 		movq	-8(%rbp), %rax
 12805 0022 4889C7   		movq	%rax, %rdi
 12806 0025 E8000000 		call	_ZN8UnitTest4TestD2Ev@PLT
 12806      00
 12807              	.LBE36:
 12808 002a 90       		nop
 12809 002b C9       		leave
 12810              		.cfi_def_cfa 7, 8
 12811 002c C3       		ret
 12812              		.cfi_endproc
 12813              	.LFE1309:
 12815              		.weak	_ZN23TestQueue_testPutNoWrapD1Ev
 12816              		.set	_ZN23TestQueue_testPutNoWrapD1Ev,_ZN23TestQueue_testPutNoWrapD2Ev
 12817              		.section	.text._ZN23TestQueue_testPutNoWrapD0Ev,"axG",@progbits,_ZN23TestQueue_testPutNoWrapD5Ev,c
 12818              		.align 2
 12819              		.weak	_ZN23TestQueue_testPutNoWrapD0Ev
 12821              	_ZN23TestQueue_testPutNoWrapD0Ev:
 12822              	.LFB1311:
  77:testCore.cpp  **** 	struct UnboundedQueue queue;
 12823              		.loc 3 77 1
 12824              		.cfi_startproc
 12825              		.cfi_personality 0x9b,DW.ref.__gxx_personality_v0
 12826              		.cfi_lsda 0x1b,.LLSDA1311
 12827 0000 F30F1EFA 		endbr64
 12828 0004 55       		pushq	%rbp
 12829              		.cfi_def_cfa_offset 16
 12830              		.cfi_offset 6, -16
 12831 0005 4889E5   		movq	%rsp, %rbp
 12832              		.cfi_def_cfa_register 6
 12833 0008 53       		pushq	%rbx
 12834 0009 4883EC18 		subq	$24, %rsp
 12835              		.cfi_offset 3, -24
 12836 000d 48897DE8 		movq	%rdi, -24(%rbp)
  77:testCore.cpp  **** 	struct UnboundedQueue queue;
 12837              		.loc 3 77 1
 12838 0011 488B45E8 		movq	-24(%rbp), %rax
 12839 0015 4889C7   		movq	%rax, %rdi
 12840              	.LEHB556:
 12841 0018 E8000000 		call	_ZN23TestQueue_testPutNoWrapD1Ev
 12841      00
 12842              	.LEHE556:
  77:testCore.cpp  **** 	struct UnboundedQueue queue;
 12843              		.loc 3 77 1 is_stmt 0 discriminator 2
 12844 001d 488B45E8 		movq	-24(%rbp), %rax
 12845 0021 4889C7   		movq	%rax, %rdi
 12846 0024 E8000000 		call	_ZdlPv@PLT
 12846      00
 12847 0029 EB1E     		jmp	.L698
 12848              	.L697:
 12849 002b F30F1EFA 		endbr64
  77:testCore.cpp  **** 	struct UnboundedQueue queue;
 12850              		.loc 3 77 1
 12851 002f 4889C3   		movq	%rax, %rbx
 12852 0032 488B45E8 		movq	-24(%rbp), %rax
 12853 0036 4889C7   		movq	%rax, %rdi
 12854 0039 E8000000 		call	_ZdlPv@PLT
 12854      00
 12855 003e 4889D8   		movq	%rbx, %rax
 12856 0041 4889C7   		movq	%rax, %rdi
 12857              	.LEHB557:
 12858 0044 E8000000 		call	_Unwind_Resume@PLT
 12858      00
 12859              	.LEHE557:
 12860              	.L698:
 12861 0049 488B5DF8 		movq	-8(%rbp), %rbx
 12862 004d C9       		leave
 12863              		.cfi_def_cfa 7, 8
 12864 004e C3       		ret
 12865              		.cfi_endproc
 12866              	.LFE1311:
 12867              		.section	.gcc_except_table
 12868              	.LLSDA1311:
 12869 0c2a FF       		.byte	0xff
 12870 0c2b FF       		.byte	0xff
 12871 0c2c 01       		.byte	0x1
 12872 0c2d 08       		.uleb128 .LLSDACSE1311-.LLSDACSB1311
 12873              	.LLSDACSB1311:
 12874 0c2e 18       		.uleb128 .LEHB556-.LFB1311
 12875 0c2f 05       		.uleb128 .LEHE556-.LEHB556
 12876 0c30 2B       		.uleb128 .L697-.LFB1311
 12877 0c31 00       		.uleb128 0
 12878 0c32 44       		.uleb128 .LEHB557-.LFB1311
 12879 0c33 05       		.uleb128 .LEHE557-.LEHB557
 12880 0c34 00       		.uleb128 0
 12881 0c35 00       		.uleb128 0
 12882              	.LLSDACSE1311:
 12883              		.section	.text._ZN23TestQueue_testPutNoWrapD0Ev,"axG",@progbits,_ZN23TestQueue_testPutNoWrapD5Ev,c
 12885              		.weak	_ZTV18TestQueue_testInit
 12886              		.section	.data.rel.ro.local._ZTV18TestQueue_testInit,"awG",@progbits,_ZTV18TestQueue_testInit,comd
 12887              		.align 8
 12890              	_ZTV18TestQueue_testInit:
 12891 0000 00000000 		.quad	0
 12891      00000000 
 12892 0008 00000000 		.quad	_ZTI18TestQueue_testInit
 12892      00000000 
 12893 0010 00000000 		.quad	_ZN18TestQueue_testInitD1Ev
 12893      00000000 
 12894 0018 00000000 		.quad	_ZN18TestQueue_testInitD0Ev
 12894      00000000 
 12895 0020 00000000 		.quad	_ZNK18TestQueue_testInit7RunImplEv
 12895      00000000 
 12896              		.section	.text._ZN18TestQueue_testInitD2Ev,"axG",@progbits,_ZN18TestQueue_testInitD5Ev,comdat
 12897              		.align 2
 12898              		.weak	_ZN18TestQueue_testInitD2Ev
 12900              	_ZN18TestQueue_testInitD2Ev:
 12901              	.LFB1313:
  53:testCore.cpp  **** 	struct UnboundedQueue queue;
 12902              		.loc 3 53 1 is_stmt 1
 12903              		.cfi_startproc
 12904 0000 F30F1EFA 		endbr64
 12905 0004 55       		pushq	%rbp
 12906              		.cfi_def_cfa_offset 16
 12907              		.cfi_offset 6, -16
 12908 0005 4889E5   		movq	%rsp, %rbp
 12909              		.cfi_def_cfa_register 6
 12910 0008 4883EC10 		subq	$16, %rsp
 12911 000c 48897DF8 		movq	%rdi, -8(%rbp)
 12912              	.LBB37:
  53:testCore.cpp  **** 	struct UnboundedQueue queue;
 12913              		.loc 3 53 1
 12914 0010 488D1500 		leaq	16+_ZTV18TestQueue_testInit(%rip), %rdx
 12914      000000
 12915 0017 488B45F8 		movq	-8(%rbp), %rax
 12916 001b 488910   		movq	%rdx, (%rax)
 12917 001e 488B45F8 		movq	-8(%rbp), %rax
 12918 0022 4889C7   		movq	%rax, %rdi
 12919 0025 E8000000 		call	_ZN8UnitTest4TestD2Ev@PLT
 12919      00
 12920              	.LBE37:
 12921 002a 90       		nop
 12922 002b C9       		leave
 12923              		.cfi_def_cfa 7, 8
 12924 002c C3       		ret
 12925              		.cfi_endproc
 12926              	.LFE1313:
 12928              		.weak	_ZN18TestQueue_testInitD1Ev
 12929              		.set	_ZN18TestQueue_testInitD1Ev,_ZN18TestQueue_testInitD2Ev
 12930              		.section	.text._ZN18TestQueue_testInitD0Ev,"axG",@progbits,_ZN18TestQueue_testInitD5Ev,comdat
 12931              		.align 2
 12932              		.weak	_ZN18TestQueue_testInitD0Ev
 12934              	_ZN18TestQueue_testInitD0Ev:
 12935              	.LFB1315:
  53:testCore.cpp  **** 	struct UnboundedQueue queue;
 12936              		.loc 3 53 1
 12937              		.cfi_startproc
 12938              		.cfi_personality 0x9b,DW.ref.__gxx_personality_v0
 12939              		.cfi_lsda 0x1b,.LLSDA1315
 12940 0000 F30F1EFA 		endbr64
 12941 0004 55       		pushq	%rbp
 12942              		.cfi_def_cfa_offset 16
 12943              		.cfi_offset 6, -16
 12944 0005 4889E5   		movq	%rsp, %rbp
 12945              		.cfi_def_cfa_register 6
 12946 0008 53       		pushq	%rbx
 12947 0009 4883EC18 		subq	$24, %rsp
 12948              		.cfi_offset 3, -24
 12949 000d 48897DE8 		movq	%rdi, -24(%rbp)
  53:testCore.cpp  **** 	struct UnboundedQueue queue;
 12950              		.loc 3 53 1
 12951 0011 488B45E8 		movq	-24(%rbp), %rax
 12952 0015 4889C7   		movq	%rax, %rdi
 12953              	.LEHB558:
 12954 0018 E8000000 		call	_ZN18TestQueue_testInitD1Ev
 12954      00
 12955              	.LEHE558:
  53:testCore.cpp  **** 	struct UnboundedQueue queue;
 12956              		.loc 3 53 1 is_stmt 0 discriminator 2
 12957 001d 488B45E8 		movq	-24(%rbp), %rax
 12958 0021 4889C7   		movq	%rax, %rdi
 12959 0024 E8000000 		call	_ZdlPv@PLT
 12959      00
 12960 0029 EB1E     		jmp	.L703
 12961              	.L702:
 12962 002b F30F1EFA 		endbr64
  53:testCore.cpp  **** 	struct UnboundedQueue queue;
 12963              		.loc 3 53 1
 12964 002f 4889C3   		movq	%rax, %rbx
 12965 0032 488B45E8 		movq	-24(%rbp), %rax
 12966 0036 4889C7   		movq	%rax, %rdi
 12967 0039 E8000000 		call	_ZdlPv@PLT
 12967      00
 12968 003e 4889D8   		movq	%rbx, %rax
 12969 0041 4889C7   		movq	%rax, %rdi
 12970              	.LEHB559:
 12971 0044 E8000000 		call	_Unwind_Resume@PLT
 12971      00
 12972              	.LEHE559:
 12973              	.L703:
 12974 0049 488B5DF8 		movq	-8(%rbp), %rbx
 12975 004d C9       		leave
 12976              		.cfi_def_cfa 7, 8
 12977 004e C3       		ret
 12978              		.cfi_endproc
 12979              	.LFE1315:
 12980              		.section	.gcc_except_table
 12981              	.LLSDA1315:
 12982 0c36 FF       		.byte	0xff
 12983 0c37 FF       		.byte	0xff
 12984 0c38 01       		.byte	0x1
 12985 0c39 08       		.uleb128 .LLSDACSE1315-.LLSDACSB1315
 12986              	.LLSDACSB1315:
 12987 0c3a 18       		.uleb128 .LEHB558-.LFB1315
 12988 0c3b 05       		.uleb128 .LEHE558-.LEHB558
 12989 0c3c 2B       		.uleb128 .L702-.LFB1315
 12990 0c3d 00       		.uleb128 0
 12991 0c3e 44       		.uleb128 .LEHB559-.LFB1315
 12992 0c3f 05       		.uleb128 .LEHE559-.LEHB559
 12993 0c40 00       		.uleb128 0
 12994 0c41 00       		.uleb128 0
 12995              	.LLSDACSE1315:
 12996              		.section	.text._ZN18TestQueue_testInitD0Ev,"axG",@progbits,_ZN18TestQueue_testInitD5Ev,comdat
 12998              		.weak	_ZTVN8UnitTest15MemoryOutStreamE
 12999              		.section	.data.rel.ro.local._ZTVN8UnitTest15MemoryOutStreamE,"awG",@progbits,_ZTVN8UnitTest15Memor
 13000              		.align 8
 13003              	_ZTVN8UnitTest15MemoryOutStreamE:
 13004 0000 90000000 		.quad	144
 13004      00000000 
 13005 0008 00000000 		.quad	0
 13005      00000000 
 13006 0010 00000000 		.quad	_ZTIN8UnitTest15MemoryOutStreamE
 13006      00000000 
 13007 0018 00000000 		.quad	_ZN8UnitTest15MemoryOutStreamD1Ev
 13007      00000000 
 13008 0020 00000000 		.quad	_ZN8UnitTest15MemoryOutStreamD0Ev
 13008      00000000 
 13009 0028 70FFFFFF 		.quad	-144
 13009      FFFFFFFF 
 13010 0030 70FFFFFF 		.quad	-144
 13010      FFFFFFFF 
 13011 0038 00000000 		.quad	_ZTIN8UnitTest15MemoryOutStreamE
 13011      00000000 
 13012 0040 00000000 		.quad	_ZTv0_n24_N8UnitTest15MemoryOutStreamD1Ev
 13012      00000000 
 13013 0048 00000000 		.quad	_ZTv0_n24_N8UnitTest15MemoryOutStreamD0Ev
 13013      00000000 
 13014              		.weak	_ZTTN8UnitTest15MemoryOutStreamE
 13015              		.section	.data.rel.ro.local._ZTTN8UnitTest15MemoryOutStreamE,"awG",@progbits,_ZTVN8UnitTest15Memor
 13016              		.align 8
 13019              	_ZTTN8UnitTest15MemoryOutStreamE:
 13020 0000 00000000 		.quad	_ZTVN8UnitTest15MemoryOutStreamE+24
 13020      00000000 
 13021 0008 00000000 		.quad	_ZTCN8UnitTest15MemoryOutStreamE0_NSt7__cxx1119basic_ostringstreamIcSt11char_traitsIcESaIcEE
 13021      00000000 
 13022 0010 00000000 		.quad	_ZTCN8UnitTest15MemoryOutStreamE0_So+24
 13022      00000000 
 13023 0018 00000000 		.quad	_ZTCN8UnitTest15MemoryOutStreamE0_So+64
 13023      00000000 
 13024 0020 00000000 		.quad	_ZTCN8UnitTest15MemoryOutStreamE0_NSt7__cxx1119basic_ostringstreamIcSt11char_traitsIcESaIcEE
 13024      00000000 
 13025 0028 00000000 		.quad	_ZTVN8UnitTest15MemoryOutStreamE+64
 13025      00000000 
 13026              		.hidden	_ZTCN8UnitTest15MemoryOutStreamE0_NSt7__cxx1119basic_ostringstreamIcSt11char_traitsIcESaIc
 13027              		.weak	_ZTCN8UnitTest15MemoryOutStreamE0_NSt7__cxx1119basic_ostringstreamIcSt11char_traitsIcESaIcEE
 13028              		.section	.data.rel.ro._ZTCN8UnitTest15MemoryOutStreamE0_NSt7__cxx1119basic_ostringstreamIcSt11char
 13029              		.align 8
 13032              	_ZTCN8UnitTest15MemoryOutStreamE0_NSt7__cxx1119basic_ostringstreamIcSt11char_traitsIcESaIcEEE:
 13033 0000 90000000 		.quad	144
 13033      00000000 
 13034 0008 00000000 		.quad	0
 13034      00000000 
 13035 0010 00000000 		.quad	_ZTINSt7__cxx1119basic_ostringstreamIcSt11char_traitsIcESaIcEEE
 13035      00000000 
 13036 0018 00000000 		.quad	0
 13036      00000000 
 13037 0020 00000000 		.quad	0
 13037      00000000 
 13038 0028 70FFFFFF 		.quad	-144
 13038      FFFFFFFF 
 13039 0030 70FFFFFF 		.quad	-144
 13039      FFFFFFFF 
 13040 0038 00000000 		.quad	_ZTINSt7__cxx1119basic_ostringstreamIcSt11char_traitsIcESaIcEEE
 13040      00000000 
 13041 0040 00000000 		.quad	0
 13041      00000000 
 13042 0048 00000000 		.quad	0
 13042      00000000 
 13043              		.hidden	_ZTCN8UnitTest15MemoryOutStreamE0_So
 13044              		.weak	_ZTCN8UnitTest15MemoryOutStreamE0_So
 13045              		.section	.data.rel.ro._ZTCN8UnitTest15MemoryOutStreamE0_So,"awG",@progbits,_ZTVN8UnitTest15MemoryO
 13046              		.align 8
 13049              	_ZTCN8UnitTest15MemoryOutStreamE0_So:
 13050 0000 90000000 		.quad	144
 13050      00000000 
 13051 0008 00000000 		.quad	0
 13051      00000000 
 13052 0010 00000000 		.quad	_ZTISo
 13052      00000000 
 13053 0018 00000000 		.quad	0
 13053      00000000 
 13054 0020 00000000 		.quad	0
 13054      00000000 
 13055 0028 70FFFFFF 		.quad	-144
 13055      FFFFFFFF 
 13056 0030 70FFFFFF 		.quad	-144
 13056      FFFFFFFF 
 13057 0038 00000000 		.quad	_ZTISo
 13057      00000000 
 13058 0040 00000000 		.quad	0
 13058      00000000 
 13059 0048 00000000 		.quad	0
 13059      00000000 
 13060              		.weak	_ZTI31TestQueue_testAllocFreeMatching
 13061              		.section	.data.rel.ro._ZTI31TestQueue_testAllocFreeMatching,"awG",@progbits,_ZTI31TestQueue_testAl
 13062              		.align 8
 13065              	_ZTI31TestQueue_testAllocFreeMatching:
 13066 0000 00000000 		.quad	_ZTVN10__cxxabiv120__si_class_type_infoE+16
 13066      00000000 
 13067 0008 00000000 		.quad	_ZTS31TestQueue_testAllocFreeMatching
 13067      00000000 
 13068 0010 00000000 		.quad	_ZTIN8UnitTest4TestE
 13068      00000000 
 13069              		.weak	_ZTS31TestQueue_testAllocFreeMatching
 13070              		.section	.rodata._ZTS31TestQueue_testAllocFreeMatching,"aG",@progbits,_ZTS31TestQueue_testAllocFre
 13071              		.align 32
 13074              	_ZTS31TestQueue_testAllocFreeMatching:
 13075 0000 33315465 		.string	"31TestQueue_testAllocFreeMatching"
 13075      73745175 
 13075      6575655F 
 13075      74657374 
 13075      416C6C6F 
 13076              		.weak	_ZTI24TestQueue_testReallocOOM
 13077              		.section	.data.rel.ro._ZTI24TestQueue_testReallocOOM,"awG",@progbits,_ZTI24TestQueue_testReallocOO
 13078              		.align 8
 13081              	_ZTI24TestQueue_testReallocOOM:
 13082 0000 00000000 		.quad	_ZTVN10__cxxabiv120__si_class_type_infoE+16
 13082      00000000 
 13083 0008 00000000 		.quad	_ZTS24TestQueue_testReallocOOM
 13083      00000000 
 13084 0010 00000000 		.quad	_ZTIN8UnitTest4TestE
 13084      00000000 
 13085              		.weak	_ZTS24TestQueue_testReallocOOM
 13086              		.section	.rodata._ZTS24TestQueue_testReallocOOM,"aG",@progbits,_ZTS24TestQueue_testReallocOOM,comd
 13087              		.align 16
 13090              	_ZTS24TestQueue_testReallocOOM:
 13091 0000 32345465 		.string	"24TestQueue_testReallocOOM"
 13091      73745175 
 13091      6575655F 
 13091      74657374 
 13091      5265616C 
 13092              		.weak	_ZTI22TestQueue_testAllocOOM
 13093              		.section	.data.rel.ro._ZTI22TestQueue_testAllocOOM,"awG",@progbits,_ZTI22TestQueue_testAllocOOM,co
 13094              		.align 8
 13097              	_ZTI22TestQueue_testAllocOOM:
 13098 0000 00000000 		.quad	_ZTVN10__cxxabiv120__si_class_type_infoE+16
 13098      00000000 
 13099 0008 00000000 		.quad	_ZTS22TestQueue_testAllocOOM
 13099      00000000 
 13100 0010 00000000 		.quad	_ZTIN8UnitTest4TestE
 13100      00000000 
 13101              		.weak	_ZTS22TestQueue_testAllocOOM
 13102              		.section	.rodata._ZTS22TestQueue_testAllocOOM,"aG",@progbits,_ZTS22TestQueue_testAllocOOM,comdat
 13103              		.align 16
 13106              	_ZTS22TestQueue_testAllocOOM:
 13107 0000 32325465 		.string	"22TestQueue_testAllocOOM"
 13107      73745175 
 13107      6575655F 
 13107      74657374 
 13107      416C6C6F 
 13108              		.weak	_ZTI21TestQueue_testRealloc
 13109              		.section	.data.rel.ro._ZTI21TestQueue_testRealloc,"awG",@progbits,_ZTI21TestQueue_testRealloc,comd
 13110              		.align 8
 13113              	_ZTI21TestQueue_testRealloc:
 13114 0000 00000000 		.quad	_ZTVN10__cxxabiv120__si_class_type_infoE+16
 13114      00000000 
 13115 0008 00000000 		.quad	_ZTS21TestQueue_testRealloc
 13115      00000000 
 13116 0010 00000000 		.quad	_ZTIN8UnitTest4TestE
 13116      00000000 
 13117              		.weak	_ZTS21TestQueue_testRealloc
 13118              		.section	.rodata._ZTS21TestQueue_testRealloc,"aG",@progbits,_ZTS21TestQueue_testRealloc,comdat
 13119              		.align 16
 13122              	_ZTS21TestQueue_testRealloc:
 13123 0000 32315465 		.string	"21TestQueue_testRealloc"
 13123      73745175 
 13123      6575655F 
 13123      74657374 
 13123      5265616C 
 13124              		.weak	_ZTI21TestQueue_testPutTake
 13125              		.section	.data.rel.ro._ZTI21TestQueue_testPutTake,"awG",@progbits,_ZTI21TestQueue_testPutTake,comd
 13126              		.align 8
 13129              	_ZTI21TestQueue_testPutTake:
 13130 0000 00000000 		.quad	_ZTVN10__cxxabiv120__si_class_type_infoE+16
 13130      00000000 
 13131 0008 00000000 		.quad	_ZTS21TestQueue_testPutTake
 13131      00000000 
 13132 0010 00000000 		.quad	_ZTIN8UnitTest4TestE
 13132      00000000 
 13133              		.weak	_ZTS21TestQueue_testPutTake
 13134              		.section	.rodata._ZTS21TestQueue_testPutTake,"aG",@progbits,_ZTS21TestQueue_testPutTake,comdat
 13135              		.align 16
 13138              	_ZTS21TestQueue_testPutTake:
 13139 0000 32315465 		.string	"21TestQueue_testPutTake"
 13139      73745175 
 13139      6575655F 
 13139      74657374 
 13139      50757454 
 13140              		.weak	_ZTI21TestQueue_testPutWrap
 13141              		.section	.data.rel.ro._ZTI21TestQueue_testPutWrap,"awG",@progbits,_ZTI21TestQueue_testPutWrap,comd
 13142              		.align 8
 13145              	_ZTI21TestQueue_testPutWrap:
 13146 0000 00000000 		.quad	_ZTVN10__cxxabiv120__si_class_type_infoE+16
 13146      00000000 
 13147 0008 00000000 		.quad	_ZTS21TestQueue_testPutWrap
 13147      00000000 
 13148 0010 00000000 		.quad	_ZTIN8UnitTest4TestE
 13148      00000000 
 13149              		.weak	_ZTS21TestQueue_testPutWrap
 13150              		.section	.rodata._ZTS21TestQueue_testPutWrap,"aG",@progbits,_ZTS21TestQueue_testPutWrap,comdat
 13151              		.align 16
 13154              	_ZTS21TestQueue_testPutWrap:
 13155 0000 32315465 		.string	"21TestQueue_testPutWrap"
 13155      73745175 
 13155      6575655F 
 13155      74657374 
 13155      50757457 
 13156              		.weak	_ZTI23TestQueue_testPutNoWrap
 13157              		.section	.data.rel.ro._ZTI23TestQueue_testPutNoWrap,"awG",@progbits,_ZTI23TestQueue_testPutNoWrap,
 13158              		.align 8
 13161              	_ZTI23TestQueue_testPutNoWrap:
 13162 0000 00000000 		.quad	_ZTVN10__cxxabiv120__si_class_type_infoE+16
 13162      00000000 
 13163 0008 00000000 		.quad	_ZTS23TestQueue_testPutNoWrap
 13163      00000000 
 13164 0010 00000000 		.quad	_ZTIN8UnitTest4TestE
 13164      00000000 
 13165              		.weak	_ZTS23TestQueue_testPutNoWrap
 13166              		.section	.rodata._ZTS23TestQueue_testPutNoWrap,"aG",@progbits,_ZTS23TestQueue_testPutNoWrap,comdat
 13167              		.align 16
 13170              	_ZTS23TestQueue_testPutNoWrap:
 13171 0000 32335465 		.string	"23TestQueue_testPutNoWrap"
 13171      73745175 
 13171      6575655F 
 13171      74657374 
 13171      5075744E 
 13172              		.weak	_ZTI18TestQueue_testInit
 13173              		.section	.data.rel.ro._ZTI18TestQueue_testInit,"awG",@progbits,_ZTI18TestQueue_testInit,comdat
 13174              		.align 8
 13177              	_ZTI18TestQueue_testInit:
 13178 0000 00000000 		.quad	_ZTVN10__cxxabiv120__si_class_type_infoE+16
 13178      00000000 
 13179 0008 00000000 		.quad	_ZTS18TestQueue_testInit
 13179      00000000 
 13180 0010 00000000 		.quad	_ZTIN8UnitTest4TestE
 13180      00000000 
 13181              		.weak	_ZTS18TestQueue_testInit
 13182              		.section	.rodata._ZTS18TestQueue_testInit,"aG",@progbits,_ZTS18TestQueue_testInit,comdat
 13183              		.align 16
 13186              	_ZTS18TestQueue_testInit:
 13187 0000 31385465 		.string	"18TestQueue_testInit"
 13187      73745175 
 13187      6575655F 
 13187      74657374 
 13187      496E6974 
 13188              		.weak	_ZTIN8UnitTest15MemoryOutStreamE
 13189              		.section	.data.rel.ro._ZTIN8UnitTest15MemoryOutStreamE,"awG",@progbits,_ZTIN8UnitTest15MemoryOutSt
 13190              		.align 8
 13193              	_ZTIN8UnitTest15MemoryOutStreamE:
 13194 0000 00000000 		.quad	_ZTVN10__cxxabiv120__si_class_type_infoE+16
 13194      00000000 
 13195 0008 00000000 		.quad	_ZTSN8UnitTest15MemoryOutStreamE
 13195      00000000 
 13196 0010 00000000 		.quad	_ZTINSt7__cxx1119basic_ostringstreamIcSt11char_traitsIcESaIcEEE
 13196      00000000 
 13197              		.weak	_ZTSN8UnitTest15MemoryOutStreamE
 13198              		.section	.rodata._ZTSN8UnitTest15MemoryOutStreamE,"aG",@progbits,_ZTSN8UnitTest15MemoryOutStreamE,
 13199              		.align 16
 13202              	_ZTSN8UnitTest15MemoryOutStreamE:
 13203 0000 4E38556E 		.string	"N8UnitTest15MemoryOutStreamE"
 13203      69745465 
 13203      73743135 
 13203      4D656D6F 
 13203      72794F75 
 13204              		.text
 13206              	_Z41__static_initialization_and_destruction_0ii:
 13207              	.LFB1316:
 13208              		.loc 3 386 1 is_stmt 1
 13209              		.cfi_startproc
 13210 5a57 F30F1EFA 		endbr64
 13211 5a5b 55       		pushq	%rbp
 13212              		.cfi_def_cfa_offset 16
 13213              		.cfi_offset 6, -16
 13214 5a5c 4889E5   		movq	%rsp, %rbp
 13215              		.cfi_def_cfa_register 6
 13216 5a5f 4883EC10 		subq	$16, %rsp
 13217 5a63 897DFC   		movl	%edi, -4(%rbp)
 13218 5a66 8975F8   		movl	%esi, -8(%rbp)
 13219              		.loc 3 386 1
 13220 5a69 837DFC01 		cmpl	$1, -4(%rbp)
 13221 5a6d 0F85EF02 		jne	.L706
 13221      0000
 13222              		.loc 3 386 1 is_stmt 0 discriminator 1
 13223 5a73 817DF8FF 		cmpl	$65535, -8(%rbp)
 13223      FF0000
 13224 5a7a 0F85E202 		jne	.L706
 13224      0000
 13225              		.file 5 "/usr/include/c++/11/iostream"
   1:/usr/include/c++/11/iostream **** // Standard iostream objects -*- C++ -*-
   2:/usr/include/c++/11/iostream **** 
   3:/usr/include/c++/11/iostream **** // Copyright (C) 1997-2021 Free Software Foundation, Inc.
   4:/usr/include/c++/11/iostream **** //
   5:/usr/include/c++/11/iostream **** // This file is part of the GNU ISO C++ Library.  This library is free
   6:/usr/include/c++/11/iostream **** // software; you can redistribute it and/or modify it under the
   7:/usr/include/c++/11/iostream **** // terms of the GNU General Public License as published by the
   8:/usr/include/c++/11/iostream **** // Free Software Foundation; either version 3, or (at your option)
   9:/usr/include/c++/11/iostream **** // any later version.
  10:/usr/include/c++/11/iostream **** 
  11:/usr/include/c++/11/iostream **** // This library is distributed in the hope that it will be useful,
  12:/usr/include/c++/11/iostream **** // but WITHOUT ANY WARRANTY; without even the implied warranty of
  13:/usr/include/c++/11/iostream **** // MERCHANTABILITY or FITNESS FOR A PARTICULAR PURPOSE.  See the
  14:/usr/include/c++/11/iostream **** // GNU General Public License for more details.
  15:/usr/include/c++/11/iostream **** 
  16:/usr/include/c++/11/iostream **** // Under Section 7 of GPL version 3, you are granted additional
  17:/usr/include/c++/11/iostream **** // permissions described in the GCC Runtime Library Exception, version
  18:/usr/include/c++/11/iostream **** // 3.1, as published by the Free Software Foundation.
  19:/usr/include/c++/11/iostream **** 
  20:/usr/include/c++/11/iostream **** // You should have received a copy of the GNU General Public License and
  21:/usr/include/c++/11/iostream **** // a copy of the GCC Runtime Library Exception along with this program;
  22:/usr/include/c++/11/iostream **** // see the files COPYING3 and COPYING.RUNTIME respectively.  If not, see
  23:/usr/include/c++/11/iostream **** // <http://www.gnu.org/licenses/>.
  24:/usr/include/c++/11/iostream **** 
  25:/usr/include/c++/11/iostream **** /** @file include/iostream
  26:/usr/include/c++/11/iostream ****  *  This is a Standard C++ Library header.
  27:/usr/include/c++/11/iostream ****  */
  28:/usr/include/c++/11/iostream **** 
  29:/usr/include/c++/11/iostream **** //
  30:/usr/include/c++/11/iostream **** // ISO C++ 14882: 27.3  Standard iostream objects
  31:/usr/include/c++/11/iostream **** //
  32:/usr/include/c++/11/iostream **** 
  33:/usr/include/c++/11/iostream **** #ifndef _GLIBCXX_IOSTREAM
  34:/usr/include/c++/11/iostream **** #define _GLIBCXX_IOSTREAM 1
  35:/usr/include/c++/11/iostream **** 
  36:/usr/include/c++/11/iostream **** #pragma GCC system_header
  37:/usr/include/c++/11/iostream **** 
  38:/usr/include/c++/11/iostream **** #include <bits/c++config.h>
  39:/usr/include/c++/11/iostream **** #include <ostream>
  40:/usr/include/c++/11/iostream **** #include <istream>
  41:/usr/include/c++/11/iostream **** 
  42:/usr/include/c++/11/iostream **** namespace std _GLIBCXX_VISIBILITY(default)
  43:/usr/include/c++/11/iostream **** {
  44:/usr/include/c++/11/iostream **** _GLIBCXX_BEGIN_NAMESPACE_VERSION
  45:/usr/include/c++/11/iostream **** 
  46:/usr/include/c++/11/iostream ****   /**
  47:/usr/include/c++/11/iostream ****    *  @name Standard Stream Objects
  48:/usr/include/c++/11/iostream ****    *
  49:/usr/include/c++/11/iostream ****    *  The &lt;iostream&gt; header declares the eight <em>standard stream
  50:/usr/include/c++/11/iostream ****    *  objects</em>.  For other declarations, see
  51:/usr/include/c++/11/iostream ****    *  http://gcc.gnu.org/onlinedocs/libstdc++/manual/io.html
  52:/usr/include/c++/11/iostream ****    *  and the @link iosfwd I/O forward declarations @endlink
  53:/usr/include/c++/11/iostream ****    *
  54:/usr/include/c++/11/iostream ****    *  They are required by default to cooperate with the global C
  55:/usr/include/c++/11/iostream ****    *  library's @c FILE streams, and to be available during program
  56:/usr/include/c++/11/iostream ****    *  startup and termination. For more information, see the section of the
  57:/usr/include/c++/11/iostream ****    *  manual linked to above.
  58:/usr/include/c++/11/iostream ****   */
  59:/usr/include/c++/11/iostream ****   ///@{
  60:/usr/include/c++/11/iostream ****   extern istream cin;		/// Linked to standard input
  61:/usr/include/c++/11/iostream ****   extern ostream cout;		/// Linked to standard output
  62:/usr/include/c++/11/iostream ****   extern ostream cerr;		/// Linked to standard error (unbuffered)
  63:/usr/include/c++/11/iostream ****   extern ostream clog;		/// Linked to standard error (buffered)
  64:/usr/include/c++/11/iostream **** 
  65:/usr/include/c++/11/iostream **** #ifdef _GLIBCXX_USE_WCHAR_T
  66:/usr/include/c++/11/iostream ****   extern wistream wcin;		/// Linked to standard input
  67:/usr/include/c++/11/iostream ****   extern wostream wcout;	/// Linked to standard output
  68:/usr/include/c++/11/iostream ****   extern wostream wcerr;	/// Linked to standard error (unbuffered)
  69:/usr/include/c++/11/iostream ****   extern wostream wclog;	/// Linked to standard error (buffered)
  70:/usr/include/c++/11/iostream **** #endif
  71:/usr/include/c++/11/iostream ****   ///@}
  72:/usr/include/c++/11/iostream **** 
  73:/usr/include/c++/11/iostream ****   // For construction of filebuffers for cout, cin, cerr, clog et. al.
  74:/usr/include/c++/11/iostream ****   static ios_base::Init __ioinit;
 13226              		.loc 5 74 25 is_stmt 1
 13227 5a80 488D0500 		leaq	_ZStL8__ioinit(%rip), %rax
 13227      000000
 13228 5a87 4889C7   		movq	%rax, %rdi
 13229 5a8a E8000000 		call	_ZNSt8ios_base4InitC1Ev@PLT
 13229      00
 13230 5a8f 488D0500 		leaq	__dso_handle(%rip), %rax
 13230      000000
 13231 5a96 4889C2   		movq	%rax, %rdx
 13232 5a99 488D0500 		leaq	_ZStL8__ioinit(%rip), %rax
 13232      000000
 13233 5aa0 4889C6   		movq	%rax, %rsi
 13234 5aa3 488B0500 		movq	_ZNSt8ios_base4InitD1Ev@GOTPCREL(%rip), %rax
 13234      000000
 13235 5aaa 4889C7   		movq	%rax, %rdi
 13236 5aad E8000000 		call	__cxa_atexit@PLT
 13236      00
  53:testCore.cpp  **** 	struct UnboundedQueue queue;
 13237              		.loc 3 53 1
 13238 5ab2 488D0500 		leaq	testQueue_testInitInstance(%rip), %rax
 13238      000000
 13239 5ab9 4889C7   		movq	%rax, %rdi
 13240 5abc E8000000 		call	_ZN18TestQueue_testInitC1Ev
 13240      00
 13241 5ac1 488D0500 		leaq	__dso_handle(%rip), %rax
 13241      000000
 13242 5ac8 4889C2   		movq	%rax, %rdx
 13243 5acb 488D0500 		leaq	testQueue_testInitInstance(%rip), %rax
 13243      000000
 13244 5ad2 4889C6   		movq	%rax, %rsi
 13245 5ad5 488D0500 		leaq	_ZN18TestQueue_testInitD1Ev(%rip), %rax
 13245      000000
 13246 5adc 4889C7   		movq	%rax, %rdi
 13247 5adf E8000000 		call	__cxa_atexit@PLT
 13247      00
 13248 5ae4 E8000000 		call	_ZN8UnitTest4Test11GetTestListEv@PLT
 13248      00
 13249 5ae9 4889C1   		movq	%rax, %rcx
 13250 5aec 488D0500 		leaq	testQueue_testInitInstance(%rip), %rax
 13250      000000
 13251 5af3 4889C2   		movq	%rax, %rdx
 13252 5af6 4889CE   		movq	%rcx, %rsi
 13253 5af9 488D0500 		leaq	adderQueue_testInit(%rip), %rax
 13253      000000
 13254 5b00 4889C7   		movq	%rax, %rdi
 13255 5b03 E8000000 		call	_ZN8UnitTest9ListAdderC1ERNS_8TestListEPNS_4TestE@PLT
 13255      00
  77:testCore.cpp  **** 	struct UnboundedQueue queue;
 13256              		.loc 3 77 1
 13257 5b08 488D0500 		leaq	testQueue_testPutNoWrapInstance(%rip), %rax
 13257      000000
 13258 5b0f 4889C7   		movq	%rax, %rdi
 13259 5b12 E8000000 		call	_ZN23TestQueue_testPutNoWrapC1Ev
 13259      00
 13260 5b17 488D0500 		leaq	__dso_handle(%rip), %rax
 13260      000000
 13261 5b1e 4889C2   		movq	%rax, %rdx
 13262 5b21 488D0500 		leaq	testQueue_testPutNoWrapInstance(%rip), %rax
 13262      000000
 13263 5b28 4889C6   		movq	%rax, %rsi
 13264 5b2b 488D0500 		leaq	_ZN23TestQueue_testPutNoWrapD1Ev(%rip), %rax
 13264      000000
 13265 5b32 4889C7   		movq	%rax, %rdi
 13266 5b35 E8000000 		call	__cxa_atexit@PLT
 13266      00
 13267 5b3a E8000000 		call	_ZN8UnitTest4Test11GetTestListEv@PLT
 13267      00
 13268 5b3f 4889C1   		movq	%rax, %rcx
 13269 5b42 488D0500 		leaq	testQueue_testPutNoWrapInstance(%rip), %rax
 13269      000000
 13270 5b49 4889C2   		movq	%rax, %rdx
 13271 5b4c 4889CE   		movq	%rcx, %rsi
 13272 5b4f 488D0500 		leaq	adderQueue_testPutNoWrap(%rip), %rax
 13272      000000
 13273 5b56 4889C7   		movq	%rax, %rdi
 13274 5b59 E8000000 		call	_ZN8UnitTest9ListAdderC1ERNS_8TestListEPNS_4TestE@PLT
 13274      00
 119:testCore.cpp  **** 	struct UnboundedQueue queue;
 13275              		.loc 3 119 1
 13276 5b5e 488D0500 		leaq	testQueue_testPutWrapInstance(%rip), %rax
 13276      000000
 13277 5b65 4889C7   		movq	%rax, %rdi
 13278 5b68 E8000000 		call	_ZN21TestQueue_testPutWrapC1Ev
 13278      00
 13279 5b6d 488D0500 		leaq	__dso_handle(%rip), %rax
 13279      000000
 13280 5b74 4889C2   		movq	%rax, %rdx
 13281 5b77 488D0500 		leaq	testQueue_testPutWrapInstance(%rip), %rax
 13281      000000
 13282 5b7e 4889C6   		movq	%rax, %rsi
 13283 5b81 488D0500 		leaq	_ZN21TestQueue_testPutWrapD1Ev(%rip), %rax
 13283      000000
 13284 5b88 4889C7   		movq	%rax, %rdi
 13285 5b8b E8000000 		call	__cxa_atexit@PLT
 13285      00
 13286 5b90 E8000000 		call	_ZN8UnitTest4Test11GetTestListEv@PLT
 13286      00
 13287 5b95 4889C1   		movq	%rax, %rcx
 13288 5b98 488D0500 		leaq	testQueue_testPutWrapInstance(%rip), %rax
 13288      000000
 13289 5b9f 4889C2   		movq	%rax, %rdx
 13290 5ba2 4889CE   		movq	%rcx, %rsi
 13291 5ba5 488D0500 		leaq	adderQueue_testPutWrap(%rip), %rax
 13291      000000
 13292 5bac 4889C7   		movq	%rax, %rdi
 13293 5baf E8000000 		call	_ZN8UnitTest9ListAdderC1ERNS_8TestListEPNS_4TestE@PLT
 13293      00
 166:testCore.cpp  **** 	struct UnboundedQueue queue;
 13294              		.loc 3 166 1
 13295 5bb4 488D0500 		leaq	testQueue_testPutTakeInstance(%rip), %rax
 13295      000000
 13296 5bbb 4889C7   		movq	%rax, %rdi
 13297 5bbe E8000000 		call	_ZN21TestQueue_testPutTakeC1Ev
 13297      00
 13298 5bc3 488D0500 		leaq	__dso_handle(%rip), %rax
 13298      000000
 13299 5bca 4889C2   		movq	%rax, %rdx
 13300 5bcd 488D0500 		leaq	testQueue_testPutTakeInstance(%rip), %rax
 13300      000000
 13301 5bd4 4889C6   		movq	%rax, %rsi
 13302 5bd7 488D0500 		leaq	_ZN21TestQueue_testPutTakeD1Ev(%rip), %rax
 13302      000000
 13303 5bde 4889C7   		movq	%rax, %rdi
 13304 5be1 E8000000 		call	__cxa_atexit@PLT
 13304      00
 13305 5be6 E8000000 		call	_ZN8UnitTest4Test11GetTestListEv@PLT
 13305      00
 13306 5beb 4889C1   		movq	%rax, %rcx
 13307 5bee 488D0500 		leaq	testQueue_testPutTakeInstance(%rip), %rax
 13307      000000
 13308 5bf5 4889C2   		movq	%rax, %rdx
 13309 5bf8 4889CE   		movq	%rcx, %rsi
 13310 5bfb 488D0500 		leaq	adderQueue_testPutTake(%rip), %rax
 13310      000000
 13311 5c02 4889C7   		movq	%rax, %rdi
 13312 5c05 E8000000 		call	_ZN8UnitTest9ListAdderC1ERNS_8TestListEPNS_4TestE@PLT
 13312      00
 324:testCore.cpp  **** 	testRealloc(0);
 13313              		.loc 3 324 1
 13314 5c0a 488D0500 		leaq	testQueue_testReallocInstance(%rip), %rax
 13314      000000
 13315 5c11 4889C7   		movq	%rax, %rdi
 13316 5c14 E8000000 		call	_ZN21TestQueue_testReallocC1Ev
 13316      00
 13317 5c19 488D0500 		leaq	__dso_handle(%rip), %rax
 13317      000000
 13318 5c20 4889C2   		movq	%rax, %rdx
 13319 5c23 488D0500 		leaq	testQueue_testReallocInstance(%rip), %rax
 13319      000000
 13320 5c2a 4889C6   		movq	%rax, %rsi
 13321 5c2d 488D0500 		leaq	_ZN21TestQueue_testReallocD1Ev(%rip), %rax
 13321      000000
 13322 5c34 4889C7   		movq	%rax, %rdi
 13323 5c37 E8000000 		call	__cxa_atexit@PLT
 13323      00
 13324 5c3c E8000000 		call	_ZN8UnitTest4Test11GetTestListEv@PLT
 13324      00
 13325 5c41 4889C1   		movq	%rax, %rcx
 13326 5c44 488D0500 		leaq	testQueue_testReallocInstance(%rip), %rax
 13326      000000
 13327 5c4b 4889C2   		movq	%rax, %rdx
 13328 5c4e 4889CE   		movq	%rcx, %rsi
 13329 5c51 488D0500 		leaq	adderQueue_testRealloc(%rip), %rax
 13329      000000
 13330 5c58 4889C7   		movq	%rax, %rdi
 13331 5c5b E8000000 		call	_ZN8UnitTest9ListAdderC1ERNS_8TestListEPNS_4TestE@PLT
 13331      00
 331:testCore.cpp  **** 	struct UnboundedQueue queue;
 13332              		.loc 3 331 1
 13333 5c60 488D0500 		leaq	testQueue_testAllocOOMInstance(%rip), %rax
 13333      000000
 13334 5c67 4889C7   		movq	%rax, %rdi
 13335 5c6a E8000000 		call	_ZN22TestQueue_testAllocOOMC1Ev
 13335      00
 13336 5c6f 488D0500 		leaq	__dso_handle(%rip), %rax
 13336      000000
 13337 5c76 4889C2   		movq	%rax, %rdx
 13338 5c79 488D0500 		leaq	testQueue_testAllocOOMInstance(%rip), %rax
 13338      000000
 13339 5c80 4889C6   		movq	%rax, %rsi
 13340 5c83 488D0500 		leaq	_ZN22TestQueue_testAllocOOMD1Ev(%rip), %rax
 13340      000000
 13341 5c8a 4889C7   		movq	%rax, %rdi
 13342 5c8d E8000000 		call	__cxa_atexit@PLT
 13342      00
 13343 5c92 E8000000 		call	_ZN8UnitTest4Test11GetTestListEv@PLT
 13343      00
 13344 5c97 4889C1   		movq	%rax, %rcx
 13345 5c9a 488D0500 		leaq	testQueue_testAllocOOMInstance(%rip), %rax
 13345      000000
 13346 5ca1 4889C2   		movq	%rax, %rdx
 13347 5ca4 4889CE   		movq	%rcx, %rsi
 13348 5ca7 488D0500 		leaq	adderQueue_testAllocOOM(%rip), %rax
 13348      000000
 13349 5cae 4889C7   		movq	%rax, %rdi
 13350 5cb1 E8000000 		call	_ZN8UnitTest9ListAdderC1ERNS_8TestListEPNS_4TestE@PLT
 13350      00
 342:testCore.cpp  **** 	struct UnboundedQueue queue;
 13351              		.loc 3 342 1
 13352 5cb6 488D0500 		leaq	testQueue_testReallocOOMInstance(%rip), %rax
 13352      000000
 13353 5cbd 4889C7   		movq	%rax, %rdi
 13354 5cc0 E8000000 		call	_ZN24TestQueue_testReallocOOMC1Ev
 13354      00
 13355 5cc5 488D0500 		leaq	__dso_handle(%rip), %rax
 13355      000000
 13356 5ccc 4889C2   		movq	%rax, %rdx
 13357 5ccf 488D0500 		leaq	testQueue_testReallocOOMInstance(%rip), %rax
 13357      000000
 13358 5cd6 4889C6   		movq	%rax, %rsi
 13359 5cd9 488D0500 		leaq	_ZN24TestQueue_testReallocOOMD1Ev(%rip), %rax
 13359      000000
 13360 5ce0 4889C7   		movq	%rax, %rdi
 13361 5ce3 E8000000 		call	__cxa_atexit@PLT
 13361      00
 13362 5ce8 E8000000 		call	_ZN8UnitTest4Test11GetTestListEv@PLT
 13362      00
 13363 5ced 4889C1   		movq	%rax, %rcx
 13364 5cf0 488D0500 		leaq	testQueue_testReallocOOMInstance(%rip), %rax
 13364      000000
 13365 5cf7 4889C2   		movq	%rax, %rdx
 13366 5cfa 4889CE   		movq	%rcx, %rsi
 13367 5cfd 488D0500 		leaq	adderQueue_testReallocOOM(%rip), %rax
 13367      000000
 13368 5d04 4889C7   		movq	%rax, %rdi
 13369 5d07 E8000000 		call	_ZN8UnitTest9ListAdderC1ERNS_8TestListEPNS_4TestE@PLT
 13369      00
 384:testCore.cpp  **** 	CHECK_EQUAL(0, m_allocFree);
 13370              		.loc 3 384 1
 13371 5d0c 488D0500 		leaq	testQueue_testAllocFreeMatchingInstance(%rip), %rax
 13371      000000
 13372 5d13 4889C7   		movq	%rax, %rdi
 13373 5d16 E8000000 		call	_ZN31TestQueue_testAllocFreeMatchingC1Ev
 13373      00
 13374 5d1b 488D0500 		leaq	__dso_handle(%rip), %rax
 13374      000000
 13375 5d22 4889C2   		movq	%rax, %rdx
 13376 5d25 488D0500 		leaq	testQueue_testAllocFreeMatchingInstance(%rip), %rax
 13376      000000
 13377 5d2c 4889C6   		movq	%rax, %rsi
 13378 5d2f 488D0500 		leaq	_ZN31TestQueue_testAllocFreeMatchingD1Ev(%rip), %rax
 13378      000000
 13379 5d36 4889C7   		movq	%rax, %rdi
 13380 5d39 E8000000 		call	__cxa_atexit@PLT
 13380      00
 13381 5d3e E8000000 		call	_ZN8UnitTest4Test11GetTestListEv@PLT
 13381      00
 13382 5d43 4889C1   		movq	%rax, %rcx
 13383 5d46 488D0500 		leaq	testQueue_testAllocFreeMatchingInstance(%rip), %rax
 13383      000000
 13384 5d4d 4889C2   		movq	%rax, %rdx
 13385 5d50 4889CE   		movq	%rcx, %rsi
 13386 5d53 488D0500 		leaq	adderQueue_testAllocFreeMatching(%rip), %rax
 13386      000000
 13387 5d5a 4889C7   		movq	%rax, %rdi
 13388 5d5d E8000000 		call	_ZN8UnitTest9ListAdderC1ERNS_8TestListEPNS_4TestE@PLT
 13388      00
 13389              	.L706:
 13390              		.loc 3 386 1
 13391 5d62 90       		nop
 13392 5d63 C9       		leave
 13393              		.cfi_def_cfa 7, 8
 13394 5d64 C3       		ret
 13395              		.cfi_endproc
 13396              	.LFE1316:
 13399              	_GLOBAL__sub_I_createInt:
 13400              	.LFB1317:
 13401              		.loc 3 386 1
 13402              		.cfi_startproc
 13403 5d65 F30F1EFA 		endbr64
 13404 5d69 55       		pushq	%rbp
 13405              		.cfi_def_cfa_offset 16
 13406              		.cfi_offset 6, -16
 13407 5d6a 4889E5   		movq	%rsp, %rbp
 13408              		.cfi_def_cfa_register 6
 13409              		.loc 3 386 1
 13410 5d6d BEFFFF00 		movl	$65535, %esi
 13410      00
 13411 5d72 BF010000 		movl	$1, %edi
 13411      00
 13412 5d77 E8DBFCFF 		call	_Z41__static_initialization_and_destruction_0ii
 13412      FF
 13413 5d7c 5D       		popq	%rbp
 13414              		.cfi_def_cfa 7, 8
 13415 5d7d C3       		ret
 13416              		.cfi_endproc
 13417              	.LFE1317:
 13419              		.section	.init_array,"aw"
 13420              		.align 8
 13421 0000 00000000 		.quad	_GLOBAL__sub_I_createInt
 13421      00000000 
 13422              		.text
 13423              	.Letext0:
 13424              		.file 6 "<built-in>"
 13425              		.file 7 "/usr/lib/gcc/x86_64-linux-gnu/11/include/stddef.h"
 13426              		.file 8 "/usr/include/x86_64-linux-gnu/bits/types/wint_t.h"
 13427              		.file 9 "/usr/include/x86_64-linux-gnu/bits/types/__mbstate_t.h"
 13428              		.file 10 "/usr/include/x86_64-linux-gnu/bits/types/mbstate_t.h"
 13429              		.file 11 "/usr/include/x86_64-linux-gnu/bits/types/__FILE.h"
 13430              		.file 12 "/usr/include/x86_64-linux-gnu/bits/types/struct_FILE.h"
 13431              		.file 13 "/usr/include/c++/11/cwchar"
 13432              		.file 14 "/usr/include/c++/11/bits/char_traits.h"
 13433              		.file 15 "/usr/include/x86_64-linux-gnu/c++/11/bits/c++config.h"
 13434              		.file 16 "/usr/include/c++/11/clocale"
 13435              		.file 17 "/usr/include/c++/11/bits/allocator.h"
 13436              		.file 18 "/usr/include/c++/11/bits/basic_string.h"
 13437              		.file 19 "/usr/include/c++/11/bits/basic_string.tcc"
 13438              		.file 20 "/usr/include/c++/11/sstream"
 13439              		.file 21 "/usr/include/c++/11/bits/stringfwd.h"
 13440              		.file 22 "/usr/include/c++/11/bits/ios_base.h"
 13441              		.file 23 "/usr/include/c++/11/cwctype"
 13442              		.file 24 "/usr/include/c++/11/bits/ostream.tcc"
 13443              		.file 25 "/usr/include/c++/11/ostream"
 13444              		.file 26 "/usr/include/c++/11/cstdlib"
 13445              		.file 27 "/usr/include/c++/11/bits/basic_ios.h"
 13446              		.file 28 "/usr/include/wchar.h"
 13447              		.file 29 "/usr/include/x86_64-linux-gnu/bits/types/struct_tm.h"
 13448              		.file 30 "/usr/include/c++/11/debug/debug.h"
 13449              		.file 31 "/usr/include/c++/11/bits/predefined_ops.h"
 13450              		.file 32 "/usr/include/c++/11/ext/new_allocator.h"
 13451              		.file 33 "/usr/include/c++/11/ext/alloc_traits.h"
 13452              		.file 34 "/usr/include/locale.h"
 13453              		.file 35 "/usr/include/x86_64-linux-gnu/bits/types.h"
 13454              		.file 36 "/usr/include/x86_64-linux-gnu/bits/wctype-wchar.h"
 13455              		.file 37 "/usr/include/wctype.h"
 13456              		.file 38 "/usr/include/stdlib.h"
 13457              		.file 39 "/home/pong/FPGALink/makestuff/libs/libutpp/TestDetails.h"
 13458              		.file 40 "/home/pong/FPGALink/makestuff/libs/libutpp/TestList.h"
 13459              		.file 41 "/home/pong/FPGALink/makestuff/libs/libutpp/Test.h"
 13460              		.file 42 "/home/pong/FPGALink/makestuff/libs/libutpp/TestResults.h"
 13461              		.file 43 "/home/pong/FPGALink/makestuff/libs/libutpp/CurrentTest.h"
 13462              		.file 44 "/home/pong/FPGALink/makestuff/common/makestuff.h"
 13463              		.file 45 "../libusbwrap.h"
 13464              		.file 46 "../unbounded_queue.h"
 13465              		.file 47 "/usr/include/c++/11/new"
 27211              		.align 8
 27214              	DW.ref.__gxx_personality_v0:
 27215 0000 00000000 		.quad	__gxx_personality_v0
 27215      00000000 
 27216              		.hidden	__dso_handle
 27217              		.ident	"GCC: (Ubuntu 11.3.0-1ubuntu1~22.04) 11.3.0"
 27218              		.section	.note.GNU-stack,"",@progbits
 27219              		.section	.note.gnu.property,"a"
 27220              		.align 8
 27221 0000 04000000 		.long	1f - 0f
 27222 0004 10000000 		.long	4f - 1f
 27223 0008 05000000 		.long	5
 27224              	0:
 27225 000c 474E5500 		.string	"GNU"
 27226              	1:
 27227              		.align 8
 27228 0010 020000C0 		.long	0xc0000002
 27229 0014 04000000 		.long	3f - 2f
 27230              	2:
 27231 0018 03000000 		.long	0x3
 27232              	3:
 27233 001c 00000000 		.align 8
 27234              	4:
DEFINED SYMBOLS
                            *ABS*:0000000000000000 testCore.cpp
                             .bss:00000000000001f9 _ZStL8__ioinit
     /tmp/cc32kYuY.s:13     .text._ZN13UnitTestSuite12GetSuiteNameEv:0000000000000000 _ZN13UnitTestSuite12GetSuiteNameEv
     /tmp/cc32kYuY.s:37     .text._ZN8UnitTest15MemoryOutStreamC1Ev:0000000000000000 _ZN8UnitTest15MemoryOutStreamC1Ev
     /tmp/cc32kYuY.s:27214  .data.rel.local.DW.ref.__gxx_personality_v0:0000000000000000 DW.ref.__gxx_personality_v0
     /tmp/cc32kYuY.s:13019  .data.rel.ro.local._ZTTN8UnitTest15MemoryOutStreamE:0000000000000000 _ZTTN8UnitTest15MemoryOutStreamE
     /tmp/cc32kYuY.s:13003  .data.rel.ro.local._ZTVN8UnitTest15MemoryOutStreamE:0000000000000000 _ZTVN8UnitTest15MemoryOutStreamE
     /tmp/cc32kYuY.s:150    .data:0000000000000000 _ZL7m_count
     /tmp/cc32kYuY.s:153    .bss:00000000000001fc _ZL11m_allocFree
     /tmp/cc32kYuY.s:157    .text:0000000000000000 createInt
     /tmp/cc32kYuY.s:209    .text:000000000000005d destroyInt
     /tmp/cc32kYuY.s:242    .text:0000000000000092 _ZL5derefPKv
     /tmp/cc32kYuY.s:271    .text._ZN18TestQueue_testInitC2Ev:0000000000000000 _ZN18TestQueue_testInitC2Ev
     /tmp/cc32kYuY.s:12890  .data.rel.ro.local._ZTV18TestQueue_testInit:0000000000000000 _ZTV18TestQueue_testInit
     /tmp/cc32kYuY.s:271    .text._ZN18TestQueue_testInitC2Ev:0000000000000000 _ZN18TestQueue_testInitC1Ev
     /tmp/cc32kYuY.s:316    .bss:0000000000000000 testQueue_testInitInstance
     /tmp/cc32kYuY.s:321    .bss:0000000000000038 adderQueue_testInit
     /tmp/cc32kYuY.s:355    .text:00000000000000a2 _ZNK18TestQueue_testInit7RunImplEv
     /tmp/cc32kYuY.s:11505  .text._ZN8UnitTest10CheckEqualI9USBStatusS1_EEvRNS_11TestResultsERKT_RKT0_RKNS_11TestDetailsE:0000000000000000 _ZN8UnitTest10CheckEqualI9USBStatusS1_EEvRNS_11TestResultsERKT_RKT0_RKNS_11TestDetailsE
     /tmp/cc32kYuY.s:11653  .text._ZN8UnitTest10CheckEqualImmEEvRNS_11TestResultsERKT_RKT0_RKNS_11TestDetailsE:0000000000000000 _ZN8UnitTest10CheckEqualImmEEvRNS_11TestResultsERKT_RKT0_RKNS_11TestDetailsE
     /tmp/cc32kYuY.s:11801  .text._ZN8UnitTest10CheckEqualImjEEvRNS_11TestResultsERKT_RKT0_RKNS_11TestDetailsE:0000000000000000 _ZN8UnitTest10CheckEqualImjEEvRNS_11TestResultsERKT_RKT0_RKNS_11TestDetailsE
     /tmp/cc32kYuY.s:1155   .text._ZN23TestQueue_testPutNoWrapC2Ev:0000000000000000 _ZN23TestQueue_testPutNoWrapC2Ev
     /tmp/cc32kYuY.s:12777  .data.rel.ro.local._ZTV23TestQueue_testPutNoWrap:0000000000000000 _ZTV23TestQueue_testPutNoWrap
     /tmp/cc32kYuY.s:1155   .text._ZN23TestQueue_testPutNoWrapC2Ev:0000000000000000 _ZN23TestQueue_testPutNoWrapC1Ev
     /tmp/cc32kYuY.s:1200   .bss:0000000000000040 testQueue_testPutNoWrapInstance
     /tmp/cc32kYuY.s:1205   .bss:0000000000000078 adderQueue_testPutNoWrap
     /tmp/cc32kYuY.s:1236   .text:0000000000000782 _ZNK23TestQueue_testPutNoWrap7RunImplEv
     /tmp/cc32kYuY.s:2564   .text._ZN21TestQueue_testPutWrapC2Ev:0000000000000000 _ZN21TestQueue_testPutWrapC2Ev
     /tmp/cc32kYuY.s:12664  .data.rel.ro.local._ZTV21TestQueue_testPutWrap:0000000000000000 _ZTV21TestQueue_testPutWrap
     /tmp/cc32kYuY.s:2564   .text._ZN21TestQueue_testPutWrapC2Ev:0000000000000000 _ZN21TestQueue_testPutWrapC1Ev
     /tmp/cc32kYuY.s:2609   .bss:0000000000000080 testQueue_testPutWrapInstance
     /tmp/cc32kYuY.s:2614   .bss:00000000000000b8 adderQueue_testPutWrap
     /tmp/cc32kYuY.s:2630   .text:000000000000130e _ZNK21TestQueue_testPutWrap7RunImplEv
     /tmp/cc32kYuY.s:4132   .text._ZN21TestQueue_testPutTakeC2Ev:0000000000000000 _ZN21TestQueue_testPutTakeC2Ev
     /tmp/cc32kYuY.s:12551  .data.rel.ro.local._ZTV21TestQueue_testPutTake:0000000000000000 _ZTV21TestQueue_testPutTake
     /tmp/cc32kYuY.s:4132   .text._ZN21TestQueue_testPutTakeC2Ev:0000000000000000 _ZN21TestQueue_testPutTakeC1Ev
     /tmp/cc32kYuY.s:4177   .bss:00000000000000c0 testQueue_testPutTakeInstance
     /tmp/cc32kYuY.s:4182   .bss:00000000000000f8 adderQueue_testPutTake
     /tmp/cc32kYuY.s:4201   .text:0000000000002020 _ZNK21TestQueue_testPutTake7RunImplEv
     /tmp/cc32kYuY.s:6449   .text:000000000000331d _Z11testReallocm
     /tmp/cc32kYuY.s:9725   .text._ZN21TestQueue_testReallocC2Ev:0000000000000000 _ZN21TestQueue_testReallocC2Ev
     /tmp/cc32kYuY.s:12438  .data.rel.ro.local._ZTV21TestQueue_testRealloc:0000000000000000 _ZTV21TestQueue_testRealloc
     /tmp/cc32kYuY.s:9725   .text._ZN21TestQueue_testReallocC2Ev:0000000000000000 _ZN21TestQueue_testReallocC1Ev
     /tmp/cc32kYuY.s:9770   .bss:0000000000000100 testQueue_testReallocInstance
     /tmp/cc32kYuY.s:9775   .bss:0000000000000138 adderQueue_testRealloc
     /tmp/cc32kYuY.s:9781   .text:0000000000004fec _ZNK21TestQueue_testRealloc7RunImplEv
     /tmp/cc32kYuY.s:9820   .text._ZN22TestQueue_testAllocOOMC2Ev:0000000000000000 _ZN22TestQueue_testAllocOOMC2Ev
     /tmp/cc32kYuY.s:12325  .data.rel.ro.local._ZTV22TestQueue_testAllocOOM:0000000000000000 _ZTV22TestQueue_testAllocOOM
     /tmp/cc32kYuY.s:9820   .text._ZN22TestQueue_testAllocOOMC2Ev:0000000000000000 _ZN22TestQueue_testAllocOOMC1Ev
     /tmp/cc32kYuY.s:9865   .bss:0000000000000140 testQueue_testAllocOOMInstance
     /tmp/cc32kYuY.s:9870   .bss:0000000000000178 adderQueue_testAllocOOM
     /tmp/cc32kYuY.s:9880   .text:0000000000005028 _ZNK22TestQueue_testAllocOOM7RunImplEv
     /tmp/cc32kYuY.s:10045  .text._ZN24TestQueue_testReallocOOMC2Ev:0000000000000000 _ZN24TestQueue_testReallocOOMC2Ev
     /tmp/cc32kYuY.s:12212  .data.rel.ro.local._ZTV24TestQueue_testReallocOOM:0000000000000000 _ZTV24TestQueue_testReallocOOM
     /tmp/cc32kYuY.s:10045  .text._ZN24TestQueue_testReallocOOMC2Ev:0000000000000000 _ZN24TestQueue_testReallocOOMC1Ev
     /tmp/cc32kYuY.s:10090  .bss:0000000000000180 testQueue_testReallocOOMInstance
     /tmp/cc32kYuY.s:10095  .bss:00000000000001b8 adderQueue_testReallocOOM
     /tmp/cc32kYuY.s:10101  .text:000000000000514a _ZNK24TestQueue_testReallocOOM7RunImplEv
     /tmp/cc32kYuY.s:11099  .text._ZN31TestQueue_testAllocFreeMatchingC2Ev:0000000000000000 _ZN31TestQueue_testAllocFreeMatchingC2Ev
     /tmp/cc32kYuY.s:12099  .data.rel.ro.local._ZTV31TestQueue_testAllocFreeMatching:0000000000000000 _ZTV31TestQueue_testAllocFreeMatching
     /tmp/cc32kYuY.s:11099  .text._ZN31TestQueue_testAllocFreeMatchingC2Ev:0000000000000000 _ZN31TestQueue_testAllocFreeMatchingC1Ev
     /tmp/cc32kYuY.s:11144  .bss:00000000000001c0 testQueue_testAllocFreeMatchingInstance
     /tmp/cc32kYuY.s:11149  .bss:00000000000001f8 adderQueue_testAllocFreeMatching
     /tmp/cc32kYuY.s:11159  .text:0000000000005972 _ZNK31TestQueue_testAllocFreeMatching7RunImplEv
     /tmp/cc32kYuY.s:11950  .text._ZN8UnitTest10CheckEqualIiiEEvRNS_11TestResultsERKT_RKT0_RKNS_11TestDetailsE:0000000000000000 _ZN8UnitTest10CheckEqualIiiEEvRNS_11TestResultsERKT_RKT0_RKNS_11TestDetailsE
     /tmp/cc32kYuY.s:11293  .text._ZN8UnitTest15MemoryOutStreamD1Ev:0000000000000000 _ZN8UnitTest15MemoryOutStreamD1Ev
     /tmp/cc32kYuY.s:11404  .text._ZN8UnitTest15MemoryOutStreamD1Ev:00000000000000b6 _ZTv0_n24_N8UnitTest15MemoryOutStreamD1Ev
     /tmp/cc32kYuY.s:11419  .text._ZN8UnitTest15MemoryOutStreamD0Ev:0000000000000000 _ZN8UnitTest15MemoryOutStreamD0Ev
     /tmp/cc32kYuY.s:11486  .text._ZN8UnitTest15MemoryOutStreamD0Ev:000000000000004f _ZTv0_n24_N8UnitTest15MemoryOutStreamD0Ev
     /tmp/cc32kYuY.s:13065  .data.rel.ro._ZTI31TestQueue_testAllocFreeMatching:0000000000000000 _ZTI31TestQueue_testAllocFreeMatching
     /tmp/cc32kYuY.s:12109  .text._ZN31TestQueue_testAllocFreeMatchingD2Ev:0000000000000000 _ZN31TestQueue_testAllocFreeMatchingD1Ev
     /tmp/cc32kYuY.s:12143  .text._ZN31TestQueue_testAllocFreeMatchingD0Ev:0000000000000000 _ZN31TestQueue_testAllocFreeMatchingD0Ev
     /tmp/cc32kYuY.s:12109  .text._ZN31TestQueue_testAllocFreeMatchingD2Ev:0000000000000000 _ZN31TestQueue_testAllocFreeMatchingD2Ev
     /tmp/cc32kYuY.s:13081  .data.rel.ro._ZTI24TestQueue_testReallocOOM:0000000000000000 _ZTI24TestQueue_testReallocOOM
     /tmp/cc32kYuY.s:12222  .text._ZN24TestQueue_testReallocOOMD2Ev:0000000000000000 _ZN24TestQueue_testReallocOOMD1Ev
     /tmp/cc32kYuY.s:12256  .text._ZN24TestQueue_testReallocOOMD0Ev:0000000000000000 _ZN24TestQueue_testReallocOOMD0Ev
     /tmp/cc32kYuY.s:12222  .text._ZN24TestQueue_testReallocOOMD2Ev:0000000000000000 _ZN24TestQueue_testReallocOOMD2Ev
     /tmp/cc32kYuY.s:13097  .data.rel.ro._ZTI22TestQueue_testAllocOOM:0000000000000000 _ZTI22TestQueue_testAllocOOM
     /tmp/cc32kYuY.s:12335  .text._ZN22TestQueue_testAllocOOMD2Ev:0000000000000000 _ZN22TestQueue_testAllocOOMD1Ev
     /tmp/cc32kYuY.s:12369  .text._ZN22TestQueue_testAllocOOMD0Ev:0000000000000000 _ZN22TestQueue_testAllocOOMD0Ev
     /tmp/cc32kYuY.s:12335  .text._ZN22TestQueue_testAllocOOMD2Ev:0000000000000000 _ZN22TestQueue_testAllocOOMD2Ev
     /tmp/cc32kYuY.s:13113  .data.rel.ro._ZTI21TestQueue_testRealloc:0000000000000000 _ZTI21TestQueue_testRealloc
     /tmp/cc32kYuY.s:12448  .text._ZN21TestQueue_testReallocD2Ev:0000000000000000 _ZN21TestQueue_testReallocD1Ev
     /tmp/cc32kYuY.s:12482  .text._ZN21TestQueue_testReallocD0Ev:0000000000000000 _ZN21TestQueue_testReallocD0Ev
     /tmp/cc32kYuY.s:12448  .text._ZN21TestQueue_testReallocD2Ev:0000000000000000 _ZN21TestQueue_testReallocD2Ev
     /tmp/cc32kYuY.s:13129  .data.rel.ro._ZTI21TestQueue_testPutTake:0000000000000000 _ZTI21TestQueue_testPutTake
     /tmp/cc32kYuY.s:12561  .text._ZN21TestQueue_testPutTakeD2Ev:0000000000000000 _ZN21TestQueue_testPutTakeD1Ev
     /tmp/cc32kYuY.s:12595  .text._ZN21TestQueue_testPutTakeD0Ev:0000000000000000 _ZN21TestQueue_testPutTakeD0Ev
     /tmp/cc32kYuY.s:12561  .text._ZN21TestQueue_testPutTakeD2Ev:0000000000000000 _ZN21TestQueue_testPutTakeD2Ev
     /tmp/cc32kYuY.s:13145  .data.rel.ro._ZTI21TestQueue_testPutWrap:0000000000000000 _ZTI21TestQueue_testPutWrap
     /tmp/cc32kYuY.s:12674  .text._ZN21TestQueue_testPutWrapD2Ev:0000000000000000 _ZN21TestQueue_testPutWrapD1Ev
     /tmp/cc32kYuY.s:12708  .text._ZN21TestQueue_testPutWrapD0Ev:0000000000000000 _ZN21TestQueue_testPutWrapD0Ev
     /tmp/cc32kYuY.s:12674  .text._ZN21TestQueue_testPutWrapD2Ev:0000000000000000 _ZN21TestQueue_testPutWrapD2Ev
     /tmp/cc32kYuY.s:13161  .data.rel.ro._ZTI23TestQueue_testPutNoWrap:0000000000000000 _ZTI23TestQueue_testPutNoWrap
     /tmp/cc32kYuY.s:12787  .text._ZN23TestQueue_testPutNoWrapD2Ev:0000000000000000 _ZN23TestQueue_testPutNoWrapD1Ev
     /tmp/cc32kYuY.s:12821  .text._ZN23TestQueue_testPutNoWrapD0Ev:0000000000000000 _ZN23TestQueue_testPutNoWrapD0Ev
     /tmp/cc32kYuY.s:12787  .text._ZN23TestQueue_testPutNoWrapD2Ev:0000000000000000 _ZN23TestQueue_testPutNoWrapD2Ev
     /tmp/cc32kYuY.s:13177  .data.rel.ro._ZTI18TestQueue_testInit:0000000000000000 _ZTI18TestQueue_testInit
     /tmp/cc32kYuY.s:12900  .text._ZN18TestQueue_testInitD2Ev:0000000000000000 _ZN18TestQueue_testInitD1Ev
     /tmp/cc32kYuY.s:12934  .text._ZN18TestQueue_testInitD0Ev:0000000000000000 _ZN18TestQueue_testInitD0Ev
     /tmp/cc32kYuY.s:12900  .text._ZN18TestQueue_testInitD2Ev:0000000000000000 _ZN18TestQueue_testInitD2Ev
     /tmp/cc32kYuY.s:13193  .data.rel.ro._ZTIN8UnitTest15MemoryOutStreamE:0000000000000000 _ZTIN8UnitTest15MemoryOutStreamE
     /tmp/cc32kYuY.s:13032  .data.rel.ro._ZTCN8UnitTest15MemoryOutStreamE0_NSt7__cxx1119basic_ostringstreamIcSt11char_traitsIcESaIcEEE:0000000000000000 _ZTCN8UnitTest15MemoryOutStreamE0_NSt7__cxx1119basic_ostringstreamIcSt11char_traitsIcESaIcEEE
     /tmp/cc32kYuY.s:13049  .data.rel.ro._ZTCN8UnitTest15MemoryOutStreamE0_So:0000000000000000 _ZTCN8UnitTest15MemoryOutStreamE0_So
     /tmp/cc32kYuY.s:13074  .rodata._ZTS31TestQueue_testAllocFreeMatching:0000000000000000 _ZTS31TestQueue_testAllocFreeMatching
     /tmp/cc32kYuY.s:13090  .rodata._ZTS24TestQueue_testReallocOOM:0000000000000000 _ZTS24TestQueue_testReallocOOM
     /tmp/cc32kYuY.s:13106  .rodata._ZTS22TestQueue_testAllocOOM:0000000000000000 _ZTS22TestQueue_testAllocOOM
     /tmp/cc32kYuY.s:13122  .rodata._ZTS21TestQueue_testRealloc:0000000000000000 _ZTS21TestQueue_testRealloc
     /tmp/cc32kYuY.s:13138  .rodata._ZTS21TestQueue_testPutTake:0000000000000000 _ZTS21TestQueue_testPutTake
     /tmp/cc32kYuY.s:13154  .rodata._ZTS21TestQueue_testPutWrap:0000000000000000 _ZTS21TestQueue_testPutWrap
     /tmp/cc32kYuY.s:13170  .rodata._ZTS23TestQueue_testPutNoWrap:0000000000000000 _ZTS23TestQueue_testPutNoWrap
     /tmp/cc32kYuY.s:13186  .rodata._ZTS18TestQueue_testInit:0000000000000000 _ZTS18TestQueue_testInit
     /tmp/cc32kYuY.s:13202  .rodata._ZTSN8UnitTest15MemoryOutStreamE:0000000000000000 _ZTSN8UnitTest15MemoryOutStreamE
     /tmp/cc32kYuY.s:13206  .text:0000000000005a57 _Z41__static_initialization_and_destruction_0ii
     /tmp/cc32kYuY.s:13399  .text:0000000000005d65 _GLOBAL__sub_I_createInt
                           .group:0000000000000000 _ZN18TestQueue_testInitC5Ev
                           .group:0000000000000000 _ZN23TestQueue_testPutNoWrapC5Ev
                           .group:0000000000000000 _ZN21TestQueue_testPutWrapC5Ev
                           .group:0000000000000000 _ZN21TestQueue_testPutTakeC5Ev
                           .group:0000000000000000 _ZN21TestQueue_testReallocC5Ev
                           .group:0000000000000000 _ZN22TestQueue_testAllocOOMC5Ev
                           .group:0000000000000000 _ZN24TestQueue_testReallocOOMC5Ev
                           .group:0000000000000000 _ZN31TestQueue_testAllocFreeMatchingC5Ev
                           .group:0000000000000000 _ZN31TestQueue_testAllocFreeMatchingD5Ev
                           .group:0000000000000000 _ZN24TestQueue_testReallocOOMD5Ev
                           .group:0000000000000000 _ZN22TestQueue_testAllocOOMD5Ev
                           .group:0000000000000000 _ZN21TestQueue_testReallocD5Ev
                           .group:0000000000000000 _ZN21TestQueue_testPutTakeD5Ev
                           .group:0000000000000000 _ZN21TestQueue_testPutWrapD5Ev
                           .group:0000000000000000 _ZN23TestQueue_testPutNoWrapD5Ev
                           .group:0000000000000000 _ZN18TestQueue_testInitD5Ev

UNDEFINED SYMBOLS
_ZNSt9basic_iosIcSt11char_traitsIcEEC2Ev
_ZNSt7__cxx1119basic_ostringstreamIcSt11char_traitsIcESaIcEEC2Ev
_ZNSt7__cxx1112basic_stringIcSt11char_traitsIcESaIcEEC1Ev
_ZNSt7__cxx1119basic_ostringstreamIcSt11char_traitsIcESaIcEED2Ev
_ZNSt9basic_iosIcSt11char_traitsIcEED2Ev
_Unwind_Resume
__gxx_personality_v0
malloc
free
_ZN8UnitTest4TestC2EPKcS2_S2_i
queueInit
_ZN8UnitTest11CurrentTest7DetailsEv
_ZN8UnitTest11TestDetailsC1ERKS0_i
_ZN8UnitTest11CurrentTest7ResultsEv
queueDestroy
__cxa_begin_catch
_ZN8UnitTest11TestResults13OnTestFailureERKNS_11TestDetailsEPKc
__cxa_end_catch
__stack_chk_fail
queuePut
queueCommitPut
queueTake
queueCommitTake
_ZNSt7__cxx1112basic_stringIcSt11char_traitsIcESaIcEED1Ev
_ZdlPv
_ZStlsISt11char_traitsIcEERSt13basic_ostreamIcT_ES5_PKc
_ZNSolsEi
_ZNK8UnitTest15MemoryOutStream7GetTextEv
_ZNSolsEm
_ZNSolsEj
_ZN8UnitTest4TestD2Ev
_ZTINSt7__cxx1119basic_ostringstreamIcSt11char_traitsIcESaIcEEE
_ZTISo
_ZTVN10__cxxabiv120__si_class_type_infoE
_ZTIN8UnitTest4TestE
_ZNSt8ios_base4InitC1Ev
__dso_handle
_GLOBAL_OFFSET_TABLE_
_ZNSt8ios_base4InitD1Ev
__cxa_atexit
_ZN8UnitTest4Test11GetTestListEv
_ZN8UnitTest9ListAdderC1ERNS_8TestListEPNS_4TestE
