   1              		.file	"testI2C.cpp"
   2              		.text
   3              		.section	.text._ZN26TestI2C_testFinaliseNoInitD2Ev,"axG",@progbits,_ZN26TestI2C_testFinaliseNoInit
   4              		.align 2
   5              		.p2align 4
   6              		.weak	_ZN26TestI2C_testFinaliseNoInitD2Ev
   8              	_ZN26TestI2C_testFinaliseNoInitD2Ev:
   9              	.LFB1320:
  10              		.cfi_startproc
  11 0000 F30F1EFA 		endbr64
  12 0004 488D0500 		leaq	16+_ZTV26TestI2C_testFinaliseNoInit(%rip), %rax
  12      000000
  13 000b 488907   		movq	%rax, (%rdi)
  14 000e E9000000 		jmp	_ZN8UnitTest4TestD2Ev@PLT
  14      00
  15              		.cfi_endproc
  16              	.LFE1320:
  18              		.weak	_ZN26TestI2C_testFinaliseNoInitD1Ev
  19              		.set	_ZN26TestI2C_testFinaliseNoInitD1Ev,_ZN26TestI2C_testFinaliseNoInitD2Ev
  20              		.section	.text._ZN26TestI2C_testFinaliseNoInitD0Ev,"axG",@progbits,_ZN26TestI2C_testFinaliseNoInit
  21              		.align 2
  22              		.p2align 4
  23              		.weak	_ZN26TestI2C_testFinaliseNoInitD0Ev
  25              	_ZN26TestI2C_testFinaliseNoInitD0Ev:
  26              	.LFB1322:
  27              		.cfi_startproc
  28              		.cfi_personality 0x9b,DW.ref.__gxx_personality_v0
  29              		.cfi_lsda 0x1b,.LLSDA1322
  30 0000 F30F1EFA 		endbr64
  31 0004 4154     		pushq	%r12
  32              		.cfi_def_cfa_offset 16
  33              		.cfi_offset 12, -16
  34 0006 488D0500 		leaq	16+_ZTV26TestI2C_testFinaliseNoInit(%rip), %rax
  34      000000
  35 000d 55       		pushq	%rbp
  36              		.cfi_def_cfa_offset 24
  37              		.cfi_offset 6, -24
  38 000e 4889FD   		movq	%rdi, %rbp
  39 0011 4883EC08 		subq	$8, %rsp
  40              		.cfi_def_cfa_offset 32
  41 0015 488907   		movq	%rax, (%rdi)
  42              	.LEHB0:
  43 0018 E8000000 		call	_ZN8UnitTest4TestD2Ev@PLT
  43      00
  44              	.LEHE0:
  45 001d 4883C408 		addq	$8, %rsp
  46              		.cfi_remember_state
  47              		.cfi_def_cfa_offset 24
  48 0021 4889EF   		movq	%rbp, %rdi
  49 0024 5D       		popq	%rbp
  50              		.cfi_def_cfa_offset 16
  51 0025 415C     		popq	%r12
  52              		.cfi_def_cfa_offset 8
  53 0027 E9000000 		jmp	_ZdlPv@PLT
  53      00
  54              	.L5:
  55              		.cfi_restore_state
  56 002c F30F1EFA 		endbr64
  57 0030 4989C4   		movq	%rax, %r12
  58              	.L4:
  59 0033 4889EF   		movq	%rbp, %rdi
  60 0036 E8000000 		call	_ZdlPv@PLT
  60      00
  61 003b 4C89E7   		movq	%r12, %rdi
  62              	.LEHB1:
  63 003e E8000000 		call	_Unwind_Resume@PLT
  63      00
  64              	.LEHE1:
  65              		.cfi_endproc
  66              	.LFE1322:
  67              		.globl	__gxx_personality_v0
  68              		.section	.gcc_except_table._ZN26TestI2C_testFinaliseNoInitD0Ev,"aG",@progbits,_ZN26TestI2C_testFin
  69              	.LLSDA1322:
  70 0000 FF       		.byte	0xff
  71 0001 FF       		.byte	0xff
  72 0002 01       		.byte	0x1
  73 0003 08       		.uleb128 .LLSDACSE1322-.LLSDACSB1322
  74              	.LLSDACSB1322:
  75 0004 18       		.uleb128 .LEHB0-.LFB1322
  76 0005 05       		.uleb128 .LEHE0-.LEHB0
  77 0006 2C       		.uleb128 .L5-.LFB1322
  78 0007 00       		.uleb128 0
  79 0008 3E       		.uleb128 .LEHB1-.LFB1322
  80 0009 05       		.uleb128 .LEHE1-.LEHB1
  81 000a 00       		.uleb128 0
  82 000b 00       		.uleb128 0
  83              	.LLSDACSE1322:
  84              		.section	.text._ZN26TestI2C_testFinaliseNoInitD0Ev,"axG",@progbits,_ZN26TestI2C_testFinaliseNoInit
  86              		.section	.text._ZN21TestI2C_testWPRNoInitD2Ev,"axG",@progbits,_ZN21TestI2C_testWPRNoInitD5Ev,comda
  87              		.align 2
  88              		.p2align 4
  89              		.weak	_ZN21TestI2C_testWPRNoInitD2Ev
  91              	_ZN21TestI2C_testWPRNoInitD2Ev:
  92              	.LFB1324:
  93              		.cfi_startproc
  94 0000 F30F1EFA 		endbr64
  95 0004 488D0500 		leaq	16+_ZTV21TestI2C_testWPRNoInit(%rip), %rax
  95      000000
  96 000b 488907   		movq	%rax, (%rdi)
  97 000e E9000000 		jmp	_ZN8UnitTest4TestD2Ev@PLT
  97      00
  98              		.cfi_endproc
  99              	.LFE1324:
 101              		.weak	_ZN21TestI2C_testWPRNoInitD1Ev
 102              		.set	_ZN21TestI2C_testWPRNoInitD1Ev,_ZN21TestI2C_testWPRNoInitD2Ev
 103              		.section	.text._ZN21TestI2C_testWPRNoInitD0Ev,"axG",@progbits,_ZN21TestI2C_testWPRNoInitD5Ev,comda
 104              		.align 2
 105              		.p2align 4
 106              		.weak	_ZN21TestI2C_testWPRNoInitD0Ev
 108              	_ZN21TestI2C_testWPRNoInitD0Ev:
 109              	.LFB1326:
 110              		.cfi_startproc
 111              		.cfi_personality 0x9b,DW.ref.__gxx_personality_v0
 112              		.cfi_lsda 0x1b,.LLSDA1326
 113 0000 F30F1EFA 		endbr64
 114 0004 4154     		pushq	%r12
 115              		.cfi_def_cfa_offset 16
 116              		.cfi_offset 12, -16
 117 0006 488D0500 		leaq	16+_ZTV21TestI2C_testWPRNoInit(%rip), %rax
 117      000000
 118 000d 55       		pushq	%rbp
 119              		.cfi_def_cfa_offset 24
 120              		.cfi_offset 6, -24
 121 000e 4889FD   		movq	%rdi, %rbp
 122 0011 4883EC08 		subq	$8, %rsp
 123              		.cfi_def_cfa_offset 32
 124 0015 488907   		movq	%rax, (%rdi)
 125              	.LEHB2:
 126 0018 E8000000 		call	_ZN8UnitTest4TestD2Ev@PLT
 126      00
 127              	.LEHE2:
 128 001d 4883C408 		addq	$8, %rsp
 129              		.cfi_remember_state
 130              		.cfi_def_cfa_offset 24
 131 0021 4889EF   		movq	%rbp, %rdi
 132 0024 5D       		popq	%rbp
 133              		.cfi_def_cfa_offset 16
 134 0025 415C     		popq	%r12
 135              		.cfi_def_cfa_offset 8
 136 0027 E9000000 		jmp	_ZdlPv@PLT
 136      00
 137              	.L10:
 138              		.cfi_restore_state
 139 002c F30F1EFA 		endbr64
 140 0030 4989C4   		movq	%rax, %r12
 141              	.L9:
 142 0033 4889EF   		movq	%rbp, %rdi
 143 0036 E8000000 		call	_ZdlPv@PLT
 143      00
 144 003b 4C89E7   		movq	%r12, %rdi
 145              	.LEHB3:
 146 003e E8000000 		call	_Unwind_Resume@PLT
 146      00
 147              	.LEHE3:
 148              		.cfi_endproc
 149              	.LFE1326:
 150              		.section	.gcc_except_table._ZN21TestI2C_testWPRNoInitD0Ev,"aG",@progbits,_ZN21TestI2C_testWPRNoIni
 151              	.LLSDA1326:
 152 0000 FF       		.byte	0xff
 153 0001 FF       		.byte	0xff
 154 0002 01       		.byte	0x1
 155 0003 08       		.uleb128 .LLSDACSE1326-.LLSDACSB1326
 156              	.LLSDACSB1326:
 157 0004 18       		.uleb128 .LEHB2-.LFB1326
 158 0005 05       		.uleb128 .LEHE2-.LEHB2
 159 0006 2C       		.uleb128 .L10-.LFB1326
 160 0007 00       		.uleb128 0
 161 0008 3E       		.uleb128 .LEHB3-.LFB1326
 162 0009 05       		.uleb128 .LEHE3-.LEHB3
 163 000a 00       		.uleb128 0
 164 000b 00       		.uleb128 0
 165              	.LLSDACSE1326:
 166              		.section	.text._ZN21TestI2C_testWPRNoInitD0Ev,"axG",@progbits,_ZN21TestI2C_testWPRNoInitD5Ev,comda
 168              		.section	.text._ZN21TestI2C_testRoundTripD2Ev,"axG",@progbits,_ZN21TestI2C_testRoundTripD5Ev,comda
 169              		.align 2
 170              		.p2align 4
 171              		.weak	_ZN21TestI2C_testRoundTripD2Ev
 173              	_ZN21TestI2C_testRoundTripD2Ev:
 174              	.LFB1328:
 175              		.cfi_startproc
 176 0000 F30F1EFA 		endbr64
 177 0004 488D0500 		leaq	16+_ZTV21TestI2C_testRoundTrip(%rip), %rax
 177      000000
 178 000b 488907   		movq	%rax, (%rdi)
 179 000e E9000000 		jmp	_ZN8UnitTest4TestD2Ev@PLT
 179      00
 180              		.cfi_endproc
 181              	.LFE1328:
 183              		.weak	_ZN21TestI2C_testRoundTripD1Ev
 184              		.set	_ZN21TestI2C_testRoundTripD1Ev,_ZN21TestI2C_testRoundTripD2Ev
 185              		.section	.text._ZN21TestI2C_testRoundTripD0Ev,"axG",@progbits,_ZN21TestI2C_testRoundTripD5Ev,comda
 186              		.align 2
 187              		.p2align 4
 188              		.weak	_ZN21TestI2C_testRoundTripD0Ev
 190              	_ZN21TestI2C_testRoundTripD0Ev:
 191              	.LFB1330:
 192              		.cfi_startproc
 193              		.cfi_personality 0x9b,DW.ref.__gxx_personality_v0
 194              		.cfi_lsda 0x1b,.LLSDA1330
 195 0000 F30F1EFA 		endbr64
 196 0004 4154     		pushq	%r12
 197              		.cfi_def_cfa_offset 16
 198              		.cfi_offset 12, -16
 199 0006 488D0500 		leaq	16+_ZTV21TestI2C_testRoundTrip(%rip), %rax
 199      000000
 200 000d 55       		pushq	%rbp
 201              		.cfi_def_cfa_offset 24
 202              		.cfi_offset 6, -24
 203 000e 4889FD   		movq	%rdi, %rbp
 204 0011 4883EC08 		subq	$8, %rsp
 205              		.cfi_def_cfa_offset 32
 206 0015 488907   		movq	%rax, (%rdi)
 207              	.LEHB4:
 208 0018 E8000000 		call	_ZN8UnitTest4TestD2Ev@PLT
 208      00
 209              	.LEHE4:
 210 001d 4883C408 		addq	$8, %rsp
 211              		.cfi_remember_state
 212              		.cfi_def_cfa_offset 24
 213 0021 4889EF   		movq	%rbp, %rdi
 214 0024 5D       		popq	%rbp
 215              		.cfi_def_cfa_offset 16
 216 0025 415C     		popq	%r12
 217              		.cfi_def_cfa_offset 8
 218 0027 E9000000 		jmp	_ZdlPv@PLT
 218      00
 219              	.L15:
 220              		.cfi_restore_state
 221 002c F30F1EFA 		endbr64
 222 0030 4989C4   		movq	%rax, %r12
 223              	.L14:
 224 0033 4889EF   		movq	%rbp, %rdi
 225 0036 E8000000 		call	_ZdlPv@PLT
 225      00
 226 003b 4C89E7   		movq	%r12, %rdi
 227              	.LEHB5:
 228 003e E8000000 		call	_Unwind_Resume@PLT
 228      00
 229              	.LEHE5:
 230              		.cfi_endproc
 231              	.LFE1330:
 232              		.section	.gcc_except_table._ZN21TestI2C_testRoundTripD0Ev,"aG",@progbits,_ZN21TestI2C_testRoundTri
 233              	.LLSDA1330:
 234 0000 FF       		.byte	0xff
 235 0001 FF       		.byte	0xff
 236 0002 01       		.byte	0x1
 237 0003 08       		.uleb128 .LLSDACSE1330-.LLSDACSB1330
 238              	.LLSDACSB1330:
 239 0004 18       		.uleb128 .LEHB4-.LFB1330
 240 0005 05       		.uleb128 .LEHE4-.LEHB4
 241 0006 2C       		.uleb128 .L15-.LFB1330
 242 0007 00       		.uleb128 0
 243 0008 3E       		.uleb128 .LEHB5-.LFB1330
 244 0009 05       		.uleb128 .LEHE5-.LEHB5
 245 000a 00       		.uleb128 0
 246 000b 00       		.uleb128 0
 247              	.LLSDACSE1330:
 248              		.section	.text._ZN21TestI2C_testRoundTripD0Ev,"axG",@progbits,_ZN21TestI2C_testRoundTripD5Ev,comda
 250              		.section	.text._ZN22TestI2C_testInitialiseD2Ev,"axG",@progbits,_ZN22TestI2C_testInitialiseD5Ev,com
 251              		.align 2
 252              		.p2align 4
 253              		.weak	_ZN22TestI2C_testInitialiseD2Ev
 255              	_ZN22TestI2C_testInitialiseD2Ev:
 256              	.LFB1332:
 257              		.cfi_startproc
 258 0000 F30F1EFA 		endbr64
 259 0004 488D0500 		leaq	16+_ZTV22TestI2C_testInitialise(%rip), %rax
 259      000000
 260 000b 488907   		movq	%rax, (%rdi)
 261 000e E9000000 		jmp	_ZN8UnitTest4TestD2Ev@PLT
 261      00
 262              		.cfi_endproc
 263              	.LFE1332:
 265              		.weak	_ZN22TestI2C_testInitialiseD1Ev
 266              		.set	_ZN22TestI2C_testInitialiseD1Ev,_ZN22TestI2C_testInitialiseD2Ev
 267              		.section	.text._ZN22TestI2C_testInitialiseD0Ev,"axG",@progbits,_ZN22TestI2C_testInitialiseD5Ev,com
 268              		.align 2
 269              		.p2align 4
 270              		.weak	_ZN22TestI2C_testInitialiseD0Ev
 272              	_ZN22TestI2C_testInitialiseD0Ev:
 273              	.LFB1334:
 274              		.cfi_startproc
 275              		.cfi_personality 0x9b,DW.ref.__gxx_personality_v0
 276              		.cfi_lsda 0x1b,.LLSDA1334
 277 0000 F30F1EFA 		endbr64
 278 0004 4154     		pushq	%r12
 279              		.cfi_def_cfa_offset 16
 280              		.cfi_offset 12, -16
 281 0006 488D0500 		leaq	16+_ZTV22TestI2C_testInitialise(%rip), %rax
 281      000000
 282 000d 55       		pushq	%rbp
 283              		.cfi_def_cfa_offset 24
 284              		.cfi_offset 6, -24
 285 000e 4889FD   		movq	%rdi, %rbp
 286 0011 4883EC08 		subq	$8, %rsp
 287              		.cfi_def_cfa_offset 32
 288 0015 488907   		movq	%rax, (%rdi)
 289              	.LEHB6:
 290 0018 E8000000 		call	_ZN8UnitTest4TestD2Ev@PLT
 290      00
 291              	.LEHE6:
 292 001d 4883C408 		addq	$8, %rsp
 293              		.cfi_remember_state
 294              		.cfi_def_cfa_offset 24
 295 0021 4889EF   		movq	%rbp, %rdi
 296 0024 5D       		popq	%rbp
 297              		.cfi_def_cfa_offset 16
 298 0025 415C     		popq	%r12
 299              		.cfi_def_cfa_offset 8
 300 0027 E9000000 		jmp	_ZdlPv@PLT
 300      00
 301              	.L20:
 302              		.cfi_restore_state
 303 002c F30F1EFA 		endbr64
 304 0030 4989C4   		movq	%rax, %r12
 305              	.L19:
 306 0033 4889EF   		movq	%rbp, %rdi
 307 0036 E8000000 		call	_ZdlPv@PLT
 307      00
 308 003b 4C89E7   		movq	%r12, %rdi
 309              	.LEHB7:
 310 003e E8000000 		call	_Unwind_Resume@PLT
 310      00
 311              	.LEHE7:
 312              		.cfi_endproc
 313              	.LFE1334:
 314              		.section	.gcc_except_table._ZN22TestI2C_testInitialiseD0Ev,"aG",@progbits,_ZN22TestI2C_testInitial
 315              	.LLSDA1334:
 316 0000 FF       		.byte	0xff
 317 0001 FF       		.byte	0xff
 318 0002 01       		.byte	0x1
 319 0003 08       		.uleb128 .LLSDACSE1334-.LLSDACSB1334
 320              	.LLSDACSB1334:
 321 0004 18       		.uleb128 .LEHB6-.LFB1334
 322 0005 05       		.uleb128 .LEHE6-.LEHB6
 323 0006 2C       		.uleb128 .L20-.LFB1334
 324 0007 00       		.uleb128 0
 325 0008 3E       		.uleb128 .LEHB7-.LFB1334
 326 0009 05       		.uleb128 .LEHE7-.LEHB7
 327 000a 00       		.uleb128 0
 328 000b 00       		.uleb128 0
 329              	.LLSDACSE1334:
 330              		.section	.text._ZN22TestI2C_testInitialiseD0Ev,"axG",@progbits,_ZN22TestI2C_testInitialiseD5Ev,com
 332              		.section	.text._ZN8UnitTest15MemoryOutStreamD1Ev,"axG",@progbits,_ZN8UnitTest15MemoryOutStreamD1Ev
 333              		.align 2
 334              		.p2align 4
 335              		.weak	_ZN8UnitTest15MemoryOutStreamD1Ev
 337              	_ZN8UnitTest15MemoryOutStreamD1Ev:
 338              	.LFB1258:
 339              		.cfi_startproc
 340 0000 F30F1EFA 		endbr64
 341 0004 55       		pushq	%rbp
 342              		.cfi_def_cfa_offset 16
 343              		.cfi_offset 6, -16
 344 0005 488D0500 		leaq	24+_ZTVN8UnitTest15MemoryOutStreamE(%rip), %rax
 344      000000
 345 000c 53       		pushq	%rbx
 346              		.cfi_def_cfa_offset 24
 347              		.cfi_offset 3, -24
 348 000d 4889FB   		movq	%rdi, %rbx
 349 0010 4883EC08 		subq	$8, %rsp
 350              		.cfi_def_cfa_offset 32
 351 0014 488907   		movq	%rax, (%rdi)
 352 0017 4883C028 		addq	$40, %rax
 353 001b 48898790 		movq	%rax, 144(%rdi)
 353      000000
 354 0022 488B7F70 		movq	112(%rdi), %rdi
 355 0026 488D8380 		leaq	128(%rbx), %rax
 355      000000
 356 002d 4839C7   		cmpq	%rax, %rdi
 357 0030 7405     		je	.L23
 358 0032 E8000000 		call	_ZdlPv@PLT
 358      00
 359              	.L23:
 360 0037 488D0500 		leaq	64+_ZTCN8UnitTest15MemoryOutStreamE0_NSt7__cxx1119basic_ostringstreamIcSt11char_traitsIcESaIc
 360      000000
 361 003e 488D1500 		leaq	24+_ZTCN8UnitTest15MemoryOutStreamE0_NSt7__cxx1119basic_ostringstreamIcSt11char_traitsIcESaIc
 361      000000
 362 0045 488B7B50 		movq	80(%rbx), %rdi
 363 0049 48898390 		movq	%rax, 144(%rbx)
 363      000000
 364 0050 488D0500 		leaq	16+_ZTVNSt7__cxx1115basic_stringbufIcSt11char_traitsIcESaIcEEE(%rip), %rax
 364      000000
 365 0057 66480F6E 		movq	%rdx, %xmm0
 365      C2
 366 005c 488DAB90 		leaq	144(%rbx), %rbp
 366      000000
 367 0063 66480F6E 		movq	%rax, %xmm1
 367      C8
 368 0068 488D4360 		leaq	96(%rbx), %rax
 369 006c 660F6CC1 		punpcklqdq	%xmm1, %xmm0
 370 0070 0F1103   		movups	%xmm0, (%rbx)
 371 0073 4839C7   		cmpq	%rax, %rdi
 372 0076 7405     		je	.L24
 373 0078 E8000000 		call	_ZdlPv@PLT
 373      00
 374              	.L24:
 375 007d 488D0500 		leaq	16+_ZTVSt15basic_streambufIcSt11char_traitsIcEE(%rip), %rax
 375      000000
 376 0084 488D7B40 		leaq	64(%rbx), %rdi
 377 0088 48894308 		movq	%rax, 8(%rbx)
 378 008c E8000000 		call	_ZNSt6localeD1Ev@PLT
 378      00
 379 0091 488D0500 		leaq	24+_ZTCN8UnitTest15MemoryOutStreamE0_So(%rip), %rax
 379      000000
 380 0098 4889EF   		movq	%rbp, %rdi
 381 009b 488903   		movq	%rax, (%rbx)
 382 009e 488D0500 		leaq	16+_ZTVSt9basic_iosIcSt11char_traitsIcEE(%rip), %rax
 382      000000
 383 00a5 48898390 		movq	%rax, 144(%rbx)
 383      000000
 384 00ac 4883C408 		addq	$8, %rsp
 385              		.cfi_def_cfa_offset 24
 386 00b0 5B       		popq	%rbx
 387              		.cfi_def_cfa_offset 16
 388 00b1 5D       		popq	%rbp
 389              		.cfi_def_cfa_offset 8
 390 00b2 E9000000 		jmp	_ZNSt8ios_baseD2Ev@PLT
 390      00
 391              		.cfi_endproc
 392              	.LFE1258:
 394 00b7 660F1F84 		.p2align 4
 394      00000000 
 394      00
 395              		.weak	_ZTv0_n24_N8UnitTest15MemoryOutStreamD1Ev
 397              	_ZTv0_n24_N8UnitTest15MemoryOutStreamD1Ev:
 398              	.LFB1339:
 399              		.cfi_startproc
 400 00c0 F30F1EFA 		endbr64
 401 00c4 55       		pushq	%rbp
 402              		.cfi_def_cfa_offset 16
 403              		.cfi_offset 6, -16
 404 00c5 53       		pushq	%rbx
 405              		.cfi_def_cfa_offset 24
 406              		.cfi_offset 3, -24
 407 00c6 4889FB   		movq	%rdi, %rbx
 408 00c9 4883EC08 		subq	$8, %rsp
 409              		.cfi_def_cfa_offset 32
 410 00cd 488B07   		movq	(%rdi), %rax
 411 00d0 480358E8 		addq	-24(%rax), %rbx
 412 00d4 488D0500 		leaq	24+_ZTVN8UnitTest15MemoryOutStreamE(%rip), %rax
 412      000000
 413 00db 488903   		movq	%rax, (%rbx)
 414 00de 488B7B70 		movq	112(%rbx), %rdi
 415 00e2 4883C028 		addq	$40, %rax
 416 00e6 48898390 		movq	%rax, 144(%rbx)
 416      000000
 417 00ed 488D8380 		leaq	128(%rbx), %rax
 417      000000
 418 00f4 4839C7   		cmpq	%rax, %rdi
 419 00f7 7405     		je	.L27
 420 00f9 E8000000 		call	_ZdlPv@PLT
 420      00
 421              	.L27:
 422 00fe 488D0500 		leaq	64+_ZTCN8UnitTest15MemoryOutStreamE0_NSt7__cxx1119basic_ostringstreamIcSt11char_traitsIcESaIc
 422      000000
 423 0105 488D1500 		leaq	24+_ZTCN8UnitTest15MemoryOutStreamE0_NSt7__cxx1119basic_ostringstreamIcSt11char_traitsIcESaIc
 423      000000
 424 010c 488B7B50 		movq	80(%rbx), %rdi
 425 0110 48898390 		movq	%rax, 144(%rbx)
 425      000000
 426 0117 488D0500 		leaq	16+_ZTVNSt7__cxx1115basic_stringbufIcSt11char_traitsIcESaIcEEE(%rip), %rax
 426      000000
 427 011e 66480F6E 		movq	%rdx, %xmm0
 427      C2
 428 0123 488DAB90 		leaq	144(%rbx), %rbp
 428      000000
 429 012a 66480F6E 		movq	%rax, %xmm1
 429      C8
 430 012f 488D4360 		leaq	96(%rbx), %rax
 431 0133 660F6CC1 		punpcklqdq	%xmm1, %xmm0
 432 0137 0F1103   		movups	%xmm0, (%rbx)
 433 013a 4839C7   		cmpq	%rax, %rdi
 434 013d 7405     		je	.L28
 435 013f E8000000 		call	_ZdlPv@PLT
 435      00
 436              	.L28:
 437 0144 488D0500 		leaq	16+_ZTVSt15basic_streambufIcSt11char_traitsIcEE(%rip), %rax
 437      000000
 438 014b 488D7B40 		leaq	64(%rbx), %rdi
 439 014f 48894308 		movq	%rax, 8(%rbx)
 440 0153 E8000000 		call	_ZNSt6localeD1Ev@PLT
 440      00
 441 0158 488D0500 		leaq	24+_ZTCN8UnitTest15MemoryOutStreamE0_So(%rip), %rax
 441      000000
 442 015f 4889EF   		movq	%rbp, %rdi
 443 0162 488903   		movq	%rax, (%rbx)
 444 0165 488D0500 		leaq	16+_ZTVSt9basic_iosIcSt11char_traitsIcEE(%rip), %rax
 444      000000
 445 016c 48898390 		movq	%rax, 144(%rbx)
 445      000000
 446 0173 4883C408 		addq	$8, %rsp
 447              		.cfi_def_cfa_offset 24
 448 0177 5B       		popq	%rbx
 449              		.cfi_def_cfa_offset 16
 450 0178 5D       		popq	%rbp
 451              		.cfi_def_cfa_offset 8
 452 0179 E9000000 		jmp	_ZNSt8ios_baseD2Ev@PLT
 452      00
 453              		.cfi_endproc
 454              	.LFE1339:
 456              		.section	.text._ZN8UnitTest15MemoryOutStreamD0Ev,"axG",@progbits,_ZN8UnitTest15MemoryOutStreamD0Ev
 457              		.align 2
 458              		.p2align 4
 459              		.weak	_ZN8UnitTest15MemoryOutStreamD0Ev
 461              	_ZN8UnitTest15MemoryOutStreamD0Ev:
 462              	.LFB1259:
 463              		.cfi_startproc
 464              		.cfi_personality 0x9b,DW.ref.__gxx_personality_v0
 465              		.cfi_lsda 0x1b,.LLSDA1259
 466 0000 F30F1EFA 		endbr64
 467 0004 4154     		pushq	%r12
 468              		.cfi_def_cfa_offset 16
 469              		.cfi_offset 12, -16
 470 0006 488D0500 		leaq	24+_ZTVN8UnitTest15MemoryOutStreamE(%rip), %rax
 470      000000
 471 000d 55       		pushq	%rbp
 472              		.cfi_def_cfa_offset 24
 473              		.cfi_offset 6, -24
 474 000e 4889FD   		movq	%rdi, %rbp
 475 0011 4883EC08 		subq	$8, %rsp
 476              		.cfi_def_cfa_offset 32
 477 0015 488907   		movq	%rax, (%rdi)
 478 0018 4883C028 		addq	$40, %rax
 479 001c 48898790 		movq	%rax, 144(%rdi)
 479      000000
 480 0023 488B7F70 		movq	112(%rdi), %rdi
 481 0027 488D8580 		leaq	128(%rbp), %rax
 481      000000
 482 002e 4839C7   		cmpq	%rax, %rdi
 483 0031 7405     		je	.L31
 484 0033 E8000000 		call	_ZdlPv@PLT
 484      00
 485              	.L31:
 486 0038 488D0500 		leaq	64+_ZTCN8UnitTest15MemoryOutStreamE0_NSt7__cxx1119basic_ostringstreamIcSt11char_traitsIcESaIc
 486      000000
 487 003f 488D1500 		leaq	24+_ZTCN8UnitTest15MemoryOutStreamE0_NSt7__cxx1119basic_ostringstreamIcSt11char_traitsIcESaIc
 487      000000
 488 0046 488B7D50 		movq	80(%rbp), %rdi
 489 004a 48898590 		movq	%rax, 144(%rbp)
 489      000000
 490 0051 488D0500 		leaq	16+_ZTVNSt7__cxx1115basic_stringbufIcSt11char_traitsIcESaIcEEE(%rip), %rax
 490      000000
 491 0058 66480F6E 		movq	%rdx, %xmm0
 491      C2
 492 005d 4C8DA590 		leaq	144(%rbp), %r12
 492      000000
 493 0064 66480F6E 		movq	%rax, %xmm1
 493      C8
 494 0069 488D4560 		leaq	96(%rbp), %rax
 495 006d 660F6CC1 		punpcklqdq	%xmm1, %xmm0
 496 0071 0F114500 		movups	%xmm0, 0(%rbp)
 497 0075 4839C7   		cmpq	%rax, %rdi
 498 0078 7405     		je	.L32
 499 007a E8000000 		call	_ZdlPv@PLT
 499      00
 500              	.L32:
 501 007f 488D0500 		leaq	16+_ZTVSt15basic_streambufIcSt11char_traitsIcEE(%rip), %rax
 501      000000
 502 0086 488D7D40 		leaq	64(%rbp), %rdi
 503 008a 48894508 		movq	%rax, 8(%rbp)
 504 008e E8000000 		call	_ZNSt6localeD1Ev@PLT
 504      00
 505 0093 488D0500 		leaq	24+_ZTCN8UnitTest15MemoryOutStreamE0_So(%rip), %rax
 505      000000
 506 009a 4C89E7   		movq	%r12, %rdi
 507 009d 48894500 		movq	%rax, 0(%rbp)
 508 00a1 488D0500 		leaq	16+_ZTVSt9basic_iosIcSt11char_traitsIcEE(%rip), %rax
 508      000000
 509 00a8 48898590 		movq	%rax, 144(%rbp)
 509      000000
 510              	.LEHB8:
 511 00af E8000000 		call	_ZNSt8ios_baseD2Ev@PLT
 511      00
 512              	.LEHE8:
 513 00b4 4883C408 		addq	$8, %rsp
 514              		.cfi_remember_state
 515              		.cfi_def_cfa_offset 24
 516 00b8 4889EF   		movq	%rbp, %rdi
 517 00bb 5D       		popq	%rbp
 518              		.cfi_def_cfa_offset 16
 519 00bc 415C     		popq	%r12
 520              		.cfi_def_cfa_offset 8
 521 00be E9000000 		jmp	_ZdlPv@PLT
 521      00
 522              	.L34:
 523              		.cfi_restore_state
 524 00c3 F30F1EFA 		endbr64
 525 00c7 4989C4   		movq	%rax, %r12
 526              	.L33:
 527 00ca 4889EF   		movq	%rbp, %rdi
 528 00cd E8000000 		call	_ZdlPv@PLT
 528      00
 529 00d2 4C89E7   		movq	%r12, %rdi
 530              	.LEHB9:
 531 00d5 E8000000 		call	_Unwind_Resume@PLT
 531      00
 532              	.LEHE9:
 533              		.cfi_endproc
 534              	.LFE1259:
 535              		.section	.gcc_except_table._ZN8UnitTest15MemoryOutStreamD0Ev,"aG",@progbits,_ZN8UnitTest15MemoryOu
 536              	.LLSDA1259:
 537 0000 FF       		.byte	0xff
 538 0001 FF       		.byte	0xff
 539 0002 01       		.byte	0x1
 540 0003 0B       		.uleb128 .LLSDACSE1259-.LLSDACSB1259
 541              	.LLSDACSB1259:
 542 0004 AF01     		.uleb128 .LEHB8-.LFB1259
 543 0006 05       		.uleb128 .LEHE8-.LEHB8
 544 0007 C301     		.uleb128 .L34-.LFB1259
 545 0009 00       		.uleb128 0
 546 000a D501     		.uleb128 .LEHB9-.LFB1259
 547 000c 05       		.uleb128 .LEHE9-.LEHB9
 548 000d 00       		.uleb128 0
 549 000e 00       		.uleb128 0
 550              	.LLSDACSE1259:
 551              		.section	.text._ZN8UnitTest15MemoryOutStreamD0Ev,"axG",@progbits,_ZN8UnitTest15MemoryOutStreamD0Ev
 553 00da 660F1F44 		.p2align 4
 553      0000
 554              		.weak	_ZTv0_n24_N8UnitTest15MemoryOutStreamD0Ev
 556              	_ZTv0_n24_N8UnitTest15MemoryOutStreamD0Ev:
 557              	.LFB1338:
 558              		.cfi_startproc
 559              		.cfi_personality 0x9b,DW.ref.__gxx_personality_v0
 560              		.cfi_lsda 0x1b,.LLSDA1338
 561 00e0 F30F1EFA 		endbr64
 562 00e4 4154     		pushq	%r12
 563              		.cfi_def_cfa_offset 16
 564              		.cfi_offset 12, -16
 565 00e6 55       		pushq	%rbp
 566              		.cfi_def_cfa_offset 24
 567              		.cfi_offset 6, -24
 568 00e7 4889FD   		movq	%rdi, %rbp
 569 00ea 4883EC08 		subq	$8, %rsp
 570              		.cfi_def_cfa_offset 32
 571 00ee 488B07   		movq	(%rdi), %rax
 572 00f1 480368E8 		addq	-24(%rax), %rbp
 573 00f5 488D0500 		leaq	24+_ZTVN8UnitTest15MemoryOutStreamE(%rip), %rax
 573      000000
 574 00fc 48894500 		movq	%rax, 0(%rbp)
 575 0100 488B7D70 		movq	112(%rbp), %rdi
 576 0104 4883C028 		addq	$40, %rax
 577 0108 48898590 		movq	%rax, 144(%rbp)
 577      000000
 578 010f 488D8580 		leaq	128(%rbp), %rax
 578      000000
 579 0116 4839C7   		cmpq	%rax, %rdi
 580 0119 7405     		je	.L37
 581 011b E8000000 		call	_ZdlPv@PLT
 581      00
 582              	.L37:
 583 0120 488D0500 		leaq	64+_ZTCN8UnitTest15MemoryOutStreamE0_NSt7__cxx1119basic_ostringstreamIcSt11char_traitsIcESaIc
 583      000000
 584 0127 488D1500 		leaq	24+_ZTCN8UnitTest15MemoryOutStreamE0_NSt7__cxx1119basic_ostringstreamIcSt11char_traitsIcESaIc
 584      000000
 585 012e 488B7D50 		movq	80(%rbp), %rdi
 586 0132 48898590 		movq	%rax, 144(%rbp)
 586      000000
 587 0139 488D0500 		leaq	16+_ZTVNSt7__cxx1115basic_stringbufIcSt11char_traitsIcESaIcEEE(%rip), %rax
 587      000000
 588 0140 66480F6E 		movq	%rdx, %xmm0
 588      C2
 589 0145 4C8DA590 		leaq	144(%rbp), %r12
 589      000000
 590 014c 66480F6E 		movq	%rax, %xmm1
 590      C8
 591 0151 488D4560 		leaq	96(%rbp), %rax
 592 0155 660F6CC1 		punpcklqdq	%xmm1, %xmm0
 593 0159 0F114500 		movups	%xmm0, 0(%rbp)
 594 015d 4839C7   		cmpq	%rax, %rdi
 595 0160 7405     		je	.L38
 596 0162 E8000000 		call	_ZdlPv@PLT
 596      00
 597              	.L38:
 598 0167 488D0500 		leaq	16+_ZTVSt15basic_streambufIcSt11char_traitsIcEE(%rip), %rax
 598      000000
 599 016e 488D7D40 		leaq	64(%rbp), %rdi
 600 0172 48894508 		movq	%rax, 8(%rbp)
 601 0176 E8000000 		call	_ZNSt6localeD1Ev@PLT
 601      00
 602 017b 488D0500 		leaq	24+_ZTCN8UnitTest15MemoryOutStreamE0_So(%rip), %rax
 602      000000
 603 0182 4C89E7   		movq	%r12, %rdi
 604 0185 48894500 		movq	%rax, 0(%rbp)
 605 0189 488D0500 		leaq	16+_ZTVSt9basic_iosIcSt11char_traitsIcEE(%rip), %rax
 605      000000
 606 0190 48898590 		movq	%rax, 144(%rbp)
 606      000000
 607              	.LEHB10:
 608 0197 E8000000 		call	_ZNSt8ios_baseD2Ev@PLT
 608      00
 609              	.LEHE10:
 610 019c 4883C408 		addq	$8, %rsp
 611              		.cfi_remember_state
 612              		.cfi_def_cfa_offset 24
 613 01a0 4889EF   		movq	%rbp, %rdi
 614 01a3 5D       		popq	%rbp
 615              		.cfi_def_cfa_offset 16
 616 01a4 415C     		popq	%r12
 617              		.cfi_def_cfa_offset 8
 618 01a6 E9000000 		jmp	_ZdlPv@PLT
 618      00
 619              	.L40:
 620              		.cfi_restore_state
 621 01ab F30F1EFA 		endbr64
 622 01af 4989C4   		movq	%rax, %r12
 623              	.L39:
 624 01b2 4889EF   		movq	%rbp, %rdi
 625 01b5 E8000000 		call	_ZdlPv@PLT
 625      00
 626 01ba 4C89E7   		movq	%r12, %rdi
 627              	.LEHB11:
 628 01bd E8000000 		call	_Unwind_Resume@PLT
 628      00
 629              	.LEHE11:
 630              		.cfi_endproc
 631              	.LFE1338:
 632              		.section	.gcc_except_table._ZTv0_n24_N8UnitTest15MemoryOutStreamD0Ev,"aG",@progbits,_ZN8UnitTest15
 633              	.LLSDA1338:
 634 0000 FF       		.byte	0xff
 635 0001 FF       		.byte	0xff
 636 0002 01       		.byte	0x1
 637 0003 0B       		.uleb128 .LLSDACSE1338-.LLSDACSB1338
 638              	.LLSDACSB1338:
 639 0004 B701     		.uleb128 .LEHB10-.LFB1338
 640 0006 05       		.uleb128 .LEHE10-.LEHB10
 641 0007 CB01     		.uleb128 .L40-.LFB1338
 642 0009 00       		.uleb128 0
 643 000a DD01     		.uleb128 .LEHB11-.LFB1338
 644 000c 05       		.uleb128 .LEHE11-.LEHB11
 645 000d 00       		.uleb128 0
 646 000e 00       		.uleb128 0
 647              	.LLSDACSE1338:
 648              		.section	.text._ZN8UnitTest15MemoryOutStreamD0Ev,"axG",@progbits,_ZN8UnitTest15MemoryOutStreamD0Ev
 650              		.section	.text._ZNSt7__cxx1115basic_stringbufIcSt11char_traitsIcESaIcEED2Ev,"axG",@progbits,_ZNSt7
 651              		.align 2
 652              		.p2align 4
 653              		.weak	_ZNSt7__cxx1115basic_stringbufIcSt11char_traitsIcESaIcEED2Ev
 655              	_ZNSt7__cxx1115basic_stringbufIcSt11char_traitsIcESaIcEED2Ev:
 656              	.LFB1237:
 657              		.cfi_startproc
 658 0000 F30F1EFA 		endbr64
 659 0004 488D0500 		leaq	16+_ZTVNSt7__cxx1115basic_stringbufIcSt11char_traitsIcESaIcEEE(%rip), %rax
 659      000000
 660 000b 53       		pushq	%rbx
 661              		.cfi_def_cfa_offset 16
 662              		.cfi_offset 3, -16
 663 000c 4889FB   		movq	%rdi, %rbx
 664 000f 488907   		movq	%rax, (%rdi)
 665 0012 488B7F48 		movq	72(%rdi), %rdi
 666 0016 488D4358 		leaq	88(%rbx), %rax
 667 001a 4839C7   		cmpq	%rax, %rdi
 668 001d 7405     		je	.L43
 669 001f E8000000 		call	_ZdlPv@PLT
 669      00
 670              	.L43:
 671 0024 488D0500 		leaq	16+_ZTVSt15basic_streambufIcSt11char_traitsIcEE(%rip), %rax
 671      000000
 672 002b 488D7B38 		leaq	56(%rbx), %rdi
 673 002f 488903   		movq	%rax, (%rbx)
 674 0032 5B       		popq	%rbx
 675              		.cfi_def_cfa_offset 8
 676 0033 E9000000 		jmp	_ZNSt6localeD1Ev@PLT
 676      00
 677              		.cfi_endproc
 678              	.LFE1237:
 680              		.weak	_ZNSt7__cxx1115basic_stringbufIcSt11char_traitsIcESaIcEED1Ev
 681              		.set	_ZNSt7__cxx1115basic_stringbufIcSt11char_traitsIcESaIcEED1Ev,_ZNSt7__cxx1115basic_stringbufIc
 682              		.section	.rodata.str1.1,"aMS",@progbits,1
 683              	.LC0:
 684 0000 45787065 		.string	"Expected "
 684      63746564 
 684      2000
 685              	.LC1:
 686 000a 20627574 		.string	" but was "
 686      20776173 
 686      2000
 687              		.section	.text.unlikely,"ax",@progbits
 688              	.LCOLDB5:
 689              		.text
 690              	.LHOTB5:
 691              		.p2align 4
 693              	_ZN8UnitTest10CheckEqualI12BufferStatusS1_EEvRNS_11TestResultsERKT_RKT0_RKNS_11TestDetailsE.constpr
 694              	.LFB1343:
 695              		.cfi_startproc
 696              		.cfi_personality 0x9b,DW.ref.__gxx_personality_v0
 697              		.cfi_lsda 0x1b,.LLSDA1343
 698 0000 4157     		pushq	%r15
 699              		.cfi_def_cfa_offset 16
 700              		.cfi_offset 15, -16
 701 0002 4156     		pushq	%r14
 702              		.cfi_def_cfa_offset 24
 703              		.cfi_offset 14, -24
 704 0004 4155     		pushq	%r13
 705              		.cfi_def_cfa_offset 32
 706              		.cfi_offset 13, -32
 707 0006 4154     		pushq	%r12
 708              		.cfi_def_cfa_offset 40
 709              		.cfi_offset 12, -40
 710 0008 55       		pushq	%rbp
 711              		.cfi_def_cfa_offset 48
 712              		.cfi_offset 6, -48
 713 0009 53       		pushq	%rbx
 714              		.cfi_def_cfa_offset 56
 715              		.cfi_offset 3, -56
 716 000a 4881ECD8 		subq	$472, %rsp
 716      010000
 717              		.cfi_def_cfa_offset 528
 718 0011 F30F7E0D 		movq	.LC2(%rip), %xmm1
 718      00000000 
 719 0019 48894C24 		movq	%rcx, 32(%rsp)
 719      20
 720 001e 8B0A     		movl	(%rdx), %ecx
 721 0020 48897C24 		movq	%rdi, 16(%rsp)
 721      10
 722 0025 0F160D00 		movhps	.LC3(%rip), %xmm1
 722      000000
 723 002c 64488B04 		movq	%fs:40, %rax
 723      25280000 
 723      00
 724 0035 48898424 		movq	%rax, 456(%rsp)
 724      C8010000 
 725 003d 31C0     		xorl	%eax, %eax
 726 003f 0F290C24 		movaps	%xmm1, (%rsp)
 727 0043 85C9     		testl	%ecx, %ecx
 728 0045 7529     		jne	.L61
 729              	.L45:
 730 0047 488B8424 		movq	456(%rsp), %rax
 730      C8010000 
 731 004f 64482B04 		subq	%fs:40, %rax
 731      25280000 
 731      00
 732 0058 0F854702 		jne	.L62
 732      0000
 733 005e 4881C4D8 		addq	$472, %rsp
 733      010000
 734              		.cfi_remember_state
 735              		.cfi_def_cfa_offset 56
 736 0065 5B       		popq	%rbx
 737              		.cfi_def_cfa_offset 48
 738 0066 5D       		popq	%rbp
 739              		.cfi_def_cfa_offset 40
 740 0067 415C     		popq	%r12
 741              		.cfi_def_cfa_offset 32
 742 0069 415D     		popq	%r13
 743              		.cfi_def_cfa_offset 24
 744 006b 415E     		popq	%r14
 745              		.cfi_def_cfa_offset 16
 746 006d 415F     		popq	%r15
 747              		.cfi_def_cfa_offset 8
 748 006f C3       		ret
 749              		.p2align 4,,10
 750              		.p2align 3
 751              	.L61:
 752              		.cfi_restore_state
 753 0070 4C8DAC24 		leaq	192(%rsp), %r13
 753      C0000000 
 754 0078 4889F5   		movq	%rsi, %rbp
 755 007b 4889D3   		movq	%rdx, %rbx
 756 007e 4C89EF   		movq	%r13, %rdi
 757 0081 E8000000 		call	_ZNSt8ios_baseC2Ev@PLT
 757      00
 758 0086 31C0     		xorl	%eax, %eax
 759 0088 660FEFC0 		pxor	%xmm0, %xmm0
 760 008c 31F6     		xorl	%esi, %esi
 761 008e 66898424 		movw	%ax, 416(%rsp)
 761      A0010000 
 762 0096 488D0500 		leaq	24+_ZTCN8UnitTest15MemoryOutStreamE0_So(%rip), %rax
 762      000000
 763 009d 4C89EF   		movq	%r13, %rdi
 764 00a0 48894424 		movq	%rax, 48(%rsp)
 764      30
 765 00a5 4883C028 		addq	$40, %rax
 766 00a9 48C78424 		movq	$0, 408(%rsp)
 766      98010000 
 766      00000000 
 767 00b5 48898424 		movq	%rax, 192(%rsp)
 767      C0000000 
 768 00bd 0F118424 		movups	%xmm0, 424(%rsp)
 768      A8010000 
 769 00c5 0F118424 		movups	%xmm0, 440(%rsp)
 769      B8010000 
 770              	.LEHB12:
 771 00cd E8000000 		call	_ZNSt9basic_iosIcSt11char_traitsIcEE4initEPSt15basic_streambufIcS1_E@PLT
 771      00
 772              	.LEHE12:
 773 00d2 660F6F0C 		movdqa	(%rsp), %xmm1
 773      24
 774 00d7 4C8D7424 		leaq	112(%rsp), %r14
 774      70
 775 00dc 660FEFC0 		pxor	%xmm0, %xmm0
 776 00e0 488D0500 		leaq	64+_ZTCN8UnitTest15MemoryOutStreamE0_NSt7__cxx1119basic_ostringstreamIcSt11char_traitsIcESaIc
 776      000000
 777 00e7 4C89F7   		movq	%r14, %rdi
 778 00ea 0F294424 		movaps	%xmm0, 64(%rsp)
 778      40
 779 00ef 4C8D6424 		leaq	48(%rsp), %r12
 779      30
 780 00f4 4C8D7C24 		leaq	56(%rsp), %r15
 780      38
 781 00f9 48898424 		movq	%rax, 192(%rsp)
 781      C0000000 
 782 0101 0F294C24 		movaps	%xmm1, 48(%rsp)
 782      30
 783 0106 0F294424 		movaps	%xmm0, 80(%rsp)
 783      50
 784 010b 0F294424 		movaps	%xmm0, 96(%rsp)
 784      60
 785 0110 E8000000 		call	_ZNSt6localeC1Ev@PLT
 785      00
 786 0115 488D0500 		leaq	16+_ZTVNSt7__cxx1115basic_stringbufIcSt11char_traitsIcESaIcEEE(%rip), %rax
 786      000000
 787 011c 4C89FE   		movq	%r15, %rsi
 788 011f 48C78424 		movq	$0, 136(%rsp)
 788      88000000 
 788      00000000 
 789 012b 48894424 		movq	%rax, 56(%rsp)
 789      38
 790 0130 488D8424 		leaq	144(%rsp), %rax
 790      90000000 
 791 0138 48890424 		movq	%rax, (%rsp)
 792 013c 48898424 		movq	%rax, 128(%rsp)
 792      80000000 
 793 0144 488B4424 		movq	48(%rsp), %rax
 793      30
 794 0149 C6842490 		movb	$0, 144(%rsp)
 794      00000000 
 795 0151 488B78E8 		movq	-24(%rax), %rdi
 796 0155 C7442478 		movl	$16, 120(%rsp)
 796      10000000 
 797 015d 4C01E7   		addq	%r12, %rdi
 798              	.LEHB13:
 799 0160 E8000000 		call	_ZNSt9basic_iosIcSt11char_traitsIcEE4initEPSt15basic_streambufIcS1_E@PLT
 799      00
 800              	.LEHE13:
 801 0165 4C8D3D00 		leaq	24+_ZTVN8UnitTest15MemoryOutStreamE(%rip), %r15
 801      000000
 802 016c BA090000 		movl	$9, %edx
 802      00
 803 0171 4C89E7   		movq	%r12, %rdi
 804 0174 48C78424 		movq	$0, 168(%rsp)
 804      A8000000 
 804      00000000 
 805 0180 498D4728 		leaq	40(%r15), %rax
 806 0184 488D3500 		leaq	.LC0(%rip), %rsi
 806      000000
 807 018b 4C897C24 		movq	%r15, 48(%rsp)
 807      30
 808 0190 48898424 		movq	%rax, 192(%rsp)
 808      C0000000 
 809 0198 488D8424 		leaq	176(%rsp), %rax
 809      B0000000 
 810 01a0 48894424 		movq	%rax, 40(%rsp)
 810      28
 811 01a5 48898424 		movq	%rax, 160(%rsp)
 811      A0000000 
 812 01ad C68424B0 		movb	$0, 176(%rsp)
 812      00000000 
 813              	.LEHB14:
 814 01b5 E8000000 		call	_ZSt16__ostream_insertIcSt11char_traitsIcEERSt13basic_ostreamIT_T0_ES6_PKS3_l@PLT
 814      00
 815 01ba 8B7500   		movl	0(%rbp), %esi
 816 01bd 4C89E7   		movq	%r12, %rdi
 817 01c0 E8000000 		call	_ZNSolsEi@PLT
 817      00
 818 01c5 BA090000 		movl	$9, %edx
 818      00
 819 01ca 488D3500 		leaq	.LC1(%rip), %rsi
 819      000000
 820 01d1 4889C7   		movq	%rax, %rdi
 821 01d4 4889C5   		movq	%rax, %rbp
 822 01d7 E8000000 		call	_ZSt16__ostream_insertIcSt11char_traitsIcEERSt13basic_ostreamIT_T0_ES6_PKS3_l@PLT
 822      00
 823 01dc 8B33     		movl	(%rbx), %esi
 824 01de 4889EF   		movq	%rbp, %rdi
 825 01e1 E8000000 		call	_ZNSolsEi@PLT
 825      00
 826 01e6 4C89E7   		movq	%r12, %rdi
 827 01e9 E8000000 		call	_ZNK8UnitTest15MemoryOutStream7GetTextEv@PLT
 827      00
 828 01ee 488B7424 		movq	32(%rsp), %rsi
 828      20
 829 01f3 488B7C24 		movq	16(%rsp), %rdi
 829      10
 830 01f8 4889C2   		movq	%rax, %rdx
 831 01fb E8000000 		call	_ZN8UnitTest11TestResults13OnTestFailureERKNS_11TestDetailsEPKc@PLT
 831      00
 832              	.LEHE14:
 833 0200 F30F7E05 		movq	.LC2(%rip), %xmm0
 833      00000000 
 834 0208 488D0500 		leaq	64+_ZTVN8UnitTest15MemoryOutStreamE(%rip), %rax
 834      000000
 835 020f 4C897C24 		movq	%r15, 48(%rsp)
 835      30
 836 0214 48898424 		movq	%rax, 192(%rsp)
 836      C0000000 
 837 021c 488BBC24 		movq	160(%rsp), %rdi
 837      A0000000 
 838 0224 0F160500 		movhps	.LC4(%rip), %xmm0
 838      000000
 839 022b 483B7C24 		cmpq	40(%rsp), %rdi
 839      28
 840 0230 7410     		je	.L51
 841 0232 0F294424 		movaps	%xmm0, 16(%rsp)
 841      10
 842 0237 E8000000 		call	_ZdlPv@PLT
 842      00
 843 023c 660F6F44 		movdqa	16(%rsp), %xmm0
 843      2410
 844              	.L51:
 845 0242 488D0500 		leaq	64+_ZTCN8UnitTest15MemoryOutStreamE0_NSt7__cxx1119basic_ostringstreamIcSt11char_traitsIcESaIc
 845      000000
 846 0249 488BBC24 		movq	128(%rsp), %rdi
 846      80000000 
 847 0251 0F294424 		movaps	%xmm0, 48(%rsp)
 847      30
 848 0256 48898424 		movq	%rax, 192(%rsp)
 848      C0000000 
 849 025e 483B3C24 		cmpq	(%rsp), %rdi
 850 0262 7405     		je	.L52
 851 0264 E8000000 		call	_ZdlPv@PLT
 851      00
 852              	.L52:
 853 0269 488D0500 		leaq	16+_ZTVSt15basic_streambufIcSt11char_traitsIcEE(%rip), %rax
 853      000000
 854 0270 4C89F7   		movq	%r14, %rdi
 855 0273 48894424 		movq	%rax, 56(%rsp)
 855      38
 856 0278 E8000000 		call	_ZNSt6localeD1Ev@PLT
 856      00
 857 027d 488D0500 		leaq	24+_ZTCN8UnitTest15MemoryOutStreamE0_So(%rip), %rax
 857      000000
 858 0284 4C89EF   		movq	%r13, %rdi
 859 0287 48894424 		movq	%rax, 48(%rsp)
 859      30
 860 028c 488D0500 		leaq	16+_ZTVSt9basic_iosIcSt11char_traitsIcEE(%rip), %rax
 860      000000
 861 0293 48898424 		movq	%rax, 192(%rsp)
 861      C0000000 
 862              	.LEHB15:
 863 029b E8000000 		call	_ZNSt8ios_baseD2Ev@PLT
 863      00
 864              	.LEHE15:
 865 02a0 E9A2FDFF 		jmp	.L45
 865      FF
 866              	.L62:
 867 02a5 E8000000 		call	__stack_chk_fail@PLT
 867      00
 868              	.L56:
 869 02aa F30F1EFA 		endbr64
 870 02ae 4889C5   		movq	%rax, %rbp
 871 02b1 E9000000 		jmp	.L49
 871      00
 872              	.L57:
 873 02b6 F30F1EFA 		endbr64
 874 02ba 4889C5   		movq	%rax, %rbp
 875 02bd E9000000 		jmp	.L48
 875      00
 876              	.L55:
 877 02c2 F30F1EFA 		endbr64
 878 02c6 4889C5   		movq	%rax, %rbp
 879 02c9 E9000000 		jmp	.L53
 879      00
 880              		.section	.gcc_except_table,"a",@progbits
 881              	.LLSDA1343:
 882 0000 FF       		.byte	0xff
 883 0001 FF       		.byte	0xff
 884 0002 01       		.byte	0x1
 885 0003 17       		.uleb128 .LLSDACSE1343-.LLSDACSB1343
 886              	.LLSDACSB1343:
 887 0004 CD01     		.uleb128 .LEHB12-.LFB1343
 888 0006 05       		.uleb128 .LEHE12-.LEHB12
 889 0007 AA05     		.uleb128 .L56-.LFB1343
 890 0009 00       		.uleb128 0
 891 000a E002     		.uleb128 .LEHB13-.LFB1343
 892 000c 05       		.uleb128 .LEHE13-.LEHB13
 893 000d B605     		.uleb128 .L57-.LFB1343
 894 000f 00       		.uleb128 0
 895 0010 B503     		.uleb128 .LEHB14-.LFB1343
 896 0012 4B       		.uleb128 .LEHE14-.LEHB14
 897 0013 C205     		.uleb128 .L55-.LFB1343
 898 0015 00       		.uleb128 0
 899 0016 9B05     		.uleb128 .LEHB15-.LFB1343
 900 0018 05       		.uleb128 .LEHE15-.LEHB15
 901 0019 00       		.uleb128 0
 902 001a 00       		.uleb128 0
 903              	.LLSDACSE1343:
 904              		.text
 905              		.cfi_endproc
 906              		.section	.text.unlikely
 907              		.cfi_startproc
 908              		.cfi_personality 0x9b,DW.ref.__gxx_personality_v0
 909              		.cfi_lsda 0x1b,.LLSDAC1343
 911              	_ZN8UnitTest10CheckEqualI12BufferStatusS1_EEvRNS_11TestResultsERKT_RKT0_RKNS_11TestDetailsE.constpr
 912              	.LFSB1343:
 913              	.L48:
 914              		.cfi_def_cfa_offset 528
 915              		.cfi_offset 3, -56
 916              		.cfi_offset 6, -48
 917              		.cfi_offset 12, -40
 918              		.cfi_offset 13, -32
 919              		.cfi_offset 14, -24
 920              		.cfi_offset 15, -16
 921 0000 4C89FF   		movq	%r15, %rdi
 922 0003 E8000000 		call	_ZNSt7__cxx1115basic_stringbufIcSt11char_traitsIcESaIcEED1Ev
 922      00
 923 0008 488D0500 		leaq	24+_ZTCN8UnitTest15MemoryOutStreamE0_So(%rip), %rax
 923      000000
 924 000f 48894424 		movq	%rax, 48(%rsp)
 924      30
 925              	.L49:
 926 0014 488D0500 		leaq	16+_ZTVSt9basic_iosIcSt11char_traitsIcEE(%rip), %rax
 926      000000
 927 001b 4C89EF   		movq	%r13, %rdi
 928 001e 48898424 		movq	%rax, 192(%rsp)
 928      C0000000 
 929 0026 E8000000 		call	_ZNSt8ios_baseD2Ev@PLT
 929      00
 930 002b 4889EF   		movq	%rbp, %rdi
 931              	.LEHB16:
 932 002e E8000000 		call	_Unwind_Resume@PLT
 932      00
 933              	.LEHE16:
 934              	.L53:
 935 0033 4C89E7   		movq	%r12, %rdi
 936 0036 E8000000 		call	_ZN8UnitTest15MemoryOutStreamD1Ev
 936      00
 937 003b 4889EF   		movq	%rbp, %rdi
 938              	.LEHB17:
 939 003e E8000000 		call	_Unwind_Resume@PLT
 939      00
 940              	.LEHE17:
 941              		.cfi_endproc
 942              	.LFE1343:
 943              		.section	.gcc_except_table
 944              	.LLSDAC1343:
 945 001b FF       		.byte	0xff
 946 001c FF       		.byte	0xff
 947 001d 01       		.byte	0x1
 948 001e 08       		.uleb128 .LLSDACSEC1343-.LLSDACSBC1343
 949              	.LLSDACSBC1343:
 950 001f 2E       		.uleb128 .LEHB16-.LCOLDB5
 951 0020 05       		.uleb128 .LEHE16-.LEHB16
 952 0021 00       		.uleb128 0
 953 0022 00       		.uleb128 0
 954 0023 3E       		.uleb128 .LEHB17-.LCOLDB5
 955 0024 05       		.uleb128 .LEHE17-.LEHB17
 956 0025 00       		.uleb128 0
 957 0026 00       		.uleb128 0
 958              	.LLSDACSEC1343:
 959              		.section	.text.unlikely
 960              		.text
 962              		.section	.text.unlikely
 964              	.LCOLDE5:
 965              		.text
 966              	.LHOTE5:
 967              		.section	.rodata.str1.1
 968              	.LC6:
 969 0014 45787065 		.string	"Expected [ "
 969      63746564 
 969      205B2000 
 970              	.LC7:
 971 0020 2000     		.string	" "
 972              	.LC8:
 973 0022 5D206275 		.string	"] but was [ "
 973      74207761 
 973      73205B20 
 973      00
 974              	.LC9:
 975 002f 5D00     		.string	"]"
 976              		.section	.rodata.str1.8,"aMS",@progbits,1
 977              		.align 8
 978              	.LC10:
 979 0000 556E6861 		.string	"Unhandled exception in CHECK_EQUAL(BUF_SUCCESS, bStatus)"
 979      6E646C65 
 979      64206578 
 979      63657074 
 979      696F6E20 
 980 0039 00000000 		.align 8
 980      000000
 981              	.LC11:
 982 0040 556E6861 		.string	"Unhandled exception in CHECK_EQUAL(I2C_SUCCESS, iStatus)"
 982      6E646C65 
 982      64206578 
 982      63657074 
 982      696F6E20 
 983 0079 00000000 		.align 8
 983      000000
 984              	.LC12:
 985 0080 556E6861 		.string	"Unhandled exception in CHECK_ARRAY_EQUAL(expected, dstData.data)"
 985      6E646C65 
 985      64206578 
 985      63657074 
 985      696F6E20 
 986              		.section	.text.unlikely
 987 0043 90       		.align 2
 988              	.LCOLDB13:
 989              		.text
 990              	.LHOTB13:
 991              		.align 2
 992 02ce 6690     		.p2align 4
 993              		.globl	_ZNK21TestI2C_testRoundTrip7RunImplEv
 995              	_ZNK21TestI2C_testRoundTrip7RunImplEv:
 996              	.LFB1219:
 997              		.cfi_startproc
 998              		.cfi_personality 0x9b,DW.ref.__gxx_personality_v0
 999              		.cfi_lsda 0x1b,.LLSDA1219
 1000 02d0 F30F1EFA 		endbr64
 1001 02d4 4157     		pushq	%r15
 1002              		.cfi_def_cfa_offset 16
 1003              		.cfi_offset 15, -16
 1004 02d6 31D2     		xorl	%edx, %edx
 1005 02d8 4531FF   		xorl	%r15d, %r15d
 1006 02db 4156     		pushq	%r14
 1007              		.cfi_def_cfa_offset 24
 1008              		.cfi_offset 14, -24
 1009 02dd 4155     		pushq	%r13
 1010              		.cfi_def_cfa_offset 32
 1011              		.cfi_offset 13, -32
 1012 02df 4154     		pushq	%r12
 1013              		.cfi_def_cfa_offset 40
 1014              		.cfi_offset 12, -40
 1015 02e1 55       		pushq	%rbp
 1016              		.cfi_def_cfa_offset 48
 1017              		.cfi_offset 6, -48
 1018 02e2 53       		pushq	%rbx
 1019              		.cfi_def_cfa_offset 56
 1020              		.cfi_offset 3, -56
 1021 02e3 4881EC48 		subq	$840, %rsp
 1021      030000
 1022              		.cfi_def_cfa_offset 896
 1023 02ea F30F7E2D 		movq	.LC2(%rip), %xmm5
 1023      00000000 
 1024 02f2 64488B04 		movq	%fs:40, %rax
 1024      25280000 
 1024      00
 1025 02fb 48898424 		movq	%rax, 824(%rsp)
 1025      38030000 
 1026 0303 31C0     		xorl	%eax, %eax
 1027 0305 488D9C24 		leaq	176(%rsp), %rbx
 1027      B0000000 
 1028 030d 0F162D00 		movhps	.LC3(%rip), %xmm5
 1028      000000
 1029 0314 48895C24 		movq	%rbx, 8(%rsp)
 1029      08
 1030 0319 0F29AC24 		movaps	%xmm5, 128(%rsp)
 1030      80000000 
 1031 0321 EB69     		jmp	.L64
 1032              		.p2align 4,,10
 1033 0323 0F1F4400 		.p2align 3
 1033      00
 1034              	.L227:
 1035 0328 0FB68424 		movzbl	815(%rsp), %eax
 1035      2F030000 
 1036 0330 38420F   		cmpb	%al, 15(%rdx)
 1037 0333 0F85FF0E 		jne	.L202
 1037      0000
 1038              	.L106:
 1039 0339 488BBC24 		movq	144(%rsp), %rdi
 1039      90000000 
 1040 0341 4183C701 		addl	$1, %r15d
 1041              	.LEHB18:
 1042 0345 E8000000 		call	bufDestroy@PLT
 1042      00
 1043 034a 488B7C24 		movq	24(%rsp), %rdi
 1043      18
 1044 034f E8000000 		call	bufDestroy@PLT
 1044      00
 1045 0354 488B7C24 		movq	120(%rsp), %rdi
 1045      78
 1046 0359 E8000000 		call	bufDestroy@PLT
 1046      00
 1047 035e 488B7C24 		movq	16(%rsp), %rdi
 1047      10
 1048 0363 E8000000 		call	bufDestroy@PLT
 1048      00
 1049 0368 488B7C24 		movq	8(%rsp), %rdi
 1049      08
 1050 036d E8000000 		call	bufDestroy@PLT
 1050      00
 1051 0372 4181FF00 		cmpl	$65536, %r15d
 1051      000100
 1052 0379 0F84E011 		je	.L63
 1052      0000
 1053 037f 4489F8   		movl	%r15d, %eax
 1054 0382 83E001   		andl	$1, %eax
 1055 0385 89C2     		movl	%eax, %edx
 1056 0387 F7DA     		negl	%edx
 1057 0389 83E2E1   		andl	$-31, %edx
 1058              	.L64:
 1059 038c 88842410 		movb	%al, 784(%rsp)
 1059      030000
 1060 0393 4489F8   		movl	%r15d, %eax
 1061 0396 BE000400 		movl	$1024, %esi
 1061      00
 1062 039b 83E002   		andl	$2, %eax
 1063 039e 88942420 		movb	%dl, 800(%rsp)
 1063      030000
 1064 03a5 89C3     		movl	%eax, %ebx
 1065 03a7 F7DB     		negl	%ebx
 1066 03a9 18D2     		sbbb	%dl, %dl
 1067 03ab 83E2E2   		andl	$-30, %edx
 1068 03ae 83F801   		cmpl	$1, %eax
 1069 03b1 19C0     		sbbl	%eax, %eax
 1070 03b3 88942421 		movb	%dl, 801(%rsp)
 1070      030000
 1071 03ba 83C001   		addl	$1, %eax
 1072 03bd 88842411 		movb	%al, 785(%rsp)
 1072      030000
 1073 03c4 4489F8   		movl	%r15d, %eax
 1074 03c7 83E004   		andl	$4, %eax
 1075 03ca 89C3     		movl	%eax, %ebx
 1076 03cc F7DB     		negl	%ebx
 1077 03ce 18D2     		sbbb	%dl, %dl
 1078 03d0 83E2E3   		andl	$-29, %edx
 1079 03d3 83F801   		cmpl	$1, %eax
 1080 03d6 19C0     		sbbl	%eax, %eax
 1081 03d8 88942422 		movb	%dl, 802(%rsp)
 1081      030000
 1082 03df 83C001   		addl	$1, %eax
 1083 03e2 88842412 		movb	%al, 786(%rsp)
 1083      030000
 1084 03e9 4489F8   		movl	%r15d, %eax
 1085 03ec 83E008   		andl	$8, %eax
 1086 03ef 89C3     		movl	%eax, %ebx
 1087 03f1 F7DB     		negl	%ebx
 1088 03f3 18D2     		sbbb	%dl, %dl
 1089 03f5 83E2E4   		andl	$-28, %edx
 1090 03f8 83F801   		cmpl	$1, %eax
 1091 03fb 19C0     		sbbl	%eax, %eax
 1092 03fd 88942423 		movb	%dl, 803(%rsp)
 1092      030000
 1093 0404 83C001   		addl	$1, %eax
 1094 0407 88842413 		movb	%al, 787(%rsp)
 1094      030000
 1095 040e 4489F8   		movl	%r15d, %eax
 1096 0411 83E010   		andl	$16, %eax
 1097 0414 89C3     		movl	%eax, %ebx
 1098 0416 F7DB     		negl	%ebx
 1099 0418 18D2     		sbbb	%dl, %dl
 1100 041a 83E2E5   		andl	$-27, %edx
 1101 041d 83F801   		cmpl	$1, %eax
 1102 0420 19C0     		sbbl	%eax, %eax
 1103 0422 88942424 		movb	%dl, 804(%rsp)
 1103      030000
 1104 0429 83C001   		addl	$1, %eax
 1105 042c 88842414 		movb	%al, 788(%rsp)
 1105      030000
 1106 0433 4489F8   		movl	%r15d, %eax
 1107 0436 83E020   		andl	$32, %eax
 1108 0439 89C3     		movl	%eax, %ebx
 1109 043b F7DB     		negl	%ebx
 1110 043d 18D2     		sbbb	%dl, %dl
 1111 043f 83E2E6   		andl	$-26, %edx
 1112 0442 83F801   		cmpl	$1, %eax
 1113 0445 19C0     		sbbl	%eax, %eax
 1114 0447 88942425 		movb	%dl, 805(%rsp)
 1114      030000
 1115 044e 83C001   		addl	$1, %eax
 1116 0451 88842415 		movb	%al, 789(%rsp)
 1116      030000
 1117 0458 4489F8   		movl	%r15d, %eax
 1118 045b 83E040   		andl	$64, %eax
 1119 045e 89C3     		movl	%eax, %ebx
 1120 0460 F7DB     		negl	%ebx
 1121 0462 18D2     		sbbb	%dl, %dl
 1122 0464 83E2E7   		andl	$-25, %edx
 1123 0467 83F801   		cmpl	$1, %eax
 1124 046a 19C0     		sbbl	%eax, %eax
 1125 046c 88942426 		movb	%dl, 806(%rsp)
 1125      030000
 1126 0473 83C001   		addl	$1, %eax
 1127 0476 88842416 		movb	%al, 790(%rsp)
 1127      030000
 1128 047d 4489F8   		movl	%r15d, %eax
 1129 0480 25800000 		andl	$128, %eax
 1129      00
 1130 0485 89C3     		movl	%eax, %ebx
 1131 0487 F7DB     		negl	%ebx
 1132 0489 18D2     		sbbb	%dl, %dl
 1133 048b 83E2E8   		andl	$-24, %edx
 1134 048e 83F801   		cmpl	$1, %eax
 1135 0491 19C0     		sbbl	%eax, %eax
 1136 0493 88942427 		movb	%dl, 807(%rsp)
 1136      030000
 1137 049a 83C001   		addl	$1, %eax
 1138 049d 88842417 		movb	%al, 791(%rsp)
 1138      030000
 1139 04a4 4489F8   		movl	%r15d, %eax
 1140 04a7 25000100 		andl	$256, %eax
 1140      00
 1141 04ac 89C3     		movl	%eax, %ebx
 1142 04ae F7DB     		negl	%ebx
 1143 04b0 18D2     		sbbb	%dl, %dl
 1144 04b2 83E2E9   		andl	$-23, %edx
 1145 04b5 83F801   		cmpl	$1, %eax
 1146 04b8 19C0     		sbbl	%eax, %eax
 1147 04ba 88942428 		movb	%dl, 808(%rsp)
 1147      030000
 1148 04c1 83C001   		addl	$1, %eax
 1149 04c4 88842418 		movb	%al, 792(%rsp)
 1149      030000
 1150 04cb 4489F8   		movl	%r15d, %eax
 1151 04ce 25000200 		andl	$512, %eax
 1151      00
 1152 04d3 89C3     		movl	%eax, %ebx
 1153 04d5 F7DB     		negl	%ebx
 1154 04d7 18D2     		sbbb	%dl, %dl
 1155 04d9 83E2EA   		andl	$-22, %edx
 1156 04dc 83F801   		cmpl	$1, %eax
 1157 04df 19C0     		sbbl	%eax, %eax
 1158 04e1 88942429 		movb	%dl, 809(%rsp)
 1158      030000
 1159 04e8 83C001   		addl	$1, %eax
 1160 04eb 88842419 		movb	%al, 793(%rsp)
 1160      030000
 1161 04f2 4489F8   		movl	%r15d, %eax
 1162 04f5 25000400 		andl	$1024, %eax
 1162      00
 1163 04fa 89C3     		movl	%eax, %ebx
 1164 04fc F7DB     		negl	%ebx
 1165 04fe 18D2     		sbbb	%dl, %dl
 1166 0500 83E2EB   		andl	$-21, %edx
 1167 0503 83F801   		cmpl	$1, %eax
 1168 0506 19C0     		sbbl	%eax, %eax
 1169 0508 8894242A 		movb	%dl, 810(%rsp)
 1169      030000
 1170 050f 83C001   		addl	$1, %eax
 1171 0512 8884241A 		movb	%al, 794(%rsp)
 1171      030000
 1172 0519 4489F8   		movl	%r15d, %eax
 1173 051c 25000800 		andl	$2048, %eax
 1173      00
 1174 0521 89C3     		movl	%eax, %ebx
 1175 0523 F7DB     		negl	%ebx
 1176 0525 18D2     		sbbb	%dl, %dl
 1177 0527 83E2EC   		andl	$-20, %edx
 1178 052a 83F801   		cmpl	$1, %eax
 1179 052d 19C0     		sbbl	%eax, %eax
 1180 052f 8894242B 		movb	%dl, 811(%rsp)
 1180      030000
 1181 0536 83C001   		addl	$1, %eax
 1182 0539 8884241B 		movb	%al, 795(%rsp)
 1182      030000
 1183 0540 4489F8   		movl	%r15d, %eax
 1184 0543 25001000 		andl	$4096, %eax
 1184      00
 1185 0548 89C3     		movl	%eax, %ebx
 1186 054a F7DB     		negl	%ebx
 1187 054c 18D2     		sbbb	%dl, %dl
 1188 054e 83E2ED   		andl	$-19, %edx
 1189 0551 83F801   		cmpl	$1, %eax
 1190 0554 19C0     		sbbl	%eax, %eax
 1191 0556 8894242C 		movb	%dl, 812(%rsp)
 1191      030000
 1192 055d 83C001   		addl	$1, %eax
 1193 0560 8884241C 		movb	%al, 796(%rsp)
 1193      030000
 1194 0567 4489F8   		movl	%r15d, %eax
 1195 056a 25002000 		andl	$8192, %eax
 1195      00
 1196 056f 89C3     		movl	%eax, %ebx
 1197 0571 F7DB     		negl	%ebx
 1198 0573 18D2     		sbbb	%dl, %dl
 1199 0575 83E2EE   		andl	$-18, %edx
 1200 0578 83F801   		cmpl	$1, %eax
 1201 057b 19C0     		sbbl	%eax, %eax
 1202 057d 8894242D 		movb	%dl, 813(%rsp)
 1202      030000
 1203 0584 83C001   		addl	$1, %eax
 1204 0587 8884241D 		movb	%al, 797(%rsp)
 1204      030000
 1205 058e 4489F8   		movl	%r15d, %eax
 1206 0591 25004000 		andl	$16384, %eax
 1206      00
 1207 0596 89C3     		movl	%eax, %ebx
 1208 0598 F7DB     		negl	%ebx
 1209 059a 18D2     		sbbb	%dl, %dl
 1210 059c 83E2EF   		andl	$-17, %edx
 1211 059f 83F801   		cmpl	$1, %eax
 1212 05a2 19C0     		sbbl	%eax, %eax
 1213 05a4 8894242E 		movb	%dl, 814(%rsp)
 1213      030000
 1214 05ab 83C001   		addl	$1, %eax
 1215 05ae 8884241E 		movb	%al, 798(%rsp)
 1215      030000
 1216 05b5 4489F8   		movl	%r15d, %eax
 1217 05b8 25008000 		andl	$32768, %eax
 1217      00
 1218 05bd 89C3     		movl	%eax, %ebx
 1219 05bf F7DB     		negl	%ebx
 1220 05c1 18D2     		sbbb	%dl, %dl
 1221 05c3 83E2F0   		andl	$-16, %edx
 1222 05c6 83F801   		cmpl	$1, %eax
 1223 05c9 19C0     		sbbl	%eax, %eax
 1224 05cb 8894242F 		movb	%dl, 815(%rsp)
 1224      030000
 1225 05d2 31C9     		xorl	%ecx, %ecx
 1226 05d4 31D2     		xorl	%edx, %edx
 1227 05d6 83C001   		addl	$1, %eax
 1228 05d9 8884241F 		movb	%al, 799(%rsp)
 1228      030000
 1229 05e0 488B7C24 		movq	8(%rsp), %rdi
 1229      08
 1230 05e5 E8000000 		call	bufInitialise@PLT
 1230      00
 1231              	.LEHE18:
 1232 05ea 898424A8 		movl	%eax, 168(%rsp)
 1232      000000
 1233              	.LEHB19:
 1234 05f1 E8000000 		call	_ZN8UnitTest11CurrentTest7DetailsEv@PLT
 1234      00
 1235 05f6 488DAC24 		leaq	336(%rsp), %rbp
 1235      50010000 
 1236 05fe 488B30   		movq	(%rax), %rsi
 1237 0601 BA420000 		movl	$66, %edx
 1237      00
 1238 0606 4889EF   		movq	%rbp, %rdi
 1239 0609 E8000000 		call	_ZN8UnitTest11TestDetailsC1ERKS0_i@PLT
 1239      00
 1240 060e C78424AC 		movl	$0, 172(%rsp)
 1240      00000000 
 1240      000000
 1241 0619 E8000000 		call	_ZN8UnitTest11CurrentTest7ResultsEv@PLT
 1241      00
 1242 061e 4C8DB424 		leaq	172(%rsp), %r14
 1242      AC000000 
 1243 0626 488B38   		movq	(%rax), %rdi
 1244 0629 488D9424 		leaq	168(%rsp), %rdx
 1244      A8000000 
 1245 0631 4889E9   		movq	%rbp, %rcx
 1246 0634 4C89F6   		movq	%r14, %rsi
 1247 0637 E8C4F9FF 		call	_ZN8UnitTest10CheckEqualI12BufferStatusS1_EEvRNS_11TestResultsERKT_RKT0_RKNS_11TestDetailsE.c
 1247      FF
 1248              	.LEHE19:
 1249              	.L127:
 1250 063c 488B7C24 		movq	8(%rsp), %rdi
 1250      08
 1251 0641 41B80100 		movl	$1, %r8d
 1251      0000
 1252 0647 31C9     		xorl	%ecx, %ecx
 1253 0649 BA138600 		movl	$34323, %edx
 1253      00
 1254 064e BEB40400 		movl	$1204, %esi
 1254      00
 1255              	.LEHB20:
 1256 0653 E8000000 		call	i2cInitialise@PLT
 1256      00
 1257 0658 31C9     		xorl	%ecx, %ecx
 1258 065a 31D2     		xorl	%edx, %edx
 1259 065c BE100000 		movl	$16, %esi
 1259      00
 1260 0661 488D8424 		leaq	208(%rsp), %rax
 1260      D0000000 
 1261 0669 4889C7   		movq	%rax, %rdi
 1262 066c 48894424 		movq	%rax, 16(%rsp)
 1262      10
 1263 0671 E8000000 		call	bufInitialise@PLT
 1263      00
 1264              	.LEHE20:
 1265 0676 898424A8 		movl	%eax, 168(%rsp)
 1265      000000
 1266              	.LEHB21:
 1267 067d E8000000 		call	_ZN8UnitTest11CurrentTest7DetailsEv@PLT
 1267      00
 1268 0682 488B30   		movq	(%rax), %rsi
 1269 0685 BA450000 		movl	$69, %edx
 1269      00
 1270 068a 4889EF   		movq	%rbp, %rdi
 1271 068d E8000000 		call	_ZN8UnitTest11TestDetailsC1ERKS0_i@PLT
 1271      00
 1272 0692 C78424AC 		movl	$0, 172(%rsp)
 1272      00000000 
 1272      000000
 1273 069d E8000000 		call	_ZN8UnitTest11CurrentTest7ResultsEv@PLT
 1273      00
 1274 06a2 4C8DB424 		leaq	172(%rsp), %r14
 1274      AC000000 
 1275 06aa 488B38   		movq	(%rax), %rdi
 1276 06ad 488D9424 		leaq	168(%rsp), %rdx
 1276      A8000000 
 1277 06b5 4889E9   		movq	%rbp, %rcx
 1278 06b8 4C89F6   		movq	%r14, %rsi
 1279 06bb E840F9FF 		call	_ZN8UnitTest10CheckEqualI12BufferStatusS1_EEvRNS_11TestResultsERKT_RKT0_RKNS_11TestDetailsE.c
 1279      FF
 1280              	.LEHE21:
 1281              	.L130:
 1282 06c0 488D8424 		leaq	272(%rsp), %rax
 1282      10010000 
 1283 06c8 31C9     		xorl	%ecx, %ecx
 1284 06ca 31D2     		xorl	%edx, %edx
 1285 06cc BE100000 		movl	$16, %esi
 1285      00
 1286 06d1 4889C7   		movq	%rax, %rdi
 1287 06d4 48894424 		movq	%rax, 120(%rsp)
 1287      78
 1288              	.LEHB22:
 1289 06d9 E8000000 		call	bufInitialise@PLT
 1289      00
 1290              	.LEHE22:
 1291 06de 898424A8 		movl	%eax, 168(%rsp)
 1291      000000
 1292              	.LEHB23:
 1293 06e5 E8000000 		call	_ZN8UnitTest11CurrentTest7DetailsEv@PLT
 1293      00
 1294 06ea 488B30   		movq	(%rax), %rsi
 1295 06ed BA470000 		movl	$71, %edx
 1295      00
 1296 06f2 4889EF   		movq	%rbp, %rdi
 1297 06f5 E8000000 		call	_ZN8UnitTest11TestDetailsC1ERKS0_i@PLT
 1297      00
 1298 06fa C78424AC 		movl	$0, 172(%rsp)
 1298      00000000 
 1298      000000
 1299 0705 E8000000 		call	_ZN8UnitTest11CurrentTest7ResultsEv@PLT
 1299      00
 1300 070a 4C8DB424 		leaq	172(%rsp), %r14
 1300      AC000000 
 1301 0712 488B38   		movq	(%rax), %rdi
 1302 0715 488D9424 		leaq	168(%rsp), %rdx
 1302      A8000000 
 1303 071d 4889E9   		movq	%rbp, %rcx
 1304 0720 4C89F6   		movq	%r14, %rsi
 1305 0723 E8D8F8FF 		call	_ZN8UnitTest10CheckEqualI12BufferStatusS1_EEvRNS_11TestResultsERKT_RKT0_RKNS_11TestDetailsE.c
 1305      FF
 1306              	.LEHE23:
 1307              	.L133:
 1308 0728 488D8424 		leaq	240(%rsp), %rax
 1308      F0000000 
 1309 0730 31C9     		xorl	%ecx, %ecx
 1310 0732 31D2     		xorl	%edx, %edx
 1311 0734 BE100000 		movl	$16, %esi
 1311      00
 1312 0739 4889C7   		movq	%rax, %rdi
 1313 073c 48894424 		movq	%rax, 24(%rsp)
 1313      18
 1314              	.LEHB24:
 1315 0741 E8000000 		call	bufInitialise@PLT
 1315      00
 1316              	.LEHE24:
 1317 0746 898424A8 		movl	%eax, 168(%rsp)
 1317      000000
 1318              	.LEHB25:
 1319 074d E8000000 		call	_ZN8UnitTest11CurrentTest7DetailsEv@PLT
 1319      00
 1320 0752 488B30   		movq	(%rax), %rsi
 1321 0755 BA490000 		movl	$73, %edx
 1321      00
 1322 075a 4889EF   		movq	%rbp, %rdi
 1323 075d E8000000 		call	_ZN8UnitTest11TestDetailsC1ERKS0_i@PLT
 1323      00
 1324 0762 C78424AC 		movl	$0, 172(%rsp)
 1324      00000000 
 1324      000000
 1325 076d E8000000 		call	_ZN8UnitTest11CurrentTest7ResultsEv@PLT
 1325      00
 1326 0772 4C8DB424 		leaq	172(%rsp), %r14
 1326      AC000000 
 1327 077a 488B38   		movq	(%rax), %rdi
 1328 077d 488D9424 		leaq	168(%rsp), %rdx
 1328      A8000000 
 1329 0785 4889E9   		movq	%rbp, %rcx
 1330 0788 4C89F6   		movq	%r14, %rsi
 1331 078b E870F8FF 		call	_ZN8UnitTest10CheckEqualI12BufferStatusS1_EEvRNS_11TestResultsERKT_RKT0_RKNS_11TestDetailsE.c
 1331      FF
 1332              	.LEHE25:
 1333              	.L136:
 1334 0790 488D8424 		leaq	304(%rsp), %rax
 1334      30010000 
 1335 0798 31C9     		xorl	%ecx, %ecx
 1336 079a 31D2     		xorl	%edx, %edx
 1337 079c BE100000 		movl	$16, %esi
 1337      00
 1338 07a1 4889C7   		movq	%rax, %rdi
 1339 07a4 48898424 		movq	%rax, 144(%rsp)
 1339      90000000 
 1340              	.LEHB26:
 1341 07ac E8000000 		call	bufInitialise@PLT
 1341      00
 1342              	.LEHE26:
 1343 07b1 898424A8 		movl	%eax, 168(%rsp)
 1343      000000
 1344              	.LEHB27:
 1345 07b8 E8000000 		call	_ZN8UnitTest11CurrentTest7DetailsEv@PLT
 1345      00
 1346 07bd 488B30   		movq	(%rax), %rsi
 1347 07c0 BA4B0000 		movl	$75, %edx
 1347      00
 1348 07c5 4889EF   		movq	%rbp, %rdi
 1349 07c8 E8000000 		call	_ZN8UnitTest11TestDetailsC1ERKS0_i@PLT
 1349      00
 1350 07cd C78424AC 		movl	$0, 172(%rsp)
 1350      00000000 
 1350      000000
 1351 07d8 E8000000 		call	_ZN8UnitTest11CurrentTest7ResultsEv@PLT
 1351      00
 1352 07dd 4C8DB424 		leaq	172(%rsp), %r14
 1352      AC000000 
 1353 07e5 488B38   		movq	(%rax), %rdi
 1354 07e8 488D9424 		leaq	168(%rsp), %rdx
 1354      A8000000 
 1355 07f0 4889E9   		movq	%rbp, %rcx
 1356 07f3 4C89F6   		movq	%r14, %rsi
 1357 07f6 E805F8FF 		call	_ZN8UnitTest10CheckEqualI12BufferStatusS1_EEvRNS_11TestResultsERKT_RKT0_RKNS_11TestDetailsE.c
 1357      FF
 1358              	.LEHE27:
 1359              	.L139:
 1360 07fb 488B7C24 		movq	16(%rsp), %rdi
 1360      10
 1361 0800 4531C0   		xorl	%r8d, %r8d
 1362 0803 B9100000 		movl	$16, %ecx
 1362      00
 1363 0808 31F6     		xorl	%esi, %esi
 1364 080a 488D9C24 		leaq	800(%rsp), %rbx
 1364      20030000 
 1365 0812 4889DA   		movq	%rbx, %rdx
 1366              	.LEHB28:
 1367 0815 E8000000 		call	bufWriteBlock@PLT
 1367      00
 1368              	.LEHE28:
 1369 081a 898424A8 		movl	%eax, 168(%rsp)
 1369      000000
 1370              	.LEHB29:
 1371 0821 E8000000 		call	_ZN8UnitTest11CurrentTest7DetailsEv@PLT
 1371      00
 1372 0826 488B30   		movq	(%rax), %rsi
 1373 0829 BA4D0000 		movl	$77, %edx
 1373      00
 1374 082e 4889EF   		movq	%rbp, %rdi
 1375 0831 E8000000 		call	_ZN8UnitTest11TestDetailsC1ERKS0_i@PLT
 1375      00
 1376 0836 C78424AC 		movl	$0, 172(%rsp)
 1376      00000000 
 1376      000000
 1377 0841 E8000000 		call	_ZN8UnitTest11CurrentTest7ResultsEv@PLT
 1377      00
 1378 0846 4C8DB424 		leaq	172(%rsp), %r14
 1378      AC000000 
 1379 084e 488B38   		movq	(%rax), %rdi
 1380 0851 488D9424 		leaq	168(%rsp), %rdx
 1380      A8000000 
 1381 0859 4889E9   		movq	%rbp, %rcx
 1382 085c 4C89F6   		movq	%r14, %rsi
 1383 085f E89CF7FF 		call	_ZN8UnitTest10CheckEqualI12BufferStatusS1_EEvRNS_11TestResultsERKT_RKT0_RKNS_11TestDetailsE.c
 1383      FF
 1384              	.LEHE29:
 1385              	.L142:
 1386 0864 488B7C24 		movq	24(%rsp), %rdi
 1386      18
 1387 0869 4531C0   		xorl	%r8d, %r8d
 1388 086c B9100000 		movl	$16, %ecx
 1388      00
 1389 0871 31F6     		xorl	%esi, %esi
 1390 0873 488D9424 		leaq	784(%rsp), %rdx
 1390      10030000 
 1391              	.LEHB30:
 1392 087b E8000000 		call	bufWriteBlock@PLT
 1392      00
 1393              	.LEHE30:
 1394 0880 898424A8 		movl	%eax, 168(%rsp)
 1394      000000
 1395              	.LEHB31:
 1396 0887 E8000000 		call	_ZN8UnitTest11CurrentTest7DetailsEv@PLT
 1396      00
 1397 088c 488B30   		movq	(%rax), %rsi
 1398 088f BA4F0000 		movl	$79, %edx
 1398      00
 1399 0894 4889EF   		movq	%rbp, %rdi
 1400 0897 E8000000 		call	_ZN8UnitTest11TestDetailsC1ERKS0_i@PLT
 1400      00
 1401 089c C78424AC 		movl	$0, 172(%rsp)
 1401      00000000 
 1401      000000
 1402 08a7 E8000000 		call	_ZN8UnitTest11CurrentTest7ResultsEv@PLT
 1402      00
 1403 08ac 4C8DB424 		leaq	172(%rsp), %r14
 1403      AC000000 
 1404 08b4 488B38   		movq	(%rax), %rdi
 1405 08b7 488D9424 		leaq	168(%rsp), %rdx
 1405      A8000000 
 1406 08bf 4889E9   		movq	%rbp, %rcx
 1407 08c2 4C89F6   		movq	%r14, %rsi
 1408 08c5 E836F7FF 		call	_ZN8UnitTest10CheckEqualI12BufferStatusS1_EEvRNS_11TestResultsERKT_RKT0_RKNS_11TestDetailsE.c
 1408      FF
 1409              	.LEHE31:
 1410              	.L145:
 1411 08ca 488B5424 		movq	24(%rsp), %rdx
 1411      18
 1412 08cf 488B7424 		movq	16(%rsp), %rsi
 1412      10
 1413 08d4 31C9     		xorl	%ecx, %ecx
 1414 08d6 488B7C24 		movq	8(%rsp), %rdi
 1414      08
 1415              	.LEHB32:
 1416 08db E8000000 		call	i2cWritePromRecords@PLT
 1416      00
 1417              	.LEHE32:
 1418 08e0 4189C5   		movl	%eax, %r13d
 1419              	.LEHB33:
 1420 08e3 E8000000 		call	_ZN8UnitTest11CurrentTest7DetailsEv@PLT
 1420      00
 1421 08e8 488B30   		movq	(%rax), %rsi
 1422 08eb BA510000 		movl	$81, %edx
 1422      00
 1423 08f0 4889EF   		movq	%rbp, %rdi
 1424 08f3 E8000000 		call	_ZN8UnitTest11TestDetailsC1ERKS0_i@PLT
 1424      00
 1425 08f8 E8000000 		call	_ZN8UnitTest11CurrentTest7ResultsEv@PLT
 1425      00
 1426              	.LEHE33:
 1427 08fd 488B00   		movq	(%rax), %rax
 1428 0900 48894424 		movq	%rax, 112(%rsp)
 1428      70
 1429 0905 4585ED   		testl	%r13d, %r13d
 1430 0908 0F848202 		je	.L73
 1430      0000
 1431 090e 4C8DB424 		leaq	512(%rsp), %r14
 1431      00020000 
 1432 0916 4C89F7   		movq	%r14, %rdi
 1433 0919 4C897424 		movq	%r14, 32(%rsp)
 1433      20
 1434 091e E8000000 		call	_ZNSt8ios_baseC2Ev@PLT
 1434      00
 1435 0923 31F6     		xorl	%esi, %esi
 1436 0925 660FEFC0 		pxor	%xmm0, %xmm0
 1437 0929 4C89F7   		movq	%r14, %rdi
 1438 092c 488D0500 		leaq	24+_ZTCN8UnitTest15MemoryOutStreamE0_So(%rip), %rax
 1438      000000
 1439 0933 6689B424 		movw	%si, 736(%rsp)
 1439      E0020000 
 1440 093b 31F6     		xorl	%esi, %esi
 1441 093d 48894424 		movq	%rax, 40(%rsp)
 1441      28
 1442 0942 48898424 		movq	%rax, 368(%rsp)
 1442      70010000 
 1443 094a 4883C028 		addq	$40, %rax
 1444 094e 48C78424 		movq	$0, 728(%rsp)
 1444      D8020000 
 1444      00000000 
 1445 095a 48898424 		movq	%rax, 512(%rsp)
 1445      00020000 
 1446 0962 0F118424 		movups	%xmm0, 744(%rsp)
 1446      E8020000 
 1447 096a 0F118424 		movups	%xmm0, 760(%rsp)
 1447      F8020000 
 1448              	.LEHB34:
 1449 0972 E8000000 		call	_ZNSt9basic_iosIcSt11char_traitsIcEE4initEPSt15basic_streambufIcS1_E@PLT
 1449      00
 1450              	.LEHE34:
 1451 0977 488D0500 		leaq	64+_ZTCN8UnitTest15MemoryOutStreamE0_NSt7__cxx1119basic_ostringstreamIcSt11char_traitsIcESaIc
 1451      000000
 1452 097e 660FEFC0 		pxor	%xmm0, %xmm0
 1453 0982 660F6F8C 		movdqa	128(%rsp), %xmm1
 1453      24800000 
 1453      00
 1454 098b 4C8DA424 		leaq	368(%rsp), %r12
 1454      70010000 
 1455 0993 48894424 		movq	%rax, 72(%rsp)
 1455      48
 1456 0998 4C8DB424 		leaq	376(%rsp), %r14
 1456      78010000 
 1457 09a0 48898424 		movq	%rax, 512(%rsp)
 1457      00020000 
 1458 09a8 488D8424 		leaq	432(%rsp), %rax
 1458      B0010000 
 1459 09b0 4889C7   		movq	%rax, %rdi
 1460 09b3 48894424 		movq	%rax, 96(%rsp)
 1460      60
 1461 09b8 0F298C24 		movaps	%xmm1, 368(%rsp)
 1461      70010000 
 1462 09c0 0F298424 		movaps	%xmm0, 384(%rsp)
 1462      80010000 
 1463 09c8 0F298424 		movaps	%xmm0, 400(%rsp)
 1463      90010000 
 1464 09d0 0F298424 		movaps	%xmm0, 416(%rsp)
 1464      A0010000 
 1465 09d8 E8000000 		call	_ZNSt6localeC1Ev@PLT
 1465      00
 1466 09dd 488D0500 		leaq	16+_ZTVNSt7__cxx1115basic_stringbufIcSt11char_traitsIcESaIcEEE(%rip), %rax
 1466      000000
 1467 09e4 C68424D0 		movb	$0, 464(%rsp)
 1467      01000000 
 1468 09ec 4C89F6   		movq	%r14, %rsi
 1469 09ef 48894424 		movq	%rax, 88(%rsp)
 1469      58
 1470 09f4 48898424 		movq	%rax, 376(%rsp)
 1470      78010000 
 1471 09fc 488D8424 		leaq	464(%rsp), %rax
 1471      D0010000 
 1472 0a04 48894424 		movq	%rax, 104(%rsp)
 1472      68
 1473 0a09 48898424 		movq	%rax, 448(%rsp)
 1473      C0010000 
 1474 0a11 488B8424 		movq	368(%rsp), %rax
 1474      70010000 
 1475 0a19 48C78424 		movq	$0, 456(%rsp)
 1475      C8010000 
 1475      00000000 
 1476 0a25 C78424B8 		movl	$16, 440(%rsp)
 1476      01000010 
 1476      000000
 1477 0a30 488B78E8 		movq	-24(%rax), %rdi
 1478 0a34 4C01E7   		addq	%r12, %rdi
 1479              	.LEHB35:
 1480 0a37 E8000000 		call	_ZNSt9basic_iosIcSt11char_traitsIcEE4initEPSt15basic_streambufIcS1_E@PLT
 1480      00
 1481              	.LEHE35:
 1482 0a3c 488D0500 		leaq	24+_ZTVN8UnitTest15MemoryOutStreamE(%rip), %rax
 1482      000000
 1483 0a43 BA090000 		movl	$9, %edx
 1483      00
 1484 0a48 4C89E7   		movq	%r12, %rdi
 1485 0a4b 48C78424 		movq	$0, 488(%rsp)
 1485      E8010000 
 1485      00000000 
 1486 0a57 48894424 		movq	%rax, 64(%rsp)
 1486      40
 1487 0a5c 488D3500 		leaq	.LC0(%rip), %rsi
 1487      000000
 1488 0a63 48898424 		movq	%rax, 368(%rsp)
 1488      70010000 
 1489 0a6b 4883C028 		addq	$40, %rax
 1490 0a6f 48894424 		movq	%rax, 80(%rsp)
 1490      50
 1491 0a74 48898424 		movq	%rax, 512(%rsp)
 1491      00020000 
 1492 0a7c 488D8424 		leaq	496(%rsp), %rax
 1492      F0010000 
 1493 0a84 48894424 		movq	%rax, 48(%rsp)
 1493      30
 1494 0a89 48898424 		movq	%rax, 480(%rsp)
 1494      E0010000 
 1495 0a91 C68424F0 		movb	$0, 496(%rsp)
 1495      01000000 
 1496              	.LEHB36:
 1497 0a99 E8000000 		call	_ZSt16__ostream_insertIcSt11char_traitsIcEERSt13basic_ostreamIT_T0_ES6_PKS3_l@PLT
 1497      00
 1498 0a9e 31F6     		xorl	%esi, %esi
 1499 0aa0 4C89E7   		movq	%r12, %rdi
 1500 0aa3 E8000000 		call	_ZNSolsEi@PLT
 1500      00
 1501 0aa8 BA090000 		movl	$9, %edx
 1501      00
 1502 0aad 488D3500 		leaq	.LC1(%rip), %rsi
 1502      000000
 1503 0ab4 4889C7   		movq	%rax, %rdi
 1504 0ab7 4989C6   		movq	%rax, %r14
 1505 0aba E8000000 		call	_ZSt16__ostream_insertIcSt11char_traitsIcEERSt13basic_ostreamIT_T0_ES6_PKS3_l@PLT
 1505      00
 1506 0abf 4489EE   		movl	%r13d, %esi
 1507 0ac2 4C89F7   		movq	%r14, %rdi
 1508 0ac5 E8000000 		call	_ZNSolsEi@PLT
 1508      00
 1509 0aca 4C89E7   		movq	%r12, %rdi
 1510 0acd E8000000 		call	_ZNK8UnitTest15MemoryOutStream7GetTextEv@PLT
 1510      00
 1511 0ad2 488B7C24 		movq	112(%rsp), %rdi
 1511      70
 1512 0ad7 4889C2   		movq	%rax, %rdx
 1513 0ada 4889EE   		movq	%rbp, %rsi
 1514 0add E8000000 		call	_ZN8UnitTest11TestResults13OnTestFailureERKNS_11TestDetailsEPKc@PLT
 1514      00
 1515              	.LEHE36:
 1516 0ae2 488B4424 		movq	64(%rsp), %rax
 1516      40
 1517 0ae7 488BBC24 		movq	480(%rsp), %rdi
 1517      E0010000 
 1518 0aef F30F7E05 		movq	.LC2(%rip), %xmm0
 1518      00000000 
 1519 0af7 48898424 		movq	%rax, 368(%rsp)
 1519      70010000 
 1520 0aff 488B4424 		movq	80(%rsp), %rax
 1520      50
 1521 0b04 0F164424 		movhps	88(%rsp), %xmm0
 1521      58
 1522 0b09 48898424 		movq	%rax, 512(%rsp)
 1522      00020000 
 1523 0b11 483B7C24 		cmpq	48(%rsp), %rdi
 1523      30
 1524 0b16 7410     		je	.L71
 1525 0b18 0F294424 		movaps	%xmm0, 48(%rsp)
 1525      30
 1526 0b1d E8000000 		call	_ZdlPv@PLT
 1526      00
 1527 0b22 660F6F44 		movdqa	48(%rsp), %xmm0
 1527      2430
 1528              	.L71:
 1529 0b28 488B4424 		movq	72(%rsp), %rax
 1529      48
 1530 0b2d 488BBC24 		movq	448(%rsp), %rdi
 1530      C0010000 
 1531 0b35 0F298424 		movaps	%xmm0, 368(%rsp)
 1531      70010000 
 1532 0b3d 48898424 		movq	%rax, 512(%rsp)
 1532      00020000 
 1533 0b45 483B7C24 		cmpq	104(%rsp), %rdi
 1533      68
 1534 0b4a 7405     		je	.L72
 1535 0b4c E8000000 		call	_ZdlPv@PLT
 1535      00
 1536              	.L72:
 1537 0b51 488B7C24 		movq	96(%rsp), %rdi
 1537      60
 1538 0b56 488D0500 		leaq	16+_ZTVSt15basic_streambufIcSt11char_traitsIcEE(%rip), %rax
 1538      000000
 1539 0b5d 48898424 		movq	%rax, 376(%rsp)
 1539      78010000 
 1540 0b65 E8000000 		call	_ZNSt6localeD1Ev@PLT
 1540      00
 1541 0b6a 488B4424 		movq	40(%rsp), %rax
 1541      28
 1542 0b6f 488B7C24 		movq	32(%rsp), %rdi
 1542      20
 1543 0b74 48898424 		movq	%rax, 368(%rsp)
 1543      70010000 
 1544 0b7c 488D0500 		leaq	16+_ZTVSt9basic_iosIcSt11char_traitsIcEE(%rip), %rax
 1544      000000
 1545 0b83 48898424 		movq	%rax, 512(%rsp)
 1545      00020000 
 1546              	.LEHB37:
 1547 0b8b E8000000 		call	_ZNSt8ios_baseD2Ev@PLT
 1547      00
 1548              	.LEHE37:
 1549              	.L73:
 1550 0b90 488B7C24 		movq	8(%rsp), %rdi
 1550      08
 1551 0b95 31F6     		xorl	%esi, %esi
 1552              	.LEHB38:
 1553 0b97 E8000000 		call	i2cFinalise@PLT
 1553      00
 1554              	.LEHE38:
 1555 0b9c 4189C5   		movl	%eax, %r13d
 1556              	.LEHB39:
 1557 0b9f E8000000 		call	_ZN8UnitTest11CurrentTest7DetailsEv@PLT
 1557      00
 1558 0ba4 488B30   		movq	(%rax), %rsi
 1559 0ba7 BA530000 		movl	$83, %edx
 1559      00
 1560 0bac 4889EF   		movq	%rbp, %rdi
 1561 0baf E8000000 		call	_ZN8UnitTest11TestDetailsC1ERKS0_i@PLT
 1561      00
 1562 0bb4 E8000000 		call	_ZN8UnitTest11CurrentTest7ResultsEv@PLT
 1562      00
 1563              	.LEHE39:
 1564 0bb9 488B00   		movq	(%rax), %rax
 1565 0bbc 48894424 		movq	%rax, 112(%rsp)
 1565      70
 1566 0bc1 4585ED   		testl	%r13d, %r13d
 1567 0bc4 0F848202 		je	.L83
 1567      0000
 1568 0bca 4C8DB424 		leaq	512(%rsp), %r14
 1568      00020000 
 1569 0bd2 4C89F7   		movq	%r14, %rdi
 1570 0bd5 4C897424 		movq	%r14, 32(%rsp)
 1570      20
 1571 0bda E8000000 		call	_ZNSt8ios_baseC2Ev@PLT
 1571      00
 1572 0bdf 488D0500 		leaq	24+_ZTCN8UnitTest15MemoryOutStreamE0_So(%rip), %rax
 1572      000000
 1573 0be6 31C9     		xorl	%ecx, %ecx
 1574 0be8 31F6     		xorl	%esi, %esi
 1575 0bea 660FEFC0 		pxor	%xmm0, %xmm0
 1576 0bee 48894424 		movq	%rax, 40(%rsp)
 1576      28
 1577 0bf3 4C89F7   		movq	%r14, %rdi
 1578 0bf6 48898424 		movq	%rax, 368(%rsp)
 1578      70010000 
 1579 0bfe 4883C028 		addq	$40, %rax
 1580 0c02 48C78424 		movq	$0, 728(%rsp)
 1580      D8020000 
 1580      00000000 
 1581 0c0e 66898C24 		movw	%cx, 736(%rsp)
 1581      E0020000 
 1582 0c16 48898424 		movq	%rax, 512(%rsp)
 1582      00020000 
 1583 0c1e 0F118424 		movups	%xmm0, 744(%rsp)
 1583      E8020000 
 1584 0c26 0F118424 		movups	%xmm0, 760(%rsp)
 1584      F8020000 
 1585              	.LEHB40:
 1586 0c2e E8000000 		call	_ZNSt9basic_iosIcSt11char_traitsIcEE4initEPSt15basic_streambufIcS1_E@PLT
 1586      00
 1587              	.LEHE40:
 1588 0c33 488D0500 		leaq	64+_ZTCN8UnitTest15MemoryOutStreamE0_NSt7__cxx1119basic_ostringstreamIcSt11char_traitsIcESaIc
 1588      000000
 1589 0c3a 660FEFC0 		pxor	%xmm0, %xmm0
 1590 0c3e 660F6F94 		movdqa	128(%rsp), %xmm2
 1590      24800000 
 1590      00
 1591 0c47 4C8DA424 		leaq	368(%rsp), %r12
 1591      70010000 
 1592 0c4f 48894424 		movq	%rax, 72(%rsp)
 1592      48
 1593 0c54 4C8DB424 		leaq	376(%rsp), %r14
 1593      78010000 
 1594 0c5c 48898424 		movq	%rax, 512(%rsp)
 1594      00020000 
 1595 0c64 488D8424 		leaq	432(%rsp), %rax
 1595      B0010000 
 1596 0c6c 4889C7   		movq	%rax, %rdi
 1597 0c6f 48894424 		movq	%rax, 96(%rsp)
 1597      60
 1598 0c74 0F299424 		movaps	%xmm2, 368(%rsp)
 1598      70010000 
 1599 0c7c 0F298424 		movaps	%xmm0, 384(%rsp)
 1599      80010000 
 1600 0c84 0F298424 		movaps	%xmm0, 400(%rsp)
 1600      90010000 
 1601 0c8c 0F298424 		movaps	%xmm0, 416(%rsp)
 1601      A0010000 
 1602 0c94 E8000000 		call	_ZNSt6localeC1Ev@PLT
 1602      00
 1603 0c99 488D0500 		leaq	16+_ZTVNSt7__cxx1115basic_stringbufIcSt11char_traitsIcESaIcEEE(%rip), %rax
 1603      000000
 1604 0ca0 C68424D0 		movb	$0, 464(%rsp)
 1604      01000000 
 1605 0ca8 4C89F6   		movq	%r14, %rsi
 1606 0cab 48894424 		movq	%rax, 88(%rsp)
 1606      58
 1607 0cb0 48898424 		movq	%rax, 376(%rsp)
 1607      78010000 
 1608 0cb8 488D8424 		leaq	464(%rsp), %rax
 1608      D0010000 
 1609 0cc0 48894424 		movq	%rax, 104(%rsp)
 1609      68
 1610 0cc5 48898424 		movq	%rax, 448(%rsp)
 1610      C0010000 
 1611 0ccd 488B8424 		movq	368(%rsp), %rax
 1611      70010000 
 1612 0cd5 48C78424 		movq	$0, 456(%rsp)
 1612      C8010000 
 1612      00000000 
 1613 0ce1 C78424B8 		movl	$16, 440(%rsp)
 1613      01000010 
 1613      000000
 1614 0cec 488B78E8 		movq	-24(%rax), %rdi
 1615 0cf0 4C01E7   		addq	%r12, %rdi
 1616              	.LEHB41:
 1617 0cf3 E8000000 		call	_ZNSt9basic_iosIcSt11char_traitsIcEE4initEPSt15basic_streambufIcS1_E@PLT
 1617      00
 1618              	.LEHE41:
 1619 0cf8 488D0500 		leaq	24+_ZTVN8UnitTest15MemoryOutStreamE(%rip), %rax
 1619      000000
 1620 0cff BA090000 		movl	$9, %edx
 1620      00
 1621 0d04 4C89E7   		movq	%r12, %rdi
 1622 0d07 48C78424 		movq	$0, 488(%rsp)
 1622      E8010000 
 1622      00000000 
 1623 0d13 48894424 		movq	%rax, 64(%rsp)
 1623      40
 1624 0d18 488D3500 		leaq	.LC0(%rip), %rsi
 1624      000000
 1625 0d1f 48898424 		movq	%rax, 368(%rsp)
 1625      70010000 
 1626 0d27 4883C028 		addq	$40, %rax
 1627 0d2b 48894424 		movq	%rax, 80(%rsp)
 1627      50
 1628 0d30 48898424 		movq	%rax, 512(%rsp)
 1628      00020000 
 1629 0d38 488D8424 		leaq	496(%rsp), %rax
 1629      F0010000 
 1630 0d40 48894424 		movq	%rax, 48(%rsp)
 1630      30
 1631 0d45 48898424 		movq	%rax, 480(%rsp)
 1631      E0010000 
 1632 0d4d C68424F0 		movb	$0, 496(%rsp)
 1632      01000000 
 1633              	.LEHB42:
 1634 0d55 E8000000 		call	_ZSt16__ostream_insertIcSt11char_traitsIcEERSt13basic_ostreamIT_T0_ES6_PKS3_l@PLT
 1634      00
 1635 0d5a 31F6     		xorl	%esi, %esi
 1636 0d5c 4C89E7   		movq	%r12, %rdi
 1637 0d5f E8000000 		call	_ZNSolsEi@PLT
 1637      00
 1638 0d64 BA090000 		movl	$9, %edx
 1638      00
 1639 0d69 488D3500 		leaq	.LC1(%rip), %rsi
 1639      000000
 1640 0d70 4889C7   		movq	%rax, %rdi
 1641 0d73 4989C6   		movq	%rax, %r14
 1642 0d76 E8000000 		call	_ZSt16__ostream_insertIcSt11char_traitsIcEERSt13basic_ostreamIT_T0_ES6_PKS3_l@PLT
 1642      00
 1643 0d7b 4489EE   		movl	%r13d, %esi
 1644 0d7e 4C89F7   		movq	%r14, %rdi
 1645 0d81 E8000000 		call	_ZNSolsEi@PLT
 1645      00
 1646 0d86 4C89E7   		movq	%r12, %rdi
 1647 0d89 E8000000 		call	_ZNK8UnitTest15MemoryOutStream7GetTextEv@PLT
 1647      00
 1648 0d8e 488B7C24 		movq	112(%rsp), %rdi
 1648      70
 1649 0d93 4889C2   		movq	%rax, %rdx
 1650 0d96 4889EE   		movq	%rbp, %rsi
 1651 0d99 E8000000 		call	_ZN8UnitTest11TestResults13OnTestFailureERKNS_11TestDetailsEPKc@PLT
 1651      00
 1652              	.LEHE42:
 1653 0d9e 488B4424 		movq	64(%rsp), %rax
 1653      40
 1654 0da3 488BBC24 		movq	480(%rsp), %rdi
 1654      E0010000 
 1655 0dab F30F7E05 		movq	.LC2(%rip), %xmm0
 1655      00000000 
 1656 0db3 48898424 		movq	%rax, 368(%rsp)
 1656      70010000 
 1657 0dbb 488B4424 		movq	80(%rsp), %rax
 1657      50
 1658 0dc0 0F164424 		movhps	88(%rsp), %xmm0
 1658      58
 1659 0dc5 48898424 		movq	%rax, 512(%rsp)
 1659      00020000 
 1660 0dcd 483B7C24 		cmpq	48(%rsp), %rdi
 1660      30
 1661 0dd2 7410     		je	.L81
 1662 0dd4 0F294424 		movaps	%xmm0, 48(%rsp)
 1662      30
 1663 0dd9 E8000000 		call	_ZdlPv@PLT
 1663      00
 1664 0dde 660F6F44 		movdqa	48(%rsp), %xmm0
 1664      2430
 1665              	.L81:
 1666 0de4 488B4424 		movq	72(%rsp), %rax
 1666      48
 1667 0de9 488BBC24 		movq	448(%rsp), %rdi
 1667      C0010000 
 1668 0df1 0F298424 		movaps	%xmm0, 368(%rsp)
 1668      70010000 
 1669 0df9 48898424 		movq	%rax, 512(%rsp)
 1669      00020000 
 1670 0e01 483B7C24 		cmpq	104(%rsp), %rdi
 1670      68
 1671 0e06 7405     		je	.L82
 1672 0e08 E8000000 		call	_ZdlPv@PLT
 1672      00
 1673              	.L82:
 1674 0e0d 488B7C24 		movq	96(%rsp), %rdi
 1674      60
 1675 0e12 488D0500 		leaq	16+_ZTVSt15basic_streambufIcSt11char_traitsIcEE(%rip), %rax
 1675      000000
 1676 0e19 48898424 		movq	%rax, 376(%rsp)
 1676      78010000 
 1677 0e21 E8000000 		call	_ZNSt6localeD1Ev@PLT
 1677      00
 1678 0e26 488B4424 		movq	40(%rsp), %rax
 1678      28
 1679 0e2b 488B7C24 		movq	32(%rsp), %rdi
 1679      20
 1680 0e30 48898424 		movq	%rax, 368(%rsp)
 1680      70010000 
 1681 0e38 488D0500 		leaq	16+_ZTVSt9basic_iosIcSt11char_traitsIcEE(%rip), %rax
 1681      000000
 1682 0e3f 48898424 		movq	%rax, 512(%rsp)
 1682      00020000 
 1683              	.LEHB43:
 1684 0e47 E8000000 		call	_ZNSt8ios_baseD2Ev@PLT
 1684      00
 1685              	.LEHE43:
 1686              	.L83:
 1687 0e4c 488B5424 		movq	8(%rsp), %rdx
 1687      08
 1688 0e51 488BB424 		movq	144(%rsp), %rsi
 1688      90000000 
 1689 0e59 31C9     		xorl	%ecx, %ecx
 1690 0e5b 488B7C24 		movq	120(%rsp), %rdi
 1690      78
 1691              	.LEHB44:
 1692 0e60 E8000000 		call	i2cReadPromRecords@PLT
 1692      00
 1693              	.LEHE44:
 1694 0e65 4189C5   		movl	%eax, %r13d
 1695              	.LEHB45:
 1696 0e68 E8000000 		call	_ZN8UnitTest11CurrentTest7DetailsEv@PLT
 1696      00
 1697 0e6d 488B30   		movq	(%rax), %rsi
 1698 0e70 BA550000 		movl	$85, %edx
 1698      00
 1699 0e75 4889EF   		movq	%rbp, %rdi
 1700 0e78 E8000000 		call	_ZN8UnitTest11TestDetailsC1ERKS0_i@PLT
 1700      00
 1701 0e7d E8000000 		call	_ZN8UnitTest11CurrentTest7ResultsEv@PLT
 1701      00
 1702              	.LEHE45:
 1703 0e82 488B00   		movq	(%rax), %rax
 1704 0e85 48894424 		movq	%rax, 112(%rsp)
 1704      70
 1705 0e8a 4585ED   		testl	%r13d, %r13d
 1706 0e8d 0F848202 		je	.L93
 1706      0000
 1707 0e93 4C8DB424 		leaq	512(%rsp), %r14
 1707      00020000 
 1708 0e9b 4C89F7   		movq	%r14, %rdi
 1709 0e9e 4C897424 		movq	%r14, 32(%rsp)
 1709      20
 1710 0ea3 E8000000 		call	_ZNSt8ios_baseC2Ev@PLT
 1710      00
 1711 0ea8 488D0500 		leaq	24+_ZTCN8UnitTest15MemoryOutStreamE0_So(%rip), %rax
 1711      000000
 1712 0eaf 31D2     		xorl	%edx, %edx
 1713 0eb1 31F6     		xorl	%esi, %esi
 1714 0eb3 660FEFC0 		pxor	%xmm0, %xmm0
 1715 0eb7 48894424 		movq	%rax, 40(%rsp)
 1715      28
 1716 0ebc 4C89F7   		movq	%r14, %rdi
 1717 0ebf 48898424 		movq	%rax, 368(%rsp)
 1717      70010000 
 1718 0ec7 4883C028 		addq	$40, %rax
 1719 0ecb 48C78424 		movq	$0, 728(%rsp)
 1719      D8020000 
 1719      00000000 
 1720 0ed7 66899424 		movw	%dx, 736(%rsp)
 1720      E0020000 
 1721 0edf 48898424 		movq	%rax, 512(%rsp)
 1721      00020000 
 1722 0ee7 0F118424 		movups	%xmm0, 744(%rsp)
 1722      E8020000 
 1723 0eef 0F118424 		movups	%xmm0, 760(%rsp)
 1723      F8020000 
 1724              	.LEHB46:
 1725 0ef7 E8000000 		call	_ZNSt9basic_iosIcSt11char_traitsIcEE4initEPSt15basic_streambufIcS1_E@PLT
 1725      00
 1726              	.LEHE46:
 1727 0efc 488D0500 		leaq	64+_ZTCN8UnitTest15MemoryOutStreamE0_NSt7__cxx1119basic_ostringstreamIcSt11char_traitsIcESaIc
 1727      000000
 1728 0f03 660FEFC0 		pxor	%xmm0, %xmm0
 1729 0f07 660F6F9C 		movdqa	128(%rsp), %xmm3
 1729      24800000 
 1729      00
 1730 0f10 4C8DA424 		leaq	368(%rsp), %r12
 1730      70010000 
 1731 0f18 48894424 		movq	%rax, 72(%rsp)
 1731      48
 1732 0f1d 4C8DB424 		leaq	376(%rsp), %r14
 1732      78010000 
 1733 0f25 48898424 		movq	%rax, 512(%rsp)
 1733      00020000 
 1734 0f2d 488D8424 		leaq	432(%rsp), %rax
 1734      B0010000 
 1735 0f35 4889C7   		movq	%rax, %rdi
 1736 0f38 48894424 		movq	%rax, 96(%rsp)
 1736      60
 1737 0f3d 0F299C24 		movaps	%xmm3, 368(%rsp)
 1737      70010000 
 1738 0f45 0F298424 		movaps	%xmm0, 384(%rsp)
 1738      80010000 
 1739 0f4d 0F298424 		movaps	%xmm0, 400(%rsp)
 1739      90010000 
 1740 0f55 0F298424 		movaps	%xmm0, 416(%rsp)
 1740      A0010000 
 1741 0f5d E8000000 		call	_ZNSt6localeC1Ev@PLT
 1741      00
 1742 0f62 488D0500 		leaq	16+_ZTVNSt7__cxx1115basic_stringbufIcSt11char_traitsIcESaIcEEE(%rip), %rax
 1742      000000
 1743 0f69 C68424D0 		movb	$0, 464(%rsp)
 1743      01000000 
 1744 0f71 4C89F6   		movq	%r14, %rsi
 1745 0f74 48894424 		movq	%rax, 88(%rsp)
 1745      58
 1746 0f79 48898424 		movq	%rax, 376(%rsp)
 1746      78010000 
 1747 0f81 488D8424 		leaq	464(%rsp), %rax
 1747      D0010000 
 1748 0f89 48894424 		movq	%rax, 104(%rsp)
 1748      68
 1749 0f8e 48898424 		movq	%rax, 448(%rsp)
 1749      C0010000 
 1750 0f96 488B8424 		movq	368(%rsp), %rax
 1750      70010000 
 1751 0f9e 48C78424 		movq	$0, 456(%rsp)
 1751      C8010000 
 1751      00000000 
 1752 0faa C78424B8 		movl	$16, 440(%rsp)
 1752      01000010 
 1752      000000
 1753 0fb5 488B78E8 		movq	-24(%rax), %rdi
 1754 0fb9 4C01E7   		addq	%r12, %rdi
 1755              	.LEHB47:
 1756 0fbc E8000000 		call	_ZNSt9basic_iosIcSt11char_traitsIcEE4initEPSt15basic_streambufIcS1_E@PLT
 1756      00
 1757              	.LEHE47:
 1758 0fc1 488D0500 		leaq	24+_ZTVN8UnitTest15MemoryOutStreamE(%rip), %rax
 1758      000000
 1759 0fc8 BA090000 		movl	$9, %edx
 1759      00
 1760 0fcd 4C89E7   		movq	%r12, %rdi
 1761 0fd0 48C78424 		movq	$0, 488(%rsp)
 1761      E8010000 
 1761      00000000 
 1762 0fdc 48894424 		movq	%rax, 64(%rsp)
 1762      40
 1763 0fe1 488D3500 		leaq	.LC0(%rip), %rsi
 1763      000000
 1764 0fe8 48898424 		movq	%rax, 368(%rsp)
 1764      70010000 
 1765 0ff0 4883C028 		addq	$40, %rax
 1766 0ff4 48894424 		movq	%rax, 80(%rsp)
 1766      50
 1767 0ff9 48898424 		movq	%rax, 512(%rsp)
 1767      00020000 
 1768 1001 488D8424 		leaq	496(%rsp), %rax
 1768      F0010000 
 1769 1009 48894424 		movq	%rax, 48(%rsp)
 1769      30
 1770 100e 48898424 		movq	%rax, 480(%rsp)
 1770      E0010000 
 1771 1016 C68424F0 		movb	$0, 496(%rsp)
 1771      01000000 
 1772              	.LEHB48:
 1773 101e E8000000 		call	_ZSt16__ostream_insertIcSt11char_traitsIcEERSt13basic_ostreamIT_T0_ES6_PKS3_l@PLT
 1773      00
 1774 1023 31F6     		xorl	%esi, %esi
 1775 1025 4C89E7   		movq	%r12, %rdi
 1776 1028 E8000000 		call	_ZNSolsEi@PLT
 1776      00
 1777 102d BA090000 		movl	$9, %edx
 1777      00
 1778 1032 488D3500 		leaq	.LC1(%rip), %rsi
 1778      000000
 1779 1039 4889C7   		movq	%rax, %rdi
 1780 103c 4989C6   		movq	%rax, %r14
 1781 103f E8000000 		call	_ZSt16__ostream_insertIcSt11char_traitsIcEERSt13basic_ostreamIT_T0_ES6_PKS3_l@PLT
 1781      00
 1782 1044 4489EE   		movl	%r13d, %esi
 1783 1047 4C89F7   		movq	%r14, %rdi
 1784 104a E8000000 		call	_ZNSolsEi@PLT
 1784      00
 1785 104f 4C89E7   		movq	%r12, %rdi
 1786 1052 E8000000 		call	_ZNK8UnitTest15MemoryOutStream7GetTextEv@PLT
 1786      00
 1787 1057 488B7C24 		movq	112(%rsp), %rdi
 1787      70
 1788 105c 4889C2   		movq	%rax, %rdx
 1789 105f 4889EE   		movq	%rbp, %rsi
 1790 1062 E8000000 		call	_ZN8UnitTest11TestResults13OnTestFailureERKNS_11TestDetailsEPKc@PLT
 1790      00
 1791              	.LEHE48:
 1792 1067 488B4424 		movq	64(%rsp), %rax
 1792      40
 1793 106c 488BBC24 		movq	480(%rsp), %rdi
 1793      E0010000 
 1794 1074 F30F7E05 		movq	.LC2(%rip), %xmm0
 1794      00000000 
 1795 107c 48898424 		movq	%rax, 368(%rsp)
 1795      70010000 
 1796 1084 488B4424 		movq	80(%rsp), %rax
 1796      50
 1797 1089 0F164424 		movhps	88(%rsp), %xmm0
 1797      58
 1798 108e 48898424 		movq	%rax, 512(%rsp)
 1798      00020000 
 1799 1096 483B7C24 		cmpq	48(%rsp), %rdi
 1799      30
 1800 109b 7410     		je	.L91
 1801 109d 0F294424 		movaps	%xmm0, 48(%rsp)
 1801      30
 1802 10a2 E8000000 		call	_ZdlPv@PLT
 1802      00
 1803 10a7 660F6F44 		movdqa	48(%rsp), %xmm0
 1803      2430
 1804              	.L91:
 1805 10ad 488B4424 		movq	72(%rsp), %rax
 1805      48
 1806 10b2 488BBC24 		movq	448(%rsp), %rdi
 1806      C0010000 
 1807 10ba 0F298424 		movaps	%xmm0, 368(%rsp)
 1807      70010000 
 1808 10c2 48898424 		movq	%rax, 512(%rsp)
 1808      00020000 
 1809 10ca 483B7C24 		cmpq	104(%rsp), %rdi
 1809      68
 1810 10cf 7405     		je	.L92
 1811 10d1 E8000000 		call	_ZdlPv@PLT
 1811      00
 1812              	.L92:
 1813 10d6 488B7C24 		movq	96(%rsp), %rdi
 1813      60
 1814 10db 488D0500 		leaq	16+_ZTVSt15basic_streambufIcSt11char_traitsIcEE(%rip), %rax
 1814      000000
 1815 10e2 48898424 		movq	%rax, 376(%rsp)
 1815      78010000 
 1816 10ea E8000000 		call	_ZNSt6localeD1Ev@PLT
 1816      00
 1817 10ef 488B4424 		movq	40(%rsp), %rax
 1817      28
 1818 10f4 488B7C24 		movq	32(%rsp), %rdi
 1818      20
 1819 10f9 48898424 		movq	%rax, 368(%rsp)
 1819      70010000 
 1820 1101 488D0500 		leaq	16+_ZTVSt9basic_iosIcSt11char_traitsIcEE(%rip), %rax
 1820      000000
 1821 1108 48898424 		movq	%rax, 512(%rsp)
 1821      00020000 
 1822              	.LEHB49:
 1823 1110 E8000000 		call	_ZNSt8ios_baseD2Ev@PLT
 1823      00
 1824              	.LEHE49:
 1825              	.L93:
 1826              	.LEHB50:
 1827 1115 E8000000 		call	_ZN8UnitTest11CurrentTest7DetailsEv@PLT
 1827      00
 1828 111a 488B30   		movq	(%rax), %rsi
 1829 111d BA560000 		movl	$86, %edx
 1829      00
 1830 1122 4889EF   		movq	%rbp, %rdi
 1831 1125 E8000000 		call	_ZN8UnitTest11TestDetailsC1ERKS0_i@PLT
 1831      00
 1832 112a E8000000 		call	_ZN8UnitTest11CurrentTest7ResultsEv@PLT
 1832      00
 1833              	.LEHE50:
 1834 112f 488B9424 		movq	272(%rsp), %rdx
 1834      10010000 
 1835 1137 488B00   		movq	(%rax), %rax
 1836 113a 0FB64A01 		movzbl	1(%rdx), %ecx
 1837 113e 0FB67209 		movzbl	9(%rdx), %esi
 1838 1142 48898424 		movq	%rax, 152(%rsp)
 1838      98000000 
 1839 114a 0FB602   		movzbl	(%rdx), %eax
 1840 114d 38842420 		cmpb	%al, 800(%rsp)
 1840      030000
 1841 1154 0F94C0   		sete	%al
 1842 1157 388C2421 		cmpb	%cl, 801(%rsp)
 1842      030000
 1843 115e 0F94C1   		sete	%cl
 1844 1161 21C8     		andl	%ecx, %eax
 1845 1163 0FB64A02 		movzbl	2(%rdx), %ecx
 1846 1167 388C2422 		cmpb	%cl, 802(%rsp)
 1846      030000
 1847 116e 0F94C1   		sete	%cl
 1848 1171 21C8     		andl	%ecx, %eax
 1849 1173 0FB64A03 		movzbl	3(%rdx), %ecx
 1850 1177 388C2423 		cmpb	%cl, 803(%rsp)
 1850      030000
 1851 117e 0F94C1   		sete	%cl
 1852 1181 21C8     		andl	%ecx, %eax
 1853 1183 0FB64A04 		movzbl	4(%rdx), %ecx
 1854 1187 388C2424 		cmpb	%cl, 804(%rsp)
 1854      030000
 1855 118e 0F94C1   		sete	%cl
 1856 1191 21C8     		andl	%ecx, %eax
 1857 1193 0FB68C24 		movzbl	805(%rsp), %ecx
 1857      25030000 
 1858 119b 384A05   		cmpb	%cl, 5(%rdx)
 1859 119e 0F94C1   		sete	%cl
 1860 11a1 21C8     		andl	%ecx, %eax
 1861 11a3 0FB64A06 		movzbl	6(%rdx), %ecx
 1862 11a7 388C2426 		cmpb	%cl, 806(%rsp)
 1862      030000
 1863 11ae 0F94C1   		sete	%cl
 1864 11b1 21C8     		andl	%ecx, %eax
 1865 11b3 0FB64A07 		movzbl	7(%rdx), %ecx
 1866 11b7 388C2427 		cmpb	%cl, 807(%rsp)
 1866      030000
 1867 11be 0F94C1   		sete	%cl
 1868 11c1 21C8     		andl	%ecx, %eax
 1869 11c3 0FB64A08 		movzbl	8(%rdx), %ecx
 1870 11c7 388C2428 		cmpb	%cl, 808(%rsp)
 1870      030000
 1871 11ce 0F94C1   		sete	%cl
 1872 11d1 21C8     		andl	%ecx, %eax
 1873 11d3 4038B424 		cmpb	%sil, 809(%rsp)
 1873      29030000 
 1874 11db 0FB6720B 		movzbl	11(%rdx), %esi
 1875 11df 0F94C1   		sete	%cl
 1876 11e2 21C8     		andl	%ecx, %eax
 1877 11e4 0FB64A0A 		movzbl	10(%rdx), %ecx
 1878 11e8 388C242A 		cmpb	%cl, 810(%rsp)
 1878      030000
 1879 11ef 0F94C1   		sete	%cl
 1880 11f2 21C8     		andl	%ecx, %eax
 1881 11f4 4038B424 		cmpb	%sil, 811(%rsp)
 1881      2B030000 
 1882 11fc 0FB6720D 		movzbl	13(%rdx), %esi
 1883 1200 0F94C1   		sete	%cl
 1884 1203 21C8     		andl	%ecx, %eax
 1885 1205 0FB64A0C 		movzbl	12(%rdx), %ecx
 1886 1209 388C242C 		cmpb	%cl, 812(%rsp)
 1886      030000
 1887 1210 0F94C1   		sete	%cl
 1888 1213 21C8     		andl	%ecx, %eax
 1889 1215 4038B424 		cmpb	%sil, 813(%rsp)
 1889      2D030000 
 1890 121d 0F94C1   		sete	%cl
 1891 1220 21C8     		andl	%ecx, %eax
 1892 1222 0FB68C24 		movzbl	814(%rsp), %ecx
 1892      2E030000 
 1893 122a 384A0E   		cmpb	%cl, 14(%rdx)
 1894 122d 0F94C1   		sete	%cl
 1895 1230 84C8     		testb	%cl, %al
 1896 1232 0F85F0F0 		jne	.L227
 1896      FFFF
 1897              	.L202:
 1898 1238 4C8DB424 		leaq	512(%rsp), %r14
 1898      00020000 
 1899 1240 4C89F7   		movq	%r14, %rdi
 1900 1243 4C897424 		movq	%r14, 32(%rsp)
 1900      20
 1901 1248 E8000000 		call	_ZNSt8ios_baseC2Ev@PLT
 1901      00
 1902 124d 31C0     		xorl	%eax, %eax
 1903 124f 660FEFC0 		pxor	%xmm0, %xmm0
 1904 1253 31F6     		xorl	%esi, %esi
 1905 1255 66898424 		movw	%ax, 736(%rsp)
 1905      E0020000 
 1906 125d 488D0500 		leaq	24+_ZTCN8UnitTest15MemoryOutStreamE0_So(%rip), %rax
 1906      000000
 1907 1264 4C89F7   		movq	%r14, %rdi
 1908 1267 48894424 		movq	%rax, 40(%rsp)
 1908      28
 1909 126c 48898424 		movq	%rax, 368(%rsp)
 1909      70010000 
 1910 1274 4883C028 		addq	$40, %rax
 1911 1278 48C78424 		movq	$0, 728(%rsp)
 1911      D8020000 
 1911      00000000 
 1912 1284 48898424 		movq	%rax, 512(%rsp)
 1912      00020000 
 1913 128c 0F118424 		movups	%xmm0, 744(%rsp)
 1913      E8020000 
 1914 1294 0F118424 		movups	%xmm0, 760(%rsp)
 1914      F8020000 
 1915              	.LEHB51:
 1916 129c E8000000 		call	_ZNSt9basic_iosIcSt11char_traitsIcEE4initEPSt15basic_streambufIcS1_E@PLT
 1916      00
 1917              	.LEHE51:
 1918 12a1 488D0500 		leaq	64+_ZTCN8UnitTest15MemoryOutStreamE0_NSt7__cxx1119basic_ostringstreamIcSt11char_traitsIcESaIc
 1918      000000
 1919 12a8 660FEFC0 		pxor	%xmm0, %xmm0
 1920 12ac 660F6FA4 		movdqa	128(%rsp), %xmm4
 1920      24800000 
 1920      00
 1921 12b5 4C8DA424 		leaq	368(%rsp), %r12
 1921      70010000 
 1922 12bd 48894424 		movq	%rax, 72(%rsp)
 1922      48
 1923 12c2 4C8DB424 		leaq	376(%rsp), %r14
 1923      78010000 
 1924 12ca 48898424 		movq	%rax, 512(%rsp)
 1924      00020000 
 1925 12d2 488D8424 		leaq	432(%rsp), %rax
 1925      B0010000 
 1926 12da 4889C7   		movq	%rax, %rdi
 1927 12dd 48894424 		movq	%rax, 96(%rsp)
 1927      60
 1928 12e2 0F29A424 		movaps	%xmm4, 368(%rsp)
 1928      70010000 
 1929 12ea 0F298424 		movaps	%xmm0, 384(%rsp)
 1929      80010000 
 1930 12f2 0F298424 		movaps	%xmm0, 400(%rsp)
 1930      90010000 
 1931 12fa 0F298424 		movaps	%xmm0, 416(%rsp)
 1931      A0010000 
 1932 1302 E8000000 		call	_ZNSt6localeC1Ev@PLT
 1932      00
 1933 1307 488D0500 		leaq	16+_ZTVNSt7__cxx1115basic_stringbufIcSt11char_traitsIcESaIcEEE(%rip), %rax
 1933      000000
 1934 130e C68424D0 		movb	$0, 464(%rsp)
 1934      01000000 
 1935 1316 4C89F6   		movq	%r14, %rsi
 1936 1319 48894424 		movq	%rax, 88(%rsp)
 1936      58
 1937 131e 48898424 		movq	%rax, 376(%rsp)
 1937      78010000 
 1938 1326 488D8424 		leaq	464(%rsp), %rax
 1938      D0010000 
 1939 132e 48894424 		movq	%rax, 104(%rsp)
 1939      68
 1940 1333 48898424 		movq	%rax, 448(%rsp)
 1940      C0010000 
 1941 133b 488B8424 		movq	368(%rsp), %rax
 1941      70010000 
 1942 1343 48C78424 		movq	$0, 456(%rsp)
 1942      C8010000 
 1942      00000000 
 1943 134f C78424B8 		movl	$16, 440(%rsp)
 1943      01000010 
 1943      000000
 1944 135a 488B78E8 		movq	-24(%rax), %rdi
 1945 135e 4C01E7   		addq	%r12, %rdi
 1946              	.LEHB52:
 1947 1361 E8000000 		call	_ZNSt9basic_iosIcSt11char_traitsIcEE4initEPSt15basic_streambufIcS1_E@PLT
 1947      00
 1948              	.LEHE52:
 1949 1366 488D0500 		leaq	24+_ZTVN8UnitTest15MemoryOutStreamE(%rip), %rax
 1949      000000
 1950 136d BA0B0000 		movl	$11, %edx
 1950      00
 1951 1372 4C89E7   		movq	%r12, %rdi
 1952 1375 48C78424 		movq	$0, 488(%rsp)
 1952      E8010000 
 1952      00000000 
 1953 1381 48894424 		movq	%rax, 64(%rsp)
 1953      40
 1954 1386 488D3500 		leaq	.LC6(%rip), %rsi
 1954      000000
 1955 138d 48898424 		movq	%rax, 368(%rsp)
 1955      70010000 
 1956 1395 4883C028 		addq	$40, %rax
 1957 1399 48894424 		movq	%rax, 80(%rsp)
 1957      50
 1958 139e 48898424 		movq	%rax, 512(%rsp)
 1958      00020000 
 1959 13a6 488D8424 		leaq	496(%rsp), %rax
 1959      F0010000 
 1960 13ae 48894424 		movq	%rax, 48(%rsp)
 1960      30
 1961 13b3 48898424 		movq	%rax, 480(%rsp)
 1961      E0010000 
 1962 13bb C68424F0 		movb	$0, 496(%rsp)
 1962      01000000 
 1963              	.LEHB53:
 1964 13c3 E8000000 		call	_ZSt16__ostream_insertIcSt11char_traitsIcEERSt13basic_ostreamIT_T0_ES6_PKS3_l@PLT
 1964      00
 1965 13c8 488D8424 		leaq	816(%rsp), %rax
 1965      30030000 
 1966 13d0 4C8DB424 		leaq	167(%rsp), %r14
 1966      A7000000 
 1967 13d8 48894424 		movq	%rax, 112(%rsp)
 1967      70
 1968 13dd 4C8D2D00 		leaq	.LC7(%rip), %r13
 1968      000000
 1969              		.p2align 4,,10
 1970 13e4 0F1F4000 		.p2align 3
 1971              	.L102:
 1972 13e8 0FB603   		movzbl	(%rbx), %eax
 1973 13eb BA010000 		movl	$1, %edx
 1973      00
 1974 13f0 4C89F6   		movq	%r14, %rsi
 1975 13f3 4C89E7   		movq	%r12, %rdi
 1976 13f6 888424A7 		movb	%al, 167(%rsp)
 1976      000000
 1977 13fd E8000000 		call	_ZSt16__ostream_insertIcSt11char_traitsIcEERSt13basic_ostreamIT_T0_ES6_PKS3_l@PLT
 1977      00
 1978 1402 4889C7   		movq	%rax, %rdi
 1979 1405 BA010000 		movl	$1, %edx
 1979      00
 1980 140a 4C89EE   		movq	%r13, %rsi
 1981 140d E8000000 		call	_ZSt16__ostream_insertIcSt11char_traitsIcEERSt13basic_ostreamIT_T0_ES6_PKS3_l@PLT
 1981      00
 1982 1412 4883C301 		addq	$1, %rbx
 1983 1416 48395C24 		cmpq	%rbx, 112(%rsp)
 1983      70
 1984 141b 75CB     		jne	.L102
 1985 141d BA0C0000 		movl	$12, %edx
 1985      00
 1986 1422 488D3500 		leaq	.LC8(%rip), %rsi
 1986      000000
 1987 1429 4C89E7   		movq	%r12, %rdi
 1988 142c E8000000 		call	_ZSt16__ostream_insertIcSt11char_traitsIcEERSt13basic_ostreamIT_T0_ES6_PKS3_l@PLT
 1988      00
 1989 1431 31DB     		xorl	%ebx, %ebx
 1990 1433 4C8DB424 		leaq	172(%rsp), %r14
 1990      AC000000 
 1991 143b 0F1F4400 		.p2align 4,,10
 1991      00
 1992              		.p2align 3
 1993              	.L103:
 1994 1440 488B8424 		movq	272(%rsp), %rax
 1994      10010000 
 1995 1448 BA010000 		movl	$1, %edx
 1995      00
 1996 144d 4C89F6   		movq	%r14, %rsi
 1997 1450 4C89E7   		movq	%r12, %rdi
 1998 1453 0FB60418 		movzbl	(%rax,%rbx), %eax
 1999 1457 888424AC 		movb	%al, 172(%rsp)
 1999      000000
 2000 145e E8000000 		call	_ZSt16__ostream_insertIcSt11char_traitsIcEERSt13basic_ostreamIT_T0_ES6_PKS3_l@PLT
 2000      00
 2001 1463 4889C7   		movq	%rax, %rdi
 2002 1466 BA010000 		movl	$1, %edx
 2002      00
 2003 146b 4C89EE   		movq	%r13, %rsi
 2004 146e E8000000 		call	_ZSt16__ostream_insertIcSt11char_traitsIcEERSt13basic_ostreamIT_T0_ES6_PKS3_l@PLT
 2004      00
 2005 1473 4883C301 		addq	$1, %rbx
 2006 1477 4883FB10 		cmpq	$16, %rbx
 2007 147b 75C3     		jne	.L103
 2008 147d BA010000 		movl	$1, %edx
 2008      00
 2009 1482 488D3500 		leaq	.LC9(%rip), %rsi
 2009      000000
 2010 1489 4C89E7   		movq	%r12, %rdi
 2011 148c E8000000 		call	_ZSt16__ostream_insertIcSt11char_traitsIcEERSt13basic_ostreamIT_T0_ES6_PKS3_l@PLT
 2011      00
 2012 1491 4C89E7   		movq	%r12, %rdi
 2013 1494 E8000000 		call	_ZNK8UnitTest15MemoryOutStream7GetTextEv@PLT
 2013      00
 2014 1499 488BBC24 		movq	152(%rsp), %rdi
 2014      98000000 
 2015 14a1 4889C2   		movq	%rax, %rdx
 2016 14a4 4889EE   		movq	%rbp, %rsi
 2017 14a7 E8000000 		call	_ZN8UnitTest11TestResults13OnTestFailureERKNS_11TestDetailsEPKc@PLT
 2017      00
 2018              	.LEHE53:
 2019 14ac 488B4424 		movq	64(%rsp), %rax
 2019      40
 2020 14b1 488BBC24 		movq	480(%rsp), %rdi
 2020      E0010000 
 2021 14b9 F30F7E05 		movq	.LC2(%rip), %xmm0
 2021      00000000 
 2022 14c1 48898424 		movq	%rax, 368(%rsp)
 2022      70010000 
 2023 14c9 488B4424 		movq	80(%rsp), %rax
 2023      50
 2024 14ce 0F164424 		movhps	88(%rsp), %xmm0
 2024      58
 2025 14d3 48898424 		movq	%rax, 512(%rsp)
 2025      00020000 
 2026 14db 483B7C24 		cmpq	48(%rsp), %rdi
 2026      30
 2027 14e0 7410     		je	.L104
 2028 14e2 0F294424 		movaps	%xmm0, 48(%rsp)
 2028      30
 2029 14e7 E8000000 		call	_ZdlPv@PLT
 2029      00
 2030 14ec 660F6F44 		movdqa	48(%rsp), %xmm0
 2030      2430
 2031              	.L104:
 2032 14f2 488B4424 		movq	72(%rsp), %rax
 2032      48
 2033 14f7 488BBC24 		movq	448(%rsp), %rdi
 2033      C0010000 
 2034 14ff 0F298424 		movaps	%xmm0, 368(%rsp)
 2034      70010000 
 2035 1507 48898424 		movq	%rax, 512(%rsp)
 2035      00020000 
 2036 150f 483B7C24 		cmpq	104(%rsp), %rdi
 2036      68
 2037 1514 7405     		je	.L105
 2038 1516 E8000000 		call	_ZdlPv@PLT
 2038      00
 2039              	.L105:
 2040 151b 488B7C24 		movq	96(%rsp), %rdi
 2040      60
 2041 1520 488D0500 		leaq	16+_ZTVSt15basic_streambufIcSt11char_traitsIcEE(%rip), %rax
 2041      000000
 2042 1527 48898424 		movq	%rax, 376(%rsp)
 2042      78010000 
 2043 152f E8000000 		call	_ZNSt6localeD1Ev@PLT
 2043      00
 2044 1534 488B4424 		movq	40(%rsp), %rax
 2044      28
 2045 1539 488B7C24 		movq	32(%rsp), %rdi
 2045      20
 2046 153e 48898424 		movq	%rax, 368(%rsp)
 2046      70010000 
 2047 1546 488D0500 		leaq	16+_ZTVSt9basic_iosIcSt11char_traitsIcEE(%rip), %rax
 2047      000000
 2048 154d 48898424 		movq	%rax, 512(%rsp)
 2048      00020000 
 2049              	.LEHB54:
 2050 1555 E8000000 		call	_ZNSt8ios_baseD2Ev@PLT
 2050      00
 2051              	.LEHE54:
 2052 155a E9DAEDFF 		jmp	.L106
 2052      FF
 2053              	.L63:
 2054 155f 488B8424 		movq	824(%rsp), %rax
 2054      38030000 
 2055 1567 64482B04 		subq	%fs:40, %rax
 2055      25280000 
 2055      00
 2056 1570 7512     		jne	.L228
 2057 1572 4881C448 		addq	$840, %rsp
 2057      030000
 2058              		.cfi_remember_state
 2059              		.cfi_def_cfa_offset 56
 2060 1579 5B       		popq	%rbx
 2061              		.cfi_def_cfa_offset 48
 2062 157a 5D       		popq	%rbp
 2063              		.cfi_def_cfa_offset 40
 2064 157b 415C     		popq	%r12
 2065              		.cfi_def_cfa_offset 32
 2066 157d 415D     		popq	%r13
 2067              		.cfi_def_cfa_offset 24
 2068 157f 415E     		popq	%r14
 2069              		.cfi_def_cfa_offset 16
 2070 1581 415F     		popq	%r15
 2071              		.cfi_def_cfa_offset 8
 2072 1583 C3       		ret
 2073              	.L228:
 2074              		.cfi_restore_state
 2075 1584 E8000000 		call	__stack_chk_fail@PLT
 2075      00
 2076              	.L199:
 2077 1589 F30F1EFA 		endbr64
 2078 158d 4889C3   		movq	%rax, %rbx
 2079 1590 E9000000 		jmp	.L107
 2079      00
 2080              	.L201:
 2081 1595 F30F1EFA 		endbr64
 2082 1599 4889C3   		movq	%rax, %rbx
 2083 159c E9000000 		jmp	.L98
 2083      00
 2084              	.L200:
 2085 15a1 F30F1EFA 		endbr64
 2086 15a5 4889C3   		movq	%rax, %rbx
 2087 15a8 E9000000 		jmp	.L99
 2087      00
 2088              	.L188:
 2089 15ad F30F1EFA 		endbr64
 2090 15b1 4889C7   		movq	%rax, %rdi
 2091 15b4 E9000000 		jmp	.L101
 2091      00
 2092              	.L198:
 2093 15b9 F30F1EFA 		endbr64
 2094 15bd 4989C4   		movq	%rax, %r12
 2095 15c0 E9000000 		jmp	.L87
 2095      00
 2096              	.L197:
 2097 15c5 F30F1EFA 		endbr64
 2098 15c9 4989C4   		movq	%rax, %r12
 2099 15cc E9000000 		jmp	.L88
 2099      00
 2100              	.L196:
 2101 15d1 F30F1EFA 		endbr64
 2102 15d5 4989C5   		movq	%rax, %r13
 2103 15d8 E9000000 		jmp	.L94
 2103      00
 2104              	.L186:
 2105 15dd F30F1EFA 		endbr64
 2106 15e1 4889C7   		movq	%rax, %rdi
 2107 15e4 E9000000 		jmp	.L90
 2107      00
 2108              	.L193:
 2109 15e9 F30F1EFA 		endbr64
 2110 15ed 4989C5   		movq	%rax, %r13
 2111 15f0 E9000000 		jmp	.L84
 2111      00
 2112              	.L195:
 2113 15f5 F30F1EFA 		endbr64
 2114 15f9 4989C4   		movq	%rax, %r12
 2115 15fc E9000000 		jmp	.L77
 2115      00
 2116              	.L194:
 2117 1601 F30F1EFA 		endbr64
 2118 1605 4989C4   		movq	%rax, %r12
 2119 1608 E9000000 		jmp	.L78
 2119      00
 2120              	.L184:
 2121 160d F30F1EFA 		endbr64
 2122 1611 4889C7   		movq	%rax, %rdi
 2123 1614 E9000000 		jmp	.L80
 2123      00
 2124              	.L192:
 2125 1619 F30F1EFA 		endbr64
 2126 161d 4989C4   		movq	%rax, %r12
 2127 1620 E9000000 		jmp	.L67
 2127      00
 2128              	.L191:
 2129 1625 F30F1EFA 		endbr64
 2130 1629 4989C4   		movq	%rax, %r12
 2131 162c E9000000 		jmp	.L68
 2131      00
 2132              	.L190:
 2133 1631 F30F1EFA 		endbr64
 2134 1635 4989C5   		movq	%rax, %r13
 2135 1638 E9000000 		jmp	.L74
 2135      00
 2136              	.L182:
 2137 163d F30F1EFA 		endbr64
 2138 1641 4889C7   		movq	%rax, %rdi
 2139 1644 E9000000 		jmp	.L70
 2139      00
 2140              	.L180:
 2141 1649 F30F1EFA 		endbr64
 2142 164d 4889C7   		movq	%rax, %rdi
 2143 1650 E9000000 		jmp	.L144
 2143      00
 2144              	.L178:
 2145 1655 F30F1EFA 		endbr64
 2146 1659 4889C7   		movq	%rax, %rdi
 2147 165c E9000000 		jmp	.L141
 2147      00
 2148              	.L176:
 2149 1661 F30F1EFA 		endbr64
 2150 1665 4889C7   		movq	%rax, %rdi
 2151 1668 E9000000 		jmp	.L138
 2151      00
 2152              	.L174:
 2153 166d F30F1EFA 		endbr64
 2154 1671 4889C7   		movq	%rax, %rdi
 2155 1674 E9000000 		jmp	.L135
 2155      00
 2156              	.L172:
 2157 1679 F30F1EFA 		endbr64
 2158 167d 4889C7   		movq	%rax, %rdi
 2159 1680 E9000000 		jmp	.L132
 2159      00
 2160              	.L170:
 2161 1685 F30F1EFA 		endbr64
 2162 1689 4889C7   		movq	%rax, %rdi
 2163 168c E9000000 		jmp	.L129
 2163      00
 2164              	.L168:
 2165 1691 F30F1EFA 		endbr64
 2166 1695 4889C7   		movq	%rax, %rdi
 2167 1698 E9000000 		jmp	.L126
 2167      00
 2168              		.section	.gcc_except_table
 2169 0027 00       		.align 4
 2170              	.LLSDA1219:
 2171 0028 FF       		.byte	0xff
 2172 0029 9B       		.byte	0x9b
 2173 002a E001     		.uleb128 .LLSDATT1219-.LLSDATTD1219
 2174              	.LLSDATTD1219:
 2175 002c 01       		.byte	0x1
 2176 002d D501     		.uleb128 .LLSDACSE1219-.LLSDACSB1219
 2177              	.LLSDACSB1219:
 2178 002f 75       		.uleb128 .LEHB18-.LFB1219
 2179 0030 A505     		.uleb128 .LEHE18-.LEHB18
 2180 0032 00       		.uleb128 0
 2181 0033 00       		.uleb128 0
 2182 0034 A106     		.uleb128 .LEHB19-.LFB1219
 2183 0036 4B       		.uleb128 .LEHE19-.LEHB19
 2184 0037 C127     		.uleb128 .L168-.LFB1219
 2185 0039 01       		.uleb128 0x1
 2186 003a 8307     		.uleb128 .LEHB20-.LFB1219
 2187 003c 23       		.uleb128 .LEHE20-.LEHB20
 2188 003d 00       		.uleb128 0
 2189 003e 00       		.uleb128 0
 2190 003f AD07     		.uleb128 .LEHB21-.LFB1219
 2191 0041 43       		.uleb128 .LEHE21-.LEHB21
 2192 0042 B527     		.uleb128 .L170-.LFB1219
 2193 0044 01       		.uleb128 0x1
 2194 0045 8908     		.uleb128 .LEHB22-.LFB1219
 2195 0047 05       		.uleb128 .LEHE22-.LEHB22
 2196 0048 00       		.uleb128 0
 2197 0049 00       		.uleb128 0
 2198 004a 9508     		.uleb128 .LEHB23-.LFB1219
 2199 004c 43       		.uleb128 .LEHE23-.LEHB23
 2200 004d A927     		.uleb128 .L172-.LFB1219
 2201 004f 01       		.uleb128 0x1
 2202 0050 F108     		.uleb128 .LEHB24-.LFB1219
 2203 0052 05       		.uleb128 .LEHE24-.LEHB24
 2204 0053 00       		.uleb128 0
 2205 0054 00       		.uleb128 0
 2206 0055 FD08     		.uleb128 .LEHB25-.LFB1219
 2207 0057 43       		.uleb128 .LEHE25-.LEHB25
 2208 0058 9D27     		.uleb128 .L174-.LFB1219
 2209 005a 01       		.uleb128 0x1
 2210 005b DC09     		.uleb128 .LEHB26-.LFB1219
 2211 005d 05       		.uleb128 .LEHE26-.LEHB26
 2212 005e 00       		.uleb128 0
 2213 005f 00       		.uleb128 0
 2214 0060 E809     		.uleb128 .LEHB27-.LFB1219
 2215 0062 43       		.uleb128 .LEHE27-.LEHB27
 2216 0063 9127     		.uleb128 .L176-.LFB1219
 2217 0065 01       		.uleb128 0x1
 2218 0066 C50A     		.uleb128 .LEHB28-.LFB1219
 2219 0068 05       		.uleb128 .LEHE28-.LEHB28
 2220 0069 00       		.uleb128 0
 2221 006a 00       		.uleb128 0
 2222 006b D10A     		.uleb128 .LEHB29-.LFB1219
 2223 006d 43       		.uleb128 .LEHE29-.LEHB29
 2224 006e 8527     		.uleb128 .L178-.LFB1219
 2225 0070 01       		.uleb128 0x1
 2226 0071 AB0B     		.uleb128 .LEHB30-.LFB1219
 2227 0073 05       		.uleb128 .LEHE30-.LEHB30
 2228 0074 00       		.uleb128 0
 2229 0075 00       		.uleb128 0
 2230 0076 B70B     		.uleb128 .LEHB31-.LFB1219
 2231 0078 43       		.uleb128 .LEHE31-.LEHB31
 2232 0079 F926     		.uleb128 .L180-.LFB1219
 2233 007b 01       		.uleb128 0x1
 2234 007c 8B0C     		.uleb128 .LEHB32-.LFB1219
 2235 007e 05       		.uleb128 .LEHE32-.LEHB32
 2236 007f 00       		.uleb128 0
 2237 0080 00       		.uleb128 0
 2238 0081 930C     		.uleb128 .LEHB33-.LFB1219
 2239 0083 1A       		.uleb128 .LEHE33-.LEHB33
 2240 0084 ED26     		.uleb128 .L182-.LFB1219
 2241 0086 01       		.uleb128 0x1
 2242 0087 A20D     		.uleb128 .LEHB34-.LFB1219
 2243 0089 05       		.uleb128 .LEHE34-.LEHB34
 2244 008a D526     		.uleb128 .L191-.LFB1219
 2245 008c 03       		.uleb128 0x3
 2246 008d E70E     		.uleb128 .LEHB35-.LFB1219
 2247 008f 05       		.uleb128 .LEHE35-.LEHB35
 2248 0090 C926     		.uleb128 .L192-.LFB1219
 2249 0092 03       		.uleb128 0x3
 2250 0093 C90F     		.uleb128 .LEHB36-.LFB1219
 2251 0095 49       		.uleb128 .LEHE36-.LEHB36
 2252 0096 E126     		.uleb128 .L190-.LFB1219
 2253 0098 03       		.uleb128 0x3
 2254 0099 BB11     		.uleb128 .LEHB37-.LFB1219
 2255 009b 05       		.uleb128 .LEHE37-.LEHB37
 2256 009c ED26     		.uleb128 .L182-.LFB1219
 2257 009e 01       		.uleb128 0x1
 2258 009f C711     		.uleb128 .LEHB38-.LFB1219
 2259 00a1 05       		.uleb128 .LEHE38-.LEHB38
 2260 00a2 00       		.uleb128 0
 2261 00a3 00       		.uleb128 0
 2262 00a4 CF11     		.uleb128 .LEHB39-.LFB1219
 2263 00a6 1A       		.uleb128 .LEHE39-.LEHB39
 2264 00a7 BD26     		.uleb128 .L184-.LFB1219
 2265 00a9 01       		.uleb128 0x1
 2266 00aa DE12     		.uleb128 .LEHB40-.LFB1219
 2267 00ac 05       		.uleb128 .LEHE40-.LEHB40
 2268 00ad B126     		.uleb128 .L194-.LFB1219
 2269 00af 03       		.uleb128 0x3
 2270 00b0 A314     		.uleb128 .LEHB41-.LFB1219
 2271 00b2 05       		.uleb128 .LEHE41-.LEHB41
 2272 00b3 A526     		.uleb128 .L195-.LFB1219
 2273 00b5 03       		.uleb128 0x3
 2274 00b6 8515     		.uleb128 .LEHB42-.LFB1219
 2275 00b8 49       		.uleb128 .LEHE42-.LEHB42
 2276 00b9 9926     		.uleb128 .L193-.LFB1219
 2277 00bb 03       		.uleb128 0x3
 2278 00bc F716     		.uleb128 .LEHB43-.LFB1219
 2279 00be 05       		.uleb128 .LEHE43-.LEHB43
 2280 00bf BD26     		.uleb128 .L184-.LFB1219
 2281 00c1 01       		.uleb128 0x1
 2282 00c2 9017     		.uleb128 .LEHB44-.LFB1219
 2283 00c4 05       		.uleb128 .LEHE44-.LEHB44
 2284 00c5 00       		.uleb128 0
 2285 00c6 00       		.uleb128 0
 2286 00c7 9817     		.uleb128 .LEHB45-.LFB1219
 2287 00c9 1A       		.uleb128 .LEHE45-.LEHB45
 2288 00ca 8D26     		.uleb128 .L186-.LFB1219
 2289 00cc 01       		.uleb128 0x1
 2290 00cd A718     		.uleb128 .LEHB46-.LFB1219
 2291 00cf 05       		.uleb128 .LEHE46-.LEHB46
 2292 00d0 F525     		.uleb128 .L197-.LFB1219
 2293 00d2 03       		.uleb128 0x3
 2294 00d3 EC19     		.uleb128 .LEHB47-.LFB1219
 2295 00d5 05       		.uleb128 .LEHE47-.LEHB47
 2296 00d6 E925     		.uleb128 .L198-.LFB1219
 2297 00d8 03       		.uleb128 0x3
 2298 00d9 CE1A     		.uleb128 .LEHB48-.LFB1219
 2299 00db 49       		.uleb128 .LEHE48-.LEHB48
 2300 00dc 8126     		.uleb128 .L196-.LFB1219
 2301 00de 03       		.uleb128 0x3
 2302 00df C01C     		.uleb128 .LEHB49-.LFB1219
 2303 00e1 05       		.uleb128 .LEHE49-.LEHB49
 2304 00e2 8D26     		.uleb128 .L186-.LFB1219
 2305 00e4 01       		.uleb128 0x1
 2306 00e5 C51C     		.uleb128 .LEHB50-.LFB1219
 2307 00e7 1A       		.uleb128 .LEHE50-.LEHB50
 2308 00e8 DD25     		.uleb128 .L188-.LFB1219
 2309 00ea 01       		.uleb128 0x1
 2310 00eb CC1F     		.uleb128 .LEHB51-.LFB1219
 2311 00ed 05       		.uleb128 .LEHE51-.LEHB51
 2312 00ee D125     		.uleb128 .L200-.LFB1219
 2313 00f0 03       		.uleb128 0x3
 2314 00f1 9121     		.uleb128 .LEHB52-.LFB1219
 2315 00f3 05       		.uleb128 .LEHE52-.LEHB52
 2316 00f4 C525     		.uleb128 .L201-.LFB1219
 2317 00f6 03       		.uleb128 0x3
 2318 00f7 F321     		.uleb128 .LEHB53-.LFB1219
 2319 00f9 E901     		.uleb128 .LEHE53-.LEHB53
 2320 00fb B925     		.uleb128 .L199-.LFB1219
 2321 00fd 03       		.uleb128 0x3
 2322 00fe 8525     		.uleb128 .LEHB54-.LFB1219
 2323 0100 05       		.uleb128 .LEHE54-.LEHB54
 2324 0101 DD25     		.uleb128 .L188-.LFB1219
 2325 0103 01       		.uleb128 0x1
 2326              	.LLSDACSE1219:
 2327 0104 01       		.byte	0x1
 2328 0105 00       		.byte	0
 2329 0106 00       		.byte	0
 2330 0107 7D       		.byte	0x7d
 2331              		.align 4
 2332 0108 00000000 		.long	0
 2333              	
 2334              	.LLSDATT1219:
 2335              		.text
 2336              		.cfi_endproc
 2337              		.section	.text.unlikely
 2338              		.cfi_startproc
 2339              		.cfi_personality 0x9b,DW.ref.__gxx_personality_v0
 2340              		.cfi_lsda 0x1b,.LLSDAC1219
 2342              	_ZNK21TestI2C_testRoundTrip7RunImplEv.cold:
 2343              	.LFSB1219:
 2344              	.L107:
 2345              		.cfi_def_cfa_offset 896
 2346              		.cfi_offset 3, -56
 2347              		.cfi_offset 6, -48
 2348              		.cfi_offset 12, -40
 2349              		.cfi_offset 13, -32
 2350              		.cfi_offset 14, -24
 2351              		.cfi_offset 15, -16
 2352 0044 4C89E7   		movq	%r12, %rdi
 2353 0047 E8000000 		call	_ZN8UnitTest15MemoryOutStreamD1Ev
 2353      00
 2354 004c 4889DF   		movq	%rbx, %rdi
 2355              	.L101:
 2356 004f E8000000 		call	__cxa_begin_catch@PLT
 2356      00
 2357              	.LEHB55:
 2358 0054 E8000000 		call	_ZN8UnitTest11CurrentTest7ResultsEv@PLT
 2358      00
 2359 0059 4C8B20   		movq	(%rax), %r12
 2360 005c E8000000 		call	_ZN8UnitTest11CurrentTest7DetailsEv@PLT
 2360      00
 2361 0061 488B30   		movq	(%rax), %rsi
 2362 0064 BA560000 		movl	$86, %edx
 2362      00
 2363 0069 4889EF   		movq	%rbp, %rdi
 2364 006c E8000000 		call	_ZN8UnitTest11TestDetailsC1ERKS0_i@PLT
 2364      00
 2365 0071 488D1500 		leaq	.LC12(%rip), %rdx
 2365      000000
 2366 0078 4889EE   		movq	%rbp, %rsi
 2367 007b 4C89E7   		movq	%r12, %rdi
 2368 007e E8000000 		call	_ZN8UnitTest11TestResults13OnTestFailureERKNS_11TestDetailsEPKc@PLT
 2368      00
 2369              	.LEHE55:
 2370              	.LEHB56:
 2371 0083 E8000000 		call	__cxa_end_catch@PLT
 2371      00
 2372              	.LEHE56:
 2373 0088 E9000000 		jmp	.L106
 2373      00
 2374              	.L98:
 2375 008d 4C89F7   		movq	%r14, %rdi
 2376 0090 E8000000 		call	_ZNSt7__cxx1115basic_stringbufIcSt11char_traitsIcESaIcEED1Ev
 2376      00
 2377 0095 488B4424 		movq	40(%rsp), %rax
 2377      28
 2378 009a 48898424 		movq	%rax, 368(%rsp)
 2378      70010000 
 2379              	.L99:
 2380 00a2 488B7C24 		movq	32(%rsp), %rdi
 2380      20
 2381 00a7 488D0500 		leaq	16+_ZTVSt9basic_iosIcSt11char_traitsIcEE(%rip), %rax
 2381      000000
 2382 00ae 48898424 		movq	%rax, 512(%rsp)
 2382      00020000 
 2383 00b6 E8000000 		call	_ZNSt8ios_baseD2Ev@PLT
 2383      00
 2384 00bb 4889DF   		movq	%rbx, %rdi
 2385 00be EB8F     		jmp	.L101
 2386              	.L87:
 2387 00c0 4C89F7   		movq	%r14, %rdi
 2388 00c3 E8000000 		call	_ZNSt7__cxx1115basic_stringbufIcSt11char_traitsIcESaIcEED1Ev
 2388      00
 2389 00c8 488B4424 		movq	40(%rsp), %rax
 2389      28
 2390 00cd 48898424 		movq	%rax, 368(%rsp)
 2390      70010000 
 2391              	.L88:
 2392 00d5 488B7C24 		movq	32(%rsp), %rdi
 2392      20
 2393 00da 488D0500 		leaq	16+_ZTVSt9basic_iosIcSt11char_traitsIcEE(%rip), %rax
 2393      000000
 2394 00e1 48898424 		movq	%rax, 512(%rsp)
 2394      00020000 
 2395 00e9 E8000000 		call	_ZNSt8ios_baseD2Ev@PLT
 2395      00
 2396 00ee 4C89E7   		movq	%r12, %rdi
 2397              	.L90:
 2398 00f1 E8000000 		call	__cxa_begin_catch@PLT
 2398      00
 2399              	.LEHB57:
 2400 00f6 E8000000 		call	_ZN8UnitTest11CurrentTest7ResultsEv@PLT
 2400      00
 2401 00fb 4C8B20   		movq	(%rax), %r12
 2402 00fe E8000000 		call	_ZN8UnitTest11CurrentTest7DetailsEv@PLT
 2402      00
 2403 0103 488B30   		movq	(%rax), %rsi
 2404 0106 BA550000 		movl	$85, %edx
 2404      00
 2405 010b 4889EF   		movq	%rbp, %rdi
 2406 010e E8000000 		call	_ZN8UnitTest11TestDetailsC1ERKS0_i@PLT
 2406      00
 2407 0113 488D1500 		leaq	.LC11(%rip), %rdx
 2407      000000
 2408 011a 4889EE   		movq	%rbp, %rsi
 2409 011d 4C89E7   		movq	%r12, %rdi
 2410 0120 E8000000 		call	_ZN8UnitTest11TestResults13OnTestFailureERKNS_11TestDetailsEPKc@PLT
 2410      00
 2411              	.LEHE57:
 2412              	.LEHB58:
 2413 0125 E8000000 		call	__cxa_end_catch@PLT
 2413      00
 2414              	.LEHE58:
 2415 012a E9000000 		jmp	.L93
 2415      00
 2416              	.L189:
 2417 012f F30F1EFA 		endbr64
 2418 0133 4889C5   		movq	%rax, %rbp
 2419 0136 E8000000 		call	__cxa_end_catch@PLT
 2419      00
 2420 013b 4889EF   		movq	%rbp, %rdi
 2421              	.LEHB59:
 2422 013e E8000000 		call	_Unwind_Resume@PLT
 2422      00
 2423              	.LEHE59:
 2424              	.L94:
 2425 0143 4C89E7   		movq	%r12, %rdi
 2426 0146 E8000000 		call	_ZN8UnitTest15MemoryOutStreamD1Ev
 2426      00
 2427 014b 4C89EF   		movq	%r13, %rdi
 2428 014e EBA1     		jmp	.L90
 2429              	.L187:
 2430 0150 F30F1EFA 		endbr64
 2431 0154 4889C5   		movq	%rax, %rbp
 2432 0157 E8000000 		call	__cxa_end_catch@PLT
 2432      00
 2433 015c 4889EF   		movq	%rbp, %rdi
 2434              	.LEHB60:
 2435 015f E8000000 		call	_Unwind_Resume@PLT
 2435      00
 2436              	.LEHE60:
 2437              	.L84:
 2438 0164 4C89E7   		movq	%r12, %rdi
 2439 0167 E8000000 		call	_ZN8UnitTest15MemoryOutStreamD1Ev
 2439      00
 2440 016c 4C89EF   		movq	%r13, %rdi
 2441              	.L80:
 2442 016f E8000000 		call	__cxa_begin_catch@PLT
 2442      00
 2443              	.LEHB61:
 2444 0174 E8000000 		call	_ZN8UnitTest11CurrentTest7ResultsEv@PLT
 2444      00
 2445 0179 4C8B20   		movq	(%rax), %r12
 2446 017c E8000000 		call	_ZN8UnitTest11CurrentTest7DetailsEv@PLT
 2446      00
 2447 0181 488B30   		movq	(%rax), %rsi
 2448 0184 BA530000 		movl	$83, %edx
 2448      00
 2449 0189 4889EF   		movq	%rbp, %rdi
 2450 018c E8000000 		call	_ZN8UnitTest11TestDetailsC1ERKS0_i@PLT
 2450      00
 2451 0191 488D1500 		leaq	.LC11(%rip), %rdx
 2451      000000
 2452 0198 4889EE   		movq	%rbp, %rsi
 2453 019b 4C89E7   		movq	%r12, %rdi
 2454 019e E8000000 		call	_ZN8UnitTest11TestResults13OnTestFailureERKNS_11TestDetailsEPKc@PLT
 2454      00
 2455              	.LEHE61:
 2456              	.LEHB62:
 2457 01a3 E8000000 		call	__cxa_end_catch@PLT
 2457      00
 2458              	.LEHE62:
 2459 01a8 E9000000 		jmp	.L83
 2459      00
 2460              	.L77:
 2461 01ad 4C89F7   		movq	%r14, %rdi
 2462 01b0 E8000000 		call	_ZNSt7__cxx1115basic_stringbufIcSt11char_traitsIcESaIcEED1Ev
 2462      00
 2463 01b5 488B4424 		movq	40(%rsp), %rax
 2463      28
 2464 01ba 48898424 		movq	%rax, 368(%rsp)
 2464      70010000 
 2465              	.L78:
 2466 01c2 488B7C24 		movq	32(%rsp), %rdi
 2466      20
 2467 01c7 488D0500 		leaq	16+_ZTVSt9basic_iosIcSt11char_traitsIcEE(%rip), %rax
 2467      000000
 2468 01ce 48898424 		movq	%rax, 512(%rsp)
 2468      00020000 
 2469 01d6 E8000000 		call	_ZNSt8ios_baseD2Ev@PLT
 2469      00
 2470 01db 4C89E7   		movq	%r12, %rdi
 2471 01de EB8F     		jmp	.L80
 2472              	.L67:
 2473 01e0 4C89F7   		movq	%r14, %rdi
 2474 01e3 E8000000 		call	_ZNSt7__cxx1115basic_stringbufIcSt11char_traitsIcESaIcEED1Ev
 2474      00
 2475 01e8 488B4424 		movq	40(%rsp), %rax
 2475      28
 2476 01ed 48898424 		movq	%rax, 368(%rsp)
 2476      70010000 
 2477              	.L68:
 2478 01f5 488B7C24 		movq	32(%rsp), %rdi
 2478      20
 2479 01fa 488D0500 		leaq	16+_ZTVSt9basic_iosIcSt11char_traitsIcEE(%rip), %rax
 2479      000000
 2480 0201 48898424 		movq	%rax, 512(%rsp)
 2480      00020000 
 2481 0209 E8000000 		call	_ZNSt8ios_baseD2Ev@PLT
 2481      00
 2482 020e 4C89E7   		movq	%r12, %rdi
 2483              	.L70:
 2484 0211 E8000000 		call	__cxa_begin_catch@PLT
 2484      00
 2485              	.LEHB63:
 2486 0216 E8000000 		call	_ZN8UnitTest11CurrentTest7ResultsEv@PLT
 2486      00
 2487 021b 4C8B20   		movq	(%rax), %r12
 2488 021e E8000000 		call	_ZN8UnitTest11CurrentTest7DetailsEv@PLT
 2488      00
 2489 0223 488B30   		movq	(%rax), %rsi
 2490 0226 BA510000 		movl	$81, %edx
 2490      00
 2491 022b 4889EF   		movq	%rbp, %rdi
 2492 022e E8000000 		call	_ZN8UnitTest11TestDetailsC1ERKS0_i@PLT
 2492      00
 2493 0233 488D1500 		leaq	.LC11(%rip), %rdx
 2493      000000
 2494 023a 4889EE   		movq	%rbp, %rsi
 2495 023d 4C89E7   		movq	%r12, %rdi
 2496 0240 E8000000 		call	_ZN8UnitTest11TestResults13OnTestFailureERKNS_11TestDetailsEPKc@PLT
 2496      00
 2497              	.LEHE63:
 2498              	.LEHB64:
 2499 0245 E8000000 		call	__cxa_end_catch@PLT
 2499      00
 2500              	.LEHE64:
 2501 024a E9000000 		jmp	.L73
 2501      00
 2502              	.L185:
 2503 024f F30F1EFA 		endbr64
 2504 0253 4889C5   		movq	%rax, %rbp
 2505 0256 E8000000 		call	__cxa_end_catch@PLT
 2505      00
 2506 025b 4889EF   		movq	%rbp, %rdi
 2507              	.LEHB65:
 2508 025e E8000000 		call	_Unwind_Resume@PLT
 2508      00
 2509              	.LEHE65:
 2510              	.L74:
 2511 0263 4C89E7   		movq	%r12, %rdi
 2512 0266 E8000000 		call	_ZN8UnitTest15MemoryOutStreamD1Ev
 2512      00
 2513 026b 4C89EF   		movq	%r13, %rdi
 2514 026e EBA1     		jmp	.L70
 2515              	.L183:
 2516 0270 F30F1EFA 		endbr64
 2517 0274 4889C5   		movq	%rax, %rbp
 2518 0277 E8000000 		call	__cxa_end_catch@PLT
 2518      00
 2519 027c 4889EF   		movq	%rbp, %rdi
 2520              	.LEHB66:
 2521 027f E8000000 		call	_Unwind_Resume@PLT
 2521      00
 2522              	.LEHE66:
 2523              	.L144:
 2524 0284 E8000000 		call	__cxa_begin_catch@PLT
 2524      00
 2525              	.LEHB67:
 2526 0289 E8000000 		call	_ZN8UnitTest11CurrentTest7ResultsEv@PLT
 2526      00
 2527 028e 4C8B20   		movq	(%rax), %r12
 2528 0291 E8000000 		call	_ZN8UnitTest11CurrentTest7DetailsEv@PLT
 2528      00
 2529 0296 488B30   		movq	(%rax), %rsi
 2530 0299 BA4F0000 		movl	$79, %edx
 2530      00
 2531 029e 4889EF   		movq	%rbp, %rdi
 2532 02a1 E8000000 		call	_ZN8UnitTest11TestDetailsC1ERKS0_i@PLT
 2532      00
 2533 02a6 488D1500 		leaq	.LC10(%rip), %rdx
 2533      000000
 2534 02ad 4889EE   		movq	%rbp, %rsi
 2535 02b0 4C89E7   		movq	%r12, %rdi
 2536 02b3 E8000000 		call	_ZN8UnitTest11TestResults13OnTestFailureERKNS_11TestDetailsEPKc@PLT
 2536      00
 2537              	.LEHE67:
 2538              	.LEHB68:
 2539 02b8 E8000000 		call	__cxa_end_catch@PLT
 2539      00
 2540              	.LEHE68:
 2541 02bd E9000000 		jmp	.L145
 2541      00
 2542              	.L141:
 2543 02c2 E8000000 		call	__cxa_begin_catch@PLT
 2543      00
 2544              	.LEHB69:
 2545 02c7 E8000000 		call	_ZN8UnitTest11CurrentTest7ResultsEv@PLT
 2545      00
 2546 02cc 4C8B20   		movq	(%rax), %r12
 2547 02cf E8000000 		call	_ZN8UnitTest11CurrentTest7DetailsEv@PLT
 2547      00
 2548 02d4 488B30   		movq	(%rax), %rsi
 2549 02d7 BA4D0000 		movl	$77, %edx
 2549      00
 2550 02dc 4889EF   		movq	%rbp, %rdi
 2551 02df E8000000 		call	_ZN8UnitTest11TestDetailsC1ERKS0_i@PLT
 2551      00
 2552 02e4 488D1500 		leaq	.LC10(%rip), %rdx
 2552      000000
 2553 02eb 4889EE   		movq	%rbp, %rsi
 2554 02ee 4C89E7   		movq	%r12, %rdi
 2555 02f1 E8000000 		call	_ZN8UnitTest11TestResults13OnTestFailureERKNS_11TestDetailsEPKc@PLT
 2555      00
 2556              	.LEHE69:
 2557              	.LEHB70:
 2558 02f6 E8000000 		call	__cxa_end_catch@PLT
 2558      00
 2559              	.LEHE70:
 2560 02fb E9000000 		jmp	.L142
 2560      00
 2561              	.L138:
 2562 0300 E8000000 		call	__cxa_begin_catch@PLT
 2562      00
 2563              	.LEHB71:
 2564 0305 E8000000 		call	_ZN8UnitTest11CurrentTest7ResultsEv@PLT
 2564      00
 2565 030a 4C8B20   		movq	(%rax), %r12
 2566 030d E8000000 		call	_ZN8UnitTest11CurrentTest7DetailsEv@PLT
 2566      00
 2567 0312 488B30   		movq	(%rax), %rsi
 2568 0315 BA4B0000 		movl	$75, %edx
 2568      00
 2569 031a 4889EF   		movq	%rbp, %rdi
 2570 031d E8000000 		call	_ZN8UnitTest11TestDetailsC1ERKS0_i@PLT
 2570      00
 2571 0322 488D1500 		leaq	.LC10(%rip), %rdx
 2571      000000
 2572 0329 4889EE   		movq	%rbp, %rsi
 2573 032c 4C89E7   		movq	%r12, %rdi
 2574 032f E8000000 		call	_ZN8UnitTest11TestResults13OnTestFailureERKNS_11TestDetailsEPKc@PLT
 2574      00
 2575              	.LEHE71:
 2576              	.LEHB72:
 2577 0334 E8000000 		call	__cxa_end_catch@PLT
 2577      00
 2578              	.LEHE72:
 2579 0339 E9000000 		jmp	.L139
 2579      00
 2580              	.L181:
 2581 033e F30F1EFA 		endbr64
 2582 0342 4889C5   		movq	%rax, %rbp
 2583 0345 E8000000 		call	__cxa_end_catch@PLT
 2583      00
 2584 034a 4889EF   		movq	%rbp, %rdi
 2585              	.LEHB73:
 2586 034d E8000000 		call	_Unwind_Resume@PLT
 2586      00
 2587              	.LEHE73:
 2588              	.L179:
 2589 0352 F30F1EFA 		endbr64
 2590 0356 4889C5   		movq	%rax, %rbp
 2591 0359 E8000000 		call	__cxa_end_catch@PLT
 2591      00
 2592 035e 4889EF   		movq	%rbp, %rdi
 2593              	.LEHB74:
 2594 0361 E8000000 		call	_Unwind_Resume@PLT
 2594      00
 2595              	.LEHE74:
 2596              	.L177:
 2597 0366 F30F1EFA 		endbr64
 2598 036a 4889C5   		movq	%rax, %rbp
 2599 036d E8000000 		call	__cxa_end_catch@PLT
 2599      00
 2600 0372 4889EF   		movq	%rbp, %rdi
 2601              	.LEHB75:
 2602 0375 E8000000 		call	_Unwind_Resume@PLT
 2602      00
 2603              	.LEHE75:
 2604              	.L135:
 2605 037a E8000000 		call	__cxa_begin_catch@PLT
 2605      00
 2606              	.LEHB76:
 2607 037f E8000000 		call	_ZN8UnitTest11CurrentTest7ResultsEv@PLT
 2607      00
 2608 0384 4C8B20   		movq	(%rax), %r12
 2609 0387 E8000000 		call	_ZN8UnitTest11CurrentTest7DetailsEv@PLT
 2609      00
 2610 038c 488B30   		movq	(%rax), %rsi
 2611 038f BA490000 		movl	$73, %edx
 2611      00
 2612 0394 4889EF   		movq	%rbp, %rdi
 2613 0397 E8000000 		call	_ZN8UnitTest11TestDetailsC1ERKS0_i@PLT
 2613      00
 2614 039c 488D1500 		leaq	.LC10(%rip), %rdx
 2614      000000
 2615 03a3 4889EE   		movq	%rbp, %rsi
 2616 03a6 4C89E7   		movq	%r12, %rdi
 2617 03a9 E8000000 		call	_ZN8UnitTest11TestResults13OnTestFailureERKNS_11TestDetailsEPKc@PLT
 2617      00
 2618              	.LEHE76:
 2619              	.LEHB77:
 2620 03ae E8000000 		call	__cxa_end_catch@PLT
 2620      00
 2621              	.LEHE77:
 2622 03b3 E9000000 		jmp	.L136
 2622      00
 2623              	.L132:
 2624 03b8 E8000000 		call	__cxa_begin_catch@PLT
 2624      00
 2625              	.LEHB78:
 2626 03bd E8000000 		call	_ZN8UnitTest11CurrentTest7ResultsEv@PLT
 2626      00
 2627 03c2 4C8B20   		movq	(%rax), %r12
 2628 03c5 E8000000 		call	_ZN8UnitTest11CurrentTest7DetailsEv@PLT
 2628      00
 2629 03ca 488B30   		movq	(%rax), %rsi
 2630 03cd BA470000 		movl	$71, %edx
 2630      00
 2631 03d2 4889EF   		movq	%rbp, %rdi
 2632 03d5 E8000000 		call	_ZN8UnitTest11TestDetailsC1ERKS0_i@PLT
 2632      00
 2633 03da 488D1500 		leaq	.LC10(%rip), %rdx
 2633      000000
 2634 03e1 4889EE   		movq	%rbp, %rsi
 2635 03e4 4C89E7   		movq	%r12, %rdi
 2636 03e7 E8000000 		call	_ZN8UnitTest11TestResults13OnTestFailureERKNS_11TestDetailsEPKc@PLT
 2636      00
 2637              	.LEHE78:
 2638              	.LEHB79:
 2639 03ec E8000000 		call	__cxa_end_catch@PLT
 2639      00
 2640              	.LEHE79:
 2641 03f1 E9000000 		jmp	.L133
 2641      00
 2642              	.L175:
 2643 03f6 F30F1EFA 		endbr64
 2644 03fa 4889C5   		movq	%rax, %rbp
 2645 03fd E8000000 		call	__cxa_end_catch@PLT
 2645      00
 2646 0402 4889EF   		movq	%rbp, %rdi
 2647              	.LEHB80:
 2648 0405 E8000000 		call	_Unwind_Resume@PLT
 2648      00
 2649              	.LEHE80:
 2650              	.L173:
 2651 040a F30F1EFA 		endbr64
 2652 040e 4889C5   		movq	%rax, %rbp
 2653 0411 E8000000 		call	__cxa_end_catch@PLT
 2653      00
 2654 0416 4889EF   		movq	%rbp, %rdi
 2655              	.LEHB81:
 2656 0419 E8000000 		call	_Unwind_Resume@PLT
 2656      00
 2657              	.LEHE81:
 2658              	.L129:
 2659 041e E8000000 		call	__cxa_begin_catch@PLT
 2659      00
 2660              	.LEHB82:
 2661 0423 E8000000 		call	_ZN8UnitTest11CurrentTest7ResultsEv@PLT
 2661      00
 2662 0428 4C8B20   		movq	(%rax), %r12
 2663 042b E8000000 		call	_ZN8UnitTest11CurrentTest7DetailsEv@PLT
 2663      00
 2664 0430 488B30   		movq	(%rax), %rsi
 2665 0433 BA450000 		movl	$69, %edx
 2665      00
 2666 0438 4889EF   		movq	%rbp, %rdi
 2667 043b E8000000 		call	_ZN8UnitTest11TestDetailsC1ERKS0_i@PLT
 2667      00
 2668 0440 488D1500 		leaq	.LC10(%rip), %rdx
 2668      000000
 2669 0447 4889EE   		movq	%rbp, %rsi
 2670 044a 4C89E7   		movq	%r12, %rdi
 2671 044d E8000000 		call	_ZN8UnitTest11TestResults13OnTestFailureERKNS_11TestDetailsEPKc@PLT
 2671      00
 2672              	.LEHE82:
 2673              	.LEHB83:
 2674 0452 E8000000 		call	__cxa_end_catch@PLT
 2674      00
 2675              	.LEHE83:
 2676 0457 E9000000 		jmp	.L130
 2676      00
 2677              	.L126:
 2678 045c E8000000 		call	__cxa_begin_catch@PLT
 2678      00
 2679              	.LEHB84:
 2680 0461 E8000000 		call	_ZN8UnitTest11CurrentTest7ResultsEv@PLT
 2680      00
 2681 0466 4C8B20   		movq	(%rax), %r12
 2682 0469 E8000000 		call	_ZN8UnitTest11CurrentTest7DetailsEv@PLT
 2682      00
 2683 046e 488DAC24 		leaq	336(%rsp), %rbp
 2683      50010000 
 2684 0476 488B30   		movq	(%rax), %rsi
 2685 0479 BA420000 		movl	$66, %edx
 2685      00
 2686 047e 4889EF   		movq	%rbp, %rdi
 2687 0481 E8000000 		call	_ZN8UnitTest11TestDetailsC1ERKS0_i@PLT
 2687      00
 2688 0486 488D1500 		leaq	.LC10(%rip), %rdx
 2688      000000
 2689 048d 4889EE   		movq	%rbp, %rsi
 2690 0490 4C89E7   		movq	%r12, %rdi
 2691 0493 E8000000 		call	_ZN8UnitTest11TestResults13OnTestFailureERKNS_11TestDetailsEPKc@PLT
 2691      00
 2692              	.LEHE84:
 2693              	.LEHB85:
 2694 0498 E8000000 		call	__cxa_end_catch@PLT
 2694      00
 2695              	.LEHE85:
 2696 049d E9000000 		jmp	.L127
 2696      00
 2697              	.L171:
 2698 04a2 F30F1EFA 		endbr64
 2699 04a6 4889C5   		movq	%rax, %rbp
 2700 04a9 E8000000 		call	__cxa_end_catch@PLT
 2700      00
 2701 04ae 4889EF   		movq	%rbp, %rdi
 2702              	.LEHB86:
 2703 04b1 E8000000 		call	_Unwind_Resume@PLT
 2703      00
 2704              	.LEHE86:
 2705              	.L169:
 2706 04b6 F30F1EFA 		endbr64
 2707 04ba 4889C5   		movq	%rax, %rbp
 2708 04bd E8000000 		call	__cxa_end_catch@PLT
 2708      00
 2709 04c2 4889EF   		movq	%rbp, %rdi
 2710              	.LEHB87:
 2711 04c5 E8000000 		call	_Unwind_Resume@PLT
 2711      00
 2712              	.LEHE87:
 2713              		.cfi_endproc
 2714              	.LFE1219:
 2715              		.section	.gcc_except_table
 2716              		.align 4
 2717              	.LLSDAC1219:
 2718 010c FF       		.byte	0xff
 2719 010d 9B       		.byte	0x9b
 2720 010e BC01     		.uleb128 .LLSDATTC1219-.LLSDATTDC1219
 2721              	.LLSDATTDC1219:
 2722 0110 01       		.byte	0x1
 2723 0111 AE01     		.uleb128 .LLSDACSEC1219-.LLSDACSBC1219
 2724              	.LLSDACSBC1219:
 2725 0113 10       		.uleb128 .LEHB55-.LCOLDB13
 2726 0114 2F       		.uleb128 .LEHE55-.LEHB55
 2727 0115 EB01     		.uleb128 .L189-.LCOLDB13
 2728 0117 00       		.uleb128 0
 2729 0118 3F       		.uleb128 .LEHB56-.LCOLDB13
 2730 0119 05       		.uleb128 .LEHE56-.LEHB56
 2731 011a 00       		.uleb128 0
 2732 011b 00       		.uleb128 0
 2733 011c B201     		.uleb128 .LEHB57-.LCOLDB13
 2734 011e 2F       		.uleb128 .LEHE57-.LEHB57
 2735 011f 8C02     		.uleb128 .L187-.LCOLDB13
 2736 0121 00       		.uleb128 0
 2737 0122 E101     		.uleb128 .LEHB58-.LCOLDB13
 2738 0124 05       		.uleb128 .LEHE58-.LEHB58
 2739 0125 00       		.uleb128 0
 2740 0126 00       		.uleb128 0
 2741 0127 FA01     		.uleb128 .LEHB59-.LCOLDB13
 2742 0129 05       		.uleb128 .LEHE59-.LEHB59
 2743 012a 00       		.uleb128 0
 2744 012b 00       		.uleb128 0
 2745 012c 9B02     		.uleb128 .LEHB60-.LCOLDB13
 2746 012e 05       		.uleb128 .LEHE60-.LEHB60
 2747 012f 00       		.uleb128 0
 2748 0130 00       		.uleb128 0
 2749 0131 B002     		.uleb128 .LEHB61-.LCOLDB13
 2750 0133 2F       		.uleb128 .LEHE61-.LEHB61
 2751 0134 8B04     		.uleb128 .L185-.LCOLDB13
 2752 0136 00       		.uleb128 0
 2753 0137 DF02     		.uleb128 .LEHB62-.LCOLDB13
 2754 0139 05       		.uleb128 .LEHE62-.LEHB62
 2755 013a 00       		.uleb128 0
 2756 013b 00       		.uleb128 0
 2757 013c D203     		.uleb128 .LEHB63-.LCOLDB13
 2758 013e 2F       		.uleb128 .LEHE63-.LEHB63
 2759 013f AC04     		.uleb128 .L183-.LCOLDB13
 2760 0141 00       		.uleb128 0
 2761 0142 8104     		.uleb128 .LEHB64-.LCOLDB13
 2762 0144 05       		.uleb128 .LEHE64-.LEHB64
 2763 0145 00       		.uleb128 0
 2764 0146 00       		.uleb128 0
 2765 0147 9A04     		.uleb128 .LEHB65-.LCOLDB13
 2766 0149 05       		.uleb128 .LEHE65-.LEHB65
 2767 014a 00       		.uleb128 0
 2768 014b 00       		.uleb128 0
 2769 014c BB04     		.uleb128 .LEHB66-.LCOLDB13
 2770 014e 05       		.uleb128 .LEHE66-.LEHB66
 2771 014f 00       		.uleb128 0
 2772 0150 00       		.uleb128 0
 2773 0151 C504     		.uleb128 .LEHB67-.LCOLDB13
 2774 0153 2F       		.uleb128 .LEHE67-.LEHB67
 2775 0154 FA05     		.uleb128 .L181-.LCOLDB13
 2776 0156 00       		.uleb128 0
 2777 0157 F404     		.uleb128 .LEHB68-.LCOLDB13
 2778 0159 05       		.uleb128 .LEHE68-.LEHB68
 2779 015a 00       		.uleb128 0
 2780 015b 00       		.uleb128 0
 2781 015c 8305     		.uleb128 .LEHB69-.LCOLDB13
 2782 015e 2F       		.uleb128 .LEHE69-.LEHB69
 2783 015f 8E06     		.uleb128 .L179-.LCOLDB13
 2784 0161 00       		.uleb128 0
 2785 0162 B205     		.uleb128 .LEHB70-.LCOLDB13
 2786 0164 05       		.uleb128 .LEHE70-.LEHB70
 2787 0165 00       		.uleb128 0
 2788 0166 00       		.uleb128 0
 2789 0167 C105     		.uleb128 .LEHB71-.LCOLDB13
 2790 0169 2F       		.uleb128 .LEHE71-.LEHB71
 2791 016a A206     		.uleb128 .L177-.LCOLDB13
 2792 016c 00       		.uleb128 0
 2793 016d F005     		.uleb128 .LEHB72-.LCOLDB13
 2794 016f 05       		.uleb128 .LEHE72-.LEHB72
 2795 0170 00       		.uleb128 0
 2796 0171 00       		.uleb128 0
 2797 0172 8906     		.uleb128 .LEHB73-.LCOLDB13
 2798 0174 05       		.uleb128 .LEHE73-.LEHB73
 2799 0175 00       		.uleb128 0
 2800 0176 00       		.uleb128 0
 2801 0177 9D06     		.uleb128 .LEHB74-.LCOLDB13
 2802 0179 05       		.uleb128 .LEHE74-.LEHB74
 2803 017a 00       		.uleb128 0
 2804 017b 00       		.uleb128 0
 2805 017c B106     		.uleb128 .LEHB75-.LCOLDB13
 2806 017e 05       		.uleb128 .LEHE75-.LEHB75
 2807 017f 00       		.uleb128 0
 2808 0180 00       		.uleb128 0
 2809 0181 BB06     		.uleb128 .LEHB76-.LCOLDB13
 2810 0183 2F       		.uleb128 .LEHE76-.LEHB76
 2811 0184 B207     		.uleb128 .L175-.LCOLDB13
 2812 0186 00       		.uleb128 0
 2813 0187 EA06     		.uleb128 .LEHB77-.LCOLDB13
 2814 0189 05       		.uleb128 .LEHE77-.LEHB77
 2815 018a 00       		.uleb128 0
 2816 018b 00       		.uleb128 0
 2817 018c F906     		.uleb128 .LEHB78-.LCOLDB13
 2818 018e 2F       		.uleb128 .LEHE78-.LEHB78
 2819 018f C607     		.uleb128 .L173-.LCOLDB13
 2820 0191 00       		.uleb128 0
 2821 0192 A807     		.uleb128 .LEHB79-.LCOLDB13
 2822 0194 05       		.uleb128 .LEHE79-.LEHB79
 2823 0195 00       		.uleb128 0
 2824 0196 00       		.uleb128 0
 2825 0197 C107     		.uleb128 .LEHB80-.LCOLDB13
 2826 0199 05       		.uleb128 .LEHE80-.LEHB80
 2827 019a 00       		.uleb128 0
 2828 019b 00       		.uleb128 0
 2829 019c D507     		.uleb128 .LEHB81-.LCOLDB13
 2830 019e 05       		.uleb128 .LEHE81-.LEHB81
 2831 019f 00       		.uleb128 0
 2832 01a0 00       		.uleb128 0
 2833 01a1 DF07     		.uleb128 .LEHB82-.LCOLDB13
 2834 01a3 2F       		.uleb128 .LEHE82-.LEHB82
 2835 01a4 DE08     		.uleb128 .L171-.LCOLDB13
 2836 01a6 00       		.uleb128 0
 2837 01a7 8E08     		.uleb128 .LEHB83-.LCOLDB13
 2838 01a9 05       		.uleb128 .LEHE83-.LEHB83
 2839 01aa 00       		.uleb128 0
 2840 01ab 00       		.uleb128 0
 2841 01ac 9D08     		.uleb128 .LEHB84-.LCOLDB13
 2842 01ae 37       		.uleb128 .LEHE84-.LEHB84
 2843 01af F208     		.uleb128 .L169-.LCOLDB13
 2844 01b1 00       		.uleb128 0
 2845 01b2 D408     		.uleb128 .LEHB85-.LCOLDB13
 2846 01b4 05       		.uleb128 .LEHE85-.LEHB85
 2847 01b5 00       		.uleb128 0
 2848 01b6 00       		.uleb128 0
 2849 01b7 ED08     		.uleb128 .LEHB86-.LCOLDB13
 2850 01b9 05       		.uleb128 .LEHE86-.LEHB86
 2851 01ba 00       		.uleb128 0
 2852 01bb 00       		.uleb128 0
 2853 01bc 8109     		.uleb128 .LEHB87-.LCOLDB13
 2854 01be 05       		.uleb128 .LEHE87-.LEHB87
 2855 01bf 00       		.uleb128 0
 2856 01c0 00       		.uleb128 0
 2857              	.LLSDACSEC1219:
 2858 01c1 01       		.byte	0x1
 2859 01c2 00       		.byte	0
 2860 01c3 00       		.byte	0
 2861 01c4 7D       		.byte	0x7d
 2862 01c5 000000   		.align 4
 2863 01c8 00000000 		.long	0
 2864              	
 2865              	.LLSDATTC1219:
 2866              		.section	.text.unlikely
 2867              		.text
 2869              		.section	.text.unlikely
 2871              	.LCOLDE13:
 2872              		.text
 2873              	.LHOTE13:
 2874              		.section	.rodata.str1.8
 2875 00c1 00000000 		.align 8
 2875      000000
 2876              	.LC14:
 2877 00c8 556E6861 		.string	"Unhandled exception in CHECK_EQUAL(I2C_NOT_INITIALISED, iStatus)"
 2877      6E646C65 
 2877      64206578 
 2877      63657074 
 2877      696F6E20 
 2878              		.section	.text.unlikely
 2879              		.align 2
 2880              	.LCOLDB15:
 2881              		.text
 2882              	.LHOTB15:
 2883 169d 90       		.align 2
 2884 169e 6690     		.p2align 4
 2885              		.globl	_ZNK26TestI2C_testFinaliseNoInit7RunImplEv
 2887              	_ZNK26TestI2C_testFinaliseNoInit7RunImplEv:
 2888              	.LFB1227:
 2889              		.cfi_startproc
 2890              		.cfi_personality 0x9b,DW.ref.__gxx_personality_v0
 2891              		.cfi_lsda 0x1b,.LLSDA1227
 2892 16a0 F30F1EFA 		endbr64
 2893 16a4 4157     		pushq	%r15
 2894              		.cfi_def_cfa_offset 16
 2895              		.cfi_offset 15, -16
 2896 16a6 31C9     		xorl	%ecx, %ecx
 2897 16a8 31D2     		xorl	%edx, %edx
 2898 16aa BE080000 		movl	$8, %esi
 2898      00
 2899 16af 4156     		pushq	%r14
 2900              		.cfi_def_cfa_offset 24
 2901              		.cfi_offset 14, -24
 2902 16b1 4155     		pushq	%r13
 2903              		.cfi_def_cfa_offset 32
 2904              		.cfi_offset 13, -32
 2905 16b3 4154     		pushq	%r12
 2906              		.cfi_def_cfa_offset 40
 2907              		.cfi_offset 12, -40
 2908 16b5 55       		pushq	%rbp
 2909              		.cfi_def_cfa_offset 48
 2910              		.cfi_offset 6, -48
 2911 16b6 53       		pushq	%rbx
 2912              		.cfi_def_cfa_offset 56
 2913              		.cfi_offset 3, -56
 2914 16b7 4881EC28 		subq	$552, %rsp
 2914      020000
 2915              		.cfi_def_cfa_offset 608
 2916 16be 64488B04 		movq	%fs:40, %rax
 2916      25280000 
 2916      00
 2917 16c7 48898424 		movq	%rax, 536(%rsp)
 2917      18020000 
 2918 16cf 31C0     		xorl	%eax, %eax
 2919 16d1 4C8D6C24 		leaq	64(%rsp), %r13
 2919      40
 2920 16d6 4C89EF   		movq	%r13, %rdi
 2921              	.LEHB88:
 2922 16d9 E8000000 		call	bufInitialise@PLT
 2922      00
 2923              	.LEHE88:
 2924 16de 89442438 		movl	%eax, 56(%rsp)
 2925              	.LEHB89:
 2926 16e2 E8000000 		call	_ZN8UnitTest11CurrentTest7DetailsEv@PLT
 2926      00
 2927 16e7 488D6C24 		leaq	96(%rsp), %rbp
 2927      60
 2928 16ec 488B30   		movq	(%rax), %rsi
 2929 16ef BA6F0000 		movl	$111, %edx
 2929      00
 2930 16f4 4889EF   		movq	%rbp, %rdi
 2931 16f7 E8000000 		call	_ZN8UnitTest11TestDetailsC1ERKS0_i@PLT
 2931      00
 2932 16fc C744243C 		movl	$0, 60(%rsp)
 2932      00000000 
 2933 1704 E8000000 		call	_ZN8UnitTest11CurrentTest7ResultsEv@PLT
 2933      00
 2934 1709 488B38   		movq	(%rax), %rdi
 2935 170c 488D5424 		leaq	56(%rsp), %rdx
 2935      38
 2936 1711 488D7424 		leaq	60(%rsp), %rsi
 2936      3C
 2937 1716 4889E9   		movq	%rbp, %rcx
 2938 1719 E8E2E8FF 		call	_ZN8UnitTest10CheckEqualI12BufferStatusS1_EEvRNS_11TestResultsERKT_RKT0_RKNS_11TestDetailsE.c
 2938      FF
 2939              	.LEHE89:
 2940              	.L241:
 2941 171e 31F6     		xorl	%esi, %esi
 2942 1720 4C89EF   		movq	%r13, %rdi
 2943              	.LEHB90:
 2944 1723 E8000000 		call	i2cFinalise@PLT
 2944      00
 2945              	.LEHE90:
 2946 1728 4189C4   		movl	%eax, %r12d
 2947              	.LEHB91:
 2948 172b E8000000 		call	_ZN8UnitTest11CurrentTest7DetailsEv@PLT
 2948      00
 2949 1730 488B30   		movq	(%rax), %rsi
 2950 1733 BA710000 		movl	$113, %edx
 2950      00
 2951 1738 4889EF   		movq	%rbp, %rdi
 2952 173b E8000000 		call	_ZN8UnitTest11TestDetailsC1ERKS0_i@PLT
 2952      00
 2953 1740 E8000000 		call	_ZN8UnitTest11CurrentTest7ResultsEv@PLT
 2953      00
 2954              	.LEHE91:
 2955 1745 F30F7E0D 		movq	.LC2(%rip), %xmm1
 2955      00000000 
 2956 174d 488B00   		movq	(%rax), %rax
 2957 1750 0F160D00 		movhps	.LC3(%rip), %xmm1
 2957      000000
 2958 1757 48890424 		movq	%rax, (%rsp)
 2959 175b 0F294C24 		movaps	%xmm1, 16(%rsp)
 2959      10
 2960 1760 4183FC02 		cmpl	$2, %r12d
 2961 1764 753A     		jne	.L259
 2962              	.L238:
 2963 1766 4C89EF   		movq	%r13, %rdi
 2964              	.LEHB92:
 2965 1769 E8000000 		call	bufDestroy@PLT
 2965      00
 2966              	.LEHE92:
 2967 176e 488B8424 		movq	536(%rsp), %rax
 2967      18020000 
 2968 1776 64482B04 		subq	%fs:40, %rax
 2968      25280000 
 2968      00
 2969 177f 0F858602 		jne	.L260
 2969      0000
 2970 1785 4881C428 		addq	$552, %rsp
 2970      020000
 2971              		.cfi_remember_state
 2972              		.cfi_def_cfa_offset 56
 2973 178c 5B       		popq	%rbx
 2974              		.cfi_def_cfa_offset 48
 2975 178d 5D       		popq	%rbp
 2976              		.cfi_def_cfa_offset 40
 2977 178e 415C     		popq	%r12
 2978              		.cfi_def_cfa_offset 32
 2979 1790 415D     		popq	%r13
 2980              		.cfi_def_cfa_offset 24
 2981 1792 415E     		popq	%r14
 2982              		.cfi_def_cfa_offset 16
 2983 1794 415F     		popq	%r15
 2984              		.cfi_def_cfa_offset 8
 2985 1796 C3       		ret
 2986 1797 660F1F84 		.p2align 4,,10
 2986      00000000 
 2986      00
 2987              		.p2align 3
 2988              	.L259:
 2989              		.cfi_restore_state
 2990 17a0 488D9C24 		leaq	272(%rsp), %rbx
 2990      10010000 
 2991 17a8 4889DF   		movq	%rbx, %rdi
 2992 17ab E8000000 		call	_ZNSt8ios_baseC2Ev@PLT
 2992      00
 2993 17b0 31C0     		xorl	%eax, %eax
 2994 17b2 660FEFC0 		pxor	%xmm0, %xmm0
 2995 17b6 31F6     		xorl	%esi, %esi
 2996 17b8 66898424 		movw	%ax, 496(%rsp)
 2996      F0010000 
 2997 17c0 488D0500 		leaq	24+_ZTCN8UnitTest15MemoryOutStreamE0_So(%rip), %rax
 2997      000000
 2998 17c7 4889DF   		movq	%rbx, %rdi
 2999 17ca 48898424 		movq	%rax, 128(%rsp)
 2999      80000000 
 3000 17d2 4883C028 		addq	$40, %rax
 3001 17d6 48C78424 		movq	$0, 488(%rsp)
 3001      E8010000 
 3001      00000000 
 3002 17e2 48898424 		movq	%rax, 272(%rsp)
 3002      10010000 
 3003 17ea 0F118424 		movups	%xmm0, 504(%rsp)
 3003      F8010000 
 3004 17f2 0F118424 		movups	%xmm0, 520(%rsp)
 3004      08020000 
 3005              	.LEHB93:
 3006 17fa E8000000 		call	_ZNSt9basic_iosIcSt11char_traitsIcEE4initEPSt15basic_streambufIcS1_E@PLT
 3006      00
 3007              	.LEHE93:
 3008 17ff 488D0500 		leaq	64+_ZTCN8UnitTest15MemoryOutStreamE0_NSt7__cxx1119basic_ostringstreamIcSt11char_traitsIcESaIc
 3008      000000
 3009 1806 660F6F4C 		movdqa	16(%rsp), %xmm1
 3009      2410
 3010 180c 660FEFC0 		pxor	%xmm0, %xmm0
 3011 1810 4C8DB424 		leaq	128(%rsp), %r14
 3011      80000000 
 3012 1818 48898424 		movq	%rax, 272(%rsp)
 3012      10010000 
 3013 1820 488D8424 		leaq	192(%rsp), %rax
 3013      C0000000 
 3014 1828 4C8DBC24 		leaq	136(%rsp), %r15
 3014      88000000 
 3015 1830 4889C7   		movq	%rax, %rdi
 3016 1833 48894424 		movq	%rax, 32(%rsp)
 3016      20
 3017 1838 0F298C24 		movaps	%xmm1, 128(%rsp)
 3017      80000000 
 3018 1840 0F298424 		movaps	%xmm0, 144(%rsp)
 3018      90000000 
 3019 1848 0F298424 		movaps	%xmm0, 160(%rsp)
 3019      A0000000 
 3020 1850 0F298424 		movaps	%xmm0, 176(%rsp)
 3020      B0000000 
 3021 1858 E8000000 		call	_ZNSt6localeC1Ev@PLT
 3021      00
 3022 185d 488D0500 		leaq	16+_ZTVNSt7__cxx1115basic_stringbufIcSt11char_traitsIcESaIcEEE(%rip), %rax
 3022      000000
 3023 1864 C68424E0 		movb	$0, 224(%rsp)
 3023      00000000 
 3024 186c 4C89FE   		movq	%r15, %rsi
 3025 186f 48898424 		movq	%rax, 136(%rsp)
 3025      88000000 
 3026 1877 488D8424 		leaq	224(%rsp), %rax
 3026      E0000000 
 3027 187f 48894424 		movq	%rax, 40(%rsp)
 3027      28
 3028 1884 48898424 		movq	%rax, 208(%rsp)
 3028      D0000000 
 3029 188c 488B8424 		movq	128(%rsp), %rax
 3029      80000000 
 3030 1894 48C78424 		movq	$0, 216(%rsp)
 3030      D8000000 
 3030      00000000 
 3031 18a0 C78424C8 		movl	$16, 200(%rsp)
 3031      00000010 
 3031      000000
 3032 18ab 488B78E8 		movq	-24(%rax), %rdi
 3033 18af 4C01F7   		addq	%r14, %rdi
 3034              	.LEHB94:
 3035 18b2 E8000000 		call	_ZNSt9basic_iosIcSt11char_traitsIcEE4initEPSt15basic_streambufIcS1_E@PLT
 3035      00
 3036              	.LEHE94:
 3037 18b7 488D0500 		leaq	24+_ZTVN8UnitTest15MemoryOutStreamE(%rip), %rax
 3037      000000
 3038 18be BA090000 		movl	$9, %edx
 3038      00
 3039 18c3 4C89F7   		movq	%r14, %rdi
 3040 18c6 48C78424 		movq	$0, 248(%rsp)
 3040      F8000000 
 3040      00000000 
 3041 18d2 48898424 		movq	%rax, 128(%rsp)
 3041      80000000 
 3042 18da 4883C028 		addq	$40, %rax
 3043 18de 488D3500 		leaq	.LC0(%rip), %rsi
 3043      000000
 3044 18e5 48898424 		movq	%rax, 272(%rsp)
 3044      10010000 
 3045 18ed 488D8424 		leaq	256(%rsp), %rax
 3045      00010000 
 3046 18f5 48894424 		movq	%rax, 16(%rsp)
 3046      10
 3047 18fa 48898424 		movq	%rax, 240(%rsp)
 3047      F0000000 
 3048 1902 C6842400 		movb	$0, 256(%rsp)
 3048      01000000 
 3049              	.LEHB95:
 3050 190a E8000000 		call	_ZSt16__ostream_insertIcSt11char_traitsIcEERSt13basic_ostreamIT_T0_ES6_PKS3_l@PLT
 3050      00
 3051 190f BE020000 		movl	$2, %esi
 3051      00
 3052 1914 4C89F7   		movq	%r14, %rdi
 3053 1917 E8000000 		call	_ZNSolsEi@PLT
 3053      00
 3054 191c BA090000 		movl	$9, %edx
 3054      00
 3055 1921 488D3500 		leaq	.LC1(%rip), %rsi
 3055      000000
 3056 1928 4889C7   		movq	%rax, %rdi
 3057 192b 4989C7   		movq	%rax, %r15
 3058 192e E8000000 		call	_ZSt16__ostream_insertIcSt11char_traitsIcEERSt13basic_ostreamIT_T0_ES6_PKS3_l@PLT
 3058      00
 3059 1933 4489E6   		movl	%r12d, %esi
 3060 1936 4C89FF   		movq	%r15, %rdi
 3061 1939 E8000000 		call	_ZNSolsEi@PLT
 3061      00
 3062 193e 4C89F7   		movq	%r14, %rdi
 3063 1941 E8000000 		call	_ZNK8UnitTest15MemoryOutStream7GetTextEv@PLT
 3063      00
 3064 1946 488B3C24 		movq	(%rsp), %rdi
 3065 194a 4889C2   		movq	%rax, %rdx
 3066 194d 4889EE   		movq	%rbp, %rsi
 3067 1950 E8000000 		call	_ZN8UnitTest11TestResults13OnTestFailureERKNS_11TestDetailsEPKc@PLT
 3067      00
 3068              	.LEHE95:
 3069 1955 488D0500 		leaq	24+_ZTVN8UnitTest15MemoryOutStreamE(%rip), %rax
 3069      000000
 3070 195c 488BBC24 		movq	240(%rsp), %rdi
 3070      F0000000 
 3071 1964 F30F7E05 		movq	.LC2(%rip), %xmm0
 3071      00000000 
 3072 196c 48898424 		movq	%rax, 128(%rsp)
 3072      80000000 
 3073 1974 4883C028 		addq	$40, %rax
 3074 1978 48898424 		movq	%rax, 272(%rsp)
 3074      10010000 
 3075 1980 0F160500 		movhps	.LC4(%rip), %xmm0
 3075      000000
 3076 1987 483B7C24 		cmpq	16(%rsp), %rdi
 3076      10
 3077 198c 740E     		je	.L236
 3078 198e 0F290424 		movaps	%xmm0, (%rsp)
 3079 1992 E8000000 		call	_ZdlPv@PLT
 3079      00
 3080 1997 660F6F04 		movdqa	(%rsp), %xmm0
 3080      24
 3081              	.L236:
 3082 199c 488D0500 		leaq	64+_ZTCN8UnitTest15MemoryOutStreamE0_NSt7__cxx1119basic_ostringstreamIcSt11char_traitsIcESaIc
 3082      000000
 3083 19a3 488BBC24 		movq	208(%rsp), %rdi
 3083      D0000000 
 3084 19ab 0F298424 		movaps	%xmm0, 128(%rsp)
 3084      80000000 
 3085 19b3 48898424 		movq	%rax, 272(%rsp)
 3085      10010000 
 3086 19bb 483B7C24 		cmpq	40(%rsp), %rdi
 3086      28
 3087 19c0 7405     		je	.L237
 3088 19c2 E8000000 		call	_ZdlPv@PLT
 3088      00
 3089              	.L237:
 3090 19c7 488B7C24 		movq	32(%rsp), %rdi
 3090      20
 3091 19cc 488D0500 		leaq	16+_ZTVSt15basic_streambufIcSt11char_traitsIcEE(%rip), %rax
 3091      000000
 3092 19d3 48898424 		movq	%rax, 136(%rsp)
 3092      88000000 
 3093 19db E8000000 		call	_ZNSt6localeD1Ev@PLT
 3093      00
 3094 19e0 488D0500 		leaq	24+_ZTCN8UnitTest15MemoryOutStreamE0_So(%rip), %rax
 3094      000000
 3095 19e7 4889DF   		movq	%rbx, %rdi
 3096 19ea 48898424 		movq	%rax, 128(%rsp)
 3096      80000000 
 3097 19f2 488D0500 		leaq	16+_ZTVSt9basic_iosIcSt11char_traitsIcEE(%rip), %rax
 3097      000000
 3098 19f9 48898424 		movq	%rax, 272(%rsp)
 3098      10010000 
 3099              	.LEHB96:
 3100 1a01 E8000000 		call	_ZNSt8ios_baseD2Ev@PLT
 3100      00
 3101              	.LEHE96:
 3102 1a06 E95BFDFF 		jmp	.L238
 3102      FF
 3103              	.L260:
 3104 1a0b E8000000 		call	__stack_chk_fail@PLT
 3104      00
 3105              	.L247:
 3106 1a10 F30F1EFA 		endbr64
 3107 1a14 4889C7   		movq	%rax, %rdi
 3108 1a17 E9000000 		jmp	.L235
 3108      00
 3109              	.L245:
 3110 1a1c F30F1EFA 		endbr64
 3111 1a20 4889C7   		movq	%rax, %rdi
 3112 1a23 E9000000 		jmp	.L240
 3112      00
 3113              	.L251:
 3114 1a28 F30F1EFA 		endbr64
 3115 1a2c 4989C4   		movq	%rax, %r12
 3116 1a2f E9000000 		jmp	.L232
 3116      00
 3117              	.L250:
 3118 1a34 F30F1EFA 		endbr64
 3119 1a38 4989C4   		movq	%rax, %r12
 3120 1a3b E9000000 		jmp	.L233
 3120      00
 3121              	.L249:
 3122 1a40 F30F1EFA 		endbr64
 3123 1a44 4889C3   		movq	%rax, %rbx
 3124 1a47 E9000000 		jmp	.L239
 3124      00
 3125              		.section	.gcc_except_table
 3126              		.align 4
 3127              	.LLSDA1227:
 3128 01cc FF       		.byte	0xff
 3129 01cd 9B       		.byte	0x9b
 3130 01ce 3D       		.uleb128 .LLSDATT1227-.LLSDATTD1227
 3131              	.LLSDATTD1227:
 3132 01cf 01       		.byte	0x1
 3133 01d0 31       		.uleb128 .LLSDACSE1227-.LLSDACSB1227
 3134              	.LLSDACSB1227:
 3135 01d1 39       		.uleb128 .LEHB88-.LFB1227
 3136 01d2 05       		.uleb128 .LEHE88-.LEHB88
 3137 01d3 00       		.uleb128 0
 3138 01d4 00       		.uleb128 0
 3139 01d5 42       		.uleb128 .LEHB89-.LFB1227
 3140 01d6 3C       		.uleb128 .LEHE89-.LEHB89
 3141 01d7 FC06     		.uleb128 .L245-.LFB1227
 3142 01d9 01       		.uleb128 0x1
 3143 01da 8301     		.uleb128 .LEHB90-.LFB1227
 3144 01dc 05       		.uleb128 .LEHE90-.LEHB90
 3145 01dd 00       		.uleb128 0
 3146 01de 00       		.uleb128 0
 3147 01df 8B01     		.uleb128 .LEHB91-.LFB1227
 3148 01e1 1A       		.uleb128 .LEHE91-.LEHB91
 3149 01e2 F006     		.uleb128 .L247-.LFB1227
 3150 01e4 01       		.uleb128 0x1
 3151 01e5 C901     		.uleb128 .LEHB92-.LFB1227
 3152 01e7 05       		.uleb128 .LEHE92-.LEHB92
 3153 01e8 00       		.uleb128 0
 3154 01e9 00       		.uleb128 0
 3155 01ea DA02     		.uleb128 .LEHB93-.LFB1227
 3156 01ec 05       		.uleb128 .LEHE93-.LEHB93
 3157 01ed 9407     		.uleb128 .L250-.LFB1227
 3158 01ef 03       		.uleb128 0x3
 3159 01f0 9204     		.uleb128 .LEHB94-.LFB1227
 3160 01f2 05       		.uleb128 .LEHE94-.LEHB94
 3161 01f3 8807     		.uleb128 .L251-.LFB1227
 3162 01f5 03       		.uleb128 0x3
 3163 01f6 EA04     		.uleb128 .LEHB95-.LFB1227
 3164 01f8 4B       		.uleb128 .LEHE95-.LEHB95
 3165 01f9 A007     		.uleb128 .L249-.LFB1227
 3166 01fb 03       		.uleb128 0x3
 3167 01fc E106     		.uleb128 .LEHB96-.LFB1227
 3168 01fe 05       		.uleb128 .LEHE96-.LEHB96
 3169 01ff F006     		.uleb128 .L247-.LFB1227
 3170 0201 01       		.uleb128 0x1
 3171              	.LLSDACSE1227:
 3172 0202 01       		.byte	0x1
 3173 0203 00       		.byte	0
 3174 0204 00       		.byte	0
 3175 0205 7D       		.byte	0x7d
 3176 0206 0000     		.align 4
 3177 0208 00000000 		.long	0
 3178              	
 3179              	.LLSDATT1227:
 3180              		.text
 3181              		.cfi_endproc
 3182              		.section	.text.unlikely
 3183              		.cfi_startproc
 3184              		.cfi_personality 0x9b,DW.ref.__gxx_personality_v0
 3185              		.cfi_lsda 0x1b,.LLSDAC1227
 3187              	_ZNK26TestI2C_testFinaliseNoInit7RunImplEv.cold:
 3188              	.LFSB1227:
 3189              	.L232:
 3190              		.cfi_def_cfa_offset 608
 3191              		.cfi_offset 3, -56
 3192              		.cfi_offset 6, -48
 3193              		.cfi_offset 12, -40
 3194              		.cfi_offset 13, -32
 3195              		.cfi_offset 14, -24
 3196              		.cfi_offset 15, -16
 3197 04ca 4C89FF   		movq	%r15, %rdi
 3198 04cd E8000000 		call	_ZNSt7__cxx1115basic_stringbufIcSt11char_traitsIcESaIcEED1Ev
 3198      00
 3199 04d2 488D0500 		leaq	24+_ZTCN8UnitTest15MemoryOutStreamE0_So(%rip), %rax
 3199      000000
 3200 04d9 48898424 		movq	%rax, 128(%rsp)
 3200      80000000 
 3201              	.L233:
 3202 04e1 488D0500 		leaq	16+_ZTVSt9basic_iosIcSt11char_traitsIcEE(%rip), %rax
 3202      000000
 3203 04e8 4889DF   		movq	%rbx, %rdi
 3204 04eb 48898424 		movq	%rax, 272(%rsp)
 3204      10010000 
 3205 04f3 E8000000 		call	_ZNSt8ios_baseD2Ev@PLT
 3205      00
 3206 04f8 4C89E7   		movq	%r12, %rdi
 3207              	.L235:
 3208 04fb E8000000 		call	__cxa_begin_catch@PLT
 3208      00
 3209              	.LEHB97:
 3210 0500 E8000000 		call	_ZN8UnitTest11CurrentTest7ResultsEv@PLT
 3210      00
 3211 0505 4C8B20   		movq	(%rax), %r12
 3212 0508 E8000000 		call	_ZN8UnitTest11CurrentTest7DetailsEv@PLT
 3212      00
 3213 050d 488B30   		movq	(%rax), %rsi
 3214 0510 BA710000 		movl	$113, %edx
 3214      00
 3215 0515 4889EF   		movq	%rbp, %rdi
 3216 0518 E8000000 		call	_ZN8UnitTest11TestDetailsC1ERKS0_i@PLT
 3216      00
 3217 051d 488D1500 		leaq	.LC14(%rip), %rdx
 3217      000000
 3218 0524 4889EE   		movq	%rbp, %rsi
 3219 0527 4C89E7   		movq	%r12, %rdi
 3220 052a E8000000 		call	_ZN8UnitTest11TestResults13OnTestFailureERKNS_11TestDetailsEPKc@PLT
 3220      00
 3221              	.LEHE97:
 3222              	.LEHB98:
 3223 052f E8000000 		call	__cxa_end_catch@PLT
 3223      00
 3224              	.LEHE98:
 3225 0534 E9000000 		jmp	.L238
 3225      00
 3226              	.L240:
 3227 0539 E8000000 		call	__cxa_begin_catch@PLT
 3227      00
 3228              	.LEHB99:
 3229 053e E8000000 		call	_ZN8UnitTest11CurrentTest7ResultsEv@PLT
 3229      00
 3230 0543 4C8B20   		movq	(%rax), %r12
 3231 0546 E8000000 		call	_ZN8UnitTest11CurrentTest7DetailsEv@PLT
 3231      00
 3232 054b 488D6C24 		leaq	96(%rsp), %rbp
 3232      60
 3233 0550 488B30   		movq	(%rax), %rsi
 3234 0553 BA6F0000 		movl	$111, %edx
 3234      00
 3235 0558 4889EF   		movq	%rbp, %rdi
 3236 055b E8000000 		call	_ZN8UnitTest11TestDetailsC1ERKS0_i@PLT
 3236      00
 3237 0560 488D1500 		leaq	.LC10(%rip), %rdx
 3237      000000
 3238 0567 4889EE   		movq	%rbp, %rsi
 3239 056a 4C89E7   		movq	%r12, %rdi
 3240 056d E8000000 		call	_ZN8UnitTest11TestResults13OnTestFailureERKNS_11TestDetailsEPKc@PLT
 3240      00
 3241              	.LEHE99:
 3242              	.LEHB100:
 3243 0572 E8000000 		call	__cxa_end_catch@PLT
 3243      00
 3244              	.LEHE100:
 3245 0577 E9000000 		jmp	.L241
 3245      00
 3246              	.L248:
 3247 057c F30F1EFA 		endbr64
 3248 0580 4889C5   		movq	%rax, %rbp
 3249 0583 E8000000 		call	__cxa_end_catch@PLT
 3249      00
 3250 0588 4889EF   		movq	%rbp, %rdi
 3251              	.LEHB101:
 3252 058b E8000000 		call	_Unwind_Resume@PLT
 3252      00
 3253              	.LEHE101:
 3254              	.L239:
 3255 0590 4C89F7   		movq	%r14, %rdi
 3256 0593 E8000000 		call	_ZN8UnitTest15MemoryOutStreamD1Ev
 3256      00
 3257 0598 4889DF   		movq	%rbx, %rdi
 3258 059b E95BFFFF 		jmp	.L235
 3258      FF
 3259              	.L246:
 3260 05a0 F30F1EFA 		endbr64
 3261 05a4 4889C5   		movq	%rax, %rbp
 3262 05a7 E8000000 		call	__cxa_end_catch@PLT
 3262      00
 3263 05ac 4889EF   		movq	%rbp, %rdi
 3264              	.LEHB102:
 3265 05af E8000000 		call	_Unwind_Resume@PLT
 3265      00
 3266              	.LEHE102:
 3267              		.cfi_endproc
 3268              	.LFE1227:
 3269              		.section	.gcc_except_table
 3270              		.align 4
 3271              	.LLSDAC1227:
 3272 020c FF       		.byte	0xff
 3273 020d 9B       		.byte	0x9b
 3274 020e 29       		.uleb128 .LLSDATTC1227-.LLSDATTDC1227
 3275              	.LLSDATTDC1227:
 3276 020f 01       		.byte	0x1
 3277 0210 1D       		.uleb128 .LLSDACSEC1227-.LLSDACSBC1227
 3278              	.LLSDACSBC1227:
 3279 0211 36       		.uleb128 .LEHB97-.LCOLDB15
 3280 0212 2F       		.uleb128 .LEHE97-.LEHB97
 3281 0213 B201     		.uleb128 .L248-.LCOLDB15
 3282 0215 00       		.uleb128 0
 3283 0216 65       		.uleb128 .LEHB98-.LCOLDB15
 3284 0217 05       		.uleb128 .LEHE98-.LEHB98
 3285 0218 00       		.uleb128 0
 3286 0219 00       		.uleb128 0
 3287 021a 74       		.uleb128 .LEHB99-.LCOLDB15
 3288 021b 34       		.uleb128 .LEHE99-.LEHB99
 3289 021c D601     		.uleb128 .L246-.LCOLDB15
 3290 021e 00       		.uleb128 0
 3291 021f A801     		.uleb128 .LEHB100-.LCOLDB15
 3292 0221 05       		.uleb128 .LEHE100-.LEHB100
 3293 0222 00       		.uleb128 0
 3294 0223 00       		.uleb128 0
 3295 0224 C101     		.uleb128 .LEHB101-.LCOLDB15
 3296 0226 05       		.uleb128 .LEHE101-.LEHB101
 3297 0227 00       		.uleb128 0
 3298 0228 00       		.uleb128 0
 3299 0229 E501     		.uleb128 .LEHB102-.LCOLDB15
 3300 022b 05       		.uleb128 .LEHE102-.LEHB102
 3301 022c 00       		.uleb128 0
 3302 022d 00       		.uleb128 0
 3303              	.LLSDACSEC1227:
 3304 022e 01       		.byte	0x1
 3305 022f 00       		.byte	0
 3306 0230 00       		.byte	0
 3307 0231 7D       		.byte	0x7d
 3308 0232 0000     		.align 4
 3309 0234 00000000 		.long	0
 3310              	
 3311              	.LLSDATTC1227:
 3312              		.section	.text.unlikely
 3313              		.text
 3315              		.section	.text.unlikely
 3317              	.LCOLDE15:
 3318              		.text
 3319              	.LHOTE15:
 3320              		.section	.text.unlikely
 3321              		.align 2
 3322              	.LCOLDB16:
 3323              		.text
 3324              	.LHOTB16:
 3325              		.align 2
 3326 1a4c 0F1F4000 		.p2align 4
 3327              		.globl	_ZNK21TestI2C_testWPRNoInit7RunImplEv
 3329              	_ZNK21TestI2C_testWPRNoInit7RunImplEv:
 3330              	.LFB1223:
 3331              		.cfi_startproc
 3332              		.cfi_personality 0x9b,DW.ref.__gxx_personality_v0
 3333              		.cfi_lsda 0x1b,.LLSDA1223
 3334 1a50 F30F1EFA 		endbr64
 3335 1a54 4157     		pushq	%r15
 3336              		.cfi_def_cfa_offset 16
 3337              		.cfi_offset 15, -16
 3338 1a56 31C9     		xorl	%ecx, %ecx
 3339 1a58 31D2     		xorl	%edx, %edx
 3340 1a5a BE080000 		movl	$8, %esi
 3340      00
 3341 1a5f 4156     		pushq	%r14
 3342              		.cfi_def_cfa_offset 24
 3343              		.cfi_offset 14, -24
 3344 1a61 4155     		pushq	%r13
 3345              		.cfi_def_cfa_offset 32
 3346              		.cfi_offset 13, -32
 3347 1a63 4154     		pushq	%r12
 3348              		.cfi_def_cfa_offset 40
 3349              		.cfi_offset 12, -40
 3350 1a65 55       		pushq	%rbp
 3351              		.cfi_def_cfa_offset 48
 3352              		.cfi_offset 6, -48
 3353 1a66 53       		pushq	%rbx
 3354              		.cfi_def_cfa_offset 56
 3355              		.cfi_offset 3, -56
 3356 1a67 4881EC28 		subq	$552, %rsp
 3356      020000
 3357              		.cfi_def_cfa_offset 608
 3358 1a6e 64488B04 		movq	%fs:40, %rax
 3358      25280000 
 3358      00
 3359 1a77 48898424 		movq	%rax, 536(%rsp)
 3359      18020000 
 3360 1a7f 31C0     		xorl	%eax, %eax
 3361 1a81 4C8D6C24 		leaq	64(%rsp), %r13
 3361      40
 3362 1a86 4C89EF   		movq	%r13, %rdi
 3363              	.LEHB103:
 3364 1a89 E8000000 		call	bufInitialise@PLT
 3364      00
 3365              	.LEHE103:
 3366 1a8e 89442438 		movl	%eax, 56(%rsp)
 3367              	.LEHB104:
 3368 1a92 E8000000 		call	_ZN8UnitTest11CurrentTest7DetailsEv@PLT
 3368      00
 3369 1a97 488D6C24 		leaq	96(%rsp), %rbp
 3369      60
 3370 1a9c 488B30   		movq	(%rax), %rsi
 3371 1a9f BA640000 		movl	$100, %edx
 3371      00
 3372 1aa4 4889EF   		movq	%rbp, %rdi
 3373 1aa7 E8000000 		call	_ZN8UnitTest11TestDetailsC1ERKS0_i@PLT
 3373      00
 3374 1aac C744243C 		movl	$0, 60(%rsp)
 3374      00000000 
 3375 1ab4 E8000000 		call	_ZN8UnitTest11CurrentTest7ResultsEv@PLT
 3375      00
 3376 1ab9 488B38   		movq	(%rax), %rdi
 3377 1abc 488D5424 		leaq	56(%rsp), %rdx
 3377      38
 3378 1ac1 488D7424 		leaq	60(%rsp), %rsi
 3378      3C
 3379 1ac6 4889E9   		movq	%rbp, %rcx
 3380 1ac9 E832E5FF 		call	_ZN8UnitTest10CheckEqualI12BufferStatusS1_EEvRNS_11TestResultsERKT_RKT0_RKNS_11TestDetailsE.c
 3380      FF
 3381              	.LEHE104:
 3382              	.L273:
 3383 1ace 31C9     		xorl	%ecx, %ecx
 3384 1ad0 31D2     		xorl	%edx, %edx
 3385 1ad2 31F6     		xorl	%esi, %esi
 3386 1ad4 4C89EF   		movq	%r13, %rdi
 3387              	.LEHB105:
 3388 1ad7 E8000000 		call	i2cWritePromRecords@PLT
 3388      00
 3389              	.LEHE105:
 3390 1adc 4189C4   		movl	%eax, %r12d
 3391              	.LEHB106:
 3392 1adf E8000000 		call	_ZN8UnitTest11CurrentTest7DetailsEv@PLT
 3392      00
 3393 1ae4 488B30   		movq	(%rax), %rsi
 3394 1ae7 BA660000 		movl	$102, %edx
 3394      00
 3395 1aec 4889EF   		movq	%rbp, %rdi
 3396 1aef E8000000 		call	_ZN8UnitTest11TestDetailsC1ERKS0_i@PLT
 3396      00
 3397 1af4 E8000000 		call	_ZN8UnitTest11CurrentTest7ResultsEv@PLT
 3397      00
 3398              	.LEHE106:
 3399 1af9 F30F7E0D 		movq	.LC2(%rip), %xmm1
 3399      00000000 
 3400 1b01 488B00   		movq	(%rax), %rax
 3401 1b04 0F160D00 		movhps	.LC3(%rip), %xmm1
 3401      000000
 3402 1b0b 48890424 		movq	%rax, (%rsp)
 3403 1b0f 0F294C24 		movaps	%xmm1, 16(%rsp)
 3403      10
 3404 1b14 4183FC02 		cmpl	$2, %r12d
 3405 1b18 7536     		jne	.L291
 3406              	.L270:
 3407 1b1a 4C89EF   		movq	%r13, %rdi
 3408              	.LEHB107:
 3409 1b1d E8000000 		call	bufDestroy@PLT
 3409      00
 3410              	.LEHE107:
 3411 1b22 488B8424 		movq	536(%rsp), %rax
 3411      18020000 
 3412 1b2a 64482B04 		subq	%fs:40, %rax
 3412      25280000 
 3412      00
 3413 1b33 0F858202 		jne	.L292
 3413      0000
 3414 1b39 4881C428 		addq	$552, %rsp
 3414      020000
 3415              		.cfi_remember_state
 3416              		.cfi_def_cfa_offset 56
 3417 1b40 5B       		popq	%rbx
 3418              		.cfi_def_cfa_offset 48
 3419 1b41 5D       		popq	%rbp
 3420              		.cfi_def_cfa_offset 40
 3421 1b42 415C     		popq	%r12
 3422              		.cfi_def_cfa_offset 32
 3423 1b44 415D     		popq	%r13
 3424              		.cfi_def_cfa_offset 24
 3425 1b46 415E     		popq	%r14
 3426              		.cfi_def_cfa_offset 16
 3427 1b48 415F     		popq	%r15
 3428              		.cfi_def_cfa_offset 8
 3429 1b4a C3       		ret
 3430 1b4b 0F1F4400 		.p2align 4,,10
 3430      00
 3431              		.p2align 3
 3432              	.L291:
 3433              		.cfi_restore_state
 3434 1b50 488D9C24 		leaq	272(%rsp), %rbx
 3434      10010000 
 3435 1b58 4889DF   		movq	%rbx, %rdi
 3436 1b5b E8000000 		call	_ZNSt8ios_baseC2Ev@PLT
 3436      00
 3437 1b60 31C0     		xorl	%eax, %eax
 3438 1b62 660FEFC0 		pxor	%xmm0, %xmm0
 3439 1b66 31F6     		xorl	%esi, %esi
 3440 1b68 66898424 		movw	%ax, 496(%rsp)
 3440      F0010000 
 3441 1b70 488D0500 		leaq	24+_ZTCN8UnitTest15MemoryOutStreamE0_So(%rip), %rax
 3441      000000
 3442 1b77 4889DF   		movq	%rbx, %rdi
 3443 1b7a 48898424 		movq	%rax, 128(%rsp)
 3443      80000000 
 3444 1b82 4883C028 		addq	$40, %rax
 3445 1b86 48C78424 		movq	$0, 488(%rsp)
 3445      E8010000 
 3445      00000000 
 3446 1b92 48898424 		movq	%rax, 272(%rsp)
 3446      10010000 
 3447 1b9a 0F118424 		movups	%xmm0, 504(%rsp)
 3447      F8010000 
 3448 1ba2 0F118424 		movups	%xmm0, 520(%rsp)
 3448      08020000 
 3449              	.LEHB108:
 3450 1baa E8000000 		call	_ZNSt9basic_iosIcSt11char_traitsIcEE4initEPSt15basic_streambufIcS1_E@PLT
 3450      00
 3451              	.LEHE108:
 3452 1baf 488D0500 		leaq	64+_ZTCN8UnitTest15MemoryOutStreamE0_NSt7__cxx1119basic_ostringstreamIcSt11char_traitsIcESaIc
 3452      000000
 3453 1bb6 660F6F4C 		movdqa	16(%rsp), %xmm1
 3453      2410
 3454 1bbc 660FEFC0 		pxor	%xmm0, %xmm0
 3455 1bc0 4C8DB424 		leaq	128(%rsp), %r14
 3455      80000000 
 3456 1bc8 48898424 		movq	%rax, 272(%rsp)
 3456      10010000 
 3457 1bd0 488D8424 		leaq	192(%rsp), %rax
 3457      C0000000 
 3458 1bd8 4C8DBC24 		leaq	136(%rsp), %r15
 3458      88000000 
 3459 1be0 4889C7   		movq	%rax, %rdi
 3460 1be3 48894424 		movq	%rax, 16(%rsp)
 3460      10
 3461 1be8 0F298C24 		movaps	%xmm1, 128(%rsp)
 3461      80000000 
 3462 1bf0 0F298424 		movaps	%xmm0, 144(%rsp)
 3462      90000000 
 3463 1bf8 0F298424 		movaps	%xmm0, 160(%rsp)
 3463      A0000000 
 3464 1c00 0F298424 		movaps	%xmm0, 176(%rsp)
 3464      B0000000 
 3465 1c08 E8000000 		call	_ZNSt6localeC1Ev@PLT
 3465      00
 3466 1c0d 488D0500 		leaq	16+_ZTVNSt7__cxx1115basic_stringbufIcSt11char_traitsIcESaIcEEE(%rip), %rax
 3466      000000
 3467 1c14 C68424E0 		movb	$0, 224(%rsp)
 3467      00000000 
 3468 1c1c 4C89FE   		movq	%r15, %rsi
 3469 1c1f 48898424 		movq	%rax, 136(%rsp)
 3469      88000000 
 3470 1c27 488D8424 		leaq	224(%rsp), %rax
 3470      E0000000 
 3471 1c2f 48894424 		movq	%rax, 32(%rsp)
 3471      20
 3472 1c34 48898424 		movq	%rax, 208(%rsp)
 3472      D0000000 
 3473 1c3c 488B8424 		movq	128(%rsp), %rax
 3473      80000000 
 3474 1c44 48C78424 		movq	$0, 216(%rsp)
 3474      D8000000 
 3474      00000000 
 3475 1c50 C78424C8 		movl	$16, 200(%rsp)
 3475      00000010 
 3475      000000
 3476 1c5b 488B78E8 		movq	-24(%rax), %rdi
 3477 1c5f 4C01F7   		addq	%r14, %rdi
 3478              	.LEHB109:
 3479 1c62 E8000000 		call	_ZNSt9basic_iosIcSt11char_traitsIcEE4initEPSt15basic_streambufIcS1_E@PLT
 3479      00
 3480              	.LEHE109:
 3481 1c67 488D0500 		leaq	24+_ZTVN8UnitTest15MemoryOutStreamE(%rip), %rax
 3481      000000
 3482 1c6e BA090000 		movl	$9, %edx
 3482      00
 3483 1c73 4C89F7   		movq	%r14, %rdi
 3484 1c76 48C78424 		movq	$0, 248(%rsp)
 3484      F8000000 
 3484      00000000 
 3485 1c82 48898424 		movq	%rax, 128(%rsp)
 3485      80000000 
 3486 1c8a 4883C028 		addq	$40, %rax
 3487 1c8e 488D3500 		leaq	.LC0(%rip), %rsi
 3487      000000
 3488 1c95 48898424 		movq	%rax, 272(%rsp)
 3488      10010000 
 3489 1c9d 488D8424 		leaq	256(%rsp), %rax
 3489      00010000 
 3490 1ca5 48894424 		movq	%rax, 40(%rsp)
 3490      28
 3491 1caa 48898424 		movq	%rax, 240(%rsp)
 3491      F0000000 
 3492 1cb2 C6842400 		movb	$0, 256(%rsp)
 3492      01000000 
 3493              	.LEHB110:
 3494 1cba E8000000 		call	_ZSt16__ostream_insertIcSt11char_traitsIcEERSt13basic_ostreamIT_T0_ES6_PKS3_l@PLT
 3494      00
 3495 1cbf BE020000 		movl	$2, %esi
 3495      00
 3496 1cc4 4C89F7   		movq	%r14, %rdi
 3497 1cc7 E8000000 		call	_ZNSolsEi@PLT
 3497      00
 3498 1ccc BA090000 		movl	$9, %edx
 3498      00
 3499 1cd1 488D3500 		leaq	.LC1(%rip), %rsi
 3499      000000
 3500 1cd8 4889C7   		movq	%rax, %rdi
 3501 1cdb 4989C7   		movq	%rax, %r15
 3502 1cde E8000000 		call	_ZSt16__ostream_insertIcSt11char_traitsIcEERSt13basic_ostreamIT_T0_ES6_PKS3_l@PLT
 3502      00
 3503 1ce3 4489E6   		movl	%r12d, %esi
 3504 1ce6 4C89FF   		movq	%r15, %rdi
 3505 1ce9 E8000000 		call	_ZNSolsEi@PLT
 3505      00
 3506 1cee 4C89F7   		movq	%r14, %rdi
 3507 1cf1 E8000000 		call	_ZNK8UnitTest15MemoryOutStream7GetTextEv@PLT
 3507      00
 3508 1cf6 488B3C24 		movq	(%rsp), %rdi
 3509 1cfa 4889C2   		movq	%rax, %rdx
 3510 1cfd 4889EE   		movq	%rbp, %rsi
 3511 1d00 E8000000 		call	_ZN8UnitTest11TestResults13OnTestFailureERKNS_11TestDetailsEPKc@PLT
 3511      00
 3512              	.LEHE110:
 3513 1d05 488D0500 		leaq	24+_ZTVN8UnitTest15MemoryOutStreamE(%rip), %rax
 3513      000000
 3514 1d0c 488BBC24 		movq	240(%rsp), %rdi
 3514      F0000000 
 3515 1d14 F30F7E05 		movq	.LC2(%rip), %xmm0
 3515      00000000 
 3516 1d1c 48898424 		movq	%rax, 128(%rsp)
 3516      80000000 
 3517 1d24 4883C028 		addq	$40, %rax
 3518 1d28 48898424 		movq	%rax, 272(%rsp)
 3518      10010000 
 3519 1d30 0F160500 		movhps	.LC4(%rip), %xmm0
 3519      000000
 3520 1d37 483B7C24 		cmpq	40(%rsp), %rdi
 3520      28
 3521 1d3c 740E     		je	.L268
 3522 1d3e 0F290424 		movaps	%xmm0, (%rsp)
 3523 1d42 E8000000 		call	_ZdlPv@PLT
 3523      00
 3524 1d47 660F6F04 		movdqa	(%rsp), %xmm0
 3524      24
 3525              	.L268:
 3526 1d4c 488D0500 		leaq	64+_ZTCN8UnitTest15MemoryOutStreamE0_NSt7__cxx1119basic_ostringstreamIcSt11char_traitsIcESaIc
 3526      000000
 3527 1d53 488BBC24 		movq	208(%rsp), %rdi
 3527      D0000000 
 3528 1d5b 0F298424 		movaps	%xmm0, 128(%rsp)
 3528      80000000 
 3529 1d63 48898424 		movq	%rax, 272(%rsp)
 3529      10010000 
 3530 1d6b 483B7C24 		cmpq	32(%rsp), %rdi
 3530      20
 3531 1d70 7405     		je	.L269
 3532 1d72 E8000000 		call	_ZdlPv@PLT
 3532      00
 3533              	.L269:
 3534 1d77 488B7C24 		movq	16(%rsp), %rdi
 3534      10
 3535 1d7c 488D0500 		leaq	16+_ZTVSt15basic_streambufIcSt11char_traitsIcEE(%rip), %rax
 3535      000000
 3536 1d83 48898424 		movq	%rax, 136(%rsp)
 3536      88000000 
 3537 1d8b E8000000 		call	_ZNSt6localeD1Ev@PLT
 3537      00
 3538 1d90 488D0500 		leaq	24+_ZTCN8UnitTest15MemoryOutStreamE0_So(%rip), %rax
 3538      000000
 3539 1d97 4889DF   		movq	%rbx, %rdi
 3540 1d9a 48898424 		movq	%rax, 128(%rsp)
 3540      80000000 
 3541 1da2 488D0500 		leaq	16+_ZTVSt9basic_iosIcSt11char_traitsIcEE(%rip), %rax
 3541      000000
 3542 1da9 48898424 		movq	%rax, 272(%rsp)
 3542      10010000 
 3543              	.LEHB111:
 3544 1db1 E8000000 		call	_ZNSt8ios_baseD2Ev@PLT
 3544      00
 3545              	.LEHE111:
 3546 1db6 E95FFDFF 		jmp	.L270
 3546      FF
 3547              	.L292:
 3548 1dbb E8000000 		call	__stack_chk_fail@PLT
 3548      00
 3549              	.L279:
 3550 1dc0 F30F1EFA 		endbr64
 3551 1dc4 4889C7   		movq	%rax, %rdi
 3552 1dc7 E9000000 		jmp	.L267
 3552      00
 3553              	.L277:
 3554 1dcc F30F1EFA 		endbr64
 3555 1dd0 4889C7   		movq	%rax, %rdi
 3556 1dd3 E9000000 		jmp	.L272
 3556      00
 3557              	.L283:
 3558 1dd8 F30F1EFA 		endbr64
 3559 1ddc 4989C4   		movq	%rax, %r12
 3560 1ddf E9000000 		jmp	.L264
 3560      00
 3561              	.L282:
 3562 1de4 F30F1EFA 		endbr64
 3563 1de8 4989C4   		movq	%rax, %r12
 3564 1deb E9000000 		jmp	.L265
 3564      00
 3565              	.L281:
 3566 1df0 F30F1EFA 		endbr64
 3567 1df4 4889C3   		movq	%rax, %rbx
 3568 1df7 E9000000 		jmp	.L271
 3568      00
 3569              		.section	.gcc_except_table
 3570              		.align 4
 3571              	.LLSDA1223:
 3572 0238 FF       		.byte	0xff
 3573 0239 9B       		.byte	0x9b
 3574 023a 3D       		.uleb128 .LLSDATT1223-.LLSDATTD1223
 3575              	.LLSDATTD1223:
 3576 023b 01       		.byte	0x1
 3577 023c 31       		.uleb128 .LLSDACSE1223-.LLSDACSB1223
 3578              	.LLSDACSB1223:
 3579 023d 39       		.uleb128 .LEHB103-.LFB1223
 3580 023e 05       		.uleb128 .LEHE103-.LEHB103
 3581 023f 00       		.uleb128 0
 3582 0240 00       		.uleb128 0
 3583 0241 42       		.uleb128 .LEHB104-.LFB1223
 3584 0242 3C       		.uleb128 .LEHE104-.LEHB104
 3585 0243 FC06     		.uleb128 .L277-.LFB1223
 3586 0245 01       		.uleb128 0x1
 3587 0246 8701     		.uleb128 .LEHB105-.LFB1223
 3588 0248 05       		.uleb128 .LEHE105-.LEHB105
 3589 0249 00       		.uleb128 0
 3590 024a 00       		.uleb128 0
 3591 024b 8F01     		.uleb128 .LEHB106-.LFB1223
 3592 024d 1A       		.uleb128 .LEHE106-.LEHB106
 3593 024e F006     		.uleb128 .L279-.LFB1223
 3594 0250 01       		.uleb128 0x1
 3595 0251 CD01     		.uleb128 .LEHB107-.LFB1223
 3596 0253 05       		.uleb128 .LEHE107-.LEHB107
 3597 0254 00       		.uleb128 0
 3598 0255 00       		.uleb128 0
 3599 0256 DA02     		.uleb128 .LEHB108-.LFB1223
 3600 0258 05       		.uleb128 .LEHE108-.LEHB108
 3601 0259 9407     		.uleb128 .L282-.LFB1223
 3602 025b 03       		.uleb128 0x3
 3603 025c 9204     		.uleb128 .LEHB109-.LFB1223
 3604 025e 05       		.uleb128 .LEHE109-.LEHB109
 3605 025f 8807     		.uleb128 .L283-.LFB1223
 3606 0261 03       		.uleb128 0x3
 3607 0262 EA04     		.uleb128 .LEHB110-.LFB1223
 3608 0264 4B       		.uleb128 .LEHE110-.LEHB110
 3609 0265 A007     		.uleb128 .L281-.LFB1223
 3610 0267 03       		.uleb128 0x3
 3611 0268 E106     		.uleb128 .LEHB111-.LFB1223
 3612 026a 05       		.uleb128 .LEHE111-.LEHB111
 3613 026b F006     		.uleb128 .L279-.LFB1223
 3614 026d 01       		.uleb128 0x1
 3615              	.LLSDACSE1223:
 3616 026e 01       		.byte	0x1
 3617 026f 00       		.byte	0
 3618 0270 00       		.byte	0
 3619 0271 7D       		.byte	0x7d
 3620 0272 0000     		.align 4
 3621 0274 00000000 		.long	0
 3622              	
 3623              	.LLSDATT1223:
 3624              		.text
 3625              		.cfi_endproc
 3626              		.section	.text.unlikely
 3627              		.cfi_startproc
 3628              		.cfi_personality 0x9b,DW.ref.__gxx_personality_v0
 3629              		.cfi_lsda 0x1b,.LLSDAC1223
 3631              	_ZNK21TestI2C_testWPRNoInit7RunImplEv.cold:
 3632              	.LFSB1223:
 3633              	.L264:
 3634              		.cfi_def_cfa_offset 608
 3635              		.cfi_offset 3, -56
 3636              		.cfi_offset 6, -48
 3637              		.cfi_offset 12, -40
 3638              		.cfi_offset 13, -32
 3639              		.cfi_offset 14, -24
 3640              		.cfi_offset 15, -16
 3641 05b4 4C89FF   		movq	%r15, %rdi
 3642 05b7 E8000000 		call	_ZNSt7__cxx1115basic_stringbufIcSt11char_traitsIcESaIcEED1Ev
 3642      00
 3643 05bc 488D0500 		leaq	24+_ZTCN8UnitTest15MemoryOutStreamE0_So(%rip), %rax
 3643      000000
 3644 05c3 48898424 		movq	%rax, 128(%rsp)
 3644      80000000 
 3645              	.L265:
 3646 05cb 488D0500 		leaq	16+_ZTVSt9basic_iosIcSt11char_traitsIcEE(%rip), %rax
 3646      000000
 3647 05d2 4889DF   		movq	%rbx, %rdi
 3648 05d5 48898424 		movq	%rax, 272(%rsp)
 3648      10010000 
 3649 05dd E8000000 		call	_ZNSt8ios_baseD2Ev@PLT
 3649      00
 3650 05e2 4C89E7   		movq	%r12, %rdi
 3651              	.L267:
 3652 05e5 E8000000 		call	__cxa_begin_catch@PLT
 3652      00
 3653              	.LEHB112:
 3654 05ea E8000000 		call	_ZN8UnitTest11CurrentTest7ResultsEv@PLT
 3654      00
 3655 05ef 4C8B20   		movq	(%rax), %r12
 3656 05f2 E8000000 		call	_ZN8UnitTest11CurrentTest7DetailsEv@PLT
 3656      00
 3657 05f7 488B30   		movq	(%rax), %rsi
 3658 05fa BA660000 		movl	$102, %edx
 3658      00
 3659 05ff 4889EF   		movq	%rbp, %rdi
 3660 0602 E8000000 		call	_ZN8UnitTest11TestDetailsC1ERKS0_i@PLT
 3660      00
 3661 0607 488D1500 		leaq	.LC14(%rip), %rdx
 3661      000000
 3662 060e 4889EE   		movq	%rbp, %rsi
 3663 0611 4C89E7   		movq	%r12, %rdi
 3664 0614 E8000000 		call	_ZN8UnitTest11TestResults13OnTestFailureERKNS_11TestDetailsEPKc@PLT
 3664      00
 3665              	.LEHE112:
 3666              	.LEHB113:
 3667 0619 E8000000 		call	__cxa_end_catch@PLT
 3667      00
 3668              	.LEHE113:
 3669 061e E9000000 		jmp	.L270
 3669      00
 3670              	.L272:
 3671 0623 E8000000 		call	__cxa_begin_catch@PLT
 3671      00
 3672              	.LEHB114:
 3673 0628 E8000000 		call	_ZN8UnitTest11CurrentTest7ResultsEv@PLT
 3673      00
 3674 062d 4C8B20   		movq	(%rax), %r12
 3675 0630 E8000000 		call	_ZN8UnitTest11CurrentTest7DetailsEv@PLT
 3675      00
 3676 0635 488D6C24 		leaq	96(%rsp), %rbp
 3676      60
 3677 063a 488B30   		movq	(%rax), %rsi
 3678 063d BA640000 		movl	$100, %edx
 3678      00
 3679 0642 4889EF   		movq	%rbp, %rdi
 3680 0645 E8000000 		call	_ZN8UnitTest11TestDetailsC1ERKS0_i@PLT
 3680      00
 3681 064a 488D1500 		leaq	.LC10(%rip), %rdx
 3681      000000
 3682 0651 4889EE   		movq	%rbp, %rsi
 3683 0654 4C89E7   		movq	%r12, %rdi
 3684 0657 E8000000 		call	_ZN8UnitTest11TestResults13OnTestFailureERKNS_11TestDetailsEPKc@PLT
 3684      00
 3685              	.LEHE114:
 3686              	.LEHB115:
 3687 065c E8000000 		call	__cxa_end_catch@PLT
 3687      00
 3688              	.LEHE115:
 3689 0661 E9000000 		jmp	.L273
 3689      00
 3690              	.L280:
 3691 0666 F30F1EFA 		endbr64
 3692 066a 4889C5   		movq	%rax, %rbp
 3693 066d E8000000 		call	__cxa_end_catch@PLT
 3693      00
 3694 0672 4889EF   		movq	%rbp, %rdi
 3695              	.LEHB116:
 3696 0675 E8000000 		call	_Unwind_Resume@PLT
 3696      00
 3697              	.LEHE116:
 3698              	.L271:
 3699 067a 4C89F7   		movq	%r14, %rdi
 3700 067d E8000000 		call	_ZN8UnitTest15MemoryOutStreamD1Ev
 3700      00
 3701 0682 4889DF   		movq	%rbx, %rdi
 3702 0685 E95BFFFF 		jmp	.L267
 3702      FF
 3703              	.L278:
 3704 068a F30F1EFA 		endbr64
 3705 068e 4889C5   		movq	%rax, %rbp
 3706 0691 E8000000 		call	__cxa_end_catch@PLT
 3706      00
 3707 0696 4889EF   		movq	%rbp, %rdi
 3708              	.LEHB117:
 3709 0699 E8000000 		call	_Unwind_Resume@PLT
 3709      00
 3710              	.LEHE117:
 3711              		.cfi_endproc
 3712              	.LFE1223:
 3713              		.section	.gcc_except_table
 3714              		.align 4
 3715              	.LLSDAC1223:
 3716 0278 FF       		.byte	0xff
 3717 0279 9B       		.byte	0x9b
 3718 027a 29       		.uleb128 .LLSDATTC1223-.LLSDATTDC1223
 3719              	.LLSDATTDC1223:
 3720 027b 01       		.byte	0x1
 3721 027c 1D       		.uleb128 .LLSDACSEC1223-.LLSDACSBC1223
 3722              	.LLSDACSBC1223:
 3723 027d 36       		.uleb128 .LEHB112-.LCOLDB16
 3724 027e 2F       		.uleb128 .LEHE112-.LEHB112
 3725 027f B201     		.uleb128 .L280-.LCOLDB16
 3726 0281 00       		.uleb128 0
 3727 0282 65       		.uleb128 .LEHB113-.LCOLDB16
 3728 0283 05       		.uleb128 .LEHE113-.LEHB113
 3729 0284 00       		.uleb128 0
 3730 0285 00       		.uleb128 0
 3731 0286 74       		.uleb128 .LEHB114-.LCOLDB16
 3732 0287 34       		.uleb128 .LEHE114-.LEHB114
 3733 0288 D601     		.uleb128 .L278-.LCOLDB16
 3734 028a 00       		.uleb128 0
 3735 028b A801     		.uleb128 .LEHB115-.LCOLDB16
 3736 028d 05       		.uleb128 .LEHE115-.LEHB115
 3737 028e 00       		.uleb128 0
 3738 028f 00       		.uleb128 0
 3739 0290 C101     		.uleb128 .LEHB116-.LCOLDB16
 3740 0292 05       		.uleb128 .LEHE116-.LEHB116
 3741 0293 00       		.uleb128 0
 3742 0294 00       		.uleb128 0
 3743 0295 E501     		.uleb128 .LEHB117-.LCOLDB16
 3744 0297 05       		.uleb128 .LEHE117-.LEHB117
 3745 0298 00       		.uleb128 0
 3746 0299 00       		.uleb128 0
 3747              	.LLSDACSEC1223:
 3748 029a 01       		.byte	0x1
 3749 029b 00       		.byte	0
 3750 029c 00       		.byte	0
 3751 029d 7D       		.byte	0x7d
 3752 029e 0000     		.align 4
 3753 02a0 00000000 		.long	0
 3754              	
 3755              	.LLSDATTC1223:
 3756              		.section	.text.unlikely
 3757              		.text
 3759              		.section	.text.unlikely
 3761              	.LCOLDE16:
 3762              		.text
 3763              	.LHOTE16:
 3764              		.section	.text._ZNSt7__cxx1115basic_stringbufIcSt11char_traitsIcESaIcEED0Ev,"axG",@progbits,_ZNSt7
 3765              		.align 2
 3766              		.p2align 4
 3767              		.weak	_ZNSt7__cxx1115basic_stringbufIcSt11char_traitsIcESaIcEED0Ev
 3769              	_ZNSt7__cxx1115basic_stringbufIcSt11char_traitsIcESaIcEED0Ev:
 3770              	.LFB1239:
 3771              		.cfi_startproc
 3772 0000 F30F1EFA 		endbr64
 3773 0004 488D0500 		leaq	16+_ZTVNSt7__cxx1115basic_stringbufIcSt11char_traitsIcESaIcEEE(%rip), %rax
 3773      000000
 3774 000b 55       		pushq	%rbp
 3775              		.cfi_def_cfa_offset 16
 3776              		.cfi_offset 6, -16
 3777 000c 4889FD   		movq	%rdi, %rbp
 3778 000f 488907   		movq	%rax, (%rdi)
 3779 0012 488B7F48 		movq	72(%rdi), %rdi
 3780 0016 488D4558 		leaq	88(%rbp), %rax
 3781 001a 4839C7   		cmpq	%rax, %rdi
 3782 001d 7405     		je	.L294
 3783 001f E8000000 		call	_ZdlPv@PLT
 3783      00
 3784              	.L294:
 3785 0024 488D0500 		leaq	16+_ZTVSt15basic_streambufIcSt11char_traitsIcEE(%rip), %rax
 3785      000000
 3786 002b 488D7D38 		leaq	56(%rbp), %rdi
 3787 002f 48894500 		movq	%rax, 0(%rbp)
 3788 0033 E8000000 		call	_ZNSt6localeD1Ev@PLT
 3788      00
 3789 0038 4889EF   		movq	%rbp, %rdi
 3790 003b 5D       		popq	%rbp
 3791              		.cfi_def_cfa_offset 8
 3792 003c E9000000 		jmp	_ZdlPv@PLT
 3792      00
 3793              		.cfi_endproc
 3794              	.LFE1239:
 3796              		.section	.text._ZN8UnitTest10CheckEqualImmEEvRNS_11TestResultsERKT_RKT0_RKNS_11TestDetailsE,"axG",
 3797              		.p2align 4
 3798              		.weak	_ZN8UnitTest10CheckEqualImmEEvRNS_11TestResultsERKT_RKT0_RKNS_11TestDetailsE
 3800              	_ZN8UnitTest10CheckEqualImmEEvRNS_11TestResultsERKT_RKT0_RKNS_11TestDetailsE:
 3801              	.LFB1261:
 3802              		.cfi_startproc
 3803              		.cfi_personality 0x9b,DW.ref.__gxx_personality_v0
 3804              		.cfi_lsda 0x1b,.LLSDA1261
 3805 0000 F30F1EFA 		endbr64
 3806 0004 4157     		pushq	%r15
 3807              		.cfi_def_cfa_offset 16
 3808              		.cfi_offset 15, -16
 3809 0006 4156     		pushq	%r14
 3810              		.cfi_def_cfa_offset 24
 3811              		.cfi_offset 14, -24
 3812 0008 4155     		pushq	%r13
 3813              		.cfi_def_cfa_offset 32
 3814              		.cfi_offset 13, -32
 3815 000a 4154     		pushq	%r12
 3816              		.cfi_def_cfa_offset 40
 3817              		.cfi_offset 12, -40
 3818 000c 55       		pushq	%rbp
 3819              		.cfi_def_cfa_offset 48
 3820              		.cfi_offset 6, -48
 3821 000d 53       		pushq	%rbx
 3822              		.cfi_def_cfa_offset 56
 3823              		.cfi_offset 3, -56
 3824 000e 4881ECD8 		subq	$472, %rsp
 3824      010000
 3825              		.cfi_def_cfa_offset 528
 3826 0015 F30F7E0D 		movq	.LC2(%rip), %xmm1
 3826      00000000 
 3827 001d 48897C24 		movq	%rdi, 16(%rsp)
 3827      10
 3828 0022 48894C24 		movq	%rcx, 24(%rsp)
 3828      18
 3829 0027 0F160D00 		movhps	.LC3(%rip), %xmm1
 3829      000000
 3830 002e 64488B04 		movq	%fs:40, %rax
 3830      25280000 
 3830      00
 3831 0037 48898424 		movq	%rax, 456(%rsp)
 3831      C8010000 
 3832 003f 31C0     		xorl	%eax, %eax
 3833 0041 488B02   		movq	(%rdx), %rax
 3834 0044 0F290C24 		movaps	%xmm1, (%rsp)
 3835 0048 483906   		cmpq	%rax, (%rsi)
 3836 004b 7533     		jne	.L312
 3837              	.L296:
 3838 004d 488B8424 		movq	456(%rsp), %rax
 3838      C8010000 
 3839 0055 64482B04 		subq	%fs:40, %rax
 3839      25280000 
 3839      00
 3840 005e 0F855302 		jne	.L313
 3840      0000
 3841 0064 4881C4D8 		addq	$472, %rsp
 3841      010000
 3842              		.cfi_remember_state
 3843              		.cfi_def_cfa_offset 56
 3844 006b 5B       		popq	%rbx
 3845              		.cfi_def_cfa_offset 48
 3846 006c 5D       		popq	%rbp
 3847              		.cfi_def_cfa_offset 40
 3848 006d 415C     		popq	%r12
 3849              		.cfi_def_cfa_offset 32
 3850 006f 415D     		popq	%r13
 3851              		.cfi_def_cfa_offset 24
 3852 0071 415E     		popq	%r14
 3853              		.cfi_def_cfa_offset 16
 3854 0073 415F     		popq	%r15
 3855              		.cfi_def_cfa_offset 8
 3856 0075 C3       		ret
 3857 0076 662E0F1F 		.p2align 4,,10
 3857      84000000 
 3857      0000
 3858              		.p2align 3
 3859              	.L312:
 3860              		.cfi_restore_state
 3861 0080 4C8DAC24 		leaq	192(%rsp), %r13
 3861      C0000000 
 3862 0088 4889F5   		movq	%rsi, %rbp
 3863 008b 4889D3   		movq	%rdx, %rbx
 3864 008e 4C89EF   		movq	%r13, %rdi
 3865 0091 E8000000 		call	_ZNSt8ios_baseC2Ev@PLT
 3865      00
 3866 0096 31C0     		xorl	%eax, %eax
 3867 0098 660FEFC0 		pxor	%xmm0, %xmm0
 3868 009c 31F6     		xorl	%esi, %esi
 3869 009e 66898424 		movw	%ax, 416(%rsp)
 3869      A0010000 
 3870 00a6 488D0500 		leaq	24+_ZTCN8UnitTest15MemoryOutStreamE0_So(%rip), %rax
 3870      000000
 3871 00ad 4C89EF   		movq	%r13, %rdi
 3872 00b0 48894424 		movq	%rax, 48(%rsp)
 3872      30
 3873 00b5 4883C028 		addq	$40, %rax
 3874 00b9 48C78424 		movq	$0, 408(%rsp)
 3874      98010000 
 3874      00000000 
 3875 00c5 48898424 		movq	%rax, 192(%rsp)
 3875      C0000000 
 3876 00cd 0F118424 		movups	%xmm0, 424(%rsp)
 3876      A8010000 
 3877 00d5 0F118424 		movups	%xmm0, 440(%rsp)
 3877      B8010000 
 3878              	.LEHB118:
 3879 00dd E8000000 		call	_ZNSt9basic_iosIcSt11char_traitsIcEE4initEPSt15basic_streambufIcS1_E@PLT
 3879      00
 3880              	.LEHE118:
 3881 00e2 660F6F0C 		movdqa	(%rsp), %xmm1
 3881      24
 3882 00e7 4C8D7424 		leaq	112(%rsp), %r14
 3882      70
 3883 00ec 660FEFC0 		pxor	%xmm0, %xmm0
 3884 00f0 488D0500 		leaq	64+_ZTCN8UnitTest15MemoryOutStreamE0_NSt7__cxx1119basic_ostringstreamIcSt11char_traitsIcESaIc
 3884      000000
 3885 00f7 4C89F7   		movq	%r14, %rdi
 3886 00fa 0F294424 		movaps	%xmm0, 64(%rsp)
 3886      40
 3887 00ff 4C8D6424 		leaq	48(%rsp), %r12
 3887      30
 3888 0104 4C8D7C24 		leaq	56(%rsp), %r15
 3888      38
 3889 0109 48898424 		movq	%rax, 192(%rsp)
 3889      C0000000 
 3890 0111 0F294C24 		movaps	%xmm1, 48(%rsp)
 3890      30
 3891 0116 0F294424 		movaps	%xmm0, 80(%rsp)
 3891      50
 3892 011b 0F294424 		movaps	%xmm0, 96(%rsp)
 3892      60
 3893 0120 E8000000 		call	_ZNSt6localeC1Ev@PLT
 3893      00
 3894 0125 488D0500 		leaq	16+_ZTVNSt7__cxx1115basic_stringbufIcSt11char_traitsIcESaIcEEE(%rip), %rax
 3894      000000
 3895 012c 4C89FE   		movq	%r15, %rsi
 3896 012f 48C78424 		movq	$0, 136(%rsp)
 3896      88000000 
 3896      00000000 
 3897 013b 48894424 		movq	%rax, 56(%rsp)
 3897      38
 3898 0140 488D8424 		leaq	144(%rsp), %rax
 3898      90000000 
 3899 0148 48894424 		movq	%rax, 32(%rsp)
 3899      20
 3900 014d 48898424 		movq	%rax, 128(%rsp)
 3900      80000000 
 3901 0155 488B4424 		movq	48(%rsp), %rax
 3901      30
 3902 015a C6842490 		movb	$0, 144(%rsp)
 3902      00000000 
 3903 0162 488B78E8 		movq	-24(%rax), %rdi
 3904 0166 C7442478 		movl	$16, 120(%rsp)
 3904      10000000 
 3905 016e 4C01E7   		addq	%r12, %rdi
 3906              	.LEHB119:
 3907 0171 E8000000 		call	_ZNSt9basic_iosIcSt11char_traitsIcEE4initEPSt15basic_streambufIcS1_E@PLT
 3907      00
 3908              	.LEHE119:
 3909 0176 4C8D3D00 		leaq	24+_ZTVN8UnitTest15MemoryOutStreamE(%rip), %r15
 3909      000000
 3910 017d BA090000 		movl	$9, %edx
 3910      00
 3911 0182 4C89E7   		movq	%r12, %rdi
 3912 0185 48C78424 		movq	$0, 168(%rsp)
 3912      A8000000 
 3912      00000000 
 3913 0191 498D4728 		leaq	40(%r15), %rax
 3914 0195 488D3500 		leaq	.LC0(%rip), %rsi
 3914      000000
 3915 019c 4C897C24 		movq	%r15, 48(%rsp)
 3915      30
 3916 01a1 48898424 		movq	%rax, 192(%rsp)
 3916      C0000000 
 3917 01a9 488D8424 		leaq	176(%rsp), %rax
 3917      B0000000 
 3918 01b1 48894424 		movq	%rax, 40(%rsp)
 3918      28
 3919 01b6 48898424 		movq	%rax, 160(%rsp)
 3919      A0000000 
 3920 01be C68424B0 		movb	$0, 176(%rsp)
 3920      00000000 
 3921              	.LEHB120:
 3922 01c6 E8000000 		call	_ZSt16__ostream_insertIcSt11char_traitsIcEERSt13basic_ostreamIT_T0_ES6_PKS3_l@PLT
 3922      00
 3923 01cb 488B7500 		movq	0(%rbp), %rsi
 3924 01cf 4C89E7   		movq	%r12, %rdi
 3925 01d2 E8000000 		call	_ZNSo9_M_insertImEERSoT_@PLT
 3925      00
 3926 01d7 BA090000 		movl	$9, %edx
 3926      00
 3927 01dc 488D3500 		leaq	.LC1(%rip), %rsi
 3927      000000
 3928 01e3 4889C7   		movq	%rax, %rdi
 3929 01e6 4889C5   		movq	%rax, %rbp
 3930 01e9 E8000000 		call	_ZSt16__ostream_insertIcSt11char_traitsIcEERSt13basic_ostreamIT_T0_ES6_PKS3_l@PLT
 3930      00
 3931 01ee 488B33   		movq	(%rbx), %rsi
 3932 01f1 4889EF   		movq	%rbp, %rdi
 3933 01f4 E8000000 		call	_ZNSo9_M_insertImEERSoT_@PLT
 3933      00
 3934 01f9 4C89E7   		movq	%r12, %rdi
 3935 01fc E8000000 		call	_ZNK8UnitTest15MemoryOutStream7GetTextEv@PLT
 3935      00
 3936 0201 488B7424 		movq	24(%rsp), %rsi
 3936      18
 3937 0206 488B7C24 		movq	16(%rsp), %rdi
 3937      10
 3938 020b 4889C2   		movq	%rax, %rdx
 3939 020e F30F7E15 		movq	.LC2(%rip), %xmm2
 3939      00000000 
 3940 0216 0F161500 		movhps	.LC4(%rip), %xmm2
 3940      000000
 3941 021d 0F291424 		movaps	%xmm2, (%rsp)
 3942 0221 E8000000 		call	_ZN8UnitTest11TestResults13OnTestFailureERKNS_11TestDetailsEPKc@PLT
 3942      00
 3943              	.LEHE120:
 3944 0226 488D0500 		leaq	64+_ZTVN8UnitTest15MemoryOutStreamE(%rip), %rax
 3944      000000
 3945 022d 4C897C24 		movq	%r15, 48(%rsp)
 3945      30
 3946 0232 488BBC24 		movq	160(%rsp), %rdi
 3946      A0000000 
 3947 023a 48898424 		movq	%rax, 192(%rsp)
 3947      C0000000 
 3948 0242 483B7C24 		cmpq	40(%rsp), %rdi
 3948      28
 3949 0247 7405     		je	.L302
 3950 0249 E8000000 		call	_ZdlPv@PLT
 3950      00
 3951              	.L302:
 3952 024e 660F6F1C 		movdqa	(%rsp), %xmm3
 3952      24
 3953 0253 488D0500 		leaq	64+_ZTCN8UnitTest15MemoryOutStreamE0_NSt7__cxx1119basic_ostringstreamIcSt11char_traitsIcESaIc
 3953      000000
 3954 025a 488BBC24 		movq	128(%rsp), %rdi
 3954      80000000 
 3955 0262 48898424 		movq	%rax, 192(%rsp)
 3955      C0000000 
 3956 026a 0F295C24 		movaps	%xmm3, 48(%rsp)
 3956      30
 3957 026f 483B7C24 		cmpq	32(%rsp), %rdi
 3957      20
 3958 0274 7405     		je	.L303
 3959 0276 E8000000 		call	_ZdlPv@PLT
 3959      00
 3960              	.L303:
 3961 027b 488D0500 		leaq	16+_ZTVSt15basic_streambufIcSt11char_traitsIcEE(%rip), %rax
 3961      000000
 3962 0282 4C89F7   		movq	%r14, %rdi
 3963 0285 48894424 		movq	%rax, 56(%rsp)
 3963      38
 3964 028a E8000000 		call	_ZNSt6localeD1Ev@PLT
 3964      00
 3965 028f 488D0500 		leaq	24+_ZTCN8UnitTest15MemoryOutStreamE0_So(%rip), %rax
 3965      000000
 3966 0296 4C89EF   		movq	%r13, %rdi
 3967 0299 48894424 		movq	%rax, 48(%rsp)
 3967      30
 3968 029e 488D0500 		leaq	16+_ZTVSt9basic_iosIcSt11char_traitsIcEE(%rip), %rax
 3968      000000
 3969 02a5 48898424 		movq	%rax, 192(%rsp)
 3969      C0000000 
 3970              	.LEHB121:
 3971 02ad E8000000 		call	_ZNSt8ios_baseD2Ev@PLT
 3971      00
 3972              	.LEHE121:
 3973 02b2 E996FDFF 		jmp	.L296
 3973      FF
 3974              	.L313:
 3975 02b7 E8000000 		call	__stack_chk_fail@PLT
 3975      00
 3976              	.L307:
 3977 02bc F30F1EFA 		endbr64
 3978 02c0 4889C5   		movq	%rax, %rbp
 3979 02c3 EB26     		jmp	.L300
 3980              	.L308:
 3981 02c5 F30F1EFA 		endbr64
 3982 02c9 4889C5   		movq	%rax, %rbp
 3983 02cc EB09     		jmp	.L299
 3984              	.L306:
 3985 02ce F30F1EFA 		endbr64
 3986 02d2 4889C5   		movq	%rax, %rbp
 3987 02d5 EB33     		jmp	.L304
 3988              	.L299:
 3989 02d7 4C89FF   		movq	%r15, %rdi
 3990 02da E8000000 		call	_ZNSt7__cxx1115basic_stringbufIcSt11char_traitsIcESaIcEED1Ev
 3990      00
 3991 02df 488D0500 		leaq	24+_ZTCN8UnitTest15MemoryOutStreamE0_So(%rip), %rax
 3991      000000
 3992 02e6 48894424 		movq	%rax, 48(%rsp)
 3992      30
 3993              	.L300:
 3994 02eb 488D0500 		leaq	16+_ZTVSt9basic_iosIcSt11char_traitsIcEE(%rip), %rax
 3994      000000
 3995 02f2 4C89EF   		movq	%r13, %rdi
 3996 02f5 48898424 		movq	%rax, 192(%rsp)
 3996      C0000000 
 3997 02fd E8000000 		call	_ZNSt8ios_baseD2Ev@PLT
 3997      00
 3998 0302 4889EF   		movq	%rbp, %rdi
 3999              	.LEHB122:
 4000 0305 E8000000 		call	_Unwind_Resume@PLT
 4000      00
 4001              	.LEHE122:
 4002              	.L304:
 4003 030a 4C89E7   		movq	%r12, %rdi
 4004 030d E8000000 		call	_ZN8UnitTest15MemoryOutStreamD1Ev
 4004      00
 4005 0312 4889EF   		movq	%rbp, %rdi
 4006              	.LEHB123:
 4007 0315 E8000000 		call	_Unwind_Resume@PLT
 4007      00
 4008              	.LEHE123:
 4009              		.cfi_endproc
 4010              	.LFE1261:
 4011              		.section	.gcc_except_table
 4012              	.LLSDA1261:
 4013 02a4 FF       		.byte	0xff
 4014 02a5 FF       		.byte	0xff
 4015 02a6 01       		.byte	0x1
 4016 02a7 21       		.uleb128 .LLSDACSE1261-.LLSDACSB1261
 4017              	.LLSDACSB1261:
 4018 02a8 DD01     		.uleb128 .LEHB118-.LFB1261
 4019 02aa 05       		.uleb128 .LEHE118-.LEHB118
 4020 02ab BC05     		.uleb128 .L307-.LFB1261
 4021 02ad 00       		.uleb128 0
 4022 02ae F102     		.uleb128 .LEHB119-.LFB1261
 4023 02b0 05       		.uleb128 .LEHE119-.LEHB119
 4024 02b1 C505     		.uleb128 .L308-.LFB1261
 4025 02b3 00       		.uleb128 0
 4026 02b4 C603     		.uleb128 .LEHB120-.LFB1261
 4027 02b6 60       		.uleb128 .LEHE120-.LEHB120
 4028 02b7 CE05     		.uleb128 .L306-.LFB1261
 4029 02b9 00       		.uleb128 0
 4030 02ba AD05     		.uleb128 .LEHB121-.LFB1261
 4031 02bc 05       		.uleb128 .LEHE121-.LEHB121
 4032 02bd 00       		.uleb128 0
 4033 02be 00       		.uleb128 0
 4034 02bf 8506     		.uleb128 .LEHB122-.LFB1261
 4035 02c1 05       		.uleb128 .LEHE122-.LEHB122
 4036 02c2 00       		.uleb128 0
 4037 02c3 00       		.uleb128 0
 4038 02c4 9506     		.uleb128 .LEHB123-.LFB1261
 4039 02c6 05       		.uleb128 .LEHE123-.LEHB123
 4040 02c7 00       		.uleb128 0
 4041 02c8 00       		.uleb128 0
 4042              	.LLSDACSE1261:
 4043              		.section	.text._ZN8UnitTest10CheckEqualImmEEvRNS_11TestResultsERKT_RKT0_RKNS_11TestDetailsE,"axG",
 4045              		.section	.rodata.str1.8
 4046 0109 00000000 		.align 8
 4046      000000
 4047              	.LC17:
 4048 0110 556E6861 		.string	"Unhandled exception in CHECK_EQUAL(8UL+5UL, i2cBuffer.length)"
 4048      6E646C65 
 4048      64206578 
 4048      63657074 
 4048      696F6E20 
 4049 014e 0000     		.align 8
 4050              	.LC18:
 4051 0150 556E6861 		.string	"Unhandled exception in CHECK_EQUAL(1024UL, i2cBuffer.capacity)"
 4051      6E646C65 
 4051      64206578 
 4051      63657074 
 4051      696F6E20 
 4052 018f 00       		.align 8
 4053              	.LC19:
 4054 0190 556E6861 		.string	"Unhandled exception in CHECK_ARRAY_EQUAL(expected, i2cBuffer.data)"
 4054      6E646C65 
 4054      64206578 
 4054      63657074 
 4054      696F6E20 
 4055              		.section	.text.unlikely
 4056              		.align 2
 4057              	.LCOLDB20:
 4058              		.text
 4059              	.LHOTB20:
 4060              		.align 2
 4061 1dfc 0F1F4000 		.p2align 4
 4062              		.globl	_ZNK22TestI2C_testInitialise7RunImplEv
 4064              	_ZNK22TestI2C_testInitialise7RunImplEv:
 4065              	.LFB1215:
 4066              		.cfi_startproc
 4067              		.cfi_personality 0x9b,DW.ref.__gxx_personality_v0
 4068              		.cfi_lsda 0x1b,.LLSDA1215
 4069 1e00 F30F1EFA 		endbr64
 4070 1e04 4157     		pushq	%r15
 4071              		.cfi_def_cfa_offset 16
 4072              		.cfi_offset 15, -16
 4073 1e06 31C9     		xorl	%ecx, %ecx
 4074 1e08 31D2     		xorl	%edx, %edx
 4075 1e0a BE000400 		movl	$1024, %esi
 4075      00
 4076 1e0f 4156     		pushq	%r14
 4077              		.cfi_def_cfa_offset 24
 4078              		.cfi_offset 14, -24
 4079 1e11 4155     		pushq	%r13
 4080              		.cfi_def_cfa_offset 32
 4081              		.cfi_offset 13, -32
 4082 1e13 4154     		pushq	%r12
 4083              		.cfi_def_cfa_offset 40
 4084              		.cfi_offset 12, -40
 4085 1e15 55       		pushq	%rbp
 4086              		.cfi_def_cfa_offset 48
 4087              		.cfi_offset 6, -48
 4088 1e16 53       		pushq	%rbx
 4089              		.cfi_def_cfa_offset 56
 4090              		.cfi_offset 3, -56
 4091 1e17 4881EC78 		subq	$632, %rsp
 4091      020000
 4092              		.cfi_def_cfa_offset 688
 4093 1e1e 64488B04 		movq	%fs:40, %rax
 4093      25280000 
 4093      00
 4094 1e27 48898424 		movq	%rax, 616(%rsp)
 4094      68020000 
 4095 1e2f 48B8C2B4 		movabsq	$72058169882621122, %rax
 4095      04138600 
 4095      0001
 4096 1e39 4C8DBC24 		leaq	128(%rsp), %r15
 4096      80000000 
 4097 1e41 C7842463 		movl	$15073664, 611(%rsp)
 4097      02000080 
 4097      01E600
 4098 1e4c 4C89FF   		movq	%r15, %rdi
 4099 1e4f C6842467 		movb	$0, 615(%rsp)
 4099      02000000 
 4100 1e57 48898424 		movq	%rax, 603(%rsp)
 4100      5B020000 
 4101              	.LEHB124:
 4102 1e5f E8000000 		call	bufInitialise@PLT
 4102      00
 4103              	.LEHE124:
 4104 1e64 89442474 		movl	%eax, 116(%rsp)
 4105              	.LEHB125:
 4106 1e68 E8000000 		call	_ZN8UnitTest11CurrentTest7DetailsEv@PLT
 4106      00
 4107 1e6d 488DAC24 		leaq	160(%rsp), %rbp
 4107      A0000000 
 4108 1e75 488B30   		movq	(%rax), %rsi
 4109 1e78 BA250000 		movl	$37, %edx
 4109      00
 4110 1e7d 4889EF   		movq	%rbp, %rdi
 4111 1e80 E8000000 		call	_ZN8UnitTest11TestDetailsC1ERKS0_i@PLT
 4111      00
 4112 1e85 C7442478 		movl	$0, 120(%rsp)
 4112      00000000 
 4113 1e8d E8000000 		call	_ZN8UnitTest11CurrentTest7ResultsEv@PLT
 4113      00
 4114 1e92 4C8D7424 		leaq	120(%rsp), %r14
 4114      78
 4115 1e97 488B38   		movq	(%rax), %rdi
 4116 1e9a 488D5424 		leaq	116(%rsp), %rdx
 4116      74
 4117 1e9f 4889E9   		movq	%rbp, %rcx
 4118 1ea2 4C89F6   		movq	%r14, %rsi
 4119 1ea5 E856E1FF 		call	_ZN8UnitTest10CheckEqualI12BufferStatusS1_EEvRNS_11TestResultsERKT_RKT0_RKNS_11TestDetailsE.c
 4119      FF
 4120              	.LEHE125:
 4121              	.L339:
 4122 1eaa 41B80100 		movl	$1, %r8d
 4122      0000
 4123 1eb0 31C9     		xorl	%ecx, %ecx
 4124 1eb2 BA138600 		movl	$34323, %edx
 4124      00
 4125 1eb7 4C89FF   		movq	%r15, %rdi
 4126 1eba BEB40400 		movl	$1204, %esi
 4126      00
 4127              	.LEHB126:
 4128 1ebf E8000000 		call	i2cInitialise@PLT
 4128      00
 4129 1ec4 31F6     		xorl	%esi, %esi
 4130 1ec6 4C89FF   		movq	%r15, %rdi
 4131 1ec9 E8000000 		call	i2cFinalise@PLT
 4131      00
 4132              	.LEHE126:
 4133 1ece 4189C5   		movl	%eax, %r13d
 4134              	.LEHB127:
 4135 1ed1 E8000000 		call	_ZN8UnitTest11CurrentTest7DetailsEv@PLT
 4135      00
 4136 1ed6 488B30   		movq	(%rax), %rsi
 4137 1ed9 BA280000 		movl	$40, %edx
 4137      00
 4138 1ede 4889EF   		movq	%rbp, %rdi
 4139 1ee1 E8000000 		call	_ZN8UnitTest11TestDetailsC1ERKS0_i@PLT
 4139      00
 4140 1ee6 E8000000 		call	_ZN8UnitTest11CurrentTest7ResultsEv@PLT
 4140      00
 4141              	.LEHE127:
 4142 1eeb F30F7E15 		movq	.LC2(%rip), %xmm2
 4142      00000000 
 4143 1ef3 488D1D00 		leaq	16+_ZTVSt15basic_streambufIcSt11char_traitsIcEE(%rip), %rbx
 4143      000000
 4144 1efa 48891C24 		movq	%rbx, (%rsp)
 4145 1efe 488B18   		movq	(%rax), %rbx
 4146 1f01 0F161424 		movhps	(%rsp), %xmm2
 4147 1f05 0F291424 		movaps	%xmm2, (%rsp)
 4148 1f09 4585ED   		testl	%r13d, %r13d
 4149 1f0c 0F855E01 		jne	.L381
 4149      0000
 4150              	.L323:
 4151              	.LEHB128:
 4152 1f12 E8000000 		call	_ZN8UnitTest11CurrentTest7DetailsEv@PLT
 4152      00
 4153 1f17 488B30   		movq	(%rax), %rsi
 4154 1f1a BA290000 		movl	$41, %edx
 4154      00
 4155 1f1f 4889EF   		movq	%rbp, %rdi
 4156 1f22 E8000000 		call	_ZN8UnitTest11TestDetailsC1ERKS0_i@PLT
 4156      00
 4157 1f27 48C74424 		movq	$13, 120(%rsp)
 4157      780D0000 
 4157      00
 4158 1f30 E8000000 		call	_ZN8UnitTest11CurrentTest7ResultsEv@PLT
 4158      00
 4159 1f35 4C8D7424 		leaq	120(%rsp), %r14
 4159      78
 4160 1f3a 488B38   		movq	(%rax), %rdi
 4161 1f3d 488D9424 		leaq	136(%rsp), %rdx
 4161      88000000 
 4162 1f45 4889E9   		movq	%rbp, %rcx
 4163 1f48 4C89F6   		movq	%r14, %rsi
 4164 1f4b E8000000 		call	_ZN8UnitTest10CheckEqualImmEEvRNS_11TestResultsERKT_RKT0_RKNS_11TestDetailsE
 4164      00
 4165              	.LEHE128:
 4166              	.L343:
 4167              	.LEHB129:
 4168 1f50 E8000000 		call	_ZN8UnitTest11CurrentTest7DetailsEv@PLT
 4168      00
 4169 1f55 488B30   		movq	(%rax), %rsi
 4170 1f58 BA2A0000 		movl	$42, %edx
 4170      00
 4171 1f5d 4889EF   		movq	%rbp, %rdi
 4172 1f60 E8000000 		call	_ZN8UnitTest11TestDetailsC1ERKS0_i@PLT
 4172      00
 4173 1f65 48C74424 		movq	$1024, 120(%rsp)
 4173      78000400 
 4173      00
 4174 1f6e E8000000 		call	_ZN8UnitTest11CurrentTest7ResultsEv@PLT
 4174      00
 4175 1f73 4C8D7424 		leaq	120(%rsp), %r14
 4175      78
 4176 1f78 488B38   		movq	(%rax), %rdi
 4177 1f7b 488D9424 		leaq	144(%rsp), %rdx
 4177      90000000 
 4178 1f83 4889E9   		movq	%rbp, %rcx
 4179 1f86 4C89F6   		movq	%r14, %rsi
 4180 1f89 E8000000 		call	_ZN8UnitTest10CheckEqualImmEEvRNS_11TestResultsERKT_RKT0_RKNS_11TestDetailsE
 4180      00
 4181              	.LEHE129:
 4182              	.L346:
 4183              	.LEHB130:
 4184 1f8e E8000000 		call	_ZN8UnitTest11CurrentTest7DetailsEv@PLT
 4184      00
 4185 1f93 488B30   		movq	(%rax), %rsi
 4186 1f96 BA2B0000 		movl	$43, %edx
 4186      00
 4187 1f9b 4889EF   		movq	%rbp, %rdi
 4188 1f9e E8000000 		call	_ZN8UnitTest11TestDetailsC1ERKS0_i@PLT
 4188      00
 4189 1fa3 E8000000 		call	_ZN8UnitTest11CurrentTest7ResultsEv@PLT
 4189      00
 4190              	.LEHE130:
 4191 1fa8 488B9424 		movq	128(%rsp), %rdx
 4191      80000000 
 4192 1fb0 488B00   		movq	(%rax), %rax
 4193 1fb3 488D1D00 		leaq	16+_ZTVSt15basic_streambufIcSt11char_traitsIcEE(%rip), %rbx
 4193      000000
 4194 1fba F30F7E0D 		movq	.LC2(%rip), %xmm1
 4194      00000000 
 4195 1fc2 48891C24 		movq	%rbx, (%rsp)
 4196 1fc6 807A0204 		cmpb	$4, 2(%rdx)
 4197 1fca 48894424 		movq	%rax, 104(%rsp)
 4197      68
 4198 1fcf 0F94C0   		sete	%al
 4199 1fd2 807A01B4 		cmpb	$-76, 1(%rdx)
 4200 1fd6 0F94C1   		sete	%cl
 4201 1fd9 0F160C24 		movhps	(%rsp), %xmm1
 4202 1fdd 21C8     		andl	%ecx, %eax
 4203 1fdf 803AC2   		cmpb	$-62, (%rdx)
 4204 1fe2 0F294C24 		movaps	%xmm1, 16(%rsp)
 4204      10
 4205 1fe7 0F94C1   		sete	%cl
 4206 1fea 21C8     		andl	%ecx, %eax
 4207 1fec 807A0313 		cmpb	$19, 3(%rdx)
 4208 1ff0 0F94C1   		sete	%cl
 4209 1ff3 21C8     		andl	%ecx, %eax
 4210 1ff5 807A0486 		cmpb	$-122, 4(%rdx)
 4211 1ff9 0F94C1   		sete	%cl
 4212 1ffc 21C8     		andl	%ecx, %eax
 4213 1ffe 807A0701 		cmpb	$1, 7(%rdx)
 4214 2002 0F94C1   		sete	%cl
 4215 2005 21C8     		andl	%ecx, %eax
 4216 2007 807A0880 		cmpb	$-128, 8(%rdx)
 4217 200b 0F94C1   		sete	%cl
 4218 200e 21C8     		andl	%ecx, %eax
 4219 2010 807A0901 		cmpb	$1, 9(%rdx)
 4220 2014 0F94C1   		sete	%cl
 4221 2017 21C8     		andl	%ecx, %eax
 4222 2019 807A0AE6 		cmpb	$-26, 10(%rdx)
 4223 201d 0F94C1   		sete	%cl
 4224 2020 84C8     		testb	%cl, %al
 4225 2022 0F84C802 		je	.L366
 4225      0000
 4226 2028 0FB64205 		movzbl	5(%rdx), %eax
 4227 202c 0A4206   		orb	6(%rdx), %al
 4228 202f 0A420B   		orb	11(%rdx), %al
 4229 2032 0A420C   		orb	12(%rdx), %al
 4230 2035 0F85B502 		jne	.L366
 4230      0000
 4231              	.L336:
 4232 203b 4C89FF   		movq	%r15, %rdi
 4233              	.LEHB131:
 4234 203e E8000000 		call	bufDestroy@PLT
 4234      00
 4235              	.LEHE131:
 4236 2043 488B8424 		movq	616(%rsp), %rax
 4236      68020000 
 4237 204b 64482B04 		subq	%fs:40, %rax
 4237      25280000 
 4237      00
 4238 2054 0F85AC05 		jne	.L382
 4238      0000
 4239 205a 4881C478 		addq	$632, %rsp
 4239      020000
 4240              		.cfi_remember_state
 4241              		.cfi_def_cfa_offset 56
 4242 2061 5B       		popq	%rbx
 4243              		.cfi_def_cfa_offset 48
 4244 2062 5D       		popq	%rbp
 4245              		.cfi_def_cfa_offset 40
 4246 2063 415C     		popq	%r12
 4247              		.cfi_def_cfa_offset 32
 4248 2065 415D     		popq	%r13
 4249              		.cfi_def_cfa_offset 24
 4250 2067 415E     		popq	%r14
 4251              		.cfi_def_cfa_offset 16
 4252 2069 415F     		popq	%r15
 4253              		.cfi_def_cfa_offset 8
 4254 206b C3       		ret
 4255 206c 0F1F4000 		.p2align 4,,10
 4256              		.p2align 3
 4257              	.L381:
 4258              		.cfi_restore_state
 4259 2070 4C8DB424 		leaq	336(%rsp), %r14
 4259      50010000 
 4260 2078 4C89F7   		movq	%r14, %rdi
 4261 207b 4C897424 		movq	%r14, 32(%rsp)
 4261      20
 4262 2080 E8000000 		call	_ZNSt8ios_baseC2Ev@PLT
 4262      00
 4263 2085 488D0500 		leaq	24+_ZTCN8UnitTest15MemoryOutStreamE0_So(%rip), %rax
 4263      000000
 4264 208c 31D2     		xorl	%edx, %edx
 4265 208e 31F6     		xorl	%esi, %esi
 4266 2090 660FEFC0 		pxor	%xmm0, %xmm0
 4267 2094 48894424 		movq	%rax, 40(%rsp)
 4267      28
 4268 2099 4C89F7   		movq	%r14, %rdi
 4269 209c 48898424 		movq	%rax, 192(%rsp)
 4269      C0000000 
 4270 20a4 4883C028 		addq	$40, %rax
 4271 20a8 48C78424 		movq	$0, 552(%rsp)
 4271      28020000 
 4271      00000000 
 4272 20b4 66899424 		movw	%dx, 560(%rsp)
 4272      30020000 
 4273 20bc 48898424 		movq	%rax, 336(%rsp)
 4273      50010000 
 4274 20c4 0F118424 		movups	%xmm0, 568(%rsp)
 4274      38020000 
 4275 20cc 0F118424 		movups	%xmm0, 584(%rsp)
 4275      48020000 
 4276              	.LEHB132:
 4277 20d4 E8000000 		call	_ZNSt9basic_iosIcSt11char_traitsIcEE4initEPSt15basic_streambufIcS1_E@PLT
 4277      00
 4278              	.LEHE132:
 4279 20d9 488D0500 		leaq	64+_ZTCN8UnitTest15MemoryOutStreamE0_NSt7__cxx1119basic_ostringstreamIcSt11char_traitsIcESaIc
 4279      000000
 4280 20e0 660F6F14 		movdqa	(%rsp), %xmm2
 4280      24
 4281 20e5 660FEFC0 		pxor	%xmm0, %xmm0
 4282 20e9 4C8DA424 		leaq	192(%rsp), %r12
 4282      C0000000 
 4283 20f1 48894424 		movq	%rax, 96(%rsp)
 4283      60
 4284 20f6 4C8DB424 		leaq	200(%rsp), %r14
 4284      C8000000 
 4285 20fe 48898424 		movq	%rax, 336(%rsp)
 4285      50010000 
 4286 2106 488D8424 		leaq	256(%rsp), %rax
 4286      00010000 
 4287 210e 4889C7   		movq	%rax, %rdi
 4288 2111 48894424 		movq	%rax, 48(%rsp)
 4288      30
 4289 2116 0F299424 		movaps	%xmm2, 192(%rsp)
 4289      C0000000 
 4290 211e 0F298424 		movaps	%xmm0, 208(%rsp)
 4290      D0000000 
 4291 2126 0F298424 		movaps	%xmm0, 224(%rsp)
 4291      E0000000 
 4292 212e 0F298424 		movaps	%xmm0, 240(%rsp)
 4292      F0000000 
 4293 2136 E8000000 		call	_ZNSt6localeC1Ev@PLT
 4293      00
 4294 213b 488D0500 		leaq	16+_ZTVNSt7__cxx1115basic_stringbufIcSt11char_traitsIcESaIcEEE(%rip), %rax
 4294      000000
 4295 2142 C6842420 		movb	$0, 288(%rsp)
 4295      01000000 
 4296 214a 4C89F6   		movq	%r14, %rsi
 4297 214d 48894424 		movq	%rax, 80(%rsp)
 4297      50
 4298 2152 48898424 		movq	%rax, 200(%rsp)
 4298      C8000000 
 4299 215a 488D8424 		leaq	288(%rsp), %rax
 4299      20010000 
 4300 2162 48894424 		movq	%rax, 56(%rsp)
 4300      38
 4301 2167 48898424 		movq	%rax, 272(%rsp)
 4301      10010000 
 4302 216f 488B8424 		movq	192(%rsp), %rax
 4302      C0000000 
 4303 2177 48C78424 		movq	$0, 280(%rsp)
 4303      18010000 
 4303      00000000 
 4304 2183 C7842408 		movl	$16, 264(%rsp)
 4304      01000010 
 4304      000000
 4305 218e 488B78E8 		movq	-24(%rax), %rdi
 4306 2192 4C01E7   		addq	%r12, %rdi
 4307              	.LEHB133:
 4308 2195 E8000000 		call	_ZNSt9basic_iosIcSt11char_traitsIcEE4initEPSt15basic_streambufIcS1_E@PLT
 4308      00
 4309              	.LEHE133:
 4310 219a 488D0500 		leaq	24+_ZTVN8UnitTest15MemoryOutStreamE(%rip), %rax
 4310      000000
 4311 21a1 BA090000 		movl	$9, %edx
 4311      00
 4312 21a6 4C89E7   		movq	%r12, %rdi
 4313 21a9 48C78424 		movq	$0, 312(%rsp)
 4313      38010000 
 4313      00000000 
 4314 21b5 48894424 		movq	%rax, 72(%rsp)
 4314      48
 4315 21ba 488D3500 		leaq	.LC0(%rip), %rsi
 4315      000000
 4316 21c1 48898424 		movq	%rax, 192(%rsp)
 4316      C0000000 
 4317 21c9 4883C028 		addq	$40, %rax
 4318 21cd 48894424 		movq	%rax, 88(%rsp)
 4318      58
 4319 21d2 48898424 		movq	%rax, 336(%rsp)
 4319      50010000 
 4320 21da 488D8424 		leaq	320(%rsp), %rax
 4320      40010000 
 4321 21e2 48894424 		movq	%rax, 64(%rsp)
 4321      40
 4322 21e7 48898424 		movq	%rax, 304(%rsp)
 4322      30010000 
 4323 21ef C6842440 		movb	$0, 320(%rsp)
 4323      01000000 
 4324              	.LEHB134:
 4325 21f7 E8000000 		call	_ZSt16__ostream_insertIcSt11char_traitsIcEERSt13basic_ostreamIT_T0_ES6_PKS3_l@PLT
 4325      00
 4326 21fc 31F6     		xorl	%esi, %esi
 4327 21fe 4C89E7   		movq	%r12, %rdi
 4328 2201 E8000000 		call	_ZNSolsEi@PLT
 4328      00
 4329 2206 BA090000 		movl	$9, %edx
 4329      00
 4330 220b 488D3500 		leaq	.LC1(%rip), %rsi
 4330      000000
 4331 2212 4889C7   		movq	%rax, %rdi
 4332 2215 4989C6   		movq	%rax, %r14
 4333 2218 E8000000 		call	_ZSt16__ostream_insertIcSt11char_traitsIcEERSt13basic_ostreamIT_T0_ES6_PKS3_l@PLT
 4333      00
 4334 221d 4489EE   		movl	%r13d, %esi
 4335 2220 4C89F7   		movq	%r14, %rdi
 4336 2223 E8000000 		call	_ZNSolsEi@PLT
 4336      00
 4337 2228 4C89E7   		movq	%r12, %rdi
 4338 222b E8000000 		call	_ZNK8UnitTest15MemoryOutStream7GetTextEv@PLT
 4338      00
 4339 2230 4889C2   		movq	%rax, %rdx
 4340 2233 4889EE   		movq	%rbp, %rsi
 4341 2236 4889DF   		movq	%rbx, %rdi
 4342 2239 E8000000 		call	_ZN8UnitTest11TestResults13OnTestFailureERKNS_11TestDetailsEPKc@PLT
 4342      00
 4343              	.LEHE134:
 4344 223e 488B4424 		movq	72(%rsp), %rax
 4344      48
 4345 2243 488BBC24 		movq	304(%rsp), %rdi
 4345      30010000 
 4346 224b F30F7E05 		movq	.LC2(%rip), %xmm0
 4346      00000000 
 4347 2253 48898424 		movq	%rax, 192(%rsp)
 4347      C0000000 
 4348 225b 488B4424 		movq	88(%rsp), %rax
 4348      58
 4349 2260 0F164424 		movhps	80(%rsp), %xmm0
 4349      50
 4350 2265 48898424 		movq	%rax, 336(%rsp)
 4350      50010000 
 4351 226d 483B7C24 		cmpq	64(%rsp), %rdi
 4351      40
 4352 2272 740E     		je	.L321
 4353 2274 0F290424 		movaps	%xmm0, (%rsp)
 4354 2278 E8000000 		call	_ZdlPv@PLT
 4354      00
 4355 227d 660F6F04 		movdqa	(%rsp), %xmm0
 4355      24
 4356              	.L321:
 4357 2282 488B4424 		movq	96(%rsp), %rax
 4357      60
 4358 2287 488BBC24 		movq	272(%rsp), %rdi
 4358      10010000 
 4359 228f 0F298424 		movaps	%xmm0, 192(%rsp)
 4359      C0000000 
 4360 2297 48898424 		movq	%rax, 336(%rsp)
 4360      50010000 
 4361 229f 483B7C24 		cmpq	56(%rsp), %rdi
 4361      38
 4362 22a4 7405     		je	.L322
 4363 22a6 E8000000 		call	_ZdlPv@PLT
 4363      00
 4364              	.L322:
 4365 22ab 488B7C24 		movq	48(%rsp), %rdi
 4365      30
 4366 22b0 488D0500 		leaq	16+_ZTVSt15basic_streambufIcSt11char_traitsIcEE(%rip), %rax
 4366      000000
 4367 22b7 48898424 		movq	%rax, 200(%rsp)
 4367      C8000000 
 4368 22bf E8000000 		call	_ZNSt6localeD1Ev@PLT
 4368      00
 4369 22c4 488B4424 		movq	40(%rsp), %rax
 4369      28
 4370 22c9 488B7C24 		movq	32(%rsp), %rdi
 4370      20
 4371 22ce 48898424 		movq	%rax, 192(%rsp)
 4371      C0000000 
 4372 22d6 488D0500 		leaq	16+_ZTVSt9basic_iosIcSt11char_traitsIcEE(%rip), %rax
 4372      000000
 4373 22dd 48898424 		movq	%rax, 336(%rsp)
 4373      50010000 
 4374              	.LEHB135:
 4375 22e5 E8000000 		call	_ZNSt8ios_baseD2Ev@PLT
 4375      00
 4376              	.LEHE135:
 4377 22ea E923FCFF 		jmp	.L323
 4377      FF
 4378 22ef 90       		.p2align 4,,10
 4379              		.p2align 3
 4380              	.L366:
 4381 22f0 488D9C24 		leaq	336(%rsp), %rbx
 4381      50010000 
 4382 22f8 4889DF   		movq	%rbx, %rdi
 4383 22fb 48895C24 		movq	%rbx, 32(%rsp)
 4383      20
 4384 2300 E8000000 		call	_ZNSt8ios_baseC2Ev@PLT
 4384      00
 4385 2305 31C0     		xorl	%eax, %eax
 4386 2307 660FEFC0 		pxor	%xmm0, %xmm0
 4387 230b 31F6     		xorl	%esi, %esi
 4388 230d 66898424 		movw	%ax, 560(%rsp)
 4388      30020000 
 4389 2315 488D0500 		leaq	24+_ZTCN8UnitTest15MemoryOutStreamE0_So(%rip), %rax
 4389      000000
 4390 231c 4889DF   		movq	%rbx, %rdi
 4391 231f 48894424 		movq	%rax, 40(%rsp)
 4391      28
 4392 2324 48898424 		movq	%rax, 192(%rsp)
 4392      C0000000 
 4393 232c 4883C028 		addq	$40, %rax
 4394 2330 48C78424 		movq	$0, 552(%rsp)
 4394      28020000 
 4394      00000000 
 4395 233c 48898424 		movq	%rax, 336(%rsp)
 4395      50010000 
 4396 2344 0F118424 		movups	%xmm0, 568(%rsp)
 4396      38020000 
 4397 234c 0F118424 		movups	%xmm0, 584(%rsp)
 4397      48020000 
 4398              	.LEHB136:
 4399 2354 E8000000 		call	_ZNSt9basic_iosIcSt11char_traitsIcEE4initEPSt15basic_streambufIcS1_E@PLT
 4399      00
 4400              	.LEHE136:
 4401 2359 488D0500 		leaq	64+_ZTCN8UnitTest15MemoryOutStreamE0_NSt7__cxx1119basic_ostringstreamIcSt11char_traitsIcESaIc
 4401      000000
 4402 2360 660F6F5C 		movdqa	16(%rsp), %xmm3
 4402      2410
 4403 2366 660FEFC0 		pxor	%xmm0, %xmm0
 4404 236a 4C8DA424 		leaq	192(%rsp), %r12
 4404      C0000000 
 4405 2372 48894424 		movq	%rax, 96(%rsp)
 4405      60
 4406 2377 4C8DB424 		leaq	200(%rsp), %r14
 4406      C8000000 
 4407 237f 48898424 		movq	%rax, 336(%rsp)
 4407      50010000 
 4408 2387 488D8424 		leaq	256(%rsp), %rax
 4408      00010000 
 4409 238f 4889C7   		movq	%rax, %rdi
 4410 2392 48894424 		movq	%rax, 48(%rsp)
 4410      30
 4411 2397 0F299C24 		movaps	%xmm3, 192(%rsp)
 4411      C0000000 
 4412 239f 0F298424 		movaps	%xmm0, 208(%rsp)
 4412      D0000000 
 4413 23a7 0F298424 		movaps	%xmm0, 224(%rsp)
 4413      E0000000 
 4414 23af 0F298424 		movaps	%xmm0, 240(%rsp)
 4414      F0000000 
 4415 23b7 E8000000 		call	_ZNSt6localeC1Ev@PLT
 4415      00
 4416 23bc 488D0500 		leaq	16+_ZTVNSt7__cxx1115basic_stringbufIcSt11char_traitsIcESaIcEEE(%rip), %rax
 4416      000000
 4417 23c3 C6842420 		movb	$0, 288(%rsp)
 4417      01000000 
 4418 23cb 4C89F6   		movq	%r14, %rsi
 4419 23ce 48894424 		movq	%rax, 80(%rsp)
 4419      50
 4420 23d3 48898424 		movq	%rax, 200(%rsp)
 4420      C8000000 
 4421 23db 488D8424 		leaq	288(%rsp), %rax
 4421      20010000 
 4422 23e3 48894424 		movq	%rax, 56(%rsp)
 4422      38
 4423 23e8 48898424 		movq	%rax, 272(%rsp)
 4423      10010000 
 4424 23f0 488B8424 		movq	192(%rsp), %rax
 4424      C0000000 
 4425 23f8 48C78424 		movq	$0, 280(%rsp)
 4425      18010000 
 4425      00000000 
 4426 2404 C7842408 		movl	$16, 264(%rsp)
 4426      01000010 
 4426      000000
 4427 240f 488B78E8 		movq	-24(%rax), %rdi
 4428 2413 4C01E7   		addq	%r12, %rdi
 4429              	.LEHB137:
 4430 2416 E8000000 		call	_ZNSt9basic_iosIcSt11char_traitsIcEE4initEPSt15basic_streambufIcS1_E@PLT
 4430      00
 4431              	.LEHE137:
 4432 241b 488D0500 		leaq	24+_ZTVN8UnitTest15MemoryOutStreamE(%rip), %rax
 4432      000000
 4433 2422 BA0B0000 		movl	$11, %edx
 4433      00
 4434 2427 4C89E7   		movq	%r12, %rdi
 4435 242a 48C78424 		movq	$0, 312(%rsp)
 4435      38010000 
 4435      00000000 
 4436 2436 48894424 		movq	%rax, 72(%rsp)
 4436      48
 4437 243b 488D3500 		leaq	.LC6(%rip), %rsi
 4437      000000
 4438 2442 48898424 		movq	%rax, 192(%rsp)
 4438      C0000000 
 4439 244a 4883C028 		addq	$40, %rax
 4440 244e 48894424 		movq	%rax, 88(%rsp)
 4440      58
 4441 2453 48898424 		movq	%rax, 336(%rsp)
 4441      50010000 
 4442 245b 488D8424 		leaq	320(%rsp), %rax
 4442      40010000 
 4443 2463 48894424 		movq	%rax, 64(%rsp)
 4443      40
 4444 2468 48898424 		movq	%rax, 304(%rsp)
 4444      30010000 
 4445 2470 C6842440 		movb	$0, 320(%rsp)
 4445      01000000 
 4446              	.LEHB138:
 4447 2478 E8000000 		call	_ZSt16__ostream_insertIcSt11char_traitsIcEERSt13basic_ostreamIT_T0_ES6_PKS3_l@PLT
 4447      00
 4448 247d 488D8424 		leaq	616(%rsp), %rax
 4448      68020000 
 4449 2485 488D9C24 		leaq	603(%rsp), %rbx
 4449      5B020000 
 4450 248d 48894424 		movq	%rax, 16(%rsp)
 4450      10
 4451 2492 4C8D7424 		leaq	115(%rsp), %r14
 4451      73
 4452 2497 4C8D2D00 		leaq	.LC7(%rip), %r13
 4452      000000
 4453 249e 6690     		.p2align 4,,10
 4454              		.p2align 3
 4455              	.L332:
 4456 24a0 0FB603   		movzbl	(%rbx), %eax
 4457 24a3 BA010000 		movl	$1, %edx
 4457      00
 4458 24a8 4C89F6   		movq	%r14, %rsi
 4459 24ab 4C89E7   		movq	%r12, %rdi
 4460 24ae 88442473 		movb	%al, 115(%rsp)
 4461 24b2 E8000000 		call	_ZSt16__ostream_insertIcSt11char_traitsIcEERSt13basic_ostreamIT_T0_ES6_PKS3_l@PLT
 4461      00
 4462 24b7 4889C7   		movq	%rax, %rdi
 4463 24ba BA010000 		movl	$1, %edx
 4463      00
 4464 24bf 4C89EE   		movq	%r13, %rsi
 4465 24c2 E8000000 		call	_ZSt16__ostream_insertIcSt11char_traitsIcEERSt13basic_ostreamIT_T0_ES6_PKS3_l@PLT
 4465      00
 4466 24c7 4883C301 		addq	$1, %rbx
 4467 24cb 48395C24 		cmpq	%rbx, 16(%rsp)
 4467      10
 4468 24d0 75CE     		jne	.L332
 4469 24d2 BA0C0000 		movl	$12, %edx
 4469      00
 4470 24d7 488D3500 		leaq	.LC8(%rip), %rsi
 4470      000000
 4471 24de 4C89E7   		movq	%r12, %rdi
 4472 24e1 E8000000 		call	_ZSt16__ostream_insertIcSt11char_traitsIcEERSt13basic_ostreamIT_T0_ES6_PKS3_l@PLT
 4472      00
 4473 24e6 31DB     		xorl	%ebx, %ebx
 4474 24e8 4C8D7424 		leaq	120(%rsp), %r14
 4474      78
 4475 24ed 0F1F00   		.p2align 4,,10
 4476              		.p2align 3
 4477              	.L333:
 4478 24f0 488B8424 		movq	128(%rsp), %rax
 4478      80000000 
 4479 24f8 BA010000 		movl	$1, %edx
 4479      00
 4480 24fd 4C89F6   		movq	%r14, %rsi
 4481 2500 4C89E7   		movq	%r12, %rdi
 4482 2503 0FB60418 		movzbl	(%rax,%rbx), %eax
 4483 2507 88442478 		movb	%al, 120(%rsp)
 4484 250b E8000000 		call	_ZSt16__ostream_insertIcSt11char_traitsIcEERSt13basic_ostreamIT_T0_ES6_PKS3_l@PLT
 4484      00
 4485 2510 4889C7   		movq	%rax, %rdi
 4486 2513 BA010000 		movl	$1, %edx
 4486      00
 4487 2518 4C89EE   		movq	%r13, %rsi
 4488 251b E8000000 		call	_ZSt16__ostream_insertIcSt11char_traitsIcEERSt13basic_ostreamIT_T0_ES6_PKS3_l@PLT
 4488      00
 4489 2520 4883C301 		addq	$1, %rbx
 4490 2524 4883FB0D 		cmpq	$13, %rbx
 4491 2528 75C6     		jne	.L333
 4492 252a BA010000 		movl	$1, %edx
 4492      00
 4493 252f 488D3500 		leaq	.LC9(%rip), %rsi
 4493      000000
 4494 2536 4C89E7   		movq	%r12, %rdi
 4495 2539 E8000000 		call	_ZSt16__ostream_insertIcSt11char_traitsIcEERSt13basic_ostreamIT_T0_ES6_PKS3_l@PLT
 4495      00
 4496 253e 4C89E7   		movq	%r12, %rdi
 4497 2541 E8000000 		call	_ZNK8UnitTest15MemoryOutStream7GetTextEv@PLT
 4497      00
 4498 2546 488B7C24 		movq	104(%rsp), %rdi
 4498      68
 4499 254b 4889C2   		movq	%rax, %rdx
 4500 254e 4889EE   		movq	%rbp, %rsi
 4501 2551 E8000000 		call	_ZN8UnitTest11TestResults13OnTestFailureERKNS_11TestDetailsEPKc@PLT
 4501      00
 4502              	.LEHE138:
 4503 2556 488B4424 		movq	72(%rsp), %rax
 4503      48
 4504 255b 488BBC24 		movq	304(%rsp), %rdi
 4504      30010000 
 4505 2563 F30F7E05 		movq	.LC2(%rip), %xmm0
 4505      00000000 
 4506 256b 48898424 		movq	%rax, 192(%rsp)
 4506      C0000000 
 4507 2573 488B4424 		movq	88(%rsp), %rax
 4507      58
 4508 2578 0F164424 		movhps	80(%rsp), %xmm0
 4508      50
 4509 257d 48898424 		movq	%rax, 336(%rsp)
 4509      50010000 
 4510 2585 483B7C24 		cmpq	64(%rsp), %rdi
 4510      40
 4511 258a 7410     		je	.L334
 4512 258c 0F294424 		movaps	%xmm0, 16(%rsp)
 4512      10
 4513 2591 E8000000 		call	_ZdlPv@PLT
 4513      00
 4514 2596 660F6F44 		movdqa	16(%rsp), %xmm0
 4514      2410
 4515              	.L334:
 4516 259c 488B4424 		movq	96(%rsp), %rax
 4516      60
 4517 25a1 488BBC24 		movq	272(%rsp), %rdi
 4517      10010000 
 4518 25a9 0F298424 		movaps	%xmm0, 192(%rsp)
 4518      C0000000 
 4519 25b1 48898424 		movq	%rax, 336(%rsp)
 4519      50010000 
 4520 25b9 483B7C24 		cmpq	56(%rsp), %rdi
 4520      38
 4521 25be 7405     		je	.L335
 4522 25c0 E8000000 		call	_ZdlPv@PLT
 4522      00
 4523              	.L335:
 4524 25c5 488B0424 		movq	(%rsp), %rax
 4525 25c9 488B7C24 		movq	48(%rsp), %rdi
 4525      30
 4526 25ce 48898424 		movq	%rax, 200(%rsp)
 4526      C8000000 
 4527 25d6 E8000000 		call	_ZNSt6localeD1Ev@PLT
 4527      00
 4528 25db 488B4424 		movq	40(%rsp), %rax
 4528      28
 4529 25e0 488B7C24 		movq	32(%rsp), %rdi
 4529      20
 4530 25e5 48898424 		movq	%rax, 192(%rsp)
 4530      C0000000 
 4531 25ed 488D0500 		leaq	16+_ZTVSt9basic_iosIcSt11char_traitsIcEE(%rip), %rax
 4531      000000
 4532 25f4 48898424 		movq	%rax, 336(%rsp)
 4532      50010000 
 4533              	.LEHB139:
 4534 25fc E8000000 		call	_ZNSt8ios_baseD2Ev@PLT
 4534      00
 4535              	.LEHE139:
 4536 2601 E935FAFF 		jmp	.L336
 4536      FF
 4537              	.L382:
 4538 2606 E8000000 		call	__stack_chk_fail@PLT
 4538      00
 4539              	.L356:
 4540 260b F30F1EFA 		endbr64
 4541 260f 4889C7   		movq	%rax, %rdi
 4542 2612 E9000000 		jmp	.L345
 4542      00
 4543              	.L354:
 4544 2617 F30F1EFA 		endbr64
 4545 261b 4889C7   		movq	%rax, %rdi
 4546 261e E9000000 		jmp	.L342
 4546      00
 4547              	.L361:
 4548 2623 F30F1EFA 		endbr64
 4549 2627 4889C3   		movq	%rax, %rbx
 4550 262a E9000000 		jmp	.L318
 4550      00
 4551              	.L362:
 4552 262f F30F1EFA 		endbr64
 4553 2633 4889C3   		movq	%rax, %rbx
 4554 2636 E9000000 		jmp	.L317
 4554      00
 4555              	.L363:
 4556 263b F30F1EFA 		endbr64
 4557 263f 4889C3   		movq	%rax, %rbx
 4558 2642 E9000000 		jmp	.L337
 4558      00
 4559              	.L364:
 4560 2647 F30F1EFA 		endbr64
 4561 264b 4889C3   		movq	%rax, %rbx
 4562 264e E9000000 		jmp	.L329
 4562      00
 4563              	.L358:
 4564 2653 F30F1EFA 		endbr64
 4565 2657 4889C7   		movq	%rax, %rdi
 4566 265a E9000000 		jmp	.L331
 4566      00
 4567              	.L360:
 4568 265f F30F1EFA 		endbr64
 4569 2663 4889C3   		movq	%rax, %rbx
 4570 2666 E9000000 		jmp	.L324
 4570      00
 4571              	.L352:
 4572 266b F30F1EFA 		endbr64
 4573 266f 4889C7   		movq	%rax, %rdi
 4574 2672 E9000000 		jmp	.L320
 4574      00
 4575              	.L365:
 4576 2677 F30F1EFA 		endbr64
 4577 267b 4889C3   		movq	%rax, %rbx
 4578 267e E9000000 		jmp	.L328
 4578      00
 4579              	.L350:
 4580 2683 F30F1EFA 		endbr64
 4581 2687 4889C7   		movq	%rax, %rdi
 4582 268a E9000000 		jmp	.L338
 4582      00
 4583              		.section	.gcc_except_table
 4584 02c9 000000   		.align 4
 4585              	.LLSDA1215:
 4586 02cc FF       		.byte	0xff
 4587 02cd 9B       		.byte	0x9b
 4588 02ce 69       		.uleb128 .LLSDATT1215-.LLSDATTD1215
 4589              	.LLSDATTD1215:
 4590 02cf 01       		.byte	0x1
 4591 02d0 5C       		.uleb128 .LLSDACSE1215-.LLSDACSB1215
 4592              	.LLSDACSB1215:
 4593 02d1 5F       		.uleb128 .LEHB124-.LFB1215
 4594 02d2 05       		.uleb128 .LEHE124-.LEHB124
 4595 02d3 00       		.uleb128 0
 4596 02d4 00       		.uleb128 0
 4597 02d5 68       		.uleb128 .LEHB125-.LFB1215
 4598 02d6 42       		.uleb128 .LEHE125-.LEHB125
 4599 02d7 8311     		.uleb128 .L350-.LFB1215
 4600 02d9 01       		.uleb128 0x1
 4601 02da BF01     		.uleb128 .LEHB126-.LFB1215
 4602 02dc 0F       		.uleb128 .LEHE126-.LEHB126
 4603 02dd 00       		.uleb128 0
 4604 02de 00       		.uleb128 0
 4605 02df D101     		.uleb128 .LEHB127-.LFB1215
 4606 02e1 1A       		.uleb128 .LEHE127-.LEHB127
 4607 02e2 EB10     		.uleb128 .L352-.LFB1215
 4608 02e4 01       		.uleb128 0x1
 4609 02e5 9202     		.uleb128 .LEHB128-.LFB1215
 4610 02e7 3E       		.uleb128 .LEHE128-.LEHB128
 4611 02e8 9710     		.uleb128 .L354-.LFB1215
 4612 02ea 01       		.uleb128 0x1
 4613 02eb D002     		.uleb128 .LEHB129-.LFB1215
 4614 02ed 3E       		.uleb128 .LEHE129-.LEHB129
 4615 02ee 8B10     		.uleb128 .L356-.LFB1215
 4616 02f0 01       		.uleb128 0x1
 4617 02f1 8E03     		.uleb128 .LEHB130-.LFB1215
 4618 02f3 1A       		.uleb128 .LEHE130-.LEHB130
 4619 02f4 D310     		.uleb128 .L358-.LFB1215
 4620 02f6 01       		.uleb128 0x1
 4621 02f7 BE04     		.uleb128 .LEHB131-.LFB1215
 4622 02f9 05       		.uleb128 .LEHE131-.LEHB131
 4623 02fa 00       		.uleb128 0
 4624 02fb 00       		.uleb128 0
 4625 02fc D405     		.uleb128 .LEHB132-.LFB1215
 4626 02fe 05       		.uleb128 .LEHE132-.LEHB132
 4627 02ff A310     		.uleb128 .L361-.LFB1215
 4628 0301 03       		.uleb128 0x3
 4629 0302 9507     		.uleb128 .LEHB133-.LFB1215
 4630 0304 05       		.uleb128 .LEHE133-.LEHB133
 4631 0305 AF10     		.uleb128 .L362-.LFB1215
 4632 0307 03       		.uleb128 0x3
 4633 0308 F707     		.uleb128 .LEHB134-.LFB1215
 4634 030a 47       		.uleb128 .LEHE134-.LEHB134
 4635 030b DF10     		.uleb128 .L360-.LFB1215
 4636 030d 03       		.uleb128 0x3
 4637 030e E509     		.uleb128 .LEHB135-.LFB1215
 4638 0310 05       		.uleb128 .LEHE135-.LEHB135
 4639 0311 EB10     		.uleb128 .L352-.LFB1215
 4640 0313 01       		.uleb128 0x1
 4641 0314 D40A     		.uleb128 .LEHB136-.LFB1215
 4642 0316 05       		.uleb128 .LEHE136-.LEHB136
 4643 0317 C710     		.uleb128 .L364-.LFB1215
 4644 0319 03       		.uleb128 0x3
 4645 031a 960C     		.uleb128 .LEHB137-.LFB1215
 4646 031c 05       		.uleb128 .LEHE137-.LEHB137
 4647 031d F710     		.uleb128 .L365-.LFB1215
 4648 031f 03       		.uleb128 0x3
 4649 0320 F80C     		.uleb128 .LEHB138-.LFB1215
 4650 0322 DE01     		.uleb128 .LEHE138-.LEHB138
 4651 0324 BB10     		.uleb128 .L363-.LFB1215
 4652 0326 03       		.uleb128 0x3
 4653 0327 FC0F     		.uleb128 .LEHB139-.LFB1215
 4654 0329 05       		.uleb128 .LEHE139-.LEHB139
 4655 032a D310     		.uleb128 .L358-.LFB1215
 4656 032c 01       		.uleb128 0x1
 4657              	.LLSDACSE1215:
 4658 032d 01       		.byte	0x1
 4659 032e 00       		.byte	0
 4660 032f 00       		.byte	0
 4661 0330 7D       		.byte	0x7d
 4662 0331 000000   		.align 4
 4663 0334 00000000 		.long	0
 4664              	
 4665              	.LLSDATT1215:
 4666              		.text
 4667              		.cfi_endproc
 4668              		.section	.text.unlikely
 4669              		.cfi_startproc
 4670              		.cfi_personality 0x9b,DW.ref.__gxx_personality_v0
 4671              		.cfi_lsda 0x1b,.LLSDAC1215
 4673              	_ZNK22TestI2C_testInitialise7RunImplEv.cold:
 4674              	.LFSB1215:
 4675              	.L345:
 4676              		.cfi_def_cfa_offset 688
 4677              		.cfi_offset 3, -56
 4678              		.cfi_offset 6, -48
 4679              		.cfi_offset 12, -40
 4680              		.cfi_offset 13, -32
 4681              		.cfi_offset 14, -24
 4682              		.cfi_offset 15, -16
 4683 069e E8000000 		call	__cxa_begin_catch@PLT
 4683      00
 4684              	.LEHB140:
 4685 06a3 E8000000 		call	_ZN8UnitTest11CurrentTest7ResultsEv@PLT
 4685      00
 4686 06a8 4C8B20   		movq	(%rax), %r12
 4687 06ab E8000000 		call	_ZN8UnitTest11CurrentTest7DetailsEv@PLT
 4687      00
 4688 06b0 488B30   		movq	(%rax), %rsi
 4689 06b3 BA2A0000 		movl	$42, %edx
 4689      00
 4690 06b8 4889EF   		movq	%rbp, %rdi
 4691 06bb E8000000 		call	_ZN8UnitTest11TestDetailsC1ERKS0_i@PLT
 4691      00
 4692 06c0 488D1500 		leaq	.LC18(%rip), %rdx
 4692      000000
 4693 06c7 4889EE   		movq	%rbp, %rsi
 4694 06ca 4C89E7   		movq	%r12, %rdi
 4695 06cd E8000000 		call	_ZN8UnitTest11TestResults13OnTestFailureERKNS_11TestDetailsEPKc@PLT
 4695      00
 4696              	.LEHE140:
 4697              	.LEHB141:
 4698 06d2 E8000000 		call	__cxa_end_catch@PLT
 4698      00
 4699              	.LEHE141:
 4700 06d7 E9000000 		jmp	.L346
 4700      00
 4701              	.L342:
 4702 06dc E8000000 		call	__cxa_begin_catch@PLT
 4702      00
 4703              	.LEHB142:
 4704 06e1 E8000000 		call	_ZN8UnitTest11CurrentTest7ResultsEv@PLT
 4704      00
 4705 06e6 4C8B20   		movq	(%rax), %r12
 4706 06e9 E8000000 		call	_ZN8UnitTest11CurrentTest7DetailsEv@PLT
 4706      00
 4707 06ee 488B30   		movq	(%rax), %rsi
 4708 06f1 BA290000 		movl	$41, %edx
 4708      00
 4709 06f6 4889EF   		movq	%rbp, %rdi
 4710 06f9 E8000000 		call	_ZN8UnitTest11TestDetailsC1ERKS0_i@PLT
 4710      00
 4711 06fe 488D1500 		leaq	.LC17(%rip), %rdx
 4711      000000
 4712 0705 4889EE   		movq	%rbp, %rsi
 4713 0708 4C89E7   		movq	%r12, %rdi
 4714 070b E8000000 		call	_ZN8UnitTest11TestResults13OnTestFailureERKNS_11TestDetailsEPKc@PLT
 4714      00
 4715              	.LEHE142:
 4716              	.LEHB143:
 4717 0710 E8000000 		call	__cxa_end_catch@PLT
 4717      00
 4718              	.LEHE143:
 4719 0715 E9000000 		jmp	.L343
 4719      00
 4720              	.L317:
 4721 071a 4C89F7   		movq	%r14, %rdi
 4722 071d E8000000 		call	_ZNSt7__cxx1115basic_stringbufIcSt11char_traitsIcESaIcEED1Ev
 4722      00
 4723 0722 488B4424 		movq	40(%rsp), %rax
 4723      28
 4724 0727 48898424 		movq	%rax, 192(%rsp)
 4724      C0000000 
 4725              	.L318:
 4726 072f 488B7C24 		movq	32(%rsp), %rdi
 4726      20
 4727 0734 488D0500 		leaq	16+_ZTVSt9basic_iosIcSt11char_traitsIcEE(%rip), %rax
 4727      000000
 4728 073b 48898424 		movq	%rax, 336(%rsp)
 4728      50010000 
 4729 0743 E8000000 		call	_ZNSt8ios_baseD2Ev@PLT
 4729      00
 4730 0748 4889DF   		movq	%rbx, %rdi
 4731              	.L320:
 4732 074b E8000000 		call	__cxa_begin_catch@PLT
 4732      00
 4733              	.LEHB144:
 4734 0750 E8000000 		call	_ZN8UnitTest11CurrentTest7ResultsEv@PLT
 4734      00
 4735 0755 4C8B20   		movq	(%rax), %r12
 4736 0758 E8000000 		call	_ZN8UnitTest11CurrentTest7DetailsEv@PLT
 4736      00
 4737 075d 488B30   		movq	(%rax), %rsi
 4738 0760 BA280000 		movl	$40, %edx
 4738      00
 4739 0765 4889EF   		movq	%rbp, %rdi
 4740 0768 E8000000 		call	_ZN8UnitTest11TestDetailsC1ERKS0_i@PLT
 4740      00
 4741 076d 488D1500 		leaq	.LC11(%rip), %rdx
 4741      000000
 4742 0774 4889EE   		movq	%rbp, %rsi
 4743 0777 4C89E7   		movq	%r12, %rdi
 4744 077a E8000000 		call	_ZN8UnitTest11TestResults13OnTestFailureERKNS_11TestDetailsEPKc@PLT
 4744      00
 4745              	.LEHE144:
 4746              	.LEHB145:
 4747 077f E8000000 		call	__cxa_end_catch@PLT
 4747      00
 4748              	.LEHE145:
 4749 0784 E9000000 		jmp	.L323
 4749      00
 4750              	.L357:
 4751 0789 F30F1EFA 		endbr64
 4752 078d 4889C5   		movq	%rax, %rbp
 4753 0790 E8000000 		call	__cxa_end_catch@PLT
 4753      00
 4754 0795 4889EF   		movq	%rbp, %rdi
 4755              	.LEHB146:
 4756 0798 E8000000 		call	_Unwind_Resume@PLT
 4756      00
 4757              	.LEHE146:
 4758              	.L355:
 4759 079d F30F1EFA 		endbr64
 4760 07a1 4889C5   		movq	%rax, %rbp
 4761 07a4 E8000000 		call	__cxa_end_catch@PLT
 4761      00
 4762 07a9 4889EF   		movq	%rbp, %rdi
 4763              	.LEHB147:
 4764 07ac E8000000 		call	_Unwind_Resume@PLT
 4764      00
 4765              	.LEHE147:
 4766              	.L337:
 4767 07b1 4C89E7   		movq	%r12, %rdi
 4768 07b4 E8000000 		call	_ZN8UnitTest15MemoryOutStreamD1Ev
 4768      00
 4769 07b9 4889DF   		movq	%rbx, %rdi
 4770              	.L331:
 4771 07bc E8000000 		call	__cxa_begin_catch@PLT
 4771      00
 4772              	.LEHB148:
 4773 07c1 E8000000 		call	_ZN8UnitTest11CurrentTest7ResultsEv@PLT
 4773      00
 4774 07c6 4C8B20   		movq	(%rax), %r12
 4775 07c9 E8000000 		call	_ZN8UnitTest11CurrentTest7DetailsEv@PLT
 4775      00
 4776 07ce 488B30   		movq	(%rax), %rsi
 4777 07d1 BA2B0000 		movl	$43, %edx
 4777      00
 4778 07d6 4889EF   		movq	%rbp, %rdi
 4779 07d9 E8000000 		call	_ZN8UnitTest11TestDetailsC1ERKS0_i@PLT
 4779      00
 4780 07de 488D1500 		leaq	.LC19(%rip), %rdx
 4780      000000
 4781 07e5 4889EE   		movq	%rbp, %rsi
 4782 07e8 4C89E7   		movq	%r12, %rdi
 4783 07eb E8000000 		call	_ZN8UnitTest11TestResults13OnTestFailureERKNS_11TestDetailsEPKc@PLT
 4783      00
 4784              	.LEHE148:
 4785              	.LEHB149:
 4786 07f0 E8000000 		call	__cxa_end_catch@PLT
 4786      00
 4787              	.LEHE149:
 4788 07f5 E9000000 		jmp	.L336
 4788      00
 4789              	.L328:
 4790 07fa 4C89F7   		movq	%r14, %rdi
 4791 07fd E8000000 		call	_ZNSt7__cxx1115basic_stringbufIcSt11char_traitsIcESaIcEED1Ev
 4791      00
 4792 0802 488B4424 		movq	40(%rsp), %rax
 4792      28
 4793 0807 48898424 		movq	%rax, 192(%rsp)
 4793      C0000000 
 4794              	.L329:
 4795 080f 488B7C24 		movq	32(%rsp), %rdi
 4795      20
 4796 0814 488D0500 		leaq	16+_ZTVSt9basic_iosIcSt11char_traitsIcEE(%rip), %rax
 4796      000000
 4797 081b 48898424 		movq	%rax, 336(%rsp)
 4797      50010000 
 4798 0823 E8000000 		call	_ZNSt8ios_baseD2Ev@PLT
 4798      00
 4799 0828 4889DF   		movq	%rbx, %rdi
 4800 082b EB8F     		jmp	.L331
 4801              	.L353:
 4802 082d F30F1EFA 		endbr64
 4803 0831 4889C5   		movq	%rax, %rbp
 4804 0834 E8000000 		call	__cxa_end_catch@PLT
 4804      00
 4805 0839 4889EF   		movq	%rbp, %rdi
 4806              	.LEHB150:
 4807 083c E8000000 		call	_Unwind_Resume@PLT
 4807      00
 4808              	.LEHE150:
 4809              	.L359:
 4810 0841 F30F1EFA 		endbr64
 4811 0845 4889C5   		movq	%rax, %rbp
 4812 0848 E8000000 		call	__cxa_end_catch@PLT
 4812      00
 4813 084d 4889EF   		movq	%rbp, %rdi
 4814              	.LEHB151:
 4815 0850 E8000000 		call	_Unwind_Resume@PLT
 4815      00
 4816              	.LEHE151:
 4817              	.L324:
 4818 0855 4C89E7   		movq	%r12, %rdi
 4819 0858 E8000000 		call	_ZN8UnitTest15MemoryOutStreamD1Ev
 4819      00
 4820 085d 4889DF   		movq	%rbx, %rdi
 4821 0860 E9E6FEFF 		jmp	.L320
 4821      FF
 4822              	.L338:
 4823 0865 E8000000 		call	__cxa_begin_catch@PLT
 4823      00
 4824              	.LEHB152:
 4825 086a E8000000 		call	_ZN8UnitTest11CurrentTest7ResultsEv@PLT
 4825      00
 4826 086f 4C8B20   		movq	(%rax), %r12
 4827 0872 E8000000 		call	_ZN8UnitTest11CurrentTest7DetailsEv@PLT
 4827      00
 4828 0877 488DAC24 		leaq	160(%rsp), %rbp
 4828      A0000000 
 4829 087f 488B30   		movq	(%rax), %rsi
 4830 0882 BA250000 		movl	$37, %edx
 4830      00
 4831 0887 4889EF   		movq	%rbp, %rdi
 4832 088a E8000000 		call	_ZN8UnitTest11TestDetailsC1ERKS0_i@PLT
 4832      00
 4833 088f 488D1500 		leaq	.LC10(%rip), %rdx
 4833      000000
 4834 0896 4889EE   		movq	%rbp, %rsi
 4835 0899 4C89E7   		movq	%r12, %rdi
 4836 089c E8000000 		call	_ZN8UnitTest11TestResults13OnTestFailureERKNS_11TestDetailsEPKc@PLT
 4836      00
 4837              	.LEHE152:
 4838              	.LEHB153:
 4839 08a1 E8000000 		call	__cxa_end_catch@PLT
 4839      00
 4840              	.LEHE153:
 4841 08a6 E9000000 		jmp	.L339
 4841      00
 4842              	.L351:
 4843 08ab F30F1EFA 		endbr64
 4844 08af 4889C5   		movq	%rax, %rbp
 4845 08b2 E8000000 		call	__cxa_end_catch@PLT
 4845      00
 4846 08b7 4889EF   		movq	%rbp, %rdi
 4847              	.LEHB154:
 4848 08ba E8000000 		call	_Unwind_Resume@PLT
 4848      00
 4849              	.LEHE154:
 4850              		.cfi_endproc
 4851              	.LFE1215:
 4852              		.section	.gcc_except_table
 4853              		.align 4
 4854              	.LLSDAC1215:
 4855 0338 FF       		.byte	0xff
 4856 0339 9B       		.byte	0x9b
 4857 033a 59       		.uleb128 .LLSDATTC1215-.LLSDATTDC1215
 4858              	.LLSDATTDC1215:
 4859 033b 01       		.byte	0x1
 4860 033c 4C       		.uleb128 .LLSDACSEC1215-.LLSDACSBC1215
 4861              	.LLSDACSBC1215:
 4862 033d 05       		.uleb128 .LEHB140-.LCOLDB20
 4863 033e 2F       		.uleb128 .LEHE140-.LEHB140
 4864 033f EB01     		.uleb128 .L357-.LCOLDB20
 4865 0341 00       		.uleb128 0
 4866 0342 34       		.uleb128 .LEHB141-.LCOLDB20
 4867 0343 05       		.uleb128 .LEHE141-.LEHB141
 4868 0344 00       		.uleb128 0
 4869 0345 00       		.uleb128 0
 4870 0346 43       		.uleb128 .LEHB142-.LCOLDB20
 4871 0347 2F       		.uleb128 .LEHE142-.LEHB142
 4872 0348 FF01     		.uleb128 .L355-.LCOLDB20
 4873 034a 00       		.uleb128 0
 4874 034b 72       		.uleb128 .LEHB143-.LCOLDB20
 4875 034c 05       		.uleb128 .LEHE143-.LEHB143
 4876 034d 00       		.uleb128 0
 4877 034e 00       		.uleb128 0
 4878 034f B201     		.uleb128 .LEHB144-.LCOLDB20
 4879 0351 2F       		.uleb128 .LEHE144-.LEHB144
 4880 0352 8F03     		.uleb128 .L353-.LCOLDB20
 4881 0354 00       		.uleb128 0
 4882 0355 E101     		.uleb128 .LEHB145-.LCOLDB20
 4883 0357 05       		.uleb128 .LEHE145-.LEHB145
 4884 0358 00       		.uleb128 0
 4885 0359 00       		.uleb128 0
 4886 035a FA01     		.uleb128 .LEHB146-.LCOLDB20
 4887 035c 05       		.uleb128 .LEHE146-.LEHB146
 4888 035d 00       		.uleb128 0
 4889 035e 00       		.uleb128 0
 4890 035f 8E02     		.uleb128 .LEHB147-.LCOLDB20
 4891 0361 05       		.uleb128 .LEHE147-.LEHB147
 4892 0362 00       		.uleb128 0
 4893 0363 00       		.uleb128 0
 4894 0364 A302     		.uleb128 .LEHB148-.LCOLDB20
 4895 0366 2F       		.uleb128 .LEHE148-.LEHB148
 4896 0367 A303     		.uleb128 .L359-.LCOLDB20
 4897 0369 00       		.uleb128 0
 4898 036a D202     		.uleb128 .LEHB149-.LCOLDB20
 4899 036c 05       		.uleb128 .LEHE149-.LEHB149
 4900 036d 00       		.uleb128 0
 4901 036e 00       		.uleb128 0
 4902 036f 9E03     		.uleb128 .LEHB150-.LCOLDB20
 4903 0371 05       		.uleb128 .LEHE150-.LEHB150
 4904 0372 00       		.uleb128 0
 4905 0373 00       		.uleb128 0
 4906 0374 B203     		.uleb128 .LEHB151-.LCOLDB20
 4907 0376 05       		.uleb128 .LEHE151-.LEHB151
 4908 0377 00       		.uleb128 0
 4909 0378 00       		.uleb128 0
 4910 0379 CC03     		.uleb128 .LEHB152-.LCOLDB20
 4911 037b 37       		.uleb128 .LEHE152-.LEHB152
 4912 037c 8D04     		.uleb128 .L351-.LCOLDB20
 4913 037e 00       		.uleb128 0
 4914 037f 8304     		.uleb128 .LEHB153-.LCOLDB20
 4915 0381 05       		.uleb128 .LEHE153-.LEHB153
 4916 0382 00       		.uleb128 0
 4917 0383 00       		.uleb128 0
 4918 0384 9C04     		.uleb128 .LEHB154-.LCOLDB20
 4919 0386 05       		.uleb128 .LEHE154-.LEHB154
 4920 0387 00       		.uleb128 0
 4921 0388 00       		.uleb128 0
 4922              	.LLSDACSEC1215:
 4923 0389 01       		.byte	0x1
 4924 038a 00       		.byte	0
 4925 038b 00       		.byte	0
 4926 038c 7D       		.byte	0x7d
 4927 038d 000000   		.align 4
 4928 0390 00000000 		.long	0
 4929              	
 4930              	.LLSDATTC1215:
 4931              		.section	.text.unlikely
 4932              		.text
 4934              		.section	.text.unlikely
 4936              	.LCOLDE20:
 4937              		.text
 4938              	.LHOTE20:
 4939              		.section	.rodata.str1.1
 4940              	.LC21:
 4941 0031 74657374 		.string	"testI2C.cpp"
 4941      4932432E 
 4941      63707000 
 4942              	.LC22:
 4943 003d 44656661 		.string	"DefaultSuite"
 4943      756C7453 
 4943      75697465 
 4943      00
 4944              	.LC23:
 4945 004a 4932435F 		.string	"I2C_testInitialise"
 4945      74657374 
 4945      496E6974 
 4945      69616C69 
 4945      736500
 4946              	.LC24:
 4947 005d 4932435F 		.string	"I2C_testRoundTrip"
 4947      74657374 
 4947      526F756E 
 4947      64547269 
 4947      7000
 4948              	.LC25:
 4949 006f 4932435F 		.string	"I2C_testWPRNoInit"
 4949      74657374 
 4949      5750524E 
 4949      6F496E69 
 4949      7400
 4950              	.LC26:
 4951 0081 4932435F 		.string	"I2C_testFinaliseNoInit"
 4951      74657374 
 4951      46696E61 
 4951      6C697365 
 4951      4E6F496E 
 4952              		.section	.text.startup,"ax",@progbits
 4953              		.p2align 4
 4955              	_GLOBAL__sub_I_testI2C_testInitialiseInstance:
 4956              	.LFB1336:
 4957              		.cfi_startproc
 4958 0000 F30F1EFA 		endbr64
 4959 0004 4157     		pushq	%r15
 4960              		.cfi_def_cfa_offset 16
 4961              		.cfi_offset 15, -16
 4962 0006 4C8D3D00 		leaq	testI2C_testInitialiseInstance(%rip), %r15
 4962      000000
 4963 000d 41B81F00 		movl	$31, %r8d
 4963      0000
 4964 0013 488D3500 		leaq	.LC23(%rip), %rsi
 4964      000000
 4965 001a 4156     		pushq	%r14
 4966              		.cfi_def_cfa_offset 24
 4967              		.cfi_offset 14, -24
 4968 001c 4C8D3500 		leaq	.LC21(%rip), %r14
 4968      000000
 4969 0023 4C89FF   		movq	%r15, %rdi
 4970 0026 4155     		pushq	%r13
 4971              		.cfi_def_cfa_offset 32
 4972              		.cfi_offset 13, -32
 4973 0028 4C8D2D00 		leaq	.LC22(%rip), %r13
 4973      000000
 4974 002f 4C89F1   		movq	%r14, %rcx
 4975 0032 4154     		pushq	%r12
 4976              		.cfi_def_cfa_offset 40
 4977              		.cfi_offset 12, -40
 4978 0034 4C89EA   		movq	%r13, %rdx
 4979 0037 4C8D2500 		leaq	__dso_handle(%rip), %r12
 4979      000000
 4980 003e 4883EC08 		subq	$8, %rsp
 4981              		.cfi_def_cfa_offset 48
 4982 0042 E8000000 		call	_ZN8UnitTest4TestC2EPKcS2_S2_i@PLT
 4982      00
 4983 0047 4C89E2   		movq	%r12, %rdx
 4984 004a 4C89FE   		movq	%r15, %rsi
 4985 004d 488D3D00 		leaq	_ZN22TestI2C_testInitialiseD1Ev(%rip), %rdi
 4985      000000
 4986 0054 488D0500 		leaq	16+_ZTV22TestI2C_testInitialise(%rip), %rax
 4986      000000
 4987 005b 48890500 		movq	%rax, testI2C_testInitialiseInstance(%rip)
 4987      000000
 4988 0062 E8000000 		call	__cxa_atexit@PLT
 4988      00
 4989 0067 E8000000 		call	_ZN8UnitTest4Test11GetTestListEv@PLT
 4989      00
 4990 006c 4C89FA   		movq	%r15, %rdx
 4991 006f 488D3D00 		leaq	adderI2C_testInitialise(%rip), %rdi
 4991      000000
 4992 0076 4C8D3D00 		leaq	testI2C_testRoundTripInstance(%rip), %r15
 4992      000000
 4993 007d 4889C6   		movq	%rax, %rsi
 4994 0080 E8000000 		call	_ZN8UnitTest9ListAdderC1ERNS_8TestListEPNS_4TestE@PLT
 4994      00
 4995 0085 4C89F1   		movq	%r14, %rcx
 4996 0088 4C89EA   		movq	%r13, %rdx
 4997 008b 4C89FF   		movq	%r15, %rdi
 4998 008e 41B82F00 		movl	$47, %r8d
 4998      0000
 4999 0094 488D3500 		leaq	.LC24(%rip), %rsi
 4999      000000
 5000 009b E8000000 		call	_ZN8UnitTest4TestC2EPKcS2_S2_i@PLT
 5000      00
 5001 00a0 4C89E2   		movq	%r12, %rdx
 5002 00a3 4C89FE   		movq	%r15, %rsi
 5003 00a6 488D3D00 		leaq	_ZN21TestI2C_testRoundTripD1Ev(%rip), %rdi
 5003      000000
 5004 00ad 488D0500 		leaq	16+_ZTV21TestI2C_testRoundTrip(%rip), %rax
 5004      000000
 5005 00b4 48890500 		movq	%rax, testI2C_testRoundTripInstance(%rip)
 5005      000000
 5006 00bb E8000000 		call	__cxa_atexit@PLT
 5006      00
 5007 00c0 E8000000 		call	_ZN8UnitTest4Test11GetTestListEv@PLT
 5007      00
 5008 00c5 4C89FA   		movq	%r15, %rdx
 5009 00c8 488D3D00 		leaq	adderI2C_testRoundTrip(%rip), %rdi
 5009      000000
 5010 00cf 4C8D3D00 		leaq	testI2C_testWPRNoInitInstance(%rip), %r15
 5010      000000
 5011 00d6 4889C6   		movq	%rax, %rsi
 5012 00d9 E8000000 		call	_ZN8UnitTest9ListAdderC1ERNS_8TestListEPNS_4TestE@PLT
 5012      00
 5013 00de 4C89F1   		movq	%r14, %rcx
 5014 00e1 4C89EA   		movq	%r13, %rdx
 5015 00e4 4C89FF   		movq	%r15, %rdi
 5016 00e7 41B85F00 		movl	$95, %r8d
 5016      0000
 5017 00ed 488D3500 		leaq	.LC25(%rip), %rsi
 5017      000000
 5018 00f4 E8000000 		call	_ZN8UnitTest4TestC2EPKcS2_S2_i@PLT
 5018      00
 5019 00f9 4C89E2   		movq	%r12, %rdx
 5020 00fc 4C89FE   		movq	%r15, %rsi
 5021 00ff 488D3D00 		leaq	_ZN21TestI2C_testWPRNoInitD1Ev(%rip), %rdi
 5021      000000
 5022 0106 488D0500 		leaq	16+_ZTV21TestI2C_testWPRNoInit(%rip), %rax
 5022      000000
 5023 010d 48890500 		movq	%rax, testI2C_testWPRNoInitInstance(%rip)
 5023      000000
 5024 0114 E8000000 		call	__cxa_atexit@PLT
 5024      00
 5025 0119 E8000000 		call	_ZN8UnitTest4Test11GetTestListEv@PLT
 5025      00
 5026 011e 4C89FA   		movq	%r15, %rdx
 5027 0121 488D3D00 		leaq	adderI2C_testWPRNoInit(%rip), %rdi
 5027      000000
 5028 0128 4889C6   		movq	%rax, %rsi
 5029 012b E8000000 		call	_ZN8UnitTest9ListAdderC1ERNS_8TestListEPNS_4TestE@PLT
 5029      00
 5030 0130 4C89EA   		movq	%r13, %rdx
 5031 0133 4C89F1   		movq	%r14, %rcx
 5032 0136 4C8D2D00 		leaq	testI2C_testFinaliseNoInitInstance(%rip), %r13
 5032      000000
 5033 013d 41B86A00 		movl	$106, %r8d
 5033      0000
 5034 0143 4C89EF   		movq	%r13, %rdi
 5035 0146 488D3500 		leaq	.LC26(%rip), %rsi
 5035      000000
 5036 014d E8000000 		call	_ZN8UnitTest4TestC2EPKcS2_S2_i@PLT
 5036      00
 5037 0152 4C89E2   		movq	%r12, %rdx
 5038 0155 4C89EE   		movq	%r13, %rsi
 5039 0158 488D3D00 		leaq	_ZN26TestI2C_testFinaliseNoInitD1Ev(%rip), %rdi
 5039      000000
 5040 015f 488D0500 		leaq	16+_ZTV26TestI2C_testFinaliseNoInit(%rip), %rax
 5040      000000
 5041 0166 48890500 		movq	%rax, testI2C_testFinaliseNoInitInstance(%rip)
 5041      000000
 5042 016d E8000000 		call	__cxa_atexit@PLT
 5042      00
 5043 0172 E8000000 		call	_ZN8UnitTest4Test11GetTestListEv@PLT
 5043      00
 5044 0177 4883C408 		addq	$8, %rsp
 5045              		.cfi_def_cfa_offset 40
 5046 017b 4C89EA   		movq	%r13, %rdx
 5047 017e 488D3D00 		leaq	adderI2C_testFinaliseNoInit(%rip), %rdi
 5047      000000
 5048 0185 415C     		popq	%r12
 5049              		.cfi_def_cfa_offset 32
 5050 0187 4889C6   		movq	%rax, %rsi
 5051 018a 415D     		popq	%r13
 5052              		.cfi_def_cfa_offset 24
 5053 018c 415E     		popq	%r14
 5054              		.cfi_def_cfa_offset 16
 5055 018e 415F     		popq	%r15
 5056              		.cfi_def_cfa_offset 8
 5057 0190 E9000000 		jmp	_ZN8UnitTest9ListAdderC1ERNS_8TestListEPNS_4TestE@PLT
 5057      00
 5058              		.cfi_endproc
 5059              	.LFE1336:
 5061              		.section	.init_array,"aw"
 5062              		.align 8
 5063 0000 00000000 		.quad	_GLOBAL__sub_I_testI2C_testInitialiseInstance
 5063      00000000 
 5064              		.weak	_ZTSN8UnitTest15MemoryOutStreamE
 5065              		.section	.rodata._ZTSN8UnitTest15MemoryOutStreamE,"aG",@progbits,_ZTSN8UnitTest15MemoryOutStreamE,
 5066              		.align 16
 5069              	_ZTSN8UnitTest15MemoryOutStreamE:
 5070 0000 4E38556E 		.string	"N8UnitTest15MemoryOutStreamE"
 5070      69745465 
 5070      73743135 
 5070      4D656D6F 
 5070      72794F75 
 5071              		.weak	_ZTIN8UnitTest15MemoryOutStreamE
 5072              		.section	.data.rel.ro._ZTIN8UnitTest15MemoryOutStreamE,"awG",@progbits,_ZTIN8UnitTest15MemoryOutSt
 5073              		.align 8
 5076              	_ZTIN8UnitTest15MemoryOutStreamE:
 5077 0000 00000000 		.quad	_ZTVN10__cxxabiv120__si_class_type_infoE+16
 5077      00000000 
 5078 0008 00000000 		.quad	_ZTSN8UnitTest15MemoryOutStreamE
 5078      00000000 
 5079 0010 00000000 		.quad	_ZTINSt7__cxx1119basic_ostringstreamIcSt11char_traitsIcESaIcEEE
 5079      00000000 
 5080              		.weak	_ZTS22TestI2C_testInitialise
 5081              		.section	.rodata._ZTS22TestI2C_testInitialise,"aG",@progbits,_ZTS22TestI2C_testInitialise,comdat
 5082              		.align 16
 5085              	_ZTS22TestI2C_testInitialise:
 5086 0000 32325465 		.string	"22TestI2C_testInitialise"
 5086      73744932 
 5086      435F7465 
 5086      7374496E 
 5086      69746961 
 5087              		.weak	_ZTI22TestI2C_testInitialise
 5088              		.section	.data.rel.ro._ZTI22TestI2C_testInitialise,"awG",@progbits,_ZTI22TestI2C_testInitialise,co
 5089              		.align 8
 5092              	_ZTI22TestI2C_testInitialise:
 5093 0000 00000000 		.quad	_ZTVN10__cxxabiv120__si_class_type_infoE+16
 5093      00000000 
 5094 0008 00000000 		.quad	_ZTS22TestI2C_testInitialise
 5094      00000000 
 5095 0010 00000000 		.quad	_ZTIN8UnitTest4TestE
 5095      00000000 
 5096              		.weak	_ZTS21TestI2C_testRoundTrip
 5097              		.section	.rodata._ZTS21TestI2C_testRoundTrip,"aG",@progbits,_ZTS21TestI2C_testRoundTrip,comdat
 5098              		.align 16
 5101              	_ZTS21TestI2C_testRoundTrip:
 5102 0000 32315465 		.string	"21TestI2C_testRoundTrip"
 5102      73744932 
 5102      435F7465 
 5102      7374526F 
 5102      756E6454 
 5103              		.weak	_ZTI21TestI2C_testRoundTrip
 5104              		.section	.data.rel.ro._ZTI21TestI2C_testRoundTrip,"awG",@progbits,_ZTI21TestI2C_testRoundTrip,comd
 5105              		.align 8
 5108              	_ZTI21TestI2C_testRoundTrip:
 5109 0000 00000000 		.quad	_ZTVN10__cxxabiv120__si_class_type_infoE+16
 5109      00000000 
 5110 0008 00000000 		.quad	_ZTS21TestI2C_testRoundTrip
 5110      00000000 
 5111 0010 00000000 		.quad	_ZTIN8UnitTest4TestE
 5111      00000000 
 5112              		.weak	_ZTS21TestI2C_testWPRNoInit
 5113              		.section	.rodata._ZTS21TestI2C_testWPRNoInit,"aG",@progbits,_ZTS21TestI2C_testWPRNoInit,comdat
 5114              		.align 16
 5117              	_ZTS21TestI2C_testWPRNoInit:
 5118 0000 32315465 		.string	"21TestI2C_testWPRNoInit"
 5118      73744932 
 5118      435F7465 
 5118      73745750 
 5118      524E6F49 
 5119              		.weak	_ZTI21TestI2C_testWPRNoInit
 5120              		.section	.data.rel.ro._ZTI21TestI2C_testWPRNoInit,"awG",@progbits,_ZTI21TestI2C_testWPRNoInit,comd
 5121              		.align 8
 5124              	_ZTI21TestI2C_testWPRNoInit:
 5125 0000 00000000 		.quad	_ZTVN10__cxxabiv120__si_class_type_infoE+16
 5125      00000000 
 5126 0008 00000000 		.quad	_ZTS21TestI2C_testWPRNoInit
 5126      00000000 
 5127 0010 00000000 		.quad	_ZTIN8UnitTest4TestE
 5127      00000000 
 5128              		.weak	_ZTS26TestI2C_testFinaliseNoInit
 5129              		.section	.rodata._ZTS26TestI2C_testFinaliseNoInit,"aG",@progbits,_ZTS26TestI2C_testFinaliseNoInit,
 5130              		.align 16
 5133              	_ZTS26TestI2C_testFinaliseNoInit:
 5134 0000 32365465 		.string	"26TestI2C_testFinaliseNoInit"
 5134      73744932 
 5134      435F7465 
 5134      73744669 
 5134      6E616C69 
 5135              		.weak	_ZTI26TestI2C_testFinaliseNoInit
 5136              		.section	.data.rel.ro._ZTI26TestI2C_testFinaliseNoInit,"awG",@progbits,_ZTI26TestI2C_testFinaliseN
 5137              		.align 8
 5140              	_ZTI26TestI2C_testFinaliseNoInit:
 5141 0000 00000000 		.quad	_ZTVN10__cxxabiv120__si_class_type_infoE+16
 5141      00000000 
 5142 0008 00000000 		.quad	_ZTS26TestI2C_testFinaliseNoInit
 5142      00000000 
 5143 0010 00000000 		.quad	_ZTIN8UnitTest4TestE
 5143      00000000 
 5144              		.hidden	_ZTCN8UnitTest15MemoryOutStreamE0_So
 5145              		.weak	_ZTCN8UnitTest15MemoryOutStreamE0_So
 5146              		.section	.data.rel.ro._ZTCN8UnitTest15MemoryOutStreamE0_So,"awG",@progbits,_ZTVN8UnitTest15MemoryO
 5147              		.align 8
 5150              	_ZTCN8UnitTest15MemoryOutStreamE0_So:
 5151 0000 90000000 		.quad	144
 5151      00000000 
 5152 0008 00000000 		.quad	0
 5152      00000000 
 5153 0010 00000000 		.quad	_ZTISo
 5153      00000000 
 5154 0018 00000000 		.quad	0
 5154      00000000 
