   1              		.file	"TestUnitTest++.cpp"
   2              		.text
   3              	.Ltext0:
   4              		.file 0 "/home/pong/FPGALink/makestuff/libs/libutpp/tests" "TestUnitTest++.cpp"
   5              		.section	.rodata
   6              	.LC0:
   7 0000 44656661 		.string	"DefaultSuite"
   7      756C7453 
   7      75697465 
   7      00
   8              		.section	.text._ZN13UnitTestSuite12GetSuiteNameEv,"axG",@progbits,_ZN13UnitTestSuite12GetSuiteName
   9              		.weak	_ZN13UnitTestSuite12GetSuiteNameEv
  11              	_ZN13UnitTestSuite12GetSuiteNameEv:
  12              	.LFB0:
  13              		.file 1 "../TestSuite.h"
   1:../TestSuite.h **** #ifndef UNITTEST_TESTSUITE_H
   2:../TestSuite.h **** #define UNITTEST_TESTSUITE_H
   3:../TestSuite.h **** 
   4:../TestSuite.h **** namespace UnitTestSuite {
   5:../TestSuite.h **** 
   6:../TestSuite.h ****     inline char const* GetSuiteName ()
   7:../TestSuite.h ****     {
  14              		.loc 1 7 5
  15              		.cfi_startproc
  16 0000 F30F1EFA 		endbr64
  17 0004 55       		pushq	%rbp
  18              		.cfi_def_cfa_offset 16
  19              		.cfi_offset 6, -16
  20 0005 4889E5   		movq	%rsp, %rbp
  21              		.cfi_def_cfa_register 6
   8:../TestSuite.h ****         return "DefaultSuite";
  22              		.loc 1 8 16
  23 0008 488D0500 		leaq	.LC0(%rip), %rax
  23      000000
   9:../TestSuite.h ****     }
  24              		.loc 1 9 5
  25 000f 5D       		popq	%rbp
  26              		.cfi_def_cfa 7, 8
  27 0010 C3       		ret
  28              		.cfi_endproc
  29              	.LFE0:
  31              		.section	.text._ZSt17__size_to_integerm,"axG",@progbits,_ZSt17__size_to_integerm,comdat
  32              		.weak	_ZSt17__size_to_integerm
  34              	_ZSt17__size_to_integerm:
  35              	.LFB217:
  36              		.file 2 "/usr/include/c++/11/bits/stl_algobase.h"
   1:/usr/include/c++/11/bits/stl_algobase.h **** // Core algorithmic facilities -*- C++ -*-
   2:/usr/include/c++/11/bits/stl_algobase.h **** 
   3:/usr/include/c++/11/bits/stl_algobase.h **** // Copyright (C) 2001-2021 Free Software Foundation, Inc.
   4:/usr/include/c++/11/bits/stl_algobase.h **** //
   5:/usr/include/c++/11/bits/stl_algobase.h **** // This file is part of the GNU ISO C++ Library.  This library is free
   6:/usr/include/c++/11/bits/stl_algobase.h **** // software; you can redistribute it and/or modify it under the
   7:/usr/include/c++/11/bits/stl_algobase.h **** // terms of the GNU General Public License as published by the
   8:/usr/include/c++/11/bits/stl_algobase.h **** // Free Software Foundation; either version 3, or (at your option)
   9:/usr/include/c++/11/bits/stl_algobase.h **** // any later version.
  10:/usr/include/c++/11/bits/stl_algobase.h **** 
  11:/usr/include/c++/11/bits/stl_algobase.h **** // This library is distributed in the hope that it will be useful,
  12:/usr/include/c++/11/bits/stl_algobase.h **** // but WITHOUT ANY WARRANTY; without even the implied warranty of
  13:/usr/include/c++/11/bits/stl_algobase.h **** // MERCHANTABILITY or FITNESS FOR A PARTICULAR PURPOSE.  See the
  14:/usr/include/c++/11/bits/stl_algobase.h **** // GNU General Public License for more details.
  15:/usr/include/c++/11/bits/stl_algobase.h **** 
  16:/usr/include/c++/11/bits/stl_algobase.h **** // Under Section 7 of GPL version 3, you are granted additional
  17:/usr/include/c++/11/bits/stl_algobase.h **** // permissions described in the GCC Runtime Library Exception, version
  18:/usr/include/c++/11/bits/stl_algobase.h **** // 3.1, as published by the Free Software Foundation.
  19:/usr/include/c++/11/bits/stl_algobase.h **** 
  20:/usr/include/c++/11/bits/stl_algobase.h **** // You should have received a copy of the GNU General Public License and
  21:/usr/include/c++/11/bits/stl_algobase.h **** // a copy of the GCC Runtime Library Exception along with this program;
  22:/usr/include/c++/11/bits/stl_algobase.h **** // see the files COPYING3 and COPYING.RUNTIME respectively.  If not, see
  23:/usr/include/c++/11/bits/stl_algobase.h **** // <http://www.gnu.org/licenses/>.
  24:/usr/include/c++/11/bits/stl_algobase.h **** 
  25:/usr/include/c++/11/bits/stl_algobase.h **** /*
  26:/usr/include/c++/11/bits/stl_algobase.h ****  *
  27:/usr/include/c++/11/bits/stl_algobase.h ****  * Copyright (c) 1994
  28:/usr/include/c++/11/bits/stl_algobase.h ****  * Hewlett-Packard Company
  29:/usr/include/c++/11/bits/stl_algobase.h ****  *
  30:/usr/include/c++/11/bits/stl_algobase.h ****  * Permission to use, copy, modify, distribute and sell this software
  31:/usr/include/c++/11/bits/stl_algobase.h ****  * and its documentation for any purpose is hereby granted without fee,
  32:/usr/include/c++/11/bits/stl_algobase.h ****  * provided that the above copyright notice appear in all copies and
  33:/usr/include/c++/11/bits/stl_algobase.h ****  * that both that copyright notice and this permission notice appear
  34:/usr/include/c++/11/bits/stl_algobase.h ****  * in supporting documentation.  Hewlett-Packard Company makes no
  35:/usr/include/c++/11/bits/stl_algobase.h ****  * representations about the suitability of this software for any
  36:/usr/include/c++/11/bits/stl_algobase.h ****  * purpose.  It is provided "as is" without express or implied warranty.
  37:/usr/include/c++/11/bits/stl_algobase.h ****  *
  38:/usr/include/c++/11/bits/stl_algobase.h ****  *
  39:/usr/include/c++/11/bits/stl_algobase.h ****  * Copyright (c) 1996-1998
  40:/usr/include/c++/11/bits/stl_algobase.h ****  * Silicon Graphics Computer Systems, Inc.
  41:/usr/include/c++/11/bits/stl_algobase.h ****  *
  42:/usr/include/c++/11/bits/stl_algobase.h ****  * Permission to use, copy, modify, distribute and sell this software
  43:/usr/include/c++/11/bits/stl_algobase.h ****  * and its documentation for any purpose is hereby granted without fee,
  44:/usr/include/c++/11/bits/stl_algobase.h ****  * provided that the above copyright notice appear in all copies and
  45:/usr/include/c++/11/bits/stl_algobase.h ****  * that both that copyright notice and this permission notice appear
  46:/usr/include/c++/11/bits/stl_algobase.h ****  * in supporting documentation.  Silicon Graphics makes no
  47:/usr/include/c++/11/bits/stl_algobase.h ****  * representations about the suitability of this software for any
  48:/usr/include/c++/11/bits/stl_algobase.h ****  * purpose.  It is provided "as is" without express or implied warranty.
  49:/usr/include/c++/11/bits/stl_algobase.h ****  */
  50:/usr/include/c++/11/bits/stl_algobase.h **** 
  51:/usr/include/c++/11/bits/stl_algobase.h **** /** @file bits/stl_algobase.h
  52:/usr/include/c++/11/bits/stl_algobase.h ****  *  This is an internal header file, included by other library headers.
  53:/usr/include/c++/11/bits/stl_algobase.h ****  *  Do not attempt to use it directly. @headername{algorithm}
  54:/usr/include/c++/11/bits/stl_algobase.h ****  */
  55:/usr/include/c++/11/bits/stl_algobase.h **** 
  56:/usr/include/c++/11/bits/stl_algobase.h **** #ifndef _STL_ALGOBASE_H
  57:/usr/include/c++/11/bits/stl_algobase.h **** #define _STL_ALGOBASE_H 1
  58:/usr/include/c++/11/bits/stl_algobase.h **** 
  59:/usr/include/c++/11/bits/stl_algobase.h **** #include <bits/c++config.h>
  60:/usr/include/c++/11/bits/stl_algobase.h **** #include <bits/functexcept.h>
  61:/usr/include/c++/11/bits/stl_algobase.h **** #include <bits/cpp_type_traits.h>
  62:/usr/include/c++/11/bits/stl_algobase.h **** #include <ext/type_traits.h>
  63:/usr/include/c++/11/bits/stl_algobase.h **** #include <ext/numeric_traits.h>
  64:/usr/include/c++/11/bits/stl_algobase.h **** #include <bits/stl_pair.h>
  65:/usr/include/c++/11/bits/stl_algobase.h **** #include <bits/stl_iterator_base_types.h>
  66:/usr/include/c++/11/bits/stl_algobase.h **** #include <bits/stl_iterator_base_funcs.h>
  67:/usr/include/c++/11/bits/stl_algobase.h **** #include <bits/stl_iterator.h>
  68:/usr/include/c++/11/bits/stl_algobase.h **** #include <bits/concept_check.h>
  69:/usr/include/c++/11/bits/stl_algobase.h **** #include <debug/debug.h>
  70:/usr/include/c++/11/bits/stl_algobase.h **** #include <bits/move.h> // For std::swap
  71:/usr/include/c++/11/bits/stl_algobase.h **** #include <bits/predefined_ops.h>
  72:/usr/include/c++/11/bits/stl_algobase.h **** #if __cplusplus >= 201103L
  73:/usr/include/c++/11/bits/stl_algobase.h **** # include <type_traits>
  74:/usr/include/c++/11/bits/stl_algobase.h **** #endif
  75:/usr/include/c++/11/bits/stl_algobase.h **** #if __cplusplus > 201703L
  76:/usr/include/c++/11/bits/stl_algobase.h **** # include <compare>
  77:/usr/include/c++/11/bits/stl_algobase.h **** #endif
  78:/usr/include/c++/11/bits/stl_algobase.h **** 
  79:/usr/include/c++/11/bits/stl_algobase.h **** namespace std _GLIBCXX_VISIBILITY(default)
  80:/usr/include/c++/11/bits/stl_algobase.h **** {
  81:/usr/include/c++/11/bits/stl_algobase.h **** _GLIBCXX_BEGIN_NAMESPACE_VERSION
  82:/usr/include/c++/11/bits/stl_algobase.h **** 
  83:/usr/include/c++/11/bits/stl_algobase.h ****   /*
  84:/usr/include/c++/11/bits/stl_algobase.h ****    * A constexpr wrapper for __builtin_memcmp.
  85:/usr/include/c++/11/bits/stl_algobase.h ****    * @param __num The number of elements of type _Tp (not bytes).
  86:/usr/include/c++/11/bits/stl_algobase.h ****    */
  87:/usr/include/c++/11/bits/stl_algobase.h ****   template<typename _Tp, typename _Up>
  88:/usr/include/c++/11/bits/stl_algobase.h ****     _GLIBCXX14_CONSTEXPR
  89:/usr/include/c++/11/bits/stl_algobase.h ****     inline int
  90:/usr/include/c++/11/bits/stl_algobase.h ****     __memcmp(const _Tp* __first1, const _Up* __first2, size_t __num)
  91:/usr/include/c++/11/bits/stl_algobase.h ****     {
  92:/usr/include/c++/11/bits/stl_algobase.h **** #if __cplusplus >= 201103L
  93:/usr/include/c++/11/bits/stl_algobase.h ****       static_assert(sizeof(_Tp) == sizeof(_Up), "can be compared with memcmp");
  94:/usr/include/c++/11/bits/stl_algobase.h **** #endif
  95:/usr/include/c++/11/bits/stl_algobase.h **** #ifdef __cpp_lib_is_constant_evaluated
  96:/usr/include/c++/11/bits/stl_algobase.h ****       if (std::is_constant_evaluated())
  97:/usr/include/c++/11/bits/stl_algobase.h **** 	{
  98:/usr/include/c++/11/bits/stl_algobase.h **** 	  for(; __num > 0; ++__first1, ++__first2, --__num)
  99:/usr/include/c++/11/bits/stl_algobase.h **** 	    if (*__first1 != *__first2)
 100:/usr/include/c++/11/bits/stl_algobase.h **** 	      return *__first1 < *__first2 ? -1 : 1;
 101:/usr/include/c++/11/bits/stl_algobase.h **** 	  return 0;
 102:/usr/include/c++/11/bits/stl_algobase.h **** 	}
 103:/usr/include/c++/11/bits/stl_algobase.h ****       else
 104:/usr/include/c++/11/bits/stl_algobase.h **** #endif
 105:/usr/include/c++/11/bits/stl_algobase.h **** 	return __builtin_memcmp(__first1, __first2, sizeof(_Tp) * __num);
 106:/usr/include/c++/11/bits/stl_algobase.h ****     }
 107:/usr/include/c++/11/bits/stl_algobase.h **** 
 108:/usr/include/c++/11/bits/stl_algobase.h **** #if __cplusplus < 201103L
 109:/usr/include/c++/11/bits/stl_algobase.h ****   // See http://gcc.gnu.org/ml/libstdc++/2004-08/msg00167.html: in a
 110:/usr/include/c++/11/bits/stl_algobase.h ****   // nutshell, we are partially implementing the resolution of DR 187,
 111:/usr/include/c++/11/bits/stl_algobase.h ****   // when it's safe, i.e., the value_types are equal.
 112:/usr/include/c++/11/bits/stl_algobase.h ****   template<bool _BoolType>
 113:/usr/include/c++/11/bits/stl_algobase.h ****     struct __iter_swap
 114:/usr/include/c++/11/bits/stl_algobase.h ****     {
 115:/usr/include/c++/11/bits/stl_algobase.h ****       template<typename _ForwardIterator1, typename _ForwardIterator2>
 116:/usr/include/c++/11/bits/stl_algobase.h **** 	static void
 117:/usr/include/c++/11/bits/stl_algobase.h **** 	iter_swap(_ForwardIterator1 __a, _ForwardIterator2 __b)
 118:/usr/include/c++/11/bits/stl_algobase.h **** 	{
 119:/usr/include/c++/11/bits/stl_algobase.h **** 	  typedef typename iterator_traits<_ForwardIterator1>::value_type
 120:/usr/include/c++/11/bits/stl_algobase.h **** 	    _ValueType1;
 121:/usr/include/c++/11/bits/stl_algobase.h **** 	  _ValueType1 __tmp = *__a;
 122:/usr/include/c++/11/bits/stl_algobase.h **** 	  *__a = *__b;
 123:/usr/include/c++/11/bits/stl_algobase.h **** 	  *__b = __tmp;
 124:/usr/include/c++/11/bits/stl_algobase.h **** 	}
 125:/usr/include/c++/11/bits/stl_algobase.h ****     };
 126:/usr/include/c++/11/bits/stl_algobase.h **** 
 127:/usr/include/c++/11/bits/stl_algobase.h ****   template<>
 128:/usr/include/c++/11/bits/stl_algobase.h ****     struct __iter_swap<true>
 129:/usr/include/c++/11/bits/stl_algobase.h ****     {
 130:/usr/include/c++/11/bits/stl_algobase.h ****       template<typename _ForwardIterator1, typename _ForwardIterator2>
 131:/usr/include/c++/11/bits/stl_algobase.h **** 	static void
 132:/usr/include/c++/11/bits/stl_algobase.h **** 	iter_swap(_ForwardIterator1 __a, _ForwardIterator2 __b)
 133:/usr/include/c++/11/bits/stl_algobase.h **** 	{
 134:/usr/include/c++/11/bits/stl_algobase.h **** 	  swap(*__a, *__b);
 135:/usr/include/c++/11/bits/stl_algobase.h **** 	}
 136:/usr/include/c++/11/bits/stl_algobase.h ****     };
 137:/usr/include/c++/11/bits/stl_algobase.h **** #endif // C++03
 138:/usr/include/c++/11/bits/stl_algobase.h **** 
 139:/usr/include/c++/11/bits/stl_algobase.h ****   /**
 140:/usr/include/c++/11/bits/stl_algobase.h ****    *  @brief Swaps the contents of two iterators.
 141:/usr/include/c++/11/bits/stl_algobase.h ****    *  @ingroup mutating_algorithms
 142:/usr/include/c++/11/bits/stl_algobase.h ****    *  @param  __a  An iterator.
 143:/usr/include/c++/11/bits/stl_algobase.h ****    *  @param  __b  Another iterator.
 144:/usr/include/c++/11/bits/stl_algobase.h ****    *  @return   Nothing.
 145:/usr/include/c++/11/bits/stl_algobase.h ****    *
 146:/usr/include/c++/11/bits/stl_algobase.h ****    *  This function swaps the values pointed to by two iterators, not the
 147:/usr/include/c++/11/bits/stl_algobase.h ****    *  iterators themselves.
 148:/usr/include/c++/11/bits/stl_algobase.h ****   */
 149:/usr/include/c++/11/bits/stl_algobase.h ****   template<typename _ForwardIterator1, typename _ForwardIterator2>
 150:/usr/include/c++/11/bits/stl_algobase.h ****     _GLIBCXX20_CONSTEXPR
 151:/usr/include/c++/11/bits/stl_algobase.h ****     inline void
 152:/usr/include/c++/11/bits/stl_algobase.h ****     iter_swap(_ForwardIterator1 __a, _ForwardIterator2 __b)
 153:/usr/include/c++/11/bits/stl_algobase.h ****     {
 154:/usr/include/c++/11/bits/stl_algobase.h ****       // concept requirements
 155:/usr/include/c++/11/bits/stl_algobase.h ****       __glibcxx_function_requires(_Mutable_ForwardIteratorConcept<
 156:/usr/include/c++/11/bits/stl_algobase.h **** 				  _ForwardIterator1>)
 157:/usr/include/c++/11/bits/stl_algobase.h ****       __glibcxx_function_requires(_Mutable_ForwardIteratorConcept<
 158:/usr/include/c++/11/bits/stl_algobase.h **** 				  _ForwardIterator2>)
 159:/usr/include/c++/11/bits/stl_algobase.h **** 
 160:/usr/include/c++/11/bits/stl_algobase.h **** #if __cplusplus < 201103L
 161:/usr/include/c++/11/bits/stl_algobase.h ****       typedef typename iterator_traits<_ForwardIterator1>::value_type
 162:/usr/include/c++/11/bits/stl_algobase.h **** 	_ValueType1;
 163:/usr/include/c++/11/bits/stl_algobase.h ****       typedef typename iterator_traits<_ForwardIterator2>::value_type
 164:/usr/include/c++/11/bits/stl_algobase.h **** 	_ValueType2;
 165:/usr/include/c++/11/bits/stl_algobase.h **** 
 166:/usr/include/c++/11/bits/stl_algobase.h ****       __glibcxx_function_requires(_ConvertibleConcept<_ValueType1,
 167:/usr/include/c++/11/bits/stl_algobase.h **** 				  _ValueType2>)
 168:/usr/include/c++/11/bits/stl_algobase.h ****       __glibcxx_function_requires(_ConvertibleConcept<_ValueType2,
 169:/usr/include/c++/11/bits/stl_algobase.h **** 				  _ValueType1>)
 170:/usr/include/c++/11/bits/stl_algobase.h **** 
 171:/usr/include/c++/11/bits/stl_algobase.h ****       typedef typename iterator_traits<_ForwardIterator1>::reference
 172:/usr/include/c++/11/bits/stl_algobase.h **** 	_ReferenceType1;
 173:/usr/include/c++/11/bits/stl_algobase.h ****       typedef typename iterator_traits<_ForwardIterator2>::reference
 174:/usr/include/c++/11/bits/stl_algobase.h **** 	_ReferenceType2;
 175:/usr/include/c++/11/bits/stl_algobase.h ****       std::__iter_swap<__are_same<_ValueType1, _ValueType2>::__value
 176:/usr/include/c++/11/bits/stl_algobase.h **** 	&& __are_same<_ValueType1&, _ReferenceType1>::__value
 177:/usr/include/c++/11/bits/stl_algobase.h **** 	&& __are_same<_ValueType2&, _ReferenceType2>::__value>::
 178:/usr/include/c++/11/bits/stl_algobase.h **** 	iter_swap(__a, __b);
 179:/usr/include/c++/11/bits/stl_algobase.h **** #else
 180:/usr/include/c++/11/bits/stl_algobase.h ****       // _GLIBCXX_RESOLVE_LIB_DEFECTS
 181:/usr/include/c++/11/bits/stl_algobase.h ****       // 187. iter_swap underspecified
 182:/usr/include/c++/11/bits/stl_algobase.h ****       swap(*__a, *__b);
 183:/usr/include/c++/11/bits/stl_algobase.h **** #endif
 184:/usr/include/c++/11/bits/stl_algobase.h ****     }
 185:/usr/include/c++/11/bits/stl_algobase.h **** 
 186:/usr/include/c++/11/bits/stl_algobase.h ****   /**
 187:/usr/include/c++/11/bits/stl_algobase.h ****    *  @brief Swap the elements of two sequences.
 188:/usr/include/c++/11/bits/stl_algobase.h ****    *  @ingroup mutating_algorithms
 189:/usr/include/c++/11/bits/stl_algobase.h ****    *  @param  __first1  A forward iterator.
 190:/usr/include/c++/11/bits/stl_algobase.h ****    *  @param  __last1   A forward iterator.
 191:/usr/include/c++/11/bits/stl_algobase.h ****    *  @param  __first2  A forward iterator.
 192:/usr/include/c++/11/bits/stl_algobase.h ****    *  @return   An iterator equal to @p first2+(last1-first1).
 193:/usr/include/c++/11/bits/stl_algobase.h ****    *
 194:/usr/include/c++/11/bits/stl_algobase.h ****    *  Swaps each element in the range @p [first1,last1) with the
 195:/usr/include/c++/11/bits/stl_algobase.h ****    *  corresponding element in the range @p [first2,(last1-first1)).
 196:/usr/include/c++/11/bits/stl_algobase.h ****    *  The ranges must not overlap.
 197:/usr/include/c++/11/bits/stl_algobase.h ****   */
 198:/usr/include/c++/11/bits/stl_algobase.h ****   template<typename _ForwardIterator1, typename _ForwardIterator2>
 199:/usr/include/c++/11/bits/stl_algobase.h ****     _GLIBCXX20_CONSTEXPR
 200:/usr/include/c++/11/bits/stl_algobase.h ****     _ForwardIterator2
 201:/usr/include/c++/11/bits/stl_algobase.h ****     swap_ranges(_ForwardIterator1 __first1, _ForwardIterator1 __last1,
 202:/usr/include/c++/11/bits/stl_algobase.h **** 		_ForwardIterator2 __first2)
 203:/usr/include/c++/11/bits/stl_algobase.h ****     {
 204:/usr/include/c++/11/bits/stl_algobase.h ****       // concept requirements
 205:/usr/include/c++/11/bits/stl_algobase.h ****       __glibcxx_function_requires(_Mutable_ForwardIteratorConcept<
 206:/usr/include/c++/11/bits/stl_algobase.h **** 				  _ForwardIterator1>)
 207:/usr/include/c++/11/bits/stl_algobase.h ****       __glibcxx_function_requires(_Mutable_ForwardIteratorConcept<
 208:/usr/include/c++/11/bits/stl_algobase.h **** 				  _ForwardIterator2>)
 209:/usr/include/c++/11/bits/stl_algobase.h ****       __glibcxx_requires_valid_range(__first1, __last1);
 210:/usr/include/c++/11/bits/stl_algobase.h **** 
 211:/usr/include/c++/11/bits/stl_algobase.h ****       for (; __first1 != __last1; ++__first1, (void)++__first2)
 212:/usr/include/c++/11/bits/stl_algobase.h **** 	std::iter_swap(__first1, __first2);
 213:/usr/include/c++/11/bits/stl_algobase.h ****       return __first2;
 214:/usr/include/c++/11/bits/stl_algobase.h ****     }
 215:/usr/include/c++/11/bits/stl_algobase.h **** 
 216:/usr/include/c++/11/bits/stl_algobase.h ****   /**
 217:/usr/include/c++/11/bits/stl_algobase.h ****    *  @brief This does what you think it does.
 218:/usr/include/c++/11/bits/stl_algobase.h ****    *  @ingroup sorting_algorithms
 219:/usr/include/c++/11/bits/stl_algobase.h ****    *  @param  __a  A thing of arbitrary type.
 220:/usr/include/c++/11/bits/stl_algobase.h ****    *  @param  __b  Another thing of arbitrary type.
 221:/usr/include/c++/11/bits/stl_algobase.h ****    *  @return   The lesser of the parameters.
 222:/usr/include/c++/11/bits/stl_algobase.h ****    *
 223:/usr/include/c++/11/bits/stl_algobase.h ****    *  This is the simple classic generic implementation.  It will work on
 224:/usr/include/c++/11/bits/stl_algobase.h ****    *  temporary expressions, since they are only evaluated once, unlike a
 225:/usr/include/c++/11/bits/stl_algobase.h ****    *  preprocessor macro.
 226:/usr/include/c++/11/bits/stl_algobase.h ****   */
 227:/usr/include/c++/11/bits/stl_algobase.h ****   template<typename _Tp>
 228:/usr/include/c++/11/bits/stl_algobase.h ****     _GLIBCXX14_CONSTEXPR
 229:/usr/include/c++/11/bits/stl_algobase.h ****     inline const _Tp&
 230:/usr/include/c++/11/bits/stl_algobase.h ****     min(const _Tp& __a, const _Tp& __b)
 231:/usr/include/c++/11/bits/stl_algobase.h ****     {
 232:/usr/include/c++/11/bits/stl_algobase.h ****       // concept requirements
 233:/usr/include/c++/11/bits/stl_algobase.h ****       __glibcxx_function_requires(_LessThanComparableConcept<_Tp>)
 234:/usr/include/c++/11/bits/stl_algobase.h ****       //return __b < __a ? __b : __a;
 235:/usr/include/c++/11/bits/stl_algobase.h ****       if (__b < __a)
 236:/usr/include/c++/11/bits/stl_algobase.h **** 	return __b;
 237:/usr/include/c++/11/bits/stl_algobase.h ****       return __a;
 238:/usr/include/c++/11/bits/stl_algobase.h ****     }
 239:/usr/include/c++/11/bits/stl_algobase.h **** 
 240:/usr/include/c++/11/bits/stl_algobase.h ****   /**
 241:/usr/include/c++/11/bits/stl_algobase.h ****    *  @brief This does what you think it does.
 242:/usr/include/c++/11/bits/stl_algobase.h ****    *  @ingroup sorting_algorithms
 243:/usr/include/c++/11/bits/stl_algobase.h ****    *  @param  __a  A thing of arbitrary type.
 244:/usr/include/c++/11/bits/stl_algobase.h ****    *  @param  __b  Another thing of arbitrary type.
 245:/usr/include/c++/11/bits/stl_algobase.h ****    *  @return   The greater of the parameters.
 246:/usr/include/c++/11/bits/stl_algobase.h ****    *
 247:/usr/include/c++/11/bits/stl_algobase.h ****    *  This is the simple classic generic implementation.  It will work on
 248:/usr/include/c++/11/bits/stl_algobase.h ****    *  temporary expressions, since they are only evaluated once, unlike a
 249:/usr/include/c++/11/bits/stl_algobase.h ****    *  preprocessor macro.
 250:/usr/include/c++/11/bits/stl_algobase.h ****   */
 251:/usr/include/c++/11/bits/stl_algobase.h ****   template<typename _Tp>
 252:/usr/include/c++/11/bits/stl_algobase.h ****     _GLIBCXX14_CONSTEXPR
 253:/usr/include/c++/11/bits/stl_algobase.h ****     inline const _Tp&
 254:/usr/include/c++/11/bits/stl_algobase.h ****     max(const _Tp& __a, const _Tp& __b)
 255:/usr/include/c++/11/bits/stl_algobase.h ****     {
 256:/usr/include/c++/11/bits/stl_algobase.h ****       // concept requirements
 257:/usr/include/c++/11/bits/stl_algobase.h ****       __glibcxx_function_requires(_LessThanComparableConcept<_Tp>)
 258:/usr/include/c++/11/bits/stl_algobase.h ****       //return  __a < __b ? __b : __a;
 259:/usr/include/c++/11/bits/stl_algobase.h ****       if (__a < __b)
 260:/usr/include/c++/11/bits/stl_algobase.h **** 	return __b;
 261:/usr/include/c++/11/bits/stl_algobase.h ****       return __a;
 262:/usr/include/c++/11/bits/stl_algobase.h ****     }
 263:/usr/include/c++/11/bits/stl_algobase.h **** 
 264:/usr/include/c++/11/bits/stl_algobase.h ****   /**
 265:/usr/include/c++/11/bits/stl_algobase.h ****    *  @brief This does what you think it does.
 266:/usr/include/c++/11/bits/stl_algobase.h ****    *  @ingroup sorting_algorithms
 267:/usr/include/c++/11/bits/stl_algobase.h ****    *  @param  __a  A thing of arbitrary type.
 268:/usr/include/c++/11/bits/stl_algobase.h ****    *  @param  __b  Another thing of arbitrary type.
 269:/usr/include/c++/11/bits/stl_algobase.h ****    *  @param  __comp  A @link comparison_functors comparison functor@endlink.
 270:/usr/include/c++/11/bits/stl_algobase.h ****    *  @return   The lesser of the parameters.
 271:/usr/include/c++/11/bits/stl_algobase.h ****    *
 272:/usr/include/c++/11/bits/stl_algobase.h ****    *  This will work on temporary expressions, since they are only evaluated
 273:/usr/include/c++/11/bits/stl_algobase.h ****    *  once, unlike a preprocessor macro.
 274:/usr/include/c++/11/bits/stl_algobase.h ****   */
 275:/usr/include/c++/11/bits/stl_algobase.h ****   template<typename _Tp, typename _Compare>
 276:/usr/include/c++/11/bits/stl_algobase.h ****     _GLIBCXX14_CONSTEXPR
 277:/usr/include/c++/11/bits/stl_algobase.h ****     inline const _Tp&
 278:/usr/include/c++/11/bits/stl_algobase.h ****     min(const _Tp& __a, const _Tp& __b, _Compare __comp)
 279:/usr/include/c++/11/bits/stl_algobase.h ****     {
 280:/usr/include/c++/11/bits/stl_algobase.h ****       //return __comp(__b, __a) ? __b : __a;
 281:/usr/include/c++/11/bits/stl_algobase.h ****       if (__comp(__b, __a))
 282:/usr/include/c++/11/bits/stl_algobase.h **** 	return __b;
 283:/usr/include/c++/11/bits/stl_algobase.h ****       return __a;
 284:/usr/include/c++/11/bits/stl_algobase.h ****     }
 285:/usr/include/c++/11/bits/stl_algobase.h **** 
 286:/usr/include/c++/11/bits/stl_algobase.h ****   /**
 287:/usr/include/c++/11/bits/stl_algobase.h ****    *  @brief This does what you think it does.
 288:/usr/include/c++/11/bits/stl_algobase.h ****    *  @ingroup sorting_algorithms
 289:/usr/include/c++/11/bits/stl_algobase.h ****    *  @param  __a  A thing of arbitrary type.
 290:/usr/include/c++/11/bits/stl_algobase.h ****    *  @param  __b  Another thing of arbitrary type.
 291:/usr/include/c++/11/bits/stl_algobase.h ****    *  @param  __comp  A @link comparison_functors comparison functor@endlink.
 292:/usr/include/c++/11/bits/stl_algobase.h ****    *  @return   The greater of the parameters.
 293:/usr/include/c++/11/bits/stl_algobase.h ****    *
 294:/usr/include/c++/11/bits/stl_algobase.h ****    *  This will work on temporary expressions, since they are only evaluated
 295:/usr/include/c++/11/bits/stl_algobase.h ****    *  once, unlike a preprocessor macro.
 296:/usr/include/c++/11/bits/stl_algobase.h ****   */
 297:/usr/include/c++/11/bits/stl_algobase.h ****   template<typename _Tp, typename _Compare>
 298:/usr/include/c++/11/bits/stl_algobase.h ****     _GLIBCXX14_CONSTEXPR
 299:/usr/include/c++/11/bits/stl_algobase.h ****     inline const _Tp&
 300:/usr/include/c++/11/bits/stl_algobase.h ****     max(const _Tp& __a, const _Tp& __b, _Compare __comp)
 301:/usr/include/c++/11/bits/stl_algobase.h ****     {
 302:/usr/include/c++/11/bits/stl_algobase.h ****       //return __comp(__a, __b) ? __b : __a;
 303:/usr/include/c++/11/bits/stl_algobase.h ****       if (__comp(__a, __b))
 304:/usr/include/c++/11/bits/stl_algobase.h **** 	return __b;
 305:/usr/include/c++/11/bits/stl_algobase.h ****       return __a;
 306:/usr/include/c++/11/bits/stl_algobase.h ****     }
 307:/usr/include/c++/11/bits/stl_algobase.h **** 
 308:/usr/include/c++/11/bits/stl_algobase.h ****   // Fallback implementation of the function in bits/stl_iterator.h used to
 309:/usr/include/c++/11/bits/stl_algobase.h ****   // remove the __normal_iterator wrapper. See copy, fill, ...
 310:/usr/include/c++/11/bits/stl_algobase.h ****   template<typename _Iterator>
 311:/usr/include/c++/11/bits/stl_algobase.h ****     _GLIBCXX20_CONSTEXPR
 312:/usr/include/c++/11/bits/stl_algobase.h ****     inline _Iterator
 313:/usr/include/c++/11/bits/stl_algobase.h ****     __niter_base(_Iterator __it)
 314:/usr/include/c++/11/bits/stl_algobase.h ****     _GLIBCXX_NOEXCEPT_IF(std::is_nothrow_copy_constructible<_Iterator>::value)
 315:/usr/include/c++/11/bits/stl_algobase.h ****     { return __it; }
 316:/usr/include/c++/11/bits/stl_algobase.h **** 
 317:/usr/include/c++/11/bits/stl_algobase.h ****   template<typename _Ite, typename _Seq>
 318:/usr/include/c++/11/bits/stl_algobase.h ****     _Ite
 319:/usr/include/c++/11/bits/stl_algobase.h ****     __niter_base(const ::__gnu_debug::_Safe_iterator<_Ite, _Seq,
 320:/usr/include/c++/11/bits/stl_algobase.h **** 		 std::random_access_iterator_tag>&);
 321:/usr/include/c++/11/bits/stl_algobase.h **** 
 322:/usr/include/c++/11/bits/stl_algobase.h ****   // Reverse the __niter_base transformation to get a
 323:/usr/include/c++/11/bits/stl_algobase.h ****   // __normal_iterator back again (this assumes that __normal_iterator
 324:/usr/include/c++/11/bits/stl_algobase.h ****   // is only used to wrap random access iterators, like pointers).
 325:/usr/include/c++/11/bits/stl_algobase.h ****   template<typename _From, typename _To>
 326:/usr/include/c++/11/bits/stl_algobase.h ****     _GLIBCXX20_CONSTEXPR
 327:/usr/include/c++/11/bits/stl_algobase.h ****     inline _From
 328:/usr/include/c++/11/bits/stl_algobase.h ****     __niter_wrap(_From __from, _To __res)
 329:/usr/include/c++/11/bits/stl_algobase.h ****     { return __from + (__res - std::__niter_base(__from)); }
 330:/usr/include/c++/11/bits/stl_algobase.h **** 
 331:/usr/include/c++/11/bits/stl_algobase.h ****   // No need to wrap, iterator already has the right type.
 332:/usr/include/c++/11/bits/stl_algobase.h ****   template<typename _Iterator>
 333:/usr/include/c++/11/bits/stl_algobase.h ****     _GLIBCXX20_CONSTEXPR
 334:/usr/include/c++/11/bits/stl_algobase.h ****     inline _Iterator
 335:/usr/include/c++/11/bits/stl_algobase.h ****     __niter_wrap(const _Iterator&, _Iterator __res)
 336:/usr/include/c++/11/bits/stl_algobase.h ****     { return __res; }
 337:/usr/include/c++/11/bits/stl_algobase.h **** 
 338:/usr/include/c++/11/bits/stl_algobase.h ****   // All of these auxiliary structs serve two purposes.  (1) Replace
 339:/usr/include/c++/11/bits/stl_algobase.h ****   // calls to copy with memmove whenever possible.  (Memmove, not memcpy,
 340:/usr/include/c++/11/bits/stl_algobase.h ****   // because the input and output ranges are permitted to overlap.)
 341:/usr/include/c++/11/bits/stl_algobase.h ****   // (2) If we're using random access iterators, then write the loop as
 342:/usr/include/c++/11/bits/stl_algobase.h ****   // a for loop with an explicit count.
 343:/usr/include/c++/11/bits/stl_algobase.h **** 
 344:/usr/include/c++/11/bits/stl_algobase.h ****   template<bool _IsMove, bool _IsSimple, typename _Category>
 345:/usr/include/c++/11/bits/stl_algobase.h ****     struct __copy_move
 346:/usr/include/c++/11/bits/stl_algobase.h ****     {
 347:/usr/include/c++/11/bits/stl_algobase.h ****       template<typename _II, typename _OI>
 348:/usr/include/c++/11/bits/stl_algobase.h **** 	_GLIBCXX20_CONSTEXPR
 349:/usr/include/c++/11/bits/stl_algobase.h **** 	static _OI
 350:/usr/include/c++/11/bits/stl_algobase.h **** 	__copy_m(_II __first, _II __last, _OI __result)
 351:/usr/include/c++/11/bits/stl_algobase.h **** 	{
 352:/usr/include/c++/11/bits/stl_algobase.h **** 	  for (; __first != __last; ++__result, (void)++__first)
 353:/usr/include/c++/11/bits/stl_algobase.h **** 	    *__result = *__first;
 354:/usr/include/c++/11/bits/stl_algobase.h **** 	  return __result;
 355:/usr/include/c++/11/bits/stl_algobase.h **** 	}
 356:/usr/include/c++/11/bits/stl_algobase.h ****     };
 357:/usr/include/c++/11/bits/stl_algobase.h **** 
 358:/usr/include/c++/11/bits/stl_algobase.h **** #if __cplusplus >= 201103L
 359:/usr/include/c++/11/bits/stl_algobase.h ****   template<typename _Category>
 360:/usr/include/c++/11/bits/stl_algobase.h ****     struct __copy_move<true, false, _Category>
 361:/usr/include/c++/11/bits/stl_algobase.h ****     {
 362:/usr/include/c++/11/bits/stl_algobase.h ****       template<typename _II, typename _OI>
 363:/usr/include/c++/11/bits/stl_algobase.h **** 	_GLIBCXX20_CONSTEXPR
 364:/usr/include/c++/11/bits/stl_algobase.h **** 	static _OI
 365:/usr/include/c++/11/bits/stl_algobase.h **** 	__copy_m(_II __first, _II __last, _OI __result)
 366:/usr/include/c++/11/bits/stl_algobase.h **** 	{
 367:/usr/include/c++/11/bits/stl_algobase.h **** 	  for (; __first != __last; ++__result, (void)++__first)
 368:/usr/include/c++/11/bits/stl_algobase.h **** 	    *__result = std::move(*__first);
 369:/usr/include/c++/11/bits/stl_algobase.h **** 	  return __result;
 370:/usr/include/c++/11/bits/stl_algobase.h **** 	}
 371:/usr/include/c++/11/bits/stl_algobase.h ****     };
 372:/usr/include/c++/11/bits/stl_algobase.h **** #endif
 373:/usr/include/c++/11/bits/stl_algobase.h **** 
 374:/usr/include/c++/11/bits/stl_algobase.h ****   template<>
 375:/usr/include/c++/11/bits/stl_algobase.h ****     struct __copy_move<false, false, random_access_iterator_tag>
 376:/usr/include/c++/11/bits/stl_algobase.h ****     {
 377:/usr/include/c++/11/bits/stl_algobase.h ****       template<typename _II, typename _OI>
 378:/usr/include/c++/11/bits/stl_algobase.h **** 	_GLIBCXX20_CONSTEXPR
 379:/usr/include/c++/11/bits/stl_algobase.h **** 	static _OI
 380:/usr/include/c++/11/bits/stl_algobase.h **** 	__copy_m(_II __first, _II __last, _OI __result)
 381:/usr/include/c++/11/bits/stl_algobase.h **** 	{
 382:/usr/include/c++/11/bits/stl_algobase.h **** 	  typedef typename iterator_traits<_II>::difference_type _Distance;
 383:/usr/include/c++/11/bits/stl_algobase.h **** 	  for(_Distance __n = __last - __first; __n > 0; --__n)
 384:/usr/include/c++/11/bits/stl_algobase.h **** 	    {
 385:/usr/include/c++/11/bits/stl_algobase.h **** 	      *__result = *__first;
 386:/usr/include/c++/11/bits/stl_algobase.h **** 	      ++__first;
 387:/usr/include/c++/11/bits/stl_algobase.h **** 	      ++__result;
 388:/usr/include/c++/11/bits/stl_algobase.h **** 	    }
 389:/usr/include/c++/11/bits/stl_algobase.h **** 	  return __result;
 390:/usr/include/c++/11/bits/stl_algobase.h **** 	}
 391:/usr/include/c++/11/bits/stl_algobase.h ****     };
 392:/usr/include/c++/11/bits/stl_algobase.h **** 
 393:/usr/include/c++/11/bits/stl_algobase.h **** #if __cplusplus >= 201103L
 394:/usr/include/c++/11/bits/stl_algobase.h ****   template<>
 395:/usr/include/c++/11/bits/stl_algobase.h ****     struct __copy_move<true, false, random_access_iterator_tag>
 396:/usr/include/c++/11/bits/stl_algobase.h ****     {
 397:/usr/include/c++/11/bits/stl_algobase.h ****       template<typename _II, typename _OI>
 398:/usr/include/c++/11/bits/stl_algobase.h **** 	_GLIBCXX20_CONSTEXPR
 399:/usr/include/c++/11/bits/stl_algobase.h **** 	static _OI
 400:/usr/include/c++/11/bits/stl_algobase.h **** 	__copy_m(_II __first, _II __last, _OI __result)
 401:/usr/include/c++/11/bits/stl_algobase.h **** 	{
 402:/usr/include/c++/11/bits/stl_algobase.h **** 	  typedef typename iterator_traits<_II>::difference_type _Distance;
 403:/usr/include/c++/11/bits/stl_algobase.h **** 	  for(_Distance __n = __last - __first; __n > 0; --__n)
 404:/usr/include/c++/11/bits/stl_algobase.h **** 	    {
 405:/usr/include/c++/11/bits/stl_algobase.h **** 	      *__result = std::move(*__first);
 406:/usr/include/c++/11/bits/stl_algobase.h **** 	      ++__first;
 407:/usr/include/c++/11/bits/stl_algobase.h **** 	      ++__result;
 408:/usr/include/c++/11/bits/stl_algobase.h **** 	    }
 409:/usr/include/c++/11/bits/stl_algobase.h **** 	  return __result;
 410:/usr/include/c++/11/bits/stl_algobase.h **** 	}
 411:/usr/include/c++/11/bits/stl_algobase.h ****     };
 412:/usr/include/c++/11/bits/stl_algobase.h **** #endif
 413:/usr/include/c++/11/bits/stl_algobase.h **** 
 414:/usr/include/c++/11/bits/stl_algobase.h ****   template<bool _IsMove>
 415:/usr/include/c++/11/bits/stl_algobase.h ****     struct __copy_move<_IsMove, true, random_access_iterator_tag>
 416:/usr/include/c++/11/bits/stl_algobase.h ****     {
 417:/usr/include/c++/11/bits/stl_algobase.h ****       template<typename _Tp>
 418:/usr/include/c++/11/bits/stl_algobase.h **** 	_GLIBCXX20_CONSTEXPR
 419:/usr/include/c++/11/bits/stl_algobase.h **** 	static _Tp*
 420:/usr/include/c++/11/bits/stl_algobase.h **** 	__copy_m(const _Tp* __first, const _Tp* __last, _Tp* __result)
 421:/usr/include/c++/11/bits/stl_algobase.h **** 	{
 422:/usr/include/c++/11/bits/stl_algobase.h **** #if __cplusplus >= 201103L
 423:/usr/include/c++/11/bits/stl_algobase.h **** 	  using __assignable = conditional<_IsMove,
 424:/usr/include/c++/11/bits/stl_algobase.h **** 					   is_move_assignable<_Tp>,
 425:/usr/include/c++/11/bits/stl_algobase.h **** 					   is_copy_assignable<_Tp>>;
 426:/usr/include/c++/11/bits/stl_algobase.h **** 	  // trivial types can have deleted assignment
 427:/usr/include/c++/11/bits/stl_algobase.h **** 	  static_assert( __assignable::type::value, "type is not assignable" );
 428:/usr/include/c++/11/bits/stl_algobase.h **** #endif
 429:/usr/include/c++/11/bits/stl_algobase.h **** 	  const ptrdiff_t _Num = __last - __first;
 430:/usr/include/c++/11/bits/stl_algobase.h **** 	  if (_Num)
 431:/usr/include/c++/11/bits/stl_algobase.h **** 	    __builtin_memmove(__result, __first, sizeof(_Tp) * _Num);
 432:/usr/include/c++/11/bits/stl_algobase.h **** 	  return __result + _Num;
 433:/usr/include/c++/11/bits/stl_algobase.h **** 	}
 434:/usr/include/c++/11/bits/stl_algobase.h ****     };
 435:/usr/include/c++/11/bits/stl_algobase.h **** 
 436:/usr/include/c++/11/bits/stl_algobase.h **** _GLIBCXX_BEGIN_NAMESPACE_CONTAINER
 437:/usr/include/c++/11/bits/stl_algobase.h **** 
 438:/usr/include/c++/11/bits/stl_algobase.h ****   template<typename _Tp, typename _Ref, typename _Ptr>
 439:/usr/include/c++/11/bits/stl_algobase.h ****     struct _Deque_iterator;
 440:/usr/include/c++/11/bits/stl_algobase.h **** 
 441:/usr/include/c++/11/bits/stl_algobase.h ****   struct _Bit_iterator;
 442:/usr/include/c++/11/bits/stl_algobase.h **** 
 443:/usr/include/c++/11/bits/stl_algobase.h **** _GLIBCXX_END_NAMESPACE_CONTAINER
 444:/usr/include/c++/11/bits/stl_algobase.h **** 
 445:/usr/include/c++/11/bits/stl_algobase.h ****   // Helpers for streambuf iterators (either istream or ostream).
 446:/usr/include/c++/11/bits/stl_algobase.h ****   // NB: avoid including <iosfwd>, relatively large.
 447:/usr/include/c++/11/bits/stl_algobase.h ****   template<typename _CharT>
 448:/usr/include/c++/11/bits/stl_algobase.h ****     struct char_traits;
 449:/usr/include/c++/11/bits/stl_algobase.h **** 
 450:/usr/include/c++/11/bits/stl_algobase.h ****   template<typename _CharT, typename _Traits>
 451:/usr/include/c++/11/bits/stl_algobase.h ****     class istreambuf_iterator;
 452:/usr/include/c++/11/bits/stl_algobase.h **** 
 453:/usr/include/c++/11/bits/stl_algobase.h ****   template<typename _CharT, typename _Traits>
 454:/usr/include/c++/11/bits/stl_algobase.h ****     class ostreambuf_iterator;
 455:/usr/include/c++/11/bits/stl_algobase.h **** 
 456:/usr/include/c++/11/bits/stl_algobase.h ****   template<bool _IsMove, typename _CharT>
 457:/usr/include/c++/11/bits/stl_algobase.h ****     typename __gnu_cxx::__enable_if<__is_char<_CharT>::__value,
 458:/usr/include/c++/11/bits/stl_algobase.h **** 	     ostreambuf_iterator<_CharT, char_traits<_CharT> > >::__type
 459:/usr/include/c++/11/bits/stl_algobase.h ****     __copy_move_a2(_CharT*, _CharT*,
 460:/usr/include/c++/11/bits/stl_algobase.h **** 		   ostreambuf_iterator<_CharT, char_traits<_CharT> >);
 461:/usr/include/c++/11/bits/stl_algobase.h **** 
 462:/usr/include/c++/11/bits/stl_algobase.h ****   template<bool _IsMove, typename _CharT>
 463:/usr/include/c++/11/bits/stl_algobase.h ****     typename __gnu_cxx::__enable_if<__is_char<_CharT>::__value,
 464:/usr/include/c++/11/bits/stl_algobase.h **** 	     ostreambuf_iterator<_CharT, char_traits<_CharT> > >::__type
 465:/usr/include/c++/11/bits/stl_algobase.h ****     __copy_move_a2(const _CharT*, const _CharT*,
 466:/usr/include/c++/11/bits/stl_algobase.h **** 		   ostreambuf_iterator<_CharT, char_traits<_CharT> >);
 467:/usr/include/c++/11/bits/stl_algobase.h **** 
 468:/usr/include/c++/11/bits/stl_algobase.h ****   template<bool _IsMove, typename _CharT>
 469:/usr/include/c++/11/bits/stl_algobase.h ****     typename __gnu_cxx::__enable_if<__is_char<_CharT>::__value,
 470:/usr/include/c++/11/bits/stl_algobase.h **** 				    _CharT*>::__type
 471:/usr/include/c++/11/bits/stl_algobase.h ****     __copy_move_a2(istreambuf_iterator<_CharT, char_traits<_CharT> >,
 472:/usr/include/c++/11/bits/stl_algobase.h **** 		   istreambuf_iterator<_CharT, char_traits<_CharT> >, _CharT*);
 473:/usr/include/c++/11/bits/stl_algobase.h **** 
 474:/usr/include/c++/11/bits/stl_algobase.h ****   template<bool _IsMove, typename _CharT>
 475:/usr/include/c++/11/bits/stl_algobase.h ****     typename __gnu_cxx::__enable_if<
 476:/usr/include/c++/11/bits/stl_algobase.h ****       __is_char<_CharT>::__value,
 477:/usr/include/c++/11/bits/stl_algobase.h ****       _GLIBCXX_STD_C::_Deque_iterator<_CharT, _CharT&, _CharT*> >::__type
 478:/usr/include/c++/11/bits/stl_algobase.h ****     __copy_move_a2(
 479:/usr/include/c++/11/bits/stl_algobase.h **** 	istreambuf_iterator<_CharT, char_traits<_CharT> >,
 480:/usr/include/c++/11/bits/stl_algobase.h **** 	istreambuf_iterator<_CharT, char_traits<_CharT> >,
 481:/usr/include/c++/11/bits/stl_algobase.h **** 	_GLIBCXX_STD_C::_Deque_iterator<_CharT, _CharT&, _CharT*>);
 482:/usr/include/c++/11/bits/stl_algobase.h **** 
 483:/usr/include/c++/11/bits/stl_algobase.h ****   template<bool _IsMove, typename _II, typename _OI>
 484:/usr/include/c++/11/bits/stl_algobase.h ****     _GLIBCXX20_CONSTEXPR
 485:/usr/include/c++/11/bits/stl_algobase.h ****     inline _OI
 486:/usr/include/c++/11/bits/stl_algobase.h ****     __copy_move_a2(_II __first, _II __last, _OI __result)
 487:/usr/include/c++/11/bits/stl_algobase.h ****     {
 488:/usr/include/c++/11/bits/stl_algobase.h ****       typedef typename iterator_traits<_II>::iterator_category _Category;
 489:/usr/include/c++/11/bits/stl_algobase.h **** #ifdef __cpp_lib_is_constant_evaluated
 490:/usr/include/c++/11/bits/stl_algobase.h ****       if (std::is_constant_evaluated())
 491:/usr/include/c++/11/bits/stl_algobase.h **** 	return std::__copy_move<_IsMove, false, _Category>::
 492:/usr/include/c++/11/bits/stl_algobase.h **** 	  __copy_m(__first, __last, __result);
 493:/usr/include/c++/11/bits/stl_algobase.h **** #endif
 494:/usr/include/c++/11/bits/stl_algobase.h ****       return std::__copy_move<_IsMove, __memcpyable<_OI, _II>::__value,
 495:/usr/include/c++/11/bits/stl_algobase.h **** 			      _Category>::__copy_m(__first, __last, __result);
 496:/usr/include/c++/11/bits/stl_algobase.h ****     }
 497:/usr/include/c++/11/bits/stl_algobase.h **** 
 498:/usr/include/c++/11/bits/stl_algobase.h ****   template<bool _IsMove,
 499:/usr/include/c++/11/bits/stl_algobase.h **** 	   typename _Tp, typename _Ref, typename _Ptr, typename _OI>
 500:/usr/include/c++/11/bits/stl_algobase.h ****     _OI
 501:/usr/include/c++/11/bits/stl_algobase.h ****     __copy_move_a1(_GLIBCXX_STD_C::_Deque_iterator<_Tp, _Ref, _Ptr>,
 502:/usr/include/c++/11/bits/stl_algobase.h **** 		   _GLIBCXX_STD_C::_Deque_iterator<_Tp, _Ref, _Ptr>,
 503:/usr/include/c++/11/bits/stl_algobase.h **** 		   _OI);
 504:/usr/include/c++/11/bits/stl_algobase.h **** 
 505:/usr/include/c++/11/bits/stl_algobase.h ****   template<bool _IsMove,
 506:/usr/include/c++/11/bits/stl_algobase.h **** 	   typename _ITp, typename _IRef, typename _IPtr, typename _OTp>
 507:/usr/include/c++/11/bits/stl_algobase.h ****     _GLIBCXX_STD_C::_Deque_iterator<_OTp, _OTp&, _OTp*>
 508:/usr/include/c++/11/bits/stl_algobase.h ****     __copy_move_a1(_GLIBCXX_STD_C::_Deque_iterator<_ITp, _IRef, _IPtr>,
 509:/usr/include/c++/11/bits/stl_algobase.h **** 		   _GLIBCXX_STD_C::_Deque_iterator<_ITp, _IRef, _IPtr>,
 510:/usr/include/c++/11/bits/stl_algobase.h **** 		   _GLIBCXX_STD_C::_Deque_iterator<_OTp, _OTp&, _OTp*>);
 511:/usr/include/c++/11/bits/stl_algobase.h **** 
 512:/usr/include/c++/11/bits/stl_algobase.h ****   template<bool _IsMove, typename _II, typename _Tp>
 513:/usr/include/c++/11/bits/stl_algobase.h ****     typename __gnu_cxx::__enable_if<
 514:/usr/include/c++/11/bits/stl_algobase.h ****       __is_random_access_iter<_II>::__value,
 515:/usr/include/c++/11/bits/stl_algobase.h ****       _GLIBCXX_STD_C::_Deque_iterator<_Tp, _Tp&, _Tp*> >::__type
 516:/usr/include/c++/11/bits/stl_algobase.h ****     __copy_move_a1(_II, _II, _GLIBCXX_STD_C::_Deque_iterator<_Tp, _Tp&, _Tp*>);
 517:/usr/include/c++/11/bits/stl_algobase.h **** 
 518:/usr/include/c++/11/bits/stl_algobase.h ****   template<bool _IsMove, typename _II, typename _OI>
 519:/usr/include/c++/11/bits/stl_algobase.h ****     _GLIBCXX20_CONSTEXPR
 520:/usr/include/c++/11/bits/stl_algobase.h ****     inline _OI
 521:/usr/include/c++/11/bits/stl_algobase.h ****     __copy_move_a1(_II __first, _II __last, _OI __result)
 522:/usr/include/c++/11/bits/stl_algobase.h ****     { return std::__copy_move_a2<_IsMove>(__first, __last, __result); }
 523:/usr/include/c++/11/bits/stl_algobase.h **** 
 524:/usr/include/c++/11/bits/stl_algobase.h ****   template<bool _IsMove, typename _II, typename _OI>
 525:/usr/include/c++/11/bits/stl_algobase.h ****     _GLIBCXX20_CONSTEXPR
 526:/usr/include/c++/11/bits/stl_algobase.h ****     inline _OI
 527:/usr/include/c++/11/bits/stl_algobase.h ****     __copy_move_a(_II __first, _II __last, _OI __result)
 528:/usr/include/c++/11/bits/stl_algobase.h ****     {
 529:/usr/include/c++/11/bits/stl_algobase.h ****       return std::__niter_wrap(__result,
 530:/usr/include/c++/11/bits/stl_algobase.h **** 		std::__copy_move_a1<_IsMove>(std::__niter_base(__first),
 531:/usr/include/c++/11/bits/stl_algobase.h **** 					     std::__niter_base(__last),
 532:/usr/include/c++/11/bits/stl_algobase.h **** 					     std::__niter_base(__result)));
 533:/usr/include/c++/11/bits/stl_algobase.h ****     }
 534:/usr/include/c++/11/bits/stl_algobase.h **** 
 535:/usr/include/c++/11/bits/stl_algobase.h ****   template<bool _IsMove,
 536:/usr/include/c++/11/bits/stl_algobase.h **** 	   typename _Ite, typename _Seq, typename _Cat, typename _OI>
 537:/usr/include/c++/11/bits/stl_algobase.h ****     _OI
 538:/usr/include/c++/11/bits/stl_algobase.h ****     __copy_move_a(const ::__gnu_debug::_Safe_iterator<_Ite, _Seq, _Cat>&,
 539:/usr/include/c++/11/bits/stl_algobase.h **** 		  const ::__gnu_debug::_Safe_iterator<_Ite, _Seq, _Cat>&,
 540:/usr/include/c++/11/bits/stl_algobase.h **** 		  _OI);
 541:/usr/include/c++/11/bits/stl_algobase.h **** 
 542:/usr/include/c++/11/bits/stl_algobase.h ****   template<bool _IsMove,
 543:/usr/include/c++/11/bits/stl_algobase.h **** 	   typename _II, typename _Ite, typename _Seq, typename _Cat>
 544:/usr/include/c++/11/bits/stl_algobase.h ****     __gnu_debug::_Safe_iterator<_Ite, _Seq, _Cat>
 545:/usr/include/c++/11/bits/stl_algobase.h ****     __copy_move_a(_II, _II,
 546:/usr/include/c++/11/bits/stl_algobase.h **** 		  const ::__gnu_debug::_Safe_iterator<_Ite, _Seq, _Cat>&);
 547:/usr/include/c++/11/bits/stl_algobase.h **** 
 548:/usr/include/c++/11/bits/stl_algobase.h ****   template<bool _IsMove,
 549:/usr/include/c++/11/bits/stl_algobase.h **** 	   typename _IIte, typename _ISeq, typename _ICat,
 550:/usr/include/c++/11/bits/stl_algobase.h **** 	   typename _OIte, typename _OSeq, typename _OCat>
 551:/usr/include/c++/11/bits/stl_algobase.h ****     ::__gnu_debug::_Safe_iterator<_OIte, _OSeq, _OCat>
 552:/usr/include/c++/11/bits/stl_algobase.h ****     __copy_move_a(const ::__gnu_debug::_Safe_iterator<_IIte, _ISeq, _ICat>&,
 553:/usr/include/c++/11/bits/stl_algobase.h **** 		  const ::__gnu_debug::_Safe_iterator<_IIte, _ISeq, _ICat>&,
 554:/usr/include/c++/11/bits/stl_algobase.h **** 		  const ::__gnu_debug::_Safe_iterator<_OIte, _OSeq, _OCat>&);
 555:/usr/include/c++/11/bits/stl_algobase.h **** 
 556:/usr/include/c++/11/bits/stl_algobase.h ****   template<typename _InputIterator, typename _Size, typename _OutputIterator>
 557:/usr/include/c++/11/bits/stl_algobase.h ****     _GLIBCXX20_CONSTEXPR
 558:/usr/include/c++/11/bits/stl_algobase.h ****     _OutputIterator
 559:/usr/include/c++/11/bits/stl_algobase.h ****     __copy_n_a(_InputIterator __first, _Size __n, _OutputIterator __result,
 560:/usr/include/c++/11/bits/stl_algobase.h **** 	       bool)
 561:/usr/include/c++/11/bits/stl_algobase.h ****     {
 562:/usr/include/c++/11/bits/stl_algobase.h ****       if (__n > 0)
 563:/usr/include/c++/11/bits/stl_algobase.h **** 	{
 564:/usr/include/c++/11/bits/stl_algobase.h **** 	  while (true)
 565:/usr/include/c++/11/bits/stl_algobase.h **** 	    {
 566:/usr/include/c++/11/bits/stl_algobase.h **** 	      *__result = *__first;
 567:/usr/include/c++/11/bits/stl_algobase.h **** 	      ++__result;
 568:/usr/include/c++/11/bits/stl_algobase.h **** 	      if (--__n > 0)
 569:/usr/include/c++/11/bits/stl_algobase.h **** 		++__first;
 570:/usr/include/c++/11/bits/stl_algobase.h **** 	      else
 571:/usr/include/c++/11/bits/stl_algobase.h **** 		break;
 572:/usr/include/c++/11/bits/stl_algobase.h **** 	    }
 573:/usr/include/c++/11/bits/stl_algobase.h **** 	}
 574:/usr/include/c++/11/bits/stl_algobase.h ****       return __result;
 575:/usr/include/c++/11/bits/stl_algobase.h ****     }
 576:/usr/include/c++/11/bits/stl_algobase.h **** 
 577:/usr/include/c++/11/bits/stl_algobase.h ****   template<typename _CharT, typename _Size>
 578:/usr/include/c++/11/bits/stl_algobase.h ****     typename __gnu_cxx::__enable_if<
 579:/usr/include/c++/11/bits/stl_algobase.h ****       __is_char<_CharT>::__value, _CharT*>::__type
 580:/usr/include/c++/11/bits/stl_algobase.h ****     __copy_n_a(istreambuf_iterator<_CharT, char_traits<_CharT> >,
 581:/usr/include/c++/11/bits/stl_algobase.h **** 	       _Size, _CharT*, bool);
 582:/usr/include/c++/11/bits/stl_algobase.h **** 
 583:/usr/include/c++/11/bits/stl_algobase.h ****   template<typename _CharT, typename _Size>
 584:/usr/include/c++/11/bits/stl_algobase.h ****     typename __gnu_cxx::__enable_if<
 585:/usr/include/c++/11/bits/stl_algobase.h ****       __is_char<_CharT>::__value,
 586:/usr/include/c++/11/bits/stl_algobase.h ****       _GLIBCXX_STD_C::_Deque_iterator<_CharT, _CharT&, _CharT*> >::__type
 587:/usr/include/c++/11/bits/stl_algobase.h ****     __copy_n_a(istreambuf_iterator<_CharT, char_traits<_CharT> >, _Size,
 588:/usr/include/c++/11/bits/stl_algobase.h **** 	       _GLIBCXX_STD_C::_Deque_iterator<_CharT, _CharT&, _CharT*>,
 589:/usr/include/c++/11/bits/stl_algobase.h **** 	       bool);
 590:/usr/include/c++/11/bits/stl_algobase.h **** 
 591:/usr/include/c++/11/bits/stl_algobase.h ****   /**
 592:/usr/include/c++/11/bits/stl_algobase.h ****    *  @brief Copies the range [first,last) into result.
 593:/usr/include/c++/11/bits/stl_algobase.h ****    *  @ingroup mutating_algorithms
 594:/usr/include/c++/11/bits/stl_algobase.h ****    *  @param  __first  An input iterator.
 595:/usr/include/c++/11/bits/stl_algobase.h ****    *  @param  __last   An input iterator.
 596:/usr/include/c++/11/bits/stl_algobase.h ****    *  @param  __result An output iterator.
 597:/usr/include/c++/11/bits/stl_algobase.h ****    *  @return   result + (last - first)
 598:/usr/include/c++/11/bits/stl_algobase.h ****    *
 599:/usr/include/c++/11/bits/stl_algobase.h ****    *  This inline function will boil down to a call to @c memmove whenever
 600:/usr/include/c++/11/bits/stl_algobase.h ****    *  possible.  Failing that, if random access iterators are passed, then the
 601:/usr/include/c++/11/bits/stl_algobase.h ****    *  loop count will be known (and therefore a candidate for compiler
 602:/usr/include/c++/11/bits/stl_algobase.h ****    *  optimizations such as unrolling).  Result may not be contained within
 603:/usr/include/c++/11/bits/stl_algobase.h ****    *  [first,last); the copy_backward function should be used instead.
 604:/usr/include/c++/11/bits/stl_algobase.h ****    *
 605:/usr/include/c++/11/bits/stl_algobase.h ****    *  Note that the end of the output range is permitted to be contained
 606:/usr/include/c++/11/bits/stl_algobase.h ****    *  within [first,last).
 607:/usr/include/c++/11/bits/stl_algobase.h ****   */
 608:/usr/include/c++/11/bits/stl_algobase.h ****   template<typename _II, typename _OI>
 609:/usr/include/c++/11/bits/stl_algobase.h ****     _GLIBCXX20_CONSTEXPR
 610:/usr/include/c++/11/bits/stl_algobase.h ****     inline _OI
 611:/usr/include/c++/11/bits/stl_algobase.h ****     copy(_II __first, _II __last, _OI __result)
 612:/usr/include/c++/11/bits/stl_algobase.h ****     {
 613:/usr/include/c++/11/bits/stl_algobase.h ****       // concept requirements
 614:/usr/include/c++/11/bits/stl_algobase.h ****       __glibcxx_function_requires(_InputIteratorConcept<_II>)
 615:/usr/include/c++/11/bits/stl_algobase.h ****       __glibcxx_function_requires(_OutputIteratorConcept<_OI,
 616:/usr/include/c++/11/bits/stl_algobase.h **** 	    typename iterator_traits<_II>::value_type>)
 617:/usr/include/c++/11/bits/stl_algobase.h ****       __glibcxx_requires_can_increment_range(__first, __last, __result);
 618:/usr/include/c++/11/bits/stl_algobase.h **** 
 619:/usr/include/c++/11/bits/stl_algobase.h ****       return std::__copy_move_a<__is_move_iterator<_II>::__value>
 620:/usr/include/c++/11/bits/stl_algobase.h **** 	     (std::__miter_base(__first), std::__miter_base(__last), __result);
 621:/usr/include/c++/11/bits/stl_algobase.h ****     }
 622:/usr/include/c++/11/bits/stl_algobase.h **** 
 623:/usr/include/c++/11/bits/stl_algobase.h **** #if __cplusplus >= 201103L
 624:/usr/include/c++/11/bits/stl_algobase.h ****   /**
 625:/usr/include/c++/11/bits/stl_algobase.h ****    *  @brief Moves the range [first,last) into result.
 626:/usr/include/c++/11/bits/stl_algobase.h ****    *  @ingroup mutating_algorithms
 627:/usr/include/c++/11/bits/stl_algobase.h ****    *  @param  __first  An input iterator.
 628:/usr/include/c++/11/bits/stl_algobase.h ****    *  @param  __last   An input iterator.
 629:/usr/include/c++/11/bits/stl_algobase.h ****    *  @param  __result An output iterator.
 630:/usr/include/c++/11/bits/stl_algobase.h ****    *  @return   result + (last - first)
 631:/usr/include/c++/11/bits/stl_algobase.h ****    *
 632:/usr/include/c++/11/bits/stl_algobase.h ****    *  This inline function will boil down to a call to @c memmove whenever
 633:/usr/include/c++/11/bits/stl_algobase.h ****    *  possible.  Failing that, if random access iterators are passed, then the
 634:/usr/include/c++/11/bits/stl_algobase.h ****    *  loop count will be known (and therefore a candidate for compiler
 635:/usr/include/c++/11/bits/stl_algobase.h ****    *  optimizations such as unrolling).  Result may not be contained within
 636:/usr/include/c++/11/bits/stl_algobase.h ****    *  [first,last); the move_backward function should be used instead.
 637:/usr/include/c++/11/bits/stl_algobase.h ****    *
 638:/usr/include/c++/11/bits/stl_algobase.h ****    *  Note that the end of the output range is permitted to be contained
 639:/usr/include/c++/11/bits/stl_algobase.h ****    *  within [first,last).
 640:/usr/include/c++/11/bits/stl_algobase.h ****   */
 641:/usr/include/c++/11/bits/stl_algobase.h ****   template<typename _II, typename _OI>
 642:/usr/include/c++/11/bits/stl_algobase.h ****     _GLIBCXX20_CONSTEXPR
 643:/usr/include/c++/11/bits/stl_algobase.h ****     inline _OI
 644:/usr/include/c++/11/bits/stl_algobase.h ****     move(_II __first, _II __last, _OI __result)
 645:/usr/include/c++/11/bits/stl_algobase.h ****     {
 646:/usr/include/c++/11/bits/stl_algobase.h ****       // concept requirements
 647:/usr/include/c++/11/bits/stl_algobase.h ****       __glibcxx_function_requires(_InputIteratorConcept<_II>)
 648:/usr/include/c++/11/bits/stl_algobase.h ****       __glibcxx_function_requires(_OutputIteratorConcept<_OI,
 649:/usr/include/c++/11/bits/stl_algobase.h **** 	    typename iterator_traits<_II>::value_type>)
 650:/usr/include/c++/11/bits/stl_algobase.h ****       __glibcxx_requires_can_increment_range(__first, __last, __result);
 651:/usr/include/c++/11/bits/stl_algobase.h **** 
 652:/usr/include/c++/11/bits/stl_algobase.h ****       return std::__copy_move_a<true>(std::__miter_base(__first),
 653:/usr/include/c++/11/bits/stl_algobase.h **** 				      std::__miter_base(__last), __result);
 654:/usr/include/c++/11/bits/stl_algobase.h ****     }
 655:/usr/include/c++/11/bits/stl_algobase.h **** 
 656:/usr/include/c++/11/bits/stl_algobase.h **** #define _GLIBCXX_MOVE3(_Tp, _Up, _Vp) std::move(_Tp, _Up, _Vp)
 657:/usr/include/c++/11/bits/stl_algobase.h **** #else
 658:/usr/include/c++/11/bits/stl_algobase.h **** #define _GLIBCXX_MOVE3(_Tp, _Up, _Vp) std::copy(_Tp, _Up, _Vp)
 659:/usr/include/c++/11/bits/stl_algobase.h **** #endif
 660:/usr/include/c++/11/bits/stl_algobase.h **** 
 661:/usr/include/c++/11/bits/stl_algobase.h ****   template<bool _IsMove, bool _IsSimple, typename _Category>
 662:/usr/include/c++/11/bits/stl_algobase.h ****     struct __copy_move_backward
 663:/usr/include/c++/11/bits/stl_algobase.h ****     {
 664:/usr/include/c++/11/bits/stl_algobase.h ****       template<typename _BI1, typename _BI2>
 665:/usr/include/c++/11/bits/stl_algobase.h **** 	_GLIBCXX20_CONSTEXPR
 666:/usr/include/c++/11/bits/stl_algobase.h **** 	static _BI2
 667:/usr/include/c++/11/bits/stl_algobase.h **** 	__copy_move_b(_BI1 __first, _BI1 __last, _BI2 __result)
 668:/usr/include/c++/11/bits/stl_algobase.h **** 	{
 669:/usr/include/c++/11/bits/stl_algobase.h **** 	  while (__first != __last)
 670:/usr/include/c++/11/bits/stl_algobase.h **** 	    *--__result = *--__last;
 671:/usr/include/c++/11/bits/stl_algobase.h **** 	  return __result;
 672:/usr/include/c++/11/bits/stl_algobase.h **** 	}
 673:/usr/include/c++/11/bits/stl_algobase.h ****     };
 674:/usr/include/c++/11/bits/stl_algobase.h **** 
 675:/usr/include/c++/11/bits/stl_algobase.h **** #if __cplusplus >= 201103L
 676:/usr/include/c++/11/bits/stl_algobase.h ****   template<typename _Category>
 677:/usr/include/c++/11/bits/stl_algobase.h ****     struct __copy_move_backward<true, false, _Category>
 678:/usr/include/c++/11/bits/stl_algobase.h ****     {
 679:/usr/include/c++/11/bits/stl_algobase.h ****       template<typename _BI1, typename _BI2>
 680:/usr/include/c++/11/bits/stl_algobase.h **** 	_GLIBCXX20_CONSTEXPR
 681:/usr/include/c++/11/bits/stl_algobase.h **** 	static _BI2
 682:/usr/include/c++/11/bits/stl_algobase.h **** 	__copy_move_b(_BI1 __first, _BI1 __last, _BI2 __result)
 683:/usr/include/c++/11/bits/stl_algobase.h **** 	{
 684:/usr/include/c++/11/bits/stl_algobase.h **** 	  while (__first != __last)
 685:/usr/include/c++/11/bits/stl_algobase.h **** 	    *--__result = std::move(*--__last);
 686:/usr/include/c++/11/bits/stl_algobase.h **** 	  return __result;
 687:/usr/include/c++/11/bits/stl_algobase.h **** 	}
 688:/usr/include/c++/11/bits/stl_algobase.h ****     };
 689:/usr/include/c++/11/bits/stl_algobase.h **** #endif
 690:/usr/include/c++/11/bits/stl_algobase.h **** 
 691:/usr/include/c++/11/bits/stl_algobase.h ****   template<>
 692:/usr/include/c++/11/bits/stl_algobase.h ****     struct __copy_move_backward<false, false, random_access_iterator_tag>
 693:/usr/include/c++/11/bits/stl_algobase.h ****     {
 694:/usr/include/c++/11/bits/stl_algobase.h ****       template<typename _BI1, typename _BI2>
 695:/usr/include/c++/11/bits/stl_algobase.h **** 	_GLIBCXX20_CONSTEXPR
 696:/usr/include/c++/11/bits/stl_algobase.h **** 	static _BI2
 697:/usr/include/c++/11/bits/stl_algobase.h **** 	__copy_move_b(_BI1 __first, _BI1 __last, _BI2 __result)
 698:/usr/include/c++/11/bits/stl_algobase.h **** 	{
 699:/usr/include/c++/11/bits/stl_algobase.h **** 	  typename iterator_traits<_BI1>::difference_type
 700:/usr/include/c++/11/bits/stl_algobase.h **** 	    __n = __last - __first;
 701:/usr/include/c++/11/bits/stl_algobase.h **** 	  for (; __n > 0; --__n)
 702:/usr/include/c++/11/bits/stl_algobase.h **** 	    *--__result = *--__last;
 703:/usr/include/c++/11/bits/stl_algobase.h **** 	  return __result;
 704:/usr/include/c++/11/bits/stl_algobase.h **** 	}
 705:/usr/include/c++/11/bits/stl_algobase.h ****     };
 706:/usr/include/c++/11/bits/stl_algobase.h **** 
 707:/usr/include/c++/11/bits/stl_algobase.h **** #if __cplusplus >= 201103L
 708:/usr/include/c++/11/bits/stl_algobase.h ****   template<>
 709:/usr/include/c++/11/bits/stl_algobase.h ****     struct __copy_move_backward<true, false, random_access_iterator_tag>
 710:/usr/include/c++/11/bits/stl_algobase.h ****     {
 711:/usr/include/c++/11/bits/stl_algobase.h ****       template<typename _BI1, typename _BI2>
 712:/usr/include/c++/11/bits/stl_algobase.h **** 	_GLIBCXX20_CONSTEXPR
 713:/usr/include/c++/11/bits/stl_algobase.h **** 	static _BI2
 714:/usr/include/c++/11/bits/stl_algobase.h **** 	__copy_move_b(_BI1 __first, _BI1 __last, _BI2 __result)
 715:/usr/include/c++/11/bits/stl_algobase.h **** 	{
 716:/usr/include/c++/11/bits/stl_algobase.h **** 	  typename iterator_traits<_BI1>::difference_type
 717:/usr/include/c++/11/bits/stl_algobase.h **** 	    __n = __last - __first;
 718:/usr/include/c++/11/bits/stl_algobase.h **** 	  for (; __n > 0; --__n)
 719:/usr/include/c++/11/bits/stl_algobase.h **** 	    *--__result = std::move(*--__last);
 720:/usr/include/c++/11/bits/stl_algobase.h **** 	  return __result;
 721:/usr/include/c++/11/bits/stl_algobase.h **** 	}
 722:/usr/include/c++/11/bits/stl_algobase.h ****     };
 723:/usr/include/c++/11/bits/stl_algobase.h **** #endif
 724:/usr/include/c++/11/bits/stl_algobase.h **** 
 725:/usr/include/c++/11/bits/stl_algobase.h ****   template<bool _IsMove>
 726:/usr/include/c++/11/bits/stl_algobase.h ****     struct __copy_move_backward<_IsMove, true, random_access_iterator_tag>
 727:/usr/include/c++/11/bits/stl_algobase.h ****     {
 728:/usr/include/c++/11/bits/stl_algobase.h ****       template<typename _Tp>
 729:/usr/include/c++/11/bits/stl_algobase.h **** 	_GLIBCXX20_CONSTEXPR
 730:/usr/include/c++/11/bits/stl_algobase.h **** 	static _Tp*
 731:/usr/include/c++/11/bits/stl_algobase.h **** 	__copy_move_b(const _Tp* __first, const _Tp* __last, _Tp* __result)
 732:/usr/include/c++/11/bits/stl_algobase.h **** 	{
 733:/usr/include/c++/11/bits/stl_algobase.h **** #if __cplusplus >= 201103L
 734:/usr/include/c++/11/bits/stl_algobase.h **** 	  using __assignable = conditional<_IsMove,
 735:/usr/include/c++/11/bits/stl_algobase.h **** 					   is_move_assignable<_Tp>,
 736:/usr/include/c++/11/bits/stl_algobase.h **** 					   is_copy_assignable<_Tp>>;
 737:/usr/include/c++/11/bits/stl_algobase.h **** 	  // trivial types can have deleted assignment
 738:/usr/include/c++/11/bits/stl_algobase.h **** 	  static_assert( __assignable::type::value, "type is not assignable" );
 739:/usr/include/c++/11/bits/stl_algobase.h **** #endif
 740:/usr/include/c++/11/bits/stl_algobase.h **** 	  const ptrdiff_t _Num = __last - __first;
 741:/usr/include/c++/11/bits/stl_algobase.h **** 	  if (_Num)
 742:/usr/include/c++/11/bits/stl_algobase.h **** 	    __builtin_memmove(__result - _Num, __first, sizeof(_Tp) * _Num);
 743:/usr/include/c++/11/bits/stl_algobase.h **** 	  return __result - _Num;
 744:/usr/include/c++/11/bits/stl_algobase.h **** 	}
 745:/usr/include/c++/11/bits/stl_algobase.h ****     };
 746:/usr/include/c++/11/bits/stl_algobase.h **** 
 747:/usr/include/c++/11/bits/stl_algobase.h ****   template<bool _IsMove, typename _BI1, typename _BI2>
 748:/usr/include/c++/11/bits/stl_algobase.h ****     _GLIBCXX20_CONSTEXPR
 749:/usr/include/c++/11/bits/stl_algobase.h ****     inline _BI2
 750:/usr/include/c++/11/bits/stl_algobase.h ****     __copy_move_backward_a2(_BI1 __first, _BI1 __last, _BI2 __result)
 751:/usr/include/c++/11/bits/stl_algobase.h ****     {
 752:/usr/include/c++/11/bits/stl_algobase.h ****       typedef typename iterator_traits<_BI1>::iterator_category _Category;
 753:/usr/include/c++/11/bits/stl_algobase.h **** #ifdef __cpp_lib_is_constant_evaluated
 754:/usr/include/c++/11/bits/stl_algobase.h ****       if (std::is_constant_evaluated())
 755:/usr/include/c++/11/bits/stl_algobase.h **** 	return std::__copy_move_backward<_IsMove, false, _Category>::
 756:/usr/include/c++/11/bits/stl_algobase.h **** 	  __copy_move_b(__first, __last, __result);
 757:/usr/include/c++/11/bits/stl_algobase.h **** #endif
 758:/usr/include/c++/11/bits/stl_algobase.h ****       return std::__copy_move_backward<_IsMove,
 759:/usr/include/c++/11/bits/stl_algobase.h **** 				       __memcpyable<_BI2, _BI1>::__value,
 760:/usr/include/c++/11/bits/stl_algobase.h **** 				       _Category>::__copy_move_b(__first,
 761:/usr/include/c++/11/bits/stl_algobase.h **** 								 __last,
 762:/usr/include/c++/11/bits/stl_algobase.h **** 								 __result);
 763:/usr/include/c++/11/bits/stl_algobase.h ****     }
 764:/usr/include/c++/11/bits/stl_algobase.h **** 
 765:/usr/include/c++/11/bits/stl_algobase.h ****   template<bool _IsMove, typename _BI1, typename _BI2>
 766:/usr/include/c++/11/bits/stl_algobase.h ****     _GLIBCXX20_CONSTEXPR
 767:/usr/include/c++/11/bits/stl_algobase.h ****     inline _BI2
 768:/usr/include/c++/11/bits/stl_algobase.h ****     __copy_move_backward_a1(_BI1 __first, _BI1 __last, _BI2 __result)
 769:/usr/include/c++/11/bits/stl_algobase.h ****     { return std::__copy_move_backward_a2<_IsMove>(__first, __last, __result); }
 770:/usr/include/c++/11/bits/stl_algobase.h **** 
 771:/usr/include/c++/11/bits/stl_algobase.h ****   template<bool _IsMove,
 772:/usr/include/c++/11/bits/stl_algobase.h **** 	   typename _Tp, typename _Ref, typename _Ptr, typename _OI>
 773:/usr/include/c++/11/bits/stl_algobase.h ****     _OI
 774:/usr/include/c++/11/bits/stl_algobase.h ****     __copy_move_backward_a1(_GLIBCXX_STD_C::_Deque_iterator<_Tp, _Ref, _Ptr>,
 775:/usr/include/c++/11/bits/stl_algobase.h **** 			    _GLIBCXX_STD_C::_Deque_iterator<_Tp, _Ref, _Ptr>,
 776:/usr/include/c++/11/bits/stl_algobase.h **** 			    _OI);
 777:/usr/include/c++/11/bits/stl_algobase.h **** 
 778:/usr/include/c++/11/bits/stl_algobase.h ****   template<bool _IsMove,
 779:/usr/include/c++/11/bits/stl_algobase.h **** 	   typename _ITp, typename _IRef, typename _IPtr, typename _OTp>
 780:/usr/include/c++/11/bits/stl_algobase.h ****     _GLIBCXX_STD_C::_Deque_iterator<_OTp, _OTp&, _OTp*>
 781:/usr/include/c++/11/bits/stl_algobase.h ****     __copy_move_backward_a1(
 782:/usr/include/c++/11/bits/stl_algobase.h **** 			_GLIBCXX_STD_C::_Deque_iterator<_ITp, _IRef, _IPtr>,
 783:/usr/include/c++/11/bits/stl_algobase.h **** 			_GLIBCXX_STD_C::_Deque_iterator<_ITp, _IRef, _IPtr>,
 784:/usr/include/c++/11/bits/stl_algobase.h **** 			_GLIBCXX_STD_C::_Deque_iterator<_OTp, _OTp&, _OTp*>);
 785:/usr/include/c++/11/bits/stl_algobase.h **** 
 786:/usr/include/c++/11/bits/stl_algobase.h ****   template<bool _IsMove, typename _II, typename _Tp>
 787:/usr/include/c++/11/bits/stl_algobase.h ****     typename __gnu_cxx::__enable_if<
 788:/usr/include/c++/11/bits/stl_algobase.h ****       __is_random_access_iter<_II>::__value,
 789:/usr/include/c++/11/bits/stl_algobase.h ****       _GLIBCXX_STD_C::_Deque_iterator<_Tp, _Tp&, _Tp*> >::__type
 790:/usr/include/c++/11/bits/stl_algobase.h ****     __copy_move_backward_a1(_II, _II,
 791:/usr/include/c++/11/bits/stl_algobase.h **** 			    _GLIBCXX_STD_C::_Deque_iterator<_Tp, _Tp&, _Tp*>);
 792:/usr/include/c++/11/bits/stl_algobase.h **** 
 793:/usr/include/c++/11/bits/stl_algobase.h ****   template<bool _IsMove, typename _II, typename _OI>
 794:/usr/include/c++/11/bits/stl_algobase.h ****     _GLIBCXX20_CONSTEXPR
 795:/usr/include/c++/11/bits/stl_algobase.h ****     inline _OI
 796:/usr/include/c++/11/bits/stl_algobase.h ****     __copy_move_backward_a(_II __first, _II __last, _OI __result)
 797:/usr/include/c++/11/bits/stl_algobase.h ****     {
 798:/usr/include/c++/11/bits/stl_algobase.h ****       return std::__niter_wrap(__result,
 799:/usr/include/c++/11/bits/stl_algobase.h **** 		std::__copy_move_backward_a1<_IsMove>
 800:/usr/include/c++/11/bits/stl_algobase.h **** 		  (std::__niter_base(__first), std::__niter_base(__last),
 801:/usr/include/c++/11/bits/stl_algobase.h **** 		   std::__niter_base(__result)));
 802:/usr/include/c++/11/bits/stl_algobase.h ****     }
 803:/usr/include/c++/11/bits/stl_algobase.h **** 
 804:/usr/include/c++/11/bits/stl_algobase.h ****   template<bool _IsMove,
 805:/usr/include/c++/11/bits/stl_algobase.h **** 	   typename _Ite, typename _Seq, typename _Cat, typename _OI>
 806:/usr/include/c++/11/bits/stl_algobase.h ****     _OI
 807:/usr/include/c++/11/bits/stl_algobase.h ****     __copy_move_backward_a(
 808:/usr/include/c++/11/bits/stl_algobase.h **** 		const ::__gnu_debug::_Safe_iterator<_Ite, _Seq, _Cat>&,
 809:/usr/include/c++/11/bits/stl_algobase.h **** 		const ::__gnu_debug::_Safe_iterator<_Ite, _Seq, _Cat>&,
 810:/usr/include/c++/11/bits/stl_algobase.h **** 		_OI);
 811:/usr/include/c++/11/bits/stl_algobase.h **** 
 812:/usr/include/c++/11/bits/stl_algobase.h ****   template<bool _IsMove,
 813:/usr/include/c++/11/bits/stl_algobase.h **** 	   typename _II, typename _Ite, typename _Seq, typename _Cat>
 814:/usr/include/c++/11/bits/stl_algobase.h ****     __gnu_debug::_Safe_iterator<_Ite, _Seq, _Cat>
 815:/usr/include/c++/11/bits/stl_algobase.h ****     __copy_move_backward_a(_II, _II,
 816:/usr/include/c++/11/bits/stl_algobase.h **** 		const ::__gnu_debug::_Safe_iterator<_Ite, _Seq, _Cat>&);
 817:/usr/include/c++/11/bits/stl_algobase.h **** 
 818:/usr/include/c++/11/bits/stl_algobase.h ****   template<bool _IsMove,
 819:/usr/include/c++/11/bits/stl_algobase.h **** 	   typename _IIte, typename _ISeq, typename _ICat,
 820:/usr/include/c++/11/bits/stl_algobase.h **** 	   typename _OIte, typename _OSeq, typename _OCat>
 821:/usr/include/c++/11/bits/stl_algobase.h ****     ::__gnu_debug::_Safe_iterator<_OIte, _OSeq, _OCat>
 822:/usr/include/c++/11/bits/stl_algobase.h ****     __copy_move_backward_a(
 823:/usr/include/c++/11/bits/stl_algobase.h **** 		const ::__gnu_debug::_Safe_iterator<_IIte, _ISeq, _ICat>&,
 824:/usr/include/c++/11/bits/stl_algobase.h **** 		const ::__gnu_debug::_Safe_iterator<_IIte, _ISeq, _ICat>&,
 825:/usr/include/c++/11/bits/stl_algobase.h **** 		const ::__gnu_debug::_Safe_iterator<_OIte, _OSeq, _OCat>&);
 826:/usr/include/c++/11/bits/stl_algobase.h **** 
 827:/usr/include/c++/11/bits/stl_algobase.h ****   /**
 828:/usr/include/c++/11/bits/stl_algobase.h ****    *  @brief Copies the range [first,last) into result.
 829:/usr/include/c++/11/bits/stl_algobase.h ****    *  @ingroup mutating_algorithms
 830:/usr/include/c++/11/bits/stl_algobase.h ****    *  @param  __first  A bidirectional iterator.
 831:/usr/include/c++/11/bits/stl_algobase.h ****    *  @param  __last   A bidirectional iterator.
 832:/usr/include/c++/11/bits/stl_algobase.h ****    *  @param  __result A bidirectional iterator.
 833:/usr/include/c++/11/bits/stl_algobase.h ****    *  @return   result - (last - first)
 834:/usr/include/c++/11/bits/stl_algobase.h ****    *
 835:/usr/include/c++/11/bits/stl_algobase.h ****    *  The function has the same effect as copy, but starts at the end of the
 836:/usr/include/c++/11/bits/stl_algobase.h ****    *  range and works its way to the start, returning the start of the result.
 837:/usr/include/c++/11/bits/stl_algobase.h ****    *  This inline function will boil down to a call to @c memmove whenever
 838:/usr/include/c++/11/bits/stl_algobase.h ****    *  possible.  Failing that, if random access iterators are passed, then the
 839:/usr/include/c++/11/bits/stl_algobase.h ****    *  loop count will be known (and therefore a candidate for compiler
 840:/usr/include/c++/11/bits/stl_algobase.h ****    *  optimizations such as unrolling).
 841:/usr/include/c++/11/bits/stl_algobase.h ****    *
 842:/usr/include/c++/11/bits/stl_algobase.h ****    *  Result may not be in the range (first,last].  Use copy instead.  Note
 843:/usr/include/c++/11/bits/stl_algobase.h ****    *  that the start of the output range may overlap [first,last).
 844:/usr/include/c++/11/bits/stl_algobase.h ****   */
 845:/usr/include/c++/11/bits/stl_algobase.h ****   template<typename _BI1, typename _BI2>
 846:/usr/include/c++/11/bits/stl_algobase.h ****     _GLIBCXX20_CONSTEXPR
 847:/usr/include/c++/11/bits/stl_algobase.h ****     inline _BI2
 848:/usr/include/c++/11/bits/stl_algobase.h ****     copy_backward(_BI1 __first, _BI1 __last, _BI2 __result)
 849:/usr/include/c++/11/bits/stl_algobase.h ****     {
 850:/usr/include/c++/11/bits/stl_algobase.h ****       // concept requirements
 851:/usr/include/c++/11/bits/stl_algobase.h ****       __glibcxx_function_requires(_BidirectionalIteratorConcept<_BI1>)
 852:/usr/include/c++/11/bits/stl_algobase.h ****       __glibcxx_function_requires(_Mutable_BidirectionalIteratorConcept<_BI2>)
 853:/usr/include/c++/11/bits/stl_algobase.h ****       __glibcxx_function_requires(_ConvertibleConcept<
 854:/usr/include/c++/11/bits/stl_algobase.h **** 	    typename iterator_traits<_BI1>::value_type,
 855:/usr/include/c++/11/bits/stl_algobase.h **** 	    typename iterator_traits<_BI2>::value_type>)
 856:/usr/include/c++/11/bits/stl_algobase.h ****       __glibcxx_requires_can_decrement_range(__first, __last, __result);
 857:/usr/include/c++/11/bits/stl_algobase.h **** 
 858:/usr/include/c++/11/bits/stl_algobase.h ****       return std::__copy_move_backward_a<__is_move_iterator<_BI1>::__value>
 859:/usr/include/c++/11/bits/stl_algobase.h **** 	     (std::__miter_base(__first), std::__miter_base(__last), __result);
 860:/usr/include/c++/11/bits/stl_algobase.h ****     }
 861:/usr/include/c++/11/bits/stl_algobase.h **** 
 862:/usr/include/c++/11/bits/stl_algobase.h **** #if __cplusplus >= 201103L
 863:/usr/include/c++/11/bits/stl_algobase.h ****   /**
 864:/usr/include/c++/11/bits/stl_algobase.h ****    *  @brief Moves the range [first,last) into result.
 865:/usr/include/c++/11/bits/stl_algobase.h ****    *  @ingroup mutating_algorithms
 866:/usr/include/c++/11/bits/stl_algobase.h ****    *  @param  __first  A bidirectional iterator.
 867:/usr/include/c++/11/bits/stl_algobase.h ****    *  @param  __last   A bidirectional iterator.
 868:/usr/include/c++/11/bits/stl_algobase.h ****    *  @param  __result A bidirectional iterator.
 869:/usr/include/c++/11/bits/stl_algobase.h ****    *  @return   result - (last - first)
 870:/usr/include/c++/11/bits/stl_algobase.h ****    *
 871:/usr/include/c++/11/bits/stl_algobase.h ****    *  The function has the same effect as move, but starts at the end of the
 872:/usr/include/c++/11/bits/stl_algobase.h ****    *  range and works its way to the start, returning the start of the result.
 873:/usr/include/c++/11/bits/stl_algobase.h ****    *  This inline function will boil down to a call to @c memmove whenever
 874:/usr/include/c++/11/bits/stl_algobase.h ****    *  possible.  Failing that, if random access iterators are passed, then the
 875:/usr/include/c++/11/bits/stl_algobase.h ****    *  loop count will be known (and therefore a candidate for compiler
 876:/usr/include/c++/11/bits/stl_algobase.h ****    *  optimizations such as unrolling).
 877:/usr/include/c++/11/bits/stl_algobase.h ****    *
 878:/usr/include/c++/11/bits/stl_algobase.h ****    *  Result may not be in the range (first,last].  Use move instead.  Note
 879:/usr/include/c++/11/bits/stl_algobase.h ****    *  that the start of the output range may overlap [first,last).
 880:/usr/include/c++/11/bits/stl_algobase.h ****   */
 881:/usr/include/c++/11/bits/stl_algobase.h ****   template<typename _BI1, typename _BI2>
 882:/usr/include/c++/11/bits/stl_algobase.h ****     _GLIBCXX20_CONSTEXPR
 883:/usr/include/c++/11/bits/stl_algobase.h ****     inline _BI2
 884:/usr/include/c++/11/bits/stl_algobase.h ****     move_backward(_BI1 __first, _BI1 __last, _BI2 __result)
 885:/usr/include/c++/11/bits/stl_algobase.h ****     {
 886:/usr/include/c++/11/bits/stl_algobase.h ****       // concept requirements
 887:/usr/include/c++/11/bits/stl_algobase.h ****       __glibcxx_function_requires(_BidirectionalIteratorConcept<_BI1>)
 888:/usr/include/c++/11/bits/stl_algobase.h ****       __glibcxx_function_requires(_Mutable_BidirectionalIteratorConcept<_BI2>)
 889:/usr/include/c++/11/bits/stl_algobase.h ****       __glibcxx_function_requires(_ConvertibleConcept<
 890:/usr/include/c++/11/bits/stl_algobase.h **** 	    typename iterator_traits<_BI1>::value_type,
 891:/usr/include/c++/11/bits/stl_algobase.h **** 	    typename iterator_traits<_BI2>::value_type>)
 892:/usr/include/c++/11/bits/stl_algobase.h ****       __glibcxx_requires_can_decrement_range(__first, __last, __result);
 893:/usr/include/c++/11/bits/stl_algobase.h **** 
 894:/usr/include/c++/11/bits/stl_algobase.h ****       return std::__copy_move_backward_a<true>(std::__miter_base(__first),
 895:/usr/include/c++/11/bits/stl_algobase.h **** 					       std::__miter_base(__last),
 896:/usr/include/c++/11/bits/stl_algobase.h **** 					       __result);
 897:/usr/include/c++/11/bits/stl_algobase.h ****     }
 898:/usr/include/c++/11/bits/stl_algobase.h **** 
 899:/usr/include/c++/11/bits/stl_algobase.h **** #define _GLIBCXX_MOVE_BACKWARD3(_Tp, _Up, _Vp) std::move_backward(_Tp, _Up, _Vp)
 900:/usr/include/c++/11/bits/stl_algobase.h **** #else
 901:/usr/include/c++/11/bits/stl_algobase.h **** #define _GLIBCXX_MOVE_BACKWARD3(_Tp, _Up, _Vp) std::copy_backward(_Tp, _Up, _Vp)
 902:/usr/include/c++/11/bits/stl_algobase.h **** #endif
 903:/usr/include/c++/11/bits/stl_algobase.h **** 
 904:/usr/include/c++/11/bits/stl_algobase.h ****   template<typename _ForwardIterator, typename _Tp>
 905:/usr/include/c++/11/bits/stl_algobase.h ****     _GLIBCXX20_CONSTEXPR
 906:/usr/include/c++/11/bits/stl_algobase.h ****     inline typename
 907:/usr/include/c++/11/bits/stl_algobase.h ****     __gnu_cxx::__enable_if<!__is_scalar<_Tp>::__value, void>::__type
 908:/usr/include/c++/11/bits/stl_algobase.h ****     __fill_a1(_ForwardIterator __first, _ForwardIterator __last,
 909:/usr/include/c++/11/bits/stl_algobase.h **** 	      const _Tp& __value)
 910:/usr/include/c++/11/bits/stl_algobase.h ****     {
 911:/usr/include/c++/11/bits/stl_algobase.h ****       for (; __first != __last; ++__first)
 912:/usr/include/c++/11/bits/stl_algobase.h **** 	*__first = __value;
 913:/usr/include/c++/11/bits/stl_algobase.h ****     }
 914:/usr/include/c++/11/bits/stl_algobase.h **** 
 915:/usr/include/c++/11/bits/stl_algobase.h ****   template<typename _ForwardIterator, typename _Tp>
 916:/usr/include/c++/11/bits/stl_algobase.h ****     _GLIBCXX20_CONSTEXPR
 917:/usr/include/c++/11/bits/stl_algobase.h ****     inline typename
 918:/usr/include/c++/11/bits/stl_algobase.h ****     __gnu_cxx::__enable_if<__is_scalar<_Tp>::__value, void>::__type
 919:/usr/include/c++/11/bits/stl_algobase.h ****     __fill_a1(_ForwardIterator __first, _ForwardIterator __last,
 920:/usr/include/c++/11/bits/stl_algobase.h **** 	      const _Tp& __value)
 921:/usr/include/c++/11/bits/stl_algobase.h ****     {
 922:/usr/include/c++/11/bits/stl_algobase.h ****       const _Tp __tmp = __value;
 923:/usr/include/c++/11/bits/stl_algobase.h ****       for (; __first != __last; ++__first)
 924:/usr/include/c++/11/bits/stl_algobase.h **** 	*__first = __tmp;
 925:/usr/include/c++/11/bits/stl_algobase.h ****     }
 926:/usr/include/c++/11/bits/stl_algobase.h **** 
 927:/usr/include/c++/11/bits/stl_algobase.h ****   // Specialization: for char types we can use memset.
 928:/usr/include/c++/11/bits/stl_algobase.h ****   template<typename _Tp>
 929:/usr/include/c++/11/bits/stl_algobase.h ****     _GLIBCXX20_CONSTEXPR
 930:/usr/include/c++/11/bits/stl_algobase.h ****     inline typename
 931:/usr/include/c++/11/bits/stl_algobase.h ****     __gnu_cxx::__enable_if<__is_byte<_Tp>::__value, void>::__type
 932:/usr/include/c++/11/bits/stl_algobase.h ****     __fill_a1(_Tp* __first, _Tp* __last, const _Tp& __c)
 933:/usr/include/c++/11/bits/stl_algobase.h ****     {
 934:/usr/include/c++/11/bits/stl_algobase.h ****       const _Tp __tmp = __c;
 935:/usr/include/c++/11/bits/stl_algobase.h **** #if __cpp_lib_is_constant_evaluated
 936:/usr/include/c++/11/bits/stl_algobase.h ****       if (std::is_constant_evaluated())
 937:/usr/include/c++/11/bits/stl_algobase.h **** 	{
 938:/usr/include/c++/11/bits/stl_algobase.h **** 	  for (; __first != __last; ++__first)
 939:/usr/include/c++/11/bits/stl_algobase.h **** 	    *__first = __tmp;
 940:/usr/include/c++/11/bits/stl_algobase.h **** 	  return;
 941:/usr/include/c++/11/bits/stl_algobase.h **** 	}
 942:/usr/include/c++/11/bits/stl_algobase.h **** #endif
 943:/usr/include/c++/11/bits/stl_algobase.h ****       if (const size_t __len = __last - __first)
 944:/usr/include/c++/11/bits/stl_algobase.h **** 	__builtin_memset(__first, static_cast<unsigned char>(__tmp), __len);
 945:/usr/include/c++/11/bits/stl_algobase.h ****     }
 946:/usr/include/c++/11/bits/stl_algobase.h **** 
 947:/usr/include/c++/11/bits/stl_algobase.h ****   template<typename _Ite, typename _Cont, typename _Tp>
 948:/usr/include/c++/11/bits/stl_algobase.h ****     _GLIBCXX20_CONSTEXPR
 949:/usr/include/c++/11/bits/stl_algobase.h ****     inline void
 950:/usr/include/c++/11/bits/stl_algobase.h ****     __fill_a1(::__gnu_cxx::__normal_iterator<_Ite, _Cont> __first,
 951:/usr/include/c++/11/bits/stl_algobase.h **** 	      ::__gnu_cxx::__normal_iterator<_Ite, _Cont> __last,
 952:/usr/include/c++/11/bits/stl_algobase.h **** 	      const _Tp& __value)
 953:/usr/include/c++/11/bits/stl_algobase.h ****     { std::__fill_a1(__first.base(), __last.base(), __value); }
 954:/usr/include/c++/11/bits/stl_algobase.h **** 
 955:/usr/include/c++/11/bits/stl_algobase.h ****   template<typename _Tp, typename _VTp>
 956:/usr/include/c++/11/bits/stl_algobase.h ****     void
 957:/usr/include/c++/11/bits/stl_algobase.h ****     __fill_a1(const _GLIBCXX_STD_C::_Deque_iterator<_Tp, _Tp&, _Tp*>&,
 958:/usr/include/c++/11/bits/stl_algobase.h **** 	      const _GLIBCXX_STD_C::_Deque_iterator<_Tp, _Tp&, _Tp*>&,
 959:/usr/include/c++/11/bits/stl_algobase.h **** 	      const _VTp&);
 960:/usr/include/c++/11/bits/stl_algobase.h **** 
 961:/usr/include/c++/11/bits/stl_algobase.h ****   void
 962:/usr/include/c++/11/bits/stl_algobase.h ****   __fill_a1(_GLIBCXX_STD_C::_Bit_iterator, _GLIBCXX_STD_C::_Bit_iterator,
 963:/usr/include/c++/11/bits/stl_algobase.h **** 	    const bool&);
 964:/usr/include/c++/11/bits/stl_algobase.h **** 
 965:/usr/include/c++/11/bits/stl_algobase.h ****   template<typename _FIte, typename _Tp>
 966:/usr/include/c++/11/bits/stl_algobase.h ****     _GLIBCXX20_CONSTEXPR
 967:/usr/include/c++/11/bits/stl_algobase.h ****     inline void
 968:/usr/include/c++/11/bits/stl_algobase.h ****     __fill_a(_FIte __first, _FIte __last, const _Tp& __value)
 969:/usr/include/c++/11/bits/stl_algobase.h ****     { std::__fill_a1(__first, __last, __value); }
 970:/usr/include/c++/11/bits/stl_algobase.h **** 
 971:/usr/include/c++/11/bits/stl_algobase.h ****   template<typename _Ite, typename _Seq, typename _Cat, typename _Tp>
 972:/usr/include/c++/11/bits/stl_algobase.h ****     void
 973:/usr/include/c++/11/bits/stl_algobase.h ****     __fill_a(const ::__gnu_debug::_Safe_iterator<_Ite, _Seq, _Cat>&,
 974:/usr/include/c++/11/bits/stl_algobase.h **** 	     const ::__gnu_debug::_Safe_iterator<_Ite, _Seq, _Cat>&,
 975:/usr/include/c++/11/bits/stl_algobase.h **** 	     const _Tp&);
 976:/usr/include/c++/11/bits/stl_algobase.h **** 
 977:/usr/include/c++/11/bits/stl_algobase.h ****   /**
 978:/usr/include/c++/11/bits/stl_algobase.h ****    *  @brief Fills the range [first,last) with copies of value.
 979:/usr/include/c++/11/bits/stl_algobase.h ****    *  @ingroup mutating_algorithms
 980:/usr/include/c++/11/bits/stl_algobase.h ****    *  @param  __first  A forward iterator.
 981:/usr/include/c++/11/bits/stl_algobase.h ****    *  @param  __last   A forward iterator.
 982:/usr/include/c++/11/bits/stl_algobase.h ****    *  @param  __value  A reference-to-const of arbitrary type.
 983:/usr/include/c++/11/bits/stl_algobase.h ****    *  @return   Nothing.
 984:/usr/include/c++/11/bits/stl_algobase.h ****    *
 985:/usr/include/c++/11/bits/stl_algobase.h ****    *  This function fills a range with copies of the same value.  For char
 986:/usr/include/c++/11/bits/stl_algobase.h ****    *  types filling contiguous areas of memory, this becomes an inline call
 987:/usr/include/c++/11/bits/stl_algobase.h ****    *  to @c memset or @c wmemset.
 988:/usr/include/c++/11/bits/stl_algobase.h ****   */
 989:/usr/include/c++/11/bits/stl_algobase.h ****   template<typename _ForwardIterator, typename _Tp>
 990:/usr/include/c++/11/bits/stl_algobase.h ****     _GLIBCXX20_CONSTEXPR
 991:/usr/include/c++/11/bits/stl_algobase.h ****     inline void
 992:/usr/include/c++/11/bits/stl_algobase.h ****     fill(_ForwardIterator __first, _ForwardIterator __last, const _Tp& __value)
 993:/usr/include/c++/11/bits/stl_algobase.h ****     {
 994:/usr/include/c++/11/bits/stl_algobase.h ****       // concept requirements
 995:/usr/include/c++/11/bits/stl_algobase.h ****       __glibcxx_function_requires(_Mutable_ForwardIteratorConcept<
 996:/usr/include/c++/11/bits/stl_algobase.h **** 				  _ForwardIterator>)
 997:/usr/include/c++/11/bits/stl_algobase.h ****       __glibcxx_requires_valid_range(__first, __last);
 998:/usr/include/c++/11/bits/stl_algobase.h **** 
 999:/usr/include/c++/11/bits/stl_algobase.h ****       std::__fill_a(__first, __last, __value);
1000:/usr/include/c++/11/bits/stl_algobase.h ****     }
1001:/usr/include/c++/11/bits/stl_algobase.h **** 
1002:/usr/include/c++/11/bits/stl_algobase.h ****   // Used by fill_n, generate_n, etc. to convert _Size to an integral type:
1003:/usr/include/c++/11/bits/stl_algobase.h ****   inline _GLIBCXX_CONSTEXPR int
1004:/usr/include/c++/11/bits/stl_algobase.h ****   __size_to_integer(int __n) { return __n; }
1005:/usr/include/c++/11/bits/stl_algobase.h ****   inline _GLIBCXX_CONSTEXPR unsigned
1006:/usr/include/c++/11/bits/stl_algobase.h ****   __size_to_integer(unsigned __n) { return __n; }
1007:/usr/include/c++/11/bits/stl_algobase.h ****   inline _GLIBCXX_CONSTEXPR long
1008:/usr/include/c++/11/bits/stl_algobase.h ****   __size_to_integer(long __n) { return __n; }
1009:/usr/include/c++/11/bits/stl_algobase.h ****   inline _GLIBCXX_CONSTEXPR unsigned long
1010:/usr/include/c++/11/bits/stl_algobase.h ****   __size_to_integer(unsigned long __n) { return __n; }
  37              		.loc 2 1010 40
  38              		.cfi_startproc
  39 0000 F30F1EFA 		endbr64
  40 0004 55       		pushq	%rbp
  41              		.cfi_def_cfa_offset 16
  42              		.cfi_offset 6, -16
  43 0005 4889E5   		movq	%rsp, %rbp
  44              		.cfi_def_cfa_register 6
  45 0008 48897DF8 		movq	%rdi, -8(%rbp)
  46              		.loc 2 1010 49
  47 000c 488B45F8 		movq	-8(%rbp), %rax
  48              		.loc 2 1010 54
  49 0010 5D       		popq	%rbp
  50              		.cfi_def_cfa 7, 8
  51 0011 C3       		ret
  52              		.cfi_endproc
  53              	.LFE217:
  55              		.section	.text._ZN8UnitTest15MemoryOutStreamC1Ev,"axG",@progbits,_ZN8UnitTest15MemoryOutStreamC1Ev
  56              		.align 2
  57              		.weak	_ZN8UnitTest15MemoryOutStreamC1Ev
  59              	_ZN8UnitTest15MemoryOutStreamC1Ev:
  60              	.LFB1129:
  61              		.file 3 "../MemoryOutStream.h"
   1:../MemoryOutStream.h **** #ifndef UNITTEST_MEMORYOUTSTREAM_H
   2:../MemoryOutStream.h **** #define UNITTEST_MEMORYOUTSTREAM_H
   3:../MemoryOutStream.h **** 
   4:../MemoryOutStream.h **** #include "Config.h"
   5:../MemoryOutStream.h **** 
   6:../MemoryOutStream.h **** #ifndef UNITTEST_USE_CUSTOM_STREAMS
   7:../MemoryOutStream.h **** 
   8:../MemoryOutStream.h **** #include <sstream>
   9:../MemoryOutStream.h **** 
  10:../MemoryOutStream.h **** namespace UnitTest
  11:../MemoryOutStream.h **** {
  12:../MemoryOutStream.h **** 
  13:../MemoryOutStream.h **** class MemoryOutStream : public std::ostringstream
  14:../MemoryOutStream.h **** {
  15:../MemoryOutStream.h **** public:
  16:../MemoryOutStream.h ****     MemoryOutStream() {}
  62              		.loc 3 16 5
  63              		.cfi_startproc
  64              		.cfi_personality 0x9b,DW.ref.__gxx_personality_v0
  65              		.cfi_lsda 0x1b,.LLSDA1129
  66 0000 F30F1EFA 		endbr64
  67 0004 55       		pushq	%rbp
  68              		.cfi_def_cfa_offset 16
  69              		.cfi_offset 6, -16
  70 0005 4889E5   		movq	%rsp, %rbp
  71              		.cfi_def_cfa_register 6
  72 0008 53       		pushq	%rbx
  73 0009 4883EC18 		subq	$24, %rsp
  74              		.cfi_offset 3, -24
  75 000d 48897DE8 		movq	%rdi, -24(%rbp)
  76              	.LBB2:
  77              		.loc 3 16 23
  78 0011 488B45E8 		movq	-24(%rbp), %rax
  79 0015 48059000 		addq	$144, %rax
  79      0000
  80 001b 4889C7   		movq	%rax, %rdi
  81              	.LEHB0:
  82 001e E8000000 		call	_ZNSt9basic_iosIcSt11char_traitsIcEEC2Ev@PLT
  82      00
  83              	.LEHE0:
  84 0023 488B45E8 		movq	-24(%rbp), %rax
  85 0027 488D1500 		leaq	8+_ZTTN8UnitTest15MemoryOutStreamE(%rip), %rdx
  85      000000
  86 002e 4889D6   		movq	%rdx, %rsi
  87 0031 4889C7   		movq	%rax, %rdi
  88              	.LEHB1:
  89 0034 E8000000 		call	_ZNSt7__cxx1119basic_ostringstreamIcSt11char_traitsIcESaIcEEC2Ev@PLT
  89      00
  90              	.LEHE1:
  91              		.loc 3 16 23 is_stmt 0 discriminator 2
  92 0039 488D1500 		leaq	24+_ZTVN8UnitTest15MemoryOutStreamE(%rip), %rdx
  92      000000
  93 0040 488B45E8 		movq	-24(%rbp), %rax
  94 0044 488910   		movq	%rdx, (%rax)
  95 0047 488B45E8 		movq	-24(%rbp), %rax
  96 004b 48059000 		addq	$144, %rax
  96      0000
  97 0051 488D1500 		leaq	64+_ZTVN8UnitTest15MemoryOutStreamE(%rip), %rdx
  97      000000
  98 0058 488910   		movq	%rdx, (%rax)
  99 005b 488B45E8 		movq	-24(%rbp), %rax
 100 005f 4883C070 		addq	$112, %rax
 101 0063 4889C7   		movq	%rax, %rdi
 102              	.LEHB2:
 103 0066 E8000000 		call	_ZNSt7__cxx1112basic_stringIcSt11char_traitsIcESaIcEEC1Ev@PLT
 103      00
 104              	.LEHE2:
 105              	.LBE2:
 106              		.loc 3 16 24 is_stmt 1
 107 006b EB43     		jmp	.L10
 108              	.L9:
 109 006d F30F1EFA 		endbr64
 110              	.LBB3:
 111 0071 4889C3   		movq	%rax, %rbx
 112 0074 488B45E8 		movq	-24(%rbp), %rax
 113 0078 488D1500 		leaq	8+_ZTTN8UnitTest15MemoryOutStreamE(%rip), %rdx
 113      000000
 114 007f 4889D6   		movq	%rdx, %rsi
 115 0082 4889C7   		movq	%rax, %rdi
 116 0085 E8000000 		call	_ZNSt7__cxx1119basic_ostringstreamIcSt11char_traitsIcESaIcEED2Ev@PLT
 116      00
 117 008a EB07     		jmp	.L7
 118              	.L8:
 119 008c F30F1EFA 		endbr64
 120 0090 4889C3   		movq	%rax, %rbx
 121              	.L7:
 122              		.loc 3 16 24 is_stmt 0 discriminator 1
 123 0093 488B45E8 		movq	-24(%rbp), %rax
 124 0097 48059000 		addq	$144, %rax
 124      0000
 125 009d 4889C7   		movq	%rax, %rdi
 126 00a0 E8000000 		call	_ZNSt9basic_iosIcSt11char_traitsIcEED2Ev@PLT
 126      00
 127 00a5 4889D8   		movq	%rbx, %rax
 128 00a8 4889C7   		movq	%rax, %rdi
 129              	.LEHB3:
 130 00ab E8000000 		call	_Unwind_Resume@PLT
 130      00
 131              	.LEHE3:
 132              	.L10:
 133              	.LBE3:
 134              		.loc 3 16 24
 135 00b0 488B5DF8 		movq	-8(%rbp), %rbx
 136 00b4 C9       		leave
 137              		.cfi_def_cfa 7, 8
 138 00b5 C3       		ret
 139              		.cfi_endproc
 140              	.LFE1129:
 141              		.globl	__gxx_personality_v0
 142              		.section	.gcc_except_table._ZN8UnitTest15MemoryOutStreamC1Ev,"aG",@progbits,_ZN8UnitTest15MemoryOu
 143              	.LLSDA1129:
 144 0000 FF       		.byte	0xff
 145 0001 FF       		.byte	0xff
 146 0002 01       		.byte	0x1
 147 0003 12       		.uleb128 .LLSDACSE1129-.LLSDACSB1129
 148              	.LLSDACSB1129:
 149 0004 1E       		.uleb128 .LEHB0-.LFB1129
 150 0005 05       		.uleb128 .LEHE0-.LEHB0
 151 0006 00       		.uleb128 0
 152 0007 00       		.uleb128 0
 153 0008 34       		.uleb128 .LEHB1-.LFB1129
 154 0009 05       		.uleb128 .LEHE1-.LEHB1
 155 000a 8C01     		.uleb128 .L8-.LFB1129
 156 000c 00       		.uleb128 0
 157 000d 66       		.uleb128 .LEHB2-.LFB1129
 158 000e 05       		.uleb128 .LEHE2-.LEHB2
 159 000f 6D       		.uleb128 .L9-.LFB1129
 160 0010 00       		.uleb128 0
 161 0011 AB01     		.uleb128 .LEHB3-.LFB1129
 162 0013 05       		.uleb128 .LEHE3-.LEHB3
 163 0014 00       		.uleb128 0
 164 0015 00       		.uleb128 0
 165              	.LLSDACSE1129:
 166              		.section	.text._ZN8UnitTest15MemoryOutStreamC1Ev,"axG",@progbits,_ZN8UnitTest15MemoryOutStreamC1Ev
 168              		.section	.text._ZN17ScopedCurrentTestC2ERN8UnitTest11TestResultsEPKNS0_11TestDetailsE,"axG",@progb
 169              		.align 2
 170              		.weak	_ZN17ScopedCurrentTestC2ERN8UnitTest11TestResultsEPKNS0_11TestDetailsE
 172              	_ZN17ScopedCurrentTestC2ERN8UnitTest11TestResultsEPKNS0_11TestDetailsE:
 173              	.LFB1145:
 174              		.file 4 "ScopedCurrentTest.h"
   1:ScopedCurrentTest.h **** #ifndef UNITTEST_SCOPEDCURRENTTEST_H
   2:ScopedCurrentTest.h **** #define UNITTEST_SCOPEDCURRENTTEST_H
   3:ScopedCurrentTest.h **** 
   4:ScopedCurrentTest.h **** #include "../CurrentTest.h"
   5:ScopedCurrentTest.h **** #include <cstddef>
   6:ScopedCurrentTest.h **** 
   7:ScopedCurrentTest.h **** class ScopedCurrentTest
   8:ScopedCurrentTest.h **** {
   9:ScopedCurrentTest.h **** public:
  10:ScopedCurrentTest.h **** 	ScopedCurrentTest()
  11:ScopedCurrentTest.h **** 		: m_oldTestResults(UnitTest::CurrentTest::Results())
  12:ScopedCurrentTest.h **** 		, m_oldTestDetails(UnitTest::CurrentTest::Details())
  13:ScopedCurrentTest.h **** 	{
  14:ScopedCurrentTest.h **** 	}
  15:ScopedCurrentTest.h **** 
  16:ScopedCurrentTest.h **** 	explicit ScopedCurrentTest(UnitTest::TestResults& newResults, const UnitTest::TestDetails* newDeta
 175              		.loc 4 16 11 is_stmt 1
 176              		.cfi_startproc
 177 0000 F30F1EFA 		endbr64
 178 0004 55       		pushq	%rbp
 179              		.cfi_def_cfa_offset 16
 180              		.cfi_offset 6, -16
 181 0005 4889E5   		movq	%rsp, %rbp
 182              		.cfi_def_cfa_register 6
 183 0008 4883EC20 		subq	$32, %rsp
 184 000c 48897DF8 		movq	%rdi, -8(%rbp)
 185 0010 488975F0 		movq	%rsi, -16(%rbp)
 186 0014 488955E8 		movq	%rdx, -24(%rbp)
 187              	.LBB4:
  17:ScopedCurrentTest.h **** 		: m_oldTestResults(UnitTest::CurrentTest::Results())
 188              		.loc 4 17 52
 189 0018 E8000000 		call	_ZN8UnitTest11CurrentTest7ResultsEv@PLT
 189      00
 190 001d 488B10   		movq	(%rax), %rdx
 191              		.loc 4 17 5
 192 0020 488B45F8 		movq	-8(%rbp), %rax
 193 0024 488910   		movq	%rdx, (%rax)
  18:ScopedCurrentTest.h **** 		, m_oldTestDetails(UnitTest::CurrentTest::Details())
 194              		.loc 4 18 52
 195 0027 E8000000 		call	_ZN8UnitTest11CurrentTest7DetailsEv@PLT
 195      00
 196 002c 488B10   		movq	(%rax), %rdx
 197              		.loc 4 18 5
 198 002f 488B45F8 		movq	-8(%rbp), %rax
 199 0033 48895008 		movq	%rdx, 8(%rax)
  19:ScopedCurrentTest.h **** 	{
  20:ScopedCurrentTest.h **** 		UnitTest::CurrentTest::Results() = &newResults;
 200              		.loc 4 20 33
 201 0037 E8000000 		call	_ZN8UnitTest11CurrentTest7ResultsEv@PLT
 201      00
 202              		.loc 4 20 36
 203 003c 488B55F0 		movq	-16(%rbp), %rdx
 204 0040 488910   		movq	%rdx, (%rax)
  21:ScopedCurrentTest.h **** 
  22:ScopedCurrentTest.h **** 		if (newDetails != NULL)
 205              		.loc 4 22 3
 206 0043 48837DE8 		cmpq	$0, -24(%rbp)
 206      00
 207 0048 740C     		je	.L13
  23:ScopedCurrentTest.h **** 			UnitTest::CurrentTest::Details() = newDetails;
 208              		.loc 4 23 34
 209 004a E8000000 		call	_ZN8UnitTest11CurrentTest7DetailsEv@PLT
 209      00
 210              		.loc 4 23 37
 211 004f 488B55E8 		movq	-24(%rbp), %rdx
 212 0053 488910   		movq	%rdx, (%rax)
 213              	.L13:
 214              	.LBE4:
  24:ScopedCurrentTest.h **** 	}
 215              		.loc 4 24 2
 216 0056 90       		nop
 217 0057 C9       		leave
 218              		.cfi_def_cfa 7, 8
 219 0058 C3       		ret
 220              		.cfi_endproc
 221              	.LFE1145:
 223              		.weak	_ZN17ScopedCurrentTestC1ERN8UnitTest11TestResultsEPKNS0_11TestDetailsE
 224              		.set	_ZN17ScopedCurrentTestC1ERN8UnitTest11TestResultsEPKNS0_11TestDetailsE,_ZN17ScopedCurrentTest
 225              		.section	.text._ZN17ScopedCurrentTestD2Ev,"axG",@progbits,_ZN17ScopedCurrentTestD5Ev,comdat
 226              		.align 2
 227              		.weak	_ZN17ScopedCurrentTestD2Ev
 229              	_ZN17ScopedCurrentTestD2Ev:
 230              	.LFB1148:
  25:ScopedCurrentTest.h **** 
  26:ScopedCurrentTest.h **** 	~ScopedCurrentTest()
 231              		.loc 4 26 2
 232              		.cfi_startproc
 233 0000 F30F1EFA 		endbr64
 234 0004 55       		pushq	%rbp
 235              		.cfi_def_cfa_offset 16
 236              		.cfi_offset 6, -16
 237 0005 4889E5   		movq	%rsp, %rbp
 238              		.cfi_def_cfa_register 6
 239 0008 4883EC10 		subq	$16, %rsp
 240 000c 48897DF8 		movq	%rdi, -8(%rbp)
 241              	.LBB5:
  27:ScopedCurrentTest.h **** 	{
  28:ScopedCurrentTest.h **** 		UnitTest::CurrentTest::Results() = m_oldTestResults;
 242              		.loc 4 28 33
 243 0010 E8000000 		call	_ZN8UnitTest11CurrentTest7ResultsEv@PLT
 243      00
 244              		.loc 4 28 38
 245 0015 488B55F8 		movq	-8(%rbp), %rdx
 246 0019 488B12   		movq	(%rdx), %rdx
 247              		.loc 4 28 36
 248 001c 488910   		movq	%rdx, (%rax)
  29:ScopedCurrentTest.h **** 		UnitTest::CurrentTest::Details() = m_oldTestDetails;
 249              		.loc 4 29 33
 250 001f E8000000 		call	_ZN8UnitTest11CurrentTest7DetailsEv@PLT
 250      00
 251              		.loc 4 29 38
 252 0024 488B55F8 		movq	-8(%rbp), %rdx
 253 0028 488B5208 		movq	8(%rdx), %rdx
 254              		.loc 4 29 36
 255 002c 488910   		movq	%rdx, (%rax)
 256              	.LBE5:
  30:ScopedCurrentTest.h **** 	}
 257              		.loc 4 30 2
 258 002f 90       		nop
 259 0030 C9       		leave
 260              		.cfi_def_cfa 7, 8
 261 0031 C3       		ret
 262              		.cfi_endproc
 263              	.LFE1148:
 265              		.weak	_ZN17ScopedCurrentTestD1Ev
 266              		.set	_ZN17ScopedCurrentTestD1Ev,_ZN17ScopedCurrentTestD2Ev
 267              		.section	.rodata
 268              	.LC1:
 269 000d 54657374 		.string	"TestUnitTest++.cpp"
 269      556E6974 
 269      54657374 
 269      2B2B2E63 
 269      707000
 270              	.LC2:
 271 0020 56616C69 		.string	"ValidCheckSucceeds"
 271      64436865 
 271      636B5375 
 271      63636565 
 271      647300
 272              		.text
 273              		.align 2
 275              	_ZN12_GLOBAL__N_122TestValidCheckSucceedsC2Ev:
 276              	.LFB1415:
 277              		.file 5 "TestUnitTest++.cpp"
   1:TestUnitTest++.cpp **** #include "../UnitTest++.h"
   2:TestUnitTest++.cpp **** #include "../ReportAssert.h"
   3:TestUnitTest++.cpp **** #include "ScopedCurrentTest.h"
   4:TestUnitTest++.cpp **** 
   5:TestUnitTest++.cpp **** #include <vector>
   6:TestUnitTest++.cpp **** 
   7:TestUnitTest++.cpp **** // These are sample tests that show the different features of the framework
   8:TestUnitTest++.cpp **** 
   9:TestUnitTest++.cpp **** namespace {
  10:TestUnitTest++.cpp **** 
  11:TestUnitTest++.cpp **** TEST(ValidCheckSucceeds)
 278              		.loc 5 11 1
 279              		.cfi_startproc
 280 0000 55       		pushq	%rbp
 281              		.cfi_def_cfa_offset 16
 282              		.cfi_offset 6, -16
 283 0001 4889E5   		movq	%rsp, %rbp
 284              		.cfi_def_cfa_register 6
 285 0004 53       		pushq	%rbx
 286 0005 4883EC18 		subq	$24, %rsp
 287              		.cfi_offset 3, -24
 288 0009 48897DE8 		movq	%rdi, -24(%rbp)
 289              	.LBB6:
 290              		.loc 5 11 1
 291 000d 488B5DE8 		movq	-24(%rbp), %rbx
 292 0011 E8000000 		call	_ZN13UnitTestSuite12GetSuiteNameEv
 292      00
 293 0016 4889C2   		movq	%rax, %rdx
 294 0019 41B80B00 		movl	$11, %r8d
 294      0000
 295 001f 488D0500 		leaq	.LC1(%rip), %rax
 295      000000
 296 0026 4889C1   		movq	%rax, %rcx
 297 0029 488D0500 		leaq	.LC2(%rip), %rax
 297      000000
 298 0030 4889C6   		movq	%rax, %rsi
 299 0033 4889DF   		movq	%rbx, %rdi
 300 0036 E8000000 		call	_ZN8UnitTest4TestC2EPKcS2_S2_i@PLT
 300      00
 301 003b 488D1500 		leaq	16+_ZTVN12_GLOBAL__N_122TestValidCheckSucceedsE(%rip), %rdx
 301      000000
 302 0042 488B45E8 		movq	-24(%rbp), %rax
 303 0046 488910   		movq	%rdx, (%rax)
 304              	.LBE6:
 305 0049 90       		nop
 306 004a 488B5DF8 		movq	-8(%rbp), %rbx
 307 004e C9       		leave
 308              		.cfi_def_cfa 7, 8
 309 004f C3       		ret
 310              		.cfi_endproc
 311              	.LFE1415:
 313              		.set	_ZN12_GLOBAL__N_122TestValidCheckSucceedsC1Ev,_ZN12_GLOBAL__N_122TestValidCheckSucceedsC2Ev
 314              		.local	_ZN12_GLOBAL__N_130testValidCheckSucceedsInstanceE
 315              		.comm	_ZN12_GLOBAL__N_130testValidCheckSucceedsInstanceE,56,32
 316              		.local	_ZN12_GLOBAL__N_123adderValidCheckSucceedsE
 317              		.comm	_ZN12_GLOBAL__N_123adderValidCheckSucceedsE,1,1
 318              		.section	.rodata
 319              	.LC3:
 320 0033 6200     		.string	"b"
 321 0035 000000   		.align 8
 322              	.LC4:
 323 0038 556E6861 		.string	"Unhandled exception in CHECK(b)"
 323      6E646C65 
 323      64206578 
 323      63657074 
 323      696F6E20 
 324              		.text
 325              		.align 2
 327              	_ZNK12_GLOBAL__N_122TestValidCheckSucceeds7RunImplEv:
 328              	.LFB1417:
  12:TestUnitTest++.cpp **** {
 329              		.loc 5 12 1
 330              		.cfi_startproc
 331              		.cfi_personality 0x9b,DW.ref.__gxx_personality_v0
 332              		.cfi_lsda 0x1b,.LLSDA1417
 333 0050 F30F1EFA 		endbr64
 334 0054 55       		pushq	%rbp
 335              		.cfi_def_cfa_offset 16
 336              		.cfi_offset 6, -16
 337 0055 4889E5   		movq	%rsp, %rbp
 338              		.cfi_def_cfa_register 6
 339 0058 53       		pushq	%rbx
 340 0059 4883EC58 		subq	$88, %rsp
 341              		.cfi_offset 3, -24
 342 005d 48897DA8 		movq	%rdi, -88(%rbp)
 343              		.loc 5 12 1
 344 0061 64488B04 		movq	%fs:40, %rax
 344      25280000 
 344      00
 345 006a 488945E8 		movq	%rax, -24(%rbp)
 346 006e 31C0     		xorl	%eax, %eax
  13:TestUnitTest++.cpp ****     bool const b = true;
 347              		.loc 5 13 16
 348 0070 C645BF01 		movb	$1, -65(%rbp)
  14:TestUnitTest++.cpp ****     CHECK(b);
 349              		.loc 5 14 5
 350 0074 BF010000 		movl	$1, %edi
 350      00
 351 0079 E8000000 		call	_ZN8UnitTest5CheckIbEEbT_
 351      00
 352 007e 83F001   		xorl	$1, %eax
 353 0081 84C0     		testb	%al, %al
 354 0083 0F84A000 		je	.L23
 354      0000
 355              	.LEHB4:
 356              		.loc 5 14 5 is_stmt 0 discriminator 1
 357 0089 E8000000 		call	_ZN8UnitTest11CurrentTest7ResultsEv@PLT
 357      00
 358 008e 488B18   		movq	(%rax), %rbx
 359 0091 E8000000 		call	_ZN8UnitTest11CurrentTest7DetailsEv@PLT
 359      00
 360              		.loc 5 14 5 discriminator 3
 361 0096 488B08   		movq	(%rax), %rcx
 362 0099 488D45C0 		leaq	-64(%rbp), %rax
 363 009d BA0E0000 		movl	$14, %edx
 363      00
 364 00a2 4889CE   		movq	%rcx, %rsi
 365 00a5 4889C7   		movq	%rax, %rdi
 366 00a8 E8000000 		call	_ZN8UnitTest11TestDetailsC1ERKS0_i@PLT
 366      00
 367              		.loc 5 14 5 discriminator 7
 368 00ad 488D45C0 		leaq	-64(%rbp), %rax
 369 00b1 488D1500 		leaq	.LC3(%rip), %rdx
 369      000000
 370 00b8 4889C6   		movq	%rax, %rsi
 371 00bb 4889DF   		movq	%rbx, %rdi
 372 00be E8000000 		call	_ZN8UnitTest11TestResults13OnTestFailureERKNS_11TestDetailsEPKc@PLT
 372      00
 373              	.LEHE4:
  15:TestUnitTest++.cpp **** }
 374              		.loc 5 15 1 is_stmt 1
 375 00c3 EB64     		jmp	.L23
 376              	.L21:
 377 00c5 F30F1EFA 		endbr64
  14:TestUnitTest++.cpp ****     CHECK(b);
 378              		.loc 5 14 5
 379 00c9 4889C7   		movq	%rax, %rdi
 380 00cc E8000000 		call	__cxa_begin_catch@PLT
 380      00
 381              	.LEHB5:
 382 00d1 E8000000 		call	_ZN8UnitTest11CurrentTest7ResultsEv@PLT
 382      00
  14:TestUnitTest++.cpp ****     CHECK(b);
 383              		.loc 5 14 5 is_stmt 0 discriminator 6
 384 00d6 488B18   		movq	(%rax), %rbx
 385 00d9 E8000000 		call	_ZN8UnitTest11CurrentTest7DetailsEv@PLT
 385      00
  14:TestUnitTest++.cpp ****     CHECK(b);
 386              		.loc 5 14 5 discriminator 12
 387 00de 488B08   		movq	(%rax), %rcx
 388 00e1 488D45C0 		leaq	-64(%rbp), %rax
 389 00e5 BA0E0000 		movl	$14, %edx
 389      00
 390 00ea 4889CE   		movq	%rcx, %rsi
 391 00ed 4889C7   		movq	%rax, %rdi
 392 00f0 E8000000 		call	_ZN8UnitTest11TestDetailsC1ERKS0_i@PLT
 392      00
  14:TestUnitTest++.cpp ****     CHECK(b);
 393              		.loc 5 14 5 discriminator 16
 394 00f5 488D45C0 		leaq	-64(%rbp), %rax
 395 00f9 488D1500 		leaq	.LC4(%rip), %rdx
 395      000000
 396 0100 4889C6   		movq	%rax, %rsi
 397 0103 4889DF   		movq	%rbx, %rdi
 398 0106 E8000000 		call	_ZN8UnitTest11TestResults13OnTestFailureERKNS_11TestDetailsEPKc@PLT
 398      00
 399              	.LEHE5:
 400              	.LEHB6:
  14:TestUnitTest++.cpp ****     CHECK(b);
 401              		.loc 5 14 5 discriminator 18
 402 010b E8000000 		call	__cxa_end_catch@PLT
 402      00
 403              	.LEHE6:
 404              		.loc 5 15 1 is_stmt 1 discriminator 18
 405 0110 EB17     		jmp	.L23
 406              	.L22:
 407 0112 F30F1EFA 		endbr64
  14:TestUnitTest++.cpp ****     CHECK(b);
 408              		.loc 5 14 5
 409 0116 4889C3   		movq	%rax, %rbx
 410 0119 E8000000 		call	__cxa_end_catch@PLT
 410      00
 411 011e 4889D8   		movq	%rbx, %rax
 412 0121 4889C7   		movq	%rax, %rdi
 413              	.LEHB7:
 414 0124 E8000000 		call	_Unwind_Resume@PLT
 414      00
 415              	.LEHE7:
 416              	.L23:
 417              		.loc 5 15 1
 418 0129 90       		nop
 419 012a 488B45E8 		movq	-24(%rbp), %rax
 420 012e 64482B04 		subq	%fs:40, %rax
 420      25280000 
 420      00
 421 0137 7405     		je	.L20
 422 0139 E8000000 		call	__stack_chk_fail@PLT
 422      00
 423              	.L20:
 424 013e 488B5DF8 		movq	-8(%rbp), %rbx
 425 0142 C9       		leave
 426              		.cfi_def_cfa 7, 8
 427 0143 C3       		ret
 428              		.cfi_endproc
 429              	.LFE1417:
 430              		.section	.gcc_except_table,"a",@progbits
 431              		.align 4
 432              	.LLSDA1417:
 433 0000 FF       		.byte	0xff
 434 0001 9B       		.byte	0x9b
 435 0002 1D       		.uleb128 .LLSDATT1417-.LLSDATTD1417
 436              	.LLSDATTD1417:
 437 0003 01       		.byte	0x1
 438 0004 14       		.uleb128 .LLSDACSE1417-.LLSDACSB1417
 439              	.LLSDACSB1417:
 440 0005 39       		.uleb128 .LEHB4-.LFB1417
 441 0006 3A       		.uleb128 .LEHE4-.LEHB4
 442 0007 75       		.uleb128 .L21-.LFB1417
 443 0008 01       		.uleb128 0x1
 444 0009 8101     		.uleb128 .LEHB5-.LFB1417
 445 000b 3A       		.uleb128 .LEHE5-.LEHB5
 446 000c C201     		.uleb128 .L22-.LFB1417
 447 000e 00       		.uleb128 0
 448 000f BB01     		.uleb128 .LEHB6-.LFB1417
 449 0011 05       		.uleb128 .LEHE6-.LEHB6
 450 0012 00       		.uleb128 0
 451 0013 00       		.uleb128 0
 452 0014 D401     		.uleb128 .LEHB7-.LFB1417
 453 0016 05       		.uleb128 .LEHE7-.LEHB7
 454 0017 00       		.uleb128 0
 455 0018 00       		.uleb128 0
 456              	.LLSDACSE1417:
 457 0019 01       		.byte	0x1
 458 001a 00       		.byte	0
 459 001b 00       		.align 4
 460 001c 00000000 		.long	0
 461              	
 462              	.LLSDATT1417:
 463              		.text
 465              		.section	.rodata
 466              	.LC5:
 467 0058 43686563 		.string	"CheckWorksWithPointers"
 467      6B576F72 
 467      6B735769 
 467      7468506F 
 467      696E7465 
 468              		.text
 469              		.align 2
 471              	_ZN12_GLOBAL__N_126TestCheckWorksWithPointersC2Ev:
 472              	.LFB1419:
  16:TestUnitTest++.cpp **** 
  17:TestUnitTest++.cpp **** TEST(CheckWorksWithPointers)
 473              		.loc 5 17 1
 474              		.cfi_startproc
 475 0144 55       		pushq	%rbp
 476              		.cfi_def_cfa_offset 16
 477              		.cfi_offset 6, -16
 478 0145 4889E5   		movq	%rsp, %rbp
 479              		.cfi_def_cfa_register 6
 480 0148 53       		pushq	%rbx
 481 0149 4883EC18 		subq	$24, %rsp
 482              		.cfi_offset 3, -24
 483 014d 48897DE8 		movq	%rdi, -24(%rbp)
 484              	.LBB7:
 485              		.loc 5 17 1
 486 0151 488B5DE8 		movq	-24(%rbp), %rbx
 487 0155 E8000000 		call	_ZN13UnitTestSuite12GetSuiteNameEv
 487      00
 488 015a 4889C2   		movq	%rax, %rdx
 489 015d 41B81100 		movl	$17, %r8d
 489      0000
 490 0163 488D0500 		leaq	.LC1(%rip), %rax
 490      000000
 491 016a 4889C1   		movq	%rax, %rcx
 492 016d 488D0500 		leaq	.LC5(%rip), %rax
 492      000000
 493 0174 4889C6   		movq	%rax, %rsi
 494 0177 4889DF   		movq	%rbx, %rdi
 495 017a E8000000 		call	_ZN8UnitTest4TestC2EPKcS2_S2_i@PLT
 495      00
 496 017f 488D1500 		leaq	16+_ZTVN12_GLOBAL__N_126TestCheckWorksWithPointersE(%rip), %rdx
 496      000000
 497 0186 488B45E8 		movq	-24(%rbp), %rax
 498 018a 488910   		movq	%rdx, (%rax)
 499              	.LBE7:
 500 018d 90       		nop
 501 018e 488B5DF8 		movq	-8(%rbp), %rbx
 502 0192 C9       		leave
 503              		.cfi_def_cfa 7, 8
 504 0193 C3       		ret
 505              		.cfi_endproc
 506              	.LFE1419:
 508              		.set	_ZN12_GLOBAL__N_126TestCheckWorksWithPointersC1Ev,_ZN12_GLOBAL__N_126TestCheckWorksWithPointe
 509              		.local	_ZN12_GLOBAL__N_134testCheckWorksWithPointersInstanceE
 510              		.comm	_ZN12_GLOBAL__N_134testCheckWorksWithPointersInstanceE,56,32
 511              		.local	_ZN12_GLOBAL__N_127adderCheckWorksWithPointersE
 512              		.comm	_ZN12_GLOBAL__N_127adderCheckWorksWithPointersE,1,1
 513              		.section	.rodata
 514              	.LC6:
 515 006f 7000     		.string	"p"
 516              	.LC7:
 517 0071 7020213D 		.string	"p != 0"
 517      203000
 518              		.align 8
 519              	.LC8:
 520 0078 556E6861 		.string	"Unhandled exception in CHECK(p)"
 520      6E646C65 
 520      64206578 
 520      63657074 
 520      696F6E20 
 521              		.align 8
 522              	.LC9:
 523 0098 556E6861 		.string	"Unhandled exception in CHECK(p != 0)"
 523      6E646C65 
 523      64206578 
 523      63657074 
 523      696F6E20 
 524              		.text
 525              		.align 2
 527              	_ZNK12_GLOBAL__N_126TestCheckWorksWithPointers7RunImplEv:
 528              	.LFB1421:
  18:TestUnitTest++.cpp **** {
 529              		.loc 5 18 1
 530              		.cfi_startproc
 531              		.cfi_personality 0x9b,DW.ref.__gxx_personality_v0
 532              		.cfi_lsda 0x1b,.LLSDA1421
 533 0194 F30F1EFA 		endbr64
 534 0198 55       		pushq	%rbp
 535              		.cfi_def_cfa_offset 16
 536              		.cfi_offset 6, -16
 537 0199 4889E5   		movq	%rsp, %rbp
 538              		.cfi_def_cfa_register 6
 539 019c 53       		pushq	%rbx
 540 019d 4883EC58 		subq	$88, %rsp
 541              		.cfi_offset 3, -24
 542 01a1 48897DA8 		movq	%rdi, -88(%rbp)
 543              		.loc 5 18 1
 544 01a5 64488B04 		movq	%fs:40, %rax
 544      25280000 
 544      00
 545 01ae 488945E8 		movq	%rax, -24(%rbp)
 546 01b2 31C0     		xorl	%eax, %eax
  19:TestUnitTest++.cpp ****     void* p = (void *)0x100;
 547              		.loc 5 19 11
 548 01b4 48C745B8 		movq	$256, -72(%rbp)
 548      00010000 
  20:TestUnitTest++.cpp ****     CHECK(p);
 549              		.loc 5 20 5
 550 01bc 488B45B8 		movq	-72(%rbp), %rax
 551 01c0 4889C7   		movq	%rax, %rdi
 552 01c3 E8000000 		call	_ZN8UnitTest5CheckIPvEEbT_
 552      00
 553 01c8 83F001   		xorl	$1, %eax
 554 01cb 84C0     		testb	%al, %al
 555 01cd 743A     		je	.L26
 556              	.LEHB8:
 557              		.loc 5 20 5 is_stmt 0 discriminator 1
 558 01cf E8000000 		call	_ZN8UnitTest11CurrentTest7ResultsEv@PLT
 558      00
 559 01d4 488B18   		movq	(%rax), %rbx
 560 01d7 E8000000 		call	_ZN8UnitTest11CurrentTest7DetailsEv@PLT
 560      00
 561              		.loc 5 20 5 discriminator 3
 562 01dc 488B08   		movq	(%rax), %rcx
 563 01df 488D45C0 		leaq	-64(%rbp), %rax
 564 01e3 BA140000 		movl	$20, %edx
 564      00
 565 01e8 4889CE   		movq	%rcx, %rsi
 566 01eb 4889C7   		movq	%rax, %rdi
 567 01ee E8000000 		call	_ZN8UnitTest11TestDetailsC1ERKS0_i@PLT
 567      00
 568              		.loc 5 20 5 discriminator 7
 569 01f3 488D45C0 		leaq	-64(%rbp), %rax
 570 01f7 488D1500 		leaq	.LC6(%rip), %rdx
 570      000000
 571 01fe 4889C6   		movq	%rax, %rsi
 572 0201 4889DF   		movq	%rbx, %rdi
 573 0204 E8000000 		call	_ZN8UnitTest11TestResults13OnTestFailureERKNS_11TestDetailsEPKc@PLT
 573      00
 574              	.LEHE8:
 575              	.L26:
  21:TestUnitTest++.cpp ****     CHECK(p != 0);
 576              		.loc 5 21 5 is_stmt 1
 577 0209 48837DB8 		cmpq	$0, -72(%rbp)
 577      00
 578 020e 0F95C0   		setne	%al
 579 0211 0FB6C0   		movzbl	%al, %eax
 580 0214 89C7     		movl	%eax, %edi
 581 0216 E8000000 		call	_ZN8UnitTest5CheckIbEEbT_
 581      00
 582 021b 83F001   		xorl	$1, %eax
 583 021e 84C0     		testb	%al, %al
 584 0220 0F840A01 		je	.L37
 584      0000
 585              	.LEHB9:
 586              		.loc 5 21 5 is_stmt 0 discriminator 1
 587 0226 E8000000 		call	_ZN8UnitTest11CurrentTest7ResultsEv@PLT
 587      00
 588 022b 488B18   		movq	(%rax), %rbx
 589 022e E8000000 		call	_ZN8UnitTest11CurrentTest7DetailsEv@PLT
 589      00
 590              		.loc 5 21 5 discriminator 3
 591 0233 488B08   		movq	(%rax), %rcx
 592 0236 488D45C0 		leaq	-64(%rbp), %rax
 593 023a BA150000 		movl	$21, %edx
 593      00
 594 023f 4889CE   		movq	%rcx, %rsi
 595 0242 4889C7   		movq	%rax, %rdi
 596 0245 E8000000 		call	_ZN8UnitTest11TestDetailsC1ERKS0_i@PLT
 596      00
 597              		.loc 5 21 5 discriminator 7
 598 024a 488D45C0 		leaq	-64(%rbp), %rax
 599 024e 488D1500 		leaq	.LC7(%rip), %rdx
 599      000000
 600 0255 4889C6   		movq	%rax, %rsi
 601 0258 4889DF   		movq	%rbx, %rdi
 602 025b E8000000 		call	_ZN8UnitTest11TestResults13OnTestFailureERKNS_11TestDetailsEPKc@PLT
 602      00
 603              	.LEHE9:
  22:TestUnitTest++.cpp **** }
 604              		.loc 5 22 1 is_stmt 1
 605 0260 E9CB0000 		jmp	.L37
 605      00
 606              	.L33:
 607 0265 F30F1EFA 		endbr64
  20:TestUnitTest++.cpp ****     CHECK(p);
 608              		.loc 5 20 5
 609 0269 4889C7   		movq	%rax, %rdi
 610 026c E8000000 		call	__cxa_begin_catch@PLT
 610      00
 611              	.LEHB10:
 612 0271 E8000000 		call	_ZN8UnitTest11CurrentTest7ResultsEv@PLT
 612      00
  20:TestUnitTest++.cpp ****     CHECK(p);
 613              		.loc 5 20 5 is_stmt 0 discriminator 6
 614 0276 488B18   		movq	(%rax), %rbx
 615 0279 E8000000 		call	_ZN8UnitTest11CurrentTest7DetailsEv@PLT
 615      00
  20:TestUnitTest++.cpp ****     CHECK(p);
 616              		.loc 5 20 5 discriminator 12
 617 027e 488B08   		movq	(%rax), %rcx
 618 0281 488D45C0 		leaq	-64(%rbp), %rax
 619 0285 BA140000 		movl	$20, %edx
 619      00
 620 028a 4889CE   		movq	%rcx, %rsi
 621 028d 4889C7   		movq	%rax, %rdi
 622 0290 E8000000 		call	_ZN8UnitTest11TestDetailsC1ERKS0_i@PLT
 622      00
  20:TestUnitTest++.cpp ****     CHECK(p);
 623              		.loc 5 20 5 discriminator 16
 624 0295 488D45C0 		leaq	-64(%rbp), %rax
 625 0299 488D1500 		leaq	.LC8(%rip), %rdx
 625      000000
 626 02a0 4889C6   		movq	%rax, %rsi
 627 02a3 4889DF   		movq	%rbx, %rdi
 628 02a6 E8000000 		call	_ZN8UnitTest11TestResults13OnTestFailureERKNS_11TestDetailsEPKc@PLT
 628      00
 629              	.LEHE10:
 630              	.LEHB11:
  20:TestUnitTest++.cpp ****     CHECK(p);
 631              		.loc 5 20 5 discriminator 18
 632 02ab E8000000 		call	__cxa_end_catch@PLT
 632      00
 633              	.LEHE11:
 634 02b0 E954FFFF 		jmp	.L26
 634      FF
 635              	.L34:
 636 02b5 F30F1EFA 		endbr64
  20:TestUnitTest++.cpp ****     CHECK(p);
 637              		.loc 5 20 5
 638 02b9 4889C3   		movq	%rax, %rbx
 639 02bc E8000000 		call	__cxa_end_catch@PLT
 639      00
 640 02c1 4889D8   		movq	%rbx, %rax
 641 02c4 4889C7   		movq	%rax, %rdi
 642              	.LEHB12:
 643 02c7 E8000000 		call	_Unwind_Resume@PLT
 643      00
 644              	.LEHE12:
 645              	.L35:
 646 02cc F30F1EFA 		endbr64
  21:TestUnitTest++.cpp ****     CHECK(p != 0);
 647              		.loc 5 21 5 is_stmt 1
 648 02d0 4889C7   		movq	%rax, %rdi
 649 02d3 E8000000 		call	__cxa_begin_catch@PLT
 649      00
 650              	.LEHB13:
 651 02d8 E8000000 		call	_ZN8UnitTest11CurrentTest7ResultsEv@PLT
 651      00
  21:TestUnitTest++.cpp ****     CHECK(p != 0);
 652              		.loc 5 21 5 is_stmt 0 discriminator 6
 653 02dd 488B18   		movq	(%rax), %rbx
 654 02e0 E8000000 		call	_ZN8UnitTest11CurrentTest7DetailsEv@PLT
 654      00
  21:TestUnitTest++.cpp ****     CHECK(p != 0);
 655              		.loc 5 21 5 discriminator 12
 656 02e5 488B08   		movq	(%rax), %rcx
 657 02e8 488D45C0 		leaq	-64(%rbp), %rax
 658 02ec BA150000 		movl	$21, %edx
 658      00
 659 02f1 4889CE   		movq	%rcx, %rsi
 660 02f4 4889C7   		movq	%rax, %rdi
 661 02f7 E8000000 		call	_ZN8UnitTest11TestDetailsC1ERKS0_i@PLT
 661      00
  21:TestUnitTest++.cpp ****     CHECK(p != 0);
 662              		.loc 5 21 5 discriminator 16
 663 02fc 488D45C0 		leaq	-64(%rbp), %rax
 664 0300 488D1500 		leaq	.LC9(%rip), %rdx
 664      000000
 665 0307 4889C6   		movq	%rax, %rsi
 666 030a 4889DF   		movq	%rbx, %rdi
 667 030d E8000000 		call	_ZN8UnitTest11TestResults13OnTestFailureERKNS_11TestDetailsEPKc@PLT
 667      00
 668              	.LEHE13:
 669              	.LEHB14:
  21:TestUnitTest++.cpp ****     CHECK(p != 0);
 670              		.loc 5 21 5 discriminator 18
 671 0312 E8000000 		call	__cxa_end_catch@PLT
 671      00
 672              	.LEHE14:
 673              		.loc 5 22 1 is_stmt 1 discriminator 18
 674 0317 EB17     		jmp	.L37
 675              	.L36:
 676 0319 F30F1EFA 		endbr64
  21:TestUnitTest++.cpp ****     CHECK(p != 0);
 677              		.loc 5 21 5
 678 031d 4889C3   		movq	%rax, %rbx
 679 0320 E8000000 		call	__cxa_end_catch@PLT
 679      00
 680 0325 4889D8   		movq	%rbx, %rax
 681 0328 4889C7   		movq	%rax, %rdi
 682              	.LEHB15:
 683 032b E8000000 		call	_Unwind_Resume@PLT
 683      00
 684              	.LEHE15:
 685              	.L37:
 686              		.loc 5 22 1
 687 0330 90       		nop
 688 0331 488B45E8 		movq	-24(%rbp), %rax
 689 0335 64482B04 		subq	%fs:40, %rax
 689      25280000 
 689      00
 690 033e 7405     		je	.L32
 691 0340 E8000000 		call	__stack_chk_fail@PLT
 691      00
 692              	.L32:
 693 0345 488B5DF8 		movq	-8(%rbp), %rbx
 694 0349 C9       		leave
 695              		.cfi_def_cfa 7, 8
 696 034a C3       		ret
 697              		.cfi_endproc
 698              	.LFE1421:
 699              		.section	.gcc_except_table
 700              		.align 4
 701              	.LLSDA1421:
 702 0020 FF       		.byte	0xff
 703 0021 9B       		.byte	0x9b
 704 0022 35       		.uleb128 .LLSDATT1421-.LLSDATTD1421
 705              	.LLSDATTD1421:
 706 0023 01       		.byte	0x1
 707 0024 2B       		.uleb128 .LLSDACSE1421-.LLSDACSB1421
 708              	.LLSDACSB1421:
 709 0025 3B       		.uleb128 .LEHB8-.LFB1421
 710 0026 3A       		.uleb128 .LEHE8-.LEHB8
 711 0027 D101     		.uleb128 .L33-.LFB1421
 712 0029 01       		.uleb128 0x1
 713 002a 9201     		.uleb128 .LEHB9-.LFB1421
 714 002c 3A       		.uleb128 .LEHE9-.LEHB9
 715 002d B802     		.uleb128 .L35-.LFB1421
 716 002f 01       		.uleb128 0x1
 717 0030 DD01     		.uleb128 .LEHB10-.LFB1421
 718 0032 3A       		.uleb128 .LEHE10-.LEHB10
 719 0033 A102     		.uleb128 .L34-.LFB1421
 720 0035 00       		.uleb128 0
 721 0036 9702     		.uleb128 .LEHB11-.LFB1421
 722 0038 05       		.uleb128 .LEHE11-.LEHB11
 723 0039 00       		.uleb128 0
 724 003a 00       		.uleb128 0
 725 003b B302     		.uleb128 .LEHB12-.LFB1421
 726 003d 05       		.uleb128 .LEHE12-.LEHB12
 727 003e 00       		.uleb128 0
 728 003f 00       		.uleb128 0
 729 0040 C402     		.uleb128 .LEHB13-.LFB1421
 730 0042 3A       		.uleb128 .LEHE13-.LEHB13
 731 0043 8503     		.uleb128 .L36-.LFB1421
 732 0045 00       		.uleb128 0
 733 0046 FE02     		.uleb128 .LEHB14-.LFB1421
 734 0048 05       		.uleb128 .LEHE14-.LEHB14
 735 0049 00       		.uleb128 0
 736 004a 00       		.uleb128 0
 737 004b 9703     		.uleb128 .LEHB15-.LFB1421
 738 004d 05       		.uleb128 .LEHE15-.LEHB15
 739 004e 00       		.uleb128 0
 740 004f 00       		.uleb128 0
 741              	.LLSDACSE1421:
 742 0050 01       		.byte	0x1
 743 0051 00       		.byte	0
 744 0052 0000     		.align 4
 745 0054 00000000 		.long	0
 746              	
 747              	.LLSDATT1421:
 748              		.text
 750              		.section	.rodata
 751              	.LC10:
 752 00bd 56616C69 		.string	"ValidCheckEqualSucceeds"
 752      64436865 
 752      636B4571 
 752      75616C53 
 752      75636365 
 753              		.text
 754 034b 90       		.align 2
 756              	_ZN12_GLOBAL__N_127TestValidCheckEqualSucceedsC2Ev:
 757              	.LFB1423:
  23:TestUnitTest++.cpp **** 
  24:TestUnitTest++.cpp **** TEST(ValidCheckEqualSucceeds)
 758              		.loc 5 24 1
 759              		.cfi_startproc
 760 034c 55       		pushq	%rbp
 761              		.cfi_def_cfa_offset 16
 762              		.cfi_offset 6, -16
 763 034d 4889E5   		movq	%rsp, %rbp
 764              		.cfi_def_cfa_register 6
 765 0350 53       		pushq	%rbx
 766 0351 4883EC18 		subq	$24, %rsp
 767              		.cfi_offset 3, -24
 768 0355 48897DE8 		movq	%rdi, -24(%rbp)
 769              	.LBB8:
 770              		.loc 5 24 1
 771 0359 488B5DE8 		movq	-24(%rbp), %rbx
 772 035d E8000000 		call	_ZN13UnitTestSuite12GetSuiteNameEv
 772      00
 773 0362 4889C2   		movq	%rax, %rdx
 774 0365 41B81800 		movl	$24, %r8d
 774      0000
 775 036b 488D0500 		leaq	.LC1(%rip), %rax
 775      000000
 776 0372 4889C1   		movq	%rax, %rcx
 777 0375 488D0500 		leaq	.LC10(%rip), %rax
 777      000000
 778 037c 4889C6   		movq	%rax, %rsi
 779 037f 4889DF   		movq	%rbx, %rdi
 780 0382 E8000000 		call	_ZN8UnitTest4TestC2EPKcS2_S2_i@PLT
 780      00
 781 0387 488D1500 		leaq	16+_ZTVN12_GLOBAL__N_127TestValidCheckEqualSucceedsE(%rip), %rdx
 781      000000
 782 038e 488B45E8 		movq	-24(%rbp), %rax
 783 0392 488910   		movq	%rdx, (%rax)
 784              	.LBE8:
 785 0395 90       		nop
 786 0396 488B5DF8 		movq	-8(%rbp), %rbx
 787 039a C9       		leave
 788              		.cfi_def_cfa 7, 8
 789 039b C3       		ret
 790              		.cfi_endproc
 791              	.LFE1423:
 793              		.set	_ZN12_GLOBAL__N_127TestValidCheckEqualSucceedsC1Ev,_ZN12_GLOBAL__N_127TestValidCheckEqualSucc
 794              		.local	_ZN12_GLOBAL__N_135testValidCheckEqualSucceedsInstanceE
 795              		.comm	_ZN12_GLOBAL__N_135testValidCheckEqualSucceedsInstanceE,56,32
 796              		.local	_ZN12_GLOBAL__N_128adderValidCheckEqualSucceedsE
 797              		.comm	_ZN12_GLOBAL__N_128adderValidCheckEqualSucceedsE,1,1
 798              		.section	.rodata
 799 00d5 000000   		.align 8
 800              	.LC11:
 801 00d8 556E6861 		.string	"Unhandled exception in CHECK_EQUAL(x, y)"
 801      6E646C65 
 801      64206578 
 801      63657074 
 801      696F6E20 
 802              		.text
 803              		.align 2
 805              	_ZNK12_GLOBAL__N_127TestValidCheckEqualSucceeds7RunImplEv:
 806              	.LFB1425:
  25:TestUnitTest++.cpp **** {
 807              		.loc 5 25 1
 808              		.cfi_startproc
 809              		.cfi_personality 0x9b,DW.ref.__gxx_personality_v0
 810              		.cfi_lsda 0x1b,.LLSDA1425
 811 039c F30F1EFA 		endbr64
 812 03a0 55       		pushq	%rbp
 813              		.cfi_def_cfa_offset 16
 814              		.cfi_offset 6, -16
 815 03a1 4889E5   		movq	%rsp, %rbp
 816              		.cfi_def_cfa_register 6
 817 03a4 53       		pushq	%rbx
 818 03a5 4883EC58 		subq	$88, %rsp
 819              		.cfi_offset 3, -24
 820 03a9 48897DA8 		movq	%rdi, -88(%rbp)
 821              		.loc 5 25 1
 822 03ad 64488B04 		movq	%fs:40, %rax
 822      25280000 
 822      00
 823 03b6 488945E8 		movq	%rax, -24(%rbp)
 824 03ba 31C0     		xorl	%eax, %eax
  26:TestUnitTest++.cpp ****     int const x = 3;
 825              		.loc 5 26 15
 826 03bc C745B803 		movl	$3, -72(%rbp)
 826      000000
  27:TestUnitTest++.cpp ****     int const y = 3;
 827              		.loc 5 27 15
 828 03c3 C745BC03 		movl	$3, -68(%rbp)
 828      000000
 829              	.LEHB16:
  28:TestUnitTest++.cpp ****     CHECK_EQUAL(x, y);
 830              		.loc 5 28 5
 831 03ca E8000000 		call	_ZN8UnitTest11CurrentTest7DetailsEv@PLT
 831      00
 832 03cf 488B08   		movq	(%rax), %rcx
 833 03d2 488D45C0 		leaq	-64(%rbp), %rax
 834 03d6 BA1C0000 		movl	$28, %edx
 834      00
 835 03db 4889CE   		movq	%rcx, %rsi
 836 03de 4889C7   		movq	%rax, %rdi
 837 03e1 E8000000 		call	_ZN8UnitTest11TestDetailsC1ERKS0_i@PLT
 837      00
 838              		.loc 5 28 5 is_stmt 0 discriminator 4
 839 03e6 E8000000 		call	_ZN8UnitTest11CurrentTest7ResultsEv@PLT
 839      00
 840 03eb 488B00   		movq	(%rax), %rax
 841 03ee 488D4DC0 		leaq	-64(%rbp), %rcx
 842 03f2 488D55BC 		leaq	-68(%rbp), %rdx
 843 03f6 488D75B8 		leaq	-72(%rbp), %rsi
 844 03fa 4889C7   		movq	%rax, %rdi
 845 03fd E8000000 		call	_ZN8UnitTest10CheckEqualIiiEEvRNS_11TestResultsERKT_RKT0_RKNS_11TestDetailsE
 845      00
 846              	.LEHE16:
  29:TestUnitTest++.cpp **** }
 847              		.loc 5 29 1 is_stmt 1
 848 0402 EB64     		jmp	.L39
 849              	.L44:
 850 0404 F30F1EFA 		endbr64
  28:TestUnitTest++.cpp ****     CHECK_EQUAL(x, y);
 851              		.loc 5 28 5
 852 0408 4889C7   		movq	%rax, %rdi
 853 040b E8000000 		call	__cxa_begin_catch@PLT
 853      00
 854              	.LEHB17:
 855 0410 E8000000 		call	_ZN8UnitTest11CurrentTest7ResultsEv@PLT
 855      00
  28:TestUnitTest++.cpp ****     CHECK_EQUAL(x, y);
 856              		.loc 5 28 5 is_stmt 0 discriminator 3
 857 0415 488B18   		movq	(%rax), %rbx
 858 0418 E8000000 		call	_ZN8UnitTest11CurrentTest7DetailsEv@PLT
 858      00
  28:TestUnitTest++.cpp ****     CHECK_EQUAL(x, y);
 859              		.loc 5 28 5 discriminator 11
 860 041d 488B08   		movq	(%rax), %rcx
 861 0420 488D45C0 		leaq	-64(%rbp), %rax
 862 0424 BA1C0000 		movl	$28, %edx
 862      00
 863 0429 4889CE   		movq	%rcx, %rsi
 864 042c 4889C7   		movq	%rax, %rdi
 865 042f E8000000 		call	_ZN8UnitTest11TestDetailsC1ERKS0_i@PLT
 865      00
  28:TestUnitTest++.cpp ****     CHECK_EQUAL(x, y);
 866              		.loc 5 28 5 discriminator 15
 867 0434 488D45C0 		leaq	-64(%rbp), %rax
 868 0438 488D1500 		leaq	.LC11(%rip), %rdx
 868      000000
 869 043f 4889C6   		movq	%rax, %rsi
 870 0442 4889DF   		movq	%rbx, %rdi
 871 0445 E8000000 		call	_ZN8UnitTest11TestResults13OnTestFailureERKNS_11TestDetailsEPKc@PLT
 871      00
 872              	.LEHE17:
 873              	.LEHB18:
  28:TestUnitTest++.cpp ****     CHECK_EQUAL(x, y);
 874              		.loc 5 28 5 discriminator 17
 875 044a E8000000 		call	__cxa_end_catch@PLT
 875      00
 876              	.LEHE18:
 877              		.loc 5 29 1 is_stmt 1 discriminator 17
 878 044f EB17     		jmp	.L39
 879              	.L45:
 880 0451 F30F1EFA 		endbr64
  28:TestUnitTest++.cpp ****     CHECK_EQUAL(x, y);
 881              		.loc 5 28 5
 882 0455 4889C3   		movq	%rax, %rbx
 883 0458 E8000000 		call	__cxa_end_catch@PLT
 883      00
 884 045d 4889D8   		movq	%rbx, %rax
 885 0460 4889C7   		movq	%rax, %rdi
 886              	.LEHB19:
 887 0463 E8000000 		call	_Unwind_Resume@PLT
 887      00
 888              	.LEHE19:
 889              	.L39:
 890              		.loc 5 29 1
 891 0468 488B45E8 		movq	-24(%rbp), %rax
 892 046c 64482B04 		subq	%fs:40, %rax
 892      25280000 
 892      00
 893 0475 7405     		je	.L43
 894 0477 E8000000 		call	__stack_chk_fail@PLT
 894      00
 895              	.L43:
 896 047c 488B5DF8 		movq	-8(%rbp), %rbx
 897 0480 C9       		leave
 898              		.cfi_def_cfa 7, 8
 899 0481 C3       		ret
 900              		.cfi_endproc
 901              	.LFE1425:
 902              		.section	.gcc_except_table
 903              		.align 4
 904              	.LLSDA1425:
 905 0058 FF       		.byte	0xff
 906 0059 9B       		.byte	0x9b
 907 005a 1D       		.uleb128 .LLSDATT1425-.LLSDATTD1425
 908              	.LLSDATTD1425:
 909 005b 01       		.byte	0x1
 910 005c 13       		.uleb128 .LLSDACSE1425-.LLSDACSB1425
 911              	.LLSDACSB1425:
 912 005d 2E       		.uleb128 .LEHB16-.LFB1425
 913 005e 38       		.uleb128 .LEHE16-.LEHB16
 914 005f 68       		.uleb128 .L44-.LFB1425
 915 0060 01       		.uleb128 0x1
 916 0061 74       		.uleb128 .LEHB17-.LFB1425
 917 0062 3A       		.uleb128 .LEHE17-.LEHB17
 918 0063 B501     		.uleb128 .L45-.LFB1425
 919 0065 00       		.uleb128 0
 920 0066 AE01     		.uleb128 .LEHB18-.LFB1425
 921 0068 05       		.uleb128 .LEHE18-.LEHB18
 922 0069 00       		.uleb128 0
 923 006a 00       		.uleb128 0
 924 006b C701     		.uleb128 .LEHB19-.LFB1425
 925 006d 05       		.uleb128 .LEHE19-.LEHB19
 926 006e 00       		.uleb128 0
 927 006f 00       		.uleb128 0
 928              	.LLSDACSE1425:
 929 0070 01       		.byte	0x1
 930 0071 00       		.byte	0
 931 0072 0000     		.align 4
 932 0074 00000000 		.long	0
 933              	
 934              	.LLSDATT1425:
 935              		.text
 937              		.section	.rodata
 938              	.LC12:
 939 0101 43686563 		.string	"CheckEqualWorksWithPointers"
 939      6B457175 
 939      616C576F 
 939      726B7357 
 939      69746850 
 940              		.text
 941              		.align 2
 943              	_ZN12_GLOBAL__N_131TestCheckEqualWorksWithPointersC2Ev:
 944              	.LFB1427:
  30:TestUnitTest++.cpp **** 
  31:TestUnitTest++.cpp **** TEST(CheckEqualWorksWithPointers)
 945              		.loc 5 31 1
 946              		.cfi_startproc
 947 0482 55       		pushq	%rbp
 948              		.cfi_def_cfa_offset 16
 949              		.cfi_offset 6, -16
 950 0483 4889E5   		movq	%rsp, %rbp
 951              		.cfi_def_cfa_register 6
 952 0486 53       		pushq	%rbx
 953 0487 4883EC18 		subq	$24, %rsp
 954              		.cfi_offset 3, -24
 955 048b 48897DE8 		movq	%rdi, -24(%rbp)
 956              	.LBB9:
 957              		.loc 5 31 1
 958 048f 488B5DE8 		movq	-24(%rbp), %rbx
 959 0493 E8000000 		call	_ZN13UnitTestSuite12GetSuiteNameEv
 959      00
 960 0498 4889C2   		movq	%rax, %rdx
 961 049b 41B81F00 		movl	$31, %r8d
 961      0000
 962 04a1 488D0500 		leaq	.LC1(%rip), %rax
 962      000000
 963 04a8 4889C1   		movq	%rax, %rcx
 964 04ab 488D0500 		leaq	.LC12(%rip), %rax
 964      000000
 965 04b2 4889C6   		movq	%rax, %rsi
 966 04b5 4889DF   		movq	%rbx, %rdi
 967 04b8 E8000000 		call	_ZN8UnitTest4TestC2EPKcS2_S2_i@PLT
 967      00
 968 04bd 488D1500 		leaq	16+_ZTVN12_GLOBAL__N_131TestCheckEqualWorksWithPointersE(%rip), %rdx
 968      000000
 969 04c4 488B45E8 		movq	-24(%rbp), %rax
 970 04c8 488910   		movq	%rdx, (%rax)
 971              	.LBE9:
 972 04cb 90       		nop
 973 04cc 488B5DF8 		movq	-8(%rbp), %rbx
 974 04d0 C9       		leave
 975              		.cfi_def_cfa 7, 8
 976 04d1 C3       		ret
 977              		.cfi_endproc
 978              	.LFE1427:
 980              		.set	_ZN12_GLOBAL__N_131TestCheckEqualWorksWithPointersC1Ev,_ZN12_GLOBAL__N_131TestCheckEqualWorks
 981              		.local	_ZN12_GLOBAL__N_139testCheckEqualWorksWithPointersInstanceE
 982              		.comm	_ZN12_GLOBAL__N_139testCheckEqualWorksWithPointersInstanceE,56,32
 983              		.local	_ZN12_GLOBAL__N_132adderCheckEqualWorksWithPointersE
 984              		.comm	_ZN12_GLOBAL__N_132adderCheckEqualWorksWithPointersE,1,1
 985              		.section	.rodata
 986 011d 000000   		.align 8
 987              	.LC13:
 988 0120 556E6861 		.string	"Unhandled exception in CHECK_EQUAL((void*)0, p)"
 988      6E646C65 
 988      64206578 
 988      63657074 
 988      696F6E20 
 989              		.text
 990              		.align 2
 992              	_ZNK12_GLOBAL__N_131TestCheckEqualWorksWithPointers7RunImplEv:
 993              	.LFB1429:
  32:TestUnitTest++.cpp **** {
 994              		.loc 5 32 1
 995              		.cfi_startproc
 996              		.cfi_personality 0x9b,DW.ref.__gxx_personality_v0
 997              		.cfi_lsda 0x1b,.LLSDA1429
 998 04d2 F30F1EFA 		endbr64
 999 04d6 55       		pushq	%rbp
 1000              		.cfi_def_cfa_offset 16
 1001              		.cfi_offset 6, -16
 1002 04d7 4889E5   		movq	%rsp, %rbp
 1003              		.cfi_def_cfa_register 6
 1004 04da 53       		pushq	%rbx
 1005 04db 4883EC58 		subq	$88, %rsp
 1006              		.cfi_offset 3, -24
 1007 04df 48897DA8 		movq	%rdi, -88(%rbp)
 1008              		.loc 5 32 1
 1009 04e3 64488B04 		movq	%fs:40, %rax
 1009      25280000 
 1009      00
 1010 04ec 488945E8 		movq	%rax, -24(%rbp)
 1011 04f0 31C0     		xorl	%eax, %eax
  33:TestUnitTest++.cpp ****     void* p = (void *)0;
 1012              		.loc 5 33 11
 1013 04f2 48C745B0 		movq	$0, -80(%rbp)
 1013      00000000 
 1014              	.LEHB20:
  34:TestUnitTest++.cpp ****     CHECK_EQUAL((void*)0, p);
 1015              		.loc 5 34 5
 1016 04fa E8000000 		call	_ZN8UnitTest11CurrentTest7DetailsEv@PLT
 1016      00
 1017 04ff 488B08   		movq	(%rax), %rcx
 1018 0502 488D45C0 		leaq	-64(%rbp), %rax
 1019 0506 BA220000 		movl	$34, %edx
 1019      00
 1020 050b 4889CE   		movq	%rcx, %rsi
 1021 050e 4889C7   		movq	%rax, %rdi
 1022 0511 E8000000 		call	_ZN8UnitTest11TestDetailsC1ERKS0_i@PLT
 1022      00
 1023              		.loc 5 34 5 is_stmt 0 discriminator 4
 1024 0516 48C745B8 		movq	$0, -72(%rbp)
 1024      00000000 
 1025 051e E8000000 		call	_ZN8UnitTest11CurrentTest7ResultsEv@PLT
 1025      00
 1026 0523 488B00   		movq	(%rax), %rax
 1027 0526 488D4DC0 		leaq	-64(%rbp), %rcx
 1028 052a 488D55B0 		leaq	-80(%rbp), %rdx
 1029 052e 488D75B8 		leaq	-72(%rbp), %rsi
 1030 0532 4889C7   		movq	%rax, %rdi
 1031 0535 E8000000 		call	_ZN8UnitTest10CheckEqualIPvS1_EEvRNS_11TestResultsERKT_RKT0_RKNS_11TestDetailsE
 1031      00
 1032              	.LEHE20:
  35:TestUnitTest++.cpp **** }
 1033              		.loc 5 35 1 is_stmt 1
 1034 053a EB64     		jmp	.L47
 1035              	.L52:
 1036 053c F30F1EFA 		endbr64
  34:TestUnitTest++.cpp ****     CHECK_EQUAL((void*)0, p);
 1037              		.loc 5 34 5
 1038 0540 4889C7   		movq	%rax, %rdi
 1039 0543 E8000000 		call	__cxa_begin_catch@PLT
 1039      00
 1040              	.LEHB21:
 1041 0548 E8000000 		call	_ZN8UnitTest11CurrentTest7ResultsEv@PLT
 1041      00
  34:TestUnitTest++.cpp ****     CHECK_EQUAL((void*)0, p);
 1042              		.loc 5 34 5 is_stmt 0 discriminator 3
 1043 054d 488B18   		movq	(%rax), %rbx
 1044 0550 E8000000 		call	_ZN8UnitTest11CurrentTest7DetailsEv@PLT
 1044      00
  34:TestUnitTest++.cpp ****     CHECK_EQUAL((void*)0, p);
 1045              		.loc 5 34 5 discriminator 11
 1046 0555 488B08   		movq	(%rax), %rcx
 1047 0558 488D45C0 		leaq	-64(%rbp), %rax
 1048 055c BA220000 		movl	$34, %edx
 1048      00
 1049 0561 4889CE   		movq	%rcx, %rsi
 1050 0564 4889C7   		movq	%rax, %rdi
 1051 0567 E8000000 		call	_ZN8UnitTest11TestDetailsC1ERKS0_i@PLT
 1051      00
  34:TestUnitTest++.cpp ****     CHECK_EQUAL((void*)0, p);
 1052              		.loc 5 34 5 discriminator 15
 1053 056c 488D45C0 		leaq	-64(%rbp), %rax
 1054 0570 488D1500 		leaq	.LC13(%rip), %rdx
 1054      000000
 1055 0577 4889C6   		movq	%rax, %rsi
 1056 057a 4889DF   		movq	%rbx, %rdi
 1057 057d E8000000 		call	_ZN8UnitTest11TestResults13OnTestFailureERKNS_11TestDetailsEPKc@PLT
 1057      00
 1058              	.LEHE21:
 1059              	.LEHB22:
  34:TestUnitTest++.cpp ****     CHECK_EQUAL((void*)0, p);
 1060              		.loc 5 34 5 discriminator 17
 1061 0582 E8000000 		call	__cxa_end_catch@PLT
 1061      00
 1062              	.LEHE22:
 1063              		.loc 5 35 1 is_stmt 1 discriminator 17
 1064 0587 EB17     		jmp	.L47
 1065              	.L53:
 1066 0589 F30F1EFA 		endbr64
  34:TestUnitTest++.cpp ****     CHECK_EQUAL((void*)0, p);
 1067              		.loc 5 34 5
 1068 058d 4889C3   		movq	%rax, %rbx
 1069 0590 E8000000 		call	__cxa_end_catch@PLT
 1069      00
 1070 0595 4889D8   		movq	%rbx, %rax
 1071 0598 4889C7   		movq	%rax, %rdi
 1072              	.LEHB23:
 1073 059b E8000000 		call	_Unwind_Resume@PLT
 1073      00
 1074              	.LEHE23:
 1075              	.L47:
 1076              		.loc 5 35 1
 1077 05a0 488B45E8 		movq	-24(%rbp), %rax
 1078 05a4 64482B04 		subq	%fs:40, %rax
 1078      25280000 
 1078      00
 1079 05ad 7405     		je	.L51
 1080 05af E8000000 		call	__stack_chk_fail@PLT
 1080      00
 1081              	.L51:
 1082 05b4 488B5DF8 		movq	-8(%rbp), %rbx
 1083 05b8 C9       		leave
 1084              		.cfi_def_cfa 7, 8
 1085 05b9 C3       		ret
 1086              		.cfi_endproc
 1087              	.LFE1429:
 1088              		.section	.gcc_except_table
 1089              		.align 4
 1090              	.LLSDA1429:
 1091 0078 FF       		.byte	0xff
 1092 0079 9B       		.byte	0x9b
 1093 007a 1D       		.uleb128 .LLSDATT1429-.LLSDATTD1429
 1094              	.LLSDATTD1429:
 1095 007b 01       		.byte	0x1
 1096 007c 13       		.uleb128 .LLSDACSE1429-.LLSDACSB1429
 1097              	.LLSDACSB1429:
 1098 007d 28       		.uleb128 .LEHB20-.LFB1429
 1099 007e 40       		.uleb128 .LEHE20-.LEHB20
 1100 007f 6A       		.uleb128 .L52-.LFB1429
 1101 0080 01       		.uleb128 0x1
 1102 0081 76       		.uleb128 .LEHB21-.LFB1429
 1103 0082 3A       		.uleb128 .LEHE21-.LEHB21
 1104 0083 B701     		.uleb128 .L53-.LFB1429
 1105 0085 00       		.uleb128 0
 1106 0086 B001     		.uleb128 .LEHB22-.LFB1429
 1107 0088 05       		.uleb128 .LEHE22-.LEHB22
 1108 0089 00       		.uleb128 0
 1109 008a 00       		.uleb128 0
 1110 008b C901     		.uleb128 .LEHB23-.LFB1429
 1111 008d 05       		.uleb128 .LEHE23-.LEHB23
 1112 008e 00       		.uleb128 0
 1113 008f 00       		.uleb128 0
 1114              	.LLSDACSE1429:
 1115 0090 01       		.byte	0x1
 1116 0091 00       		.byte	0
 1117 0092 0000     		.align 4
 1118 0094 00000000 		.long	0
 1119              	
 1120              	.LLSDATT1429:
 1121              		.text
 1123              		.section	.rodata
 1124              	.LC14:
 1125 0150 56616C69 		.string	"ValidCheckCloseSucceeds"
 1125      64436865 
 1125      636B436C 
 1125      6F736553 
 1125      75636365 
 1126              		.text
 1127              		.align 2
 1129              	_ZN12_GLOBAL__N_127TestValidCheckCloseSucceedsC2Ev:
 1130              	.LFB1431:
  36:TestUnitTest++.cpp **** 
  37:TestUnitTest++.cpp **** TEST(ValidCheckCloseSucceeds)
 1131              		.loc 5 37 1
 1132              		.cfi_startproc
 1133 05ba 55       		pushq	%rbp
 1134              		.cfi_def_cfa_offset 16
 1135              		.cfi_offset 6, -16
 1136 05bb 4889E5   		movq	%rsp, %rbp
 1137              		.cfi_def_cfa_register 6
 1138 05be 53       		pushq	%rbx
 1139 05bf 4883EC18 		subq	$24, %rsp
 1140              		.cfi_offset 3, -24
 1141 05c3 48897DE8 		movq	%rdi, -24(%rbp)
 1142              	.LBB10:
 1143              		.loc 5 37 1
 1144 05c7 488B5DE8 		movq	-24(%rbp), %rbx
 1145 05cb E8000000 		call	_ZN13UnitTestSuite12GetSuiteNameEv
 1145      00
 1146 05d0 4889C2   		movq	%rax, %rdx
 1147 05d3 41B82500 		movl	$37, %r8d
 1147      0000
 1148 05d9 488D0500 		leaq	.LC1(%rip), %rax
 1148      000000
 1149 05e0 4889C1   		movq	%rax, %rcx
 1150 05e3 488D0500 		leaq	.LC14(%rip), %rax
 1150      000000
 1151 05ea 4889C6   		movq	%rax, %rsi
 1152 05ed 4889DF   		movq	%rbx, %rdi
 1153 05f0 E8000000 		call	_ZN8UnitTest4TestC2EPKcS2_S2_i@PLT
 1153      00
 1154 05f5 488D1500 		leaq	16+_ZTVN12_GLOBAL__N_127TestValidCheckCloseSucceedsE(%rip), %rdx
 1154      000000
 1155 05fc 488B45E8 		movq	-24(%rbp), %rax
 1156 0600 488910   		movq	%rdx, (%rax)
 1157              	.LBE10:
 1158 0603 90       		nop
 1159 0604 488B5DF8 		movq	-8(%rbp), %rbx
 1160 0608 C9       		leave
 1161              		.cfi_def_cfa 7, 8
 1162 0609 C3       		ret
 1163              		.cfi_endproc
 1164              	.LFE1431:
 1166              		.set	_ZN12_GLOBAL__N_127TestValidCheckCloseSucceedsC1Ev,_ZN12_GLOBAL__N_127TestValidCheckCloseSucc
 1167              		.local	_ZN12_GLOBAL__N_135testValidCheckCloseSucceedsInstanceE
 1168              		.comm	_ZN12_GLOBAL__N_135testValidCheckCloseSucceedsInstanceE,56,32
 1169              		.local	_ZN12_GLOBAL__N_128adderValidCheckCloseSucceedsE
 1170              		.comm	_ZN12_GLOBAL__N_128adderValidCheckCloseSucceedsE,1,1
 1171              		.section	.rodata
 1172              		.align 8
 1173              	.LC18:
 1174 0168 556E6861 		.string	"Unhandled exception in CHECK_CLOSE(2.0f, 2.001f)"
 1174      6E646C65 
 1174      64206578 
 1174      63657074 
 1174      696F6E20 
 1175 0199 00000000 		.align 8
 1175      000000
 1176              	.LC19:
 1177 01a0 556E6861 		.string	"Unhandled exception in CHECK_CLOSE(2.001f, 2.0f)"
 1177      6E646C65 
 1177      64206578 
 1177      63657074 
 1177      696F6E20 
 1178              		.text
 1179              		.align 2
 1181              	_ZNK12_GLOBAL__N_127TestValidCheckCloseSucceeds7RunImplEv:
 1182              	.LFB1433:
  38:TestUnitTest++.cpp **** {
 1183              		.loc 5 38 1
 1184              		.cfi_startproc
 1185              		.cfi_personality 0x9b,DW.ref.__gxx_personality_v0
 1186              		.cfi_lsda 0x1b,.LLSDA1433
 1187 060a F30F1EFA 		endbr64
 1188 060e 55       		pushq	%rbp
 1189              		.cfi_def_cfa_offset 16
 1190              		.cfi_offset 6, -16
 1191 060f 4889E5   		movq	%rsp, %rbp
 1192              		.cfi_def_cfa_register 6
 1193 0612 53       		pushq	%rbx
 1194 0613 4883EC58 		subq	$88, %rsp
 1195              		.cfi_offset 3, -24
 1196 0617 48897DA8 		movq	%rdi, -88(%rbp)
 1197              		.loc 5 38 1
 1198 061b 64488B04 		movq	%fs:40, %rax
 1198      25280000 
 1198      00
 1199 0624 488945E8 		movq	%rax, -24(%rbp)
 1200 0628 31C0     		xorl	%eax, %eax
 1201              	.LEHB24:
  39:TestUnitTest++.cpp ****     CHECK_CLOSE(2.0f, 2.001f, 0.01f);
 1202              		.loc 5 39 5
 1203 062a E8000000 		call	_ZN8UnitTest11CurrentTest7DetailsEv@PLT
 1203      00
 1204 062f 488B08   		movq	(%rax), %rcx
 1205 0632 488D45C0 		leaq	-64(%rbp), %rax
 1206 0636 BA270000 		movl	$39, %edx
 1206      00
 1207 063b 4889CE   		movq	%rcx, %rsi
 1208 063e 4889C7   		movq	%rax, %rdi
 1209 0641 E8000000 		call	_ZN8UnitTest11TestDetailsC1ERKS0_i@PLT
 1209      00
 1210              		.loc 5 39 5 is_stmt 0 discriminator 4
 1211 0646 F30F1005 		movss	.LC15(%rip), %xmm0
 1211      00000000 
 1212 064e F30F1145 		movss	%xmm0, -68(%rbp)
 1212      BC
 1213 0653 F30F1005 		movss	.LC16(%rip), %xmm0
 1213      00000000 
 1214 065b F30F1145 		movss	%xmm0, -72(%rbp)
 1214      B8
 1215 0660 F30F1005 		movss	.LC17(%rip), %xmm0
 1215      00000000 
 1216 0668 F30F1145 		movss	%xmm0, -76(%rbp)
 1216      B4
 1217 066d E8000000 		call	_ZN8UnitTest11CurrentTest7ResultsEv@PLT
 1217      00
 1218 0672 488B00   		movq	(%rax), %rax
 1219 0675 488D7DC0 		leaq	-64(%rbp), %rdi
 1220 0679 488D4DBC 		leaq	-68(%rbp), %rcx
 1221 067d 488D55B8 		leaq	-72(%rbp), %rdx
 1222 0681 488D75B4 		leaq	-76(%rbp), %rsi
 1223 0685 4989F8   		movq	%rdi, %r8
 1224 0688 4889C7   		movq	%rax, %rdi
 1225 068b E8000000 		call	_ZN8UnitTest10CheckCloseIfffEEvRNS_11TestResultsERKT_RKT0_RKT1_RKNS_11TestDetailsE
 1225      00
 1226              	.LEHE24:
 1227              	.L57:
 1228              	.LEHB25:
  40:TestUnitTest++.cpp ****     CHECK_CLOSE(2.001f, 2.0f, 0.01f);
 1229              		.loc 5 40 5 is_stmt 1
 1230 0690 E8000000 		call	_ZN8UnitTest11CurrentTest7DetailsEv@PLT
 1230      00
 1231 0695 488B08   		movq	(%rax), %rcx
 1232 0698 488D45C0 		leaq	-64(%rbp), %rax
 1233 069c BA280000 		movl	$40, %edx
 1233      00
 1234 06a1 4889CE   		movq	%rcx, %rsi
 1235 06a4 4889C7   		movq	%rax, %rdi
 1236 06a7 E8000000 		call	_ZN8UnitTest11TestDetailsC1ERKS0_i@PLT
 1236      00
 1237              		.loc 5 40 5 is_stmt 0 discriminator 4
 1238 06ac F30F1005 		movss	.LC15(%rip), %xmm0
 1238      00000000 
 1239 06b4 F30F1145 		movss	%xmm0, -68(%rbp)
 1239      BC
 1240 06b9 F30F1005 		movss	.LC17(%rip), %xmm0
 1240      00000000 
 1241 06c1 F30F1145 		movss	%xmm0, -72(%rbp)
 1241      B8
 1242 06c6 F30F1005 		movss	.LC16(%rip), %xmm0
 1242      00000000 
 1243 06ce F30F1145 		movss	%xmm0, -76(%rbp)
 1243      B4
 1244 06d3 E8000000 		call	_ZN8UnitTest11CurrentTest7ResultsEv@PLT
 1244      00
 1245 06d8 488B00   		movq	(%rax), %rax
 1246 06db 488D7DC0 		leaq	-64(%rbp), %rdi
 1247 06df 488D4DBC 		leaq	-68(%rbp), %rcx
 1248 06e3 488D55B8 		leaq	-72(%rbp), %rdx
 1249 06e7 488D75B4 		leaq	-76(%rbp), %rsi
 1250 06eb 4989F8   		movq	%rdi, %r8
 1251 06ee 4889C7   		movq	%rax, %rdi
 1252 06f1 E8000000 		call	_ZN8UnitTest10CheckCloseIfffEEvRNS_11TestResultsERKT_RKT0_RKT1_RKNS_11TestDetailsE
 1252      00
 1253              	.LEHE25:
  41:TestUnitTest++.cpp **** }
 1254              		.loc 5 41 1 is_stmt 1
 1255 06f6 E9CB0000 		jmp	.L55
 1255      00
 1256              	.L63:
 1257 06fb F30F1EFA 		endbr64
  39:TestUnitTest++.cpp ****     CHECK_CLOSE(2.0f, 2.001f, 0.01f);
 1258              		.loc 5 39 5
 1259 06ff 4889C7   		movq	%rax, %rdi
 1260 0702 E8000000 		call	__cxa_begin_catch@PLT
 1260      00
 1261              	.LEHB26:
 1262 0707 E8000000 		call	_ZN8UnitTest11CurrentTest7ResultsEv@PLT
 1262      00
  39:TestUnitTest++.cpp ****     CHECK_CLOSE(2.0f, 2.001f, 0.01f);
 1263              		.loc 5 39 5 is_stmt 0 discriminator 3
 1264 070c 488B18   		movq	(%rax), %rbx
 1265 070f E8000000 		call	_ZN8UnitTest11CurrentTest7DetailsEv@PLT
 1265      00
  39:TestUnitTest++.cpp ****     CHECK_CLOSE(2.0f, 2.001f, 0.01f);
 1266              		.loc 5 39 5 discriminator 11
 1267 0714 488B08   		movq	(%rax), %rcx
 1268 0717 488D45C0 		leaq	-64(%rbp), %rax
 1269 071b BA270000 		movl	$39, %edx
 1269      00
 1270 0720 4889CE   		movq	%rcx, %rsi
 1271 0723 4889C7   		movq	%rax, %rdi
 1272 0726 E8000000 		call	_ZN8UnitTest11TestDetailsC1ERKS0_i@PLT
 1272      00
  39:TestUnitTest++.cpp ****     CHECK_CLOSE(2.0f, 2.001f, 0.01f);
 1273              		.loc 5 39 5 discriminator 15
 1274 072b 488D45C0 		leaq	-64(%rbp), %rax
 1275 072f 488D1500 		leaq	.LC18(%rip), %rdx
 1275      000000
 1276 0736 4889C6   		movq	%rax, %rsi
 1277 0739 4889DF   		movq	%rbx, %rdi
 1278 073c E8000000 		call	_ZN8UnitTest11TestResults13OnTestFailureERKNS_11TestDetailsEPKc@PLT
 1278      00
 1279              	.LEHE26:
 1280              	.LEHB27:
  39:TestUnitTest++.cpp ****     CHECK_CLOSE(2.0f, 2.001f, 0.01f);
 1281              		.loc 5 39 5 discriminator 17
 1282 0741 E8000000 		call	__cxa_end_catch@PLT
 1282      00
 1283              	.LEHE27:
 1284 0746 E945FFFF 		jmp	.L57
 1284      FF
 1285              	.L64:
 1286 074b F30F1EFA 		endbr64
  39:TestUnitTest++.cpp ****     CHECK_CLOSE(2.0f, 2.001f, 0.01f);
 1287              		.loc 5 39 5
 1288 074f 4889C3   		movq	%rax, %rbx
 1289 0752 E8000000 		call	__cxa_end_catch@PLT
 1289      00
 1290 0757 4889D8   		movq	%rbx, %rax
 1291 075a 4889C7   		movq	%rax, %rdi
 1292              	.LEHB28:
 1293 075d E8000000 		call	_Unwind_Resume@PLT
 1293      00
 1294              	.LEHE28:
 1295              	.L65:
 1296 0762 F30F1EFA 		endbr64
  40:TestUnitTest++.cpp ****     CHECK_CLOSE(2.001f, 2.0f, 0.01f);
 1297              		.loc 5 40 5 is_stmt 1
 1298 0766 4889C7   		movq	%rax, %rdi
 1299 0769 E8000000 		call	__cxa_begin_catch@PLT
 1299      00
 1300              	.LEHB29:
 1301 076e E8000000 		call	_ZN8UnitTest11CurrentTest7ResultsEv@PLT
 1301      00
  40:TestUnitTest++.cpp ****     CHECK_CLOSE(2.001f, 2.0f, 0.01f);
 1302              		.loc 5 40 5 is_stmt 0 discriminator 3
 1303 0773 488B18   		movq	(%rax), %rbx
 1304 0776 E8000000 		call	_ZN8UnitTest11CurrentTest7DetailsEv@PLT
 1304      00
  40:TestUnitTest++.cpp ****     CHECK_CLOSE(2.001f, 2.0f, 0.01f);
 1305              		.loc 5 40 5 discriminator 11
 1306 077b 488B08   		movq	(%rax), %rcx
 1307 077e 488D45C0 		leaq	-64(%rbp), %rax
 1308 0782 BA280000 		movl	$40, %edx
 1308      00
 1309 0787 4889CE   		movq	%rcx, %rsi
 1310 078a 4889C7   		movq	%rax, %rdi
 1311 078d E8000000 		call	_ZN8UnitTest11TestDetailsC1ERKS0_i@PLT
 1311      00
  40:TestUnitTest++.cpp ****     CHECK_CLOSE(2.001f, 2.0f, 0.01f);
 1312              		.loc 5 40 5 discriminator 15
 1313 0792 488D45C0 		leaq	-64(%rbp), %rax
 1314 0796 488D1500 		leaq	.LC19(%rip), %rdx
 1314      000000
 1315 079d 4889C6   		movq	%rax, %rsi
 1316 07a0 4889DF   		movq	%rbx, %rdi
 1317 07a3 E8000000 		call	_ZN8UnitTest11TestResults13OnTestFailureERKNS_11TestDetailsEPKc@PLT
 1317      00
 1318              	.LEHE29:
 1319              	.LEHB30:
  40:TestUnitTest++.cpp ****     CHECK_CLOSE(2.001f, 2.0f, 0.01f);
 1320              		.loc 5 40 5 discriminator 17
 1321 07a8 E8000000 		call	__cxa_end_catch@PLT
 1321      00
 1322              	.LEHE30:
 1323              		.loc 5 41 1 is_stmt 1 discriminator 17
 1324 07ad EB17     		jmp	.L55
 1325              	.L66:
 1326 07af F30F1EFA 		endbr64
  40:TestUnitTest++.cpp ****     CHECK_CLOSE(2.001f, 2.0f, 0.01f);
 1327              		.loc 5 40 5
 1328 07b3 4889C3   		movq	%rax, %rbx
 1329 07b6 E8000000 		call	__cxa_end_catch@PLT
 1329      00
 1330 07bb 4889D8   		movq	%rbx, %rax
 1331 07be 4889C7   		movq	%rax, %rdi
 1332              	.LEHB31:
 1333 07c1 E8000000 		call	_Unwind_Resume@PLT
 1333      00
 1334              	.LEHE31:
 1335              	.L55:
 1336              		.loc 5 41 1
 1337 07c6 488B45E8 		movq	-24(%rbp), %rax
 1338 07ca 64482B04 		subq	%fs:40, %rax
 1338      25280000 
 1338      00
 1339 07d3 7405     		je	.L62
 1340 07d5 E8000000 		call	__stack_chk_fail@PLT
 1340      00
 1341              	.L62:
 1342 07da 488B5DF8 		movq	-8(%rbp), %rbx
 1343 07de C9       		leave
 1344              		.cfi_def_cfa 7, 8
 1345 07df C3       		ret
 1346              		.cfi_endproc
 1347              	.LFE1433:
 1348              		.section	.gcc_except_table
 1349              		.align 4
 1350              	.LLSDA1433:
 1351 0098 FF       		.byte	0xff
 1352 0099 9B       		.byte	0x9b
 1353 009a 35       		.uleb128 .LLSDATT1433-.LLSDATTD1433
 1354              	.LLSDATTD1433:
 1355 009b 01       		.byte	0x1
 1356 009c 2B       		.uleb128 .LLSDACSE1433-.LLSDACSB1433
 1357              	.LLSDACSB1433:
 1358 009d 20       		.uleb128 .LEHB24-.LFB1433
 1359 009e 66       		.uleb128 .LEHE24-.LEHB24
 1360 009f F101     		.uleb128 .L63-.LFB1433
 1361 00a1 01       		.uleb128 0x1
 1362 00a2 8601     		.uleb128 .LEHB25-.LFB1433
 1363 00a4 66       		.uleb128 .LEHE25-.LEHB25
 1364 00a5 D802     		.uleb128 .L65-.LFB1433
 1365 00a7 01       		.uleb128 0x1
 1366 00a8 FD01     		.uleb128 .LEHB26-.LFB1433
 1367 00aa 3A       		.uleb128 .LEHE26-.LEHB26
 1368 00ab C102     		.uleb128 .L64-.LFB1433
 1369 00ad 00       		.uleb128 0
 1370 00ae B702     		.uleb128 .LEHB27-.LFB1433
 1371 00b0 05       		.uleb128 .LEHE27-.LEHB27
 1372 00b1 00       		.uleb128 0
 1373 00b2 00       		.uleb128 0
 1374 00b3 D302     		.uleb128 .LEHB28-.LFB1433
 1375 00b5 05       		.uleb128 .LEHE28-.LEHB28
 1376 00b6 00       		.uleb128 0
 1377 00b7 00       		.uleb128 0
 1378 00b8 E402     		.uleb128 .LEHB29-.LFB1433
 1379 00ba 3A       		.uleb128 .LEHE29-.LEHB29
 1380 00bb A503     		.uleb128 .L66-.LFB1433
 1381 00bd 00       		.uleb128 0
 1382 00be 9E03     		.uleb128 .LEHB30-.LFB1433
 1383 00c0 05       		.uleb128 .LEHE30-.LEHB30
 1384 00c1 00       		.uleb128 0
 1385 00c2 00       		.uleb128 0
 1386 00c3 B703     		.uleb128 .LEHB31-.LFB1433
 1387 00c5 05       		.uleb128 .LEHE31-.LEHB31
 1388 00c6 00       		.uleb128 0
 1389 00c7 00       		.uleb128 0
 1390              	.LLSDACSE1433:
 1391 00c8 01       		.byte	0x1
 1392 00c9 00       		.byte	0
 1393 00ca 0000     		.align 4
 1394 00cc 00000000 		.long	0
 1395              	
 1396              	.LLSDATT1433:
 1397              		.text
 1399              		.section	.rodata
 1400              	.LC20:
 1401 01d1 41727261 		.string	"ArrayCloseSucceeds"
 1401      79436C6F 
 1401      73655375 
 1401      63636565 
 1401      647300
 1402              		.text
 1403              		.align 2
 1405              	_ZN12_GLOBAL__N_122TestArrayCloseSucceedsC2Ev:
 1406              	.LFB1435:
  42:TestUnitTest++.cpp **** 
  43:TestUnitTest++.cpp **** TEST(ArrayCloseSucceeds)
 1407              		.loc 5 43 1
 1408              		.cfi_startproc
 1409 07e0 55       		pushq	%rbp
 1410              		.cfi_def_cfa_offset 16
 1411              		.cfi_offset 6, -16
 1412 07e1 4889E5   		movq	%rsp, %rbp
 1413              		.cfi_def_cfa_register 6
 1414 07e4 53       		pushq	%rbx
 1415 07e5 4883EC18 		subq	$24, %rsp
 1416              		.cfi_offset 3, -24
 1417 07e9 48897DE8 		movq	%rdi, -24(%rbp)
 1418              	.LBB11:
 1419              		.loc 5 43 1
 1420 07ed 488B5DE8 		movq	-24(%rbp), %rbx
 1421 07f1 E8000000 		call	_ZN13UnitTestSuite12GetSuiteNameEv
 1421      00
 1422 07f6 4889C2   		movq	%rax, %rdx
 1423 07f9 41B82B00 		movl	$43, %r8d
 1423      0000
 1424 07ff 488D0500 		leaq	.LC1(%rip), %rax
 1424      000000
 1425 0806 4889C1   		movq	%rax, %rcx
 1426 0809 488D0500 		leaq	.LC20(%rip), %rax
 1426      000000
 1427 0810 4889C6   		movq	%rax, %rsi
 1428 0813 4889DF   		movq	%rbx, %rdi
 1429 0816 E8000000 		call	_ZN8UnitTest4TestC2EPKcS2_S2_i@PLT
 1429      00
 1430 081b 488D1500 		leaq	16+_ZTVN12_GLOBAL__N_122TestArrayCloseSucceedsE(%rip), %rdx
 1430      000000
 1431 0822 488B45E8 		movq	-24(%rbp), %rax
 1432 0826 488910   		movq	%rdx, (%rax)
 1433              	.LBE11:
 1434 0829 90       		nop
 1435 082a 488B5DF8 		movq	-8(%rbp), %rbx
 1436 082e C9       		leave
 1437              		.cfi_def_cfa 7, 8
 1438 082f C3       		ret
 1439              		.cfi_endproc
 1440              	.LFE1435:
 1442              		.set	_ZN12_GLOBAL__N_122TestArrayCloseSucceedsC1Ev,_ZN12_GLOBAL__N_122TestArrayCloseSucceedsC2Ev
 1443              		.local	_ZN12_GLOBAL__N_130testArrayCloseSucceedsInstanceE
 1444              		.comm	_ZN12_GLOBAL__N_130testArrayCloseSucceedsInstanceE,56,32
 1445              		.local	_ZN12_GLOBAL__N_123adderArrayCloseSucceedsE
 1446              		.comm	_ZN12_GLOBAL__N_123adderArrayCloseSucceedsE,1,1
 1447              		.section	.rodata
 1448 01e4 00000000 		.align 8
 1449              	.LC25:
 1450 01e8 556E6861 		.string	"Unhandled exception in CHECK_ARRAY_CLOSE(a1, a2)"
 1450      6E646C65 
 1450      64206578 
 1450      63657074 
 1450      696F6E20 
 1451              		.text
 1452              		.align 2
 1454              	_ZNK12_GLOBAL__N_122TestArrayCloseSucceeds7RunImplEv:
 1455              	.LFB1437:
  44:TestUnitTest++.cpp **** {
 1456              		.loc 5 44 1
 1457              		.cfi_startproc
 1458              		.cfi_personality 0x9b,DW.ref.__gxx_personality_v0
 1459              		.cfi_lsda 0x1b,.LLSDA1437
 1460 0830 F30F1EFA 		endbr64
 1461 0834 55       		pushq	%rbp
 1462              		.cfi_def_cfa_offset 16
 1463              		.cfi_offset 6, -16
 1464 0835 4889E5   		movq	%rsp, %rbp
 1465              		.cfi_def_cfa_register 6
 1466 0838 53       		pushq	%rbx
 1467 0839 4883EC68 		subq	$104, %rsp
 1468              		.cfi_offset 3, -24
 1469 083d 48897D98 		movq	%rdi, -104(%rbp)
 1470              		.loc 5 44 1
 1471 0841 64488B04 		movq	%fs:40, %rax
 1471      25280000 
 1471      00
 1472 084a 488945E8 		movq	%rax, -24(%rbp)
 1473 084e 31C0     		xorl	%eax, %eax
  45:TestUnitTest++.cpp ****     float const a1[] = {1, 2, 3};
 1474              		.loc 5 45 17
 1475 0850 F30F1005 		movss	.LC21(%rip), %xmm0
 1475      00000000 
 1476 0858 F30F1145 		movss	%xmm0, -48(%rbp)
 1476      D0
 1477 085d F30F1005 		movss	.LC17(%rip), %xmm0
 1477      00000000 
 1478 0865 F30F1145 		movss	%xmm0, -44(%rbp)
 1478      D4
 1479 086a F30F1005 		movss	.LC22(%rip), %xmm0
 1479      00000000 
 1480 0872 F30F1145 		movss	%xmm0, -40(%rbp)
 1480      D8
  46:TestUnitTest++.cpp ****     float const a2[] = {1, 2.01f, 3};
 1481              		.loc 5 46 17
 1482 0877 F30F1005 		movss	.LC21(%rip), %xmm0
 1482      00000000 
 1483 087f F30F1145 		movss	%xmm0, -36(%rbp)
 1483      DC
 1484 0884 F30F1005 		movss	.LC23(%rip), %xmm0
 1484      00000000 
 1485 088c F30F1145 		movss	%xmm0, -32(%rbp)
 1485      E0
 1486 0891 F30F1005 		movss	.LC22(%rip), %xmm0
 1486      00000000 
 1487 0899 F30F1145 		movss	%xmm0, -28(%rbp)
 1487      E4
 1488              	.LEHB32:
  47:TestUnitTest++.cpp ****     CHECK_ARRAY_CLOSE(a1, a2, 3, 0.1f);
 1489              		.loc 5 47 5
 1490 089e E8000000 		call	_ZN8UnitTest11CurrentTest7DetailsEv@PLT
 1490      00
 1491 08a3 488B08   		movq	(%rax), %rcx
 1492 08a6 488D45B0 		leaq	-80(%rbp), %rax
 1493 08aa BA2F0000 		movl	$47, %edx
 1493      00
 1494 08af 4889CE   		movq	%rcx, %rsi
 1495 08b2 4889C7   		movq	%rax, %rdi
 1496 08b5 E8000000 		call	_ZN8UnitTest11TestDetailsC1ERKS0_i@PLT
 1496      00
 1497              		.loc 5 47 5 is_stmt 0 discriminator 4
 1498 08ba F30F1005 		movss	.LC24(%rip), %xmm0
 1498      00000000 
 1499 08c2 F30F1145 		movss	%xmm0, -84(%rbp)
 1499      AC
 1500 08c7 E8000000 		call	_ZN8UnitTest11CurrentTest7ResultsEv@PLT
 1500      00
 1501 08cc 488B00   		movq	(%rax), %rax
 1502 08cf 488D7DB0 		leaq	-80(%rbp), %rdi
 1503 08d3 488D4DAC 		leaq	-84(%rbp), %rcx
 1504 08d7 488D55DC 		leaq	-36(%rbp), %rdx
 1505 08db 488D75D0 		leaq	-48(%rbp), %rsi
 1506 08df 4989F9   		movq	%rdi, %r9
 1507 08e2 4989C8   		movq	%rcx, %r8
 1508 08e5 B9030000 		movl	$3, %ecx
 1508      00
 1509 08ea 4889C7   		movq	%rax, %rdi
 1510 08ed E8000000 		call	_ZN8UnitTest15CheckArrayCloseIA3_fS1_fEEvRNS_11TestResultsERKT_RKT0_iRKT1_RKNS_11TestDetailsE
 1510      00
 1511              	.LEHE32:
  48:TestUnitTest++.cpp **** }
 1512              		.loc 5 48 1 is_stmt 1
 1513 08f2 EB64     		jmp	.L68
 1514              	.L73:
 1515 08f4 F30F1EFA 		endbr64
  47:TestUnitTest++.cpp ****     CHECK_ARRAY_CLOSE(a1, a2, 3, 0.1f);
 1516              		.loc 5 47 5
 1517 08f8 4889C7   		movq	%rax, %rdi
 1518 08fb E8000000 		call	__cxa_begin_catch@PLT
 1518      00
 1519              	.LEHB33:
 1520 0900 E8000000 		call	_ZN8UnitTest11CurrentTest7ResultsEv@PLT
 1520      00
  47:TestUnitTest++.cpp ****     CHECK_ARRAY_CLOSE(a1, a2, 3, 0.1f);
 1521              		.loc 5 47 5 is_stmt 0 discriminator 3
 1522 0905 488B18   		movq	(%rax), %rbx
 1523 0908 E8000000 		call	_ZN8UnitTest11CurrentTest7DetailsEv@PLT
 1523      00
  47:TestUnitTest++.cpp ****     CHECK_ARRAY_CLOSE(a1, a2, 3, 0.1f);
 1524              		.loc 5 47 5 discriminator 11
 1525 090d 488B08   		movq	(%rax), %rcx
 1526 0910 488D45B0 		leaq	-80(%rbp), %rax
 1527 0914 BA2F0000 		movl	$47, %edx
 1527      00
 1528 0919 4889CE   		movq	%rcx, %rsi
 1529 091c 4889C7   		movq	%rax, %rdi
 1530 091f E8000000 		call	_ZN8UnitTest11TestDetailsC1ERKS0_i@PLT
 1530      00
  47:TestUnitTest++.cpp ****     CHECK_ARRAY_CLOSE(a1, a2, 3, 0.1f);
 1531              		.loc 5 47 5 discriminator 15
 1532 0924 488D45B0 		leaq	-80(%rbp), %rax
 1533 0928 488D1500 		leaq	.LC25(%rip), %rdx
 1533      000000
 1534 092f 4889C6   		movq	%rax, %rsi
 1535 0932 4889DF   		movq	%rbx, %rdi
 1536 0935 E8000000 		call	_ZN8UnitTest11TestResults13OnTestFailureERKNS_11TestDetailsEPKc@PLT
 1536      00
 1537              	.LEHE33:
 1538              	.LEHB34:
  47:TestUnitTest++.cpp ****     CHECK_ARRAY_CLOSE(a1, a2, 3, 0.1f);
 1539              		.loc 5 47 5 discriminator 17
 1540 093a E8000000 		call	__cxa_end_catch@PLT
 1540      00
 1541              	.LEHE34:
 1542              		.loc 5 48 1 is_stmt 1 discriminator 17
 1543 093f EB17     		jmp	.L68
 1544              	.L74:
 1545 0941 F30F1EFA 		endbr64
  47:TestUnitTest++.cpp ****     CHECK_ARRAY_CLOSE(a1, a2, 3, 0.1f);
 1546              		.loc 5 47 5
 1547 0945 4889C3   		movq	%rax, %rbx
 1548 0948 E8000000 		call	__cxa_end_catch@PLT
 1548      00
 1549 094d 4889D8   		movq	%rbx, %rax
 1550 0950 4889C7   		movq	%rax, %rdi
 1551              	.LEHB35:
 1552 0953 E8000000 		call	_Unwind_Resume@PLT
 1552      00
 1553              	.LEHE35:
 1554              	.L68:
 1555              		.loc 5 48 1
 1556 0958 488B45E8 		movq	-24(%rbp), %rax
 1557 095c 64482B04 		subq	%fs:40, %rax
 1557      25280000 
 1557      00
 1558 0965 7405     		je	.L72
 1559 0967 E8000000 		call	__stack_chk_fail@PLT
 1559      00
 1560              	.L72:
 1561 096c 488B5DF8 		movq	-8(%rbp), %rbx
 1562 0970 C9       		leave
 1563              		.cfi_def_cfa 7, 8
 1564 0971 C3       		ret
 1565              		.cfi_endproc
 1566              	.LFE1437:
 1567              		.section	.gcc_except_table
 1568              		.align 4
 1569              	.LLSDA1437:
 1570 00d0 FF       		.byte	0xff
 1571 00d1 9B       		.byte	0x9b
 1572 00d2 1D       		.uleb128 .LLSDATT1437-.LLSDATTD1437
 1573              	.LLSDATTD1437:
 1574 00d3 01       		.byte	0x1
 1575 00d4 15       		.uleb128 .LLSDACSE1437-.LLSDACSB1437
 1576              	.LLSDACSB1437:
 1577 00d5 6E       		.uleb128 .LEHB32-.LFB1437
 1578 00d6 54       		.uleb128 .LEHE32-.LEHB32
 1579 00d7 C401     		.uleb128 .L73-.LFB1437
 1580 00d9 01       		.uleb128 0x1
 1581 00da D001     		.uleb128 .LEHB33-.LFB1437
 1582 00dc 3A       		.uleb128 .LEHE33-.LEHB33
 1583 00dd 9102     		.uleb128 .L74-.LFB1437
 1584 00df 00       		.uleb128 0
 1585 00e0 8A02     		.uleb128 .LEHB34-.LFB1437
 1586 00e2 05       		.uleb128 .LEHE34-.LEHB34
 1587 00e3 00       		.uleb128 0
 1588 00e4 00       		.uleb128 0
 1589 00e5 A302     		.uleb128 .LEHB35-.LFB1437
 1590 00e7 05       		.uleb128 .LEHE35-.LEHB35
 1591 00e8 00       		.uleb128 0
 1592 00e9 00       		.uleb128 0
 1593              	.LLSDACSE1437:
 1594 00ea 01       		.byte	0x1
 1595 00eb 00       		.byte	0
 1596              		.align 4
 1597 00ec 00000000 		.long	0
 1598              	
 1599              	.LLSDATT1437:
 1600              		.text
 1602              		.section	.rodata
 1603 0219 00000000 		.align 8
 1603      000000
 1604              	.LC26:
 1605 0220 43686563 		.string	"CheckArrayCloseWorksWithVectors"
 1605      6B417272 
 1605      6179436C 
 1605      6F736557 
 1605      6F726B73 
 1606              		.text
 1607              		.align 2
 1609              	_ZN12_GLOBAL__N_135TestCheckArrayCloseWorksWithVectorsC2Ev:
 1610              	.LFB1439:
  49:TestUnitTest++.cpp **** 
  50:TestUnitTest++.cpp **** TEST (CheckArrayCloseWorksWithVectors)
 1611              		.loc 5 50 1
 1612              		.cfi_startproc
 1613 0972 55       		pushq	%rbp
 1614              		.cfi_def_cfa_offset 16
 1615              		.cfi_offset 6, -16
 1616 0973 4889E5   		movq	%rsp, %rbp
 1617              		.cfi_def_cfa_register 6
 1618 0976 53       		pushq	%rbx
 1619 0977 4883EC18 		subq	$24, %rsp
 1620              		.cfi_offset 3, -24
 1621 097b 48897DE8 		movq	%rdi, -24(%rbp)
 1622              	.LBB12:
 1623              		.loc 5 50 1
 1624 097f 488B5DE8 		movq	-24(%rbp), %rbx
 1625 0983 E8000000 		call	_ZN13UnitTestSuite12GetSuiteNameEv
 1625      00
 1626 0988 4889C2   		movq	%rax, %rdx
 1627 098b 41B83200 		movl	$50, %r8d
 1627      0000
 1628 0991 488D0500 		leaq	.LC1(%rip), %rax
 1628      000000
 1629 0998 4889C1   		movq	%rax, %rcx
 1630 099b 488D0500 		leaq	.LC26(%rip), %rax
 1630      000000
 1631 09a2 4889C6   		movq	%rax, %rsi
 1632 09a5 4889DF   		movq	%rbx, %rdi
 1633 09a8 E8000000 		call	_ZN8UnitTest4TestC2EPKcS2_S2_i@PLT
 1633      00
 1634 09ad 488D1500 		leaq	16+_ZTVN12_GLOBAL__N_135TestCheckArrayCloseWorksWithVectorsE(%rip), %rdx
 1634      000000
 1635 09b4 488B45E8 		movq	-24(%rbp), %rax
 1636 09b8 488910   		movq	%rdx, (%rax)
 1637              	.LBE12:
 1638 09bb 90       		nop
 1639 09bc 488B5DF8 		movq	-8(%rbp), %rbx
 1640 09c0 C9       		leave
 1641              		.cfi_def_cfa 7, 8
 1642 09c1 C3       		ret
 1643              		.cfi_endproc
 1644              	.LFE1439:
 1646              		.set	_ZN12_GLOBAL__N_135TestCheckArrayCloseWorksWithVectorsC1Ev,_ZN12_GLOBAL__N_135TestCheckArrayC
 1647              		.local	_ZN12_GLOBAL__N_143testCheckArrayCloseWorksWithVectorsInstanceE
 1648              		.comm	_ZN12_GLOBAL__N_143testCheckArrayCloseWorksWithVectorsInstanceE,56,32
 1649              		.local	_ZN12_GLOBAL__N_136adderCheckArrayCloseWorksWithVectorsE
 1650              		.comm	_ZN12_GLOBAL__N_136adderCheckArrayCloseWorksWithVectorsE,1,1
 1651              		.section	.rodata
 1652              		.align 8
 1653              	.LC29:
 1654 0240 556E6861 		.string	"Unhandled exception in CHECK_ARRAY_CLOSE(a, a)"
 1654      6E646C65 
 1654      64206578 
 1654      63657074 
 1654      696F6E20 
 1655              		.text
 1656              		.align 2
 1658              	_ZNK12_GLOBAL__N_135TestCheckArrayCloseWorksWithVectors7RunImplEv:
 1659              	.LFB1441:
  51:TestUnitTest++.cpp **** {
 1660              		.loc 5 51 1
 1661              		.cfi_startproc
 1662              		.cfi_personality 0x9b,DW.ref.__gxx_personality_v0
 1663              		.cfi_lsda 0x1b,.LLSDA1441
 1664 09c2 F30F1EFA 		endbr64
 1665 09c6 55       		pushq	%rbp
 1666              		.cfi_def_cfa_offset 16
 1667              		.cfi_offset 6, -16
 1668 09c7 4889E5   		movq	%rsp, %rbp
 1669              		.cfi_def_cfa_register 6
 1670 09ca 53       		pushq	%rbx
 1671 09cb 4883EC78 		subq	$120, %rsp
 1672              		.cfi_offset 3, -24
 1673 09cf 48897D88 		movq	%rdi, -120(%rbp)
 1674              		.loc 5 51 1
 1675 09d3 64488B04 		movq	%fs:40, %rax
 1675      25280000 
 1675      00
 1676 09dc 488945E8 		movq	%rax, -24(%rbp)
 1677 09e0 31C0     		xorl	%eax, %eax
  52:TestUnitTest++.cpp ****     std::vector< float > a(4);
 1678              		.loc 5 52 29
 1679 09e2 488D4598 		leaq	-104(%rbp), %rax
 1680 09e6 4889C7   		movq	%rax, %rdi
 1681 09e9 E8000000 		call	_ZNSaIfEC1Ev
 1681      00
 1682 09ee 660FEFC0 		pxor	%xmm0, %xmm0
 1683 09f2 F30F1145 		movss	%xmm0, -64(%rbp)
 1683      C0
 1684 09f7 488D4D98 		leaq	-104(%rbp), %rcx
 1685 09fb 488D55C0 		leaq	-64(%rbp), %rdx
 1686 09ff 488D45A0 		leaq	-96(%rbp), %rax
 1687 0a03 BE040000 		movl	$4, %esi
 1687      00
 1688 0a08 4889C7   		movq	%rax, %rdi
 1689              	.LEHB36:
 1690 0a0b E8000000 		call	_ZNSt6vectorIfSaIfEEC1EmRKfRKS0_
 1690      00
 1691              	.LEHE36:
 1692 0a10 488D4598 		leaq	-104(%rbp), %rax
 1693 0a14 4889C7   		movq	%rax, %rdi
 1694 0a17 E8000000 		call	_ZNSaIfED1Ev
 1694      00
 1695              	.LBB13:
  53:TestUnitTest++.cpp ****     for (int i = 0; i < 4; ++i)
 1696              		.loc 5 53 14 discriminator 1
 1697 0a1c C7459C00 		movl	$0, -100(%rbp)
 1697      000000
 1698              		.loc 5 53 5 discriminator 1
 1699 0a23 EB26     		jmp	.L77
 1700              	.L78:
  54:TestUnitTest++.cpp ****         a[i] = (float)i;
 1701              		.loc 5 54 12 discriminator 3
 1702 0a25 8B459C   		movl	-100(%rbp), %eax
 1703 0a28 4863D0   		movslq	%eax, %rdx
 1704 0a2b 488D45A0 		leaq	-96(%rbp), %rax
 1705 0a2f 4889D6   		movq	%rdx, %rsi
 1706 0a32 4889C7   		movq	%rax, %rdi
 1707 0a35 E8000000 		call	_ZNSt6vectorIfSaIfEEixEm
 1707      00
 1708              		.loc 5 54 16 discriminator 3
 1709 0a3a 660FEFC0 		pxor	%xmm0, %xmm0
 1710 0a3e F30F2A45 		cvtsi2ssl	-100(%rbp), %xmm0
 1710      9C
 1711              		.loc 5 54 14 discriminator 3
 1712 0a43 F30F1100 		movss	%xmm0, (%rax)
  53:TestUnitTest++.cpp ****     for (int i = 0; i < 4; ++i)
 1713              		.loc 5 53 5 discriminator 3
 1714 0a47 83459C01 		addl	$1, -100(%rbp)
 1715              	.L77:
  53:TestUnitTest++.cpp ****     for (int i = 0; i < 4; ++i)
 1716              		.loc 5 53 23 discriminator 1
 1717 0a4b 837D9C03 		cmpl	$3, -100(%rbp)
 1718 0a4f 7ED4     		jle	.L78
 1719              	.LEHB37:
 1720              	.LBE13:
  55:TestUnitTest++.cpp **** 
  56:TestUnitTest++.cpp ****     CHECK_ARRAY_CLOSE(a, a, (int)a.size(), 0.0001f);
 1721              		.loc 5 56 5
 1722 0a51 E8000000 		call	_ZN8UnitTest11CurrentTest7DetailsEv@PLT
 1722      00
 1723 0a56 488B08   		movq	(%rax), %rcx
 1724 0a59 488D45C0 		leaq	-64(%rbp), %rax
 1725 0a5d BA380000 		movl	$56, %edx
 1725      00
 1726 0a62 4889CE   		movq	%rcx, %rsi
 1727 0a65 4889C7   		movq	%rax, %rdi
 1728 0a68 E8000000 		call	_ZN8UnitTest11TestDetailsC1ERKS0_i@PLT
 1728      00
 1729              		.loc 5 56 5 is_stmt 0 discriminator 4
 1730 0a6d F30F1005 		movss	.LC28(%rip), %xmm0
 1730      00000000 
 1731 0a75 F30F1145 		movss	%xmm0, -104(%rbp)
 1731      98
 1732 0a7a 488D45A0 		leaq	-96(%rbp), %rax
 1733 0a7e 4889C7   		movq	%rax, %rdi
 1734 0a81 E8000000 		call	_ZNKSt6vectorIfSaIfEE4sizeEv
 1734      00
 1735 0a86 89C3     		movl	%eax, %ebx
 1736 0a88 E8000000 		call	_ZN8UnitTest11CurrentTest7ResultsEv@PLT
 1736      00
 1737 0a8d 488B00   		movq	(%rax), %rax
 1738 0a90 488D7DC0 		leaq	-64(%rbp), %rdi
 1739 0a94 488D4D98 		leaq	-104(%rbp), %rcx
 1740 0a98 488D55A0 		leaq	-96(%rbp), %rdx
 1741 0a9c 488D75A0 		leaq	-96(%rbp), %rsi
 1742 0aa0 4989F9   		movq	%rdi, %r9
 1743 0aa3 4989C8   		movq	%rcx, %r8
 1744 0aa6 89D9     		movl	%ebx, %ecx
 1745 0aa8 4889C7   		movq	%rax, %rdi
 1746 0aab E8000000 		call	_ZN8UnitTest15CheckArrayCloseISt6vectorIfSaIfEES3_fEEvRNS_11TestResultsERKT_RKT0_iRKT1_RKNS_1
 1746      00
 1747              	.LEHE37:
 1748              	.L81:
  57:TestUnitTest++.cpp **** }
 1749              		.loc 5 57 1 is_stmt 1
 1750 0ab0 488D45A0 		leaq	-96(%rbp), %rax
 1751 0ab4 4889C7   		movq	%rax, %rdi
 1752              	.LEHB38:
 1753 0ab7 E8000000 		call	_ZNSt6vectorIfSaIfEED1Ev
 1753      00
 1754 0abc 488B45E8 		movq	-24(%rbp), %rax
 1755 0ac0 64482B04 		subq	%fs:40, %rax
 1755      25280000 
 1755      00
 1756 0ac9 0F84A400 		je	.L84
 1756      0000
 1757 0acf E99A0000 		jmp	.L89
 1757      00
 1758              	.L85:
 1759 0ad4 F30F1EFA 		endbr64
 1760 0ad8 4889C3   		movq	%rax, %rbx
 1761 0adb 488D4598 		leaq	-104(%rbp), %rax
 1762 0adf 4889C7   		movq	%rax, %rdi
 1763 0ae2 E8000000 		call	_ZNSaIfED1Ev
 1763      00
 1764 0ae7 4889D8   		movq	%rbx, %rax
 1765 0aea 4889C7   		movq	%rax, %rdi
 1766 0aed E8000000 		call	_Unwind_Resume@PLT
 1766      00
 1767              	.LEHE38:
 1768              	.L86:
 1769 0af2 F30F1EFA 		endbr64
  56:TestUnitTest++.cpp **** }
 1770              		.loc 5 56 5
 1771 0af6 4889C7   		movq	%rax, %rdi
 1772 0af9 E8000000 		call	__cxa_begin_catch@PLT
 1772      00
 1773              	.LEHB39:
 1774 0afe E8000000 		call	_ZN8UnitTest11CurrentTest7ResultsEv@PLT
 1774      00
  56:TestUnitTest++.cpp **** }
 1775              		.loc 5 56 5 is_stmt 0 discriminator 3
 1776 0b03 488B18   		movq	(%rax), %rbx
 1777 0b06 E8000000 		call	_ZN8UnitTest11CurrentTest7DetailsEv@PLT
 1777      00
  56:TestUnitTest++.cpp **** }
 1778              		.loc 5 56 5 discriminator 11
 1779 0b0b 488B08   		movq	(%rax), %rcx
 1780 0b0e 488D45C0 		leaq	-64(%rbp), %rax
 1781 0b12 BA380000 		movl	$56, %edx
 1781      00
 1782 0b17 4889CE   		movq	%rcx, %rsi
 1783 0b1a 4889C7   		movq	%rax, %rdi
 1784 0b1d E8000000 		call	_ZN8UnitTest11TestDetailsC1ERKS0_i@PLT
 1784      00
  56:TestUnitTest++.cpp **** }
 1785              		.loc 5 56 5 discriminator 15
 1786 0b22 488D45C0 		leaq	-64(%rbp), %rax
 1787 0b26 488D1500 		leaq	.LC29(%rip), %rdx
 1787      000000
 1788 0b2d 4889C6   		movq	%rax, %rsi
 1789 0b30 4889DF   		movq	%rbx, %rdi
 1790 0b33 E8000000 		call	_ZN8UnitTest11TestResults13OnTestFailureERKNS_11TestDetailsEPKc@PLT
 1790      00
 1791              	.LEHE39:
 1792              	.LEHB40:
  56:TestUnitTest++.cpp **** }
 1793              		.loc 5 56 5 discriminator 17
 1794 0b38 E8000000 		call	__cxa_end_catch@PLT
 1794      00
 1795              	.LEHE40:
  56:TestUnitTest++.cpp **** }
 1796              		.loc 5 56 5
 1797 0b3d E96EFFFF 		jmp	.L81
 1797      FF
 1798              	.L88:
 1799 0b42 F30F1EFA 		endbr64
 1800 0b46 4889C3   		movq	%rax, %rbx
 1801 0b49 E8000000 		call	__cxa_end_catch@PLT
 1801      00
 1802 0b4e EB07     		jmp	.L83
 1803              	.L87:
 1804 0b50 F30F1EFA 		endbr64
 1805              		.loc 5 57 1 is_stmt 1
 1806 0b54 4889C3   		movq	%rax, %rbx
 1807              	.L83:
 1808 0b57 488D45A0 		leaq	-96(%rbp), %rax
 1809 0b5b 4889C7   		movq	%rax, %rdi
 1810 0b5e E8000000 		call	_ZNSt6vectorIfSaIfEED1Ev
 1810      00
 1811 0b63 4889D8   		movq	%rbx, %rax
 1812 0b66 4889C7   		movq	%rax, %rdi
 1813              	.LEHB41:
 1814 0b69 E8000000 		call	_Unwind_Resume@PLT
 1814      00
 1815              	.LEHE41:
 1816              	.L89:
 1817 0b6e E8000000 		call	__stack_chk_fail@PLT
 1817      00
 1818              	.L84:
 1819 0b73 488B5DF8 		movq	-8(%rbp), %rbx
 1820 0b77 C9       		leave
 1821              		.cfi_def_cfa 7, 8
 1822 0b78 C3       		ret
 1823              		.cfi_endproc
 1824              	.LFE1441:
 1825              		.section	.gcc_except_table
 1826              		.align 4
 1827              	.LLSDA1441:
 1828 00f0 FF       		.byte	0xff
 1829 00f1 9B       		.byte	0x9b
 1830 00f2 29       		.uleb128 .LLSDATT1441-.LLSDATTD1441
 1831              	.LLSDATTD1441:
 1832 00f3 01       		.byte	0x1
 1833 00f4 21       		.uleb128 .LLSDACSE1441-.LLSDACSB1441
 1834              	.LLSDACSB1441:
 1835 00f5 49       		.uleb128 .LEHB36-.LFB1441
 1836 00f6 05       		.uleb128 .LEHE36-.LEHB36
 1837 00f7 9202     		.uleb128 .L85-.LFB1441
 1838 00f9 00       		.uleb128 0
 1839 00fa 8F01     		.uleb128 .LEHB37-.LFB1441
 1840 00fc 5F       		.uleb128 .LEHE37-.LEHB37
 1841 00fd B002     		.uleb128 .L86-.LFB1441
 1842 00ff 01       		.uleb128 0x1
 1843 0100 F501     		.uleb128 .LEHB38-.LFB1441
 1844 0102 3B       		.uleb128 .LEHE38-.LEHB38
 1845 0103 00       		.uleb128 0
 1846 0104 00       		.uleb128 0
 1847 0105 BC02     		.uleb128 .LEHB39-.LFB1441
 1848 0107 3A       		.uleb128 .LEHE39-.LEHB39
 1849 0108 8003     		.uleb128 .L88-.LFB1441
 1850 010a 00       		.uleb128 0
 1851 010b F602     		.uleb128 .LEHB40-.LFB1441
 1852 010d 05       		.uleb128 .LEHE40-.LEHB40
 1853 010e 8E03     		.uleb128 .L87-.LFB1441
 1854 0110 00       		.uleb128 0
 1855 0111 A703     		.uleb128 .LEHB41-.LFB1441
 1856 0113 05       		.uleb128 .LEHE41-.LEHB41
 1857 0114 00       		.uleb128 0
 1858 0115 00       		.uleb128 0
 1859              	.LLSDACSE1441:
 1860 0116 01       		.byte	0x1
 1861 0117 00       		.byte	0
 1862              		.align 4
 1863 0118 00000000 		.long	0
 1864              	
 1865              	.LLSDATT1441:
 1866              		.text
 1868              		.section	.rodata
 1869 026f 00       		.align 8
 1870              	.LC30:
 1871 0270 43686563 		.string	"CheckThrowMacroSucceedsOnCorrectException"
 1871      6B546872 
 1871      6F774D61 
 1871      63726F53 
 1871      75636365 
 1872              		.text
 1873 0b79 90       		.align 2
 1875              	_ZN12_GLOBAL__N_145TestCheckThrowMacroSucceedsOnCorrectExceptionC2Ev:
 1876              	.LFB1443:
  58:TestUnitTest++.cpp **** 
  59:TestUnitTest++.cpp **** TEST(CheckThrowMacroSucceedsOnCorrectException)
 1877              		.loc 5 59 1
 1878              		.cfi_startproc
 1879 0b7a 55       		pushq	%rbp
 1880              		.cfi_def_cfa_offset 16
 1881              		.cfi_offset 6, -16
 1882 0b7b 4889E5   		movq	%rsp, %rbp
 1883              		.cfi_def_cfa_register 6
 1884 0b7e 53       		pushq	%rbx
 1885 0b7f 4883EC18 		subq	$24, %rsp
 1886              		.cfi_offset 3, -24
 1887 0b83 48897DE8 		movq	%rdi, -24(%rbp)
 1888              	.LBB14:
 1889              		.loc 5 59 1
 1890 0b87 488B5DE8 		movq	-24(%rbp), %rbx
 1891 0b8b E8000000 		call	_ZN13UnitTestSuite12GetSuiteNameEv
 1891      00
 1892 0b90 4889C2   		movq	%rax, %rdx
 1893 0b93 41B83B00 		movl	$59, %r8d
 1893      0000
 1894 0b99 488D0500 		leaq	.LC1(%rip), %rax
 1894      000000
 1895 0ba0 4889C1   		movq	%rax, %rcx
 1896 0ba3 488D0500 		leaq	.LC30(%rip), %rax
 1896      000000
 1897 0baa 4889C6   		movq	%rax, %rsi
 1898 0bad 4889DF   		movq	%rbx, %rdi
 1899 0bb0 E8000000 		call	_ZN8UnitTest4TestC2EPKcS2_S2_i@PLT
 1899      00
 1900 0bb5 488D1500 		leaq	16+_ZTVN12_GLOBAL__N_145TestCheckThrowMacroSucceedsOnCorrectExceptionE(%rip), %rdx
 1900      000000
 1901 0bbc 488B45E8 		movq	-24(%rbp), %rax
 1902 0bc0 488910   		movq	%rdx, (%rax)
 1903              	.LBE14:
 1904 0bc3 90       		nop
 1905 0bc4 488B5DF8 		movq	-8(%rbp), %rbx
 1906 0bc8 C9       		leave
 1907              		.cfi_def_cfa 7, 8
 1908 0bc9 C3       		ret
 1909              		.cfi_endproc
 1910              	.LFE1443:
 1912              		.set	_ZN12_GLOBAL__N_145TestCheckThrowMacroSucceedsOnCorrectExceptionC1Ev,_ZN12_GLOBAL__N_145TestC
 1913              		.local	_ZN12_GLOBAL__N_153testCheckThrowMacroSucceedsOnCorrectExceptionInstanceE
 1914              		.comm	_ZN12_GLOBAL__N_153testCheckThrowMacroSucceedsOnCorrectExceptionInstanceE,56,32
 1915              		.local	_ZN12_GLOBAL__N_146adderCheckThrowMacroSucceedsOnCorrectExceptionE
 1916              		.comm	_ZN12_GLOBAL__N_146adderCheckThrowMacroSucceedsOnCorrectExceptionE,1,1
 1917              		.section	.rodata
 1918 029a 00000000 		.align 8
 1918      0000
 1919              	.LC31:
 1920 02a0 45787065 		.string	"Expected exception: \"TestException\" not thrown"
 1920      63746564 
 1920      20657863 
 1920      65707469 
 1920      6F6E3A20 
 1921              		.text
 1922              		.align 2
 1924              	_ZNK12_GLOBAL__N_145TestCheckThrowMacroSucceedsOnCorrectException7RunImplEv:
 1925              	.LFB1445:
  60:TestUnitTest++.cpp **** {
 1926              		.loc 5 60 1
 1927              		.cfi_startproc
 1928              		.cfi_personality 0x9b,DW.ref.__gxx_personality_v0
 1929              		.cfi_lsda 0x1b,.LLSDA1445
 1930 0bca F30F1EFA 		endbr64
 1931 0bce 55       		pushq	%rbp
 1932              		.cfi_def_cfa_offset 16
 1933              		.cfi_offset 6, -16
 1934 0bcf 4889E5   		movq	%rsp, %rbp
 1935              		.cfi_def_cfa_register 6
 1936 0bd2 53       		pushq	%rbx
 1937 0bd3 4883EC58 		subq	$88, %rsp
 1938              		.cfi_offset 3, -24
 1939 0bd7 48897DA8 		movq	%rdi, -88(%rbp)
 1940              		.loc 5 60 1
 1941 0bdb 64488B04 		movq	%fs:40, %rax
 1941      25280000 
 1941      00
 1942 0be4 488945E8 		movq	%rax, -24(%rbp)
 1943 0be8 31C0     		xorl	%eax, %eax
 1944              	.LBB15:
  61:TestUnitTest++.cpp ****     struct TestException {};
  62:TestUnitTest++.cpp ****     CHECK_THROW(throw TestException(), TestException);
 1945              		.loc 5 62 5
 1946 0bea C645B700 		movb	$0, -73(%rbp)
 1947 0bee BF010000 		movl	$1, %edi
 1947      00
 1948 0bf3 E8000000 		call	__cxa_allocate_exception@PLT
 1948      00
 1949 0bf8 4889C1   		movq	%rax, %rcx
 1950 0bfb BA000000 		movl	$0, %edx
 1950      00
 1951 0c00 488D0500 		leaq	_ZTIZNK12_GLOBAL__N_145TestCheckThrowMacroSucceedsOnCorrectException7RunImplEvE13TestExceptio
 1951      000000
 1952 0c07 4889C6   		movq	%rax, %rsi
 1953 0c0a 4889CF   		movq	%rcx, %rdi
 1954              	.LEHB42:
 1955 0c0d E8000000 		call	__cxa_throw@PLT
 1955      00
 1956              	.LEHE42:
 1957              	.L95:
 1958              		.loc 5 62 5 is_stmt 0 discriminator 8
 1959 0c12 0FB645B7 		movzbl	-73(%rbp), %eax
 1960 0c16 83F001   		xorl	$1, %eax
 1961 0c19 84C0     		testb	%al, %al
 1962 0c1b 746C     		je	.L98
 1963              	.LEHB43:
 1964              		.loc 5 62 5 discriminator 2
 1965 0c1d E8000000 		call	_ZN8UnitTest11CurrentTest7ResultsEv@PLT
 1965      00
 1966 0c22 488B18   		movq	(%rax), %rbx
 1967 0c25 E8000000 		call	_ZN8UnitTest11CurrentTest7DetailsEv@PLT
 1967      00
 1968 0c2a 488B08   		movq	(%rax), %rcx
 1969 0c2d 488D45C0 		leaq	-64(%rbp), %rax
 1970 0c31 BA3E0000 		movl	$62, %edx
 1970      00
 1971 0c36 4889CE   		movq	%rcx, %rsi
 1972 0c39 4889C7   		movq	%rax, %rdi
 1973 0c3c E8000000 		call	_ZN8UnitTest11TestDetailsC1ERKS0_i@PLT
 1973      00
 1974 0c41 488D45C0 		leaq	-64(%rbp), %rax
 1975 0c45 488D1500 		leaq	.LC31(%rip), %rdx
 1975      000000
 1976 0c4c 4889C6   		movq	%rax, %rsi
 1977 0c4f 4889DF   		movq	%rbx, %rdi
 1978 0c52 E8000000 		call	_ZN8UnitTest11TestResults13OnTestFailureERKNS_11TestDetailsEPKc@PLT
 1978      00
 1979              	.LBE15:
  63:TestUnitTest++.cpp **** }
 1980              		.loc 5 63 1 is_stmt 1 discriminator 2
 1981 0c57 EB30     		jmp	.L98
 1982              	.L97:
 1983 0c59 F30F1EFA 		endbr64
  62:TestUnitTest++.cpp **** }
 1984              		.loc 5 62 5
 1985 0c5d 4883FA01 		cmpq	$1, %rdx
 1986 0c61 7517     		jne	.L94
 1987              	.LBB17:
 1988              	.LBB16:
  62:TestUnitTest++.cpp **** }
 1989              		.loc 5 62 5 is_stmt 0 discriminator 5
 1990 0c63 4889C7   		movq	%rax, %rdi
 1991 0c66 E8000000 		call	__cxa_begin_catch@PLT
 1991      00
 1992 0c6b 488945B8 		movq	%rax, -72(%rbp)
 1993 0c6f C645B701 		movb	$1, -73(%rbp)
 1994 0c73 E8000000 		call	__cxa_end_catch@PLT
 1994      00
 1995 0c78 EB98     		jmp	.L95
 1996              	.L94:
 1997              	.LBE16:
  62:TestUnitTest++.cpp **** }
 1998              		.loc 5 62 5 discriminator 6
 1999 0c7a 4889C7   		movq	%rax, %rdi
 2000 0c7d E8000000 		call	__cxa_begin_catch@PLT
 2000      00
 2001 0c82 E8000000 		call	__cxa_end_catch@PLT
 2001      00
 2002              	.LEHE43:
 2003 0c87 EB89     		jmp	.L95
 2004              	.L98:
 2005              	.LBE17:
 2006              		.loc 5 63 1 is_stmt 1
 2007 0c89 90       		nop
 2008 0c8a 488B45E8 		movq	-24(%rbp), %rax
 2009 0c8e 64482B04 		subq	%fs:40, %rax
 2009      25280000 
 2009      00
 2010 0c97 7405     		je	.L96
 2011 0c99 E8000000 		call	__stack_chk_fail@PLT
 2011      00
 2012              	.L96:
 2013 0c9e 488B5DF8 		movq	-8(%rbp), %rbx
 2014 0ca2 C9       		leave
 2015              		.cfi_def_cfa 7, 8
 2016 0ca3 C3       		ret
 2017              		.cfi_endproc
 2018              	.LFE1445:
 2019              		.section	.gcc_except_table
 2020              		.align 4
 2021              	.LLSDA1445:
 2022 011c FF       		.byte	0xff
 2023 011d 9B       		.byte	0x9b
 2024 011e 19       		.uleb128 .LLSDATT1445-.LLSDATTD1445
 2025              	.LLSDATTD1445:
 2026 011f 01       		.byte	0x1
 2027 0120 09       		.uleb128 .LLSDACSE1445-.LLSDACSB1445
 2028              	.LLSDACSB1445:
 2029 0121 43       		.uleb128 .LEHB42-.LFB1445
 2030 0122 05       		.uleb128 .LEHE42-.LEHB42
 2031 0123 8F01     		.uleb128 .L97-.LFB1445
 2032 0125 03       		.uleb128 0x3
 2033 0126 53       		.uleb128 .LEHB43-.LFB1445
 2034 0127 6A       		.uleb128 .LEHE43-.LEHB43
 2035 0128 00       		.uleb128 0
 2036 0129 00       		.uleb128 0
 2037              	.LLSDACSE1445:
 2038 012a 02       		.byte	0x2
 2039 012b 00       		.byte	0
 2040 012c 01       		.byte	0x1
 2041 012d 7D       		.byte	0x7d
 2042 012e 0000     		.align 4
 2043 0130 00000000 		.long	0
 2044              	
 2045 0134 00000000 		.long	.LDFCM0-.
 2046              	.LLSDATT1445:
 2047              		.text
 2049              		.section	.rodata
 2050              	.LC32:
 2051 02cf 43686563 		.string	"CheckAssertSucceeds"
 2051      6B417373 
 2051      65727453 
 2051      75636365 
 2051      65647300 
 2052              		.text
 2053              		.align 2
 2055              	_ZN12_GLOBAL__N_123TestCheckAssertSucceedsC2Ev:
 2056              	.LFB1447:
  64:TestUnitTest++.cpp **** 
  65:TestUnitTest++.cpp **** TEST(CheckAssertSucceeds)
 2057              		.loc 5 65 1
 2058              		.cfi_startproc
 2059 0ca4 55       		pushq	%rbp
 2060              		.cfi_def_cfa_offset 16
 2061              		.cfi_offset 6, -16
 2062 0ca5 4889E5   		movq	%rsp, %rbp
 2063              		.cfi_def_cfa_register 6
 2064 0ca8 53       		pushq	%rbx
 2065 0ca9 4883EC18 		subq	$24, %rsp
 2066              		.cfi_offset 3, -24
 2067 0cad 48897DE8 		movq	%rdi, -24(%rbp)
 2068              	.LBB18:
 2069              		.loc 5 65 1
 2070 0cb1 488B5DE8 		movq	-24(%rbp), %rbx
 2071 0cb5 E8000000 		call	_ZN13UnitTestSuite12GetSuiteNameEv
 2071      00
 2072 0cba 4889C2   		movq	%rax, %rdx
 2073 0cbd 41B84100 		movl	$65, %r8d
 2073      0000
 2074 0cc3 488D0500 		leaq	.LC1(%rip), %rax
 2074      000000
 2075 0cca 4889C1   		movq	%rax, %rcx
 2076 0ccd 488D0500 		leaq	.LC32(%rip), %rax
 2076      000000
 2077 0cd4 4889C6   		movq	%rax, %rsi
 2078 0cd7 4889DF   		movq	%rbx, %rdi
 2079 0cda E8000000 		call	_ZN8UnitTest4TestC2EPKcS2_S2_i@PLT
 2079      00
 2080 0cdf 488D1500 		leaq	16+_ZTVN12_GLOBAL__N_123TestCheckAssertSucceedsE(%rip), %rdx
 2080      000000
 2081 0ce6 488B45E8 		movq	-24(%rbp), %rax
 2082 0cea 488910   		movq	%rdx, (%rax)
 2083              	.LBE18:
 2084 0ced 90       		nop
 2085 0cee 488B5DF8 		movq	-8(%rbp), %rbx
 2086 0cf2 C9       		leave
 2087              		.cfi_def_cfa 7, 8
 2088 0cf3 C3       		ret
 2089              		.cfi_endproc
 2090              	.LFE1447:
 2092              		.set	_ZN12_GLOBAL__N_123TestCheckAssertSucceedsC1Ev,_ZN12_GLOBAL__N_123TestCheckAssertSucceedsC2Ev
 2093              		.local	_ZN12_GLOBAL__N_131testCheckAssertSucceedsInstanceE
 2094              		.comm	_ZN12_GLOBAL__N_131testCheckAssertSucceedsInstanceE,56,32
 2095              		.local	_ZN12_GLOBAL__N_124adderCheckAssertSucceedsE
 2096              		.comm	_ZN12_GLOBAL__N_124adderCheckAssertSucceedsE,1,1
 2097              		.section	.rodata
 2098              	.LC33:
 2099 02e3 66696C65 		.string	"file"
 2099      00
 2100              	.LC34:
 2101 02e8 64657363 		.string	"desc"
 2101      00
 2102 02ed 000000   		.align 8
 2103              	.LC35:
 2104 02f0 45787065 		.string	"Expected exception: \"UnitTest::AssertException\" not thrown"
 2104      63746564 
 2104      20657863 
 2104      65707469 
 2104      6F6E3A20 
 2105              		.text
 2106              		.align 2
 2108              	_ZNK12_GLOBAL__N_123TestCheckAssertSucceeds7RunImplEv:
 2109              	.LFB1449:
  66:TestUnitTest++.cpp **** {
 2110              		.loc 5 66 1
 2111              		.cfi_startproc
 2112              		.cfi_personality 0x9b,DW.ref.__gxx_personality_v0
 2113              		.cfi_lsda 0x1b,.LLSDA1449
 2114 0cf4 F30F1EFA 		endbr64
 2115 0cf8 55       		pushq	%rbp
 2116              		.cfi_def_cfa_offset 16
 2117              		.cfi_offset 6, -16
 2118 0cf9 4889E5   		movq	%rsp, %rbp
 2119              		.cfi_def_cfa_register 6
 2120 0cfc 53       		pushq	%rbx
 2121 0cfd 4883EC58 		subq	$88, %rsp
 2122              		.cfi_offset 3, -24
 2123 0d01 48897DA8 		movq	%rdi, -88(%rbp)
 2124              		.loc 5 66 1
 2125 0d05 64488B04 		movq	%fs:40, %rax
 2125      25280000 
 2125      00
 2126 0d0e 488945E8 		movq	%rax, -24(%rbp)
 2127 0d12 31C0     		xorl	%eax, %eax
 2128              	.LBB19:
  67:TestUnitTest++.cpp ****     CHECK_ASSERT(UnitTest::ReportAssert("desc", "file", 0));
 2129              		.loc 5 67 5
 2130 0d14 C645B700 		movb	$0, -73(%rbp)
 2131 0d18 BA000000 		movl	$0, %edx
 2131      00
 2132 0d1d 488D0500 		leaq	.LC33(%rip), %rax
 2132      000000
 2133 0d24 4889C6   		movq	%rax, %rsi
 2134 0d27 488D0500 		leaq	.LC34(%rip), %rax
 2134      000000
 2135 0d2e 4889C7   		movq	%rax, %rdi
 2136              	.LEHB44:
 2137 0d31 E8000000 		call	_ZN8UnitTest12ReportAssertEPKcS1_i@PLT
 2137      00
 2138              	.LEHE44:
 2139              	.L104:
 2140              		.loc 5 67 5 is_stmt 0 discriminator 9
 2141 0d36 0FB645B7 		movzbl	-73(%rbp), %eax
 2142 0d3a 83F001   		xorl	$1, %eax
 2143 0d3d 84C0     		testb	%al, %al
 2144 0d3f 746C     		je	.L107
 2145              	.LEHB45:
 2146              		.loc 5 67 5 discriminator 3
 2147 0d41 E8000000 		call	_ZN8UnitTest11CurrentTest7ResultsEv@PLT
 2147      00
 2148 0d46 488B18   		movq	(%rax), %rbx
 2149 0d49 E8000000 		call	_ZN8UnitTest11CurrentTest7DetailsEv@PLT
 2149      00
 2150 0d4e 488B08   		movq	(%rax), %rcx
 2151 0d51 488D45C0 		leaq	-64(%rbp), %rax
 2152 0d55 BA430000 		movl	$67, %edx
 2152      00
 2153 0d5a 4889CE   		movq	%rcx, %rsi
 2154 0d5d 4889C7   		movq	%rax, %rdi
 2155 0d60 E8000000 		call	_ZN8UnitTest11TestDetailsC1ERKS0_i@PLT
 2155      00
 2156 0d65 488D45C0 		leaq	-64(%rbp), %rax
 2157 0d69 488D1500 		leaq	.LC35(%rip), %rdx
 2157      000000
 2158 0d70 4889C6   		movq	%rax, %rsi
 2159 0d73 4889DF   		movq	%rbx, %rdi
 2160 0d76 E8000000 		call	_ZN8UnitTest11TestResults13OnTestFailureERKNS_11TestDetailsEPKc@PLT
 2160      00
 2161              	.LBE19:
  68:TestUnitTest++.cpp **** }
 2162              		.loc 5 68 1 is_stmt 1 discriminator 3
 2163 0d7b EB30     		jmp	.L107
 2164              	.L106:
 2165 0d7d F30F1EFA 		endbr64
  67:TestUnitTest++.cpp ****     CHECK_ASSERT(UnitTest::ReportAssert("desc", "file", 0));
 2166              		.loc 5 67 5
 2167 0d81 4883FA01 		cmpq	$1, %rdx
 2168 0d85 7517     		jne	.L103
 2169              	.LBB21:
 2170              	.LBB20:
  67:TestUnitTest++.cpp ****     CHECK_ASSERT(UnitTest::ReportAssert("desc", "file", 0));
 2171              		.loc 5 67 5 is_stmt 0 discriminator 6
 2172 0d87 4889C7   		movq	%rax, %rdi
 2173 0d8a E8000000 		call	__cxa_begin_catch@PLT
 2173      00
 2174 0d8f 488945B8 		movq	%rax, -72(%rbp)
 2175 0d93 C645B701 		movb	$1, -73(%rbp)
 2176 0d97 E8000000 		call	__cxa_end_catch@PLT
 2176      00
 2177 0d9c EB98     		jmp	.L104
 2178              	.L103:
 2179              	.LBE20:
  67:TestUnitTest++.cpp ****     CHECK_ASSERT(UnitTest::ReportAssert("desc", "file", 0));
 2180              		.loc 5 67 5 discriminator 7
 2181 0d9e 4889C7   		movq	%rax, %rdi
 2182 0da1 E8000000 		call	__cxa_begin_catch@PLT
 2182      00
 2183 0da6 E8000000 		call	__cxa_end_catch@PLT
 2183      00
 2184              	.LEHE45:
 2185 0dab EB89     		jmp	.L104
 2186              	.L107:
 2187              	.LBE21:
 2188              		.loc 5 68 1 is_stmt 1
 2189 0dad 90       		nop
 2190 0dae 488B45E8 		movq	-24(%rbp), %rax
 2191 0db2 64482B04 		subq	%fs:40, %rax
 2191      25280000 
 2191      00
 2192 0dbb 7405     		je	.L105
 2193 0dbd E8000000 		call	__stack_chk_fail@PLT
 2193      00
 2194              	.L105:
 2195 0dc2 488B5DF8 		movq	-8(%rbp), %rbx
 2196 0dc6 C9       		leave
 2197              		.cfi_def_cfa 7, 8
 2198 0dc7 C3       		ret
 2199              		.cfi_endproc
 2200              	.LFE1449:
 2201              		.section	.gcc_except_table
 2202              		.align 4
 2203              	.LLSDA1449:
 2204 0138 FF       		.byte	0xff
 2205 0139 9B       		.byte	0x9b
 2206 013a 19       		.uleb128 .LLSDATT1449-.LLSDATTD1449
 2207              	.LLSDATTD1449:
 2208 013b 01       		.byte	0x1
 2209 013c 09       		.uleb128 .LLSDACSE1449-.LLSDACSB1449
 2210              	.LLSDACSB1449:
 2211 013d 3D       		.uleb128 .LEHB44-.LFB1449
 2212 013e 05       		.uleb128 .LEHE44-.LEHB44
 2213 013f 8901     		.uleb128 .L106-.LFB1449
 2214 0141 03       		.uleb128 0x3
 2215 0142 4D       		.uleb128 .LEHB45-.LFB1449
 2216 0143 6A       		.uleb128 .LEHE45-.LEHB45
 2217 0144 00       		.uleb128 0
 2218 0145 00       		.uleb128 0
 2219              	.LLSDACSE1449:
 2220 0146 02       		.byte	0x2
 2221 0147 00       		.byte	0
 2222 0148 01       		.byte	0x1
 2223 0149 7D       		.byte	0x7d
 2224 014a 0000     		.align 4
 2225 014c 00000000 		.long	0
 2226              	
 2227 0150 00000000 		.long	DW.ref._ZTIN8UnitTest15AssertExceptionE-.
 2228              	.LLSDATT1449:
 2229              		.text
 2231              		.section	.rodata
 2232 032b 00000000 		.align 8
 2232      00
 2233              	.LC36:
 2234 0330 43686563 		.string	"CheckThrowMacroFailsOnMissingException"
 2234      6B546872 
 2234      6F774D61 
 2234      63726F46 
 2234      61696C73 
 2235              		.text
 2236              		.align 2
 2238              	_ZN12_GLOBAL__N_142TestCheckThrowMacroFailsOnMissingExceptionC2Ev:
 2239              	.LFB1451:
  69:TestUnitTest++.cpp **** 
  70:TestUnitTest++.cpp **** TEST(CheckThrowMacroFailsOnMissingException)
 2240              		.loc 5 70 1
 2241              		.cfi_startproc
 2242 0dc8 55       		pushq	%rbp
 2243              		.cfi_def_cfa_offset 16
 2244              		.cfi_offset 6, -16
 2245 0dc9 4889E5   		movq	%rsp, %rbp
 2246              		.cfi_def_cfa_register 6
 2247 0dcc 53       		pushq	%rbx
 2248 0dcd 4883EC18 		subq	$24, %rsp
 2249              		.cfi_offset 3, -24
 2250 0dd1 48897DE8 		movq	%rdi, -24(%rbp)
 2251              	.LBB22:
 2252              		.loc 5 70 1
 2253 0dd5 488B5DE8 		movq	-24(%rbp), %rbx
 2254 0dd9 E8000000 		call	_ZN13UnitTestSuite12GetSuiteNameEv
 2254      00
 2255 0dde 4889C2   		movq	%rax, %rdx
 2256 0de1 41B84600 		movl	$70, %r8d
 2256      0000
 2257 0de7 488D0500 		leaq	.LC1(%rip), %rax
 2257      000000
 2258 0dee 4889C1   		movq	%rax, %rcx
 2259 0df1 488D0500 		leaq	.LC36(%rip), %rax
 2259      000000
 2260 0df8 4889C6   		movq	%rax, %rsi
 2261 0dfb 4889DF   		movq	%rbx, %rdi
 2262 0dfe E8000000 		call	_ZN8UnitTest4TestC2EPKcS2_S2_i@PLT
 2262      00
 2263 0e03 488D1500 		leaq	16+_ZTVN12_GLOBAL__N_142TestCheckThrowMacroFailsOnMissingExceptionE(%rip), %rdx
 2263      000000
 2264 0e0a 488B45E8 		movq	-24(%rbp), %rax
 2265 0e0e 488910   		movq	%rdx, (%rax)
 2266              	.LBE22:
 2267 0e11 90       		nop
 2268 0e12 488B5DF8 		movq	-8(%rbp), %rbx
 2269 0e16 C9       		leave
 2270              		.cfi_def_cfa 7, 8
 2271 0e17 C3       		ret
 2272              		.cfi_endproc
 2273              	.LFE1451:
 2275              		.set	_ZN12_GLOBAL__N_142TestCheckThrowMacroFailsOnMissingExceptionC1Ev,_ZN12_GLOBAL__N_142TestChec
 2276              		.local	_ZN12_GLOBAL__N_150testCheckThrowMacroFailsOnMissingExceptionInstanceE
 2277              		.comm	_ZN12_GLOBAL__N_150testCheckThrowMacroFailsOnMissingExceptionInstanceE,56,32
 2278              		.local	_ZN12_GLOBAL__N_143adderCheckThrowMacroFailsOnMissingExceptionE
 2279              		.comm	_ZN12_GLOBAL__N_143adderCheckThrowMacroFailsOnMissingExceptionE,1,1
 2280              		.section	.rodata
 2281              	.LC37:
 2282 0357 00       		.string	""
 2283              	.LC38:
 2284 0358 6E6F7468 		.string	"nothrow"
 2284      726F7700 
 2285              		.text
 2286              		.align 2
 2288              	_ZZNK12_GLOBAL__N_142TestCheckThrowMacroFailsOnMissingException7RunImplEvEN11NoThrowTestC2Ev:
 2289              	.LFB1455:
  71:TestUnitTest++.cpp **** {
  72:TestUnitTest++.cpp ****     class NoThrowTest : public UnitTest::Test
  73:TestUnitTest++.cpp ****     {
  74:TestUnitTest++.cpp ****     public:
  75:TestUnitTest++.cpp ****         NoThrowTest() : Test("nothrow") {}
 2290              		.loc 5 75 9
 2291              		.cfi_startproc
 2292 0e18 55       		pushq	%rbp
 2293              		.cfi_def_cfa_offset 16
 2294              		.cfi_offset 6, -16
 2295 0e19 4889E5   		movq	%rsp, %rbp
 2296              		.cfi_def_cfa_register 6
 2297 0e1c 4883EC10 		subq	$16, %rsp
 2298 0e20 48897DF8 		movq	%rdi, -8(%rbp)
 2299              	.LBB23:
 2300              		.loc 5 75 39
 2301 0e24 488B45F8 		movq	-8(%rbp), %rax
 2302 0e28 41B80000 		movl	$0, %r8d
 2302      0000
 2303 0e2e 488D1500 		leaq	.LC37(%rip), %rdx
 2303      000000
 2304 0e35 4889D1   		movq	%rdx, %rcx
 2305 0e38 488D1500 		leaq	.LC0(%rip), %rdx
 2305      000000
 2306 0e3f 488D3500 		leaq	.LC38(%rip), %rsi
 2306      000000
 2307 0e46 4889C7   		movq	%rax, %rdi
 2308 0e49 E8000000 		call	_ZN8UnitTest4TestC2EPKcS2_S2_i@PLT
 2308      00
 2309 0e4e 488D1500 		leaq	16+_ZTVZNK12_GLOBAL__N_142TestCheckThrowMacroFailsOnMissingException7RunImplEvE11NoThrowTest(
 2309      000000
 2310 0e55 488B45F8 		movq	-8(%rbp), %rax
 2311 0e59 488910   		movq	%rdx, (%rax)
 2312              	.LBE23:
 2313              		.loc 5 75 42
 2314 0e5c 90       		nop
 2315 0e5d C9       		leave
 2316              		.cfi_def_cfa 7, 8
 2317 0e5e C3       		ret
 2318              		.cfi_endproc
 2319              	.LFE1455:
 2321              		.set	_ZZNK12_GLOBAL__N_142TestCheckThrowMacroFailsOnMissingException7RunImplEvEN11NoThrowTestC1Ev,
 2322 0e5f 90       		.align 2
 2324              	_ZZNK12_GLOBAL__N_142TestCheckThrowMacroFailsOnMissingException7RunImplEvENK11NoThrowTest9DontThrow
 2325              	.LFB1457:
  76:TestUnitTest++.cpp ****         void DontThrow() const
 2326              		.loc 5 76 14
 2327              		.cfi_startproc
 2328 0e60 55       		pushq	%rbp
 2329              		.cfi_def_cfa_offset 16
 2330              		.cfi_offset 6, -16
 2331 0e61 4889E5   		movq	%rsp, %rbp
 2332              		.cfi_def_cfa_register 6
 2333 0e64 48897DF8 		movq	%rdi, -8(%rbp)
  77:TestUnitTest++.cpp ****         {
  78:TestUnitTest++.cpp ****         }
 2334              		.loc 5 78 9
 2335 0e68 90       		nop
 2336 0e69 5D       		popq	%rbp
 2337              		.cfi_def_cfa 7, 8
 2338 0e6a C3       		ret
 2339              		.cfi_endproc
 2340              	.LFE1457:
 2342              		.section	.rodata
 2343              		.align 8
 2344              	.LC39:
 2345 0360 45787065 		.string	"Expected exception: \"int\" not thrown"
 2345      63746564 
 2345      20657863 
 2345      65707469 
 2345      6F6E3A20 
 2346              		.text
 2347 0e6b 90       		.align 2
 2349              	_ZZNK12_GLOBAL__N_142TestCheckThrowMacroFailsOnMissingException7RunImplEvENK11NoThrowTest7RunImplEv
 2350              	.LFB1458:
  79:TestUnitTest++.cpp **** 
  80:TestUnitTest++.cpp ****         virtual void RunImpl() const
 2351              		.loc 5 80 22
 2352              		.cfi_startproc
 2353 0e6c F30F1EFA 		endbr64
 2354 0e70 55       		pushq	%rbp
 2355              		.cfi_def_cfa_offset 16
 2356              		.cfi_offset 6, -16
 2357 0e71 4889E5   		movq	%rsp, %rbp
 2358              		.cfi_def_cfa_register 6
 2359 0e74 53       		pushq	%rbx
 2360 0e75 4883EC58 		subq	$88, %rsp
 2361              		.cfi_offset 3, -24
 2362 0e79 48897DA8 		movq	%rdi, -88(%rbp)
 2363              		.loc 5 80 22
 2364 0e7d 64488B04 		movq	%fs:40, %rax
 2364      25280000 
 2364      00
 2365 0e86 488945E8 		movq	%rax, -24(%rbp)
 2366 0e8a 31C0     		xorl	%eax, %eax
 2367              	.LBB24:
  81:TestUnitTest++.cpp ****         {
  82:TestUnitTest++.cpp ****             CHECK_THROW(DontThrow(), int);
 2368              		.loc 5 82 13
 2369 0e8c C645BF00 		movb	$0, -65(%rbp)
 2370 0e90 488B45A8 		movq	-88(%rbp), %rax
 2371 0e94 4889C7   		movq	%rax, %rdi
 2372 0e97 E8C4FFFF 		call	_ZZNK12_GLOBAL__N_142TestCheckThrowMacroFailsOnMissingException7RunImplEvENK11NoThrowTest9Don
 2372      FF
 2373 0e9c 0FB645BF 		movzbl	-65(%rbp), %eax
 2374 0ea0 83F001   		xorl	$1, %eax
 2375 0ea3 84C0     		testb	%al, %al
 2376 0ea5 743A     		je	.L114
 2377              		.loc 5 82 13 is_stmt 0 discriminator 1
 2378 0ea7 E8000000 		call	_ZN8UnitTest11CurrentTest7ResultsEv@PLT
 2378      00
 2379 0eac 488B18   		movq	(%rax), %rbx
 2380 0eaf E8000000 		call	_ZN8UnitTest11CurrentTest7DetailsEv@PLT
 2380      00
 2381 0eb4 488B08   		movq	(%rax), %rcx
 2382 0eb7 488D45C0 		leaq	-64(%rbp), %rax
 2383 0ebb BA520000 		movl	$82, %edx
 2383      00
 2384 0ec0 4889CE   		movq	%rcx, %rsi
 2385 0ec3 4889C7   		movq	%rax, %rdi
 2386 0ec6 E8000000 		call	_ZN8UnitTest11TestDetailsC1ERKS0_i@PLT
 2386      00
 2387 0ecb 488D45C0 		leaq	-64(%rbp), %rax
 2388 0ecf 488D1500 		leaq	.LC39(%rip), %rdx
 2388      000000
 2389 0ed6 4889C6   		movq	%rax, %rsi
 2390 0ed9 4889DF   		movq	%rbx, %rdi
 2391 0edc E8000000 		call	_ZN8UnitTest11TestResults13OnTestFailureERKNS_11TestDetailsEPKc@PLT
 2391      00
 2392              	.L114:
 2393              	.LBE24:
  83:TestUnitTest++.cpp ****         }
 2394              		.loc 5 83 9 is_stmt 1
 2395 0ee1 90       		nop
 2396 0ee2 488B45E8 		movq	-24(%rbp), %rax
 2397 0ee6 64482B04 		subq	%fs:40, %rax
 2397      25280000 
 2397      00
 2398 0eef 7405     		je	.L113
 2399 0ef1 E8000000 		call	__stack_chk_fail@PLT
 2399      00
 2400              	.L113:
 2401 0ef6 488B5DF8 		movq	-8(%rbp), %rbx
 2402 0efa C9       		leave
 2403              		.cfi_def_cfa 7, 8
 2404 0efb C3       		ret
 2405              		.cfi_endproc
 2406              	.LFE1458:
 2408              		.section	.rodata
 2409 0385 000000   		.align 8
 2410              	.LC40:
 2411 0388 556E6861 		.string	"Unhandled exception in CHECK_EQUAL(1, results.GetFailureCount())"
 2411      6E646C65 
 2411      64206578 
 2411      63657074 
 2411      696F6E20 
 2412              		.text
 2413              		.align 2
 2415              	_ZNK12_GLOBAL__N_142TestCheckThrowMacroFailsOnMissingException7RunImplEv:
 2416              	.LFB1453:
  71:TestUnitTest++.cpp ****     class NoThrowTest : public UnitTest::Test
 2417              		.loc 5 71 1
 2418              		.cfi_startproc
 2419              		.cfi_personality 0x9b,DW.ref.__gxx_personality_v0
 2420              		.cfi_lsda 0x1b,.LLSDA1453
 2421 0efc F30F1EFA 		endbr64
 2422 0f00 55       		pushq	%rbp
 2423              		.cfi_def_cfa_offset 16
 2424              		.cfi_offset 6, -16
 2425 0f01 4889E5   		movq	%rsp, %rbp
 2426              		.cfi_def_cfa_register 6
 2427 0f04 53       		pushq	%rbx
 2428 0f05 4881EC98 		subq	$152, %rsp
 2428      000000
 2429              		.cfi_offset 3, -24
 2430 0f0c 4889BD68 		movq	%rdi, -152(%rbp)
 2430      FFFFFF
  71:TestUnitTest++.cpp ****     class NoThrowTest : public UnitTest::Test
 2431              		.loc 5 71 1
 2432 0f13 64488B04 		movq	%fs:40, %rax
 2432      25280000 
 2432      00
 2433 0f1c 488945E8 		movq	%rax, -24(%rbp)
 2434 0f20 31C0     		xorl	%eax, %eax
  84:TestUnitTest++.cpp ****     };
  85:TestUnitTest++.cpp **** 
  86:TestUnitTest++.cpp ****     UnitTest::TestResults results;
 2435              		.loc 5 86 27
 2436 0f22 488D4590 		leaq	-112(%rbp), %rax
 2437 0f26 BE000000 		movl	$0, %esi
 2437      00
 2438 0f2b 4889C7   		movq	%rax, %rdi
 2439              	.LEHB46:
 2440 0f2e E8000000 		call	_ZN8UnitTest11TestResultsC1EPNS_12TestReporterE@PLT
 2440      00
 2441              	.LBB25:
  87:TestUnitTest++.cpp **** 	{
  88:TestUnitTest++.cpp **** 		ScopedCurrentTest scopedResults(results);
 2442              		.loc 5 88 42
 2443 0f33 488D4D90 		leaq	-112(%rbp), %rcx
 2444 0f37 488D4580 		leaq	-128(%rbp), %rax
 2445 0f3b BA000000 		movl	$0, %edx
 2445      00
 2446 0f40 4889CE   		movq	%rcx, %rsi
 2447 0f43 4889C7   		movq	%rax, %rdi
 2448 0f46 E8000000 		call	_ZN17ScopedCurrentTestC1ERN8UnitTest11TestResultsEPKNS0_11TestDetailsE
 2448      00
 2449              	.LEHE46:
  89:TestUnitTest++.cpp **** 
  90:TestUnitTest++.cpp **** 		NoThrowTest test;
 2450              		.loc 5 90 15
 2451 0f4b 488D45B0 		leaq	-80(%rbp), %rax
 2452 0f4f 4889C7   		movq	%rax, %rdi
 2453              	.LEHB47:
 2454 0f52 E8C1FEFF 		call	_ZZNK12_GLOBAL__N_142TestCheckThrowMacroFailsOnMissingException7RunImplEvEN11NoThrowTestC1Ev
 2454      FF
 2455              	.LEHE47:
  91:TestUnitTest++.cpp **** 		test.Run();
 2456              		.loc 5 91 11
 2457 0f57 488D45B0 		leaq	-80(%rbp), %rax
 2458 0f5b 4889C7   		movq	%rax, %rdi
 2459              	.LEHB48:
 2460 0f5e E8000000 		call	_ZN8UnitTest4Test3RunEv@PLT
 2460      00
 2461              	.LEHE48:
  92:TestUnitTest++.cpp **** 	}
 2462              		.loc 5 92 2
 2463 0f63 488D45B0 		leaq	-80(%rbp), %rax
 2464 0f67 4889C7   		movq	%rax, %rdi
 2465              	.LEHB49:
 2466 0f6a E8DB1700 		call	_ZZNK12_GLOBAL__N_142TestCheckThrowMacroFailsOnMissingException7RunImplEvEN11NoThrowTestD1Ev
 2466      00
 2467              	.LEHE49:
 2468              		.loc 5 92 2 is_stmt 0 discriminator 2
 2469 0f6f 488D4580 		leaq	-128(%rbp), %rax
 2470 0f73 4889C7   		movq	%rax, %rdi
 2471              	.LEHB50:
 2472 0f76 E8000000 		call	_ZN17ScopedCurrentTestD1Ev
 2472      00
 2473              	.LEHE50:
 2474              	.LEHB51:
 2475              	.LBE25:
  93:TestUnitTest++.cpp **** 
  94:TestUnitTest++.cpp **** 	CHECK_EQUAL(1, results.GetFailureCount());
 2476              		.loc 5 94 2 is_stmt 1 discriminator 2
 2477 0f7b E8000000 		call	_ZN8UnitTest11CurrentTest7DetailsEv@PLT
 2477      00
 2478 0f80 488B08   		movq	(%rax), %rcx
 2479 0f83 488D45B0 		leaq	-80(%rbp), %rax
 2480 0f87 BA5E0000 		movl	$94, %edx
 2480      00
 2481 0f8c 4889CE   		movq	%rcx, %rsi
 2482 0f8f 4889C7   		movq	%rax, %rdi
 2483 0f92 E8000000 		call	_ZN8UnitTest11TestDetailsC1ERKS0_i@PLT
 2483      00
 2484              		.loc 5 94 2 is_stmt 0 discriminator 4
 2485 0f97 488D4590 		leaq	-112(%rbp), %rax
 2486 0f9b 4889C7   		movq	%rax, %rdi
 2487 0f9e E8000000 		call	_ZNK8UnitTest11TestResults15GetFailureCountEv@PLT
 2487      00
 2488 0fa3 894580   		movl	%eax, -128(%rbp)
 2489 0fa6 C7857CFF 		movl	$1, -132(%rbp)
 2489      FFFF0100 
 2489      0000
 2490 0fb0 E8000000 		call	_ZN8UnitTest11CurrentTest7ResultsEv@PLT
 2490      00
 2491              		.loc 5 94 2 discriminator 6
 2492 0fb5 488B00   		movq	(%rax), %rax
 2493 0fb8 488D4DB0 		leaq	-80(%rbp), %rcx
 2494 0fbc 488D5580 		leaq	-128(%rbp), %rdx
 2495 0fc0 488DB57C 		leaq	-132(%rbp), %rsi
 2495      FFFFFF
 2496 0fc7 4889C7   		movq	%rax, %rdi
 2497 0fca E8000000 		call	_ZN8UnitTest10CheckEqualIiiEEvRNS_11TestResultsERKT_RKT0_RKNS_11TestDetailsE
 2497      00
 2498              	.LEHE51:
  95:TestUnitTest++.cpp **** }
 2499              		.loc 5 95 1 is_stmt 1
 2500 0fcf E9970000 		jmp	.L115
 2500      00
 2501              	.L123:
 2502 0fd4 F30F1EFA 		endbr64
 2503              	.LBB26:
  92:TestUnitTest++.cpp **** 	}
 2504              		.loc 5 92 2
 2505 0fd8 4889C3   		movq	%rax, %rbx
 2506 0fdb 488D45B0 		leaq	-80(%rbp), %rax
 2507 0fdf 4889C7   		movq	%rax, %rdi
 2508 0fe2 E8631700 		call	_ZZNK12_GLOBAL__N_142TestCheckThrowMacroFailsOnMissingException7RunImplEvEN11NoThrowTestD1Ev
 2508      00
 2509 0fe7 EB07     		jmp	.L117
 2510              	.L122:
 2511 0fe9 F30F1EFA 		endbr64
 2512 0fed 4889C3   		movq	%rax, %rbx
 2513              	.L117:
  92:TestUnitTest++.cpp **** 	}
 2514              		.loc 5 92 2 is_stmt 0 discriminator 1
 2515 0ff0 488D4580 		leaq	-128(%rbp), %rax
 2516 0ff4 4889C7   		movq	%rax, %rdi
 2517 0ff7 E8000000 		call	_ZN17ScopedCurrentTestD1Ev
 2517      00
 2518 0ffc 4889D8   		movq	%rbx, %rax
 2519 0fff 4889C7   		movq	%rax, %rdi
 2520              	.LEHB52:
 2521 1002 E8000000 		call	_Unwind_Resume@PLT
 2521      00
 2522              	.LEHE52:
 2523              	.L124:
 2524 1007 F30F1EFA 		endbr64
 2525              	.LBE26:
  94:TestUnitTest++.cpp **** }
 2526              		.loc 5 94 2 is_stmt 1
 2527 100b 4889C7   		movq	%rax, %rdi
 2528 100e E8000000 		call	__cxa_begin_catch@PLT
 2528      00
 2529              	.LEHB53:
 2530 1013 E8000000 		call	_ZN8UnitTest11CurrentTest7ResultsEv@PLT
 2530      00
  94:TestUnitTest++.cpp **** }
 2531              		.loc 5 94 2 is_stmt 0 discriminator 3
 2532 1018 488B18   		movq	(%rax), %rbx
 2533 101b E8000000 		call	_ZN8UnitTest11CurrentTest7DetailsEv@PLT
 2533      00
  94:TestUnitTest++.cpp **** }
 2534              		.loc 5 94 2 discriminator 13
 2535 1020 488B08   		movq	(%rax), %rcx
 2536 1023 488D45B0 		leaq	-80(%rbp), %rax
 2537 1027 BA5E0000 		movl	$94, %edx
 2537      00
 2538 102c 4889CE   		movq	%rcx, %rsi
 2539 102f 4889C7   		movq	%rax, %rdi
 2540 1032 E8000000 		call	_ZN8UnitTest11TestDetailsC1ERKS0_i@PLT
 2540      00
  94:TestUnitTest++.cpp **** }
 2541              		.loc 5 94 2 discriminator 17
 2542 1037 488D45B0 		leaq	-80(%rbp), %rax
 2543 103b 488D1500 		leaq	.LC40(%rip), %rdx
 2543      000000
 2544 1042 4889C6   		movq	%rax, %rsi
 2545 1045 4889DF   		movq	%rbx, %rdi
 2546 1048 E8000000 		call	_ZN8UnitTest11TestResults13OnTestFailureERKNS_11TestDetailsEPKc@PLT
 2546      00
 2547              	.LEHE53:
 2548              	.LEHB54:
  94:TestUnitTest++.cpp **** }
 2549              		.loc 5 94 2 discriminator 19
 2550 104d E8000000 		call	__cxa_end_catch@PLT
 2550      00
 2551              	.LEHE54:
 2552              		.loc 5 95 1 is_stmt 1 discriminator 19
 2553 1052 EB17     		jmp	.L115
 2554              	.L125:
 2555 1054 F30F1EFA 		endbr64
  94:TestUnitTest++.cpp **** }
 2556              		.loc 5 94 2
 2557 1058 4889C3   		movq	%rax, %rbx
 2558 105b E8000000 		call	__cxa_end_catch@PLT
 2558      00
 2559 1060 4889D8   		movq	%rbx, %rax
 2560 1063 4889C7   		movq	%rax, %rdi
 2561              	.LEHB55:
 2562 1066 E8000000 		call	_Unwind_Resume@PLT
 2562      00
 2563              	.LEHE55:
 2564              	.L115:
 2565              		.loc 5 95 1
 2566 106b 488B45E8 		movq	-24(%rbp), %rax
 2567 106f 64482B04 		subq	%fs:40, %rax
 2567      25280000 
 2567      00
 2568 1078 7405     		je	.L121
 2569 107a E8000000 		call	__stack_chk_fail@PLT
 2569      00
 2570              	.L121:
 2571 107f 488B5DF8 		movq	-8(%rbp), %rbx
 2572 1083 C9       		leave
 2573              		.cfi_def_cfa 7, 8
 2574 1084 C3       		ret
 2575              		.cfi_endproc
 2576              	.LFE1453:
 2577              		.section	.gcc_except_table
 2578              		.align 4
 2579              	.LLSDA1453:
 2580 0154 FF       		.byte	0xff
 2581 0155 9B       		.byte	0x9b
 2582 0156 39       		.uleb128 .LLSDATT1453-.LLSDATTD1453
 2583              	.LLSDATTD1453:
 2584 0157 01       		.byte	0x1
 2585 0158 31       		.uleb128 .LLSDACSE1453-.LLSDACSB1453
 2586              	.LLSDACSB1453:
 2587 0159 32       		.uleb128 .LEHB46-.LFB1453
 2588 015a 1D       		.uleb128 .LEHE46-.LEHB46
 2589 015b 00       		.uleb128 0
 2590 015c 00       		.uleb128 0
 2591 015d 56       		.uleb128 .LEHB47-.LFB1453
 2592 015e 05       		.uleb128 .LEHE47-.LEHB47
 2593 015f ED01     		.uleb128 .L122-.LFB1453
 2594 0161 00       		.uleb128 0
 2595 0162 62       		.uleb128 .LEHB48-.LFB1453
 2596 0163 05       		.uleb128 .LEHE48-.LEHB48
 2597 0164 D801     		.uleb128 .L123-.LFB1453
 2598 0166 00       		.uleb128 0
 2599 0167 6E       		.uleb128 .LEHB49-.LFB1453
 2600 0168 05       		.uleb128 .LEHE49-.LEHB49
 2601 0169 ED01     		.uleb128 .L122-.LFB1453
 2602 016b 00       		.uleb128 0
 2603 016c 7A       		.uleb128 .LEHB50-.LFB1453
 2604 016d 05       		.uleb128 .LEHE50-.LEHB50
 2605 016e 00       		.uleb128 0
 2606 016f 00       		.uleb128 0
 2607 0170 7F       		.uleb128 .LEHB51-.LFB1453
 2608 0171 54       		.uleb128 .LEHE51-.LEHB51
 2609 0172 8B02     		.uleb128 .L124-.LFB1453
 2610 0174 01       		.uleb128 0x1
 2611 0175 8602     		.uleb128 .LEHB52-.LFB1453
 2612 0177 05       		.uleb128 .LEHE52-.LEHB52
 2613 0178 00       		.uleb128 0
 2614 0179 00       		.uleb128 0
 2615 017a 9702     		.uleb128 .LEHB53-.LFB1453
 2616 017c 3A       		.uleb128 .LEHE53-.LEHB53
 2617 017d D802     		.uleb128 .L125-.LFB1453
 2618 017f 00       		.uleb128 0
 2619 0180 D102     		.uleb128 .LEHB54-.LFB1453
 2620 0182 05       		.uleb128 .LEHE54-.LEHB54
 2621 0183 00       		.uleb128 0
 2622 0184 00       		.uleb128 0
 2623 0185 EA02     		.uleb128 .LEHB55-.LFB1453
 2624 0187 05       		.uleb128 .LEHE55-.LEHB55
 2625 0188 00       		.uleb128 0
 2626 0189 00       		.uleb128 0
 2627              	.LLSDACSE1453:
 2628 018a 01       		.byte	0x1
 2629 018b 00       		.byte	0
 2630              		.align 4
 2631 018c 00000000 		.long	0
 2632              	
 2633              	.LLSDATT1453:
 2634              		.text
 2636              		.section	.rodata
 2637 03c9 00000000 		.align 8
 2637      000000
 2638              	.LC41:
 2639 03d0 43686563 		.string	"CheckThrowMacroFailsOnWrongException"
 2639      6B546872 
 2639      6F774D61 
 2639      63726F46 
 2639      61696C73 
 2640              		.text
 2641 1085 90       		.align 2
 2643              	_ZN12_GLOBAL__N_140TestCheckThrowMacroFailsOnWrongExceptionC2Ev:
 2644              	.LFB1460:
  96:TestUnitTest++.cpp **** 
  97:TestUnitTest++.cpp **** TEST(CheckThrowMacroFailsOnWrongException)
 2645              		.loc 5 97 1
 2646              		.cfi_startproc
 2647 1086 55       		pushq	%rbp
 2648              		.cfi_def_cfa_offset 16
 2649              		.cfi_offset 6, -16
 2650 1087 4889E5   		movq	%rsp, %rbp
 2651              		.cfi_def_cfa_register 6
 2652 108a 53       		pushq	%rbx
 2653 108b 4883EC18 		subq	$24, %rsp
 2654              		.cfi_offset 3, -24
 2655 108f 48897DE8 		movq	%rdi, -24(%rbp)
 2656              	.LBB27:
 2657              		.loc 5 97 1
 2658 1093 488B5DE8 		movq	-24(%rbp), %rbx
 2659 1097 E8000000 		call	_ZN13UnitTestSuite12GetSuiteNameEv
 2659      00
 2660 109c 4889C2   		movq	%rax, %rdx
 2661 109f 41B86100 		movl	$97, %r8d
 2661      0000
 2662 10a5 488D0500 		leaq	.LC1(%rip), %rax
 2662      000000
 2663 10ac 4889C1   		movq	%rax, %rcx
 2664 10af 488D0500 		leaq	.LC41(%rip), %rax
 2664      000000
 2665 10b6 4889C6   		movq	%rax, %rsi
 2666 10b9 4889DF   		movq	%rbx, %rdi
 2667 10bc E8000000 		call	_ZN8UnitTest4TestC2EPKcS2_S2_i@PLT
 2667      00
 2668 10c1 488D1500 		leaq	16+_ZTVN12_GLOBAL__N_140TestCheckThrowMacroFailsOnWrongExceptionE(%rip), %rdx
 2668      000000
 2669 10c8 488B45E8 		movq	-24(%rbp), %rax
 2670 10cc 488910   		movq	%rdx, (%rax)
 2671              	.LBE27:
 2672 10cf 90       		nop
 2673 10d0 488B5DF8 		movq	-8(%rbp), %rbx
 2674 10d4 C9       		leave
 2675              		.cfi_def_cfa 7, 8
 2676 10d5 C3       		ret
 2677              		.cfi_endproc
 2678              	.LFE1460:
 2680              		.set	_ZN12_GLOBAL__N_140TestCheckThrowMacroFailsOnWrongExceptionC1Ev,_ZN12_GLOBAL__N_140TestCheckT
 2681              		.local	_ZN12_GLOBAL__N_148testCheckThrowMacroFailsOnWrongExceptionInstanceE
 2682              		.comm	_ZN12_GLOBAL__N_148testCheckThrowMacroFailsOnWrongExceptionInstanceE,56,32
 2683              		.local	_ZN12_GLOBAL__N_141adderCheckThrowMacroFailsOnWrongExceptionE
 2684              		.comm	_ZN12_GLOBAL__N_141adderCheckThrowMacroFailsOnWrongExceptionE,1,1
 2685              		.section	.rodata
 2686              	.LC42:
 2687 03f5 77726F6E 		.string	"wrongthrow"
 2687      67746872 
 2687      6F7700
 2688              		.text
 2689              		.align 2
 2691              	_ZZNK12_GLOBAL__N_140TestCheckThrowMacroFailsOnWrongException7RunImplEvEN14WrongThrowTestC2Ev:
 2692              	.LFB1464:
  98:TestUnitTest++.cpp **** {
  99:TestUnitTest++.cpp ****     class WrongThrowTest : public UnitTest::Test
 100:TestUnitTest++.cpp ****     {
 101:TestUnitTest++.cpp ****     public:
 102:TestUnitTest++.cpp ****         WrongThrowTest() : Test("wrongthrow") {}
 2693              		.loc 5 102 9
 2694              		.cfi_startproc
 2695 10d6 55       		pushq	%rbp
 2696              		.cfi_def_cfa_offset 16
 2697              		.cfi_offset 6, -16
 2698 10d7 4889E5   		movq	%rsp, %rbp
 2699              		.cfi_def_cfa_register 6
 2700 10da 4883EC10 		subq	$16, %rsp
 2701 10de 48897DF8 		movq	%rdi, -8(%rbp)
 2702              	.LBB28:
 2703              		.loc 5 102 45
 2704 10e2 488B45F8 		movq	-8(%rbp), %rax
 2705 10e6 41B80000 		movl	$0, %r8d
 2705      0000
 2706 10ec 488D1500 		leaq	.LC37(%rip), %rdx
 2706      000000
 2707 10f3 4889D1   		movq	%rdx, %rcx
 2708 10f6 488D1500 		leaq	.LC0(%rip), %rdx
 2708      000000
 2709 10fd 488D3500 		leaq	.LC42(%rip), %rsi
 2709      000000
 2710 1104 4889C7   		movq	%rax, %rdi
 2711 1107 E8000000 		call	_ZN8UnitTest4TestC2EPKcS2_S2_i@PLT
 2711      00
 2712 110c 488D1500 		leaq	16+_ZTVZNK12_GLOBAL__N_140TestCheckThrowMacroFailsOnWrongException7RunImplEvE14WrongThrowTest
 2712      000000
 2713 1113 488B45F8 		movq	-8(%rbp), %rax
 2714 1117 488910   		movq	%rdx, (%rax)
 2715              	.LBE28:
 2716              		.loc 5 102 48
 2717 111a 90       		nop
 2718 111b C9       		leave
 2719              		.cfi_def_cfa 7, 8
 2720 111c C3       		ret
 2721              		.cfi_endproc
 2722              	.LFE1464:
 2724              		.set	_ZZNK12_GLOBAL__N_140TestCheckThrowMacroFailsOnWrongException7RunImplEvEN14WrongThrowTestC1Ev
 2725              		.section	.rodata
 2726              	.LC43:
 2727 0400 6F6F7073 		.string	"oops"
 2727      00
 2728              		.text
 2729 111d 90       		.align 2
 2731              	_ZZNK12_GLOBAL__N_140TestCheckThrowMacroFailsOnWrongException7RunImplEvENK14WrongThrowTest7RunImplE
 2732              	.LFB1466:
 103:TestUnitTest++.cpp ****         virtual void RunImpl() const
 2733              		.loc 5 103 22
 2734              		.cfi_startproc
 2735              		.cfi_personality 0x9b,DW.ref.__gxx_personality_v0
 2736              		.cfi_lsda 0x1b,.LLSDA1466
 2737 111e F30F1EFA 		endbr64
 2738 1122 55       		pushq	%rbp
 2739              		.cfi_def_cfa_offset 16
 2740              		.cfi_offset 6, -16
 2741 1123 4889E5   		movq	%rsp, %rbp
 2742              		.cfi_def_cfa_register 6
 2743 1126 53       		pushq	%rbx
 2744 1127 4883EC58 		subq	$88, %rsp
 2745              		.cfi_offset 3, -24
 2746 112b 48897DA8 		movq	%rdi, -88(%rbp)
 2747              		.loc 5 103 22
 2748 112f 64488B04 		movq	%fs:40, %rax
 2748      25280000 
 2748      00
 2749 1138 488945E8 		movq	%rax, -24(%rbp)
 2750 113c 31C0     		xorl	%eax, %eax
 2751              	.LBB29:
 104:TestUnitTest++.cpp ****         {
 105:TestUnitTest++.cpp ****             CHECK_THROW(throw "oops", int);
 2752              		.loc 5 105 13
 2753 113e C645B700 		movb	$0, -73(%rbp)
 2754 1142 BF080000 		movl	$8, %edi
 2754      00
 2755 1147 E8000000 		call	__cxa_allocate_exception@PLT
 2755      00
 2756 114c 488D1500 		leaq	.LC43(%rip), %rdx
 2756      000000
 2757 1153 488910   		movq	%rdx, (%rax)
 2758 1156 BA000000 		movl	$0, %edx
 2758      00
 2759 115b 488D0D00 		leaq	_ZTIPKc(%rip), %rcx
 2759      000000
 2760 1162 4889CE   		movq	%rcx, %rsi
 2761 1165 4889C7   		movq	%rax, %rdi
 2762              	.LEHB56:
 2763 1168 E8000000 		call	__cxa_throw@PLT
 2763      00
 2764              	.LEHE56:
 2765              	.L132:
 2766              		.loc 5 105 13 is_stmt 0 discriminator 8
 2767 116d 0FB645B7 		movzbl	-73(%rbp), %eax
 2768 1171 83F001   		xorl	$1, %eax
 2769 1174 84C0     		testb	%al, %al
 2770 1176 746C     		je	.L135
 2771              	.LEHB57:
 2772              		.loc 5 105 13 discriminator 2
 2773 1178 E8000000 		call	_ZN8UnitTest11CurrentTest7ResultsEv@PLT
 2773      00
 2774 117d 488B18   		movq	(%rax), %rbx
 2775 1180 E8000000 		call	_ZN8UnitTest11CurrentTest7DetailsEv@PLT
 2775      00
 2776 1185 488B08   		movq	(%rax), %rcx
 2777 1188 488D45C0 		leaq	-64(%rbp), %rax
 2778 118c BA690000 		movl	$105, %edx
 2778      00
 2779 1191 4889CE   		movq	%rcx, %rsi
 2780 1194 4889C7   		movq	%rax, %rdi
 2781 1197 E8000000 		call	_ZN8UnitTest11TestDetailsC1ERKS0_i@PLT
 2781      00
 2782 119c 488D45C0 		leaq	-64(%rbp), %rax
 2783 11a0 488D1500 		leaq	.LC39(%rip), %rdx
 2783      000000
 2784 11a7 4889C6   		movq	%rax, %rsi
 2785 11aa 4889DF   		movq	%rbx, %rdi
 2786 11ad E8000000 		call	_ZN8UnitTest11TestResults13OnTestFailureERKNS_11TestDetailsEPKc@PLT
 2786      00
 2787              	.LBE29:
 106:TestUnitTest++.cpp ****         }
 2788              		.loc 5 106 9 is_stmt 1 discriminator 2
 2789 11b2 EB30     		jmp	.L135
 2790              	.L134:
 2791 11b4 F30F1EFA 		endbr64
 105:TestUnitTest++.cpp ****         }
 2792              		.loc 5 105 13
 2793 11b8 4883FA01 		cmpq	$1, %rdx
 2794 11bc 7517     		jne	.L131
 2795              	.LBB31:
 2796              	.LBB30:
 105:TestUnitTest++.cpp ****         }
 2797              		.loc 5 105 13 is_stmt 0 discriminator 5
 2798 11be 4889C7   		movq	%rax, %rdi
 2799 11c1 E8000000 		call	__cxa_begin_catch@PLT
 2799      00
 2800 11c6 488945B8 		movq	%rax, -72(%rbp)
 2801 11ca C645B701 		movb	$1, -73(%rbp)
 2802 11ce E8000000 		call	__cxa_end_catch@PLT
 2802      00
 2803 11d3 EB98     		jmp	.L132
 2804              	.L131:
 2805              	.LBE30:
 105:TestUnitTest++.cpp ****         }
 2806              		.loc 5 105 13 discriminator 6
 2807 11d5 4889C7   		movq	%rax, %rdi
 2808 11d8 E8000000 		call	__cxa_begin_catch@PLT
 2808      00
 2809 11dd E8000000 		call	__cxa_end_catch@PLT
 2809      00
 2810              	.LEHE57:
 2811 11e2 EB89     		jmp	.L132
 2812              	.L135:
 2813              	.LBE31:
 2814              		.loc 5 106 9 is_stmt 1
 2815 11e4 90       		nop
 2816 11e5 488B45E8 		movq	-24(%rbp), %rax
 2817 11e9 64482B04 		subq	%fs:40, %rax
 2817      25280000 
 2817      00
 2818 11f2 7405     		je	.L133
 2819 11f4 E8000000 		call	__stack_chk_fail@PLT
 2819      00
 2820              	.L133:
 2821 11f9 488B5DF8 		movq	-8(%rbp), %rbx
 2822 11fd C9       		leave
 2823              		.cfi_def_cfa 7, 8
 2824 11fe C3       		ret
 2825              		.cfi_endproc
 2826              	.LFE1466:
 2827              		.section	.gcc_except_table
 2828              		.align 4
 2829              	.LLSDA1466:
 2830 0190 FF       		.byte	0xff
 2831 0191 9B       		.byte	0x9b
 2832 0192 19       		.uleb128 .LLSDATT1466-.LLSDATTD1466
 2833              	.LLSDATTD1466:
 2834 0193 01       		.byte	0x1
 2835 0194 09       		.uleb128 .LLSDACSE1466-.LLSDACSB1466
 2836              	.LLSDACSB1466:
 2837 0195 4A       		.uleb128 .LEHB56-.LFB1466
 2838 0196 05       		.uleb128 .LEHE56-.LEHB56
 2839 0197 9601     		.uleb128 .L134-.LFB1466
 2840 0199 03       		.uleb128 0x3
 2841 019a 5A       		.uleb128 .LEHB57-.LFB1466
 2842 019b 6A       		.uleb128 .LEHE57-.LEHB57
 2843 019c 00       		.uleb128 0
 2844 019d 00       		.uleb128 0
 2845              	.LLSDACSE1466:
 2846 019e 02       		.byte	0x2
 2847 019f 00       		.byte	0
 2848 01a0 01       		.byte	0x1
 2849 01a1 7D       		.byte	0x7d
 2850 01a2 0000     		.align 4
 2851 01a4 00000000 		.long	0
 2852              	
 2853 01a8 00000000 		.long	DW.ref._ZTIi-.
 2854              	.LLSDATT1466:
 2855              		.text
 2857 11ff 90       		.align 2
 2859              	_ZNK12_GLOBAL__N_140TestCheckThrowMacroFailsOnWrongException7RunImplEv:
 2860              	.LFB1462:
  98:TestUnitTest++.cpp ****     class WrongThrowTest : public UnitTest::Test
 2861              		.loc 5 98 1
 2862              		.cfi_startproc
 2863              		.cfi_personality 0x9b,DW.ref.__gxx_personality_v0
 2864              		.cfi_lsda 0x1b,.LLSDA1462
 2865 1200 F30F1EFA 		endbr64
 2866 1204 55       		pushq	%rbp
 2867              		.cfi_def_cfa_offset 16
 2868              		.cfi_offset 6, -16
 2869 1205 4889E5   		movq	%rsp, %rbp
 2870              		.cfi_def_cfa_register 6
 2871 1208 53       		pushq	%rbx
 2872 1209 4881EC98 		subq	$152, %rsp
 2872      000000
 2873              		.cfi_offset 3, -24
 2874 1210 4889BD68 		movq	%rdi, -152(%rbp)
 2874      FFFFFF
  98:TestUnitTest++.cpp ****     class WrongThrowTest : public UnitTest::Test
 2875              		.loc 5 98 1
 2876 1217 64488B04 		movq	%fs:40, %rax
 2876      25280000 
 2876      00
 2877 1220 488945E8 		movq	%rax, -24(%rbp)
 2878 1224 31C0     		xorl	%eax, %eax
 107:TestUnitTest++.cpp ****     };
 108:TestUnitTest++.cpp **** 
 109:TestUnitTest++.cpp ****     UnitTest::TestResults results;
 2879              		.loc 5 109 27
 2880 1226 488D4590 		leaq	-112(%rbp), %rax
 2881 122a BE000000 		movl	$0, %esi
 2881      00
 2882 122f 4889C7   		movq	%rax, %rdi
 2883              	.LEHB58:
 2884 1232 E8000000 		call	_ZN8UnitTest11TestResultsC1EPNS_12TestReporterE@PLT
 2884      00
 2885              	.LBB32:
 110:TestUnitTest++.cpp **** 	{
 111:TestUnitTest++.cpp **** 		ScopedCurrentTest scopedResults(results);
 2886              		.loc 5 111 42
 2887 1237 488D4D90 		leaq	-112(%rbp), %rcx
 2888 123b 488D4580 		leaq	-128(%rbp), %rax
 2889 123f BA000000 		movl	$0, %edx
 2889      00
 2890 1244 4889CE   		movq	%rcx, %rsi
 2891 1247 4889C7   		movq	%rax, %rdi
 2892 124a E8000000 		call	_ZN17ScopedCurrentTestC1ERN8UnitTest11TestResultsEPKNS0_11TestDetailsE
 2892      00
 2893              	.LEHE58:
 112:TestUnitTest++.cpp **** 
 113:TestUnitTest++.cpp **** 		WrongThrowTest test;
 2894              		.loc 5 113 18
 2895 124f 488D45B0 		leaq	-80(%rbp), %rax
 2896 1253 4889C7   		movq	%rax, %rdi
 2897              	.LEHB59:
 2898 1256 E87BFEFF 		call	_ZZNK12_GLOBAL__N_140TestCheckThrowMacroFailsOnWrongException7RunImplEvEN14WrongThrowTestC1Ev
 2898      FF
 2899              	.LEHE59:
 114:TestUnitTest++.cpp **** 		test.Run();
 2900              		.loc 5 114 11
 2901 125b 488D45B0 		leaq	-80(%rbp), %rax
 2902 125f 4889C7   		movq	%rax, %rdi
 2903              	.LEHB60:
 2904 1262 E8000000 		call	_ZN8UnitTest4Test3RunEv@PLT
 2904      00
 2905              	.LEHE60:
 115:TestUnitTest++.cpp **** 	}
 2906              		.loc 5 115 2
 2907 1267 488D45B0 		leaq	-80(%rbp), %rax
 2908 126b 4889C7   		movq	%rax, %rdi
 2909              	.LEHB61:
 2910 126e E8DB1300 		call	_ZZNK12_GLOBAL__N_140TestCheckThrowMacroFailsOnWrongException7RunImplEvEN14WrongThrowTestD1Ev
 2910      00
 2911              	.LEHE61:
 2912              		.loc 5 115 2 is_stmt 0 discriminator 2
 2913 1273 488D4580 		leaq	-128(%rbp), %rax
 2914 1277 4889C7   		movq	%rax, %rdi
 2915              	.LEHB62:
 2916 127a E8000000 		call	_ZN17ScopedCurrentTestD1Ev
 2916      00
 2917              	.LEHE62:
 2918              	.LEHB63:
 2919              	.LBE32:
 116:TestUnitTest++.cpp **** 
 117:TestUnitTest++.cpp **** 	CHECK_EQUAL(1, results.GetFailureCount());
 2920              		.loc 5 117 2 is_stmt 1 discriminator 2
 2921 127f E8000000 		call	_ZN8UnitTest11CurrentTest7DetailsEv@PLT
 2921      00
 2922 1284 488B08   		movq	(%rax), %rcx
 2923 1287 488D45B0 		leaq	-80(%rbp), %rax
 2924 128b BA750000 		movl	$117, %edx
 2924      00
 2925 1290 4889CE   		movq	%rcx, %rsi
 2926 1293 4889C7   		movq	%rax, %rdi
 2927 1296 E8000000 		call	_ZN8UnitTest11TestDetailsC1ERKS0_i@PLT
 2927      00
 2928              		.loc 5 117 2 is_stmt 0 discriminator 4
 2929 129b 488D4590 		leaq	-112(%rbp), %rax
 2930 129f 4889C7   		movq	%rax, %rdi
 2931 12a2 E8000000 		call	_ZNK8UnitTest11TestResults15GetFailureCountEv@PLT
 2931      00
 2932 12a7 894580   		movl	%eax, -128(%rbp)
 2933 12aa C7857CFF 		movl	$1, -132(%rbp)
 2933      FFFF0100 
 2933      0000
 2934 12b4 E8000000 		call	_ZN8UnitTest11CurrentTest7ResultsEv@PLT
 2934      00
 2935              		.loc 5 117 2 discriminator 6
 2936 12b9 488B00   		movq	(%rax), %rax
 2937 12bc 488D4DB0 		leaq	-80(%rbp), %rcx
 2938 12c0 488D5580 		leaq	-128(%rbp), %rdx
 2939 12c4 488DB57C 		leaq	-132(%rbp), %rsi
 2939      FFFFFF
 2940 12cb 4889C7   		movq	%rax, %rdi
 2941 12ce E8000000 		call	_ZN8UnitTest10CheckEqualIiiEEvRNS_11TestResultsERKT_RKT0_RKNS_11TestDetailsE
 2941      00
 2942              	.LEHE63:
 118:TestUnitTest++.cpp **** }
 2943              		.loc 5 118 1 is_stmt 1
 2944 12d3 E9970000 		jmp	.L136
 2944      00
 2945              	.L144:
 2946 12d8 F30F1EFA 		endbr64
 2947              	.LBB33:
 115:TestUnitTest++.cpp **** 	}
 2948              		.loc 5 115 2
 2949 12dc 4889C3   		movq	%rax, %rbx
 2950 12df 488D45B0 		leaq	-80(%rbp), %rax
 2951 12e3 4889C7   		movq	%rax, %rdi
 2952 12e6 E8631300 		call	_ZZNK12_GLOBAL__N_140TestCheckThrowMacroFailsOnWrongException7RunImplEvEN14WrongThrowTestD1Ev
 2952      00
 2953 12eb EB07     		jmp	.L138
 2954              	.L143:
 2955 12ed F30F1EFA 		endbr64
 2956 12f1 4889C3   		movq	%rax, %rbx
 2957              	.L138:
 115:TestUnitTest++.cpp **** 	}
 2958              		.loc 5 115 2 is_stmt 0 discriminator 1
 2959 12f4 488D4580 		leaq	-128(%rbp), %rax
 2960 12f8 4889C7   		movq	%rax, %rdi
 2961 12fb E8000000 		call	_ZN17ScopedCurrentTestD1Ev
 2961      00
 2962 1300 4889D8   		movq	%rbx, %rax
 2963 1303 4889C7   		movq	%rax, %rdi
 2964              	.LEHB64:
 2965 1306 E8000000 		call	_Unwind_Resume@PLT
 2965      00
 2966              	.LEHE64:
 2967              	.L145:
 2968 130b F30F1EFA 		endbr64
 2969              	.LBE33:
 117:TestUnitTest++.cpp **** }
 2970              		.loc 5 117 2 is_stmt 1
 2971 130f 4889C7   		movq	%rax, %rdi
 2972 1312 E8000000 		call	__cxa_begin_catch@PLT
 2972      00
 2973              	.LEHB65:
 2974 1317 E8000000 		call	_ZN8UnitTest11CurrentTest7ResultsEv@PLT
 2974      00
 117:TestUnitTest++.cpp **** }
 2975              		.loc 5 117 2 is_stmt 0 discriminator 3
 2976 131c 488B18   		movq	(%rax), %rbx
 2977 131f E8000000 		call	_ZN8UnitTest11CurrentTest7DetailsEv@PLT
 2977      00
 117:TestUnitTest++.cpp **** }
 2978              		.loc 5 117 2 discriminator 13
 2979 1324 488B08   		movq	(%rax), %rcx
 2980 1327 488D45B0 		leaq	-80(%rbp), %rax
 2981 132b BA750000 		movl	$117, %edx
 2981      00
 2982 1330 4889CE   		movq	%rcx, %rsi
 2983 1333 4889C7   		movq	%rax, %rdi
 2984 1336 E8000000 		call	_ZN8UnitTest11TestDetailsC1ERKS0_i@PLT
 2984      00
 117:TestUnitTest++.cpp **** }
 2985              		.loc 5 117 2 discriminator 17
 2986 133b 488D45B0 		leaq	-80(%rbp), %rax
 2987 133f 488D1500 		leaq	.LC40(%rip), %rdx
 2987      000000
 2988 1346 4889C6   		movq	%rax, %rsi
 2989 1349 4889DF   		movq	%rbx, %rdi
 2990 134c E8000000 		call	_ZN8UnitTest11TestResults13OnTestFailureERKNS_11TestDetailsEPKc@PLT
 2990      00
 2991              	.LEHE65:
 2992              	.LEHB66:
 117:TestUnitTest++.cpp **** }
 2993              		.loc 5 117 2 discriminator 19
 2994 1351 E8000000 		call	__cxa_end_catch@PLT
 2994      00
 2995              	.LEHE66:
 2996              		.loc 5 118 1 is_stmt 1 discriminator 19
 2997 1356 EB17     		jmp	.L136
 2998              	.L146:
 2999 1358 F30F1EFA 		endbr64
 117:TestUnitTest++.cpp **** }
 3000              		.loc 5 117 2
 3001 135c 4889C3   		movq	%rax, %rbx
 3002 135f E8000000 		call	__cxa_end_catch@PLT
 3002      00
 3003 1364 4889D8   		movq	%rbx, %rax
 3004 1367 4889C7   		movq	%rax, %rdi
 3005              	.LEHB67:
 3006 136a E8000000 		call	_Unwind_Resume@PLT
 3006      00
 3007              	.LEHE67:
 3008              	.L136:
 3009              		.loc 5 118 1
 3010 136f 488B45E8 		movq	-24(%rbp), %rax
 3011 1373 64482B04 		subq	%fs:40, %rax
 3011      25280000 
 3011      00
 3012 137c 7405     		je	.L142
 3013 137e E8000000 		call	__stack_chk_fail@PLT
 3013      00
 3014              	.L142:
 3015 1383 488B5DF8 		movq	-8(%rbp), %rbx
 3016 1387 C9       		leave
 3017              		.cfi_def_cfa 7, 8
 3018 1388 C3       		ret
 3019              		.cfi_endproc
 3020              	.LFE1462:
 3021              		.section	.gcc_except_table
 3022              		.align 4
 3023              	.LLSDA1462:
 3024 01ac FF       		.byte	0xff
 3025 01ad 9B       		.byte	0x9b
 3026 01ae 39       		.uleb128 .LLSDATT1462-.LLSDATTD1462
 3027              	.LLSDATTD1462:
 3028 01af 01       		.byte	0x1
 3029 01b0 31       		.uleb128 .LLSDACSE1462-.LLSDACSB1462
 3030              	.LLSDACSB1462:
 3031 01b1 32       		.uleb128 .LEHB58-.LFB1462
 3032 01b2 1D       		.uleb128 .LEHE58-.LEHB58
 3033 01b3 00       		.uleb128 0
 3034 01b4 00       		.uleb128 0
 3035 01b5 56       		.uleb128 .LEHB59-.LFB1462
 3036 01b6 05       		.uleb128 .LEHE59-.LEHB59
 3037 01b7 ED01     		.uleb128 .L143-.LFB1462
 3038 01b9 00       		.uleb128 0
 3039 01ba 62       		.uleb128 .LEHB60-.LFB1462
 3040 01bb 05       		.uleb128 .LEHE60-.LEHB60
 3041 01bc D801     		.uleb128 .L144-.LFB1462
 3042 01be 00       		.uleb128 0
 3043 01bf 6E       		.uleb128 .LEHB61-.LFB1462
 3044 01c0 05       		.uleb128 .LEHE61-.LEHB61
 3045 01c1 ED01     		.uleb128 .L143-.LFB1462
 3046 01c3 00       		.uleb128 0
 3047 01c4 7A       		.uleb128 .LEHB62-.LFB1462
 3048 01c5 05       		.uleb128 .LEHE62-.LEHB62
 3049 01c6 00       		.uleb128 0
 3050 01c7 00       		.uleb128 0
 3051 01c8 7F       		.uleb128 .LEHB63-.LFB1462
 3052 01c9 54       		.uleb128 .LEHE63-.LEHB63
 3053 01ca 8B02     		.uleb128 .L145-.LFB1462
 3054 01cc 01       		.uleb128 0x1
 3055 01cd 8602     		.uleb128 .LEHB64-.LFB1462
 3056 01cf 05       		.uleb128 .LEHE64-.LEHB64
 3057 01d0 00       		.uleb128 0
 3058 01d1 00       		.uleb128 0
 3059 01d2 9702     		.uleb128 .LEHB65-.LFB1462
 3060 01d4 3A       		.uleb128 .LEHE65-.LEHB65
 3061 01d5 D802     		.uleb128 .L146-.LFB1462
 3062 01d7 00       		.uleb128 0
 3063 01d8 D102     		.uleb128 .LEHB66-.LFB1462
 3064 01da 05       		.uleb128 .LEHE66-.LEHB66
 3065 01db 00       		.uleb128 0
 3066 01dc 00       		.uleb128 0
 3067 01dd EA02     		.uleb128 .LEHB67-.LFB1462
 3068 01df 05       		.uleb128 .LEHE67-.LEHB67
 3069 01e0 00       		.uleb128 0
 3070 01e1 00       		.uleb128 0
 3071              	.LLSDACSE1462:
 3072 01e2 01       		.byte	0x1
 3073 01e3 00       		.byte	0
 3074              		.align 4
 3075 01e4 00000000 		.long	0
 3076              	
 3077              	.LLSDATT1462:
 3078              		.text
 3080 1389 90       		.align 2
 3082              	_ZN12_GLOBAL__N_113SimpleFixtureC2Ev:
 3083              	.LFB1468:
 119:TestUnitTest++.cpp **** 
 120:TestUnitTest++.cpp **** struct SimpleFixture
 121:TestUnitTest++.cpp **** {
 122:TestUnitTest++.cpp ****     SimpleFixture()
 3084              		.loc 5 122 5
 3085              		.cfi_startproc
 3086 138a 55       		pushq	%rbp
 3087              		.cfi_def_cfa_offset 16
 3088              		.cfi_offset 6, -16
 3089 138b 4889E5   		movq	%rsp, %rbp
 3090              		.cfi_def_cfa_register 6
 3091 138e 48897DF8 		movq	%rdi, -8(%rbp)
 3092              	.LBB34:
 123:TestUnitTest++.cpp ****     {
 124:TestUnitTest++.cpp ****         ++instanceCount;
 3093              		.loc 5 124 9
 3094 1392 8B050000 		movl	_ZN12_GLOBAL__N_113SimpleFixture13instanceCountE(%rip), %eax
 3094      0000
 3095 1398 83C001   		addl	$1, %eax
 3096 139b 89050000 		movl	%eax, _ZN12_GLOBAL__N_113SimpleFixture13instanceCountE(%rip)
 3096      0000
 3097              	.LBE34:
 125:TestUnitTest++.cpp ****     }
 3098              		.loc 5 125 5
 3099 13a1 90       		nop
 3100 13a2 5D       		popq	%rbp
 3101              		.cfi_def_cfa 7, 8
 3102 13a3 C3       		ret
 3103              		.cfi_endproc
 3104              	.LFE1468:
 3106              		.align 2
 3108              	_ZN12_GLOBAL__N_113SimpleFixtureD2Ev:
 3109              	.LFB1471:
 126:TestUnitTest++.cpp ****     ~SimpleFixture()
 3110              		.loc 5 126 5
 3111              		.cfi_startproc
 3112 13a4 55       		pushq	%rbp
 3113              		.cfi_def_cfa_offset 16
 3114              		.cfi_offset 6, -16
 3115 13a5 4889E5   		movq	%rsp, %rbp
 3116              		.cfi_def_cfa_register 6
 3117 13a8 48897DF8 		movq	%rdi, -8(%rbp)
 3118              	.LBB35:
 127:TestUnitTest++.cpp ****     {
 128:TestUnitTest++.cpp ****         --instanceCount;
 3119              		.loc 5 128 9
 3120 13ac 8B050000 		movl	_ZN12_GLOBAL__N_113SimpleFixture13instanceCountE(%rip), %eax
 3120      0000
 3121 13b2 83E801   		subl	$1, %eax
 3122 13b5 89050000 		movl	%eax, _ZN12_GLOBAL__N_113SimpleFixture13instanceCountE(%rip)
 3122      0000
 3123              	.LBE35:
 129:TestUnitTest++.cpp ****     }
 3124              		.loc 5 129 5
 3125 13bb 90       		nop
 3126 13bc 5D       		popq	%rbp
 3127              		.cfi_def_cfa 7, 8
 3128 13bd C3       		ret
 3129              		.cfi_endproc
 3130              	.LFE1471:
 3132              		.local	_ZN12_GLOBAL__N_113SimpleFixture13instanceCountE
 3133              		.comm	_ZN12_GLOBAL__N_113SimpleFixture13instanceCountE,4,4
 3134              		.align 2
 3136              	_ZN12_GLOBAL__N_145SimpleFixtureDefaultFixtureCtorIsCalledHelperC2ERKN8UnitTest11TestDetailsE:
 3137              	.LFB1474:
 130:TestUnitTest++.cpp **** 
 131:TestUnitTest++.cpp ****     static int instanceCount;
 132:TestUnitTest++.cpp **** };
 133:TestUnitTest++.cpp **** 
 134:TestUnitTest++.cpp **** int SimpleFixture::instanceCount = 0;
 135:TestUnitTest++.cpp **** 
 136:TestUnitTest++.cpp **** TEST_FIXTURE(SimpleFixture, DefaultFixtureCtorIsCalled)
 3138              		.loc 5 136 1
 3139              		.cfi_startproc
 3140 13be 55       		pushq	%rbp
 3141              		.cfi_def_cfa_offset 16
 3142              		.cfi_offset 6, -16
 3143 13bf 4889E5   		movq	%rsp, %rbp
 3144              		.cfi_def_cfa_register 6
 3145 13c2 4883EC10 		subq	$16, %rsp
 3146 13c6 48897DF8 		movq	%rdi, -8(%rbp)
 3147 13ca 488975F0 		movq	%rsi, -16(%rbp)
 3148              	.LBB36:
 3149              		.loc 5 136 1
 3150 13ce 488B45F8 		movq	-8(%rbp), %rax
 3151 13d2 4889C7   		movq	%rax, %rdi
 3152 13d5 E8B0FFFF 		call	_ZN12_GLOBAL__N_113SimpleFixtureC2Ev
 3152      FF
 3153 13da 488B45F8 		movq	-8(%rbp), %rax
 3154 13de 488B55F0 		movq	-16(%rbp), %rdx
 3155 13e2 488910   		movq	%rdx, (%rax)
 3156              	.LBE36:
 3157 13e5 90       		nop
 3158 13e6 C9       		leave
 3159              		.cfi_def_cfa 7, 8
 3160 13e7 C3       		ret
 3161              		.cfi_endproc
 3162              	.LFE1474:
 3164              		.set	_ZN12_GLOBAL__N_145SimpleFixtureDefaultFixtureCtorIsCalledHelperC1ERKN8UnitTest11TestDetailsE
 3165              		.section	.rodata
 3166              	.LC44:
 3167 0405 44656661 		.string	"DefaultFixtureCtorIsCalled"
 3167      756C7446 
 3167      69787475 
 3167      72654374 
 3167      6F724973 
 3168              		.text
 3169              		.align 2
 3171              	_ZN12_GLOBAL__N_143TestSimpleFixtureDefaultFixtureCtorIsCalledC2Ev:
 3172              	.LFB1477:
 3173              		.loc 5 136 1
 3174              		.cfi_startproc
 3175 13e8 55       		pushq	%rbp
 3176              		.cfi_def_cfa_offset 16
 3177              		.cfi_offset 6, -16
 3178 13e9 4889E5   		movq	%rsp, %rbp
 3179              		.cfi_def_cfa_register 6
 3180 13ec 53       		pushq	%rbx
 3181 13ed 4883EC18 		subq	$24, %rsp
 3182              		.cfi_offset 3, -24
 3183 13f1 48897DE8 		movq	%rdi, -24(%rbp)
 3184              	.LBB37:
 3185              		.loc 5 136 1
 3186 13f5 488B5DE8 		movq	-24(%rbp), %rbx
 3187 13f9 E8000000 		call	_ZN13UnitTestSuite12GetSuiteNameEv
 3187      00
 3188 13fe 4889C2   		movq	%rax, %rdx
 3189 1401 41B88800 		movl	$136, %r8d
 3189      0000
 3190 1407 488D0500 		leaq	.LC1(%rip), %rax
 3190      000000
 3191 140e 4889C1   		movq	%rax, %rcx
 3192 1411 488D0500 		leaq	.LC44(%rip), %rax
 3192      000000
 3193 1418 4889C6   		movq	%rax, %rsi
 3194 141b 4889DF   		movq	%rbx, %rdi
 3195 141e E8000000 		call	_ZN8UnitTest4TestC2EPKcS2_S2_i@PLT
 3195      00
 3196 1423 488D1500 		leaq	16+_ZTVN12_GLOBAL__N_143TestSimpleFixtureDefaultFixtureCtorIsCalledE(%rip), %rdx
 3196      000000
 3197 142a 488B45E8 		movq	-24(%rbp), %rax
 3198 142e 488910   		movq	%rdx, (%rax)
 3199              	.LBE37:
 3200 1431 90       		nop
 3201 1432 488B5DF8 		movq	-8(%rbp), %rbx
 3202 1436 C9       		leave
 3203              		.cfi_def_cfa 7, 8
 3204 1437 C3       		ret
 3205              		.cfi_endproc
 3206              	.LFE1477:
 3208              		.set	_ZN12_GLOBAL__N_143TestSimpleFixtureDefaultFixtureCtorIsCalledC1Ev,_ZN12_GLOBAL__N_143TestSim
 3209              		.local	_ZN12_GLOBAL__N_151testSimpleFixtureDefaultFixtureCtorIsCalledInstanceE
 3210              		.comm	_ZN12_GLOBAL__N_151testSimpleFixtureDefaultFixtureCtorIsCalledInstanceE,56,32
 3211              		.local	_ZN12_GLOBAL__N_144adderSimpleFixtureDefaultFixtureCtorIsCalledE
 3212              		.comm	_ZN12_GLOBAL__N_144adderSimpleFixtureDefaultFixtureCtorIsCalledE,1,1
 3213              		.align 2
 3215              	_ZN12_GLOBAL__N_145SimpleFixtureDefaultFixtureCtorIsCalledHelperD2Ev:
 3216              	.LFB1481:
 3217              		.loc 5 136 1
 3218              		.cfi_startproc
 3219 1438 55       		pushq	%rbp
 3220              		.cfi_def_cfa_offset 16
 3221              		.cfi_offset 6, -16
 3222 1439 4889E5   		movq	%rsp, %rbp
 3223              		.cfi_def_cfa_register 6
 3224 143c 4883EC08 		subq	$8, %rsp
 3225 1440 48897DF8 		movq	%rdi, -8(%rbp)
 3226              	.LBB38:
 3227              		.loc 5 136 1
 3228 1444 488B45F8 		movq	-8(%rbp), %rax
 3229 1448 4889C7   		movq	%rax, %rdi
 3230 144b E854FFFF 		call	_ZN12_GLOBAL__N_113SimpleFixtureD2Ev
 3230      FF
 3231              	.LBE38:
 3232 1450 90       		nop
 3233 1451 C9       		leave
 3234              		.cfi_def_cfa 7, 8
 3235 1452 C3       		ret
 3236              		.cfi_endproc
 3237              	.LFE1481:
 3239              		.set	_ZN12_GLOBAL__N_145SimpleFixtureDefaultFixtureCtorIsCalledHelperD1Ev,_ZN12_GLOBAL__N_145Simpl
 3240              		.section	.rodata
 3241              	.LC45:
 3242 0420 556E6861 		.string	"Unhandled exception: "
 3242      6E646C65 
 3242      64206578 
 3242      63657074 
 3242      696F6E3A 
 3243 0436 0000     		.align 8
 3244              	.LC46:
 3245 0438 556E6861 		.string	"Unhandled exception while destroying fixture SimpleFixture"
 3245      6E646C65 
 3245      64206578 
 3245      63657074 
 3245      696F6E20 
 3246 0473 00000000 		.align 8
 3246      00
 3247              	.LC47:
 3248 0478 556E6861 		.string	"Unhandled exception while constructing fixture SimpleFixture"
 3248      6E646C65 
 3248      64206578 
 3248      63657074 
 3248      696F6E20 
 3249              		.text
 3250 1453 90       		.align 2
 3252              	_ZNK12_GLOBAL__N_143TestSimpleFixtureDefaultFixtureCtorIsCalled7RunImplEv:
 3253              	.LFB1479:
 3254              		.loc 5 136 1
 3255              		.cfi_startproc
 3256              		.cfi_personality 0x9b,DW.ref.__gxx_personality_v0
 3257              		.cfi_lsda 0x1b,.LLSDA1479
 3258 1454 F30F1EFA 		endbr64
 3259 1458 55       		pushq	%rbp
 3260              		.cfi_def_cfa_offset 16
 3261              		.cfi_offset 6, -16
 3262 1459 4889E5   		movq	%rsp, %rbp
 3263              		.cfi_def_cfa_register 6
 3264 145c 4155     		pushq	%r13
 3265 145e 4154     		pushq	%r12
 3266 1460 53       		pushq	%rbx
 3267 1461 4881ECF8 		subq	$504, %rsp
 3267      010000
 3268              		.cfi_offset 13, -24
 3269              		.cfi_offset 12, -32
 3270              		.cfi_offset 3, -40
 3271 1468 4889BDF8 		movq	%rdi, -520(%rbp)
 3271      FDFFFF
 3272              		.loc 5 136 1
 3273 146f 64488B04 		movq	%fs:40, %rax
 3273      25280000 
 3273      00
 3274 1478 488945D8 		movq	%rax, -40(%rbp)
 3275 147c 31C0     		xorl	%eax, %eax
 3276 147e C6850FFE 		movb	$0, -497(%rbp)
 3276      FFFF00
 3277              	.LBB39:
 3278 1485 488B85F8 		movq	-520(%rbp), %rax
 3278      FDFFFF
 3279 148c 488D5008 		leaq	8(%rax), %rdx
 3280 1490 488D8520 		leaq	-480(%rbp), %rax
 3280      FEFFFF
 3281 1497 4889D6   		movq	%rdx, %rsi
 3282 149a 4889C7   		movq	%rax, %rdi
 3283 149d E81CFFFF 		call	_ZN12_GLOBAL__N_145SimpleFixtureDefaultFixtureCtorIsCalledHelperC1ERKN8UnitTest11TestDetailsE
 3283      FF
 3284 14a2 C6850FFE 		movb	$1, -497(%rbp)
 3284      FFFF01
 3285 14a9 488B85F8 		movq	-520(%rbp), %rax
 3285      FDFFFF
 3286 14b0 488D5008 		leaq	8(%rax), %rdx
 3287 14b4 488D8520 		leaq	-480(%rbp), %rax
 3287      FEFFFF
 3288 14bb 4889D6   		movq	%rdx, %rsi
 3289 14be 4889C7   		movq	%rax, %rdi
 3290              	.LEHB68:
 3291 14c1 E8B10900 		call	_ZN8UnitTest11ExecuteTestIN12_GLOBAL__N_145SimpleFixtureDefaultFixtureCtorIsCalledHelperEEEvR
 3291      00
 3292              	.LEHE68:
 3293              		.loc 5 136 1 is_stmt 0 discriminator 2
 3294 14c6 488D8520 		leaq	-480(%rbp), %rax
 3294      FEFFFF
 3295 14cd 4889C7   		movq	%rax, %rdi
 3296 14d0 E863FFFF 		call	_ZN12_GLOBAL__N_145SimpleFixtureDefaultFixtureCtorIsCalledHelperD1Ev
 3296      FF
 3297              	.LBE39:
 3298 14d5 E97E0200 		jmp	.L152
 3298      00
 3299              	.L165:
 3300 14da F30F1EFA 		endbr64
 3301              	.LBB40:
 3302              		.loc 5 136 1
 3303 14de 4989C4   		movq	%rax, %r12
 3304 14e1 4889D3   		movq	%rdx, %rbx
 3305 14e4 488D8520 		leaq	-480(%rbp), %rax
 3305      FEFFFF
 3306 14eb 4889C7   		movq	%rax, %rdi
 3307 14ee E845FFFF 		call	_ZN12_GLOBAL__N_145SimpleFixtureDefaultFixtureCtorIsCalledHelperD1Ev
 3307      FF
 3308 14f3 4C89E0   		movq	%r12, %rax
 3309 14f6 4889DA   		movq	%rbx, %rdx
 3310              	.LBE40:
 3311 14f9 4883FA01 		cmpq	$1, %rdx
 3312 14fd 740F     		je	.L154
 3313 14ff 4883FA02 		cmpq	$2, %rdx
 3314 1503 0F84A700 		je	.L155
 3314      0000
 3315 1509 E94D0100 		jmp	.L170
 3315      00
 3316              	.L154:
 3317              	.LBB41:
 3318              		.loc 5 136 1 discriminator 3
 3319 150e 4889C7   		movq	%rax, %rdi
 3320 1511 E8000000 		call	__cxa_begin_catch@PLT
 3320      00
 3321 1516 48898518 		movq	%rax, -488(%rbp)
 3321      FEFFFF
 3322              	.LEHB69:
 3323 151d E8000000 		call	_ZN8UnitTest11CurrentTest7ResultsEv@PLT
 3323      00
 3324 1522 488B18   		movq	(%rax), %rbx
 3325 1525 488B8518 		movq	-488(%rbp), %rax
 3325      FEFFFF
 3326 152c 488B00   		movq	(%rax), %rax
 3327 152f 4883C010 		addq	$16, %rax
 3328 1533 488B10   		movq	(%rax), %rdx
 3329 1536 488B8518 		movq	-488(%rbp), %rax
 3329      FEFFFF
 3330 153d 4889C7   		movq	%rax, %rdi
 3331 1540 FFD2     		call	*%rdx
 3332              	.LVL0:
 3333 1542 4989C4   		movq	%rax, %r12
 3334 1545 488B8518 		movq	-488(%rbp), %rax
 3334      FEFFFF
 3335 154c 4889C7   		movq	%rax, %rdi
 3336 154f E8000000 		call	_ZNK8UnitTest15AssertException10LineNumberEv@PLT
 3336      00
 3337              		.loc 5 136 1 discriminator 7
 3338 1554 4189C5   		movl	%eax, %r13d
 3339 1557 488B8518 		movq	-488(%rbp), %rax
 3339      FEFFFF
 3340 155e 4889C7   		movq	%rax, %rdi
 3341 1561 E8000000 		call	_ZNK8UnitTest15AssertException8FilenameEv@PLT
 3341      00
 3342              		.loc 5 136 1 discriminator 9
 3343 1566 4889C1   		movq	%rax, %rcx
 3344 1569 488B85F8 		movq	-520(%rbp), %rax
 3344      FDFFFF
 3345 1570 488B5008 		movq	8(%rax), %rdx
 3346 1574 488B85F8 		movq	-520(%rbp), %rax
 3346      FDFFFF
 3347 157b 488B7010 		movq	16(%rax), %rsi
 3348 157f 488D8520 		leaq	-480(%rbp), %rax
 3348      FEFFFF
 3349 1586 4589E8   		movl	%r13d, %r8d
 3350 1589 4889C7   		movq	%rax, %rdi
 3351 158c E8000000 		call	_ZN8UnitTest11TestDetailsC1EPKcS2_S2_i@PLT
 3351      00
 3352              		.loc 5 136 1 discriminator 13
 3353 1591 488D8520 		leaq	-480(%rbp), %rax
 3353      FEFFFF
 3354 1598 4C89E2   		movq	%r12, %rdx
 3355 159b 4889C6   		movq	%rax, %rsi
 3356 159e 4889DF   		movq	%rbx, %rdi
 3357 15a1 E8000000 		call	_ZN8UnitTest11TestResults13OnTestFailureERKNS_11TestDetailsEPKc@PLT
 3357      00
 3358              	.LEHE69:
 3359              		.loc 5 136 1 discriminator 15
 3360 15a6 E8000000 		call	__cxa_end_catch@PLT
 3360      00
 3361              	.LBE41:
 3362 15ab E9A80100 		jmp	.L152
 3362      00
 3363              	.L155:
 3364              	.LBB42:
 3365              		.loc 5 136 1 discriminator 4
 3366 15b0 4889C7   		movq	%rax, %rdi
 3367 15b3 E8000000 		call	__cxa_begin_catch@PLT
 3367      00
 3368 15b8 48898510 		movq	%rax, -496(%rbp)
 3368      FEFFFF
 3369              	.LBB43:
 3370 15bf 488D8540 		leaq	-448(%rbp), %rax
 3370      FEFFFF
 3371 15c6 4889C7   		movq	%rax, %rdi
 3372              	.LEHB70:
 3373 15c9 E8000000 		call	_ZN8UnitTest15MemoryOutStreamC1Ev
 3373      00
 3374              	.LEHE70:
 3375              		.loc 5 136 1 discriminator 17
 3376 15ce 488D8540 		leaq	-448(%rbp), %rax
 3376      FEFFFF
 3377 15d5 488D1500 		leaq	.LC45(%rip), %rdx
 3377      000000
 3378 15dc 4889D6   		movq	%rdx, %rsi
 3379 15df 4889C7   		movq	%rax, %rdi
 3380              	.LEHB71:
 3381 15e2 E8000000 		call	_ZStlsISt11char_traitsIcEERSt13basic_ostreamIcT_ES5_PKc@PLT
 3381      00
 3382 15e7 4889C3   		movq	%rax, %rbx
 3383 15ea 488B8510 		movq	-496(%rbp), %rax
 3383      FEFFFF
 3384 15f1 488B00   		movq	(%rax), %rax
 3385 15f4 4883C010 		addq	$16, %rax
 3386 15f8 488B10   		movq	(%rax), %rdx
 3387 15fb 488B8510 		movq	-496(%rbp), %rax
 3387      FEFFFF
 3388 1602 4889C7   		movq	%rax, %rdi
 3389 1605 FFD2     		call	*%rdx
 3390              	.LVL1:
 3391 1607 4889C6   		movq	%rax, %rsi
 3392 160a 4889DF   		movq	%rbx, %rdi
 3393 160d E8000000 		call	_ZStlsISt11char_traitsIcEERSt13basic_ostreamIcT_ES5_PKc@PLT
 3393      00
 3394              		.loc 5 136 1 discriminator 21
 3395 1612 E8000000 		call	_ZN8UnitTest11CurrentTest7ResultsEv@PLT
 3395      00
 3396 1617 488B18   		movq	(%rax), %rbx
 3397 161a 488D8540 		leaq	-448(%rbp), %rax
 3397      FEFFFF
 3398 1621 4889C7   		movq	%rax, %rdi
 3399 1624 E8000000 		call	_ZNK8UnitTest15MemoryOutStream7GetTextEv@PLT
 3399      00
 3400              		.loc 5 136 1 discriminator 23
 3401 1629 4889C2   		movq	%rax, %rdx
 3402 162c 488B85F8 		movq	-520(%rbp), %rax
 3402      FDFFFF
 3403 1633 4883C008 		addq	$8, %rax
 3404 1637 4889C6   		movq	%rax, %rsi
 3405 163a 4889DF   		movq	%rbx, %rdi
 3406 163d E8000000 		call	_ZN8UnitTest11TestResults13OnTestFailureERKNS_11TestDetailsEPKc@PLT
 3406      00
 3407              	.LEHE71:
 3408              		.loc 5 136 1 discriminator 27
 3409 1642 488D8540 		leaq	-448(%rbp), %rax
 3409      FEFFFF
 3410 1649 4889C7   		movq	%rax, %rdi
 3411              	.LEHB72:
 3412 164c E8000000 		call	_ZN8UnitTest15MemoryOutStreamD1Ev
 3412      00
 3413              	.LEHE72:
 3414              	.LBE43:
 3415              		.loc 5 136 1 discriminator 28
 3416 1651 E8000000 		call	__cxa_end_catch@PLT
 3416      00
 3417              	.LBE42:
 3418 1656 E9FD0000 		jmp	.L152
 3418      00
 3419              	.L170:
 3420              		.loc 5 136 1 discriminator 5
 3421 165b 4889C7   		movq	%rax, %rdi
 3422 165e E8000000 		call	__cxa_begin_catch@PLT
 3422      00
 3423 1663 80BD0FFE 		cmpb	$0, -497(%rbp)
 3423      FFFF00
 3424 166a 7445     		je	.L158
 3425              	.LEHB73:
 3426              		.loc 5 136 1 discriminator 30
 3427 166c E8000000 		call	_ZN8UnitTest11CurrentTest7ResultsEv@PLT
 3427      00
 3428 1671 488B18   		movq	(%rax), %rbx
 3429 1674 488B85F8 		movq	-520(%rbp), %rax
 3429      FDFFFF
 3430 167b 488D4808 		leaq	8(%rax), %rcx
 3431 167f 488D8520 		leaq	-480(%rbp), %rax
 3431      FEFFFF
 3432 1686 BA880000 		movl	$136, %edx
 3432      00
 3433 168b 4889CE   		movq	%rcx, %rsi
 3434 168e 4889C7   		movq	%rax, %rdi
 3435 1691 E8000000 		call	_ZN8UnitTest11TestDetailsC1ERKS0_i@PLT
