   1              		.file	"TestTestMacros.cpp"
   2              		.text
   3              	.Ltext0:
   4              		.file 0 "/home/pong/FPGALink/makestuff/libs/libutpp/tests" "TestTestMacros.cpp"
   5              		.section	.rodata
   6              	.LC0:
   7 0000 44656661 		.string	"DefaultSuite"
   7      756C7453 
   7      75697465 
   7      00
   8              		.section	.text._ZN13UnitTestSuite12GetSuiteNameEv,"axG",@progbits,_ZN13UnitTestSuite12GetSuiteName
   9              		.weak	_ZN13UnitTestSuite12GetSuiteNameEv
  11              	_ZN13UnitTestSuite12GetSuiteNameEv:
  12              	.LFB0:
  13              		.file 1 "../TestSuite.h"
   1:../TestSuite.h **** #ifndef UNITTEST_TESTSUITE_H
   2:../TestSuite.h **** #define UNITTEST_TESTSUITE_H
   3:../TestSuite.h **** 
   4:../TestSuite.h **** namespace UnitTestSuite {
   5:../TestSuite.h **** 
   6:../TestSuite.h ****     inline char const* GetSuiteName ()
   7:../TestSuite.h ****     {
  14              		.loc 1 7 5
  15              		.cfi_startproc
  16 0000 F30F1EFA 		endbr64
  17 0004 55       		pushq	%rbp
  18              		.cfi_def_cfa_offset 16
  19              		.cfi_offset 6, -16
  20 0005 4889E5   		movq	%rsp, %rbp
  21              		.cfi_def_cfa_register 6
   8:../TestSuite.h ****         return "DefaultSuite";
  22              		.loc 1 8 16
  23 0008 488D0500 		leaq	.LC0(%rip), %rax
  23      000000
   9:../TestSuite.h ****     }
  24              		.loc 1 9 5
  25 000f 5D       		popq	%rbp
  26              		.cfi_def_cfa 7, 8
  27 0010 C3       		ret
  28              		.cfi_endproc
  29              	.LFE0:
  31              		.section	.text._ZN8UnitTest15MemoryOutStreamC1Ev,"axG",@progbits,_ZN8UnitTest15MemoryOutStreamC1Ev
  32              		.align 2
  33              		.weak	_ZN8UnitTest15MemoryOutStreamC1Ev
  35              	_ZN8UnitTest15MemoryOutStreamC1Ev:
  36              	.LFB1129:
  37              		.file 2 "../MemoryOutStream.h"
   1:../MemoryOutStream.h **** #ifndef UNITTEST_MEMORYOUTSTREAM_H
   2:../MemoryOutStream.h **** #define UNITTEST_MEMORYOUTSTREAM_H
   3:../MemoryOutStream.h **** 
   4:../MemoryOutStream.h **** #include "Config.h"
   5:../MemoryOutStream.h **** 
   6:../MemoryOutStream.h **** #ifndef UNITTEST_USE_CUSTOM_STREAMS
   7:../MemoryOutStream.h **** 
   8:../MemoryOutStream.h **** #include <sstream>
   9:../MemoryOutStream.h **** 
  10:../MemoryOutStream.h **** namespace UnitTest
  11:../MemoryOutStream.h **** {
  12:../MemoryOutStream.h **** 
  13:../MemoryOutStream.h **** class MemoryOutStream : public std::ostringstream
  14:../MemoryOutStream.h **** {
  15:../MemoryOutStream.h **** public:
  16:../MemoryOutStream.h ****     MemoryOutStream() {}
  38              		.loc 2 16 5
  39              		.cfi_startproc
  40              		.cfi_personality 0x9b,DW.ref.__gxx_personality_v0
  41              		.cfi_lsda 0x1b,.LLSDA1129
  42 0000 F30F1EFA 		endbr64
  43 0004 55       		pushq	%rbp
  44              		.cfi_def_cfa_offset 16
  45              		.cfi_offset 6, -16
  46 0005 4889E5   		movq	%rsp, %rbp
  47              		.cfi_def_cfa_register 6
  48 0008 53       		pushq	%rbx
  49 0009 4883EC18 		subq	$24, %rsp
  50              		.cfi_offset 3, -24
  51 000d 48897DE8 		movq	%rdi, -24(%rbp)
  52              	.LBB2:
  53              		.loc 2 16 23
  54 0011 488B45E8 		movq	-24(%rbp), %rax
  55 0015 48059000 		addq	$144, %rax
  55      0000
  56 001b 4889C7   		movq	%rax, %rdi
  57              	.LEHB0:
  58 001e E8000000 		call	_ZNSt9basic_iosIcSt11char_traitsIcEEC2Ev@PLT
  58      00
  59              	.LEHE0:
  60 0023 488B45E8 		movq	-24(%rbp), %rax
  61 0027 488D1500 		leaq	8+_ZTTN8UnitTest15MemoryOutStreamE(%rip), %rdx
  61      000000
  62 002e 4889D6   		movq	%rdx, %rsi
  63 0031 4889C7   		movq	%rax, %rdi
  64              	.LEHB1:
  65 0034 E8000000 		call	_ZNSt7__cxx1119basic_ostringstreamIcSt11char_traitsIcESaIcEEC2Ev@PLT
  65      00
  66              	.LEHE1:
  67              		.loc 2 16 23 is_stmt 0 discriminator 2
  68 0039 488D1500 		leaq	24+_ZTVN8UnitTest15MemoryOutStreamE(%rip), %rdx
  68      000000
  69 0040 488B45E8 		movq	-24(%rbp), %rax
  70 0044 488910   		movq	%rdx, (%rax)
  71 0047 488B45E8 		movq	-24(%rbp), %rax
  72 004b 48059000 		addq	$144, %rax
  72      0000
  73 0051 488D1500 		leaq	64+_ZTVN8UnitTest15MemoryOutStreamE(%rip), %rdx
  73      000000
  74 0058 488910   		movq	%rdx, (%rax)
  75 005b 488B45E8 		movq	-24(%rbp), %rax
  76 005f 4883C070 		addq	$112, %rax
  77 0063 4889C7   		movq	%rax, %rdi
  78              	.LEHB2:
  79 0066 E8000000 		call	_ZNSt7__cxx1112basic_stringIcSt11char_traitsIcESaIcEEC1Ev@PLT
  79      00
  80              	.LEHE2:
  81              	.LBE2:
  82              		.loc 2 16 24 is_stmt 1
  83 006b EB43     		jmp	.L8
  84              	.L7:
  85 006d F30F1EFA 		endbr64
  86              	.LBB3:
  87 0071 4889C3   		movq	%rax, %rbx
  88 0074 488B45E8 		movq	-24(%rbp), %rax
  89 0078 488D1500 		leaq	8+_ZTTN8UnitTest15MemoryOutStreamE(%rip), %rdx
  89      000000
  90 007f 4889D6   		movq	%rdx, %rsi
  91 0082 4889C7   		movq	%rax, %rdi
  92 0085 E8000000 		call	_ZNSt7__cxx1119basic_ostringstreamIcSt11char_traitsIcESaIcEED2Ev@PLT
  92      00
  93 008a EB07     		jmp	.L5
  94              	.L6:
  95 008c F30F1EFA 		endbr64
  96 0090 4889C3   		movq	%rax, %rbx
  97              	.L5:
  98              		.loc 2 16 24 is_stmt 0 discriminator 1
  99 0093 488B45E8 		movq	-24(%rbp), %rax
 100 0097 48059000 		addq	$144, %rax
 100      0000
 101 009d 4889C7   		movq	%rax, %rdi
 102 00a0 E8000000 		call	_ZNSt9basic_iosIcSt11char_traitsIcEED2Ev@PLT
 102      00
 103 00a5 4889D8   		movq	%rbx, %rax
 104 00a8 4889C7   		movq	%rax, %rdi
 105              	.LEHB3:
 106 00ab E8000000 		call	_Unwind_Resume@PLT
 106      00
 107              	.LEHE3:
 108              	.L8:
 109              	.LBE3:
 110              		.loc 2 16 24
 111 00b0 488B5DF8 		movq	-8(%rbp), %rbx
 112 00b4 C9       		leave
 113              		.cfi_def_cfa 7, 8
 114 00b5 C3       		ret
 115              		.cfi_endproc
 116              	.LFE1129:
 117              		.globl	__gxx_personality_v0
 118              		.section	.gcc_except_table._ZN8UnitTest15MemoryOutStreamC1Ev,"aG",@progbits,_ZN8UnitTest15MemoryOu
 119              	.LLSDA1129:
 120 0000 FF       		.byte	0xff
 121 0001 FF       		.byte	0xff
 122 0002 01       		.byte	0x1
 123 0003 12       		.uleb128 .LLSDACSE1129-.LLSDACSB1129
 124              	.LLSDACSB1129:
 125 0004 1E       		.uleb128 .LEHB0-.LFB1129
 126 0005 05       		.uleb128 .LEHE0-.LEHB0
 127 0006 00       		.uleb128 0
 128 0007 00       		.uleb128 0
 129 0008 34       		.uleb128 .LEHB1-.LFB1129
 130 0009 05       		.uleb128 .LEHE1-.LEHB1
 131 000a 8C01     		.uleb128 .L6-.LFB1129
 132 000c 00       		.uleb128 0
 133 000d 66       		.uleb128 .LEHB2-.LFB1129
 134 000e 05       		.uleb128 .LEHE2-.LEHB2
 135 000f 6D       		.uleb128 .L7-.LFB1129
 136 0010 00       		.uleb128 0
 137 0011 AB01     		.uleb128 .LEHB3-.LFB1129
 138 0013 05       		.uleb128 .LEHE3-.LEHB3
 139 0014 00       		.uleb128 0
 140 0015 00       		.uleb128 0
 141              	.LLSDACSE1129:
 142              		.section	.text._ZN8UnitTest15MemoryOutStreamC1Ev,"axG",@progbits,_ZN8UnitTest15MemoryOutStreamC1Ev
 144              		.section	.text._ZN8UnitTest12TestReporterC2Ev,"axG",@progbits,_ZN8UnitTest12TestReporterC5Ev,comda
 145              		.align 2
 146              		.weak	_ZN8UnitTest12TestReporterC2Ev
 148              	_ZN8UnitTest12TestReporterC2Ev:
 149              	.LFB1143:
 150              		.file 3 "../TestReporter.h"
   1:../TestReporter.h **** #ifndef UNITTEST_TESTREPORTER_H
   2:../TestReporter.h **** #define UNITTEST_TESTREPORTER_H
   3:../TestReporter.h **** 
   4:../TestReporter.h **** namespace UnitTest {
   5:../TestReporter.h **** 
   6:../TestReporter.h **** class TestDetails;
   7:../TestReporter.h **** 
   8:../TestReporter.h **** class TestReporter
 151              		.loc 3 8 7 is_stmt 1
 152              		.cfi_startproc
 153 0000 F30F1EFA 		endbr64
 154 0004 55       		pushq	%rbp
 155              		.cfi_def_cfa_offset 16
 156              		.cfi_offset 6, -16
 157 0005 4889E5   		movq	%rsp, %rbp
 158              		.cfi_def_cfa_register 6
 159 0008 48897DF8 		movq	%rdi, -8(%rbp)
 160              	.LBB4:
 161              		.loc 3 8 7
 162 000c 488D1500 		leaq	16+_ZTVN8UnitTest12TestReporterE(%rip), %rdx
 162      000000
 163 0013 488B45F8 		movq	-8(%rbp), %rax
 164 0017 488910   		movq	%rdx, (%rax)
 165              	.LBE4:
 166 001a 90       		nop
 167 001b 5D       		popq	%rbp
 168              		.cfi_def_cfa 7, 8
 169 001c C3       		ret
 170              		.cfi_endproc
 171              	.LFE1143:
 173              		.weak	_ZN8UnitTest12TestReporterC1Ev
 174              		.set	_ZN8UnitTest12TestReporterC1Ev,_ZN8UnitTest12TestReporterC2Ev
 175              		.section	.text._ZN17RecordingReporterC2Ev,"axG",@progbits,_ZN17RecordingReporterC5Ev,comdat
 176              		.align 2
 177              		.weak	_ZN17RecordingReporterC2Ev
 179              	_ZN17RecordingReporterC2Ev:
 180              	.LFB1145:
 181              		.file 4 "RecordingReporter.h"
   1:RecordingReporter.h **** #ifndef UNITTEST_RECORDINGREPORTER_H
   2:RecordingReporter.h **** #define UNITTEST_RECORDINGREPORTER_H
   3:RecordingReporter.h **** 
   4:RecordingReporter.h **** #include "../TestReporter.h"
   5:RecordingReporter.h **** #include <cstring>
   6:RecordingReporter.h **** 
   7:RecordingReporter.h **** #include "../TestDetails.h"
   8:RecordingReporter.h **** 
   9:RecordingReporter.h **** struct RecordingReporter : public UnitTest::TestReporter
  10:RecordingReporter.h **** {
  11:RecordingReporter.h **** private:
  12:RecordingReporter.h ****     enum { kMaxStringLength = 256 };
  13:RecordingReporter.h **** 
  14:RecordingReporter.h **** public:
  15:RecordingReporter.h ****     RecordingReporter()
 182              		.loc 4 15 5
 183              		.cfi_startproc
 184 0000 F30F1EFA 		endbr64
 185 0004 55       		pushq	%rbp
 186              		.cfi_def_cfa_offset 16
 187              		.cfi_offset 6, -16
 188 0005 4889E5   		movq	%rsp, %rbp
 189              		.cfi_def_cfa_register 6
 190 0008 4883EC10 		subq	$16, %rsp
 191 000c 48897DF8 		movq	%rdi, -8(%rbp)
 192              	.LBB5:
  16:RecordingReporter.h ****         : testRunCount(0)
  17:RecordingReporter.h ****         , testFailedCount(0)
  18:RecordingReporter.h ****         , lastFailedLine(0)
  19:RecordingReporter.h ****         , testFinishedCount(0)
  20:RecordingReporter.h ****         , lastFinishedTestTime(0)
  21:RecordingReporter.h ****         , summaryTotalTestCount(0)
  22:RecordingReporter.h ****         , summaryFailedTestCount(0)
  23:RecordingReporter.h ****         , summaryFailureCount(0)
  24:RecordingReporter.h ****         , summarySecondsElapsed(0)
 193              		.loc 4 24 34
 194 0010 488B45F8 		movq	-8(%rbp), %rax
 195 0014 4889C7   		movq	%rax, %rdi
 196 0017 E8000000 		call	_ZN8UnitTest12TestReporterC2Ev
 196      00
 197 001c 488D1500 		leaq	16+_ZTV17RecordingReporter(%rip), %rdx
 197      000000
 198 0023 488B45F8 		movq	-8(%rbp), %rax
 199 0027 488910   		movq	%rdx, (%rax)
  16:RecordingReporter.h ****         : testRunCount(0)
 200              		.loc 4 16 11
 201 002a 488B45F8 		movq	-8(%rbp), %rax
 202 002e C7400800 		movl	$0, 8(%rax)
 202      000000
  17:RecordingReporter.h ****         , lastFailedLine(0)
 203              		.loc 4 17 11
 204 0035 488B45F8 		movq	-8(%rbp), %rax
 205 0039 C7800C02 		movl	$0, 524(%rax)
 205      00000000 
 205      0000
  18:RecordingReporter.h ****         , testFinishedCount(0)
 206              		.loc 4 18 11
 207 0043 488B45F8 		movq	-8(%rbp), %rax
 208 0047 C7801003 		movl	$0, 784(%rax)
 208      00000000 
 208      0000
  19:RecordingReporter.h ****         , lastFinishedTestTime(0)
 209              		.loc 4 19 11
 210 0051 488B45F8 		movq	-8(%rbp), %rax
 211 0055 C7801406 		movl	$0, 1556(%rax)
 211      00000000 
 211      0000
  20:RecordingReporter.h ****         , summaryTotalTestCount(0)
 212              		.loc 4 20 11
 213 005f 488B45F8 		movq	-8(%rbp), %rax
 214 0063 660FEFC0 		pxor	%xmm0, %xmm0
 215 0067 F30F1180 		movss	%xmm0, 2072(%rax)
 215      18080000 
  21:RecordingReporter.h ****         , summaryFailedTestCount(0)
 216              		.loc 4 21 11
 217 006f 488B45F8 		movq	-8(%rbp), %rax
 218 0073 C7801C08 		movl	$0, 2076(%rax)
 218      00000000 
 218      0000
  22:RecordingReporter.h ****         , summaryFailureCount(0)
 219              		.loc 4 22 11
 220 007d 488B45F8 		movq	-8(%rbp), %rax
 221 0081 C7802008 		movl	$0, 2080(%rax)
 221      00000000 
 221      0000
  23:RecordingReporter.h ****         , summarySecondsElapsed(0)
 222              		.loc 4 23 11
 223 008b 488B45F8 		movq	-8(%rbp), %rax
 224 008f C7802408 		movl	$0, 2084(%rax)
 224      00000000 
 224      0000
 225              		.loc 4 24 11
 226 0099 488B45F8 		movq	-8(%rbp), %rax
 227 009d 660FEFC0 		pxor	%xmm0, %xmm0
 228 00a1 F30F1180 		movss	%xmm0, 2088(%rax)
 228      28080000 
  25:RecordingReporter.h ****     {
  26:RecordingReporter.h ****         lastStartedSuite[0] = '\0';
 229              		.loc 4 26 29
 230 00a9 488B45F8 		movq	-8(%rbp), %rax
 231 00ad C6400C00 		movb	$0, 12(%rax)
  27:RecordingReporter.h ****         lastStartedTest[0] = '\0';
 232              		.loc 4 27 28
 233 00b1 488B45F8 		movq	-8(%rbp), %rax
 234 00b5 C6800C01 		movb	$0, 268(%rax)
 234      000000
  28:RecordingReporter.h ****         lastFailedFile[0] = '\0';
 235              		.loc 4 28 27
 236 00bc 488B45F8 		movq	-8(%rbp), %rax
 237 00c0 C6801002 		movb	$0, 528(%rax)
 237      000000
  29:RecordingReporter.h ****         lastFailedSuite[0] = '\0';
 238              		.loc 4 29 28
 239 00c7 488B45F8 		movq	-8(%rbp), %rax
 240 00cb C6801403 		movb	$0, 788(%rax)
 240      000000
  30:RecordingReporter.h ****         lastFailedTest[0] = '\0';
 241              		.loc 4 30 27
 242 00d2 488B45F8 		movq	-8(%rbp), %rax
 243 00d6 C6801404 		movb	$0, 1044(%rax)
 243      000000
  31:RecordingReporter.h ****         lastFailedMessage[0] = '\0';
 244              		.loc 4 31 30
 245 00dd 488B45F8 		movq	-8(%rbp), %rax
 246 00e1 C6801405 		movb	$0, 1300(%rax)
 246      000000
  32:RecordingReporter.h ****         lastFinishedSuite[0] = '\0';
 247              		.loc 4 32 30
 248 00e8 488B45F8 		movq	-8(%rbp), %rax
 249 00ec C6801806 		movb	$0, 1560(%rax)
 249      000000
  33:RecordingReporter.h ****         lastFinishedTest[0] = '\0';
 250              		.loc 4 33 29
 251 00f3 488B45F8 		movq	-8(%rbp), %rax
 252 00f7 C6801807 		movb	$0, 1816(%rax)
 252      000000
 253              	.LBE5:
  34:RecordingReporter.h ****     }
 254              		.loc 4 34 5
 255 00fe 90       		nop
 256 00ff C9       		leave
 257              		.cfi_def_cfa 7, 8
 258 0100 C3       		ret
 259              		.cfi_endproc
 260              	.LFE1145:
 262              		.weak	_ZN17RecordingReporterC1Ev
 263              		.set	_ZN17RecordingReporterC1Ev,_ZN17RecordingReporterC2Ev
 264              		.section	.text._ZN17RecordingReporter15ReportTestStartERKN8UnitTest11TestDetailsE,"axG",@progbits,
 265              		.align 2
 266              		.weak	_ZN17RecordingReporter15ReportTestStartERKN8UnitTest11TestDetailsE
 268              	_ZN17RecordingReporter15ReportTestStartERKN8UnitTest11TestDetailsE:
 269              	.LFB1147:
  35:RecordingReporter.h **** 
  36:RecordingReporter.h ****     virtual void ReportTestStart(UnitTest::TestDetails const& test)
 270              		.loc 4 36 18
 271              		.cfi_startproc
 272 0000 F30F1EFA 		endbr64
 273 0004 55       		pushq	%rbp
 274              		.cfi_def_cfa_offset 16
 275              		.cfi_offset 6, -16
 276 0005 4889E5   		movq	%rsp, %rbp
 277              		.cfi_def_cfa_register 6
 278 0008 4883EC10 		subq	$16, %rsp
 279 000c 48897DF8 		movq	%rdi, -8(%rbp)
 280 0010 488975F0 		movq	%rsi, -16(%rbp)
  37:RecordingReporter.h ****     {
  38:RecordingReporter.h **** 		using namespace std;
  39:RecordingReporter.h **** 
  40:RecordingReporter.h ****         ++testRunCount;
 281              		.loc 4 40 11
 282 0014 488B45F8 		movq	-8(%rbp), %rax
 283 0018 8B4008   		movl	8(%rax), %eax
 284              		.loc 4 40 9
 285 001b 8D5001   		leal	1(%rax), %edx
 286 001e 488B45F8 		movq	-8(%rbp), %rax
 287 0022 895008   		movl	%edx, 8(%rax)
  41:RecordingReporter.h ****         strcpy(lastStartedSuite, test.suiteName);
 288              		.loc 4 41 39
 289 0025 488B45F0 		movq	-16(%rbp), %rax
 290 0029 488B00   		movq	(%rax), %rax
 291              		.loc 4 41 16
 292 002c 488B55F8 		movq	-8(%rbp), %rdx
 293 0030 4883C20C 		addq	$12, %rdx
 294              		.loc 4 41 15
 295 0034 4889C6   		movq	%rax, %rsi
 296 0037 4889D7   		movq	%rdx, %rdi
 297 003a E8000000 		call	strcpy@PLT
 297      00
  42:RecordingReporter.h ****         strcpy(lastStartedTest, test.testName);
 298              		.loc 4 42 38
 299 003f 488B45F0 		movq	-16(%rbp), %rax
 300 0043 488B4008 		movq	8(%rax), %rax
 301              		.loc 4 42 16
 302 0047 488B55F8 		movq	-8(%rbp), %rdx
 303 004b 4881C20C 		addq	$268, %rdx
 303      010000
 304              		.loc 4 42 15
 305 0052 4889C6   		movq	%rax, %rsi
 306 0055 4889D7   		movq	%rdx, %rdi
 307 0058 E8000000 		call	strcpy@PLT
 307      00
  43:RecordingReporter.h ****     }
 308              		.loc 4 43 5
 309 005d 90       		nop
 310 005e C9       		leave
 311              		.cfi_def_cfa 7, 8
 312 005f C3       		ret
 313              		.cfi_endproc
 314              	.LFE1147:
 316              		.section	.text._ZN17RecordingReporter13ReportFailureERKN8UnitTest11TestDetailsEPKc,"axG",@progbits
 317              		.align 2
 318              		.weak	_ZN17RecordingReporter13ReportFailureERKN8UnitTest11TestDetailsEPKc
 320              	_ZN17RecordingReporter13ReportFailureERKN8UnitTest11TestDetailsEPKc:
 321              	.LFB1148:
  44:RecordingReporter.h **** 
  45:RecordingReporter.h ****     virtual void ReportFailure(UnitTest::TestDetails const& test, char const* failure)
 322              		.loc 4 45 18
 323              		.cfi_startproc
 324 0000 F30F1EFA 		endbr64
 325 0004 55       		pushq	%rbp
 326              		.cfi_def_cfa_offset 16
 327              		.cfi_offset 6, -16
 328 0005 4889E5   		movq	%rsp, %rbp
 329              		.cfi_def_cfa_register 6
 330 0008 4883EC20 		subq	$32, %rsp
 331 000c 48897DF8 		movq	%rdi, -8(%rbp)
 332 0010 488975F0 		movq	%rsi, -16(%rbp)
 333 0014 488955E8 		movq	%rdx, -24(%rbp)
  46:RecordingReporter.h ****     {
  47:RecordingReporter.h **** 		using namespace std;
  48:RecordingReporter.h **** 
  49:RecordingReporter.h **** 		++testFailedCount;
 334              		.loc 4 49 5
 335 0018 488B45F8 		movq	-8(%rbp), %rax
 336 001c 8B800C02 		movl	524(%rax), %eax
 336      0000
 337              		.loc 4 49 3
 338 0022 8D5001   		leal	1(%rax), %edx
 339 0025 488B45F8 		movq	-8(%rbp), %rax
 340 0029 89900C02 		movl	%edx, 524(%rax)
 340      0000
  50:RecordingReporter.h ****         strcpy(lastFailedFile, test.filename);
 341              		.loc 4 50 37
 342 002f 488B45F0 		movq	-16(%rbp), %rax
 343 0033 488B4010 		movq	16(%rax), %rax
 344              		.loc 4 50 16
 345 0037 488B55F8 		movq	-8(%rbp), %rdx
 346 003b 4881C210 		addq	$528, %rdx
 346      020000
 347              		.loc 4 50 15
 348 0042 4889C6   		movq	%rax, %rsi
 349 0045 4889D7   		movq	%rdx, %rdi
 350 0048 E8000000 		call	strcpy@PLT
 350      00
  51:RecordingReporter.h ****         lastFailedLine = test.lineNumber;
 351              		.loc 4 51 31
 352 004d 488B45F0 		movq	-16(%rbp), %rax
 353 0051 8B5018   		movl	24(%rax), %edx
 354              		.loc 4 51 24
 355 0054 488B45F8 		movq	-8(%rbp), %rax
 356 0058 89901003 		movl	%edx, 784(%rax)
 356      0000
  52:RecordingReporter.h ****         strcpy(lastFailedSuite, test.suiteName);
 357              		.loc 4 52 38
 358 005e 488B45F0 		movq	-16(%rbp), %rax
 359 0062 488B00   		movq	(%rax), %rax
 360              		.loc 4 52 16
 361 0065 488B55F8 		movq	-8(%rbp), %rdx
 362 0069 4881C214 		addq	$788, %rdx
 362      030000
 363              		.loc 4 52 15
 364 0070 4889C6   		movq	%rax, %rsi
 365 0073 4889D7   		movq	%rdx, %rdi
 366 0076 E8000000 		call	strcpy@PLT
 366      00
  53:RecordingReporter.h ****         strcpy(lastFailedTest, test.testName);
 367              		.loc 4 53 37
 368 007b 488B45F0 		movq	-16(%rbp), %rax
 369 007f 488B4008 		movq	8(%rax), %rax
 370              		.loc 4 53 16
 371 0083 488B55F8 		movq	-8(%rbp), %rdx
 372 0087 4881C214 		addq	$1044, %rdx
 372      040000
 373              		.loc 4 53 15
 374 008e 4889C6   		movq	%rax, %rsi
 375 0091 4889D7   		movq	%rdx, %rdi
 376 0094 E8000000 		call	strcpy@PLT
 376      00
  54:RecordingReporter.h ****         strcpy(lastFailedMessage, failure);
 377              		.loc 4 54 16
 378 0099 488B45F8 		movq	-8(%rbp), %rax
 379 009d 488D9014 		leaq	1300(%rax), %rdx
 379      050000
 380              		.loc 4 54 15
 381 00a4 488B45E8 		movq	-24(%rbp), %rax
 382 00a8 4889C6   		movq	%rax, %rsi
 383 00ab 4889D7   		movq	%rdx, %rdi
 384 00ae E8000000 		call	strcpy@PLT
 384      00
  55:RecordingReporter.h ****     }
 385              		.loc 4 55 5
 386 00b3 90       		nop
 387 00b4 C9       		leave
 388              		.cfi_def_cfa 7, 8
 389 00b5 C3       		ret
 390              		.cfi_endproc
 391              	.LFE1148:
 393              		.section	.text._ZN17RecordingReporter16ReportTestFinishERKN8UnitTest11TestDetailsEf,"axG",@progbit
 394              		.align 2
 395              		.weak	_ZN17RecordingReporter16ReportTestFinishERKN8UnitTest11TestDetailsEf
 397              	_ZN17RecordingReporter16ReportTestFinishERKN8UnitTest11TestDetailsEf:
 398              	.LFB1149:
  56:RecordingReporter.h **** 
  57:RecordingReporter.h ****     virtual void ReportTestFinish(UnitTest::TestDetails const& test, float testDuration)
 399              		.loc 4 57 18
 400              		.cfi_startproc
 401 0000 F30F1EFA 		endbr64
 402 0004 55       		pushq	%rbp
 403              		.cfi_def_cfa_offset 16
 404              		.cfi_offset 6, -16
 405 0005 4889E5   		movq	%rsp, %rbp
 406              		.cfi_def_cfa_register 6
 407 0008 4883EC20 		subq	$32, %rsp
 408 000c 48897DF8 		movq	%rdi, -8(%rbp)
 409 0010 488975F0 		movq	%rsi, -16(%rbp)
 410 0014 F30F1145 		movss	%xmm0, -20(%rbp)
 410      EC
  58:RecordingReporter.h ****     {
  59:RecordingReporter.h **** 		using namespace std;
  60:RecordingReporter.h **** 
  61:RecordingReporter.h **** 		++testFinishedCount;
 411              		.loc 4 61 5
 412 0019 488B45F8 		movq	-8(%rbp), %rax
 413 001d 8B801406 		movl	1556(%rax), %eax
 413      0000
 414              		.loc 4 61 3
 415 0023 8D5001   		leal	1(%rax), %edx
 416 0026 488B45F8 		movq	-8(%rbp), %rax
 417 002a 89901406 		movl	%edx, 1556(%rax)
 417      0000
  62:RecordingReporter.h ****         strcpy(lastFinishedSuite, test.suiteName);
 418              		.loc 4 62 40
 419 0030 488B45F0 		movq	-16(%rbp), %rax
 420 0034 488B00   		movq	(%rax), %rax
 421              		.loc 4 62 16
 422 0037 488B55F8 		movq	-8(%rbp), %rdx
 423 003b 4881C218 		addq	$1560, %rdx
 423      060000
 424              		.loc 4 62 15
 425 0042 4889C6   		movq	%rax, %rsi
 426 0045 4889D7   		movq	%rdx, %rdi
 427 0048 E8000000 		call	strcpy@PLT
 427      00
  63:RecordingReporter.h ****         strcpy(lastFinishedTest, test.testName);
 428              		.loc 4 63 39
 429 004d 488B45F0 		movq	-16(%rbp), %rax
 430 0051 488B4008 		movq	8(%rax), %rax
 431              		.loc 4 63 16
 432 0055 488B55F8 		movq	-8(%rbp), %rdx
 433 0059 4881C218 		addq	$1816, %rdx
 433      070000
 434              		.loc 4 63 15
 435 0060 4889C6   		movq	%rax, %rsi
 436 0063 4889D7   		movq	%rdx, %rdi
 437 0066 E8000000 		call	strcpy@PLT
 437      00
  64:RecordingReporter.h ****         lastFinishedTestTime = testDuration;
 438              		.loc 4 64 30
 439 006b 488B45F8 		movq	-8(%rbp), %rax
 440 006f F30F1045 		movss	-20(%rbp), %xmm0
 440      EC
 441 0074 F30F1180 		movss	%xmm0, 2072(%rax)
 441      18080000 
  65:RecordingReporter.h ****     }
 442              		.loc 4 65 5
 443 007c 90       		nop
 444 007d C9       		leave
 445              		.cfi_def_cfa 7, 8
 446 007e C3       		ret
 447              		.cfi_endproc
 448              	.LFE1149:
 450              		.section	.text._ZN17RecordingReporter13ReportSummaryEiiif,"axG",@progbits,_ZN17RecordingReporter13
 451              		.align 2
 452              		.weak	_ZN17RecordingReporter13ReportSummaryEiiif
 454              	_ZN17RecordingReporter13ReportSummaryEiiif:
 455              	.LFB1150:
  66:RecordingReporter.h **** 
  67:RecordingReporter.h ****     virtual void ReportSummary(int totalTestCount, int failedTestCount, int failureCount, float sec
 456              		.loc 4 67 18
 457              		.cfi_startproc
 458 0000 F30F1EFA 		endbr64
 459 0004 55       		pushq	%rbp
 460              		.cfi_def_cfa_offset 16
 461              		.cfi_offset 6, -16
 462 0005 4889E5   		movq	%rsp, %rbp
 463              		.cfi_def_cfa_register 6
 464 0008 48897DF8 		movq	%rdi, -8(%rbp)
 465 000c 8975F4   		movl	%esi, -12(%rbp)
 466 000f 8955F0   		movl	%edx, -16(%rbp)
 467 0012 894DEC   		movl	%ecx, -20(%rbp)
 468 0015 F30F1145 		movss	%xmm0, -24(%rbp)
 468      E8
  68:RecordingReporter.h ****     {
  69:RecordingReporter.h ****         summaryTotalTestCount = totalTestCount;
 469              		.loc 4 69 31
 470 001a 488B45F8 		movq	-8(%rbp), %rax
 471 001e 8B55F4   		movl	-12(%rbp), %edx
 472 0021 89901C08 		movl	%edx, 2076(%rax)
 472      0000
  70:RecordingReporter.h ****         summaryFailedTestCount = failedTestCount;
 473              		.loc 4 70 32
 474 0027 488B45F8 		movq	-8(%rbp), %rax
 475 002b 8B55F0   		movl	-16(%rbp), %edx
 476 002e 89902008 		movl	%edx, 2080(%rax)
 476      0000
  71:RecordingReporter.h ****         summaryFailureCount = failureCount;
 477              		.loc 4 71 29
 478 0034 488B45F8 		movq	-8(%rbp), %rax
 479 0038 8B55EC   		movl	-20(%rbp), %edx
 480 003b 89902408 		movl	%edx, 2084(%rax)
 480      0000
  72:RecordingReporter.h ****         summarySecondsElapsed = secondsElapsed;
 481              		.loc 4 72 31
 482 0041 488B45F8 		movq	-8(%rbp), %rax
 483 0045 F30F1045 		movss	-24(%rbp), %xmm0
 483      E8
 484 004a F30F1180 		movss	%xmm0, 2088(%rax)
 484      28080000 
  73:RecordingReporter.h ****     }
 485              		.loc 4 73 5
 486 0052 90       		nop
 487 0053 5D       		popq	%rbp
 488              		.cfi_def_cfa 7, 8
 489 0054 C3       		ret
 490              		.cfi_endproc
 491              	.LFE1150:
 493              		.section	.text._ZN17ScopedCurrentTestC2ERN8UnitTest11TestResultsEPKNS0_11TestDetailsE,"axG",@progb
 494              		.align 2
 495              		.weak	_ZN17ScopedCurrentTestC2ERN8UnitTest11TestResultsEPKNS0_11TestDetailsE
 497              	_ZN17ScopedCurrentTestC2ERN8UnitTest11TestResultsEPKNS0_11TestDetailsE:
 498              	.LFB1155:
 499              		.file 5 "ScopedCurrentTest.h"
   1:ScopedCurrentTest.h **** #ifndef UNITTEST_SCOPEDCURRENTTEST_H
   2:ScopedCurrentTest.h **** #define UNITTEST_SCOPEDCURRENTTEST_H
   3:ScopedCurrentTest.h **** 
   4:ScopedCurrentTest.h **** #include "../CurrentTest.h"
   5:ScopedCurrentTest.h **** #include <cstddef>
   6:ScopedCurrentTest.h **** 
   7:ScopedCurrentTest.h **** class ScopedCurrentTest
   8:ScopedCurrentTest.h **** {
   9:ScopedCurrentTest.h **** public:
  10:ScopedCurrentTest.h **** 	ScopedCurrentTest()
  11:ScopedCurrentTest.h **** 		: m_oldTestResults(UnitTest::CurrentTest::Results())
  12:ScopedCurrentTest.h **** 		, m_oldTestDetails(UnitTest::CurrentTest::Details())
  13:ScopedCurrentTest.h **** 	{
  14:ScopedCurrentTest.h **** 	}
  15:ScopedCurrentTest.h **** 
  16:ScopedCurrentTest.h **** 	explicit ScopedCurrentTest(UnitTest::TestResults& newResults, const UnitTest::TestDetails* newDeta
 500              		.loc 5 16 11
 501              		.cfi_startproc
 502 0000 F30F1EFA 		endbr64
 503 0004 55       		pushq	%rbp
 504              		.cfi_def_cfa_offset 16
 505              		.cfi_offset 6, -16
 506 0005 4889E5   		movq	%rsp, %rbp
 507              		.cfi_def_cfa_register 6
 508 0008 4883EC20 		subq	$32, %rsp
 509 000c 48897DF8 		movq	%rdi, -8(%rbp)
 510 0010 488975F0 		movq	%rsi, -16(%rbp)
 511 0014 488955E8 		movq	%rdx, -24(%rbp)
 512              	.LBB6:
  17:ScopedCurrentTest.h **** 		: m_oldTestResults(UnitTest::CurrentTest::Results())
 513              		.loc 5 17 52
 514 0018 E8000000 		call	_ZN8UnitTest11CurrentTest7ResultsEv@PLT
 514      00
 515 001d 488B10   		movq	(%rax), %rdx
 516              		.loc 5 17 5
 517 0020 488B45F8 		movq	-8(%rbp), %rax
 518 0024 488910   		movq	%rdx, (%rax)
  18:ScopedCurrentTest.h **** 		, m_oldTestDetails(UnitTest::CurrentTest::Details())
 519              		.loc 5 18 52
 520 0027 E8000000 		call	_ZN8UnitTest11CurrentTest7DetailsEv@PLT
 520      00
 521 002c 488B10   		movq	(%rax), %rdx
 522              		.loc 5 18 5
 523 002f 488B45F8 		movq	-8(%rbp), %rax
 524 0033 48895008 		movq	%rdx, 8(%rax)
  19:ScopedCurrentTest.h **** 	{
  20:ScopedCurrentTest.h **** 		UnitTest::CurrentTest::Results() = &newResults;
 525              		.loc 5 20 33
 526 0037 E8000000 		call	_ZN8UnitTest11CurrentTest7ResultsEv@PLT
 526      00
 527              		.loc 5 20 36
 528 003c 488B55F0 		movq	-16(%rbp), %rdx
 529 0040 488910   		movq	%rdx, (%rax)
  21:ScopedCurrentTest.h **** 
  22:ScopedCurrentTest.h **** 		if (newDetails != NULL)
 530              		.loc 5 22 3
 531 0043 48837DE8 		cmpq	$0, -24(%rbp)
 531      00
 532 0048 740C     		je	.L17
  23:ScopedCurrentTest.h **** 			UnitTest::CurrentTest::Details() = newDetails;
 533              		.loc 5 23 34
 534 004a E8000000 		call	_ZN8UnitTest11CurrentTest7DetailsEv@PLT
 534      00
 535              		.loc 5 23 37
 536 004f 488B55E8 		movq	-24(%rbp), %rdx
 537 0053 488910   		movq	%rdx, (%rax)
 538              	.L17:
 539              	.LBE6:
  24:ScopedCurrentTest.h **** 	}
 540              		.loc 5 24 2
 541 0056 90       		nop
 542 0057 C9       		leave
 543              		.cfi_def_cfa 7, 8
 544 0058 C3       		ret
 545              		.cfi_endproc
 546              	.LFE1155:
 548              		.weak	_ZN17ScopedCurrentTestC1ERN8UnitTest11TestResultsEPKNS0_11TestDetailsE
 549              		.set	_ZN17ScopedCurrentTestC1ERN8UnitTest11TestResultsEPKNS0_11TestDetailsE,_ZN17ScopedCurrentTest
 550              		.section	.text._ZN17ScopedCurrentTestD2Ev,"axG",@progbits,_ZN17ScopedCurrentTestD5Ev,comdat
 551              		.align 2
 552              		.weak	_ZN17ScopedCurrentTestD2Ev
 554              	_ZN17ScopedCurrentTestD2Ev:
 555              	.LFB1158:
  25:ScopedCurrentTest.h **** 
  26:ScopedCurrentTest.h **** 	~ScopedCurrentTest()
 556              		.loc 5 26 2
 557              		.cfi_startproc
 558 0000 F30F1EFA 		endbr64
 559 0004 55       		pushq	%rbp
 560              		.cfi_def_cfa_offset 16
 561              		.cfi_offset 6, -16
 562 0005 4889E5   		movq	%rsp, %rbp
 563              		.cfi_def_cfa_register 6
 564 0008 4883EC10 		subq	$16, %rsp
 565 000c 48897DF8 		movq	%rdi, -8(%rbp)
 566              	.LBB7:
  27:ScopedCurrentTest.h **** 	{
  28:ScopedCurrentTest.h **** 		UnitTest::CurrentTest::Results() = m_oldTestResults;
 567              		.loc 5 28 33
 568 0010 E8000000 		call	_ZN8UnitTest11CurrentTest7ResultsEv@PLT
 568      00
 569              		.loc 5 28 38
 570 0015 488B55F8 		movq	-8(%rbp), %rdx
 571 0019 488B12   		movq	(%rdx), %rdx
 572              		.loc 5 28 36
 573 001c 488910   		movq	%rdx, (%rax)
  29:ScopedCurrentTest.h **** 		UnitTest::CurrentTest::Details() = m_oldTestDetails;
 574              		.loc 5 29 33
 575 001f E8000000 		call	_ZN8UnitTest11CurrentTest7DetailsEv@PLT
 575      00
 576              		.loc 5 29 38
 577 0024 488B55F8 		movq	-8(%rbp), %rdx
 578 0028 488B5208 		movq	8(%rdx), %rdx
 579              		.loc 5 29 36
 580 002c 488910   		movq	%rdx, (%rax)
 581              	.LBE7:
  30:ScopedCurrentTest.h **** 	}
 582              		.loc 5 30 2
 583 002f 90       		nop
 584 0030 C9       		leave
 585              		.cfi_def_cfa 7, 8
 586 0031 C3       		ret
 587              		.cfi_endproc
 588              	.LFE1158:
 590              		.weak	_ZN17ScopedCurrentTestD1Ev
 591              		.set	_ZN17ScopedCurrentTestD1Ev,_ZN17ScopedCurrentTestD2Ev
 592              		.local	_ZN12_GLOBAL__N_15list1E
 593              		.comm	_ZN12_GLOBAL__N_15list1E,16,16
 594              		.section	.rodata
 595              	.LC2:
 596 000d 54657374 		.string	"TestTestMacros.cpp"
 596      54657374 
 596      4D616372 
 596      6F732E63 
 596      707000
 597              	.LC3:
 598 0020 44756D6D 		.string	"DummyTest"
 598      79546573 
 598      7400
 599              		.text
 600              		.align 2
 602              	_ZN12_GLOBAL__N_113TestDummyTestC2Ev:
 603              	.LFB1161:
 604              		.file 6 "TestTestMacros.cpp"
   1:TestTestMacros.cpp **** #include "../UnitTest++.h"
   2:TestTestMacros.cpp **** #include "../TestMacros.h"
   3:TestTestMacros.cpp **** #include "../TestList.h"
   4:TestTestMacros.cpp **** #include "../TestResults.h"
   5:TestTestMacros.cpp **** #include "../TestReporter.h"
   6:TestTestMacros.cpp **** #include "../ReportAssert.h"
   7:TestTestMacros.cpp **** #include "RecordingReporter.h"
   8:TestTestMacros.cpp **** #include "ScopedCurrentTest.h"
   9:TestTestMacros.cpp **** 
  10:TestTestMacros.cpp **** using namespace UnitTest;
  11:TestTestMacros.cpp **** 
  12:TestTestMacros.cpp **** namespace {
  13:TestTestMacros.cpp **** 
  14:TestTestMacros.cpp **** TestList list1;
  15:TestTestMacros.cpp **** TEST_EX(DummyTest, list1)
 605              		.loc 6 15 1
 606              		.cfi_startproc
 607 0000 55       		pushq	%rbp
 608              		.cfi_def_cfa_offset 16
 609              		.cfi_offset 6, -16
 610 0001 4889E5   		movq	%rsp, %rbp
 611              		.cfi_def_cfa_register 6
 612 0004 53       		pushq	%rbx
 613 0005 4883EC18 		subq	$24, %rsp
 614              		.cfi_offset 3, -24
 615 0009 48897DE8 		movq	%rdi, -24(%rbp)
 616              	.LBB8:
 617              		.loc 6 15 1
 618 000d 488B5DE8 		movq	-24(%rbp), %rbx
 619 0011 E8000000 		call	_ZN13UnitTestSuite12GetSuiteNameEv
 619      00
 620 0016 4889C2   		movq	%rax, %rdx
 621 0019 41B80F00 		movl	$15, %r8d
 621      0000
 622 001f 488D0500 		leaq	.LC2(%rip), %rax
 622      000000
 623 0026 4889C1   		movq	%rax, %rcx
 624 0029 488D0500 		leaq	.LC3(%rip), %rax
 624      000000
 625 0030 4889C6   		movq	%rax, %rsi
 626 0033 4889DF   		movq	%rbx, %rdi
 627 0036 E8000000 		call	_ZN8UnitTest4TestC2EPKcS2_S2_i@PLT
 627      00
 628 003b 488D1500 		leaq	16+_ZTVN12_GLOBAL__N_113TestDummyTestE(%rip), %rdx
 628      000000
 629 0042 488B45E8 		movq	-24(%rbp), %rax
 630 0046 488910   		movq	%rdx, (%rax)
 631              	.LBE8:
 632 0049 90       		nop
 633 004a 488B5DF8 		movq	-8(%rbp), %rbx
 634 004e C9       		leave
 635              		.cfi_def_cfa 7, 8
 636 004f C3       		ret
 637              		.cfi_endproc
 638              	.LFE1161:
 640              		.set	_ZN12_GLOBAL__N_113TestDummyTestC1Ev,_ZN12_GLOBAL__N_113TestDummyTestC2Ev
 641              		.local	_ZN12_GLOBAL__N_121testDummyTestInstanceE
 642              		.comm	_ZN12_GLOBAL__N_121testDummyTestInstanceE,56,32
 643              		.local	_ZN12_GLOBAL__N_114adderDummyTestE
 644              		.comm	_ZN12_GLOBAL__N_114adderDummyTestE,1,1
 645              		.align 2
 647              	_ZNK12_GLOBAL__N_113TestDummyTest7RunImplEv:
 648              	.LFB1163:
  16:TestTestMacros.cpp **** {
 649              		.loc 6 16 1
 650              		.cfi_startproc
 651 0050 F30F1EFA 		endbr64
 652 0054 55       		pushq	%rbp
 653              		.cfi_def_cfa_offset 16
 654              		.cfi_offset 6, -16
 655 0055 4889E5   		movq	%rsp, %rbp
 656              		.cfi_def_cfa_register 6
 657 0058 48897DF8 		movq	%rdi, -8(%rbp)
  17:TestTestMacros.cpp **** }
 658              		.loc 6 17 1
 659 005c 90       		nop
 660 005d 5D       		popq	%rbp
 661              		.cfi_def_cfa 7, 8
 662 005e C3       		ret
 663              		.cfi_endproc
 664              	.LFE1163:
 666              		.section	.rodata
 667 002a 00000000 		.align 8
 667      0000
 668              	.LC4:
 669 0030 54657374 		.string	"TestsAreAddedToTheListThroughMacro"
 669      73417265 
 669      41646465 
 669      64546F54 
 669      68654C69 
 670              		.text
 671 005f 90       		.align 2
 673              	_ZN12_GLOBAL__N_138TestTestsAreAddedToTheListThroughMacroC2Ev:
 674              	.LFB1165:
  18:TestTestMacros.cpp **** 
  19:TestTestMacros.cpp **** TEST (TestsAreAddedToTheListThroughMacro)
 675              		.loc 6 19 1
 676              		.cfi_startproc
 677 0060 55       		pushq	%rbp
 678              		.cfi_def_cfa_offset 16
 679              		.cfi_offset 6, -16
 680 0061 4889E5   		movq	%rsp, %rbp
 681              		.cfi_def_cfa_register 6
 682 0064 53       		pushq	%rbx
 683 0065 4883EC18 		subq	$24, %rsp
 684              		.cfi_offset 3, -24
 685 0069 48897DE8 		movq	%rdi, -24(%rbp)
 686              	.LBB9:
 687              		.loc 6 19 1
 688 006d 488B5DE8 		movq	-24(%rbp), %rbx
 689 0071 E8000000 		call	_ZN13UnitTestSuite12GetSuiteNameEv
 689      00
 690 0076 4889C2   		movq	%rax, %rdx
 691 0079 41B81300 		movl	$19, %r8d
 691      0000
 692 007f 488D0500 		leaq	.LC2(%rip), %rax
 692      000000
 693 0086 4889C1   		movq	%rax, %rcx
 694 0089 488D0500 		leaq	.LC4(%rip), %rax
 694      000000
 695 0090 4889C6   		movq	%rax, %rsi
 696 0093 4889DF   		movq	%rbx, %rdi
 697 0096 E8000000 		call	_ZN8UnitTest4TestC2EPKcS2_S2_i@PLT
 697      00
 698 009b 488D1500 		leaq	16+_ZTVN12_GLOBAL__N_138TestTestsAreAddedToTheListThroughMacroE(%rip), %rdx
 698      000000
 699 00a2 488B45E8 		movq	-24(%rbp), %rax
 700 00a6 488910   		movq	%rdx, (%rax)
 701              	.LBE9:
 702 00a9 90       		nop
 703 00aa 488B5DF8 		movq	-8(%rbp), %rbx
 704 00ae C9       		leave
 705              		.cfi_def_cfa 7, 8
 706 00af C3       		ret
 707              		.cfi_endproc
 708              	.LFE1165:
 710              		.set	_ZN12_GLOBAL__N_138TestTestsAreAddedToTheListThroughMacroC1Ev,_ZN12_GLOBAL__N_138TestTestsAre
 711              		.local	_ZN12_GLOBAL__N_146testTestsAreAddedToTheListThroughMacroInstanceE
 712              		.comm	_ZN12_GLOBAL__N_146testTestsAreAddedToTheListThroughMacroInstanceE,56,32
 713              		.local	_ZN12_GLOBAL__N_139adderTestsAreAddedToTheListThroughMacroE
 714              		.comm	_ZN12_GLOBAL__N_139adderTestsAreAddedToTheListThroughMacroE,1,1
 715              		.section	.rodata
 716              	.LC5:
 717 0053 6C697374 		.string	"list1.GetHead() != 0"
 717      312E4765 
 717      74486561 
 717      64282920 
 717      213D2030 
 718              	.LC6:
 719 0068 6C697374 		.string	"list1.GetHead()->next == 0"
 719      312E4765 
 719      74486561 
 719      6428292D 
 719      3E6E6578 
 720 0083 00000000 		.align 8
 720      00
 721              	.LC7:
 722 0088 556E6861 		.string	"Unhandled exception in CHECK(list1.GetHead() != 0)"
 722      6E646C65 
 722      64206578 
 722      63657074 
 722      696F6E20 
 723 00bb 00000000 		.align 8
 723      00
 724              	.LC8:
 725 00c0 556E6861 		.string	"Unhandled exception in CHECK(list1.GetHead()->next == 0)"
 725      6E646C65 
 725      64206578 
 725      63657074 
 725      696F6E20 
 726              		.text
 727              		.align 2
 729              	_ZNK12_GLOBAL__N_138TestTestsAreAddedToTheListThroughMacro7RunImplEv:
 730              	.LFB1167:
  20:TestTestMacros.cpp **** {
 731              		.loc 6 20 1
 732              		.cfi_startproc
 733              		.cfi_personality 0x9b,DW.ref.__gxx_personality_v0
 734              		.cfi_lsda 0x1b,.LLSDA1167
 735 00b0 F30F1EFA 		endbr64
 736 00b4 55       		pushq	%rbp
 737              		.cfi_def_cfa_offset 16
 738              		.cfi_offset 6, -16
 739 00b5 4889E5   		movq	%rsp, %rbp
 740              		.cfi_def_cfa_register 6
 741 00b8 53       		pushq	%rbx
 742 00b9 4883EC48 		subq	$72, %rsp
 743              		.cfi_offset 3, -24
 744 00bd 48897DB8 		movq	%rdi, -72(%rbp)
 745              		.loc 6 20 1
 746 00c1 64488B04 		movq	%fs:40, %rax
 746      25280000 
 746      00
 747 00ca 488945E8 		movq	%rax, -24(%rbp)
 748 00ce 31C0     		xorl	%eax, %eax
  21:TestTestMacros.cpp ****     CHECK(list1.GetHead() != 0);
 749              		.loc 6 21 5
 750 00d0 488D0500 		leaq	_ZN12_GLOBAL__N_15list1E(%rip), %rax
 750      000000
 751 00d7 4889C7   		movq	%rax, %rdi
 752              	.LEHB4:
 753 00da E8000000 		call	_ZNK8UnitTest8TestList7GetHeadEv@PLT
 753      00
 754 00df 4885C0   		testq	%rax, %rax
 755 00e2 0F95C0   		setne	%al
 756 00e5 0FB6C0   		movzbl	%al, %eax
 757 00e8 89C7     		movl	%eax, %edi
 758 00ea E8000000 		call	_ZN8UnitTest5CheckIbEEbT_
 758      00
 759 00ef 83F001   		xorl	$1, %eax
 760 00f2 84C0     		testb	%al, %al
 761 00f4 743A     		je	.L23
 762              		.loc 6 21 5 is_stmt 0 discriminator 3
 763 00f6 E8000000 		call	_ZN8UnitTest11CurrentTest7ResultsEv@PLT
 763      00
 764 00fb 488B18   		movq	(%rax), %rbx
 765 00fe E8000000 		call	_ZN8UnitTest11CurrentTest7DetailsEv@PLT
 765      00
 766              		.loc 6 21 5 discriminator 5
 767 0103 488B08   		movq	(%rax), %rcx
 768 0106 488D45C0 		leaq	-64(%rbp), %rax
 769 010a BA150000 		movl	$21, %edx
 769      00
 770 010f 4889CE   		movq	%rcx, %rsi
 771 0112 4889C7   		movq	%rax, %rdi
 772 0115 E8000000 		call	_ZN8UnitTest11TestDetailsC1ERKS0_i@PLT
 772      00
 773              		.loc 6 21 5 discriminator 9
 774 011a 488D45C0 		leaq	-64(%rbp), %rax
 775 011e 488D1500 		leaq	.LC5(%rip), %rdx
 775      000000
 776 0125 4889C6   		movq	%rax, %rsi
 777 0128 4889DF   		movq	%rbx, %rdi
 778 012b E8000000 		call	_ZN8UnitTest11TestResults13OnTestFailureERKNS_11TestDetailsEPKc@PLT
 778      00
 779              	.LEHE4:
 780              	.L23:
  22:TestTestMacros.cpp ****     CHECK(list1.GetHead()->next == 0);
 781              		.loc 6 22 5 is_stmt 1
 782 0130 488D0500 		leaq	_ZN12_GLOBAL__N_15list1E(%rip), %rax
 782      000000
 783 0137 4889C7   		movq	%rax, %rdi
 784              	.LEHB5:
 785 013a E8000000 		call	_ZNK8UnitTest8TestList7GetHeadEv@PLT
 785      00
 786 013f 488B4028 		movq	40(%rax), %rax
 787 0143 4885C0   		testq	%rax, %rax
 788 0146 0F94C0   		sete	%al
 789 0149 0FB6C0   		movzbl	%al, %eax
 790 014c 89C7     		movl	%eax, %edi
 791 014e E8000000 		call	_ZN8UnitTest5CheckIbEEbT_
 791      00
 792 0153 83F001   		xorl	$1, %eax
 793 0156 84C0     		testb	%al, %al
 794 0158 0F840A01 		je	.L34
 794      0000
 795              		.loc 6 22 5 is_stmt 0 discriminator 3
 796 015e E8000000 		call	_ZN8UnitTest11CurrentTest7ResultsEv@PLT
 796      00
 797 0163 488B18   		movq	(%rax), %rbx
 798 0166 E8000000 		call	_ZN8UnitTest11CurrentTest7DetailsEv@PLT
 798      00
 799              		.loc 6 22 5 discriminator 5
 800 016b 488B08   		movq	(%rax), %rcx
 801 016e 488D45C0 		leaq	-64(%rbp), %rax
 802 0172 BA160000 		movl	$22, %edx
 802      00
 803 0177 4889CE   		movq	%rcx, %rsi
 804 017a 4889C7   		movq	%rax, %rdi
 805 017d E8000000 		call	_ZN8UnitTest11TestDetailsC1ERKS0_i@PLT
 805      00
 806              		.loc 6 22 5 discriminator 9
 807 0182 488D45C0 		leaq	-64(%rbp), %rax
 808 0186 488D1500 		leaq	.LC6(%rip), %rdx
 808      000000
 809 018d 4889C6   		movq	%rax, %rsi
 810 0190 4889DF   		movq	%rbx, %rdi
 811 0193 E8000000 		call	_ZN8UnitTest11TestResults13OnTestFailureERKNS_11TestDetailsEPKc@PLT
 811      00
 812              	.LEHE5:
  23:TestTestMacros.cpp **** }
 813              		.loc 6 23 1 is_stmt 1
 814 0198 E9CB0000 		jmp	.L34
 814      00
 815              	.L30:
 816 019d F30F1EFA 		endbr64
  21:TestTestMacros.cpp ****     CHECK(list1.GetHead() != 0);
 817              		.loc 6 21 5
 818 01a1 4889C7   		movq	%rax, %rdi
 819 01a4 E8000000 		call	__cxa_begin_catch@PLT
 819      00
 820              	.LEHB6:
 821 01a9 E8000000 		call	_ZN8UnitTest11CurrentTest7ResultsEv@PLT
 821      00
  21:TestTestMacros.cpp ****     CHECK(list1.GetHead() != 0);
 822              		.loc 6 21 5 is_stmt 0 discriminator 8
 823 01ae 488B18   		movq	(%rax), %rbx
 824 01b1 E8000000 		call	_ZN8UnitTest11CurrentTest7DetailsEv@PLT
 824      00
  21:TestTestMacros.cpp ****     CHECK(list1.GetHead() != 0);
 825              		.loc 6 21 5 discriminator 14
 826 01b6 488B08   		movq	(%rax), %rcx
 827 01b9 488D45C0 		leaq	-64(%rbp), %rax
 828 01bd BA150000 		movl	$21, %edx
 828      00
 829 01c2 4889CE   		movq	%rcx, %rsi
 830 01c5 4889C7   		movq	%rax, %rdi
 831 01c8 E8000000 		call	_ZN8UnitTest11TestDetailsC1ERKS0_i@PLT
 831      00
  21:TestTestMacros.cpp ****     CHECK(list1.GetHead() != 0);
 832              		.loc 6 21 5 discriminator 18
 833 01cd 488D45C0 		leaq	-64(%rbp), %rax
 834 01d1 488D1500 		leaq	.LC7(%rip), %rdx
 834      000000
 835 01d8 4889C6   		movq	%rax, %rsi
 836 01db 4889DF   		movq	%rbx, %rdi
 837 01de E8000000 		call	_ZN8UnitTest11TestResults13OnTestFailureERKNS_11TestDetailsEPKc@PLT
 837      00
 838              	.LEHE6:
 839              	.LEHB7:
  21:TestTestMacros.cpp ****     CHECK(list1.GetHead() != 0);
 840              		.loc 6 21 5 discriminator 20
 841 01e3 E8000000 		call	__cxa_end_catch@PLT
 841      00
 842              	.LEHE7:
 843 01e8 E943FFFF 		jmp	.L23
 843      FF
 844              	.L31:
 845 01ed F30F1EFA 		endbr64
  21:TestTestMacros.cpp ****     CHECK(list1.GetHead() != 0);
 846              		.loc 6 21 5
 847 01f1 4889C3   		movq	%rax, %rbx
 848 01f4 E8000000 		call	__cxa_end_catch@PLT
 848      00
 849 01f9 4889D8   		movq	%rbx, %rax
 850 01fc 4889C7   		movq	%rax, %rdi
 851              	.LEHB8:
 852 01ff E8000000 		call	_Unwind_Resume@PLT
 852      00
 853              	.LEHE8:
 854              	.L32:
 855 0204 F30F1EFA 		endbr64
  22:TestTestMacros.cpp ****     CHECK(list1.GetHead()->next == 0);
 856              		.loc 6 22 5 is_stmt 1
 857 0208 4889C7   		movq	%rax, %rdi
 858 020b E8000000 		call	__cxa_begin_catch@PLT
 858      00
 859              	.LEHB9:
 860 0210 E8000000 		call	_ZN8UnitTest11CurrentTest7ResultsEv@PLT
 860      00
  22:TestTestMacros.cpp ****     CHECK(list1.GetHead()->next == 0);
 861              		.loc 6 22 5 is_stmt 0 discriminator 8
 862 0215 488B18   		movq	(%rax), %rbx
 863 0218 E8000000 		call	_ZN8UnitTest11CurrentTest7DetailsEv@PLT
 863      00
  22:TestTestMacros.cpp ****     CHECK(list1.GetHead()->next == 0);
 864              		.loc 6 22 5 discriminator 14
 865 021d 488B08   		movq	(%rax), %rcx
 866 0220 488D45C0 		leaq	-64(%rbp), %rax
 867 0224 BA160000 		movl	$22, %edx
 867      00
 868 0229 4889CE   		movq	%rcx, %rsi
 869 022c 4889C7   		movq	%rax, %rdi
 870 022f E8000000 		call	_ZN8UnitTest11TestDetailsC1ERKS0_i@PLT
 870      00
  22:TestTestMacros.cpp ****     CHECK(list1.GetHead()->next == 0);
 871              		.loc 6 22 5 discriminator 18
 872 0234 488D45C0 		leaq	-64(%rbp), %rax
 873 0238 488D1500 		leaq	.LC8(%rip), %rdx
 873      000000
 874 023f 4889C6   		movq	%rax, %rsi
 875 0242 4889DF   		movq	%rbx, %rdi
 876 0245 E8000000 		call	_ZN8UnitTest11TestResults13OnTestFailureERKNS_11TestDetailsEPKc@PLT
 876      00
 877              	.LEHE9:
 878              	.LEHB10:
  22:TestTestMacros.cpp ****     CHECK(list1.GetHead()->next == 0);
 879              		.loc 6 22 5 discriminator 20
 880 024a E8000000 		call	__cxa_end_catch@PLT
 880      00
 881              	.LEHE10:
 882              		.loc 6 23 1 is_stmt 1 discriminator 20
 883 024f EB17     		jmp	.L34
 884              	.L33:
 885 0251 F30F1EFA 		endbr64
  22:TestTestMacros.cpp ****     CHECK(list1.GetHead()->next == 0);
 886              		.loc 6 22 5
 887 0255 4889C3   		movq	%rax, %rbx
 888 0258 E8000000 		call	__cxa_end_catch@PLT
 888      00
 889 025d 4889D8   		movq	%rbx, %rax
 890 0260 4889C7   		movq	%rax, %rdi
 891              	.LEHB11:
 892 0263 E8000000 		call	_Unwind_Resume@PLT
 892      00
 893              	.LEHE11:
 894              	.L34:
 895              		.loc 6 23 1
 896 0268 90       		nop
 897 0269 488B45E8 		movq	-24(%rbp), %rax
 898 026d 64482B04 		subq	%fs:40, %rax
 898      25280000 
 898      00
 899 0276 7405     		je	.L29
 900 0278 E8000000 		call	__stack_chk_fail@PLT
 900      00
 901              	.L29:
 902 027d 488B5DF8 		movq	-8(%rbp), %rbx
 903 0281 C9       		leave
 904              		.cfi_def_cfa 7, 8
 905 0282 C3       		ret
 906              		.cfi_endproc
 907              	.LFE1167:
 908              		.section	.gcc_except_table,"a",@progbits
 909              		.align 4
 910              	.LLSDA1167:
 911 0000 FF       		.byte	0xff
 912 0001 9B       		.byte	0x9b
 913 0002 35       		.uleb128 .LLSDATT1167-.LLSDATTD1167
 914              	.LLSDATTD1167:
 915 0003 01       		.byte	0x1
 916 0004 2B       		.uleb128 .LLSDACSE1167-.LLSDACSB1167
 917              	.LLSDACSB1167:
 918 0005 2A       		.uleb128 .LEHB4-.LFB1167
 919 0006 56       		.uleb128 .LEHE4-.LEHB4
 920 0007 ED01     		.uleb128 .L30-.LFB1167
 921 0009 01       		.uleb128 0x1
 922 000a 8A01     		.uleb128 .LEHB5-.LFB1167
 923 000c 5E       		.uleb128 .LEHE5-.LEHB5
 924 000d D402     		.uleb128 .L32-.LFB1167
 925 000f 01       		.uleb128 0x1
 926 0010 F901     		.uleb128 .LEHB6-.LFB1167
 927 0012 3A       		.uleb128 .LEHE6-.LEHB6
 928 0013 BD02     		.uleb128 .L31-.LFB1167
 929 0015 00       		.uleb128 0
 930 0016 B302     		.uleb128 .LEHB7-.LFB1167
 931 0018 05       		.uleb128 .LEHE7-.LEHB7
 932 0019 00       		.uleb128 0
 933 001a 00       		.uleb128 0
 934 001b CF02     		.uleb128 .LEHB8-.LFB1167
 935 001d 05       		.uleb128 .LEHE8-.LEHB8
 936 001e 00       		.uleb128 0
 937 001f 00       		.uleb128 0
 938 0020 E002     		.uleb128 .LEHB9-.LFB1167
 939 0022 3A       		.uleb128 .LEHE9-.LEHB9
 940 0023 A103     		.uleb128 .L33-.LFB1167
 941 0025 00       		.uleb128 0
 942 0026 9A03     		.uleb128 .LEHB10-.LFB1167
 943 0028 05       		.uleb128 .LEHE10-.LEHB10
 944 0029 00       		.uleb128 0
 945 002a 00       		.uleb128 0
 946 002b B303     		.uleb128 .LEHB11-.LFB1167
 947 002d 05       		.uleb128 .LEHE11-.LEHB11
 948 002e 00       		.uleb128 0
 949 002f 00       		.uleb128 0
 950              	.LLSDACSE1167:
 951 0030 01       		.byte	0x1
 952 0031 00       		.byte	0
 953 0032 0000     		.align 4
 954 0034 00000000 		.long	0
 955              	
 956              	.LLSDATT1167:
 957              		.text
 959              		.section	.rodata
 960              	.LC9:
 961 00f9 4F6F7073 		.string	"Oops"
 961      00
 962              		.text
 963 0283 90       		.align 2
 965              	_ZN12_GLOBAL__N_115ThrowingThingieC2Ev:
 966              	.LFB1169:
  24:TestTestMacros.cpp **** 
  25:TestTestMacros.cpp **** struct ThrowingThingie
  26:TestTestMacros.cpp **** {
  27:TestTestMacros.cpp ****     ThrowingThingie() : dummy(false)
 967              		.loc 6 27 5
 968              		.cfi_startproc
 969 0284 55       		pushq	%rbp
 970              		.cfi_def_cfa_offset 16
 971              		.cfi_offset 6, -16
 972 0285 4889E5   		movq	%rsp, %rbp
 973              		.cfi_def_cfa_register 6
 974 0288 4883EC10 		subq	$16, %rsp
 975 028c 48897DF8 		movq	%rdi, -8(%rbp)
 976              	.LBB10:
 977              		.loc 6 27 25
 978 0290 488B45F8 		movq	-8(%rbp), %rax
 979 0294 C60000   		movb	$0, (%rax)
  28:TestTestMacros.cpp ****     {
  29:TestTestMacros.cpp ****         if (!dummy)
 980              		.loc 6 29 14
 981 0297 488B45F8 		movq	-8(%rbp), %rax
 982 029b 0FB600   		movzbl	(%rax), %eax
 983              		.loc 6 29 13
 984 029e 83F001   		xorl	$1, %eax
 985              		.loc 6 29 9
 986 02a1 84C0     		testb	%al, %al
 987 02a3 742B     		je	.L37
  30:TestTestMacros.cpp ****             throw "Oops";
 988              		.loc 6 30 19
 989 02a5 BF080000 		movl	$8, %edi
 989      00
 990 02aa E8000000 		call	__cxa_allocate_exception@PLT
 990      00
 991              		.loc 6 30 13
 992 02af 488D1500 		leaq	.LC9(%rip), %rdx
 992      000000
 993 02b6 488910   		movq	%rdx, (%rax)
 994              		.loc 6 30 19
 995 02b9 BA000000 		movl	$0, %edx
 995      00
 996 02be 488D0D00 		leaq	_ZTIPKc(%rip), %rcx
 996      000000
 997 02c5 4889CE   		movq	%rcx, %rsi
 998 02c8 4889C7   		movq	%rax, %rdi
 999 02cb E8000000 		call	__cxa_throw@PLT
 999      00
 1000              	.L37:
 1001              	.LBE10:
  31:TestTestMacros.cpp ****     }
 1002              		.loc 6 31 5
 1003 02d0 90       		nop
 1004 02d1 C9       		leave
 1005              		.cfi_def_cfa 7, 8
 1006 02d2 C3       		ret
 1007              		.cfi_endproc
 1008              	.LFE1169:
 1010              		.local	_ZN12_GLOBAL__N_15list2E
 1011              		.comm	_ZN12_GLOBAL__N_15list2E,16,16
 1012 02d3 90       		.align 2
 1014              	_ZN12_GLOBAL__N_134ThrowingThingieDummyTestNameHelperC2ERKN8UnitTest11TestDetailsE:
 1015              	.LFB1172:
  32:TestTestMacros.cpp **** 
  33:TestTestMacros.cpp ****     bool dummy;
  34:TestTestMacros.cpp **** };
  35:TestTestMacros.cpp **** 
  36:TestTestMacros.cpp **** TestList list2;
  37:TestTestMacros.cpp **** TEST_FIXTURE_EX(ThrowingThingie, DummyTestName, list2)
 1016              		.loc 6 37 1
 1017              		.cfi_startproc
 1018 02d4 55       		pushq	%rbp
 1019              		.cfi_def_cfa_offset 16
 1020              		.cfi_offset 6, -16
 1021 02d5 4889E5   		movq	%rsp, %rbp
 1022              		.cfi_def_cfa_register 6
 1023 02d8 4883EC10 		subq	$16, %rsp
 1024 02dc 48897DF8 		movq	%rdi, -8(%rbp)
 1025 02e0 488975F0 		movq	%rsi, -16(%rbp)
 1026              	.LBB11:
 1027              		.loc 6 37 1
 1028 02e4 488B45F8 		movq	-8(%rbp), %rax
 1029 02e8 4889C7   		movq	%rax, %rdi
 1030 02eb E894FFFF 		call	_ZN12_GLOBAL__N_115ThrowingThingieC2Ev
 1030      FF
 1031 02f0 488B45F8 		movq	-8(%rbp), %rax
 1032 02f4 488B55F0 		movq	-16(%rbp), %rdx
 1033 02f8 48895008 		movq	%rdx, 8(%rax)
 1034              	.LBE11:
 1035 02fc 90       		nop
 1036 02fd C9       		leave
 1037              		.cfi_def_cfa 7, 8
 1038 02fe C3       		ret
 1039              		.cfi_endproc
 1040              	.LFE1172:
 1042              		.set	_ZN12_GLOBAL__N_134ThrowingThingieDummyTestNameHelperC1ERKN8UnitTest11TestDetailsE,_ZN12_GLOB
 1043              		.section	.rodata
 1044              	.LC10:
 1045 00fe 44756D6D 		.string	"DummyTestName"
 1045      79546573 
 1045      744E616D 
 1045      6500
 1046              		.text
 1047 02ff 90       		.align 2
 1049              	_ZN12_GLOBAL__N_132TestThrowingThingieDummyTestNameC2Ev:
 1050              	.LFB1175:
 1051              		.loc 6 37 1
 1052              		.cfi_startproc
 1053 0300 55       		pushq	%rbp
 1054              		.cfi_def_cfa_offset 16
 1055              		.cfi_offset 6, -16
 1056 0301 4889E5   		movq	%rsp, %rbp
 1057              		.cfi_def_cfa_register 6
 1058 0304 53       		pushq	%rbx
 1059 0305 4883EC18 		subq	$24, %rsp
 1060              		.cfi_offset 3, -24
 1061 0309 48897DE8 		movq	%rdi, -24(%rbp)
 1062              	.LBB12:
 1063              		.loc 6 37 1
 1064 030d 488B5DE8 		movq	-24(%rbp), %rbx
 1065 0311 E8000000 		call	_ZN13UnitTestSuite12GetSuiteNameEv
 1065      00
 1066 0316 4889C2   		movq	%rax, %rdx
 1067 0319 41B82500 		movl	$37, %r8d
 1067      0000
 1068 031f 488D0500 		leaq	.LC2(%rip), %rax
 1068      000000
 1069 0326 4889C1   		movq	%rax, %rcx
 1070 0329 488D0500 		leaq	.LC10(%rip), %rax
 1070      000000
 1071 0330 4889C6   		movq	%rax, %rsi
 1072 0333 4889DF   		movq	%rbx, %rdi
 1073 0336 E8000000 		call	_ZN8UnitTest4TestC2EPKcS2_S2_i@PLT
 1073      00
 1074 033b 488D1500 		leaq	16+_ZTVN12_GLOBAL__N_132TestThrowingThingieDummyTestNameE(%rip), %rdx
 1074      000000
 1075 0342 488B45E8 		movq	-24(%rbp), %rax
 1076 0346 488910   		movq	%rdx, (%rax)
 1077              	.LBE12:
 1078 0349 90       		nop
 1079 034a 488B5DF8 		movq	-8(%rbp), %rbx
 1080 034e C9       		leave
 1081              		.cfi_def_cfa 7, 8
 1082 034f C3       		ret
 1083              		.cfi_endproc
 1084              	.LFE1175:
 1086              		.set	_ZN12_GLOBAL__N_132TestThrowingThingieDummyTestNameC1Ev,_ZN12_GLOBAL__N_132TestThrowingThingi
 1087              		.local	_ZN12_GLOBAL__N_140testThrowingThingieDummyTestNameInstanceE
 1088              		.comm	_ZN12_GLOBAL__N_140testThrowingThingieDummyTestNameInstanceE,56,32
 1089              		.local	_ZN12_GLOBAL__N_133adderThrowingThingieDummyTestNameE
 1090              		.comm	_ZN12_GLOBAL__N_133adderThrowingThingieDummyTestNameE,1,1
 1091              		.section	.rodata
 1092              	.LC11:
 1093 010c 556E6861 		.string	"Unhandled exception: "
 1093      6E646C65 
 1093      64206578 
 1093      63657074 
 1093      696F6E3A 
 1094 0122 00000000 		.align 8
 1094      0000
 1095              	.LC12:
 1096 0128 556E6861 		.string	"Unhandled exception while destroying fixture ThrowingThingie"
 1096      6E646C65 
 1096      64206578 
 1096      63657074 
 1096      696F6E20 
 1097 0165 000000   		.align 8
 1098              	.LC13:
 1099 0168 556E6861 		.string	"Unhandled exception while constructing fixture ThrowingThingie"
 1099      6E646C65 
 1099      64206578 
 1099      63657074 
 1099      696F6E20 
 1100              		.text
 1101              		.align 2
 1103              	_ZNK12_GLOBAL__N_132TestThrowingThingieDummyTestName7RunImplEv:
 1104              	.LFB1177:
 1105              		.loc 6 37 1
 1106              		.cfi_startproc
 1107              		.cfi_personality 0x9b,DW.ref.__gxx_personality_v0
 1108              		.cfi_lsda 0x1b,.LLSDA1177
 1109 0350 F30F1EFA 		endbr64
 1110 0354 55       		pushq	%rbp
 1111              		.cfi_def_cfa_offset 16
 1112              		.cfi_offset 6, -16
 1113 0355 4889E5   		movq	%rsp, %rbp
 1114              		.cfi_def_cfa_register 6
 1115 0358 4155     		pushq	%r13
 1116 035a 4154     		pushq	%r12
 1117 035c 53       		pushq	%rbx
 1118 035d 4881ECF8 		subq	$504, %rsp
 1118      010000
 1119              		.cfi_offset 13, -24
 1120              		.cfi_offset 12, -32
 1121              		.cfi_offset 3, -40
 1122 0364 4889BDF8 		movq	%rdi, -520(%rbp)
 1122      FDFFFF
 1123              		.loc 6 37 1
 1124 036b 64488B04 		movq	%fs:40, %rax
 1124      25280000 
 1124      00
 1125 0374 488945D8 		movq	%rax, -40(%rbp)
 1126 0378 31C0     		xorl	%eax, %eax
 1127 037a C6850FFE 		movb	$0, -497(%rbp)
 1127      FFFF00
 1128              	.LBB13:
 1129 0381 488B85F8 		movq	-520(%rbp), %rax
 1129      FDFFFF
 1130 0388 488D5008 		leaq	8(%rax), %rdx
 1131 038c 488D8520 		leaq	-480(%rbp), %rax
 1131      FEFFFF
 1132 0393 4889D6   		movq	%rdx, %rsi
 1133 0396 4889C7   		movq	%rax, %rdi
 1134              	.LEHB12:
 1135 0399 E836FFFF 		call	_ZN12_GLOBAL__N_134ThrowingThingieDummyTestNameHelperC1ERKN8UnitTest11TestDetailsE
 1135      FF
 1136              		.loc 6 37 1 is_stmt 0 discriminator 1
 1137 039e C6850FFE 		movb	$1, -497(%rbp)
 1137      FFFF01
 1138 03a5 488B85F8 		movq	-520(%rbp), %rax
 1138      FDFFFF
 1139 03ac 488D5008 		leaq	8(%rax), %rdx
 1140 03b0 488D8520 		leaq	-480(%rbp), %rax
 1140      FEFFFF
 1141 03b7 4889D6   		movq	%rdx, %rsi
 1142 03ba 4889C7   		movq	%rax, %rdi
 1143 03bd E80F2F00 		call	_ZN8UnitTest11ExecuteTestIN12_GLOBAL__N_134ThrowingThingieDummyTestNameHelperEEEvRT_RKNS_11Te
 1143      00
 1144              	.LEHE12:
 1145              	.LBE13:
 1146              		.loc 6 37 1
 1147 03c2 E9630200 		jmp	.L40
 1147      00
 1148              	.L53:
 1149 03c7 F30F1EFA 		endbr64
 1150 03cb 4883FA01 		cmpq	$1, %rdx
 1151 03cf 740F     		je	.L42
 1152 03d1 4883FA02 		cmpq	$2, %rdx
 1153 03d5 0F84A700 		je	.L43
 1153      0000
 1154 03db E94D0100 		jmp	.L58
 1154      00
 1155              	.L42:
 1156              	.LBB14:
 1157              		.loc 6 37 1 discriminator 2
 1158 03e0 4889C7   		movq	%rax, %rdi
 1159 03e3 E8000000 		call	__cxa_begin_catch@PLT
 1159      00
 1160 03e8 48898518 		movq	%rax, -488(%rbp)
 1160      FEFFFF
 1161              	.LEHB13:
 1162 03ef E8000000 		call	_ZN8UnitTest11CurrentTest7ResultsEv@PLT
 1162      00
 1163 03f4 488B18   		movq	(%rax), %rbx
 1164 03f7 488B8518 		movq	-488(%rbp), %rax
 1164      FEFFFF
 1165 03fe 488B00   		movq	(%rax), %rax
 1166 0401 4883C010 		addq	$16, %rax
 1167 0405 488B10   		movq	(%rax), %rdx
 1168 0408 488B8518 		movq	-488(%rbp), %rax
 1168      FEFFFF
 1169 040f 4889C7   		movq	%rax, %rdi
 1170 0412 FFD2     		call	*%rdx
 1171              	.LVL0:
 1172 0414 4989C4   		movq	%rax, %r12
 1173 0417 488B8518 		movq	-488(%rbp), %rax
 1173      FEFFFF
 1174 041e 4889C7   		movq	%rax, %rdi
 1175 0421 E8000000 		call	_ZNK8UnitTest15AssertException10LineNumberEv@PLT
 1175      00
 1176              		.loc 6 37 1 discriminator 6
 1177 0426 4189C5   		movl	%eax, %r13d
 1178 0429 488B8518 		movq	-488(%rbp), %rax
 1178      FEFFFF
 1179 0430 4889C7   		movq	%rax, %rdi
 1180 0433 E8000000 		call	_ZNK8UnitTest15AssertException8FilenameEv@PLT
 1180      00
 1181              		.loc 6 37 1 discriminator 8
 1182 0438 4889C1   		movq	%rax, %rcx
 1183 043b 488B85F8 		movq	-520(%rbp), %rax
 1183      FDFFFF
 1184 0442 488B5008 		movq	8(%rax), %rdx
 1185 0446 488B85F8 		movq	-520(%rbp), %rax
 1185      FDFFFF
 1186 044d 488B7010 		movq	16(%rax), %rsi
 1187 0451 488D8520 		leaq	-480(%rbp), %rax
 1187      FEFFFF
 1188 0458 4589E8   		movl	%r13d, %r8d
 1189 045b 4889C7   		movq	%rax, %rdi
 1190 045e E8000000 		call	_ZN8UnitTest11TestDetailsC1EPKcS2_S2_i@PLT
 1190      00
 1191              		.loc 6 37 1 discriminator 12
 1192 0463 488D8520 		leaq	-480(%rbp), %rax
 1192      FEFFFF
 1193 046a 4C89E2   		movq	%r12, %rdx
 1194 046d 4889C6   		movq	%rax, %rsi
 1195 0470 4889DF   		movq	%rbx, %rdi
 1196 0473 E8000000 		call	_ZN8UnitTest11TestResults13OnTestFailureERKNS_11TestDetailsEPKc@PLT
 1196      00
 1197              	.LEHE13:
 1198              		.loc 6 37 1 discriminator 14
 1199 0478 E8000000 		call	__cxa_end_catch@PLT
 1199      00
 1200              	.LBE14:
 1201 047d E9A80100 		jmp	.L40
 1201      00
 1202              	.L43:
 1203              	.LBB15:
 1204              		.loc 6 37 1 discriminator 3
 1205 0482 4889C7   		movq	%rax, %rdi
 1206 0485 E8000000 		call	__cxa_begin_catch@PLT
 1206      00
 1207 048a 48898510 		movq	%rax, -496(%rbp)
 1207      FEFFFF
 1208              	.LBB16:
 1209 0491 488D8540 		leaq	-448(%rbp), %rax
 1209      FEFFFF
 1210 0498 4889C7   		movq	%rax, %rdi
 1211              	.LEHB14:
 1212 049b E8000000 		call	_ZN8UnitTest15MemoryOutStreamC1Ev
 1212      00
 1213              	.LEHE14:
 1214              		.loc 6 37 1 discriminator 16
 1215 04a0 488D8540 		leaq	-448(%rbp), %rax
 1215      FEFFFF
 1216 04a7 488D1500 		leaq	.LC11(%rip), %rdx
 1216      000000
 1217 04ae 4889D6   		movq	%rdx, %rsi
 1218 04b1 4889C7   		movq	%rax, %rdi
 1219              	.LEHB15:
 1220 04b4 E8000000 		call	_ZStlsISt11char_traitsIcEERSt13basic_ostreamIcT_ES5_PKc@PLT
 1220      00
 1221 04b9 4889C3   		movq	%rax, %rbx
 1222 04bc 488B8510 		movq	-496(%rbp), %rax
 1222      FEFFFF
 1223 04c3 488B00   		movq	(%rax), %rax
 1224 04c6 4883C010 		addq	$16, %rax
 1225 04ca 488B10   		movq	(%rax), %rdx
 1226 04cd 488B8510 		movq	-496(%rbp), %rax
 1226      FEFFFF
 1227 04d4 4889C7   		movq	%rax, %rdi
 1228 04d7 FFD2     		call	*%rdx
 1229              	.LVL1:
 1230 04d9 4889C6   		movq	%rax, %rsi
 1231 04dc 4889DF   		movq	%rbx, %rdi
 1232 04df E8000000 		call	_ZStlsISt11char_traitsIcEERSt13basic_ostreamIcT_ES5_PKc@PLT
 1232      00
 1233              		.loc 6 37 1 discriminator 20
 1234 04e4 E8000000 		call	_ZN8UnitTest11CurrentTest7ResultsEv@PLT
 1234      00
 1235 04e9 488B18   		movq	(%rax), %rbx
 1236 04ec 488D8540 		leaq	-448(%rbp), %rax
 1236      FEFFFF
 1237 04f3 4889C7   		movq	%rax, %rdi
 1238 04f6 E8000000 		call	_ZNK8UnitTest15MemoryOutStream7GetTextEv@PLT
 1238      00
 1239              		.loc 6 37 1 discriminator 22
 1240 04fb 4889C2   		movq	%rax, %rdx
 1241 04fe 488B85F8 		movq	-520(%rbp), %rax
 1241      FDFFFF
 1242 0505 4883C008 		addq	$8, %rax
 1243 0509 4889C6   		movq	%rax, %rsi
 1244 050c 4889DF   		movq	%rbx, %rdi
 1245 050f E8000000 		call	_ZN8UnitTest11TestResults13OnTestFailureERKNS_11TestDetailsEPKc@PLT
 1245      00
 1246              	.LEHE15:
 1247              		.loc 6 37 1 discriminator 26
 1248 0514 488D8540 		leaq	-448(%rbp), %rax
 1248      FEFFFF
 1249 051b 4889C7   		movq	%rax, %rdi
 1250              	.LEHB16:
 1251 051e E8000000 		call	_ZN8UnitTest15MemoryOutStreamD1Ev
 1251      00
 1252              	.LEHE16:
 1253              	.LBE16:
 1254              		.loc 6 37 1 discriminator 27
 1255 0523 E8000000 		call	__cxa_end_catch@PLT
 1255      00
 1256              	.LBE15:
 1257 0528 E9FD0000 		jmp	.L40
 1257      00
 1258              	.L58:
 1259              		.loc 6 37 1 discriminator 4
 1260 052d 4889C7   		movq	%rax, %rdi
 1261 0530 E8000000 		call	__cxa_begin_catch@PLT
 1261      00
 1262 0535 80BD0FFE 		cmpb	$0, -497(%rbp)
 1262      FFFF00
 1263 053c 7445     		je	.L46
 1264              	.LEHB17:
 1265              		.loc 6 37 1 discriminator 29
 1266 053e E8000000 		call	_ZN8UnitTest11CurrentTest7ResultsEv@PLT
 1266      00
 1267 0543 488B18   		movq	(%rax), %rbx
 1268 0546 488B85F8 		movq	-520(%rbp), %rax
 1268      FDFFFF
 1269 054d 488D4808 		leaq	8(%rax), %rcx
 1270 0551 488D8520 		leaq	-480(%rbp), %rax
 1270      FEFFFF
 1271 0558 BA250000 		movl	$37, %edx
 1271      00
 1272 055d 4889CE   		movq	%rcx, %rsi
 1273 0560 4889C7   		movq	%rax, %rdi
 1274 0563 E8000000 		call	_ZN8UnitTest11TestDetailsC1ERKS0_i@PLT
 1274      00
 1275              		.loc 6 37 1 discriminator 34
 1276 0568 488D8520 		leaq	-480(%rbp), %rax
 1276      FEFFFF
 1277 056f 488D1500 		leaq	.LC12(%rip), %rdx
 1277      000000
 1278 0576 4889C6   		movq	%rax, %rsi
 1279 0579 4889DF   		movq	%rbx, %rdi
 1280 057c E8000000 		call	_ZN8UnitTest11TestResults13OnTestFailureERKNS_11TestDetailsEPKc@PLT
 1280      00
 1281 0581 EB43     		jmp	.L47
 1282              	.L46:
 1283              		.loc 6 37 1 discriminator 30
 1284 0583 E8000000 		call	_ZN8UnitTest11CurrentTest7ResultsEv@PLT
 1284      00
 1285 0588 488B18   		movq	(%rax), %rbx
 1286 058b 488B85F8 		movq	-520(%rbp), %rax
 1286      FDFFFF
 1287 0592 488D4808 		leaq	8(%rax), %rcx
 1288 0596 488D8520 		leaq	-480(%rbp), %rax
 1288      FEFFFF
 1289 059d BA250000 		movl	$37, %edx
 1289      00
 1290 05a2 4889CE   		movq	%rcx, %rsi
 1291 05a5 4889C7   		movq	%rax, %rdi
 1292 05a8 E8000000 		call	_ZN8UnitTest11TestDetailsC1ERKS0_i@PLT
 1292      00
 1293              		.loc 6 37 1 discriminator 41
 1294 05ad 488D8520 		leaq	-480(%rbp), %rax
 1294      FEFFFF
 1295 05b4 488D1500 		leaq	.LC13(%rip), %rdx
 1295      000000
 1296 05bb 4889C6   		movq	%rax, %rsi
 1297 05be 4889DF   		movq	%rbx, %rdi
 1298 05c1 E8000000 		call	_ZN8UnitTest11TestResults13OnTestFailureERKNS_11TestDetailsEPKc@PLT
 1298      00
 1299              	.LEHE17:
 1300              	.L47:
 1301              	.LEHB18:
 1302              		.loc 6 37 1 discriminator 44
 1303 05c6 E8000000 		call	__cxa_end_catch@PLT
 1303      00
 1304 05cb EB5D     		jmp	.L40
 1305              	.L54:
 1306 05cd F30F1EFA 		endbr64
 1307              	.LBB18:
 1308              		.loc 6 37 1
 1309 05d1 4889C3   		movq	%rax, %rbx
 1310 05d4 E8000000 		call	__cxa_end_catch@PLT
 1310      00
 1311 05d9 4889D8   		movq	%rbx, %rax
 1312 05dc 4889C7   		movq	%rax, %rdi
 1313 05df E8000000 		call	_Unwind_Resume@PLT
 1313      00
 1314              	.LEHE18:
 1315              	.L56:
 1316 05e4 F30F1EFA 		endbr64
 1317              	.LBE18:
 1318              	.LBB19:
 1319              	.LBB17:
 1320 05e8 4889C3   		movq	%rax, %rbx
 1321 05eb 488D8540 		leaq	-448(%rbp), %rax
 1321      FEFFFF
 1322 05f2 4889C7   		movq	%rax, %rdi
 1323 05f5 E8000000 		call	_ZN8UnitTest15MemoryOutStreamD1Ev
 1323      00
 1324 05fa EB07     		jmp	.L50
 1325              	.L55:
 1326 05fc F30F1EFA 		endbr64
 1327              	.LBE17:
 1328 0600 4889C3   		movq	%rax, %rbx
 1329              	.L50:
 1330 0603 E8000000 		call	__cxa_end_catch@PLT
 1330      00
 1331 0608 4889D8   		movq	%rbx, %rax
 1332 060b 4889C7   		movq	%rax, %rdi
 1333              	.LEHB19:
 1334 060e E8000000 		call	_Unwind_Resume@PLT
 1334      00
 1335              	.LEHE19:
 1336              	.L57:
 1337 0613 F30F1EFA 		endbr64
 1338              	.LBE19:
 1339 0617 4889C3   		movq	%rax, %rbx
 1340 061a E8000000 		call	__cxa_end_catch@PLT
 1340      00
 1341 061f 4889D8   		movq	%rbx, %rax
 1342 0622 4889C7   		movq	%rax, %rdi
 1343              	.LEHB20:
 1344 0625 E8000000 		call	_Unwind_Resume@PLT
 1344      00
 1345              	.LEHE20:
 1346              	.L40:
 1347 062a 488B45D8 		movq	-40(%rbp), %rax
 1348 062e 64482B04 		subq	%fs:40, %rax
 1348      25280000 
 1348      00
 1349 0637 7405     		je	.L52
 1350 0639 E8000000 		call	__stack_chk_fail@PLT
 1350      00
 1351              	.L52:
 1352 063e 4881C4F8 		addq	$504, %rsp
 1352      010000
 1353 0645 5B       		popq	%rbx
 1354 0646 415C     		popq	%r12
 1355 0648 415D     		popq	%r13
 1356 064a 5D       		popq	%rbp
 1357              		.cfi_def_cfa 7, 8
 1358 064b C3       		ret
 1359              		.cfi_endproc
 1360              	.LFE1177:
 1361              		.section	.gcc_except_table
 1362              		.align 4
 1363              	.LLSDA1177:
 1364 0038 FF       		.byte	0xff
 1365 0039 9B       		.byte	0x9b
 1366 003a 49       		.uleb128 .LLSDATT1177-.LLSDATTD1177
 1367              	.LLSDATTD1177:
 1368 003b 01       		.byte	0x1
 1369 003c 33       		.uleb128 .LLSDACSE1177-.LLSDACSB1177
 1370              	.LLSDACSB1177:
 1371 003d 49       		.uleb128 .LEHB12-.LFB1177
 1372 003e 29       		.uleb128 .LEHE12-.LEHB12
 1373 003f 77       		.uleb128 .L53-.LFB1177
 1374 0040 05       		.uleb128 0x5
 1375 0041 9F01     		.uleb128 .LEHB13-.LFB1177
 1376 0043 8901     		.uleb128 .LEHE13-.LEHB13
 1377 0045 FD04     		.uleb128 .L54-.LFB1177
 1378 0047 00       		.uleb128 0
 1379 0048 CB02     		.uleb128 .LEHB14-.LFB1177
 1380 004a 05       		.uleb128 .LEHE14-.LEHB14
 1381 004b AC05     		.uleb128 .L55-.LFB1177
 1382 004d 00       		.uleb128 0
 1383 004e E402     		.uleb128 .LEHB15-.LFB1177
 1384 0050 60       		.uleb128 .LEHE15-.LEHB15
 1385 0051 9405     		.uleb128 .L56-.LFB1177
 1386 0053 00       		.uleb128 0
 1387 0054 CE03     		.uleb128 .LEHB16-.LFB1177
 1388 0056 05       		.uleb128 .LEHE16-.LEHB16
 1389 0057 AC05     		.uleb128 .L55-.LFB1177
 1390 0059 00       		.uleb128 0
 1391 005a EE03     		.uleb128 .LEHB17-.LFB1177
 1392 005c 8801     		.uleb128 .LEHE17-.LEHB17
 1393 005e C305     		.uleb128 .L57-.LFB1177
 1394 0060 00       		.uleb128 0
 1395 0061 F604     		.uleb128 .LEHB18-.LFB1177
 1396 0063 1E       		.uleb128 .LEHE18-.LEHB18
 1397 0064 00       		.uleb128 0
 1398 0065 00       		.uleb128 0
 1399 0066 BE05     		.uleb128 .LEHB19-.LFB1177
 1400 0068 05       		.uleb128 .LEHE19-.LEHB19
 1401 0069 00       		.uleb128 0
 1402 006a 00       		.uleb128 0
 1403 006b D505     		.uleb128 .LEHB20-.LFB1177
 1404 006d 05       		.uleb128 .LEHE20-.LEHB20
 1405 006e 00       		.uleb128 0
 1406 006f 00       		.uleb128 0
 1407              	.LLSDACSE1177:
 1408 0070 03       		.byte	0x3
 1409 0071 00       		.byte	0
 1410 0072 02       		.byte	0x2
 1411 0073 7D       		.byte	0x7d
 1412 0074 01       		.byte	0x1
 1413 0075 7D       		.byte	0x7d
 1414 0076 0000     		.align 4
 1415 0078 00000000 		.long	0
 1416              	
 1417 007c 00000000 		.long	DW.ref._ZTISt9exception-.
 1418 0080 00000000 		.long	DW.ref._ZTIN8UnitTest15AssertExceptionE-.
 1419              	.LLSDATT1177:
 1420              		.text
 1422              		.align 2
 1424              	_ZN12_GLOBAL__N_134ThrowingThingieDummyTestNameHelper7RunImplEv:
 1425              	.LFB1178:
  38:TestTestMacros.cpp **** {
 1426              		.loc 6 38 1 is_stmt 1
 1427              		.cfi_startproc
 1428 064c F30F1EFA 		endbr64
 1429 0650 55       		pushq	%rbp
 1430              		.cfi_def_cfa_offset 16
 1431              		.cfi_offset 6, -16
 1432 0651 4889E5   		movq	%rsp, %rbp
 1433              		.cfi_def_cfa_register 6
 1434 0654 48897DF8 		movq	%rdi, -8(%rbp)
  39:TestTestMacros.cpp **** }
 1435              		.loc 6 39 1
 1436 0658 90       		nop
 1437 0659 5D       		popq	%rbp
 1438              		.cfi_def_cfa 7, 8
 1439 065a C3       		ret
 1440              		.cfi_endproc
 1441              	.LFE1178:
 1443              		.section	.rodata
 1444 01a7 00       		.align 8
 1445              	.LC14:
 1446 01a8 45786365 		.string	"ExceptionsInFixtureAreReportedAsHappeningInTheFixture"
 1446      7074696F 
 1446      6E73496E 
 1446      46697874 
 1446      75726541 
 1447              		.text
 1448 065b 90       		.align 2
 1450              	_ZN12_GLOBAL__N_157TestExceptionsInFixtureAreReportedAsHappeningInTheFixtureC2Ev:
 1451              	.LFB1180:
  40:TestTestMacros.cpp **** 
  41:TestTestMacros.cpp **** TEST (ExceptionsInFixtureAreReportedAsHappeningInTheFixture)
 1452              		.loc 6 41 1
 1453              		.cfi_startproc
 1454 065c 55       		pushq	%rbp
 1455              		.cfi_def_cfa_offset 16
 1456              		.cfi_offset 6, -16
 1457 065d 4889E5   		movq	%rsp, %rbp
 1458              		.cfi_def_cfa_register 6
 1459 0660 53       		pushq	%rbx
 1460 0661 4883EC18 		subq	$24, %rsp
 1461              		.cfi_offset 3, -24
 1462 0665 48897DE8 		movq	%rdi, -24(%rbp)
 1463              	.LBB20:
 1464              		.loc 6 41 1
 1465 0669 488B5DE8 		movq	-24(%rbp), %rbx
 1466 066d E8000000 		call	_ZN13UnitTestSuite12GetSuiteNameEv
 1466      00
 1467 0672 4889C2   		movq	%rax, %rdx
 1468 0675 41B82900 		movl	$41, %r8d
 1468      0000
 1469 067b 488D0500 		leaq	.LC2(%rip), %rax
 1469      000000
 1470 0682 4889C1   		movq	%rax, %rcx
 1471 0685 488D0500 		leaq	.LC14(%rip), %rax
 1471      000000
 1472 068c 4889C6   		movq	%rax, %rsi
 1473 068f 4889DF   		movq	%rbx, %rdi
 1474 0692 E8000000 		call	_ZN8UnitTest4TestC2EPKcS2_S2_i@PLT
 1474      00
 1475 0697 488D1500 		leaq	16+_ZTVN12_GLOBAL__N_157TestExceptionsInFixtureAreReportedAsHappeningInTheFixtureE(%rip), %rd
 1475      000000
 1476 069e 488B45E8 		movq	-24(%rbp), %rax
 1477 06a2 488910   		movq	%rdx, (%rax)
 1478              	.LBE20:
 1479 06a5 90       		nop
 1480 06a6 488B5DF8 		movq	-8(%rbp), %rbx
 1481 06aa C9       		leave
 1482              		.cfi_def_cfa 7, 8
 1483 06ab C3       		ret
 1484              		.cfi_endproc
 1485              	.LFE1180:
 1487              		.set	_ZN12_GLOBAL__N_157TestExceptionsInFixtureAreReportedAsHappeningInTheFixtureC1Ev,_ZN12_GLOBAL
 1488              		.local	_ZN12_GLOBAL__N_165testExceptionsInFixtureAreReportedAsHappeningInTheFixtureInstanceE
 1489              		.comm	_ZN12_GLOBAL__N_165testExceptionsInFixtureAreReportedAsHappeningInTheFixtureInstanceE,56,32
 1490              		.local	_ZN12_GLOBAL__N_158adderExceptionsInFixtureAreReportedAsHappeningInTheFixtureE
 1491              		.comm	_ZN12_GLOBAL__N_158adderExceptionsInFixtureAreReportedAsHappeningInTheFixtureE,1,1
 1492              		.section	.rodata
 1493              	.LC15:
 1494 01de 78636570 		.string	"xception"
 1494      74696F6E 
 1494      00
 1495 01e7 00       		.align 8
 1496              	.LC16:
 1497 01e8 73747273 		.string	"strstr(reporter.lastFailedMessage, \"xception\")"
 1497      74722872 
 1497      65706F72 
 1497      7465722E 
 1497      6C617374 
 1498              	.LC17:
 1499 0217 66697874 		.string	"fixture"
 1499      75726500 
 1500 021f 00       		.align 8
 1501              	.LC18:
 1502 0220 73747273 		.string	"strstr(reporter.lastFailedMessage, \"fixture\")"
 1502      74722872 
 1502      65706F72 
 1502      7465722E 
 1502      6C617374 
 1503              	.LC19:
 1504 024e 5468726F 		.string	"ThrowingThingie"
 1504      77696E67 
 1504      5468696E 
 1504      67696500 
 1505 025e 0000     		.align 8
 1506              	.LC20:
 1507 0260 73747273 		.string	"strstr(reporter.lastFailedMessage, \"ThrowingThingie\")"
 1507      74722872 
 1507      65706F72 
 1507      7465722E 
 1507      6C617374 
 1508 0296 0000     		.align 8
 1509              	.LC21:
 1510 0298 556E6861 		.string	"Unhandled exception in CHECK(strstr(reporter.lastFailedMessage, \"xception\"))"
 1510      6E646C65 
 1510      64206578 
 1510      63657074 
 1510      696F6E20 
 1511 02e5 000000   		.align 8
 1512              	.LC22:
 1513 02e8 556E6861 		.string	"Unhandled exception in CHECK(strstr(reporter.lastFailedMessage, \"fixture\"))"
 1513      6E646C65 
 1513      64206578 
 1513      63657074 
 1513      696F6E20 
 1514 0334 00000000 		.align 8
 1515              	.LC23:
 1516 0338 556E6861 		.string	"Unhandled exception in CHECK(strstr(reporter.lastFailedMessage, \"ThrowingThingie\"))"
 1516      6E646C65 
 1516      64206578 
 1516      63657074 
 1516      696F6E20 
 1517              		.text
 1518              		.align 2
 1520              	_ZNK12_GLOBAL__N_157TestExceptionsInFixtureAreReportedAsHappeningInTheFixture7RunImplEv:
 1521              	.LFB1182:
  42:TestTestMacros.cpp **** {
 1522              		.loc 6 42 1
 1523              		.cfi_startproc
 1524              		.cfi_personality 0x9b,DW.ref.__gxx_personality_v0
 1525              		.cfi_lsda 0x1b,.LLSDA1182
 1526 06ac F30F1EFA 		endbr64
 1527 06b0 55       		pushq	%rbp
 1528              		.cfi_def_cfa_offset 16
 1529              		.cfi_offset 6, -16
 1530 06b1 4889E5   		movq	%rsp, %rbp
 1531              		.cfi_def_cfa_register 6
 1532 06b4 53       		pushq	%rbx
 1533 06b5 4881EC98 		subq	$2200, %rsp
 1533      080000
 1534              		.cfi_offset 3, -24
 1535 06bc 4889BD68 		movq	%rdi, -2200(%rbp)
 1535      F7FFFF
 1536              		.loc 6 42 1
 1537 06c3 64488B04 		movq	%fs:40, %rax
 1537      25280000 
 1537      00
 1538 06cc 488945E8 		movq	%rax, -24(%rbp)
 1539 06d0 31C0     		xorl	%eax, %eax
  43:TestTestMacros.cpp ****     RecordingReporter reporter;
 1540              		.loc 6 43 23
 1541 06d2 488D85B0 		leaq	-2128(%rbp), %rax
 1541      F7FFFF
 1542 06d9 4889C7   		movq	%rax, %rdi
 1543 06dc E8000000 		call	_ZN17RecordingReporterC1Ev
 1543      00
  44:TestTestMacros.cpp ****     TestResults result(&reporter);
 1544              		.loc 6 44 33
 1545 06e1 488D95B0 		leaq	-2128(%rbp), %rdx
 1545      F7FFFF
 1546 06e8 488D8570 		leaq	-2192(%rbp), %rax
 1546      F7FFFF
 1547 06ef 4889D6   		movq	%rdx, %rsi
 1548 06f2 4889C7   		movq	%rax, %rdi
 1549              	.LEHB21:
 1550 06f5 E8000000 		call	_ZN8UnitTest11TestResultsC1EPNS_12TestReporterE@PLT
 1550      00
 1551              	.LBB21:
  45:TestTestMacros.cpp **** 	{
  46:TestTestMacros.cpp **** 		ScopedCurrentTest scopedResults(result);
 1552              		.loc 6 46 41
 1553 06fa 488D8D70 		leaq	-2192(%rbp), %rcx
 1553      F7FFFF
 1554 0701 488D8590 		leaq	-2160(%rbp), %rax
 1554      F7FFFF
 1555 0708 BA000000 		movl	$0, %edx
 1555      00
 1556 070d 4889CE   		movq	%rcx, %rsi
 1557 0710 4889C7   		movq	%rax, %rdi
 1558 0713 E8000000 		call	_ZN17ScopedCurrentTestC1ERN8UnitTest11TestResultsEPKNS0_11TestDetailsE
 1558      00
 1559              	.LEHE21:
  47:TestTestMacros.cpp **** 		list2.GetHead()->Run();
 1560              		.loc 6 47 23
 1561 0718 488D0500 		leaq	_ZN12_GLOBAL__N_15list2E(%rip), %rax
 1561      000000
 1562 071f 4889C7   		movq	%rax, %rdi
 1563              	.LEHB22:
 1564 0722 E8000000 		call	_ZNK8UnitTest8TestList7GetHeadEv@PLT
 1564      00
 1565 0727 4889C7   		movq	%rax, %rdi
 1566 072a E8000000 		call	_ZN8UnitTest4Test3RunEv@PLT
 1566      00
 1567              	.LEHE22:
  48:TestTestMacros.cpp **** 	}
 1568              		.loc 6 48 2
 1569 072f 488D8590 		leaq	-2160(%rbp), %rax
 1569      F7FFFF
 1570 0736 4889C7   		movq	%rax, %rdi
 1571              	.LEHB23:
 1572 0739 E8000000 		call	_ZN17ScopedCurrentTestD1Ev
 1572      00
 1573              	.LEHE23:
 1574              	.LBE21:
  49:TestTestMacros.cpp **** 
  50:TestTestMacros.cpp ****     CHECK(strstr(reporter.lastFailedMessage, "xception"));
 1575              		.loc 6 50 5
 1576 073e 488D85B0 		leaq	-2128(%rbp), %rax
 1576      F7FFFF
 1577 0745 48051405 		addq	$1300, %rax
 1577      0000
 1578 074b 488D1500 		leaq	.LC15(%rip), %rdx
 1578      000000
 1579 0752 4889D6   		movq	%rdx, %rsi
 1580 0755 4889C7   		movq	%rax, %rdi
 1581 0758 E8000000 		call	strstr@PLT
 1581      00
 1582 075d 4889C7   		movq	%rax, %rdi
 1583 0760 E8000000 		call	_ZN8UnitTest5CheckIPcEEbT_
 1583      00
 1584 0765 83F001   		xorl	$1, %eax
 1585 0768 84C0     		testb	%al, %al
 1586 076a 7440     		je	.L62
 1587              	.LEHB24:
 1588              		.loc 6 50 5 is_stmt 0 discriminator 1
 1589 076c E8000000 		call	_ZN8UnitTest11CurrentTest7ResultsEv@PLT
 1589      00
 1590 0771 488B18   		movq	(%rax), %rbx
 1591 0774 E8000000 		call	_ZN8UnitTest11CurrentTest7DetailsEv@PLT
 1591      00
 1592              		.loc 6 50 5 discriminator 3
 1593 0779 488B08   		movq	(%rax), %rcx
 1594 077c 488D8590 		leaq	-2160(%rbp), %rax
 1594      F7FFFF
 1595 0783 BA320000 		movl	$50, %edx
 1595      00
 1596 0788 4889CE   		movq	%rcx, %rsi
 1597 078b 4889C7   		movq	%rax, %rdi
 1598 078e E8000000 		call	_ZN8UnitTest11TestDetailsC1ERKS0_i@PLT
 1598      00
 1599              		.loc 6 50 5 discriminator 7
 1600 0793 488D8590 		leaq	-2160(%rbp), %rax
 1600      F7FFFF
 1601 079a 488D1500 		leaq	.LC16(%rip), %rdx
 1601      000000
 1602 07a1 4889C6   		movq	%rax, %rsi
 1603 07a4 4889DF   		movq	%rbx, %rdi
 1604 07a7 E8000000 		call	_ZN8UnitTest11TestResults13OnTestFailureERKNS_11TestDetailsEPKc@PLT
 1604      00
 1605              	.LEHE24:
 1606              	.L62:
  51:TestTestMacros.cpp ****     CHECK(strstr(reporter.lastFailedMessage, "fixture"));
 1607              		.loc 6 51 5 is_stmt 1
 1608 07ac 488D85B0 		leaq	-2128(%rbp), %rax
 1608      F7FFFF
 1609 07b3 48051405 		addq	$1300, %rax
 1609      0000
 1610 07b9 488D1500 		leaq	.LC17(%rip), %rdx
 1610      000000
 1611 07c0 4889D6   		movq	%rdx, %rsi
 1612 07c3 4889C7   		movq	%rax, %rdi
 1613 07c6 E8000000 		call	strstr@PLT
 1613      00
 1614 07cb 4889C7   		movq	%rax, %rdi
 1615 07ce E8000000 		call	_ZN8UnitTest5CheckIPcEEbT_
 1615      00
 1616 07d3 83F001   		xorl	$1, %eax
 1617 07d6 84C0     		testb	%al, %al
 1618 07d8 7440     		je	.L63
 1619              	.LEHB25:
 1620              		.loc 6 51 5 is_stmt 0 discriminator 1
 1621 07da E8000000 		call	_ZN8UnitTest11CurrentTest7ResultsEv@PLT
 1621      00
 1622 07df 488B18   		movq	(%rax), %rbx
 1623 07e2 E8000000 		call	_ZN8UnitTest11CurrentTest7DetailsEv@PLT
 1623      00
 1624              		.loc 6 51 5 discriminator 3
 1625 07e7 488B08   		movq	(%rax), %rcx
 1626 07ea 488D8590 		leaq	-2160(%rbp), %rax
 1626      F7FFFF
 1627 07f1 BA330000 		movl	$51, %edx
 1627      00
 1628 07f6 4889CE   		movq	%rcx, %rsi
 1629 07f9 4889C7   		movq	%rax, %rdi
 1630 07fc E8000000 		call	_ZN8UnitTest11TestDetailsC1ERKS0_i@PLT
 1630      00
 1631              		.loc 6 51 5 discriminator 7
 1632 0801 488D8590 		leaq	-2160(%rbp), %rax
 1632      F7FFFF
 1633 0808 488D1500 		leaq	.LC18(%rip), %rdx
 1633      000000
 1634 080f 4889C6   		movq	%rax, %rsi
 1635 0812 4889DF   		movq	%rbx, %rdi
 1636 0815 E8000000 		call	_ZN8UnitTest11TestResults13OnTestFailureERKNS_11TestDetailsEPKc@PLT
 1636      00
 1637              	.LEHE25:
 1638              	.L63:
  52:TestTestMacros.cpp ****     CHECK(strstr(reporter.lastFailedMessage, "ThrowingThingie"));
 1639              		.loc 6 52 5 is_stmt 1
 1640 081a 488D85B0 		leaq	-2128(%rbp), %rax
 1640      F7FFFF
 1641 0821 48051405 		addq	$1300, %rax
 1641      0000
 1642 0827 488D1500 		leaq	.LC19(%rip), %rdx
 1642      000000
 1643 082e 4889D6   		movq	%rdx, %rsi
 1644 0831 4889C7   		movq	%rax, %rdi
 1645 0834 E8000000 		call	strstr@PLT
 1645      00
 1646 0839 4889C7   		movq	%rax, %rdi
 1647 083c E8000000 		call	_ZN8UnitTest5CheckIPcEEbT_
 1647      00
 1648 0841 83F001   		xorl	$1, %eax
 1649 0844 84C0     		testb	%al, %al
 1650 0846 7440     		je	.L64
 1651              	.LEHB26:
 1652              		.loc 6 52 5 is_stmt 0 discriminator 1
 1653 0848 E8000000 		call	_ZN8UnitTest11CurrentTest7ResultsEv@PLT
 1653      00
 1654 084d 488B18   		movq	(%rax), %rbx
 1655 0850 E8000000 		call	_ZN8UnitTest11CurrentTest7DetailsEv@PLT
 1655      00
 1656              		.loc 6 52 5 discriminator 3
 1657 0855 488B08   		movq	(%rax), %rcx
 1658 0858 488D8590 		leaq	-2160(%rbp), %rax
 1658      F7FFFF
 1659 085f BA340000 		movl	$52, %edx
 1659      00
 1660 0864 4889CE   		movq	%rcx, %rsi
 1661 0867 4889C7   		movq	%rax, %rdi
 1662 086a E8000000 		call	_ZN8UnitTest11TestDetailsC1ERKS0_i@PLT
 1662      00
 1663              		.loc 6 52 5 discriminator 7
 1664 086f 488D8590 		leaq	-2160(%rbp), %rax
 1664      F7FFFF
 1665 0876 488D1500 		leaq	.LC20(%rip), %rdx
 1665      000000
 1666 087d 4889C6   		movq	%rax, %rsi
 1667 0880 4889DF   		movq	%rbx, %rdi
 1668 0883 E8000000 		call	_ZN8UnitTest11TestResults13OnTestFailureERKNS_11TestDetailsEPKc@PLT
 1668      00
 1669              	.LEHE26:
 1670              	.L64:
  53:TestTestMacros.cpp **** }
 1671              		.loc 6 53 1 is_stmt 1
 1672 0888 488D85B0 		leaq	-2128(%rbp), %rax
 1672      F7FFFF
 1673 088f 4889C7   		movq	%rax, %rdi
 1674              	.LEHB27:
 1675 0892 E8000000 		call	_ZN17RecordingReporterD1Ev
 1675      00
 1676              	.LEHE27:
 1677 0897 488B45E8 		movq	-24(%rbp), %rax
 1678 089b 64482B04 		subq	%fs:40, %rax
 1678      25280000 
 1678      00
 1679 08a4 0F847501 		je	.L73
 1679      0000
 1680 08aa E96B0100 		jmp	.L82
 1680      00
 1681              	.L75:
 1682 08af F30F1EFA 		endbr64
 1683              	.LBB22:
  48:TestTestMacros.cpp **** 
 1684              		.loc 6 48 2
 1685 08b3 4889C3   		movq	%rax, %rbx
 1686 08b6 488D8590 		leaq	-2160(%rbp), %rax
 1686      F7FFFF
 1687 08bd 4889C7   		movq	%rax, %rdi
 1688 08c0 E8000000 		call	_ZN17ScopedCurrentTestD1Ev
 1688      00
 1689 08c5 E9360100 		jmp	.L66
 1689      00
 1690              	.L76:
 1691 08ca F30F1EFA 		endbr64
 1692              	.LBE22:
  50:TestTestMacros.cpp ****     CHECK(strstr(reporter.lastFailedMessage, "fixture"));
 1693              		.loc 6 50 5
 1694 08ce 4889C7   		movq	%rax, %rdi
 1695 08d1 E8000000 		call	__cxa_begin_catch@PLT
 1695      00
 1696              	.LEHB28:
 1697 08d6 E8000000 		call	_ZN8UnitTest11CurrentTest7ResultsEv@PLT
 1697      00
  50:TestTestMacros.cpp ****     CHECK(strstr(reporter.lastFailedMessage, "fixture"));
 1698              		.loc 6 50 5 is_stmt 0 discriminator 6
 1699 08db 488B18   		movq	(%rax), %rbx
 1700 08de E8000000 		call	_ZN8UnitTest11CurrentTest7DetailsEv@PLT
 1700      00
  50:TestTestMacros.cpp ****     CHECK(strstr(reporter.lastFailedMessage, "fixture"));
 1701              		.loc 6 50 5 discriminator 12
 1702 08e3 488B08   		movq	(%rax), %rcx
 1703 08e6 488D8590 		leaq	-2160(%rbp), %rax
 1703      F7FFFF
 1704 08ed BA320000 		movl	$50, %edx
 1704      00
 1705 08f2 4889CE   		movq	%rcx, %rsi
 1706 08f5 4889C7   		movq	%rax, %rdi
 1707 08f8 E8000000 		call	_ZN8UnitTest11TestDetailsC1ERKS0_i@PLT
 1707      00
  50:TestTestMacros.cpp ****     CHECK(strstr(reporter.lastFailedMessage, "fixture"));
 1708              		.loc 6 50 5 discriminator 16
 1709 08fd 488D8590 		leaq	-2160(%rbp), %rax
 1709      F7FFFF
 1710 0904 488D1500 		leaq	.LC21(%rip), %rdx
 1710      000000
 1711 090b 4889C6   		movq	%rax, %rsi
 1712 090e 4889DF   		movq	%rbx, %rdi
 1713 0911 E8000000 		call	_ZN8UnitTest11TestResults13OnTestFailureERKNS_11TestDetailsEPKc@PLT
 1713      00
 1714              	.LEHE28:
 1715              	.LEHB29:
  50:TestTestMacros.cpp ****     CHECK(strstr(reporter.lastFailedMessage, "fixture"));
 1716              		.loc 6 50 5 discriminator 18
 1717 0916 E8000000 		call	__cxa_end_catch@PLT
 1717      00
 1718              	.LEHE29:
  50:TestTestMacros.cpp ****     CHECK(strstr(reporter.lastFailedMessage, "fixture"));
 1719              		.loc 6 50 5
 1720 091b E98CFEFF 		jmp	.L62
 1720      FF
 1721              	.L77:
 1722 0920 F30F1EFA 		endbr64
 1723 0924 4889C3   		movq	%rax, %rbx
 1724 0927 E8000000 		call	__cxa_end_catch@PLT
 1724      00
 1725 092c E9CF0000 		jmp	.L66
 1725      00
 1726              	.L78:
 1727 0931 F30F1EFA 		endbr64
  51:TestTestMacros.cpp ****     CHECK(strstr(reporter.lastFailedMessage, "ThrowingThingie"));
 1728              		.loc 6 51 5 is_stmt 1
 1729 0935 4889C7   		movq	%rax, %rdi
 1730 0938 E8000000 		call	__cxa_begin_catch@PLT
 1730      00
 1731              	.LEHB30:
 1732 093d E8000000 		call	_ZN8UnitTest11CurrentTest7ResultsEv@PLT
 1732      00
  51:TestTestMacros.cpp ****     CHECK(strstr(reporter.lastFailedMessage, "ThrowingThingie"));
 1733              		.loc 6 51 5 is_stmt 0 discriminator 6
 1734 0942 488B18   		movq	(%rax), %rbx
 1735 0945 E8000000 		call	_ZN8UnitTest11CurrentTest7DetailsEv@PLT
 1735      00
  51:TestTestMacros.cpp ****     CHECK(strstr(reporter.lastFailedMessage, "ThrowingThingie"));
 1736              		.loc 6 51 5 discriminator 12
 1737 094a 488B08   		movq	(%rax), %rcx
 1738 094d 488D8590 		leaq	-2160(%rbp), %rax
 1738      F7FFFF
 1739 0954 BA330000 		movl	$51, %edx
 1739      00
 1740 0959 4889CE   		movq	%rcx, %rsi
 1741 095c 4889C7   		movq	%rax, %rdi
 1742 095f E8000000 		call	_ZN8UnitTest11TestDetailsC1ERKS0_i@PLT
 1742      00
  51:TestTestMacros.cpp ****     CHECK(strstr(reporter.lastFailedMessage, "ThrowingThingie"));
 1743              		.loc 6 51 5 discriminator 16
 1744 0964 488D8590 		leaq	-2160(%rbp), %rax
 1744      F7FFFF
 1745 096b 488D1500 		leaq	.LC22(%rip), %rdx
 1745      000000
 1746 0972 4889C6   		movq	%rax, %rsi
 1747 0975 4889DF   		movq	%rbx, %rdi
 1748 0978 E8000000 		call	_ZN8UnitTest11TestResults13OnTestFailureERKNS_11TestDetailsEPKc@PLT
 1748      00
 1749              	.LEHE30:
 1750              	.LEHB31:
  51:TestTestMacros.cpp ****     CHECK(strstr(reporter.lastFailedMessage, "ThrowingThingie"));
 1751              		.loc 6 51 5 discriminator 18
 1752 097d E8000000 		call	__cxa_end_catch@PLT
 1752      00
 1753              	.LEHE31:
  51:TestTestMacros.cpp ****     CHECK(strstr(reporter.lastFailedMessage, "ThrowingThingie"));
 1754              		.loc 6 51 5
 1755 0982 E993FEFF 		jmp	.L63
 1755      FF
 1756              	.L79:
 1757 0987 F30F1EFA 		endbr64
 1758 098b 4889C3   		movq	%rax, %rbx
 1759 098e E8000000 		call	__cxa_end_catch@PLT
 1759      00
 1760 0993 EB6B     		jmp	.L66
 1761              	.L80:
 1762 0995 F30F1EFA 		endbr64
  52:TestTestMacros.cpp **** }
 1763              		.loc 6 52 5 is_stmt 1
 1764 0999 4889C7   		movq	%rax, %rdi
 1765 099c E8000000 		call	__cxa_begin_catch@PLT
 1765      00
 1766              	.LEHB32:
 1767 09a1 E8000000 		call	_ZN8UnitTest11CurrentTest7ResultsEv@PLT
 1767      00
  52:TestTestMacros.cpp **** }
 1768              		.loc 6 52 5 is_stmt 0 discriminator 6
 1769 09a6 488B18   		movq	(%rax), %rbx
 1770 09a9 E8000000 		call	_ZN8UnitTest11CurrentTest7DetailsEv@PLT
 1770      00
  52:TestTestMacros.cpp **** }
 1771              		.loc 6 52 5 discriminator 12
 1772 09ae 488B08   		movq	(%rax), %rcx
 1773 09b1 488D8590 		leaq	-2160(%rbp), %rax
 1773      F7FFFF
 1774 09b8 BA340000 		movl	$52, %edx
 1774      00
 1775 09bd 4889CE   		movq	%rcx, %rsi
 1776 09c0 4889C7   		movq	%rax, %rdi
 1777 09c3 E8000000 		call	_ZN8UnitTest11TestDetailsC1ERKS0_i@PLT
 1777      00
  52:TestTestMacros.cpp **** }
 1778              		.loc 6 52 5 discriminator 16
 1779 09c8 488D8590 		leaq	-2160(%rbp), %rax
 1779      F7FFFF
 1780 09cf 488D1500 		leaq	.LC23(%rip), %rdx
 1780      000000
 1781 09d6 4889C6   		movq	%rax, %rsi
 1782 09d9 4889DF   		movq	%rbx, %rdi
 1783 09dc E8000000 		call	_ZN8UnitTest11TestResults13OnTestFailureERKNS_11TestDetailsEPKc@PLT
 1783      00
 1784              	.LEHE32:
 1785              	.LEHB33:
  52:TestTestMacros.cpp **** }
 1786              		.loc 6 52 5 discriminator 18
 1787 09e1 E8000000 		call	__cxa_end_catch@PLT
 1787      00
 1788              	.LEHE33:
  52:TestTestMacros.cpp **** }
 1789              		.loc 6 52 5
 1790 09e6 E99DFEFF 		jmp	.L64
 1790      FF
 1791              	.L81:
 1792 09eb F30F1EFA 		endbr64
 1793 09ef 4889C3   		movq	%rax, %rbx
 1794 09f2 E8000000 		call	__cxa_end_catch@PLT
 1794      00
 1795 09f7 EB07     		jmp	.L66
 1796              	.L74:
 1797 09f9 F30F1EFA 		endbr64
 1798              		.loc 6 53 1 is_stmt 1
 1799 09fd 4889C3   		movq	%rax, %rbx
 1800              	.L66:
 1801 0a00 488D85B0 		leaq	-2128(%rbp), %rax
 1801      F7FFFF
 1802 0a07 4889C7   		movq	%rax, %rdi
 1803 0a0a E8000000 		call	_ZN17RecordingReporterD1Ev
 1803      00
 1804 0a0f 4889D8   		movq	%rbx, %rax
 1805 0a12 4889C7   		movq	%rax, %rdi
 1806              	.LEHB34:
 1807 0a15 E8000000 		call	_Unwind_Resume@PLT
 1807      00
 1808              	.LEHE34:
 1809              	.L82:
 1810 0a1a E8000000 		call	__stack_chk_fail@PLT
 1810      00
 1811              	.L73:
 1812 0a1f 488B5DF8 		movq	-8(%rbp), %rbx
 1813 0a23 C9       		leave
 1814              		.cfi_def_cfa 7, 8
 1815 0a24 C3       		ret
 1816              		.cfi_endproc
 1817              	.LFE1182:
 1818              		.section	.gcc_except_table
 1819              		.align 4
 1820              	.LLSDA1182:
 1821 0084 FF       		.byte	0xff
 1822 0085 9B       		.byte	0x9b
 1823 0086 59       		.uleb128 .LLSDATT1182-.LLSDATTD1182
 1824              	.LLSDATTD1182:
 1825 0087 01       		.byte	0x1
 1826 0088 50       		.uleb128 .LLSDACSE1182-.LLSDACSB1182
 1827              	.LLSDACSB1182:
 1828 0089 49       		.uleb128 .LEHB21-.LFB1182
 1829 008a 23       		.uleb128 .LEHE21-.LEHB21
 1830 008b CD06     		.uleb128 .L74-.LFB1182
 1831 008d 00       		.uleb128 0
 1832 008e 76       		.uleb128 .LEHB22-.LFB1182
 1833 008f 0D       		.uleb128 .LEHE22-.LEHB22
 1834 0090 8304     		.uleb128 .L75-.LFB1182
 1835 0092 00       		.uleb128 0
 1836 0093 8D01     		.uleb128 .LEHB23-.LFB1182
 1837 0095 05       		.uleb128 .LEHE23-.LEHB23
 1838 0096 CD06     		.uleb128 .L74-.LFB1182
 1839 0098 00       		.uleb128 0
 1840 0099 C001     		.uleb128 .LEHB24-.LFB1182
 1841 009b 40       		.uleb128 .LEHE24-.LEHB24
 1842 009c 9E04     		.uleb128 .L76-.LFB1182
 1843 009e 01       		.uleb128 0x1
 1844 009f AE02     		.uleb128 .LEHB25-.LFB1182
 1845 00a1 40       		.uleb128 .LEHE25-.LEHB25
 1846 00a2 8505     		.uleb128 .L78-.LFB1182
 1847 00a4 01       		.uleb128 0x1
 1848 00a5 9C03     		.uleb128 .LEHB26-.LFB1182
 1849 00a7 40       		.uleb128 .LEHE26-.LEHB26
 1850 00a8 E905     		.uleb128 .L80-.LFB1182
 1851 00aa 01       		.uleb128 0x1
 1852 00ab E603     		.uleb128 .LEHB27-.LFB1182
 1853 00ad 05       		.uleb128 .LEHE27-.LEHB27
 1854 00ae 00       		.uleb128 0
 1855 00af 00       		.uleb128 0
 1856 00b0 AA04     		.uleb128 .LEHB28-.LFB1182
 1857 00b2 40       		.uleb128 .LEHE28-.LEHB28
 1858 00b3 F404     		.uleb128 .L77-.LFB1182
 1859 00b5 00       		.uleb128 0
 1860 00b6 EA04     		.uleb128 .LEHB29-.LFB1182
 1861 00b8 05       		.uleb128 .LEHE29-.LEHB29
 1862 00b9 CD06     		.uleb128 .L74-.LFB1182
 1863 00bb 00       		.uleb128 0
 1864 00bc 9105     		.uleb128 .LEHB30-.LFB1182
 1865 00be 40       		.uleb128 .LEHE30-.LEHB30
 1866 00bf DB05     		.uleb128 .L79-.LFB1182
 1867 00c1 00       		.uleb128 0
 1868 00c2 D105     		.uleb128 .LEHB31-.LFB1182
 1869 00c4 05       		.uleb128 .LEHE31-.LEHB31
 1870 00c5 CD06     		.uleb128 .L74-.LFB1182
 1871 00c7 00       		.uleb128 0
 1872 00c8 F505     		.uleb128 .LEHB32-.LFB1182
 1873 00ca 40       		.uleb128 .LEHE32-.LEHB32
 1874 00cb BF06     		.uleb128 .L81-.LFB1182
 1875 00cd 00       		.uleb128 0
 1876 00ce B506     		.uleb128 .LEHB33-.LFB1182
 1877 00d0 05       		.uleb128 .LEHE33-.LEHB33
 1878 00d1 CD06     		.uleb128 .L74-.LFB1182
 1879 00d3 00       		.uleb128 0
 1880 00d4 E906     		.uleb128 .LEHB34-.LFB1182
 1881 00d6 05       		.uleb128 .LEHE34-.LEHB34
 1882 00d7 00       		.uleb128 0
 1883 00d8 00       		.uleb128 0
 1884              	.LLSDACSE1182:
 1885 00d9 01       		.byte	0x1
 1886 00da 00       		.byte	0
 1887 00db 00       		.align 4
 1888 00dc 00000000 		.long	0
 1889              	
 1890              	.LLSDATT1182:
 1891              		.text
 1893              		.section	.rodata
 1894              	.LC24:
 1895 038c 54657374 		.string	"TestSuite1"
 1895      53756974 
 1895      653100
 1896              		.text
 1898              	_ZN12_GLOBAL__N_115SuiteTestSuite113UnitTestSuite12GetSuiteNameEv:
 1899              	.LFB1183:
  54:TestTestMacros.cpp **** 
  55:TestTestMacros.cpp **** struct DummyFixture
  56:TestTestMacros.cpp **** {
  57:TestTestMacros.cpp ****     int x;
  58:TestTestMacros.cpp **** };
  59:TestTestMacros.cpp **** 
  60:TestTestMacros.cpp **** // We're really testing the macros so we just want them to compile and link
  61:TestTestMacros.cpp **** SUITE(TestSuite1)
 1900              		.loc 6 61 1
 1901              		.cfi_startproc
 1902 0a25 55       		pushq	%rbp
 1903              		.cfi_def_cfa_offset 16
 1904              		.cfi_offset 6, -16
 1905 0a26 4889E5   		movq	%rsp, %rbp
 1906              		.cfi_def_cfa_register 6
 1907              		.loc 6 61 1
 1908 0a29 488D0500 		leaq	.LC24(%rip), %rax
 1908      000000
 1909 0a30 5D       		popq	%rbp
 1910              		.cfi_def_cfa 7, 8
 1911 0a31 C3       		ret
 1912              		.cfi_endproc
 1913              	.LFE1183:
 1915              		.section	.rodata
 1916 0397 00       		.align 8
 1917              	.LC25:
 1918 0398 53696D69 		.string	"SimilarlyNamedTestsInDifferentSuitesWork"
 1918      6C61726C 
 1918      794E616D 
 1918      65645465 
 1918      73747349 
 1919              		.text
 1920              		.align 2
 1922              	_ZN12_GLOBAL__N_115SuiteTestSuite144TestSimilarlyNamedTestsInDifferentSuitesWorkC2Ev:
 1923              	.LFB1185:
  62:TestTestMacros.cpp **** {
  63:TestTestMacros.cpp **** 	TEST(SimilarlyNamedTestsInDifferentSuitesWork)
 1924              		.loc 6 63 2
 1925              		.cfi_startproc
 1926 0a32 55       		pushq	%rbp
 1927              		.cfi_def_cfa_offset 16
 1928              		.cfi_offset 6, -16
 1929 0a33 4889E5   		movq	%rsp, %rbp
 1930              		.cfi_def_cfa_register 6
 1931 0a36 53       		pushq	%rbx
 1932 0a37 4883EC18 		subq	$24, %rsp
 1933              		.cfi_offset 3, -24
 1934 0a3b 48897DE8 		movq	%rdi, -24(%rbp)
 1935              	.LBB23:
 1936              		.loc 6 63 2
 1937 0a3f 488B5DE8 		movq	-24(%rbp), %rbx
 1938 0a43 E8DDFFFF 		call	_ZN12_GLOBAL__N_115SuiteTestSuite113UnitTestSuite12GetSuiteNameEv
 1938      FF
 1939 0a48 4889C2   		movq	%rax, %rdx
 1940 0a4b 41B83F00 		movl	$63, %r8d
 1940      0000
 1941 0a51 488D0500 		leaq	.LC2(%rip), %rax
 1941      000000
 1942 0a58 4889C1   		movq	%rax, %rcx
 1943 0a5b 488D0500 		leaq	.LC25(%rip), %rax
 1943      000000
 1944 0a62 4889C6   		movq	%rax, %rsi
 1945 0a65 4889DF   		movq	%rbx, %rdi
 1946 0a68 E8000000 		call	_ZN8UnitTest4TestC2EPKcS2_S2_i@PLT
 1946      00
 1947 0a6d 488D1500 		leaq	16+_ZTVN12_GLOBAL__N_115SuiteTestSuite144TestSimilarlyNamedTestsInDifferentSuitesWorkE(%rip),
 1947      000000
 1948 0a74 488B45E8 		movq	-24(%rbp), %rax
 1949 0a78 488910   		movq	%rdx, (%rax)
 1950              	.LBE23:
 1951 0a7b 90       		nop
 1952 0a7c 488B5DF8 		movq	-8(%rbp), %rbx
 1953 0a80 C9       		leave
 1954              		.cfi_def_cfa 7, 8
 1955 0a81 C3       		ret
 1956              		.cfi_endproc
 1957              	.LFE1185:
 1959              		.set	_ZN12_GLOBAL__N_115SuiteTestSuite144TestSimilarlyNamedTestsInDifferentSuitesWorkC1Ev,_ZN12_GL
 1960              		.local	_ZN12_GLOBAL__N_115SuiteTestSuite152testSimilarlyNamedTestsInDifferentSuitesWorkInstanceE
 1961              		.comm	_ZN12_GLOBAL__N_115SuiteTestSuite152testSimilarlyNamedTestsInDifferentSuitesWorkInstanceE,56
 1962              		.local	_ZN12_GLOBAL__N_115SuiteTestSuite145adderSimilarlyNamedTestsInDifferentSuitesWorkE
 1963              		.comm	_ZN12_GLOBAL__N_115SuiteTestSuite145adderSimilarlyNamedTestsInDifferentSuitesWorkE,1,1
 1964              		.align 2
 1966              	_ZNK12_GLOBAL__N_115SuiteTestSuite144TestSimilarlyNamedTestsInDifferentSuitesWork7RunImplEv:
 1967              	.LFB1187:
  64:TestTestMacros.cpp **** 	{
 1968              		.loc 6 64 2
 1969              		.cfi_startproc
 1970 0a82 F30F1EFA 		endbr64
 1971 0a86 55       		pushq	%rbp
 1972              		.cfi_def_cfa_offset 16
 1973              		.cfi_offset 6, -16
 1974 0a87 4889E5   		movq	%rsp, %rbp
 1975              		.cfi_def_cfa_register 6
 1976 0a8a 48897DF8 		movq	%rdi, -8(%rbp)
  65:TestTestMacros.cpp **** 	}
 1977              		.loc 6 65 2
 1978 0a8e 90       		nop
 1979 0a8f 5D       		popq	%rbp
 1980              		.cfi_def_cfa 7, 8
 1981 0a90 C3       		ret
 1982              		.cfi_endproc
 1983              	.LFE1187:
 1985 0a91 90       		.align 2
 1987              	_ZN12_GLOBAL__N_115SuiteTestSuite165DummyFixtureSimilarlyNamedFixtureTestsInDifferentSuitesWorkHelp
 1988              	.LFB1189:
  66:TestTestMacros.cpp **** 
  67:TestTestMacros.cpp **** 	TEST_FIXTURE(DummyFixture, SimilarlyNamedFixtureTestsInDifferentSuitesWork)
 1989              		.loc 6 67 2
 1990              		.cfi_startproc
 1991 0a92 55       		pushq	%rbp
 1992              		.cfi_def_cfa_offset 16
 1993              		.cfi_offset 6, -16
 1994 0a93 4889E5   		movq	%rsp, %rbp
 1995              		.cfi_def_cfa_register 6
 1996 0a96 48897DF8 		movq	%rdi, -8(%rbp)
 1997 0a9a 488975F0 		movq	%rsi, -16(%rbp)
 1998              	.LBB24:
 1999              		.loc 6 67 2
 2000 0a9e 488B45F8 		movq	-8(%rbp), %rax
 2001 0aa2 488B55F0 		movq	-16(%rbp), %rdx
 2002 0aa6 48895008 		movq	%rdx, 8(%rax)
 2003              	.LBE24:
 2004 0aaa 90       		nop
 2005 0aab 5D       		popq	%rbp
 2006              		.cfi_def_cfa 7, 8
 2007 0aac C3       		ret
 2008              		.cfi_endproc
 2009              	.LFE1189:
 2011              		.set	_ZN12_GLOBAL__N_115SuiteTestSuite165DummyFixtureSimilarlyNamedFixtureTestsInDifferentSuitesWo
 2012              		.section	.rodata
 2013 03c1 00000000 		.align 8
 2013      000000
 2014              	.LC26:
 2015 03c8 53696D69 		.string	"SimilarlyNamedFixtureTestsInDifferentSuitesWork"
 2015      6C61726C 
 2015      794E616D 
 2015      65644669 
 2015      78747572 
 2016              		.text
 2017 0aad 90       		.align 2
 2019              	_ZN12_GLOBAL__N_115SuiteTestSuite163TestDummyFixtureSimilarlyNamedFixtureTestsInDifferentSuitesWork
 2020              	.LFB1192:
 2021              		.loc 6 67 2
 2022              		.cfi_startproc
 2023 0aae 55       		pushq	%rbp
 2024              		.cfi_def_cfa_offset 16
 2025              		.cfi_offset 6, -16
 2026 0aaf 4889E5   		movq	%rsp, %rbp
 2027              		.cfi_def_cfa_register 6
 2028 0ab2 53       		pushq	%rbx
 2029 0ab3 4883EC18 		subq	$24, %rsp
 2030              		.cfi_offset 3, -24
 2031 0ab7 48897DE8 		movq	%rdi, -24(%rbp)
 2032              	.LBB25:
 2033              		.loc 6 67 2
 2034 0abb 488B5DE8 		movq	-24(%rbp), %rbx
 2035 0abf E861FFFF 		call	_ZN12_GLOBAL__N_115SuiteTestSuite113UnitTestSuite12GetSuiteNameEv
 2035      FF
 2036 0ac4 4889C2   		movq	%rax, %rdx
 2037 0ac7 41B84300 		movl	$67, %r8d
 2037      0000
 2038 0acd 488D0500 		leaq	.LC2(%rip), %rax
 2038      000000
 2039 0ad4 4889C1   		movq	%rax, %rcx
 2040 0ad7 488D0500 		leaq	.LC26(%rip), %rax
 2040      000000
 2041 0ade 4889C6   		movq	%rax, %rsi
 2042 0ae1 4889DF   		movq	%rbx, %rdi
 2043 0ae4 E8000000 		call	_ZN8UnitTest4TestC2EPKcS2_S2_i@PLT
 2043      00
 2044 0ae9 488D1500 		leaq	16+_ZTVN12_GLOBAL__N_115SuiteTestSuite163TestDummyFixtureSimilarlyNamedFixtureTestsInDifferen
 2044      000000
 2045 0af0 488B45E8 		movq	-24(%rbp), %rax
 2046 0af4 488910   		movq	%rdx, (%rax)
 2047              	.LBE25:
 2048 0af7 90       		nop
 2049 0af8 488B5DF8 		movq	-8(%rbp), %rbx
 2050 0afc C9       		leave
 2051              		.cfi_def_cfa 7, 8
 2052 0afd C3       		ret
 2053              		.cfi_endproc
 2054              	.LFE1192:
 2056              		.set	_ZN12_GLOBAL__N_115SuiteTestSuite163TestDummyFixtureSimilarlyNamedFixtureTestsInDifferentSuit
 2057              		.local	_ZN12_GLOBAL__N_115SuiteTestSuite171testDummyFixtureSimilarlyNamedFixtureTestsInDifferentSu
 2058              		.comm	_ZN12_GLOBAL__N_115SuiteTestSuite171testDummyFixtureSimilarlyNamedFixtureTestsInDifferentSui
 2059              		.local	_ZN12_GLOBAL__N_115SuiteTestSuite164adderDummyFixtureSimilarlyNamedFixtureTestsInDifferentS
 2060              		.comm	_ZN12_GLOBAL__N_115SuiteTestSuite164adderDummyFixtureSimilarlyNamedFixtureTestsInDifferentSu
 2061              		.section	.rodata
 2062              		.align 8
 2063              	.LC27:
 2064 03f8 556E6861 		.string	"Unhandled exception while destroying fixture DummyFixture"
 2064      6E646C65 
 2064      64206578 
 2064      63657074 
 2064      696F6E20 
 2065 0432 00000000 		.align 8
 2065      0000
 2066              	.LC28:
 2067 0438 556E6861 		.string	"Unhandled exception while constructing fixture DummyFixture"
 2067      6E646C65 
 2067      64206578 
 2067      63657074 
 2067      696F6E20 
 2068              		.text
 2069              		.align 2
 2071              	_ZNK12_GLOBAL__N_115SuiteTestSuite163TestDummyFixtureSimilarlyNamedFixtureTestsInDifferentSuitesWor
 2072              	.LFB1194:
 2073              		.loc 6 67 2
 2074              		.cfi_startproc
 2075              		.cfi_personality 0x9b,DW.ref.__gxx_personality_v0
 2076              		.cfi_lsda 0x1b,.LLSDA1194
 2077 0afe F30F1EFA 		endbr64
 2078 0b02 55       		pushq	%rbp
 2079              		.cfi_def_cfa_offset 16
 2080              		.cfi_offset 6, -16
 2081 0b03 4889E5   		movq	%rsp, %rbp
 2082              		.cfi_def_cfa_register 6
 2083 0b06 4155     		pushq	%r13
 2084 0b08 4154     		pushq	%r12
 2085 0b0a 53       		pushq	%rbx
 2086 0b0b 4881ECF8 		subq	$504, %rsp
 2086      010000
 2087              		.cfi_offset 13, -24
 2088              		.cfi_offset 12, -32
 2089              		.cfi_offset 3, -40
 2090 0b12 4889BDF8 		movq	%rdi, -520(%rbp)
 2090      FDFFFF
 2091              		.loc 6 67 2
 2092 0b19 64488B04 		movq	%fs:40, %rax
 2092      25280000 
 2092      00
 2093 0b22 488945D8 		movq	%rax, -40(%rbp)
 2094 0b26 31C0     		xorl	%eax, %eax
 2095 0b28 C6850FFE 		movb	$0, -497(%rbp)
 2095      FFFF00
 2096              	.LBB26:
 2097 0b2f 488B85F8 		movq	-520(%rbp), %rax
 2097      FDFFFF
 2098 0b36 488D5008 		leaq	8(%rax), %rdx
 2099 0b3a 488D8520 		leaq	-480(%rbp), %rax
 2099      FEFFFF
 2100 0b41 4889D6   		movq	%rdx, %rsi
 2101 0b44 4889C7   		movq	%rax, %rdi
 2102 0b47 E846FFFF 		call	_ZN12_GLOBAL__N_115SuiteTestSuite165DummyFixtureSimilarlyNamedFixtureTestsInDifferentSuitesWo
 2102      FF
 2103 0b4c C6850FFE 		movb	$1, -497(%rbp)
 2103      FFFF01
 2104 0b53 488B85F8 		movq	-520(%rbp), %rax
 2104      FDFFFF
 2105 0b5a 488D5008 		leaq	8(%rax), %rdx
 2106 0b5e 488D8520 		leaq	-480(%rbp), %rax
 2106      FEFFFF
 2107 0b65 4889D6   		movq	%rdx, %rsi
 2108 0b68 4889C7   		movq	%rax, %rdi
 2109              	.LEHB35:
 2110 0b6b E8502A00 		call	_ZN8UnitTest11ExecuteTestIN12_GLOBAL__N_115SuiteTestSuite165DummyFixtureSimilarlyNamedFixture
 2110      00
 2111              	.LEHE35:
 2112              	.LBE26:
 2113 0b70 E9630200 		jmp	.L89
 2113      00
 2114              	.L102:
 2115 0b75 F30F1EFA 		endbr64
 2116 0b79 4883FA01 		cmpq	$1, %rdx
 2117 0b7d 740F     		je	.L91
 2118 0b7f 4883FA02 		cmpq	$2, %rdx
 2119 0b83 0F84A700 		je	.L92
 2119      0000
 2120 0b89 E94D0100 		jmp	.L107
 2120      00
 2121              	.L91:
 2122              	.LBB27:
 2123              		.loc 6 67 2 is_stmt 0 discriminator 1
 2124 0b8e 4889C7   		movq	%rax, %rdi
 2125 0b91 E8000000 		call	__cxa_begin_catch@PLT
 2125      00
 2126 0b96 48898518 		movq	%rax, -488(%rbp)
 2126      FEFFFF
 2127              	.LEHB36:
 2128 0b9d E8000000 		call	_ZN8UnitTest11CurrentTest7ResultsEv@PLT
 2128      00
 2129 0ba2 488B18   		movq	(%rax), %rbx
 2130 0ba5 488B8518 		movq	-488(%rbp), %rax
 2130      FEFFFF
 2131 0bac 488B00   		movq	(%rax), %rax
 2132 0baf 4883C010 		addq	$16, %rax
 2133 0bb3 488B10   		movq	(%rax), %rdx
 2134 0bb6 488B8518 		movq	-488(%rbp), %rax
 2134      FEFFFF
 2135 0bbd 4889C7   		movq	%rax, %rdi
 2136 0bc0 FFD2     		call	*%rdx
 2137              	.LVL2:
 2138 0bc2 4989C4   		movq	%rax, %r12
 2139 0bc5 488B8518 		movq	-488(%rbp), %rax
 2139      FEFFFF
 2140 0bcc 4889C7   		movq	%rax, %rdi
 2141 0bcf E8000000 		call	_ZNK8UnitTest15AssertException10LineNumberEv@PLT
 2141      00
 2142              		.loc 6 67 2 discriminator 5
 2143 0bd4 4189C5   		movl	%eax, %r13d
 2144 0bd7 488B8518 		movq	-488(%rbp), %rax
 2144      FEFFFF
 2145 0bde 4889C7   		movq	%rax, %rdi
 2146 0be1 E8000000 		call	_ZNK8UnitTest15AssertException8FilenameEv@PLT
 2146      00
 2147              		.loc 6 67 2 discriminator 7
 2148 0be6 4889C1   		movq	%rax, %rcx
 2149 0be9 488B85F8 		movq	-520(%rbp), %rax
 2149      FDFFFF
 2150 0bf0 488B5008 		movq	8(%rax), %rdx
 2151 0bf4 488B85F8 		movq	-520(%rbp), %rax
 2151      FDFFFF
 2152 0bfb 488B7010 		movq	16(%rax), %rsi
 2153 0bff 488D8520 		leaq	-480(%rbp), %rax
 2153      FEFFFF
 2154 0c06 4589E8   		movl	%r13d, %r8d
 2155 0c09 4889C7   		movq	%rax, %rdi
 2156 0c0c E8000000 		call	_ZN8UnitTest11TestDetailsC1EPKcS2_S2_i@PLT
 2156      00
 2157              		.loc 6 67 2 discriminator 11
 2158 0c11 488D8520 		leaq	-480(%rbp), %rax
 2158      FEFFFF
 2159 0c18 4C89E2   		movq	%r12, %rdx
 2160 0c1b 4889C6   		movq	%rax, %rsi
 2161 0c1e 4889DF   		movq	%rbx, %rdi
 2162 0c21 E8000000 		call	_ZN8UnitTest11TestResults13OnTestFailureERKNS_11TestDetailsEPKc@PLT
 2162      00
 2163              	.LEHE36:
 2164              		.loc 6 67 2 discriminator 13
 2165 0c26 E8000000 		call	__cxa_end_catch@PLT
 2165      00
 2166              	.LBE27:
 2167 0c2b E9A80100 		jmp	.L89
 2167      00
 2168              	.L92:
 2169              	.LBB28:
 2170              		.loc 6 67 2 discriminator 2
 2171 0c30 4889C7   		movq	%rax, %rdi
 2172 0c33 E8000000 		call	__cxa_begin_catch@PLT
 2172      00
 2173 0c38 48898510 		movq	%rax, -496(%rbp)
 2173      FEFFFF
 2174              	.LBB29:
 2175 0c3f 488D8540 		leaq	-448(%rbp), %rax
 2175      FEFFFF
 2176 0c46 4889C7   		movq	%rax, %rdi
 2177              	.LEHB37:
 2178 0c49 E8000000 		call	_ZN8UnitTest15MemoryOutStreamC1Ev
 2178      00
 2179              	.LEHE37:
 2180              		.loc 6 67 2 discriminator 15
 2181 0c4e 488D8540 		leaq	-448(%rbp), %rax
 2181      FEFFFF
 2182 0c55 488D1500 		leaq	.LC11(%rip), %rdx
 2182      000000
 2183 0c5c 4889D6   		movq	%rdx, %rsi
 2184 0c5f 4889C7   		movq	%rax, %rdi
 2185              	.LEHB38:
 2186 0c62 E8000000 		call	_ZStlsISt11char_traitsIcEERSt13basic_ostreamIcT_ES5_PKc@PLT
 2186      00
 2187 0c67 4889C3   		movq	%rax, %rbx
 2188 0c6a 488B8510 		movq	-496(%rbp), %rax
 2188      FEFFFF
 2189 0c71 488B00   		movq	(%rax), %rax
 2190 0c74 4883C010 		addq	$16, %rax
 2191 0c78 488B10   		movq	(%rax), %rdx
 2192 0c7b 488B8510 		movq	-496(%rbp), %rax
 2192      FEFFFF
 2193 0c82 4889C7   		movq	%rax, %rdi
 2194 0c85 FFD2     		call	*%rdx
 2195              	.LVL3:
 2196 0c87 4889C6   		movq	%rax, %rsi
 2197 0c8a 4889DF   		movq	%rbx, %rdi
 2198 0c8d E8000000 		call	_ZStlsISt11char_traitsIcEERSt13basic_ostreamIcT_ES5_PKc@PLT
 2198      00
 2199              		.loc 6 67 2 discriminator 19
 2200 0c92 E8000000 		call	_ZN8UnitTest11CurrentTest7ResultsEv@PLT
 2200      00
 2201 0c97 488B18   		movq	(%rax), %rbx
 2202 0c9a 488D8540 		leaq	-448(%rbp), %rax
 2202      FEFFFF
 2203 0ca1 4889C7   		movq	%rax, %rdi
 2204 0ca4 E8000000 		call	_ZNK8UnitTest15MemoryOutStream7GetTextEv@PLT
 2204      00
 2205              		.loc 6 67 2 discriminator 21
 2206 0ca9 4889C2   		movq	%rax, %rdx
 2207 0cac 488B85F8 		movq	-520(%rbp), %rax
 2207      FDFFFF
 2208 0cb3 4883C008 		addq	$8, %rax
 2209 0cb7 4889C6   		movq	%rax, %rsi
 2210 0cba 4889DF   		movq	%rbx, %rdi
 2211 0cbd E8000000 		call	_ZN8UnitTest11TestResults13OnTestFailureERKNS_11TestDetailsEPKc@PLT
 2211      00
 2212              	.LEHE38:
 2213              		.loc 6 67 2 discriminator 25
 2214 0cc2 488D8540 		leaq	-448(%rbp), %rax
 2214      FEFFFF
 2215 0cc9 4889C7   		movq	%rax, %rdi
 2216              	.LEHB39:
 2217 0ccc E8000000 		call	_ZN8UnitTest15MemoryOutStreamD1Ev
 2217      00
 2218              	.LEHE39:
 2219              	.LBE29:
 2220              		.loc 6 67 2 discriminator 26
 2221 0cd1 E8000000 		call	__cxa_end_catch@PLT
 2221      00
 2222              	.LBE28:
 2223 0cd6 E9FD0000 		jmp	.L89
 2223      00
 2224              	.L107:
 2225              		.loc 6 67 2 discriminator 3
 2226 0cdb 4889C7   		movq	%rax, %rdi
 2227 0cde E8000000 		call	__cxa_begin_catch@PLT
 2227      00
 2228 0ce3 80BD0FFE 		cmpb	$0, -497(%rbp)
 2228      FFFF00
 2229 0cea 7445     		je	.L95
 2230              	.LEHB40:
 2231              		.loc 6 67 2 discriminator 28
 2232 0cec E8000000 		call	_ZN8UnitTest11CurrentTest7ResultsEv@PLT
 2232      00
 2233 0cf1 488B18   		movq	(%rax), %rbx
 2234 0cf4 488B85F8 		movq	-520(%rbp), %rax
 2234      FDFFFF
 2235 0cfb 488D4808 		leaq	8(%rax), %rcx
 2236 0cff 488D8520 		leaq	-480(%rbp), %rax
 2236      FEFFFF
 2237 0d06 BA430000 		movl	$67, %edx
 2237      00
 2238 0d0b 4889CE   		movq	%rcx, %rsi
 2239 0d0e 4889C7   		movq	%rax, %rdi
 2240 0d11 E8000000 		call	_ZN8UnitTest11TestDetailsC1ERKS0_i@PLT
 2240      00
 2241              		.loc 6 67 2 discriminator 33
 2242 0d16 488D8520 		leaq	-480(%rbp), %rax
 2242      FEFFFF
 2243 0d1d 488D1500 		leaq	.LC27(%rip), %rdx
 2243      000000
 2244 0d24 4889C6   		movq	%rax, %rsi
 2245 0d27 4889DF   		movq	%rbx, %rdi
 2246 0d2a E8000000 		call	_ZN8UnitTest11TestResults13OnTestFailureERKNS_11TestDetailsEPKc@PLT
 2246      00
 2247 0d2f EB43     		jmp	.L96
 2248              	.L95:
 2249              		.loc 6 67 2 discriminator 29
 2250 0d31 E8000000 		call	_ZN8UnitTest11CurrentTest7ResultsEv@PLT
 2250      00
 2251 0d36 488B18   		movq	(%rax), %rbx
 2252 0d39 488B85F8 		movq	-520(%rbp), %rax
 2252      FDFFFF
 2253 0d40 488D4808 		leaq	8(%rax), %rcx
 2254 0d44 488D8520 		leaq	-480(%rbp), %rax
 2254      FEFFFF
 2255 0d4b BA430000 		movl	$67, %edx
 2255      00
 2256 0d50 4889CE   		movq	%rcx, %rsi
 2257 0d53 4889C7   		movq	%rax, %rdi
 2258 0d56 E8000000 		call	_ZN8UnitTest11TestDetailsC1ERKS0_i@PLT
 2258      00
 2259              		.loc 6 67 2 discriminator 40
 2260 0d5b 488D8520 		leaq	-480(%rbp), %rax
 2260      FEFFFF
 2261 0d62 488D1500 		leaq	.LC28(%rip), %rdx
 2261      000000
 2262 0d69 4889C6   		movq	%rax, %rsi
 2263 0d6c 4889DF   		movq	%rbx, %rdi
 2264 0d6f E8000000 		call	_ZN8UnitTest11TestResults13OnTestFailureERKNS_11TestDetailsEPKc@PLT
 2264      00
 2265              	.LEHE40:
 2266              	.L96:
 2267              	.LEHB41:
 2268              		.loc 6 67 2 discriminator 43
 2269 0d74 E8000000 		call	__cxa_end_catch@PLT
 2269      00
 2270 0d79 EB5D     		jmp	.L89
 2271              	.L103:
 2272 0d7b F30F1EFA 		endbr64
 2273              	.LBB31:
 2274              		.loc 6 67 2
 2275 0d7f 4889C3   		movq	%rax, %rbx
 2276 0d82 E8000000 		call	__cxa_end_catch@PLT
 2276      00
 2277 0d87 4889D8   		movq	%rbx, %rax
 2278 0d8a 4889C7   		movq	%rax, %rdi
 2279 0d8d E8000000 		call	_Unwind_Resume@PLT
 2279      00
 2280              	.LEHE41:
 2281              	.L105:
 2282 0d92 F30F1EFA 		endbr64
 2283              	.LBE31:
 2284              	.LBB32:
 2285              	.LBB30:
 2286 0d96 4889C3   		movq	%rax, %rbx
 2287 0d99 488D8540 		leaq	-448(%rbp), %rax
 2287      FEFFFF
 2288 0da0 4889C7   		movq	%rax, %rdi
 2289 0da3 E8000000 		call	_ZN8UnitTest15MemoryOutStreamD1Ev
 2289      00
 2290 0da8 EB07     		jmp	.L99
 2291              	.L104:
 2292 0daa F30F1EFA 		endbr64
 2293              	.LBE30:
 2294 0dae 4889C3   		movq	%rax, %rbx
 2295              	.L99:
 2296 0db1 E8000000 		call	__cxa_end_catch@PLT
 2296      00
 2297 0db6 4889D8   		movq	%rbx, %rax
 2298 0db9 4889C7   		movq	%rax, %rdi
 2299              	.LEHB42:
 2300 0dbc E8000000 		call	_Unwind_Resume@PLT
 2300      00
 2301              	.LEHE42:
 2302              	.L106:
 2303 0dc1 F30F1EFA 		endbr64
 2304              	.LBE32:
 2305 0dc5 4889C3   		movq	%rax, %rbx
 2306 0dc8 E8000000 		call	__cxa_end_catch@PLT
 2306      00
 2307 0dcd 4889D8   		movq	%rbx, %rax
 2308 0dd0 4889C7   		movq	%rax, %rdi
 2309              	.LEHB43:
 2310 0dd3 E8000000 		call	_Unwind_Resume@PLT
 2310      00
 2311              	.LEHE43:
 2312              	.L89:
 2313 0dd8 488B45D8 		movq	-40(%rbp), %rax
 2314 0ddc 64482B04 		subq	%fs:40, %rax
 2314      25280000 
 2314      00
 2315 0de5 7405     		je	.L101
 2316 0de7 E8000000 		call	__stack_chk_fail@PLT
 2316      00
 2317              	.L101:
 2318 0dec 4881C4F8 		addq	$504, %rsp
 2318      010000
 2319 0df3 5B       		popq	%rbx
 2320 0df4 415C     		popq	%r12
 2321 0df6 415D     		popq	%r13
 2322 0df8 5D       		popq	%rbp
 2323              		.cfi_def_cfa 7, 8
 2324 0df9 C3       		ret
 2325              		.cfi_endproc
 2326              	.LFE1194:
 2327              		.section	.gcc_except_table
 2328              		.align 4
 2329              	.LLSDA1194:
 2330 00e0 FF       		.byte	0xff
 2331 00e1 9B       		.byte	0x9b
 2332 00e2 49       		.uleb128 .LLSDATT1194-.LLSDATTD1194
 2333              	.LLSDATTD1194:
 2334 00e3 01       		.byte	0x1
 2335 00e4 33       		.uleb128 .LLSDACSE1194-.LLSDACSB1194
 2336              	.LLSDACSB1194:
 2337 00e5 6D       		.uleb128 .LEHB35-.LFB1194
 2338 00e6 05       		.uleb128 .LEHE35-.LEHB35
 2339 00e7 77       		.uleb128 .L102-.LFB1194
 2340 00e8 05       		.uleb128 0x5
 2341 00e9 9F01     		.uleb128 .LEHB36-.LFB1194
 2342 00eb 8901     		.uleb128 .LEHE36-.LEHB36
 2343 00ed FD04     		.uleb128 .L103-.LFB1194
 2344 00ef 00       		.uleb128 0
 2345 00f0 CB02     		.uleb128 .LEHB37-.LFB1194
 2346 00f2 05       		.uleb128 .LEHE37-.LEHB37
 2347 00f3 AC05     		.uleb128 .L104-.LFB1194
 2348 00f5 00       		.uleb128 0
 2349 00f6 E402     		.uleb128 .LEHB38-.LFB1194
 2350 00f8 60       		.uleb128 .LEHE38-.LEHB38
 2351 00f9 9405     		.uleb128 .L105-.LFB1194
 2352 00fb 00       		.uleb128 0
 2353 00fc CE03     		.uleb128 .LEHB39-.LFB1194
 2354 00fe 05       		.uleb128 .LEHE39-.LEHB39
 2355 00ff AC05     		.uleb128 .L104-.LFB1194
 2356 0101 00       		.uleb128 0
 2357 0102 EE03     		.uleb128 .LEHB40-.LFB1194
 2358 0104 8801     		.uleb128 .LEHE40-.LEHB40
 2359 0106 C305     		.uleb128 .L106-.LFB1194
 2360 0108 00       		.uleb128 0
 2361 0109 F604     		.uleb128 .LEHB41-.LFB1194
 2362 010b 1E       		.uleb128 .LEHE41-.LEHB41
 2363 010c 00       		.uleb128 0
 2364 010d 00       		.uleb128 0
 2365 010e BE05     		.uleb128 .LEHB42-.LFB1194
 2366 0110 05       		.uleb128 .LEHE42-.LEHB42
 2367 0111 00       		.uleb128 0
 2368 0112 00       		.uleb128 0
 2369 0113 D505     		.uleb128 .LEHB43-.LFB1194
 2370 0115 05       		.uleb128 .LEHE43-.LEHB43
 2371 0116 00       		.uleb128 0
 2372 0117 00       		.uleb128 0
 2373              	.LLSDACSE1194:
 2374 0118 03       		.byte	0x3
 2375 0119 00       		.byte	0
 2376 011a 02       		.byte	0x2
 2377 011b 7D       		.byte	0x7d
 2378 011c 01       		.byte	0x1
 2379 011d 7D       		.byte	0x7d
 2380 011e 0000     		.align 4
 2381 0120 00000000 		.long	0
 2382              	
 2383 0124 00000000 		.long	DW.ref._ZTISt9exception-.
 2384 0128 00000000 		.long	DW.ref._ZTIN8UnitTest15AssertExceptionE-.
 2385              	.LLSDATT1194:
 2386              		.text
 2388              		.align 2
 2390              	_ZN12_GLOBAL__N_115SuiteTestSuite165DummyFixtureSimilarlyNamedFixtureTestsInDifferentSuitesWorkHelp
 2391              	.LFB1195:
  68:TestTestMacros.cpp **** 	{
 2392              		.loc 6 68 2 is_stmt 1
 2393              		.cfi_startproc
 2394 0dfa F30F1EFA 		endbr64
 2395 0dfe 55       		pushq	%rbp
 2396              		.cfi_def_cfa_offset 16
 2397              		.cfi_offset 6, -16
 2398 0dff 4889E5   		movq	%rsp, %rbp
 2399              		.cfi_def_cfa_register 6
 2400 0e02 48897DF8 		movq	%rdi, -8(%rbp)
  69:TestTestMacros.cpp **** 	}
 2401              		.loc 6 69 2
 2402 0e06 90       		nop
 2403 0e07 5D       		popq	%rbp
 2404              		.cfi_def_cfa 7, 8
 2405 0e08 C3       		ret
 2406              		.cfi_endproc
 2407              	.LFE1195:
 2409              		.section	.rodata
 2410              	.LC29:
 2411 0474 54657374 		.string	"TestSuite2"
 2411      53756974 
 2411      653200
 2412              		.text
 2414              	_ZN12_GLOBAL__N_115SuiteTestSuite213UnitTestSuite12GetSuiteNameEv:
 2415              	.LFB1196:
  70:TestTestMacros.cpp **** }
  71:TestTestMacros.cpp **** 
  72:TestTestMacros.cpp **** SUITE(TestSuite2)
 2416              		.loc 6 72 1
 2417              		.cfi_startproc
 2418 0e09 55       		pushq	%rbp
 2419              		.cfi_def_cfa_offset 16
 2420              		.cfi_offset 6, -16
 2421 0e0a 4889E5   		movq	%rsp, %rbp
 2422              		.cfi_def_cfa_register 6
 2423              		.loc 6 72 1
 2424 0e0d 488D0500 		leaq	.LC29(%rip), %rax
 2424      000000
 2425 0e14 5D       		popq	%rbp
 2426              		.cfi_def_cfa 7, 8
 2427 0e15 C3       		ret
 2428              		.cfi_endproc
 2429              	.LFE1196:
 2431              		.align 2
 2433              	_ZN12_GLOBAL__N_115SuiteTestSuite244TestSimilarlyNamedTestsInDifferentSuitesWorkC2Ev:
 2434              	.LFB1198:
  73:TestTestMacros.cpp **** {
  74:TestTestMacros.cpp **** 	TEST(SimilarlyNamedTestsInDifferentSuitesWork)
 2435              		.loc 6 74 2
 2436              		.cfi_startproc
 2437 0e16 55       		pushq	%rbp
 2438              		.cfi_def_cfa_offset 16
 2439              		.cfi_offset 6, -16
 2440 0e17 4889E5   		movq	%rsp, %rbp
 2441              		.cfi_def_cfa_register 6
 2442 0e1a 53       		pushq	%rbx
 2443 0e1b 4883EC18 		subq	$24, %rsp
 2444              		.cfi_offset 3, -24
 2445 0e1f 48897DE8 		movq	%rdi, -24(%rbp)
 2446              	.LBB33:
 2447              		.loc 6 74 2
 2448 0e23 488B5DE8 		movq	-24(%rbp), %rbx
 2449 0e27 E8DDFFFF 		call	_ZN12_GLOBAL__N_115SuiteTestSuite213UnitTestSuite12GetSuiteNameEv
 2449      FF
 2450 0e2c 4889C2   		movq	%rax, %rdx
 2451 0e2f 41B84A00 		movl	$74, %r8d
 2451      0000
 2452 0e35 488D0500 		leaq	.LC2(%rip), %rax
 2452      000000
 2453 0e3c 4889C1   		movq	%rax, %rcx
 2454 0e3f 488D0500 		leaq	.LC25(%rip), %rax
 2454      000000
 2455 0e46 4889C6   		movq	%rax, %rsi
 2456 0e49 4889DF   		movq	%rbx, %rdi
 2457 0e4c E8000000 		call	_ZN8UnitTest4TestC2EPKcS2_S2_i@PLT
 2457      00
 2458 0e51 488D1500 		leaq	16+_ZTVN12_GLOBAL__N_115SuiteTestSuite244TestSimilarlyNamedTestsInDifferentSuitesWorkE(%rip),
 2458      000000
 2459 0e58 488B45E8 		movq	-24(%rbp), %rax
 2460 0e5c 488910   		movq	%rdx, (%rax)
 2461              	.LBE33:
 2462 0e5f 90       		nop
 2463 0e60 488B5DF8 		movq	-8(%rbp), %rbx
 2464 0e64 C9       		leave
 2465              		.cfi_def_cfa 7, 8
 2466 0e65 C3       		ret
 2467              		.cfi_endproc
 2468              	.LFE1198:
 2470              		.set	_ZN12_GLOBAL__N_115SuiteTestSuite244TestSimilarlyNamedTestsInDifferentSuitesWorkC1Ev,_ZN12_GL
 2471              		.local	_ZN12_GLOBAL__N_115SuiteTestSuite252testSimilarlyNamedTestsInDifferentSuitesWorkInstanceE
 2472              		.comm	_ZN12_GLOBAL__N_115SuiteTestSuite252testSimilarlyNamedTestsInDifferentSuitesWorkInstanceE,56
 2473              		.local	_ZN12_GLOBAL__N_115SuiteTestSuite245adderSimilarlyNamedTestsInDifferentSuitesWorkE
 2474              		.comm	_ZN12_GLOBAL__N_115SuiteTestSuite245adderSimilarlyNamedTestsInDifferentSuitesWorkE,1,1
 2475              		.align 2
 2477              	_ZNK12_GLOBAL__N_115SuiteTestSuite244TestSimilarlyNamedTestsInDifferentSuitesWork7RunImplEv:
 2478              	.LFB1200:
  75:TestTestMacros.cpp **** 	{
 2479              		.loc 6 75 2
 2480              		.cfi_startproc
 2481 0e66 F30F1EFA 		endbr64
 2482 0e6a 55       		pushq	%rbp
 2483              		.cfi_def_cfa_offset 16
 2484              		.cfi_offset 6, -16
 2485 0e6b 4889E5   		movq	%rsp, %rbp
 2486              		.cfi_def_cfa_register 6
 2487 0e6e 48897DF8 		movq	%rdi, -8(%rbp)
  76:TestTestMacros.cpp **** 	}
 2488              		.loc 6 76 2
 2489 0e72 90       		nop
 2490 0e73 5D       		popq	%rbp
 2491              		.cfi_def_cfa 7, 8
 2492 0e74 C3       		ret
 2493              		.cfi_endproc
 2494              	.LFE1200:
 2496 0e75 90       		.align 2
 2498              	_ZN12_GLOBAL__N_115SuiteTestSuite265DummyFixtureSimilarlyNamedFixtureTestsInDifferentSuitesWorkHelp
 2499              	.LFB1202:
  77:TestTestMacros.cpp **** 
  78:TestTestMacros.cpp **** 	TEST_FIXTURE(DummyFixture,SimilarlyNamedFixtureTestsInDifferentSuitesWork)
 2500              		.loc 6 78 2
 2501              		.cfi_startproc
 2502 0e76 55       		pushq	%rbp
 2503              		.cfi_def_cfa_offset 16
 2504              		.cfi_offset 6, -16
 2505 0e77 4889E5   		movq	%rsp, %rbp
 2506              		.cfi_def_cfa_register 6
 2507 0e7a 48897DF8 		movq	%rdi, -8(%rbp)
 2508 0e7e 488975F0 		movq	%rsi, -16(%rbp)
 2509              	.LBB34:
 2510              		.loc 6 78 2
 2511 0e82 488B45F8 		movq	-8(%rbp), %rax
 2512 0e86 488B55F0 		movq	-16(%rbp), %rdx
 2513 0e8a 48895008 		movq	%rdx, 8(%rax)
 2514              	.LBE34:
 2515 0e8e 90       		nop
 2516 0e8f 5D       		popq	%rbp
 2517              		.cfi_def_cfa 7, 8
 2518 0e90 C3       		ret
 2519              		.cfi_endproc
 2520              	.LFE1202:
 2522              		.set	_ZN12_GLOBAL__N_115SuiteTestSuite265DummyFixtureSimilarlyNamedFixtureTestsInDifferentSuitesWo
 2523 0e91 90       		.align 2
 2525              	_ZN12_GLOBAL__N_115SuiteTestSuite263TestDummyFixtureSimilarlyNamedFixtureTestsInDifferentSuitesWork
 2526              	.LFB1205:
 2527              		.loc 6 78 2
 2528              		.cfi_startproc
 2529 0e92 55       		pushq	%rbp
 2530              		.cfi_def_cfa_offset 16
 2531              		.cfi_offset 6, -16
 2532 0e93 4889E5   		movq	%rsp, %rbp
 2533              		.cfi_def_cfa_register 6
 2534 0e96 53       		pushq	%rbx
 2535 0e97 4883EC18 		subq	$24, %rsp
 2536              		.cfi_offset 3, -24
 2537 0e9b 48897DE8 		movq	%rdi, -24(%rbp)
 2538              	.LBB35:
 2539              		.loc 6 78 2
 2540 0e9f 488B5DE8 		movq	-24(%rbp), %rbx
 2541 0ea3 E861FFFF 		call	_ZN12_GLOBAL__N_115SuiteTestSuite213UnitTestSuite12GetSuiteNameEv
 2541      FF
 2542 0ea8 4889C2   		movq	%rax, %rdx
 2543 0eab 41B84E00 		movl	$78, %r8d
 2543      0000
 2544 0eb1 488D0500 		leaq	.LC2(%rip), %rax
 2544      000000
 2545 0eb8 4889C1   		movq	%rax, %rcx
 2546 0ebb 488D0500 		leaq	.LC26(%rip), %rax
 2546      000000
 2547 0ec2 4889C6   		movq	%rax, %rsi
 2548 0ec5 4889DF   		movq	%rbx, %rdi
 2549 0ec8 E8000000 		call	_ZN8UnitTest4TestC2EPKcS2_S2_i@PLT
 2549      00
 2550 0ecd 488D1500 		leaq	16+_ZTVN12_GLOBAL__N_115SuiteTestSuite263TestDummyFixtureSimilarlyNamedFixtureTestsInDifferen
 2550      000000
 2551 0ed4 488B45E8 		movq	-24(%rbp), %rax
 2552 0ed8 488910   		movq	%rdx, (%rax)
 2553              	.LBE35:
 2554 0edb 90       		nop
 2555 0edc 488B5DF8 		movq	-8(%rbp), %rbx
 2556 0ee0 C9       		leave
 2557              		.cfi_def_cfa 7, 8
 2558 0ee1 C3       		ret
 2559              		.cfi_endproc
 2560              	.LFE1205:
 2562              		.set	_ZN12_GLOBAL__N_115SuiteTestSuite263TestDummyFixtureSimilarlyNamedFixtureTestsInDifferentSuit
 2563              		.local	_ZN12_GLOBAL__N_115SuiteTestSuite271testDummyFixtureSimilarlyNamedFixtureTestsInDifferentSu
 2564              		.comm	_ZN12_GLOBAL__N_115SuiteTestSuite271testDummyFixtureSimilarlyNamedFixtureTestsInDifferentSui
 2565              		.local	_ZN12_GLOBAL__N_115SuiteTestSuite264adderDummyFixtureSimilarlyNamedFixtureTestsInDifferentS
 2566              		.comm	_ZN12_GLOBAL__N_115SuiteTestSuite264adderDummyFixtureSimilarlyNamedFixtureTestsInDifferentSu
 2567              		.align 2
 2569              	_ZNK12_GLOBAL__N_115SuiteTestSuite263TestDummyFixtureSimilarlyNamedFixtureTestsInDifferentSuitesWor
 2570              	.LFB1207:
 2571              		.loc 6 78 2
 2572              		.cfi_startproc
 2573              		.cfi_personality 0x9b,DW.ref.__gxx_personality_v0
 2574              		.cfi_lsda 0x1b,.LLSDA1207
 2575 0ee2 F30F1EFA 		endbr64
 2576 0ee6 55       		pushq	%rbp
 2577              		.cfi_def_cfa_offset 16
 2578              		.cfi_offset 6, -16
 2579 0ee7 4889E5   		movq	%rsp, %rbp
 2580              		.cfi_def_cfa_register 6
 2581 0eea 4155     		pushq	%r13
 2582 0eec 4154     		pushq	%r12
 2583 0eee 53       		pushq	%rbx
 2584 0eef 4881ECF8 		subq	$504, %rsp
 2584      010000
 2585              		.cfi_offset 13, -24
 2586              		.cfi_offset 12, -32
 2587              		.cfi_offset 3, -40
 2588 0ef6 4889BDF8 		movq	%rdi, -520(%rbp)
 2588      FDFFFF
 2589              		.loc 6 78 2
 2590 0efd 64488B04 		movq	%fs:40, %rax
 2590      25280000 
 2590      00
 2591 0f06 488945D8 		movq	%rax, -40(%rbp)
 2592 0f0a 31C0     		xorl	%eax, %eax
 2593 0f0c C6850FFE 		movb	$0, -497(%rbp)
 2593      FFFF00
 2594              	.LBB36:
 2595 0f13 488B85F8 		movq	-520(%rbp), %rax
 2595      FDFFFF
 2596 0f1a 488D5008 		leaq	8(%rax), %rdx
 2597 0f1e 488D8520 		leaq	-480(%rbp), %rax
 2597      FEFFFF
 2598 0f25 4889D6   		movq	%rdx, %rsi
 2599 0f28 4889C7   		movq	%rax, %rdi
 2600 0f2b E846FFFF 		call	_ZN12_GLOBAL__N_115SuiteTestSuite265DummyFixtureSimilarlyNamedFixtureTestsInDifferentSuitesWo
 2600      FF
 2601 0f30 C6850FFE 		movb	$1, -497(%rbp)
 2601      FFFF01
 2602 0f37 488B85F8 		movq	-520(%rbp), %rax
 2602      FDFFFF
 2603 0f3e 488D5008 		leaq	8(%rax), %rdx
 2604 0f42 488D8520 		leaq	-480(%rbp), %rax
 2604      FEFFFF
 2605 0f49 4889D6   		movq	%rdx, %rsi
 2606 0f4c 4889C7   		movq	%rax, %rdi
 2607              	.LEHB44:
 2608 0f4f E85B2900 		call	_ZN8UnitTest11ExecuteTestIN12_GLOBAL__N_115SuiteTestSuite265DummyFixtureSimilarlyNamedFixture
 2608      00
 2609              	.LEHE44:
 2610              	.LBE36:
 2611 0f54 E9630200 		jmp	.L115
 2611      00
 2612              	.L128:
 2613 0f59 F30F1EFA 		endbr64
 2614 0f5d 4883FA01 		cmpq	$1, %rdx
 2615 0f61 740F     		je	.L117
 2616 0f63 4883FA02 		cmpq	$2, %rdx
 2617 0f67 0F84A700 		je	.L118
 2617      0000
 2618 0f6d E94D0100 		jmp	.L133
 2618      00
 2619              	.L117:
 2620              	.LBB37:
 2621              		.loc 6 78 2 is_stmt 0 discriminator 1
 2622 0f72 4889C7   		movq	%rax, %rdi
 2623 0f75 E8000000 		call	__cxa_begin_catch@PLT
 2623      00
 2624 0f7a 48898518 		movq	%rax, -488(%rbp)
 2624      FEFFFF
 2625              	.LEHB45:
 2626 0f81 E8000000 		call	_ZN8UnitTest11CurrentTest7ResultsEv@PLT
 2626      00
 2627 0f86 488B18   		movq	(%rax), %rbx
 2628 0f89 488B8518 		movq	-488(%rbp), %rax
 2628      FEFFFF
 2629 0f90 488B00   		movq	(%rax), %rax
 2630 0f93 4883C010 		addq	$16, %rax
 2631 0f97 488B10   		movq	(%rax), %rdx
 2632 0f9a 488B8518 		movq	-488(%rbp), %rax
 2632      FEFFFF
 2633 0fa1 4889C7   		movq	%rax, %rdi
 2634 0fa4 FFD2     		call	*%rdx
 2635              	.LVL4:
 2636 0fa6 4989C4   		movq	%rax, %r12
 2637 0fa9 488B8518 		movq	-488(%rbp), %rax
 2637      FEFFFF
 2638 0fb0 4889C7   		movq	%rax, %rdi
 2639 0fb3 E8000000 		call	_ZNK8UnitTest15AssertException10LineNumberEv@PLT
 2639      00
 2640              		.loc 6 78 2 discriminator 5
 2641 0fb8 4189C5   		movl	%eax, %r13d
 2642 0fbb 488B8518 		movq	-488(%rbp), %rax
 2642      FEFFFF
 2643 0fc2 4889C7   		movq	%rax, %rdi
 2644 0fc5 E8000000 		call	_ZNK8UnitTest15AssertException8FilenameEv@PLT
 2644      00
 2645              		.loc 6 78 2 discriminator 7
 2646 0fca 4889C1   		movq	%rax, %rcx
 2647 0fcd 488B85F8 		movq	-520(%rbp), %rax
 2647      FDFFFF
 2648 0fd4 488B5008 		movq	8(%rax), %rdx
 2649 0fd8 488B85F8 		movq	-520(%rbp), %rax
 2649      FDFFFF
 2650 0fdf 488B7010 		movq	16(%rax), %rsi
 2651 0fe3 488D8520 		leaq	-480(%rbp), %rax
 2651      FEFFFF
 2652 0fea 4589E8   		movl	%r13d, %r8d
 2653 0fed 4889C7   		movq	%rax, %rdi
 2654 0ff0 E8000000 		call	_ZN8UnitTest11TestDetailsC1EPKcS2_S2_i@PLT
 2654      00
 2655              		.loc 6 78 2 discriminator 11
 2656 0ff5 488D8520 		leaq	-480(%rbp), %rax
 2656      FEFFFF
 2657 0ffc 4C89E2   		movq	%r12, %rdx
 2658 0fff 4889C6   		movq	%rax, %rsi
 2659 1002 4889DF   		movq	%rbx, %rdi
 2660 1005 E8000000 		call	_ZN8UnitTest11TestResults13OnTestFailureERKNS_11TestDetailsEPKc@PLT
 2660      00
 2661              	.LEHE45:
 2662              		.loc 6 78 2 discriminator 13
 2663 100a E8000000 		call	__cxa_end_catch@PLT
 2663      00
 2664              	.LBE37:
 2665 100f E9A80100 		jmp	.L115
 2665      00
 2666              	.L118:
 2667              	.LBB38:
 2668              		.loc 6 78 2 discriminator 2
 2669 1014 4889C7   		movq	%rax, %rdi
 2670 1017 E8000000 		call	__cxa_begin_catch@PLT
 2670      00
 2671 101c 48898510 		movq	%rax, -496(%rbp)
 2671      FEFFFF
 2672              	.LBB39:
 2673 1023 488D8540 		leaq	-448(%rbp), %rax
 2673      FEFFFF
 2674 102a 4889C7   		movq	%rax, %rdi
 2675              	.LEHB46:
 2676 102d E8000000 		call	_ZN8UnitTest15MemoryOutStreamC1Ev
 2676      00
 2677              	.LEHE46:
 2678              		.loc 6 78 2 discriminator 15
 2679 1032 488D8540 		leaq	-448(%rbp), %rax
 2679      FEFFFF
 2680 1039 488D1500 		leaq	.LC11(%rip), %rdx
 2680      000000
 2681 1040 4889D6   		movq	%rdx, %rsi
 2682 1043 4889C7   		movq	%rax, %rdi
 2683              	.LEHB47:
 2684 1046 E8000000 		call	_ZStlsISt11char_traitsIcEERSt13basic_ostreamIcT_ES5_PKc@PLT
 2684      00
 2685 104b 4889C3   		movq	%rax, %rbx
 2686 104e 488B8510 		movq	-496(%rbp), %rax
 2686      FEFFFF
 2687 1055 488B00   		movq	(%rax), %rax
 2688 1058 4883C010 		addq	$16, %rax
 2689 105c 488B10   		movq	(%rax), %rdx
 2690 105f 488B8510 		movq	-496(%rbp), %rax
 2690      FEFFFF
 2691 1066 4889C7   		movq	%rax, %rdi
 2692 1069 FFD2     		call	*%rdx
 2693              	.LVL5:
 2694 106b 4889C6   		movq	%rax, %rsi
 2695 106e 4889DF   		movq	%rbx, %rdi
 2696 1071 E8000000 		call	_ZStlsISt11char_traitsIcEERSt13basic_ostreamIcT_ES5_PKc@PLT
 2696      00
 2697              		.loc 6 78 2 discriminator 19
 2698 1076 E8000000 		call	_ZN8UnitTest11CurrentTest7ResultsEv@PLT
 2698      00
 2699 107b 488B18   		movq	(%rax), %rbx
 2700 107e 488D8540 		leaq	-448(%rbp), %rax
 2700      FEFFFF
 2701 1085 4889C7   		movq	%rax, %rdi
 2702 1088 E8000000 		call	_ZNK8UnitTest15MemoryOutStream7GetTextEv@PLT
 2702      00
 2703              		.loc 6 78 2 discriminator 21
 2704 108d 4889C2   		movq	%rax, %rdx
 2705 1090 488B85F8 		movq	-520(%rbp), %rax
 2705      FDFFFF
 2706 1097 4883C008 		addq	$8, %rax
 2707 109b 4889C6   		movq	%rax, %rsi
 2708 109e 4889DF   		movq	%rbx, %rdi
 2709 10a1 E8000000 		call	_ZN8UnitTest11TestResults13OnTestFailureERKNS_11TestDetailsEPKc@PLT
 2709      00
 2710              	.LEHE47:
 2711              		.loc 6 78 2 discriminator 25
 2712 10a6 488D8540 		leaq	-448(%rbp), %rax
 2712      FEFFFF
 2713 10ad 4889C7   		movq	%rax, %rdi
 2714              	.LEHB48:
 2715 10b0 E8000000 		call	_ZN8UnitTest15MemoryOutStreamD1Ev
 2715      00
 2716              	.LEHE48:
 2717              	.LBE39:
 2718              		.loc 6 78 2 discriminator 26
 2719 10b5 E8000000 		call	__cxa_end_catch@PLT
 2719      00
 2720              	.LBE38:
 2721 10ba E9FD0000 		jmp	.L115
 2721      00
 2722              	.L133:
 2723              		.loc 6 78 2 discriminator 3
 2724 10bf 4889C7   		movq	%rax, %rdi
 2725 10c2 E8000000 		call	__cxa_begin_catch@PLT
 2725      00
 2726 10c7 80BD0FFE 		cmpb	$0, -497(%rbp)
 2726      FFFF00
 2727 10ce 7445     		je	.L121
 2728              	.LEHB49:
 2729              		.loc 6 78 2 discriminator 28
 2730 10d0 E8000000 		call	_ZN8UnitTest11CurrentTest7ResultsEv@PLT
 2730      00
 2731 10d5 488B18   		movq	(%rax), %rbx
 2732 10d8 488B85F8 		movq	-520(%rbp), %rax
 2732      FDFFFF
 2733 10df 488D4808 		leaq	8(%rax), %rcx
 2734 10e3 488D8520 		leaq	-480(%rbp), %rax
 2734      FEFFFF
 2735 10ea BA4E0000 		movl	$78, %edx
 2735      00
 2736 10ef 4889CE   		movq	%rcx, %rsi
 2737 10f2 4889C7   		movq	%rax, %rdi
 2738 10f5 E8000000 		call	_ZN8UnitTest11TestDetailsC1ERKS0_i@PLT
 2738      00
 2739              		.loc 6 78 2 discriminator 33
 2740 10fa 488D8520 		leaq	-480(%rbp), %rax
 2740      FEFFFF
 2741 1101 488D1500 		leaq	.LC27(%rip), %rdx
 2741      000000
 2742 1108 4889C6   		movq	%rax, %rsi
 2743 110b 4889DF   		movq	%rbx, %rdi
 2744 110e E8000000 		call	_ZN8UnitTest11TestResults13OnTestFailureERKNS_11TestDetailsEPKc@PLT
 2744      00
 2745 1113 EB43     		jmp	.L122
 2746              	.L121:
 2747              		.loc 6 78 2 discriminator 29
 2748 1115 E8000000 		call	_ZN8UnitTest11CurrentTest7ResultsEv@PLT
 2748      00
 2749 111a 488B18   		movq	(%rax), %rbx
 2750 111d 488B85F8 		movq	-520(%rbp), %rax
 2750      FDFFFF
 2751 1124 488D4808 		leaq	8(%rax), %rcx
 2752 1128 488D8520 		leaq	-480(%rbp), %rax
 2752      FEFFFF
 2753 112f BA4E0000 		movl	$78, %edx
 2753      00
 2754 1134 4889CE   		movq	%rcx, %rsi
 2755 1137 4889C7   		movq	%rax, %rdi
 2756 113a E8000000 		call	_ZN8UnitTest11TestDetailsC1ERKS0_i@PLT
 2756      00
 2757              		.loc 6 78 2 discriminator 40
 2758 113f 488D8520 		leaq	-480(%rbp), %rax
 2758      FEFFFF
 2759 1146 488D1500 		leaq	.LC28(%rip), %rdx
 2759      000000
 2760 114d 4889C6   		movq	%rax, %rsi
 2761 1150 4889DF   		movq	%rbx, %rdi
 2762 1153 E8000000 		call	_ZN8UnitTest11TestResults13OnTestFailureERKNS_11TestDetailsEPKc@PLT
 2762      00
 2763              	.LEHE49:
 2764              	.L122:
 2765              	.LEHB50:
 2766              		.loc 6 78 2 discriminator 43
 2767 1158 E8000000 		call	__cxa_end_catch@PLT
 2767      00
 2768 115d EB5D     		jmp	.L115
 2769              	.L129:
 2770 115f F30F1EFA 		endbr64
 2771              	.LBB41:
 2772              		.loc 6 78 2
 2773 1163 4889C3   		movq	%rax, %rbx
 2774 1166 E8000000 		call	__cxa_end_catch@PLT
 2774      00
 2775 116b 4889D8   		movq	%rbx, %rax
 2776 116e 4889C7   		movq	%rax, %rdi
 2777 1171 E8000000 		call	_Unwind_Resume@PLT
 2777      00
 2778              	.LEHE50:
 2779              	.L131:
 2780 1176 F30F1EFA 		endbr64
 2781              	.LBE41:
 2782              	.LBB42:
 2783              	.LBB40:
 2784 117a 4889C3   		movq	%rax, %rbx
 2785 117d 488D8540 		leaq	-448(%rbp), %rax
 2785      FEFFFF
 2786 1184 4889C7   		movq	%rax, %rdi
 2787 1187 E8000000 		call	_ZN8UnitTest15MemoryOutStreamD1Ev
 2787      00
 2788 118c EB07     		jmp	.L125
 2789              	.L130:
 2790 118e F30F1EFA 		endbr64
 2791              	.LBE40:
 2792 1192 4889C3   		movq	%rax, %rbx
 2793              	.L125:
 2794 1195 E8000000 		call	__cxa_end_catch@PLT
 2794      00
 2795 119a 4889D8   		movq	%rbx, %rax
 2796 119d 4889C7   		movq	%rax, %rdi
 2797              	.LEHB51:
 2798 11a0 E8000000 		call	_Unwind_Resume@PLT
 2798      00
 2799              	.LEHE51:
 2800              	.L132:
 2801 11a5 F30F1EFA 		endbr64
 2802              	.LBE42:
 2803 11a9 4889C3   		movq	%rax, %rbx
 2804 11ac E8000000 		call	__cxa_end_catch@PLT
 2804      00
 2805 11b1 4889D8   		movq	%rbx, %rax
 2806 11b4 4889C7   		movq	%rax, %rdi
 2807              	.LEHB52:
 2808 11b7 E8000000 		call	_Unwind_Resume@PLT
 2808      00
 2809              	.LEHE52:
 2810              	.L115:
 2811 11bc 488B45D8 		movq	-40(%rbp), %rax
 2812 11c0 64482B04 		subq	%fs:40, %rax
 2812      25280000 
 2812      00
 2813 11c9 7405     		je	.L127
 2814 11cb E8000000 		call	__stack_chk_fail@PLT
 2814      00
 2815              	.L127:
 2816 11d0 4881C4F8 		addq	$504, %rsp
 2816      010000
 2817 11d7 5B       		popq	%rbx
 2818 11d8 415C     		popq	%r12
 2819 11da 415D     		popq	%r13
 2820 11dc 5D       		popq	%rbp
 2821              		.cfi_def_cfa 7, 8
 2822 11dd C3       		ret
 2823              		.cfi_endproc
 2824              	.LFE1207:
 2825              		.section	.gcc_except_table
 2826              		.align 4
 2827              	.LLSDA1207:
 2828 012c FF       		.byte	0xff
 2829 012d 9B       		.byte	0x9b
 2830 012e 49       		.uleb128 .LLSDATT1207-.LLSDATTD1207
 2831              	.LLSDATTD1207:
 2832 012f 01       		.byte	0x1
 2833 0130 33       		.uleb128 .LLSDACSE1207-.LLSDACSB1207
 2834              	.LLSDACSB1207:
 2835 0131 6D       		.uleb128 .LEHB44-.LFB1207
 2836 0132 05       		.uleb128 .LEHE44-.LEHB44
 2837 0133 77       		.uleb128 .L128-.LFB1207
 2838 0134 05       		.uleb128 0x5
 2839 0135 9F01     		.uleb128 .LEHB45-.LFB1207
 2840 0137 8901     		.uleb128 .LEHE45-.LEHB45
 2841 0139 FD04     		.uleb128 .L129-.LFB1207
 2842 013b 00       		.uleb128 0
 2843 013c CB02     		.uleb128 .LEHB46-.LFB1207
 2844 013e 05       		.uleb128 .LEHE46-.LEHB46
 2845 013f AC05     		.uleb128 .L130-.LFB1207
 2846 0141 00       		.uleb128 0
 2847 0142 E402     		.uleb128 .LEHB47-.LFB1207
 2848 0144 60       		.uleb128 .LEHE47-.LEHB47
 2849 0145 9405     		.uleb128 .L131-.LFB1207
 2850 0147 00       		.uleb128 0
 2851 0148 CE03     		.uleb128 .LEHB48-.LFB1207
 2852 014a 05       		.uleb128 .LEHE48-.LEHB48
 2853 014b AC05     		.uleb128 .L130-.LFB1207
 2854 014d 00       		.uleb128 0
 2855 014e EE03     		.uleb128 .LEHB49-.LFB1207
 2856 0150 8801     		.uleb128 .LEHE49-.LEHB49
 2857 0152 C305     		.uleb128 .L132-.LFB1207
 2858 0154 00       		.uleb128 0
 2859 0155 F604     		.uleb128 .LEHB50-.LFB1207
 2860 0157 1E       		.uleb128 .LEHE50-.LEHB50
 2861 0158 00       		.uleb128 0
 2862 0159 00       		.uleb128 0
 2863 015a BE05     		.uleb128 .LEHB51-.LFB1207
 2864 015c 05       		.uleb128 .LEHE51-.LEHB51
 2865 015d 00       		.uleb128 0
 2866 015e 00       		.uleb128 0
 2867 015f D505     		.uleb128 .LEHB52-.LFB1207
 2868 0161 05       		.uleb128 .LEHE52-.LEHB52
 2869 0162 00       		.uleb128 0
 2870 0163 00       		.uleb128 0
 2871              	.LLSDACSE1207:
 2872 0164 03       		.byte	0x3
 2873 0165 00       		.byte	0
 2874 0166 02       		.byte	0x2
 2875 0167 7D       		.byte	0x7d
 2876 0168 01       		.byte	0x1
 2877 0169 7D       		.byte	0x7d
 2878 016a 0000     		.align 4
 2879 016c 00000000 		.long	0
 2880              	
 2881 0170 00000000 		.long	DW.ref._ZTISt9exception-.
 2882 0174 00000000 		.long	DW.ref._ZTIN8UnitTest15AssertExceptionE-.
 2883              	.LLSDATT1207:
 2884              		.text
 2886              		.align 2
 2888              	_ZN12_GLOBAL__N_115SuiteTestSuite265DummyFixtureSimilarlyNamedFixtureTestsInDifferentSuitesWorkHelp
 2889              	.LFB1208:
  79:TestTestMacros.cpp **** 	{
 2890              		.loc 6 79 2 is_stmt 1
 2891              		.cfi_startproc
 2892 11de F30F1EFA 		endbr64
 2893 11e2 55       		pushq	%rbp
 2894              		.cfi_def_cfa_offset 16
 2895              		.cfi_offset 6, -16
 2896 11e3 4889E5   		movq	%rsp, %rbp
 2897              		.cfi_def_cfa_register 6
 2898 11e6 48897DF8 		movq	%rdi, -8(%rbp)
  80:TestTestMacros.cpp **** 	}
 2899              		.loc 6 80 2
 2900 11ea 90       		nop
 2901 11eb 5D       		popq	%rbp
 2902              		.cfi_def_cfa 7, 8
 2903 11ec C3       		ret
 2904              		.cfi_endproc
 2905              	.LFE1208:
 2907              		.local	_ZN12_GLOBAL__N_114macroTestList1E
 2908              		.comm	_ZN12_GLOBAL__N_114macroTestList1E,16,16
 2909              		.section	.rodata
 2910              	.LC30:
 2911 047f 4D616372 		.string	"MacroTestHelper1"
 2911      6F546573 
 2911      7448656C 
 2911      70657231 
 2911      00
 2912              		.text
 2913 11ed 90       		.align 2
 2915              	_ZN12_GLOBAL__N_120TestMacroTestHelper1C2Ev:
 2916              	.LFB1210:
  81:TestTestMacros.cpp **** }
  82:TestTestMacros.cpp **** 
  83:TestTestMacros.cpp **** TestList macroTestList1;
  84:TestTestMacros.cpp **** TEST_EX(MacroTestHelper1, macroTestList1)
 2917              		.loc 6 84 1
 2918              		.cfi_startproc
 2919 11ee 55       		pushq	%rbp
 2920              		.cfi_def_cfa_offset 16
 2921              		.cfi_offset 6, -16
 2922 11ef 4889E5   		movq	%rsp, %rbp
 2923              		.cfi_def_cfa_register 6
 2924 11f2 53       		pushq	%rbx
 2925 11f3 4883EC18 		subq	$24, %rsp
 2926              		.cfi_offset 3, -24
 2927 11f7 48897DE8 		movq	%rdi, -24(%rbp)
 2928              	.LBB43:
 2929              		.loc 6 84 1
 2930 11fb 488B5DE8 		movq	-24(%rbp), %rbx
 2931 11ff E8000000 		call	_ZN13UnitTestSuite12GetSuiteNameEv
 2931      00
 2932 1204 4889C2   		movq	%rax, %rdx
 2933 1207 41B85400 		movl	$84, %r8d
 2933      0000
 2934 120d 488D0500 		leaq	.LC2(%rip), %rax
 2934      000000
 2935 1214 4889C1   		movq	%rax, %rcx
 2936 1217 488D0500 		leaq	.LC30(%rip), %rax
 2936      000000
 2937 121e 4889C6   		movq	%rax, %rsi
 2938 1221 4889DF   		movq	%rbx, %rdi
 2939 1224 E8000000 		call	_ZN8UnitTest4TestC2EPKcS2_S2_i@PLT
 2939      00
 2940 1229 488D1500 		leaq	16+_ZTVN12_GLOBAL__N_120TestMacroTestHelper1E(%rip), %rdx
 2940      000000
 2941 1230 488B45E8 		movq	-24(%rbp), %rax
 2942 1234 488910   		movq	%rdx, (%rax)
 2943              	.LBE43:
 2944 1237 90       		nop
 2945 1238 488B5DF8 		movq	-8(%rbp), %rbx
 2946 123c C9       		leave
 2947              		.cfi_def_cfa 7, 8
 2948 123d C3       		ret
 2949              		.cfi_endproc
 2950              	.LFE1210:
 2952              		.set	_ZN12_GLOBAL__N_120TestMacroTestHelper1C1Ev,_ZN12_GLOBAL__N_120TestMacroTestHelper1C2Ev
 2953              		.local	_ZN12_GLOBAL__N_128testMacroTestHelper1InstanceE
 2954              		.comm	_ZN12_GLOBAL__N_128testMacroTestHelper1InstanceE,56,32
 2955              		.local	_ZN12_GLOBAL__N_121adderMacroTestHelper1E
 2956              		.comm	_ZN12_GLOBAL__N_121adderMacroTestHelper1E,1,1
 2957              		.align 2
 2959              	_ZNK12_GLOBAL__N_120TestMacroTestHelper17RunImplEv:
 2960              	.LFB1212:
  85:TestTestMacros.cpp **** {
 2961              		.loc 6 85 1
 2962              		.cfi_startproc
 2963 123e F30F1EFA 		endbr64
 2964 1242 55       		pushq	%rbp
 2965              		.cfi_def_cfa_offset 16
 2966              		.cfi_offset 6, -16
 2967 1243 4889E5   		movq	%rsp, %rbp
 2968              		.cfi_def_cfa_register 6
 2969 1246 48897DF8 		movq	%rdi, -8(%rbp)
  86:TestTestMacros.cpp **** }
 2970              		.loc 6 86 1
 2971 124a 90       		nop
 2972 124b 5D       		popq	%rbp
 2973              		.cfi_def_cfa 7, 8
 2974 124c C3       		ret
 2975              		.cfi_endproc
 2976              	.LFE1212:
 2978              		.section	.rodata
 2979              		.align 8
 2980              	.LC31:
 2981 0490 54657374 		.string	"TestAddedWithTEST_EXMacroGetsDefaultSuite"
 2981      41646465 
 2981      64576974 
 2981      68544553 
 2981      545F4558 
 2982              		.text
 2983 124d 90       		.align 2
 2985              	_ZN12_GLOBAL__N_145TestTestAddedWithTEST_EXMacroGetsDefaultSuiteC2Ev:
 2986              	.LFB1214:
  87:TestTestMacros.cpp **** 
  88:TestTestMacros.cpp **** TEST(TestAddedWithTEST_EXMacroGetsDefaultSuite)
 2987              		.loc 6 88 1
 2988              		.cfi_startproc
 2989 124e 55       		pushq	%rbp
 2990              		.cfi_def_cfa_offset 16
 2991              		.cfi_offset 6, -16
 2992 124f 4889E5   		movq	%rsp, %rbp
 2993              		.cfi_def_cfa_register 6
 2994 1252 53       		pushq	%rbx
 2995 1253 4883EC18 		subq	$24, %rsp
 2996              		.cfi_offset 3, -24
 2997 1257 48897DE8 		movq	%rdi, -24(%rbp)
 2998              	.LBB44:
 2999              		.loc 6 88 1
 3000 125b 488B5DE8 		movq	-24(%rbp), %rbx
 3001 125f E8000000 		call	_ZN13UnitTestSuite12GetSuiteNameEv
 3001      00
 3002 1264 4889C2   		movq	%rax, %rdx
 3003 1267 41B85800 		movl	$88, %r8d
 3003      0000
 3004 126d 488D0500 		leaq	.LC2(%rip), %rax
 3004      000000
 3005 1274 4889C1   		movq	%rax, %rcx
 3006 1277 488D0500 		leaq	.LC31(%rip), %rax
 3006      000000
 3007 127e 4889C6   		movq	%rax, %rsi
 3008 1281 4889DF   		movq	%rbx, %rdi
 3009 1284 E8000000 		call	_ZN8UnitTest4TestC2EPKcS2_S2_i@PLT
 3009      00
 3010 1289 488D1500 		leaq	16+_ZTVN12_GLOBAL__N_145TestTestAddedWithTEST_EXMacroGetsDefaultSuiteE(%rip), %rdx
 3010      000000
 3011 1290 488B45E8 		movq	-24(%rbp), %rax
 3012 1294 488910   		movq	%rdx, (%rax)
 3013              	.LBE44:
 3014 1297 90       		nop
 3015 1298 488B5DF8 		movq	-8(%rbp), %rbx
 3016 129c C9       		leave
 3017              		.cfi_def_cfa 7, 8
 3018 129d C3       		ret
 3019              		.cfi_endproc
 3020              	.LFE1214:
 3022              		.set	_ZN12_GLOBAL__N_145TestTestAddedWithTEST_EXMacroGetsDefaultSuiteC1Ev,_ZN12_GLOBAL__N_145TestT
 3023              		.local	_ZN12_GLOBAL__N_153testTestAddedWithTEST_EXMacroGetsDefaultSuiteInstanceE
 3024              		.comm	_ZN12_GLOBAL__N_153testTestAddedWithTEST_EXMacroGetsDefaultSuiteInstanceE,56,32
 3025              		.local	_ZN12_GLOBAL__N_146adderTestAddedWithTEST_EXMacroGetsDefaultSuiteE
 3026              		.comm	_ZN12_GLOBAL__N_146adderTestAddedWithTEST_EXMacroGetsDefaultSuiteE,1,1
 3027              		.section	.rodata
 3028 04ba 00000000 		.align 8
 3028      0000
 3029              	.LC32:
 3030 04c0 6D616372 		.string	"macroTestList1.GetHead() != NULL"
 3030      6F546573 
 3030      744C6973 
 3030      74312E47 
 3030      65744865 
 3031 04e1 00000000 		.align 8
 3031      000000
 3032              	.LC33:
 3033 04e8 556E6861 		.string	"Unhandled exception in CHECK(macroTestList1.GetHead() != NULL)"
 3033      6E646C65 
 3033      64206578 
 3033      63657074 
 3033      696F6E20 
 3034 0527 00       		.align 8
 3035              	.LC34:
 3036 0528 556E6861 		.string	"Unhandled exception in CHECK_EQUAL(\"MacroTestHelper1\", macroTestList1.GetHead()->m_deta
 3036      6E646C65 
 3036      64206578 
 3036      63657074 
 3036      696F6E20 
 3037 058d 000000   		.align 8
 3038              	.LC35:
 3039 0590 556E6861 		.string	"Unhandled exception in CHECK_EQUAL(\"DefaultSuite\", macroTestList1.GetHead()->m_details.
 3039      6E646C65 
 3039      64206578 
 3039      63657074 
 3039      696F6E20 
 3040              		.text
 3041              		.align 2
 3043              	_ZNK12_GLOBAL__N_145TestTestAddedWithTEST_EXMacroGetsDefaultSuite7RunImplEv:
 3044              	.LFB1216:
  89:TestTestMacros.cpp **** {
 3045              		.loc 6 89 1
 3046              		.cfi_startproc
 3047              		.cfi_personality 0x9b,DW.ref.__gxx_personality_v0
 3048              		.cfi_lsda 0x1b,.LLSDA1216
 3049 129e F30F1EFA 		endbr64
 3050 12a2 55       		pushq	%rbp
 3051              		.cfi_def_cfa_offset 16
 3052              		.cfi_offset 6, -16
 3053 12a3 4889E5   		movq	%rsp, %rbp
 3054              		.cfi_def_cfa_register 6
 3055 12a6 53       		pushq	%rbx
 3056 12a7 4883EC48 		subq	$72, %rsp
 3057              		.cfi_offset 3, -24
 3058 12ab 48897DB8 		movq	%rdi, -72(%rbp)
 3059              		.loc 6 89 1
 3060 12af 64488B04 		movq	%fs:40, %rax
 3060      25280000 
 3060      00
 3061 12b8 488945E8 		movq	%rax, -24(%rbp)
 3062 12bc 31C0     		xorl	%eax, %eax
  90:TestTestMacros.cpp ****     CHECK(macroTestList1.GetHead() != NULL);
 3063              		.loc 6 90 5
 3064 12be 488D0500 		leaq	_ZN12_GLOBAL__N_114macroTestList1E(%rip), %rax
 3064      000000
 3065 12c5 4889C7   		movq	%rax, %rdi
 3066              	.LEHB53:
 3067 12c8 E8000000 		call	_ZNK8UnitTest8TestList7GetHeadEv@PLT
 3067      00
 3068 12cd 4885C0   		testq	%rax, %rax
 3069 12d0 0F95C0   		setne	%al
 3070 12d3 0FB6C0   		movzbl	%al, %eax
 3071 12d6 89C7     		movl	%eax, %edi
 3072 12d8 E8000000 		call	_ZN8UnitTest5CheckIbEEbT_
 3072      00
 3073 12dd 83F001   		xorl	$1, %eax
 3074 12e0 84C0     		testb	%al, %al
 3075 12e2 743A     		je	.L139
 3076              		.loc 6 90 5 is_stmt 0 discriminator 3
 3077 12e4 E8000000 		call	_ZN8UnitTest11CurrentTest7ResultsEv@PLT
 3077      00
 3078 12e9 488B18   		movq	(%rax), %rbx
 3079 12ec E8000000 		call	_ZN8UnitTest11CurrentTest7DetailsEv@PLT
 3079      00
 3080              		.loc 6 90 5 discriminator 5
 3081 12f1 488B08   		movq	(%rax), %rcx
 3082 12f4 488D45C0 		leaq	-64(%rbp), %rax
 3083 12f8 BA5A0000 		movl	$90, %edx
 3083      00
 3084 12fd 4889CE   		movq	%rcx, %rsi
 3085 1300 4889C7   		movq	%rax, %rdi
 3086 1303 E8000000 		call	_ZN8UnitTest11TestDetailsC1ERKS0_i@PLT
 3086      00
 3087              		.loc 6 90 5 discriminator 9
 3088 1308 488D45C0 		leaq	-64(%rbp), %rax
 3089 130c 488D1500 		leaq	.LC32(%rip), %rdx
 3089      000000
 3090 1313 4889C6   		movq	%rax, %rsi
 3091 1316 4889DF   		movq	%rbx, %rdi
 3092 1319 E8000000 		call	_ZN8UnitTest11TestResults13OnTestFailureERKNS_11TestDetailsEPKc@PLT
 3092      00
 3093              	.LEHE53:
 3094              	.L139:
 3095              	.LEHB54:
  91:TestTestMacros.cpp ****     CHECK_EQUAL ("MacroTestHelper1", macroTestList1.GetHead()->m_details.testName);
 3096              		.loc 6 91 5 is_stmt 1
 3097 131e E8000000 		call	_ZN8UnitTest11CurrentTest7DetailsEv@PLT
 3097      00
 3098 1323 488B08   		movq	(%rax), %rcx
 3099 1326 488D45C0 		leaq	-64(%rbp), %rax
 3100 132a BA5B0000 		movl	$91, %edx
 3100      00
 3101 132f 4889CE   		movq	%rcx, %rsi
 3102 1332 4889C7   		movq	%rax, %rdi
 3103 1335 E8000000 		call	_ZN8UnitTest11TestDetailsC1ERKS0_i@PLT
 3103      00
 3104              		.loc 6 91 5 is_stmt 0 discriminator 4
 3105 133a 488D0500 		leaq	_ZN12_GLOBAL__N_114macroTestList1E(%rip), %rax
 3105      000000
 3106 1341 4889C7   		movq	%rax, %rdi
 3107 1344 E8000000 		call	_ZNK8UnitTest8TestList7GetHeadEv@PLT
 3107      00
 3108 1349 488B5810 		movq	16(%rax), %rbx
 3109 134d E8000000 		call	_ZN8UnitTest11CurrentTest7ResultsEv@PLT
 3109      00
 3110              		.loc 6 91 5 discriminator 6
 3111 1352 488B00   		movq	(%rax), %rax
 3112 1355 488D55C0 		leaq	-64(%rbp), %rdx
 3113 1359 4889D1   		movq	%rdx, %rcx
 3114 135c 4889DA   		movq	%rbx, %rdx
 3115 135f 488D3500 		leaq	.LC30(%rip), %rsi
 3115      000000
 3116 1366 4889C7   		movq	%rax, %rdi
 3117 1369 E8000000 		call	_ZN8UnitTest10CheckEqualERNS_11TestResultsEPKcS3_RKNS_11TestDetailsE@PLT
 3117      00
 3118              	.LEHE54:
 3119              	.L143:
 3120              	.LEHB55:
  92:TestTestMacros.cpp ****     CHECK_EQUAL ("DefaultSuite", macroTestList1.GetHead()->m_details.suiteName);
 3121              		.loc 6 92 5 is_stmt 1
 3122 136e E8000000 		call	_ZN8UnitTest11CurrentTest7DetailsEv@PLT
 3122      00
 3123 1373 488B08   		movq	(%rax), %rcx
 3124 1376 488D45C0 		leaq	-64(%rbp), %rax
 3125 137a BA5C0000 		movl	$92, %edx
 3125      00
 3126 137f 4889CE   		movq	%rcx, %rsi
 3127 1382 4889C7   		movq	%rax, %rdi
 3128 1385 E8000000 		call	_ZN8UnitTest11TestDetailsC1ERKS0_i@PLT
 3128      00
 3129              		.loc 6 92 5 is_stmt 0 discriminator 4
 3130 138a 488D0500 		leaq	_ZN12_GLOBAL__N_114macroTestList1E(%rip), %rax
 3130      000000
 3131 1391 4889C7   		movq	%rax, %rdi
 3132 1394 E8000000 		call	_ZNK8UnitTest8TestList7GetHeadEv@PLT
 3132      00
 3133 1399 488B5808 		movq	8(%rax), %rbx
 3134 139d E8000000 		call	_ZN8UnitTest11CurrentTest7ResultsEv@PLT
 3134      00
 3135              		.loc 6 92 5 discriminator 6
 3136 13a2 488B00   		movq	(%rax), %rax
 3137 13a5 488D55C0 		leaq	-64(%rbp), %rdx
 3138 13a9 4889D1   		movq	%rdx, %rcx
 3139 13ac 4889DA   		movq	%rbx, %rdx
 3140 13af 488D3500 		leaq	.LC0(%rip), %rsi
 3140      000000
 3141 13b6 4889C7   		movq	%rax, %rdi
 3142 13b9 E8000000 		call	_ZN8UnitTest10CheckEqualERNS_11TestResultsEPKcS3_RKNS_11TestDetailsE@PLT
 3142      00
 3143              	.LEHE55:
  93:TestTestMacros.cpp **** }
 3144              		.loc 6 93 1 is_stmt 1
 3145 13be E9320100 		jmp	.L138
 3145      00
 3146              	.L149:
 3147 13c3 F30F1EFA 		endbr64
  90:TestTestMacros.cpp ****     CHECK_EQUAL ("MacroTestHelper1", macroTestList1.GetHead()->m_details.testName);
 3148              		.loc 6 90 5
 3149 13c7 4889C7   		movq	%rax, %rdi
 3150 13ca E8000000 		call	__cxa_begin_catch@PLT
 3150      00
 3151              	.LEHB56:
 3152 13cf E8000000 		call	_ZN8UnitTest11CurrentTest7ResultsEv@PLT
 3152      00
  90:TestTestMacros.cpp ****     CHECK_EQUAL ("MacroTestHelper1", macroTestList1.GetHead()->m_details.testName);
 3153              		.loc 6 90 5 is_stmt 0 discriminator 8
 3154 13d4 488B18   		movq	(%rax), %rbx
 3155 13d7 E8000000 		call	_ZN8UnitTest11CurrentTest7DetailsEv@PLT
 3155      00
  90:TestTestMacros.cpp ****     CHECK_EQUAL ("MacroTestHelper1", macroTestList1.GetHead()->m_details.testName);
 3156              		.loc 6 90 5 discriminator 14
 3157 13dc 488B08   		movq	(%rax), %rcx
 3158 13df 488D45C0 		leaq	-64(%rbp), %rax
 3159 13e3 BA5A0000 		movl	$90, %edx
 3159      00
 3160 13e8 4889CE   		movq	%rcx, %rsi
 3161 13eb 4889C7   		movq	%rax, %rdi
 3162 13ee E8000000 		call	_ZN8UnitTest11TestDetailsC1ERKS0_i@PLT
 3162      00
  90:TestTestMacros.cpp ****     CHECK_EQUAL ("MacroTestHelper1", macroTestList1.GetHead()->m_details.testName);
 3163              		.loc 6 90 5 discriminator 18
 3164 13f3 488D45C0 		leaq	-64(%rbp), %rax
 3165 13f7 488D1500 		leaq	.LC33(%rip), %rdx
 3165      000000
 3166 13fe 4889C6   		movq	%rax, %rsi
 3167 1401 4889DF   		movq	%rbx, %rdi
 3168 1404 E8000000 		call	_ZN8UnitTest11TestResults13OnTestFailureERKNS_11TestDetailsEPKc@PLT
 3168      00
 3169              	.LEHE56:
 3170              	.LEHB57:
  90:TestTestMacros.cpp ****     CHECK_EQUAL ("MacroTestHelper1", macroTestList1.GetHead()->m_details.testName);
 3171              		.loc 6 90 5 discriminator 20
 3172 1409 E8000000 		call	__cxa_end_catch@PLT
 3172      00
 3173              	.LEHE57:
 3174 140e E90BFFFF 		jmp	.L139
 3174      FF
 3175              	.L150:
 3176 1413 F30F1EFA 		endbr64
  90:TestTestMacros.cpp ****     CHECK_EQUAL ("MacroTestHelper1", macroTestList1.GetHead()->m_details.testName);
 3177              		.loc 6 90 5
 3178 1417 4889C3   		movq	%rax, %rbx
 3179 141a E8000000 		call	__cxa_end_catch@PLT
 3179      00
 3180 141f 4889D8   		movq	%rbx, %rax
 3181 1422 4889C7   		movq	%rax, %rdi
 3182              	.LEHB58:
 3183 1425 E8000000 		call	_Unwind_Resume@PLT
 3183      00
 3184              	.LEHE58:
 3185              	.L151:
 3186 142a F30F1EFA 		endbr64
  91:TestTestMacros.cpp ****     CHECK_EQUAL ("DefaultSuite", macroTestList1.GetHead()->m_details.suiteName);
 3187              		.loc 6 91 5 is_stmt 1
 3188 142e 4889C7   		movq	%rax, %rdi
 3189 1431 E8000000 		call	__cxa_begin_catch@PLT
 3189      00
 3190              	.LEHB59:
 3191 1436 E8000000 		call	_ZN8UnitTest11CurrentTest7ResultsEv@PLT
 3191      00
  91:TestTestMacros.cpp ****     CHECK_EQUAL ("DefaultSuite", macroTestList1.GetHead()->m_details.suiteName);
 3192              		.loc 6 91 5 is_stmt 0 discriminator 3
 3193 143b 488B18   		movq	(%rax), %rbx
 3194 143e E8000000 		call	_ZN8UnitTest11CurrentTest7DetailsEv@PLT
 3194      00
  91:TestTestMacros.cpp ****     CHECK_EQUAL ("DefaultSuite", macroTestList1.GetHead()->m_details.suiteName);
 3195              		.loc 6 91 5 discriminator 13
 3196 1443 488B08   		movq	(%rax), %rcx
 3197 1446 488D45C0 		leaq	-64(%rbp), %rax
 3198 144a BA5B0000 		movl	$91, %edx
 3198      00
 3199 144f 4889CE   		movq	%rcx, %rsi
 3200 1452 4889C7   		movq	%rax, %rdi
 3201 1455 E8000000 		call	_ZN8UnitTest11TestDetailsC1ERKS0_i@PLT
 3201      00
  91:TestTestMacros.cpp ****     CHECK_EQUAL ("DefaultSuite", macroTestList1.GetHead()->m_details.suiteName);
 3202              		.loc 6 91 5 discriminator 17
 3203 145a 488D45C0 		leaq	-64(%rbp), %rax
 3204 145e 488D1500 		leaq	.LC34(%rip), %rdx
 3204      000000
 3205 1465 4889C6   		movq	%rax, %rsi
 3206 1468 4889DF   		movq	%rbx, %rdi
 3207 146b E8000000 		call	_ZN8UnitTest11TestResults13OnTestFailureERKNS_11TestDetailsEPKc@PLT
 3207      00
 3208              	.LEHE59:
 3209              	.LEHB60:
  91:TestTestMacros.cpp ****     CHECK_EQUAL ("DefaultSuite", macroTestList1.GetHead()->m_details.suiteName);
 3210              		.loc 6 91 5 discriminator 19
 3211 1470 E8000000 		call	__cxa_end_catch@PLT
 3211      00
 3212              	.LEHE60:
 3213 1475 E9F4FEFF 		jmp	.L143
 3213      FF
 3214              	.L152:
 3215 147a F30F1EFA 		endbr64
  91:TestTestMacros.cpp ****     CHECK_EQUAL ("DefaultSuite", macroTestList1.GetHead()->m_details.suiteName);
 3216              		.loc 6 91 5
 3217 147e 4889C3   		movq	%rax, %rbx
 3218 1481 E8000000 		call	__cxa_end_catch@PLT
 3218      00
 3219 1486 4889D8   		movq	%rbx, %rax
 3220 1489 4889C7   		movq	%rax, %rdi
 3221              	.LEHB61:
 3222 148c E8000000 		call	_Unwind_Resume@PLT
 3222      00
 3223              	.LEHE61:
 3224              	.L153:
 3225 1491 F30F1EFA 		endbr64
  92:TestTestMacros.cpp **** }
 3226              		.loc 6 92 5 is_stmt 1
 3227 1495 4889C7   		movq	%rax, %rdi
 3228 1498 E8000000 		call	__cxa_begin_catch@PLT
 3228      00
 3229              	.LEHB62:
 3230 149d E8000000 		call	_ZN8UnitTest11CurrentTest7ResultsEv@PLT
 3230      00
  92:TestTestMacros.cpp **** }
 3231              		.loc 6 92 5 is_stmt 0 discriminator 3
 3232 14a2 488B18   		movq	(%rax), %rbx
 3233 14a5 E8000000 		call	_ZN8UnitTest11CurrentTest7DetailsEv@PLT
 3233      00
  92:TestTestMacros.cpp **** }
 3234              		.loc 6 92 5 discriminator 13
 3235 14aa 488B08   		movq	(%rax), %rcx
 3236 14ad 488D45C0 		leaq	-64(%rbp), %rax
 3237 14b1 BA5C0000 		movl	$92, %edx
 3237      00
 3238 14b6 4889CE   		movq	%rcx, %rsi
 3239 14b9 4889C7   		movq	%rax, %rdi
 3240 14bc E8000000 		call	_ZN8UnitTest11TestDetailsC1ERKS0_i@PLT
 3240      00
  92:TestTestMacros.cpp **** }
 3241              		.loc 6 92 5 discriminator 17
 3242 14c1 488D45C0 		leaq	-64(%rbp), %rax
 3243 14c5 488D1500 		leaq	.LC35(%rip), %rdx
 3243      000000
 3244 14cc 4889C6   		movq	%rax, %rsi
 3245 14cf 4889DF   		movq	%rbx, %rdi
 3246 14d2 E8000000 		call	_ZN8UnitTest11TestResults13OnTestFailureERKNS_11TestDetailsEPKc@PLT
 3246      00
 3247              	.LEHE62:
 3248              	.LEHB63:
  92:TestTestMacros.cpp **** }
 3249              		.loc 6 92 5 discriminator 19
 3250 14d7 E8000000 		call	__cxa_end_catch@PLT
 3250      00
 3251              	.LEHE63:
 3252              		.loc 6 93 1 is_stmt 1 discriminator 19
 3253 14dc EB17     		jmp	.L138
 3254              	.L154:
 3255 14de F30F1EFA 		endbr64
  92:TestTestMacros.cpp **** }
 3256              		.loc 6 92 5
 3257 14e2 4889C3   		movq	%rax, %rbx
 3258 14e5 E8000000 		call	__cxa_end_catch@PLT
 3258      00
 3259 14ea 4889D8   		movq	%rbx, %rax
 3260 14ed 4889C7   		movq	%rax, %rdi
 3261              	.LEHB64:
 3262 14f0 E8000000 		call	_Unwind_Resume@PLT
 3262      00
 3263              	.LEHE64:
 3264              	.L138:
 3265              		.loc 6 93 1
 3266 14f5 488B45E8 		movq	-24(%rbp), %rax
 3267 14f9 64482B04 		subq	%fs:40, %rax
 3267      25280000 
 3267      00
 3268 1502 7405     		je	.L148
 3269 1504 E8000000 		call	__stack_chk_fail@PLT
 3269      00
 3270              	.L148:
 3271 1509 488B5DF8 		movq	-8(%rbp), %rbx
 3272 150d C9       		leave
 3273              		.cfi_def_cfa 7, 8
 3274 150e C3       		ret
 3275              		.cfi_endproc
 3276              	.LFE1216:
 3277              		.section	.gcc_except_table
 3278              		.align 4
 3279              	.LLSDA1216:
 3280 0178 FF       		.byte	0xff
 3281 0179 9B       		.byte	0x9b
 3282 017a 49       		.uleb128 .LLSDATT1216-.LLSDATTD1216
 3283              	.LLSDATTD1216:
 3284 017b 01       		.byte	0x1
 3285 017c 41       		.uleb128 .LLSDACSE1216-.LLSDACSB1216
 3286              	.LLSDACSB1216:
 3287 017d 2A       		.uleb128 .LEHB53-.LFB1216
 3288 017e 56       		.uleb128 .LEHE53-.LEHB53
 3289 017f A502     		.uleb128 .L149-.LFB1216
 3290 0181 01       		.uleb128 0x1
 3291 0182 8001     		.uleb128 .LEHB54-.LFB1216
 3292 0184 50       		.uleb128 .LEHE54-.LEHB54
 3293 0185 8C03     		.uleb128 .L151-.LFB1216
 3294 0187 01       		.uleb128 0x1
 3295 0188 D001     		.uleb128 .LEHB55-.LFB1216
 3296 018a 50       		.uleb128 .LEHE55-.LEHB55
 3297 018b F303     		.uleb128 .L153-.LFB1216
 3298 018d 01       		.uleb128 0x1
 3299 018e B102     		.uleb128 .LEHB56-.LFB1216
 3300 0190 3A       		.uleb128 .LEHE56-.LEHB56
 3301 0191 F502     		.uleb128 .L150-.LFB1216
 3302 0193 00       		.uleb128 0
 3303 0194 EB02     		.uleb128 .LEHB57-.LFB1216
 3304 0196 05       		.uleb128 .LEHE57-.LEHB57
 3305 0197 00       		.uleb128 0
 3306 0198 00       		.uleb128 0
 3307 0199 8703     		.uleb128 .LEHB58-.LFB1216
 3308 019b 05       		.uleb128 .LEHE58-.LEHB58
 3309 019c 00       		.uleb128 0
 3310 019d 00       		.uleb128 0
 3311 019e 9803     		.uleb128 .LEHB59-.LFB1216
 3312 01a0 3A       		.uleb128 .LEHE59-.LEHB59
 3313 01a1 DC03     		.uleb128 .L152-.LFB1216
 3314 01a3 00       		.uleb128 0
 3315 01a4 D203     		.uleb128 .LEHB60-.LFB1216
 3316 01a6 05       		.uleb128 .LEHE60-.LEHB60
 3317 01a7 00       		.uleb128 0
 3318 01a8 00       		.uleb128 0
 3319 01a9 EE03     		.uleb128 .LEHB61-.LFB1216
 3320 01ab 05       		.uleb128 .LEHE61-.LEHB61
 3321 01ac 00       		.uleb128 0
 3322 01ad 00       		.uleb128 0
 3323 01ae FF03     		.uleb128 .LEHB62-.LFB1216
 3324 01b0 3A       		.uleb128 .LEHE62-.LEHB62
 3325 01b1 C004     		.uleb128 .L154-.LFB1216
 3326 01b3 00       		.uleb128 0
 3327 01b4 B904     		.uleb128 .LEHB63-.LFB1216
 3328 01b6 05       		.uleb128 .LEHE63-.LEHB63
 3329 01b7 00       		.uleb128 0
 3330 01b8 00       		.uleb128 0
 3331 01b9 D204     		.uleb128 .LEHB64-.LFB1216
 3332 01bb 05       		.uleb128 .LEHE64-.LEHB64
 3333 01bc 00       		.uleb128 0
 3334 01bd 00       		.uleb128 0
 3335              	.LLSDACSE1216:
 3336 01be 01       		.byte	0x1
 3337 01bf 00       		.byte	0
 3338              		.align 4
 3339 01c0 00000000 		.long	0
 3340              	
 3341              	.LLSDATT1216:
 3342              		.text
 3344              		.local	_ZN12_GLOBAL__N_114macroTestList2E
 3345              		.comm	_ZN12_GLOBAL__N_114macroTestList2E,16,16
 3346 150f 90       		.align 2
 3348              	_ZN12_GLOBAL__N_134DummyFixtureMacroTestHelper2HelperC2ERKN8UnitTest11TestDetailsE:
 3349              	.LFB1218:
  94:TestTestMacros.cpp **** 
  95:TestTestMacros.cpp **** TestList macroTestList2;
  96:TestTestMacros.cpp **** TEST_FIXTURE_EX(DummyFixture, MacroTestHelper2, macroTestList2)
 3350              		.loc 6 96 1
 3351              		.cfi_startproc
 3352 1510 55       		pushq	%rbp
 3353              		.cfi_def_cfa_offset 16
 3354              		.cfi_offset 6, -16
 3355 1511 4889E5   		movq	%rsp, %rbp
 3356              		.cfi_def_cfa_register 6
 3357 1514 48897DF8 		movq	%rdi, -8(%rbp)
 3358 1518 488975F0 		movq	%rsi, -16(%rbp)
 3359              	.LBB45:
 3360              		.loc 6 96 1
 3361 151c 488B45F8 		movq	-8(%rbp), %rax
 3362 1520 488B55F0 		movq	-16(%rbp), %rdx
 3363 1524 48895008 		movq	%rdx, 8(%rax)
 3364              	.LBE45:
 3365 1528 90       		nop
 3366 1529 5D       		popq	%rbp
 3367              		.cfi_def_cfa 7, 8
 3368 152a C3       		ret
 3369              		.cfi_endproc
 3370              	.LFE1218:
 3372              		.set	_ZN12_GLOBAL__N_134DummyFixtureMacroTestHelper2HelperC1ERKN8UnitTest11TestDetailsE,_ZN12_GLOB
 3373              		.section	.rodata
 3374              	.LC36:
 3375 05f2 4D616372 		.string	"MacroTestHelper2"
 3375      6F546573 
 3375      7448656C 
 3375      70657232 
 3375      00
 3376              		.text
 3377 152b 90       		.align 2
 3379              	_ZN12_GLOBAL__N_132TestDummyFixtureMacroTestHelper2C2Ev:
 3380              	.LFB1221:
 3381              		.loc 6 96 1
 3382              		.cfi_startproc
 3383 152c 55       		pushq	%rbp
 3384              		.cfi_def_cfa_offset 16
 3385              		.cfi_offset 6, -16
 3386 152d 4889E5   		movq	%rsp, %rbp
 3387              		.cfi_def_cfa_register 6
 3388 1530 53       		pushq	%rbx
 3389 1531 4883EC18 		subq	$24, %rsp
 3390              		.cfi_offset 3, -24
 3391 1535 48897DE8 		movq	%rdi, -24(%rbp)
 3392              	.LBB46:
 3393              		.loc 6 96 1
 3394 1539 488B5DE8 		movq	-24(%rbp), %rbx
 3395 153d E8000000 		call	_ZN13UnitTestSuite12GetSuiteNameEv
 3395      00
 3396 1542 4889C2   		movq	%rax, %rdx
 3397 1545 41B86000 		movl	$96, %r8d
 3397      0000
 3398 154b 488D0500 		leaq	.LC2(%rip), %rax
 3398      000000
 3399 1552 4889C1   		movq	%rax, %rcx
 3400 1555 488D0500 		leaq	.LC36(%rip), %rax
 3400      000000
 3401 155c 4889C6   		movq	%rax, %rsi
 3402 155f 4889DF   		movq	%rbx, %rdi
 3403 1562 E8000000 		call	_ZN8UnitTest4TestC2EPKcS2_S2_i@PLT
 3403      00
 3404 1567 488D1500 		leaq	16+_ZTVN12_GLOBAL__N_132TestDummyFixtureMacroTestHelper2E(%rip), %rdx
 3404      000000
 3405 156e 488B45E8 		movq	-24(%rbp), %rax
 3406 1572 488910   		movq	%rdx, (%rax)
 3407              	.LBE46:
 3408 1575 90       		nop
 3409 1576 488B5DF8 		movq	-8(%rbp), %rbx
 3410 157a C9       		leave
 3411              		.cfi_def_cfa 7, 8
 3412 157b C3       		ret
 3413              		.cfi_endproc
 3414              	.LFE1221:
 3416              		.set	_ZN12_GLOBAL__N_132TestDummyFixtureMacroTestHelper2C1Ev,_ZN12_GLOBAL__N_132TestDummyFixtureMa
 3417              		.local	_ZN12_GLOBAL__N_140testDummyFixtureMacroTestHelper2InstanceE
 3418              		.comm	_ZN12_GLOBAL__N_140testDummyFixtureMacroTestHelper2InstanceE,56,32
 3419              		.local	_ZN12_GLOBAL__N_133adderDummyFixtureMacroTestHelper2E
 3420              		.comm	_ZN12_GLOBAL__N_133adderDummyFixtureMacroTestHelper2E,1,1
 3421              		.align 2
 3423              	_ZNK12_GLOBAL__N_132TestDummyFixtureMacroTestHelper27RunImplEv:
 3424              	.LFB1223:
 3425              		.loc 6 96 1
 3426              		.cfi_startproc
 3427              		.cfi_personality 0x9b,DW.ref.__gxx_personality_v0
 3428              		.cfi_lsda 0x1b,.LLSDA1223
 3429 157c F30F1EFA 		endbr64
 3430 1580 55       		pushq	%rbp
 3431              		.cfi_def_cfa_offset 16
 3432              		.cfi_offset 6, -16
 3433 1581 4889E5   		movq	%rsp, %rbp
 3434              		.cfi_def_cfa_register 6
 3435 1584 4155     		pushq	%r13
 3436 1586 4154     		pushq	%r12
 3437 1588 53       		pushq	%rbx
 3438 1589 4881ECF8 		subq	$504, %rsp
 3438      010000
 3439              		.cfi_offset 13, -24
 3440              		.cfi_offset 12, -32
 3441              		.cfi_offset 3, -40
 3442 1590 4889BDF8 		movq	%rdi, -520(%rbp)
 3442      FDFFFF
 3443              		.loc 6 96 1
 3444 1597 64488B04 		movq	%fs:40, %rax
 3444      25280000 
 3444      00
 3445 15a0 488945D8 		movq	%rax, -40(%rbp)
 3446 15a4 31C0     		xorl	%eax, %eax
 3447 15a6 C6850FFE 		movb	$0, -497(%rbp)
 3447      FFFF00
 3448              	.LBB47:
 3449 15ad 488B85F8 		movq	-520(%rbp), %rax
 3449      FDFFFF
 3450 15b4 488D5008 		leaq	8(%rax), %rdx
 3451 15b8 488D8520 		leaq	-480(%rbp), %rax
 3451      FEFFFF
 3452 15bf 4889D6   		movq	%rdx, %rsi
 3453 15c2 4889C7   		movq	%rax, %rdi
 3454 15c5 E846FFFF 		call	_ZN12_GLOBAL__N_134DummyFixtureMacroTestHelper2HelperC1ERKN8UnitTest11TestDetailsE
 3454      FF
 3455 15ca C6850FFE 		movb	$1, -497(%rbp)
 3455      FFFF01
 3456 15d1 488B85F8 		movq	-520(%rbp), %rax
 3456      FDFFFF
 3457 15d8 488D5008 		leaq	8(%rax), %rdx
 3458 15dc 488D8520 		leaq	-480(%rbp), %rax
 3458      FEFFFF
 3459 15e3 4889D6   		movq	%rdx, %rsi
 3460 15e6 4889C7   		movq	%rax, %rdi
 3461              	.LEHB65:
 3462 15e9 E8B02500 		call	_ZN8UnitTest11ExecuteTestIN12_GLOBAL__N_134DummyFixtureMacroTestHelper2HelperEEEvRT_RKNS_11Te
 3462      00
 3463              	.LEHE65:
 3464              	.LBE47:
 3465 15ee E9630200 		jmp	.L157
 3465      00
 3466              	.L170:
 3467 15f3 F30F1EFA 		endbr64
 3468 15f7 4883FA01 		cmpq	$1, %rdx
 3469 15fb 740F     		je	.L159
 3470 15fd 4883FA02 		cmpq	$2, %rdx
 3471 1601 0F84A700 		je	.L160
 3471      0000
 3472 1607 E94D0100 		jmp	.L175
 3472      00
 3473              	.L159:
 3474              	.LBB48:
 3475              		.loc 6 96 1 is_stmt 0 discriminator 1
 3476 160c 4889C7   		movq	%rax, %rdi
 3477 160f E8000000 		call	__cxa_begin_catch@PLT
 3477      00
 3478 1614 48898518 		movq	%rax, -488(%rbp)
 3478      FEFFFF
 3479              	.LEHB66:
 3480 161b E8000000 		call	_ZN8UnitTest11CurrentTest7ResultsEv@PLT
 3480      00
 3481 1620 488B18   		movq	(%rax), %rbx
 3482 1623 488B8518 		movq	-488(%rbp), %rax
 3482      FEFFFF
 3483 162a 488B00   		movq	(%rax), %rax
 3484 162d 4883C010 		addq	$16, %rax
 3485 1631 488B10   		movq	(%rax), %rdx
 3486 1634 488B8518 		movq	-488(%rbp), %rax
 3486      FEFFFF
 3487 163b 4889C7   		movq	%rax, %rdi
 3488 163e FFD2     		call	*%rdx
 3489              	.LVL6:
 3490 1640 4989C4   		movq	%rax, %r12
 3491 1643 488B8518 		movq	-488(%rbp), %rax
 3491      FEFFFF
 3492 164a 4889C7   		movq	%rax, %rdi
 3493 164d E8000000 		call	_ZNK8UnitTest15AssertException10LineNumberEv@PLT
 3493      00
 3494              		.loc 6 96 1 discriminator 5
 3495 1652 4189C5   		movl	%eax, %r13d
 3496 1655 488B8518 		movq	-488(%rbp), %rax
 3496      FEFFFF
 3497 165c 4889C7   		movq	%rax, %rdi
 3498 165f E8000000 		call	_ZNK8UnitTest15AssertException8FilenameEv@PLT
 3498      00
 3499              		.loc 6 96 1 discriminator 7
 3500 1664 4889C1   		movq	%rax, %rcx
 3501 1667 488B85F8 		movq	-520(%rbp), %rax
 3501      FDFFFF
 3502 166e 488B5008 		movq	8(%rax), %rdx
 3503 1672 488B85F8 		movq	-520(%rbp), %rax
 3503      FDFFFF
 3504 1679 488B7010 		movq	16(%rax), %rsi
 3505 167d 488D8520 		leaq	-480(%rbp), %rax
 3505      FEFFFF
 3506 1684 4589E8   		movl	%r13d, %r8d
 3507 1687 4889C7   		movq	%rax, %rdi
 3508 168a E8000000 		call	_ZN8UnitTest11TestDetailsC1EPKcS2_S2_i@PLT
 3508      00
 3509              		.loc 6 96 1 discriminator 11
 3510 168f 488D8520 		leaq	-480(%rbp), %rax
 3510      FEFFFF
 3511 1696 4C89E2   		movq	%r12, %rdx
 3512 1699 4889C6   		movq	%rax, %rsi
 3513 169c 4889DF   		movq	%rbx, %rdi
 3514 169f E8000000 		call	_ZN8UnitTest11TestResults13OnTestFailureERKNS_11TestDetailsEPKc@PLT
 3514      00
 3515              	.LEHE66:
 3516              		.loc 6 96 1 discriminator 13
 3517 16a4 E8000000 		call	__cxa_end_catch@PLT
 3517      00
 3518              	.LBE48:
 3519 16a9 E9A80100 		jmp	.L157
 3519      00
 3520              	.L160:
 3521              	.LBB49:
 3522              		.loc 6 96 1 discriminator 2
 3523 16ae 4889C7   		movq	%rax, %rdi
 3524 16b1 E8000000 		call	__cxa_begin_catch@PLT
 3524      00
 3525 16b6 48898510 		movq	%rax, -496(%rbp)
 3525      FEFFFF
 3526              	.LBB50:
 3527 16bd 488D8540 		leaq	-448(%rbp), %rax
 3527      FEFFFF
 3528 16c4 4889C7   		movq	%rax, %rdi
 3529              	.LEHB67:
 3530 16c7 E8000000 		call	_ZN8UnitTest15MemoryOutStreamC1Ev
 3530      00
 3531              	.LEHE67:
 3532              		.loc 6 96 1 discriminator 15
 3533 16cc 488D8540 		leaq	-448(%rbp), %rax
 3533      FEFFFF
 3534 16d3 488D1500 		leaq	.LC11(%rip), %rdx
 3534      000000
 3535 16da 4889D6   		movq	%rdx, %rsi
 3536 16dd 4889C7   		movq	%rax, %rdi
 3537              	.LEHB68:
 3538 16e0 E8000000 		call	_ZStlsISt11char_traitsIcEERSt13basic_ostreamIcT_ES5_PKc@PLT
 3538      00
 3539 16e5 4889C3   		movq	%rax, %rbx
 3540 16e8 488B8510 		movq	-496(%rbp), %rax
 3540      FEFFFF
 3541 16ef 488B00   		movq	(%rax), %rax
 3542 16f2 4883C010 		addq	$16, %rax
 3543 16f6 488B10   		movq	(%rax), %rdx
 3544 16f9 488B8510 		movq	-496(%rbp), %rax
 3544      FEFFFF
 3545 1700 4889C7   		movq	%rax, %rdi
 3546 1703 FFD2     		call	*%rdx
 3547              	.LVL7:
 3548 1705 4889C6   		movq	%rax, %rsi
 3549 1708 4889DF   		movq	%rbx, %rdi
 3550 170b E8000000 		call	_ZStlsISt11char_traitsIcEERSt13basic_ostreamIcT_ES5_PKc@PLT
 3550      00
 3551              		.loc 6 96 1 discriminator 19
 3552 1710 E8000000 		call	_ZN8UnitTest11CurrentTest7ResultsEv@PLT
 3552      00
 3553 1715 488B18   		movq	(%rax), %rbx
 3554 1718 488D8540 		leaq	-448(%rbp), %rax
 3554      FEFFFF
 3555 171f 4889C7   		movq	%rax, %rdi
 3556 1722 E8000000 		call	_ZNK8UnitTest15MemoryOutStream7GetTextEv@PLT
 3556      00
 3557              		.loc 6 96 1 discriminator 21
 3558 1727 4889C2   		movq	%rax, %rdx
 3559 172a 488B85F8 		movq	-520(%rbp), %rax
 3559      FDFFFF
 3560 1731 4883C008 		addq	$8, %rax
 3561 1735 4889C6   		movq	%rax, %rsi
 3562 1738 4889DF   		movq	%rbx, %rdi
 3563 173b E8000000 		call	_ZN8UnitTest11TestResults13OnTestFailureERKNS_11TestDetailsEPKc@PLT
 3563      00
 3564              	.LEHE68:
 3565              		.loc 6 96 1 discriminator 25
 3566 1740 488D8540 		leaq	-448(%rbp), %rax
 3566      FEFFFF
 3567 1747 4889C7   		movq	%rax, %rdi
 3568              	.LEHB69:
 3569 174a E8000000 		call	_ZN8UnitTest15MemoryOutStreamD1Ev
 3569      00
 3570              	.LEHE69:
 3571              	.LBE50:
 3572              		.loc 6 96 1 discriminator 26
 3573 174f E8000000 		call	__cxa_end_catch@PLT
 3573      00
 3574              	.LBE49:
 3575 1754 E9FD0000 		jmp	.L157
 3575      00
 3576              	.L175:
 3577              		.loc 6 96 1 discriminator 3
 3578 1759 4889C7   		movq	%rax, %rdi
 3579 175c E8000000 		call	__cxa_begin_catch@PLT
 3579      00
 3580 1761 80BD0FFE 		cmpb	$0, -497(%rbp)
 3580      FFFF00
 3581 1768 7445     		je	.L163
 3582              	.LEHB70:
 3583              		.loc 6 96 1 discriminator 28
 3584 176a E8000000 		call	_ZN8UnitTest11CurrentTest7ResultsEv@PLT
 3584      00
 3585 176f 488B18   		movq	(%rax), %rbx
 3586 1772 488B85F8 		movq	-520(%rbp), %rax
 3586      FDFFFF
 3587 1779 488D4808 		leaq	8(%rax), %rcx
 3588 177d 488D8520 		leaq	-480(%rbp), %rax
 3588      FEFFFF
 3589 1784 BA600000 		movl	$96, %edx
 3589      00
 3590 1789 4889CE   		movq	%rcx, %rsi
 3591 178c 4889C7   		movq	%rax, %rdi
 3592 178f E8000000 		call	_ZN8UnitTest11TestDetailsC1ERKS0_i@PLT
 3592      00
 3593              		.loc 6 96 1 discriminator 33
 3594 1794 488D8520 		leaq	-480(%rbp), %rax
 3594      FEFFFF
 3595 179b 488D1500 		leaq	.LC27(%rip), %rdx
 3595      000000
 3596 17a2 4889C6   		movq	%rax, %rsi
 3597 17a5 4889DF   		movq	%rbx, %rdi
 3598 17a8 E8000000 		call	_ZN8UnitTest11TestResults13OnTestFailureERKNS_11TestDetailsEPKc@PLT
 3598      00
 3599 17ad EB43     		jmp	.L164
 3600              	.L163:
 3601              		.loc 6 96 1 discriminator 29
 3602 17af E8000000 		call	_ZN8UnitTest11CurrentTest7ResultsEv@PLT
 3602      00
 3603 17b4 488B18   		movq	(%rax), %rbx
 3604 17b7 488B85F8 		movq	-520(%rbp), %rax
 3604      FDFFFF
 3605 17be 488D4808 		leaq	8(%rax), %rcx
 3606 17c2 488D8520 		leaq	-480(%rbp), %rax
 3606      FEFFFF
 3607 17c9 BA600000 		movl	$96, %edx
 3607      00
 3608 17ce 4889CE   		movq	%rcx, %rsi
 3609 17d1 4889C7   		movq	%rax, %rdi
 3610 17d4 E8000000 		call	_ZN8UnitTest11TestDetailsC1ERKS0_i@PLT
 3610      00
 3611              		.loc 6 96 1 discriminator 40
 3612 17d9 488D8520 		leaq	-480(%rbp), %rax
 3612      FEFFFF
 3613 17e0 488D1500 		leaq	.LC28(%rip), %rdx
 3613      000000
 3614 17e7 4889C6   		movq	%rax, %rsi
 3615 17ea 4889DF   		movq	%rbx, %rdi
 3616 17ed E8000000 		call	_ZN8UnitTest11TestResults13OnTestFailureERKNS_11TestDetailsEPKc@PLT
 3616      00
 3617              	.LEHE70:
 3618              	.L164:
 3619              	.LEHB71:
 3620              		.loc 6 96 1 discriminator 43
 3621 17f2 E8000000 		call	__cxa_end_catch@PLT
 3621      00
 3622 17f7 EB5D     		jmp	.L157
 3623              	.L171:
 3624 17f9 F30F1EFA 		endbr64
 3625              	.LBB52:
 3626              		.loc 6 96 1
 3627 17fd 4889C3   		movq	%rax, %rbx
 3628 1800 E8000000 		call	__cxa_end_catch@PLT
 3628      00
 3629 1805 4889D8   		movq	%rbx, %rax
 3630 1808 4889C7   		movq	%rax, %rdi
 3631 180b E8000000 		call	_Unwind_Resume@PLT
 3631      00
 3632              	.LEHE71:
 3633              	.L173:
 3634 1810 F30F1EFA 		endbr64
 3635              	.LBE52:
 3636              	.LBB53:
 3637              	.LBB51:
 3638 1814 4889C3   		movq	%rax, %rbx
 3639 1817 488D8540 		leaq	-448(%rbp), %rax
 3639      FEFFFF
 3640 181e 4889C7   		movq	%rax, %rdi
 3641 1821 E8000000 		call	_ZN8UnitTest15MemoryOutStreamD1Ev
 3641      00
 3642 1826 EB07     		jmp	.L167
 3643              	.L172:
 3644 1828 F30F1EFA 		endbr64
 3645              	.LBE51:
 3646 182c 4889C3   		movq	%rax, %rbx
 3647              	.L167:
 3648 182f E8000000 		call	__cxa_end_catch@PLT
 3648      00
 3649 1834 4889D8   		movq	%rbx, %rax
 3650 1837 4889C7   		movq	%rax, %rdi
 3651              	.LEHB72:
 3652 183a E8000000 		call	_Unwind_Resume@PLT
 3652      00
 3653              	.LEHE72:
 3654              	.L174:
 3655 183f F30F1EFA 		endbr64
 3656              	.LBE53:
 3657 1843 4889C3   		movq	%rax, %rbx
 3658 1846 E8000000 		call	__cxa_end_catch@PLT
 3658      00
 3659 184b 4889D8   		movq	%rbx, %rax
 3660 184e 4889C7   		movq	%rax, %rdi
 3661              	.LEHB73:
 3662 1851 E8000000 		call	_Unwind_Resume@PLT
 3662      00
 3663              	.LEHE73:
 3664              	.L157:
 3665 1856 488B45D8 		movq	-40(%rbp), %rax
 3666 185a 64482B04 		subq	%fs:40, %rax
 3666      25280000 
 3666      00
 3667 1863 7405     		je	.L169
 3668 1865 E8000000 		call	__stack_chk_fail@PLT
 3668      00
 3669              	.L169:
 3670 186a 4881C4F8 		addq	$504, %rsp
 3670      010000
 3671 1871 5B       		popq	%rbx
 3672 1872 415C     		popq	%r12
 3673 1874 415D     		popq	%r13
 3674 1876 5D       		popq	%rbp
 3675              		.cfi_def_cfa 7, 8
 3676 1877 C3       		ret
 3677              		.cfi_endproc
 3678              	.LFE1223:
 3679              		.section	.gcc_except_table
 3680              		.align 4
 3681              	.LLSDA1223:
 3682 01c4 FF       		.byte	0xff
 3683 01c5 9B       		.byte	0x9b
 3684 01c6 49       		.uleb128 .LLSDATT1223-.LLSDATTD1223
 3685              	.LLSDATTD1223:
 3686 01c7 01       		.byte	0x1
 3687 01c8 33       		.uleb128 .LLSDACSE1223-.LLSDACSB1223
 3688              	.LLSDACSB1223:
 3689 01c9 6D       		.uleb128 .LEHB65-.LFB1223
 3690 01ca 05       		.uleb128 .LEHE65-.LEHB65
 3691 01cb 77       		.uleb128 .L170-.LFB1223
 3692 01cc 05       		.uleb128 0x5
 3693 01cd 9F01     		.uleb128 .LEHB66-.LFB1223
 3694 01cf 8901     		.uleb128 .LEHE66-.LEHB66
 3695 01d1 FD04     		.uleb128 .L171-.LFB1223
 3696 01d3 00       		.uleb128 0
 3697 01d4 CB02     		.uleb128 .LEHB67-.LFB1223
 3698 01d6 05       		.uleb128 .LEHE67-.LEHB67
 3699 01d7 AC05     		.uleb128 .L172-.LFB1223
 3700 01d9 00       		.uleb128 0
 3701 01da E402     		.uleb128 .LEHB68-.LFB1223
 3702 01dc 60       		.uleb128 .LEHE68-.LEHB68
 3703 01dd 9405     		.uleb128 .L173-.LFB1223
 3704 01df 00       		.uleb128 0
 3705 01e0 CE03     		.uleb128 .LEHB69-.LFB1223
 3706 01e2 05       		.uleb128 .LEHE69-.LEHB69
 3707 01e3 AC05     		.uleb128 .L172-.LFB1223
 3708 01e5 00       		.uleb128 0
 3709 01e6 EE03     		.uleb128 .LEHB70-.LFB1223
 3710 01e8 8801     		.uleb128 .LEHE70-.LEHB70
 3711 01ea C305     		.uleb128 .L174-.LFB1223
 3712 01ec 00       		.uleb128 0
 3713 01ed F604     		.uleb128 .LEHB71-.LFB1223
 3714 01ef 1E       		.uleb128 .LEHE71-.LEHB71
 3715 01f0 00       		.uleb128 0
 3716 01f1 00       		.uleb128 0
 3717 01f2 BE05     		.uleb128 .LEHB72-.LFB1223
 3718 01f4 05       		.uleb128 .LEHE72-.LEHB72
 3719 01f5 00       		.uleb128 0
 3720 01f6 00       		.uleb128 0
 3721 01f7 D505     		.uleb128 .LEHB73-.LFB1223
 3722 01f9 05       		.uleb128 .LEHE73-.LEHB73
 3723 01fa 00       		.uleb128 0
 3724 01fb 00       		.uleb128 0
 3725              	.LLSDACSE1223:
 3726 01fc 03       		.byte	0x3
 3727 01fd 00       		.byte	0
 3728 01fe 02       		.byte	0x2
 3729 01ff 7D       		.byte	0x7d
 3730 0200 01       		.byte	0x1
 3731 0201 7D       		.byte	0x7d
 3732 0202 0000     		.align 4
 3733 0204 00000000 		.long	0
 3734              	
 3735 0208 00000000 		.long	DW.ref._ZTISt9exception-.
 3736 020c 00000000 		.long	DW.ref._ZTIN8UnitTest15AssertExceptionE-.
 3737              	.LLSDATT1223:
 3738              		.text
 3740              		.align 2
 3742              	_ZN12_GLOBAL__N_134DummyFixtureMacroTestHelper2Helper7RunImplEv:
 3743              	.LFB1224:
  97:TestTestMacros.cpp **** {
 3744              		.loc 6 97 1 is_stmt 1
 3745              		.cfi_startproc
 3746 1878 F30F1EFA 		endbr64
 3747 187c 55       		pushq	%rbp
 3748              		.cfi_def_cfa_offset 16
 3749              		.cfi_offset 6, -16
 3750 187d 4889E5   		movq	%rsp, %rbp
 3751              		.cfi_def_cfa_register 6
 3752 1880 48897DF8 		movq	%rdi, -8(%rbp)
  98:TestTestMacros.cpp **** }
 3753              		.loc 6 98 1
 3754 1884 90       		nop
 3755 1885 5D       		popq	%rbp
 3756              		.cfi_def_cfa 7, 8
 3757 1886 C3       		ret
 3758              		.cfi_endproc
 3759              	.LFE1224:
 3761              		.section	.rodata
 3762 0603 00000000 		.align 8
 3762      00
 3763              	.LC37:
 3764 0608 54657374 		.string	"TestAddedWithTEST_FIXTURE_EXMacroGetsDefaultSuite"
 3764      41646465 
 3764      64576974 
 3764      68544553 
 3764      545F4649 
 3765              		.text
 3766 1887 90       		.align 2
 3768              	_ZN12_GLOBAL__N_153TestTestAddedWithTEST_FIXTURE_EXMacroGetsDefaultSuiteC2Ev:
 3769              	.LFB1226:
  99:TestTestMacros.cpp **** 
 100:TestTestMacros.cpp **** TEST(TestAddedWithTEST_FIXTURE_EXMacroGetsDefaultSuite)
 3770              		.loc 6 100 1
 3771              		.cfi_startproc
 3772 1888 55       		pushq	%rbp
 3773              		.cfi_def_cfa_offset 16
 3774              		.cfi_offset 6, -16
 3775 1889 4889E5   		movq	%rsp, %rbp
 3776              		.cfi_def_cfa_register 6
 3777 188c 53       		pushq	%rbx
 3778 188d 4883EC18 		subq	$24, %rsp
 3779              		.cfi_offset 3, -24
 3780 1891 48897DE8 		movq	%rdi, -24(%rbp)
 3781              	.LBB54:
 3782              		.loc 6 100 1
 3783 1895 488B5DE8 		movq	-24(%rbp), %rbx
 3784 1899 E8000000 		call	_ZN13UnitTestSuite12GetSuiteNameEv
 3784      00
 3785 189e 4889C2   		movq	%rax, %rdx
 3786 18a1 41B86400 		movl	$100, %r8d
 3786      0000
 3787 18a7 488D0500 		leaq	.LC2(%rip), %rax
 3787      000000
 3788 18ae 4889C1   		movq	%rax, %rcx
 3789 18b1 488D0500 		leaq	.LC37(%rip), %rax
 3789      000000
 3790 18b8 4889C6   		movq	%rax, %rsi
 3791 18bb 4889DF   		movq	%rbx, %rdi
 3792 18be E8000000 		call	_ZN8UnitTest4TestC2EPKcS2_S2_i@PLT
 3792      00
 3793 18c3 488D1500 		leaq	16+_ZTVN12_GLOBAL__N_153TestTestAddedWithTEST_FIXTURE_EXMacroGetsDefaultSuiteE(%rip), %rdx
 3793      000000
 3794 18ca 488B45E8 		movq	-24(%rbp), %rax
 3795 18ce 488910   		movq	%rdx, (%rax)
 3796              	.LBE54:
 3797 18d1 90       		nop
 3798 18d2 488B5DF8 		movq	-8(%rbp), %rbx
 3799 18d6 C9       		leave
 3800              		.cfi_def_cfa 7, 8
 3801 18d7 C3       		ret
 3802              		.cfi_endproc
 3803              	.LFE1226:
 3805              		.set	_ZN12_GLOBAL__N_153TestTestAddedWithTEST_FIXTURE_EXMacroGetsDefaultSuiteC1Ev,_ZN12_GLOBAL__N_
 3806              		.local	_ZN12_GLOBAL__N_161testTestAddedWithTEST_FIXTURE_EXMacroGetsDefaultSuiteInstanceE
 3807              		.comm	_ZN12_GLOBAL__N_161testTestAddedWithTEST_FIXTURE_EXMacroGetsDefaultSuiteInstanceE,56,32
 3808              		.local	_ZN12_GLOBAL__N_154adderTestAddedWithTEST_FIXTURE_EXMacroGetsDefaultSuiteE
 3809              		.comm	_ZN12_GLOBAL__N_154adderTestAddedWithTEST_FIXTURE_EXMacroGetsDefaultSuiteE,1,1
 3810              		.section	.rodata
 3811 063a 00000000 		.align 8
 3811      0000
 3812              	.LC38:
 3813 0640 6D616372 		.string	"macroTestList2.GetHead() != NULL"
 3813      6F546573 
 3813      744C6973 
 3813      74322E47 
 3813      65744865 
 3814 0661 00000000 		.align 8
 3814      000000
 3815              	.LC39:
 3816 0668 556E6861 		.string	"Unhandled exception in CHECK(macroTestList2.GetHead() != NULL)"
 3816      6E646C65 
 3816      64206578 
 3816      63657074 
 3816      696F6E20 
 3817 06a7 00       		.align 8
 3818              	.LC40:
 3819 06a8 556E6861 		.string	"Unhandled exception in CHECK_EQUAL(\"MacroTestHelper2\", macroTestList2.GetHead()->m_deta
 3819      6E646C65 
 3819      64206578 
 3819      63657074 
 3819      696F6E20 
 3820 070d 000000   		.align 8
 3821              	.LC41:
 3822 0710 556E6861 		.string	"Unhandled exception in CHECK_EQUAL(\"DefaultSuite\", macroTestList2.GetHead()->m_details.
 3822      6E646C65 
 3822      64206578 
 3822      63657074 
 3822      696F6E20 
 3823              		.text
 3824              		.align 2
 3826              	_ZNK12_GLOBAL__N_153TestTestAddedWithTEST_FIXTURE_EXMacroGetsDefaultSuite7RunImplEv:
 3827              	.LFB1228:
 101:TestTestMacros.cpp **** {
 3828              		.loc 6 101 1
 3829              		.cfi_startproc
 3830              		.cfi_personality 0x9b,DW.ref.__gxx_personality_v0
 3831              		.cfi_lsda 0x1b,.LLSDA1228
 3832 18d8 F30F1EFA 		endbr64
 3833 18dc 55       		pushq	%rbp
 3834              		.cfi_def_cfa_offset 16
 3835              		.cfi_offset 6, -16
 3836 18dd 4889E5   		movq	%rsp, %rbp
 3837              		.cfi_def_cfa_register 6
 3838 18e0 53       		pushq	%rbx
 3839 18e1 4883EC48 		subq	$72, %rsp
 3840              		.cfi_offset 3, -24
 3841 18e5 48897DB8 		movq	%rdi, -72(%rbp)
 3842              		.loc 6 101 1
 3843 18e9 64488B04 		movq	%fs:40, %rax
 3843      25280000 
 3843      00
 3844 18f2 488945E8 		movq	%rax, -24(%rbp)
 3845 18f6 31C0     		xorl	%eax, %eax
 102:TestTestMacros.cpp ****     CHECK(macroTestList2.GetHead() != NULL);
 3846              		.loc 6 102 5
 3847 18f8 488D0500 		leaq	_ZN12_GLOBAL__N_114macroTestList2E(%rip), %rax
 3847      000000
 3848 18ff 4889C7   		movq	%rax, %rdi
 3849              	.LEHB74:
 3850 1902 E8000000 		call	_ZNK8UnitTest8TestList7GetHeadEv@PLT
 3850      00
 3851 1907 4885C0   		testq	%rax, %rax
 3852 190a 0F95C0   		setne	%al
 3853 190d 0FB6C0   		movzbl	%al, %eax
 3854 1910 89C7     		movl	%eax, %edi
 3855 1912 E8000000 		call	_ZN8UnitTest5CheckIbEEbT_
 3855      00
 3856 1917 83F001   		xorl	$1, %eax
 3857 191a 84C0     		testb	%al, %al
 3858 191c 743A     		je	.L179
 3859              		.loc 6 102 5 is_stmt 0 discriminator 3
 3860 191e E8000000 		call	_ZN8UnitTest11CurrentTest7ResultsEv@PLT
 3860      00
 3861 1923 488B18   		movq	(%rax), %rbx
 3862 1926 E8000000 		call	_ZN8UnitTest11CurrentTest7DetailsEv@PLT
 3862      00
 3863              		.loc 6 102 5 discriminator 5
 3864 192b 488B08   		movq	(%rax), %rcx
 3865 192e 488D45C0 		leaq	-64(%rbp), %rax
 3866 1932 BA660000 		movl	$102, %edx
 3866      00
 3867 1937 4889CE   		movq	%rcx, %rsi
 3868 193a 4889C7   		movq	%rax, %rdi
 3869 193d E8000000 		call	_ZN8UnitTest11TestDetailsC1ERKS0_i@PLT
 3869      00
 3870              		.loc 6 102 5 discriminator 9
 3871 1942 488D45C0 		leaq	-64(%rbp), %rax
 3872 1946 488D1500 		leaq	.LC38(%rip), %rdx
 3872      000000
 3873 194d 4889C6   		movq	%rax, %rsi
 3874 1950 4889DF   		movq	%rbx, %rdi
 3875 1953 E8000000 		call	_ZN8UnitTest11TestResults13OnTestFailureERKNS_11TestDetailsEPKc@PLT
 3875      00
 3876              	.LEHE74:
 3877              	.L179:
 3878              	.LEHB75:
 103:TestTestMacros.cpp ****     CHECK_EQUAL ("MacroTestHelper2", macroTestList2.GetHead()->m_details.testName);
 3879              		.loc 6 103 5 is_stmt 1
 3880 1958 E8000000 		call	_ZN8UnitTest11CurrentTest7DetailsEv@PLT
 3880      00
 3881 195d 488B08   		movq	(%rax), %rcx
 3882 1960 488D45C0 		leaq	-64(%rbp), %rax
 3883 1964 BA670000 		movl	$103, %edx
 3883      00
 3884 1969 4889CE   		movq	%rcx, %rsi
 3885 196c 4889C7   		movq	%rax, %rdi
 3886 196f E8000000 		call	_ZN8UnitTest11TestDetailsC1ERKS0_i@PLT
 3886      00
 3887              		.loc 6 103 5 is_stmt 0 discriminator 4
 3888 1974 488D0500 		leaq	_ZN12_GLOBAL__N_114macroTestList2E(%rip), %rax
 3888      000000
 3889 197b 4889C7   		movq	%rax, %rdi
 3890 197e E8000000 		call	_ZNK8UnitTest8TestList7GetHeadEv@PLT
 3890      00
 3891 1983 488B5810 		movq	16(%rax), %rbx
 3892 1987 E8000000 		call	_ZN8UnitTest11CurrentTest7ResultsEv@PLT
 3892      00
 3893              		.loc 6 103 5 discriminator 6
 3894 198c 488B00   		movq	(%rax), %rax
 3895 198f 488D55C0 		leaq	-64(%rbp), %rdx
 3896 1993 4889D1   		movq	%rdx, %rcx
 3897 1996 4889DA   		movq	%rbx, %rdx
 3898 1999 488D3500 		leaq	.LC36(%rip), %rsi
 3898      000000
 3899 19a0 4889C7   		movq	%rax, %rdi
 3900 19a3 E8000000 		call	_ZN8UnitTest10CheckEqualERNS_11TestResultsEPKcS3_RKNS_11TestDetailsE@PLT
 3900      00
 3901              	.LEHE75:
 3902              	.L183:
 3903              	.LEHB76:
 104:TestTestMacros.cpp ****     CHECK_EQUAL ("DefaultSuite", macroTestList2.GetHead()->m_details.suiteName);
 3904              		.loc 6 104 5 is_stmt 1
 3905 19a8 E8000000 		call	_ZN8UnitTest11CurrentTest7DetailsEv@PLT
 3905      00
 3906 19ad 488B08   		movq	(%rax), %rcx
 3907 19b0 488D45C0 		leaq	-64(%rbp), %rax
 3908 19b4 BA680000 		movl	$104, %edx
 3908      00
 3909 19b9 4889CE   		movq	%rcx, %rsi
 3910 19bc 4889C7   		movq	%rax, %rdi
 3911 19bf E8000000 		call	_ZN8UnitTest11TestDetailsC1ERKS0_i@PLT
 3911      00
 3912              		.loc 6 104 5 is_stmt 0 discriminator 4
 3913 19c4 488D0500 		leaq	_ZN12_GLOBAL__N_114macroTestList2E(%rip), %rax
 3913      000000
 3914 19cb 4889C7   		movq	%rax, %rdi
 3915 19ce E8000000 		call	_ZNK8UnitTest8TestList7GetHeadEv@PLT
 3915      00
 3916 19d3 488B5808 		movq	8(%rax), %rbx
 3917 19d7 E8000000 		call	_ZN8UnitTest11CurrentTest7ResultsEv@PLT
 3917      00
 3918              		.loc 6 104 5 discriminator 6
 3919 19dc 488B00   		movq	(%rax), %rax
 3920 19df 488D55C0 		leaq	-64(%rbp), %rdx
 3921 19e3 4889D1   		movq	%rdx, %rcx
 3922 19e6 4889DA   		movq	%rbx, %rdx
 3923 19e9 488D3500 		leaq	.LC0(%rip), %rsi
 3923      000000
 3924 19f0 4889C7   		movq	%rax, %rdi
 3925 19f3 E8000000 		call	_ZN8UnitTest10CheckEqualERNS_11TestResultsEPKcS3_RKNS_11TestDetailsE@PLT
 3925      00
 3926              	.LEHE76:
 105:TestTestMacros.cpp **** }
 3927              		.loc 6 105 1 is_stmt 1
 3928 19f8 E9320100 		jmp	.L178
 3928      00
 3929              	.L189:
 3930 19fd F30F1EFA 		endbr64
 102:TestTestMacros.cpp ****     CHECK_EQUAL ("MacroTestHelper2", macroTestList2.GetHead()->m_details.testName);
 3931              		.loc 6 102 5
 3932 1a01 4889C7   		movq	%rax, %rdi
 3933 1a04 E8000000 		call	__cxa_begin_catch@PLT
 3933      00
 3934              	.LEHB77:
 3935 1a09 E8000000 		call	_ZN8UnitTest11CurrentTest7ResultsEv@PLT
 3935      00
 102:TestTestMacros.cpp ****     CHECK_EQUAL ("MacroTestHelper2", macroTestList2.GetHead()->m_details.testName);
 3936              		.loc 6 102 5 is_stmt 0 discriminator 8
 3937 1a0e 488B18   		movq	(%rax), %rbx
 3938 1a11 E8000000 		call	_ZN8UnitTest11CurrentTest7DetailsEv@PLT
 3938      00
 102:TestTestMacros.cpp ****     CHECK_EQUAL ("MacroTestHelper2", macroTestList2.GetHead()->m_details.testName);
 3939              		.loc 6 102 5 discriminator 14
 3940 1a16 488B08   		movq	(%rax), %rcx
 3941 1a19 488D45C0 		leaq	-64(%rbp), %rax
 3942 1a1d BA660000 		movl	$102, %edx
 3942      00
 3943 1a22 4889CE   		movq	%rcx, %rsi
 3944 1a25 4889C7   		movq	%rax, %rdi
 3945 1a28 E8000000 		call	_ZN8UnitTest11TestDetailsC1ERKS0_i@PLT
 3945      00
 102:TestTestMacros.cpp ****     CHECK_EQUAL ("MacroTestHelper2", macroTestList2.GetHead()->m_details.testName);
 3946              		.loc 6 102 5 discriminator 18
 3947 1a2d 488D45C0 		leaq	-64(%rbp), %rax
 3948 1a31 488D1500 		leaq	.LC39(%rip), %rdx
 3948      000000
 3949 1a38 4889C6   		movq	%rax, %rsi
 3950 1a3b 4889DF   		movq	%rbx, %rdi
 3951 1a3e E8000000 		call	_ZN8UnitTest11TestResults13OnTestFailureERKNS_11TestDetailsEPKc@PLT
 3951      00
 3952              	.LEHE77:
 3953              	.LEHB78:
 102:TestTestMacros.cpp ****     CHECK_EQUAL ("MacroTestHelper2", macroTestList2.GetHead()->m_details.testName);
 3954              		.loc 6 102 5 discriminator 20
 3955 1a43 E8000000 		call	__cxa_end_catch@PLT
 3955      00
 3956              	.LEHE78:
 3957 1a48 E90BFFFF 		jmp	.L179
 3957      FF
 3958              	.L190:
 3959 1a4d F30F1EFA 		endbr64
 102:TestTestMacros.cpp ****     CHECK_EQUAL ("MacroTestHelper2", macroTestList2.GetHead()->m_details.testName);
 3960              		.loc 6 102 5
 3961 1a51 4889C3   		movq	%rax, %rbx
 3962 1a54 E8000000 		call	__cxa_end_catch@PLT
 3962      00
 3963 1a59 4889D8   		movq	%rbx, %rax
 3964 1a5c 4889C7   		movq	%rax, %rdi
 3965              	.LEHB79:
 3966 1a5f E8000000 		call	_Unwind_Resume@PLT
 3966      00
 3967              	.LEHE79:
 3968              	.L191:
 3969 1a64 F30F1EFA 		endbr64
 103:TestTestMacros.cpp ****     CHECK_EQUAL ("DefaultSuite", macroTestList2.GetHead()->m_details.suiteName);
 3970              		.loc 6 103 5 is_stmt 1
 3971 1a68 4889C7   		movq	%rax, %rdi
 3972 1a6b E8000000 		call	__cxa_begin_catch@PLT
 3972      00
 3973              	.LEHB80:
 3974 1a70 E8000000 		call	_ZN8UnitTest11CurrentTest7ResultsEv@PLT
 3974      00
 103:TestTestMacros.cpp ****     CHECK_EQUAL ("DefaultSuite", macroTestList2.GetHead()->m_details.suiteName);
 3975              		.loc 6 103 5 is_stmt 0 discriminator 3
 3976 1a75 488B18   		movq	(%rax), %rbx
 3977 1a78 E8000000 		call	_ZN8UnitTest11CurrentTest7DetailsEv@PLT
 3977      00
 103:TestTestMacros.cpp ****     CHECK_EQUAL ("DefaultSuite", macroTestList2.GetHead()->m_details.suiteName);
 3978              		.loc 6 103 5 discriminator 13
 3979 1a7d 488B08   		movq	(%rax), %rcx
 3980 1a80 488D45C0 		leaq	-64(%rbp), %rax
 3981 1a84 BA670000 		movl	$103, %edx
 3981      00
 3982 1a89 4889CE   		movq	%rcx, %rsi
 3983 1a8c 4889C7   		movq	%rax, %rdi
 3984 1a8f E8000000 		call	_ZN8UnitTest11TestDetailsC1ERKS0_i@PLT
 3984      00
 103:TestTestMacros.cpp ****     CHECK_EQUAL ("DefaultSuite", macroTestList2.GetHead()->m_details.suiteName);
 3985              		.loc 6 103 5 discriminator 17
 3986 1a94 488D45C0 		leaq	-64(%rbp), %rax
 3987 1a98 488D1500 		leaq	.LC40(%rip), %rdx
 3987      000000
 3988 1a9f 4889C6   		movq	%rax, %rsi
 3989 1aa2 4889DF   		movq	%rbx, %rdi
 3990 1aa5 E8000000 		call	_ZN8UnitTest11TestResults13OnTestFailureERKNS_11TestDetailsEPKc@PLT
 3990      00
 3991              	.LEHE80:
 3992              	.LEHB81:
 103:TestTestMacros.cpp ****     CHECK_EQUAL ("DefaultSuite", macroTestList2.GetHead()->m_details.suiteName);
 3993              		.loc 6 103 5 discriminator 19
 3994 1aaa E8000000 		call	__cxa_end_catch@PLT
 3994      00
 3995              	.LEHE81:
 3996 1aaf E9F4FEFF 		jmp	.L183
 3996      FF
 3997              	.L192:
 3998 1ab4 F30F1EFA 		endbr64
 103:TestTestMacros.cpp ****     CHECK_EQUAL ("DefaultSuite", macroTestList2.GetHead()->m_details.suiteName);
 3999              		.loc 6 103 5
 4000 1ab8 4889C3   		movq	%rax, %rbx
 4001 1abb E8000000 		call	__cxa_end_catch@PLT
 4001      00
 4002 1ac0 4889D8   		movq	%rbx, %rax
 4003 1ac3 4889C7   		movq	%rax, %rdi
 4004              	.LEHB82:
 4005 1ac6 E8000000 		call	_Unwind_Resume@PLT
 4005      00
 4006              	.LEHE82:
 4007              	.L193:
 4008 1acb F30F1EFA 		endbr64
 104:TestTestMacros.cpp **** }
 4009              		.loc 6 104 5 is_stmt 1
 4010 1acf 4889C7   		movq	%rax, %rdi
 4011 1ad2 E8000000 		call	__cxa_begin_catch@PLT
 4011      00
 4012              	.LEHB83:
 4013 1ad7 E8000000 		call	_ZN8UnitTest11CurrentTest7ResultsEv@PLT
 4013      00
 104:TestTestMacros.cpp **** }
 4014              		.loc 6 104 5 is_stmt 0 discriminator 3
 4015 1adc 488B18   		movq	(%rax), %rbx
 4016 1adf E8000000 		call	_ZN8UnitTest11CurrentTest7DetailsEv@PLT
 4016      00
 104:TestTestMacros.cpp **** }
 4017              		.loc 6 104 5 discriminator 13
 4018 1ae4 488B08   		movq	(%rax), %rcx
 4019 1ae7 488D45C0 		leaq	-64(%rbp), %rax
 4020 1aeb BA680000 		movl	$104, %edx
 4020      00
 4021 1af0 4889CE   		movq	%rcx, %rsi
 4022 1af3 4889C7   		movq	%rax, %rdi
 4023 1af6 E8000000 		call	_ZN8UnitTest11TestDetailsC1ERKS0_i@PLT
 4023      00
 104:TestTestMacros.cpp **** }
 4024              		.loc 6 104 5 discriminator 17
 4025 1afb 488D45C0 		leaq	-64(%rbp), %rax
 4026 1aff 488D1500 		leaq	.LC41(%rip), %rdx
 4026      000000
 4027 1b06 4889C6   		movq	%rax, %rsi
 4028 1b09 4889DF   		movq	%rbx, %rdi
 4029 1b0c E8000000 		call	_ZN8UnitTest11TestResults13OnTestFailureERKNS_11TestDetailsEPKc@PLT
 4029      00
 4030              	.LEHE83:
 4031              	.LEHB84:
 104:TestTestMacros.cpp **** }
 4032              		.loc 6 104 5 discriminator 19
 4033 1b11 E8000000 		call	__cxa_end_catch@PLT
 4033      00
 4034              	.LEHE84:
 4035              		.loc 6 105 1 is_stmt 1 discriminator 19
 4036 1b16 EB17     		jmp	.L178
 4037              	.L194:
 4038 1b18 F30F1EFA 		endbr64
 104:TestTestMacros.cpp **** }
 4039              		.loc 6 104 5
 4040 1b1c 4889C3   		movq	%rax, %rbx
 4041 1b1f E8000000 		call	__cxa_end_catch@PLT
 4041      00
 4042 1b24 4889D8   		movq	%rbx, %rax
 4043 1b27 4889C7   		movq	%rax, %rdi
 4044              	.LEHB85:
 4045 1b2a E8000000 		call	_Unwind_Resume@PLT
 4045      00
 4046              	.LEHE85:
 4047              	.L178:
 4048              		.loc 6 105 1
 4049 1b2f 488B45E8 		movq	-24(%rbp), %rax
 4050 1b33 64482B04 		subq	%fs:40, %rax
 4050      25280000 
 4050      00
 4051 1b3c 7405     		je	.L188
 4052 1b3e E8000000 		call	__stack_chk_fail@PLT
 4052      00
 4053              	.L188:
 4054 1b43 488B5DF8 		movq	-8(%rbp), %rbx
 4055 1b47 C9       		leave
 4056              		.cfi_def_cfa 7, 8
 4057 1b48 C3       		ret
 4058              		.cfi_endproc
 4059              	.LFE1228:
 4060              		.section	.gcc_except_table
 4061              		.align 4
 4062              	.LLSDA1228:
 4063 0210 FF       		.byte	0xff
 4064 0211 9B       		.byte	0x9b
 4065 0212 49       		.uleb128 .LLSDATT1228-.LLSDATTD1228
 4066              	.LLSDATTD1228:
 4067 0213 01       		.byte	0x1
 4068 0214 41       		.uleb128 .LLSDACSE1228-.LLSDACSB1228
 4069              	.LLSDACSB1228:
 4070 0215 2A       		.uleb128 .LEHB74-.LFB1228
 4071 0216 56       		.uleb128 .LEHE74-.LEHB74
 4072 0217 A502     		.uleb128 .L189-.LFB1228
 4073 0219 01       		.uleb128 0x1
 4074 021a 8001     		.uleb128 .LEHB75-.LFB1228
 4075 021c 50       		.uleb128 .LEHE75-.LEHB75
 4076 021d 8C03     		.uleb128 .L191-.LFB1228
 4077 021f 01       		.uleb128 0x1
 4078 0220 D001     		.uleb128 .LEHB76-.LFB1228
 4079 0222 50       		.uleb128 .LEHE76-.LEHB76
 4080 0223 F303     		.uleb128 .L193-.LFB1228
 4081 0225 01       		.uleb128 0x1
 4082 0226 B102     		.uleb128 .LEHB77-.LFB1228
 4083 0228 3A       		.uleb128 .LEHE77-.LEHB77
 4084 0229 F502     		.uleb128 .L190-.LFB1228
 4085 022b 00       		.uleb128 0
 4086 022c EB02     		.uleb128 .LEHB78-.LFB1228
 4087 022e 05       		.uleb128 .LEHE78-.LEHB78
 4088 022f 00       		.uleb128 0
 4089 0230 00       		.uleb128 0
 4090 0231 8703     		.uleb128 .LEHB79-.LFB1228
 4091 0233 05       		.uleb128 .LEHE79-.LEHB79
 4092 0234 00       		.uleb128 0
 4093 0235 00       		.uleb128 0
 4094 0236 9803     		.uleb128 .LEHB80-.LFB1228
 4095 0238 3A       		.uleb128 .LEHE80-.LEHB80
 4096 0239 DC03     		.uleb128 .L192-.LFB1228
 4097 023b 00       		.uleb128 0
 4098 023c D203     		.uleb128 .LEHB81-.LFB1228
 4099 023e 05       		.uleb128 .LEHE81-.LEHB81
 4100 023f 00       		.uleb128 0
 4101 0240 00       		.uleb128 0
 4102 0241 EE03     		.uleb128 .LEHB82-.LFB1228
 4103 0243 05       		.uleb128 .LEHE82-.LEHB82
 4104 0244 00       		.uleb128 0
 4105 0245 00       		.uleb128 0
 4106 0246 FF03     		.uleb128 .LEHB83-.LFB1228
 4107 0248 3A       		.uleb128 .LEHE83-.LEHB83
 4108 0249 C004     		.uleb128 .L194-.LFB1228
 4109 024b 00       		.uleb128 0
 4110 024c B904     		.uleb128 .LEHB84-.LFB1228
 4111 024e 05       		.uleb128 .LEHE84-.LEHB84
 4112 024f 00       		.uleb128 0
 4113 0250 00       		.uleb128 0
 4114 0251 D204     		.uleb128 .LEHB85-.LFB1228
 4115 0253 05       		.uleb128 .LEHE85-.LEHB85
 4116 0254 00       		.uleb128 0
 4117 0255 00       		.uleb128 0
 4118              	.LLSDACSE1228:
 4119 0256 01       		.byte	0x1
 4120 0257 00       		.byte	0
 4121              		.align 4
 4122 0258 00000000 		.long	0
 4123              	
 4124              	.LLSDATT1228:
 4125              		.text
 4127              		.section	.rodata
 4128              	.LC42:
 4129 0772 65786365 		.string	"exception"
 4129      7074696F 
 4129      6E00
 4130              		.text
 4131 1b49 90       		.align 2
 4133              	_ZN12_GLOBAL__N_117FixtureCtorThrowsC2Ev:
 4134              	.LFB1230:
 106:TestTestMacros.cpp **** 
 107:TestTestMacros.cpp **** struct FixtureCtorThrows
 108:TestTestMacros.cpp **** {
 109:TestTestMacros.cpp **** 	FixtureCtorThrows()	{ throw "exception"; }
 4135              		.loc 6 109 2
 4136              		.cfi_startproc
 4137 1b4a 55       		pushq	%rbp
 4138              		.cfi_def_cfa_offset 16
 4139              		.cfi_offset 6, -16
 4140 1b4b 4889E5   		movq	%rsp, %rbp
 4141              		.cfi_def_cfa_register 6
 4142 1b4e 4883EC10 		subq	$16, %rsp
 4143 1b52 48897DF8 		movq	%rdi, -8(%rbp)
 4144              	.LBB55:
 4145              		.loc 6 109 30
 4146 1b56 BF080000 		movl	$8, %edi
 4146      00
 4147 1b5b E8000000 		call	__cxa_allocate_exception@PLT
 4147      00
 4148              		.loc 6 109 24
 4149 1b60 488D1500 		leaq	.LC42(%rip), %rdx
 4149      000000
 4150 1b67 488910   		movq	%rdx, (%rax)
 4151              		.loc 6 109 30
 4152 1b6a BA000000 		movl	$0, %edx
 4152      00
 4153 1b6f 488D0D00 		leaq	_ZTIPKc(%rip), %rcx
 4153      000000
 4154 1b76 4889CE   		movq	%rcx, %rsi
 4155 1b79 4889C7   		movq	%rax, %rdi
 4156 1b7c E8000000 		call	__cxa_throw@PLT
 4156      00
 4157              	.LBE55:
 4158              		.cfi_endproc
 4159              	.LFE1230:
 4161              		.local	_ZN12_GLOBAL__N_124throwingFixtureTestList1E
 4162              		.comm	_ZN12_GLOBAL__N_124throwingFixtureTestList1E,16,16
 4163 1b81 90       		.align 2
 4165              	_ZN12_GLOBAL__N_148FixtureCtorThrowsFixtureCtorThrowsTestNameHelperC2ERKN8UnitTest11TestDetailsE:
 4166              	.LFB1233:
 110:TestTestMacros.cpp **** };
 111:TestTestMacros.cpp **** 
 112:TestTestMacros.cpp **** TestList throwingFixtureTestList1;
 113:TestTestMacros.cpp **** TEST_FIXTURE_EX(FixtureCtorThrows, FixtureCtorThrowsTestName, throwingFixtureTestList1)
 4167              		.loc 6 113 1
 4168              		.cfi_startproc
 4169 1b82 55       		pushq	%rbp
 4170              		.cfi_def_cfa_offset 16
 4171              		.cfi_offset 6, -16
 4172 1b83 4889E5   		movq	%rsp, %rbp
 4173              		.cfi_def_cfa_register 6
 4174 1b86 4883EC10 		subq	$16, %rsp
 4175 1b8a 48897DF8 		movq	%rdi, -8(%rbp)
 4176 1b8e 488975F0 		movq	%rsi, -16(%rbp)
 4177              	.LBB56:
 4178              		.loc 6 113 1
 4179 1b92 488B45F8 		movq	-8(%rbp), %rax
 4180 1b96 4889C7   		movq	%rax, %rdi
 4181 1b99 E8ACFFFF 		call	_ZN12_GLOBAL__N_117FixtureCtorThrowsC2Ev
 4181      FF
 4182 1b9e 488B45F8 		movq	-8(%rbp), %rax
 4183 1ba2 488B55F0 		movq	-16(%rbp), %rdx
 4184 1ba6 488910   		movq	%rdx, (%rax)
 4185              	.LBE56:
 4186 1ba9 90       		nop
 4187 1baa C9       		leave
 4188              		.cfi_def_cfa 7, 8
 4189 1bab C3       		ret
 4190              		.cfi_endproc
 4191              	.LFE1233:
 4193              		.set	_ZN12_GLOBAL__N_148FixtureCtorThrowsFixtureCtorThrowsTestNameHelperC1ERKN8UnitTest11TestDetai
 4194              		.section	.rodata
 4195              	.LC43:
 4196 077c 46697874 		.string	"FixtureCtorThrowsTestName"
 4196      75726543 
 4196      746F7254 
 4196      68726F77 
 4196      73546573 
 4197              		.text
 4198              		.align 2
 4200              	_ZN12_GLOBAL__N_146TestFixtureCtorThrowsFixtureCtorThrowsTestNameC2Ev:
 4201              	.LFB1236:
 4202              		.loc 6 113 1
 4203              		.cfi_startproc
 4204 1bac 55       		pushq	%rbp
 4205              		.cfi_def_cfa_offset 16
 4206              		.cfi_offset 6, -16
 4207 1bad 4889E5   		movq	%rsp, %rbp
 4208              		.cfi_def_cfa_register 6
 4209 1bb0 53       		pushq	%rbx
 4210 1bb1 4883EC18 		subq	$24, %rsp
 4211              		.cfi_offset 3, -24
 4212 1bb5 48897DE8 		movq	%rdi, -24(%rbp)
 4213              	.LBB57:
 4214              		.loc 6 113 1
 4215 1bb9 488B5DE8 		movq	-24(%rbp), %rbx
 4216 1bbd E8000000 		call	_ZN13UnitTestSuite12GetSuiteNameEv
 4216      00
 4217 1bc2 4889C2   		movq	%rax, %rdx
 4218 1bc5 41B87100 		movl	$113, %r8d
 4218      0000
 4219 1bcb 488D0500 		leaq	.LC2(%rip), %rax
 4219      000000
 4220 1bd2 4889C1   		movq	%rax, %rcx
 4221 1bd5 488D0500 		leaq	.LC43(%rip), %rax
 4221      000000
 4222 1bdc 4889C6   		movq	%rax, %rsi
 4223 1bdf 4889DF   		movq	%rbx, %rdi
 4224 1be2 E8000000 		call	_ZN8UnitTest4TestC2EPKcS2_S2_i@PLT
 4224      00
 4225 1be7 488D1500 		leaq	16+_ZTVN12_GLOBAL__N_146TestFixtureCtorThrowsFixtureCtorThrowsTestNameE(%rip), %rdx
 4225      000000
 4226 1bee 488B45E8 		movq	-24(%rbp), %rax
 4227 1bf2 488910   		movq	%rdx, (%rax)
 4228              	.LBE57:
 4229 1bf5 90       		nop
 4230 1bf6 488B5DF8 		movq	-8(%rbp), %rbx
 4231 1bfa C9       		leave
 4232              		.cfi_def_cfa 7, 8
 4233 1bfb C3       		ret
 4234              		.cfi_endproc
 4235              	.LFE1236:
 4237              		.set	_ZN12_GLOBAL__N_146TestFixtureCtorThrowsFixtureCtorThrowsTestNameC1Ev,_ZN12_GLOBAL__N_146Test
 4238              		.local	_ZN12_GLOBAL__N_154testFixtureCtorThrowsFixtureCtorThrowsTestNameInstanceE
 4239              		.comm	_ZN12_GLOBAL__N_154testFixtureCtorThrowsFixtureCtorThrowsTestNameInstanceE,56,32
 4240              		.local	_ZN12_GLOBAL__N_147adderFixtureCtorThrowsFixtureCtorThrowsTestNameE
 4241              		.comm	_ZN12_GLOBAL__N_147adderFixtureCtorThrowsFixtureCtorThrowsTestNameE,1,1
 4242              		.section	.rodata
 4243 0796 0000     		.align 8
 4244              	.LC44:
 4245 0798 556E6861 		.string	"Unhandled exception while destroying fixture FixtureCtorThrows"
 4245      6E646C65 
 4245      64206578 
 4245      63657074 
 4245      696F6E20 
 4246 07d7 00       		.align 8
 4247              	.LC45:
 4248 07d8 556E6861 		.string	"Unhandled exception while constructing fixture FixtureCtorThrows"
 4248      6E646C65 
 4248      64206578 
 4248      63657074 
 4248      696F6E20 
 4249              		.text
 4250              		.align 2
 4252              	_ZNK12_GLOBAL__N_146TestFixtureCtorThrowsFixtureCtorThrowsTestName7RunImplEv:
 4253              	.LFB1238:
 4254              		.loc 6 113 1
 4255              		.cfi_startproc
 4256              		.cfi_personality 0x9b,DW.ref.__gxx_personality_v0
 4257              		.cfi_lsda 0x1b,.LLSDA1238
 4258 1bfc F30F1EFA 		endbr64
 4259 1c00 55       		pushq	%rbp
 4260              		.cfi_def_cfa_offset 16
 4261              		.cfi_offset 6, -16
 4262 1c01 4889E5   		movq	%rsp, %rbp
 4263              		.cfi_def_cfa_register 6
 4264 1c04 4155     		pushq	%r13
 4265 1c06 4154     		pushq	%r12
 4266 1c08 53       		pushq	%rbx
 4267 1c09 4881ECF8 		subq	$504, %rsp
 4267      010000
 4268              		.cfi_offset 13, -24
 4269              		.cfi_offset 12, -32
 4270              		.cfi_offset 3, -40
 4271 1c10 4889BDF8 		movq	%rdi, -520(%rbp)
 4271      FDFFFF
 4272              		.loc 6 113 1
 4273 1c17 64488B04 		movq	%fs:40, %rax
 4273      25280000 
 4273      00
 4274 1c20 488945D8 		movq	%rax, -40(%rbp)
 4275 1c24 31C0     		xorl	%eax, %eax
 4276 1c26 C6850FFE 		movb	$0, -497(%rbp)
 4276      FFFF00
 4277              	.LBB58:
 4278 1c2d 488B85F8 		movq	-520(%rbp), %rax
 4278      FDFFFF
 4279 1c34 488D5008 		leaq	8(%rax), %rdx
 4280 1c38 488D8520 		leaq	-480(%rbp), %rax
 4280      FEFFFF
 4281 1c3f 4889D6   		movq	%rdx, %rsi
 4282 1c42 4889C7   		movq	%rax, %rdi
 4283              	.LEHB86:
 4284 1c45 E838FFFF 		call	_ZN12_GLOBAL__N_148FixtureCtorThrowsFixtureCtorThrowsTestNameHelperC1ERKN8UnitTest11TestDetai
 4284      FF
 4285              		.loc 6 113 1 is_stmt 0 discriminator 1
 4286 1c4a C6850FFE 		movb	$1, -497(%rbp)
 4286      FFFF01
 4287 1c51 488B85F8 		movq	-520(%rbp), %rax
 4287      FDFFFF
 4288 1c58 488D5008 		leaq	8(%rax), %rdx
 4289 1c5c 488D8520 		leaq	-480(%rbp), %rax
 4289      FEFFFF
 4290 1c63 4889D6   		movq	%rdx, %rsi
 4291 1c66 4889C7   		movq	%rax, %rdi
 4292 1c69 E81F2200 		call	_ZN8UnitTest11ExecuteTestIN12_GLOBAL__N_148FixtureCtorThrowsFixtureCtorThrowsTestNameHelperEE
 4292      00
 4293              	.LEHE86:
 4294              	.LBE58:
 4295              		.loc 6 113 1
 4296 1c6e E9630200 		jmp	.L198
 4296      00
 4297              	.L211:
 4298 1c73 F30F1EFA 		endbr64
 4299 1c77 4883FA01 		cmpq	$1, %rdx
 4300 1c7b 740F     		je	.L200
 4301 1c7d 4883FA02 		cmpq	$2, %rdx
 4302 1c81 0F84A700 		je	.L201
 4302      0000
 4303 1c87 E94D0100 		jmp	.L216
 4303      00
 4304              	.L200:
 4305              	.LBB59:
 4306              		.loc 6 113 1 discriminator 2
 4307 1c8c 4889C7   		movq	%rax, %rdi
 4308 1c8f E8000000 		call	__cxa_begin_catch@PLT
 4308      00
 4309 1c94 48898518 		movq	%rax, -488(%rbp)
 4309      FEFFFF
 4310              	.LEHB87:
 4311 1c9b E8000000 		call	_ZN8UnitTest11CurrentTest7ResultsEv@PLT
 4311      00
 4312 1ca0 488B18   		movq	(%rax), %rbx
 4313 1ca3 488B8518 		movq	-488(%rbp), %rax
 4313      FEFFFF
 4314 1caa 488B00   		movq	(%rax), %rax
 4315 1cad 4883C010 		addq	$16, %rax
 4316 1cb1 488B10   		movq	(%rax), %rdx
 4317 1cb4 488B8518 		movq	-488(%rbp), %rax
 4317      FEFFFF
 4318 1cbb 4889C7   		movq	%rax, %rdi
 4319 1cbe FFD2     		call	*%rdx
 4320              	.LVL8:
 4321 1cc0 4989C4   		movq	%rax, %r12
 4322 1cc3 488B8518 		movq	-488(%rbp), %rax
 4322      FEFFFF
 4323 1cca 4889C7   		movq	%rax, %rdi
 4324 1ccd E8000000 		call	_ZNK8UnitTest15AssertException10LineNumberEv@PLT
 4324      00
 4325              		.loc 6 113 1 discriminator 6
 4326 1cd2 4189C5   		movl	%eax, %r13d
 4327 1cd5 488B8518 		movq	-488(%rbp), %rax
 4327      FEFFFF
 4328 1cdc 4889C7   		movq	%rax, %rdi
 4329 1cdf E8000000 		call	_ZNK8UnitTest15AssertException8FilenameEv@PLT
 4329      00
 4330              		.loc 6 113 1 discriminator 8
 4331 1ce4 4889C1   		movq	%rax, %rcx
 4332 1ce7 488B85F8 		movq	-520(%rbp), %rax
 4332      FDFFFF
 4333 1cee 488B5008 		movq	8(%rax), %rdx
 4334 1cf2 488B85F8 		movq	-520(%rbp), %rax
 4334      FDFFFF
 4335 1cf9 488B7010 		movq	16(%rax), %rsi
 4336 1cfd 488D8520 		leaq	-480(%rbp), %rax
 4336      FEFFFF
 4337 1d04 4589E8   		movl	%r13d, %r8d
 4338 1d07 4889C7   		movq	%rax, %rdi
 4339 1d0a E8000000 		call	_ZN8UnitTest11TestDetailsC1EPKcS2_S2_i@PLT
 4339      00
 4340              		.loc 6 113 1 discriminator 12
 4341 1d0f 488D8520 		leaq	-480(%rbp), %rax
 4341      FEFFFF
 4342 1d16 4C89E2   		movq	%r12, %rdx
 4343 1d19 4889C6   		movq	%rax, %rsi
 4344 1d1c 4889DF   		movq	%rbx, %rdi
 4345 1d1f E8000000 		call	_ZN8UnitTest11TestResults13OnTestFailureERKNS_11TestDetailsEPKc@PLT
 4345      00
 4346              	.LEHE87:
 4347              		.loc 6 113 1 discriminator 14
 4348 1d24 E8000000 		call	__cxa_end_catch@PLT
 4348      00
 4349              	.LBE59:
 4350 1d29 E9A80100 		jmp	.L198
 4350      00
 4351              	.L201:
 4352              	.LBB60:
 4353              		.loc 6 113 1 discriminator 3
 4354 1d2e 4889C7   		movq	%rax, %rdi
 4355 1d31 E8000000 		call	__cxa_begin_catch@PLT
 4355      00
 4356 1d36 48898510 		movq	%rax, -496(%rbp)
 4356      FEFFFF
 4357              	.LBB61:
 4358 1d3d 488D8540 		leaq	-448(%rbp), %rax
 4358      FEFFFF
 4359 1d44 4889C7   		movq	%rax, %rdi
 4360              	.LEHB88:
 4361 1d47 E8000000 		call	_ZN8UnitTest15MemoryOutStreamC1Ev
 4361      00
 4362              	.LEHE88:
 4363              		.loc 6 113 1 discriminator 16
 4364 1d4c 488D8540 		leaq	-448(%rbp), %rax
 4364      FEFFFF
 4365 1d53 488D1500 		leaq	.LC11(%rip), %rdx
 4365      000000
 4366 1d5a 4889D6   		movq	%rdx, %rsi
 4367 1d5d 4889C7   		movq	%rax, %rdi
 4368              	.LEHB89:
 4369 1d60 E8000000 		call	_ZStlsISt11char_traitsIcEERSt13basic_ostreamIcT_ES5_PKc@PLT
 4369      00
 4370 1d65 4889C3   		movq	%rax, %rbx
 4371 1d68 488B8510 		movq	-496(%rbp), %rax
 4371      FEFFFF
 4372 1d6f 488B00   		movq	(%rax), %rax
 4373 1d72 4883C010 		addq	$16, %rax
 4374 1d76 488B10   		movq	(%rax), %rdx
 4375 1d79 488B8510 		movq	-496(%rbp), %rax
 4375      FEFFFF
 4376 1d80 4889C7   		movq	%rax, %rdi
 4377 1d83 FFD2     		call	*%rdx
 4378              	.LVL9:
 4379 1d85 4889C6   		movq	%rax, %rsi
 4380 1d88 4889DF   		movq	%rbx, %rdi
 4381 1d8b E8000000 		call	_ZStlsISt11char_traitsIcEERSt13basic_ostreamIcT_ES5_PKc@PLT
 4381      00
 4382              		.loc 6 113 1 discriminator 20
 4383 1d90 E8000000 		call	_ZN8UnitTest11CurrentTest7ResultsEv@PLT
 4383      00
 4384 1d95 488B18   		movq	(%rax), %rbx
 4385 1d98 488D8540 		leaq	-448(%rbp), %rax
 4385      FEFFFF
 4386 1d9f 4889C7   		movq	%rax, %rdi
 4387 1da2 E8000000 		call	_ZNK8UnitTest15MemoryOutStream7GetTextEv@PLT
 4387      00
 4388              		.loc 6 113 1 discriminator 22
 4389 1da7 4889C2   		movq	%rax, %rdx
 4390 1daa 488B85F8 		movq	-520(%rbp), %rax
 4390      FDFFFF
 4391 1db1 4883C008 		addq	$8, %rax
 4392 1db5 4889C6   		movq	%rax, %rsi
 4393 1db8 4889DF   		movq	%rbx, %rdi
 4394 1dbb E8000000 		call	_ZN8UnitTest11TestResults13OnTestFailureERKNS_11TestDetailsEPKc@PLT
 4394      00
 4395              	.LEHE89:
 4396              		.loc 6 113 1 discriminator 26
 4397 1dc0 488D8540 		leaq	-448(%rbp), %rax
 4397      FEFFFF
 4398 1dc7 4889C7   		movq	%rax, %rdi
 4399              	.LEHB90:
 4400 1dca E8000000 		call	_ZN8UnitTest15MemoryOutStreamD1Ev
 4400      00
 4401              	.LEHE90:
 4402              	.LBE61:
 4403              		.loc 6 113 1 discriminator 27
 4404 1dcf E8000000 		call	__cxa_end_catch@PLT
 4404      00
 4405              	.LBE60:
 4406 1dd4 E9FD0000 		jmp	.L198
 4406      00
 4407              	.L216:
 4408              		.loc 6 113 1 discriminator 4
 4409 1dd9 4889C7   		movq	%rax, %rdi
 4410 1ddc E8000000 		call	__cxa_begin_catch@PLT
 4410      00
 4411 1de1 80BD0FFE 		cmpb	$0, -497(%rbp)
 4411      FFFF00
 4412 1de8 7445     		je	.L204
 4413              	.LEHB91:
 4414              		.loc 6 113 1 discriminator 29
 4415 1dea E8000000 		call	_ZN8UnitTest11CurrentTest7ResultsEv@PLT
 4415      00
 4416 1def 488B18   		movq	(%rax), %rbx
 4417 1df2 488B85F8 		movq	-520(%rbp), %rax
 4417      FDFFFF
 4418 1df9 488D4808 		leaq	8(%rax), %rcx
 4419 1dfd 488D8520 		leaq	-480(%rbp), %rax
 4419      FEFFFF
 4420 1e04 BA710000 		movl	$113, %edx
 4420      00
 4421 1e09 4889CE   		movq	%rcx, %rsi
 4422 1e0c 4889C7   		movq	%rax, %rdi
 4423 1e0f E8000000 		call	_ZN8UnitTest11TestDetailsC1ERKS0_i@PLT
 4423      00
 4424              		.loc 6 113 1 discriminator 34
 4425 1e14 488D8520 		leaq	-480(%rbp), %rax
 4425      FEFFFF
 4426 1e1b 488D1500 		leaq	.LC44(%rip), %rdx
 4426      000000
 4427 1e22 4889C6   		movq	%rax, %rsi
 4428 1e25 4889DF   		movq	%rbx, %rdi
 4429 1e28 E8000000 		call	_ZN8UnitTest11TestResults13OnTestFailureERKNS_11TestDetailsEPKc@PLT
 4429      00
 4430 1e2d EB43     		jmp	.L205
 4431              	.L204:
 4432              		.loc 6 113 1 discriminator 30
 4433 1e2f E8000000 		call	_ZN8UnitTest11CurrentTest7ResultsEv@PLT
 4433      00
 4434 1e34 488B18   		movq	(%rax), %rbx
 4435 1e37 488B85F8 		movq	-520(%rbp), %rax
 4435      FDFFFF
 4436 1e3e 488D4808 		leaq	8(%rax), %rcx
 4437 1e42 488D8520 		leaq	-480(%rbp), %rax
 4437      FEFFFF
 4438 1e49 BA710000 		movl	$113, %edx
 4438      00
 4439 1e4e 4889CE   		movq	%rcx, %rsi
 4440 1e51 4889C7   		movq	%rax, %rdi
 4441 1e54 E8000000 		call	_ZN8UnitTest11TestDetailsC1ERKS0_i@PLT
 4441      00
 4442              		.loc 6 113 1 discriminator 41
 4443 1e59 488D8520 		leaq	-480(%rbp), %rax
 4443      FEFFFF
 4444 1e60 488D1500 		leaq	.LC45(%rip), %rdx
 4444      000000
 4445 1e67 4889C6   		movq	%rax, %rsi
 4446 1e6a 4889DF   		movq	%rbx, %rdi
 4447 1e6d E8000000 		call	_ZN8UnitTest11TestResults13OnTestFailureERKNS_11TestDetailsEPKc@PLT
 4447      00
 4448              	.LEHE91:
 4449              	.L205:
 4450              	.LEHB92:
 4451              		.loc 6 113 1 discriminator 44
 4452 1e72 E8000000 		call	__cxa_end_catch@PLT
 4452      00
 4453 1e77 EB5D     		jmp	.L198
 4454              	.L212:
 4455 1e79 F30F1EFA 		endbr64
 4456              	.LBB63:
 4457              		.loc 6 113 1
 4458 1e7d 4889C3   		movq	%rax, %rbx
 4459 1e80 E8000000 		call	__cxa_end_catch@PLT
 4459      00
 4460 1e85 4889D8   		movq	%rbx, %rax
 4461 1e88 4889C7   		movq	%rax, %rdi
 4462 1e8b E8000000 		call	_Unwind_Resume@PLT
 4462      00
 4463              	.LEHE92:
 4464              	.L214:
 4465 1e90 F30F1EFA 		endbr64
 4466              	.LBE63:
 4467              	.LBB64:
 4468              	.LBB62:
 4469 1e94 4889C3   		movq	%rax, %rbx
 4470 1e97 488D8540 		leaq	-448(%rbp), %rax
 4470      FEFFFF
 4471 1e9e 4889C7   		movq	%rax, %rdi
 4472 1ea1 E8000000 		call	_ZN8UnitTest15MemoryOutStreamD1Ev
 4472      00
 4473 1ea6 EB07     		jmp	.L208
 4474              	.L213:
 4475 1ea8 F30F1EFA 		endbr64
 4476              	.LBE62:
 4477 1eac 4889C3   		movq	%rax, %rbx
 4478              	.L208:
 4479 1eaf E8000000 		call	__cxa_end_catch@PLT
 4479      00
 4480 1eb4 4889D8   		movq	%rbx, %rax
 4481 1eb7 4889C7   		movq	%rax, %rdi
 4482              	.LEHB93:
 4483 1eba E8000000 		call	_Unwind_Resume@PLT
 4483      00
 4484              	.LEHE93:
 4485              	.L215:
 4486 1ebf F30F1EFA 		endbr64
 4487              	.LBE64:
 4488 1ec3 4889C3   		movq	%rax, %rbx
 4489 1ec6 E8000000 		call	__cxa_end_catch@PLT
 4489      00
 4490 1ecb 4889D8   		movq	%rbx, %rax
 4491 1ece 4889C7   		movq	%rax, %rdi
 4492              	.LEHB94:
 4493 1ed1 E8000000 		call	_Unwind_Resume@PLT
 4493      00
 4494              	.LEHE94:
 4495              	.L198:
 4496 1ed6 488B45D8 		movq	-40(%rbp), %rax
 4497 1eda 64482B04 		subq	%fs:40, %rax
 4497      25280000 
 4497      00
 4498 1ee3 7405     		je	.L210
 4499 1ee5 E8000000 		call	__stack_chk_fail@PLT
 4499      00
 4500              	.L210:
 4501 1eea 4881C4F8 		addq	$504, %rsp
 4501      010000
 4502 1ef1 5B       		popq	%rbx
 4503 1ef2 415C     		popq	%r12
 4504 1ef4 415D     		popq	%r13
 4505 1ef6 5D       		popq	%rbp
 4506              		.cfi_def_cfa 7, 8
 4507 1ef7 C3       		ret
 4508              		.cfi_endproc
 4509              	.LFE1238:
 4510              		.section	.gcc_except_table
 4511              		.align 4
 4512              	.LLSDA1238:
 4513 025c FF       		.byte	0xff
 4514 025d 9B       		.byte	0x9b
 4515 025e 49       		.uleb128 .LLSDATT1238-.LLSDATTD1238
 4516              	.LLSDATTD1238:
 4517 025f 01       		.byte	0x1
 4518 0260 33       		.uleb128 .LLSDACSE1238-.LLSDACSB1238
 4519              	.LLSDACSB1238:
 4520 0261 49       		.uleb128 .LEHB86-.LFB1238
 4521 0262 29       		.uleb128 .LEHE86-.LEHB86
 4522 0263 77       		.uleb128 .L211-.LFB1238
 4523 0264 05       		.uleb128 0x5
 4524 0265 9F01     		.uleb128 .LEHB87-.LFB1238
 4525 0267 8901     		.uleb128 .LEHE87-.LEHB87
 4526 0269 FD04     		.uleb128 .L212-.LFB1238
 4527 026b 00       		.uleb128 0
 4528 026c CB02     		.uleb128 .LEHB88-.LFB1238
 4529 026e 05       		.uleb128 .LEHE88-.LEHB88
 4530 026f AC05     		.uleb128 .L213-.LFB1238
 4531 0271 00       		.uleb128 0
 4532 0272 E402     		.uleb128 .LEHB89-.LFB1238
 4533 0274 60       		.uleb128 .LEHE89-.LEHB89
 4534 0275 9405     		.uleb128 .L214-.LFB1238
 4535 0277 00       		.uleb128 0
 4536 0278 CE03     		.uleb128 .LEHB90-.LFB1238
 4537 027a 05       		.uleb128 .LEHE90-.LEHB90
 4538 027b AC05     		.uleb128 .L213-.LFB1238
 4539 027d 00       		.uleb128 0
 4540 027e EE03     		.uleb128 .LEHB91-.LFB1238
 4541 0280 8801     		.uleb128 .LEHE91-.LEHB91
 4542 0282 C305     		.uleb128 .L215-.LFB1238
 4543 0284 00       		.uleb128 0
 4544 0285 F604     		.uleb128 .LEHB92-.LFB1238
 4545 0287 1E       		.uleb128 .LEHE92-.LEHB92
 4546 0288 00       		.uleb128 0
 4547 0289 00       		.uleb128 0
 4548 028a BE05     		.uleb128 .LEHB93-.LFB1238
 4549 028c 05       		.uleb128 .LEHE93-.LEHB93
 4550 028d 00       		.uleb128 0
 4551 028e 00       		.uleb128 0
 4552 028f D505     		.uleb128 .LEHB94-.LFB1238
 4553 0291 05       		.uleb128 .LEHE94-.LEHB94
 4554 0292 00       		.uleb128 0
 4555 0293 00       		.uleb128 0
 4556              	.LLSDACSE1238:
 4557 0294 03       		.byte	0x3
 4558 0295 00       		.byte	0
 4559 0296 02       		.byte	0x2
 4560 0297 7D       		.byte	0x7d
 4561 0298 01       		.byte	0x1
 4562 0299 7D       		.byte	0x7d
 4563 029a 0000     		.align 4
 4564 029c 00000000 		.long	0
 4565              	
 4566 02a0 00000000 		.long	DW.ref._ZTISt9exception-.
 4567 02a4 00000000 		.long	DW.ref._ZTIN8UnitTest15AssertExceptionE-.
 4568              	.LLSDATT1238:
 4569              		.text
 4571              		.align 2
 4573              	_ZN12_GLOBAL__N_148FixtureCtorThrowsFixtureCtorThrowsTestNameHelper7RunImplEv:
 4574              	.LFB1239:
 114:TestTestMacros.cpp **** {
 4575              		.loc 6 114 1 is_stmt 1
 4576              		.cfi_startproc
 4577 1ef8 F30F1EFA 		endbr64
 4578 1efc 55       		pushq	%rbp
 4579              		.cfi_def_cfa_offset 16
 4580              		.cfi_offset 6, -16
 4581 1efd 4889E5   		movq	%rsp, %rbp
 4582              		.cfi_def_cfa_register 6
 4583 1f00 48897DF8 		movq	%rdi, -8(%rbp)
 115:TestTestMacros.cpp **** }
 4584              		.loc 6 115 1
 4585 1f04 90       		nop
 4586 1f05 5D       		popq	%rbp
 4587              		.cfi_def_cfa 7, 8
 4588 1f06 C3       		ret
 4589              		.cfi_endproc
 4590              	.LFE1239:
 4592              		.section	.rodata
 4593 0819 00000000 		.align 8
 4593      000000
 4594              	.LC46:
 4595 0820 46697874 		.string	"FixturesWithThrowingCtorsAreFailures"
 4595      75726573 
 4595      57697468 
 4595      5468726F 
 4595      77696E67 
 4596              		.text
 4597 1f07 90       		.align 2
 4599              	_ZN12_GLOBAL__N_140TestFixturesWithThrowingCtorsAreFailuresC2Ev:
 4600              	.LFB1241:
 116:TestTestMacros.cpp **** 
 117:TestTestMacros.cpp **** TEST(FixturesWithThrowingCtorsAreFailures)
 4601              		.loc 6 117 1
 4602              		.cfi_startproc
 4603 1f08 55       		pushq	%rbp
 4604              		.cfi_def_cfa_offset 16
 4605              		.cfi_offset 6, -16
 4606 1f09 4889E5   		movq	%rsp, %rbp
 4607              		.cfi_def_cfa_register 6
 4608 1f0c 53       		pushq	%rbx
 4609 1f0d 4883EC18 		subq	$24, %rsp
 4610              		.cfi_offset 3, -24
 4611 1f11 48897DE8 		movq	%rdi, -24(%rbp)
 4612              	.LBB65:
 4613              		.loc 6 117 1
 4614 1f15 488B5DE8 		movq	-24(%rbp), %rbx
 4615 1f19 E8000000 		call	_ZN13UnitTestSuite12GetSuiteNameEv
 4615      00
 4616 1f1e 4889C2   		movq	%rax, %rdx
 4617 1f21 41B87500 		movl	$117, %r8d
 4617      0000
 4618 1f27 488D0500 		leaq	.LC2(%rip), %rax
 4618      000000
 4619 1f2e 4889C1   		movq	%rax, %rcx
 4620 1f31 488D0500 		leaq	.LC46(%rip), %rax
 4620      000000
 4621 1f38 4889C6   		movq	%rax, %rsi
 4622 1f3b 4889DF   		movq	%rbx, %rdi
 4623 1f3e E8000000 		call	_ZN8UnitTest4TestC2EPKcS2_S2_i@PLT
 4623      00
 4624 1f43 488D1500 		leaq	16+_ZTVN12_GLOBAL__N_140TestFixturesWithThrowingCtorsAreFailuresE(%rip), %rdx
 4624      000000
 4625 1f4a 488B45E8 		movq	-24(%rbp), %rax
 4626 1f4e 488910   		movq	%rdx, (%rax)
 4627              	.LBE65:
 4628 1f51 90       		nop
 4629 1f52 488B5DF8 		movq	-8(%rbp), %rbx
 4630 1f56 C9       		leave
 4631              		.cfi_def_cfa 7, 8
 4632 1f57 C3       		ret
 4633              		.cfi_endproc
 4634              	.LFE1241:
 4636              		.set	_ZN12_GLOBAL__N_140TestFixturesWithThrowingCtorsAreFailuresC1Ev,_ZN12_GLOBAL__N_140TestFixtur
 4637              		.local	_ZN12_GLOBAL__N_148testFixturesWithThrowingCtorsAreFailuresInstanceE
 4638              		.comm	_ZN12_GLOBAL__N_148testFixturesWithThrowingCtorsAreFailuresInstanceE,56,32
 4639              		.local	_ZN12_GLOBAL__N_141adderFixturesWithThrowingCtorsAreFailuresE
 4640              		.comm	_ZN12_GLOBAL__N_141adderFixturesWithThrowingCtorsAreFailuresE,1,1
 4641              		.section	.rodata
 4642 0845 000000   		.align 8
 4643              	.LC47:
 4644 0848 7468726F 		.string	"throwingFixtureTestList1.GetHead() != NULL"
 4644      77696E67 
 4644      46697874 
 4644      75726554 
 4644      6573744C 
 4645              	.LC48:
 4646 0873 7768696C 		.string	"while constructing fixture"
 4646      6520636F 
 4646      6E737472 
 4646      75637469 
 4646      6E672066 
 4647 088e 0000     		.align 8
 4648              	.LC49:
 4649 0890 73747273 		.string	"strstr(reporter.lastFailedMessage, \"while constructing fixture\")"
 4649      74722872 
 4649      65706F72 
 4649      7465722E 
 4649      6C617374 
 4650 08d1 00000000 		.align 8
 4650      000000
 4651              	.LC50:
 4652 08d8 556E6861 		.string	"Unhandled exception in CHECK(throwingFixtureTestList1.GetHead() != NULL)"
 4652      6E646C65 
 4652      64206578 
 4652      63657074 
 4652      696F6E20 
 4653 0921 00000000 		.align 8
 4653      000000
 4654              	.LC51:
 4655 0928 556E6861 		.string	"Unhandled exception in CHECK_EQUAL(1, failureCount)"
 4655      6E646C65 
 4655      64206578 
 4655      63657074 
 4655      696F6E20 
 4656 095c 00000000 		.align 8
 4657              	.LC52:
 4658 0960 556E6861 		.string	"Unhandled exception in CHECK(strstr(reporter.lastFailedMessage, \"while constructing fixt
 4658      6E646C65 
 4658      64206578 
 4658      63657074 
 4658      696F6E20 
 4659              		.text
 4660              		.align 2
 4662              	_ZNK12_GLOBAL__N_140TestFixturesWithThrowingCtorsAreFailures7RunImplEv:
 4663              	.LFB1243:
 118:TestTestMacros.cpp **** {
 4664              		.loc 6 118 1
 4665              		.cfi_startproc
 4666              		.cfi_personality 0x9b,DW.ref.__gxx_personality_v0
 4667              		.cfi_lsda 0x1b,.LLSDA1243
 4668 1f58 F30F1EFA 		endbr64
 4669 1f5c 55       		pushq	%rbp
 4670              		.cfi_def_cfa_offset 16
 4671              		.cfi_offset 6, -16
 4672 1f5d 4889E5   		movq	%rsp, %rbp
 4673              		.cfi_def_cfa_register 6
 4674 1f60 53       		pushq	%rbx
 4675 1f61 4881ECA8 		subq	$2216, %rsp
 4675      080000
 4676              		.cfi_offset 3, -24
 4677 1f68 4889BD58 		movq	%rdi, -2216(%rbp)
 4677      F7FFFF
 4678              		.loc 6 118 1
 4679 1f6f 64488B04 		movq	%fs:40, %rax
 4679      25280000 
 4679      00
 4680 1f78 488945E8 		movq	%rax, -24(%rbp)
 4681 1f7c 31C0     		xorl	%eax, %eax
 119:TestTestMacros.cpp **** 	CHECK(throwingFixtureTestList1.GetHead() != NULL);
 4682              		.loc 6 119 2
 4683 1f7e 488D0500 		leaq	_ZN12_GLOBAL__N_124throwingFixtureTestList1E(%rip), %rax
 4683      000000
 4684 1f85 4889C7   		movq	%rax, %rdi
 4685              	.LEHB95:
 4686 1f88 E8000000 		call	_ZNK8UnitTest8TestList7GetHeadEv@PLT
 4686      00
 4687 1f8d 4885C0   		testq	%rax, %rax
 4688 1f90 0F95C0   		setne	%al
 4689 1f93 0FB6C0   		movzbl	%al, %eax
 4690 1f96 89C7     		movl	%eax, %edi
 4691 1f98 E8000000 		call	_ZN8UnitTest5CheckIbEEbT_
 4691      00
 4692 1f9d 83F001   		xorl	$1, %eax
 4693 1fa0 84C0     		testb	%al, %al
 4694 1fa2 7440     		je	.L220
 4695              		.loc 6 119 2 is_stmt 0 discriminator 3
 4696 1fa4 E8000000 		call	_ZN8UnitTest11CurrentTest7ResultsEv@PLT
 4696      00
 4697 1fa9 488B18   		movq	(%rax), %rbx
 4698 1fac E8000000 		call	_ZN8UnitTest11CurrentTest7DetailsEv@PLT
 4698      00
 4699              		.loc 6 119 2 discriminator 5
 4700 1fb1 488B08   		movq	(%rax), %rcx
 4701 1fb4 488D8590 		leaq	-2160(%rbp), %rax
 4701      F7FFFF
 4702 1fbb BA770000 		movl	$119, %edx
 4702      00
 4703 1fc0 4889CE   		movq	%rcx, %rsi
 4704 1fc3 4889C7   		movq	%rax, %rdi
 4705 1fc6 E8000000 		call	_ZN8UnitTest11TestDetailsC1ERKS0_i@PLT
 4705      00
 4706              		.loc 6 119 2 discriminator 9
 4707 1fcb 488D8590 		leaq	-2160(%rbp), %rax
 4707      F7FFFF
 4708 1fd2 488D1500 		leaq	.LC47(%rip), %rdx
 4708      000000
 4709 1fd9 4889C6   		movq	%rax, %rsi
 4710 1fdc 4889DF   		movq	%rbx, %rdi
 4711 1fdf E8000000 		call	_ZN8UnitTest11TestResults13OnTestFailureERKNS_11TestDetailsEPKc@PLT
 4711      00
 4712              	.LEHE95:
 4713              	.L220:
 120:TestTestMacros.cpp **** 	RecordingReporter reporter;
 4714              		.loc 6 120 20 is_stmt 1
 4715 1fe4 488D85B0 		leaq	-2128(%rbp), %rax
 4715      F7FFFF
 4716 1feb 4889C7   		movq	%rax, %rdi
 4717 1fee E8000000 		call	_ZN17RecordingReporterC1Ev
 4717      00
 121:TestTestMacros.cpp **** 	TestResults result(&reporter);
 4718              		.loc 6 121 30
 4719 1ff3 488D95B0 		leaq	-2128(%rbp), %rdx
 4719      F7FFFF
 4720 1ffa 488D8570 		leaq	-2192(%rbp), %rax
 4720      F7FFFF
 4721 2001 4889D6   		movq	%rdx, %rsi
 4722 2004 4889C7   		movq	%rax, %rdi
 4723              	.LEHB96:
 4724 2007 E8000000 		call	_ZN8UnitTest11TestResultsC1EPNS_12TestReporterE@PLT
 4724      00
 4725              	.LBB66:
 122:TestTestMacros.cpp **** 	{
 123:TestTestMacros.cpp **** 		ScopedCurrentTest scopedResult(result);
 4726              		.loc 6 123 40
 4727 200c 488D8D70 		leaq	-2192(%rbp), %rcx
 4727      F7FFFF
 4728 2013 488D8590 		leaq	-2160(%rbp), %rax
 4728      F7FFFF
 4729 201a BA000000 		movl	$0, %edx
 4729      00
 4730 201f 4889CE   		movq	%rcx, %rsi
 4731 2022 4889C7   		movq	%rax, %rdi
 4732 2025 E8000000 		call	_ZN17ScopedCurrentTestC1ERN8UnitTest11TestResultsEPKNS0_11TestDetailsE
 4732      00
 4733              	.LEHE96:
 124:TestTestMacros.cpp **** 		throwingFixtureTestList1.GetHead()->Run();
 4734              		.loc 6 124 42
 4735 202a 488D0500 		leaq	_ZN12_GLOBAL__N_124throwingFixtureTestList1E(%rip), %rax
 4735      000000
 4736 2031 4889C7   		movq	%rax, %rdi
 4737              	.LEHB97:
 4738 2034 E8000000 		call	_ZNK8UnitTest8TestList7GetHeadEv@PLT
 4738      00
 4739 2039 4889C7   		movq	%rax, %rdi
 4740 203c E8000000 		call	_ZN8UnitTest4Test3RunEv@PLT
 4740      00
 4741              	.LEHE97:
 125:TestTestMacros.cpp **** 	}
 4742              		.loc 6 125 2
 4743 2041 488D8590 		leaq	-2160(%rbp), %rax
 4743      F7FFFF
 4744 2048 4889C7   		movq	%rax, %rdi
 4745              	.LEHB98:
 4746 204b E8000000 		call	_ZN17ScopedCurrentTestD1Ev
 4746      00
 4747              	.LBE66:
 126:TestTestMacros.cpp **** 
 127:TestTestMacros.cpp **** 	int const failureCount = result.GetFailedTestCount();
 4748              		.loc 6 127 52
 4749 2050 488D8570 		leaq	-2192(%rbp), %rax
 4749      F7FFFF
 4750 2057 4889C7   		movq	%rax, %rdi
 4751 205a E8000000 		call	_ZNK8UnitTest11TestResults18GetFailedTestCountEv@PLT
 4751      00
 4752              	.LEHE98:
 4753              		.loc 6 127 53
 4754 205f 898568F7 		movl	%eax, -2200(%rbp)
 4754      FFFF
 4755              	.LEHB99:
 128:TestTestMacros.cpp **** 	CHECK_EQUAL(1, failureCount);
 4756              		.loc 6 128 2
 4757 2065 E8000000 		call	_ZN8UnitTest11CurrentTest7DetailsEv@PLT
 4757      00
 4758              		.loc 6 128 2 is_stmt 0 discriminator 1
 4759 206a 488B08   		movq	(%rax), %rcx
 4760 206d 488D8590 		leaq	-2160(%rbp), %rax
 4760      F7FFFF
 4761 2074 BA800000 		movl	$128, %edx
 4761      00
 4762 2079 4889CE   		movq	%rcx, %rsi
 4763 207c 4889C7   		movq	%rax, %rdi
 4764 207f E8000000 		call	_ZN8UnitTest11TestDetailsC1ERKS0_i@PLT
 4764      00
 4765              		.loc 6 128 2 discriminator 4
 4766 2084 C7856CF7 		movl	$1, -2196(%rbp)
 4766      FFFF0100 
 4766      0000
 4767 208e E8000000 		call	_ZN8UnitTest11CurrentTest7ResultsEv@PLT
 4767      00
 4768 2093 488B00   		movq	(%rax), %rax
 4769 2096 488D8D90 		leaq	-2160(%rbp), %rcx
 4769      F7FFFF
 4770 209d 488D9568 		leaq	-2200(%rbp), %rdx
 4770      F7FFFF
 4771 20a4 488DB56C 		leaq	-2196(%rbp), %rsi
 4771      F7FFFF
 4772 20ab 4889C7   		movq	%rax, %rdi
 4773 20ae E8000000 		call	_ZN8UnitTest10CheckEqualIiiEEvRNS_11TestResultsERKT_RKT0_RKNS_11TestDetailsE
 4773      00
 4774              	.LEHE99:
 4775              	.L227:
 129:TestTestMacros.cpp **** 	CHECK(strstr(reporter.lastFailedMessage, "while constructing fixture"));
 4776              		.loc 6 129 2 is_stmt 1
 4777 20b3 488D85B0 		leaq	-2128(%rbp), %rax
 4777      F7FFFF
 4778 20ba 48051405 		addq	$1300, %rax
 4778      0000
 4779 20c0 488D1500 		leaq	.LC48(%rip), %rdx
 4779      000000
 4780 20c7 4889D6   		movq	%rdx, %rsi
 4781 20ca 4889C7   		movq	%rax, %rdi
 4782 20cd E8000000 		call	strstr@PLT
 4782      00
 4783 20d2 4889C7   		movq	%rax, %rdi
 4784 20d5 E8000000 		call	_ZN8UnitTest5CheckIPcEEbT_
 4784      00
 4785 20da 83F001   		xorl	$1, %eax
 4786 20dd 84C0     		testb	%al, %al
 4787 20df 7440     		je	.L221
 4788              	.LEHB100:
 4789              		.loc 6 129 2 is_stmt 0 discriminator 1
 4790 20e1 E8000000 		call	_ZN8UnitTest11CurrentTest7ResultsEv@PLT
 4790      00
 4791 20e6 488B18   		movq	(%rax), %rbx
 4792 20e9 E8000000 		call	_ZN8UnitTest11CurrentTest7DetailsEv@PLT
 4792      00
 4793              		.loc 6 129 2 discriminator 3
 4794 20ee 488B08   		movq	(%rax), %rcx
 4795 20f1 488D8590 		leaq	-2160(%rbp), %rax
 4795      F7FFFF
 4796 20f8 BA810000 		movl	$129, %edx
 4796      00
 4797 20fd 4889CE   		movq	%rcx, %rsi
 4798 2100 4889C7   		movq	%rax, %rdi
 4799 2103 E8000000 		call	_ZN8UnitTest11TestDetailsC1ERKS0_i@PLT
 4799      00
 4800              		.loc 6 129 2 discriminator 7
 4801 2108 488D8590 		leaq	-2160(%rbp), %rax
 4801      F7FFFF
 4802 210f 488D1500 		leaq	.LC49(%rip), %rdx
 4802      000000
 4803 2116 4889C6   		movq	%rax, %rsi
 4804 2119 4889DF   		movq	%rbx, %rdi
 4805 211c E8000000 		call	_ZN8UnitTest11TestResults13OnTestFailureERKNS_11TestDetailsEPKc@PLT
 4805      00
 4806              	.LEHE100:
 4807              	.L221:
 130:TestTestMacros.cpp **** }
 4808              		.loc 6 130 1 is_stmt 1
 4809 2121 488D85B0 		leaq	-2128(%rbp), %rax
 4809      F7FFFF
 4810 2128 4889C7   		movq	%rax, %rdi
 4811              	.LEHB101:
 4812 212b E8000000 		call	_ZN17RecordingReporterD1Ev
 4812      00
 4813              	.LEHE101:
 4814 2130 488B45E8 		movq	-24(%rbp), %rax
 4815 2134 64482B04 		subq	%fs:40, %rax
 4815      25280000 
 4815      00
 4816 213d 0F847B01 		je	.L231
 4816      0000
 4817 2143 E9710100 		jmp	.L240
 4817      00
 4818              	.L232:
 4819 2148 F30F1EFA 		endbr64
 119:TestTestMacros.cpp **** 	RecordingReporter reporter;
 4820              		.loc 6 119 2
 4821 214c 4889C7   		movq	%rax, %rdi
 4822 214f E8000000 		call	__cxa_begin_catch@PLT
 4822      00
 4823              	.LEHB102:
 4824 2154 E8000000 		call	_ZN8UnitTest11CurrentTest7ResultsEv@PLT
 4824      00
 119:TestTestMacros.cpp **** 	RecordingReporter reporter;
 4825              		.loc 6 119 2 is_stmt 0 discriminator 8
 4826 2159 488B18   		movq	(%rax), %rbx
 4827 215c E8000000 		call	_ZN8UnitTest11CurrentTest7DetailsEv@PLT
 4827      00
 119:TestTestMacros.cpp **** 	RecordingReporter reporter;
 4828              		.loc 6 119 2 discriminator 14
 4829 2161 488B08   		movq	(%rax), %rcx
 4830 2164 488D8590 		leaq	-2160(%rbp), %rax
 4830      F7FFFF
 4831 216b BA770000 		movl	$119, %edx
 4831      00
 4832 2170 4889CE   		movq	%rcx, %rsi
 4833 2173 4889C7   		movq	%rax, %rdi
 4834 2176 E8000000 		call	_ZN8UnitTest11TestDetailsC1ERKS0_i@PLT
 4834      00
 119:TestTestMacros.cpp **** 	RecordingReporter reporter;
 4835              		.loc 6 119 2 discriminator 18
 4836 217b 488D8590 		leaq	-2160(%rbp), %rax
 4836      F7FFFF
 4837 2182 488D1500 		leaq	.LC50(%rip), %rdx
 4837      000000
 4838 2189 4889C6   		movq	%rax, %rsi
 4839 218c 4889DF   		movq	%rbx, %rdi
 4840 218f E8000000 		call	_ZN8UnitTest11TestResults13OnTestFailureERKNS_11TestDetailsEPKc@PLT
 4840      00
 4841              	.LEHE102:
 4842              	.LEHB103:
 119:TestTestMacros.cpp **** 	RecordingReporter reporter;
 4843              		.loc 6 119 2 discriminator 20
 4844 2194 E8000000 		call	__cxa_end_catch@PLT
 4844      00
 4845              	.LEHE103:
 4846 2199 E946FEFF 		jmp	.L220
 4846      FF
 4847              	.L233:
 4848 219e F30F1EFA 		endbr64
 119:TestTestMacros.cpp **** 	RecordingReporter reporter;
 4849              		.loc 6 119 2
 4850 21a2 4889C3   		movq	%rax, %rbx
 4851 21a5 E8000000 		call	__cxa_end_catch@PLT
 4851      00
 4852 21aa 4889D8   		movq	%rbx, %rax
 4853 21ad 4889C7   		movq	%rax, %rdi
 4854              	.LEHB104:
 4855 21b0 E8000000 		call	_Unwind_Resume@PLT
 4855      00
 4856              	.LEHE104:
 4857              	.L235:
 4858 21b5 F30F1EFA 		endbr64
 4859              	.LBB67:
 125:TestTestMacros.cpp **** 
 4860              		.loc 6 125 2 is_stmt 1
 4861 21b9 4889C3   		movq	%rax, %rbx
 4862 21bc 488D8590 		leaq	-2160(%rbp), %rax
 4862      F7FFFF
 4863 21c3 4889C7   		movq	%rax, %rdi
 4864 21c6 E8000000 		call	_ZN17ScopedCurrentTestD1Ev
 4864      00
 4865 21cb E9CF0000 		jmp	.L225
 4865      00
 4866              	.L236:
 4867 21d0 F30F1EFA 		endbr64
 4868              	.LBE67:
 128:TestTestMacros.cpp **** 	CHECK(strstr(reporter.lastFailedMessage, "while constructing fixture"));
 4869              		.loc 6 128 2
 4870 21d4 4889C7   		movq	%rax, %rdi
 4871 21d7 E8000000 		call	__cxa_begin_catch@PLT
 4871      00
 4872              	.LEHB105:
 4873 21dc E8000000 		call	_ZN8UnitTest11CurrentTest7ResultsEv@PLT
 4873      00
 128:TestTestMacros.cpp **** 	CHECK(strstr(reporter.lastFailedMessage, "while constructing fixture"));
 4874              		.loc 6 128 2 is_stmt 0 discriminator 3
 4875 21e1 488B18   		movq	(%rax), %rbx
 4876 21e4 E8000000 		call	_ZN8UnitTest11CurrentTest7DetailsEv@PLT
 4876      00
 128:TestTestMacros.cpp **** 	CHECK(strstr(reporter.lastFailedMessage, "while constructing fixture"));
 4877              		.loc 6 128 2 discriminator 11
 4878 21e9 488B08   		movq	(%rax), %rcx
 4879 21ec 488D8590 		leaq	-2160(%rbp), %rax
 4879      F7FFFF
 4880 21f3 BA800000 		movl	$128, %edx
 4880      00
 4881 21f8 4889CE   		movq	%rcx, %rsi
 4882 21fb 4889C7   		movq	%rax, %rdi
 4883 21fe E8000000 		call	_ZN8UnitTest11TestDetailsC1ERKS0_i@PLT
 4883      00
 128:TestTestMacros.cpp **** 	CHECK(strstr(reporter.lastFailedMessage, "while constructing fixture"));
 4884              		.loc 6 128 2 discriminator 15
 4885 2203 488D8590 		leaq	-2160(%rbp), %rax
 4885      F7FFFF
 4886 220a 488D1500 		leaq	.LC51(%rip), %rdx
 4886      000000
 4887 2211 4889C6   		movq	%rax, %rsi
 4888 2214 4889DF   		movq	%rbx, %rdi
 4889 2217 E8000000 		call	_ZN8UnitTest11TestResults13OnTestFailureERKNS_11TestDetailsEPKc@PLT
 4889      00
 4890              	.LEHE105:
 4891              	.LEHB106:
 128:TestTestMacros.cpp **** 	CHECK(strstr(reporter.lastFailedMessage, "while constructing fixture"));
 4892              		.loc 6 128 2 discriminator 17
 4893 221c E8000000 		call	__cxa_end_catch@PLT
 4893      00
 4894              	.LEHE106:
 128:TestTestMacros.cpp **** 	CHECK(strstr(reporter.lastFailedMessage, "while constructing fixture"));
 4895              		.loc 6 128 2
 4896 2221 E98DFEFF 		jmp	.L227
 4896      FF
 4897              	.L237:
 4898 2226 F30F1EFA 		endbr64
 4899 222a 4889C3   		movq	%rax, %rbx
 4900 222d E8000000 		call	__cxa_end_catch@PLT
 4900      00
 4901 2232 EB6B     		jmp	.L225
 4902              	.L238:
 4903 2234 F30F1EFA 		endbr64
 129:TestTestMacros.cpp **** }
 4904              		.loc 6 129 2 is_stmt 1
 4905 2238 4889C7   		movq	%rax, %rdi
 4906 223b E8000000 		call	__cxa_begin_catch@PLT
 4906      00
 4907              	.LEHB107:
 4908 2240 E8000000 		call	_ZN8UnitTest11CurrentTest7ResultsEv@PLT
 4908      00
 129:TestTestMacros.cpp **** }
 4909              		.loc 6 129 2 is_stmt 0 discriminator 6
 4910 2245 488B18   		movq	(%rax), %rbx
 4911 2248 E8000000 		call	_ZN8UnitTest11CurrentTest7DetailsEv@PLT
 4911      00
 129:TestTestMacros.cpp **** }
 4912              		.loc 6 129 2 discriminator 12
 4913 224d 488B08   		movq	(%rax), %rcx
 4914 2250 488D8590 		leaq	-2160(%rbp), %rax
 4914      F7FFFF
 4915 2257 BA810000 		movl	$129, %edx
 4915      00
 4916 225c 4889CE   		movq	%rcx, %rsi
 4917 225f 4889C7   		movq	%rax, %rdi
 4918 2262 E8000000 		call	_ZN8UnitTest11TestDetailsC1ERKS0_i@PLT
 4918      00
 129:TestTestMacros.cpp **** }
 4919              		.loc 6 129 2 discriminator 16
 4920 2267 488D8590 		leaq	-2160(%rbp), %rax
 4920      F7FFFF
 4921 226e 488D1500 		leaq	.LC52(%rip), %rdx
 4921      000000
 4922 2275 4889C6   		movq	%rax, %rsi
 4923 2278 4889DF   		movq	%rbx, %rdi
 4924 227b E8000000 		call	_ZN8UnitTest11TestResults13OnTestFailureERKNS_11TestDetailsEPKc@PLT
 4924      00
 4925              	.LEHE107:
 4926              	.LEHB108:
 129:TestTestMacros.cpp **** }
 4927              		.loc 6 129 2 discriminator 18
 4928 2280 E8000000 		call	__cxa_end_catch@PLT
 4928      00
 4929              	.LEHE108:
 129:TestTestMacros.cpp **** }
 4930              		.loc 6 129 2
 4931 2285 E997FEFF 		jmp	.L221
 4931      FF
 4932              	.L239:
 4933 228a F30F1EFA 		endbr64
 4934 228e 4889C3   		movq	%rax, %rbx
 4935 2291 E8000000 		call	__cxa_end_catch@PLT
 4935      00
 4936 2296 EB07     		jmp	.L225
 4937              	.L234:
 4938 2298 F30F1EFA 		endbr64
 4939              		.loc 6 130 1 is_stmt 1
 4940 229c 4889C3   		movq	%rax, %rbx
 4941              	.L225:
 4942 229f 488D85B0 		leaq	-2128(%rbp), %rax
 4942      F7FFFF
 4943 22a6 4889C7   		movq	%rax, %rdi
 4944 22a9 E8000000 		call	_ZN17RecordingReporterD1Ev
 4944      00
 4945 22ae 4889D8   		movq	%rbx, %rax
 4946 22b1 4889C7   		movq	%rax, %rdi
 4947              	.LEHB109:
 4948 22b4 E8000000 		call	_Unwind_Resume@PLT
 4948      00
 4949              	.LEHE109:
 4950              	.L240:
 4951 22b9 E8000000 		call	__stack_chk_fail@PLT
 4951      00
 4952              	.L231:
 4953 22be 488B5DF8 		movq	-8(%rbp), %rbx
 4954 22c2 C9       		leave
 4955              		.cfi_def_cfa 7, 8
 4956 22c3 C3       		ret
 4957              		.cfi_endproc
 4958              	.LFE1243:
 4959              		.section	.gcc_except_table
 4960              		.align 4
 4961              	.LLSDA1243:
 4962 02a8 FF       		.byte	0xff
 4963 02a9 9B       		.byte	0x9b
 4964 02aa 5D       		.uleb128 .LLSDATT1243-.LLSDATTD1243
 4965              	.LLSDATTD1243:
 4966 02ab 01       		.byte	0x1
 4967 02ac 55       		.uleb128 .LLSDACSE1243-.LLSDACSB1243
 4968              	.LLSDACSB1243:
 4969 02ad 30       		.uleb128 .LEHB95-.LFB1243
 4970 02ae 5C       		.uleb128 .LEHE95-.LEHB95
 4971 02af F003     		.uleb128 .L232-.LFB1243
 4972 02b1 01       		.uleb128 0x1
 4973 02b2 AF01     		.uleb128 .LEHB96-.LFB1243
 4974 02b4 23       		.uleb128 .LEHE96-.LEHB96
 4975 02b5 C006     		.uleb128 .L234-.LFB1243
 4976 02b7 00       		.uleb128 0
 4977 02b8 DC01     		.uleb128 .LEHB97-.LFB1243
 4978 02ba 0D       		.uleb128 .LEHE97-.LEHB97
 4979 02bb DD04     		.uleb128 .L235-.LFB1243
 4980 02bd 00       		.uleb128 0
 4981 02be F301     		.uleb128 .LEHB98-.LFB1243
 4982 02c0 14       		.uleb128 .LEHE98-.LEHB98
 4983 02c1 C006     		.uleb128 .L234-.LFB1243
 4984 02c3 00       		.uleb128 0
 4985 02c4 8D02     		.uleb128 .LEHB99-.LFB1243
 4986 02c6 4E       		.uleb128 .LEHE99-.LEHB99
 4987 02c7 F804     		.uleb128 .L236-.LFB1243
 4988 02c9 01       		.uleb128 0x1
 4989 02ca 8903     		.uleb128 .LEHB100-.LFB1243
 4990 02cc 40       		.uleb128 .LEHE100-.LEHB100
 4991 02cd DC05     		.uleb128 .L238-.LFB1243
 4992 02cf 01       		.uleb128 0x1
 4993 02d0 D303     		.uleb128 .LEHB101-.LFB1243
 4994 02d2 05       		.uleb128 .LEHE101-.LEHB101
 4995 02d3 00       		.uleb128 0
 4996 02d4 00       		.uleb128 0
 4997 02d5 FC03     		.uleb128 .LEHB102-.LFB1243
 4998 02d7 40       		.uleb128 .LEHE102-.LEHB102
 4999 02d8 C604     		.uleb128 .L233-.LFB1243
 5000 02da 00       		.uleb128 0
 5001 02db BC04     		.uleb128 .LEHB103-.LFB1243
 5002 02dd 05       		.uleb128 .LEHE103-.LEHB103
 5003 02de 00       		.uleb128 0
 5004 02df 00       		.uleb128 0
 5005 02e0 D804     		.uleb128 .LEHB104-.LFB1243
 5006 02e2 05       		.uleb128 .LEHE104-.LEHB104
 5007 02e3 00       		.uleb128 0
 5008 02e4 00       		.uleb128 0
 5009 02e5 8405     		.uleb128 .LEHB105-.LFB1243
 5010 02e7 40       		.uleb128 .LEHE105-.LEHB105
 5011 02e8 CE05     		.uleb128 .L237-.LFB1243
 5012 02ea 00       		.uleb128 0
 5013 02eb C405     		.uleb128 .LEHB106-.LFB1243
 5014 02ed 05       		.uleb128 .LEHE106-.LEHB106
 5015 02ee C006     		.uleb128 .L234-.LFB1243
 5016 02f0 00       		.uleb128 0
 5017 02f1 E805     		.uleb128 .LEHB107-.LFB1243
 5018 02f3 40       		.uleb128 .LEHE107-.LEHB107
 5019 02f4 B206     		.uleb128 .L239-.LFB1243
 5020 02f6 00       		.uleb128 0
 5021 02f7 A806     		.uleb128 .LEHB108-.LFB1243
 5022 02f9 05       		.uleb128 .LEHE108-.LEHB108
 5023 02fa C006     		.uleb128 .L234-.LFB1243
 5024 02fc 00       		.uleb128 0
 5025 02fd DC06     		.uleb128 .LEHB109-.LFB1243
 5026 02ff 05       		.uleb128 .LEHE109-.LEHB109
 5027 0300 00       		.uleb128 0
 5028 0301 00       		.uleb128 0
 5029              	.LLSDACSE1243:
 5030 0302 01       		.byte	0x1
 5031 0303 00       		.byte	0
 5032              		.align 4
 5033 0304 00000000 		.long	0
 5034              	
 5035              	.LLSDATT1243:
 5036              		.text
 5038              		.align 2
 5040              	_ZN12_GLOBAL__N_117FixtureDtorThrowsD2Ev:
 5041              	.LFB1245:
 131:TestTestMacros.cpp **** 
 132:TestTestMacros.cpp **** struct FixtureDtorThrows
 133:TestTestMacros.cpp **** {
 134:TestTestMacros.cpp **** 	~FixtureDtorThrows() { throw "exception"; }
 5042              		.loc 6 134 2
 5043              		.cfi_startproc
 5044 22c4 55       		pushq	%rbp
 5045              		.cfi_def_cfa_offset 16
 5046              		.cfi_offset 6, -16
 5047 22c5 4889E5   		movq	%rsp, %rbp
 5048              		.cfi_def_cfa_register 6
 5049 22c8 4883EC10 		subq	$16, %rsp
 5050 22cc 48897DF8 		movq	%rdi, -8(%rbp)
 5051              	.LBB68:
 5052              		.loc 6 134 31
 5053 22d0 BF080000 		movl	$8, %edi
 5053      00
 5054 22d5 E8000000 		call	__cxa_allocate_exception@PLT
 5054      00
 5055              		.loc 6 134 25
 5056 22da 488D1500 		leaq	.LC42(%rip), %rdx
 5056      000000
 5057 22e1 488910   		movq	%rdx, (%rax)
 5058              		.loc 6 134 31
 5059 22e4 BA000000 		movl	$0, %edx
 5059      00
 5060 22e9 488D0D00 		leaq	_ZTIPKc(%rip), %rcx
 5060      000000
 5061 22f0 4889CE   		movq	%rcx, %rsi
