   1              		.file	"TestMemoryOutStream.cpp"
   2              		.text
   3              	.Ltext0:
   4              		.file 0 "/home/pong/FPGALink/makestuff/libs/libutpp/tests" "TestMemoryOutStream.cpp"
   5              		.section	.rodata
   6              	.LC0:
   7 0000 44656661 		.string	"DefaultSuite"
   7      756C7453 
   7      75697465 
   7      00
   8              		.section	.text._ZN13UnitTestSuite12GetSuiteNameEv,"axG",@progbits,_ZN13UnitTestSuite12GetSuiteName
   9              		.weak	_ZN13UnitTestSuite12GetSuiteNameEv
  11              	_ZN13UnitTestSuite12GetSuiteNameEv:
  12              	.LFB0:
  13              		.file 1 "../TestSuite.h"
   1:../TestSuite.h **** #ifndef UNITTEST_TESTSUITE_H
   2:../TestSuite.h **** #define UNITTEST_TESTSUITE_H
   3:../TestSuite.h **** 
   4:../TestSuite.h **** namespace UnitTestSuite {
   5:../TestSuite.h **** 
   6:../TestSuite.h ****     inline char const* GetSuiteName ()
   7:../TestSuite.h ****     {
  14              		.loc 1 7 5
  15              		.cfi_startproc
  16 0000 F30F1EFA 		endbr64
  17 0004 55       		pushq	%rbp
  18              		.cfi_def_cfa_offset 16
  19              		.cfi_offset 6, -16
  20 0005 4889E5   		movq	%rsp, %rbp
  21              		.cfi_def_cfa_register 6
   8:../TestSuite.h ****         return "DefaultSuite";
  22              		.loc 1 8 16
  23 0008 488D0500 		leaq	.LC0(%rip), %rax
  23      000000
   9:../TestSuite.h ****     }
  24              		.loc 1 9 5
  25 000f 5D       		popq	%rbp
  26              		.cfi_def_cfa 7, 8
  27 0010 C3       		ret
  28              		.cfi_endproc
  29              	.LFE0:
  31              		.section	.text._ZN8UnitTest15MemoryOutStreamC1Ev,"axG",@progbits,_ZN8UnitTest15MemoryOutStreamC1Ev
  32              		.align 2
  33              		.weak	_ZN8UnitTest15MemoryOutStreamC1Ev
  35              	_ZN8UnitTest15MemoryOutStreamC1Ev:
  36              	.LFB1129:
  37              		.file 2 "../MemoryOutStream.h"
   1:../MemoryOutStream.h **** #ifndef UNITTEST_MEMORYOUTSTREAM_H
   2:../MemoryOutStream.h **** #define UNITTEST_MEMORYOUTSTREAM_H
   3:../MemoryOutStream.h **** 
   4:../MemoryOutStream.h **** #include "Config.h"
   5:../MemoryOutStream.h **** 
   6:../MemoryOutStream.h **** #ifndef UNITTEST_USE_CUSTOM_STREAMS
   7:../MemoryOutStream.h **** 
   8:../MemoryOutStream.h **** #include <sstream>
   9:../MemoryOutStream.h **** 
  10:../MemoryOutStream.h **** namespace UnitTest
  11:../MemoryOutStream.h **** {
  12:../MemoryOutStream.h **** 
  13:../MemoryOutStream.h **** class MemoryOutStream : public std::ostringstream
  14:../MemoryOutStream.h **** {
  15:../MemoryOutStream.h **** public:
  16:../MemoryOutStream.h ****     MemoryOutStream() {}
  38              		.loc 2 16 5
  39              		.cfi_startproc
  40              		.cfi_personality 0x9b,DW.ref.__gxx_personality_v0
  41              		.cfi_lsda 0x1b,.LLSDA1129
  42 0000 F30F1EFA 		endbr64
  43 0004 55       		pushq	%rbp
  44              		.cfi_def_cfa_offset 16
  45              		.cfi_offset 6, -16
  46 0005 4889E5   		movq	%rsp, %rbp
  47              		.cfi_def_cfa_register 6
  48 0008 53       		pushq	%rbx
  49 0009 4883EC18 		subq	$24, %rsp
  50              		.cfi_offset 3, -24
  51 000d 48897DE8 		movq	%rdi, -24(%rbp)
  52              	.LBB2:
  53              		.loc 2 16 23
  54 0011 488B45E8 		movq	-24(%rbp), %rax
  55 0015 48059000 		addq	$144, %rax
  55      0000
  56 001b 4889C7   		movq	%rax, %rdi
  57              	.LEHB0:
  58 001e E8000000 		call	_ZNSt9basic_iosIcSt11char_traitsIcEEC2Ev@PLT
  58      00
  59              	.LEHE0:
  60 0023 488B45E8 		movq	-24(%rbp), %rax
  61 0027 488D1500 		leaq	8+_ZTTN8UnitTest15MemoryOutStreamE(%rip), %rdx
  61      000000
  62 002e 4889D6   		movq	%rdx, %rsi
  63 0031 4889C7   		movq	%rax, %rdi
  64              	.LEHB1:
  65 0034 E8000000 		call	_ZNSt7__cxx1119basic_ostringstreamIcSt11char_traitsIcESaIcEEC2Ev@PLT
  65      00
  66              	.LEHE1:
  67              		.loc 2 16 23 is_stmt 0 discriminator 2
  68 0039 488D1500 		leaq	24+_ZTVN8UnitTest15MemoryOutStreamE(%rip), %rdx
  68      000000
  69 0040 488B45E8 		movq	-24(%rbp), %rax
  70 0044 488910   		movq	%rdx, (%rax)
  71 0047 488B45E8 		movq	-24(%rbp), %rax
  72 004b 48059000 		addq	$144, %rax
  72      0000
  73 0051 488D1500 		leaq	64+_ZTVN8UnitTest15MemoryOutStreamE(%rip), %rdx
  73      000000
  74 0058 488910   		movq	%rdx, (%rax)
  75 005b 488B45E8 		movq	-24(%rbp), %rax
  76 005f 4883C070 		addq	$112, %rax
  77 0063 4889C7   		movq	%rax, %rdi
  78              	.LEHB2:
  79 0066 E8000000 		call	_ZNSt7__cxx1112basic_stringIcSt11char_traitsIcESaIcEEC1Ev@PLT
  79      00
  80              	.LEHE2:
  81              	.LBE2:
  82              		.loc 2 16 24 is_stmt 1
  83 006b EB43     		jmp	.L8
  84              	.L7:
  85 006d F30F1EFA 		endbr64
  86              	.LBB3:
  87 0071 4889C3   		movq	%rax, %rbx
  88 0074 488B45E8 		movq	-24(%rbp), %rax
  89 0078 488D1500 		leaq	8+_ZTTN8UnitTest15MemoryOutStreamE(%rip), %rdx
  89      000000
  90 007f 4889D6   		movq	%rdx, %rsi
  91 0082 4889C7   		movq	%rax, %rdi
  92 0085 E8000000 		call	_ZNSt7__cxx1119basic_ostringstreamIcSt11char_traitsIcESaIcEED2Ev@PLT
  92      00
  93 008a EB07     		jmp	.L5
  94              	.L6:
  95 008c F30F1EFA 		endbr64
  96 0090 4889C3   		movq	%rax, %rbx
  97              	.L5:
  98              		.loc 2 16 24 is_stmt 0 discriminator 1
  99 0093 488B45E8 		movq	-24(%rbp), %rax
 100 0097 48059000 		addq	$144, %rax
 100      0000
 101 009d 4889C7   		movq	%rax, %rdi
 102 00a0 E8000000 		call	_ZNSt9basic_iosIcSt11char_traitsIcEED2Ev@PLT
 102      00
 103 00a5 4889D8   		movq	%rbx, %rax
 104 00a8 4889C7   		movq	%rax, %rdi
 105              	.LEHB3:
 106 00ab E8000000 		call	_Unwind_Resume@PLT
 106      00
 107              	.LEHE3:
 108              	.L8:
 109              	.LBE3:
 110              		.loc 2 16 24
 111 00b0 488B5DF8 		movq	-8(%rbp), %rbx
 112 00b4 C9       		leave
 113              		.cfi_def_cfa 7, 8
 114 00b5 C3       		ret
 115              		.cfi_endproc
 116              	.LFE1129:
 117              		.globl	__gxx_personality_v0
 118              		.section	.gcc_except_table._ZN8UnitTest15MemoryOutStreamC1Ev,"aG",@progbits,_ZN8UnitTest15MemoryOu
 119              	.LLSDA1129:
 120 0000 FF       		.byte	0xff
 121 0001 FF       		.byte	0xff
 122 0002 01       		.byte	0x1
 123 0003 12       		.uleb128 .LLSDACSE1129-.LLSDACSB1129
 124              	.LLSDACSB1129:
 125 0004 1E       		.uleb128 .LEHB0-.LFB1129
 126 0005 05       		.uleb128 .LEHE0-.LEHB0
 127 0006 00       		.uleb128 0
 128 0007 00       		.uleb128 0
 129 0008 34       		.uleb128 .LEHB1-.LFB1129
 130 0009 05       		.uleb128 .LEHE1-.LEHB1
 131 000a 8C01     		.uleb128 .L6-.LFB1129
 132 000c 00       		.uleb128 0
 133 000d 66       		.uleb128 .LEHB2-.LFB1129
 134 000e 05       		.uleb128 .LEHE2-.LEHB2
 135 000f 6D       		.uleb128 .L7-.LFB1129
 136 0010 00       		.uleb128 0
 137 0011 AB01     		.uleb128 .LEHB3-.LFB1129
 138 0013 05       		.uleb128 .LEHE3-.LEHB3
 139 0014 00       		.uleb128 0
 140 0015 00       		.uleb128 0
 141              	.LLSDACSE1129:
 142              		.section	.text._ZN8UnitTest15MemoryOutStreamC1Ev,"axG",@progbits,_ZN8UnitTest15MemoryOutStreamC1Ev
 144              		.section	.rodata
 145              	.LC1:
 146 000d 54657374 		.string	"TestMemoryOutStream.cpp"
 146      4D656D6F 
 146      72794F75 
 146      74537472 
 146      65616D2E 
 147              	.LC2:
 148 0025 44656661 		.string	"DefaultIsEmptyString"
 148      756C7449 
 148      73456D70 
 148      74795374 
 148      72696E67 
 149              		.text
 150              		.align 2
 152              	_ZN12_GLOBAL__N_124TestDefaultIsEmptyStringC2Ev:
 153              	.LFB1142:
 154              		.file 3 "TestMemoryOutStream.cpp"
   1:TestMemoryOutStream.cpp **** #include "../UnitTest++.h"
   2:TestMemoryOutStream.cpp **** 
   3:TestMemoryOutStream.cpp **** #include "../MemoryOutStream.h"
   4:TestMemoryOutStream.cpp **** #include <cstring>
   5:TestMemoryOutStream.cpp **** 
   6:TestMemoryOutStream.cpp **** using namespace UnitTest;
   7:TestMemoryOutStream.cpp **** using namespace std;
   8:TestMemoryOutStream.cpp **** 
   9:TestMemoryOutStream.cpp **** namespace {
  10:TestMemoryOutStream.cpp **** 
  11:TestMemoryOutStream.cpp **** TEST(DefaultIsEmptyString)
 155              		.loc 3 11 1 is_stmt 1
 156              		.cfi_startproc
 157 0000 55       		pushq	%rbp
 158              		.cfi_def_cfa_offset 16
 159              		.cfi_offset 6, -16
 160 0001 4889E5   		movq	%rsp, %rbp
 161              		.cfi_def_cfa_register 6
 162 0004 53       		pushq	%rbx
 163 0005 4883EC18 		subq	$24, %rsp
 164              		.cfi_offset 3, -24
 165 0009 48897DE8 		movq	%rdi, -24(%rbp)
 166              	.LBB4:
 167              		.loc 3 11 1
 168 000d 488B5DE8 		movq	-24(%rbp), %rbx
 169 0011 E8000000 		call	_ZN13UnitTestSuite12GetSuiteNameEv
 169      00
 170 0016 4889C2   		movq	%rax, %rdx
 171 0019 41B80B00 		movl	$11, %r8d
 171      0000
 172 001f 488D0500 		leaq	.LC1(%rip), %rax
 172      000000
 173 0026 4889C1   		movq	%rax, %rcx
 174 0029 488D0500 		leaq	.LC2(%rip), %rax
 174      000000
 175 0030 4889C6   		movq	%rax, %rsi
 176 0033 4889DF   		movq	%rbx, %rdi
 177 0036 E8000000 		call	_ZN8UnitTest4TestC2EPKcS2_S2_i@PLT
 177      00
 178 003b 488D1500 		leaq	16+_ZTVN12_GLOBAL__N_124TestDefaultIsEmptyStringE(%rip), %rdx
 178      000000
 179 0042 488B45E8 		movq	-24(%rbp), %rax
 180 0046 488910   		movq	%rdx, (%rax)
 181              	.LBE4:
 182 0049 90       		nop
 183 004a 488B5DF8 		movq	-8(%rbp), %rbx
 184 004e C9       		leave
 185              		.cfi_def_cfa 7, 8
 186 004f C3       		ret
 187              		.cfi_endproc
 188              	.LFE1142:
 190              		.set	_ZN12_GLOBAL__N_124TestDefaultIsEmptyStringC1Ev,_ZN12_GLOBAL__N_124TestDefaultIsEmptyStringC2
 191              		.local	_ZN12_GLOBAL__N_132testDefaultIsEmptyStringInstanceE
 192              		.comm	_ZN12_GLOBAL__N_132testDefaultIsEmptyStringInstanceE,56,32
 193              		.local	_ZN12_GLOBAL__N_125adderDefaultIsEmptyStringE
 194              		.comm	_ZN12_GLOBAL__N_125adderDefaultIsEmptyStringE,1,1
 195              		.section	.rodata
 196              	.LC3:
 197 003a 73747265 		.string	"stream.GetText() != 0"
 197      616D2E47 
 197      65745465 
 197      78742829 
 197      20213D20 
 198              	.LC4:
 199 0050 00       		.string	""
 200 0051 00000000 		.align 8
 200      000000
 201              	.LC5:
 202 0058 556E6861 		.string	"Unhandled exception in CHECK(stream.GetText() != 0)"
 202      6E646C65 
 202      64206578 
 202      63657074 
 202      696F6E20 
 203 008c 00000000 		.align 8
 204              	.LC6:
 205 0090 556E6861 		.string	"Unhandled exception in CHECK_EQUAL(\"\", stream.GetText())"
 205      6E646C65 
 205      64206578 
 205      63657074 
 205      696F6E20 
 206              		.text
 207              		.align 2
 209              	_ZNK12_GLOBAL__N_124TestDefaultIsEmptyString7RunImplEv:
 210              	.LFB1144:
  12:TestMemoryOutStream.cpp **** {
 211              		.loc 3 12 1
 212              		.cfi_startproc
 213              		.cfi_personality 0x9b,DW.ref.__gxx_personality_v0
 214              		.cfi_lsda 0x1b,.LLSDA1144
 215 0050 F30F1EFA 		endbr64
 216 0054 55       		pushq	%rbp
 217              		.cfi_def_cfa_offset 16
 218              		.cfi_offset 6, -16
 219 0055 4889E5   		movq	%rsp, %rbp
 220              		.cfi_def_cfa_register 6
 221 0058 53       		pushq	%rbx
 222 0059 4881ECD8 		subq	$472, %rsp
 222      010000
 223              		.cfi_offset 3, -24
 224 0060 4889BD28 		movq	%rdi, -472(%rbp)
 224      FEFFFF
 225              		.loc 3 12 1
 226 0067 64488B04 		movq	%fs:40, %rax
 226      25280000 
 226      00
 227 0070 488945E8 		movq	%rax, -24(%rbp)
 228 0074 31C0     		xorl	%eax, %eax
  13:TestMemoryOutStream.cpp ****     MemoryOutStream const stream;
 229              		.loc 3 13 27
 230 0076 488D8550 		leaq	-432(%rbp), %rax
 230      FEFFFF
 231 007d 4889C7   		movq	%rax, %rdi
 232              	.LEHB4:
 233 0080 E8000000 		call	_ZN8UnitTest15MemoryOutStreamC1Ev
 233      00
 234              	.LEHE4:
  14:TestMemoryOutStream.cpp ****     CHECK(stream.GetText() != 0);
 235              		.loc 3 14 5
 236 0085 488D8550 		leaq	-432(%rbp), %rax
 236      FEFFFF
 237 008c 4889C7   		movq	%rax, %rdi
 238              	.LEHB5:
 239 008f E8000000 		call	_ZNK8UnitTest15MemoryOutStream7GetTextEv@PLT
 239      00
 240 0094 4885C0   		testq	%rax, %rax
 241 0097 0F95C0   		setne	%al
 242 009a 0FB6C0   		movzbl	%al, %eax
 243 009d 89C7     		movl	%eax, %edi
 244 009f E8000000 		call	_ZN8UnitTest5CheckIbEEbT_
 244      00
 245 00a4 83F001   		xorl	$1, %eax
 246 00a7 84C0     		testb	%al, %al
 247 00a9 7440     		je	.L11
 248              		.loc 3 14 5 is_stmt 0 discriminator 3
 249 00ab E8000000 		call	_ZN8UnitTest11CurrentTest7ResultsEv@PLT
 249      00
 250 00b0 488B18   		movq	(%rax), %rbx
 251 00b3 E8000000 		call	_ZN8UnitTest11CurrentTest7DetailsEv@PLT
 251      00
 252              		.loc 3 14 5 discriminator 5
 253 00b8 488B08   		movq	(%rax), %rcx
 254 00bb 488D8530 		leaq	-464(%rbp), %rax
 254      FEFFFF
 255 00c2 BA0E0000 		movl	$14, %edx
 255      00
 256 00c7 4889CE   		movq	%rcx, %rsi
 257 00ca 4889C7   		movq	%rax, %rdi
 258 00cd E8000000 		call	_ZN8UnitTest11TestDetailsC1ERKS0_i@PLT
 258      00
 259              		.loc 3 14 5 discriminator 9
 260 00d2 488D8530 		leaq	-464(%rbp), %rax
 260      FEFFFF
 261 00d9 488D1500 		leaq	.LC3(%rip), %rdx
 261      000000
 262 00e0 4889C6   		movq	%rax, %rsi
 263 00e3 4889DF   		movq	%rbx, %rdi
 264 00e6 E8000000 		call	_ZN8UnitTest11TestResults13OnTestFailureERKNS_11TestDetailsEPKc@PLT
 264      00
 265              	.LEHE5:
 266              	.L11:
 267              	.LEHB6:
  15:TestMemoryOutStream.cpp ****     CHECK_EQUAL("", stream.GetText());
 268              		.loc 3 15 5 is_stmt 1
 269 00eb E8000000 		call	_ZN8UnitTest11CurrentTest7DetailsEv@PLT
 269      00
 270 00f0 488B08   		movq	(%rax), %rcx
 271 00f3 488D8530 		leaq	-464(%rbp), %rax
 271      FEFFFF
 272 00fa BA0F0000 		movl	$15, %edx
 272      00
 273 00ff 4889CE   		movq	%rcx, %rsi
 274 0102 4889C7   		movq	%rax, %rdi
 275 0105 E8000000 		call	_ZN8UnitTest11TestDetailsC1ERKS0_i@PLT
 275      00
 276              		.loc 3 15 5 is_stmt 0 discriminator 4
 277 010a 488D8550 		leaq	-432(%rbp), %rax
 277      FEFFFF
 278 0111 4889C7   		movq	%rax, %rdi
 279 0114 E8000000 		call	_ZNK8UnitTest15MemoryOutStream7GetTextEv@PLT
 279      00
 280 0119 4889C3   		movq	%rax, %rbx
 281 011c E8000000 		call	_ZN8UnitTest11CurrentTest7ResultsEv@PLT
 281      00
 282              		.loc 3 15 5 discriminator 6
 283 0121 488B00   		movq	(%rax), %rax
 284 0124 488D9530 		leaq	-464(%rbp), %rdx
 284      FEFFFF
 285 012b 4889D1   		movq	%rdx, %rcx
 286 012e 4889DA   		movq	%rbx, %rdx
 287 0131 488D3500 		leaq	.LC4(%rip), %rsi
 287      000000
 288 0138 4889C7   		movq	%rax, %rdi
 289 013b E8000000 		call	_ZN8UnitTest10CheckEqualERNS_11TestResultsEPKcS3_RKNS_11TestDetailsE@PLT
 289      00
 290              	.LEHE6:
 291              	.L16:
  16:TestMemoryOutStream.cpp **** }
 292              		.loc 3 16 1 is_stmt 1
 293 0140 488D8550 		leaq	-432(%rbp), %rax
 293      FEFFFF
 294 0147 4889C7   		movq	%rax, %rdi
 295              	.LEHB7:
 296 014a E8000000 		call	_ZN8UnitTest15MemoryOutStreamD1Ev
 296      00
 297              	.LEHE7:
 298 014f 488B45E8 		movq	-24(%rbp), %rax
 299 0153 64482B04 		subq	%fs:40, %rax
 299      25280000 
 299      00
 300 015c 0F84F300 		je	.L18
 300      0000
 301 0162 E9E90000 		jmp	.L24
 301      00
 302              	.L19:
 303 0167 F30F1EFA 		endbr64
  14:TestMemoryOutStream.cpp ****     CHECK(stream.GetText() != 0);
 304              		.loc 3 14 5
 305 016b 4889C7   		movq	%rax, %rdi
 306 016e E8000000 		call	__cxa_begin_catch@PLT
 306      00
 307              	.LEHB8:
 308 0173 E8000000 		call	_ZN8UnitTest11CurrentTest7ResultsEv@PLT
 308      00
  14:TestMemoryOutStream.cpp ****     CHECK(stream.GetText() != 0);
 309              		.loc 3 14 5 is_stmt 0 discriminator 8
 310 0178 488B18   		movq	(%rax), %rbx
 311 017b E8000000 		call	_ZN8UnitTest11CurrentTest7DetailsEv@PLT
 311      00
  14:TestMemoryOutStream.cpp ****     CHECK(stream.GetText() != 0);
 312              		.loc 3 14 5 discriminator 14
 313 0180 488B08   		movq	(%rax), %rcx
 314 0183 488D8530 		leaq	-464(%rbp), %rax
 314      FEFFFF
 315 018a BA0E0000 		movl	$14, %edx
 315      00
 316 018f 4889CE   		movq	%rcx, %rsi
 317 0192 4889C7   		movq	%rax, %rdi
 318 0195 E8000000 		call	_ZN8UnitTest11TestDetailsC1ERKS0_i@PLT
 318      00
  14:TestMemoryOutStream.cpp ****     CHECK(stream.GetText() != 0);
 319              		.loc 3 14 5 discriminator 18
 320 019a 488D8530 		leaq	-464(%rbp), %rax
 320      FEFFFF
 321 01a1 488D1500 		leaq	.LC5(%rip), %rdx
 321      000000
 322 01a8 4889C6   		movq	%rax, %rsi
 323 01ab 4889DF   		movq	%rbx, %rdi
 324 01ae E8000000 		call	_ZN8UnitTest11TestResults13OnTestFailureERKNS_11TestDetailsEPKc@PLT
 324      00
 325              	.LEHE8:
 326              	.LEHB9:
  14:TestMemoryOutStream.cpp ****     CHECK(stream.GetText() != 0);
 327              		.loc 3 14 5 discriminator 20
 328 01b3 E8000000 		call	__cxa_end_catch@PLT
 328      00
 329              	.LEHE9:
  14:TestMemoryOutStream.cpp ****     CHECK(stream.GetText() != 0);
 330              		.loc 3 14 5
 331 01b8 E92EFFFF 		jmp	.L11
 331      FF
 332              	.L21:
 333 01bd F30F1EFA 		endbr64
 334 01c1 4889C3   		movq	%rax, %rbx
 335 01c4 E8000000 		call	__cxa_end_catch@PLT
 335      00
 336 01c9 EB6B     		jmp	.L14
 337              	.L22:
 338 01cb F30F1EFA 		endbr64
  15:TestMemoryOutStream.cpp ****     CHECK_EQUAL("", stream.GetText());
 339              		.loc 3 15 5 is_stmt 1
 340 01cf 4889C7   		movq	%rax, %rdi
 341 01d2 E8000000 		call	__cxa_begin_catch@PLT
 341      00
 342              	.LEHB10:
 343 01d7 E8000000 		call	_ZN8UnitTest11CurrentTest7ResultsEv@PLT
 343      00
  15:TestMemoryOutStream.cpp ****     CHECK_EQUAL("", stream.GetText());
 344              		.loc 3 15 5 is_stmt 0 discriminator 3
 345 01dc 488B18   		movq	(%rax), %rbx
 346 01df E8000000 		call	_ZN8UnitTest11CurrentTest7DetailsEv@PLT
 346      00
  15:TestMemoryOutStream.cpp ****     CHECK_EQUAL("", stream.GetText());
 347              		.loc 3 15 5 discriminator 13
 348 01e4 488B08   		movq	(%rax), %rcx
 349 01e7 488D8530 		leaq	-464(%rbp), %rax
 349      FEFFFF
 350 01ee BA0F0000 		movl	$15, %edx
 350      00
 351 01f3 4889CE   		movq	%rcx, %rsi
 352 01f6 4889C7   		movq	%rax, %rdi
 353 01f9 E8000000 		call	_ZN8UnitTest11TestDetailsC1ERKS0_i@PLT
 353      00
  15:TestMemoryOutStream.cpp ****     CHECK_EQUAL("", stream.GetText());
 354              		.loc 3 15 5 discriminator 17
 355 01fe 488D8530 		leaq	-464(%rbp), %rax
 355      FEFFFF
 356 0205 488D1500 		leaq	.LC6(%rip), %rdx
 356      000000
 357 020c 4889C6   		movq	%rax, %rsi
 358 020f 4889DF   		movq	%rbx, %rdi
 359 0212 E8000000 		call	_ZN8UnitTest11TestResults13OnTestFailureERKNS_11TestDetailsEPKc@PLT
 359      00
 360              	.LEHE10:
 361              	.LEHB11:
  15:TestMemoryOutStream.cpp ****     CHECK_EQUAL("", stream.GetText());
 362              		.loc 3 15 5 discriminator 19
 363 0217 E8000000 		call	__cxa_end_catch@PLT
 363      00
 364              	.LEHE11:
  15:TestMemoryOutStream.cpp ****     CHECK_EQUAL("", stream.GetText());
 365              		.loc 3 15 5
 366 021c E91FFFFF 		jmp	.L16
 366      FF
 367              	.L23:
 368 0221 F30F1EFA 		endbr64
 369 0225 4889C3   		movq	%rax, %rbx
 370 0228 E8000000 		call	__cxa_end_catch@PLT
 370      00
 371 022d EB07     		jmp	.L14
 372              	.L20:
 373 022f F30F1EFA 		endbr64
 374              		.loc 3 16 1 is_stmt 1
 375 0233 4889C3   		movq	%rax, %rbx
 376              	.L14:
 377 0236 488D8550 		leaq	-432(%rbp), %rax
 377      FEFFFF
 378 023d 4889C7   		movq	%rax, %rdi
 379 0240 E8000000 		call	_ZN8UnitTest15MemoryOutStreamD1Ev
 379      00
 380 0245 4889D8   		movq	%rbx, %rax
 381 0248 4889C7   		movq	%rax, %rdi
 382              	.LEHB12:
 383 024b E8000000 		call	_Unwind_Resume@PLT
 383      00
 384              	.LEHE12:
 385              	.L24:
 386 0250 E8000000 		call	__stack_chk_fail@PLT
 386      00
 387              	.L18:
 388 0255 488B5DF8 		movq	-8(%rbp), %rbx
 389 0259 C9       		leave
 390              		.cfi_def_cfa 7, 8
 391 025a C3       		ret
 392              		.cfi_endproc
 393              	.LFE1144:
 394              		.section	.gcc_except_table,"a",@progbits
 395              		.align 4
 396              	.LLSDA1144:
 397 0000 FF       		.byte	0xff
 398 0001 9B       		.byte	0x9b
 399 0002 39       		.uleb128 .LLSDATT1144-.LLSDATTD1144
 400              	.LLSDATTD1144:
 401 0003 01       		.byte	0x1
 402 0004 31       		.uleb128 .LLSDACSE1144-.LLSDACSB1144
 403              	.LLSDACSB1144:
 404 0005 30       		.uleb128 .LEHB4-.LFB1144
 405 0006 05       		.uleb128 .LEHE4-.LEHB4
 406 0007 00       		.uleb128 0
 407 0008 00       		.uleb128 0
 408 0009 3F       		.uleb128 .LEHB5-.LFB1144
 409 000a 5C       		.uleb128 .LEHE5-.LEHB5
 410 000b 9702     		.uleb128 .L19-.LFB1144
 411 000d 01       		.uleb128 0x1
 412 000e 9B01     		.uleb128 .LEHB6-.LFB1144
 413 0010 55       		.uleb128 .LEHE6-.LEHB6
 414 0011 FB02     		.uleb128 .L22-.LFB1144
 415 0013 01       		.uleb128 0x1
 416 0014 FA01     		.uleb128 .LEHB7-.LFB1144
 417 0016 05       		.uleb128 .LEHE7-.LEHB7
 418 0017 00       		.uleb128 0
 419 0018 00       		.uleb128 0
 420 0019 A302     		.uleb128 .LEHB8-.LFB1144
 421 001b 40       		.uleb128 .LEHE8-.LEHB8
 422 001c ED02     		.uleb128 .L21-.LFB1144
 423 001e 00       		.uleb128 0
 424 001f E302     		.uleb128 .LEHB9-.LFB1144
 425 0021 05       		.uleb128 .LEHE9-.LEHB9
 426 0022 DF03     		.uleb128 .L20-.LFB1144
 427 0024 00       		.uleb128 0
 428 0025 8703     		.uleb128 .LEHB10-.LFB1144
 429 0027 40       		.uleb128 .LEHE10-.LEHB10
 430 0028 D103     		.uleb128 .L23-.LFB1144
 431 002a 00       		.uleb128 0
 432 002b C703     		.uleb128 .LEHB11-.LFB1144
 433 002d 05       		.uleb128 .LEHE11-.LEHB11
 434 002e DF03     		.uleb128 .L20-.LFB1144
 435 0030 00       		.uleb128 0
 436 0031 FB03     		.uleb128 .LEHB12-.LFB1144
 437 0033 05       		.uleb128 .LEHE12-.LEHB12
 438 0034 00       		.uleb128 0
 439 0035 00       		.uleb128 0
 440              	.LLSDACSE1144:
 441 0036 01       		.byte	0x1
 442 0037 00       		.byte	0
 443              		.align 4
 444 0038 00000000 		.long	0
 445              	
 446              	.LLSDATT1144:
 447              		.text
 449              		.section	.rodata
 450              	.LC7:
 451 00c9 53747265 		.string	"StreamingTextCopiesCharacters"
 451      616D696E 
 451      67546578 
 451      74436F70 
 451      69657343 
 452              		.text
 453 025b 90       		.align 2
 455              	_ZN12_GLOBAL__N_133TestStreamingTextCopiesCharactersC2Ev:
 456              	.LFB1146:
  17:TestMemoryOutStream.cpp **** 
  18:TestMemoryOutStream.cpp **** TEST(StreamingTextCopiesCharacters)
 457              		.loc 3 18 1
 458              		.cfi_startproc
 459 025c 55       		pushq	%rbp
 460              		.cfi_def_cfa_offset 16
 461              		.cfi_offset 6, -16
 462 025d 4889E5   		movq	%rsp, %rbp
 463              		.cfi_def_cfa_register 6
 464 0260 53       		pushq	%rbx
 465 0261 4883EC18 		subq	$24, %rsp
 466              		.cfi_offset 3, -24
 467 0265 48897DE8 		movq	%rdi, -24(%rbp)
 468              	.LBB5:
 469              		.loc 3 18 1
 470 0269 488B5DE8 		movq	-24(%rbp), %rbx
 471 026d E8000000 		call	_ZN13UnitTestSuite12GetSuiteNameEv
 471      00
 472 0272 4889C2   		movq	%rax, %rdx
 473 0275 41B81200 		movl	$18, %r8d
 473      0000
 474 027b 488D0500 		leaq	.LC1(%rip), %rax
 474      000000
 475 0282 4889C1   		movq	%rax, %rcx
 476 0285 488D0500 		leaq	.LC7(%rip), %rax
 476      000000
 477 028c 4889C6   		movq	%rax, %rsi
 478 028f 4889DF   		movq	%rbx, %rdi
 479 0292 E8000000 		call	_ZN8UnitTest4TestC2EPKcS2_S2_i@PLT
 479      00
 480 0297 488D1500 		leaq	16+_ZTVN12_GLOBAL__N_133TestStreamingTextCopiesCharactersE(%rip), %rdx
 480      000000
 481 029e 488B45E8 		movq	-24(%rbp), %rax
 482 02a2 488910   		movq	%rdx, (%rax)
 483              	.LBE5:
 484 02a5 90       		nop
 485 02a6 488B5DF8 		movq	-8(%rbp), %rbx
 486 02aa C9       		leave
 487              		.cfi_def_cfa 7, 8
 488 02ab C3       		ret
 489              		.cfi_endproc
 490              	.LFE1146:
 492              		.set	_ZN12_GLOBAL__N_133TestStreamingTextCopiesCharactersC1Ev,_ZN12_GLOBAL__N_133TestStreamingText
 493              		.local	_ZN12_GLOBAL__N_141testStreamingTextCopiesCharactersInstanceE
 494              		.comm	_ZN12_GLOBAL__N_141testStreamingTextCopiesCharactersInstanceE,56,32
 495              		.local	_ZN12_GLOBAL__N_134adderStreamingTextCopiesCharactersE
 496              		.comm	_ZN12_GLOBAL__N_134adderStreamingTextCopiesCharactersE,1,1
 497              		.section	.rodata
 498              	.LC8:
 499 00e7 4C616C61 		.string	"Lalala"
 499      6C6100
 500 00ee 0000     		.align 8
 501              	.LC9:
 502 00f0 556E6861 		.string	"Unhandled exception in CHECK_EQUAL(\"Lalala\", stream.GetText())"
 502      6E646C65 
 502      64206578 
 502      63657074 
 502      696F6E20 
 503              		.text
 504              		.align 2
 506              	_ZNK12_GLOBAL__N_133TestStreamingTextCopiesCharacters7RunImplEv:
 507              	.LFB1148:
  19:TestMemoryOutStream.cpp **** {
 508              		.loc 3 19 1
 509              		.cfi_startproc
 510              		.cfi_personality 0x9b,DW.ref.__gxx_personality_v0
 511              		.cfi_lsda 0x1b,.LLSDA1148
 512 02ac F30F1EFA 		endbr64
 513 02b0 55       		pushq	%rbp
 514              		.cfi_def_cfa_offset 16
 515              		.cfi_offset 6, -16
 516 02b1 4889E5   		movq	%rsp, %rbp
 517              		.cfi_def_cfa_register 6
 518 02b4 53       		pushq	%rbx
 519 02b5 4881ECD8 		subq	$472, %rsp
 519      010000
 520              		.cfi_offset 3, -24
 521 02bc 4889BD28 		movq	%rdi, -472(%rbp)
 521      FEFFFF
 522              		.loc 3 19 1
 523 02c3 64488B04 		movq	%fs:40, %rax
 523      25280000 
 523      00
 524 02cc 488945E8 		movq	%rax, -24(%rbp)
 525 02d0 31C0     		xorl	%eax, %eax
  20:TestMemoryOutStream.cpp ****     MemoryOutStream stream;
 526              		.loc 3 20 21
 527 02d2 488D8550 		leaq	-432(%rbp), %rax
 527      FEFFFF
 528 02d9 4889C7   		movq	%rax, %rdi
 529              	.LEHB13:
 530 02dc E8000000 		call	_ZN8UnitTest15MemoryOutStreamC1Ev
 530      00
 531              	.LEHE13:
  21:TestMemoryOutStream.cpp ****     stream << "Lalala";
 532              		.loc 3 21 15
 533 02e1 488D8550 		leaq	-432(%rbp), %rax
 533      FEFFFF
 534 02e8 488D1500 		leaq	.LC8(%rip), %rdx
 534      000000
 535 02ef 4889D6   		movq	%rdx, %rsi
 536 02f2 4889C7   		movq	%rax, %rdi
 537              	.LEHB14:
 538 02f5 E8000000 		call	_ZStlsISt11char_traitsIcEERSt13basic_ostreamIcT_ES5_PKc@PLT
 538      00
 539              	.LEHE14:
 540              	.LEHB15:
  22:TestMemoryOutStream.cpp ****     CHECK_EQUAL("Lalala", stream.GetText());
 541              		.loc 3 22 5
 542 02fa E8000000 		call	_ZN8UnitTest11CurrentTest7DetailsEv@PLT
 542      00
 543 02ff 488B08   		movq	(%rax), %rcx
 544 0302 488D8530 		leaq	-464(%rbp), %rax
 544      FEFFFF
 545 0309 BA160000 		movl	$22, %edx
 545      00
 546 030e 4889CE   		movq	%rcx, %rsi
 547 0311 4889C7   		movq	%rax, %rdi
 548 0314 E8000000 		call	_ZN8UnitTest11TestDetailsC1ERKS0_i@PLT
 548      00
 549              		.loc 3 22 5 is_stmt 0 discriminator 4
 550 0319 488D8550 		leaq	-432(%rbp), %rax
 550      FEFFFF
 551 0320 4889C7   		movq	%rax, %rdi
 552 0323 E8000000 		call	_ZNK8UnitTest15MemoryOutStream7GetTextEv@PLT
 552      00
 553 0328 4889C3   		movq	%rax, %rbx
 554 032b E8000000 		call	_ZN8UnitTest11CurrentTest7ResultsEv@PLT
 554      00
 555              		.loc 3 22 5 discriminator 6
 556 0330 488B00   		movq	(%rax), %rax
 557 0333 488D9530 		leaq	-464(%rbp), %rdx
 557      FEFFFF
 558 033a 4889D1   		movq	%rdx, %rcx
 559 033d 4889DA   		movq	%rbx, %rdx
 560 0340 488D3500 		leaq	.LC8(%rip), %rsi
 560      000000
 561 0347 4889C7   		movq	%rax, %rdi
 562 034a E8000000 		call	_ZN8UnitTest10CheckEqualERNS_11TestResultsEPKcS3_RKNS_11TestDetailsE@PLT
 562      00
 563              	.LEHE15:
 564              	.L28:
  23:TestMemoryOutStream.cpp **** }
 565              		.loc 3 23 1 is_stmt 1
 566 034f 488D8550 		leaq	-432(%rbp), %rax
 566      FEFFFF
 567 0356 4889C7   		movq	%rax, %rdi
 568              	.LEHB16:
 569 0359 E8000000 		call	_ZN8UnitTest15MemoryOutStreamD1Ev
 569      00
 570              	.LEHE16:
 571 035e 488B45E8 		movq	-24(%rbp), %rax
 572 0362 64482B04 		subq	%fs:40, %rax
 572      25280000 
 572      00
 573 036b 0F848C00 		je	.L31
 573      0000
 574 0371 E9820000 		jmp	.L35
 574      00
 575              	.L33:
 576 0376 F30F1EFA 		endbr64
  22:TestMemoryOutStream.cpp ****     CHECK_EQUAL("Lalala", stream.GetText());
 577              		.loc 3 22 5
 578 037a 4889C7   		movq	%rax, %rdi
 579 037d E8000000 		call	__cxa_begin_catch@PLT
 579      00
 580              	.LEHB17:
 581 0382 E8000000 		call	_ZN8UnitTest11CurrentTest7ResultsEv@PLT
 581      00
  22:TestMemoryOutStream.cpp ****     CHECK_EQUAL("Lalala", stream.GetText());
 582              		.loc 3 22 5 is_stmt 0 discriminator 3
 583 0387 488B18   		movq	(%rax), %rbx
 584 038a E8000000 		call	_ZN8UnitTest11CurrentTest7DetailsEv@PLT
 584      00
  22:TestMemoryOutStream.cpp ****     CHECK_EQUAL("Lalala", stream.GetText());
 585              		.loc 3 22 5 discriminator 13
 586 038f 488B08   		movq	(%rax), %rcx
 587 0392 488D8530 		leaq	-464(%rbp), %rax
 587      FEFFFF
 588 0399 BA160000 		movl	$22, %edx
 588      00
 589 039e 4889CE   		movq	%rcx, %rsi
 590 03a1 4889C7   		movq	%rax, %rdi
 591 03a4 E8000000 		call	_ZN8UnitTest11TestDetailsC1ERKS0_i@PLT
 591      00
  22:TestMemoryOutStream.cpp ****     CHECK_EQUAL("Lalala", stream.GetText());
 592              		.loc 3 22 5 discriminator 17
 593 03a9 488D8530 		leaq	-464(%rbp), %rax
 593      FEFFFF
 594 03b0 488D1500 		leaq	.LC9(%rip), %rdx
 594      000000
 595 03b7 4889C6   		movq	%rax, %rsi
 596 03ba 4889DF   		movq	%rbx, %rdi
 597 03bd E8000000 		call	_ZN8UnitTest11TestResults13OnTestFailureERKNS_11TestDetailsEPKc@PLT
 597      00
 598              	.LEHE17:
 599              	.LEHB18:
  22:TestMemoryOutStream.cpp ****     CHECK_EQUAL("Lalala", stream.GetText());
 600              		.loc 3 22 5 discriminator 19
 601 03c2 E8000000 		call	__cxa_end_catch@PLT
 601      00
 602              	.LEHE18:
  22:TestMemoryOutStream.cpp ****     CHECK_EQUAL("Lalala", stream.GetText());
 603              		.loc 3 22 5
 604 03c7 EB86     		jmp	.L28
 605              	.L34:
 606 03c9 F30F1EFA 		endbr64
 607 03cd 4889C3   		movq	%rax, %rbx
 608 03d0 E8000000 		call	__cxa_end_catch@PLT
 608      00
 609 03d5 EB07     		jmp	.L30
 610              	.L32:
 611 03d7 F30F1EFA 		endbr64
 612              		.loc 3 23 1 is_stmt 1
 613 03db 4889C3   		movq	%rax, %rbx
 614              	.L30:
 615 03de 488D8550 		leaq	-432(%rbp), %rax
 615      FEFFFF
 616 03e5 4889C7   		movq	%rax, %rdi
 617 03e8 E8000000 		call	_ZN8UnitTest15MemoryOutStreamD1Ev
 617      00
 618 03ed 4889D8   		movq	%rbx, %rax
 619 03f0 4889C7   		movq	%rax, %rdi
 620              	.LEHB19:
 621 03f3 E8000000 		call	_Unwind_Resume@PLT
 621      00
 622              	.LEHE19:
 623              	.L35:
 624 03f8 E8000000 		call	__stack_chk_fail@PLT
 624      00
 625              	.L31:
 626 03fd 488B5DF8 		movq	-8(%rbp), %rbx
 627 0401 C9       		leave
 628              		.cfi_def_cfa 7, 8
 629 0402 C3       		ret
 630              		.cfi_endproc
 631              	.LFE1148:
 632              		.section	.gcc_except_table
 633              		.align 4
 634              	.LLSDA1148:
 635 003c FF       		.byte	0xff
 636 003d 9B       		.byte	0x9b
 637 003e 2D       		.uleb128 .LLSDATT1148-.LLSDATTD1148
 638              	.LLSDATTD1148:
 639 003f 01       		.byte	0x1
 640 0040 24       		.uleb128 .LLSDACSE1148-.LLSDACSB1148
 641              	.LLSDACSB1148:
 642 0041 30       		.uleb128 .LEHB13-.LFB1148
 643 0042 05       		.uleb128 .LEHE13-.LEHB13
 644 0043 00       		.uleb128 0
 645 0044 00       		.uleb128 0
 646 0045 49       		.uleb128 .LEHB14-.LFB1148
 647 0046 05       		.uleb128 .LEHE14-.LEHB14
 648 0047 AB02     		.uleb128 .L32-.LFB1148
 649 0049 00       		.uleb128 0
 650 004a 4E       		.uleb128 .LEHB15-.LFB1148
 651 004b 55       		.uleb128 .LEHE15-.LEHB15
 652 004c CA01     		.uleb128 .L33-.LFB1148
 653 004e 01       		.uleb128 0x1
 654 004f AD01     		.uleb128 .LEHB16-.LFB1148
 655 0051 05       		.uleb128 .LEHE16-.LEHB16
 656 0052 00       		.uleb128 0
 657 0053 00       		.uleb128 0
 658 0054 D601     		.uleb128 .LEHB17-.LFB1148
 659 0056 40       		.uleb128 .LEHE17-.LEHB17
 660 0057 9D02     		.uleb128 .L34-.LFB1148
 661 0059 00       		.uleb128 0
 662 005a 9602     		.uleb128 .LEHB18-.LFB1148
 663 005c 05       		.uleb128 .LEHE18-.LEHB18
 664 005d AB02     		.uleb128 .L32-.LFB1148
 665 005f 00       		.uleb128 0
 666 0060 C702     		.uleb128 .LEHB19-.LFB1148
 667 0062 05       		.uleb128 .LEHE19-.LEHB19
 668 0063 00       		.uleb128 0
 669 0064 00       		.uleb128 0
 670              	.LLSDACSE1148:
 671 0065 01       		.byte	0x1
 672 0066 00       		.byte	0
 673 0067 00       		.align 4
 674 0068 00000000 		.long	0
 675              	
 676              	.LLSDATT1148:
 677              		.text
 679              		.section	.rodata
 680 012f 00       		.align 8
 681              	.LC10:
 682 0130 53747265 		.string	"StreamingMultipleTimesConcatenatesResult"
 682      616D696E 
 682      674D756C 
 682      7469706C 
 682      6554696D 
 683              		.text
 684 0403 90       		.align 2
 686              	_ZN12_GLOBAL__N_144TestStreamingMultipleTimesConcatenatesResultC2Ev:
 687              	.LFB1150:
  24:TestMemoryOutStream.cpp **** 
  25:TestMemoryOutStream.cpp **** TEST(StreamingMultipleTimesConcatenatesResult)
 688              		.loc 3 25 1
 689              		.cfi_startproc
 690 0404 55       		pushq	%rbp
 691              		.cfi_def_cfa_offset 16
 692              		.cfi_offset 6, -16
 693 0405 4889E5   		movq	%rsp, %rbp
 694              		.cfi_def_cfa_register 6
 695 0408 53       		pushq	%rbx
 696 0409 4883EC18 		subq	$24, %rsp
 697              		.cfi_offset 3, -24
 698 040d 48897DE8 		movq	%rdi, -24(%rbp)
 699              	.LBB6:
 700              		.loc 3 25 1
 701 0411 488B5DE8 		movq	-24(%rbp), %rbx
 702 0415 E8000000 		call	_ZN13UnitTestSuite12GetSuiteNameEv
 702      00
 703 041a 4889C2   		movq	%rax, %rdx
 704 041d 41B81900 		movl	$25, %r8d
 704      0000
 705 0423 488D0500 		leaq	.LC1(%rip), %rax
 705      000000
 706 042a 4889C1   		movq	%rax, %rcx
 707 042d 488D0500 		leaq	.LC10(%rip), %rax
 707      000000
 708 0434 4889C6   		movq	%rax, %rsi
 709 0437 4889DF   		movq	%rbx, %rdi
 710 043a E8000000 		call	_ZN8UnitTest4TestC2EPKcS2_S2_i@PLT
 710      00
 711 043f 488D1500 		leaq	16+_ZTVN12_GLOBAL__N_144TestStreamingMultipleTimesConcatenatesResultE(%rip), %rdx
 711      000000
 712 0446 488B45E8 		movq	-24(%rbp), %rax
 713 044a 488910   		movq	%rdx, (%rax)
 714              	.LBE6:
 715 044d 90       		nop
 716 044e 488B5DF8 		movq	-8(%rbp), %rbx
 717 0452 C9       		leave
 718              		.cfi_def_cfa 7, 8
 719 0453 C3       		ret
 720              		.cfi_endproc
 721              	.LFE1150:
 723              		.set	_ZN12_GLOBAL__N_144TestStreamingMultipleTimesConcatenatesResultC1Ev,_ZN12_GLOBAL__N_144TestSt
 724              		.local	_ZN12_GLOBAL__N_152testStreamingMultipleTimesConcatenatesResultInstanceE
 725              		.comm	_ZN12_GLOBAL__N_152testStreamingMultipleTimesConcatenatesResultInstanceE,56,32
 726              		.local	_ZN12_GLOBAL__N_145adderStreamingMultipleTimesConcatenatesResultE
 727              		.comm	_ZN12_GLOBAL__N_145adderStreamingMultipleTimesConcatenatesResultE,1,1
 728              		.section	.rodata
 729              	.LC11:
 730 0159 426F726B 		.string	"Bork"
 730      00
 731              	.LC12:
 732 015e 466F6F00 		.string	"Foo"
 733              	.LC13:
 734 0162 42617200 		.string	"Bar"
 735              	.LC14:
 736 0166 426F726B 		.string	"BorkFooBar"
 736      466F6F42 
 736      617200
 737 0171 00000000 		.align 8
 737      000000
 738              	.LC15:
 739 0178 556E6861 		.string	"Unhandled exception in CHECK_EQUAL(\"BorkFooBar\", stream.GetText())"
 739      6E646C65 
 739      64206578 
 739      63657074 
 739      696F6E20 
 740              		.text
 741              		.align 2
 743              	_ZNK12_GLOBAL__N_144TestStreamingMultipleTimesConcatenatesResult7RunImplEv:
 744              	.LFB1152:
  26:TestMemoryOutStream.cpp **** {
 745              		.loc 3 26 1
 746              		.cfi_startproc
 747              		.cfi_personality 0x9b,DW.ref.__gxx_personality_v0
 748              		.cfi_lsda 0x1b,.LLSDA1152
 749 0454 F30F1EFA 		endbr64
 750 0458 55       		pushq	%rbp
 751              		.cfi_def_cfa_offset 16
 752              		.cfi_offset 6, -16
 753 0459 4889E5   		movq	%rsp, %rbp
 754              		.cfi_def_cfa_register 6
 755 045c 53       		pushq	%rbx
 756 045d 4881ECD8 		subq	$472, %rsp
 756      010000
 757              		.cfi_offset 3, -24
 758 0464 4889BD28 		movq	%rdi, -472(%rbp)
 758      FEFFFF
 759              		.loc 3 26 1
 760 046b 64488B04 		movq	%fs:40, %rax
 760      25280000 
 760      00
 761 0474 488945E8 		movq	%rax, -24(%rbp)
 762 0478 31C0     		xorl	%eax, %eax
  27:TestMemoryOutStream.cpp ****     MemoryOutStream stream;
 763              		.loc 3 27 21
 764 047a 488D8550 		leaq	-432(%rbp), %rax
 764      FEFFFF
 765 0481 4889C7   		movq	%rax, %rdi
 766              	.LEHB20:
 767 0484 E8000000 		call	_ZN8UnitTest15MemoryOutStreamC1Ev
 767      00
 768              	.LEHE20:
  28:TestMemoryOutStream.cpp ****     stream << "Bork" << "Foo" << "Bar";
 769              		.loc 3 28 34
 770 0489 488D8550 		leaq	-432(%rbp), %rax
 770      FEFFFF
 771 0490 488D1500 		leaq	.LC11(%rip), %rdx
 771      000000
 772 0497 4889D6   		movq	%rdx, %rsi
 773 049a 4889C7   		movq	%rax, %rdi
 774              	.LEHB21:
 775 049d E8000000 		call	_ZStlsISt11char_traitsIcEERSt13basic_ostreamIcT_ES5_PKc@PLT
 775      00
 776 04a2 4889C2   		movq	%rax, %rdx
 777 04a5 488D0500 		leaq	.LC12(%rip), %rax
 777      000000
 778 04ac 4889C6   		movq	%rax, %rsi
 779 04af 4889D7   		movq	%rdx, %rdi
 780 04b2 E8000000 		call	_ZStlsISt11char_traitsIcEERSt13basic_ostreamIcT_ES5_PKc@PLT
 780      00
 781              		.loc 3 28 34 is_stmt 0 discriminator 1
 782 04b7 4889C2   		movq	%rax, %rdx
 783 04ba 488D0500 		leaq	.LC13(%rip), %rax
 783      000000
 784 04c1 4889C6   		movq	%rax, %rsi
 785 04c4 4889D7   		movq	%rdx, %rdi
 786 04c7 E8000000 		call	_ZStlsISt11char_traitsIcEERSt13basic_ostreamIcT_ES5_PKc@PLT
 786      00
 787              	.LEHE21:
 788              	.LEHB22:
  29:TestMemoryOutStream.cpp ****     CHECK_EQUAL("BorkFooBar", stream.GetText());
 789              		.loc 3 29 5 is_stmt 1
 790 04cc E8000000 		call	_ZN8UnitTest11CurrentTest7DetailsEv@PLT
 790      00
 791 04d1 488B08   		movq	(%rax), %rcx
 792 04d4 488D8530 		leaq	-464(%rbp), %rax
 792      FEFFFF
 793 04db BA1D0000 		movl	$29, %edx
 793      00
 794 04e0 4889CE   		movq	%rcx, %rsi
 795 04e3 4889C7   		movq	%rax, %rdi
 796 04e6 E8000000 		call	_ZN8UnitTest11TestDetailsC1ERKS0_i@PLT
 796      00
 797              		.loc 3 29 5 is_stmt 0 discriminator 4
 798 04eb 488D8550 		leaq	-432(%rbp), %rax
 798      FEFFFF
 799 04f2 4889C7   		movq	%rax, %rdi
 800 04f5 E8000000 		call	_ZNK8UnitTest15MemoryOutStream7GetTextEv@PLT
 800      00
 801 04fa 4889C3   		movq	%rax, %rbx
 802 04fd E8000000 		call	_ZN8UnitTest11CurrentTest7ResultsEv@PLT
 802      00
 803              		.loc 3 29 5 discriminator 6
 804 0502 488B00   		movq	(%rax), %rax
 805 0505 488D9530 		leaq	-464(%rbp), %rdx
 805      FEFFFF
 806 050c 4889D1   		movq	%rdx, %rcx
 807 050f 4889DA   		movq	%rbx, %rdx
 808 0512 488D3500 		leaq	.LC14(%rip), %rsi
 808      000000
 809 0519 4889C7   		movq	%rax, %rdi
 810 051c E8000000 		call	_ZN8UnitTest10CheckEqualERNS_11TestResultsEPKcS3_RKNS_11TestDetailsE@PLT
 810      00
 811              	.LEHE22:
 812              	.L39:
  30:TestMemoryOutStream.cpp **** }
 813              		.loc 3 30 1 is_stmt 1
 814 0521 488D8550 		leaq	-432(%rbp), %rax
 814      FEFFFF
 815 0528 4889C7   		movq	%rax, %rdi
 816              	.LEHB23:
 817 052b E8000000 		call	_ZN8UnitTest15MemoryOutStreamD1Ev
 817      00
 818              	.LEHE23:
 819 0530 488B45E8 		movq	-24(%rbp), %rax
 820 0534 64482B04 		subq	%fs:40, %rax
 820      25280000 
 820      00
 821 053d 0F848C00 		je	.L42
 821      0000
 822 0543 E9820000 		jmp	.L46
 822      00
 823              	.L44:
 824 0548 F30F1EFA 		endbr64
  29:TestMemoryOutStream.cpp ****     CHECK_EQUAL("BorkFooBar", stream.GetText());
 825              		.loc 3 29 5
 826 054c 4889C7   		movq	%rax, %rdi
 827 054f E8000000 		call	__cxa_begin_catch@PLT
 827      00
 828              	.LEHB24:
 829 0554 E8000000 		call	_ZN8UnitTest11CurrentTest7ResultsEv@PLT
 829      00
  29:TestMemoryOutStream.cpp ****     CHECK_EQUAL("BorkFooBar", stream.GetText());
 830              		.loc 3 29 5 is_stmt 0 discriminator 3
 831 0559 488B18   		movq	(%rax), %rbx
 832 055c E8000000 		call	_ZN8UnitTest11CurrentTest7DetailsEv@PLT
 832      00
  29:TestMemoryOutStream.cpp ****     CHECK_EQUAL("BorkFooBar", stream.GetText());
 833              		.loc 3 29 5 discriminator 13
 834 0561 488B08   		movq	(%rax), %rcx
 835 0564 488D8530 		leaq	-464(%rbp), %rax
 835      FEFFFF
 836 056b BA1D0000 		movl	$29, %edx
 836      00
 837 0570 4889CE   		movq	%rcx, %rsi
 838 0573 4889C7   		movq	%rax, %rdi
 839 0576 E8000000 		call	_ZN8UnitTest11TestDetailsC1ERKS0_i@PLT
 839      00
  29:TestMemoryOutStream.cpp ****     CHECK_EQUAL("BorkFooBar", stream.GetText());
 840              		.loc 3 29 5 discriminator 17
 841 057b 488D8530 		leaq	-464(%rbp), %rax
 841      FEFFFF
 842 0582 488D1500 		leaq	.LC15(%rip), %rdx
 842      000000
 843 0589 4889C6   		movq	%rax, %rsi
 844 058c 4889DF   		movq	%rbx, %rdi
 845 058f E8000000 		call	_ZN8UnitTest11TestResults13OnTestFailureERKNS_11TestDetailsEPKc@PLT
 845      00
 846              	.LEHE24:
 847              	.LEHB25:
  29:TestMemoryOutStream.cpp ****     CHECK_EQUAL("BorkFooBar", stream.GetText());
 848              		.loc 3 29 5 discriminator 19
 849 0594 E8000000 		call	__cxa_end_catch@PLT
 849      00
 850              	.LEHE25:
  29:TestMemoryOutStream.cpp ****     CHECK_EQUAL("BorkFooBar", stream.GetText());
 851              		.loc 3 29 5
 852 0599 EB86     		jmp	.L39
 853              	.L45:
 854 059b F30F1EFA 		endbr64
 855 059f 4889C3   		movq	%rax, %rbx
 856 05a2 E8000000 		call	__cxa_end_catch@PLT
 856      00
 857 05a7 EB07     		jmp	.L41
 858              	.L43:
 859 05a9 F30F1EFA 		endbr64
 860              		.loc 3 30 1 is_stmt 1
 861 05ad 4889C3   		movq	%rax, %rbx
 862              	.L41:
 863 05b0 488D8550 		leaq	-432(%rbp), %rax
 863      FEFFFF
 864 05b7 4889C7   		movq	%rax, %rdi
 865 05ba E8000000 		call	_ZN8UnitTest15MemoryOutStreamD1Ev
 865      00
 866 05bf 4889D8   		movq	%rbx, %rax
 867 05c2 4889C7   		movq	%rax, %rdi
 868              	.LEHB26:
 869 05c5 E8000000 		call	_Unwind_Resume@PLT
 869      00
 870              	.LEHE26:
 871              	.L46:
 872 05ca E8000000 		call	__stack_chk_fail@PLT
 872      00
 873              	.L42:
 874 05cf 488B5DF8 		movq	-8(%rbp), %rbx
 875 05d3 C9       		leave
 876              		.cfi_def_cfa 7, 8
 877 05d4 C3       		ret
 878              		.cfi_endproc
 879              	.LFE1152:
 880              		.section	.gcc_except_table
 881              		.align 4
 882              	.LLSDA1152:
 883 006c FF       		.byte	0xff
 884 006d 9B       		.byte	0x9b
 885 006e 2D       		.uleb128 .LLSDATT1152-.LLSDATTD1152
 886              	.LLSDATTD1152:
 887 006f 01       		.byte	0x1
 888 0070 24       		.uleb128 .LLSDACSE1152-.LLSDACSB1152
 889              	.LLSDACSB1152:
 890 0071 30       		.uleb128 .LEHB20-.LFB1152
 891 0072 05       		.uleb128 .LEHE20-.LEHB20
 892 0073 00       		.uleb128 0
 893 0074 00       		.uleb128 0
 894 0075 49       		.uleb128 .LEHB21-.LFB1152
 895 0076 2F       		.uleb128 .LEHE21-.LEHB21
 896 0077 D502     		.uleb128 .L43-.LFB1152
 897 0079 00       		.uleb128 0
 898 007a 78       		.uleb128 .LEHB22-.LFB1152
 899 007b 55       		.uleb128 .LEHE22-.LEHB22
 900 007c F401     		.uleb128 .L44-.LFB1152
 901 007e 01       		.uleb128 0x1
 902 007f D701     		.uleb128 .LEHB23-.LFB1152
 903 0081 05       		.uleb128 .LEHE23-.LEHB23
 904 0082 00       		.uleb128 0
 905 0083 00       		.uleb128 0
 906 0084 8002     		.uleb128 .LEHB24-.LFB1152
 907 0086 40       		.uleb128 .LEHE24-.LEHB24
 908 0087 C702     		.uleb128 .L45-.LFB1152
 909 0089 00       		.uleb128 0
 910 008a C002     		.uleb128 .LEHB25-.LFB1152
 911 008c 05       		.uleb128 .LEHE25-.LEHB25
 912 008d D502     		.uleb128 .L43-.LFB1152
 913 008f 00       		.uleb128 0
 914 0090 F102     		.uleb128 .LEHB26-.LFB1152
 915 0092 05       		.uleb128 .LEHE26-.LEHB26
 916 0093 00       		.uleb128 0
 917 0094 00       		.uleb128 0
 918              	.LLSDACSE1152:
 919 0095 01       		.byte	0x1
 920 0096 00       		.byte	0
 921 0097 00       		.align 4
 922 0098 00000000 		.long	0
 923              	
 924              	.LLSDATT1152:
 925              		.text
 927              		.section	.rodata
 928 01bb 00000000 		.align 8
 928      00
 929              	.LC16:
 930 01c0 53747265 		.string	"StreamingIntWritesCorrectCharacters"
 930      616D696E 
 930      67496E74 
 930      57726974 
 930      6573436F 
 931              		.text
 932 05d5 90       		.align 2
 934              	_ZN12_GLOBAL__N_139TestStreamingIntWritesCorrectCharactersC2Ev:
 935              	.LFB1154:
  31:TestMemoryOutStream.cpp **** 
  32:TestMemoryOutStream.cpp **** TEST(StreamingIntWritesCorrectCharacters)
 936              		.loc 3 32 1
 937              		.cfi_startproc
 938 05d6 55       		pushq	%rbp
 939              		.cfi_def_cfa_offset 16
 940              		.cfi_offset 6, -16
 941 05d7 4889E5   		movq	%rsp, %rbp
 942              		.cfi_def_cfa_register 6
 943 05da 53       		pushq	%rbx
 944 05db 4883EC18 		subq	$24, %rsp
 945              		.cfi_offset 3, -24
 946 05df 48897DE8 		movq	%rdi, -24(%rbp)
 947              	.LBB7:
 948              		.loc 3 32 1
 949 05e3 488B5DE8 		movq	-24(%rbp), %rbx
 950 05e7 E8000000 		call	_ZN13UnitTestSuite12GetSuiteNameEv
 950      00
 951 05ec 4889C2   		movq	%rax, %rdx
 952 05ef 41B82000 		movl	$32, %r8d
 952      0000
 953 05f5 488D0500 		leaq	.LC1(%rip), %rax
 953      000000
 954 05fc 4889C1   		movq	%rax, %rcx
 955 05ff 488D0500 		leaq	.LC16(%rip), %rax
 955      000000
 956 0606 4889C6   		movq	%rax, %rsi
 957 0609 4889DF   		movq	%rbx, %rdi
 958 060c E8000000 		call	_ZN8UnitTest4TestC2EPKcS2_S2_i@PLT
 958      00
 959 0611 488D1500 		leaq	16+_ZTVN12_GLOBAL__N_139TestStreamingIntWritesCorrectCharactersE(%rip), %rdx
 959      000000
 960 0618 488B45E8 		movq	-24(%rbp), %rax
 961 061c 488910   		movq	%rdx, (%rax)
 962              	.LBE7:
 963 061f 90       		nop
 964 0620 488B5DF8 		movq	-8(%rbp), %rbx
 965 0624 C9       		leave
 966              		.cfi_def_cfa 7, 8
 967 0625 C3       		ret
 968              		.cfi_endproc
 969              	.LFE1154:
 971              		.set	_ZN12_GLOBAL__N_139TestStreamingIntWritesCorrectCharactersC1Ev,_ZN12_GLOBAL__N_139TestStreami
 972              		.local	_ZN12_GLOBAL__N_147testStreamingIntWritesCorrectCharactersInstanceE
 973              		.comm	_ZN12_GLOBAL__N_147testStreamingIntWritesCorrectCharactersInstanceE,56,32
 974              		.local	_ZN12_GLOBAL__N_140adderStreamingIntWritesCorrectCharactersE
 975              		.comm	_ZN12_GLOBAL__N_140adderStreamingIntWritesCorrectCharactersE,1,1
 976              		.section	.rodata
 977              	.LC17:
 978 01e4 31323300 		.string	"123"
 979              		.align 8
 980              	.LC18:
 981 01e8 556E6861 		.string	"Unhandled exception in CHECK_EQUAL(\"123\", stream.GetText())"
 981      6E646C65 
 981      64206578 
 981      63657074 
 981      696F6E20 
 982              		.text
 983              		.align 2
 985              	_ZNK12_GLOBAL__N_139TestStreamingIntWritesCorrectCharacters7RunImplEv:
 986              	.LFB1156:
  33:TestMemoryOutStream.cpp **** {
 987              		.loc 3 33 1
 988              		.cfi_startproc
 989              		.cfi_personality 0x9b,DW.ref.__gxx_personality_v0
 990              		.cfi_lsda 0x1b,.LLSDA1156
 991 0626 F30F1EFA 		endbr64
 992 062a 55       		pushq	%rbp
 993              		.cfi_def_cfa_offset 16
 994              		.cfi_offset 6, -16
 995 062b 4889E5   		movq	%rsp, %rbp
 996              		.cfi_def_cfa_register 6
 997 062e 53       		pushq	%rbx
 998 062f 4881ECD8 		subq	$472, %rsp
 998      010000
 999              		.cfi_offset 3, -24
 1000 0636 4889BD28 		movq	%rdi, -472(%rbp)
 1000      FEFFFF
 1001              		.loc 3 33 1
 1002 063d 64488B04 		movq	%fs:40, %rax
 1002      25280000 
 1002      00
 1003 0646 488945E8 		movq	%rax, -24(%rbp)
 1004 064a 31C0     		xorl	%eax, %eax
  34:TestMemoryOutStream.cpp ****     MemoryOutStream stream;
 1005              		.loc 3 34 21
 1006 064c 488D8550 		leaq	-432(%rbp), %rax
 1006      FEFFFF
 1007 0653 4889C7   		movq	%rax, %rdi
 1008              	.LEHB27:
 1009 0656 E8000000 		call	_ZN8UnitTest15MemoryOutStreamC1Ev
 1009      00
 1010              	.LEHE27:
  35:TestMemoryOutStream.cpp ****     stream << (int)123;
 1011              		.loc 3 35 20
 1012 065b 488D8550 		leaq	-432(%rbp), %rax
 1012      FEFFFF
 1013 0662 BE7B0000 		movl	$123, %esi
 1013      00
 1014 0667 4889C7   		movq	%rax, %rdi
 1015              	.LEHB28:
 1016 066a E8000000 		call	_ZNSolsEi@PLT
 1016      00
 1017              	.LEHE28:
 1018              	.LEHB29:
  36:TestMemoryOutStream.cpp ****     CHECK_EQUAL("123", stream.GetText());
 1019              		.loc 3 36 5
 1020 066f E8000000 		call	_ZN8UnitTest11CurrentTest7DetailsEv@PLT
 1020      00
 1021 0674 488B08   		movq	(%rax), %rcx
 1022 0677 488D8530 		leaq	-464(%rbp), %rax
 1022      FEFFFF
 1023 067e BA240000 		movl	$36, %edx
 1023      00
 1024 0683 4889CE   		movq	%rcx, %rsi
 1025 0686 4889C7   		movq	%rax, %rdi
 1026 0689 E8000000 		call	_ZN8UnitTest11TestDetailsC1ERKS0_i@PLT
 1026      00
 1027              		.loc 3 36 5 is_stmt 0 discriminator 4
 1028 068e 488D8550 		leaq	-432(%rbp), %rax
 1028      FEFFFF
 1029 0695 4889C7   		movq	%rax, %rdi
 1030 0698 E8000000 		call	_ZNK8UnitTest15MemoryOutStream7GetTextEv@PLT
 1030      00
 1031 069d 4889C3   		movq	%rax, %rbx
 1032 06a0 E8000000 		call	_ZN8UnitTest11CurrentTest7ResultsEv@PLT
 1032      00
 1033              		.loc 3 36 5 discriminator 6
 1034 06a5 488B00   		movq	(%rax), %rax
 1035 06a8 488D9530 		leaq	-464(%rbp), %rdx
 1035      FEFFFF
 1036 06af 4889D1   		movq	%rdx, %rcx
 1037 06b2 4889DA   		movq	%rbx, %rdx
 1038 06b5 488D3500 		leaq	.LC17(%rip), %rsi
 1038      000000
 1039 06bc 4889C7   		movq	%rax, %rdi
 1040 06bf E8000000 		call	_ZN8UnitTest10CheckEqualERNS_11TestResultsEPKcS3_RKNS_11TestDetailsE@PLT
 1040      00
 1041              	.LEHE29:
 1042              	.L50:
  37:TestMemoryOutStream.cpp **** }
 1043              		.loc 3 37 1 is_stmt 1
 1044 06c4 488D8550 		leaq	-432(%rbp), %rax
 1044      FEFFFF
 1045 06cb 4889C7   		movq	%rax, %rdi
 1046              	.LEHB30:
 1047 06ce E8000000 		call	_ZN8UnitTest15MemoryOutStreamD1Ev
 1047      00
 1048              	.LEHE30:
 1049 06d3 488B45E8 		movq	-24(%rbp), %rax
 1050 06d7 64482B04 		subq	%fs:40, %rax
 1050      25280000 
 1050      00
 1051 06e0 0F848C00 		je	.L53
 1051      0000
 1052 06e6 E9820000 		jmp	.L57
 1052      00
 1053              	.L55:
 1054 06eb F30F1EFA 		endbr64
  36:TestMemoryOutStream.cpp ****     CHECK_EQUAL("123", stream.GetText());
 1055              		.loc 3 36 5
 1056 06ef 4889C7   		movq	%rax, %rdi
 1057 06f2 E8000000 		call	__cxa_begin_catch@PLT
 1057      00
 1058              	.LEHB31:
 1059 06f7 E8000000 		call	_ZN8UnitTest11CurrentTest7ResultsEv@PLT
 1059      00
  36:TestMemoryOutStream.cpp ****     CHECK_EQUAL("123", stream.GetText());
 1060              		.loc 3 36 5 is_stmt 0 discriminator 3
 1061 06fc 488B18   		movq	(%rax), %rbx
 1062 06ff E8000000 		call	_ZN8UnitTest11CurrentTest7DetailsEv@PLT
 1062      00
  36:TestMemoryOutStream.cpp ****     CHECK_EQUAL("123", stream.GetText());
 1063              		.loc 3 36 5 discriminator 13
 1064 0704 488B08   		movq	(%rax), %rcx
 1065 0707 488D8530 		leaq	-464(%rbp), %rax
 1065      FEFFFF
 1066 070e BA240000 		movl	$36, %edx
 1066      00
 1067 0713 4889CE   		movq	%rcx, %rsi
 1068 0716 4889C7   		movq	%rax, %rdi
 1069 0719 E8000000 		call	_ZN8UnitTest11TestDetailsC1ERKS0_i@PLT
 1069      00
  36:TestMemoryOutStream.cpp ****     CHECK_EQUAL("123", stream.GetText());
 1070              		.loc 3 36 5 discriminator 17
 1071 071e 488D8530 		leaq	-464(%rbp), %rax
 1071      FEFFFF
 1072 0725 488D1500 		leaq	.LC18(%rip), %rdx
 1072      000000
 1073 072c 4889C6   		movq	%rax, %rsi
 1074 072f 4889DF   		movq	%rbx, %rdi
 1075 0732 E8000000 		call	_ZN8UnitTest11TestResults13OnTestFailureERKNS_11TestDetailsEPKc@PLT
 1075      00
 1076              	.LEHE31:
 1077              	.LEHB32:
  36:TestMemoryOutStream.cpp ****     CHECK_EQUAL("123", stream.GetText());
 1078              		.loc 3 36 5 discriminator 19
 1079 0737 E8000000 		call	__cxa_end_catch@PLT
 1079      00
 1080              	.LEHE32:
  36:TestMemoryOutStream.cpp ****     CHECK_EQUAL("123", stream.GetText());
 1081              		.loc 3 36 5
 1082 073c EB86     		jmp	.L50
 1083              	.L56:
 1084 073e F30F1EFA 		endbr64
 1085 0742 4889C3   		movq	%rax, %rbx
 1086 0745 E8000000 		call	__cxa_end_catch@PLT
 1086      00
 1087 074a EB07     		jmp	.L52
 1088              	.L54:
 1089 074c F30F1EFA 		endbr64
 1090              		.loc 3 37 1 is_stmt 1
 1091 0750 4889C3   		movq	%rax, %rbx
 1092              	.L52:
 1093 0753 488D8550 		leaq	-432(%rbp), %rax
 1093      FEFFFF
 1094 075a 4889C7   		movq	%rax, %rdi
 1095 075d E8000000 		call	_ZN8UnitTest15MemoryOutStreamD1Ev
 1095      00
 1096 0762 4889D8   		movq	%rbx, %rax
 1097 0765 4889C7   		movq	%rax, %rdi
 1098              	.LEHB33:
 1099 0768 E8000000 		call	_Unwind_Resume@PLT
 1099      00
 1100              	.LEHE33:
 1101              	.L57:
 1102 076d E8000000 		call	__stack_chk_fail@PLT
 1102      00
 1103              	.L53:
 1104 0772 488B5DF8 		movq	-8(%rbp), %rbx
 1105 0776 C9       		leave
 1106              		.cfi_def_cfa 7, 8
 1107 0777 C3       		ret
 1108              		.cfi_endproc
 1109              	.LFE1156:
 1110              		.section	.gcc_except_table
 1111              		.align 4
 1112              	.LLSDA1156:
 1113 009c FF       		.byte	0xff
 1114 009d 9B       		.byte	0x9b
 1115 009e 2D       		.uleb128 .LLSDATT1156-.LLSDATTD1156
 1116              	.LLSDATTD1156:
 1117 009f 01       		.byte	0x1
 1118 00a0 24       		.uleb128 .LLSDACSE1156-.LLSDACSB1156
 1119              	.LLSDACSB1156:
 1120 00a1 30       		.uleb128 .LEHB27-.LFB1156
 1121 00a2 05       		.uleb128 .LEHE27-.LEHB27
 1122 00a3 00       		.uleb128 0
 1123 00a4 00       		.uleb128 0
 1124 00a5 44       		.uleb128 .LEHB28-.LFB1156
 1125 00a6 05       		.uleb128 .LEHE28-.LEHB28
 1126 00a7 A602     		.uleb128 .L54-.LFB1156
 1127 00a9 00       		.uleb128 0
 1128 00aa 49       		.uleb128 .LEHB29-.LFB1156
 1129 00ab 55       		.uleb128 .LEHE29-.LEHB29
 1130 00ac C501     		.uleb128 .L55-.LFB1156
 1131 00ae 01       		.uleb128 0x1
 1132 00af A801     		.uleb128 .LEHB30-.LFB1156
 1133 00b1 05       		.uleb128 .LEHE30-.LEHB30
 1134 00b2 00       		.uleb128 0
 1135 00b3 00       		.uleb128 0
 1136 00b4 D101     		.uleb128 .LEHB31-.LFB1156
 1137 00b6 40       		.uleb128 .LEHE31-.LEHB31
 1138 00b7 9802     		.uleb128 .L56-.LFB1156
 1139 00b9 00       		.uleb128 0
 1140 00ba 9102     		.uleb128 .LEHB32-.LFB1156
 1141 00bc 05       		.uleb128 .LEHE32-.LEHB32
 1142 00bd A602     		.uleb128 .L54-.LFB1156
 1143 00bf 00       		.uleb128 0
 1144 00c0 C202     		.uleb128 .LEHB33-.LFB1156
 1145 00c2 05       		.uleb128 .LEHE33-.LEHB33
 1146 00c3 00       		.uleb128 0
 1147 00c4 00       		.uleb128 0
 1148              	.LLSDACSE1156:
 1149 00c5 01       		.byte	0x1
 1150 00c6 00       		.byte	0
 1151 00c7 00       		.align 4
 1152 00c8 00000000 		.long	0
 1153              	
 1154              	.LLSDATT1156:
 1155              		.text
 1157              		.section	.rodata
 1158 0224 00000000 		.align 8
 1159              	.LC19:
 1160 0228 53747265 		.string	"StreamingUnsignedIntWritesCorrectCharacters"
 1160      616D696E 
 1160      67556E73 
 1160      69676E65 
 1160      64496E74 
 1161              		.text
 1162              		.align 2
 1164              	_ZN12_GLOBAL__N_147TestStreamingUnsignedIntWritesCorrectCharactersC2Ev:
 1165              	.LFB1158:
  38:TestMemoryOutStream.cpp **** 
  39:TestMemoryOutStream.cpp **** TEST(StreamingUnsignedIntWritesCorrectCharacters)
 1166              		.loc 3 39 1
 1167              		.cfi_startproc
 1168 0778 55       		pushq	%rbp
 1169              		.cfi_def_cfa_offset 16
 1170              		.cfi_offset 6, -16
 1171 0779 4889E5   		movq	%rsp, %rbp
 1172              		.cfi_def_cfa_register 6
 1173 077c 53       		pushq	%rbx
 1174 077d 4883EC18 		subq	$24, %rsp
 1175              		.cfi_offset 3, -24
 1176 0781 48897DE8 		movq	%rdi, -24(%rbp)
 1177              	.LBB8:
 1178              		.loc 3 39 1
 1179 0785 488B5DE8 		movq	-24(%rbp), %rbx
 1180 0789 E8000000 		call	_ZN13UnitTestSuite12GetSuiteNameEv
 1180      00
 1181 078e 4889C2   		movq	%rax, %rdx
 1182 0791 41B82700 		movl	$39, %r8d
 1182      0000
 1183 0797 488D0500 		leaq	.LC1(%rip), %rax
 1183      000000
 1184 079e 4889C1   		movq	%rax, %rcx
 1185 07a1 488D0500 		leaq	.LC19(%rip), %rax
 1185      000000
 1186 07a8 4889C6   		movq	%rax, %rsi
 1187 07ab 4889DF   		movq	%rbx, %rdi
 1188 07ae E8000000 		call	_ZN8UnitTest4TestC2EPKcS2_S2_i@PLT
 1188      00
 1189 07b3 488D1500 		leaq	16+_ZTVN12_GLOBAL__N_147TestStreamingUnsignedIntWritesCorrectCharactersE(%rip), %rdx
 1189      000000
 1190 07ba 488B45E8 		movq	-24(%rbp), %rax
 1191 07be 488910   		movq	%rdx, (%rax)
 1192              	.LBE8:
 1193 07c1 90       		nop
 1194 07c2 488B5DF8 		movq	-8(%rbp), %rbx
 1195 07c6 C9       		leave
 1196              		.cfi_def_cfa 7, 8
 1197 07c7 C3       		ret
 1198              		.cfi_endproc
 1199              	.LFE1158:
 1201              		.set	_ZN12_GLOBAL__N_147TestStreamingUnsignedIntWritesCorrectCharactersC1Ev,_ZN12_GLOBAL__N_147Tes
 1202              		.local	_ZN12_GLOBAL__N_155testStreamingUnsignedIntWritesCorrectCharactersInstanceE
 1203              		.comm	_ZN12_GLOBAL__N_155testStreamingUnsignedIntWritesCorrectCharactersInstanceE,56,32
 1204              		.local	_ZN12_GLOBAL__N_148adderStreamingUnsignedIntWritesCorrectCharactersE
 1205              		.comm	_ZN12_GLOBAL__N_148adderStreamingUnsignedIntWritesCorrectCharactersE,1,1
 1206              		.align 2
 1208              	_ZNK12_GLOBAL__N_147TestStreamingUnsignedIntWritesCorrectCharacters7RunImplEv:
 1209              	.LFB1160:
  40:TestMemoryOutStream.cpp **** {
 1210              		.loc 3 40 1
 1211              		.cfi_startproc
 1212              		.cfi_personality 0x9b,DW.ref.__gxx_personality_v0
 1213              		.cfi_lsda 0x1b,.LLSDA1160
 1214 07c8 F30F1EFA 		endbr64
 1215 07cc 55       		pushq	%rbp
 1216              		.cfi_def_cfa_offset 16
 1217              		.cfi_offset 6, -16
 1218 07cd 4889E5   		movq	%rsp, %rbp
 1219              		.cfi_def_cfa_register 6
 1220 07d0 53       		pushq	%rbx
 1221 07d1 4881ECD8 		subq	$472, %rsp
 1221      010000
 1222              		.cfi_offset 3, -24
 1223 07d8 4889BD28 		movq	%rdi, -472(%rbp)
 1223      FEFFFF
 1224              		.loc 3 40 1
 1225 07df 64488B04 		movq	%fs:40, %rax
 1225      25280000 
 1225      00
 1226 07e8 488945E8 		movq	%rax, -24(%rbp)
 1227 07ec 31C0     		xorl	%eax, %eax
  41:TestMemoryOutStream.cpp ****     MemoryOutStream stream;
 1228              		.loc 3 41 21
 1229 07ee 488D8550 		leaq	-432(%rbp), %rax
 1229      FEFFFF
 1230 07f5 4889C7   		movq	%rax, %rdi
 1231              	.LEHB34:
 1232 07f8 E8000000 		call	_ZN8UnitTest15MemoryOutStreamC1Ev
 1232      00
 1233              	.LEHE34:
  42:TestMemoryOutStream.cpp ****     stream << (unsigned int)123;
 1234              		.loc 3 42 29
 1235 07fd 488D8550 		leaq	-432(%rbp), %rax
 1235      FEFFFF
 1236 0804 BE7B0000 		movl	$123, %esi
 1236      00
 1237 0809 4889C7   		movq	%rax, %rdi
 1238              	.LEHB35:
 1239 080c E8000000 		call	_ZNSolsEj@PLT
 1239      00
 1240              	.LEHE35:
 1241              	.LEHB36:
  43:TestMemoryOutStream.cpp ****     CHECK_EQUAL("123", stream.GetText());
 1242              		.loc 3 43 5
 1243 0811 E8000000 		call	_ZN8UnitTest11CurrentTest7DetailsEv@PLT
 1243      00
 1244 0816 488B08   		movq	(%rax), %rcx
 1245 0819 488D8530 		leaq	-464(%rbp), %rax
 1245      FEFFFF
 1246 0820 BA2B0000 		movl	$43, %edx
 1246      00
 1247 0825 4889CE   		movq	%rcx, %rsi
 1248 0828 4889C7   		movq	%rax, %rdi
 1249 082b E8000000 		call	_ZN8UnitTest11TestDetailsC1ERKS0_i@PLT
 1249      00
 1250              		.loc 3 43 5 is_stmt 0 discriminator 4
 1251 0830 488D8550 		leaq	-432(%rbp), %rax
 1251      FEFFFF
 1252 0837 4889C7   		movq	%rax, %rdi
 1253 083a E8000000 		call	_ZNK8UnitTest15MemoryOutStream7GetTextEv@PLT
 1253      00
 1254 083f 4889C3   		movq	%rax, %rbx
 1255 0842 E8000000 		call	_ZN8UnitTest11CurrentTest7ResultsEv@PLT
 1255      00
 1256              		.loc 3 43 5 discriminator 6
 1257 0847 488B00   		movq	(%rax), %rax
 1258 084a 488D9530 		leaq	-464(%rbp), %rdx
 1258      FEFFFF
 1259 0851 4889D1   		movq	%rdx, %rcx
 1260 0854 4889DA   		movq	%rbx, %rdx
 1261 0857 488D3500 		leaq	.LC17(%rip), %rsi
 1261      000000
 1262 085e 4889C7   		movq	%rax, %rdi
 1263 0861 E8000000 		call	_ZN8UnitTest10CheckEqualERNS_11TestResultsEPKcS3_RKNS_11TestDetailsE@PLT
 1263      00
 1264              	.LEHE36:
 1265              	.L61:
  44:TestMemoryOutStream.cpp **** }
 1266              		.loc 3 44 1 is_stmt 1
 1267 0866 488D8550 		leaq	-432(%rbp), %rax
 1267      FEFFFF
 1268 086d 4889C7   		movq	%rax, %rdi
 1269              	.LEHB37:
 1270 0870 E8000000 		call	_ZN8UnitTest15MemoryOutStreamD1Ev
 1270      00
 1271              	.LEHE37:
 1272 0875 488B45E8 		movq	-24(%rbp), %rax
 1273 0879 64482B04 		subq	%fs:40, %rax
 1273      25280000 
 1273      00
 1274 0882 0F848C00 		je	.L64
 1274      0000
 1275 0888 E9820000 		jmp	.L68
 1275      00
 1276              	.L66:
 1277 088d F30F1EFA 		endbr64
  43:TestMemoryOutStream.cpp ****     CHECK_EQUAL("123", stream.GetText());
 1278              		.loc 3 43 5
 1279 0891 4889C7   		movq	%rax, %rdi
 1280 0894 E8000000 		call	__cxa_begin_catch@PLT
 1280      00
 1281              	.LEHB38:
 1282 0899 E8000000 		call	_ZN8UnitTest11CurrentTest7ResultsEv@PLT
 1282      00
  43:TestMemoryOutStream.cpp ****     CHECK_EQUAL("123", stream.GetText());
 1283              		.loc 3 43 5 is_stmt 0 discriminator 3
 1284 089e 488B18   		movq	(%rax), %rbx
 1285 08a1 E8000000 		call	_ZN8UnitTest11CurrentTest7DetailsEv@PLT
 1285      00
  43:TestMemoryOutStream.cpp ****     CHECK_EQUAL("123", stream.GetText());
 1286              		.loc 3 43 5 discriminator 13
 1287 08a6 488B08   		movq	(%rax), %rcx
 1288 08a9 488D8530 		leaq	-464(%rbp), %rax
 1288      FEFFFF
 1289 08b0 BA2B0000 		movl	$43, %edx
 1289      00
 1290 08b5 4889CE   		movq	%rcx, %rsi
 1291 08b8 4889C7   		movq	%rax, %rdi
 1292 08bb E8000000 		call	_ZN8UnitTest11TestDetailsC1ERKS0_i@PLT
 1292      00
  43:TestMemoryOutStream.cpp ****     CHECK_EQUAL("123", stream.GetText());
 1293              		.loc 3 43 5 discriminator 17
 1294 08c0 488D8530 		leaq	-464(%rbp), %rax
 1294      FEFFFF
 1295 08c7 488D1500 		leaq	.LC18(%rip), %rdx
 1295      000000
 1296 08ce 4889C6   		movq	%rax, %rsi
 1297 08d1 4889DF   		movq	%rbx, %rdi
 1298 08d4 E8000000 		call	_ZN8UnitTest11TestResults13OnTestFailureERKNS_11TestDetailsEPKc@PLT
 1298      00
 1299              	.LEHE38:
 1300              	.LEHB39:
  43:TestMemoryOutStream.cpp ****     CHECK_EQUAL("123", stream.GetText());
 1301              		.loc 3 43 5 discriminator 19
 1302 08d9 E8000000 		call	__cxa_end_catch@PLT
 1302      00
 1303              	.LEHE39:
  43:TestMemoryOutStream.cpp ****     CHECK_EQUAL("123", stream.GetText());
 1304              		.loc 3 43 5
 1305 08de EB86     		jmp	.L61
 1306              	.L67:
 1307 08e0 F30F1EFA 		endbr64
 1308 08e4 4889C3   		movq	%rax, %rbx
 1309 08e7 E8000000 		call	__cxa_end_catch@PLT
 1309      00
 1310 08ec EB07     		jmp	.L63
 1311              	.L65:
 1312 08ee F30F1EFA 		endbr64
 1313              		.loc 3 44 1 is_stmt 1
 1314 08f2 4889C3   		movq	%rax, %rbx
 1315              	.L63:
 1316 08f5 488D8550 		leaq	-432(%rbp), %rax
 1316      FEFFFF
 1317 08fc 4889C7   		movq	%rax, %rdi
 1318 08ff E8000000 		call	_ZN8UnitTest15MemoryOutStreamD1Ev
 1318      00
 1319 0904 4889D8   		movq	%rbx, %rax
 1320 0907 4889C7   		movq	%rax, %rdi
 1321              	.LEHB40:
 1322 090a E8000000 		call	_Unwind_Resume@PLT
 1322      00
 1323              	.LEHE40:
 1324              	.L68:
 1325 090f E8000000 		call	__stack_chk_fail@PLT
 1325      00
 1326              	.L64:
 1327 0914 488B5DF8 		movq	-8(%rbp), %rbx
 1328 0918 C9       		leave
 1329              		.cfi_def_cfa 7, 8
 1330 0919 C3       		ret
 1331              		.cfi_endproc
 1332              	.LFE1160:
 1333              		.section	.gcc_except_table
 1334              		.align 4
 1335              	.LLSDA1160:
 1336 00cc FF       		.byte	0xff
 1337 00cd 9B       		.byte	0x9b
 1338 00ce 2D       		.uleb128 .LLSDATT1160-.LLSDATTD1160
 1339              	.LLSDATTD1160:
 1340 00cf 01       		.byte	0x1
 1341 00d0 24       		.uleb128 .LLSDACSE1160-.LLSDACSB1160
 1342              	.LLSDACSB1160:
 1343 00d1 30       		.uleb128 .LEHB34-.LFB1160
 1344 00d2 05       		.uleb128 .LEHE34-.LEHB34
 1345 00d3 00       		.uleb128 0
 1346 00d4 00       		.uleb128 0
 1347 00d5 44       		.uleb128 .LEHB35-.LFB1160
 1348 00d6 05       		.uleb128 .LEHE35-.LEHB35
 1349 00d7 A602     		.uleb128 .L65-.LFB1160
 1350 00d9 00       		.uleb128 0
 1351 00da 49       		.uleb128 .LEHB36-.LFB1160
 1352 00db 55       		.uleb128 .LEHE36-.LEHB36
 1353 00dc C501     		.uleb128 .L66-.LFB1160
 1354 00de 01       		.uleb128 0x1
 1355 00df A801     		.uleb128 .LEHB37-.LFB1160
 1356 00e1 05       		.uleb128 .LEHE37-.LEHB37
 1357 00e2 00       		.uleb128 0
 1358 00e3 00       		.uleb128 0
 1359 00e4 D101     		.uleb128 .LEHB38-.LFB1160
 1360 00e6 40       		.uleb128 .LEHE38-.LEHB38
 1361 00e7 9802     		.uleb128 .L67-.LFB1160
 1362 00e9 00       		.uleb128 0
 1363 00ea 9102     		.uleb128 .LEHB39-.LFB1160
 1364 00ec 05       		.uleb128 .LEHE39-.LEHB39
 1365 00ed A602     		.uleb128 .L65-.LFB1160
 1366 00ef 00       		.uleb128 0
 1367 00f0 C202     		.uleb128 .LEHB40-.LFB1160
 1368 00f2 05       		.uleb128 .LEHE40-.LEHB40
 1369 00f3 00       		.uleb128 0
 1370 00f4 00       		.uleb128 0
 1371              	.LLSDACSE1160:
 1372 00f5 01       		.byte	0x1
 1373 00f6 00       		.byte	0
 1374 00f7 00       		.align 4
 1375 00f8 00000000 		.long	0
 1376              	
 1377              	.LLSDATT1160:
 1378              		.text
 1380              		.section	.rodata
 1381 0254 00000000 		.align 8
 1382              	.LC20:
 1383 0258 53747265 		.string	"StreamingLongWritesCorrectCharacters"
 1383      616D696E 
 1383      674C6F6E 
 1383      67577269 
 1383      74657343 
 1384              		.text
 1385              		.align 2
 1387              	_ZN12_GLOBAL__N_140TestStreamingLongWritesCorrectCharactersC2Ev:
 1388              	.LFB1162:
  45:TestMemoryOutStream.cpp **** 
  46:TestMemoryOutStream.cpp **** TEST(StreamingLongWritesCorrectCharacters)
 1389              		.loc 3 46 1
 1390              		.cfi_startproc
 1391 091a 55       		pushq	%rbp
 1392              		.cfi_def_cfa_offset 16
 1393              		.cfi_offset 6, -16
 1394 091b 4889E5   		movq	%rsp, %rbp
 1395              		.cfi_def_cfa_register 6
 1396 091e 53       		pushq	%rbx
 1397 091f 4883EC18 		subq	$24, %rsp
 1398              		.cfi_offset 3, -24
 1399 0923 48897DE8 		movq	%rdi, -24(%rbp)
 1400              	.LBB9:
 1401              		.loc 3 46 1
 1402 0927 488B5DE8 		movq	-24(%rbp), %rbx
 1403 092b E8000000 		call	_ZN13UnitTestSuite12GetSuiteNameEv
 1403      00
 1404 0930 4889C2   		movq	%rax, %rdx
 1405 0933 41B82E00 		movl	$46, %r8d
 1405      0000
 1406 0939 488D0500 		leaq	.LC1(%rip), %rax
 1406      000000
 1407 0940 4889C1   		movq	%rax, %rcx
 1408 0943 488D0500 		leaq	.LC20(%rip), %rax
 1408      000000
 1409 094a 4889C6   		movq	%rax, %rsi
 1410 094d 4889DF   		movq	%rbx, %rdi
 1411 0950 E8000000 		call	_ZN8UnitTest4TestC2EPKcS2_S2_i@PLT
 1411      00
 1412 0955 488D1500 		leaq	16+_ZTVN12_GLOBAL__N_140TestStreamingLongWritesCorrectCharactersE(%rip), %rdx
 1412      000000
 1413 095c 488B45E8 		movq	-24(%rbp), %rax
 1414 0960 488910   		movq	%rdx, (%rax)
 1415              	.LBE9:
 1416 0963 90       		nop
 1417 0964 488B5DF8 		movq	-8(%rbp), %rbx
 1418 0968 C9       		leave
 1419              		.cfi_def_cfa 7, 8
 1420 0969 C3       		ret
 1421              		.cfi_endproc
 1422              	.LFE1162:
 1424              		.set	_ZN12_GLOBAL__N_140TestStreamingLongWritesCorrectCharactersC1Ev,_ZN12_GLOBAL__N_140TestStream
 1425              		.local	_ZN12_GLOBAL__N_148testStreamingLongWritesCorrectCharactersInstanceE
 1426              		.comm	_ZN12_GLOBAL__N_148testStreamingLongWritesCorrectCharactersInstanceE,56,32
 1427              		.local	_ZN12_GLOBAL__N_141adderStreamingLongWritesCorrectCharactersE
 1428              		.comm	_ZN12_GLOBAL__N_141adderStreamingLongWritesCorrectCharactersE,1,1
 1429              		.section	.rodata
 1430              	.LC21:
 1431 027d 2D313233 		.string	"-123"
 1431      00
 1432 0282 00000000 		.align 8
 1432      0000
 1433              	.LC22:
 1434 0288 556E6861 		.string	"Unhandled exception in CHECK_EQUAL(\"-123\", stream.GetText())"
 1434      6E646C65 
 1434      64206578 
 1434      63657074 
 1434      696F6E20 
 1435              		.text
 1436              		.align 2
 1438              	_ZNK12_GLOBAL__N_140TestStreamingLongWritesCorrectCharacters7RunImplEv:
 1439              	.LFB1164:
  47:TestMemoryOutStream.cpp **** {
 1440              		.loc 3 47 1
 1441              		.cfi_startproc
 1442              		.cfi_personality 0x9b,DW.ref.__gxx_personality_v0
 1443              		.cfi_lsda 0x1b,.LLSDA1164
 1444 096a F30F1EFA 		endbr64
 1445 096e 55       		pushq	%rbp
 1446              		.cfi_def_cfa_offset 16
 1447              		.cfi_offset 6, -16
 1448 096f 4889E5   		movq	%rsp, %rbp
 1449              		.cfi_def_cfa_register 6
 1450 0972 53       		pushq	%rbx
 1451 0973 4881ECD8 		subq	$472, %rsp
 1451      010000
 1452              		.cfi_offset 3, -24
 1453 097a 4889BD28 		movq	%rdi, -472(%rbp)
 1453      FEFFFF
 1454              		.loc 3 47 1
 1455 0981 64488B04 		movq	%fs:40, %rax
 1455      25280000 
 1455      00
 1456 098a 488945E8 		movq	%rax, -24(%rbp)
 1457 098e 31C0     		xorl	%eax, %eax
  48:TestMemoryOutStream.cpp ****     MemoryOutStream stream;
 1458              		.loc 3 48 21
 1459 0990 488D8550 		leaq	-432(%rbp), %rax
 1459      FEFFFF
 1460 0997 4889C7   		movq	%rax, %rdi
 1461              	.LEHB41:
 1462 099a E8000000 		call	_ZN8UnitTest15MemoryOutStreamC1Ev
 1462      00
 1463              	.LEHE41:
  49:TestMemoryOutStream.cpp ****     stream << (long)(-123);
 1464              		.loc 3 49 26
 1465 099f 488D8550 		leaq	-432(%rbp), %rax
 1465      FEFFFF
 1466 09a6 48C7C685 		movq	$-123, %rsi
 1466      FFFFFF
 1467 09ad 4889C7   		movq	%rax, %rdi
 1468              	.LEHB42:
 1469 09b0 E8000000 		call	_ZNSolsEl@PLT
 1469      00
 1470              	.LEHE42:
 1471              	.LEHB43:
  50:TestMemoryOutStream.cpp ****     CHECK_EQUAL("-123", stream.GetText());
 1472              		.loc 3 50 5
 1473 09b5 E8000000 		call	_ZN8UnitTest11CurrentTest7DetailsEv@PLT
 1473      00
 1474 09ba 488B08   		movq	(%rax), %rcx
 1475 09bd 488D8530 		leaq	-464(%rbp), %rax
 1475      FEFFFF
 1476 09c4 BA320000 		movl	$50, %edx
 1476      00
 1477 09c9 4889CE   		movq	%rcx, %rsi
 1478 09cc 4889C7   		movq	%rax, %rdi
 1479 09cf E8000000 		call	_ZN8UnitTest11TestDetailsC1ERKS0_i@PLT
 1479      00
 1480              		.loc 3 50 5 is_stmt 0 discriminator 4
 1481 09d4 488D8550 		leaq	-432(%rbp), %rax
 1481      FEFFFF
 1482 09db 4889C7   		movq	%rax, %rdi
 1483 09de E8000000 		call	_ZNK8UnitTest15MemoryOutStream7GetTextEv@PLT
 1483      00
 1484 09e3 4889C3   		movq	%rax, %rbx
 1485 09e6 E8000000 		call	_ZN8UnitTest11CurrentTest7ResultsEv@PLT
 1485      00
 1486              		.loc 3 50 5 discriminator 6
 1487 09eb 488B00   		movq	(%rax), %rax
 1488 09ee 488D9530 		leaq	-464(%rbp), %rdx
 1488      FEFFFF
 1489 09f5 4889D1   		movq	%rdx, %rcx
 1490 09f8 4889DA   		movq	%rbx, %rdx
 1491 09fb 488D3500 		leaq	.LC21(%rip), %rsi
 1491      000000
 1492 0a02 4889C7   		movq	%rax, %rdi
 1493 0a05 E8000000 		call	_ZN8UnitTest10CheckEqualERNS_11TestResultsEPKcS3_RKNS_11TestDetailsE@PLT
 1493      00
 1494              	.LEHE43:
 1495              	.L72:
  51:TestMemoryOutStream.cpp **** }
 1496              		.loc 3 51 1 is_stmt 1
 1497 0a0a 488D8550 		leaq	-432(%rbp), %rax
 1497      FEFFFF
 1498 0a11 4889C7   		movq	%rax, %rdi
 1499              	.LEHB44:
 1500 0a14 E8000000 		call	_ZN8UnitTest15MemoryOutStreamD1Ev
 1500      00
 1501              	.LEHE44:
 1502 0a19 488B45E8 		movq	-24(%rbp), %rax
 1503 0a1d 64482B04 		subq	%fs:40, %rax
 1503      25280000 
 1503      00
 1504 0a26 0F848C00 		je	.L75
 1504      0000
 1505 0a2c E9820000 		jmp	.L79
 1505      00
 1506              	.L77:
 1507 0a31 F30F1EFA 		endbr64
  50:TestMemoryOutStream.cpp ****     CHECK_EQUAL("-123", stream.GetText());
 1508              		.loc 3 50 5
 1509 0a35 4889C7   		movq	%rax, %rdi
 1510 0a38 E8000000 		call	__cxa_begin_catch@PLT
 1510      00
 1511              	.LEHB45:
 1512 0a3d E8000000 		call	_ZN8UnitTest11CurrentTest7ResultsEv@PLT
 1512      00
  50:TestMemoryOutStream.cpp ****     CHECK_EQUAL("-123", stream.GetText());
 1513              		.loc 3 50 5 is_stmt 0 discriminator 3
 1514 0a42 488B18   		movq	(%rax), %rbx
 1515 0a45 E8000000 		call	_ZN8UnitTest11CurrentTest7DetailsEv@PLT
 1515      00
  50:TestMemoryOutStream.cpp ****     CHECK_EQUAL("-123", stream.GetText());
 1516              		.loc 3 50 5 discriminator 13
 1517 0a4a 488B08   		movq	(%rax), %rcx
 1518 0a4d 488D8530 		leaq	-464(%rbp), %rax
 1518      FEFFFF
 1519 0a54 BA320000 		movl	$50, %edx
 1519      00
 1520 0a59 4889CE   		movq	%rcx, %rsi
 1521 0a5c 4889C7   		movq	%rax, %rdi
 1522 0a5f E8000000 		call	_ZN8UnitTest11TestDetailsC1ERKS0_i@PLT
 1522      00
  50:TestMemoryOutStream.cpp ****     CHECK_EQUAL("-123", stream.GetText());
 1523              		.loc 3 50 5 discriminator 17
 1524 0a64 488D8530 		leaq	-464(%rbp), %rax
 1524      FEFFFF
 1525 0a6b 488D1500 		leaq	.LC22(%rip), %rdx
 1525      000000
 1526 0a72 4889C6   		movq	%rax, %rsi
 1527 0a75 4889DF   		movq	%rbx, %rdi
 1528 0a78 E8000000 		call	_ZN8UnitTest11TestResults13OnTestFailureERKNS_11TestDetailsEPKc@PLT
 1528      00
 1529              	.LEHE45:
 1530              	.LEHB46:
  50:TestMemoryOutStream.cpp ****     CHECK_EQUAL("-123", stream.GetText());
 1531              		.loc 3 50 5 discriminator 19
 1532 0a7d E8000000 		call	__cxa_end_catch@PLT
 1532      00
 1533              	.LEHE46:
  50:TestMemoryOutStream.cpp ****     CHECK_EQUAL("-123", stream.GetText());
 1534              		.loc 3 50 5
 1535 0a82 EB86     		jmp	.L72
 1536              	.L78:
 1537 0a84 F30F1EFA 		endbr64
 1538 0a88 4889C3   		movq	%rax, %rbx
 1539 0a8b E8000000 		call	__cxa_end_catch@PLT
 1539      00
 1540 0a90 EB07     		jmp	.L74
 1541              	.L76:
 1542 0a92 F30F1EFA 		endbr64
 1543              		.loc 3 51 1 is_stmt 1
 1544 0a96 4889C3   		movq	%rax, %rbx
 1545              	.L74:
 1546 0a99 488D8550 		leaq	-432(%rbp), %rax
 1546      FEFFFF
 1547 0aa0 4889C7   		movq	%rax, %rdi
 1548 0aa3 E8000000 		call	_ZN8UnitTest15MemoryOutStreamD1Ev
 1548      00
 1549 0aa8 4889D8   		movq	%rbx, %rax
 1550 0aab 4889C7   		movq	%rax, %rdi
 1551              	.LEHB47:
 1552 0aae E8000000 		call	_Unwind_Resume@PLT
 1552      00
 1553              	.LEHE47:
 1554              	.L79:
 1555 0ab3 E8000000 		call	__stack_chk_fail@PLT
 1555      00
 1556              	.L75:
 1557 0ab8 488B5DF8 		movq	-8(%rbp), %rbx
 1558 0abc C9       		leave
 1559              		.cfi_def_cfa 7, 8
 1560 0abd C3       		ret
 1561              		.cfi_endproc
 1562              	.LFE1164:
 1563              		.section	.gcc_except_table
 1564              		.align 4
 1565              	.LLSDA1164:
 1566 00fc FF       		.byte	0xff
 1567 00fd 9B       		.byte	0x9b
 1568 00fe 2D       		.uleb128 .LLSDATT1164-.LLSDATTD1164
 1569              	.LLSDATTD1164:
 1570 00ff 01       		.byte	0x1
 1571 0100 24       		.uleb128 .LLSDACSE1164-.LLSDACSB1164
 1572              	.LLSDACSB1164:
 1573 0101 30       		.uleb128 .LEHB41-.LFB1164
 1574 0102 05       		.uleb128 .LEHE41-.LEHB41
 1575 0103 00       		.uleb128 0
 1576 0104 00       		.uleb128 0
 1577 0105 46       		.uleb128 .LEHB42-.LFB1164
 1578 0106 05       		.uleb128 .LEHE42-.LEHB42
 1579 0107 A802     		.uleb128 .L76-.LFB1164
 1580 0109 00       		.uleb128 0
 1581 010a 4B       		.uleb128 .LEHB43-.LFB1164
 1582 010b 55       		.uleb128 .LEHE43-.LEHB43
 1583 010c C701     		.uleb128 .L77-.LFB1164
 1584 010e 01       		.uleb128 0x1
 1585 010f AA01     		.uleb128 .LEHB44-.LFB1164
 1586 0111 05       		.uleb128 .LEHE44-.LEHB44
 1587 0112 00       		.uleb128 0
 1588 0113 00       		.uleb128 0
 1589 0114 D301     		.uleb128 .LEHB45-.LFB1164
 1590 0116 40       		.uleb128 .LEHE45-.LEHB45
 1591 0117 9A02     		.uleb128 .L78-.LFB1164
 1592 0119 00       		.uleb128 0
 1593 011a 9302     		.uleb128 .LEHB46-.LFB1164
 1594 011c 05       		.uleb128 .LEHE46-.LEHB46
 1595 011d A802     		.uleb128 .L76-.LFB1164
 1596 011f 00       		.uleb128 0
 1597 0120 C402     		.uleb128 .LEHB47-.LFB1164
 1598 0122 05       		.uleb128 .LEHE47-.LEHB47
 1599 0123 00       		.uleb128 0
 1600 0124 00       		.uleb128 0
 1601              	.LLSDACSE1164:
 1602 0125 01       		.byte	0x1
 1603 0126 00       		.byte	0
 1604 0127 00       		.align 4
 1605 0128 00000000 		.long	0
 1606              	
 1607              	.LLSDATT1164:
 1608              		.text
 1610              		.section	.rodata
 1611 02c5 000000   		.align 8
 1612              	.LC23:
 1613 02c8 53747265 		.string	"StreamingUnsignedLongWritesCorrectCharacters"
 1613      616D696E 
 1613      67556E73 
 1613      69676E65 
 1613      644C6F6E 
 1614              		.text
 1615              		.align 2
 1617              	_ZN12_GLOBAL__N_148TestStreamingUnsignedLongWritesCorrectCharactersC2Ev:
 1618              	.LFB1166:
  52:TestMemoryOutStream.cpp **** 
  53:TestMemoryOutStream.cpp **** TEST(StreamingUnsignedLongWritesCorrectCharacters)
 1619              		.loc 3 53 1
 1620              		.cfi_startproc
 1621 0abe 55       		pushq	%rbp
 1622              		.cfi_def_cfa_offset 16
 1623              		.cfi_offset 6, -16
 1624 0abf 4889E5   		movq	%rsp, %rbp
 1625              		.cfi_def_cfa_register 6
 1626 0ac2 53       		pushq	%rbx
 1627 0ac3 4883EC18 		subq	$24, %rsp
 1628              		.cfi_offset 3, -24
 1629 0ac7 48897DE8 		movq	%rdi, -24(%rbp)
 1630              	.LBB10:
 1631              		.loc 3 53 1
 1632 0acb 488B5DE8 		movq	-24(%rbp), %rbx
 1633 0acf E8000000 		call	_ZN13UnitTestSuite12GetSuiteNameEv
 1633      00
 1634 0ad4 4889C2   		movq	%rax, %rdx
 1635 0ad7 41B83500 		movl	$53, %r8d
 1635      0000
 1636 0add 488D0500 		leaq	.LC1(%rip), %rax
 1636      000000
 1637 0ae4 4889C1   		movq	%rax, %rcx
 1638 0ae7 488D0500 		leaq	.LC23(%rip), %rax
 1638      000000
 1639 0aee 4889C6   		movq	%rax, %rsi
 1640 0af1 4889DF   		movq	%rbx, %rdi
 1641 0af4 E8000000 		call	_ZN8UnitTest4TestC2EPKcS2_S2_i@PLT
 1641      00
 1642 0af9 488D1500 		leaq	16+_ZTVN12_GLOBAL__N_148TestStreamingUnsignedLongWritesCorrectCharactersE(%rip), %rdx
 1642      000000
 1643 0b00 488B45E8 		movq	-24(%rbp), %rax
 1644 0b04 488910   		movq	%rdx, (%rax)
 1645              	.LBE10:
 1646 0b07 90       		nop
 1647 0b08 488B5DF8 		movq	-8(%rbp), %rbx
 1648 0b0c C9       		leave
 1649              		.cfi_def_cfa 7, 8
 1650 0b0d C3       		ret
 1651              		.cfi_endproc
 1652              	.LFE1166:
 1654              		.set	_ZN12_GLOBAL__N_148TestStreamingUnsignedLongWritesCorrectCharactersC1Ev,_ZN12_GLOBAL__N_148Te
 1655              		.local	_ZN12_GLOBAL__N_156testStreamingUnsignedLongWritesCorrectCharactersInstanceE
 1656              		.comm	_ZN12_GLOBAL__N_156testStreamingUnsignedLongWritesCorrectCharactersInstanceE,56,32
 1657              		.local	_ZN12_GLOBAL__N_149adderStreamingUnsignedLongWritesCorrectCharactersE
 1658              		.comm	_ZN12_GLOBAL__N_149adderStreamingUnsignedLongWritesCorrectCharactersE,1,1
 1659              		.align 2
 1661              	_ZNK12_GLOBAL__N_148TestStreamingUnsignedLongWritesCorrectCharacters7RunImplEv:
 1662              	.LFB1168:
  54:TestMemoryOutStream.cpp **** {
 1663              		.loc 3 54 1
 1664              		.cfi_startproc
 1665              		.cfi_personality 0x9b,DW.ref.__gxx_personality_v0
 1666              		.cfi_lsda 0x1b,.LLSDA1168
 1667 0b0e F30F1EFA 		endbr64
 1668 0b12 55       		pushq	%rbp
 1669              		.cfi_def_cfa_offset 16
 1670              		.cfi_offset 6, -16
 1671 0b13 4889E5   		movq	%rsp, %rbp
 1672              		.cfi_def_cfa_register 6
 1673 0b16 53       		pushq	%rbx
 1674 0b17 4881ECD8 		subq	$472, %rsp
 1674      010000
 1675              		.cfi_offset 3, -24
 1676 0b1e 4889BD28 		movq	%rdi, -472(%rbp)
 1676      FEFFFF
 1677              		.loc 3 54 1
 1678 0b25 64488B04 		movq	%fs:40, %rax
 1678      25280000 
 1678      00
 1679 0b2e 488945E8 		movq	%rax, -24(%rbp)
 1680 0b32 31C0     		xorl	%eax, %eax
  55:TestMemoryOutStream.cpp ****     MemoryOutStream stream;
 1681              		.loc 3 55 21
 1682 0b34 488D8550 		leaq	-432(%rbp), %rax
 1682      FEFFFF
 1683 0b3b 4889C7   		movq	%rax, %rdi
 1684              	.LEHB48:
 1685 0b3e E8000000 		call	_ZN8UnitTest15MemoryOutStreamC1Ev
 1685      00
 1686              	.LEHE48:
  56:TestMemoryOutStream.cpp ****     stream << (unsigned long)123;
 1687              		.loc 3 56 30
 1688 0b43 488D8550 		leaq	-432(%rbp), %rax
 1688      FEFFFF
 1689 0b4a BE7B0000 		movl	$123, %esi
 1689      00
 1690 0b4f 4889C7   		movq	%rax, %rdi
 1691              	.LEHB49:
 1692 0b52 E8000000 		call	_ZNSolsEm@PLT
 1692      00
 1693              	.LEHE49:
 1694              	.LEHB50:
  57:TestMemoryOutStream.cpp ****     CHECK_EQUAL("123", stream.GetText());
 1695              		.loc 3 57 5
 1696 0b57 E8000000 		call	_ZN8UnitTest11CurrentTest7DetailsEv@PLT
 1696      00
 1697 0b5c 488B08   		movq	(%rax), %rcx
 1698 0b5f 488D8530 		leaq	-464(%rbp), %rax
 1698      FEFFFF
 1699 0b66 BA390000 		movl	$57, %edx
 1699      00
 1700 0b6b 4889CE   		movq	%rcx, %rsi
 1701 0b6e 4889C7   		movq	%rax, %rdi
 1702 0b71 E8000000 		call	_ZN8UnitTest11TestDetailsC1ERKS0_i@PLT
 1702      00
 1703              		.loc 3 57 5 is_stmt 0 discriminator 4
 1704 0b76 488D8550 		leaq	-432(%rbp), %rax
 1704      FEFFFF
 1705 0b7d 4889C7   		movq	%rax, %rdi
 1706 0b80 E8000000 		call	_ZNK8UnitTest15MemoryOutStream7GetTextEv@PLT
 1706      00
 1707 0b85 4889C3   		movq	%rax, %rbx
 1708 0b88 E8000000 		call	_ZN8UnitTest11CurrentTest7ResultsEv@PLT
 1708      00
 1709              		.loc 3 57 5 discriminator 6
 1710 0b8d 488B00   		movq	(%rax), %rax
 1711 0b90 488D9530 		leaq	-464(%rbp), %rdx
 1711      FEFFFF
 1712 0b97 4889D1   		movq	%rdx, %rcx
 1713 0b9a 4889DA   		movq	%rbx, %rdx
 1714 0b9d 488D3500 		leaq	.LC17(%rip), %rsi
 1714      000000
 1715 0ba4 4889C7   		movq	%rax, %rdi
 1716 0ba7 E8000000 		call	_ZN8UnitTest10CheckEqualERNS_11TestResultsEPKcS3_RKNS_11TestDetailsE@PLT
 1716      00
 1717              	.LEHE50:
 1718              	.L83:
  58:TestMemoryOutStream.cpp **** }
 1719              		.loc 3 58 1 is_stmt 1
 1720 0bac 488D8550 		leaq	-432(%rbp), %rax
 1720      FEFFFF
 1721 0bb3 4889C7   		movq	%rax, %rdi
 1722              	.LEHB51:
 1723 0bb6 E8000000 		call	_ZN8UnitTest15MemoryOutStreamD1Ev
 1723      00
 1724              	.LEHE51:
 1725 0bbb 488B45E8 		movq	-24(%rbp), %rax
 1726 0bbf 64482B04 		subq	%fs:40, %rax
 1726      25280000 
 1726      00
 1727 0bc8 0F848C00 		je	.L86
 1727      0000
 1728 0bce E9820000 		jmp	.L90
 1728      00
 1729              	.L88:
 1730 0bd3 F30F1EFA 		endbr64
  57:TestMemoryOutStream.cpp ****     CHECK_EQUAL("123", stream.GetText());
 1731              		.loc 3 57 5
 1732 0bd7 4889C7   		movq	%rax, %rdi
 1733 0bda E8000000 		call	__cxa_begin_catch@PLT
 1733      00
 1734              	.LEHB52:
 1735 0bdf E8000000 		call	_ZN8UnitTest11CurrentTest7ResultsEv@PLT
 1735      00
  57:TestMemoryOutStream.cpp ****     CHECK_EQUAL("123", stream.GetText());
 1736              		.loc 3 57 5 is_stmt 0 discriminator 3
 1737 0be4 488B18   		movq	(%rax), %rbx
 1738 0be7 E8000000 		call	_ZN8UnitTest11CurrentTest7DetailsEv@PLT
 1738      00
  57:TestMemoryOutStream.cpp ****     CHECK_EQUAL("123", stream.GetText());
 1739              		.loc 3 57 5 discriminator 13
 1740 0bec 488B08   		movq	(%rax), %rcx
 1741 0bef 488D8530 		leaq	-464(%rbp), %rax
 1741      FEFFFF
 1742 0bf6 BA390000 		movl	$57, %edx
 1742      00
 1743 0bfb 4889CE   		movq	%rcx, %rsi
 1744 0bfe 4889C7   		movq	%rax, %rdi
 1745 0c01 E8000000 		call	_ZN8UnitTest11TestDetailsC1ERKS0_i@PLT
 1745      00
  57:TestMemoryOutStream.cpp ****     CHECK_EQUAL("123", stream.GetText());
 1746              		.loc 3 57 5 discriminator 17
 1747 0c06 488D8530 		leaq	-464(%rbp), %rax
 1747      FEFFFF
 1748 0c0d 488D1500 		leaq	.LC18(%rip), %rdx
 1748      000000
 1749 0c14 4889C6   		movq	%rax, %rsi
 1750 0c17 4889DF   		movq	%rbx, %rdi
 1751 0c1a E8000000 		call	_ZN8UnitTest11TestResults13OnTestFailureERKNS_11TestDetailsEPKc@PLT
 1751      00
 1752              	.LEHE52:
 1753              	.LEHB53:
  57:TestMemoryOutStream.cpp ****     CHECK_EQUAL("123", stream.GetText());
 1754              		.loc 3 57 5 discriminator 19
 1755 0c1f E8000000 		call	__cxa_end_catch@PLT
 1755      00
 1756              	.LEHE53:
  57:TestMemoryOutStream.cpp ****     CHECK_EQUAL("123", stream.GetText());
 1757              		.loc 3 57 5
 1758 0c24 EB86     		jmp	.L83
 1759              	.L89:
 1760 0c26 F30F1EFA 		endbr64
 1761 0c2a 4889C3   		movq	%rax, %rbx
 1762 0c2d E8000000 		call	__cxa_end_catch@PLT
 1762      00
 1763 0c32 EB07     		jmp	.L85
 1764              	.L87:
 1765 0c34 F30F1EFA 		endbr64
 1766              		.loc 3 58 1 is_stmt 1
 1767 0c38 4889C3   		movq	%rax, %rbx
 1768              	.L85:
 1769 0c3b 488D8550 		leaq	-432(%rbp), %rax
 1769      FEFFFF
 1770 0c42 4889C7   		movq	%rax, %rdi
 1771 0c45 E8000000 		call	_ZN8UnitTest15MemoryOutStreamD1Ev
 1771      00
 1772 0c4a 4889D8   		movq	%rbx, %rax
 1773 0c4d 4889C7   		movq	%rax, %rdi
 1774              	.LEHB54:
 1775 0c50 E8000000 		call	_Unwind_Resume@PLT
 1775      00
 1776              	.LEHE54:
 1777              	.L90:
 1778 0c55 E8000000 		call	__stack_chk_fail@PLT
 1778      00
 1779              	.L86:
 1780 0c5a 488B5DF8 		movq	-8(%rbp), %rbx
 1781 0c5e C9       		leave
 1782              		.cfi_def_cfa 7, 8
 1783 0c5f C3       		ret
 1784              		.cfi_endproc
 1785              	.LFE1168:
 1786              		.section	.gcc_except_table
 1787              		.align 4
 1788              	.LLSDA1168:
 1789 012c FF       		.byte	0xff
 1790 012d 9B       		.byte	0x9b
 1791 012e 2D       		.uleb128 .LLSDATT1168-.LLSDATTD1168
 1792              	.LLSDATTD1168:
 1793 012f 01       		.byte	0x1
 1794 0130 24       		.uleb128 .LLSDACSE1168-.LLSDACSB1168
 1795              	.LLSDACSB1168:
 1796 0131 30       		.uleb128 .LEHB48-.LFB1168
 1797 0132 05       		.uleb128 .LEHE48-.LEHB48
 1798 0133 00       		.uleb128 0
 1799 0134 00       		.uleb128 0
 1800 0135 44       		.uleb128 .LEHB49-.LFB1168
 1801 0136 05       		.uleb128 .LEHE49-.LEHB49
 1802 0137 A602     		.uleb128 .L87-.LFB1168
 1803 0139 00       		.uleb128 0
 1804 013a 49       		.uleb128 .LEHB50-.LFB1168
 1805 013b 55       		.uleb128 .LEHE50-.LEHB50
 1806 013c C501     		.uleb128 .L88-.LFB1168
 1807 013e 01       		.uleb128 0x1
 1808 013f A801     		.uleb128 .LEHB51-.LFB1168
 1809 0141 05       		.uleb128 .LEHE51-.LEHB51
 1810 0142 00       		.uleb128 0
 1811 0143 00       		.uleb128 0
 1812 0144 D101     		.uleb128 .LEHB52-.LFB1168
 1813 0146 40       		.uleb128 .LEHE52-.LEHB52
 1814 0147 9802     		.uleb128 .L89-.LFB1168
 1815 0149 00       		.uleb128 0
 1816 014a 9102     		.uleb128 .LEHB53-.LFB1168
 1817 014c 05       		.uleb128 .LEHE53-.LEHB53
 1818 014d A602     		.uleb128 .L87-.LFB1168
 1819 014f 00       		.uleb128 0
 1820 0150 C202     		.uleb128 .LEHB54-.LFB1168
 1821 0152 05       		.uleb128 .LEHE54-.LEHB54
 1822 0153 00       		.uleb128 0
 1823 0154 00       		.uleb128 0
 1824              	.LLSDACSE1168:
 1825 0155 01       		.byte	0x1
 1826 0156 00       		.byte	0
 1827 0157 00       		.align 4
 1828 0158 00000000 		.long	0
 1829              	
 1830              	.LLSDATT1168:
 1831              		.text
 1833              		.section	.rodata
 1834 02f5 000000   		.align 8
 1835              	.LC24:
 1836 02f8 53747265 		.string	"StreamingFloatWritesCorrectCharacters"
 1836      616D696E 
 1836      67466C6F 
 1836      61745772 
 1836      69746573 
 1837              		.text
 1838              		.align 2
 1840              	_ZN12_GLOBAL__N_141TestStreamingFloatWritesCorrectCharactersC2Ev:
 1841              	.LFB1170:
  59:TestMemoryOutStream.cpp **** 
  60:TestMemoryOutStream.cpp **** TEST(StreamingFloatWritesCorrectCharacters)
 1842              		.loc 3 60 1
 1843              		.cfi_startproc
 1844 0c60 55       		pushq	%rbp
 1845              		.cfi_def_cfa_offset 16
 1846              		.cfi_offset 6, -16
 1847 0c61 4889E5   		movq	%rsp, %rbp
 1848              		.cfi_def_cfa_register 6
 1849 0c64 53       		pushq	%rbx
 1850 0c65 4883EC18 		subq	$24, %rsp
 1851              		.cfi_offset 3, -24
 1852 0c69 48897DE8 		movq	%rdi, -24(%rbp)
 1853              	.LBB11:
 1854              		.loc 3 60 1
 1855 0c6d 488B5DE8 		movq	-24(%rbp), %rbx
 1856 0c71 E8000000 		call	_ZN13UnitTestSuite12GetSuiteNameEv
 1856      00
 1857 0c76 4889C2   		movq	%rax, %rdx
 1858 0c79 41B83C00 		movl	$60, %r8d
 1858      0000
 1859 0c7f 488D0500 		leaq	.LC1(%rip), %rax
 1859      000000
 1860 0c86 4889C1   		movq	%rax, %rcx
 1861 0c89 488D0500 		leaq	.LC24(%rip), %rax
 1861      000000
 1862 0c90 4889C6   		movq	%rax, %rsi
 1863 0c93 4889DF   		movq	%rbx, %rdi
 1864 0c96 E8000000 		call	_ZN8UnitTest4TestC2EPKcS2_S2_i@PLT
 1864      00
 1865 0c9b 488D1500 		leaq	16+_ZTVN12_GLOBAL__N_141TestStreamingFloatWritesCorrectCharactersE(%rip), %rdx
 1865      000000
 1866 0ca2 488B45E8 		movq	-24(%rbp), %rax
 1867 0ca6 488910   		movq	%rdx, (%rax)
 1868              	.LBE11:
 1869 0ca9 90       		nop
 1870 0caa 488B5DF8 		movq	-8(%rbp), %rbx
 1871 0cae C9       		leave
 1872              		.cfi_def_cfa 7, 8
 1873 0caf C3       		ret
 1874              		.cfi_endproc
 1875              	.LFE1170:
 1877              		.set	_ZN12_GLOBAL__N_141TestStreamingFloatWritesCorrectCharactersC1Ev,_ZN12_GLOBAL__N_141TestStrea
 1878              		.local	_ZN12_GLOBAL__N_149testStreamingFloatWritesCorrectCharactersInstanceE
 1879              		.comm	_ZN12_GLOBAL__N_149testStreamingFloatWritesCorrectCharactersInstanceE,56,32
 1880              		.local	_ZN12_GLOBAL__N_142adderStreamingFloatWritesCorrectCharactersE
 1881              		.comm	_ZN12_GLOBAL__N_142adderStreamingFloatWritesCorrectCharactersE,1,1
 1882              		.section	.rodata
 1883              	.LC26:
 1884 031e 332E3134 		.string	"3.1415"
 1884      313500
 1885 0325 000000   		.align 8
 1886              	.LC27:
 1887 0328 73747273 		.string	"strstr(stream.GetText(), \"3.1415\")"
 1887      74722873 
 1887      74726561 
 1887      6D2E4765 
 1887      74546578 
 1888 034b 00000000 		.align 8
 1888      00
 1889              	.LC28:
 1890 0350 556E6861 		.string	"Unhandled exception in CHECK(strstr(stream.GetText(), \"3.1415\"))"
 1890      6E646C65 
 1890      64206578 
 1890      63657074 
 1890      696F6E20 
 1891              		.text
 1892              		.align 2
 1894              	_ZNK12_GLOBAL__N_141TestStreamingFloatWritesCorrectCharacters7RunImplEv:
 1895              	.LFB1172:
  61:TestMemoryOutStream.cpp **** {
 1896              		.loc 3 61 1
 1897              		.cfi_startproc
 1898              		.cfi_personality 0x9b,DW.ref.__gxx_personality_v0
 1899              		.cfi_lsda 0x1b,.LLSDA1172
 1900 0cb0 F30F1EFA 		endbr64
 1901 0cb4 55       		pushq	%rbp
 1902              		.cfi_def_cfa_offset 16
 1903              		.cfi_offset 6, -16
 1904 0cb5 4889E5   		movq	%rsp, %rbp
 1905              		.cfi_def_cfa_register 6
 1906 0cb8 53       		pushq	%rbx
 1907 0cb9 4881ECD8 		subq	$472, %rsp
 1907      010000
 1908              		.cfi_offset 3, -24
 1909 0cc0 4889BD28 		movq	%rdi, -472(%rbp)
 1909      FEFFFF
 1910              		.loc 3 61 1
 1911 0cc7 64488B04 		movq	%fs:40, %rax
 1911      25280000 
 1911      00
 1912 0cd0 488945E8 		movq	%rax, -24(%rbp)
 1913 0cd4 31C0     		xorl	%eax, %eax
  62:TestMemoryOutStream.cpp ****     MemoryOutStream stream;
 1914              		.loc 3 62 21
 1915 0cd6 488D8550 		leaq	-432(%rbp), %rax
 1915      FEFFFF
 1916 0cdd 4889C7   		movq	%rax, %rdi
 1917              	.LEHB55:
 1918 0ce0 E8000000 		call	_ZN8UnitTest15MemoryOutStreamC1Ev
 1918      00
 1919              	.LEHE55:
  63:TestMemoryOutStream.cpp ****     stream << 3.1415f;
 1920              		.loc 3 63 15
 1921 0ce5 488D8550 		leaq	-432(%rbp), %rax
 1921      FEFFFF
 1922 0cec 8B150000 		movl	.LC25(%rip), %edx
 1922      0000
 1923 0cf2 660F6EC2 		movd	%edx, %xmm0
 1924 0cf6 4889C7   		movq	%rax, %rdi
 1925              	.LEHB56:
 1926 0cf9 E8000000 		call	_ZNSolsEf@PLT
 1926      00
 1927              	.LEHE56:
  64:TestMemoryOutStream.cpp **** 	CHECK(strstr(stream.GetText(), "3.1415"));
 1928              		.loc 3 64 2
 1929 0cfe 488D8550 		leaq	-432(%rbp), %rax
 1929      FEFFFF
 1930 0d05 4889C7   		movq	%rax, %rdi
 1931              	.LEHB57:
 1932 0d08 E8000000 		call	_ZNK8UnitTest15MemoryOutStream7GetTextEv@PLT
 1932      00
 1933 0d0d 4889C2   		movq	%rax, %rdx
 1934 0d10 488D0500 		leaq	.LC26(%rip), %rax
 1934      000000
 1935 0d17 4889C6   		movq	%rax, %rsi
 1936 0d1a 4889D7   		movq	%rdx, %rdi
 1937 0d1d E8000000 		call	strstr@PLT
 1937      00
 1938 0d22 4889C7   		movq	%rax, %rdi
 1939 0d25 E8000000 		call	_ZN8UnitTest5CheckIPKcEEbT_
 1939      00
 1940 0d2a 83F001   		xorl	$1, %eax
 1941 0d2d 84C0     		testb	%al, %al
 1942 0d2f 7440     		je	.L93
 1943              		.loc 3 64 2 is_stmt 0 discriminator 3
 1944 0d31 E8000000 		call	_ZN8UnitTest11CurrentTest7ResultsEv@PLT
 1944      00
 1945 0d36 488B18   		movq	(%rax), %rbx
 1946 0d39 E8000000 		call	_ZN8UnitTest11CurrentTest7DetailsEv@PLT
 1946      00
 1947              		.loc 3 64 2 discriminator 5
 1948 0d3e 488B08   		movq	(%rax), %rcx
 1949 0d41 488D8530 		leaq	-464(%rbp), %rax
 1949      FEFFFF
 1950 0d48 BA400000 		movl	$64, %edx
 1950      00
 1951 0d4d 4889CE   		movq	%rcx, %rsi
 1952 0d50 4889C7   		movq	%rax, %rdi
 1953 0d53 E8000000 		call	_ZN8UnitTest11TestDetailsC1ERKS0_i@PLT
 1953      00
 1954              		.loc 3 64 2 discriminator 9
 1955 0d58 488D8530 		leaq	-464(%rbp), %rax
 1955      FEFFFF
 1956 0d5f 488D1500 		leaq	.LC27(%rip), %rdx
 1956      000000
 1957 0d66 4889C6   		movq	%rax, %rsi
 1958 0d69 4889DF   		movq	%rbx, %rdi
 1959 0d6c E8000000 		call	_ZN8UnitTest11TestResults13OnTestFailureERKNS_11TestDetailsEPKc@PLT
 1959      00
 1960              	.LEHE57:
 1961              	.L93:
  65:TestMemoryOutStream.cpp **** }
 1962              		.loc 3 65 1 is_stmt 1
 1963 0d71 488D8550 		leaq	-432(%rbp), %rax
 1963      FEFFFF
 1964 0d78 4889C7   		movq	%rax, %rdi
 1965              	.LEHB58:
 1966 0d7b E8000000 		call	_ZN8UnitTest15MemoryOutStreamD1Ev
 1966      00
 1967              	.LEHE58:
 1968 0d80 488B45E8 		movq	-24(%rbp), %rax
 1969 0d84 64482B04 		subq	%fs:40, %rax
 1969      25280000 
 1969      00
 1970 0d8d 0F848C00 		je	.L97
 1970      0000
 1971 0d93 E9820000 		jmp	.L101
 1971      00
 1972              	.L99:
 1973 0d98 F30F1EFA 		endbr64
  64:TestMemoryOutStream.cpp **** 	CHECK(strstr(stream.GetText(), "3.1415"));
 1974              		.loc 3 64 2
 1975 0d9c 4889C7   		movq	%rax, %rdi
 1976 0d9f E8000000 		call	__cxa_begin_catch@PLT
 1976      00
 1977              	.LEHB59:
 1978 0da4 E8000000 		call	_ZN8UnitTest11CurrentTest7ResultsEv@PLT
 1978      00
  64:TestMemoryOutStream.cpp **** 	CHECK(strstr(stream.GetText(), "3.1415"));
 1979              		.loc 3 64 2 is_stmt 0 discriminator 8
 1980 0da9 488B18   		movq	(%rax), %rbx
 1981 0dac E8000000 		call	_ZN8UnitTest11CurrentTest7DetailsEv@PLT
 1981      00
  64:TestMemoryOutStream.cpp **** 	CHECK(strstr(stream.GetText(), "3.1415"));
 1982              		.loc 3 64 2 discriminator 14
 1983 0db1 488B08   		movq	(%rax), %rcx
 1984 0db4 488D8530 		leaq	-464(%rbp), %rax
 1984      FEFFFF
 1985 0dbb BA400000 		movl	$64, %edx
 1985      00
 1986 0dc0 4889CE   		movq	%rcx, %rsi
 1987 0dc3 4889C7   		movq	%rax, %rdi
 1988 0dc6 E8000000 		call	_ZN8UnitTest11TestDetailsC1ERKS0_i@PLT
 1988      00
  64:TestMemoryOutStream.cpp **** 	CHECK(strstr(stream.GetText(), "3.1415"));
 1989              		.loc 3 64 2 discriminator 18
 1990 0dcb 488D8530 		leaq	-464(%rbp), %rax
 1990      FEFFFF
 1991 0dd2 488D1500 		leaq	.LC28(%rip), %rdx
 1991      000000
 1992 0dd9 4889C6   		movq	%rax, %rsi
 1993 0ddc 4889DF   		movq	%rbx, %rdi
 1994 0ddf E8000000 		call	_ZN8UnitTest11TestResults13OnTestFailureERKNS_11TestDetailsEPKc@PLT
 1994      00
 1995              	.LEHE59:
 1996              	.LEHB60:
  64:TestMemoryOutStream.cpp **** 	CHECK(strstr(stream.GetText(), "3.1415"));
 1997              		.loc 3 64 2 discriminator 20
 1998 0de4 E8000000 		call	__cxa_end_catch@PLT
 1998      00
 1999              	.LEHE60:
  64:TestMemoryOutStream.cpp **** 	CHECK(strstr(stream.GetText(), "3.1415"));
 2000              		.loc 3 64 2
 2001 0de9 EB86     		jmp	.L93
 2002              	.L100:
 2003 0deb F30F1EFA 		endbr64
 2004 0def 4889C3   		movq	%rax, %rbx
 2005 0df2 E8000000 		call	__cxa_end_catch@PLT
 2005      00
 2006 0df7 EB07     		jmp	.L96
 2007              	.L98:
 2008 0df9 F30F1EFA 		endbr64
 2009              		.loc 3 65 1 is_stmt 1
 2010 0dfd 4889C3   		movq	%rax, %rbx
 2011              	.L96:
 2012 0e00 488D8550 		leaq	-432(%rbp), %rax
 2012      FEFFFF
 2013 0e07 4889C7   		movq	%rax, %rdi
 2014 0e0a E8000000 		call	_ZN8UnitTest15MemoryOutStreamD1Ev
 2014      00
 2015 0e0f 4889D8   		movq	%rbx, %rax
 2016 0e12 4889C7   		movq	%rax, %rdi
 2017              	.LEHB61:
 2018 0e15 E8000000 		call	_Unwind_Resume@PLT
 2018      00
 2019              	.LEHE61:
 2020              	.L101:
 2021 0e1a E8000000 		call	__stack_chk_fail@PLT
 2021      00
 2022              	.L97:
 2023 0e1f 488B5DF8 		movq	-8(%rbp), %rbx
 2024 0e23 C9       		leave
 2025              		.cfi_def_cfa 7, 8
 2026 0e24 C3       		ret
 2027              		.cfi_endproc
 2028              	.LFE1172:
 2029              		.section	.gcc_except_table
 2030              		.align 4
 2031              	.LLSDA1172:
 2032 015c FF       		.byte	0xff
 2033 015d 9B       		.byte	0x9b
 2034 015e 2D       		.uleb128 .LLSDATT1172-.LLSDATTD1172
 2035              	.LLSDATTD1172:
 2036 015f 01       		.byte	0x1
 2037 0160 24       		.uleb128 .LLSDACSE1172-.LLSDACSB1172
 2038              	.LLSDACSB1172:
 2039 0161 30       		.uleb128 .LEHB55-.LFB1172
 2040 0162 05       		.uleb128 .LEHE55-.LEHB55
 2041 0163 00       		.uleb128 0
 2042 0164 00       		.uleb128 0
 2043 0165 49       		.uleb128 .LEHB56-.LFB1172
 2044 0166 05       		.uleb128 .LEHE56-.LEHB56
 2045 0167 C902     		.uleb128 .L98-.LFB1172
 2046 0169 00       		.uleb128 0
 2047 016a 58       		.uleb128 .LEHB57-.LFB1172
 2048 016b 69       		.uleb128 .LEHE57-.LEHB57
 2049 016c E801     		.uleb128 .L99-.LFB1172
 2050 016e 01       		.uleb128 0x1
 2051 016f CB01     		.uleb128 .LEHB58-.LFB1172
 2052 0171 05       		.uleb128 .LEHE58-.LEHB58
 2053 0172 00       		.uleb128 0
 2054 0173 00       		.uleb128 0
 2055 0174 F401     		.uleb128 .LEHB59-.LFB1172
 2056 0176 40       		.uleb128 .LEHE59-.LEHB59
 2057 0177 BB02     		.uleb128 .L100-.LFB1172
 2058 0179 00       		.uleb128 0
 2059 017a B402     		.uleb128 .LEHB60-.LFB1172
 2060 017c 05       		.uleb128 .LEHE60-.LEHB60
 2061 017d C902     		.uleb128 .L98-.LFB1172
 2062 017f 00       		.uleb128 0
 2063 0180 E502     		.uleb128 .LEHB61-.LFB1172
 2064 0182 05       		.uleb128 .LEHE61-.LEHB61
 2065 0183 00       		.uleb128 0
 2066 0184 00       		.uleb128 0
 2067              	.LLSDACSE1172:
 2068 0185 01       		.byte	0x1
 2069 0186 00       		.byte	0
 2070 0187 00       		.align 4
 2071 0188 00000000 		.long	0
 2072              	
 2073              	.LLSDATT1172:
 2074              		.text
 2076              		.section	.rodata
 2077 0391 00000000 		.align 8
 2077      000000
 2078              	.LC29:
 2079 0398 53747265 		.string	"StreamingDoubleWritesCorrectCharacters"
 2079      616D696E 
 2079      67446F75 
 2079      626C6557 
 2079      72697465 
 2080              		.text
 2081 0e25 90       		.align 2
 2083              	_ZN12_GLOBAL__N_142TestStreamingDoubleWritesCorrectCharactersC2Ev:
 2084              	.LFB1174:
  66:TestMemoryOutStream.cpp **** 
  67:TestMemoryOutStream.cpp **** TEST(StreamingDoubleWritesCorrectCharacters)
 2085              		.loc 3 67 1
 2086              		.cfi_startproc
 2087 0e26 55       		pushq	%rbp
 2088              		.cfi_def_cfa_offset 16
 2089              		.cfi_offset 6, -16
 2090 0e27 4889E5   		movq	%rsp, %rbp
 2091              		.cfi_def_cfa_register 6
 2092 0e2a 53       		pushq	%rbx
 2093 0e2b 4883EC18 		subq	$24, %rsp
 2094              		.cfi_offset 3, -24
 2095 0e2f 48897DE8 		movq	%rdi, -24(%rbp)
 2096              	.LBB12:
 2097              		.loc 3 67 1
 2098 0e33 488B5DE8 		movq	-24(%rbp), %rbx
 2099 0e37 E8000000 		call	_ZN13UnitTestSuite12GetSuiteNameEv
 2099      00
 2100 0e3c 4889C2   		movq	%rax, %rdx
 2101 0e3f 41B84300 		movl	$67, %r8d
 2101      0000
 2102 0e45 488D0500 		leaq	.LC1(%rip), %rax
 2102      000000
 2103 0e4c 4889C1   		movq	%rax, %rcx
 2104 0e4f 488D0500 		leaq	.LC29(%rip), %rax
 2104      000000
 2105 0e56 4889C6   		movq	%rax, %rsi
 2106 0e59 4889DF   		movq	%rbx, %rdi
 2107 0e5c E8000000 		call	_ZN8UnitTest4TestC2EPKcS2_S2_i@PLT
 2107      00
 2108 0e61 488D1500 		leaq	16+_ZTVN12_GLOBAL__N_142TestStreamingDoubleWritesCorrectCharactersE(%rip), %rdx
 2108      000000
 2109 0e68 488B45E8 		movq	-24(%rbp), %rax
 2110 0e6c 488910   		movq	%rdx, (%rax)
 2111              	.LBE12:
 2112 0e6f 90       		nop
 2113 0e70 488B5DF8 		movq	-8(%rbp), %rbx
 2114 0e74 C9       		leave
 2115              		.cfi_def_cfa 7, 8
 2116 0e75 C3       		ret
 2117              		.cfi_endproc
 2118              	.LFE1174:
 2120              		.set	_ZN12_GLOBAL__N_142TestStreamingDoubleWritesCorrectCharactersC1Ev,_ZN12_GLOBAL__N_142TestStre
 2121              		.local	_ZN12_GLOBAL__N_150testStreamingDoubleWritesCorrectCharactersInstanceE
 2122              		.comm	_ZN12_GLOBAL__N_150testStreamingDoubleWritesCorrectCharactersInstanceE,56,32
 2123              		.local	_ZN12_GLOBAL__N_143adderStreamingDoubleWritesCorrectCharactersE
 2124              		.comm	_ZN12_GLOBAL__N_143adderStreamingDoubleWritesCorrectCharactersE,1,1
 2125              		.align 2
 2127              	_ZNK12_GLOBAL__N_142TestStreamingDoubleWritesCorrectCharacters7RunImplEv:
 2128              	.LFB1176:
  68:TestMemoryOutStream.cpp **** {
 2129              		.loc 3 68 1
 2130              		.cfi_startproc
 2131              		.cfi_personality 0x9b,DW.ref.__gxx_personality_v0
 2132              		.cfi_lsda 0x1b,.LLSDA1176
 2133 0e76 F30F1EFA 		endbr64
 2134 0e7a 55       		pushq	%rbp
 2135              		.cfi_def_cfa_offset 16
 2136              		.cfi_offset 6, -16
 2137 0e7b 4889E5   		movq	%rsp, %rbp
 2138              		.cfi_def_cfa_register 6
 2139 0e7e 53       		pushq	%rbx
 2140 0e7f 4881ECD8 		subq	$472, %rsp
 2140      010000
 2141              		.cfi_offset 3, -24
 2142 0e86 4889BD28 		movq	%rdi, -472(%rbp)
 2142      FEFFFF
 2143              		.loc 3 68 1
 2144 0e8d 64488B04 		movq	%fs:40, %rax
 2144      25280000 
 2144      00
 2145 0e96 488945E8 		movq	%rax, -24(%rbp)
 2146 0e9a 31C0     		xorl	%eax, %eax
  69:TestMemoryOutStream.cpp **** 	MemoryOutStream stream;
 2147              		.loc 3 69 18
 2148 0e9c 488D8550 		leaq	-432(%rbp), %rax
 2148      FEFFFF
 2149 0ea3 4889C7   		movq	%rax, %rdi
 2150              	.LEHB62:
 2151 0ea6 E8000000 		call	_ZN8UnitTest15MemoryOutStreamC1Ev
 2151      00
 2152              	.LEHE62:
  70:TestMemoryOutStream.cpp **** 	stream << 3.1415;
 2153              		.loc 3 70 12
 2154 0eab 488B1500 		movq	.LC30(%rip), %rdx
 2154      000000
 2155 0eb2 488D8550 		leaq	-432(%rbp), %rax
 2155      FEFFFF
 2156 0eb9 66480F6E 		movq	%rdx, %xmm0
 2156      C2
 2157 0ebe 4889C7   		movq	%rax, %rdi
 2158              	.LEHB63:
 2159 0ec1 E8000000 		call	_ZNSolsEd@PLT
 2159      00
 2160              	.LEHE63:
  71:TestMemoryOutStream.cpp **** 	CHECK(strstr(stream.GetText(), "3.1415"));
 2161              		.loc 3 71 2
 2162 0ec6 488D8550 		leaq	-432(%rbp), %rax
 2162      FEFFFF
 2163 0ecd 4889C7   		movq	%rax, %rdi
 2164              	.LEHB64:
 2165 0ed0 E8000000 		call	_ZNK8UnitTest15MemoryOutStream7GetTextEv@PLT
 2165      00
 2166 0ed5 4889C2   		movq	%rax, %rdx
 2167 0ed8 488D0500 		leaq	.LC26(%rip), %rax
 2167      000000
 2168 0edf 4889C6   		movq	%rax, %rsi
 2169 0ee2 4889D7   		movq	%rdx, %rdi
 2170 0ee5 E8000000 		call	strstr@PLT
 2170      00
 2171 0eea 4889C7   		movq	%rax, %rdi
 2172 0eed E8000000 		call	_ZN8UnitTest5CheckIPKcEEbT_
 2172      00
 2173 0ef2 83F001   		xorl	$1, %eax
 2174 0ef5 84C0     		testb	%al, %al
 2175 0ef7 7440     		je	.L104
 2176              		.loc 3 71 2 is_stmt 0 discriminator 3
 2177 0ef9 E8000000 		call	_ZN8UnitTest11CurrentTest7ResultsEv@PLT
 2177      00
 2178 0efe 488B18   		movq	(%rax), %rbx
 2179 0f01 E8000000 		call	_ZN8UnitTest11CurrentTest7DetailsEv@PLT
 2179      00
 2180              		.loc 3 71 2 discriminator 5
 2181 0f06 488B08   		movq	(%rax), %rcx
 2182 0f09 488D8530 		leaq	-464(%rbp), %rax
 2182      FEFFFF
 2183 0f10 BA470000 		movl	$71, %edx
 2183      00
 2184 0f15 4889CE   		movq	%rcx, %rsi
 2185 0f18 4889C7   		movq	%rax, %rdi
 2186 0f1b E8000000 		call	_ZN8UnitTest11TestDetailsC1ERKS0_i@PLT
 2186      00
 2187              		.loc 3 71 2 discriminator 9
 2188 0f20 488D8530 		leaq	-464(%rbp), %rax
 2188      FEFFFF
 2189 0f27 488D1500 		leaq	.LC27(%rip), %rdx
 2189      000000
 2190 0f2e 4889C6   		movq	%rax, %rsi
 2191 0f31 4889DF   		movq	%rbx, %rdi
 2192 0f34 E8000000 		call	_ZN8UnitTest11TestResults13OnTestFailureERKNS_11TestDetailsEPKc@PLT
 2192      00
 2193              	.LEHE64:
 2194              	.L104:
  72:TestMemoryOutStream.cpp **** }
 2195              		.loc 3 72 1 is_stmt 1
 2196 0f39 488D8550 		leaq	-432(%rbp), %rax
 2196      FEFFFF
 2197 0f40 4889C7   		movq	%rax, %rdi
 2198              	.LEHB65:
 2199 0f43 E8000000 		call	_ZN8UnitTest15MemoryOutStreamD1Ev
 2199      00
 2200              	.LEHE65:
 2201 0f48 488B45E8 		movq	-24(%rbp), %rax
 2202 0f4c 64482B04 		subq	%fs:40, %rax
 2202      25280000 
 2202      00
 2203 0f55 0F848C00 		je	.L108
 2203      0000
 2204 0f5b E9820000 		jmp	.L112
 2204      00
 2205              	.L110:
 2206 0f60 F30F1EFA 		endbr64
  71:TestMemoryOutStream.cpp **** 	CHECK(strstr(stream.GetText(), "3.1415"));
 2207              		.loc 3 71 2
 2208 0f64 4889C7   		movq	%rax, %rdi
 2209 0f67 E8000000 		call	__cxa_begin_catch@PLT
 2209      00
 2210              	.LEHB66:
 2211 0f6c E8000000 		call	_ZN8UnitTest11CurrentTest7ResultsEv@PLT
 2211      00
  71:TestMemoryOutStream.cpp **** 	CHECK(strstr(stream.GetText(), "3.1415"));
 2212              		.loc 3 71 2 is_stmt 0 discriminator 8
 2213 0f71 488B18   		movq	(%rax), %rbx
 2214 0f74 E8000000 		call	_ZN8UnitTest11CurrentTest7DetailsEv@PLT
 2214      00
  71:TestMemoryOutStream.cpp **** 	CHECK(strstr(stream.GetText(), "3.1415"));
 2215              		.loc 3 71 2 discriminator 14
 2216 0f79 488B08   		movq	(%rax), %rcx
 2217 0f7c 488D8530 		leaq	-464(%rbp), %rax
 2217      FEFFFF
 2218 0f83 BA470000 		movl	$71, %edx
 2218      00
 2219 0f88 4889CE   		movq	%rcx, %rsi
 2220 0f8b 4889C7   		movq	%rax, %rdi
 2221 0f8e E8000000 		call	_ZN8UnitTest11TestDetailsC1ERKS0_i@PLT
 2221      00
  71:TestMemoryOutStream.cpp **** 	CHECK(strstr(stream.GetText(), "3.1415"));
 2222              		.loc 3 71 2 discriminator 18
 2223 0f93 488D8530 		leaq	-464(%rbp), %rax
 2223      FEFFFF
 2224 0f9a 488D1500 		leaq	.LC28(%rip), %rdx
 2224      000000
 2225 0fa1 4889C6   		movq	%rax, %rsi
 2226 0fa4 4889DF   		movq	%rbx, %rdi
 2227 0fa7 E8000000 		call	_ZN8UnitTest11TestResults13OnTestFailureERKNS_11TestDetailsEPKc@PLT
 2227      00
 2228              	.LEHE66:
 2229              	.LEHB67:
  71:TestMemoryOutStream.cpp **** 	CHECK(strstr(stream.GetText(), "3.1415"));
 2230              		.loc 3 71 2 discriminator 20
 2231 0fac E8000000 		call	__cxa_end_catch@PLT
 2231      00
 2232              	.LEHE67:
  71:TestMemoryOutStream.cpp **** 	CHECK(strstr(stream.GetText(), "3.1415"));
 2233              		.loc 3 71 2
 2234 0fb1 EB86     		jmp	.L104
 2235              	.L111:
 2236 0fb3 F30F1EFA 		endbr64
 2237 0fb7 4889C3   		movq	%rax, %rbx
 2238 0fba E8000000 		call	__cxa_end_catch@PLT
 2238      00
 2239 0fbf EB07     		jmp	.L107
 2240              	.L109:
 2241 0fc1 F30F1EFA 		endbr64
 2242              		.loc 3 72 1 is_stmt 1
 2243 0fc5 4889C3   		movq	%rax, %rbx
 2244              	.L107:
 2245 0fc8 488D8550 		leaq	-432(%rbp), %rax
 2245      FEFFFF
 2246 0fcf 4889C7   		movq	%rax, %rdi
 2247 0fd2 E8000000 		call	_ZN8UnitTest15MemoryOutStreamD1Ev
 2247      00
 2248 0fd7 4889D8   		movq	%rbx, %rax
 2249 0fda 4889C7   		movq	%rax, %rdi
 2250              	.LEHB68:
 2251 0fdd E8000000 		call	_Unwind_Resume@PLT
 2251      00
 2252              	.LEHE68:
 2253              	.L112:
 2254 0fe2 E8000000 		call	__stack_chk_fail@PLT
 2254      00
 2255              	.L108:
 2256 0fe7 488B5DF8 		movq	-8(%rbp), %rbx
 2257 0feb C9       		leave
 2258              		.cfi_def_cfa 7, 8
 2259 0fec C3       		ret
 2260              		.cfi_endproc
 2261              	.LFE1176:
 2262              		.section	.gcc_except_table
 2263              		.align 4
 2264              	.LLSDA1176:
 2265 018c FF       		.byte	0xff
 2266 018d 9B       		.byte	0x9b
 2267 018e 2D       		.uleb128 .LLSDATT1176-.LLSDATTD1176
 2268              	.LLSDATTD1176:
 2269 018f 01       		.byte	0x1
 2270 0190 24       		.uleb128 .LLSDACSE1176-.LLSDACSB1176
 2271              	.LLSDACSB1176:
 2272 0191 30       		.uleb128 .LEHB62-.LFB1176
 2273 0192 05       		.uleb128 .LEHE62-.LEHB62
 2274 0193 00       		.uleb128 0
 2275 0194 00       		.uleb128 0
 2276 0195 4B       		.uleb128 .LEHB63-.LFB1176
 2277 0196 05       		.uleb128 .LEHE63-.LEHB63
 2278 0197 CB02     		.uleb128 .L109-.LFB1176
 2279 0199 00       		.uleb128 0
 2280 019a 5A       		.uleb128 .LEHB64-.LFB1176
 2281 019b 69       		.uleb128 .LEHE64-.LEHB64
 2282 019c EA01     		.uleb128 .L110-.LFB1176
 2283 019e 01       		.uleb128 0x1
 2284 019f CD01     		.uleb128 .LEHB65-.LFB1176
 2285 01a1 05       		.uleb128 .LEHE65-.LEHB65
 2286 01a2 00       		.uleb128 0
 2287 01a3 00       		.uleb128 0
 2288 01a4 F601     		.uleb128 .LEHB66-.LFB1176
 2289 01a6 40       		.uleb128 .LEHE66-.LEHB66
 2290 01a7 BD02     		.uleb128 .L111-.LFB1176
 2291 01a9 00       		.uleb128 0
 2292 01aa B602     		.uleb128 .LEHB67-.LFB1176
 2293 01ac 05       		.uleb128 .LEHE67-.LEHB67
 2294 01ad CB02     		.uleb128 .L109-.LFB1176
 2295 01af 00       		.uleb128 0
 2296 01b0 E702     		.uleb128 .LEHB68-.LFB1176
 2297 01b2 05       		.uleb128 .LEHE68-.LEHB68
 2298 01b3 00       		.uleb128 0
 2299 01b4 00       		.uleb128 0
 2300              	.LLSDACSE1176:
 2301 01b5 01       		.byte	0x1
 2302 01b6 00       		.byte	0
 2303 01b7 00       		.align 4
 2304 01b8 00000000 		.long	0
 2305              	
 2306              	.LLSDATT1176:
 2307              		.text
 2309              		.section	.rodata
 2310 03bf 00       		.align 8
 2311              	.LC31:
 2312 03c0 53747265 		.string	"StreamingPointerWritesCorrectCharacters"
 2312      616D696E 
 2312      67506F69 
 2312      6E746572 
 2312      57726974 
 2313              		.text
 2314 0fed 90       		.align 2
 2316              	_ZN12_GLOBAL__N_143TestStreamingPointerWritesCorrectCharactersC2Ev:
 2317              	.LFB1178:
  73:TestMemoryOutStream.cpp **** 
  74:TestMemoryOutStream.cpp **** TEST(StreamingPointerWritesCorrectCharacters)
 2318              		.loc 3 74 1
 2319              		.cfi_startproc
 2320 0fee 55       		pushq	%rbp
 2321              		.cfi_def_cfa_offset 16
 2322              		.cfi_offset 6, -16
 2323 0fef 4889E5   		movq	%rsp, %rbp
 2324              		.cfi_def_cfa_register 6
 2325 0ff2 53       		pushq	%rbx
 2326 0ff3 4883EC18 		subq	$24, %rsp
 2327              		.cfi_offset 3, -24
 2328 0ff7 48897DE8 		movq	%rdi, -24(%rbp)
 2329              	.LBB13:
 2330              		.loc 3 74 1
 2331 0ffb 488B5DE8 		movq	-24(%rbp), %rbx
 2332 0fff E8000000 		call	_ZN13UnitTestSuite12GetSuiteNameEv
 2332      00
 2333 1004 4889C2   		movq	%rax, %rdx
 2334 1007 41B84A00 		movl	$74, %r8d
 2334      0000
 2335 100d 488D0500 		leaq	.LC1(%rip), %rax
 2335      000000
 2336 1014 4889C1   		movq	%rax, %rcx
 2337 1017 488D0500 		leaq	.LC31(%rip), %rax
 2337      000000
 2338 101e 4889C6   		movq	%rax, %rsi
 2339 1021 4889DF   		movq	%rbx, %rdi
 2340 1024 E8000000 		call	_ZN8UnitTest4TestC2EPKcS2_S2_i@PLT
 2340      00
 2341 1029 488D1500 		leaq	16+_ZTVN12_GLOBAL__N_143TestStreamingPointerWritesCorrectCharactersE(%rip), %rdx
 2341      000000
 2342 1030 488B45E8 		movq	-24(%rbp), %rax
 2343 1034 488910   		movq	%rdx, (%rax)
 2344              	.LBE13:
 2345 1037 90       		nop
 2346 1038 488B5DF8 		movq	-8(%rbp), %rbx
 2347 103c C9       		leave
 2348              		.cfi_def_cfa 7, 8
 2349 103d C3       		ret
 2350              		.cfi_endproc
 2351              	.LFE1178:
 2353              		.set	_ZN12_GLOBAL__N_143TestStreamingPointerWritesCorrectCharactersC1Ev,_ZN12_GLOBAL__N_143TestStr
 2354              		.local	_ZN12_GLOBAL__N_151testStreamingPointerWritesCorrectCharactersInstanceE
 2355              		.comm	_ZN12_GLOBAL__N_151testStreamingPointerWritesCorrectCharactersInstanceE,56,32
 2356              		.local	_ZN12_GLOBAL__N_144adderStreamingPointerWritesCorrectCharactersE
 2357              		.comm	_ZN12_GLOBAL__N_144adderStreamingPointerWritesCorrectCharactersE,1,1
 2358              		.section	.rodata
 2359              	.LC32:
 2360 03e8 31323334 		.string	"1234"
 2360      00
 2361 03ed 000000   		.align 8
 2362              	.LC33:
 2363 03f0 73747273 		.string	"strstr(stream.GetText(), \"1234\")"
 2363      74722873 
 2363      74726561 
 2363      6D2E4765 
 2363      74546578 
 2364 0411 00000000 		.align 8
 2364      000000
 2365              	.LC34:
 2366 0418 556E6861 		.string	"Unhandled exception in CHECK(strstr(stream.GetText(), \"1234\"))"
 2366      6E646C65 
 2366      64206578 
 2366      63657074 
 2366      696F6E20 
 2367              		.text
 2368              		.align 2
 2370              	_ZNK12_GLOBAL__N_143TestStreamingPointerWritesCorrectCharacters7RunImplEv:
 2371              	.LFB1180:
  75:TestMemoryOutStream.cpp **** {
 2372              		.loc 3 75 1
 2373              		.cfi_startproc
 2374              		.cfi_personality 0x9b,DW.ref.__gxx_personality_v0
 2375              		.cfi_lsda 0x1b,.LLSDA1180
 2376 103e F30F1EFA 		endbr64
 2377 1042 55       		pushq	%rbp
 2378              		.cfi_def_cfa_offset 16
 2379              		.cfi_offset 6, -16
 2380 1043 4889E5   		movq	%rsp, %rbp
 2381              		.cfi_def_cfa_register 6
 2382 1046 53       		pushq	%rbx
 2383 1047 4881ECE8 		subq	$488, %rsp
 2383      010000
 2384              		.cfi_offset 3, -24
 2385 104e 4889BD18 		movq	%rdi, -488(%rbp)
 2385      FEFFFF
 2386              		.loc 3 75 1
 2387 1055 64488B04 		movq	%fs:40, %rax
 2387      25280000 
 2387      00
 2388 105e 488945E8 		movq	%rax, -24(%rbp)
 2389 1062 31C0     		xorl	%eax, %eax
  76:TestMemoryOutStream.cpp ****     MemoryOutStream stream;
 2390              		.loc 3 76 21
 2391 1064 488D8550 		leaq	-432(%rbp), %rax
 2391      FEFFFF
 2392 106b 4889C7   		movq	%rax, %rdi
 2393              	.LEHB69:
 2394 106e E8000000 		call	_ZN8UnitTest15MemoryOutStreamC1Ev
 2394      00
 2395              	.LEHE69:
  77:TestMemoryOutStream.cpp ****     int* p = (int*)0x1234;
 2396              		.loc 3 77 10
 2397 1073 48C78528 		movq	$4660, -472(%rbp)
 2397      FEFFFF34 
 2397      120000
  78:TestMemoryOutStream.cpp ****     stream << p;
 2398              		.loc 3 78 15
 2399 107e 488B9528 		movq	-472(%rbp), %rdx
 2399      FEFFFF
 2400 1085 488D8550 		leaq	-432(%rbp), %rax
 2400      FEFFFF
 2401 108c 4889D6   		movq	%rdx, %rsi
 2402 108f 4889C7   		movq	%rax, %rdi
 2403              	.LEHB70:
 2404 1092 E8000000 		call	_ZNSolsEPKv@PLT
 2404      00
 2405              	.LEHE70:
  79:TestMemoryOutStream.cpp ****     CHECK(strstr(stream.GetText(), "1234"));
 2406              		.loc 3 79 5
 2407 1097 488D8550 		leaq	-432(%rbp), %rax
 2407      FEFFFF
 2408 109e 4889C7   		movq	%rax, %rdi
 2409              	.LEHB71:
 2410 10a1 E8000000 		call	_ZNK8UnitTest15MemoryOutStream7GetTextEv@PLT
 2410      00
 2411 10a6 4889C2   		movq	%rax, %rdx
 2412 10a9 488D0500 		leaq	.LC32(%rip), %rax
 2412      000000
 2413 10b0 4889C6   		movq	%rax, %rsi
 2414 10b3 4889D7   		movq	%rdx, %rdi
 2415 10b6 E8000000 		call	strstr@PLT
 2415      00
 2416 10bb 4889C7   		movq	%rax, %rdi
 2417 10be E8000000 		call	_ZN8UnitTest5CheckIPKcEEbT_
 2417      00
 2418 10c3 83F001   		xorl	$1, %eax
 2419 10c6 84C0     		testb	%al, %al
 2420 10c8 7440     		je	.L115
 2421              		.loc 3 79 5 is_stmt 0 discriminator 3
 2422 10ca E8000000 		call	_ZN8UnitTest11CurrentTest7ResultsEv@PLT
 2422      00
 2423 10cf 488B18   		movq	(%rax), %rbx
 2424 10d2 E8000000 		call	_ZN8UnitTest11CurrentTest7DetailsEv@PLT
 2424      00
 2425              		.loc 3 79 5 discriminator 5
 2426 10d7 488B08   		movq	(%rax), %rcx
 2427 10da 488D8530 		leaq	-464(%rbp), %rax
 2427      FEFFFF
 2428 10e1 BA4F0000 		movl	$79, %edx
 2428      00
 2429 10e6 4889CE   		movq	%rcx, %rsi
 2430 10e9 4889C7   		movq	%rax, %rdi
 2431 10ec E8000000 		call	_ZN8UnitTest11TestDetailsC1ERKS0_i@PLT
 2431      00
 2432              		.loc 3 79 5 discriminator 9
 2433 10f1 488D8530 		leaq	-464(%rbp), %rax
 2433      FEFFFF
 2434 10f8 488D1500 		leaq	.LC33(%rip), %rdx
 2434      000000
 2435 10ff 4889C6   		movq	%rax, %rsi
 2436 1102 4889DF   		movq	%rbx, %rdi
 2437 1105 E8000000 		call	_ZN8UnitTest11TestResults13OnTestFailureERKNS_11TestDetailsEPKc@PLT
 2437      00
 2438              	.LEHE71:
 2439              	.L115:
  80:TestMemoryOutStream.cpp **** }
 2440              		.loc 3 80 1 is_stmt 1
 2441 110a 488D8550 		leaq	-432(%rbp), %rax
 2441      FEFFFF
 2442 1111 4889C7   		movq	%rax, %rdi
 2443              	.LEHB72:
 2444 1114 E8000000 		call	_ZN8UnitTest15MemoryOutStreamD1Ev
 2444      00
 2445              	.LEHE72:
 2446 1119 488B45E8 		movq	-24(%rbp), %rax
 2447 111d 64482B04 		subq	%fs:40, %rax
 2447      25280000 
 2447      00
 2448 1126 0F848C00 		je	.L119
 2448      0000
 2449 112c E9820000 		jmp	.L123
 2449      00
 2450              	.L121:
 2451 1131 F30F1EFA 		endbr64
  79:TestMemoryOutStream.cpp ****     CHECK(strstr(stream.GetText(), "1234"));
 2452              		.loc 3 79 5
 2453 1135 4889C7   		movq	%rax, %rdi
 2454 1138 E8000000 		call	__cxa_begin_catch@PLT
 2454      00
 2455              	.LEHB73:
 2456 113d E8000000 		call	_ZN8UnitTest11CurrentTest7ResultsEv@PLT
 2456      00
  79:TestMemoryOutStream.cpp ****     CHECK(strstr(stream.GetText(), "1234"));
 2457              		.loc 3 79 5 is_stmt 0 discriminator 8
 2458 1142 488B18   		movq	(%rax), %rbx
 2459 1145 E8000000 		call	_ZN8UnitTest11CurrentTest7DetailsEv@PLT
 2459      00
  79:TestMemoryOutStream.cpp ****     CHECK(strstr(stream.GetText(), "1234"));
 2460              		.loc 3 79 5 discriminator 14
 2461 114a 488B08   		movq	(%rax), %rcx
 2462 114d 488D8530 		leaq	-464(%rbp), %rax
 2462      FEFFFF
 2463 1154 BA4F0000 		movl	$79, %edx
 2463      00
 2464 1159 4889CE   		movq	%rcx, %rsi
 2465 115c 4889C7   		movq	%rax, %rdi
 2466 115f E8000000 		call	_ZN8UnitTest11TestDetailsC1ERKS0_i@PLT
 2466      00
  79:TestMemoryOutStream.cpp ****     CHECK(strstr(stream.GetText(), "1234"));
 2467              		.loc 3 79 5 discriminator 18
 2468 1164 488D8530 		leaq	-464(%rbp), %rax
 2468      FEFFFF
 2469 116b 488D1500 		leaq	.LC34(%rip), %rdx
 2469      000000
 2470 1172 4889C6   		movq	%rax, %rsi
 2471 1175 4889DF   		movq	%rbx, %rdi
 2472 1178 E8000000 		call	_ZN8UnitTest11TestResults13OnTestFailureERKNS_11TestDetailsEPKc@PLT
 2472      00
 2473              	.LEHE73:
 2474              	.LEHB74:
  79:TestMemoryOutStream.cpp ****     CHECK(strstr(stream.GetText(), "1234"));
 2475              		.loc 3 79 5 discriminator 20
 2476 117d E8000000 		call	__cxa_end_catch@PLT
 2476      00
 2477              	.LEHE74:
  79:TestMemoryOutStream.cpp ****     CHECK(strstr(stream.GetText(), "1234"));
 2478              		.loc 3 79 5
 2479 1182 EB86     		jmp	.L115
 2480              	.L122:
 2481 1184 F30F1EFA 		endbr64
 2482 1188 4889C3   		movq	%rax, %rbx
 2483 118b E8000000 		call	__cxa_end_catch@PLT
 2483      00
 2484 1190 EB07     		jmp	.L118
 2485              	.L120:
 2486 1192 F30F1EFA 		endbr64
 2487              		.loc 3 80 1 is_stmt 1
 2488 1196 4889C3   		movq	%rax, %rbx
 2489              	.L118:
 2490 1199 488D8550 		leaq	-432(%rbp), %rax
 2490      FEFFFF
 2491 11a0 4889C7   		movq	%rax, %rdi
 2492 11a3 E8000000 		call	_ZN8UnitTest15MemoryOutStreamD1Ev
 2492      00
 2493 11a8 4889D8   		movq	%rbx, %rax
 2494 11ab 4889C7   		movq	%rax, %rdi
 2495              	.LEHB75:
 2496 11ae E8000000 		call	_Unwind_Resume@PLT
 2496      00
 2497              	.LEHE75:
 2498              	.L123:
 2499 11b3 E8000000 		call	__stack_chk_fail@PLT
 2499      00
 2500              	.L119:
 2501 11b8 488B5DF8 		movq	-8(%rbp), %rbx
 2502 11bc C9       		leave
 2503              		.cfi_def_cfa 7, 8
 2504 11bd C3       		ret
 2505              		.cfi_endproc
 2506              	.LFE1180:
 2507              		.section	.gcc_except_table
 2508              		.align 4
 2509              	.LLSDA1180:
 2510 01bc FF       		.byte	0xff
 2511 01bd 9B       		.byte	0x9b
 2512 01be 2D       		.uleb128 .LLSDATT1180-.LLSDATTD1180
 2513              	.LLSDATTD1180:
 2514 01bf 01       		.byte	0x1
 2515 01c0 24       		.uleb128 .LLSDACSE1180-.LLSDACSB1180
 2516              	.LLSDACSB1180:
 2517 01c1 30       		.uleb128 .LEHB69-.LFB1180
 2518 01c2 05       		.uleb128 .LEHE69-.LEHB69
 2519 01c3 00       		.uleb128 0
 2520 01c4 00       		.uleb128 0
 2521 01c5 54       		.uleb128 .LEHB70-.LFB1180
 2522 01c6 05       		.uleb128 .LEHE70-.LEHB70
 2523 01c7 D402     		.uleb128 .L120-.LFB1180
 2524 01c9 00       		.uleb128 0
 2525 01ca 63       		.uleb128 .LEHB71-.LFB1180
 2526 01cb 69       		.uleb128 .LEHE71-.LEHB71
 2527 01cc F301     		.uleb128 .L121-.LFB1180
 2528 01ce 01       		.uleb128 0x1
 2529 01cf D601     		.uleb128 .LEHB72-.LFB1180
 2530 01d1 05       		.uleb128 .LEHE72-.LEHB72
 2531 01d2 00       		.uleb128 0
 2532 01d3 00       		.uleb128 0
 2533 01d4 FF01     		.uleb128 .LEHB73-.LFB1180
 2534 01d6 40       		.uleb128 .LEHE73-.LEHB73
 2535 01d7 C602     		.uleb128 .L122-.LFB1180
 2536 01d9 00       		.uleb128 0
 2537 01da BF02     		.uleb128 .LEHB74-.LFB1180
 2538 01dc 05       		.uleb128 .LEHE74-.LEHB74
 2539 01dd D402     		.uleb128 .L120-.LFB1180
 2540 01df 00       		.uleb128 0
 2541 01e0 F002     		.uleb128 .LEHB75-.LFB1180
 2542 01e2 05       		.uleb128 .LEHE75-.LEHB75
 2543 01e3 00       		.uleb128 0
 2544 01e4 00       		.uleb128 0
 2545              	.LLSDACSE1180:
 2546 01e5 01       		.byte	0x1
 2547 01e6 00       		.byte	0
 2548 01e7 00       		.align 4
 2549 01e8 00000000 		.long	0
 2550              	
 2551              	.LLSDATT1180:
 2552              		.text
 2554              		.section	.rodata
 2555 0457 00       		.align 8
 2556              	.LC35:
 2557 0458 53747265 		.string	"StreamingSizeTWritesCorrectCharacters"
 2557      616D696E 
 2557      6753697A 
 2557      65545772 
 2557      69746573 
 2558              		.text
 2559              		.align 2
 2561              	_ZN12_GLOBAL__N_141TestStreamingSizeTWritesCorrectCharactersC2Ev:
 2562              	.LFB1182:
  81:TestMemoryOutStream.cpp **** 
  82:TestMemoryOutStream.cpp **** TEST(StreamingSizeTWritesCorrectCharacters)
 2563              		.loc 3 82 1
 2564              		.cfi_startproc
 2565 11be 55       		pushq	%rbp
 2566              		.cfi_def_cfa_offset 16
 2567              		.cfi_offset 6, -16
 2568 11bf 4889E5   		movq	%rsp, %rbp
 2569              		.cfi_def_cfa_register 6
 2570 11c2 53       		pushq	%rbx
 2571 11c3 4883EC18 		subq	$24, %rsp
 2572              		.cfi_offset 3, -24
 2573 11c7 48897DE8 		movq	%rdi, -24(%rbp)
 2574              	.LBB14:
 2575              		.loc 3 82 1
 2576 11cb 488B5DE8 		movq	-24(%rbp), %rbx
 2577 11cf E8000000 		call	_ZN13UnitTestSuite12GetSuiteNameEv
 2577      00
 2578 11d4 4889C2   		movq	%rax, %rdx
 2579 11d7 41B85200 		movl	$82, %r8d
 2579      0000
 2580 11dd 488D0500 		leaq	.LC1(%rip), %rax
 2580      000000
 2581 11e4 4889C1   		movq	%rax, %rcx
 2582 11e7 488D0500 		leaq	.LC35(%rip), %rax
 2582      000000
 2583 11ee 4889C6   		movq	%rax, %rsi
 2584 11f1 4889DF   		movq	%rbx, %rdi
 2585 11f4 E8000000 		call	_ZN8UnitTest4TestC2EPKcS2_S2_i@PLT
 2585      00
 2586 11f9 488D1500 		leaq	16+_ZTVN12_GLOBAL__N_141TestStreamingSizeTWritesCorrectCharactersE(%rip), %rdx
 2586      000000
 2587 1200 488B45E8 		movq	-24(%rbp), %rax
 2588 1204 488910   		movq	%rdx, (%rax)
 2589              	.LBE14:
 2590 1207 90       		nop
 2591 1208 488B5DF8 		movq	-8(%rbp), %rbx
 2592 120c C9       		leave
 2593              		.cfi_def_cfa 7, 8
 2594 120d C3       		ret
 2595              		.cfi_endproc
 2596              	.LFE1182:
 2598              		.set	_ZN12_GLOBAL__N_141TestStreamingSizeTWritesCorrectCharactersC1Ev,_ZN12_GLOBAL__N_141TestStrea
 2599              		.local	_ZN12_GLOBAL__N_149testStreamingSizeTWritesCorrectCharactersInstanceE
 2600              		.comm	_ZN12_GLOBAL__N_149testStreamingSizeTWritesCorrectCharactersInstanceE,56,32
 2601              		.local	_ZN12_GLOBAL__N_142adderStreamingSizeTWritesCorrectCharactersE
 2602              		.comm	_ZN12_GLOBAL__N_142adderStreamingSizeTWritesCorrectCharactersE,1,1
 2603              		.section	.rodata
 2604              	.LC36:
 2605 047e 35333132 		.string	"53124"
 2605      3400
 2606 0484 00000000 		.align 8
 2607              	.LC37:
 2608 0488 556E6861 		.string	"Unhandled exception in CHECK_EQUAL(\"53124\", stream.GetText())"
 2608      6E646C65 
 2608      64206578 
 2608      63657074 
 2608      696F6E20 
 2609              		.text
 2610              		.align 2
 2612              	_ZNK12_GLOBAL__N_141TestStreamingSizeTWritesCorrectCharacters7RunImplEv:
 2613              	.LFB1184:
  83:TestMemoryOutStream.cpp **** {
 2614              		.loc 3 83 1
 2615              		.cfi_startproc
 2616              		.cfi_personality 0x9b,DW.ref.__gxx_personality_v0
 2617              		.cfi_lsda 0x1b,.LLSDA1184
 2618 120e F30F1EFA 		endbr64
 2619 1212 55       		pushq	%rbp
 2620              		.cfi_def_cfa_offset 16
 2621              		.cfi_offset 6, -16
 2622 1213 4889E5   		movq	%rsp, %rbp
 2623              		.cfi_def_cfa_register 6
 2624 1216 53       		pushq	%rbx
 2625 1217 4881ECE8 		subq	$488, %rsp
 2625      010000
 2626              		.cfi_offset 3, -24
 2627 121e 4889BD18 		movq	%rdi, -488(%rbp)
 2627      FEFFFF
 2628              		.loc 3 83 1
 2629 1225 64488B04 		movq	%fs:40, %rax
 2629      25280000 
 2629      00
 2630 122e 488945E8 		movq	%rax, -24(%rbp)
 2631 1232 31C0     		xorl	%eax, %eax
  84:TestMemoryOutStream.cpp ****     MemoryOutStream stream;
 2632              		.loc 3 84 21
 2633 1234 488D8550 		leaq	-432(%rbp), %rax
 2633      FEFFFF
 2634 123b 4889C7   		movq	%rax, %rdi
 2635              	.LEHB76:
 2636 123e E8000000 		call	_ZN8UnitTest15MemoryOutStreamC1Ev
 2636      00
 2637              	.LEHE76:
  85:TestMemoryOutStream.cpp ****     size_t const s = 53124;
 2638              		.loc 3 85 18
 2639 1243 48C78528 		movq	$53124, -472(%rbp)
 2639      FEFFFF84 
 2639      CF0000
  86:TestMemoryOutStream.cpp ****     stream << s;
 2640              		.loc 3 86 15
 2641 124e 488D8550 		leaq	-432(%rbp), %rax
 2641      FEFFFF
 2642 1255 BE84CF00 		movl	$53124, %esi
 2642      00
 2643 125a 4889C7   		movq	%rax, %rdi
 2644              	.LEHB77:
 2645 125d E8000000 		call	_ZNSolsEm@PLT
 2645      00
 2646              	.LEHE77:
 2647              	.LEHB78:
  87:TestMemoryOutStream.cpp ****     CHECK_EQUAL("53124", stream.GetText());
 2648              		.loc 3 87 5
 2649 1262 E8000000 		call	_ZN8UnitTest11CurrentTest7DetailsEv@PLT
 2649      00
 2650 1267 488B08   		movq	(%rax), %rcx
 2651 126a 488D8530 		leaq	-464(%rbp), %rax
 2651      FEFFFF
 2652 1271 BA570000 		movl	$87, %edx
 2652      00
 2653 1276 4889CE   		movq	%rcx, %rsi
 2654 1279 4889C7   		movq	%rax, %rdi
 2655 127c E8000000 		call	_ZN8UnitTest11TestDetailsC1ERKS0_i@PLT
 2655      00
 2656              		.loc 3 87 5 is_stmt 0 discriminator 4
 2657 1281 488D8550 		leaq	-432(%rbp), %rax
 2657      FEFFFF
 2658 1288 4889C7   		movq	%rax, %rdi
 2659 128b E8000000 		call	_ZNK8UnitTest15MemoryOutStream7GetTextEv@PLT
 2659      00
 2660 1290 4889C3   		movq	%rax, %rbx
 2661 1293 E8000000 		call	_ZN8UnitTest11CurrentTest7ResultsEv@PLT
 2661      00
 2662              		.loc 3 87 5 discriminator 6
 2663 1298 488B00   		movq	(%rax), %rax
 2664 129b 488D9530 		leaq	-464(%rbp), %rdx
 2664      FEFFFF
 2665 12a2 4889D1   		movq	%rdx, %rcx
 2666 12a5 4889DA   		movq	%rbx, %rdx
 2667 12a8 488D3500 		leaq	.LC36(%rip), %rsi
 2667      000000
 2668 12af 4889C7   		movq	%rax, %rdi
 2669 12b2 E8000000 		call	_ZN8UnitTest10CheckEqualERNS_11TestResultsEPKcS3_RKNS_11TestDetailsE@PLT
 2669      00
 2670              	.LEHE78:
 2671              	.L127:
  88:TestMemoryOutStream.cpp **** }
 2672              		.loc 3 88 1 is_stmt 1
 2673 12b7 488D8550 		leaq	-432(%rbp), %rax
 2673      FEFFFF
 2674 12be 4889C7   		movq	%rax, %rdi
 2675              	.LEHB79:
 2676 12c1 E8000000 		call	_ZN8UnitTest15MemoryOutStreamD1Ev
 2676      00
 2677              	.LEHE79:
 2678 12c6 488B45E8 		movq	-24(%rbp), %rax
 2679 12ca 64482B04 		subq	%fs:40, %rax
 2679      25280000 
 2679      00
 2680 12d3 0F848C00 		je	.L130
 2680      0000
 2681 12d9 E9820000 		jmp	.L134
 2681      00
 2682              	.L132:
 2683 12de F30F1EFA 		endbr64
  87:TestMemoryOutStream.cpp ****     CHECK_EQUAL("53124", stream.GetText());
 2684              		.loc 3 87 5
 2685 12e2 4889C7   		movq	%rax, %rdi
 2686 12e5 E8000000 		call	__cxa_begin_catch@PLT
 2686      00
 2687              	.LEHB80:
 2688 12ea E8000000 		call	_ZN8UnitTest11CurrentTest7ResultsEv@PLT
 2688      00
  87:TestMemoryOutStream.cpp ****     CHECK_EQUAL("53124", stream.GetText());
 2689              		.loc 3 87 5 is_stmt 0 discriminator 3
 2690 12ef 488B18   		movq	(%rax), %rbx
 2691 12f2 E8000000 		call	_ZN8UnitTest11CurrentTest7DetailsEv@PLT
 2691      00
  87:TestMemoryOutStream.cpp ****     CHECK_EQUAL("53124", stream.GetText());
 2692              		.loc 3 87 5 discriminator 13
 2693 12f7 488B08   		movq	(%rax), %rcx
 2694 12fa 488D8530 		leaq	-464(%rbp), %rax
 2694      FEFFFF
 2695 1301 BA570000 		movl	$87, %edx
 2695      00
 2696 1306 4889CE   		movq	%rcx, %rsi
 2697 1309 4889C7   		movq	%rax, %rdi
 2698 130c E8000000 		call	_ZN8UnitTest11TestDetailsC1ERKS0_i@PLT
 2698      00
  87:TestMemoryOutStream.cpp ****     CHECK_EQUAL("53124", stream.GetText());
 2699              		.loc 3 87 5 discriminator 17
 2700 1311 488D8530 		leaq	-464(%rbp), %rax
 2700      FEFFFF
 2701 1318 488D1500 		leaq	.LC37(%rip), %rdx
 2701      000000
 2702 131f 4889C6   		movq	%rax, %rsi
 2703 1322 4889DF   		movq	%rbx, %rdi
 2704 1325 E8000000 		call	_ZN8UnitTest11TestResults13OnTestFailureERKNS_11TestDetailsEPKc@PLT
 2704      00
 2705              	.LEHE80:
 2706              	.LEHB81:
  87:TestMemoryOutStream.cpp ****     CHECK_EQUAL("53124", stream.GetText());
 2707              		.loc 3 87 5 discriminator 19
 2708 132a E8000000 		call	__cxa_end_catch@PLT
 2708      00
 2709              	.LEHE81:
  87:TestMemoryOutStream.cpp ****     CHECK_EQUAL("53124", stream.GetText());
 2710              		.loc 3 87 5
 2711 132f EB86     		jmp	.L127
 2712              	.L133:
 2713 1331 F30F1EFA 		endbr64
 2714 1335 4889C3   		movq	%rax, %rbx
 2715 1338 E8000000 		call	__cxa_end_catch@PLT
 2715      00
 2716 133d EB07     		jmp	.L129
 2717              	.L131:
 2718 133f F30F1EFA 		endbr64
 2719              		.loc 3 88 1 is_stmt 1
 2720 1343 4889C3   		movq	%rax, %rbx
 2721              	.L129:
 2722 1346 488D8550 		leaq	-432(%rbp), %rax
 2722      FEFFFF
 2723 134d 4889C7   		movq	%rax, %rdi
 2724 1350 E8000000 		call	_ZN8UnitTest15MemoryOutStreamD1Ev
 2724      00
 2725 1355 4889D8   		movq	%rbx, %rax
 2726 1358 4889C7   		movq	%rax, %rdi
 2727              	.LEHB82:
 2728 135b E8000000 		call	_Unwind_Resume@PLT
 2728      00
 2729              	.LEHE82:
 2730              	.L134:
 2731 1360 E8000000 		call	__stack_chk_fail@PLT
 2731      00
 2732              	.L130:
 2733 1365 488B5DF8 		movq	-8(%rbp), %rbx
 2734 1369 C9       		leave
 2735              		.cfi_def_cfa 7, 8
 2736 136a C3       		ret
 2737              		.cfi_endproc
 2738              	.LFE1184:
 2739              		.section	.gcc_except_table
 2740              		.align 4
 2741              	.LLSDA1184:
 2742 01ec FF       		.byte	0xff
 2743 01ed 9B       		.byte	0x9b
 2744 01ee 2D       		.uleb128 .LLSDATT1184-.LLSDATTD1184
 2745              	.LLSDATTD1184:
 2746 01ef 01       		.byte	0x1
 2747 01f0 24       		.uleb128 .LLSDACSE1184-.LLSDACSB1184
 2748              	.LLSDACSB1184:
 2749 01f1 30       		.uleb128 .LEHB76-.LFB1184
 2750 01f2 05       		.uleb128 .LEHE76-.LEHB76
 2751 01f3 00       		.uleb128 0
 2752 01f4 00       		.uleb128 0
 2753 01f5 4F       		.uleb128 .LEHB77-.LFB1184
 2754 01f6 05       		.uleb128 .LEHE77-.LEHB77
 2755 01f7 B102     		.uleb128 .L131-.LFB1184
 2756 01f9 00       		.uleb128 0
 2757 01fa 54       		.uleb128 .LEHB78-.LFB1184
 2758 01fb 55       		.uleb128 .LEHE78-.LEHB78
 2759 01fc D001     		.uleb128 .L132-.LFB1184
 2760 01fe 01       		.uleb128 0x1
 2761 01ff B301     		.uleb128 .LEHB79-.LFB1184
 2762 0201 05       		.uleb128 .LEHE79-.LEHB79
 2763 0202 00       		.uleb128 0
 2764 0203 00       		.uleb128 0
 2765 0204 DC01     		.uleb128 .LEHB80-.LFB1184
 2766 0206 40       		.uleb128 .LEHE80-.LEHB80
 2767 0207 A302     		.uleb128 .L133-.LFB1184
 2768 0209 00       		.uleb128 0
 2769 020a 9C02     		.uleb128 .LEHB81-.LFB1184
 2770 020c 05       		.uleb128 .LEHE81-.LEHB81
 2771 020d B102     		.uleb128 .L131-.LFB1184
 2772 020f 00       		.uleb128 0
 2773 0210 CD02     		.uleb128 .LEHB82-.LFB1184
 2774 0212 05       		.uleb128 .LEHE82-.LEHB82
 2775 0213 00       		.uleb128 0
 2776 0214 00       		.uleb128 0
 2777              	.LLSDACSE1184:
 2778 0215 01       		.byte	0x1
 2779 0216 00       		.byte	0
 2780 0217 00       		.align 4
 2781 0218 00000000 		.long	0
 2782              	
 2783              	.LLSDATT1184:
 2784              		.text
 2786              		.section	.text._ZN8UnitTest5CheckIbEEbT_,"axG",@progbits,_ZN8UnitTest5CheckIbEEbT_,comdat
 2787              		.weak	_ZN8UnitTest5CheckIbEEbT_
 2789              	_ZN8UnitTest5CheckIbEEbT_:
 2790              	.LFB1212:
 2791              		.file 4 "../Checks.h"
   1:../Checks.h   **** #ifndef UNITTEST_CHECKS_H
   2:../Checks.h   **** #define UNITTEST_CHECKS_H
   3:../Checks.h   **** 
   4:../Checks.h   **** #include "Config.h"
   5:../Checks.h   **** #include "TestResults.h"
   6:../Checks.h   **** #include "MemoryOutStream.h"
   7:../Checks.h   **** 
   8:../Checks.h   **** namespace UnitTest {
   9:../Checks.h   **** 
  10:../Checks.h   **** 
  11:../Checks.h   **** template< typename Value >
  12:../Checks.h   **** bool Check(Value const value)
 2792              		.loc 4 12 6
 2793              		.cfi_startproc
 2794 0000 F30F1EFA 		endbr64
 2795 0004 55       		pushq	%rbp
 2796              		.cfi_def_cfa_offset 16
 2797              		.cfi_offset 6, -16
 2798 0005 4889E5   		movq	%rsp, %rbp
 2799              		.cfi_def_cfa_register 6
 2800 0008 89F8     		movl	%edi, %eax
 2801 000a 8845FC   		movb	%al, -4(%rbp)
  13:../Checks.h   **** {
  14:../Checks.h   ****     return !!value; // doing double negative to avoid silly VS warnings
 2802              		.loc 4 14 14
 2803 000d 0FB645FC 		movzbl	-4(%rbp), %eax
  15:../Checks.h   **** }
 2804              		.loc 4 15 1
 2805 0011 5D       		popq	%rbp
 2806              		.cfi_def_cfa 7, 8
 2807 0012 C3       		ret
 2808              		.cfi_endproc
 2809              	.LFE1212:
 2811              		.section	.text._ZN8UnitTest5CheckIPKcEEbT_,"axG",@progbits,_ZN8UnitTest5CheckIPKcEEbT_,comdat
 2812              		.weak	_ZN8UnitTest5CheckIPKcEEbT_
 2814              	_ZN8UnitTest5CheckIPKcEEbT_:
 2815              	.LFB1218:
  12:../Checks.h   **** {
 2816              		.loc 4 12 6
 2817              		.cfi_startproc
 2818 0000 F30F1EFA 		endbr64
 2819 0004 55       		pushq	%rbp
 2820              		.cfi_def_cfa_offset 16
 2821              		.cfi_offset 6, -16
 2822 0005 4889E5   		movq	%rsp, %rbp
 2823              		.cfi_def_cfa_register 6
 2824 0008 48897DF8 		movq	%rdi, -8(%rbp)
  14:../Checks.h   **** }
 2825              		.loc 4 14 14
 2826 000c 48837DF8 		cmpq	$0, -8(%rbp)
 2826      00
 2827 0011 0F95C0   		setne	%al
 2828              		.loc 4 15 1
 2829 0014 5D       		popq	%rbp
 2830              		.cfi_def_cfa 7, 8
 2831 0015 C3       		ret
 2832              		.cfi_endproc
 2833              	.LFE1218:
 2835              		.section	.data.rel.ro.local,"aw"
 2836              		.align 8
 2839              	_ZTVN12_GLOBAL__N_141TestStreamingSizeTWritesCorrectCharactersE:
 2840 0000 00000000 		.quad	0
 2840      00000000 
 2841 0008 00000000 		.quad	_ZTIN12_GLOBAL__N_141TestStreamingSizeTWritesCorrectCharactersE
 2841      00000000 
 2842 0010 00000000 		.quad	_ZN12_GLOBAL__N_141TestStreamingSizeTWritesCorrectCharactersD1Ev
 2842      00000000 
 2843 0018 00000000 		.quad	_ZN12_GLOBAL__N_141TestStreamingSizeTWritesCorrectCharactersD0Ev
 2843      00000000 
 2844 0020 00000000 		.quad	_ZNK12_GLOBAL__N_141TestStreamingSizeTWritesCorrectCharacters7RunImplEv
 2844      00000000 
 2845              		.text
 2846 136b 90       		.align 2
 2848              	_ZN12_GLOBAL__N_141TestStreamingSizeTWritesCorrectCharactersD2Ev:
 2849              	.LFB1273:
  82:TestMemoryOutStream.cpp **** {
 2850              		.loc 3 82 1
 2851              		.cfi_startproc
 2852 136c F30F1EFA 		endbr64
 2853 1370 55       		pushq	%rbp
 2854              		.cfi_def_cfa_offset 16
 2855              		.cfi_offset 6, -16
 2856 1371 4889E5   		movq	%rsp, %rbp
 2857              		.cfi_def_cfa_register 6
 2858 1374 4883EC10 		subq	$16, %rsp
 2859 1378 48897DF8 		movq	%rdi, -8(%rbp)
 2860              	.LBB15:
  82:TestMemoryOutStream.cpp **** {
 2861              		.loc 3 82 1
 2862 137c 488D1500 		leaq	16+_ZTVN12_GLOBAL__N_141TestStreamingSizeTWritesCorrectCharactersE(%rip), %rdx
 2862      000000
 2863 1383 488B45F8 		movq	-8(%rbp), %rax
 2864 1387 488910   		movq	%rdx, (%rax)
 2865 138a 488B45F8 		movq	-8(%rbp), %rax
 2866 138e 4889C7   		movq	%rax, %rdi
 2867 1391 E8000000 		call	_ZN8UnitTest4TestD2Ev@PLT
 2867      00
 2868              	.LBE15:
 2869 1396 90       		nop
 2870 1397 C9       		leave
 2871              		.cfi_def_cfa 7, 8
 2872 1398 C3       		ret
 2873              		.cfi_endproc
 2874              	.LFE1273:
 2876              		.set	_ZN12_GLOBAL__N_141TestStreamingSizeTWritesCorrectCharactersD1Ev,_ZN12_GLOBAL__N_141TestStrea
 2877 1399 90       		.align 2
 2879              	_ZN12_GLOBAL__N_141TestStreamingSizeTWritesCorrectCharactersD0Ev:
 2880              	.LFB1275:
  82:TestMemoryOutStream.cpp **** {
 2881              		.loc 3 82 1
 2882              		.cfi_startproc
 2883              		.cfi_personality 0x9b,DW.ref.__gxx_personality_v0
 2884              		.cfi_lsda 0x1b,.LLSDA1275
 2885 139a F30F1EFA 		endbr64
 2886 139e 55       		pushq	%rbp
 2887              		.cfi_def_cfa_offset 16
 2888              		.cfi_offset 6, -16
 2889 139f 4889E5   		movq	%rsp, %rbp
 2890              		.cfi_def_cfa_register 6
 2891 13a2 53       		pushq	%rbx
 2892 13a3 4883EC18 		subq	$24, %rsp
 2893              		.cfi_offset 3, -24
 2894 13a7 48897DE8 		movq	%rdi, -24(%rbp)
  82:TestMemoryOutStream.cpp **** {
 2895              		.loc 3 82 1
 2896 13ab 488B45E8 		movq	-24(%rbp), %rax
 2897 13af 4889C7   		movq	%rax, %rdi
 2898              	.LEHB83:
 2899 13b2 E8B5FFFF 		call	_ZN12_GLOBAL__N_141TestStreamingSizeTWritesCorrectCharactersD1Ev
 2899      FF
 2900              	.LEHE83:
  82:TestMemoryOutStream.cpp **** {
 2901              		.loc 3 82 1 is_stmt 0 discriminator 2
 2902 13b7 488B45E8 		movq	-24(%rbp), %rax
 2903 13bb 4889C7   		movq	%rax, %rdi
 2904 13be E8000000 		call	_ZdlPv@PLT
 2904      00
 2905 13c3 EB1E     		jmp	.L143
 2906              	.L142:
 2907 13c5 F30F1EFA 		endbr64
  82:TestMemoryOutStream.cpp **** {
 2908              		.loc 3 82 1
 2909 13c9 4889C3   		movq	%rax, %rbx
 2910 13cc 488B45E8 		movq	-24(%rbp), %rax
 2911 13d0 4889C7   		movq	%rax, %rdi
 2912 13d3 E8000000 		call	_ZdlPv@PLT
 2912      00
 2913 13d8 4889D8   		movq	%rbx, %rax
 2914 13db 4889C7   		movq	%rax, %rdi
 2915              	.LEHB84:
 2916 13de E8000000 		call	_Unwind_Resume@PLT
 2916      00
 2917              	.LEHE84:
 2918              	.L143:
 2919 13e3 488B5DF8 		movq	-8(%rbp), %rbx
 2920 13e7 C9       		leave
 2921              		.cfi_def_cfa 7, 8
 2922 13e8 C3       		ret
 2923              		.cfi_endproc
 2924              	.LFE1275:
 2925              		.section	.gcc_except_table
 2926              	.LLSDA1275:
 2927 021c FF       		.byte	0xff
 2928 021d FF       		.byte	0xff
 2929 021e 01       		.byte	0x1
 2930 021f 08       		.uleb128 .LLSDACSE1275-.LLSDACSB1275
 2931              	.LLSDACSB1275:
 2932 0220 18       		.uleb128 .LEHB83-.LFB1275
 2933 0221 05       		.uleb128 .LEHE83-.LEHB83
 2934 0222 2B       		.uleb128 .L142-.LFB1275
 2935 0223 00       		.uleb128 0
 2936 0224 44       		.uleb128 .LEHB84-.LFB1275
 2937 0225 05       		.uleb128 .LEHE84-.LEHB84
 2938 0226 00       		.uleb128 0
 2939 0227 00       		.uleb128 0
 2940              	.LLSDACSE1275:
 2941              		.text
 2943              		.section	.data.rel.ro.local
 2944              		.align 8
 2947              	_ZTVN12_GLOBAL__N_143TestStreamingPointerWritesCorrectCharactersE:
 2948 0028 00000000 		.quad	0
 2948      00000000 
 2949 0030 00000000 		.quad	_ZTIN12_GLOBAL__N_143TestStreamingPointerWritesCorrectCharactersE
 2949      00000000 
 2950 0038 00000000 		.quad	_ZN12_GLOBAL__N_143TestStreamingPointerWritesCorrectCharactersD1Ev
 2950      00000000 
 2951 0040 00000000 		.quad	_ZN12_GLOBAL__N_143TestStreamingPointerWritesCorrectCharactersD0Ev
 2951      00000000 
 2952 0048 00000000 		.quad	_ZNK12_GLOBAL__N_143TestStreamingPointerWritesCorrectCharacters7RunImplEv
 2952      00000000 
 2953              		.text
 2954 13e9 90       		.align 2
 2956              	_ZN12_GLOBAL__N_143TestStreamingPointerWritesCorrectCharactersD2Ev:
 2957              	.LFB1277:
  74:TestMemoryOutStream.cpp **** {
 2958              		.loc 3 74 1 is_stmt 1
 2959              		.cfi_startproc
 2960 13ea F30F1EFA 		endbr64
 2961 13ee 55       		pushq	%rbp
 2962              		.cfi_def_cfa_offset 16
 2963              		.cfi_offset 6, -16
 2964 13ef 4889E5   		movq	%rsp, %rbp
 2965              		.cfi_def_cfa_register 6
 2966 13f2 4883EC10 		subq	$16, %rsp
 2967 13f6 48897DF8 		movq	%rdi, -8(%rbp)
 2968              	.LBB16:
  74:TestMemoryOutStream.cpp **** {
 2969              		.loc 3 74 1
 2970 13fa 488D1500 		leaq	16+_ZTVN12_GLOBAL__N_143TestStreamingPointerWritesCorrectCharactersE(%rip), %rdx
 2970      000000
 2971 1401 488B45F8 		movq	-8(%rbp), %rax
 2972 1405 488910   		movq	%rdx, (%rax)
 2973 1408 488B45F8 		movq	-8(%rbp), %rax
 2974 140c 4889C7   		movq	%rax, %rdi
 2975 140f E8000000 		call	_ZN8UnitTest4TestD2Ev@PLT
 2975      00
 2976              	.LBE16:
 2977 1414 90       		nop
 2978 1415 C9       		leave
 2979              		.cfi_def_cfa 7, 8
 2980 1416 C3       		ret
 2981              		.cfi_endproc
 2982              	.LFE1277:
 2984              		.set	_ZN12_GLOBAL__N_143TestStreamingPointerWritesCorrectCharactersD1Ev,_ZN12_GLOBAL__N_143TestStr
 2985 1417 90       		.align 2
 2987              	_ZN12_GLOBAL__N_143TestStreamingPointerWritesCorrectCharactersD0Ev:
 2988              	.LFB1279:
  74:TestMemoryOutStream.cpp **** {
 2989              		.loc 3 74 1
 2990              		.cfi_startproc
 2991              		.cfi_personality 0x9b,DW.ref.__gxx_personality_v0
 2992              		.cfi_lsda 0x1b,.LLSDA1279
 2993 1418 F30F1EFA 		endbr64
 2994 141c 55       		pushq	%rbp
 2995              		.cfi_def_cfa_offset 16
 2996              		.cfi_offset 6, -16
 2997 141d 4889E5   		movq	%rsp, %rbp
 2998              		.cfi_def_cfa_register 6
 2999 1420 53       		pushq	%rbx
 3000 1421 4883EC18 		subq	$24, %rsp
 3001              		.cfi_offset 3, -24
 3002 1425 48897DE8 		movq	%rdi, -24(%rbp)
  74:TestMemoryOutStream.cpp **** {
 3003              		.loc 3 74 1
 3004 1429 488B45E8 		movq	-24(%rbp), %rax
 3005 142d 4889C7   		movq	%rax, %rdi
 3006              	.LEHB85:
 3007 1430 E8B5FFFF 		call	_ZN12_GLOBAL__N_143TestStreamingPointerWritesCorrectCharactersD1Ev
 3007      FF
 3008              	.LEHE85:
  74:TestMemoryOutStream.cpp **** {
 3009              		.loc 3 74 1 is_stmt 0 discriminator 2
 3010 1435 488B45E8 		movq	-24(%rbp), %rax
 3011 1439 4889C7   		movq	%rax, %rdi
 3012 143c E8000000 		call	_ZdlPv@PLT
 3012      00
 3013 1441 EB1E     		jmp	.L148
 3014              	.L147:
 3015 1443 F30F1EFA 		endbr64
  74:TestMemoryOutStream.cpp **** {
 3016              		.loc 3 74 1
 3017 1447 4889C3   		movq	%rax, %rbx
 3018 144a 488B45E8 		movq	-24(%rbp), %rax
 3019 144e 4889C7   		movq	%rax, %rdi
 3020 1451 E8000000 		call	_ZdlPv@PLT
 3020      00
 3021 1456 4889D8   		movq	%rbx, %rax
 3022 1459 4889C7   		movq	%rax, %rdi
 3023              	.LEHB86:
 3024 145c E8000000 		call	_Unwind_Resume@PLT
 3024      00
 3025              	.LEHE86:
 3026              	.L148:
 3027 1461 488B5DF8 		movq	-8(%rbp), %rbx
 3028 1465 C9       		leave
 3029              		.cfi_def_cfa 7, 8
 3030 1466 C3       		ret
 3031              		.cfi_endproc
 3032              	.LFE1279:
 3033              		.section	.gcc_except_table
 3034              	.LLSDA1279:
 3035 0228 FF       		.byte	0xff
 3036 0229 FF       		.byte	0xff
 3037 022a 01       		.byte	0x1
 3038 022b 08       		.uleb128 .LLSDACSE1279-.LLSDACSB1279
 3039              	.LLSDACSB1279:
 3040 022c 18       		.uleb128 .LEHB85-.LFB1279
 3041 022d 05       		.uleb128 .LEHE85-.LEHB85
 3042 022e 2B       		.uleb128 .L147-.LFB1279
 3043 022f 00       		.uleb128 0
 3044 0230 44       		.uleb128 .LEHB86-.LFB1279
 3045 0231 05       		.uleb128 .LEHE86-.LEHB86
 3046 0232 00       		.uleb128 0
 3047 0233 00       		.uleb128 0
 3048              	.LLSDACSE1279:
 3049              		.text
 3051              		.section	.data.rel.ro.local
 3052              		.align 8
 3055              	_ZTVN12_GLOBAL__N_142TestStreamingDoubleWritesCorrectCharactersE:
 3056 0050 00000000 		.quad	0
 3056      00000000 
 3057 0058 00000000 		.quad	_ZTIN12_GLOBAL__N_142TestStreamingDoubleWritesCorrectCharactersE
 3057      00000000 
 3058 0060 00000000 		.quad	_ZN12_GLOBAL__N_142TestStreamingDoubleWritesCorrectCharactersD1Ev
 3058      00000000 
 3059 0068 00000000 		.quad	_ZN12_GLOBAL__N_142TestStreamingDoubleWritesCorrectCharactersD0Ev
 3059      00000000 
 3060 0070 00000000 		.quad	_ZNK12_GLOBAL__N_142TestStreamingDoubleWritesCorrectCharacters7RunImplEv
 3060      00000000 
 3061              		.text
 3062 1467 90       		.align 2
 3064              	_ZN12_GLOBAL__N_142TestStreamingDoubleWritesCorrectCharactersD2Ev:
 3065              	.LFB1281:
  67:TestMemoryOutStream.cpp **** {
 3066              		.loc 3 67 1 is_stmt 1
 3067              		.cfi_startproc
 3068 1468 F30F1EFA 		endbr64
 3069 146c 55       		pushq	%rbp
 3070              		.cfi_def_cfa_offset 16
 3071              		.cfi_offset 6, -16
 3072 146d 4889E5   		movq	%rsp, %rbp
 3073              		.cfi_def_cfa_register 6
 3074 1470 4883EC10 		subq	$16, %rsp
 3075 1474 48897DF8 		movq	%rdi, -8(%rbp)
 3076              	.LBB17:
  67:TestMemoryOutStream.cpp **** {
 3077              		.loc 3 67 1
 3078 1478 488D1500 		leaq	16+_ZTVN12_GLOBAL__N_142TestStreamingDoubleWritesCorrectCharactersE(%rip), %rdx
 3078      000000
 3079 147f 488B45F8 		movq	-8(%rbp), %rax
 3080 1483 488910   		movq	%rdx, (%rax)
 3081 1486 488B45F8 		movq	-8(%rbp), %rax
 3082 148a 4889C7   		movq	%rax, %rdi
 3083 148d E8000000 		call	_ZN8UnitTest4TestD2Ev@PLT
 3083      00
 3084              	.LBE17:
 3085 1492 90       		nop
 3086 1493 C9       		leave
 3087              		.cfi_def_cfa 7, 8
 3088 1494 C3       		ret
 3089              		.cfi_endproc
 3090              	.LFE1281:
 3092              		.set	_ZN12_GLOBAL__N_142TestStreamingDoubleWritesCorrectCharactersD1Ev,_ZN12_GLOBAL__N_142TestStre
 3093 1495 90       		.align 2
 3095              	_ZN12_GLOBAL__N_142TestStreamingDoubleWritesCorrectCharactersD0Ev:
 3096              	.LFB1283:
  67:TestMemoryOutStream.cpp **** {
 3097              		.loc 3 67 1
 3098              		.cfi_startproc
 3099              		.cfi_personality 0x9b,DW.ref.__gxx_personality_v0
 3100              		.cfi_lsda 0x1b,.LLSDA1283
 3101 1496 F30F1EFA 		endbr64
 3102 149a 55       		pushq	%rbp
 3103              		.cfi_def_cfa_offset 16
 3104              		.cfi_offset 6, -16
 3105 149b 4889E5   		movq	%rsp, %rbp
 3106              		.cfi_def_cfa_register 6
 3107 149e 53       		pushq	%rbx
 3108 149f 4883EC18 		subq	$24, %rsp
 3109              		.cfi_offset 3, -24
 3110 14a3 48897DE8 		movq	%rdi, -24(%rbp)
  67:TestMemoryOutStream.cpp **** {
 3111              		.loc 3 67 1
 3112 14a7 488B45E8 		movq	-24(%rbp), %rax
 3113 14ab 4889C7   		movq	%rax, %rdi
 3114              	.LEHB87:
 3115 14ae E8B5FFFF 		call	_ZN12_GLOBAL__N_142TestStreamingDoubleWritesCorrectCharactersD1Ev
 3115      FF
 3116              	.LEHE87:
  67:TestMemoryOutStream.cpp **** {
 3117              		.loc 3 67 1 is_stmt 0 discriminator 2
 3118 14b3 488B45E8 		movq	-24(%rbp), %rax
 3119 14b7 4889C7   		movq	%rax, %rdi
 3120 14ba E8000000 		call	_ZdlPv@PLT
 3120      00
 3121 14bf EB1E     		jmp	.L153
 3122              	.L152:
 3123 14c1 F30F1EFA 		endbr64
  67:TestMemoryOutStream.cpp **** {
 3124              		.loc 3 67 1
 3125 14c5 4889C3   		movq	%rax, %rbx
 3126 14c8 488B45E8 		movq	-24(%rbp), %rax
 3127 14cc 4889C7   		movq	%rax, %rdi
 3128 14cf E8000000 		call	_ZdlPv@PLT
 3128      00
 3129 14d4 4889D8   		movq	%rbx, %rax
 3130 14d7 4889C7   		movq	%rax, %rdi
 3131              	.LEHB88:
 3132 14da E8000000 		call	_Unwind_Resume@PLT
 3132      00
 3133              	.LEHE88:
 3134              	.L153:
 3135 14df 488B5DF8 		movq	-8(%rbp), %rbx
 3136 14e3 C9       		leave
 3137              		.cfi_def_cfa 7, 8
 3138 14e4 C3       		ret
 3139              		.cfi_endproc
 3140              	.LFE1283:
 3141              		.section	.gcc_except_table
 3142              	.LLSDA1283:
 3143 0234 FF       		.byte	0xff
 3144 0235 FF       		.byte	0xff
 3145 0236 01       		.byte	0x1
 3146 0237 08       		.uleb128 .LLSDACSE1283-.LLSDACSB1283
 3147              	.LLSDACSB1283:
 3148 0238 18       		.uleb128 .LEHB87-.LFB1283
 3149 0239 05       		.uleb128 .LEHE87-.LEHB87
 3150 023a 2B       		.uleb128 .L152-.LFB1283
 3151 023b 00       		.uleb128 0
 3152 023c 44       		.uleb128 .LEHB88-.LFB1283
 3153 023d 05       		.uleb128 .LEHE88-.LEHB88
 3154 023e 00       		.uleb128 0
 3155 023f 00       		.uleb128 0
 3156              	.LLSDACSE1283:
 3157              		.text
 3159              		.section	.data.rel.ro.local
 3160              		.align 8
 3163              	_ZTVN12_GLOBAL__N_141TestStreamingFloatWritesCorrectCharactersE:
 3164 0078 00000000 		.quad	0
 3164      00000000 
 3165 0080 00000000 		.quad	_ZTIN12_GLOBAL__N_141TestStreamingFloatWritesCorrectCharactersE
 3165      00000000 
 3166 0088 00000000 		.quad	_ZN12_GLOBAL__N_141TestStreamingFloatWritesCorrectCharactersD1Ev
 3166      00000000 
 3167 0090 00000000 		.quad	_ZN12_GLOBAL__N_141TestStreamingFloatWritesCorrectCharactersD0Ev
 3167      00000000 
 3168 0098 00000000 		.quad	_ZNK12_GLOBAL__N_141TestStreamingFloatWritesCorrectCharacters7RunImplEv
 3168      00000000 
 3169              		.text
 3170 14e5 90       		.align 2
 3172              	_ZN12_GLOBAL__N_141TestStreamingFloatWritesCorrectCharactersD2Ev:
 3173              	.LFB1285:
  60:TestMemoryOutStream.cpp **** {
 3174              		.loc 3 60 1 is_stmt 1
 3175              		.cfi_startproc
 3176 14e6 F30F1EFA 		endbr64
 3177 14ea 55       		pushq	%rbp
 3178              		.cfi_def_cfa_offset 16
 3179              		.cfi_offset 6, -16
 3180 14eb 4889E5   		movq	%rsp, %rbp
 3181              		.cfi_def_cfa_register 6
 3182 14ee 4883EC10 		subq	$16, %rsp
 3183 14f2 48897DF8 		movq	%rdi, -8(%rbp)
 3184              	.LBB18:
  60:TestMemoryOutStream.cpp **** {
 3185              		.loc 3 60 1
 3186 14f6 488D1500 		leaq	16+_ZTVN12_GLOBAL__N_141TestStreamingFloatWritesCorrectCharactersE(%rip), %rdx
 3186      000000
 3187 14fd 488B45F8 		movq	-8(%rbp), %rax
 3188 1501 488910   		movq	%rdx, (%rax)
 3189 1504 488B45F8 		movq	-8(%rbp), %rax
 3190 1508 4889C7   		movq	%rax, %rdi
 3191 150b E8000000 		call	_ZN8UnitTest4TestD2Ev@PLT
 3191      00
 3192              	.LBE18:
 3193 1510 90       		nop
 3194 1511 C9       		leave
 3195              		.cfi_def_cfa 7, 8
 3196 1512 C3       		ret
 3197              		.cfi_endproc
 3198              	.LFE1285:
 3200              		.set	_ZN12_GLOBAL__N_141TestStreamingFloatWritesCorrectCharactersD1Ev,_ZN12_GLOBAL__N_141TestStrea
 3201 1513 90       		.align 2
 3203              	_ZN12_GLOBAL__N_141TestStreamingFloatWritesCorrectCharactersD0Ev:
 3204              	.LFB1287:
  60:TestMemoryOutStream.cpp **** {
 3205              		.loc 3 60 1
 3206              		.cfi_startproc
 3207              		.cfi_personality 0x9b,DW.ref.__gxx_personality_v0
 3208              		.cfi_lsda 0x1b,.LLSDA1287
 3209 1514 F30F1EFA 		endbr64
 3210 1518 55       		pushq	%rbp
 3211              		.cfi_def_cfa_offset 16
 3212              		.cfi_offset 6, -16
 3213 1519 4889E5   		movq	%rsp, %rbp
 3214              		.cfi_def_cfa_register 6
 3215 151c 53       		pushq	%rbx
 3216 151d 4883EC18 		subq	$24, %rsp
 3217              		.cfi_offset 3, -24
 3218 1521 48897DE8 		movq	%rdi, -24(%rbp)
  60:TestMemoryOutStream.cpp **** {
 3219              		.loc 3 60 1
 3220 1525 488B45E8 		movq	-24(%rbp), %rax
 3221 1529 4889C7   		movq	%rax, %rdi
 3222              	.LEHB89:
 3223 152c E8B5FFFF 		call	_ZN12_GLOBAL__N_141TestStreamingFloatWritesCorrectCharactersD1Ev
 3223      FF
 3224              	.LEHE89:
  60:TestMemoryOutStream.cpp **** {
 3225              		.loc 3 60 1 is_stmt 0 discriminator 2
 3226 1531 488B45E8 		movq	-24(%rbp), %rax
 3227 1535 4889C7   		movq	%rax, %rdi
 3228 1538 E8000000 		call	_ZdlPv@PLT
 3228      00
 3229 153d EB1E     		jmp	.L158
 3230              	.L157:
 3231 153f F30F1EFA 		endbr64
  60:TestMemoryOutStream.cpp **** {
 3232              		.loc 3 60 1
 3233 1543 4889C3   		movq	%rax, %rbx
 3234 1546 488B45E8 		movq	-24(%rbp), %rax
 3235 154a 4889C7   		movq	%rax, %rdi
 3236 154d E8000000 		call	_ZdlPv@PLT
 3236      00
 3237 1552 4889D8   		movq	%rbx, %rax
 3238 1555 4889C7   		movq	%rax, %rdi
 3239              	.LEHB90:
 3240 1558 E8000000 		call	_Unwind_Resume@PLT
 3240      00
 3241              	.LEHE90:
 3242              	.L158:
 3243 155d 488B5DF8 		movq	-8(%rbp), %rbx
 3244 1561 C9       		leave
 3245              		.cfi_def_cfa 7, 8
 3246 1562 C3       		ret
 3247              		.cfi_endproc
 3248              	.LFE1287:
 3249              		.section	.gcc_except_table
 3250              	.LLSDA1287:
 3251 0240 FF       		.byte	0xff
 3252 0241 FF       		.byte	0xff
 3253 0242 01       		.byte	0x1
 3254 0243 08       		.uleb128 .LLSDACSE1287-.LLSDACSB1287
 3255              	.LLSDACSB1287:
 3256 0244 18       		.uleb128 .LEHB89-.LFB1287
 3257 0245 05       		.uleb128 .LEHE89-.LEHB89
 3258 0246 2B       		.uleb128 .L157-.LFB1287
 3259 0247 00       		.uleb128 0
 3260 0248 44       		.uleb128 .LEHB90-.LFB1287
 3261 0249 05       		.uleb128 .LEHE90-.LEHB90
 3262 024a 00       		.uleb128 0
 3263 024b 00       		.uleb128 0
 3264              	.LLSDACSE1287:
 3265              		.text
 3267              		.section	.data.rel.ro.local
 3268              		.align 8
 3271              	_ZTVN12_GLOBAL__N_148TestStreamingUnsignedLongWritesCorrectCharactersE:
 3272 00a0 00000000 		.quad	0
 3272      00000000 
 3273 00a8 00000000 		.quad	_ZTIN12_GLOBAL__N_148TestStreamingUnsignedLongWritesCorrectCharactersE
 3273      00000000 
 3274 00b0 00000000 		.quad	_ZN12_GLOBAL__N_148TestStreamingUnsignedLongWritesCorrectCharactersD1Ev
 3274      00000000 
 3275 00b8 00000000 		.quad	_ZN12_GLOBAL__N_148TestStreamingUnsignedLongWritesCorrectCharactersD0Ev
 3275      00000000 
 3276 00c0 00000000 		.quad	_ZNK12_GLOBAL__N_148TestStreamingUnsignedLongWritesCorrectCharacters7RunImplEv
 3276      00000000 
 3277              		.text
 3278 1563 90       		.align 2
 3280              	_ZN12_GLOBAL__N_148TestStreamingUnsignedLongWritesCorrectCharactersD2Ev:
 3281              	.LFB1289:
  53:TestMemoryOutStream.cpp **** {
 3282              		.loc 3 53 1 is_stmt 1
 3283              		.cfi_startproc
 3284 1564 F30F1EFA 		endbr64
 3285 1568 55       		pushq	%rbp
 3286              		.cfi_def_cfa_offset 16
 3287              		.cfi_offset 6, -16
 3288 1569 4889E5   		movq	%rsp, %rbp
 3289              		.cfi_def_cfa_register 6
 3290 156c 4883EC10 		subq	$16, %rsp
 3291 1570 48897DF8 		movq	%rdi, -8(%rbp)
 3292              	.LBB19:
  53:TestMemoryOutStream.cpp **** {
 3293              		.loc 3 53 1
 3294 1574 488D1500 		leaq	16+_ZTVN12_GLOBAL__N_148TestStreamingUnsignedLongWritesCorrectCharactersE(%rip), %rdx
 3294      000000
 3295 157b 488B45F8 		movq	-8(%rbp), %rax
 3296 157f 488910   		movq	%rdx, (%rax)
 3297 1582 488B45F8 		movq	-8(%rbp), %rax
 3298 1586 4889C7   		movq	%rax, %rdi
 3299 1589 E8000000 		call	_ZN8UnitTest4TestD2Ev@PLT
 3299      00
 3300              	.LBE19:
 3301 158e 90       		nop
 3302 158f C9       		leave
 3303              		.cfi_def_cfa 7, 8
 3304 1590 C3       		ret
 3305              		.cfi_endproc
 3306              	.LFE1289:
 3308              		.set	_ZN12_GLOBAL__N_148TestStreamingUnsignedLongWritesCorrectCharactersD1Ev,_ZN12_GLOBAL__N_148Te
 3309 1591 90       		.align 2
 3311              	_ZN12_GLOBAL__N_148TestStreamingUnsignedLongWritesCorrectCharactersD0Ev:
 3312              	.LFB1291:
  53:TestMemoryOutStream.cpp **** {
 3313              		.loc 3 53 1
 3314              		.cfi_startproc
 3315              		.cfi_personality 0x9b,DW.ref.__gxx_personality_v0
 3316              		.cfi_lsda 0x1b,.LLSDA1291
 3317 1592 F30F1EFA 		endbr64
 3318 1596 55       		pushq	%rbp
 3319              		.cfi_def_cfa_offset 16
 3320              		.cfi_offset 6, -16
 3321 1597 4889E5   		movq	%rsp, %rbp
 3322              		.cfi_def_cfa_register 6
 3323 159a 53       		pushq	%rbx
 3324 159b 4883EC18 		subq	$24, %rsp
 3325              		.cfi_offset 3, -24
 3326 159f 48897DE8 		movq	%rdi, -24(%rbp)
  53:TestMemoryOutStream.cpp **** {
 3327              		.loc 3 53 1
 3328 15a3 488B45E8 		movq	-24(%rbp), %rax
 3329 15a7 4889C7   		movq	%rax, %rdi
 3330              	.LEHB91:
 3331 15aa E8B5FFFF 		call	_ZN12_GLOBAL__N_148TestStreamingUnsignedLongWritesCorrectCharactersD1Ev
 3331      FF
 3332              	.LEHE91:
  53:TestMemoryOutStream.cpp **** {
 3333              		.loc 3 53 1 is_stmt 0 discriminator 2
 3334 15af 488B45E8 		movq	-24(%rbp), %rax
 3335 15b3 4889C7   		movq	%rax, %rdi
 3336 15b6 E8000000 		call	_ZdlPv@PLT
 3336      00
 3337 15bb EB1E     		jmp	.L163
 3338              	.L162:
 3339 15bd F30F1EFA 		endbr64
  53:TestMemoryOutStream.cpp **** {
 3340              		.loc 3 53 1
 3341 15c1 4889C3   		movq	%rax, %rbx
 3342 15c4 488B45E8 		movq	-24(%rbp), %rax
 3343 15c8 4889C7   		movq	%rax, %rdi
 3344 15cb E8000000 		call	_ZdlPv@PLT
 3344      00
 3345 15d0 4889D8   		movq	%rbx, %rax
 3346 15d3 4889C7   		movq	%rax, %rdi
 3347              	.LEHB92:
 3348 15d6 E8000000 		call	_Unwind_Resume@PLT
 3348      00
 3349              	.LEHE92:
 3350              	.L163:
 3351 15db 488B5DF8 		movq	-8(%rbp), %rbx
 3352 15df C9       		leave
 3353              		.cfi_def_cfa 7, 8
 3354 15e0 C3       		ret
 3355              		.cfi_endproc
 3356              	.LFE1291:
 3357              		.section	.gcc_except_table
 3358              	.LLSDA1291:
 3359 024c FF       		.byte	0xff
 3360 024d FF       		.byte	0xff
 3361 024e 01       		.byte	0x1
 3362 024f 08       		.uleb128 .LLSDACSE1291-.LLSDACSB1291
 3363              	.LLSDACSB1291:
 3364 0250 18       		.uleb128 .LEHB91-.LFB1291
 3365 0251 05       		.uleb128 .LEHE91-.LEHB91
 3366 0252 2B       		.uleb128 .L162-.LFB1291
 3367 0253 00       		.uleb128 0
 3368 0254 44       		.uleb128 .LEHB92-.LFB1291
 3369 0255 05       		.uleb128 .LEHE92-.LEHB92
 3370 0256 00       		.uleb128 0
 3371 0257 00       		.uleb128 0
 3372              	.LLSDACSE1291:
 3373              		.text
 3375              		.section	.data.rel.ro.local
 3376              		.align 8
 3379              	_ZTVN12_GLOBAL__N_140TestStreamingLongWritesCorrectCharactersE:
 3380 00c8 00000000 		.quad	0
 3380      00000000 
 3381 00d0 00000000 		.quad	_ZTIN12_GLOBAL__N_140TestStreamingLongWritesCorrectCharactersE
 3381      00000000 
 3382 00d8 00000000 		.quad	_ZN12_GLOBAL__N_140TestStreamingLongWritesCorrectCharactersD1Ev
 3382      00000000 
 3383 00e0 00000000 		.quad	_ZN12_GLOBAL__N_140TestStreamingLongWritesCorrectCharactersD0Ev
 3383      00000000 
 3384 00e8 00000000 		.quad	_ZNK12_GLOBAL__N_140TestStreamingLongWritesCorrectCharacters7RunImplEv
 3384      00000000 
 3385              		.text
 3386 15e1 90       		.align 2
 3388              	_ZN12_GLOBAL__N_140TestStreamingLongWritesCorrectCharactersD2Ev:
 3389              	.LFB1293:
  46:TestMemoryOutStream.cpp **** {
 3390              		.loc 3 46 1 is_stmt 1
 3391              		.cfi_startproc
 3392 15e2 F30F1EFA 		endbr64
 3393 15e6 55       		pushq	%rbp
 3394              		.cfi_def_cfa_offset 16
 3395              		.cfi_offset 6, -16
 3396 15e7 4889E5   		movq	%rsp, %rbp
 3397              		.cfi_def_cfa_register 6
 3398 15ea 4883EC10 		subq	$16, %rsp
 3399 15ee 48897DF8 		movq	%rdi, -8(%rbp)
 3400              	.LBB20:
  46:TestMemoryOutStream.cpp **** {
 3401              		.loc 3 46 1
 3402 15f2 488D1500 		leaq	16+_ZTVN12_GLOBAL__N_140TestStreamingLongWritesCorrectCharactersE(%rip), %rdx
 3402      000000
 3403 15f9 488B45F8 		movq	-8(%rbp), %rax
 3404 15fd 488910   		movq	%rdx, (%rax)
 3405 1600 488B45F8 		movq	-8(%rbp), %rax
 3406 1604 4889C7   		movq	%rax, %rdi
 3407 1607 E8000000 		call	_ZN8UnitTest4TestD2Ev@PLT
 3407      00
 3408              	.LBE20:
 3409 160c 90       		nop
 3410 160d C9       		leave
 3411              		.cfi_def_cfa 7, 8
 3412 160e C3       		ret
 3413              		.cfi_endproc
 3414              	.LFE1293:
 3416              		.set	_ZN12_GLOBAL__N_140TestStreamingLongWritesCorrectCharactersD1Ev,_ZN12_GLOBAL__N_140TestStream
 3417 160f 90       		.align 2
 3419              	_ZN12_GLOBAL__N_140TestStreamingLongWritesCorrectCharactersD0Ev:
 3420              	.LFB1295:
  46:TestMemoryOutStream.cpp **** {
 3421              		.loc 3 46 1
 3422              		.cfi_startproc
 3423              		.cfi_personality 0x9b,DW.ref.__gxx_personality_v0
 3424              		.cfi_lsda 0x1b,.LLSDA1295
 3425 1610 F30F1EFA 		endbr64
 3426 1614 55       		pushq	%rbp
 3427              		.cfi_def_cfa_offset 16
 3428              		.cfi_offset 6, -16
 3429 1615 4889E5   		movq	%rsp, %rbp
 3430              		.cfi_def_cfa_register 6
 3431 1618 53       		pushq	%rbx
 3432 1619 4883EC18 		subq	$24, %rsp
 3433              		.cfi_offset 3, -24
 3434 161d 48897DE8 		movq	%rdi, -24(%rbp)
  46:TestMemoryOutStream.cpp **** {
 3435              		.loc 3 46 1
 3436 1621 488B45E8 		movq	-24(%rbp), %rax
 3437 1625 4889C7   		movq	%rax, %rdi
 3438              	.LEHB93:
 3439 1628 E8B5FFFF 		call	_ZN12_GLOBAL__N_140TestStreamingLongWritesCorrectCharactersD1Ev
 3439      FF
 3440              	.LEHE93:
  46:TestMemoryOutStream.cpp **** {
 3441              		.loc 3 46 1 is_stmt 0 discriminator 2
 3442 162d 488B45E8 		movq	-24(%rbp), %rax
 3443 1631 4889C7   		movq	%rax, %rdi
 3444 1634 E8000000 		call	_ZdlPv@PLT
 3444      00
 3445 1639 EB1E     		jmp	.L168
 3446              	.L167:
 3447 163b F30F1EFA 		endbr64
  46:TestMemoryOutStream.cpp **** {
 3448              		.loc 3 46 1
 3449 163f 4889C3   		movq	%rax, %rbx
 3450 1642 488B45E8 		movq	-24(%rbp), %rax
 3451 1646 4889C7   		movq	%rax, %rdi
 3452 1649 E8000000 		call	_ZdlPv@PLT
 3452      00
 3453 164e 4889D8   		movq	%rbx, %rax
 3454 1651 4889C7   		movq	%rax, %rdi
 3455              	.LEHB94:
 3456 1654 E8000000 		call	_Unwind_Resume@PLT
 3456      00
 3457              	.LEHE94:
 3458              	.L168:
 3459 1659 488B5DF8 		movq	-8(%rbp), %rbx
 3460 165d C9       		leave
 3461              		.cfi_def_cfa 7, 8
 3462 165e C3       		ret
 3463              		.cfi_endproc
 3464              	.LFE1295:
 3465              		.section	.gcc_except_table
 3466              	.LLSDA1295:
 3467 0258 FF       		.byte	0xff
 3468 0259 FF       		.byte	0xff
 3469 025a 01       		.byte	0x1
 3470 025b 08       		.uleb128 .LLSDACSE1295-.LLSDACSB1295
 3471              	.LLSDACSB1295:
 3472 025c 18       		.uleb128 .LEHB93-.LFB1295
 3473 025d 05       		.uleb128 .LEHE93-.LEHB93
 3474 025e 2B       		.uleb128 .L167-.LFB1295
 3475 025f 00       		.uleb128 0
 3476 0260 44       		.uleb128 .LEHB94-.LFB1295
 3477 0261 05       		.uleb128 .LEHE94-.LEHB94
 3478 0262 00       		.uleb128 0
 3479 0263 00       		.uleb128 0
 3480              	.LLSDACSE1295:
 3481              		.text
 3483              		.section	.data.rel.ro.local
 3484              		.align 8
 3487              	_ZTVN12_GLOBAL__N_147TestStreamingUnsignedIntWritesCorrectCharactersE:
 3488 00f0 00000000 		.quad	0
 3488      00000000 
 3489 00f8 00000000 		.quad	_ZTIN12_GLOBAL__N_147TestStreamingUnsignedIntWritesCorrectCharactersE
 3489      00000000 
 3490 0100 00000000 		.quad	_ZN12_GLOBAL__N_147TestStreamingUnsignedIntWritesCorrectCharactersD1Ev
 3490      00000000 
 3491 0108 00000000 		.quad	_ZN12_GLOBAL__N_147TestStreamingUnsignedIntWritesCorrectCharactersD0Ev
 3491      00000000 
 3492 0110 00000000 		.quad	_ZNK12_GLOBAL__N_147TestStreamingUnsignedIntWritesCorrectCharacters7RunImplEv
 3492      00000000 
 3493              		.text
 3494 165f 90       		.align 2
 3496              	_ZN12_GLOBAL__N_147TestStreamingUnsignedIntWritesCorrectCharactersD2Ev:
 3497              	.LFB1297:
  39:TestMemoryOutStream.cpp **** {
 3498              		.loc 3 39 1 is_stmt 1
 3499              		.cfi_startproc
 3500 1660 F30F1EFA 		endbr64
 3501 1664 55       		pushq	%rbp
 3502              		.cfi_def_cfa_offset 16
 3503              		.cfi_offset 6, -16
 3504 1665 4889E5   		movq	%rsp, %rbp
 3505              		.cfi_def_cfa_register 6
 3506 1668 4883EC10 		subq	$16, %rsp
 3507 166c 48897DF8 		movq	%rdi, -8(%rbp)
 3508              	.LBB21:
  39:TestMemoryOutStream.cpp **** {
 3509              		.loc 3 39 1
 3510 1670 488D1500 		leaq	16+_ZTVN12_GLOBAL__N_147TestStreamingUnsignedIntWritesCorrectCharactersE(%rip), %rdx
 3510      000000
 3511 1677 488B45F8 		movq	-8(%rbp), %rax
 3512 167b 488910   		movq	%rdx, (%rax)
 3513 167e 488B45F8 		movq	-8(%rbp), %rax
 3514 1682 4889C7   		movq	%rax, %rdi
 3515 1685 E8000000 		call	_ZN8UnitTest4TestD2Ev@PLT
 3515      00
 3516              	.LBE21:
 3517 168a 90       		nop
 3518 168b C9       		leave
 3519              		.cfi_def_cfa 7, 8
 3520 168c C3       		ret
 3521              		.cfi_endproc
 3522              	.LFE1297:
 3524              		.set	_ZN12_GLOBAL__N_147TestStreamingUnsignedIntWritesCorrectCharactersD1Ev,_ZN12_GLOBAL__N_147Tes
 3525 168d 90       		.align 2
 3527              	_ZN12_GLOBAL__N_147TestStreamingUnsignedIntWritesCorrectCharactersD0Ev:
 3528              	.LFB1299:
  39:TestMemoryOutStream.cpp **** {
 3529              		.loc 3 39 1
 3530              		.cfi_startproc
 3531              		.cfi_personality 0x9b,DW.ref.__gxx_personality_v0
 3532              		.cfi_lsda 0x1b,.LLSDA1299
 3533 168e F30F1EFA 		endbr64
 3534 1692 55       		pushq	%rbp
 3535              		.cfi_def_cfa_offset 16
 3536              		.cfi_offset 6, -16
 3537 1693 4889E5   		movq	%rsp, %rbp
 3538              		.cfi_def_cfa_register 6
 3539 1696 53       		pushq	%rbx
 3540 1697 4883EC18 		subq	$24, %rsp
 3541              		.cfi_offset 3, -24
 3542 169b 48897DE8 		movq	%rdi, -24(%rbp)
  39:TestMemoryOutStream.cpp **** {
 3543              		.loc 3 39 1
 3544 169f 488B45E8 		movq	-24(%rbp), %rax
 3545 16a3 4889C7   		movq	%rax, %rdi
 3546              	.LEHB95:
 3547 16a6 E8B5FFFF 		call	_ZN12_GLOBAL__N_147TestStreamingUnsignedIntWritesCorrectCharactersD1Ev
 3547      FF
 3548              	.LEHE95:
  39:TestMemoryOutStream.cpp **** {
 3549              		.loc 3 39 1 is_stmt 0 discriminator 2
 3550 16ab 488B45E8 		movq	-24(%rbp), %rax
 3551 16af 4889C7   		movq	%rax, %rdi
 3552 16b2 E8000000 		call	_ZdlPv@PLT
 3552      00
 3553 16b7 EB1E     		jmp	.L173
 3554              	.L172:
 3555 16b9 F30F1EFA 		endbr64
  39:TestMemoryOutStream.cpp **** {
 3556              		.loc 3 39 1
 3557 16bd 4889C3   		movq	%rax, %rbx
 3558 16c0 488B45E8 		movq	-24(%rbp), %rax
 3559 16c4 4889C7   		movq	%rax, %rdi
 3560 16c7 E8000000 		call	_ZdlPv@PLT
 3560      00
 3561 16cc 4889D8   		movq	%rbx, %rax
 3562 16cf 4889C7   		movq	%rax, %rdi
 3563              	.LEHB96:
 3564 16d2 E8000000 		call	_Unwind_Resume@PLT
 3564      00
 3565              	.LEHE96:
 3566              	.L173:
 3567 16d7 488B5DF8 		movq	-8(%rbp), %rbx
 3568 16db C9       		leave
 3569              		.cfi_def_cfa 7, 8
 3570 16dc C3       		ret
 3571              		.cfi_endproc
 3572              	.LFE1299:
 3573              		.section	.gcc_except_table
 3574              	.LLSDA1299:
 3575 0264 FF       		.byte	0xff
 3576 0265 FF       		.byte	0xff
 3577 0266 01       		.byte	0x1
 3578 0267 08       		.uleb128 .LLSDACSE1299-.LLSDACSB1299
 3579              	.LLSDACSB1299:
 3580 0268 18       		.uleb128 .LEHB95-.LFB1299
 3581 0269 05       		.uleb128 .LEHE95-.LEHB95
 3582 026a 2B       		.uleb128 .L172-.LFB1299
 3583 026b 00       		.uleb128 0
 3584 026c 44       		.uleb128 .LEHB96-.LFB1299
 3585 026d 05       		.uleb128 .LEHE96-.LEHB96
 3586 026e 00       		.uleb128 0
 3587 026f 00       		.uleb128 0
 3588              	.LLSDACSE1299:
 3589              		.text
 3591              		.section	.data.rel.ro.local
 3592              		.align 8
 3595              	_ZTVN12_GLOBAL__N_139TestStreamingIntWritesCorrectCharactersE:
 3596 0118 00000000 		.quad	0
 3596      00000000 
 3597 0120 00000000 		.quad	_ZTIN12_GLOBAL__N_139TestStreamingIntWritesCorrectCharactersE
 3597      00000000 
 3598 0128 00000000 		.quad	_ZN12_GLOBAL__N_139TestStreamingIntWritesCorrectCharactersD1Ev
 3598      00000000 
 3599 0130 00000000 		.quad	_ZN12_GLOBAL__N_139TestStreamingIntWritesCorrectCharactersD0Ev
 3599      00000000 
 3600 0138 00000000 		.quad	_ZNK12_GLOBAL__N_139TestStreamingIntWritesCorrectCharacters7RunImplEv
 3600      00000000 
 3601              		.text
 3602 16dd 90       		.align 2
 3604              	_ZN12_GLOBAL__N_139TestStreamingIntWritesCorrectCharactersD2Ev:
 3605              	.LFB1301:
  32:TestMemoryOutStream.cpp **** {
 3606              		.loc 3 32 1 is_stmt 1
 3607              		.cfi_startproc
 3608 16de F30F1EFA 		endbr64
 3609 16e2 55       		pushq	%rbp
 3610              		.cfi_def_cfa_offset 16
 3611              		.cfi_offset 6, -16
 3612 16e3 4889E5   		movq	%rsp, %rbp
 3613              		.cfi_def_cfa_register 6
 3614 16e6 4883EC10 		subq	$16, %rsp
 3615 16ea 48897DF8 		movq	%rdi, -8(%rbp)
 3616              	.LBB22:
  32:TestMemoryOutStream.cpp **** {
 3617              		.loc 3 32 1
 3618 16ee 488D1500 		leaq	16+_ZTVN12_GLOBAL__N_139TestStreamingIntWritesCorrectCharactersE(%rip), %rdx
 3618      000000
 3619 16f5 488B45F8 		movq	-8(%rbp), %rax
 3620 16f9 488910   		movq	%rdx, (%rax)
 3621 16fc 488B45F8 		movq	-8(%rbp), %rax
 3622 1700 4889C7   		movq	%rax, %rdi
 3623 1703 E8000000 		call	_ZN8UnitTest4TestD2Ev@PLT
 3623      00
 3624              	.LBE22:
 3625 1708 90       		nop
 3626 1709 C9       		leave
 3627              		.cfi_def_cfa 7, 8
 3628 170a C3       		ret
 3629              		.cfi_endproc
 3630              	.LFE1301:
 3632              		.set	_ZN12_GLOBAL__N_139TestStreamingIntWritesCorrectCharactersD1Ev,_ZN12_GLOBAL__N_139TestStreami
 3633 170b 90       		.align 2
 3635              	_ZN12_GLOBAL__N_139TestStreamingIntWritesCorrectCharactersD0Ev:
 3636              	.LFB1303:
  32:TestMemoryOutStream.cpp **** {
 3637              		.loc 3 32 1
 3638              		.cfi_startproc
 3639              		.cfi_personality 0x9b,DW.ref.__gxx_personality_v0
 3640              		.cfi_lsda 0x1b,.LLSDA1303
 3641 170c F30F1EFA 		endbr64
 3642 1710 55       		pushq	%rbp
 3643              		.cfi_def_cfa_offset 16
 3644              		.cfi_offset 6, -16
 3645 1711 4889E5   		movq	%rsp, %rbp
 3646              		.cfi_def_cfa_register 6
 3647 1714 53       		pushq	%rbx
 3648 1715 4883EC18 		subq	$24, %rsp
 3649              		.cfi_offset 3, -24
 3650 1719 48897DE8 		movq	%rdi, -24(%rbp)
  32:TestMemoryOutStream.cpp **** {
 3651              		.loc 3 32 1
 3652 171d 488B45E8 		movq	-24(%rbp), %rax
 3653 1721 4889C7   		movq	%rax, %rdi
 3654              	.LEHB97:
 3655 1724 E8B5FFFF 		call	_ZN12_GLOBAL__N_139TestStreamingIntWritesCorrectCharactersD1Ev
 3655      FF
 3656              	.LEHE97:
  32:TestMemoryOutStream.cpp **** {
 3657              		.loc 3 32 1 is_stmt 0 discriminator 2
 3658 1729 488B45E8 		movq	-24(%rbp), %rax
 3659 172d 4889C7   		movq	%rax, %rdi
 3660 1730 E8000000 		call	_ZdlPv@PLT
 3660      00
 3661 1735 EB1E     		jmp	.L178
 3662              	.L177:
 3663 1737 F30F1EFA 		endbr64
  32:TestMemoryOutStream.cpp **** {
 3664              		.loc 3 32 1
 3665 173b 4889C3   		movq	%rax, %rbx
 3666 173e 488B45E8 		movq	-24(%rbp), %rax
 3667 1742 4889C7   		movq	%rax, %rdi
 3668 1745 E8000000 		call	_ZdlPv@PLT
 3668      00
 3669 174a 4889D8   		movq	%rbx, %rax
 3670 174d 4889C7   		movq	%rax, %rdi
 3671              	.LEHB98:
 3672 1750 E8000000 		call	_Unwind_Resume@PLT
 3672      00
 3673              	.LEHE98:
 3674              	.L178:
 3675 1755 488B5DF8 		movq	-8(%rbp), %rbx
 3676 1759 C9       		leave
 3677              		.cfi_def_cfa 7, 8
 3678 175a C3       		ret
 3679              		.cfi_endproc
 3680              	.LFE1303:
 3681              		.section	.gcc_except_table
 3682              	.LLSDA1303:
 3683 0270 FF       		.byte	0xff
 3684 0271 FF       		.byte	0xff
 3685 0272 01       		.byte	0x1
 3686 0273 08       		.uleb128 .LLSDACSE1303-.LLSDACSB1303
 3687              	.LLSDACSB1303:
 3688 0274 18       		.uleb128 .LEHB97-.LFB1303
 3689 0275 05       		.uleb128 .LEHE97-.LEHB97
 3690 0276 2B       		.uleb128 .L177-.LFB1303
 3691 0277 00       		.uleb128 0
 3692 0278 44       		.uleb128 .LEHB98-.LFB1303
 3693 0279 05       		.uleb128 .LEHE98-.LEHB98
 3694 027a 00       		.uleb128 0
 3695 027b 00       		.uleb128 0
 3696              	.LLSDACSE1303:
 3697              		.text
 3699              		.section	.data.rel.ro.local
 3700              		.align 8
 3703              	_ZTVN12_GLOBAL__N_144TestStreamingMultipleTimesConcatenatesResultE:
 3704 0140 00000000 		.quad	0
 3704      00000000 
 3705 0148 00000000 		.quad	_ZTIN12_GLOBAL__N_144TestStreamingMultipleTimesConcatenatesResultE
 3705      00000000 
 3706 0150 00000000 		.quad	_ZN12_GLOBAL__N_144TestStreamingMultipleTimesConcatenatesResultD1Ev
 3706      00000000 
 3707 0158 00000000 		.quad	_ZN12_GLOBAL__N_144TestStreamingMultipleTimesConcatenatesResultD0Ev
 3707      00000000 
 3708 0160 00000000 		.quad	_ZNK12_GLOBAL__N_144TestStreamingMultipleTimesConcatenatesResult7RunImplEv
 3708      00000000 
 3709              		.text
 3710 175b 90       		.align 2
 3712              	_ZN12_GLOBAL__N_144TestStreamingMultipleTimesConcatenatesResultD2Ev:
 3713              	.LFB1305:
  25:TestMemoryOutStream.cpp **** {
 3714              		.loc 3 25 1 is_stmt 1
 3715              		.cfi_startproc
 3716 175c F30F1EFA 		endbr64
 3717 1760 55       		pushq	%rbp
 3718              		.cfi_def_cfa_offset 16
 3719              		.cfi_offset 6, -16
 3720 1761 4889E5   		movq	%rsp, %rbp
 3721              		.cfi_def_cfa_register 6
 3722 1764 4883EC10 		subq	$16, %rsp
 3723 1768 48897DF8 		movq	%rdi, -8(%rbp)
 3724              	.LBB23:
  25:TestMemoryOutStream.cpp **** {
 3725              		.loc 3 25 1
 3726 176c 488D1500 		leaq	16+_ZTVN12_GLOBAL__N_144TestStreamingMultipleTimesConcatenatesResultE(%rip), %rdx
 3726      000000
 3727 1773 488B45F8 		movq	-8(%rbp), %rax
 3728 1777 488910   		movq	%rdx, (%rax)
 3729 177a 488B45F8 		movq	-8(%rbp), %rax
 3730 177e 4889C7   		movq	%rax, %rdi
 3731 1781 E8000000 		call	_ZN8UnitTest4TestD2Ev@PLT
 3731      00
 3732              	.LBE23:
 3733 1786 90       		nop
 3734 1787 C9       		leave
 3735              		.cfi_def_cfa 7, 8
 3736 1788 C3       		ret
 3737              		.cfi_endproc
 3738              	.LFE1305:
 3740              		.set	_ZN12_GLOBAL__N_144TestStreamingMultipleTimesConcatenatesResultD1Ev,_ZN12_GLOBAL__N_144TestSt
 3741 1789 90       		.align 2
 3743              	_ZN12_GLOBAL__N_144TestStreamingMultipleTimesConcatenatesResultD0Ev:
 3744              	.LFB1307:
  25:TestMemoryOutStream.cpp **** {
 3745              		.loc 3 25 1
 3746              		.cfi_startproc
 3747              		.cfi_personality 0x9b,DW.ref.__gxx_personality_v0
 3748              		.cfi_lsda 0x1b,.LLSDA1307
 3749 178a F30F1EFA 		endbr64
 3750 178e 55       		pushq	%rbp
 3751              		.cfi_def_cfa_offset 16
 3752              		.cfi_offset 6, -16
 3753 178f 4889E5   		movq	%rsp, %rbp
 3754              		.cfi_def_cfa_register 6
 3755 1792 53       		pushq	%rbx
 3756 1793 4883EC18 		subq	$24, %rsp
 3757              		.cfi_offset 3, -24
 3758 1797 48897DE8 		movq	%rdi, -24(%rbp)
  25:TestMemoryOutStream.cpp **** {
 3759              		.loc 3 25 1
 3760 179b 488B45E8 		movq	-24(%rbp), %rax
 3761 179f 4889C7   		movq	%rax, %rdi
 3762              	.LEHB99:
 3763 17a2 E8B5FFFF 		call	_ZN12_GLOBAL__N_144TestStreamingMultipleTimesConcatenatesResultD1Ev
 3763      FF
 3764              	.LEHE99:
  25:TestMemoryOutStream.cpp **** {
 3765              		.loc 3 25 1 is_stmt 0 discriminator 2
 3766 17a7 488B45E8 		movq	-24(%rbp), %rax
 3767 17ab 4889C7   		movq	%rax, %rdi
 3768 17ae E8000000 		call	_ZdlPv@PLT
 3768      00
 3769 17b3 EB1E     		jmp	.L183
 3770              	.L182:
 3771 17b5 F30F1EFA 		endbr64
  25:TestMemoryOutStream.cpp **** {
 3772              		.loc 3 25 1
 3773 17b9 4889C3   		movq	%rax, %rbx
 3774 17bc 488B45E8 		movq	-24(%rbp), %rax
 3775 17c0 4889C7   		movq	%rax, %rdi
 3776 17c3 E8000000 		call	_ZdlPv@PLT
 3776      00
 3777 17c8 4889D8   		movq	%rbx, %rax
 3778 17cb 4889C7   		movq	%rax, %rdi
 3779              	.LEHB100:
 3780 17ce E8000000 		call	_Unwind_Resume@PLT
 3780      00
 3781              	.LEHE100:
 3782              	.L183:
 3783 17d3 488B5DF8 		movq	-8(%rbp), %rbx
 3784 17d7 C9       		leave
 3785              		.cfi_def_cfa 7, 8
 3786 17d8 C3       		ret
 3787              		.cfi_endproc
 3788              	.LFE1307:
 3789              		.section	.gcc_except_table
 3790              	.LLSDA1307:
 3791 027c FF       		.byte	0xff
 3792 027d FF       		.byte	0xff
 3793 027e 01       		.byte	0x1
 3794 027f 08       		.uleb128 .LLSDACSE1307-.LLSDACSB1307
 3795              	.LLSDACSB1307:
 3796 0280 18       		.uleb128 .LEHB99-.LFB1307
 3797 0281 05       		.uleb128 .LEHE99-.LEHB99
 3798 0282 2B       		.uleb128 .L182-.LFB1307
 3799 0283 00       		.uleb128 0
 3800 0284 44       		.uleb128 .LEHB100-.LFB1307
 3801 0285 05       		.uleb128 .LEHE100-.LEHB100
 3802 0286 00       		.uleb128 0
 3803 0287 00       		.uleb128 0
 3804              	.LLSDACSE1307:
 3805              		.text
 3807              		.section	.data.rel.ro.local
 3808              		.align 8
 3811              	_ZTVN12_GLOBAL__N_133TestStreamingTextCopiesCharactersE:
 3812 0168 00000000 		.quad	0
 3812      00000000 
 3813 0170 00000000 		.quad	_ZTIN12_GLOBAL__N_133TestStreamingTextCopiesCharactersE
 3813      00000000 
 3814 0178 00000000 		.quad	_ZN12_GLOBAL__N_133TestStreamingTextCopiesCharactersD1Ev
 3814      00000000 
 3815 0180 00000000 		.quad	_ZN12_GLOBAL__N_133TestStreamingTextCopiesCharactersD0Ev
 3815      00000000 
 3816 0188 00000000 		.quad	_ZNK12_GLOBAL__N_133TestStreamingTextCopiesCharacters7RunImplEv
 3816      00000000 
 3817              		.text
 3818 17d9 90       		.align 2
 3820              	_ZN12_GLOBAL__N_133TestStreamingTextCopiesCharactersD2Ev:
 3821              	.LFB1309:
  18:TestMemoryOutStream.cpp **** {
 3822              		.loc 3 18 1 is_stmt 1
 3823              		.cfi_startproc
 3824 17da F30F1EFA 		endbr64
 3825 17de 55       		pushq	%rbp
 3826              		.cfi_def_cfa_offset 16
 3827              		.cfi_offset 6, -16
 3828 17df 4889E5   		movq	%rsp, %rbp
 3829              		.cfi_def_cfa_register 6
 3830 17e2 4883EC10 		subq	$16, %rsp
 3831 17e6 48897DF8 		movq	%rdi, -8(%rbp)
 3832              	.LBB24:
  18:TestMemoryOutStream.cpp **** {
 3833              		.loc 3 18 1
 3834 17ea 488D1500 		leaq	16+_ZTVN12_GLOBAL__N_133TestStreamingTextCopiesCharactersE(%rip), %rdx
 3834      000000
 3835 17f1 488B45F8 		movq	-8(%rbp), %rax
 3836 17f5 488910   		movq	%rdx, (%rax)
 3837 17f8 488B45F8 		movq	-8(%rbp), %rax
 3838 17fc 4889C7   		movq	%rax, %rdi
 3839 17ff E8000000 		call	_ZN8UnitTest4TestD2Ev@PLT
 3839      00
 3840              	.LBE24:
 3841 1804 90       		nop
 3842 1805 C9       		leave
 3843              		.cfi_def_cfa 7, 8
 3844 1806 C3       		ret
 3845              		.cfi_endproc
 3846              	.LFE1309:
 3848              		.set	_ZN12_GLOBAL__N_133TestStreamingTextCopiesCharactersD1Ev,_ZN12_GLOBAL__N_133TestStreamingText
 3849 1807 90       		.align 2
 3851              	_ZN12_GLOBAL__N_133TestStreamingTextCopiesCharactersD0Ev:
 3852              	.LFB1311:
  18:TestMemoryOutStream.cpp **** {
 3853              		.loc 3 18 1
 3854              		.cfi_startproc
 3855              		.cfi_personality 0x9b,DW.ref.__gxx_personality_v0
 3856              		.cfi_lsda 0x1b,.LLSDA1311
 3857 1808 F30F1EFA 		endbr64
 3858 180c 55       		pushq	%rbp
 3859              		.cfi_def_cfa_offset 16
 3860              		.cfi_offset 6, -16
 3861 180d 4889E5   		movq	%rsp, %rbp
 3862              		.cfi_def_cfa_register 6
 3863 1810 53       		pushq	%rbx
 3864 1811 4883EC18 		subq	$24, %rsp
 3865              		.cfi_offset 3, -24
 3866 1815 48897DE8 		movq	%rdi, -24(%rbp)
  18:TestMemoryOutStream.cpp **** {
 3867              		.loc 3 18 1
 3868 1819 488B45E8 		movq	-24(%rbp), %rax
 3869 181d 4889C7   		movq	%rax, %rdi
 3870              	.LEHB101:
 3871 1820 E8B5FFFF 		call	_ZN12_GLOBAL__N_133TestStreamingTextCopiesCharactersD1Ev
 3871      FF
 3872              	.LEHE101:
  18:TestMemoryOutStream.cpp **** {
 3873              		.loc 3 18 1 is_stmt 0 discriminator 2
 3874 1825 488B45E8 		movq	-24(%rbp), %rax
 3875 1829 4889C7   		movq	%rax, %rdi
 3876 182c E8000000 		call	_ZdlPv@PLT
 3876      00
 3877 1831 EB1E     		jmp	.L188
 3878              	.L187:
 3879 1833 F30F1EFA 		endbr64
  18:TestMemoryOutStream.cpp **** {
 3880              		.loc 3 18 1
 3881 1837 4889C3   		movq	%rax, %rbx
 3882 183a 488B45E8 		movq	-24(%rbp), %rax
 3883 183e 4889C7   		movq	%rax, %rdi
 3884 1841 E8000000 		call	_ZdlPv@PLT
 3884      00
 3885 1846 4889D8   		movq	%rbx, %rax
 3886 1849 4889C7   		movq	%rax, %rdi
 3887              	.LEHB102:
 3888 184c E8000000 		call	_Unwind_Resume@PLT
 3888      00
 3889              	.LEHE102:
 3890              	.L188:
 3891 1851 488B5DF8 		movq	-8(%rbp), %rbx
 3892 1855 C9       		leave
 3893              		.cfi_def_cfa 7, 8
 3894 1856 C3       		ret
 3895              		.cfi_endproc
 3896              	.LFE1311:
 3897              		.section	.gcc_except_table
 3898              	.LLSDA1311:
 3899 0288 FF       		.byte	0xff
 3900 0289 FF       		.byte	0xff
 3901 028a 01       		.byte	0x1
 3902 028b 08       		.uleb128 .LLSDACSE1311-.LLSDACSB1311
 3903              	.LLSDACSB1311:
 3904 028c 18       		.uleb128 .LEHB101-.LFB1311
 3905 028d 05       		.uleb128 .LEHE101-.LEHB101
 3906 028e 2B       		.uleb128 .L187-.LFB1311
 3907 028f 00       		.uleb128 0
 3908 0290 44       		.uleb128 .LEHB102-.LFB1311
 3909 0291 05       		.uleb128 .LEHE102-.LEHB102
 3910 0292 00       		.uleb128 0
 3911 0293 00       		.uleb128 0
 3912              	.LLSDACSE1311:
 3913              		.text
 3915              		.section	.data.rel.ro.local
 3916              		.align 8
 3919              	_ZTVN12_GLOBAL__N_124TestDefaultIsEmptyStringE:
 3920 0190 00000000 		.quad	0
 3920      00000000 
 3921 0198 00000000 		.quad	_ZTIN12_GLOBAL__N_124TestDefaultIsEmptyStringE
 3921      00000000 
 3922 01a0 00000000 		.quad	_ZN12_GLOBAL__N_124TestDefaultIsEmptyStringD1Ev
 3922      00000000 
 3923 01a8 00000000 		.quad	_ZN12_GLOBAL__N_124TestDefaultIsEmptyStringD0Ev
 3923      00000000 
 3924 01b0 00000000 		.quad	_ZNK12_GLOBAL__N_124TestDefaultIsEmptyString7RunImplEv
 3924      00000000 
 3925              		.text
 3926 1857 90       		.align 2
 3928              	_ZN12_GLOBAL__N_124TestDefaultIsEmptyStringD2Ev:
 3929              	.LFB1313:
  11:TestMemoryOutStream.cpp **** {
 3930              		.loc 3 11 1 is_stmt 1
 3931              		.cfi_startproc
 3932 1858 F30F1EFA 		endbr64
 3933 185c 55       		pushq	%rbp
 3934              		.cfi_def_cfa_offset 16
 3935              		.cfi_offset 6, -16
 3936 185d 4889E5   		movq	%rsp, %rbp
 3937              		.cfi_def_cfa_register 6
 3938 1860 4883EC10 		subq	$16, %rsp
 3939 1864 48897DF8 		movq	%rdi, -8(%rbp)
 3940              	.LBB25:
  11:TestMemoryOutStream.cpp **** {
 3941              		.loc 3 11 1
 3942 1868 488D1500 		leaq	16+_ZTVN12_GLOBAL__N_124TestDefaultIsEmptyStringE(%rip), %rdx
 3942      000000
 3943 186f 488B45F8 		movq	-8(%rbp), %rax
 3944 1873 488910   		movq	%rdx, (%rax)
 3945 1876 488B45F8 		movq	-8(%rbp), %rax
 3946 187a 4889C7   		movq	%rax, %rdi
 3947 187d E8000000 		call	_ZN8UnitTest4TestD2Ev@PLT
 3947      00
 3948              	.LBE25:
 3949 1882 90       		nop
 3950 1883 C9       		leave
 3951              		.cfi_def_cfa 7, 8
 3952 1884 C3       		ret
 3953              		.cfi_endproc
 3954              	.LFE1313:
 3956              		.set	_ZN12_GLOBAL__N_124TestDefaultIsEmptyStringD1Ev,_ZN12_GLOBAL__N_124TestDefaultIsEmptyStringD2
 3957 1885 90       		.align 2
 3959              	_ZN12_GLOBAL__N_124TestDefaultIsEmptyStringD0Ev:
 3960              	.LFB1315:
  11:TestMemoryOutStream.cpp **** {
 3961              		.loc 3 11 1
 3962              		.cfi_startproc
 3963              		.cfi_personality 0x9b,DW.ref.__gxx_personality_v0
 3964              		.cfi_lsda 0x1b,.LLSDA1315
 3965 1886 F30F1EFA 		endbr64
 3966 188a 55       		pushq	%rbp
 3967              		.cfi_def_cfa_offset 16
 3968              		.cfi_offset 6, -16
 3969 188b 4889E5   		movq	%rsp, %rbp
 3970              		.cfi_def_cfa_register 6
 3971 188e 53       		pushq	%rbx
 3972 188f 4883EC18 		subq	$24, %rsp
 3973              		.cfi_offset 3, -24
 3974 1893 48897DE8 		movq	%rdi, -24(%rbp)
  11:TestMemoryOutStream.cpp **** {
 3975              		.loc 3 11 1
 3976 1897 488B45E8 		movq	-24(%rbp), %rax
 3977 189b 4889C7   		movq	%rax, %rdi
 3978              	.LEHB103:
 3979 189e E8B5FFFF 		call	_ZN12_GLOBAL__N_124TestDefaultIsEmptyStringD1Ev
 3979      FF
 3980              	.LEHE103:
  11:TestMemoryOutStream.cpp **** {
 3981              		.loc 3 11 1 is_stmt 0 discriminator 2
 3982 18a3 488B45E8 		movq	-24(%rbp), %rax
 3983 18a7 4889C7   		movq	%rax, %rdi
 3984 18aa E8000000 		call	_ZdlPv@PLT
 3984      00
 3985 18af EB1E     		jmp	.L193
 3986              	.L192:
 3987 18b1 F30F1EFA 		endbr64
  11:TestMemoryOutStream.cpp **** {
 3988              		.loc 3 11 1
 3989 18b5 4889C3   		movq	%rax, %rbx
 3990 18b8 488B45E8 		movq	-24(%rbp), %rax
 3991 18bc 4889C7   		movq	%rax, %rdi
 3992 18bf E8000000 		call	_ZdlPv@PLT
 3992      00
 3993 18c4 4889D8   		movq	%rbx, %rax
 3994 18c7 4889C7   		movq	%rax, %rdi
 3995              	.LEHB104:
 3996 18ca E8000000 		call	_Unwind_Resume@PLT
 3996      00
 3997              	.LEHE104:
 3998              	.L193:
 3999 18cf 488B5DF8 		movq	-8(%rbp), %rbx
 4000 18d3 C9       		leave
 4001              		.cfi_def_cfa 7, 8
 4002 18d4 C3       		ret
 4003              		.cfi_endproc
 4004              	.LFE1315:
 4005              		.section	.gcc_except_table
 4006              	.LLSDA1315:
 4007 0294 FF       		.byte	0xff
 4008 0295 FF       		.byte	0xff
 4009 0296 01       		.byte	0x1
 4010 0297 08       		.uleb128 .LLSDACSE1315-.LLSDACSB1315
 4011              	.LLSDACSB1315:
 4012 0298 18       		.uleb128 .LEHB103-.LFB1315
 4013 0299 05       		.uleb128 .LEHE103-.LEHB103
 4014 029a 2B       		.uleb128 .L192-.LFB1315
 4015 029b 00       		.uleb128 0
 4016 029c 44       		.uleb128 .LEHB104-.LFB1315
 4017 029d 05       		.uleb128 .LEHE104-.LEHB104
 4018 029e 00       		.uleb128 0
 4019 029f 00       		.uleb128 0
 4020              	.LLSDACSE1315:
 4021              		.text
 4023              		.weak	_ZTVN8UnitTest15MemoryOutStreamE
 4024              		.section	.data.rel.ro.local._ZTVN8UnitTest15MemoryOutStreamE,"awG",@progbits,_ZTVN8UnitTest15Memor
 4025              		.align 8
 4028              	_ZTVN8UnitTest15MemoryOutStreamE:
 4029 0000 90000000 		.quad	144
 4029      00000000 
 4030 0008 00000000 		.quad	0
 4030      00000000 
 4031 0010 00000000 		.quad	_ZTIN8UnitTest15MemoryOutStreamE
 4031      00000000 
 4032 0018 00000000 		.quad	_ZN8UnitTest15MemoryOutStreamD1Ev
 4032      00000000 
 4033 0020 00000000 		.quad	_ZN8UnitTest15MemoryOutStreamD0Ev
 4033      00000000 
 4034 0028 70FFFFFF 		.quad	-144
 4034      FFFFFFFF 
 4035 0030 70FFFFFF 		.quad	-144
 4035      FFFFFFFF 
 4036 0038 00000000 		.quad	_ZTIN8UnitTest15MemoryOutStreamE
 4036      00000000 
 4037 0040 00000000 		.quad	_ZTv0_n24_N8UnitTest15MemoryOutStreamD1Ev
 4037      00000000 
 4038 0048 00000000 		.quad	_ZTv0_n24_N8UnitTest15MemoryOutStreamD0Ev
 4038      00000000 
 4039              		.weak	_ZTTN8UnitTest15MemoryOutStreamE
 4040              		.section	.data.rel.ro.local._ZTTN8UnitTest15MemoryOutStreamE,"awG",@progbits,_ZTVN8UnitTest15Memor
 4041              		.align 8
 4044              	_ZTTN8UnitTest15MemoryOutStreamE:
 4045 0000 00000000 		.quad	_ZTVN8UnitTest15MemoryOutStreamE+24
 4045      00000000 
 4046 0008 00000000 		.quad	_ZTCN8UnitTest15MemoryOutStreamE0_NSt7__cxx1119basic_ostringstreamIcSt11char_traitsIcESaIcEE
 4046      00000000 
 4047 0010 00000000 		.quad	_ZTCN8UnitTest15MemoryOutStreamE0_So+24
 4047      00000000 
 4048 0018 00000000 		.quad	_ZTCN8UnitTest15MemoryOutStreamE0_So+64
 4048      00000000 
 4049 0020 00000000 		.quad	_ZTCN8UnitTest15MemoryOutStreamE0_NSt7__cxx1119basic_ostringstreamIcSt11char_traitsIcESaIcEE
 4049      00000000 
 4050 0028 00000000 		.quad	_ZTVN8UnitTest15MemoryOutStreamE+64
 4050      00000000 
 4051              		.hidden	_ZTCN8UnitTest15MemoryOutStreamE0_NSt7__cxx1119basic_ostringstreamIcSt11char_traitsIcESaIc
 4052              		.weak	_ZTCN8UnitTest15MemoryOutStreamE0_NSt7__cxx1119basic_ostringstreamIcSt11char_traitsIcESaIcEE
 4053              		.section	.data.rel.ro._ZTCN8UnitTest15MemoryOutStreamE0_NSt7__cxx1119basic_ostringstreamIcSt11char
 4054              		.align 8
 4057              	_ZTCN8UnitTest15MemoryOutStreamE0_NSt7__cxx1119basic_ostringstreamIcSt11char_traitsIcESaIcEEE:
 4058 0000 90000000 		.quad	144
 4058      00000000 
 4059 0008 00000000 		.quad	0
 4059      00000000 
 4060 0010 00000000 		.quad	_ZTINSt7__cxx1119basic_ostringstreamIcSt11char_traitsIcESaIcEEE
 4060      00000000 
 4061 0018 00000000 		.quad	0
 4061      00000000 
 4062 0020 00000000 		.quad	0
 4062      00000000 
 4063 0028 70FFFFFF 		.quad	-144
 4063      FFFFFFFF 
 4064 0030 70FFFFFF 		.quad	-144
 4064      FFFFFFFF 
 4065 0038 00000000 		.quad	_ZTINSt7__cxx1119basic_ostringstreamIcSt11char_traitsIcESaIcEEE
 4065      00000000 
 4066 0040 00000000 		.quad	0
 4066      00000000 
 4067 0048 00000000 		.quad	0
 4067      00000000 
 4068              		.hidden	_ZTCN8UnitTest15MemoryOutStreamE0_So
 4069              		.weak	_ZTCN8UnitTest15MemoryOutStreamE0_So
 4070              		.section	.data.rel.ro._ZTCN8UnitTest15MemoryOutStreamE0_So,"awG",@progbits,_ZTVN8UnitTest15MemoryO
 4071              		.align 8
 4074              	_ZTCN8UnitTest15MemoryOutStreamE0_So:
 4075 0000 90000000 		.quad	144
 4075      00000000 
 4076 0008 00000000 		.quad	0
 4076      00000000 
 4077 0010 00000000 		.quad	_ZTISo
 4077      00000000 
 4078 0018 00000000 		.quad	0
 4078      00000000 
 4079 0020 00000000 		.quad	0
 4079      00000000 
 4080 0028 70FFFFFF 		.quad	-144
 4080      FFFFFFFF 
 4081 0030 70FFFFFF 		.quad	-144
 4081      FFFFFFFF 
 4082 0038 00000000 		.quad	_ZTISo
 4082      00000000 
 4083 0040 00000000 		.quad	0
 4083      00000000 
 4084 0048 00000000 		.quad	0
 4084      00000000 
 4085              		.section	.text._ZN8UnitTest15MemoryOutStreamD1Ev,"axG",@progbits,_ZN8UnitTest15MemoryOutStreamD1Ev
 4086              		.align 2
 4087              		.weak	_ZN8UnitTest15MemoryOutStreamD1Ev
 4089              	_ZN8UnitTest15MemoryOutStreamD1Ev:
 4090              	.LFB1318:
  13:../MemoryOutStream.h **** {
 4091              		.loc 2 13 7 is_stmt 1
 4092              		.cfi_startproc
 4093              		.cfi_personality 0x9b,DW.ref.__gxx_personality_v0
 4094              		.cfi_lsda 0x1b,.LLSDA1318
 4095 0000 F30F1EFA 		endbr64
 4096 0004 55       		pushq	%rbp
 4097              		.cfi_def_cfa_offset 16
 4098              		.cfi_offset 6, -16
 4099 0005 4889E5   		movq	%rsp, %rbp
 4100              		.cfi_def_cfa_register 6
 4101 0008 53       		pushq	%rbx
 4102 0009 4883EC18 		subq	$24, %rsp
 4103              		.cfi_offset 3, -24
 4104 000d 48897DE8 		movq	%rdi, -24(%rbp)
 4105              	.LBB26:
  13:../MemoryOutStream.h **** {
 4106              		.loc 2 13 7
 4107 0011 488D1500 		leaq	24+_ZTVN8UnitTest15MemoryOutStreamE(%rip), %rdx
 4107      000000
 4108 0018 488B45E8 		movq	-24(%rbp), %rax
 4109 001c 488910   		movq	%rdx, (%rax)
 4110 001f 488B45E8 		movq	-24(%rbp), %rax
 4111 0023 48059000 		addq	$144, %rax
 4111      0000
 4112 0029 488D1500 		leaq	64+_ZTVN8UnitTest15MemoryOutStreamE(%rip), %rdx
 4112      000000
 4113 0030 488910   		movq	%rdx, (%rax)
 4114 0033 488B45E8 		movq	-24(%rbp), %rax
 4115 0037 4883C070 		addq	$112, %rax
 4116 003b 4889C7   		movq	%rax, %rdi
 4117              	.LEHB105:
 4118 003e E8000000 		call	_ZNSt7__cxx1112basic_stringIcSt11char_traitsIcESaIcEED1Ev@PLT
 4118      00
 4119              	.LEHE105:
  13:../MemoryOutStream.h **** {
 4120              		.loc 2 13 7 is_stmt 0 discriminator 2
 4121 0043 488B45E8 		movq	-24(%rbp), %rax
 4122 0047 488D1500 		leaq	8+_ZTTN8UnitTest15MemoryOutStreamE(%rip), %rdx
 4122      000000
 4123 004e 4889D6   		movq	%rdx, %rsi
 4124 0051 4889C7   		movq	%rax, %rdi
 4125              	.LEHB106:
 4126 0054 E8000000 		call	_ZNSt7__cxx1119basic_ostringstreamIcSt11char_traitsIcESaIcEED2Ev@PLT
 4126      00
 4127              	.LEHE106:
  13:../MemoryOutStream.h **** {
 4128              		.loc 2 13 7 discriminator 4
 4129 0059 488B45E8 		movq	-24(%rbp), %rax
 4130 005d 48059000 		addq	$144, %rax
 4130      0000
 4131 0063 4889C7   		movq	%rax, %rdi
 4132              	.LEHB107:
 4133 0066 E8000000 		call	_ZNSt9basic_iosIcSt11char_traitsIcEED2Ev@PLT
 4133      00
 4134              	.LEHE107:
 4135              	.LBE26:
 4136 006b EB43     		jmp	.L199
 4137              	.L197:
 4138 006d F30F1EFA 		endbr64
 4139              	.LBB27:
  13:../MemoryOutStream.h **** {
 4140              		.loc 2 13 7
 4141 0071 4889C3   		movq	%rax, %rbx
 4142 0074 488B45E8 		movq	-24(%rbp), %rax
 4143 0078 488D1500 		leaq	8+_ZTTN8UnitTest15MemoryOutStreamE(%rip), %rdx
 4143      000000
 4144 007f 4889D6   		movq	%rdx, %rsi
 4145 0082 4889C7   		movq	%rax, %rdi
 4146 0085 E8000000 		call	_ZNSt7__cxx1119basic_ostringstreamIcSt11char_traitsIcESaIcEED2Ev@PLT
 4146      00
 4147 008a EB07     		jmp	.L196
 4148              	.L198:
 4149 008c F30F1EFA 		endbr64
 4150 0090 4889C3   		movq	%rax, %rbx
 4151              	.L196:
  13:../MemoryOutStream.h **** {
 4152              		.loc 2 13 7 discriminator 3
 4153 0093 488B45E8 		movq	-24(%rbp), %rax
 4154 0097 48059000 		addq	$144, %rax
 4154      0000
 4155 009d 4889C7   		movq	%rax, %rdi
 4156 00a0 E8000000 		call	_ZNSt9basic_iosIcSt11char_traitsIcEED2Ev@PLT
 4156      00
 4157 00a5 4889D8   		movq	%rbx, %rax
 4158 00a8 4889C7   		movq	%rax, %rdi
 4159              	.LEHB108:
 4160 00ab E8000000 		call	_Unwind_Resume@PLT
 4160      00
 4161              	.LEHE108:
 4162              	.L199:
 4163              	.LBE27:
  13:../MemoryOutStream.h **** {
 4164              		.loc 2 13 7
 4165 00b0 488B5DF8 		movq	-8(%rbp), %rbx
 4166 00b4 C9       		leave
 4167              		.cfi_def_cfa 7, 8
 4168 00b5 C3       		ret
 4169              		.cfi_endproc
 4170              	.LFE1318:
 4171              		.section	.gcc_except_table
 4172              	.LLSDA1318:
 4173 02a0 FF       		.byte	0xff
 4174 02a1 FF       		.byte	0xff
 4175 02a2 01       		.byte	0x1
 4176 02a3 12       		.uleb128 .LLSDACSE1318-.LLSDACSB1318
 4177              	.LLSDACSB1318:
 4178 02a4 3E       		.uleb128 .LEHB105-.LFB1318
 4179 02a5 05       		.uleb128 .LEHE105-.LEHB105
 4180 02a6 6D       		.uleb128 .L197-.LFB1318
 4181 02a7 00       		.uleb128 0
 4182 02a8 54       		.uleb128 .LEHB106-.LFB1318
 4183 02a9 05       		.uleb128 .LEHE106-.LEHB106
 4184 02aa 8C01     		.uleb128 .L198-.LFB1318
 4185 02ac 00       		.uleb128 0
 4186 02ad 66       		.uleb128 .LEHB107-.LFB1318
 4187 02ae 05       		.uleb128 .LEHE107-.LEHB107
 4188 02af 00       		.uleb128 0
 4189 02b0 00       		.uleb128 0
 4190 02b1 AB01     		.uleb128 .LEHB108-.LFB1318
 4191 02b3 05       		.uleb128 .LEHE108-.LEHB108
 4192 02b4 00       		.uleb128 0
 4193 02b5 00       		.uleb128 0
 4194              	.LLSDACSE1318:
 4195              		.section	.text._ZN8UnitTest15MemoryOutStreamD1Ev,"axG",@progbits,_ZN8UnitTest15MemoryOutStreamD1Ev
 4197              		.set	.LTHUNK0,_ZN8UnitTest15MemoryOutStreamD1Ev
 4198              		.weak	_ZTv0_n24_N8UnitTest15MemoryOutStreamD1Ev
 4200              	_ZTv0_n24_N8UnitTest15MemoryOutStreamD1Ev:
 4201              	.LFB1322:
  13:../MemoryOutStream.h **** {
 4202              		.loc 2 13 7 is_stmt 1
 4203              		.cfi_startproc
 4204 00b6 F30F1EFA 		endbr64
 4205 00ba 4C8B17   		movq	(%rdi), %r10
 4206 00bd 49037AE8 		addq	-24(%r10), %rdi
 4207 00c1 E93AFFFF 		jmp	.LTHUNK0
 4207      FF
 4208              		.cfi_endproc
 4209              	.LFE1322:
 4211              		.section	.text._ZN8UnitTest15MemoryOutStreamD0Ev,"axG",@progbits,_ZN8UnitTest15MemoryOutStreamD0Ev
 4212              		.align 2
 4213              		.weak	_ZN8UnitTest15MemoryOutStreamD0Ev
 4215              	_ZN8UnitTest15MemoryOutStreamD0Ev:
 4216              	.LFB1319:
  13:../MemoryOutStream.h **** {
 4217              		.loc 2 13 7
 4218              		.cfi_startproc
 4219              		.cfi_personality 0x9b,DW.ref.__gxx_personality_v0
 4220              		.cfi_lsda 0x1b,.LLSDA1319
 4221 0000 F30F1EFA 		endbr64
 4222 0004 55       		pushq	%rbp
 4223              		.cfi_def_cfa_offset 16
 4224              		.cfi_offset 6, -16
 4225 0005 4889E5   		movq	%rsp, %rbp
 4226              		.cfi_def_cfa_register 6
 4227 0008 53       		pushq	%rbx
 4228 0009 4883EC18 		subq	$24, %rsp
 4229              		.cfi_offset 3, -24
 4230 000d 48897DE8 		movq	%rdi, -24(%rbp)
  13:../MemoryOutStream.h **** {
 4231              		.loc 2 13 7
 4232 0011 488B45E8 		movq	-24(%rbp), %rax
 4233 0015 4889C7   		movq	%rax, %rdi
 4234              	.LEHB109:
 4235 0018 E8000000 		call	_ZN8UnitTest15MemoryOutStreamD1Ev
 4235      00
 4236              	.LEHE109:
  13:../MemoryOutStream.h **** {
 4237              		.loc 2 13 7 is_stmt 0 discriminator 2
 4238 001d 488B45E8 		movq	-24(%rbp), %rax
 4239 0021 4889C7   		movq	%rax, %rdi
 4240 0024 E8000000 		call	_ZdlPv@PLT
 4240      00
 4241 0029 EB1E     		jmp	.L203
 4242              	.L202:
 4243 002b F30F1EFA 		endbr64
  13:../MemoryOutStream.h **** {
 4244              		.loc 2 13 7
 4245 002f 4889C3   		movq	%rax, %rbx
 4246 0032 488B45E8 		movq	-24(%rbp), %rax
 4247 0036 4889C7   		movq	%rax, %rdi
 4248 0039 E8000000 		call	_ZdlPv@PLT
 4248      00
 4249 003e 4889D8   		movq	%rbx, %rax
 4250 0041 4889C7   		movq	%rax, %rdi
 4251              	.LEHB110:
 4252 0044 E8000000 		call	_Unwind_Resume@PLT
 4252      00
 4253              	.LEHE110:
 4254              	.L203:
 4255 0049 488B5DF8 		movq	-8(%rbp), %rbx
 4256 004d C9       		leave
 4257              		.cfi_def_cfa 7, 8
 4258 004e C3       		ret
 4259              		.cfi_endproc
 4260              	.LFE1319:
 4261              		.section	.gcc_except_table
 4262              	.LLSDA1319:
 4263 02b6 FF       		.byte	0xff
 4264 02b7 FF       		.byte	0xff
 4265 02b8 01       		.byte	0x1
 4266 02b9 08       		.uleb128 .LLSDACSE1319-.LLSDACSB1319
 4267              	.LLSDACSB1319:
 4268 02ba 18       		.uleb128 .LEHB109-.LFB1319
 4269 02bb 05       		.uleb128 .LEHE109-.LEHB109
 4270 02bc 2B       		.uleb128 .L202-.LFB1319
 4271 02bd 00       		.uleb128 0
 4272 02be 44       		.uleb128 .LEHB110-.LFB1319
 4273 02bf 05       		.uleb128 .LEHE110-.LEHB110
 4274 02c0 00       		.uleb128 0
 4275 02c1 00       		.uleb128 0
 4276              	.LLSDACSE1319:
 4277              		.section	.text._ZN8UnitTest15MemoryOutStreamD0Ev,"axG",@progbits,_ZN8UnitTest15MemoryOutStreamD0Ev
 4279              		.set	.LTHUNK1,_ZN8UnitTest15MemoryOutStreamD0Ev
 4280              		.weak	_ZTv0_n24_N8UnitTest15MemoryOutStreamD0Ev
 4282              	_ZTv0_n24_N8UnitTest15MemoryOutStreamD0Ev:
 4283              	.LFB1323:
  13:../MemoryOutStream.h **** {
 4284              		.loc 2 13 7 is_stmt 1
 4285              		.cfi_startproc
 4286 004f F30F1EFA 		endbr64
 4287 0053 4C8B17   		movq	(%rdi), %r10
 4288 0056 49037AE8 		addq	-24(%r10), %rdi
 4289 005a EBA4     		jmp	.LTHUNK1
 4290              		.cfi_endproc
 4291              	.LFE1323:
 4293              		.section	.rodata
 4294 04c6 00000000 		.align 32
 4294      00000000 
 4294      00000000 
 4294      00000000 
 4294      00000000 
 4297              	_ZTSN12_GLOBAL__N_141TestStreamingSizeTWritesCorrectCharactersE:
 4298 04e0 2A4E3132 		.string	"*N12_GLOBAL__N_141TestStreamingSizeTWritesCorrectCharactersE"
 4298      5F474C4F 
 4298      42414C5F 
 4298      5F4E5F31 
 4298      34315465 
 4299              		.section	.data.rel.ro,"aw"
 4300              		.align 8
 4303              	_ZTIN12_GLOBAL__N_141TestStreamingSizeTWritesCorrectCharactersE:
 4304 0000 00000000 		.quad	_ZTVN10__cxxabiv120__si_class_type_infoE+16
 4304      00000000 
 4305 0008 00000000 		.quad	_ZTSN12_GLOBAL__N_141TestStreamingSizeTWritesCorrectCharactersE
 4305      00000000 
 4306 0010 00000000 		.quad	_ZTIN8UnitTest4TestE
 4306      00000000 
 4307              		.section	.rodata
 4308 051d 000000   		.align 32
 4311              	_ZTSN12_GLOBAL__N_143TestStreamingPointerWritesCorrectCharactersE:
 4312 0520 2A4E3132 		.string	"*N12_GLOBAL__N_143TestStreamingPointerWritesCorrectCharactersE"
 4312      5F474C4F 
 4312      42414C5F 
 4312      5F4E5F31 
 4312      34335465 
 4313              		.section	.data.rel.ro
 4314              		.align 8
 4317              	_ZTIN12_GLOBAL__N_143TestStreamingPointerWritesCorrectCharactersE:
 4318 0018 00000000 		.quad	_ZTVN10__cxxabiv120__si_class_type_infoE+16
 4318      00000000 
 4319 0020 00000000 		.quad	_ZTSN12_GLOBAL__N_143TestStreamingPointerWritesCorrectCharactersE
 4319      00000000 
 4320 0028 00000000 		.quad	_ZTIN8UnitTest4TestE
 4320      00000000 
 4321              		.section	.rodata
 4322 055f 00       		.align 32
 4325              	_ZTSN12_GLOBAL__N_142TestStreamingDoubleWritesCorrectCharactersE:
 4326 0560 2A4E3132 		.string	"*N12_GLOBAL__N_142TestStreamingDoubleWritesCorrectCharactersE"
 4326      5F474C4F 
 4326      42414C5F 
 4326      5F4E5F31 
 4326      34325465 
 4327              		.section	.data.rel.ro
 4328              		.align 8
 4331              	_ZTIN12_GLOBAL__N_142TestStreamingDoubleWritesCorrectCharactersE:
 4332 0030 00000000 		.quad	_ZTVN10__cxxabiv120__si_class_type_infoE+16
 4332      00000000 
 4333 0038 00000000 		.quad	_ZTSN12_GLOBAL__N_142TestStreamingDoubleWritesCorrectCharactersE
 4333      00000000 
 4334 0040 00000000 		.quad	_ZTIN8UnitTest4TestE
 4334      00000000 
 4335              		.section	.rodata
 4336 059e 0000     		.align 32
 4339              	_ZTSN12_GLOBAL__N_141TestStreamingFloatWritesCorrectCharactersE:
 4340 05a0 2A4E3132 		.string	"*N12_GLOBAL__N_141TestStreamingFloatWritesCorrectCharactersE"
 4340      5F474C4F 
 4340      42414C5F 
 4340      5F4E5F31 
 4340      34315465 
 4341              		.section	.data.rel.ro
 4342              		.align 8
 4345              	_ZTIN12_GLOBAL__N_141TestStreamingFloatWritesCorrectCharactersE:
 4346 0048 00000000 		.quad	_ZTVN10__cxxabiv120__si_class_type_infoE+16
 4346      00000000 
 4347 0050 00000000 		.quad	_ZTSN12_GLOBAL__N_141TestStreamingFloatWritesCorrectCharactersE
 4347      00000000 
 4348 0058 00000000 		.quad	_ZTIN8UnitTest4TestE
 4348      00000000 
 4349              		.section	.rodata
 4350 05dd 000000   		.align 32
 4353              	_ZTSN12_GLOBAL__N_148TestStreamingUnsignedLongWritesCorrectCharactersE:
 4354 05e0 2A4E3132 		.string	"*N12_GLOBAL__N_148TestStreamingUnsignedLongWritesCorrectCharactersE"
 4354      5F474C4F 
 4354      42414C5F 
 4354      5F4E5F31 
 4354      34385465 
 4355              		.section	.data.rel.ro
 4356              		.align 8
 4359              	_ZTIN12_GLOBAL__N_148TestStreamingUnsignedLongWritesCorrectCharactersE:
 4360 0060 00000000 		.quad	_ZTVN10__cxxabiv120__si_class_type_infoE+16
 4360      00000000 
 4361 0068 00000000 		.quad	_ZTSN12_GLOBAL__N_148TestStreamingUnsignedLongWritesCorrectCharactersE
 4361      00000000 
 4362 0070 00000000 		.quad	_ZTIN8UnitTest4TestE
 4362      00000000 
 4363              		.section	.rodata
 4364 0624 00000000 		.align 32
 4364      00000000 
 4364      00000000 
 4364      00000000 
 4364      00000000 
 4367              	_ZTSN12_GLOBAL__N_140TestStreamingLongWritesCorrectCharactersE:
 4368 0640 2A4E3132 		.string	"*N12_GLOBAL__N_140TestStreamingLongWritesCorrectCharactersE"
 4368      5F474C4F 
 4368      42414C5F 
 4368      5F4E5F31 
 4368      34305465 
 4369              		.section	.data.rel.ro
 4370              		.align 8
 4373              	_ZTIN12_GLOBAL__N_140TestStreamingLongWritesCorrectCharactersE:
 4374 0078 00000000 		.quad	_ZTVN10__cxxabiv120__si_class_type_infoE+16
 4374      00000000 
 4375 0080 00000000 		.quad	_ZTSN12_GLOBAL__N_140TestStreamingLongWritesCorrectCharactersE
 4375      00000000 
 4376 0088 00000000 		.quad	_ZTIN8UnitTest4TestE
 4376      00000000 
 4377              		.section	.rodata
 4378 067c 00000000 		.align 32
 4381              	_ZTSN12_GLOBAL__N_147TestStreamingUnsignedIntWritesCorrectCharactersE:
 4382 0680 2A4E3132 		.string	"*N12_GLOBAL__N_147TestStreamingUnsignedIntWritesCorrectCharactersE"
 4382      5F474C4F 
 4382      42414C5F 
 4382      5F4E5F31 
 4382      34375465 
 4383              		.section	.data.rel.ro
 4384              		.align 8
 4387              	_ZTIN12_GLOBAL__N_147TestStreamingUnsignedIntWritesCorrectCharactersE:
 4388 0090 00000000 		.quad	_ZTVN10__cxxabiv120__si_class_type_infoE+16
 4388      00000000 
 4389 0098 00000000 		.quad	_ZTSN12_GLOBAL__N_147TestStreamingUnsignedIntWritesCorrectCharactersE
 4389      00000000 
 4390 00a0 00000000 		.quad	_ZTIN8UnitTest4TestE
 4390      00000000 
 4391              		.section	.rodata
 4392 06c3 00000000 		.align 32
 4392      00000000 
 4392      00000000 
 4392      00000000 
 4392      00000000 
 4395              	_ZTSN12_GLOBAL__N_139TestStreamingIntWritesCorrectCharactersE:
 4396 06e0 2A4E3132 		.string	"*N12_GLOBAL__N_139TestStreamingIntWritesCorrectCharactersE"
 4396      5F474C4F 
 4396      42414C5F 
 4396      5F4E5F31 
 4396      33395465 
 4397              		.section	.data.rel.ro
 4398              		.align 8
 4401              	_ZTIN12_GLOBAL__N_139TestStreamingIntWritesCorrectCharactersE:
 4402 00a8 00000000 		.quad	_ZTVN10__cxxabiv120__si_class_type_infoE+16
 4402      00000000 
 4403 00b0 00000000 		.quad	_ZTSN12_GLOBAL__N_139TestStreamingIntWritesCorrectCharactersE
 4403      00000000 
 4404 00b8 00000000 		.quad	_ZTIN8UnitTest4TestE
 4404      00000000 
 4405              		.section	.rodata
 4406 071b 00000000 		.align 32
 4406      00
 4409              	_ZTSN12_GLOBAL__N_144TestStreamingMultipleTimesConcatenatesResultE:
 4410 0720 2A4E3132 		.string	"*N12_GLOBAL__N_144TestStreamingMultipleTimesConcatenatesResultE"
 4410      5F474C4F 
 4410      42414C5F 
 4410      5F4E5F31 
 4410      34345465 
 4411              		.section	.data.rel.ro
 4412              		.align 8
 4415              	_ZTIN12_GLOBAL__N_144TestStreamingMultipleTimesConcatenatesResultE:
 4416 00c0 00000000 		.quad	_ZTVN10__cxxabiv120__si_class_type_infoE+16
 4416      00000000 
 4417 00c8 00000000 		.quad	_ZTSN12_GLOBAL__N_144TestStreamingMultipleTimesConcatenatesResultE
 4417      00000000 
 4418 00d0 00000000 		.quad	_ZTIN8UnitTest4TestE
 4418      00000000 
 4419              		.section	.rodata
 4420              		.align 32
 4423              	_ZTSN12_GLOBAL__N_133TestStreamingTextCopiesCharactersE:
 4424 0760 2A4E3132 		.string	"*N12_GLOBAL__N_133TestStreamingTextCopiesCharactersE"
 4424      5F474C4F 
 4424      42414C5F 
 4424      5F4E5F31 
 4424      33335465 
 4425              		.section	.data.rel.ro
 4426              		.align 8
 4429              	_ZTIN12_GLOBAL__N_133TestStreamingTextCopiesCharactersE:
 4430 00d8 00000000 		.quad	_ZTVN10__cxxabiv120__si_class_type_infoE+16
 4430      00000000 
 4431 00e0 00000000 		.quad	_ZTSN12_GLOBAL__N_133TestStreamingTextCopiesCharactersE
 4431      00000000 
 4432 00e8 00000000 		.quad	_ZTIN8UnitTest4TestE
 4432      00000000 
 4433              		.section	.rodata
 4434 0795 00000000 		.align 32
 4434      00000000 
 4434      000000
 4437              	_ZTSN12_GLOBAL__N_124TestDefaultIsEmptyStringE:
 4438 07a0 2A4E3132 		.string	"*N12_GLOBAL__N_124TestDefaultIsEmptyStringE"
 4438      5F474C4F 
 4438      42414C5F 
 4438      5F4E5F31 
 4438      32345465 
 4439              		.section	.data.rel.ro
 4440              		.align 8
 4443              	_ZTIN12_GLOBAL__N_124TestDefaultIsEmptyStringE:
 4444 00f0 00000000 		.quad	_ZTVN10__cxxabiv120__si_class_type_infoE+16
 4444      00000000 
 4445 00f8 00000000 		.quad	_ZTSN12_GLOBAL__N_124TestDefaultIsEmptyStringE
 4445      00000000 
 4446 0100 00000000 		.quad	_ZTIN8UnitTest4TestE
 4446      00000000 
 4447              		.weak	_ZTIN8UnitTest15MemoryOutStreamE
 4448              		.section	.data.rel.ro._ZTIN8UnitTest15MemoryOutStreamE,"awG",@progbits,_ZTIN8UnitTest15MemoryOutSt
 4449              		.align 8
 4452              	_ZTIN8UnitTest15MemoryOutStreamE:
 4453 0000 00000000 		.quad	_ZTVN10__cxxabiv120__si_class_type_infoE+16
 4453      00000000 
 4454 0008 00000000 		.quad	_ZTSN8UnitTest15MemoryOutStreamE
 4454      00000000 
 4455 0010 00000000 		.quad	_ZTINSt7__cxx1119basic_ostringstreamIcSt11char_traitsIcESaIcEEE
 4455      00000000 
 4456              		.weak	_ZTSN8UnitTest15MemoryOutStreamE
 4457              		.section	.rodata._ZTSN8UnitTest15MemoryOutStreamE,"aG",@progbits,_ZTSN8UnitTest15MemoryOutStreamE,
 4458              		.align 16
 4461              	_ZTSN8UnitTest15MemoryOutStreamE:
 4462 0000 4E38556E 		.string	"N8UnitTest15MemoryOutStreamE"
 4462      69745465 
 4462      73743135 
 4462      4D656D6F 
 4462      72794F75 
 4463              		.text
 4465              	_Z41__static_initialization_and_destruction_0ii:
 4466              	.LFB1320:
  89:TestMemoryOutStream.cpp **** 
  90:TestMemoryOutStream.cpp **** #ifdef UNITTEST_USE_CUSTOM_STREAMS
  91:TestMemoryOutStream.cpp **** 
  92:TestMemoryOutStream.cpp **** TEST(StreamInitialCapacityIsCorrect)
  93:TestMemoryOutStream.cpp **** {
  94:TestMemoryOutStream.cpp ****     MemoryOutStream stream(MemoryOutStream::GROW_CHUNK_SIZE);
  95:TestMemoryOutStream.cpp ****     CHECK_EQUAL((int)MemoryOutStream::GROW_CHUNK_SIZE, stream.GetCapacity());
  96:TestMemoryOutStream.cpp **** }
  97:TestMemoryOutStream.cpp **** 
  98:TestMemoryOutStream.cpp **** TEST(StreamInitialCapacityIsMultipleOfGrowChunkSize)
  99:TestMemoryOutStream.cpp **** {
 100:TestMemoryOutStream.cpp ****     MemoryOutStream stream(MemoryOutStream::GROW_CHUNK_SIZE + 1);
 101:TestMemoryOutStream.cpp ****     CHECK_EQUAL((int)MemoryOutStream::GROW_CHUNK_SIZE * 2, stream.GetCapacity());
 102:TestMemoryOutStream.cpp **** }
 103:TestMemoryOutStream.cpp **** 
 104:TestMemoryOutStream.cpp **** 
 105:TestMemoryOutStream.cpp **** TEST(ExceedingCapacityGrowsBuffer)
 106:TestMemoryOutStream.cpp **** {
 107:TestMemoryOutStream.cpp ****     MemoryOutStream stream(MemoryOutStream::GROW_CHUNK_SIZE);
 108:TestMemoryOutStream.cpp ****     stream << "012345678901234567890123456789";
 109:TestMemoryOutStream.cpp ****     char const* const oldBuffer = stream.GetText();
 110:TestMemoryOutStream.cpp ****     stream << "0123456789";
 111:TestMemoryOutStream.cpp ****     CHECK(oldBuffer != stream.GetText());
 112:TestMemoryOutStream.cpp **** }
 113:TestMemoryOutStream.cpp **** 
 114:TestMemoryOutStream.cpp **** TEST(ExceedingCapacityGrowsBufferByGrowChunk)
 115:TestMemoryOutStream.cpp **** {
 116:TestMemoryOutStream.cpp ****     MemoryOutStream stream(MemoryOutStream::GROW_CHUNK_SIZE);
 117:TestMemoryOutStream.cpp ****     stream << "0123456789012345678901234567890123456789";
 118:TestMemoryOutStream.cpp ****     CHECK_EQUAL(MemoryOutStream::GROW_CHUNK_SIZE * 2, stream.GetCapacity());
 119:TestMemoryOutStream.cpp **** }
 120:TestMemoryOutStream.cpp **** 
 121:TestMemoryOutStream.cpp **** TEST(WritingStringLongerThanCapacityFitsInNewBuffer)
 122:TestMemoryOutStream.cpp **** {
 123:TestMemoryOutStream.cpp ****     MemoryOutStream stream(8);
 124:TestMemoryOutStream.cpp ****     stream << "0123456789ABCDEF";
 125:TestMemoryOutStream.cpp ****     CHECK_EQUAL("0123456789ABCDEF", stream.GetText());
 126:TestMemoryOutStream.cpp **** }
 127:TestMemoryOutStream.cpp **** 
 128:TestMemoryOutStream.cpp **** TEST(WritingIntLongerThanCapacityFitsInNewBuffer)
 129:TestMemoryOutStream.cpp **** {
 130:TestMemoryOutStream.cpp ****     MemoryOutStream stream(8);
 131:TestMemoryOutStream.cpp ****     stream << "aaaa" << 123456;;
 132:TestMemoryOutStream.cpp ****     CHECK_EQUAL("aaaa123456", stream.GetText());
 133:TestMemoryOutStream.cpp **** }
 134:TestMemoryOutStream.cpp **** 
 135:TestMemoryOutStream.cpp **** TEST(WritingFloatLongerThanCapacityFitsInNewBuffer)
 136:TestMemoryOutStream.cpp **** {
 137:TestMemoryOutStream.cpp ****     MemoryOutStream stream(8);
 138:TestMemoryOutStream.cpp ****     stream << "aaaa" << 123456.0f;;
 139:TestMemoryOutStream.cpp ****     CHECK_EQUAL("aaaa123456.000000f", stream.GetText());
 140:TestMemoryOutStream.cpp **** }
 141:TestMemoryOutStream.cpp **** 
 142:TestMemoryOutStream.cpp **** TEST(WritingSizeTLongerThanCapacityFitsInNewBuffer)
 143:TestMemoryOutStream.cpp **** {
 144:TestMemoryOutStream.cpp ****     MemoryOutStream stream(8);
 145:TestMemoryOutStream.cpp ****     stream << "aaaa" << size_t(32145);
 146:TestMemoryOutStream.cpp ****     CHECK_EQUAL("aaaa32145", stream.GetText());
 147:TestMemoryOutStream.cpp **** }
 148:TestMemoryOutStream.cpp **** 
 149:TestMemoryOutStream.cpp **** #endif
 150:TestMemoryOutStream.cpp **** 
 151:TestMemoryOutStream.cpp **** }
 4467              		.loc 3 151 1
 4468              		.cfi_startproc
 4469 18d5 F30F1EFA 		endbr64
 4470 18d9 55       		pushq	%rbp
 4471              		.cfi_def_cfa_offset 16
 4472              		.cfi_offset 6, -16
 4473 18da 4889E5   		movq	%rsp, %rbp
 4474              		.cfi_def_cfa_register 6
 4475 18dd 4883EC10 		subq	$16, %rsp
 4476 18e1 897DFC   		movl	%edi, -4(%rbp)
 4477 18e4 8975F8   		movl	%esi, -8(%rbp)
 4478              		.loc 3 151 1
 4479 18e7 837DFC01 		cmpl	$1, -4(%rbp)
 4480 18eb 0F85BF03 		jne	.L206
 4480      0000
 4481              		.loc 3 151 1 is_stmt 0 discriminator 1
 4482 18f1 817DF8FF 		cmpl	$65535, -8(%rbp)
 4482      FF0000
 4483 18f8 0F85B203 		jne	.L206
 4483      0000
  11:TestMemoryOutStream.cpp **** {
 4484              		.loc 3 11 1 is_stmt 1
 4485 18fe 488D0500 		leaq	_ZN12_GLOBAL__N_132testDefaultIsEmptyStringInstanceE(%rip), %rax
 4485      000000
 4486 1905 4889C7   		movq	%rax, %rdi
 4487 1908 E8F3E6FF 		call	_ZN12_GLOBAL__N_124TestDefaultIsEmptyStringC1Ev
 4487      FF
 4488 190d 488D0500 		leaq	__dso_handle(%rip), %rax
 4488      000000
 4489 1914 4889C2   		movq	%rax, %rdx
 4490 1917 488D0500 		leaq	_ZN12_GLOBAL__N_132testDefaultIsEmptyStringInstanceE(%rip), %rax
 4490      000000
 4491 191e 4889C6   		movq	%rax, %rsi
 4492 1921 488D0530 		leaq	_ZN12_GLOBAL__N_124TestDefaultIsEmptyStringD1Ev(%rip), %rax
 4492      FFFFFF
 4493 1928 4889C7   		movq	%rax, %rdi
 4494 192b E8000000 		call	__cxa_atexit@PLT
 4494      00
 4495 1930 E8000000 		call	_ZN8UnitTest4Test11GetTestListEv@PLT
 4495      00
 4496 1935 4889C1   		movq	%rax, %rcx
 4497 1938 488D0500 		leaq	_ZN12_GLOBAL__N_132testDefaultIsEmptyStringInstanceE(%rip), %rax
 4497      000000
 4498 193f 4889C2   		movq	%rax, %rdx
 4499 1942 4889CE   		movq	%rcx, %rsi
 4500 1945 488D0500 		leaq	_ZN12_GLOBAL__N_125adderDefaultIsEmptyStringE(%rip), %rax
 4500      000000
 4501 194c 4889C7   		movq	%rax, %rdi
 4502 194f E8000000 		call	_ZN8UnitTest9ListAdderC1ERNS_8TestListEPNS_4TestE@PLT
 4502      00
  18:TestMemoryOutStream.cpp **** {
 4503              		.loc 3 18 1
 4504 1954 488D0500 		leaq	_ZN12_GLOBAL__N_141testStreamingTextCopiesCharactersInstanceE(%rip), %rax
 4504      000000
 4505 195b 4889C7   		movq	%rax, %rdi
 4506 195e E8F9E8FF 		call	_ZN12_GLOBAL__N_133TestStreamingTextCopiesCharactersC1Ev
 4506      FF
 4507 1963 488D0500 		leaq	__dso_handle(%rip), %rax
 4507      000000
 4508 196a 4889C2   		movq	%rax, %rdx
 4509 196d 488D0500 		leaq	_ZN12_GLOBAL__N_141testStreamingTextCopiesCharactersInstanceE(%rip), %rax
 4509      000000
 4510 1974 4889C6   		movq	%rax, %rsi
 4511 1977 488D055C 		leaq	_ZN12_GLOBAL__N_133TestStreamingTextCopiesCharactersD1Ev(%rip), %rax
 4511      FEFFFF
 4512 197e 4889C7   		movq	%rax, %rdi
 4513 1981 E8000000 		call	__cxa_atexit@PLT
 4513      00
 4514 1986 E8000000 		call	_ZN8UnitTest4Test11GetTestListEv@PLT
 4514      00
 4515 198b 4889C1   		movq	%rax, %rcx
 4516 198e 488D0500 		leaq	_ZN12_GLOBAL__N_141testStreamingTextCopiesCharactersInstanceE(%rip), %rax
 4516      000000
 4517 1995 4889C2   		movq	%rax, %rdx
 4518 1998 4889CE   		movq	%rcx, %rsi
 4519 199b 488D0500 		leaq	_ZN12_GLOBAL__N_134adderStreamingTextCopiesCharactersE(%rip), %rax
 4519      000000
 4520 19a2 4889C7   		movq	%rax, %rdi
 4521 19a5 E8000000 		call	_ZN8UnitTest9ListAdderC1ERNS_8TestListEPNS_4TestE@PLT
 4521      00
  25:TestMemoryOutStream.cpp **** {
 4522              		.loc 3 25 1
 4523 19aa 488D0500 		leaq	_ZN12_GLOBAL__N_152testStreamingMultipleTimesConcatenatesResultInstanceE(%rip), %rax
 4523      000000
 4524 19b1 4889C7   		movq	%rax, %rdi
 4525 19b4 E84BEAFF 		call	_ZN12_GLOBAL__N_144TestStreamingMultipleTimesConcatenatesResultC1Ev
 4525      FF
 4526 19b9 488D0500 		leaq	__dso_handle(%rip), %rax
 4526      000000
 4527 19c0 4889C2   		movq	%rax, %rdx
 4528 19c3 488D0500 		leaq	_ZN12_GLOBAL__N_152testStreamingMultipleTimesConcatenatesResultInstanceE(%rip), %rax
 4528      000000
 4529 19ca 4889C6   		movq	%rax, %rsi
 4530 19cd 488D0588 		leaq	_ZN12_GLOBAL__N_144TestStreamingMultipleTimesConcatenatesResultD1Ev(%rip), %rax
 4530      FDFFFF
 4531 19d4 4889C7   		movq	%rax, %rdi
 4532 19d7 E8000000 		call	__cxa_atexit@PLT
 4532      00
 4533 19dc E8000000 		call	_ZN8UnitTest4Test11GetTestListEv@PLT
 4533      00
 4534 19e1 4889C1   		movq	%rax, %rcx
 4535 19e4 488D0500 		leaq	_ZN12_GLOBAL__N_152testStreamingMultipleTimesConcatenatesResultInstanceE(%rip), %rax
 4535      000000
 4536 19eb 4889C2   		movq	%rax, %rdx
 4537 19ee 4889CE   		movq	%rcx, %rsi
 4538 19f1 488D0500 		leaq	_ZN12_GLOBAL__N_145adderStreamingMultipleTimesConcatenatesResultE(%rip), %rax
 4538      000000
 4539 19f8 4889C7   		movq	%rax, %rdi
 4540 19fb E8000000 		call	_ZN8UnitTest9ListAdderC1ERNS_8TestListEPNS_4TestE@PLT
 4540      00
  32:TestMemoryOutStream.cpp **** {
 4541              		.loc 3 32 1
 4542 1a00 488D0500 		leaq	_ZN12_GLOBAL__N_147testStreamingIntWritesCorrectCharactersInstanceE(%rip), %rax
 4542      000000
 4543 1a07 4889C7   		movq	%rax, %rdi
 4544 1a0a E8C7EBFF 		call	_ZN12_GLOBAL__N_139TestStreamingIntWritesCorrectCharactersC1Ev
 4544      FF
 4545 1a0f 488D0500 		leaq	__dso_handle(%rip), %rax
 4545      000000
 4546 1a16 4889C2   		movq	%rax, %rdx
 4547 1a19 488D0500 		leaq	_ZN12_GLOBAL__N_147testStreamingIntWritesCorrectCharactersInstanceE(%rip), %rax
 4547      000000
 4548 1a20 4889C6   		movq	%rax, %rsi
 4549 1a23 488D05B4 		leaq	_ZN12_GLOBAL__N_139TestStreamingIntWritesCorrectCharactersD1Ev(%rip), %rax
 4549      FCFFFF
 4550 1a2a 4889C7   		movq	%rax, %rdi
 4551 1a2d E8000000 		call	__cxa_atexit@PLT
 4551      00
 4552 1a32 E8000000 		call	_ZN8UnitTest4Test11GetTestListEv@PLT
 4552      00
 4553 1a37 4889C1   		movq	%rax, %rcx
 4554 1a3a 488D0500 		leaq	_ZN12_GLOBAL__N_147testStreamingIntWritesCorrectCharactersInstanceE(%rip), %rax
 4554      000000
 4555 1a41 4889C2   		movq	%rax, %rdx
 4556 1a44 4889CE   		movq	%rcx, %rsi
 4557 1a47 488D0500 		leaq	_ZN12_GLOBAL__N_140adderStreamingIntWritesCorrectCharactersE(%rip), %rax
 4557      000000
 4558 1a4e 4889C7   		movq	%rax, %rdi
 4559 1a51 E8000000 		call	_ZN8UnitTest9ListAdderC1ERNS_8TestListEPNS_4TestE@PLT
 4559      00
  39:TestMemoryOutStream.cpp **** {
 4560              		.loc 3 39 1
 4561 1a56 488D0500 		leaq	_ZN12_GLOBAL__N_155testStreamingUnsignedIntWritesCorrectCharactersInstanceE(%rip), %rax
 4561      000000
 4562 1a5d 4889C7   		movq	%rax, %rdi
 4563 1a60 E813EDFF 		call	_ZN12_GLOBAL__N_147TestStreamingUnsignedIntWritesCorrectCharactersC1Ev
 4563      FF
 4564 1a65 488D0500 		leaq	__dso_handle(%rip), %rax
 4564      000000
 4565 1a6c 4889C2   		movq	%rax, %rdx
 4566 1a6f 488D0500 		leaq	_ZN12_GLOBAL__N_155testStreamingUnsignedIntWritesCorrectCharactersInstanceE(%rip), %rax
 4566      000000
 4567 1a76 4889C6   		movq	%rax, %rsi
 4568 1a79 488D05E0 		leaq	_ZN12_GLOBAL__N_147TestStreamingUnsignedIntWritesCorrectCharactersD1Ev(%rip), %rax
 4568      FBFFFF
 4569 1a80 4889C7   		movq	%rax, %rdi
 4570 1a83 E8000000 		call	__cxa_atexit@PLT
 4570      00
 4571 1a88 E8000000 		call	_ZN8UnitTest4Test11GetTestListEv@PLT
 4571      00
 4572 1a8d 4889C1   		movq	%rax, %rcx
 4573 1a90 488D0500 		leaq	_ZN12_GLOBAL__N_155testStreamingUnsignedIntWritesCorrectCharactersInstanceE(%rip), %rax
 4573      000000
 4574 1a97 4889C2   		movq	%rax, %rdx
 4575 1a9a 4889CE   		movq	%rcx, %rsi
 4576 1a9d 488D0500 		leaq	_ZN12_GLOBAL__N_148adderStreamingUnsignedIntWritesCorrectCharactersE(%rip), %rax
 4576      000000
 4577 1aa4 4889C7   		movq	%rax, %rdi
 4578 1aa7 E8000000 		call	_ZN8UnitTest9ListAdderC1ERNS_8TestListEPNS_4TestE@PLT
 4578      00
  46:TestMemoryOutStream.cpp **** {
 4579              		.loc 3 46 1
 4580 1aac 488D0500 		leaq	_ZN12_GLOBAL__N_148testStreamingLongWritesCorrectCharactersInstanceE(%rip), %rax
 4580      000000
 4581 1ab3 4889C7   		movq	%rax, %rdi
 4582 1ab6 E85FEEFF 		call	_ZN12_GLOBAL__N_140TestStreamingLongWritesCorrectCharactersC1Ev
 4582      FF
 4583 1abb 488D0500 		leaq	__dso_handle(%rip), %rax
 4583      000000
 4584 1ac2 4889C2   		movq	%rax, %rdx
 4585 1ac5 488D0500 		leaq	_ZN12_GLOBAL__N_148testStreamingLongWritesCorrectCharactersInstanceE(%rip), %rax
 4585      000000
 4586 1acc 4889C6   		movq	%rax, %rsi
 4587 1acf 488D050C 		leaq	_ZN12_GLOBAL__N_140TestStreamingLongWritesCorrectCharactersD1Ev(%rip), %rax
 4587      FBFFFF
 4588 1ad6 4889C7   		movq	%rax, %rdi
 4589 1ad9 E8000000 		call	__cxa_atexit@PLT
 4589      00
 4590 1ade E8000000 		call	_ZN8UnitTest4Test11GetTestListEv@PLT
 4590      00
 4591 1ae3 4889C1   		movq	%rax, %rcx
 4592 1ae6 488D0500 		leaq	_ZN12_GLOBAL__N_148testStreamingLongWritesCorrectCharactersInstanceE(%rip), %rax
 4592      000000
 4593 1aed 4889C2   		movq	%rax, %rdx
 4594 1af0 4889CE   		movq	%rcx, %rsi
 4595 1af3 488D0500 		leaq	_ZN12_GLOBAL__N_141adderStreamingLongWritesCorrectCharactersE(%rip), %rax
 4595      000000
 4596 1afa 4889C7   		movq	%rax, %rdi
 4597 1afd E8000000 		call	_ZN8UnitTest9ListAdderC1ERNS_8TestListEPNS_4TestE@PLT
 4597      00
  53:TestMemoryOutStream.cpp **** {
 4598              		.loc 3 53 1
 4599 1b02 488D0500 		leaq	_ZN12_GLOBAL__N_156testStreamingUnsignedLongWritesCorrectCharactersInstanceE(%rip), %rax
 4599      000000
 4600 1b09 4889C7   		movq	%rax, %rdi
 4601 1b0c E8ADEFFF 		call	_ZN12_GLOBAL__N_148TestStreamingUnsignedLongWritesCorrectCharactersC1Ev
 4601      FF
 4602 1b11 488D0500 		leaq	__dso_handle(%rip), %rax
 4602      000000
 4603 1b18 4889C2   		movq	%rax, %rdx
 4604 1b1b 488D0500 		leaq	_ZN12_GLOBAL__N_156testStreamingUnsignedLongWritesCorrectCharactersInstanceE(%rip), %rax
 4604      000000
 4605 1b22 4889C6   		movq	%rax, %rsi
 4606 1b25 488D0538 		leaq	_ZN12_GLOBAL__N_148TestStreamingUnsignedLongWritesCorrectCharactersD1Ev(%rip), %rax
 4606      FAFFFF
 4607 1b2c 4889C7   		movq	%rax, %rdi
 4608 1b2f E8000000 		call	__cxa_atexit@PLT
 4608      00
 4609 1b34 E8000000 		call	_ZN8UnitTest4Test11GetTestListEv@PLT
 4609      00
 4610 1b39 4889C1   		movq	%rax, %rcx
 4611 1b3c 488D0500 		leaq	_ZN12_GLOBAL__N_156testStreamingUnsignedLongWritesCorrectCharactersInstanceE(%rip), %rax
 4611      000000
 4612 1b43 4889C2   		movq	%rax, %rdx
 4613 1b46 4889CE   		movq	%rcx, %rsi
 4614 1b49 488D0500 		leaq	_ZN12_GLOBAL__N_149adderStreamingUnsignedLongWritesCorrectCharactersE(%rip), %rax
 4614      000000
 4615 1b50 4889C7   		movq	%rax, %rdi
 4616 1b53 E8000000 		call	_ZN8UnitTest9ListAdderC1ERNS_8TestListEPNS_4TestE@PLT
 4616      00
  60:TestMemoryOutStream.cpp **** {
 4617              		.loc 3 60 1
 4618 1b58 488D0500 		leaq	_ZN12_GLOBAL__N_149testStreamingFloatWritesCorrectCharactersInstanceE(%rip), %rax
 4618      000000
 4619 1b5f 4889C7   		movq	%rax, %rdi
 4620 1b62 E8F9F0FF 		call	_ZN12_GLOBAL__N_141TestStreamingFloatWritesCorrectCharactersC1Ev
 4620      FF
 4621 1b67 488D0500 		leaq	__dso_handle(%rip), %rax
 4621      000000
 4622 1b6e 4889C2   		movq	%rax, %rdx
 4623 1b71 488D0500 		leaq	_ZN12_GLOBAL__N_149testStreamingFloatWritesCorrectCharactersInstanceE(%rip), %rax
 4623      000000
 4624 1b78 4889C6   		movq	%rax, %rsi
 4625 1b7b 488D0564 		leaq	_ZN12_GLOBAL__N_141TestStreamingFloatWritesCorrectCharactersD1Ev(%rip), %rax
 4625      F9FFFF
 4626 1b82 4889C7   		movq	%rax, %rdi
 4627 1b85 E8000000 		call	__cxa_atexit@PLT
 4627      00
 4628 1b8a E8000000 		call	_ZN8UnitTest4Test11GetTestListEv@PLT
 4628      00
 4629 1b8f 4889C1   		movq	%rax, %rcx
 4630 1b92 488D0500 		leaq	_ZN12_GLOBAL__N_149testStreamingFloatWritesCorrectCharactersInstanceE(%rip), %rax
 4630      000000
 4631 1b99 4889C2   		movq	%rax, %rdx
 4632 1b9c 4889CE   		movq	%rcx, %rsi
 4633 1b9f 488D0500 		leaq	_ZN12_GLOBAL__N_142adderStreamingFloatWritesCorrectCharactersE(%rip), %rax
 4633      000000
 4634 1ba6 4889C7   		movq	%rax, %rdi
 4635 1ba9 E8000000 		call	_ZN8UnitTest9ListAdderC1ERNS_8TestListEPNS_4TestE@PLT
 4635      00
  67:TestMemoryOutStream.cpp **** {
 4636              		.loc 3 67 1
 4637 1bae 488D0500 		leaq	_ZN12_GLOBAL__N_150testStreamingDoubleWritesCorrectCharactersInstanceE(%rip), %rax
 4637      000000
 4638 1bb5 4889C7   		movq	%rax, %rdi
 4639 1bb8 E869F2FF 		call	_ZN12_GLOBAL__N_142TestStreamingDoubleWritesCorrectCharactersC1Ev
 4639      FF
 4640 1bbd 488D0500 		leaq	__dso_handle(%rip), %rax
 4640      000000
 4641 1bc4 4889C2   		movq	%rax, %rdx
 4642 1bc7 488D0500 		leaq	_ZN12_GLOBAL__N_150testStreamingDoubleWritesCorrectCharactersInstanceE(%rip), %rax
 4642      000000
 4643 1bce 4889C6   		movq	%rax, %rsi
 4644 1bd1 488D0590 		leaq	_ZN12_GLOBAL__N_142TestStreamingDoubleWritesCorrectCharactersD1Ev(%rip), %rax
 4644      F8FFFF
 4645 1bd8 4889C7   		movq	%rax, %rdi
 4646 1bdb E8000000 		call	__cxa_atexit@PLT
 4646      00
 4647 1be0 E8000000 		call	_ZN8UnitTest4Test11GetTestListEv@PLT
 4647      00
 4648 1be5 4889C1   		movq	%rax, %rcx
 4649 1be8 488D0500 		leaq	_ZN12_GLOBAL__N_150testStreamingDoubleWritesCorrectCharactersInstanceE(%rip), %rax
 4649      000000
 4650 1bef 4889C2   		movq	%rax, %rdx
 4651 1bf2 4889CE   		movq	%rcx, %rsi
 4652 1bf5 488D0500 		leaq	_ZN12_GLOBAL__N_143adderStreamingDoubleWritesCorrectCharactersE(%rip), %rax
 4652      000000
 4653 1bfc 4889C7   		movq	%rax, %rdi
 4654 1bff E8000000 		call	_ZN8UnitTest9ListAdderC1ERNS_8TestListEPNS_4TestE@PLT
 4654      00
  74:TestMemoryOutStream.cpp **** {
 4655              		.loc 3 74 1
 4656 1c04 488D0500 		leaq	_ZN12_GLOBAL__N_151testStreamingPointerWritesCorrectCharactersInstanceE(%rip), %rax
 4656      000000
 4657 1c0b 4889C7   		movq	%rax, %rdi
 4658 1c0e E8DBF3FF 		call	_ZN12_GLOBAL__N_143TestStreamingPointerWritesCorrectCharactersC1Ev
 4658      FF
 4659 1c13 488D0500 		leaq	__dso_handle(%rip), %rax
 4659      000000
 4660 1c1a 4889C2   		movq	%rax, %rdx
 4661 1c1d 488D0500 		leaq	_ZN12_GLOBAL__N_151testStreamingPointerWritesCorrectCharactersInstanceE(%rip), %rax
 4661      000000
 4662 1c24 4889C6   		movq	%rax, %rsi
 4663 1c27 488D05BC 		leaq	_ZN12_GLOBAL__N_143TestStreamingPointerWritesCorrectCharactersD1Ev(%rip), %rax
 4663      F7FFFF
 4664 1c2e 4889C7   		movq	%rax, %rdi
 4665 1c31 E8000000 		call	__cxa_atexit@PLT
 4665      00
 4666 1c36 E8000000 		call	_ZN8UnitTest4Test11GetTestListEv@PLT
 4666      00
 4667 1c3b 4889C1   		movq	%rax, %rcx
 4668 1c3e 488D0500 		leaq	_ZN12_GLOBAL__N_151testStreamingPointerWritesCorrectCharactersInstanceE(%rip), %rax
 4668      000000
 4669 1c45 4889C2   		movq	%rax, %rdx
 4670 1c48 4889CE   		movq	%rcx, %rsi
 4671 1c4b 488D0500 		leaq	_ZN12_GLOBAL__N_144adderStreamingPointerWritesCorrectCharactersE(%rip), %rax
 4671      000000
 4672 1c52 4889C7   		movq	%rax, %rdi
 4673 1c55 E8000000 		call	_ZN8UnitTest9ListAdderC1ERNS_8TestListEPNS_4TestE@PLT
 4673      00
  82:TestMemoryOutStream.cpp **** {
 4674              		.loc 3 82 1
 4675 1c5a 488D0500 		leaq	_ZN12_GLOBAL__N_149testStreamingSizeTWritesCorrectCharactersInstanceE(%rip), %rax
 4675      000000
 4676 1c61 4889C7   		movq	%rax, %rdi
 4677 1c64 E855F5FF 		call	_ZN12_GLOBAL__N_141TestStreamingSizeTWritesCorrectCharactersC1Ev
 4677      FF
 4678 1c69 488D0500 		leaq	__dso_handle(%rip), %rax
 4678      000000
 4679 1c70 4889C2   		movq	%rax, %rdx
 4680 1c73 488D0500 		leaq	_ZN12_GLOBAL__N_149testStreamingSizeTWritesCorrectCharactersInstanceE(%rip), %rax
 4680      000000
 4681 1c7a 4889C6   		movq	%rax, %rsi
 4682 1c7d 488D05E8 		leaq	_ZN12_GLOBAL__N_141TestStreamingSizeTWritesCorrectCharactersD1Ev(%rip), %rax
 4682      F6FFFF
 4683 1c84 4889C7   		movq	%rax, %rdi
 4684 1c87 E8000000 		call	__cxa_atexit@PLT
 4684      00
 4685 1c8c E8000000 		call	_ZN8UnitTest4Test11GetTestListEv@PLT
 4685      00
 4686 1c91 4889C1   		movq	%rax, %rcx
 4687 1c94 488D0500 		leaq	_ZN12_GLOBAL__N_149testStreamingSizeTWritesCorrectCharactersInstanceE(%rip), %rax
 4687      000000
 4688 1c9b 4889C2   		movq	%rax, %rdx
 4689 1c9e 4889CE   		movq	%rcx, %rsi
 4690 1ca1 488D0500 		leaq	_ZN12_GLOBAL__N_142adderStreamingSizeTWritesCorrectCharactersE(%rip), %rax
 4690      000000
 4691 1ca8 4889C7   		movq	%rax, %rdi
 4692 1cab E8000000 		call	_ZN8UnitTest9ListAdderC1ERNS_8TestListEPNS_4TestE@PLT
 4692      00
 4693              	.L206:
 4694              		.loc 3 151 1
 4695 1cb0 90       		nop
 4696 1cb1 C9       		leave
 4697              		.cfi_def_cfa 7, 8
 4698 1cb2 C3       		ret
 4699              		.cfi_endproc
 4700              	.LFE1320:
 4703              	_GLOBAL__sub_I_TestMemoryOutStream.cpp:
 4704              	.LFB1321:
 4705              		.loc 3 151 1
 4706              		.cfi_startproc
 4707 1cb3 F30F1EFA 		endbr64
 4708 1cb7 55       		pushq	%rbp
 4709              		.cfi_def_cfa_offset 16
 4710              		.cfi_offset 6, -16
 4711 1cb8 4889E5   		movq	%rsp, %rbp
 4712              		.cfi_def_cfa_register 6
 4713              		.loc 3 151 1
 4714 1cbb BEFFFF00 		movl	$65535, %esi
 4714      00
 4715 1cc0 BF010000 		movl	$1, %edi
 4715      00
 4716 1cc5 E80BFCFF 		call	_Z41__static_initialization_and_destruction_0ii
 4716      FF
 4717 1cca 5D       		popq	%rbp
 4718              		.cfi_def_cfa 7, 8
 4719 1ccb C3       		ret
 4720              		.cfi_endproc
 4721              	.LFE1321:
 4723              		.section	.init_array,"aw"
 4724              		.align 8
 4725 0000 00000000 		.quad	_GLOBAL__sub_I_TestMemoryOutStream.cpp
 4725      00000000 
 4726              		.section	.rodata
 4727              		.align 4
 4728              	.LC25:
 4729 07cc 560E4940 		.long	1078529622
 4730              		.align 8
 4731              	.LC30:
 4732 07d0 6F1283C0 		.long	-1065151889
 4733 07d4 CA210940 		.long	1074340298
 4734              		.text
 4735              	.Letext0:
 4736              		.file 5 "../TestDetails.h"
 4737              		.file 6 "../TestList.h"
 4738              		.file 7 "../TestResults.h"
 4739              		.file 8 "../CurrentTest.h"
 4740              		.file 9 "<built-in>"
 4741              		.file 10 "/usr/lib/gcc/x86_64-linux-gnu/11/include/stddef.h"
 4742              		.file 11 "/usr/include/x86_64-linux-gnu/bits/types/wint_t.h"
 4743              		.file 12 "/usr/include/x86_64-linux-gnu/bits/types/__mbstate_t.h"
 4744              		.file 13 "/usr/include/x86_64-linux-gnu/bits/types/mbstate_t.h"
 4745              		.file 14 "/usr/include/x86_64-linux-gnu/bits/types/__FILE.h"
 4746              		.file 15 "/usr/include/c++/11/cwchar"
 4747              		.file 16 "/usr/include/c++/11/bits/char_traits.h"
 4748              		.file 17 "/usr/include/x86_64-linux-gnu/c++/11/bits/c++config.h"
 4749              		.file 18 "/usr/include/c++/11/clocale"
 4750              		.file 19 "/usr/include/c++/11/bits/allocator.h"
 4751              		.file 20 "/usr/include/c++/11/bits/basic_string.h"
 4752              		.file 21 "/usr/include/c++/11/bits/basic_string.tcc"
 4753              		.file 22 "../Test.h"
 4754              		.file 23 "/usr/include/c++/11/sstream"
 4755              		.file 24 "/usr/include/c++/11/bits/stringfwd.h"
 4756              		.file 25 "/usr/include/c++/11/cwctype"
 4757              		.file 26 "/usr/include/c++/11/bits/ostream.tcc"
 4758              		.file 27 "/usr/include/c++/11/ostream"
 4759              		.file 28 "/usr/include/c++/11/cstring"
 4760              		.file 29 "/usr/include/c++/11/bits/basic_ios.h"
 4761              		.file 30 "/usr/include/wchar.h"
 4762              		.file 31 "/usr/include/x86_64-linux-gnu/bits/types/struct_tm.h"
 4763              		.file 32 "/usr/include/c++/11/debug/debug.h"
 4764              		.file 33 "/usr/include/c++/11/bits/predefined_ops.h"
 4765              		.file 34 "/usr/include/c++/11/ext/new_allocator.h"
 4766              		.file 35 "/usr/include/c++/11/ext/alloc_traits.h"
 4767              		.file 36 "/usr/include/locale.h"
 4768              		.file 37 "/usr/include/x86_64-linux-gnu/bits/types.h"
 4769              		.file 38 "/usr/include/x86_64-linux-gnu/bits/wctype-wchar.h"
 4770              		.file 39 "/usr/include/wctype.h"
 4771              		.file 40 "/usr/include/string.h"
 4772              		.file 41 "/usr/include/c++/11/new"
 16602              		.align 8
 16605              	DW.ref.__gxx_personality_v0:
 16606 0000 00000000 		.quad	__gxx_personality_v0
 16606      00000000 
 16607              		.hidden	__dso_handle
 16608              		.ident	"GCC: (Ubuntu 11.3.0-1ubuntu1~22.04) 11.3.0"
 16609              		.section	.note.GNU-stack,"",@progbits
 16610              		.section	.note.gnu.property,"a"
 16611              		.align 8
 16612 0000 04000000 		.long	1f - 0f
 16613 0004 10000000 		.long	4f - 1f
 16614 0008 05000000 		.long	5
 16615              	0:
 16616 000c 474E5500 		.string	"GNU"
 16617              	1:
 16618              		.align 8
 16619 0010 020000C0 		.long	0xc0000002
 16620 0014 04000000 		.long	3f - 2f
 16621              	2:
 16622 0018 03000000 		.long	0x3
 16623              	3:
 16624 001c 00000000 		.align 8
 16625              	4:
DEFINED SYMBOLS
                            *ABS*:0000000000000000 TestMemoryOutStream.cpp
     /tmp/cc3U096R.s:11     .text._ZN13UnitTestSuite12GetSuiteNameEv:0000000000000000 _ZN13UnitTestSuite12GetSuiteNameEv
     /tmp/cc3U096R.s:35     .text._ZN8UnitTest15MemoryOutStreamC1Ev:0000000000000000 _ZN8UnitTest15MemoryOutStreamC1Ev
     /tmp/cc3U096R.s:16605  .data.rel.local.DW.ref.__gxx_personality_v0:0000000000000000 DW.ref.__gxx_personality_v0
     /tmp/cc3U096R.s:4044   .data.rel.ro.local._ZTTN8UnitTest15MemoryOutStreamE:0000000000000000 _ZTTN8UnitTest15MemoryOutStreamE
     /tmp/cc3U096R.s:4028   .data.rel.ro.local._ZTVN8UnitTest15MemoryOutStreamE:0000000000000000 _ZTVN8UnitTest15MemoryOutStreamE
     /tmp/cc3U096R.s:152    .text:0000000000000000 _ZN12_GLOBAL__N_124TestDefaultIsEmptyStringC2Ev
     /tmp/cc3U096R.s:3919   .data.rel.ro.local:0000000000000190 _ZTVN12_GLOBAL__N_124TestDefaultIsEmptyStringE
     /tmp/cc3U096R.s:152    .text:0000000000000000 _ZN12_GLOBAL__N_124TestDefaultIsEmptyStringC1Ev
     /tmp/cc3U096R.s:192    .bss:0000000000000000 _ZN12_GLOBAL__N_132testDefaultIsEmptyStringInstanceE
     /tmp/cc3U096R.s:192    .bss:0000000000000038 _ZN12_GLOBAL__N_125adderDefaultIsEmptyStringE
     /tmp/cc3U096R.s:209    .text:0000000000000050 _ZNK12_GLOBAL__N_124TestDefaultIsEmptyString7RunImplEv
     /tmp/cc3U096R.s:2789   .text._ZN8UnitTest5CheckIbEEbT_:0000000000000000 _ZN8UnitTest5CheckIbEEbT_
     /tmp/cc3U096R.s:4089   .text._ZN8UnitTest15MemoryOutStreamD1Ev:0000000000000000 _ZN8UnitTest15MemoryOutStreamD1Ev
     /tmp/cc3U096R.s:455    .text:000000000000025c _ZN12_GLOBAL__N_133TestStreamingTextCopiesCharactersC2Ev
     /tmp/cc3U096R.s:3811   .data.rel.ro.local:0000000000000168 _ZTVN12_GLOBAL__N_133TestStreamingTextCopiesCharactersE
     /tmp/cc3U096R.s:455    .text:000000000000025c _ZN12_GLOBAL__N_133TestStreamingTextCopiesCharactersC1Ev
     /tmp/cc3U096R.s:494    .bss:0000000000000040 _ZN12_GLOBAL__N_141testStreamingTextCopiesCharactersInstanceE
     /tmp/cc3U096R.s:494    .bss:0000000000000078 _ZN12_GLOBAL__N_134adderStreamingTextCopiesCharactersE
     /tmp/cc3U096R.s:506    .text:00000000000002ac _ZNK12_GLOBAL__N_133TestStreamingTextCopiesCharacters7RunImplEv
     /tmp/cc3U096R.s:686    .text:0000000000000404 _ZN12_GLOBAL__N_144TestStreamingMultipleTimesConcatenatesResultC2Ev
     /tmp/cc3U096R.s:3703   .data.rel.ro.local:0000000000000140 _ZTVN12_GLOBAL__N_144TestStreamingMultipleTimesConcatenatesResultE
     /tmp/cc3U096R.s:686    .text:0000000000000404 _ZN12_GLOBAL__N_144TestStreamingMultipleTimesConcatenatesResultC1Ev
     /tmp/cc3U096R.s:725    .bss:0000000000000080 _ZN12_GLOBAL__N_152testStreamingMultipleTimesConcatenatesResultInstanceE
     /tmp/cc3U096R.s:725    .bss:00000000000000b8 _ZN12_GLOBAL__N_145adderStreamingMultipleTimesConcatenatesResultE
     /tmp/cc3U096R.s:743    .text:0000000000000454 _ZNK12_GLOBAL__N_144TestStreamingMultipleTimesConcatenatesResult7RunImplEv
     /tmp/cc3U096R.s:934    .text:00000000000005d6 _ZN12_GLOBAL__N_139TestStreamingIntWritesCorrectCharactersC2Ev
     /tmp/cc3U096R.s:3595   .data.rel.ro.local:0000000000000118 _ZTVN12_GLOBAL__N_139TestStreamingIntWritesCorrectCharactersE
     /tmp/cc3U096R.s:934    .text:00000000000005d6 _ZN12_GLOBAL__N_139TestStreamingIntWritesCorrectCharactersC1Ev
     /tmp/cc3U096R.s:973    .bss:00000000000000c0 _ZN12_GLOBAL__N_147testStreamingIntWritesCorrectCharactersInstanceE
     /tmp/cc3U096R.s:973    .bss:00000000000000f8 _ZN12_GLOBAL__N_140adderStreamingIntWritesCorrectCharactersE
     /tmp/cc3U096R.s:985    .text:0000000000000626 _ZNK12_GLOBAL__N_139TestStreamingIntWritesCorrectCharacters7RunImplEv
     /tmp/cc3U096R.s:1164   .text:0000000000000778 _ZN12_GLOBAL__N_147TestStreamingUnsignedIntWritesCorrectCharactersC2Ev
     /tmp/cc3U096R.s:3487   .data.rel.ro.local:00000000000000f0 _ZTVN12_GLOBAL__N_147TestStreamingUnsignedIntWritesCorrectCharactersE
     /tmp/cc3U096R.s:1164   .text:0000000000000778 _ZN12_GLOBAL__N_147TestStreamingUnsignedIntWritesCorrectCharactersC1Ev
     /tmp/cc3U096R.s:1203   .bss:0000000000000100 _ZN12_GLOBAL__N_155testStreamingUnsignedIntWritesCorrectCharactersInstanceE
     /tmp/cc3U096R.s:1203   .bss:0000000000000138 _ZN12_GLOBAL__N_148adderStreamingUnsignedIntWritesCorrectCharactersE
     /tmp/cc3U096R.s:1208   .text:00000000000007c8 _ZNK12_GLOBAL__N_147TestStreamingUnsignedIntWritesCorrectCharacters7RunImplEv
     /tmp/cc3U096R.s:1387   .text:000000000000091a _ZN12_GLOBAL__N_140TestStreamingLongWritesCorrectCharactersC2Ev
     /tmp/cc3U096R.s:3379   .data.rel.ro.local:00000000000000c8 _ZTVN12_GLOBAL__N_140TestStreamingLongWritesCorrectCharactersE
     /tmp/cc3U096R.s:1387   .text:000000000000091a _ZN12_GLOBAL__N_140TestStreamingLongWritesCorrectCharactersC1Ev
     /tmp/cc3U096R.s:1426   .bss:0000000000000140 _ZN12_GLOBAL__N_148testStreamingLongWritesCorrectCharactersInstanceE
     /tmp/cc3U096R.s:1426   .bss:0000000000000178 _ZN12_GLOBAL__N_141adderStreamingLongWritesCorrectCharactersE
     /tmp/cc3U096R.s:1438   .text:000000000000096a _ZNK12_GLOBAL__N_140TestStreamingLongWritesCorrectCharacters7RunImplEv
     /tmp/cc3U096R.s:1617   .text:0000000000000abe _ZN12_GLOBAL__N_148TestStreamingUnsignedLongWritesCorrectCharactersC2Ev
     /tmp/cc3U096R.s:3271   .data.rel.ro.local:00000000000000a0 _ZTVN12_GLOBAL__N_148TestStreamingUnsignedLongWritesCorrectCharactersE
     /tmp/cc3U096R.s:1617   .text:0000000000000abe _ZN12_GLOBAL__N_148TestStreamingUnsignedLongWritesCorrectCharactersC1Ev
     /tmp/cc3U096R.s:1656   .bss:0000000000000180 _ZN12_GLOBAL__N_156testStreamingUnsignedLongWritesCorrectCharactersInstanceE
     /tmp/cc3U096R.s:1656   .bss:00000000000001b8 _ZN12_GLOBAL__N_149adderStreamingUnsignedLongWritesCorrectCharactersE
     /tmp/cc3U096R.s:1661   .text:0000000000000b0e _ZNK12_GLOBAL__N_148TestStreamingUnsignedLongWritesCorrectCharacters7RunImplEv
     /tmp/cc3U096R.s:1840   .text:0000000000000c60 _ZN12_GLOBAL__N_141TestStreamingFloatWritesCorrectCharactersC2Ev
     /tmp/cc3U096R.s:3163   .data.rel.ro.local:0000000000000078 _ZTVN12_GLOBAL__N_141TestStreamingFloatWritesCorrectCharactersE
     /tmp/cc3U096R.s:1840   .text:0000000000000c60 _ZN12_GLOBAL__N_141TestStreamingFloatWritesCorrectCharactersC1Ev
     /tmp/cc3U096R.s:1879   .bss:00000000000001c0 _ZN12_GLOBAL__N_149testStreamingFloatWritesCorrectCharactersInstanceE
     /tmp/cc3U096R.s:1879   .bss:00000000000001f8 _ZN12_GLOBAL__N_142adderStreamingFloatWritesCorrectCharactersE
     /tmp/cc3U096R.s:1894   .text:0000000000000cb0 _ZNK12_GLOBAL__N_141TestStreamingFloatWritesCorrectCharacters7RunImplEv
     /tmp/cc3U096R.s:2814   .text._ZN8UnitTest5CheckIPKcEEbT_:0000000000000000 _ZN8UnitTest5CheckIPKcEEbT_
     /tmp/cc3U096R.s:2083   .text:0000000000000e26 _ZN12_GLOBAL__N_142TestStreamingDoubleWritesCorrectCharactersC2Ev
     /tmp/cc3U096R.s:3055   .data.rel.ro.local:0000000000000050 _ZTVN12_GLOBAL__N_142TestStreamingDoubleWritesCorrectCharactersE
     /tmp/cc3U096R.s:2083   .text:0000000000000e26 _ZN12_GLOBAL__N_142TestStreamingDoubleWritesCorrectCharactersC1Ev
     /tmp/cc3U096R.s:2122   .bss:0000000000000200 _ZN12_GLOBAL__N_150testStreamingDoubleWritesCorrectCharactersInstanceE
     /tmp/cc3U096R.s:2122   .bss:0000000000000238 _ZN12_GLOBAL__N_143adderStreamingDoubleWritesCorrectCharactersE
     /tmp/cc3U096R.s:2127   .text:0000000000000e76 _ZNK12_GLOBAL__N_142TestStreamingDoubleWritesCorrectCharacters7RunImplEv
     /tmp/cc3U096R.s:2316   .text:0000000000000fee _ZN12_GLOBAL__N_143TestStreamingPointerWritesCorrectCharactersC2Ev
     /tmp/cc3U096R.s:2947   .data.rel.ro.local:0000000000000028 _ZTVN12_GLOBAL__N_143TestStreamingPointerWritesCorrectCharactersE
     /tmp/cc3U096R.s:2316   .text:0000000000000fee _ZN12_GLOBAL__N_143TestStreamingPointerWritesCorrectCharactersC1Ev
     /tmp/cc3U096R.s:2355   .bss:0000000000000240 _ZN12_GLOBAL__N_151testStreamingPointerWritesCorrectCharactersInstanceE
     /tmp/cc3U096R.s:2355   .bss:0000000000000278 _ZN12_GLOBAL__N_144adderStreamingPointerWritesCorrectCharactersE
     /tmp/cc3U096R.s:2370   .text:000000000000103e _ZNK12_GLOBAL__N_143TestStreamingPointerWritesCorrectCharacters7RunImplEv
     /tmp/cc3U096R.s:2561   .text:00000000000011be _ZN12_GLOBAL__N_141TestStreamingSizeTWritesCorrectCharactersC2Ev
     /tmp/cc3U096R.s:2839   .data.rel.ro.local:0000000000000000 _ZTVN12_GLOBAL__N_141TestStreamingSizeTWritesCorrectCharactersE
     /tmp/cc3U096R.s:2561   .text:00000000000011be _ZN12_GLOBAL__N_141TestStreamingSizeTWritesCorrectCharactersC1Ev
     /tmp/cc3U096R.s:2600   .bss:0000000000000280 _ZN12_GLOBAL__N_149testStreamingSizeTWritesCorrectCharactersInstanceE
     /tmp/cc3U096R.s:2600   .bss:00000000000002b8 _ZN12_GLOBAL__N_142adderStreamingSizeTWritesCorrectCharactersE
     /tmp/cc3U096R.s:2612   .text:000000000000120e _ZNK12_GLOBAL__N_141TestStreamingSizeTWritesCorrectCharacters7RunImplEv
     /tmp/cc3U096R.s:4303   .data.rel.ro:0000000000000000 _ZTIN12_GLOBAL__N_141TestStreamingSizeTWritesCorrectCharactersE
     /tmp/cc3U096R.s:2848   .text:000000000000136c _ZN12_GLOBAL__N_141TestStreamingSizeTWritesCorrectCharactersD1Ev
     /tmp/cc3U096R.s:2879   .text:000000000000139a _ZN12_GLOBAL__N_141TestStreamingSizeTWritesCorrectCharactersD0Ev
     /tmp/cc3U096R.s:2848   .text:000000000000136c _ZN12_GLOBAL__N_141TestStreamingSizeTWritesCorrectCharactersD2Ev
     /tmp/cc3U096R.s:4317   .data.rel.ro:0000000000000018 _ZTIN12_GLOBAL__N_143TestStreamingPointerWritesCorrectCharactersE
     /tmp/cc3U096R.s:2956   .text:00000000000013ea _ZN12_GLOBAL__N_143TestStreamingPointerWritesCorrectCharactersD1Ev
     /tmp/cc3U096R.s:2987   .text:0000000000001418 _ZN12_GLOBAL__N_143TestStreamingPointerWritesCorrectCharactersD0Ev
     /tmp/cc3U096R.s:2956   .text:00000000000013ea _ZN12_GLOBAL__N_143TestStreamingPointerWritesCorrectCharactersD2Ev
     /tmp/cc3U096R.s:4331   .data.rel.ro:0000000000000030 _ZTIN12_GLOBAL__N_142TestStreamingDoubleWritesCorrectCharactersE
     /tmp/cc3U096R.s:3064   .text:0000000000001468 _ZN12_GLOBAL__N_142TestStreamingDoubleWritesCorrectCharactersD1Ev
     /tmp/cc3U096R.s:3095   .text:0000000000001496 _ZN12_GLOBAL__N_142TestStreamingDoubleWritesCorrectCharactersD0Ev
     /tmp/cc3U096R.s:3064   .text:0000000000001468 _ZN12_GLOBAL__N_142TestStreamingDoubleWritesCorrectCharactersD2Ev
     /tmp/cc3U096R.s:4345   .data.rel.ro:0000000000000048 _ZTIN12_GLOBAL__N_141TestStreamingFloatWritesCorrectCharactersE
     /tmp/cc3U096R.s:3172   .text:00000000000014e6 _ZN12_GLOBAL__N_141TestStreamingFloatWritesCorrectCharactersD1Ev
     /tmp/cc3U096R.s:3203   .text:0000000000001514 _ZN12_GLOBAL__N_141TestStreamingFloatWritesCorrectCharactersD0Ev
     /tmp/cc3U096R.s:3172   .text:00000000000014e6 _ZN12_GLOBAL__N_141TestStreamingFloatWritesCorrectCharactersD2Ev
     /tmp/cc3U096R.s:4359   .data.rel.ro:0000000000000060 _ZTIN12_GLOBAL__N_148TestStreamingUnsignedLongWritesCorrectCharactersE
     /tmp/cc3U096R.s:3280   .text:0000000000001564 _ZN12_GLOBAL__N_148TestStreamingUnsignedLongWritesCorrectCharactersD1Ev
     /tmp/cc3U096R.s:3311   .text:0000000000001592 _ZN12_GLOBAL__N_148TestStreamingUnsignedLongWritesCorrectCharactersD0Ev
     /tmp/cc3U096R.s:3280   .text:0000000000001564 _ZN12_GLOBAL__N_148TestStreamingUnsignedLongWritesCorrectCharactersD2Ev
     /tmp/cc3U096R.s:4373   .data.rel.ro:0000000000000078 _ZTIN12_GLOBAL__N_140TestStreamingLongWritesCorrectCharactersE
     /tmp/cc3U096R.s:3388   .text:00000000000015e2 _ZN12_GLOBAL__N_140TestStreamingLongWritesCorrectCharactersD1Ev
     /tmp/cc3U096R.s:3419   .text:0000000000001610 _ZN12_GLOBAL__N_140TestStreamingLongWritesCorrectCharactersD0Ev
     /tmp/cc3U096R.s:3388   .text:00000000000015e2 _ZN12_GLOBAL__N_140TestStreamingLongWritesCorrectCharactersD2Ev
     /tmp/cc3U096R.s:4387   .data.rel.ro:0000000000000090 _ZTIN12_GLOBAL__N_147TestStreamingUnsignedIntWritesCorrectCharactersE
     /tmp/cc3U096R.s:3496   .text:0000000000001660 _ZN12_GLOBAL__N_147TestStreamingUnsignedIntWritesCorrectCharactersD1Ev
     /tmp/cc3U096R.s:3527   .text:000000000000168e _ZN12_GLOBAL__N_147TestStreamingUnsignedIntWritesCorrectCharactersD0Ev
     /tmp/cc3U096R.s:3496   .text:0000000000001660 _ZN12_GLOBAL__N_147TestStreamingUnsignedIntWritesCorrectCharactersD2Ev
     /tmp/cc3U096R.s:4401   .data.rel.ro:00000000000000a8 _ZTIN12_GLOBAL__N_139TestStreamingIntWritesCorrectCharactersE
     /tmp/cc3U096R.s:3604   .text:00000000000016de _ZN12_GLOBAL__N_139TestStreamingIntWritesCorrectCharactersD1Ev
     /tmp/cc3U096R.s:3635   .text:000000000000170c _ZN12_GLOBAL__N_139TestStreamingIntWritesCorrectCharactersD0Ev
     /tmp/cc3U096R.s:3604   .text:00000000000016de _ZN12_GLOBAL__N_139TestStreamingIntWritesCorrectCharactersD2Ev
     /tmp/cc3U096R.s:4415   .data.rel.ro:00000000000000c0 _ZTIN12_GLOBAL__N_144TestStreamingMultipleTimesConcatenatesResultE
     /tmp/cc3U096R.s:3712   .text:000000000000175c _ZN12_GLOBAL__N_144TestStreamingMultipleTimesConcatenatesResultD1Ev
     /tmp/cc3U096R.s:3743   .text:000000000000178a _ZN12_GLOBAL__N_144TestStreamingMultipleTimesConcatenatesResultD0Ev
     /tmp/cc3U096R.s:3712   .text:000000000000175c _ZN12_GLOBAL__N_144TestStreamingMultipleTimesConcatenatesResultD2Ev
     /tmp/cc3U096R.s:4429   .data.rel.ro:00000000000000d8 _ZTIN12_GLOBAL__N_133TestStreamingTextCopiesCharactersE
     /tmp/cc3U096R.s:3820   .text:00000000000017da _ZN12_GLOBAL__N_133TestStreamingTextCopiesCharactersD1Ev
     /tmp/cc3U096R.s:3851   .text:0000000000001808 _ZN12_GLOBAL__N_133TestStreamingTextCopiesCharactersD0Ev
     /tmp/cc3U096R.s:3820   .text:00000000000017da _ZN12_GLOBAL__N_133TestStreamingTextCopiesCharactersD2Ev
     /tmp/cc3U096R.s:4443   .data.rel.ro:00000000000000f0 _ZTIN12_GLOBAL__N_124TestDefaultIsEmptyStringE
     /tmp/cc3U096R.s:3928   .text:0000000000001858 _ZN12_GLOBAL__N_124TestDefaultIsEmptyStringD1Ev
     /tmp/cc3U096R.s:3959   .text:0000000000001886 _ZN12_GLOBAL__N_124TestDefaultIsEmptyStringD0Ev
     /tmp/cc3U096R.s:3928   .text:0000000000001858 _ZN12_GLOBAL__N_124TestDefaultIsEmptyStringD2Ev
     /tmp/cc3U096R.s:4452   .data.rel.ro._ZTIN8UnitTest15MemoryOutStreamE:0000000000000000 _ZTIN8UnitTest15MemoryOutStreamE
     /tmp/cc3U096R.s:4215   .text._ZN8UnitTest15MemoryOutStreamD0Ev:0000000000000000 _ZN8UnitTest15MemoryOutStreamD0Ev
     /tmp/cc3U096R.s:4200   .text._ZN8UnitTest15MemoryOutStreamD1Ev:00000000000000b6 _ZTv0_n24_N8UnitTest15MemoryOutStreamD1Ev
     /tmp/cc3U096R.s:4282   .text._ZN8UnitTest15MemoryOutStreamD0Ev:000000000000004f _ZTv0_n24_N8UnitTest15MemoryOutStreamD0Ev
     /tmp/cc3U096R.s:4057   .data.rel.ro._ZTCN8UnitTest15MemoryOutStreamE0_NSt7__cxx1119basic_ostringstreamIcSt11char_traitsIcESaIcEEE:0000000000000000 _ZTCN8UnitTest15MemoryOutStreamE0_NSt7__cxx1119basic_ostringstreamIcSt11char_traitsIcESaIcEEE
     /tmp/cc3U096R.s:4074   .data.rel.ro._ZTCN8UnitTest15MemoryOutStreamE0_So:0000000000000000 _ZTCN8UnitTest15MemoryOutStreamE0_So
     /tmp/cc3U096R.s:4297   .rodata:00000000000004e0 _ZTSN12_GLOBAL__N_141TestStreamingSizeTWritesCorrectCharactersE
     /tmp/cc3U096R.s:4311   .rodata:0000000000000520 _ZTSN12_GLOBAL__N_143TestStreamingPointerWritesCorrectCharactersE
     /tmp/cc3U096R.s:4325   .rodata:0000000000000560 _ZTSN12_GLOBAL__N_142TestStreamingDoubleWritesCorrectCharactersE
     /tmp/cc3U096R.s:4339   .rodata:00000000000005a0 _ZTSN12_GLOBAL__N_141TestStreamingFloatWritesCorrectCharactersE
     /tmp/cc3U096R.s:4353   .rodata:00000000000005e0 _ZTSN12_GLOBAL__N_148TestStreamingUnsignedLongWritesCorrectCharactersE
     /tmp/cc3U096R.s:4367   .rodata:0000000000000640 _ZTSN12_GLOBAL__N_140TestStreamingLongWritesCorrectCharactersE
     /tmp/cc3U096R.s:4381   .rodata:0000000000000680 _ZTSN12_GLOBAL__N_147TestStreamingUnsignedIntWritesCorrectCharactersE
     /tmp/cc3U096R.s:4395   .rodata:00000000000006e0 _ZTSN12_GLOBAL__N_139TestStreamingIntWritesCorrectCharactersE
     /tmp/cc3U096R.s:4409   .rodata:0000000000000720 _ZTSN12_GLOBAL__N_144TestStreamingMultipleTimesConcatenatesResultE
     /tmp/cc3U096R.s:4423   .rodata:0000000000000760 _ZTSN12_GLOBAL__N_133TestStreamingTextCopiesCharactersE
     /tmp/cc3U096R.s:4437   .rodata:00000000000007a0 _ZTSN12_GLOBAL__N_124TestDefaultIsEmptyStringE
     /tmp/cc3U096R.s:4461   .rodata._ZTSN8UnitTest15MemoryOutStreamE:0000000000000000 _ZTSN8UnitTest15MemoryOutStreamE
     /tmp/cc3U096R.s:4465   .text:00000000000018d5 _Z41__static_initialization_and_destruction_0ii
     /tmp/cc3U096R.s:4703   .text:0000000000001cb3 _GLOBAL__sub_I_TestMemoryOutStream.cpp

UNDEFINED SYMBOLS
_ZNSt9basic_iosIcSt11char_traitsIcEEC2Ev
_ZNSt7__cxx1119basic_ostringstreamIcSt11char_traitsIcESaIcEEC2Ev
_ZNSt7__cxx1112basic_stringIcSt11char_traitsIcESaIcEEC1Ev
_ZNSt7__cxx1119basic_ostringstreamIcSt11char_traitsIcESaIcEED2Ev
_ZNSt9basic_iosIcSt11char_traitsIcEED2Ev
_Unwind_Resume
__gxx_personality_v0
_ZN8UnitTest4TestC2EPKcS2_S2_i
_ZNK8UnitTest15MemoryOutStream7GetTextEv
_ZN8UnitTest11CurrentTest7ResultsEv
_ZN8UnitTest11CurrentTest7DetailsEv
_ZN8UnitTest11TestDetailsC1ERKS0_i
_ZN8UnitTest11TestResults13OnTestFailureERKNS_11TestDetailsEPKc
_ZN8UnitTest10CheckEqualERNS_11TestResultsEPKcS3_RKNS_11TestDetailsE
__cxa_begin_catch
__cxa_end_catch
__stack_chk_fail
_ZStlsISt11char_traitsIcEERSt13basic_ostreamIcT_ES5_PKc
_ZNSolsEi
_ZNSolsEj
_ZNSolsEl
_ZNSolsEm
_ZNSolsEf
strstr
_ZNSolsEd
_ZNSolsEPKv
_ZN8UnitTest4TestD2Ev
_ZdlPv
_ZTINSt7__cxx1119basic_ostringstreamIcSt11char_traitsIcESaIcEEE
_ZTISo
_ZNSt7__cxx1112basic_stringIcSt11char_traitsIcESaIcEED1Ev
_ZTVN10__cxxabiv120__si_class_type_infoE
_ZTIN8UnitTest4TestE
__dso_handle
__cxa_atexit
_ZN8UnitTest4Test11GetTestListEv
_ZN8UnitTest9ListAdderC1ERNS_8TestListEPNS_4TestE
