   1              		.file	"TestCheckMacros.cpp"
   2              		.text
   3              	.Ltext0:
   4              		.file 0 "/home/pong/FPGALink/makestuff/libs/libutpp/tests" "TestCheckMacros.cpp"
   5              		.section	.rodata
   6              	.LC0:
   7 0000 44656661 		.string	"DefaultSuite"
   7      756C7453 
   7      75697465 
   7      00
   8              		.section	.text._ZN13UnitTestSuite12GetSuiteNameEv,"axG",@progbits,_ZN13UnitTestSuite12GetSuiteName
   9              		.weak	_ZN13UnitTestSuite12GetSuiteNameEv
  11              	_ZN13UnitTestSuite12GetSuiteNameEv:
  12              	.LFB0:
  13              		.file 1 "../TestSuite.h"
   1:../TestSuite.h **** #ifndef UNITTEST_TESTSUITE_H
   2:../TestSuite.h **** #define UNITTEST_TESTSUITE_H
   3:../TestSuite.h **** 
   4:../TestSuite.h **** namespace UnitTestSuite {
   5:../TestSuite.h **** 
   6:../TestSuite.h ****     inline char const* GetSuiteName ()
   7:../TestSuite.h ****     {
  14              		.loc 1 7 5
  15              		.cfi_startproc
  16 0000 F30F1EFA 		endbr64
  17 0004 55       		pushq	%rbp
  18              		.cfi_def_cfa_offset 16
  19              		.cfi_offset 6, -16
  20 0005 4889E5   		movq	%rsp, %rbp
  21              		.cfi_def_cfa_register 6
   8:../TestSuite.h ****         return "DefaultSuite";
  22              		.loc 1 8 16
  23 0008 488D0500 		leaq	.LC0(%rip), %rax
  23      000000
   9:../TestSuite.h ****     }
  24              		.loc 1 9 5
  25 000f 5D       		popq	%rbp
  26              		.cfi_def_cfa 7, 8
  27 0010 C3       		ret
  28              		.cfi_endproc
  29              	.LFE0:
  31              		.section	.text._ZN8UnitTest15MemoryOutStreamC1Ev,"axG",@progbits,_ZN8UnitTest15MemoryOutStreamC1Ev
  32              		.align 2
  33              		.weak	_ZN8UnitTest15MemoryOutStreamC1Ev
  35              	_ZN8UnitTest15MemoryOutStreamC1Ev:
  36              	.LFB1129:
  37              		.file 2 "../MemoryOutStream.h"
   1:../MemoryOutStream.h **** #ifndef UNITTEST_MEMORYOUTSTREAM_H
   2:../MemoryOutStream.h **** #define UNITTEST_MEMORYOUTSTREAM_H
   3:../MemoryOutStream.h **** 
   4:../MemoryOutStream.h **** #include "Config.h"
   5:../MemoryOutStream.h **** 
   6:../MemoryOutStream.h **** #ifndef UNITTEST_USE_CUSTOM_STREAMS
   7:../MemoryOutStream.h **** 
   8:../MemoryOutStream.h **** #include <sstream>
   9:../MemoryOutStream.h **** 
  10:../MemoryOutStream.h **** namespace UnitTest
  11:../MemoryOutStream.h **** {
  12:../MemoryOutStream.h **** 
  13:../MemoryOutStream.h **** class MemoryOutStream : public std::ostringstream
  14:../MemoryOutStream.h **** {
  15:../MemoryOutStream.h **** public:
  16:../MemoryOutStream.h ****     MemoryOutStream() {}
  38              		.loc 2 16 5
  39              		.cfi_startproc
  40              		.cfi_personality 0x9b,DW.ref.__gxx_personality_v0
  41              		.cfi_lsda 0x1b,.LLSDA1129
  42 0000 F30F1EFA 		endbr64
  43 0004 55       		pushq	%rbp
  44              		.cfi_def_cfa_offset 16
  45              		.cfi_offset 6, -16
  46 0005 4889E5   		movq	%rsp, %rbp
  47              		.cfi_def_cfa_register 6
  48 0008 53       		pushq	%rbx
  49 0009 4883EC18 		subq	$24, %rsp
  50              		.cfi_offset 3, -24
  51 000d 48897DE8 		movq	%rdi, -24(%rbp)
  52              	.LBB2:
  53              		.loc 2 16 23
  54 0011 488B45E8 		movq	-24(%rbp), %rax
  55 0015 48059000 		addq	$144, %rax
  55      0000
  56 001b 4889C7   		movq	%rax, %rdi
  57              	.LEHB0:
  58 001e E8000000 		call	_ZNSt9basic_iosIcSt11char_traitsIcEEC2Ev@PLT
  58      00
  59              	.LEHE0:
  60 0023 488B45E8 		movq	-24(%rbp), %rax
  61 0027 488D1500 		leaq	8+_ZTTN8UnitTest15MemoryOutStreamE(%rip), %rdx
  61      000000
  62 002e 4889D6   		movq	%rdx, %rsi
  63 0031 4889C7   		movq	%rax, %rdi
  64              	.LEHB1:
  65 0034 E8000000 		call	_ZNSt7__cxx1119basic_ostringstreamIcSt11char_traitsIcESaIcEEC2Ev@PLT
  65      00
  66              	.LEHE1:
  67              		.loc 2 16 23 is_stmt 0 discriminator 2
  68 0039 488D1500 		leaq	24+_ZTVN8UnitTest15MemoryOutStreamE(%rip), %rdx
  68      000000
  69 0040 488B45E8 		movq	-24(%rbp), %rax
  70 0044 488910   		movq	%rdx, (%rax)
  71 0047 488B45E8 		movq	-24(%rbp), %rax
  72 004b 48059000 		addq	$144, %rax
  72      0000
  73 0051 488D1500 		leaq	64+_ZTVN8UnitTest15MemoryOutStreamE(%rip), %rdx
  73      000000
  74 0058 488910   		movq	%rdx, (%rax)
  75 005b 488B45E8 		movq	-24(%rbp), %rax
  76 005f 4883C070 		addq	$112, %rax
  77 0063 4889C7   		movq	%rax, %rdi
  78              	.LEHB2:
  79 0066 E8000000 		call	_ZNSt7__cxx1112basic_stringIcSt11char_traitsIcESaIcEEC1Ev@PLT
  79      00
  80              	.LEHE2:
  81              	.LBE2:
  82              		.loc 2 16 24 is_stmt 1
  83 006b EB43     		jmp	.L8
  84              	.L7:
  85 006d F30F1EFA 		endbr64
  86              	.LBB3:
  87 0071 4889C3   		movq	%rax, %rbx
  88 0074 488B45E8 		movq	-24(%rbp), %rax
  89 0078 488D1500 		leaq	8+_ZTTN8UnitTest15MemoryOutStreamE(%rip), %rdx
  89      000000
  90 007f 4889D6   		movq	%rdx, %rsi
  91 0082 4889C7   		movq	%rax, %rdi
  92 0085 E8000000 		call	_ZNSt7__cxx1119basic_ostringstreamIcSt11char_traitsIcESaIcEED2Ev@PLT
  92      00
  93 008a EB07     		jmp	.L5
  94              	.L6:
  95 008c F30F1EFA 		endbr64
  96 0090 4889C3   		movq	%rax, %rbx
  97              	.L5:
  98              		.loc 2 16 24 is_stmt 0 discriminator 1
  99 0093 488B45E8 		movq	-24(%rbp), %rax
 100 0097 48059000 		addq	$144, %rax
 100      0000
 101 009d 4889C7   		movq	%rax, %rdi
 102 00a0 E8000000 		call	_ZNSt9basic_iosIcSt11char_traitsIcEED2Ev@PLT
 102      00
 103 00a5 4889D8   		movq	%rbx, %rax
 104 00a8 4889C7   		movq	%rax, %rdi
 105              	.LEHB3:
 106 00ab E8000000 		call	_Unwind_Resume@PLT
 106      00
 107              	.LEHE3:
 108              	.L8:
 109              	.LBE3:
 110              		.loc 2 16 24
 111 00b0 488B5DF8 		movq	-8(%rbp), %rbx
 112 00b4 C9       		leave
 113              		.cfi_def_cfa 7, 8
 114 00b5 C3       		ret
 115              		.cfi_endproc
 116              	.LFE1129:
 117              		.globl	__gxx_personality_v0
 118              		.section	.gcc_except_table._ZN8UnitTest15MemoryOutStreamC1Ev,"aG",@progbits,_ZN8UnitTest15MemoryOu
 119              	.LLSDA1129:
 120 0000 FF       		.byte	0xff
 121 0001 FF       		.byte	0xff
 122 0002 01       		.byte	0x1
 123 0003 12       		.uleb128 .LLSDACSE1129-.LLSDACSB1129
 124              	.LLSDACSB1129:
 125 0004 1E       		.uleb128 .LEHB0-.LFB1129
 126 0005 05       		.uleb128 .LEHE0-.LEHB0
 127 0006 00       		.uleb128 0
 128 0007 00       		.uleb128 0
 129 0008 34       		.uleb128 .LEHB1-.LFB1129
 130 0009 05       		.uleb128 .LEHE1-.LEHB1
 131 000a 8C01     		.uleb128 .L6-.LFB1129
 132 000c 00       		.uleb128 0
 133 000d 66       		.uleb128 .LEHB2-.LFB1129
 134 000e 05       		.uleb128 .LEHE2-.LEHB2
 135 000f 6D       		.uleb128 .L7-.LFB1129
 136 0010 00       		.uleb128 0
 137 0011 AB01     		.uleb128 .LEHB3-.LFB1129
 138 0013 05       		.uleb128 .LEHE3-.LEHB3
 139 0014 00       		.uleb128 0
 140 0015 00       		.uleb128 0
 141              	.LLSDACSE1129:
 142              		.section	.text._ZN8UnitTest15MemoryOutStreamC1Ev,"axG",@progbits,_ZN8UnitTest15MemoryOutStreamC1Ev
 144              		.section	.text._ZN8UnitTest12TestReporterC2Ev,"axG",@progbits,_ZN8UnitTest12TestReporterC5Ev,comda
 145              		.align 2
 146              		.weak	_ZN8UnitTest12TestReporterC2Ev
 148              	_ZN8UnitTest12TestReporterC2Ev:
 149              	.LFB1143:
 150              		.file 3 "../TestReporter.h"
   1:../TestReporter.h **** #ifndef UNITTEST_TESTREPORTER_H
   2:../TestReporter.h **** #define UNITTEST_TESTREPORTER_H
   3:../TestReporter.h **** 
   4:../TestReporter.h **** namespace UnitTest {
   5:../TestReporter.h **** 
   6:../TestReporter.h **** class TestDetails;
   7:../TestReporter.h **** 
   8:../TestReporter.h **** class TestReporter
 151              		.loc 3 8 7 is_stmt 1
 152              		.cfi_startproc
 153 0000 F30F1EFA 		endbr64
 154 0004 55       		pushq	%rbp
 155              		.cfi_def_cfa_offset 16
 156              		.cfi_offset 6, -16
 157 0005 4889E5   		movq	%rsp, %rbp
 158              		.cfi_def_cfa_register 6
 159 0008 48897DF8 		movq	%rdi, -8(%rbp)
 160              	.LBB4:
 161              		.loc 3 8 7
 162 000c 488D1500 		leaq	16+_ZTVN8UnitTest12TestReporterE(%rip), %rdx
 162      000000
 163 0013 488B45F8 		movq	-8(%rbp), %rax
 164 0017 488910   		movq	%rdx, (%rax)
 165              	.LBE4:
 166 001a 90       		nop
 167 001b 5D       		popq	%rbp
 168              		.cfi_def_cfa 7, 8
 169 001c C3       		ret
 170              		.cfi_endproc
 171              	.LFE1143:
 173              		.weak	_ZN8UnitTest12TestReporterC1Ev
 174              		.set	_ZN8UnitTest12TestReporterC1Ev,_ZN8UnitTest12TestReporterC2Ev
 175              		.section	.text._ZN17RecordingReporterC2Ev,"axG",@progbits,_ZN17RecordingReporterC5Ev,comdat
 176              		.align 2
 177              		.weak	_ZN17RecordingReporterC2Ev
 179              	_ZN17RecordingReporterC2Ev:
 180              	.LFB1145:
 181              		.file 4 "RecordingReporter.h"
   1:RecordingReporter.h **** #ifndef UNITTEST_RECORDINGREPORTER_H
   2:RecordingReporter.h **** #define UNITTEST_RECORDINGREPORTER_H
   3:RecordingReporter.h **** 
   4:RecordingReporter.h **** #include "../TestReporter.h"
   5:RecordingReporter.h **** #include <cstring>
   6:RecordingReporter.h **** 
   7:RecordingReporter.h **** #include "../TestDetails.h"
   8:RecordingReporter.h **** 
   9:RecordingReporter.h **** struct RecordingReporter : public UnitTest::TestReporter
  10:RecordingReporter.h **** {
  11:RecordingReporter.h **** private:
  12:RecordingReporter.h ****     enum { kMaxStringLength = 256 };
  13:RecordingReporter.h **** 
  14:RecordingReporter.h **** public:
  15:RecordingReporter.h ****     RecordingReporter()
 182              		.loc 4 15 5
 183              		.cfi_startproc
 184 0000 F30F1EFA 		endbr64
 185 0004 55       		pushq	%rbp
 186              		.cfi_def_cfa_offset 16
 187              		.cfi_offset 6, -16
 188 0005 4889E5   		movq	%rsp, %rbp
 189              		.cfi_def_cfa_register 6
 190 0008 4883EC10 		subq	$16, %rsp
 191 000c 48897DF8 		movq	%rdi, -8(%rbp)
 192              	.LBB5:
  16:RecordingReporter.h ****         : testRunCount(0)
  17:RecordingReporter.h ****         , testFailedCount(0)
  18:RecordingReporter.h ****         , lastFailedLine(0)
  19:RecordingReporter.h ****         , testFinishedCount(0)
  20:RecordingReporter.h ****         , lastFinishedTestTime(0)
  21:RecordingReporter.h ****         , summaryTotalTestCount(0)
  22:RecordingReporter.h ****         , summaryFailedTestCount(0)
  23:RecordingReporter.h ****         , summaryFailureCount(0)
  24:RecordingReporter.h ****         , summarySecondsElapsed(0)
 193              		.loc 4 24 34
 194 0010 488B45F8 		movq	-8(%rbp), %rax
 195 0014 4889C7   		movq	%rax, %rdi
 196 0017 E8000000 		call	_ZN8UnitTest12TestReporterC2Ev
 196      00
 197 001c 488D1500 		leaq	16+_ZTV17RecordingReporter(%rip), %rdx
 197      000000
 198 0023 488B45F8 		movq	-8(%rbp), %rax
 199 0027 488910   		movq	%rdx, (%rax)
  16:RecordingReporter.h ****         : testRunCount(0)
 200              		.loc 4 16 11
 201 002a 488B45F8 		movq	-8(%rbp), %rax
 202 002e C7400800 		movl	$0, 8(%rax)
 202      000000
  17:RecordingReporter.h ****         , lastFailedLine(0)
 203              		.loc 4 17 11
 204 0035 488B45F8 		movq	-8(%rbp), %rax
 205 0039 C7800C02 		movl	$0, 524(%rax)
 205      00000000 
 205      0000
  18:RecordingReporter.h ****         , testFinishedCount(0)
 206              		.loc 4 18 11
 207 0043 488B45F8 		movq	-8(%rbp), %rax
 208 0047 C7801003 		movl	$0, 784(%rax)
 208      00000000 
 208      0000
  19:RecordingReporter.h ****         , lastFinishedTestTime(0)
 209              		.loc 4 19 11
 210 0051 488B45F8 		movq	-8(%rbp), %rax
 211 0055 C7801406 		movl	$0, 1556(%rax)
 211      00000000 
 211      0000
  20:RecordingReporter.h ****         , summaryTotalTestCount(0)
 212              		.loc 4 20 11
 213 005f 488B45F8 		movq	-8(%rbp), %rax
 214 0063 660FEFC0 		pxor	%xmm0, %xmm0
 215 0067 F30F1180 		movss	%xmm0, 2072(%rax)
 215      18080000 
  21:RecordingReporter.h ****         , summaryFailedTestCount(0)
 216              		.loc 4 21 11
 217 006f 488B45F8 		movq	-8(%rbp), %rax
 218 0073 C7801C08 		movl	$0, 2076(%rax)
 218      00000000 
 218      0000
  22:RecordingReporter.h ****         , summaryFailureCount(0)
 219              		.loc 4 22 11
 220 007d 488B45F8 		movq	-8(%rbp), %rax
 221 0081 C7802008 		movl	$0, 2080(%rax)
 221      00000000 
 221      0000
  23:RecordingReporter.h ****         , summarySecondsElapsed(0)
 222              		.loc 4 23 11
 223 008b 488B45F8 		movq	-8(%rbp), %rax
 224 008f C7802408 		movl	$0, 2084(%rax)
 224      00000000 
 224      0000
 225              		.loc 4 24 11
 226 0099 488B45F8 		movq	-8(%rbp), %rax
 227 009d 660FEFC0 		pxor	%xmm0, %xmm0
 228 00a1 F30F1180 		movss	%xmm0, 2088(%rax)
 228      28080000 
  25:RecordingReporter.h ****     {
  26:RecordingReporter.h ****         lastStartedSuite[0] = '\0';
 229              		.loc 4 26 29
 230 00a9 488B45F8 		movq	-8(%rbp), %rax
 231 00ad C6400C00 		movb	$0, 12(%rax)
  27:RecordingReporter.h ****         lastStartedTest[0] = '\0';
 232              		.loc 4 27 28
 233 00b1 488B45F8 		movq	-8(%rbp), %rax
 234 00b5 C6800C01 		movb	$0, 268(%rax)
 234      000000
  28:RecordingReporter.h ****         lastFailedFile[0] = '\0';
 235              		.loc 4 28 27
 236 00bc 488B45F8 		movq	-8(%rbp), %rax
 237 00c0 C6801002 		movb	$0, 528(%rax)
 237      000000
  29:RecordingReporter.h ****         lastFailedSuite[0] = '\0';
 238              		.loc 4 29 28
 239 00c7 488B45F8 		movq	-8(%rbp), %rax
 240 00cb C6801403 		movb	$0, 788(%rax)
 240      000000
  30:RecordingReporter.h ****         lastFailedTest[0] = '\0';
 241              		.loc 4 30 27
 242 00d2 488B45F8 		movq	-8(%rbp), %rax
 243 00d6 C6801404 		movb	$0, 1044(%rax)
 243      000000
  31:RecordingReporter.h ****         lastFailedMessage[0] = '\0';
 244              		.loc 4 31 30
 245 00dd 488B45F8 		movq	-8(%rbp), %rax
 246 00e1 C6801405 		movb	$0, 1300(%rax)
 246      000000
  32:RecordingReporter.h ****         lastFinishedSuite[0] = '\0';
 247              		.loc 4 32 30
 248 00e8 488B45F8 		movq	-8(%rbp), %rax
 249 00ec C6801806 		movb	$0, 1560(%rax)
 249      000000
  33:RecordingReporter.h ****         lastFinishedTest[0] = '\0';
 250              		.loc 4 33 29
 251 00f3 488B45F8 		movq	-8(%rbp), %rax
 252 00f7 C6801807 		movb	$0, 1816(%rax)
 252      000000
 253              	.LBE5:
  34:RecordingReporter.h ****     }
 254              		.loc 4 34 5
 255 00fe 90       		nop
 256 00ff C9       		leave
 257              		.cfi_def_cfa 7, 8
 258 0100 C3       		ret
 259              		.cfi_endproc
 260              	.LFE1145:
 262              		.weak	_ZN17RecordingReporterC1Ev
 263              		.set	_ZN17RecordingReporterC1Ev,_ZN17RecordingReporterC2Ev
 264              		.section	.text._ZN17RecordingReporter15ReportTestStartERKN8UnitTest11TestDetailsE,"axG",@progbits,
 265              		.align 2
 266              		.weak	_ZN17RecordingReporter15ReportTestStartERKN8UnitTest11TestDetailsE
 268              	_ZN17RecordingReporter15ReportTestStartERKN8UnitTest11TestDetailsE:
 269              	.LFB1147:
  35:RecordingReporter.h **** 
  36:RecordingReporter.h ****     virtual void ReportTestStart(UnitTest::TestDetails const& test)
 270              		.loc 4 36 18
 271              		.cfi_startproc
 272 0000 F30F1EFA 		endbr64
 273 0004 55       		pushq	%rbp
 274              		.cfi_def_cfa_offset 16
 275              		.cfi_offset 6, -16
 276 0005 4889E5   		movq	%rsp, %rbp
 277              		.cfi_def_cfa_register 6
 278 0008 4883EC10 		subq	$16, %rsp
 279 000c 48897DF8 		movq	%rdi, -8(%rbp)
 280 0010 488975F0 		movq	%rsi, -16(%rbp)
  37:RecordingReporter.h ****     {
  38:RecordingReporter.h **** 		using namespace std;
  39:RecordingReporter.h **** 
  40:RecordingReporter.h ****         ++testRunCount;
 281              		.loc 4 40 11
 282 0014 488B45F8 		movq	-8(%rbp), %rax
 283 0018 8B4008   		movl	8(%rax), %eax
 284              		.loc 4 40 9
 285 001b 8D5001   		leal	1(%rax), %edx
 286 001e 488B45F8 		movq	-8(%rbp), %rax
 287 0022 895008   		movl	%edx, 8(%rax)
  41:RecordingReporter.h ****         strcpy(lastStartedSuite, test.suiteName);
 288              		.loc 4 41 39
 289 0025 488B45F0 		movq	-16(%rbp), %rax
 290 0029 488B00   		movq	(%rax), %rax
 291              		.loc 4 41 16
 292 002c 488B55F8 		movq	-8(%rbp), %rdx
 293 0030 4883C20C 		addq	$12, %rdx
 294              		.loc 4 41 15
 295 0034 4889C6   		movq	%rax, %rsi
 296 0037 4889D7   		movq	%rdx, %rdi
 297 003a E8000000 		call	strcpy@PLT
 297      00
  42:RecordingReporter.h ****         strcpy(lastStartedTest, test.testName);
 298              		.loc 4 42 38
 299 003f 488B45F0 		movq	-16(%rbp), %rax
 300 0043 488B4008 		movq	8(%rax), %rax
 301              		.loc 4 42 16
 302 0047 488B55F8 		movq	-8(%rbp), %rdx
 303 004b 4881C20C 		addq	$268, %rdx
 303      010000
 304              		.loc 4 42 15
 305 0052 4889C6   		movq	%rax, %rsi
 306 0055 4889D7   		movq	%rdx, %rdi
 307 0058 E8000000 		call	strcpy@PLT
 307      00
  43:RecordingReporter.h ****     }
 308              		.loc 4 43 5
 309 005d 90       		nop
 310 005e C9       		leave
 311              		.cfi_def_cfa 7, 8
 312 005f C3       		ret
 313              		.cfi_endproc
 314              	.LFE1147:
 316              		.section	.text._ZN17RecordingReporter13ReportFailureERKN8UnitTest11TestDetailsEPKc,"axG",@progbits
 317              		.align 2
 318              		.weak	_ZN17RecordingReporter13ReportFailureERKN8UnitTest11TestDetailsEPKc
 320              	_ZN17RecordingReporter13ReportFailureERKN8UnitTest11TestDetailsEPKc:
 321              	.LFB1148:
  44:RecordingReporter.h **** 
  45:RecordingReporter.h ****     virtual void ReportFailure(UnitTest::TestDetails const& test, char const* failure)
 322              		.loc 4 45 18
 323              		.cfi_startproc
 324 0000 F30F1EFA 		endbr64
 325 0004 55       		pushq	%rbp
 326              		.cfi_def_cfa_offset 16
 327              		.cfi_offset 6, -16
 328 0005 4889E5   		movq	%rsp, %rbp
 329              		.cfi_def_cfa_register 6
 330 0008 4883EC20 		subq	$32, %rsp
 331 000c 48897DF8 		movq	%rdi, -8(%rbp)
 332 0010 488975F0 		movq	%rsi, -16(%rbp)
 333 0014 488955E8 		movq	%rdx, -24(%rbp)
  46:RecordingReporter.h ****     {
  47:RecordingReporter.h **** 		using namespace std;
  48:RecordingReporter.h **** 
  49:RecordingReporter.h **** 		++testFailedCount;
 334              		.loc 4 49 5
 335 0018 488B45F8 		movq	-8(%rbp), %rax
 336 001c 8B800C02 		movl	524(%rax), %eax
 336      0000
 337              		.loc 4 49 3
 338 0022 8D5001   		leal	1(%rax), %edx
 339 0025 488B45F8 		movq	-8(%rbp), %rax
 340 0029 89900C02 		movl	%edx, 524(%rax)
 340      0000
  50:RecordingReporter.h ****         strcpy(lastFailedFile, test.filename);
 341              		.loc 4 50 37
 342 002f 488B45F0 		movq	-16(%rbp), %rax
 343 0033 488B4010 		movq	16(%rax), %rax
 344              		.loc 4 50 16
 345 0037 488B55F8 		movq	-8(%rbp), %rdx
 346 003b 4881C210 		addq	$528, %rdx
 346      020000
 347              		.loc 4 50 15
 348 0042 4889C6   		movq	%rax, %rsi
 349 0045 4889D7   		movq	%rdx, %rdi
 350 0048 E8000000 		call	strcpy@PLT
 350      00
  51:RecordingReporter.h ****         lastFailedLine = test.lineNumber;
 351              		.loc 4 51 31
 352 004d 488B45F0 		movq	-16(%rbp), %rax
 353 0051 8B5018   		movl	24(%rax), %edx
 354              		.loc 4 51 24
 355 0054 488B45F8 		movq	-8(%rbp), %rax
 356 0058 89901003 		movl	%edx, 784(%rax)
 356      0000
  52:RecordingReporter.h ****         strcpy(lastFailedSuite, test.suiteName);
 357              		.loc 4 52 38
 358 005e 488B45F0 		movq	-16(%rbp), %rax
 359 0062 488B00   		movq	(%rax), %rax
 360              		.loc 4 52 16
 361 0065 488B55F8 		movq	-8(%rbp), %rdx
 362 0069 4881C214 		addq	$788, %rdx
 362      030000
 363              		.loc 4 52 15
 364 0070 4889C6   		movq	%rax, %rsi
 365 0073 4889D7   		movq	%rdx, %rdi
 366 0076 E8000000 		call	strcpy@PLT
 366      00
  53:RecordingReporter.h ****         strcpy(lastFailedTest, test.testName);
 367              		.loc 4 53 37
 368 007b 488B45F0 		movq	-16(%rbp), %rax
 369 007f 488B4008 		movq	8(%rax), %rax
 370              		.loc 4 53 16
 371 0083 488B55F8 		movq	-8(%rbp), %rdx
 372 0087 4881C214 		addq	$1044, %rdx
 372      040000
 373              		.loc 4 53 15
 374 008e 4889C6   		movq	%rax, %rsi
 375 0091 4889D7   		movq	%rdx, %rdi
 376 0094 E8000000 		call	strcpy@PLT
 376      00
  54:RecordingReporter.h ****         strcpy(lastFailedMessage, failure);
 377              		.loc 4 54 16
 378 0099 488B45F8 		movq	-8(%rbp), %rax
 379 009d 488D9014 		leaq	1300(%rax), %rdx
 379      050000
 380              		.loc 4 54 15
 381 00a4 488B45E8 		movq	-24(%rbp), %rax
 382 00a8 4889C6   		movq	%rax, %rsi
 383 00ab 4889D7   		movq	%rdx, %rdi
 384 00ae E8000000 		call	strcpy@PLT
 384      00
  55:RecordingReporter.h ****     }
 385              		.loc 4 55 5
 386 00b3 90       		nop
 387 00b4 C9       		leave
 388              		.cfi_def_cfa 7, 8
 389 00b5 C3       		ret
 390              		.cfi_endproc
 391              	.LFE1148:
 393              		.section	.text._ZN17RecordingReporter16ReportTestFinishERKN8UnitTest11TestDetailsEf,"axG",@progbit
 394              		.align 2
 395              		.weak	_ZN17RecordingReporter16ReportTestFinishERKN8UnitTest11TestDetailsEf
 397              	_ZN17RecordingReporter16ReportTestFinishERKN8UnitTest11TestDetailsEf:
 398              	.LFB1149:
  56:RecordingReporter.h **** 
  57:RecordingReporter.h ****     virtual void ReportTestFinish(UnitTest::TestDetails const& test, float testDuration)
 399              		.loc 4 57 18
 400              		.cfi_startproc
 401 0000 F30F1EFA 		endbr64
 402 0004 55       		pushq	%rbp
 403              		.cfi_def_cfa_offset 16
 404              		.cfi_offset 6, -16
 405 0005 4889E5   		movq	%rsp, %rbp
 406              		.cfi_def_cfa_register 6
 407 0008 4883EC20 		subq	$32, %rsp
 408 000c 48897DF8 		movq	%rdi, -8(%rbp)
 409 0010 488975F0 		movq	%rsi, -16(%rbp)
 410 0014 F30F1145 		movss	%xmm0, -20(%rbp)
 410      EC
  58:RecordingReporter.h ****     {
  59:RecordingReporter.h **** 		using namespace std;
  60:RecordingReporter.h **** 
  61:RecordingReporter.h **** 		++testFinishedCount;
 411              		.loc 4 61 5
 412 0019 488B45F8 		movq	-8(%rbp), %rax
 413 001d 8B801406 		movl	1556(%rax), %eax
 413      0000
 414              		.loc 4 61 3
 415 0023 8D5001   		leal	1(%rax), %edx
 416 0026 488B45F8 		movq	-8(%rbp), %rax
 417 002a 89901406 		movl	%edx, 1556(%rax)
 417      0000
  62:RecordingReporter.h ****         strcpy(lastFinishedSuite, test.suiteName);
 418              		.loc 4 62 40
 419 0030 488B45F0 		movq	-16(%rbp), %rax
 420 0034 488B00   		movq	(%rax), %rax
 421              		.loc 4 62 16
 422 0037 488B55F8 		movq	-8(%rbp), %rdx
 423 003b 4881C218 		addq	$1560, %rdx
 423      060000
 424              		.loc 4 62 15
 425 0042 4889C6   		movq	%rax, %rsi
 426 0045 4889D7   		movq	%rdx, %rdi
 427 0048 E8000000 		call	strcpy@PLT
 427      00
  63:RecordingReporter.h ****         strcpy(lastFinishedTest, test.testName);
 428              		.loc 4 63 39
 429 004d 488B45F0 		movq	-16(%rbp), %rax
 430 0051 488B4008 		movq	8(%rax), %rax
 431              		.loc 4 63 16
 432 0055 488B55F8 		movq	-8(%rbp), %rdx
 433 0059 4881C218 		addq	$1816, %rdx
 433      070000
 434              		.loc 4 63 15
 435 0060 4889C6   		movq	%rax, %rsi
 436 0063 4889D7   		movq	%rdx, %rdi
 437 0066 E8000000 		call	strcpy@PLT
 437      00
  64:RecordingReporter.h ****         lastFinishedTestTime = testDuration;
 438              		.loc 4 64 30
 439 006b 488B45F8 		movq	-8(%rbp), %rax
 440 006f F30F1045 		movss	-20(%rbp), %xmm0
 440      EC
 441 0074 F30F1180 		movss	%xmm0, 2072(%rax)
 441      18080000 
  65:RecordingReporter.h ****     }
 442              		.loc 4 65 5
 443 007c 90       		nop
 444 007d C9       		leave
 445              		.cfi_def_cfa 7, 8
 446 007e C3       		ret
 447              		.cfi_endproc
 448              	.LFE1149:
 450              		.section	.text._ZN17RecordingReporter13ReportSummaryEiiif,"axG",@progbits,_ZN17RecordingReporter13
 451              		.align 2
 452              		.weak	_ZN17RecordingReporter13ReportSummaryEiiif
 454              	_ZN17RecordingReporter13ReportSummaryEiiif:
 455              	.LFB1150:
  66:RecordingReporter.h **** 
  67:RecordingReporter.h ****     virtual void ReportSummary(int totalTestCount, int failedTestCount, int failureCount, float sec
 456              		.loc 4 67 18
 457              		.cfi_startproc
 458 0000 F30F1EFA 		endbr64
 459 0004 55       		pushq	%rbp
 460              		.cfi_def_cfa_offset 16
 461              		.cfi_offset 6, -16
 462 0005 4889E5   		movq	%rsp, %rbp
 463              		.cfi_def_cfa_register 6
 464 0008 48897DF8 		movq	%rdi, -8(%rbp)
 465 000c 8975F4   		movl	%esi, -12(%rbp)
 466 000f 8955F0   		movl	%edx, -16(%rbp)
 467 0012 894DEC   		movl	%ecx, -20(%rbp)
 468 0015 F30F1145 		movss	%xmm0, -24(%rbp)
 468      E8
  68:RecordingReporter.h ****     {
  69:RecordingReporter.h ****         summaryTotalTestCount = totalTestCount;
 469              		.loc 4 69 31
 470 001a 488B45F8 		movq	-8(%rbp), %rax
 471 001e 8B55F4   		movl	-12(%rbp), %edx
 472 0021 89901C08 		movl	%edx, 2076(%rax)
 472      0000
  70:RecordingReporter.h ****         summaryFailedTestCount = failedTestCount;
 473              		.loc 4 70 32
 474 0027 488B45F8 		movq	-8(%rbp), %rax
 475 002b 8B55F0   		movl	-16(%rbp), %edx
 476 002e 89902008 		movl	%edx, 2080(%rax)
 476      0000
  71:RecordingReporter.h ****         summaryFailureCount = failureCount;
 477              		.loc 4 71 29
 478 0034 488B45F8 		movq	-8(%rbp), %rax
 479 0038 8B55EC   		movl	-20(%rbp), %edx
 480 003b 89902408 		movl	%edx, 2084(%rax)
 480      0000
  72:RecordingReporter.h ****         summarySecondsElapsed = secondsElapsed;
 481              		.loc 4 72 31
 482 0041 488B45F8 		movq	-8(%rbp), %rax
 483 0045 F30F1045 		movss	-24(%rbp), %xmm0
 483      E8
 484 004a F30F1180 		movss	%xmm0, 2088(%rax)
 484      28080000 
  73:RecordingReporter.h ****     }
 485              		.loc 4 73 5
 486 0052 90       		nop
 487 0053 5D       		popq	%rbp
 488              		.cfi_def_cfa 7, 8
 489 0054 C3       		ret
 490              		.cfi_endproc
 491              	.LFE1150:
 493              		.section	.text._ZN17ScopedCurrentTestC2ERN8UnitTest11TestResultsEPKNS0_11TestDetailsE,"axG",@progb
 494              		.align 2
 495              		.weak	_ZN17ScopedCurrentTestC2ERN8UnitTest11TestResultsEPKNS0_11TestDetailsE
 497              	_ZN17ScopedCurrentTestC2ERN8UnitTest11TestResultsEPKNS0_11TestDetailsE:
 498              	.LFB1155:
 499              		.file 5 "ScopedCurrentTest.h"
   1:ScopedCurrentTest.h **** #ifndef UNITTEST_SCOPEDCURRENTTEST_H
   2:ScopedCurrentTest.h **** #define UNITTEST_SCOPEDCURRENTTEST_H
   3:ScopedCurrentTest.h **** 
   4:ScopedCurrentTest.h **** #include "../CurrentTest.h"
   5:ScopedCurrentTest.h **** #include <cstddef>
   6:ScopedCurrentTest.h **** 
   7:ScopedCurrentTest.h **** class ScopedCurrentTest
   8:ScopedCurrentTest.h **** {
   9:ScopedCurrentTest.h **** public:
  10:ScopedCurrentTest.h **** 	ScopedCurrentTest()
  11:ScopedCurrentTest.h **** 		: m_oldTestResults(UnitTest::CurrentTest::Results())
  12:ScopedCurrentTest.h **** 		, m_oldTestDetails(UnitTest::CurrentTest::Details())
  13:ScopedCurrentTest.h **** 	{
  14:ScopedCurrentTest.h **** 	}
  15:ScopedCurrentTest.h **** 
  16:ScopedCurrentTest.h **** 	explicit ScopedCurrentTest(UnitTest::TestResults& newResults, const UnitTest::TestDetails* newDeta
 500              		.loc 5 16 11
 501              		.cfi_startproc
 502 0000 F30F1EFA 		endbr64
 503 0004 55       		pushq	%rbp
 504              		.cfi_def_cfa_offset 16
 505              		.cfi_offset 6, -16
 506 0005 4889E5   		movq	%rsp, %rbp
 507              		.cfi_def_cfa_register 6
 508 0008 4883EC20 		subq	$32, %rsp
 509 000c 48897DF8 		movq	%rdi, -8(%rbp)
 510 0010 488975F0 		movq	%rsi, -16(%rbp)
 511 0014 488955E8 		movq	%rdx, -24(%rbp)
 512              	.LBB6:
  17:ScopedCurrentTest.h **** 		: m_oldTestResults(UnitTest::CurrentTest::Results())
 513              		.loc 5 17 52
 514 0018 E8000000 		call	_ZN8UnitTest11CurrentTest7ResultsEv@PLT
 514      00
 515 001d 488B10   		movq	(%rax), %rdx
 516              		.loc 5 17 5
 517 0020 488B45F8 		movq	-8(%rbp), %rax
 518 0024 488910   		movq	%rdx, (%rax)
  18:ScopedCurrentTest.h **** 		, m_oldTestDetails(UnitTest::CurrentTest::Details())
 519              		.loc 5 18 52
 520 0027 E8000000 		call	_ZN8UnitTest11CurrentTest7DetailsEv@PLT
 520      00
 521 002c 488B10   		movq	(%rax), %rdx
 522              		.loc 5 18 5
 523 002f 488B45F8 		movq	-8(%rbp), %rax
 524 0033 48895008 		movq	%rdx, 8(%rax)
  19:ScopedCurrentTest.h **** 	{
  20:ScopedCurrentTest.h **** 		UnitTest::CurrentTest::Results() = &newResults;
 525              		.loc 5 20 33
 526 0037 E8000000 		call	_ZN8UnitTest11CurrentTest7ResultsEv@PLT
 526      00
 527              		.loc 5 20 36
 528 003c 488B55F0 		movq	-16(%rbp), %rdx
 529 0040 488910   		movq	%rdx, (%rax)
  21:ScopedCurrentTest.h **** 
  22:ScopedCurrentTest.h **** 		if (newDetails != NULL)
 530              		.loc 5 22 3
 531 0043 48837DE8 		cmpq	$0, -24(%rbp)
 531      00
 532 0048 740C     		je	.L17
  23:ScopedCurrentTest.h **** 			UnitTest::CurrentTest::Details() = newDetails;
 533              		.loc 5 23 34
 534 004a E8000000 		call	_ZN8UnitTest11CurrentTest7DetailsEv@PLT
 534      00
 535              		.loc 5 23 37
 536 004f 488B55E8 		movq	-24(%rbp), %rdx
 537 0053 488910   		movq	%rdx, (%rax)
 538              	.L17:
 539              	.LBE6:
  24:ScopedCurrentTest.h **** 	}
 540              		.loc 5 24 2
 541 0056 90       		nop
 542 0057 C9       		leave
 543              		.cfi_def_cfa 7, 8
 544 0058 C3       		ret
 545              		.cfi_endproc
 546              	.LFE1155:
 548              		.weak	_ZN17ScopedCurrentTestC1ERN8UnitTest11TestResultsEPKNS0_11TestDetailsE
 549              		.set	_ZN17ScopedCurrentTestC1ERN8UnitTest11TestResultsEPKNS0_11TestDetailsE,_ZN17ScopedCurrentTest
 550              		.section	.text._ZN17ScopedCurrentTestD2Ev,"axG",@progbits,_ZN17ScopedCurrentTestD5Ev,comdat
 551              		.align 2
 552              		.weak	_ZN17ScopedCurrentTestD2Ev
 554              	_ZN17ScopedCurrentTestD2Ev:
 555              	.LFB1158:
  25:ScopedCurrentTest.h **** 
  26:ScopedCurrentTest.h **** 	~ScopedCurrentTest()
 556              		.loc 5 26 2
 557              		.cfi_startproc
 558 0000 F30F1EFA 		endbr64
 559 0004 55       		pushq	%rbp
 560              		.cfi_def_cfa_offset 16
 561              		.cfi_offset 6, -16
 562 0005 4889E5   		movq	%rsp, %rbp
 563              		.cfi_def_cfa_register 6
 564 0008 4883EC10 		subq	$16, %rsp
 565 000c 48897DF8 		movq	%rdi, -8(%rbp)
 566              	.LBB7:
  27:ScopedCurrentTest.h **** 	{
  28:ScopedCurrentTest.h **** 		UnitTest::CurrentTest::Results() = m_oldTestResults;
 567              		.loc 5 28 33
 568 0010 E8000000 		call	_ZN8UnitTest11CurrentTest7ResultsEv@PLT
 568      00
 569              		.loc 5 28 38
 570 0015 488B55F8 		movq	-8(%rbp), %rdx
 571 0019 488B12   		movq	(%rdx), %rdx
 572              		.loc 5 28 36
 573 001c 488910   		movq	%rdx, (%rax)
  29:ScopedCurrentTest.h **** 		UnitTest::CurrentTest::Details() = m_oldTestDetails;
 574              		.loc 5 29 33
 575 001f E8000000 		call	_ZN8UnitTest11CurrentTest7DetailsEv@PLT
 575      00
 576              		.loc 5 29 38
 577 0024 488B55F8 		movq	-8(%rbp), %rdx
 578 0028 488B5208 		movq	8(%rdx), %rdx
 579              		.loc 5 29 36
 580 002c 488910   		movq	%rdx, (%rax)
 581              	.LBE7:
  30:ScopedCurrentTest.h **** 	}
 582              		.loc 5 30 2
 583 002f 90       		nop
 584 0030 C9       		leave
 585              		.cfi_def_cfa 7, 8
 586 0031 C3       		ret
 587              		.cfi_endproc
 588              	.LFE1158:
 590              		.weak	_ZN17ScopedCurrentTestD1Ev
 591              		.set	_ZN17ScopedCurrentTestD1Ev,_ZN17ScopedCurrentTestD2Ev
 592              		.section	.rodata
 593              	.LC2:
 594 000d 54657374 		.string	"TestCheckMacros.cpp"
 594      43686563 
 594      6B4D6163 
 594      726F732E 
 594      63707000 
 595              	.LC3:
 596 0021 43686563 		.string	"CheckSucceedsOnTrue"
 596      6B537563 
 596      63656564 
 596      734F6E54 
 596      72756500 
 597              		.text
 598              		.align 2
 600              	_ZN12_GLOBAL__N_123TestCheckSucceedsOnTrueC2Ev:
 601              	.LFB1161:
 602              		.file 6 "TestCheckMacros.cpp"
   1:TestCheckMacros.cpp **** #include "../UnitTest++.h"
   2:TestCheckMacros.cpp **** #include "../CurrentTest.h"
   3:TestCheckMacros.cpp **** #include "RecordingReporter.h"
   4:TestCheckMacros.cpp **** #include "ScopedCurrentTest.h"
   5:TestCheckMacros.cpp **** 
   6:TestCheckMacros.cpp **** using namespace std;
   7:TestCheckMacros.cpp **** 
   8:TestCheckMacros.cpp **** namespace {
   9:TestCheckMacros.cpp **** 
  10:TestCheckMacros.cpp **** TEST(CheckSucceedsOnTrue)
 603              		.loc 6 10 1
 604              		.cfi_startproc
 605 0000 55       		pushq	%rbp
 606              		.cfi_def_cfa_offset 16
 607              		.cfi_offset 6, -16
 608 0001 4889E5   		movq	%rsp, %rbp
 609              		.cfi_def_cfa_register 6
 610 0004 53       		pushq	%rbx
 611 0005 4883EC18 		subq	$24, %rsp
 612              		.cfi_offset 3, -24
 613 0009 48897DE8 		movq	%rdi, -24(%rbp)
 614              	.LBB8:
 615              		.loc 6 10 1
 616 000d 488B5DE8 		movq	-24(%rbp), %rbx
 617 0011 E8000000 		call	_ZN13UnitTestSuite12GetSuiteNameEv
 617      00
 618 0016 4889C2   		movq	%rax, %rdx
 619 0019 41B80A00 		movl	$10, %r8d
 619      0000
 620 001f 488D0500 		leaq	.LC2(%rip), %rax
 620      000000
 621 0026 4889C1   		movq	%rax, %rcx
 622 0029 488D0500 		leaq	.LC3(%rip), %rax
 622      000000
 623 0030 4889C6   		movq	%rax, %rsi
 624 0033 4889DF   		movq	%rbx, %rdi
 625 0036 E8000000 		call	_ZN8UnitTest4TestC2EPKcS2_S2_i@PLT
 625      00
 626 003b 488D1500 		leaq	16+_ZTVN12_GLOBAL__N_123TestCheckSucceedsOnTrueE(%rip), %rdx
 626      000000
 627 0042 488B45E8 		movq	-24(%rbp), %rax
 628 0046 488910   		movq	%rdx, (%rax)
 629              	.LBE8:
 630 0049 90       		nop
 631 004a 488B5DF8 		movq	-8(%rbp), %rbx
 632 004e C9       		leave
 633              		.cfi_def_cfa 7, 8
 634 004f C3       		ret
 635              		.cfi_endproc
 636              	.LFE1161:
 638              		.set	_ZN12_GLOBAL__N_123TestCheckSucceedsOnTrueC1Ev,_ZN12_GLOBAL__N_123TestCheckSucceedsOnTrueC2Ev
 639              		.local	_ZN12_GLOBAL__N_131testCheckSucceedsOnTrueInstanceE
 640              		.comm	_ZN12_GLOBAL__N_131testCheckSucceedsOnTrueInstanceE,56,32
 641              		.local	_ZN12_GLOBAL__N_124adderCheckSucceedsOnTrueE
 642              		.comm	_ZN12_GLOBAL__N_124adderCheckSucceedsOnTrueE,1,1
 643              		.section	.rodata
 644              	.LC4:
 645 0035 74727565 		.string	"true"
 645      00
 646              	.LC5:
 647 003a 21666169 		.string	"!failure"
 647      6C757265 
 647      00
 648 0043 00000000 		.align 8
 648      00
 649              	.LC6:
 650 0048 556E6861 		.string	"Unhandled exception in CHECK(true)"
 650      6E646C65 
 650      64206578 
 650      63657074 
 650      696F6E20 
 651 006b 00000000 		.align 8
 651      00
 652              	.LC7:
 653 0070 556E6861 		.string	"Unhandled exception in CHECK(!failure)"
 653      6E646C65 
 653      64206578 
 653      63657074 
 653      696F6E20 
 654              		.text
 655              		.align 2
 657              	_ZNK12_GLOBAL__N_123TestCheckSucceedsOnTrue7RunImplEv:
 658              	.LFB1163:
  11:TestCheckMacros.cpp **** {
 659              		.loc 6 11 1
 660              		.cfi_startproc
 661              		.cfi_personality 0x9b,DW.ref.__gxx_personality_v0
 662              		.cfi_lsda 0x1b,.LLSDA1163
 663 0050 F30F1EFA 		endbr64
 664 0054 55       		pushq	%rbp
 665              		.cfi_def_cfa_offset 16
 666              		.cfi_offset 6, -16
 667 0055 4889E5   		movq	%rsp, %rbp
 668              		.cfi_def_cfa_register 6
 669 0058 53       		pushq	%rbx
 670 0059 4881ECB8 		subq	$2232, %rsp
 670      080000
 671              		.cfi_offset 3, -24
 672 0060 4889BD48 		movq	%rdi, -2232(%rbp)
 672      F7FFFF
 673              		.loc 6 11 1
 674 0067 64488B04 		movq	%fs:40, %rax
 674      25280000 
 674      00
 675 0070 488945E8 		movq	%rax, -24(%rbp)
 676 0074 31C0     		xorl	%eax, %eax
  12:TestCheckMacros.cpp ****     bool failure = true;
 677              		.loc 6 12 10
 678 0076 C6855FF7 		movb	$1, -2209(%rbp)
 678      FFFF01
 679              	.LBB9:
  13:TestCheckMacros.cpp ****     {
  14:TestCheckMacros.cpp ****         RecordingReporter reporter;
 680              		.loc 6 14 27
 681 007d 488D85B0 		leaq	-2128(%rbp), %rax
 681      F7FFFF
 682 0084 4889C7   		movq	%rax, %rdi
 683 0087 E8000000 		call	_ZN17RecordingReporterC1Ev
 683      00
  15:TestCheckMacros.cpp ****         UnitTest::TestResults testResults(&reporter);
 684              		.loc 6 15 52
 685 008c 488D95B0 		leaq	-2128(%rbp), %rdx
 685      F7FFFF
 686 0093 488D8570 		leaq	-2192(%rbp), %rax
 686      F7FFFF
 687 009a 4889D6   		movq	%rdx, %rsi
 688 009d 4889C7   		movq	%rax, %rdi
 689              	.LEHB4:
 690 00a0 E8000000 		call	_ZN8UnitTest11TestResultsC1EPNS_12TestReporterE@PLT
 690      00
  16:TestCheckMacros.cpp **** 
  17:TestCheckMacros.cpp **** 		ScopedCurrentTest scopedResults(testResults);
 691              		.loc 6 17 46
 692 00a5 488D8D70 		leaq	-2192(%rbp), %rcx
 692      F7FFFF
 693 00ac 488D8560 		leaq	-2208(%rbp), %rax
 693      F7FFFF
 694 00b3 BA000000 		movl	$0, %edx
 694      00
 695 00b8 4889CE   		movq	%rcx, %rsi
 696 00bb 4889C7   		movq	%rax, %rdi
 697 00be E8000000 		call	_ZN17ScopedCurrentTestC1ERN8UnitTest11TestResultsEPKNS0_11TestDetailsE
 697      00
 698              	.LEHE4:
  18:TestCheckMacros.cpp **** 		CHECK(true);
 699              		.loc 6 18 3
 700 00c3 BF010000 		movl	$1, %edi
 700      00
 701 00c8 E8000000 		call	_ZN8UnitTest5CheckIbEEbT_
 701      00
 702 00cd 83F001   		xorl	$1, %eax
 703 00d0 84C0     		testb	%al, %al
 704 00d2 7440     		je	.L21
 705              	.LEHB5:
 706              		.loc 6 18 3 is_stmt 0 discriminator 1
 707 00d4 E8000000 		call	_ZN8UnitTest11CurrentTest7ResultsEv@PLT
 707      00
 708 00d9 488B18   		movq	(%rax), %rbx
 709 00dc E8000000 		call	_ZN8UnitTest11CurrentTest7DetailsEv@PLT
 709      00
 710              		.loc 6 18 3 discriminator 3
 711 00e1 488B08   		movq	(%rax), %rcx
 712 00e4 488D8590 		leaq	-2160(%rbp), %rax
 712      F7FFFF
 713 00eb BA120000 		movl	$18, %edx
 713      00
 714 00f0 4889CE   		movq	%rcx, %rsi
 715 00f3 4889C7   		movq	%rax, %rdi
 716 00f6 E8000000 		call	_ZN8UnitTest11TestDetailsC1ERKS0_i@PLT
 716      00
 717              		.loc 6 18 3 discriminator 7
 718 00fb 488D8590 		leaq	-2160(%rbp), %rax
 718      F7FFFF
 719 0102 488D1500 		leaq	.LC4(%rip), %rdx
 719      000000
 720 0109 4889C6   		movq	%rax, %rsi
 721 010c 4889DF   		movq	%rbx, %rdi
 722 010f E8000000 		call	_ZN8UnitTest11TestResults13OnTestFailureERKNS_11TestDetailsEPKc@PLT
 722      00
 723              	.LEHE5:
 724              	.L21:
  19:TestCheckMacros.cpp **** 
  20:TestCheckMacros.cpp **** 		failure = (testResults.GetFailureCount() > 0);
 725              		.loc 6 20 41 is_stmt 1
 726 0114 488D8570 		leaq	-2192(%rbp), %rax
 726      F7FFFF
 727 011b 4889C7   		movq	%rax, %rdi
 728              	.LEHB6:
 729 011e E8000000 		call	_ZNK8UnitTest11TestResults15GetFailureCountEv@PLT
 729      00
 730              	.LEHE6:
 731              		.loc 6 20 11
 732 0123 85C0     		testl	%eax, %eax
 733 0125 0F9FC0   		setg	%al
 734 0128 88855FF7 		movb	%al, -2209(%rbp)
 734      FFFF
  21:TestCheckMacros.cpp ****     }
 735              		.loc 6 21 5
 736 012e 488D8560 		leaq	-2208(%rbp), %rax
 736      F7FFFF
 737 0135 4889C7   		movq	%rax, %rdi
 738              	.LEHB7:
 739 0138 E8000000 		call	_ZN17ScopedCurrentTestD1Ev
 739      00
 740              	.LEHE7:
 741              		.loc 6 21 5 is_stmt 0 discriminator 2
 742 013d 488D85B0 		leaq	-2128(%rbp), %rax
 742      F7FFFF
 743 0144 4889C7   		movq	%rax, %rdi
 744              	.LEHB8:
 745 0147 E8000000 		call	_ZN17RecordingReporterD1Ev
 745      00
 746              	.LEHE8:
 747              	.LBE9:
  22:TestCheckMacros.cpp **** 
  23:TestCheckMacros.cpp ****     CHECK(!failure);
 748              		.loc 6 23 5 is_stmt 1 discriminator 2
 749 014c 0FB6855F 		movzbl	-2209(%rbp), %eax
 749      F7FFFF
 750 0153 83F001   		xorl	$1, %eax
 751 0156 0FB6C0   		movzbl	%al, %eax
 752 0159 89C7     		movl	%eax, %edi
 753 015b E8000000 		call	_ZN8UnitTest5CheckIbEEbT_
 753      00
 754 0160 83F001   		xorl	$1, %eax
 755 0163 84C0     		testb	%al, %al
 756 0165 0F844C01 		je	.L36
 756      0000
 757              	.LEHB9:
 758              		.loc 6 23 5 is_stmt 0 discriminator 1
 759 016b E8000000 		call	_ZN8UnitTest11CurrentTest7ResultsEv@PLT
 759      00
 760 0170 488B18   		movq	(%rax), %rbx
 761 0173 E8000000 		call	_ZN8UnitTest11CurrentTest7DetailsEv@PLT
 761      00
 762              		.loc 6 23 5 discriminator 3
 763 0178 488B08   		movq	(%rax), %rcx
 764 017b 488D8590 		leaq	-2160(%rbp), %rax
 764      F7FFFF
 765 0182 BA170000 		movl	$23, %edx
 765      00
 766 0187 4889CE   		movq	%rcx, %rsi
 767 018a 4889C7   		movq	%rax, %rdi
 768 018d E8000000 		call	_ZN8UnitTest11TestDetailsC1ERKS0_i@PLT
 768      00
 769              		.loc 6 23 5 discriminator 7
 770 0192 488D8590 		leaq	-2160(%rbp), %rax
 770      F7FFFF
 771 0199 488D1500 		leaq	.LC5(%rip), %rdx
 771      000000
 772 01a0 4889C6   		movq	%rax, %rsi
 773 01a3 4889DF   		movq	%rbx, %rdi
 774 01a6 E8000000 		call	_ZN8UnitTest11TestResults13OnTestFailureERKNS_11TestDetailsEPKc@PLT
 774      00
 775              	.LEHE9:
  24:TestCheckMacros.cpp **** }
 776              		.loc 6 24 1 is_stmt 1
 777 01ab E9070100 		jmp	.L36
 777      00
 778              	.L31:
 779 01b0 F30F1EFA 		endbr64
 780              	.LBB10:
  18:TestCheckMacros.cpp **** 
 781              		.loc 6 18 3
 782 01b4 4889C7   		movq	%rax, %rdi
 783 01b7 E8000000 		call	__cxa_begin_catch@PLT
 783      00
 784              	.LEHB10:
 785 01bc E8000000 		call	_ZN8UnitTest11CurrentTest7ResultsEv@PLT
 785      00
  18:TestCheckMacros.cpp **** 
 786              		.loc 6 18 3 is_stmt 0 discriminator 6
 787 01c1 488B18   		movq	(%rax), %rbx
 788 01c4 E8000000 		call	_ZN8UnitTest11CurrentTest7DetailsEv@PLT
 788      00
  18:TestCheckMacros.cpp **** 
 789              		.loc 6 18 3 discriminator 12
 790 01c9 488B08   		movq	(%rax), %rcx
 791 01cc 488D8590 		leaq	-2160(%rbp), %rax
 791      F7FFFF
 792 01d3 BA120000 		movl	$18, %edx
 792      00
 793 01d8 4889CE   		movq	%rcx, %rsi
 794 01db 4889C7   		movq	%rax, %rdi
 795 01de E8000000 		call	_ZN8UnitTest11TestDetailsC1ERKS0_i@PLT
 795      00
  18:TestCheckMacros.cpp **** 
 796              		.loc 6 18 3 discriminator 16
 797 01e3 488D8590 		leaq	-2160(%rbp), %rax
 797      F7FFFF
 798 01ea 488D1500 		leaq	.LC6(%rip), %rdx
 798      000000
 799 01f1 4889C6   		movq	%rax, %rsi
 800 01f4 4889DF   		movq	%rbx, %rdi
 801 01f7 E8000000 		call	_ZN8UnitTest11TestResults13OnTestFailureERKNS_11TestDetailsEPKc@PLT
 801      00
 802              	.LEHE10:
 803              	.LEHB11:
  18:TestCheckMacros.cpp **** 
 804              		.loc 6 18 3 discriminator 18
 805 01fc E8000000 		call	__cxa_end_catch@PLT
 805      00
 806              	.LEHE11:
  18:TestCheckMacros.cpp **** 
 807              		.loc 6 18 3
 808 0201 E90EFFFF 		jmp	.L21
 808      FF
 809              	.L33:
 810 0206 F30F1EFA 		endbr64
 811 020a 4889C3   		movq	%rax, %rbx
 812 020d E8000000 		call	__cxa_end_catch@PLT
 812      00
 813 0212 EB07     		jmp	.L25
 814              	.L32:
 815 0214 F30F1EFA 		endbr64
  21:TestCheckMacros.cpp **** 
 816              		.loc 6 21 5 is_stmt 1
 817 0218 4889C3   		movq	%rax, %rbx
 818              	.L25:
 819 021b 488D8560 		leaq	-2208(%rbp), %rax
 819      F7FFFF
 820 0222 4889C7   		movq	%rax, %rdi
 821 0225 E8000000 		call	_ZN17ScopedCurrentTestD1Ev
 821      00
 822 022a EB07     		jmp	.L26
 823              	.L30:
 824 022c F30F1EFA 		endbr64
 825 0230 4889C3   		movq	%rax, %rbx
 826              	.L26:
  21:TestCheckMacros.cpp **** 
 827              		.loc 6 21 5 is_stmt 0 discriminator 1
 828 0233 488D85B0 		leaq	-2128(%rbp), %rax
 828      F7FFFF
 829 023a 4889C7   		movq	%rax, %rdi
 830 023d E8000000 		call	_ZN17RecordingReporterD1Ev
 830      00
 831 0242 4889D8   		movq	%rbx, %rax
 832 0245 4889C7   		movq	%rax, %rdi
 833              	.LEHB12:
 834 0248 E8000000 		call	_Unwind_Resume@PLT
 834      00
 835              	.LEHE12:
 836              	.L34:
 837 024d F30F1EFA 		endbr64
 838              	.LBE10:
  23:TestCheckMacros.cpp **** }
 839              		.loc 6 23 5 is_stmt 1
 840 0251 4889C7   		movq	%rax, %rdi
 841 0254 E8000000 		call	__cxa_begin_catch@PLT
 841      00
 842              	.LEHB13:
 843 0259 E8000000 		call	_ZN8UnitTest11CurrentTest7ResultsEv@PLT
 843      00
  23:TestCheckMacros.cpp **** }
 844              		.loc 6 23 5 is_stmt 0 discriminator 6
 845 025e 488B18   		movq	(%rax), %rbx
 846 0261 E8000000 		call	_ZN8UnitTest11CurrentTest7DetailsEv@PLT
 846      00
  23:TestCheckMacros.cpp **** }
 847              		.loc 6 23 5 discriminator 12
 848 0266 488B08   		movq	(%rax), %rcx
 849 0269 488D8590 		leaq	-2160(%rbp), %rax
 849      F7FFFF
 850 0270 BA170000 		movl	$23, %edx
 850      00
 851 0275 4889CE   		movq	%rcx, %rsi
 852 0278 4889C7   		movq	%rax, %rdi
 853 027b E8000000 		call	_ZN8UnitTest11TestDetailsC1ERKS0_i@PLT
 853      00
  23:TestCheckMacros.cpp **** }
 854              		.loc 6 23 5 discriminator 16
 855 0280 488D8590 		leaq	-2160(%rbp), %rax
 855      F7FFFF
 856 0287 488D1500 		leaq	.LC7(%rip), %rdx
 856      000000
 857 028e 4889C6   		movq	%rax, %rsi
 858 0291 4889DF   		movq	%rbx, %rdi
 859 0294 E8000000 		call	_ZN8UnitTest11TestResults13OnTestFailureERKNS_11TestDetailsEPKc@PLT
 859      00
 860              	.LEHE13:
 861              	.LEHB14:
  23:TestCheckMacros.cpp **** }
 862              		.loc 6 23 5 discriminator 18
 863 0299 E8000000 		call	__cxa_end_catch@PLT
 863      00
 864              	.LEHE14:
 865              		.loc 6 24 1 is_stmt 1 discriminator 18
 866 029e EB17     		jmp	.L36
 867              	.L35:
 868 02a0 F30F1EFA 		endbr64
  23:TestCheckMacros.cpp **** }
 869              		.loc 6 23 5
 870 02a4 4889C3   		movq	%rax, %rbx
 871 02a7 E8000000 		call	__cxa_end_catch@PLT
 871      00
 872 02ac 4889D8   		movq	%rbx, %rax
 873 02af 4889C7   		movq	%rax, %rdi
 874              	.LEHB15:
 875 02b2 E8000000 		call	_Unwind_Resume@PLT
 875      00
 876              	.LEHE15:
 877              	.L36:
 878              		.loc 6 24 1
 879 02b7 90       		nop
 880 02b8 488B45E8 		movq	-24(%rbp), %rax
 881 02bc 64482B04 		subq	%fs:40, %rax
 881      25280000 
 881      00
 882 02c5 7405     		je	.L29
 883 02c7 E8000000 		call	__stack_chk_fail@PLT
 883      00
 884              	.L29:
 885 02cc 488B5DF8 		movq	-8(%rbp), %rbx
 886 02d0 C9       		leave
 887              		.cfi_def_cfa 7, 8
 888 02d1 C3       		ret
 889              		.cfi_endproc
 890              	.LFE1163:
 891              		.section	.gcc_except_table,"a",@progbits
 892              		.align 4
 893              	.LLSDA1163:
 894 0000 FF       		.byte	0xff
 895 0001 9B       		.byte	0x9b
 896 0002 4D       		.uleb128 .LLSDATT1163-.LLSDATTD1163
 897              	.LLSDATTD1163:
 898 0003 01       		.byte	0x1
 899 0004 43       		.uleb128 .LLSDACSE1163-.LLSDACSB1163
 900              	.LLSDACSB1163:
 901 0005 50       		.uleb128 .LEHB4-.LFB1163
 902 0006 23       		.uleb128 .LEHE4-.LEHB4
 903 0007 DC03     		.uleb128 .L30-.LFB1163
 904 0009 00       		.uleb128 0
 905 000a 8401     		.uleb128 .LEHB5-.LFB1163
 906 000c 40       		.uleb128 .LEHE5-.LEHB5
 907 000d E002     		.uleb128 .L31-.LFB1163
 908 000f 01       		.uleb128 0x1
 909 0010 CE01     		.uleb128 .LEHB6-.LFB1163
 910 0012 05       		.uleb128 .LEHE6-.LEHB6
 911 0013 C403     		.uleb128 .L32-.LFB1163
 912 0015 00       		.uleb128 0
 913 0016 E801     		.uleb128 .LEHB7-.LFB1163
 914 0018 05       		.uleb128 .LEHE7-.LEHB7
 915 0019 DC03     		.uleb128 .L30-.LFB1163
 916 001b 00       		.uleb128 0
 917 001c F701     		.uleb128 .LEHB8-.LFB1163
 918 001e 05       		.uleb128 .LEHE8-.LEHB8
 919 001f 00       		.uleb128 0
 920 0020 00       		.uleb128 0
 921 0021 9B02     		.uleb128 .LEHB9-.LFB1163
 922 0023 40       		.uleb128 .LEHE9-.LEHB9
 923 0024 FD03     		.uleb128 .L34-.LFB1163
 924 0026 01       		.uleb128 0x1
 925 0027 EC02     		.uleb128 .LEHB10-.LFB1163
 926 0029 40       		.uleb128 .LEHE10-.LEHB10
 927 002a B603     		.uleb128 .L33-.LFB1163
 928 002c 00       		.uleb128 0
 929 002d AC03     		.uleb128 .LEHB11-.LFB1163
 930 002f 05       		.uleb128 .LEHE11-.LEHB11
 931 0030 C403     		.uleb128 .L32-.LFB1163
 932 0032 00       		.uleb128 0
 933 0033 F803     		.uleb128 .LEHB12-.LFB1163
 934 0035 05       		.uleb128 .LEHE12-.LEHB12
 935 0036 00       		.uleb128 0
 936 0037 00       		.uleb128 0
 937 0038 8904     		.uleb128 .LEHB13-.LFB1163
 938 003a 40       		.uleb128 .LEHE13-.LEHB13
 939 003b D004     		.uleb128 .L35-.LFB1163
 940 003d 00       		.uleb128 0
 941 003e C904     		.uleb128 .LEHB14-.LFB1163
 942 0040 05       		.uleb128 .LEHE14-.LEHB14
 943 0041 00       		.uleb128 0
 944 0042 00       		.uleb128 0
 945 0043 E204     		.uleb128 .LEHB15-.LFB1163
 946 0045 05       		.uleb128 .LEHE15-.LEHB15
 947 0046 00       		.uleb128 0
 948 0047 00       		.uleb128 0
 949              	.LLSDACSE1163:
 950 0048 01       		.byte	0x1
 951 0049 00       		.byte	0
 952 004a 0000     		.align 4
 953 004c 00000000 		.long	0
 954              	
 955              	.LLSDATT1163:
 956              		.text
 958              		.section	.rodata
 959              	.LC8:
 960 0097 43686563 		.string	"CheckFailsOnFalse"
 960      6B466169 
 960      6C734F6E 
 960      46616C73 
 960      6500
 961              		.text
 962              		.align 2
 964              	_ZN12_GLOBAL__N_121TestCheckFailsOnFalseC2Ev:
 965              	.LFB1165:
  25:TestCheckMacros.cpp **** 
  26:TestCheckMacros.cpp **** TEST(CheckFailsOnFalse)
 966              		.loc 6 26 1
 967              		.cfi_startproc
 968 02d2 55       		pushq	%rbp
 969              		.cfi_def_cfa_offset 16
 970              		.cfi_offset 6, -16
 971 02d3 4889E5   		movq	%rsp, %rbp
 972              		.cfi_def_cfa_register 6
 973 02d6 53       		pushq	%rbx
 974 02d7 4883EC18 		subq	$24, %rsp
 975              		.cfi_offset 3, -24
 976 02db 48897DE8 		movq	%rdi, -24(%rbp)
 977              	.LBB11:
 978              		.loc 6 26 1
 979 02df 488B5DE8 		movq	-24(%rbp), %rbx
 980 02e3 E8000000 		call	_ZN13UnitTestSuite12GetSuiteNameEv
 980      00
 981 02e8 4889C2   		movq	%rax, %rdx
 982 02eb 41B81A00 		movl	$26, %r8d
 982      0000
 983 02f1 488D0500 		leaq	.LC2(%rip), %rax
 983      000000
 984 02f8 4889C1   		movq	%rax, %rcx
 985 02fb 488D0500 		leaq	.LC8(%rip), %rax
 985      000000
 986 0302 4889C6   		movq	%rax, %rsi
 987 0305 4889DF   		movq	%rbx, %rdi
 988 0308 E8000000 		call	_ZN8UnitTest4TestC2EPKcS2_S2_i@PLT
 988      00
 989 030d 488D1500 		leaq	16+_ZTVN12_GLOBAL__N_121TestCheckFailsOnFalseE(%rip), %rdx
 989      000000
 990 0314 488B45E8 		movq	-24(%rbp), %rax
 991 0318 488910   		movq	%rdx, (%rax)
 992              	.LBE11:
 993 031b 90       		nop
 994 031c 488B5DF8 		movq	-8(%rbp), %rbx
 995 0320 C9       		leave
 996              		.cfi_def_cfa 7, 8
 997 0321 C3       		ret
 998              		.cfi_endproc
 999              	.LFE1165:
 1001              		.set	_ZN12_GLOBAL__N_121TestCheckFailsOnFalseC1Ev,_ZN12_GLOBAL__N_121TestCheckFailsOnFalseC2Ev
 1002              		.local	_ZN12_GLOBAL__N_129testCheckFailsOnFalseInstanceE
 1003              		.comm	_ZN12_GLOBAL__N_129testCheckFailsOnFalseInstanceE,56,32
 1004              		.local	_ZN12_GLOBAL__N_122adderCheckFailsOnFalseE
 1005              		.comm	_ZN12_GLOBAL__N_122adderCheckFailsOnFalseE,1,1
 1006              		.section	.rodata
 1007              	.LC9:
 1008 00a9 66616C73 		.string	"false"
 1008      6500
 1009              	.LC10:
 1010 00af 6661696C 		.string	"failure"
 1010      75726500 
 1011 00b7 00       		.align 8
 1012              	.LC11:
 1013 00b8 556E6861 		.string	"Unhandled exception in CHECK(false)"
 1013      6E646C65 
 1013      64206578 
 1013      63657074 
 1013      696F6E20 
 1014 00dc 00000000 		.align 8
 1015              	.LC12:
 1016 00e0 556E6861 		.string	"Unhandled exception in CHECK(failure)"
 1016      6E646C65 
 1016      64206578 
 1016      63657074 
 1016      696F6E20 
 1017              		.text
 1018              		.align 2
 1020              	_ZNK12_GLOBAL__N_121TestCheckFailsOnFalse7RunImplEv:
 1021              	.LFB1167:
  27:TestCheckMacros.cpp **** {
 1022              		.loc 6 27 1
 1023              		.cfi_startproc
 1024              		.cfi_personality 0x9b,DW.ref.__gxx_personality_v0
 1025              		.cfi_lsda 0x1b,.LLSDA1167
 1026 0322 F30F1EFA 		endbr64
 1027 0326 55       		pushq	%rbp
 1028              		.cfi_def_cfa_offset 16
 1029              		.cfi_offset 6, -16
 1030 0327 4889E5   		movq	%rsp, %rbp
 1031              		.cfi_def_cfa_register 6
 1032 032a 53       		pushq	%rbx
 1033 032b 4881ECB8 		subq	$2232, %rsp
 1033      080000
 1034              		.cfi_offset 3, -24
 1035 0332 4889BD48 		movq	%rdi, -2232(%rbp)
 1035      F7FFFF
 1036              		.loc 6 27 1
 1037 0339 64488B04 		movq	%fs:40, %rax
 1037      25280000 
 1037      00
 1038 0342 488945E8 		movq	%rax, -24(%rbp)
 1039 0346 31C0     		xorl	%eax, %eax
  28:TestCheckMacros.cpp ****     bool failure = false;
 1040              		.loc 6 28 10
 1041 0348 C6855FF7 		movb	$0, -2209(%rbp)
 1041      FFFF00
 1042              	.LBB12:
  29:TestCheckMacros.cpp ****     {
  30:TestCheckMacros.cpp ****         RecordingReporter reporter;
 1043              		.loc 6 30 27
 1044 034f 488D85B0 		leaq	-2128(%rbp), %rax
 1044      F7FFFF
 1045 0356 4889C7   		movq	%rax, %rdi
 1046 0359 E8000000 		call	_ZN17RecordingReporterC1Ev
 1046      00
  31:TestCheckMacros.cpp ****         UnitTest::TestResults testResults(&reporter);
 1047              		.loc 6 31 52
 1048 035e 488D95B0 		leaq	-2128(%rbp), %rdx
 1048      F7FFFF
 1049 0365 488D8570 		leaq	-2192(%rbp), %rax
 1049      F7FFFF
 1050 036c 4889D6   		movq	%rdx, %rsi
 1051 036f 4889C7   		movq	%rax, %rdi
 1052              	.LEHB16:
 1053 0372 E8000000 		call	_ZN8UnitTest11TestResultsC1EPNS_12TestReporterE@PLT
 1053      00
  32:TestCheckMacros.cpp **** 		ScopedCurrentTest scopedResults(testResults);
 1054              		.loc 6 32 46
 1055 0377 488D8D70 		leaq	-2192(%rbp), %rcx
 1055      F7FFFF
 1056 037e 488D8560 		leaq	-2208(%rbp), %rax
 1056      F7FFFF
 1057 0385 BA000000 		movl	$0, %edx
 1057      00
 1058 038a 4889CE   		movq	%rcx, %rsi
 1059 038d 4889C7   		movq	%rax, %rdi
 1060 0390 E8000000 		call	_ZN17ScopedCurrentTestC1ERN8UnitTest11TestResultsEPKNS0_11TestDetailsE
 1060      00
 1061              	.LEHE16:
  33:TestCheckMacros.cpp ****         CHECK(false);
 1062              		.loc 6 33 9
 1063 0395 BF000000 		movl	$0, %edi
 1063      00
 1064 039a E8000000 		call	_ZN8UnitTest5CheckIbEEbT_
 1064      00
 1065 039f 83F001   		xorl	$1, %eax
 1066 03a2 84C0     		testb	%al, %al
 1067 03a4 7440     		je	.L39
 1068              	.LEHB17:
 1069              		.loc 6 33 9 is_stmt 0 discriminator 1
 1070 03a6 E8000000 		call	_ZN8UnitTest11CurrentTest7ResultsEv@PLT
 1070      00
 1071 03ab 488B18   		movq	(%rax), %rbx
 1072 03ae E8000000 		call	_ZN8UnitTest11CurrentTest7DetailsEv@PLT
 1072      00
 1073              		.loc 6 33 9 discriminator 3
 1074 03b3 488B08   		movq	(%rax), %rcx
 1075 03b6 488D8590 		leaq	-2160(%rbp), %rax
 1075      F7FFFF
 1076 03bd BA210000 		movl	$33, %edx
 1076      00
 1077 03c2 4889CE   		movq	%rcx, %rsi
 1078 03c5 4889C7   		movq	%rax, %rdi
 1079 03c8 E8000000 		call	_ZN8UnitTest11TestDetailsC1ERKS0_i@PLT
 1079      00
 1080              		.loc 6 33 9 discriminator 7
 1081 03cd 488D8590 		leaq	-2160(%rbp), %rax
 1081      F7FFFF
 1082 03d4 488D1500 		leaq	.LC9(%rip), %rdx
 1082      000000
 1083 03db 4889C6   		movq	%rax, %rsi
 1084 03de 4889DF   		movq	%rbx, %rdi
 1085 03e1 E8000000 		call	_ZN8UnitTest11TestResults13OnTestFailureERKNS_11TestDetailsEPKc@PLT
 1085      00
 1086              	.LEHE17:
 1087              	.L39:
  34:TestCheckMacros.cpp ****         failure = (testResults.GetFailureCount() > 0);
 1088              		.loc 6 34 47 is_stmt 1
 1089 03e6 488D8570 		leaq	-2192(%rbp), %rax
 1089      F7FFFF
 1090 03ed 4889C7   		movq	%rax, %rdi
 1091              	.LEHB18:
 1092 03f0 E8000000 		call	_ZNK8UnitTest11TestResults15GetFailureCountEv@PLT
 1092      00
 1093              	.LEHE18:
 1094              		.loc 6 34 17
 1095 03f5 85C0     		testl	%eax, %eax
 1096 03f7 0F9FC0   		setg	%al
 1097 03fa 88855FF7 		movb	%al, -2209(%rbp)
 1097      FFFF
  35:TestCheckMacros.cpp ****     }
 1098              		.loc 6 35 5
 1099 0400 488D8560 		leaq	-2208(%rbp), %rax
 1099      F7FFFF
 1100 0407 4889C7   		movq	%rax, %rdi
 1101              	.LEHB19:
 1102 040a E8000000 		call	_ZN17ScopedCurrentTestD1Ev
 1102      00
 1103              	.LEHE19:
 1104              		.loc 6 35 5 is_stmt 0 discriminator 2
 1105 040f 488D85B0 		leaq	-2128(%rbp), %rax
 1105      F7FFFF
 1106 0416 4889C7   		movq	%rax, %rdi
 1107              	.LEHB20:
 1108 0419 E8000000 		call	_ZN17RecordingReporterD1Ev
 1108      00
 1109              	.LEHE20:
 1110              	.LBE12:
  36:TestCheckMacros.cpp **** 
  37:TestCheckMacros.cpp ****     CHECK(failure);
 1111              		.loc 6 37 5 is_stmt 1 discriminator 2
 1112 041e 0FB6855F 		movzbl	-2209(%rbp), %eax
 1112      F7FFFF
 1113 0425 89C7     		movl	%eax, %edi
 1114 0427 E8000000 		call	_ZN8UnitTest5CheckIbEEbT_
 1114      00
 1115 042c 83F001   		xorl	$1, %eax
 1116 042f 84C0     		testb	%al, %al
 1117 0431 0F844C01 		je	.L54
 1117      0000
 1118              	.LEHB21:
 1119              		.loc 6 37 5 is_stmt 0 discriminator 1
 1120 0437 E8000000 		call	_ZN8UnitTest11CurrentTest7ResultsEv@PLT
 1120      00
 1121 043c 488B18   		movq	(%rax), %rbx
 1122 043f E8000000 		call	_ZN8UnitTest11CurrentTest7DetailsEv@PLT
 1122      00
 1123              		.loc 6 37 5 discriminator 3
 1124 0444 488B08   		movq	(%rax), %rcx
 1125 0447 488D8590 		leaq	-2160(%rbp), %rax
 1125      F7FFFF
 1126 044e BA250000 		movl	$37, %edx
 1126      00
 1127 0453 4889CE   		movq	%rcx, %rsi
 1128 0456 4889C7   		movq	%rax, %rdi
 1129 0459 E8000000 		call	_ZN8UnitTest11TestDetailsC1ERKS0_i@PLT
 1129      00
 1130              		.loc 6 37 5 discriminator 7
 1131 045e 488D8590 		leaq	-2160(%rbp), %rax
 1131      F7FFFF
 1132 0465 488D1500 		leaq	.LC10(%rip), %rdx
 1132      000000
 1133 046c 4889C6   		movq	%rax, %rsi
 1134 046f 4889DF   		movq	%rbx, %rdi
 1135 0472 E8000000 		call	_ZN8UnitTest11TestResults13OnTestFailureERKNS_11TestDetailsEPKc@PLT
 1135      00
 1136              	.LEHE21:
  38:TestCheckMacros.cpp **** }
 1137              		.loc 6 38 1 is_stmt 1
 1138 0477 E9070100 		jmp	.L54
 1138      00
 1139              	.L49:
 1140 047c F30F1EFA 		endbr64
 1141              	.LBB13:
  33:TestCheckMacros.cpp ****         failure = (testResults.GetFailureCount() > 0);
 1142              		.loc 6 33 9
 1143 0480 4889C7   		movq	%rax, %rdi
 1144 0483 E8000000 		call	__cxa_begin_catch@PLT
 1144      00
 1145              	.LEHB22:
 1146 0488 E8000000 		call	_ZN8UnitTest11CurrentTest7ResultsEv@PLT
 1146      00
  33:TestCheckMacros.cpp ****         failure = (testResults.GetFailureCount() > 0);
 1147              		.loc 6 33 9 is_stmt 0 discriminator 6
 1148 048d 488B18   		movq	(%rax), %rbx
 1149 0490 E8000000 		call	_ZN8UnitTest11CurrentTest7DetailsEv@PLT
 1149      00
  33:TestCheckMacros.cpp ****         failure = (testResults.GetFailureCount() > 0);
 1150              		.loc 6 33 9 discriminator 12
 1151 0495 488B08   		movq	(%rax), %rcx
 1152 0498 488D8590 		leaq	-2160(%rbp), %rax
 1152      F7FFFF
 1153 049f BA210000 		movl	$33, %edx
 1153      00
 1154 04a4 4889CE   		movq	%rcx, %rsi
 1155 04a7 4889C7   		movq	%rax, %rdi
 1156 04aa E8000000 		call	_ZN8UnitTest11TestDetailsC1ERKS0_i@PLT
 1156      00
  33:TestCheckMacros.cpp ****         failure = (testResults.GetFailureCount() > 0);
 1157              		.loc 6 33 9 discriminator 16
 1158 04af 488D8590 		leaq	-2160(%rbp), %rax
 1158      F7FFFF
 1159 04b6 488D1500 		leaq	.LC11(%rip), %rdx
 1159      000000
 1160 04bd 4889C6   		movq	%rax, %rsi
 1161 04c0 4889DF   		movq	%rbx, %rdi
 1162 04c3 E8000000 		call	_ZN8UnitTest11TestResults13OnTestFailureERKNS_11TestDetailsEPKc@PLT
 1162      00
 1163              	.LEHE22:
 1164              	.LEHB23:
  33:TestCheckMacros.cpp ****         failure = (testResults.GetFailureCount() > 0);
 1165              		.loc 6 33 9 discriminator 18
 1166 04c8 E8000000 		call	__cxa_end_catch@PLT
 1166      00
 1167              	.LEHE23:
  33:TestCheckMacros.cpp ****         failure = (testResults.GetFailureCount() > 0);
 1168              		.loc 6 33 9
 1169 04cd E914FFFF 		jmp	.L39
 1169      FF
 1170              	.L51:
 1171 04d2 F30F1EFA 		endbr64
 1172 04d6 4889C3   		movq	%rax, %rbx
 1173 04d9 E8000000 		call	__cxa_end_catch@PLT
 1173      00
 1174 04de EB07     		jmp	.L43
 1175              	.L50:
 1176 04e0 F30F1EFA 		endbr64
  35:TestCheckMacros.cpp **** 
 1177              		.loc 6 35 5 is_stmt 1
 1178 04e4 4889C3   		movq	%rax, %rbx
 1179              	.L43:
 1180 04e7 488D8560 		leaq	-2208(%rbp), %rax
 1180      F7FFFF
 1181 04ee 4889C7   		movq	%rax, %rdi
 1182 04f1 E8000000 		call	_ZN17ScopedCurrentTestD1Ev
 1182      00
 1183 04f6 EB07     		jmp	.L44
 1184              	.L48:
 1185 04f8 F30F1EFA 		endbr64
 1186 04fc 4889C3   		movq	%rax, %rbx
 1187              	.L44:
  35:TestCheckMacros.cpp **** 
 1188              		.loc 6 35 5 is_stmt 0 discriminator 1
 1189 04ff 488D85B0 		leaq	-2128(%rbp), %rax
 1189      F7FFFF
 1190 0506 4889C7   		movq	%rax, %rdi
 1191 0509 E8000000 		call	_ZN17RecordingReporterD1Ev
 1191      00
 1192 050e 4889D8   		movq	%rbx, %rax
 1193 0511 4889C7   		movq	%rax, %rdi
 1194              	.LEHB24:
 1195 0514 E8000000 		call	_Unwind_Resume@PLT
 1195      00
 1196              	.LEHE24:
 1197              	.L52:
 1198 0519 F30F1EFA 		endbr64
 1199              	.LBE13:
  37:TestCheckMacros.cpp **** }
 1200              		.loc 6 37 5 is_stmt 1
 1201 051d 4889C7   		movq	%rax, %rdi
 1202 0520 E8000000 		call	__cxa_begin_catch@PLT
 1202      00
 1203              	.LEHB25:
 1204 0525 E8000000 		call	_ZN8UnitTest11CurrentTest7ResultsEv@PLT
 1204      00
  37:TestCheckMacros.cpp **** }
 1205              		.loc 6 37 5 is_stmt 0 discriminator 6
 1206 052a 488B18   		movq	(%rax), %rbx
 1207 052d E8000000 		call	_ZN8UnitTest11CurrentTest7DetailsEv@PLT
 1207      00
  37:TestCheckMacros.cpp **** }
 1208              		.loc 6 37 5 discriminator 12
 1209 0532 488B08   		movq	(%rax), %rcx
 1210 0535 488D8590 		leaq	-2160(%rbp), %rax
 1210      F7FFFF
 1211 053c BA250000 		movl	$37, %edx
 1211      00
 1212 0541 4889CE   		movq	%rcx, %rsi
 1213 0544 4889C7   		movq	%rax, %rdi
 1214 0547 E8000000 		call	_ZN8UnitTest11TestDetailsC1ERKS0_i@PLT
 1214      00
  37:TestCheckMacros.cpp **** }
 1215              		.loc 6 37 5 discriminator 16
 1216 054c 488D8590 		leaq	-2160(%rbp), %rax
 1216      F7FFFF
 1217 0553 488D1500 		leaq	.LC12(%rip), %rdx
 1217      000000
 1218 055a 4889C6   		movq	%rax, %rsi
 1219 055d 4889DF   		movq	%rbx, %rdi
 1220 0560 E8000000 		call	_ZN8UnitTest11TestResults13OnTestFailureERKNS_11TestDetailsEPKc@PLT
 1220      00
 1221              	.LEHE25:
 1222              	.LEHB26:
  37:TestCheckMacros.cpp **** }
 1223              		.loc 6 37 5 discriminator 18
 1224 0565 E8000000 		call	__cxa_end_catch@PLT
 1224      00
 1225              	.LEHE26:
 1226              		.loc 6 38 1 is_stmt 1 discriminator 18
 1227 056a EB17     		jmp	.L54
 1228              	.L53:
 1229 056c F30F1EFA 		endbr64
  37:TestCheckMacros.cpp **** }
 1230              		.loc 6 37 5
 1231 0570 4889C3   		movq	%rax, %rbx
 1232 0573 E8000000 		call	__cxa_end_catch@PLT
 1232      00
 1233 0578 4889D8   		movq	%rbx, %rax
 1234 057b 4889C7   		movq	%rax, %rdi
 1235              	.LEHB27:
 1236 057e E8000000 		call	_Unwind_Resume@PLT
 1236      00
 1237              	.LEHE27:
 1238              	.L54:
 1239              		.loc 6 38 1
 1240 0583 90       		nop
 1241 0584 488B45E8 		movq	-24(%rbp), %rax
 1242 0588 64482B04 		subq	%fs:40, %rax
 1242      25280000 
 1242      00
 1243 0591 7405     		je	.L47
 1244 0593 E8000000 		call	__stack_chk_fail@PLT
 1244      00
 1245              	.L47:
 1246 0598 488B5DF8 		movq	-8(%rbp), %rbx
 1247 059c C9       		leave
 1248              		.cfi_def_cfa 7, 8
 1249 059d C3       		ret
 1250              		.cfi_endproc
 1251              	.LFE1167:
 1252              		.section	.gcc_except_table
 1253              		.align 4
 1254              	.LLSDA1167:
 1255 0050 FF       		.byte	0xff
 1256 0051 9B       		.byte	0x9b
 1257 0052 4D       		.uleb128 .LLSDATT1167-.LLSDATTD1167
 1258              	.LLSDATTD1167:
 1259 0053 01       		.byte	0x1
 1260 0054 43       		.uleb128 .LLSDACSE1167-.LLSDACSB1167
 1261              	.LLSDACSB1167:
 1262 0055 50       		.uleb128 .LEHB16-.LFB1167
 1263 0056 23       		.uleb128 .LEHE16-.LEHB16
 1264 0057 D603     		.uleb128 .L48-.LFB1167
 1265 0059 00       		.uleb128 0
 1266 005a 8401     		.uleb128 .LEHB17-.LFB1167
 1267 005c 40       		.uleb128 .LEHE17-.LEHB17
 1268 005d DA02     		.uleb128 .L49-.LFB1167
 1269 005f 01       		.uleb128 0x1
 1270 0060 CE01     		.uleb128 .LEHB18-.LFB1167
 1271 0062 05       		.uleb128 .LEHE18-.LEHB18
 1272 0063 BE03     		.uleb128 .L50-.LFB1167
 1273 0065 00       		.uleb128 0
 1274 0066 E801     		.uleb128 .LEHB19-.LFB1167
 1275 0068 05       		.uleb128 .LEHE19-.LEHB19
 1276 0069 D603     		.uleb128 .L48-.LFB1167
 1277 006b 00       		.uleb128 0
 1278 006c F701     		.uleb128 .LEHB20-.LFB1167
 1279 006e 05       		.uleb128 .LEHE20-.LEHB20
 1280 006f 00       		.uleb128 0
 1281 0070 00       		.uleb128 0
 1282 0071 9502     		.uleb128 .LEHB21-.LFB1167
 1283 0073 40       		.uleb128 .LEHE21-.LEHB21
 1284 0074 F703     		.uleb128 .L52-.LFB1167
 1285 0076 01       		.uleb128 0x1
 1286 0077 E602     		.uleb128 .LEHB22-.LFB1167
 1287 0079 40       		.uleb128 .LEHE22-.LEHB22
 1288 007a B003     		.uleb128 .L51-.LFB1167
 1289 007c 00       		.uleb128 0
 1290 007d A603     		.uleb128 .LEHB23-.LFB1167
 1291 007f 05       		.uleb128 .LEHE23-.LEHB23
 1292 0080 BE03     		.uleb128 .L50-.LFB1167
 1293 0082 00       		.uleb128 0
 1294 0083 F203     		.uleb128 .LEHB24-.LFB1167
 1295 0085 05       		.uleb128 .LEHE24-.LEHB24
 1296 0086 00       		.uleb128 0
 1297 0087 00       		.uleb128 0
 1298 0088 8304     		.uleb128 .LEHB25-.LFB1167
 1299 008a 40       		.uleb128 .LEHE25-.LEHB25
 1300 008b CA04     		.uleb128 .L53-.LFB1167
 1301 008d 00       		.uleb128 0
 1302 008e C304     		.uleb128 .LEHB26-.LFB1167
 1303 0090 05       		.uleb128 .LEHE26-.LEHB26
 1304 0091 00       		.uleb128 0
 1305 0092 00       		.uleb128 0
 1306 0093 DC04     		.uleb128 .LEHB27-.LFB1167
 1307 0095 05       		.uleb128 .LEHE27-.LEHB27
 1308 0096 00       		.uleb128 0
 1309 0097 00       		.uleb128 0
 1310              	.LLSDACSE1167:
 1311 0098 01       		.byte	0x1
 1312 0099 00       		.byte	0
 1313 009a 0000     		.align 4
 1314 009c 00000000 		.long	0
 1315              	
 1316              	.LLSDATT1167:
 1317              		.text
 1319              		.section	.rodata
 1320              	.LC13:
 1321 0106 4661696C 		.string	"FailureReportsCorrectTestName"
 1321      75726552 
 1321      65706F72 
 1321      7473436F 
 1321      72726563 
 1322              		.text
 1323              		.align 2
 1325              	_ZN12_GLOBAL__N_133TestFailureReportsCorrectTestNameC2Ev:
 1326              	.LFB1169:
  39:TestCheckMacros.cpp **** 
  40:TestCheckMacros.cpp **** TEST(FailureReportsCorrectTestName)
 1327              		.loc 6 40 1
 1328              		.cfi_startproc
 1329 059e 55       		pushq	%rbp
 1330              		.cfi_def_cfa_offset 16
 1331              		.cfi_offset 6, -16
 1332 059f 4889E5   		movq	%rsp, %rbp
 1333              		.cfi_def_cfa_register 6
 1334 05a2 53       		pushq	%rbx
 1335 05a3 4883EC18 		subq	$24, %rsp
 1336              		.cfi_offset 3, -24
 1337 05a7 48897DE8 		movq	%rdi, -24(%rbp)
 1338              	.LBB14:
 1339              		.loc 6 40 1
 1340 05ab 488B5DE8 		movq	-24(%rbp), %rbx
 1341 05af E8000000 		call	_ZN13UnitTestSuite12GetSuiteNameEv
 1341      00
 1342 05b4 4889C2   		movq	%rax, %rdx
 1343 05b7 41B82800 		movl	$40, %r8d
 1343      0000
 1344 05bd 488D0500 		leaq	.LC2(%rip), %rax
 1344      000000
 1345 05c4 4889C1   		movq	%rax, %rcx
 1346 05c7 488D0500 		leaq	.LC13(%rip), %rax
 1346      000000
 1347 05ce 4889C6   		movq	%rax, %rsi
 1348 05d1 4889DF   		movq	%rbx, %rdi
 1349 05d4 E8000000 		call	_ZN8UnitTest4TestC2EPKcS2_S2_i@PLT
 1349      00
 1350 05d9 488D1500 		leaq	16+_ZTVN12_GLOBAL__N_133TestFailureReportsCorrectTestNameE(%rip), %rdx
 1350      000000
 1351 05e0 488B45E8 		movq	-24(%rbp), %rax
 1352 05e4 488910   		movq	%rdx, (%rax)
 1353              	.LBE14:
 1354 05e7 90       		nop
 1355 05e8 488B5DF8 		movq	-8(%rbp), %rbx
 1356 05ec C9       		leave
 1357              		.cfi_def_cfa 7, 8
 1358 05ed C3       		ret
 1359              		.cfi_endproc
 1360              	.LFE1169:
 1362              		.set	_ZN12_GLOBAL__N_133TestFailureReportsCorrectTestNameC1Ev,_ZN12_GLOBAL__N_133TestFailureReport
 1363              		.local	_ZN12_GLOBAL__N_141testFailureReportsCorrectTestNameInstanceE
 1364              		.comm	_ZN12_GLOBAL__N_141testFailureReportsCorrectTestNameInstanceE,56,32
 1365              		.local	_ZN12_GLOBAL__N_134adderFailureReportsCorrectTestNameE
 1366              		.comm	_ZN12_GLOBAL__N_134adderFailureReportsCorrectTestNameE,1,1
 1367              		.section	.rodata
 1368 0124 00000000 		.align 8
 1369              	.LC14:
 1370 0128 556E6861 		.string	"Unhandled exception in CHECK_EQUAL(m_details.testName, reporter.lastFailedTest)"
 1370      6E646C65 
 1370      64206578 
 1370      63657074 
 1370      696F6E20 
 1371              		.text
 1372              		.align 2
 1374              	_ZNK12_GLOBAL__N_133TestFailureReportsCorrectTestName7RunImplEv:
 1375              	.LFB1171:
  41:TestCheckMacros.cpp **** {
 1376              		.loc 6 41 1
 1377              		.cfi_startproc
 1378              		.cfi_personality 0x9b,DW.ref.__gxx_personality_v0
 1379              		.cfi_lsda 0x1b,.LLSDA1171
 1380 05ee F30F1EFA 		endbr64
 1381 05f2 55       		pushq	%rbp
 1382              		.cfi_def_cfa_offset 16
 1383              		.cfi_offset 6, -16
 1384 05f3 4889E5   		movq	%rsp, %rbp
 1385              		.cfi_def_cfa_register 6
 1386 05f6 53       		pushq	%rbx
 1387 05f7 4881ECA8 		subq	$2216, %rsp
 1387      080000
 1388              		.cfi_offset 3, -24
 1389 05fe 4889BD58 		movq	%rdi, -2216(%rbp)
 1389      F7FFFF
 1390              		.loc 6 41 1
 1391 0605 64488B04 		movq	%fs:40, %rax
 1391      25280000 
 1391      00
 1392 060e 488945E8 		movq	%rax, -24(%rbp)
 1393 0612 31C0     		xorl	%eax, %eax
  42:TestCheckMacros.cpp ****     RecordingReporter reporter;
 1394              		.loc 6 42 23
 1395 0614 488D85B0 		leaq	-2128(%rbp), %rax
 1395      F7FFFF
 1396 061b 4889C7   		movq	%rax, %rdi
 1397 061e E8000000 		call	_ZN17RecordingReporterC1Ev
 1397      00
 1398              	.LBB15:
  43:TestCheckMacros.cpp ****     {
  44:TestCheckMacros.cpp ****         UnitTest::TestResults testResults(&reporter);
 1399              		.loc 6 44 52
 1400 0623 488D95B0 		leaq	-2128(%rbp), %rdx
 1400      F7FFFF
 1401 062a 488D8570 		leaq	-2192(%rbp), %rax
 1401      F7FFFF
 1402 0631 4889D6   		movq	%rdx, %rsi
 1403 0634 4889C7   		movq	%rax, %rdi
 1404              	.LEHB28:
 1405 0637 E8000000 		call	_ZN8UnitTest11TestResultsC1EPNS_12TestReporterE@PLT
 1405      00
  45:TestCheckMacros.cpp **** 		ScopedCurrentTest scopedResults(testResults);
 1406              		.loc 6 45 46
 1407 063c 488D8D70 		leaq	-2192(%rbp), %rcx
 1407      F7FFFF
 1408 0643 488D8560 		leaq	-2208(%rbp), %rax
 1408      F7FFFF
 1409 064a BA000000 		movl	$0, %edx
 1409      00
 1410 064f 4889CE   		movq	%rcx, %rsi
 1411 0652 4889C7   		movq	%rax, %rdi
 1412 0655 E8000000 		call	_ZN17ScopedCurrentTestC1ERN8UnitTest11TestResultsEPKNS0_11TestDetailsE
 1412      00
 1413              	.LEHE28:
  46:TestCheckMacros.cpp ****         CHECK(false);
 1414              		.loc 6 46 9
 1415 065a BF000000 		movl	$0, %edi
 1415      00
 1416 065f E8000000 		call	_ZN8UnitTest5CheckIbEEbT_
 1416      00
 1417 0664 83F001   		xorl	$1, %eax
 1418 0667 84C0     		testb	%al, %al
 1419 0669 7440     		je	.L57
 1420              	.LEHB29:
 1421              		.loc 6 46 9 is_stmt 0 discriminator 1
 1422 066b E8000000 		call	_ZN8UnitTest11CurrentTest7ResultsEv@PLT
 1422      00
 1423 0670 488B18   		movq	(%rax), %rbx
 1424 0673 E8000000 		call	_ZN8UnitTest11CurrentTest7DetailsEv@PLT
 1424      00
 1425              		.loc 6 46 9 discriminator 3
 1426 0678 488B08   		movq	(%rax), %rcx
 1427 067b 488D8590 		leaq	-2160(%rbp), %rax
 1427      F7FFFF
 1428 0682 BA2E0000 		movl	$46, %edx
 1428      00
 1429 0687 4889CE   		movq	%rcx, %rsi
 1430 068a 4889C7   		movq	%rax, %rdi
 1431 068d E8000000 		call	_ZN8UnitTest11TestDetailsC1ERKS0_i@PLT
 1431      00
 1432              		.loc 6 46 9 discriminator 7
 1433 0692 488D8590 		leaq	-2160(%rbp), %rax
 1433      F7FFFF
 1434 0699 488D1500 		leaq	.LC9(%rip), %rdx
 1434      000000
 1435 06a0 4889C6   		movq	%rax, %rsi
 1436 06a3 4889DF   		movq	%rbx, %rdi
 1437 06a6 E8000000 		call	_ZN8UnitTest11TestResults13OnTestFailureERKNS_11TestDetailsEPKc@PLT
 1437      00
 1438              	.LEHE29:
 1439              	.L57:
  47:TestCheckMacros.cpp ****     }
 1440              		.loc 6 47 5 is_stmt 1
 1441 06ab 488D8560 		leaq	-2208(%rbp), %rax
 1441      F7FFFF
 1442 06b2 4889C7   		movq	%rax, %rdi
 1443              	.LEHB30:
 1444 06b5 E8000000 		call	_ZN17ScopedCurrentTestD1Ev
 1444      00
 1445              	.LEHE30:
 1446              	.LEHB31:
 1447              	.LBE15:
  48:TestCheckMacros.cpp **** 
  49:TestCheckMacros.cpp ****     CHECK_EQUAL(m_details.testName, reporter.lastFailedTest);
 1448              		.loc 6 49 5
 1449 06ba E8000000 		call	_ZN8UnitTest11CurrentTest7DetailsEv@PLT
 1449      00
 1450 06bf 488B08   		movq	(%rax), %rcx
 1451 06c2 488D8590 		leaq	-2160(%rbp), %rax
 1451      F7FFFF
 1452 06c9 BA310000 		movl	$49, %edx
 1452      00
 1453 06ce 4889CE   		movq	%rcx, %rsi
 1454 06d1 4889C7   		movq	%rax, %rdi
 1455 06d4 E8000000 		call	_ZN8UnitTest11TestDetailsC1ERKS0_i@PLT
 1455      00
 1456              		.loc 6 49 5 is_stmt 0 discriminator 4
 1457 06d9 488B8558 		movq	-2216(%rbp), %rax
 1457      F7FFFF
 1458 06e0 488B5810 		movq	16(%rax), %rbx
 1459 06e4 E8000000 		call	_ZN8UnitTest11CurrentTest7ResultsEv@PLT
 1459      00
 1460 06e9 488B00   		movq	(%rax), %rax
 1461 06ec 488D9590 		leaq	-2160(%rbp), %rdx
 1461      F7FFFF
 1462 06f3 488D8DB0 		leaq	-2128(%rbp), %rcx
 1462      F7FFFF
 1463 06fa 488DB114 		leaq	1044(%rcx), %rsi
 1463      040000
 1464 0701 4889D1   		movq	%rdx, %rcx
 1465 0704 4889F2   		movq	%rsi, %rdx
 1466 0707 4889DE   		movq	%rbx, %rsi
 1467 070a 4889C7   		movq	%rax, %rdi
 1468 070d E8000000 		call	_ZN8UnitTest10CheckEqualERNS_11TestResultsEPKcPcRKNS_11TestDetailsE@PLT
 1468      00
 1469              	.LEHE31:
 1470              	.L63:
  50:TestCheckMacros.cpp **** }
 1471              		.loc 6 50 1 is_stmt 1
 1472 0712 488D85B0 		leaq	-2128(%rbp), %rax
 1472      F7FFFF
 1473 0719 4889C7   		movq	%rax, %rdi
 1474              	.LEHB32:
 1475 071c E8000000 		call	_ZN17RecordingReporterD1Ev
 1475      00
 1476              	.LEHE32:
 1477 0721 488B45E8 		movq	-24(%rbp), %rax
 1478 0725 64482B04 		subq	%fs:40, %rax
 1478      25280000 
 1478      00
 1479 072e 0F840B01 		je	.L65
 1479      0000
 1480 0734 E9010100 		jmp	.L72
 1480      00
 1481              	.L66:
 1482 0739 F30F1EFA 		endbr64
 1483              	.LBB16:
  46:TestCheckMacros.cpp ****     }
 1484              		.loc 6 46 9
 1485 073d 4889C7   		movq	%rax, %rdi
 1486 0740 E8000000 		call	__cxa_begin_catch@PLT
 1486      00
 1487              	.LEHB33:
 1488 0745 E8000000 		call	_ZN8UnitTest11CurrentTest7ResultsEv@PLT
 1488      00
  46:TestCheckMacros.cpp ****     }
 1489              		.loc 6 46 9 is_stmt 0 discriminator 6
 1490 074a 488B18   		movq	(%rax), %rbx
 1491 074d E8000000 		call	_ZN8UnitTest11CurrentTest7DetailsEv@PLT
 1491      00
  46:TestCheckMacros.cpp ****     }
 1492              		.loc 6 46 9 discriminator 12
 1493 0752 488B08   		movq	(%rax), %rcx
 1494 0755 488D8590 		leaq	-2160(%rbp), %rax
 1494      F7FFFF
 1495 075c BA2E0000 		movl	$46, %edx
 1495      00
 1496 0761 4889CE   		movq	%rcx, %rsi
 1497 0764 4889C7   		movq	%rax, %rdi
 1498 0767 E8000000 		call	_ZN8UnitTest11TestDetailsC1ERKS0_i@PLT
 1498      00
  46:TestCheckMacros.cpp ****     }
 1499              		.loc 6 46 9 discriminator 16
 1500 076c 488D8590 		leaq	-2160(%rbp), %rax
 1500      F7FFFF
 1501 0773 488D1500 		leaq	.LC11(%rip), %rdx
 1501      000000
 1502 077a 4889C6   		movq	%rax, %rsi
 1503 077d 4889DF   		movq	%rbx, %rdi
 1504 0780 E8000000 		call	_ZN8UnitTest11TestResults13OnTestFailureERKNS_11TestDetailsEPKc@PLT
 1504      00
 1505              	.LEHE33:
 1506              	.LEHB34:
  46:TestCheckMacros.cpp ****     }
 1507              		.loc 6 46 9 discriminator 18
 1508 0785 E8000000 		call	__cxa_end_catch@PLT
 1508      00
 1509              	.LEHE34:
  46:TestCheckMacros.cpp ****     }
 1510              		.loc 6 46 9
 1511 078a E91CFFFF 		jmp	.L57
 1511      FF
 1512              	.L68:
 1513 078f F30F1EFA 		endbr64
 1514 0793 4889C3   		movq	%rax, %rbx
 1515 0796 E8000000 		call	__cxa_end_catch@PLT
 1515      00
 1516 079b EB07     		jmp	.L60
 1517              	.L67:
 1518 079d F30F1EFA 		endbr64
  47:TestCheckMacros.cpp **** 
 1519              		.loc 6 47 5 is_stmt 1
 1520 07a1 4889C3   		movq	%rax, %rbx
 1521              	.L60:
 1522 07a4 488D8560 		leaq	-2208(%rbp), %rax
 1522      F7FFFF
 1523 07ab 4889C7   		movq	%rax, %rdi
 1524 07ae E8000000 		call	_ZN17ScopedCurrentTestD1Ev
 1524      00
 1525 07b3 EB6B     		jmp	.L61
 1526              	.L70:
 1527 07b5 F30F1EFA 		endbr64
 1528              	.LBE16:
  49:TestCheckMacros.cpp **** }
 1529              		.loc 6 49 5
 1530 07b9 4889C7   		movq	%rax, %rdi
 1531 07bc E8000000 		call	__cxa_begin_catch@PLT
 1531      00
 1532              	.LEHB35:
 1533 07c1 E8000000 		call	_ZN8UnitTest11CurrentTest7ResultsEv@PLT
 1533      00
  49:TestCheckMacros.cpp **** }
 1534              		.loc 6 49 5 is_stmt 0 discriminator 3
 1535 07c6 488B18   		movq	(%rax), %rbx
 1536 07c9 E8000000 		call	_ZN8UnitTest11CurrentTest7DetailsEv@PLT
 1536      00
  49:TestCheckMacros.cpp **** }
 1537              		.loc 6 49 5 discriminator 11
 1538 07ce 488B08   		movq	(%rax), %rcx
 1539 07d1 488D8590 		leaq	-2160(%rbp), %rax
 1539      F7FFFF
 1540 07d8 BA310000 		movl	$49, %edx
 1540      00
 1541 07dd 4889CE   		movq	%rcx, %rsi
 1542 07e0 4889C7   		movq	%rax, %rdi
 1543 07e3 E8000000 		call	_ZN8UnitTest11TestDetailsC1ERKS0_i@PLT
 1543      00
  49:TestCheckMacros.cpp **** }
 1544              		.loc 6 49 5 discriminator 15
 1545 07e8 488D8590 		leaq	-2160(%rbp), %rax
 1545      F7FFFF
 1546 07ef 488D1500 		leaq	.LC14(%rip), %rdx
 1546      000000
 1547 07f6 4889C6   		movq	%rax, %rsi
 1548 07f9 4889DF   		movq	%rbx, %rdi
 1549 07fc E8000000 		call	_ZN8UnitTest11TestResults13OnTestFailureERKNS_11TestDetailsEPKc@PLT
 1549      00
 1550              	.LEHE35:
 1551              	.LEHB36:
  49:TestCheckMacros.cpp **** }
 1552              		.loc 6 49 5 discriminator 17
 1553 0801 E8000000 		call	__cxa_end_catch@PLT
 1553      00
 1554              	.LEHE36:
  49:TestCheckMacros.cpp **** }
 1555              		.loc 6 49 5
 1556 0806 E907FFFF 		jmp	.L63
 1556      FF
 1557              	.L71:
 1558 080b F30F1EFA 		endbr64
 1559 080f 4889C3   		movq	%rax, %rbx
 1560 0812 E8000000 		call	__cxa_end_catch@PLT
 1560      00
 1561 0817 EB07     		jmp	.L61
 1562              	.L69:
 1563 0819 F30F1EFA 		endbr64
 1564              		.loc 6 50 1 is_stmt 1
 1565 081d 4889C3   		movq	%rax, %rbx
 1566              	.L61:
 1567 0820 488D85B0 		leaq	-2128(%rbp), %rax
 1567      F7FFFF
 1568 0827 4889C7   		movq	%rax, %rdi
 1569 082a E8000000 		call	_ZN17RecordingReporterD1Ev
 1569      00
 1570 082f 4889D8   		movq	%rbx, %rax
 1571 0832 4889C7   		movq	%rax, %rdi
 1572              	.LEHB37:
 1573 0835 E8000000 		call	_Unwind_Resume@PLT
 1573      00
 1574              	.LEHE37:
 1575              	.L72:
 1576 083a E8000000 		call	__stack_chk_fail@PLT
 1576      00
 1577              	.L65:
 1578 083f 488B5DF8 		movq	-8(%rbp), %rbx
 1579 0843 C9       		leave
 1580              		.cfi_def_cfa 7, 8
 1581 0844 C3       		ret
 1582              		.cfi_endproc
 1583              	.LFE1171:
 1584              		.section	.gcc_except_table
 1585              		.align 4
 1586              	.LLSDA1171:
 1587 00a0 FF       		.byte	0xff
 1588 00a1 9B       		.byte	0x9b
 1589 00a2 41       		.uleb128 .LLSDATT1171-.LLSDATTD1171
 1590              	.LLSDATTD1171:
 1591 00a3 01       		.byte	0x1
 1592 00a4 38       		.uleb128 .LLSDACSE1171-.LLSDACSB1171
 1593              	.LLSDACSB1171:
 1594 00a5 49       		.uleb128 .LEHB28-.LFB1171
 1595 00a6 23       		.uleb128 .LEHE28-.LEHB28
 1596 00a7 AB04     		.uleb128 .L69-.LFB1171
 1597 00a9 00       		.uleb128 0
 1598 00aa 7D       		.uleb128 .LEHB29-.LFB1171
 1599 00ab 40       		.uleb128 .LEHE29-.LEHB29
 1600 00ac CB02     		.uleb128 .L66-.LFB1171
 1601 00ae 01       		.uleb128 0x1
 1602 00af C701     		.uleb128 .LEHB30-.LFB1171
 1603 00b1 05       		.uleb128 .LEHE30-.LEHB30
 1604 00b2 AB04     		.uleb128 .L69-.LFB1171
 1605 00b4 00       		.uleb128 0
 1606 00b5 CC01     		.uleb128 .LEHB31-.LFB1171
 1607 00b7 58       		.uleb128 .LEHE31-.LEHB31
 1608 00b8 C703     		.uleb128 .L70-.LFB1171
 1609 00ba 01       		.uleb128 0x1
 1610 00bb AE02     		.uleb128 .LEHB32-.LFB1171
 1611 00bd 05       		.uleb128 .LEHE32-.LEHB32
 1612 00be 00       		.uleb128 0
 1613 00bf 00       		.uleb128 0
 1614 00c0 D702     		.uleb128 .LEHB33-.LFB1171
 1615 00c2 40       		.uleb128 .LEHE33-.LEHB33
 1616 00c3 A103     		.uleb128 .L68-.LFB1171
 1617 00c5 00       		.uleb128 0
 1618 00c6 9703     		.uleb128 .LEHB34-.LFB1171
 1619 00c8 05       		.uleb128 .LEHE34-.LEHB34
 1620 00c9 AF03     		.uleb128 .L67-.LFB1171
 1621 00cb 00       		.uleb128 0
 1622 00cc D303     		.uleb128 .LEHB35-.LFB1171
 1623 00ce 40       		.uleb128 .LEHE35-.LEHB35
 1624 00cf 9D04     		.uleb128 .L71-.LFB1171
 1625 00d1 00       		.uleb128 0
 1626 00d2 9304     		.uleb128 .LEHB36-.LFB1171
 1627 00d4 05       		.uleb128 .LEHE36-.LEHB36
 1628 00d5 AB04     		.uleb128 .L69-.LFB1171
 1629 00d7 00       		.uleb128 0
 1630 00d8 C704     		.uleb128 .LEHB37-.LFB1171
 1631 00da 05       		.uleb128 .LEHE37-.LEHB37
 1632 00db 00       		.uleb128 0
 1633 00dc 00       		.uleb128 0
 1634              	.LLSDACSE1171:
 1635 00dd 01       		.byte	0x1
 1636 00de 00       		.byte	0
 1637 00df 00       		.align 4
 1638 00e0 00000000 		.long	0
 1639              	
 1640              	.LLSDATT1171:
 1641              		.text
 1643              		.section	.rodata
 1644              		.align 8
 1645              	.LC15:
 1646 0178 43686563 		.string	"CheckFailureIncludesCheckContents"
 1646      6B466169 
 1646      6C757265 
 1646      496E636C 
 1646      75646573 
 1647              		.text
 1648 0845 90       		.align 2
 1650              	_ZN12_GLOBAL__N_137TestCheckFailureIncludesCheckContentsC2Ev:
 1651              	.LFB1173:
  51:TestCheckMacros.cpp **** 
  52:TestCheckMacros.cpp **** TEST(CheckFailureIncludesCheckContents)
 1652              		.loc 6 52 1
 1653              		.cfi_startproc
 1654 0846 55       		pushq	%rbp
 1655              		.cfi_def_cfa_offset 16
 1656              		.cfi_offset 6, -16
 1657 0847 4889E5   		movq	%rsp, %rbp
 1658              		.cfi_def_cfa_register 6
 1659 084a 53       		pushq	%rbx
 1660 084b 4883EC18 		subq	$24, %rsp
 1661              		.cfi_offset 3, -24
 1662 084f 48897DE8 		movq	%rdi, -24(%rbp)
 1663              	.LBB17:
 1664              		.loc 6 52 1
 1665 0853 488B5DE8 		movq	-24(%rbp), %rbx
 1666 0857 E8000000 		call	_ZN13UnitTestSuite12GetSuiteNameEv
 1666      00
 1667 085c 4889C2   		movq	%rax, %rdx
 1668 085f 41B83400 		movl	$52, %r8d
 1668      0000
 1669 0865 488D0500 		leaq	.LC2(%rip), %rax
 1669      000000
 1670 086c 4889C1   		movq	%rax, %rcx
 1671 086f 488D0500 		leaq	.LC15(%rip), %rax
 1671      000000
 1672 0876 4889C6   		movq	%rax, %rsi
 1673 0879 4889DF   		movq	%rbx, %rdi
 1674 087c E8000000 		call	_ZN8UnitTest4TestC2EPKcS2_S2_i@PLT
 1674      00
 1675 0881 488D1500 		leaq	16+_ZTVN12_GLOBAL__N_137TestCheckFailureIncludesCheckContentsE(%rip), %rdx
 1675      000000
 1676 0888 488B45E8 		movq	-24(%rbp), %rax
 1677 088c 488910   		movq	%rdx, (%rax)
 1678              	.LBE17:
 1679 088f 90       		nop
 1680 0890 488B5DF8 		movq	-8(%rbp), %rbx
 1681 0894 C9       		leave
 1682              		.cfi_def_cfa 7, 8
 1683 0895 C3       		ret
 1684              		.cfi_endproc
 1685              	.LFE1173:
 1687              		.set	_ZN12_GLOBAL__N_137TestCheckFailureIncludesCheckContentsC1Ev,_ZN12_GLOBAL__N_137TestCheckFail
 1688              		.local	_ZN12_GLOBAL__N_145testCheckFailureIncludesCheckContentsInstanceE
 1689              		.comm	_ZN12_GLOBAL__N_145testCheckFailureIncludesCheckContentsInstanceE,56,32
 1690              		.local	_ZN12_GLOBAL__N_138adderCheckFailureIncludesCheckContentsE
 1691              		.comm	_ZN12_GLOBAL__N_138adderCheckFailureIncludesCheckContentsE,1,1
 1692              		.section	.rodata
 1693              	.LC16:
 1694 019a 79616464 		.string	"yaddayadda"
 1694      61796164 
 1694      646100
 1695 01a5 000000   		.align 8
 1696              	.LC17:
 1697 01a8 73747273 		.string	"strstr(reporter.lastFailedMessage, \"yaddayadda\")"
 1697      74722872 
 1697      65706F72 
 1697      7465722E 
 1697      6C617374 
 1698 01d9 00000000 		.align 8
 1698      000000
 1699              	.LC18:
 1700 01e0 556E6861 		.string	"Unhandled exception in CHECK(yaddayadda)"
 1700      6E646C65 
 1700      64206578 
 1700      63657074 
 1700      696F6E20 
 1701 0209 00000000 		.align 8
 1701      000000
 1702              	.LC19:
 1703 0210 556E6861 		.string	"Unhandled exception in CHECK(strstr(reporter.lastFailedMessage, \"yaddayadda\"))"
 1703      6E646C65 
 1703      64206578 
 1703      63657074 
 1703      696F6E20 
 1704              		.text
 1705              		.align 2
 1707              	_ZNK12_GLOBAL__N_137TestCheckFailureIncludesCheckContents7RunImplEv:
 1708              	.LFB1175:
  53:TestCheckMacros.cpp **** {
 1709              		.loc 6 53 1
 1710              		.cfi_startproc
 1711              		.cfi_personality 0x9b,DW.ref.__gxx_personality_v0
 1712              		.cfi_lsda 0x1b,.LLSDA1175
 1713 0896 F30F1EFA 		endbr64
 1714 089a 55       		pushq	%rbp
 1715              		.cfi_def_cfa_offset 16
 1716              		.cfi_offset 6, -16
 1717 089b 4889E5   		movq	%rsp, %rbp
 1718              		.cfi_def_cfa_register 6
 1719 089e 53       		pushq	%rbx
 1720 089f 4881ECB8 		subq	$2232, %rsp
 1720      080000
 1721              		.cfi_offset 3, -24
 1722 08a6 4889BD48 		movq	%rdi, -2232(%rbp)
 1722      F7FFFF
 1723              		.loc 6 53 1
 1724 08ad 64488B04 		movq	%fs:40, %rax
 1724      25280000 
 1724      00
 1725 08b6 488945E8 		movq	%rax, -24(%rbp)
 1726 08ba 31C0     		xorl	%eax, %eax
  54:TestCheckMacros.cpp ****     RecordingReporter reporter;
 1727              		.loc 6 54 23
 1728 08bc 488D85B0 		leaq	-2128(%rbp), %rax
 1728      F7FFFF
 1729 08c3 4889C7   		movq	%rax, %rdi
 1730 08c6 E8000000 		call	_ZN17RecordingReporterC1Ev
 1730      00
 1731              	.LBB18:
  55:TestCheckMacros.cpp ****     {
  56:TestCheckMacros.cpp ****         UnitTest::TestResults testResults(&reporter);
 1732              		.loc 6 56 52
 1733 08cb 488D95B0 		leaq	-2128(%rbp), %rdx
 1733      F7FFFF
 1734 08d2 488D8570 		leaq	-2192(%rbp), %rax
 1734      F7FFFF
 1735 08d9 4889D6   		movq	%rdx, %rsi
 1736 08dc 4889C7   		movq	%rax, %rdi
 1737              	.LEHB38:
 1738 08df E8000000 		call	_ZN8UnitTest11TestResultsC1EPNS_12TestReporterE@PLT
 1738      00
  57:TestCheckMacros.cpp **** 		ScopedCurrentTest scopedResults(testResults);
 1739              		.loc 6 57 46
 1740 08e4 488D8D70 		leaq	-2192(%rbp), %rcx
 1740      F7FFFF
 1741 08eb 488D8560 		leaq	-2208(%rbp), %rax
 1741      F7FFFF
 1742 08f2 BA000000 		movl	$0, %edx
 1742      00
 1743 08f7 4889CE   		movq	%rcx, %rsi
 1744 08fa 4889C7   		movq	%rax, %rdi
 1745 08fd E8000000 		call	_ZN17ScopedCurrentTestC1ERN8UnitTest11TestResultsEPKNS0_11TestDetailsE
 1745      00
 1746              	.LEHE38:
  58:TestCheckMacros.cpp ****         const bool yaddayadda = false;
 1747              		.loc 6 58 20
 1748 0902 C6855FF7 		movb	$0, -2209(%rbp)
 1748      FFFF00
  59:TestCheckMacros.cpp ****         CHECK(yaddayadda);
 1749              		.loc 6 59 9
 1750 0909 BF000000 		movl	$0, %edi
 1750      00
 1751 090e E8000000 		call	_ZN8UnitTest5CheckIbEEbT_
 1751      00
 1752 0913 83F001   		xorl	$1, %eax
 1753 0916 84C0     		testb	%al, %al
 1754 0918 7440     		je	.L75
 1755              	.LEHB39:
 1756              		.loc 6 59 9 is_stmt 0 discriminator 1
 1757 091a E8000000 		call	_ZN8UnitTest11CurrentTest7ResultsEv@PLT
 1757      00
 1758 091f 488B18   		movq	(%rax), %rbx
 1759 0922 E8000000 		call	_ZN8UnitTest11CurrentTest7DetailsEv@PLT
 1759      00
 1760              		.loc 6 59 9 discriminator 3
 1761 0927 488B08   		movq	(%rax), %rcx
 1762 092a 488D8590 		leaq	-2160(%rbp), %rax
 1762      F7FFFF
 1763 0931 BA3B0000 		movl	$59, %edx
 1763      00
 1764 0936 4889CE   		movq	%rcx, %rsi
 1765 0939 4889C7   		movq	%rax, %rdi
 1766 093c E8000000 		call	_ZN8UnitTest11TestDetailsC1ERKS0_i@PLT
 1766      00
 1767              		.loc 6 59 9 discriminator 7
 1768 0941 488D8590 		leaq	-2160(%rbp), %rax
 1768      F7FFFF
 1769 0948 488D1500 		leaq	.LC16(%rip), %rdx
 1769      000000
 1770 094f 4889C6   		movq	%rax, %rsi
 1771 0952 4889DF   		movq	%rbx, %rdi
 1772 0955 E8000000 		call	_ZN8UnitTest11TestResults13OnTestFailureERKNS_11TestDetailsEPKc@PLT
 1772      00
 1773              	.LEHE39:
 1774              	.L75:
  60:TestCheckMacros.cpp ****     }
 1775              		.loc 6 60 5 is_stmt 1
 1776 095a 488D8560 		leaq	-2208(%rbp), %rax
 1776      F7FFFF
 1777 0961 4889C7   		movq	%rax, %rdi
 1778              	.LEHB40:
 1779 0964 E8000000 		call	_ZN17ScopedCurrentTestD1Ev
 1779      00
 1780              	.LEHE40:
 1781              	.LBE18:
  61:TestCheckMacros.cpp **** 
  62:TestCheckMacros.cpp ****     CHECK(strstr(reporter.lastFailedMessage, "yaddayadda"));
 1782              		.loc 6 62 5
 1783 0969 488D85B0 		leaq	-2128(%rbp), %rax
 1783      F7FFFF
 1784 0970 48051405 		addq	$1300, %rax
 1784      0000
 1785 0976 488D1500 		leaq	.LC16(%rip), %rdx
 1785      000000
 1786 097d 4889D6   		movq	%rdx, %rsi
 1787 0980 4889C7   		movq	%rax, %rdi
 1788 0983 E8000000 		call	strstr@PLT
 1788      00
 1789 0988 4889C7   		movq	%rax, %rdi
 1790 098b E8000000 		call	_ZN8UnitTest5CheckIPcEEbT_
 1790      00
 1791 0990 83F001   		xorl	$1, %eax
 1792 0993 84C0     		testb	%al, %al
 1793 0995 7440     		je	.L76
 1794              	.LEHB41:
 1795              		.loc 6 62 5 is_stmt 0 discriminator 1
 1796 0997 E8000000 		call	_ZN8UnitTest11CurrentTest7ResultsEv@PLT
 1796      00
 1797 099c 488B18   		movq	(%rax), %rbx
 1798 099f E8000000 		call	_ZN8UnitTest11CurrentTest7DetailsEv@PLT
 1798      00
 1799              		.loc 6 62 5 discriminator 3
 1800 09a4 488B08   		movq	(%rax), %rcx
 1801 09a7 488D8590 		leaq	-2160(%rbp), %rax
 1801      F7FFFF
 1802 09ae BA3E0000 		movl	$62, %edx
 1802      00
 1803 09b3 4889CE   		movq	%rcx, %rsi
 1804 09b6 4889C7   		movq	%rax, %rdi
 1805 09b9 E8000000 		call	_ZN8UnitTest11TestDetailsC1ERKS0_i@PLT
 1805      00
 1806              		.loc 6 62 5 discriminator 7
 1807 09be 488D8590 		leaq	-2160(%rbp), %rax
 1807      F7FFFF
 1808 09c5 488D1500 		leaq	.LC17(%rip), %rdx
 1808      000000
 1809 09cc 4889C6   		movq	%rax, %rsi
 1810 09cf 4889DF   		movq	%rbx, %rdi
 1811 09d2 E8000000 		call	_ZN8UnitTest11TestResults13OnTestFailureERKNS_11TestDetailsEPKc@PLT
 1811      00
 1812              	.LEHE41:
 1813              	.L76:
  63:TestCheckMacros.cpp **** }
 1814              		.loc 6 63 1 is_stmt 1
 1815 09d7 488D85B0 		leaq	-2128(%rbp), %rax
 1815      F7FFFF
 1816 09de 4889C7   		movq	%rax, %rdi
 1817              	.LEHB42:
 1818 09e1 E8000000 		call	_ZN17RecordingReporterD1Ev
 1818      00
 1819              	.LEHE42:
 1820 09e6 488B45E8 		movq	-24(%rbp), %rax
 1821 09ea 64482B04 		subq	%fs:40, %rax
 1821      25280000 
 1821      00
 1822 09f3 0F840B01 		je	.L83
 1822      0000
 1823 09f9 E9010100 		jmp	.L90
 1823      00
 1824              	.L84:
 1825 09fe F30F1EFA 		endbr64
 1826              	.LBB19:
  59:TestCheckMacros.cpp ****     }
 1827              		.loc 6 59 9
 1828 0a02 4889C7   		movq	%rax, %rdi
 1829 0a05 E8000000 		call	__cxa_begin_catch@PLT
 1829      00
 1830              	.LEHB43:
 1831 0a0a E8000000 		call	_ZN8UnitTest11CurrentTest7ResultsEv@PLT
 1831      00
  59:TestCheckMacros.cpp ****     }
 1832              		.loc 6 59 9 is_stmt 0 discriminator 6
 1833 0a0f 488B18   		movq	(%rax), %rbx
 1834 0a12 E8000000 		call	_ZN8UnitTest11CurrentTest7DetailsEv@PLT
 1834      00
  59:TestCheckMacros.cpp ****     }
 1835              		.loc 6 59 9 discriminator 12
 1836 0a17 488B08   		movq	(%rax), %rcx
 1837 0a1a 488D8590 		leaq	-2160(%rbp), %rax
 1837      F7FFFF
 1838 0a21 BA3B0000 		movl	$59, %edx
 1838      00
 1839 0a26 4889CE   		movq	%rcx, %rsi
 1840 0a29 4889C7   		movq	%rax, %rdi
 1841 0a2c E8000000 		call	_ZN8UnitTest11TestDetailsC1ERKS0_i@PLT
 1841      00
  59:TestCheckMacros.cpp ****     }
 1842              		.loc 6 59 9 discriminator 16
 1843 0a31 488D8590 		leaq	-2160(%rbp), %rax
 1843      F7FFFF
 1844 0a38 488D1500 		leaq	.LC18(%rip), %rdx
 1844      000000
 1845 0a3f 4889C6   		movq	%rax, %rsi
 1846 0a42 4889DF   		movq	%rbx, %rdi
 1847 0a45 E8000000 		call	_ZN8UnitTest11TestResults13OnTestFailureERKNS_11TestDetailsEPKc@PLT
 1847      00
 1848              	.LEHE43:
 1849              	.LEHB44:
  59:TestCheckMacros.cpp ****     }
 1850              		.loc 6 59 9 discriminator 18
 1851 0a4a E8000000 		call	__cxa_end_catch@PLT
 1851      00
 1852              	.LEHE44:
  59:TestCheckMacros.cpp ****     }
 1853              		.loc 6 59 9
 1854 0a4f E906FFFF 		jmp	.L75
 1854      FF
 1855              	.L86:
 1856 0a54 F30F1EFA 		endbr64
 1857 0a58 4889C3   		movq	%rax, %rbx
 1858 0a5b E8000000 		call	__cxa_end_catch@PLT
 1858      00
 1859 0a60 EB07     		jmp	.L79
 1860              	.L85:
 1861 0a62 F30F1EFA 		endbr64
  60:TestCheckMacros.cpp **** 
 1862              		.loc 6 60 5 is_stmt 1
 1863 0a66 4889C3   		movq	%rax, %rbx
 1864              	.L79:
 1865 0a69 488D8560 		leaq	-2208(%rbp), %rax
 1865      F7FFFF
 1866 0a70 4889C7   		movq	%rax, %rdi
 1867 0a73 E8000000 		call	_ZN17ScopedCurrentTestD1Ev
 1867      00
 1868 0a78 EB6B     		jmp	.L80
 1869              	.L88:
 1870 0a7a F30F1EFA 		endbr64
 1871              	.LBE19:
  62:TestCheckMacros.cpp **** }
 1872              		.loc 6 62 5
 1873 0a7e 4889C7   		movq	%rax, %rdi
 1874 0a81 E8000000 		call	__cxa_begin_catch@PLT
 1874      00
 1875              	.LEHB45:
 1876 0a86 E8000000 		call	_ZN8UnitTest11CurrentTest7ResultsEv@PLT
 1876      00
  62:TestCheckMacros.cpp **** }
 1877              		.loc 6 62 5 is_stmt 0 discriminator 6
 1878 0a8b 488B18   		movq	(%rax), %rbx
 1879 0a8e E8000000 		call	_ZN8UnitTest11CurrentTest7DetailsEv@PLT
 1879      00
  62:TestCheckMacros.cpp **** }
 1880              		.loc 6 62 5 discriminator 12
 1881 0a93 488B08   		movq	(%rax), %rcx
 1882 0a96 488D8590 		leaq	-2160(%rbp), %rax
 1882      F7FFFF
 1883 0a9d BA3E0000 		movl	$62, %edx
 1883      00
 1884 0aa2 4889CE   		movq	%rcx, %rsi
 1885 0aa5 4889C7   		movq	%rax, %rdi
 1886 0aa8 E8000000 		call	_ZN8UnitTest11TestDetailsC1ERKS0_i@PLT
 1886      00
  62:TestCheckMacros.cpp **** }
 1887              		.loc 6 62 5 discriminator 16
 1888 0aad 488D8590 		leaq	-2160(%rbp), %rax
 1888      F7FFFF
 1889 0ab4 488D1500 		leaq	.LC19(%rip), %rdx
 1889      000000
 1890 0abb 4889C6   		movq	%rax, %rsi
 1891 0abe 4889DF   		movq	%rbx, %rdi
 1892 0ac1 E8000000 		call	_ZN8UnitTest11TestResults13OnTestFailureERKNS_11TestDetailsEPKc@PLT
 1892      00
 1893              	.LEHE45:
 1894              	.LEHB46:
  62:TestCheckMacros.cpp **** }
 1895              		.loc 6 62 5 discriminator 18
 1896 0ac6 E8000000 		call	__cxa_end_catch@PLT
 1896      00
 1897              	.LEHE46:
  62:TestCheckMacros.cpp **** }
 1898              		.loc 6 62 5
 1899 0acb E907FFFF 		jmp	.L76
 1899      FF
 1900              	.L89:
 1901 0ad0 F30F1EFA 		endbr64
 1902 0ad4 4889C3   		movq	%rax, %rbx
 1903 0ad7 E8000000 		call	__cxa_end_catch@PLT
 1903      00
 1904 0adc EB07     		jmp	.L80
 1905              	.L87:
 1906 0ade F30F1EFA 		endbr64
 1907              		.loc 6 63 1 is_stmt 1
 1908 0ae2 4889C3   		movq	%rax, %rbx
 1909              	.L80:
 1910 0ae5 488D85B0 		leaq	-2128(%rbp), %rax
 1910      F7FFFF
 1911 0aec 4889C7   		movq	%rax, %rdi
 1912 0aef E8000000 		call	_ZN17RecordingReporterD1Ev
 1912      00
 1913 0af4 4889D8   		movq	%rbx, %rax
 1914 0af7 4889C7   		movq	%rax, %rdi
 1915              	.LEHB47:
 1916 0afa E8000000 		call	_Unwind_Resume@PLT
 1916      00
 1917              	.LEHE47:
 1918              	.L90:
 1919 0aff E8000000 		call	__stack_chk_fail@PLT
 1919      00
 1920              	.L83:
 1921 0b04 488B5DF8 		movq	-8(%rbp), %rbx
 1922 0b08 C9       		leave
 1923              		.cfi_def_cfa 7, 8
 1924 0b09 C3       		ret
 1925              		.cfi_endproc
 1926              	.LFE1175:
 1927              		.section	.gcc_except_table
 1928              		.align 4
 1929              	.LLSDA1175:
 1930 00e4 FF       		.byte	0xff
 1931 00e5 9B       		.byte	0x9b
 1932 00e6 41       		.uleb128 .LLSDATT1175-.LLSDATTD1175
 1933              	.LLSDATTD1175:
 1934 00e7 01       		.byte	0x1
 1935 00e8 39       		.uleb128 .LLSDACSE1175-.LLSDACSB1175
 1936              	.LLSDACSB1175:
 1937 00e9 49       		.uleb128 .LEHB38-.LFB1175
 1938 00ea 23       		.uleb128 .LEHE38-.LEHB38
 1939 00eb C804     		.uleb128 .L87-.LFB1175
 1940 00ed 00       		.uleb128 0
 1941 00ee 8401     		.uleb128 .LEHB39-.LFB1175
 1942 00f0 40       		.uleb128 .LEHE39-.LEHB39
 1943 00f1 E802     		.uleb128 .L84-.LFB1175
 1944 00f3 01       		.uleb128 0x1
 1945 00f4 CE01     		.uleb128 .LEHB40-.LFB1175
 1946 00f6 05       		.uleb128 .LEHE40-.LEHB40
 1947 00f7 C804     		.uleb128 .L87-.LFB1175
 1948 00f9 00       		.uleb128 0
 1949 00fa 8102     		.uleb128 .LEHB41-.LFB1175
 1950 00fc 40       		.uleb128 .LEHE41-.LEHB41
 1951 00fd E403     		.uleb128 .L88-.LFB1175
 1952 00ff 01       		.uleb128 0x1
 1953 0100 CB02     		.uleb128 .LEHB42-.LFB1175
 1954 0102 05       		.uleb128 .LEHE42-.LEHB42
 1955 0103 00       		.uleb128 0
 1956 0104 00       		.uleb128 0
 1957 0105 F402     		.uleb128 .LEHB43-.LFB1175
 1958 0107 40       		.uleb128 .LEHE43-.LEHB43
 1959 0108 BE03     		.uleb128 .L86-.LFB1175
 1960 010a 00       		.uleb128 0
 1961 010b B403     		.uleb128 .LEHB44-.LFB1175
 1962 010d 05       		.uleb128 .LEHE44-.LEHB44
 1963 010e CC03     		.uleb128 .L85-.LFB1175
 1964 0110 00       		.uleb128 0
 1965 0111 F003     		.uleb128 .LEHB45-.LFB1175
 1966 0113 40       		.uleb128 .LEHE45-.LEHB45
 1967 0114 BA04     		.uleb128 .L89-.LFB1175
 1968 0116 00       		.uleb128 0
 1969 0117 B004     		.uleb128 .LEHB46-.LFB1175
 1970 0119 05       		.uleb128 .LEHE46-.LEHB46
 1971 011a C804     		.uleb128 .L87-.LFB1175
 1972 011c 00       		.uleb128 0
 1973 011d E404     		.uleb128 .LEHB47-.LFB1175
 1974 011f 05       		.uleb128 .LEHE47-.LEHB47
 1975 0120 00       		.uleb128 0
 1976 0121 00       		.uleb128 0
 1977              	.LLSDACSE1175:
 1978 0122 01       		.byte	0x1
 1979 0123 00       		.byte	0
 1980              		.align 4
 1981 0124 00000000 		.long	0
 1982              	
 1983              	.LLSDATT1175:
 1984              		.text
 1986              		.section	.rodata
 1987              	.LC20:
 1988 025f 446F6800 		.string	"Doh"
 1989              		.text
 1991              	_ZN12_GLOBAL__N_116ThrowingFunctionEv:
 1992              	.LFB1176:
  64:TestCheckMacros.cpp **** 
  65:TestCheckMacros.cpp **** int ThrowingFunction()
  66:TestCheckMacros.cpp **** {
 1993              		.loc 6 66 1
 1994              		.cfi_startproc
 1995 0b0a F30F1EFA 		endbr64
 1996 0b0e 55       		pushq	%rbp
 1997              		.cfi_def_cfa_offset 16
 1998              		.cfi_offset 6, -16
 1999 0b0f 4889E5   		movq	%rsp, %rbp
 2000              		.cfi_def_cfa_register 6
  67:TestCheckMacros.cpp ****     throw "Doh";
 2001              		.loc 6 67 11
 2002 0b12 BF080000 		movl	$8, %edi
 2002      00
 2003 0b17 E8000000 		call	__cxa_allocate_exception@PLT
 2003      00
 2004              		.loc 6 67 5
 2005 0b1c 488D1500 		leaq	.LC20(%rip), %rdx
 2005      000000
 2006 0b23 488910   		movq	%rdx, (%rax)
 2007              		.loc 6 67 11
 2008 0b26 BA000000 		movl	$0, %edx
 2008      00
 2009 0b2b 488D0D00 		leaq	_ZTIPKc(%rip), %rcx
 2009      000000
 2010 0b32 4889CE   		movq	%rcx, %rsi
 2011 0b35 4889C7   		movq	%rax, %rdi
 2012 0b38 E8000000 		call	__cxa_throw@PLT
 2012      00
 2013              		.cfi_endproc
 2014              	.LFE1176:
 2016              		.section	.rodata
 2017              	.LC21:
 2018 0263 43686563 		.string	"CheckFailsOnException"
 2018      6B466169 
 2018      6C734F6E 
 2018      45786365 
 2018      7074696F 
 2019              		.text
 2020 0b3d 90       		.align 2
 2022              	_ZN12_GLOBAL__N_125TestCheckFailsOnExceptionC2Ev:
 2023              	.LFB1178:
  68:TestCheckMacros.cpp **** }
  69:TestCheckMacros.cpp **** 
  70:TestCheckMacros.cpp **** TEST(CheckFailsOnException)
 2024              		.loc 6 70 1
 2025              		.cfi_startproc
 2026 0b3e 55       		pushq	%rbp
 2027              		.cfi_def_cfa_offset 16
 2028              		.cfi_offset 6, -16
 2029 0b3f 4889E5   		movq	%rsp, %rbp
 2030              		.cfi_def_cfa_register 6
 2031 0b42 53       		pushq	%rbx
 2032 0b43 4883EC18 		subq	$24, %rsp
 2033              		.cfi_offset 3, -24
 2034 0b47 48897DE8 		movq	%rdi, -24(%rbp)
 2035              	.LBB20:
 2036              		.loc 6 70 1
 2037 0b4b 488B5DE8 		movq	-24(%rbp), %rbx
 2038 0b4f E8000000 		call	_ZN13UnitTestSuite12GetSuiteNameEv
 2038      00
 2039 0b54 4889C2   		movq	%rax, %rdx
 2040 0b57 41B84600 		movl	$70, %r8d
 2040      0000
 2041 0b5d 488D0500 		leaq	.LC2(%rip), %rax
 2041      000000
 2042 0b64 4889C1   		movq	%rax, %rcx
 2043 0b67 488D0500 		leaq	.LC21(%rip), %rax
 2043      000000
 2044 0b6e 4889C6   		movq	%rax, %rsi
 2045 0b71 4889DF   		movq	%rbx, %rdi
 2046 0b74 E8000000 		call	_ZN8UnitTest4TestC2EPKcS2_S2_i@PLT
 2046      00
 2047 0b79 488D1500 		leaq	16+_ZTVN12_GLOBAL__N_125TestCheckFailsOnExceptionE(%rip), %rdx
 2047      000000
 2048 0b80 488B45E8 		movq	-24(%rbp), %rax
 2049 0b84 488910   		movq	%rdx, (%rax)
 2050              	.LBE20:
 2051 0b87 90       		nop
 2052 0b88 488B5DF8 		movq	-8(%rbp), %rbx
 2053 0b8c C9       		leave
 2054              		.cfi_def_cfa 7, 8
 2055 0b8d C3       		ret
 2056              		.cfi_endproc
 2057              	.LFE1178:
 2059              		.set	_ZN12_GLOBAL__N_125TestCheckFailsOnExceptionC1Ev,_ZN12_GLOBAL__N_125TestCheckFailsOnException
 2060              		.local	_ZN12_GLOBAL__N_133testCheckFailsOnExceptionInstanceE
 2061              		.comm	_ZN12_GLOBAL__N_133testCheckFailsOnExceptionInstanceE,56,32
 2062              		.local	_ZN12_GLOBAL__N_126adderCheckFailsOnExceptionE
 2063              		.comm	_ZN12_GLOBAL__N_126adderCheckFailsOnExceptionE,1,1
 2064              		.section	.rodata
 2065              	.LC22:
 2066 0279 5468726F 		.string	"ThrowingFunction() == 1"
 2066      77696E67 
 2066      46756E63 
 2066      74696F6E 
 2066      2829203D 
 2067 0291 00000000 		.align 8
 2067      000000
 2068              	.LC23:
 2069 0298 556E6861 		.string	"Unhandled exception in CHECK(ThrowingFunction() == 1)"
 2069      6E646C65 
 2069      64206578 
 2069      63657074 
 2069      696F6E20 
 2070              		.text
 2071              		.align 2
 2073              	_ZNK12_GLOBAL__N_125TestCheckFailsOnException7RunImplEv:
 2074              	.LFB1180:
  71:TestCheckMacros.cpp **** {
 2075              		.loc 6 71 1
 2076              		.cfi_startproc
 2077              		.cfi_personality 0x9b,DW.ref.__gxx_personality_v0
 2078              		.cfi_lsda 0x1b,.LLSDA1180
 2079 0b8e F30F1EFA 		endbr64
 2080 0b92 55       		pushq	%rbp
 2081              		.cfi_def_cfa_offset 16
 2082              		.cfi_offset 6, -16
 2083 0b93 4889E5   		movq	%rsp, %rbp
 2084              		.cfi_def_cfa_register 6
 2085 0b96 53       		pushq	%rbx
 2086 0b97 4881ECB8 		subq	$2232, %rsp
 2086      080000
 2087              		.cfi_offset 3, -24
 2088 0b9e 4889BD48 		movq	%rdi, -2232(%rbp)
 2088      F7FFFF
 2089              		.loc 6 71 1
 2090 0ba5 64488B04 		movq	%fs:40, %rax
 2090      25280000 
 2090      00
 2091 0bae 488945E8 		movq	%rax, -24(%rbp)
 2092 0bb2 31C0     		xorl	%eax, %eax
  72:TestCheckMacros.cpp ****     bool failure = false;
 2093              		.loc 6 72 10
 2094 0bb4 C6855FF7 		movb	$0, -2209(%rbp)
 2094      FFFF00
 2095              	.LBB21:
  73:TestCheckMacros.cpp ****     {
  74:TestCheckMacros.cpp ****         RecordingReporter reporter;
 2096              		.loc 6 74 27
 2097 0bbb 488D85B0 		leaq	-2128(%rbp), %rax
 2097      F7FFFF
 2098 0bc2 4889C7   		movq	%rax, %rdi
 2099 0bc5 E8000000 		call	_ZN17RecordingReporterC1Ev
 2099      00
  75:TestCheckMacros.cpp ****         UnitTest::TestResults testResults(&reporter);
 2100              		.loc 6 75 52
 2101 0bca 488D95B0 		leaq	-2128(%rbp), %rdx
 2101      F7FFFF
 2102 0bd1 488D8570 		leaq	-2192(%rbp), %rax
 2102      F7FFFF
 2103 0bd8 4889D6   		movq	%rdx, %rsi
 2104 0bdb 4889C7   		movq	%rax, %rdi
 2105              	.LEHB48:
 2106 0bde E8000000 		call	_ZN8UnitTest11TestResultsC1EPNS_12TestReporterE@PLT
 2106      00
  76:TestCheckMacros.cpp **** 		ScopedCurrentTest scopedResults(testResults);
 2107              		.loc 6 76 46
 2108 0be3 488D8D70 		leaq	-2192(%rbp), %rcx
 2108      F7FFFF
 2109 0bea 488D8560 		leaq	-2208(%rbp), %rax
 2109      F7FFFF
 2110 0bf1 BA000000 		movl	$0, %edx
 2110      00
 2111 0bf6 4889CE   		movq	%rcx, %rsi
 2112 0bf9 4889C7   		movq	%rax, %rdi
 2113 0bfc E8000000 		call	_ZN17ScopedCurrentTestC1ERN8UnitTest11TestResultsEPKNS0_11TestDetailsE
 2113      00
 2114              	.LEHE48:
 2115              	.LEHB49:
  77:TestCheckMacros.cpp ****         CHECK(ThrowingFunction() == 1);
 2116              		.loc 6 77 9
 2117 0c01 E804FFFF 		call	_ZN12_GLOBAL__N_116ThrowingFunctionEv
 2117      FF
 2118 0c06 83F801   		cmpl	$1, %eax
 2119 0c09 0F94C0   		sete	%al
 2120 0c0c 0FB6C0   		movzbl	%al, %eax
 2121 0c0f 89C7     		movl	%eax, %edi
 2122 0c11 E8000000 		call	_ZN8UnitTest5CheckIbEEbT_
 2122      00
 2123 0c16 83F001   		xorl	$1, %eax
 2124 0c19 84C0     		testb	%al, %al
 2125 0c1b 7440     		je	.L94
 2126              		.loc 6 77 9 is_stmt 0 discriminator 3
 2127 0c1d E8000000 		call	_ZN8UnitTest11CurrentTest7ResultsEv@PLT
 2127      00
 2128 0c22 488B18   		movq	(%rax), %rbx
 2129 0c25 E8000000 		call	_ZN8UnitTest11CurrentTest7DetailsEv@PLT
 2129      00
 2130              		.loc 6 77 9 discriminator 5
 2131 0c2a 488B08   		movq	(%rax), %rcx
 2132 0c2d 488D8590 		leaq	-2160(%rbp), %rax
 2132      F7FFFF
 2133 0c34 BA4D0000 		movl	$77, %edx
 2133      00
 2134 0c39 4889CE   		movq	%rcx, %rsi
 2135 0c3c 4889C7   		movq	%rax, %rdi
 2136 0c3f E8000000 		call	_ZN8UnitTest11TestDetailsC1ERKS0_i@PLT
 2136      00
 2137              		.loc 6 77 9 discriminator 9
 2138 0c44 488D8590 		leaq	-2160(%rbp), %rax
 2138      F7FFFF
 2139 0c4b 488D1500 		leaq	.LC22(%rip), %rdx
 2139      000000
 2140 0c52 4889C6   		movq	%rax, %rsi
 2141 0c55 4889DF   		movq	%rbx, %rdi
 2142 0c58 E8000000 		call	_ZN8UnitTest11TestResults13OnTestFailureERKNS_11TestDetailsEPKc@PLT
 2142      00
 2143              	.LEHE49:
 2144              	.L94:
  78:TestCheckMacros.cpp ****         failure = (testResults.GetFailureCount() > 0);
 2145              		.loc 6 78 47 is_stmt 1
 2146 0c5d 488D8570 		leaq	-2192(%rbp), %rax
 2146      F7FFFF
 2147 0c64 4889C7   		movq	%rax, %rdi
 2148              	.LEHB50:
 2149 0c67 E8000000 		call	_ZNK8UnitTest11TestResults15GetFailureCountEv@PLT
 2149      00
 2150              	.LEHE50:
 2151              		.loc 6 78 17
 2152 0c6c 85C0     		testl	%eax, %eax
 2153 0c6e 0F9FC0   		setg	%al
 2154 0c71 88855FF7 		movb	%al, -2209(%rbp)
 2154      FFFF
  79:TestCheckMacros.cpp ****     }
 2155              		.loc 6 79 5
 2156 0c77 488D8560 		leaq	-2208(%rbp), %rax
 2156      F7FFFF
 2157 0c7e 4889C7   		movq	%rax, %rdi
 2158              	.LEHB51:
 2159 0c81 E8000000 		call	_ZN17ScopedCurrentTestD1Ev
 2159      00
 2160              	.LEHE51:
 2161              		.loc 6 79 5 is_stmt 0 discriminator 2
 2162 0c86 488D85B0 		leaq	-2128(%rbp), %rax
 2162      F7FFFF
 2163 0c8d 4889C7   		movq	%rax, %rdi
 2164              	.LEHB52:
 2165 0c90 E8000000 		call	_ZN17RecordingReporterD1Ev
 2165      00
 2166              	.LEHE52:
 2167              	.LBE21:
  80:TestCheckMacros.cpp **** 
  81:TestCheckMacros.cpp ****     CHECK(failure);
 2168              		.loc 6 81 5 is_stmt 1 discriminator 2
 2169 0c95 0FB6855F 		movzbl	-2209(%rbp), %eax
 2169      F7FFFF
 2170 0c9c 89C7     		movl	%eax, %edi
 2171 0c9e E8000000 		call	_ZN8UnitTest5CheckIbEEbT_
 2171      00
 2172 0ca3 83F001   		xorl	$1, %eax
 2173 0ca6 84C0     		testb	%al, %al
 2174 0ca8 0F844C01 		je	.L109
 2174      0000
 2175              	.LEHB53:
 2176              		.loc 6 81 5 is_stmt 0 discriminator 1
 2177 0cae E8000000 		call	_ZN8UnitTest11CurrentTest7ResultsEv@PLT
 2177      00
 2178 0cb3 488B18   		movq	(%rax), %rbx
 2179 0cb6 E8000000 		call	_ZN8UnitTest11CurrentTest7DetailsEv@PLT
 2179      00
 2180              		.loc 6 81 5 discriminator 3
 2181 0cbb 488B08   		movq	(%rax), %rcx
 2182 0cbe 488D8590 		leaq	-2160(%rbp), %rax
 2182      F7FFFF
 2183 0cc5 BA510000 		movl	$81, %edx
 2183      00
 2184 0cca 4889CE   		movq	%rcx, %rsi
 2185 0ccd 4889C7   		movq	%rax, %rdi
 2186 0cd0 E8000000 		call	_ZN8UnitTest11TestDetailsC1ERKS0_i@PLT
 2186      00
 2187              		.loc 6 81 5 discriminator 7
 2188 0cd5 488D8590 		leaq	-2160(%rbp), %rax
 2188      F7FFFF
 2189 0cdc 488D1500 		leaq	.LC10(%rip), %rdx
 2189      000000
 2190 0ce3 4889C6   		movq	%rax, %rsi
 2191 0ce6 4889DF   		movq	%rbx, %rdi
 2192 0ce9 E8000000 		call	_ZN8UnitTest11TestResults13OnTestFailureERKNS_11TestDetailsEPKc@PLT
 2192      00
 2193              	.LEHE53:
  82:TestCheckMacros.cpp **** }
 2194              		.loc 6 82 1 is_stmt 1
 2195 0cee E9070100 		jmp	.L109
 2195      00
 2196              	.L104:
 2197 0cf3 F30F1EFA 		endbr64
 2198              	.LBB22:
  77:TestCheckMacros.cpp ****         failure = (testResults.GetFailureCount() > 0);
 2199              		.loc 6 77 9
 2200 0cf7 4889C7   		movq	%rax, %rdi
 2201 0cfa E8000000 		call	__cxa_begin_catch@PLT
 2201      00
 2202              	.LEHB54:
 2203 0cff E8000000 		call	_ZN8UnitTest11CurrentTest7ResultsEv@PLT
 2203      00
  77:TestCheckMacros.cpp ****         failure = (testResults.GetFailureCount() > 0);
 2204              		.loc 6 77 9 is_stmt 0 discriminator 8
 2205 0d04 488B18   		movq	(%rax), %rbx
 2206 0d07 E8000000 		call	_ZN8UnitTest11CurrentTest7DetailsEv@PLT
 2206      00
  77:TestCheckMacros.cpp ****         failure = (testResults.GetFailureCount() > 0);
 2207              		.loc 6 77 9 discriminator 14
 2208 0d0c 488B08   		movq	(%rax), %rcx
 2209 0d0f 488D8590 		leaq	-2160(%rbp), %rax
 2209      F7FFFF
 2210 0d16 BA4D0000 		movl	$77, %edx
 2210      00
 2211 0d1b 4889CE   		movq	%rcx, %rsi
 2212 0d1e 4889C7   		movq	%rax, %rdi
 2213 0d21 E8000000 		call	_ZN8UnitTest11TestDetailsC1ERKS0_i@PLT
 2213      00
  77:TestCheckMacros.cpp ****         failure = (testResults.GetFailureCount() > 0);
 2214              		.loc 6 77 9 discriminator 18
 2215 0d26 488D8590 		leaq	-2160(%rbp), %rax
 2215      F7FFFF
 2216 0d2d 488D1500 		leaq	.LC23(%rip), %rdx
 2216      000000
 2217 0d34 4889C6   		movq	%rax, %rsi
 2218 0d37 4889DF   		movq	%rbx, %rdi
 2219 0d3a E8000000 		call	_ZN8UnitTest11TestResults13OnTestFailureERKNS_11TestDetailsEPKc@PLT
 2219      00
 2220              	.LEHE54:
 2221              	.LEHB55:
  77:TestCheckMacros.cpp ****         failure = (testResults.GetFailureCount() > 0);
 2222              		.loc 6 77 9 discriminator 20
 2223 0d3f E8000000 		call	__cxa_end_catch@PLT
 2223      00
 2224              	.LEHE55:
  77:TestCheckMacros.cpp ****         failure = (testResults.GetFailureCount() > 0);
 2225              		.loc 6 77 9
 2226 0d44 E914FFFF 		jmp	.L94
 2226      FF
 2227              	.L106:
 2228 0d49 F30F1EFA 		endbr64
 2229 0d4d 4889C3   		movq	%rax, %rbx
 2230 0d50 E8000000 		call	__cxa_end_catch@PLT
 2230      00
 2231 0d55 EB07     		jmp	.L98
 2232              	.L105:
 2233 0d57 F30F1EFA 		endbr64
  79:TestCheckMacros.cpp **** 
 2234              		.loc 6 79 5 is_stmt 1
 2235 0d5b 4889C3   		movq	%rax, %rbx
 2236              	.L98:
 2237 0d5e 488D8560 		leaq	-2208(%rbp), %rax
 2237      F7FFFF
 2238 0d65 4889C7   		movq	%rax, %rdi
 2239 0d68 E8000000 		call	_ZN17ScopedCurrentTestD1Ev
 2239      00
 2240 0d6d EB07     		jmp	.L99
 2241              	.L103:
 2242 0d6f F30F1EFA 		endbr64
 2243 0d73 4889C3   		movq	%rax, %rbx
 2244              	.L99:
  79:TestCheckMacros.cpp **** 
 2245              		.loc 6 79 5 is_stmt 0 discriminator 1
 2246 0d76 488D85B0 		leaq	-2128(%rbp), %rax
 2246      F7FFFF
 2247 0d7d 4889C7   		movq	%rax, %rdi
 2248 0d80 E8000000 		call	_ZN17RecordingReporterD1Ev
 2248      00
 2249 0d85 4889D8   		movq	%rbx, %rax
 2250 0d88 4889C7   		movq	%rax, %rdi
 2251              	.LEHB56:
 2252 0d8b E8000000 		call	_Unwind_Resume@PLT
 2252      00
 2253              	.LEHE56:
 2254              	.L107:
 2255 0d90 F30F1EFA 		endbr64
 2256              	.LBE22:
  81:TestCheckMacros.cpp **** }
 2257              		.loc 6 81 5 is_stmt 1
 2258 0d94 4889C7   		movq	%rax, %rdi
 2259 0d97 E8000000 		call	__cxa_begin_catch@PLT
 2259      00
 2260              	.LEHB57:
 2261 0d9c E8000000 		call	_ZN8UnitTest11CurrentTest7ResultsEv@PLT
 2261      00
  81:TestCheckMacros.cpp **** }
 2262              		.loc 6 81 5 is_stmt 0 discriminator 6
 2263 0da1 488B18   		movq	(%rax), %rbx
 2264 0da4 E8000000 		call	_ZN8UnitTest11CurrentTest7DetailsEv@PLT
 2264      00
  81:TestCheckMacros.cpp **** }
 2265              		.loc 6 81 5 discriminator 12
 2266 0da9 488B08   		movq	(%rax), %rcx
 2267 0dac 488D8590 		leaq	-2160(%rbp), %rax
 2267      F7FFFF
 2268 0db3 BA510000 		movl	$81, %edx
 2268      00
 2269 0db8 4889CE   		movq	%rcx, %rsi
 2270 0dbb 4889C7   		movq	%rax, %rdi
 2271 0dbe E8000000 		call	_ZN8UnitTest11TestDetailsC1ERKS0_i@PLT
 2271      00
  81:TestCheckMacros.cpp **** }
 2272              		.loc 6 81 5 discriminator 16
 2273 0dc3 488D8590 		leaq	-2160(%rbp), %rax
 2273      F7FFFF
 2274 0dca 488D1500 		leaq	.LC12(%rip), %rdx
 2274      000000
 2275 0dd1 4889C6   		movq	%rax, %rsi
 2276 0dd4 4889DF   		movq	%rbx, %rdi
 2277 0dd7 E8000000 		call	_ZN8UnitTest11TestResults13OnTestFailureERKNS_11TestDetailsEPKc@PLT
 2277      00
 2278              	.LEHE57:
 2279              	.LEHB58:
  81:TestCheckMacros.cpp **** }
 2280              		.loc 6 81 5 discriminator 18
 2281 0ddc E8000000 		call	__cxa_end_catch@PLT
 2281      00
 2282              	.LEHE58:
 2283              		.loc 6 82 1 is_stmt 1 discriminator 18
 2284 0de1 EB17     		jmp	.L109
 2285              	.L108:
 2286 0de3 F30F1EFA 		endbr64
  81:TestCheckMacros.cpp **** }
 2287              		.loc 6 81 5
 2288 0de7 4889C3   		movq	%rax, %rbx
 2289 0dea E8000000 		call	__cxa_end_catch@PLT
 2289      00
 2290 0def 4889D8   		movq	%rbx, %rax
 2291 0df2 4889C7   		movq	%rax, %rdi
 2292              	.LEHB59:
 2293 0df5 E8000000 		call	_Unwind_Resume@PLT
 2293      00
 2294              	.LEHE59:
 2295              	.L109:
 2296              		.loc 6 82 1
 2297 0dfa 90       		nop
 2298 0dfb 488B45E8 		movq	-24(%rbp), %rax
 2299 0dff 64482B04 		subq	%fs:40, %rax
 2299      25280000 
 2299      00
 2300 0e08 7405     		je	.L102
 2301 0e0a E8000000 		call	__stack_chk_fail@PLT
 2301      00
 2302              	.L102:
 2303 0e0f 488B5DF8 		movq	-8(%rbp), %rbx
 2304 0e13 C9       		leave
 2305              		.cfi_def_cfa 7, 8
 2306 0e14 C3       		ret
 2307              		.cfi_endproc
 2308              	.LFE1180:
 2309              		.section	.gcc_except_table
 2310              		.align 4
 2311              	.LLSDA1180:
 2312 0128 FF       		.byte	0xff
 2313 0129 9B       		.byte	0x9b
 2314 012a 4D       		.uleb128 .LLSDATT1180-.LLSDATTD1180
 2315              	.LLSDATTD1180:
 2316 012b 01       		.byte	0x1
 2317 012c 42       		.uleb128 .LLSDACSE1180-.LLSDACSB1180
 2318              	.LLSDACSB1180:
 2319 012d 50       		.uleb128 .LEHB48-.LFB1180
 2320 012e 23       		.uleb128 .LEHE48-.LEHB48
 2321 012f E103     		.uleb128 .L103-.LFB1180
 2322 0131 00       		.uleb128 0
 2323 0132 73       		.uleb128 .LEHB49-.LFB1180
 2324 0133 5C       		.uleb128 .LEHE49-.LEHB49
 2325 0134 E502     		.uleb128 .L104-.LFB1180
 2326 0136 01       		.uleb128 0x1
 2327 0137 D901     		.uleb128 .LEHB50-.LFB1180
 2328 0139 05       		.uleb128 .LEHE50-.LEHB50
 2329 013a C903     		.uleb128 .L105-.LFB1180
 2330 013c 00       		.uleb128 0
 2331 013d F301     		.uleb128 .LEHB51-.LFB1180
 2332 013f 05       		.uleb128 .LEHE51-.LEHB51
 2333 0140 E103     		.uleb128 .L103-.LFB1180
 2334 0142 00       		.uleb128 0
 2335 0143 8202     		.uleb128 .LEHB52-.LFB1180
 2336 0145 05       		.uleb128 .LEHE52-.LEHB52
 2337 0146 00       		.uleb128 0
 2338 0147 00       		.uleb128 0
 2339 0148 A002     		.uleb128 .LEHB53-.LFB1180
 2340 014a 40       		.uleb128 .LEHE53-.LEHB53
 2341 014b 8204     		.uleb128 .L107-.LFB1180
 2342 014d 01       		.uleb128 0x1
 2343 014e F102     		.uleb128 .LEHB54-.LFB1180
 2344 0150 40       		.uleb128 .LEHE54-.LEHB54
 2345 0151 BB03     		.uleb128 .L106-.LFB1180
 2346 0153 00       		.uleb128 0
 2347 0154 B103     		.uleb128 .LEHB55-.LFB1180
 2348 0156 05       		.uleb128 .LEHE55-.LEHB55
 2349 0157 C903     		.uleb128 .L105-.LFB1180
 2350 0159 00       		.uleb128 0
 2351 015a FD03     		.uleb128 .LEHB56-.LFB1180
 2352 015c 05       		.uleb128 .LEHE56-.LEHB56
 2353 015d 00       		.uleb128 0
 2354 015e 00       		.uleb128 0
 2355 015f 8E04     		.uleb128 .LEHB57-.LFB1180
 2356 0161 40       		.uleb128 .LEHE57-.LEHB57
 2357 0162 D504     		.uleb128 .L108-.LFB1180
 2358 0164 00       		.uleb128 0
 2359 0165 CE04     		.uleb128 .LEHB58-.LFB1180
 2360 0167 05       		.uleb128 .LEHE58-.LEHB58
 2361 0168 00       		.uleb128 0
 2362 0169 00       		.uleb128 0
 2363 016a E704     		.uleb128 .LEHB59-.LFB1180
 2364 016c 05       		.uleb128 .LEHE59-.LEHB59
 2365 016d 00       		.uleb128 0
 2366 016e 00       		.uleb128 0
 2367              	.LLSDACSE1180:
 2368 016f 01       		.byte	0x1
 2369 0170 00       		.byte	0
 2370 0171 000000   		.align 4
 2371 0174 00000000 		.long	0
 2372              	
 2373              	.LLSDATT1180:
 2374              		.text
 2376              		.section	.rodata
 2377 02ce 0000     		.align 8
 2378              	.LC24:
 2379 02d0 43686563 		.string	"CheckFailureBecauseOfExceptionIncludesCheckContents"
 2379      6B466169 
 2379      6C757265 
 2379      42656361 
 2379      7573654F 
 2380              		.text
 2381 0e15 90       		.align 2
 2383              	_ZN12_GLOBAL__N_155TestCheckFailureBecauseOfExceptionIncludesCheckContentsC2Ev:
 2384              	.LFB1182:
  83:TestCheckMacros.cpp **** 
  84:TestCheckMacros.cpp **** TEST(CheckFailureBecauseOfExceptionIncludesCheckContents)
 2385              		.loc 6 84 1
 2386              		.cfi_startproc
 2387 0e16 55       		pushq	%rbp
 2388              		.cfi_def_cfa_offset 16
 2389              		.cfi_offset 6, -16
 2390 0e17 4889E5   		movq	%rsp, %rbp
 2391              		.cfi_def_cfa_register 6
 2392 0e1a 53       		pushq	%rbx
 2393 0e1b 4883EC18 		subq	$24, %rsp
 2394              		.cfi_offset 3, -24
 2395 0e1f 48897DE8 		movq	%rdi, -24(%rbp)
 2396              	.LBB23:
 2397              		.loc 6 84 1
 2398 0e23 488B5DE8 		movq	-24(%rbp), %rbx
 2399 0e27 E8000000 		call	_ZN13UnitTestSuite12GetSuiteNameEv
 2399      00
 2400 0e2c 4889C2   		movq	%rax, %rdx
 2401 0e2f 41B85400 		movl	$84, %r8d
 2401      0000
 2402 0e35 488D0500 		leaq	.LC2(%rip), %rax
 2402      000000
 2403 0e3c 4889C1   		movq	%rax, %rcx
 2404 0e3f 488D0500 		leaq	.LC24(%rip), %rax
 2404      000000
 2405 0e46 4889C6   		movq	%rax, %rsi
 2406 0e49 4889DF   		movq	%rbx, %rdi
 2407 0e4c E8000000 		call	_ZN8UnitTest4TestC2EPKcS2_S2_i@PLT
 2407      00
 2408 0e51 488D1500 		leaq	16+_ZTVN12_GLOBAL__N_155TestCheckFailureBecauseOfExceptionIncludesCheckContentsE(%rip), %rdx
 2408      000000
 2409 0e58 488B45E8 		movq	-24(%rbp), %rax
 2410 0e5c 488910   		movq	%rdx, (%rax)
 2411              	.LBE23:
 2412 0e5f 90       		nop
 2413 0e60 488B5DF8 		movq	-8(%rbp), %rbx
 2414 0e64 C9       		leave
 2415              		.cfi_def_cfa 7, 8
 2416 0e65 C3       		ret
 2417              		.cfi_endproc
 2418              	.LFE1182:
 2420              		.set	_ZN12_GLOBAL__N_155TestCheckFailureBecauseOfExceptionIncludesCheckContentsC1Ev,_ZN12_GLOBAL__
 2421              		.local	_ZN12_GLOBAL__N_163testCheckFailureBecauseOfExceptionIncludesCheckContentsInstanceE
 2422              		.comm	_ZN12_GLOBAL__N_163testCheckFailureBecauseOfExceptionIncludesCheckContentsInstanceE,56,32
 2423              		.local	_ZN12_GLOBAL__N_156adderCheckFailureBecauseOfExceptionIncludesCheckContentsE
 2424              		.comm	_ZN12_GLOBAL__N_156adderCheckFailureBecauseOfExceptionIncludesCheckContentsE,1,1
 2425              		.section	.rodata
 2426 0304 00000000 		.align 8
 2427              	.LC25:
 2428 0308 73747273 		.string	"strstr(reporter.lastFailedMessage, \"ThrowingFunction() == 1\")"
 2428      74722872 
 2428      65706F72 
 2428      7465722E 
 2428      6C617374 
 2429 0346 0000     		.align 8
 2430              	.LC26:
 2431 0348 556E6861 		.string	"Unhandled exception in CHECK(strstr(reporter.lastFailedMessage, \"ThrowingFunction() == 1
 2431      6E646C65 
 2431      64206578 
 2431      63657074 
 2431      696F6E20 
 2432              		.text
 2433              		.align 2
 2435              	_ZNK12_GLOBAL__N_155TestCheckFailureBecauseOfExceptionIncludesCheckContents7RunImplEv:
 2436              	.LFB1184:
  85:TestCheckMacros.cpp **** {
 2437              		.loc 6 85 1
 2438              		.cfi_startproc
 2439              		.cfi_personality 0x9b,DW.ref.__gxx_personality_v0
 2440              		.cfi_lsda 0x1b,.LLSDA1184
 2441 0e66 F30F1EFA 		endbr64
 2442 0e6a 55       		pushq	%rbp
 2443              		.cfi_def_cfa_offset 16
 2444              		.cfi_offset 6, -16
 2445 0e6b 4889E5   		movq	%rsp, %rbp
 2446              		.cfi_def_cfa_register 6
 2447 0e6e 53       		pushq	%rbx
 2448 0e6f 4881ECA8 		subq	$2216, %rsp
 2448      080000
 2449              		.cfi_offset 3, -24
 2450 0e76 4889BD58 		movq	%rdi, -2216(%rbp)
 2450      F7FFFF
 2451              		.loc 6 85 1
 2452 0e7d 64488B04 		movq	%fs:40, %rax
 2452      25280000 
 2452      00
 2453 0e86 488945E8 		movq	%rax, -24(%rbp)
 2454 0e8a 31C0     		xorl	%eax, %eax
  86:TestCheckMacros.cpp ****     RecordingReporter reporter;
 2455              		.loc 6 86 23
 2456 0e8c 488D85B0 		leaq	-2128(%rbp), %rax
 2456      F7FFFF
 2457 0e93 4889C7   		movq	%rax, %rdi
 2458 0e96 E8000000 		call	_ZN17RecordingReporterC1Ev
 2458      00
 2459              	.LBB24:
  87:TestCheckMacros.cpp ****     {
  88:TestCheckMacros.cpp ****         UnitTest::TestResults testResults(&reporter);
 2460              		.loc 6 88 52
 2461 0e9b 488D95B0 		leaq	-2128(%rbp), %rdx
 2461      F7FFFF
 2462 0ea2 488D8570 		leaq	-2192(%rbp), %rax
 2462      F7FFFF
 2463 0ea9 4889D6   		movq	%rdx, %rsi
 2464 0eac 4889C7   		movq	%rax, %rdi
 2465              	.LEHB60:
 2466 0eaf E8000000 		call	_ZN8UnitTest11TestResultsC1EPNS_12TestReporterE@PLT
 2466      00
  89:TestCheckMacros.cpp **** 		ScopedCurrentTest scopedResults(testResults);
 2467              		.loc 6 89 46
 2468 0eb4 488D8D70 		leaq	-2192(%rbp), %rcx
 2468      F7FFFF
 2469 0ebb 488D8560 		leaq	-2208(%rbp), %rax
 2469      F7FFFF
 2470 0ec2 BA000000 		movl	$0, %edx
 2470      00
 2471 0ec7 4889CE   		movq	%rcx, %rsi
 2472 0eca 4889C7   		movq	%rax, %rdi
 2473 0ecd E8000000 		call	_ZN17ScopedCurrentTestC1ERN8UnitTest11TestResultsEPKNS0_11TestDetailsE
 2473      00
 2474              	.LEHE60:
 2475              	.LEHB61:
  90:TestCheckMacros.cpp ****         CHECK(ThrowingFunction() == 1);
 2476              		.loc 6 90 9
 2477 0ed2 E833FCFF 		call	_ZN12_GLOBAL__N_116ThrowingFunctionEv
 2477      FF
 2478 0ed7 83F801   		cmpl	$1, %eax
 2479 0eda 0F94C0   		sete	%al
 2480 0edd 0FB6C0   		movzbl	%al, %eax
 2481 0ee0 89C7     		movl	%eax, %edi
 2482 0ee2 E8000000 		call	_ZN8UnitTest5CheckIbEEbT_
 2482      00
 2483 0ee7 83F001   		xorl	$1, %eax
 2484 0eea 84C0     		testb	%al, %al
 2485 0eec 7440     		je	.L112
 2486              		.loc 6 90 9 is_stmt 0 discriminator 3
 2487 0eee E8000000 		call	_ZN8UnitTest11CurrentTest7ResultsEv@PLT
 2487      00
 2488 0ef3 488B18   		movq	(%rax), %rbx
 2489 0ef6 E8000000 		call	_ZN8UnitTest11CurrentTest7DetailsEv@PLT
 2489      00
 2490              		.loc 6 90 9 discriminator 5
 2491 0efb 488B08   		movq	(%rax), %rcx
 2492 0efe 488D8590 		leaq	-2160(%rbp), %rax
 2492      F7FFFF
 2493 0f05 BA5A0000 		movl	$90, %edx
 2493      00
 2494 0f0a 4889CE   		movq	%rcx, %rsi
 2495 0f0d 4889C7   		movq	%rax, %rdi
 2496 0f10 E8000000 		call	_ZN8UnitTest11TestDetailsC1ERKS0_i@PLT
 2496      00
 2497              		.loc 6 90 9 discriminator 9
 2498 0f15 488D8590 		leaq	-2160(%rbp), %rax
 2498      F7FFFF
 2499 0f1c 488D1500 		leaq	.LC22(%rip), %rdx
 2499      000000
 2500 0f23 4889C6   		movq	%rax, %rsi
 2501 0f26 4889DF   		movq	%rbx, %rdi
 2502 0f29 E8000000 		call	_ZN8UnitTest11TestResults13OnTestFailureERKNS_11TestDetailsEPKc@PLT
 2502      00
 2503              	.LEHE61:
 2504              	.L112:
  91:TestCheckMacros.cpp ****     }
 2505              		.loc 6 91 5 is_stmt 1
 2506 0f2e 488D8560 		leaq	-2208(%rbp), %rax
 2506      F7FFFF
 2507 0f35 4889C7   		movq	%rax, %rdi
 2508              	.LEHB62:
 2509 0f38 E8000000 		call	_ZN17ScopedCurrentTestD1Ev
 2509      00
 2510              	.LEHE62:
 2511              	.LBE24:
  92:TestCheckMacros.cpp **** 
  93:TestCheckMacros.cpp ****     CHECK(strstr(reporter.lastFailedMessage, "ThrowingFunction() == 1"));
 2512              		.loc 6 93 5
 2513 0f3d 488D85B0 		leaq	-2128(%rbp), %rax
 2513      F7FFFF
 2514 0f44 48051405 		addq	$1300, %rax
 2514      0000
 2515 0f4a 488D1500 		leaq	.LC22(%rip), %rdx
 2515      000000
 2516 0f51 4889D6   		movq	%rdx, %rsi
 2517 0f54 4889C7   		movq	%rax, %rdi
 2518 0f57 E8000000 		call	strstr@PLT
 2518      00
 2519 0f5c 4889C7   		movq	%rax, %rdi
 2520 0f5f E8000000 		call	_ZN8UnitTest5CheckIPcEEbT_
 2520      00
 2521 0f64 83F001   		xorl	$1, %eax
 2522 0f67 84C0     		testb	%al, %al
 2523 0f69 7440     		je	.L113
 2524              	.LEHB63:
 2525              		.loc 6 93 5 is_stmt 0 discriminator 1
 2526 0f6b E8000000 		call	_ZN8UnitTest11CurrentTest7ResultsEv@PLT
 2526      00
 2527 0f70 488B18   		movq	(%rax), %rbx
 2528 0f73 E8000000 		call	_ZN8UnitTest11CurrentTest7DetailsEv@PLT
 2528      00
 2529              		.loc 6 93 5 discriminator 3
 2530 0f78 488B08   		movq	(%rax), %rcx
 2531 0f7b 488D8590 		leaq	-2160(%rbp), %rax
 2531      F7FFFF
 2532 0f82 BA5D0000 		movl	$93, %edx
 2532      00
 2533 0f87 4889CE   		movq	%rcx, %rsi
 2534 0f8a 4889C7   		movq	%rax, %rdi
 2535 0f8d E8000000 		call	_ZN8UnitTest11TestDetailsC1ERKS0_i@PLT
 2535      00
 2536              		.loc 6 93 5 discriminator 7
 2537 0f92 488D8590 		leaq	-2160(%rbp), %rax
 2537      F7FFFF
 2538 0f99 488D1500 		leaq	.LC25(%rip), %rdx
 2538      000000
 2539 0fa0 4889C6   		movq	%rax, %rsi
 2540 0fa3 4889DF   		movq	%rbx, %rdi
 2541 0fa6 E8000000 		call	_ZN8UnitTest11TestResults13OnTestFailureERKNS_11TestDetailsEPKc@PLT
 2541      00
 2542              	.LEHE63:
 2543              	.L113:
  94:TestCheckMacros.cpp **** }
 2544              		.loc 6 94 1 is_stmt 1
 2545 0fab 488D85B0 		leaq	-2128(%rbp), %rax
 2545      F7FFFF
 2546 0fb2 4889C7   		movq	%rax, %rdi
 2547              	.LEHB64:
 2548 0fb5 E8000000 		call	_ZN17RecordingReporterD1Ev
 2548      00
 2549              	.LEHE64:
 2550 0fba 488B45E8 		movq	-24(%rbp), %rax
 2551 0fbe 64482B04 		subq	%fs:40, %rax
 2551      25280000 
 2551      00
 2552 0fc7 0F840B01 		je	.L120
 2552      0000
 2553 0fcd E9010100 		jmp	.L127
 2553      00
 2554              	.L121:
 2555 0fd2 F30F1EFA 		endbr64
 2556              	.LBB25:
  90:TestCheckMacros.cpp ****     }
 2557              		.loc 6 90 9
 2558 0fd6 4889C7   		movq	%rax, %rdi
 2559 0fd9 E8000000 		call	__cxa_begin_catch@PLT
 2559      00
 2560              	.LEHB65:
 2561 0fde E8000000 		call	_ZN8UnitTest11CurrentTest7ResultsEv@PLT
 2561      00
  90:TestCheckMacros.cpp ****     }
 2562              		.loc 6 90 9 is_stmt 0 discriminator 8
 2563 0fe3 488B18   		movq	(%rax), %rbx
 2564 0fe6 E8000000 		call	_ZN8UnitTest11CurrentTest7DetailsEv@PLT
 2564      00
  90:TestCheckMacros.cpp ****     }
 2565              		.loc 6 90 9 discriminator 14
 2566 0feb 488B08   		movq	(%rax), %rcx
 2567 0fee 488D8590 		leaq	-2160(%rbp), %rax
 2567      F7FFFF
 2568 0ff5 BA5A0000 		movl	$90, %edx
 2568      00
 2569 0ffa 4889CE   		movq	%rcx, %rsi
 2570 0ffd 4889C7   		movq	%rax, %rdi
 2571 1000 E8000000 		call	_ZN8UnitTest11TestDetailsC1ERKS0_i@PLT
 2571      00
  90:TestCheckMacros.cpp ****     }
 2572              		.loc 6 90 9 discriminator 18
 2573 1005 488D8590 		leaq	-2160(%rbp), %rax
 2573      F7FFFF
 2574 100c 488D1500 		leaq	.LC23(%rip), %rdx
 2574      000000
 2575 1013 4889C6   		movq	%rax, %rsi
 2576 1016 4889DF   		movq	%rbx, %rdi
 2577 1019 E8000000 		call	_ZN8UnitTest11TestResults13OnTestFailureERKNS_11TestDetailsEPKc@PLT
 2577      00
 2578              	.LEHE65:
 2579              	.LEHB66:
  90:TestCheckMacros.cpp ****     }
 2580              		.loc 6 90 9 discriminator 20
 2581 101e E8000000 		call	__cxa_end_catch@PLT
 2581      00
 2582              	.LEHE66:
  90:TestCheckMacros.cpp ****     }
 2583              		.loc 6 90 9
 2584 1023 E906FFFF 		jmp	.L112
 2584      FF
 2585              	.L123:
 2586 1028 F30F1EFA 		endbr64
 2587 102c 4889C3   		movq	%rax, %rbx
 2588 102f E8000000 		call	__cxa_end_catch@PLT
 2588      00
 2589 1034 EB07     		jmp	.L116
 2590              	.L122:
 2591 1036 F30F1EFA 		endbr64
  91:TestCheckMacros.cpp **** 
 2592              		.loc 6 91 5 is_stmt 1
 2593 103a 4889C3   		movq	%rax, %rbx
 2594              	.L116:
 2595 103d 488D8560 		leaq	-2208(%rbp), %rax
 2595      F7FFFF
 2596 1044 4889C7   		movq	%rax, %rdi
 2597 1047 E8000000 		call	_ZN17ScopedCurrentTestD1Ev
 2597      00
 2598 104c EB6B     		jmp	.L117
 2599              	.L125:
 2600 104e F30F1EFA 		endbr64
 2601              	.LBE25:
  93:TestCheckMacros.cpp **** }
 2602              		.loc 6 93 5
 2603 1052 4889C7   		movq	%rax, %rdi
 2604 1055 E8000000 		call	__cxa_begin_catch@PLT
 2604      00
 2605              	.LEHB67:
 2606 105a E8000000 		call	_ZN8UnitTest11CurrentTest7ResultsEv@PLT
 2606      00
  93:TestCheckMacros.cpp **** }
 2607              		.loc 6 93 5 is_stmt 0 discriminator 6
 2608 105f 488B18   		movq	(%rax), %rbx
 2609 1062 E8000000 		call	_ZN8UnitTest11CurrentTest7DetailsEv@PLT
 2609      00
  93:TestCheckMacros.cpp **** }
 2610              		.loc 6 93 5 discriminator 12
 2611 1067 488B08   		movq	(%rax), %rcx
 2612 106a 488D8590 		leaq	-2160(%rbp), %rax
 2612      F7FFFF
 2613 1071 BA5D0000 		movl	$93, %edx
 2613      00
 2614 1076 4889CE   		movq	%rcx, %rsi
 2615 1079 4889C7   		movq	%rax, %rdi
 2616 107c E8000000 		call	_ZN8UnitTest11TestDetailsC1ERKS0_i@PLT
 2616      00
  93:TestCheckMacros.cpp **** }
 2617              		.loc 6 93 5 discriminator 16
 2618 1081 488D8590 		leaq	-2160(%rbp), %rax
 2618      F7FFFF
 2619 1088 488D1500 		leaq	.LC26(%rip), %rdx
 2619      000000
 2620 108f 4889C6   		movq	%rax, %rsi
 2621 1092 4889DF   		movq	%rbx, %rdi
 2622 1095 E8000000 		call	_ZN8UnitTest11TestResults13OnTestFailureERKNS_11TestDetailsEPKc@PLT
 2622      00
 2623              	.LEHE67:
 2624              	.LEHB68:
  93:TestCheckMacros.cpp **** }
 2625              		.loc 6 93 5 discriminator 18
 2626 109a E8000000 		call	__cxa_end_catch@PLT
 2626      00
 2627              	.LEHE68:
  93:TestCheckMacros.cpp **** }
 2628              		.loc 6 93 5
 2629 109f E907FFFF 		jmp	.L113
 2629      FF
 2630              	.L126:
 2631 10a4 F30F1EFA 		endbr64
 2632 10a8 4889C3   		movq	%rax, %rbx
 2633 10ab E8000000 		call	__cxa_end_catch@PLT
 2633      00
 2634 10b0 EB07     		jmp	.L117
 2635              	.L124:
 2636 10b2 F30F1EFA 		endbr64
 2637              		.loc 6 94 1 is_stmt 1
 2638 10b6 4889C3   		movq	%rax, %rbx
 2639              	.L117:
 2640 10b9 488D85B0 		leaq	-2128(%rbp), %rax
 2640      F7FFFF
 2641 10c0 4889C7   		movq	%rax, %rdi
 2642 10c3 E8000000 		call	_ZN17RecordingReporterD1Ev
 2642      00
 2643 10c8 4889D8   		movq	%rbx, %rax
 2644 10cb 4889C7   		movq	%rax, %rdi
 2645              	.LEHB69:
 2646 10ce E8000000 		call	_Unwind_Resume@PLT
 2646      00
 2647              	.LEHE69:
 2648              	.L127:
 2649 10d3 E8000000 		call	__stack_chk_fail@PLT
 2649      00
 2650              	.L120:
 2651 10d8 488B5DF8 		movq	-8(%rbp), %rbx
 2652 10dc C9       		leave
 2653              		.cfi_def_cfa 7, 8
 2654 10dd C3       		ret
 2655              		.cfi_endproc
 2656              	.LFE1184:
 2657              		.section	.gcc_except_table
 2658              		.align 4
 2659              	.LLSDA1184:
 2660 0178 FF       		.byte	0xff
 2661 0179 9B       		.byte	0x9b
 2662 017a 41       		.uleb128 .LLSDATT1184-.LLSDATTD1184
 2663              	.LLSDATTD1184:
 2664 017b 01       		.byte	0x1
 2665 017c 38       		.uleb128 .LLSDACSE1184-.LLSDACSB1184
 2666              	.LLSDACSB1184:
 2667 017d 49       		.uleb128 .LEHB60-.LFB1184
 2668 017e 23       		.uleb128 .LEHE60-.LEHB60
 2669 017f CC04     		.uleb128 .L124-.LFB1184
 2670 0181 00       		.uleb128 0
 2671 0182 6C       		.uleb128 .LEHB61-.LFB1184
 2672 0183 5C       		.uleb128 .LEHE61-.LEHB61
 2673 0184 EC02     		.uleb128 .L121-.LFB1184
 2674 0186 01       		.uleb128 0x1
 2675 0187 D201     		.uleb128 .LEHB62-.LFB1184
 2676 0189 05       		.uleb128 .LEHE62-.LEHB62
 2677 018a CC04     		.uleb128 .L124-.LFB1184
 2678 018c 00       		.uleb128 0
 2679 018d 8502     		.uleb128 .LEHB63-.LFB1184
 2680 018f 40       		.uleb128 .LEHE63-.LEHB63
 2681 0190 E803     		.uleb128 .L125-.LFB1184
 2682 0192 01       		.uleb128 0x1
 2683 0193 CF02     		.uleb128 .LEHB64-.LFB1184
 2684 0195 05       		.uleb128 .LEHE64-.LEHB64
 2685 0196 00       		.uleb128 0
 2686 0197 00       		.uleb128 0
 2687 0198 F802     		.uleb128 .LEHB65-.LFB1184
 2688 019a 40       		.uleb128 .LEHE65-.LEHB65
 2689 019b C203     		.uleb128 .L123-.LFB1184
 2690 019d 00       		.uleb128 0
 2691 019e B803     		.uleb128 .LEHB66-.LFB1184
 2692 01a0 05       		.uleb128 .LEHE66-.LEHB66
 2693 01a1 D003     		.uleb128 .L122-.LFB1184
 2694 01a3 00       		.uleb128 0
 2695 01a4 F403     		.uleb128 .LEHB67-.LFB1184
 2696 01a6 40       		.uleb128 .LEHE67-.LEHB67
 2697 01a7 BE04     		.uleb128 .L126-.LFB1184
 2698 01a9 00       		.uleb128 0
 2699 01aa B404     		.uleb128 .LEHB68-.LFB1184
 2700 01ac 05       		.uleb128 .LEHE68-.LEHB68
 2701 01ad CC04     		.uleb128 .L124-.LFB1184
 2702 01af 00       		.uleb128 0
 2703 01b0 E804     		.uleb128 .LEHB69-.LFB1184
 2704 01b2 05       		.uleb128 .LEHE69-.LEHB69
 2705 01b3 00       		.uleb128 0
 2706 01b4 00       		.uleb128 0
 2707              	.LLSDACSE1184:
 2708 01b5 01       		.byte	0x1
 2709 01b6 00       		.byte	0
 2710 01b7 00       		.align 4
 2711 01b8 00000000 		.long	0
 2712              	
 2713              	.LLSDATT1184:
 2714              		.text
 2716              		.section	.rodata
 2717              	.LC27:
 2718 03a4 43686563 		.string	"CheckEqualSucceedsOnEqual"
 2718      6B457175 
 2718      616C5375 
 2718      63636565 
 2718      64734F6E 
 2719              		.text
 2720              		.align 2
 2722              	_ZN12_GLOBAL__N_129TestCheckEqualSucceedsOnEqualC2Ev:
 2723              	.LFB1186:
  95:TestCheckMacros.cpp **** 
  96:TestCheckMacros.cpp **** TEST(CheckEqualSucceedsOnEqual)
 2724              		.loc 6 96 1
 2725              		.cfi_startproc
 2726 10de 55       		pushq	%rbp
 2727              		.cfi_def_cfa_offset 16
 2728              		.cfi_offset 6, -16
 2729 10df 4889E5   		movq	%rsp, %rbp
 2730              		.cfi_def_cfa_register 6
 2731 10e2 53       		pushq	%rbx
 2732 10e3 4883EC18 		subq	$24, %rsp
 2733              		.cfi_offset 3, -24
 2734 10e7 48897DE8 		movq	%rdi, -24(%rbp)
 2735              	.LBB26:
 2736              		.loc 6 96 1
 2737 10eb 488B5DE8 		movq	-24(%rbp), %rbx
 2738 10ef E8000000 		call	_ZN13UnitTestSuite12GetSuiteNameEv
 2738      00
 2739 10f4 4889C2   		movq	%rax, %rdx
 2740 10f7 41B86000 		movl	$96, %r8d
 2740      0000
 2741 10fd 488D0500 		leaq	.LC2(%rip), %rax
 2741      000000
 2742 1104 4889C1   		movq	%rax, %rcx
 2743 1107 488D0500 		leaq	.LC27(%rip), %rax
 2743      000000
 2744 110e 4889C6   		movq	%rax, %rsi
 2745 1111 4889DF   		movq	%rbx, %rdi
 2746 1114 E8000000 		call	_ZN8UnitTest4TestC2EPKcS2_S2_i@PLT
 2746      00
 2747 1119 488D1500 		leaq	16+_ZTVN12_GLOBAL__N_129TestCheckEqualSucceedsOnEqualE(%rip), %rdx
 2747      000000
 2748 1120 488B45E8 		movq	-24(%rbp), %rax
 2749 1124 488910   		movq	%rdx, (%rax)
 2750              	.LBE26:
 2751 1127 90       		nop
 2752 1128 488B5DF8 		movq	-8(%rbp), %rbx
 2753 112c C9       		leave
 2754              		.cfi_def_cfa 7, 8
 2755 112d C3       		ret
 2756              		.cfi_endproc
 2757              	.LFE1186:
 2759              		.set	_ZN12_GLOBAL__N_129TestCheckEqualSucceedsOnEqualC1Ev,_ZN12_GLOBAL__N_129TestCheckEqualSucceed
 2760              		.local	_ZN12_GLOBAL__N_137testCheckEqualSucceedsOnEqualInstanceE
 2761              		.comm	_ZN12_GLOBAL__N_137testCheckEqualSucceedsOnEqualInstanceE,56,32
 2762              		.local	_ZN12_GLOBAL__N_130adderCheckEqualSucceedsOnEqualE
 2763              		.comm	_ZN12_GLOBAL__N_130adderCheckEqualSucceedsOnEqualE,1,1
 2764              		.section	.rodata
 2765 03be 0000     		.align 8
 2766              	.LC28:
 2767 03c0 556E6861 		.string	"Unhandled exception in CHECK_EQUAL(1, 1)"
 2767      6E646C65 
 2767      64206578 
 2767      63657074 
 2767      696F6E20 
 2768              		.text
 2769              		.align 2
 2771              	_ZNK12_GLOBAL__N_129TestCheckEqualSucceedsOnEqual7RunImplEv:
 2772              	.LFB1188:
  97:TestCheckMacros.cpp **** {
 2773              		.loc 6 97 1
 2774              		.cfi_startproc
 2775              		.cfi_personality 0x9b,DW.ref.__gxx_personality_v0
 2776              		.cfi_lsda 0x1b,.LLSDA1188
 2777 112e F30F1EFA 		endbr64
 2778 1132 55       		pushq	%rbp
 2779              		.cfi_def_cfa_offset 16
 2780              		.cfi_offset 6, -16
 2781 1133 4889E5   		movq	%rsp, %rbp
 2782              		.cfi_def_cfa_register 6
 2783 1136 53       		pushq	%rbx
 2784 1137 4881ECB8 		subq	$2232, %rsp
 2784      080000
 2785              		.cfi_offset 3, -24
 2786 113e 4889BD48 		movq	%rdi, -2232(%rbp)
 2786      F7FFFF
 2787              		.loc 6 97 1
 2788 1145 64488B04 		movq	%fs:40, %rax
 2788      25280000 
 2788      00
 2789 114e 488945E8 		movq	%rax, -24(%rbp)
 2790 1152 31C0     		xorl	%eax, %eax
  98:TestCheckMacros.cpp ****     bool failure = true;
 2791              		.loc 6 98 10
 2792 1154 C68557F7 		movb	$1, -2217(%rbp)
 2792      FFFF01
 2793              	.LBB27:
  99:TestCheckMacros.cpp ****     {
 100:TestCheckMacros.cpp ****         RecordingReporter reporter;
 2794              		.loc 6 100 27
 2795 115b 488D85B0 		leaq	-2128(%rbp), %rax
 2795      F7FFFF
 2796 1162 4889C7   		movq	%rax, %rdi
 2797 1165 E8000000 		call	_ZN17RecordingReporterC1Ev
 2797      00
 101:TestCheckMacros.cpp ****         UnitTest::TestResults testResults(&reporter);
 2798              		.loc 6 101 52
 2799 116a 488D95B0 		leaq	-2128(%rbp), %rdx
 2799      F7FFFF
 2800 1171 488D8570 		leaq	-2192(%rbp), %rax
 2800      F7FFFF
 2801 1178 4889D6   		movq	%rdx, %rsi
 2802 117b 4889C7   		movq	%rax, %rdi
 2803              	.LEHB70:
 2804 117e E8000000 		call	_ZN8UnitTest11TestResultsC1EPNS_12TestReporterE@PLT
 2804      00
 102:TestCheckMacros.cpp **** 		ScopedCurrentTest scopedResults(testResults);
 2805              		.loc 6 102 46
 2806 1183 488D8D70 		leaq	-2192(%rbp), %rcx
 2806      F7FFFF
 2807 118a 488D8560 		leaq	-2208(%rbp), %rax
 2807      F7FFFF
 2808 1191 BA000000 		movl	$0, %edx
 2808      00
 2809 1196 4889CE   		movq	%rcx, %rsi
 2810 1199 4889C7   		movq	%rax, %rdi
 2811 119c E8000000 		call	_ZN17ScopedCurrentTestC1ERN8UnitTest11TestResultsEPKNS0_11TestDetailsE
 2811      00
 2812              	.LEHE70:
 2813              	.LEHB71:
 103:TestCheckMacros.cpp ****         CHECK_EQUAL(1, 1);
 2814              		.loc 6 103 9
 2815 11a1 E8000000 		call	_ZN8UnitTest11CurrentTest7DetailsEv@PLT
 2815      00
 2816 11a6 488B08   		movq	(%rax), %rcx
 2817 11a9 488D8590 		leaq	-2160(%rbp), %rax
 2817      F7FFFF
 2818 11b0 BA670000 		movl	$103, %edx
 2818      00
 2819 11b5 4889CE   		movq	%rcx, %rsi
 2820 11b8 4889C7   		movq	%rax, %rdi
 2821 11bb E8000000 		call	_ZN8UnitTest11TestDetailsC1ERKS0_i@PLT
 2821      00
 2822              		.loc 6 103 9 is_stmt 0 discriminator 4
 2823 11c0 C7855CF7 		movl	$1, -2212(%rbp)
 2823      FFFF0100 
 2823      0000
 2824 11ca C78558F7 		movl	$1, -2216(%rbp)
 2824      FFFF0100 
 2824      0000
 2825 11d4 E8000000 		call	_ZN8UnitTest11CurrentTest7ResultsEv@PLT
 2825      00
 2826 11d9 488B00   		movq	(%rax), %rax
 2827 11dc 488D8D90 		leaq	-2160(%rbp), %rcx
 2827      F7FFFF
 2828 11e3 488D955C 		leaq	-2212(%rbp), %rdx
 2828      F7FFFF
 2829 11ea 488DB558 		leaq	-2216(%rbp), %rsi
 2829      F7FFFF
 2830 11f1 4889C7   		movq	%rax, %rdi
 2831 11f4 E8000000 		call	_ZN8UnitTest10CheckEqualIiiEEvRNS_11TestResultsERKT_RKT0_RKNS_11TestDetailsE
 2831      00
 2832              	.LEHE71:
 2833              	.L132:
 104:TestCheckMacros.cpp ****         failure = (testResults.GetFailureCount() > 0);
 2834              		.loc 6 104 47 is_stmt 1
 2835 11f9 488D8570 		leaq	-2192(%rbp), %rax
 2835      F7FFFF
 2836 1200 4889C7   		movq	%rax, %rdi
 2837              	.LEHB72:
 2838 1203 E8000000 		call	_ZNK8UnitTest11TestResults15GetFailureCountEv@PLT
 2838      00
 2839              	.LEHE72:
 2840              		.loc 6 104 17
 2841 1208 85C0     		testl	%eax, %eax
 2842 120a 0F9FC0   		setg	%al
 2843 120d 888557F7 		movb	%al, -2217(%rbp)
 2843      FFFF
 105:TestCheckMacros.cpp ****     }
 2844              		.loc 6 105 5
 2845 1213 488D8560 		leaq	-2208(%rbp), %rax
 2845      F7FFFF
 2846 121a 4889C7   		movq	%rax, %rdi
 2847              	.LEHB73:
 2848 121d E8000000 		call	_ZN17ScopedCurrentTestD1Ev
 2848      00
 2849              	.LEHE73:
 2850              		.loc 6 105 5 is_stmt 0 discriminator 2
 2851 1222 488D85B0 		leaq	-2128(%rbp), %rax
 2851      F7FFFF
 2852 1229 4889C7   		movq	%rax, %rdi
 2853              	.LEHB74:
 2854 122c E8000000 		call	_ZN17RecordingReporterD1Ev
 2854      00
 2855              	.LEHE74:
 2856              	.LBE27:
 106:TestCheckMacros.cpp **** 
 107:TestCheckMacros.cpp ****     CHECK(!failure);
 2857              		.loc 6 107 5 is_stmt 1 discriminator 2
 2858 1231 0FB68557 		movzbl	-2217(%rbp), %eax
 2858      F7FFFF
 2859 1238 83F001   		xorl	$1, %eax
 2860 123b 0FB6C0   		movzbl	%al, %eax
 2861 123e 89C7     		movl	%eax, %edi
 2862 1240 E8000000 		call	_ZN8UnitTest5CheckIbEEbT_
 2862      00
 2863 1245 83F001   		xorl	$1, %eax
 2864 1248 84C0     		testb	%al, %al
 2865 124a 0F844C01 		je	.L145
 2865      0000
 2866              	.LEHB75:
 2867              		.loc 6 107 5 is_stmt 0 discriminator 1
 2868 1250 E8000000 		call	_ZN8UnitTest11CurrentTest7ResultsEv@PLT
 2868      00
 2869 1255 488B18   		movq	(%rax), %rbx
 2870 1258 E8000000 		call	_ZN8UnitTest11CurrentTest7DetailsEv@PLT
 2870      00
 2871              		.loc 6 107 5 discriminator 3
 2872 125d 488B08   		movq	(%rax), %rcx
 2873 1260 488D8590 		leaq	-2160(%rbp), %rax
 2873      F7FFFF
 2874 1267 BA6B0000 		movl	$107, %edx
 2874      00
 2875 126c 4889CE   		movq	%rcx, %rsi
 2876 126f 4889C7   		movq	%rax, %rdi
 2877 1272 E8000000 		call	_ZN8UnitTest11TestDetailsC1ERKS0_i@PLT
 2877      00
 2878              		.loc 6 107 5 discriminator 7
 2879 1277 488D8590 		leaq	-2160(%rbp), %rax
 2879      F7FFFF
 2880 127e 488D1500 		leaq	.LC5(%rip), %rdx
 2880      000000
 2881 1285 4889C6   		movq	%rax, %rsi
 2882 1288 4889DF   		movq	%rbx, %rdi
 2883 128b E8000000 		call	_ZN8UnitTest11TestResults13OnTestFailureERKNS_11TestDetailsEPKc@PLT
 2883      00
 2884              	.LEHE75:
 108:TestCheckMacros.cpp **** }
 2885              		.loc 6 108 1 is_stmt 1
 2886 1290 E9070100 		jmp	.L145
 2886      00
 2887              	.L140:
 2888 1295 F30F1EFA 		endbr64
 2889              	.LBB28:
 103:TestCheckMacros.cpp ****         failure = (testResults.GetFailureCount() > 0);
 2890              		.loc 6 103 9
 2891 1299 4889C7   		movq	%rax, %rdi
 2892 129c E8000000 		call	__cxa_begin_catch@PLT
 2892      00
 2893              	.LEHB76:
 2894 12a1 E8000000 		call	_ZN8UnitTest11CurrentTest7ResultsEv@PLT
 2894      00
 103:TestCheckMacros.cpp ****         failure = (testResults.GetFailureCount() > 0);
 2895              		.loc 6 103 9 is_stmt 0 discriminator 3
 2896 12a6 488B18   		movq	(%rax), %rbx
 2897 12a9 E8000000 		call	_ZN8UnitTest11CurrentTest7DetailsEv@PLT
 2897      00
 103:TestCheckMacros.cpp ****         failure = (testResults.GetFailureCount() > 0);
 2898              		.loc 6 103 9 discriminator 11
 2899 12ae 488B08   		movq	(%rax), %rcx
 2900 12b1 488D8590 		leaq	-2160(%rbp), %rax
 2900      F7FFFF
 2901 12b8 BA670000 		movl	$103, %edx
 2901      00
 2902 12bd 4889CE   		movq	%rcx, %rsi
 2903 12c0 4889C7   		movq	%rax, %rdi
 2904 12c3 E8000000 		call	_ZN8UnitTest11TestDetailsC1ERKS0_i@PLT
 2904      00
 103:TestCheckMacros.cpp ****         failure = (testResults.GetFailureCount() > 0);
 2905              		.loc 6 103 9 discriminator 15
 2906 12c8 488D8590 		leaq	-2160(%rbp), %rax
 2906      F7FFFF
 2907 12cf 488D1500 		leaq	.LC28(%rip), %rdx
 2907      000000
 2908 12d6 4889C6   		movq	%rax, %rsi
 2909 12d9 4889DF   		movq	%rbx, %rdi
 2910 12dc E8000000 		call	_ZN8UnitTest11TestResults13OnTestFailureERKNS_11TestDetailsEPKc@PLT
 2910      00
 2911              	.LEHE76:
 2912              	.LEHB77:
 103:TestCheckMacros.cpp ****         failure = (testResults.GetFailureCount() > 0);
 2913              		.loc 6 103 9 discriminator 17
 2914 12e1 E8000000 		call	__cxa_end_catch@PLT
 2914      00
 2915              	.LEHE77:
 103:TestCheckMacros.cpp ****         failure = (testResults.GetFailureCount() > 0);
 2916              		.loc 6 103 9
 2917 12e6 E90EFFFF 		jmp	.L132
 2917      FF
 2918              	.L142:
 2919 12eb F30F1EFA 		endbr64
 2920 12ef 4889C3   		movq	%rax, %rbx
 2921 12f2 E8000000 		call	__cxa_end_catch@PLT
 2921      00
 2922 12f7 EB07     		jmp	.L134
 2923              	.L141:
 2924 12f9 F30F1EFA 		endbr64
 105:TestCheckMacros.cpp **** 
 2925              		.loc 6 105 5 is_stmt 1
 2926 12fd 4889C3   		movq	%rax, %rbx
 2927              	.L134:
 2928 1300 488D8560 		leaq	-2208(%rbp), %rax
 2928      F7FFFF
 2929 1307 4889C7   		movq	%rax, %rdi
 2930 130a E8000000 		call	_ZN17ScopedCurrentTestD1Ev
 2930      00
 2931 130f EB07     		jmp	.L135
 2932              	.L139:
 2933 1311 F30F1EFA 		endbr64
 2934 1315 4889C3   		movq	%rax, %rbx
 2935              	.L135:
 105:TestCheckMacros.cpp **** 
 2936              		.loc 6 105 5 is_stmt 0 discriminator 1
 2937 1318 488D85B0 		leaq	-2128(%rbp), %rax
 2937      F7FFFF
 2938 131f 4889C7   		movq	%rax, %rdi
 2939 1322 E8000000 		call	_ZN17RecordingReporterD1Ev
 2939      00
 2940 1327 4889D8   		movq	%rbx, %rax
 2941 132a 4889C7   		movq	%rax, %rdi
 2942              	.LEHB78:
 2943 132d E8000000 		call	_Unwind_Resume@PLT
 2943      00
 2944              	.LEHE78:
 2945              	.L143:
 2946 1332 F30F1EFA 		endbr64
 2947              	.LBE28:
 107:TestCheckMacros.cpp **** }
 2948              		.loc 6 107 5 is_stmt 1
 2949 1336 4889C7   		movq	%rax, %rdi
 2950 1339 E8000000 		call	__cxa_begin_catch@PLT
 2950      00
 2951              	.LEHB79:
 2952 133e E8000000 		call	_ZN8UnitTest11CurrentTest7ResultsEv@PLT
 2952      00
 107:TestCheckMacros.cpp **** }
 2953              		.loc 6 107 5 is_stmt 0 discriminator 6
 2954 1343 488B18   		movq	(%rax), %rbx
 2955 1346 E8000000 		call	_ZN8UnitTest11CurrentTest7DetailsEv@PLT
 2955      00
 107:TestCheckMacros.cpp **** }
 2956              		.loc 6 107 5 discriminator 12
 2957 134b 488B08   		movq	(%rax), %rcx
 2958 134e 488D8590 		leaq	-2160(%rbp), %rax
 2958      F7FFFF
 2959 1355 BA6B0000 		movl	$107, %edx
 2959      00
 2960 135a 4889CE   		movq	%rcx, %rsi
 2961 135d 4889C7   		movq	%rax, %rdi
 2962 1360 E8000000 		call	_ZN8UnitTest11TestDetailsC1ERKS0_i@PLT
 2962      00
 107:TestCheckMacros.cpp **** }
 2963              		.loc 6 107 5 discriminator 16
 2964 1365 488D8590 		leaq	-2160(%rbp), %rax
 2964      F7FFFF
 2965 136c 488D1500 		leaq	.LC7(%rip), %rdx
 2965      000000
 2966 1373 4889C6   		movq	%rax, %rsi
 2967 1376 4889DF   		movq	%rbx, %rdi
 2968 1379 E8000000 		call	_ZN8UnitTest11TestResults13OnTestFailureERKNS_11TestDetailsEPKc@PLT
 2968      00
 2969              	.LEHE79:
 2970              	.LEHB80:
 107:TestCheckMacros.cpp **** }
 2971              		.loc 6 107 5 discriminator 18
 2972 137e E8000000 		call	__cxa_end_catch@PLT
 2972      00
 2973              	.LEHE80:
 2974              		.loc 6 108 1 is_stmt 1 discriminator 18
 2975 1383 EB17     		jmp	.L145
 2976              	.L144:
 2977 1385 F30F1EFA 		endbr64
 107:TestCheckMacros.cpp **** }
 2978              		.loc 6 107 5
 2979 1389 4889C3   		movq	%rax, %rbx
 2980 138c E8000000 		call	__cxa_end_catch@PLT
 2980      00
 2981 1391 4889D8   		movq	%rbx, %rax
 2982 1394 4889C7   		movq	%rax, %rdi
 2983              	.LEHB81:
 2984 1397 E8000000 		call	_Unwind_Resume@PLT
 2984      00
 2985              	.LEHE81:
 2986              	.L145:
 2987              		.loc 6 108 1
 2988 139c 90       		nop
 2989 139d 488B45E8 		movq	-24(%rbp), %rax
 2990 13a1 64482B04 		subq	%fs:40, %rax
 2990      25280000 
 2990      00
 2991 13aa 7405     		je	.L138
 2992 13ac E8000000 		call	__stack_chk_fail@PLT
 2992      00
 2993              	.L138:
 2994 13b1 488B5DF8 		movq	-8(%rbp), %rbx
 2995 13b5 C9       		leave
 2996              		.cfi_def_cfa 7, 8
 2997 13b6 C3       		ret
 2998              		.cfi_endproc
 2999              	.LFE1188:
 3000              		.section	.gcc_except_table
 3001              		.align 4
 3002              	.LLSDA1188:
 3003 01bc FF       		.byte	0xff
 3004 01bd 9B       		.byte	0x9b
 3005 01be 4D       		.uleb128 .LLSDATT1188-.LLSDATTD1188
 3006              	.LLSDATTD1188:
 3007 01bf 01       		.byte	0x1
 3008 01c0 42       		.uleb128 .LLSDACSE1188-.LLSDACSB1188
 3009              	.LLSDACSB1188:
 3010 01c1 50       		.uleb128 .LEHB70-.LFB1188
 3011 01c2 23       		.uleb128 .LEHE70-.LEHB70
 3012 01c3 E303     		.uleb128 .L139-.LFB1188
 3013 01c5 00       		.uleb128 0
 3014 01c6 73       		.uleb128 .LEHB71-.LFB1188
 3015 01c7 58       		.uleb128 .LEHE71-.LEHB71
 3016 01c8 E702     		.uleb128 .L140-.LFB1188
 3017 01ca 01       		.uleb128 0x1
 3018 01cb D501     		.uleb128 .LEHB72-.LFB1188
 3019 01cd 05       		.uleb128 .LEHE72-.LEHB72
 3020 01ce CB03     		.uleb128 .L141-.LFB1188
 3021 01d0 00       		.uleb128 0
 3022 01d1 EF01     		.uleb128 .LEHB73-.LFB1188
 3023 01d3 05       		.uleb128 .LEHE73-.LEHB73
 3024 01d4 E303     		.uleb128 .L139-.LFB1188
 3025 01d6 00       		.uleb128 0
 3026 01d7 FE01     		.uleb128 .LEHB74-.LFB1188
 3027 01d9 05       		.uleb128 .LEHE74-.LEHB74
 3028 01da 00       		.uleb128 0
 3029 01db 00       		.uleb128 0
 3030 01dc A202     		.uleb128 .LEHB75-.LFB1188
 3031 01de 40       		.uleb128 .LEHE75-.LEHB75
 3032 01df 8404     		.uleb128 .L143-.LFB1188
 3033 01e1 01       		.uleb128 0x1
 3034 01e2 F302     		.uleb128 .LEHB76-.LFB1188
 3035 01e4 40       		.uleb128 .LEHE76-.LEHB76
 3036 01e5 BD03     		.uleb128 .L142-.LFB1188
 3037 01e7 00       		.uleb128 0
 3038 01e8 B303     		.uleb128 .LEHB77-.LFB1188
 3039 01ea 05       		.uleb128 .LEHE77-.LEHB77
 3040 01eb CB03     		.uleb128 .L141-.LFB1188
 3041 01ed 00       		.uleb128 0
 3042 01ee FF03     		.uleb128 .LEHB78-.LFB1188
 3043 01f0 05       		.uleb128 .LEHE78-.LEHB78
 3044 01f1 00       		.uleb128 0
 3045 01f2 00       		.uleb128 0
 3046 01f3 9004     		.uleb128 .LEHB79-.LFB1188
 3047 01f5 40       		.uleb128 .LEHE79-.LEHB79
 3048 01f6 D704     		.uleb128 .L144-.LFB1188
 3049 01f8 00       		.uleb128 0
 3050 01f9 D004     		.uleb128 .LEHB80-.LFB1188
 3051 01fb 05       		.uleb128 .LEHE80-.LEHB80
 3052 01fc 00       		.uleb128 0
 3053 01fd 00       		.uleb128 0
 3054 01fe E904     		.uleb128 .LEHB81-.LFB1188
 3055 0200 05       		.uleb128 .LEHE81-.LEHB81
 3056 0201 00       		.uleb128 0
 3057 0202 00       		.uleb128 0
 3058              	.LLSDACSE1188:
 3059 0203 01       		.byte	0x1
 3060 0204 00       		.byte	0
 3061 0205 000000   		.align 4
 3062 0208 00000000 		.long	0
 3063              	
 3064              	.LLSDATT1188:
 3065              		.text
 3067              		.section	.rodata
 3068              	.LC29:
 3069 03e9 43686563 		.string	"CheckEqualFailsOnNotEqual"
 3069      6B457175 
 3069      616C4661 
 3069      696C734F 
 3069      6E4E6F74 
 3070              		.text
 3071 13b7 90       		.align 2
 3073              	_ZN12_GLOBAL__N_129TestCheckEqualFailsOnNotEqualC2Ev:
 3074              	.LFB1190:
 109:TestCheckMacros.cpp **** 
 110:TestCheckMacros.cpp **** TEST(CheckEqualFailsOnNotEqual)
 3075              		.loc 6 110 1
 3076              		.cfi_startproc
 3077 13b8 55       		pushq	%rbp
 3078              		.cfi_def_cfa_offset 16
 3079              		.cfi_offset 6, -16
 3080 13b9 4889E5   		movq	%rsp, %rbp
 3081              		.cfi_def_cfa_register 6
 3082 13bc 53       		pushq	%rbx
 3083 13bd 4883EC18 		subq	$24, %rsp
 3084              		.cfi_offset 3, -24
 3085 13c1 48897DE8 		movq	%rdi, -24(%rbp)
 3086              	.LBB29:
 3087              		.loc 6 110 1
 3088 13c5 488B5DE8 		movq	-24(%rbp), %rbx
 3089 13c9 E8000000 		call	_ZN13UnitTestSuite12GetSuiteNameEv
 3089      00
 3090 13ce 4889C2   		movq	%rax, %rdx
 3091 13d1 41B86E00 		movl	$110, %r8d
 3091      0000
 3092 13d7 488D0500 		leaq	.LC2(%rip), %rax
 3092      000000
 3093 13de 4889C1   		movq	%rax, %rcx
 3094 13e1 488D0500 		leaq	.LC29(%rip), %rax
 3094      000000
 3095 13e8 4889C6   		movq	%rax, %rsi
 3096 13eb 4889DF   		movq	%rbx, %rdi
 3097 13ee E8000000 		call	_ZN8UnitTest4TestC2EPKcS2_S2_i@PLT
 3097      00
 3098 13f3 488D1500 		leaq	16+_ZTVN12_GLOBAL__N_129TestCheckEqualFailsOnNotEqualE(%rip), %rdx
 3098      000000
 3099 13fa 488B45E8 		movq	-24(%rbp), %rax
 3100 13fe 488910   		movq	%rdx, (%rax)
 3101              	.LBE29:
 3102 1401 90       		nop
 3103 1402 488B5DF8 		movq	-8(%rbp), %rbx
 3104 1406 C9       		leave
 3105              		.cfi_def_cfa 7, 8
 3106 1407 C3       		ret
 3107              		.cfi_endproc
 3108              	.LFE1190:
 3110              		.set	_ZN12_GLOBAL__N_129TestCheckEqualFailsOnNotEqualC1Ev,_ZN12_GLOBAL__N_129TestCheckEqualFailsOn
 3111              		.local	_ZN12_GLOBAL__N_137testCheckEqualFailsOnNotEqualInstanceE
 3112              		.comm	_ZN12_GLOBAL__N_137testCheckEqualFailsOnNotEqualInstanceE,56,32
 3113              		.local	_ZN12_GLOBAL__N_130adderCheckEqualFailsOnNotEqualE
 3114              		.comm	_ZN12_GLOBAL__N_130adderCheckEqualFailsOnNotEqualE,1,1
 3115              		.section	.rodata
 3116 0403 00000000 		.align 8
 3116      00
 3117              	.LC30:
 3118 0408 556E6861 		.string	"Unhandled exception in CHECK_EQUAL(1, 2)"
 3118      6E646C65 
 3118      64206578 
 3118      63657074 
 3118      696F6E20 
 3119              		.text
 3120              		.align 2
 3122              	_ZNK12_GLOBAL__N_129TestCheckEqualFailsOnNotEqual7RunImplEv:
 3123              	.LFB1192:
 111:TestCheckMacros.cpp **** {
 3124              		.loc 6 111 1
 3125              		.cfi_startproc
 3126              		.cfi_personality 0x9b,DW.ref.__gxx_personality_v0
 3127              		.cfi_lsda 0x1b,.LLSDA1192
 3128 1408 F30F1EFA 		endbr64
 3129 140c 55       		pushq	%rbp
 3130              		.cfi_def_cfa_offset 16
 3131              		.cfi_offset 6, -16
 3132 140d 4889E5   		movq	%rsp, %rbp
 3133              		.cfi_def_cfa_register 6
 3134 1410 53       		pushq	%rbx
 3135 1411 4881ECB8 		subq	$2232, %rsp
 3135      080000
 3136              		.cfi_offset 3, -24
 3137 1418 4889BD48 		movq	%rdi, -2232(%rbp)
 3137      F7FFFF
 3138              		.loc 6 111 1
 3139 141f 64488B04 		movq	%fs:40, %rax
 3139      25280000 
 3139      00
 3140 1428 488945E8 		movq	%rax, -24(%rbp)
 3141 142c 31C0     		xorl	%eax, %eax
 112:TestCheckMacros.cpp ****     bool failure = false;
 3142              		.loc 6 112 10
 3143 142e C68557F7 		movb	$0, -2217(%rbp)
 3143      FFFF00
 3144              	.LBB30:
 113:TestCheckMacros.cpp ****     {
 114:TestCheckMacros.cpp ****         RecordingReporter reporter;
 3145              		.loc 6 114 27
 3146 1435 488D85B0 		leaq	-2128(%rbp), %rax
 3146      F7FFFF
 3147 143c 4889C7   		movq	%rax, %rdi
 3148 143f E8000000 		call	_ZN17RecordingReporterC1Ev
 3148      00
 115:TestCheckMacros.cpp ****         UnitTest::TestResults testResults(&reporter);
 3149              		.loc 6 115 52
 3150 1444 488D95B0 		leaq	-2128(%rbp), %rdx
 3150      F7FFFF
 3151 144b 488D8570 		leaq	-2192(%rbp), %rax
 3151      F7FFFF
 3152 1452 4889D6   		movq	%rdx, %rsi
 3153 1455 4889C7   		movq	%rax, %rdi
 3154              	.LEHB82:
 3155 1458 E8000000 		call	_ZN8UnitTest11TestResultsC1EPNS_12TestReporterE@PLT
 3155      00
 116:TestCheckMacros.cpp **** 		ScopedCurrentTest scopedResults(testResults);
 3156              		.loc 6 116 46
 3157 145d 488D8D70 		leaq	-2192(%rbp), %rcx
 3157      F7FFFF
 3158 1464 488D8560 		leaq	-2208(%rbp), %rax
 3158      F7FFFF
 3159 146b BA000000 		movl	$0, %edx
 3159      00
 3160 1470 4889CE   		movq	%rcx, %rsi
 3161 1473 4889C7   		movq	%rax, %rdi
 3162 1476 E8000000 		call	_ZN17ScopedCurrentTestC1ERN8UnitTest11TestResultsEPKNS0_11TestDetailsE
 3162      00
 3163              	.LEHE82:
 3164              	.LEHB83:
 117:TestCheckMacros.cpp ****         CHECK_EQUAL(1, 2);
 3165              		.loc 6 117 9
 3166 147b E8000000 		call	_ZN8UnitTest11CurrentTest7DetailsEv@PLT
 3166      00
 3167 1480 488B08   		movq	(%rax), %rcx
 3168 1483 488D8590 		leaq	-2160(%rbp), %rax
 3168      F7FFFF
 3169 148a BA750000 		movl	$117, %edx
 3169      00
 3170 148f 4889CE   		movq	%rcx, %rsi
 3171 1492 4889C7   		movq	%rax, %rdi
 3172 1495 E8000000 		call	_ZN8UnitTest11TestDetailsC1ERKS0_i@PLT
 3172      00
 3173              		.loc 6 117 9 is_stmt 0 discriminator 4
 3174 149a C7855CF7 		movl	$2, -2212(%rbp)
 3174      FFFF0200 
 3174      0000
 3175 14a4 C78558F7 		movl	$1, -2216(%rbp)
 3175      FFFF0100 
 3175      0000
 3176 14ae E8000000 		call	_ZN8UnitTest11CurrentTest7ResultsEv@PLT
 3176      00
 3177 14b3 488B00   		movq	(%rax), %rax
 3178 14b6 488D8D90 		leaq	-2160(%rbp), %rcx
 3178      F7FFFF
 3179 14bd 488D955C 		leaq	-2212(%rbp), %rdx
 3179      F7FFFF
 3180 14c4 488DB558 		leaq	-2216(%rbp), %rsi
 3180      F7FFFF
 3181 14cb 4889C7   		movq	%rax, %rdi
 3182 14ce E8000000 		call	_ZN8UnitTest10CheckEqualIiiEEvRNS_11TestResultsERKT_RKT0_RKNS_11TestDetailsE
 3182      00
 3183              	.LEHE83:
 3184              	.L150:
 118:TestCheckMacros.cpp ****         failure = (testResults.GetFailureCount() > 0);
 3185              		.loc 6 118 47 is_stmt 1
 3186 14d3 488D8570 		leaq	-2192(%rbp), %rax
 3186      F7FFFF
 3187 14da 4889C7   		movq	%rax, %rdi
 3188              	.LEHB84:
 3189 14dd E8000000 		call	_ZNK8UnitTest11TestResults15GetFailureCountEv@PLT
 3189      00
 3190              	.LEHE84:
 3191              		.loc 6 118 17
 3192 14e2 85C0     		testl	%eax, %eax
 3193 14e4 0F9FC0   		setg	%al
 3194 14e7 888557F7 		movb	%al, -2217(%rbp)
 3194      FFFF
 119:TestCheckMacros.cpp ****     }
 3195              		.loc 6 119 5
 3196 14ed 488D8560 		leaq	-2208(%rbp), %rax
 3196      F7FFFF
 3197 14f4 4889C7   		movq	%rax, %rdi
 3198              	.LEHB85:
 3199 14f7 E8000000 		call	_ZN17ScopedCurrentTestD1Ev
 3199      00
 3200              	.LEHE85:
 3201              		.loc 6 119 5 is_stmt 0 discriminator 2
 3202 14fc 488D85B0 		leaq	-2128(%rbp), %rax
 3202      F7FFFF
 3203 1503 4889C7   		movq	%rax, %rdi
 3204              	.LEHB86:
 3205 1506 E8000000 		call	_ZN17RecordingReporterD1Ev
 3205      00
 3206              	.LEHE86:
 3207              	.LBE30:
 120:TestCheckMacros.cpp **** 
 121:TestCheckMacros.cpp ****     CHECK(failure);
 3208              		.loc 6 121 5 is_stmt 1 discriminator 2
 3209 150b 0FB68557 		movzbl	-2217(%rbp), %eax
 3209      F7FFFF
 3210 1512 89C7     		movl	%eax, %edi
 3211 1514 E8000000 		call	_ZN8UnitTest5CheckIbEEbT_
 3211      00
 3212 1519 83F001   		xorl	$1, %eax
 3213 151c 84C0     		testb	%al, %al
 3214 151e 0F844C01 		je	.L163
 3214      0000
 3215              	.LEHB87:
 3216              		.loc 6 121 5 is_stmt 0 discriminator 1
 3217 1524 E8000000 		call	_ZN8UnitTest11CurrentTest7ResultsEv@PLT
 3217      00
 3218 1529 488B18   		movq	(%rax), %rbx
 3219 152c E8000000 		call	_ZN8UnitTest11CurrentTest7DetailsEv@PLT
 3219      00
 3220              		.loc 6 121 5 discriminator 3
 3221 1531 488B08   		movq	(%rax), %rcx
 3222 1534 488D8590 		leaq	-2160(%rbp), %rax
 3222      F7FFFF
 3223 153b BA790000 		movl	$121, %edx
 3223      00
 3224 1540 4889CE   		movq	%rcx, %rsi
 3225 1543 4889C7   		movq	%rax, %rdi
 3226 1546 E8000000 		call	_ZN8UnitTest11TestDetailsC1ERKS0_i@PLT
 3226      00
 3227              		.loc 6 121 5 discriminator 7
 3228 154b 488D8590 		leaq	-2160(%rbp), %rax
 3228      F7FFFF
 3229 1552 488D1500 		leaq	.LC10(%rip), %rdx
 3229      000000
 3230 1559 4889C6   		movq	%rax, %rsi
 3231 155c 4889DF   		movq	%rbx, %rdi
 3232 155f E8000000 		call	_ZN8UnitTest11TestResults13OnTestFailureERKNS_11TestDetailsEPKc@PLT
 3232      00
 3233              	.LEHE87:
 122:TestCheckMacros.cpp **** }
 3234              		.loc 6 122 1 is_stmt 1
 3235 1564 E9070100 		jmp	.L163
 3235      00
 3236              	.L158:
 3237 1569 F30F1EFA 		endbr64
 3238              	.LBB31:
 117:TestCheckMacros.cpp ****         failure = (testResults.GetFailureCount() > 0);
 3239              		.loc 6 117 9
 3240 156d 4889C7   		movq	%rax, %rdi
 3241 1570 E8000000 		call	__cxa_begin_catch@PLT
 3241      00
 3242              	.LEHB88:
 3243 1575 E8000000 		call	_ZN8UnitTest11CurrentTest7ResultsEv@PLT
 3243      00
 117:TestCheckMacros.cpp ****         failure = (testResults.GetFailureCount() > 0);
 3244              		.loc 6 117 9 is_stmt 0 discriminator 3
 3245 157a 488B18   		movq	(%rax), %rbx
 3246 157d E8000000 		call	_ZN8UnitTest11CurrentTest7DetailsEv@PLT
 3246      00
 117:TestCheckMacros.cpp ****         failure = (testResults.GetFailureCount() > 0);
 3247              		.loc 6 117 9 discriminator 11
 3248 1582 488B08   		movq	(%rax), %rcx
 3249 1585 488D8590 		leaq	-2160(%rbp), %rax
 3249      F7FFFF
 3250 158c BA750000 		movl	$117, %edx
 3250      00
 3251 1591 4889CE   		movq	%rcx, %rsi
 3252 1594 4889C7   		movq	%rax, %rdi
 3253 1597 E8000000 		call	_ZN8UnitTest11TestDetailsC1ERKS0_i@PLT
 3253      00
 117:TestCheckMacros.cpp ****         failure = (testResults.GetFailureCount() > 0);
 3254              		.loc 6 117 9 discriminator 15
 3255 159c 488D8590 		leaq	-2160(%rbp), %rax
 3255      F7FFFF
 3256 15a3 488D1500 		leaq	.LC30(%rip), %rdx
 3256      000000
 3257 15aa 4889C6   		movq	%rax, %rsi
 3258 15ad 4889DF   		movq	%rbx, %rdi
 3259 15b0 E8000000 		call	_ZN8UnitTest11TestResults13OnTestFailureERKNS_11TestDetailsEPKc@PLT
 3259      00
 3260              	.LEHE88:
 3261              	.LEHB89:
 117:TestCheckMacros.cpp ****         failure = (testResults.GetFailureCount() > 0);
 3262              		.loc 6 117 9 discriminator 17
 3263 15b5 E8000000 		call	__cxa_end_catch@PLT
 3263      00
 3264              	.LEHE89:
 117:TestCheckMacros.cpp ****         failure = (testResults.GetFailureCount() > 0);
 3265              		.loc 6 117 9
 3266 15ba E914FFFF 		jmp	.L150
 3266      FF
 3267              	.L160:
 3268 15bf F30F1EFA 		endbr64
 3269 15c3 4889C3   		movq	%rax, %rbx
 3270 15c6 E8000000 		call	__cxa_end_catch@PLT
 3270      00
 3271 15cb EB07     		jmp	.L152
 3272              	.L159:
 3273 15cd F30F1EFA 		endbr64
 119:TestCheckMacros.cpp **** 
 3274              		.loc 6 119 5 is_stmt 1
 3275 15d1 4889C3   		movq	%rax, %rbx
 3276              	.L152:
 3277 15d4 488D8560 		leaq	-2208(%rbp), %rax
 3277      F7FFFF
 3278 15db 4889C7   		movq	%rax, %rdi
 3279 15de E8000000 		call	_ZN17ScopedCurrentTestD1Ev
 3279      00
 3280 15e3 EB07     		jmp	.L153
 3281              	.L157:
 3282 15e5 F30F1EFA 		endbr64
 3283 15e9 4889C3   		movq	%rax, %rbx
 3284              	.L153:
 119:TestCheckMacros.cpp **** 
 3285              		.loc 6 119 5 is_stmt 0 discriminator 1
 3286 15ec 488D85B0 		leaq	-2128(%rbp), %rax
 3286      F7FFFF
 3287 15f3 4889C7   		movq	%rax, %rdi
 3288 15f6 E8000000 		call	_ZN17RecordingReporterD1Ev
 3288      00
 3289 15fb 4889D8   		movq	%rbx, %rax
 3290 15fe 4889C7   		movq	%rax, %rdi
 3291              	.LEHB90:
 3292 1601 E8000000 		call	_Unwind_Resume@PLT
 3292      00
 3293              	.LEHE90:
 3294              	.L161:
 3295 1606 F30F1EFA 		endbr64
 3296              	.LBE31:
 121:TestCheckMacros.cpp **** }
 3297              		.loc 6 121 5 is_stmt 1
 3298 160a 4889C7   		movq	%rax, %rdi
 3299 160d E8000000 		call	__cxa_begin_catch@PLT
 3299      00
 3300              	.LEHB91:
 3301 1612 E8000000 		call	_ZN8UnitTest11CurrentTest7ResultsEv@PLT
 3301      00
 121:TestCheckMacros.cpp **** }
 3302              		.loc 6 121 5 is_stmt 0 discriminator 6
 3303 1617 488B18   		movq	(%rax), %rbx
 3304 161a E8000000 		call	_ZN8UnitTest11CurrentTest7DetailsEv@PLT
 3304      00
 121:TestCheckMacros.cpp **** }
 3305              		.loc 6 121 5 discriminator 12
 3306 161f 488B08   		movq	(%rax), %rcx
 3307 1622 488D8590 		leaq	-2160(%rbp), %rax
 3307      F7FFFF
 3308 1629 BA790000 		movl	$121, %edx
 3308      00
 3309 162e 4889CE   		movq	%rcx, %rsi
 3310 1631 4889C7   		movq	%rax, %rdi
 3311 1634 E8000000 		call	_ZN8UnitTest11TestDetailsC1ERKS0_i@PLT
 3311      00
 121:TestCheckMacros.cpp **** }
 3312              		.loc 6 121 5 discriminator 16
 3313 1639 488D8590 		leaq	-2160(%rbp), %rax
 3313      F7FFFF
 3314 1640 488D1500 		leaq	.LC12(%rip), %rdx
 3314      000000
 3315 1647 4889C6   		movq	%rax, %rsi
 3316 164a 4889DF   		movq	%rbx, %rdi
 3317 164d E8000000 		call	_ZN8UnitTest11TestResults13OnTestFailureERKNS_11TestDetailsEPKc@PLT
 3317      00
 3318              	.LEHE91:
 3319              	.LEHB92:
 121:TestCheckMacros.cpp **** }
 3320              		.loc 6 121 5 discriminator 18
 3321 1652 E8000000 		call	__cxa_end_catch@PLT
 3321      00
 3322              	.LEHE92:
 3323              		.loc 6 122 1 is_stmt 1 discriminator 18
 3324 1657 EB17     		jmp	.L163
 3325              	.L162:
 3326 1659 F30F1EFA 		endbr64
 121:TestCheckMacros.cpp **** }
 3327              		.loc 6 121 5
 3328 165d 4889C3   		movq	%rax, %rbx
 3329 1660 E8000000 		call	__cxa_end_catch@PLT
 3329      00
 3330 1665 4889D8   		movq	%rbx, %rax
 3331 1668 4889C7   		movq	%rax, %rdi
 3332              	.LEHB93:
 3333 166b E8000000 		call	_Unwind_Resume@PLT
 3333      00
 3334              	.LEHE93:
 3335              	.L163:
 3336              		.loc 6 122 1
 3337 1670 90       		nop
 3338 1671 488B45E8 		movq	-24(%rbp), %rax
 3339 1675 64482B04 		subq	%fs:40, %rax
 3339      25280000 
 3339      00
 3340 167e 7405     		je	.L156
 3341 1680 E8000000 		call	__stack_chk_fail@PLT
 3341      00
 3342              	.L156:
 3343 1685 488B5DF8 		movq	-8(%rbp), %rbx
 3344 1689 C9       		leave
 3345              		.cfi_def_cfa 7, 8
 3346 168a C3       		ret
 3347              		.cfi_endproc
 3348              	.LFE1192:
 3349              		.section	.gcc_except_table
 3350              		.align 4
 3351              	.LLSDA1192:
 3352 020c FF       		.byte	0xff
 3353 020d 9B       		.byte	0x9b
 3354 020e 4D       		.uleb128 .LLSDATT1192-.LLSDATTD1192
 3355              	.LLSDATTD1192:
 3356 020f 01       		.byte	0x1
 3357 0210 42       		.uleb128 .LLSDACSE1192-.LLSDACSB1192
 3358              	.LLSDACSB1192:
 3359 0211 50       		.uleb128 .LEHB82-.LFB1192
 3360 0212 23       		.uleb128 .LEHE82-.LEHB82
 3361 0213 DD03     		.uleb128 .L157-.LFB1192
 3362 0215 00       		.uleb128 0
 3363 0216 73       		.uleb128 .LEHB83-.LFB1192
 3364 0217 58       		.uleb128 .LEHE83-.LEHB83
 3365 0218 E102     		.uleb128 .L158-.LFB1192
 3366 021a 01       		.uleb128 0x1
 3367 021b D501     		.uleb128 .LEHB84-.LFB1192
 3368 021d 05       		.uleb128 .LEHE84-.LEHB84
 3369 021e C503     		.uleb128 .L159-.LFB1192
 3370 0220 00       		.uleb128 0
 3371 0221 EF01     		.uleb128 .LEHB85-.LFB1192
 3372 0223 05       		.uleb128 .LEHE85-.LEHB85
 3373 0224 DD03     		.uleb128 .L157-.LFB1192
 3374 0226 00       		.uleb128 0
 3375 0227 FE01     		.uleb128 .LEHB86-.LFB1192
 3376 0229 05       		.uleb128 .LEHE86-.LEHB86
 3377 022a 00       		.uleb128 0
 3378 022b 00       		.uleb128 0
 3379 022c 9C02     		.uleb128 .LEHB87-.LFB1192
 3380 022e 40       		.uleb128 .LEHE87-.LEHB87
 3381 022f FE03     		.uleb128 .L161-.LFB1192
 3382 0231 01       		.uleb128 0x1
 3383 0232 ED02     		.uleb128 .LEHB88-.LFB1192
 3384 0234 40       		.uleb128 .LEHE88-.LEHB88
 3385 0235 B703     		.uleb128 .L160-.LFB1192
 3386 0237 00       		.uleb128 0
 3387 0238 AD03     		.uleb128 .LEHB89-.LFB1192
 3388 023a 05       		.uleb128 .LEHE89-.LEHB89
 3389 023b C503     		.uleb128 .L159-.LFB1192
 3390 023d 00       		.uleb128 0
 3391 023e F903     		.uleb128 .LEHB90-.LFB1192
 3392 0240 05       		.uleb128 .LEHE90-.LEHB90
 3393 0241 00       		.uleb128 0
 3394 0242 00       		.uleb128 0
 3395 0243 8A04     		.uleb128 .LEHB91-.LFB1192
 3396 0245 40       		.uleb128 .LEHE91-.LEHB91
 3397 0246 D104     		.uleb128 .L162-.LFB1192
 3398 0248 00       		.uleb128 0
 3399 0249 CA04     		.uleb128 .LEHB92-.LFB1192
 3400 024b 05       		.uleb128 .LEHE92-.LEHB92
 3401 024c 00       		.uleb128 0
 3402 024d 00       		.uleb128 0
 3403 024e E304     		.uleb128 .LEHB93-.LFB1192
 3404 0250 05       		.uleb128 .LEHE93-.LEHB93
 3405 0251 00       		.uleb128 0
 3406 0252 00       		.uleb128 0
 3407              	.LLSDACSE1192:
 3408 0253 01       		.byte	0x1
 3409 0254 00       		.byte	0
 3410 0255 000000   		.align 4
 3411 0258 00000000 		.long	0
 3412              	
 3413              	.LLSDATT1192:
 3414              		.text
 3416              		.section	.rodata
 3417              	.LC31:
 3418 0431 43686563 		.string	"CheckEqualFailsOnException"
 3418      6B457175 
 3418      616C4661 
 3418      696C734F 
 3418      6E457863 
 3419              		.text
 3420 168b 90       		.align 2
 3422              	_ZN12_GLOBAL__N_130TestCheckEqualFailsOnExceptionC2Ev:
 3423              	.LFB1194:
 123:TestCheckMacros.cpp **** 
 124:TestCheckMacros.cpp **** TEST(CheckEqualFailsOnException)
 3424              		.loc 6 124 1
 3425              		.cfi_startproc
 3426 168c 55       		pushq	%rbp
 3427              		.cfi_def_cfa_offset 16
 3428              		.cfi_offset 6, -16
 3429 168d 4889E5   		movq	%rsp, %rbp
 3430              		.cfi_def_cfa_register 6
 3431 1690 53       		pushq	%rbx
 3432 1691 4883EC18 		subq	$24, %rsp
 3433              		.cfi_offset 3, -24
 3434 1695 48897DE8 		movq	%rdi, -24(%rbp)
 3435              	.LBB32:
 3436              		.loc 6 124 1
 3437 1699 488B5DE8 		movq	-24(%rbp), %rbx
 3438 169d E8000000 		call	_ZN13UnitTestSuite12GetSuiteNameEv
 3438      00
 3439 16a2 4889C2   		movq	%rax, %rdx
 3440 16a5 41B87C00 		movl	$124, %r8d
 3440      0000
 3441 16ab 488D0500 		leaq	.LC2(%rip), %rax
 3441      000000
 3442 16b2 4889C1   		movq	%rax, %rcx
 3443 16b5 488D0500 		leaq	.LC31(%rip), %rax
 3443      000000
 3444 16bc 4889C6   		movq	%rax, %rsi
 3445 16bf 4889DF   		movq	%rbx, %rdi
 3446 16c2 E8000000 		call	_ZN8UnitTest4TestC2EPKcS2_S2_i@PLT
 3446      00
 3447 16c7 488D1500 		leaq	16+_ZTVN12_GLOBAL__N_130TestCheckEqualFailsOnExceptionE(%rip), %rdx
 3447      000000
 3448 16ce 488B45E8 		movq	-24(%rbp), %rax
 3449 16d2 488910   		movq	%rdx, (%rax)
 3450              	.LBE32:
 3451 16d5 90       		nop
 3452 16d6 488B5DF8 		movq	-8(%rbp), %rbx
 3453 16da C9       		leave
 3454              		.cfi_def_cfa 7, 8
 3455 16db C3       		ret
 3456              		.cfi_endproc
 3457              	.LFE1194:
 3459              		.set	_ZN12_GLOBAL__N_130TestCheckEqualFailsOnExceptionC1Ev,_ZN12_GLOBAL__N_130TestCheckEqualFailsO
 3460              		.local	_ZN12_GLOBAL__N_138testCheckEqualFailsOnExceptionInstanceE
 3461              		.comm	_ZN12_GLOBAL__N_138testCheckEqualFailsOnExceptionInstanceE,56,32
 3462              		.local	_ZN12_GLOBAL__N_131adderCheckEqualFailsOnExceptionE
 3463              		.comm	_ZN12_GLOBAL__N_131adderCheckEqualFailsOnExceptionE,1,1
 3464              		.section	.rodata
 3465 044c 00000000 		.align 8
 3466              	.LC32:
 3467 0450 556E6861 		.string	"Unhandled exception in CHECK_EQUAL(ThrowingFunction(), 1)"
 3467      6E646C65 
 3467      64206578 
 3467      63657074 
 3467      696F6E20 
 3468              		.text
 3469              		.align 2
 3471              	_ZNK12_GLOBAL__N_130TestCheckEqualFailsOnException7RunImplEv:
 3472              	.LFB1196:
 125:TestCheckMacros.cpp **** {
 3473              		.loc 6 125 1
 3474              		.cfi_startproc
 3475              		.cfi_personality 0x9b,DW.ref.__gxx_personality_v0
 3476              		.cfi_lsda 0x1b,.LLSDA1196
 3477 16dc F30F1EFA 		endbr64
 3478 16e0 55       		pushq	%rbp
 3479              		.cfi_def_cfa_offset 16
 3480              		.cfi_offset 6, -16
 3481 16e1 4889E5   		movq	%rsp, %rbp
 3482              		.cfi_def_cfa_register 6
 3483 16e4 53       		pushq	%rbx
 3484 16e5 4881ECB8 		subq	$2232, %rsp
 3484      080000
 3485              		.cfi_offset 3, -24
 3486 16ec 4889BD48 		movq	%rdi, -2232(%rbp)
 3486      F7FFFF
 3487              		.loc 6 125 1
 3488 16f3 64488B04 		movq	%fs:40, %rax
 3488      25280000 
 3488      00
 3489 16fc 488945E8 		movq	%rax, -24(%rbp)
 3490 1700 31C0     		xorl	%eax, %eax
 126:TestCheckMacros.cpp ****     bool failure = false;
 3491              		.loc 6 126 10
 3492 1702 C68557F7 		movb	$0, -2217(%rbp)
 3492      FFFF00
 3493              	.LBB33:
 127:TestCheckMacros.cpp ****     {
 128:TestCheckMacros.cpp ****         RecordingReporter reporter;
 3494              		.loc 6 128 27
 3495 1709 488D85B0 		leaq	-2128(%rbp), %rax
 3495      F7FFFF
 3496 1710 4889C7   		movq	%rax, %rdi
 3497 1713 E8000000 		call	_ZN17RecordingReporterC1Ev
 3497      00
 129:TestCheckMacros.cpp ****         UnitTest::TestResults testResults(&reporter);
 3498              		.loc 6 129 52
 3499 1718 488D95B0 		leaq	-2128(%rbp), %rdx
 3499      F7FFFF
 3500 171f 488D8570 		leaq	-2192(%rbp), %rax
 3500      F7FFFF
 3501 1726 4889D6   		movq	%rdx, %rsi
 3502 1729 4889C7   		movq	%rax, %rdi
 3503              	.LEHB94:
 3504 172c E8000000 		call	_ZN8UnitTest11TestResultsC1EPNS_12TestReporterE@PLT
 3504      00
 130:TestCheckMacros.cpp **** 		ScopedCurrentTest scopedResults(testResults);
 3505              		.loc 6 130 46
 3506 1731 488D8D70 		leaq	-2192(%rbp), %rcx
 3506      F7FFFF
 3507 1738 488D8560 		leaq	-2208(%rbp), %rax
 3507      F7FFFF
 3508 173f BA000000 		movl	$0, %edx
 3508      00
 3509 1744 4889CE   		movq	%rcx, %rsi
 3510 1747 4889C7   		movq	%rax, %rdi
 3511 174a E8000000 		call	_ZN17ScopedCurrentTestC1ERN8UnitTest11TestResultsEPKNS0_11TestDetailsE
 3511      00
 3512              	.LEHE94:
 3513              	.LEHB95:
 131:TestCheckMacros.cpp ****         CHECK_EQUAL(ThrowingFunction(), 1);
 3514              		.loc 6 131 9
 3515 174f E8000000 		call	_ZN8UnitTest11CurrentTest7DetailsEv@PLT
 3515      00
 3516 1754 488B08   		movq	(%rax), %rcx
 3517 1757 488D8590 		leaq	-2160(%rbp), %rax
 3517      F7FFFF
 3518 175e BA830000 		movl	$131, %edx
 3518      00
 3519 1763 4889CE   		movq	%rcx, %rsi
 3520 1766 4889C7   		movq	%rax, %rdi
 3521 1769 E8000000 		call	_ZN8UnitTest11TestDetailsC1ERKS0_i@PLT
 3521      00
 3522              		.loc 6 131 9 is_stmt 0 discriminator 4
 3523 176e C7855CF7 		movl	$1, -2212(%rbp)
 3523      FFFF0100 
 3523      0000
 3524 1778 E88DF3FF 		call	_ZN12_GLOBAL__N_116ThrowingFunctionEv
 3524      FF
 3525 177d 898558F7 		movl	%eax, -2216(%rbp)
 3525      FFFF
 3526 1783 E8000000 		call	_ZN8UnitTest11CurrentTest7ResultsEv@PLT
 3526      00
 3527              		.loc 6 131 9 discriminator 6
 3528 1788 488B00   		movq	(%rax), %rax
 3529 178b 488D8D90 		leaq	-2160(%rbp), %rcx
 3529      F7FFFF
 3530 1792 488D955C 		leaq	-2212(%rbp), %rdx
 3530      F7FFFF
 3531 1799 488DB558 		leaq	-2216(%rbp), %rsi
 3531      F7FFFF
 3532 17a0 4889C7   		movq	%rax, %rdi
 3533 17a3 E8000000 		call	_ZN8UnitTest10CheckEqualIiiEEvRNS_11TestResultsERKT_RKT0_RKNS_11TestDetailsE
 3533      00
 3534              	.LEHE95:
 3535              	.L168:
 132:TestCheckMacros.cpp ****         failure = (testResults.GetFailureCount() > 0);
 3536              		.loc 6 132 47 is_stmt 1
 3537 17a8 488D8570 		leaq	-2192(%rbp), %rax
 3537      F7FFFF
 3538 17af 4889C7   		movq	%rax, %rdi
 3539              	.LEHB96:
 3540 17b2 E8000000 		call	_ZNK8UnitTest11TestResults15GetFailureCountEv@PLT
 3540      00
 3541              	.LEHE96:
 3542              		.loc 6 132 17
 3543 17b7 85C0     		testl	%eax, %eax
 3544 17b9 0F9FC0   		setg	%al
 3545 17bc 888557F7 		movb	%al, -2217(%rbp)
 3545      FFFF
 133:TestCheckMacros.cpp ****     }
 3546              		.loc 6 133 5
 3547 17c2 488D8560 		leaq	-2208(%rbp), %rax
 3547      F7FFFF
 3548 17c9 4889C7   		movq	%rax, %rdi
 3549              	.LEHB97:
 3550 17cc E8000000 		call	_ZN17ScopedCurrentTestD1Ev
 3550      00
 3551              	.LEHE97:
 3552              		.loc 6 133 5 is_stmt 0 discriminator 2
 3553 17d1 488D85B0 		leaq	-2128(%rbp), %rax
 3553      F7FFFF
 3554 17d8 4889C7   		movq	%rax, %rdi
 3555              	.LEHB98:
 3556 17db E8000000 		call	_ZN17RecordingReporterD1Ev
 3556      00
 3557              	.LEHE98:
 3558              	.LBE33:
 134:TestCheckMacros.cpp **** 
 135:TestCheckMacros.cpp ****     CHECK(failure);
 3559              		.loc 6 135 5 is_stmt 1 discriminator 2
 3560 17e0 0FB68557 		movzbl	-2217(%rbp), %eax
 3560      F7FFFF
 3561 17e7 89C7     		movl	%eax, %edi
 3562 17e9 E8000000 		call	_ZN8UnitTest5CheckIbEEbT_
 3562      00
 3563 17ee 83F001   		xorl	$1, %eax
 3564 17f1 84C0     		testb	%al, %al
 3565 17f3 0F844C01 		je	.L181
 3565      0000
 3566              	.LEHB99:
 3567              		.loc 6 135 5 is_stmt 0 discriminator 1
 3568 17f9 E8000000 		call	_ZN8UnitTest11CurrentTest7ResultsEv@PLT
 3568      00
 3569 17fe 488B18   		movq	(%rax), %rbx
 3570 1801 E8000000 		call	_ZN8UnitTest11CurrentTest7DetailsEv@PLT
 3570      00
 3571              		.loc 6 135 5 discriminator 3
 3572 1806 488B08   		movq	(%rax), %rcx
 3573 1809 488D8590 		leaq	-2160(%rbp), %rax
 3573      F7FFFF
 3574 1810 BA870000 		movl	$135, %edx
 3574      00
 3575 1815 4889CE   		movq	%rcx, %rsi
 3576 1818 4889C7   		movq	%rax, %rdi
 3577 181b E8000000 		call	_ZN8UnitTest11TestDetailsC1ERKS0_i@PLT
 3577      00
 3578              		.loc 6 135 5 discriminator 7
 3579 1820 488D8590 		leaq	-2160(%rbp), %rax
 3579      F7FFFF
 3580 1827 488D1500 		leaq	.LC10(%rip), %rdx
 3580      000000
 3581 182e 4889C6   		movq	%rax, %rsi
 3582 1831 4889DF   		movq	%rbx, %rdi
 3583 1834 E8000000 		call	_ZN8UnitTest11TestResults13OnTestFailureERKNS_11TestDetailsEPKc@PLT
 3583      00
 3584              	.LEHE99:
 136:TestCheckMacros.cpp **** }
 3585              		.loc 6 136 1 is_stmt 1
 3586 1839 E9070100 		jmp	.L181
 3586      00
 3587              	.L176:
 3588 183e F30F1EFA 		endbr64
 3589              	.LBB34:
 131:TestCheckMacros.cpp ****         failure = (testResults.GetFailureCount() > 0);
 3590              		.loc 6 131 9
 3591 1842 4889C7   		movq	%rax, %rdi
 3592 1845 E8000000 		call	__cxa_begin_catch@PLT
 3592      00
 3593              	.LEHB100:
 3594 184a E8000000 		call	_ZN8UnitTest11CurrentTest7ResultsEv@PLT
 3594      00
 131:TestCheckMacros.cpp ****         failure = (testResults.GetFailureCount() > 0);
 3595              		.loc 6 131 9 is_stmt 0 discriminator 3
 3596 184f 488B18   		movq	(%rax), %rbx
 3597 1852 E8000000 		call	_ZN8UnitTest11CurrentTest7DetailsEv@PLT
 3597      00
 131:TestCheckMacros.cpp ****         failure = (testResults.GetFailureCount() > 0);
 3598              		.loc 6 131 9 discriminator 13
 3599 1857 488B08   		movq	(%rax), %rcx
 3600 185a 488D8590 		leaq	-2160(%rbp), %rax
 3600      F7FFFF
 3601 1861 BA830000 		movl	$131, %edx
 3601      00
 3602 1866 4889CE   		movq	%rcx, %rsi
 3603 1869 4889C7   		movq	%rax, %rdi
 3604 186c E8000000 		call	_ZN8UnitTest11TestDetailsC1ERKS0_i@PLT
 3604      00
 131:TestCheckMacros.cpp ****         failure = (testResults.GetFailureCount() > 0);
 3605              		.loc 6 131 9 discriminator 17
 3606 1871 488D8590 		leaq	-2160(%rbp), %rax
 3606      F7FFFF
 3607 1878 488D1500 		leaq	.LC32(%rip), %rdx
 3607      000000
 3608 187f 4889C6   		movq	%rax, %rsi
 3609 1882 4889DF   		movq	%rbx, %rdi
 3610 1885 E8000000 		call	_ZN8UnitTest11TestResults13OnTestFailureERKNS_11TestDetailsEPKc@PLT
 3610      00
 3611              	.LEHE100:
 3612              	.LEHB101:
 131:TestCheckMacros.cpp ****         failure = (testResults.GetFailureCount() > 0);
 3613              		.loc 6 131 9 discriminator 19
 3614 188a E8000000 		call	__cxa_end_catch@PLT
 3614      00
 3615              	.LEHE101:
 131:TestCheckMacros.cpp ****         failure = (testResults.GetFailureCount() > 0);
 3616              		.loc 6 131 9
 3617 188f E914FFFF 		jmp	.L168
 3617      FF
 3618              	.L178:
 3619 1894 F30F1EFA 		endbr64
 3620 1898 4889C3   		movq	%rax, %rbx
 3621 189b E8000000 		call	__cxa_end_catch@PLT
 3621      00
 3622 18a0 EB07     		jmp	.L170
 3623              	.L177:
 3624 18a2 F30F1EFA 		endbr64
 133:TestCheckMacros.cpp **** 
 3625              		.loc 6 133 5 is_stmt 1
 3626 18a6 4889C3   		movq	%rax, %rbx
 3627              	.L170:
 3628 18a9 488D8560 		leaq	-2208(%rbp), %rax
 3628      F7FFFF
 3629 18b0 4889C7   		movq	%rax, %rdi
 3630 18b3 E8000000 		call	_ZN17ScopedCurrentTestD1Ev
 3630      00
 3631 18b8 EB07     		jmp	.L171
 3632              	.L175:
 3633 18ba F30F1EFA 		endbr64
 3634 18be 4889C3   		movq	%rax, %rbx
 3635              	.L171:
 133:TestCheckMacros.cpp **** 
 3636              		.loc 6 133 5 is_stmt 0 discriminator 1
 3637 18c1 488D85B0 		leaq	-2128(%rbp), %rax
 3637      F7FFFF
 3638 18c8 4889C7   		movq	%rax, %rdi
 3639 18cb E8000000 		call	_ZN17RecordingReporterD1Ev
 3639      00
 3640 18d0 4889D8   		movq	%rbx, %rax
 3641 18d3 4889C7   		movq	%rax, %rdi
 3642              	.LEHB102:
 3643 18d6 E8000000 		call	_Unwind_Resume@PLT
 3643      00
 3644              	.LEHE102:
 3645              	.L179:
 3646 18db F30F1EFA 		endbr64
 3647              	.LBE34:
 135:TestCheckMacros.cpp **** }
 3648              		.loc 6 135 5 is_stmt 1
 3649 18df 4889C7   		movq	%rax, %rdi
 3650 18e2 E8000000 		call	__cxa_begin_catch@PLT
 3650      00
 3651              	.LEHB103:
 3652 18e7 E8000000 		call	_ZN8UnitTest11CurrentTest7ResultsEv@PLT
 3652      00
 135:TestCheckMacros.cpp **** }
 3653              		.loc 6 135 5 is_stmt 0 discriminator 6
 3654 18ec 488B18   		movq	(%rax), %rbx
 3655 18ef E8000000 		call	_ZN8UnitTest11CurrentTest7DetailsEv@PLT
 3655      00
 135:TestCheckMacros.cpp **** }
 3656              		.loc 6 135 5 discriminator 12
 3657 18f4 488B08   		movq	(%rax), %rcx
 3658 18f7 488D8590 		leaq	-2160(%rbp), %rax
 3658      F7FFFF
 3659 18fe BA870000 		movl	$135, %edx
 3659      00
 3660 1903 4889CE   		movq	%rcx, %rsi
 3661 1906 4889C7   		movq	%rax, %rdi
 3662 1909 E8000000 		call	_ZN8UnitTest11TestDetailsC1ERKS0_i@PLT
 3662      00
 135:TestCheckMacros.cpp **** }
 3663              		.loc 6 135 5 discriminator 16
 3664 190e 488D8590 		leaq	-2160(%rbp), %rax
 3664      F7FFFF
 3665 1915 488D1500 		leaq	.LC12(%rip), %rdx
 3665      000000
 3666 191c 4889C6   		movq	%rax, %rsi
 3667 191f 4889DF   		movq	%rbx, %rdi
 3668 1922 E8000000 		call	_ZN8UnitTest11TestResults13OnTestFailureERKNS_11TestDetailsEPKc@PLT
 3668      00
 3669              	.LEHE103:
 3670              	.LEHB104:
 135:TestCheckMacros.cpp **** }
 3671              		.loc 6 135 5 discriminator 18
 3672 1927 E8000000 		call	__cxa_end_catch@PLT
 3672      00
 3673              	.LEHE104:
 3674              		.loc 6 136 1 is_stmt 1 discriminator 18
 3675 192c EB17     		jmp	.L181
 3676              	.L180:
 3677 192e F30F1EFA 		endbr64
 135:TestCheckMacros.cpp **** }
 3678              		.loc 6 135 5
 3679 1932 4889C3   		movq	%rax, %rbx
 3680 1935 E8000000 		call	__cxa_end_catch@PLT
 3680      00
 3681 193a 4889D8   		movq	%rbx, %rax
 3682 193d 4889C7   		movq	%rax, %rdi
 3683              	.LEHB105:
 3684 1940 E8000000 		call	_Unwind_Resume@PLT
 3684      00
 3685              	.LEHE105:
 3686              	.L181:
 3687              		.loc 6 136 1
 3688 1945 90       		nop
 3689 1946 488B45E8 		movq	-24(%rbp), %rax
 3690 194a 64482B04 		subq	%fs:40, %rax
 3690      25280000 
 3690      00
 3691 1953 7405     		je	.L174
 3692 1955 E8000000 		call	__stack_chk_fail@PLT
 3692      00
 3693              	.L174:
 3694 195a 488B5DF8 		movq	-8(%rbp), %rbx
 3695 195e C9       		leave
 3696              		.cfi_def_cfa 7, 8
 3697 195f C3       		ret
 3698              		.cfi_endproc
 3699              	.LFE1196:
 3700              		.section	.gcc_except_table
 3701              		.align 4
 3702              	.LLSDA1196:
 3703 025c FF       		.byte	0xff
 3704 025d 9B       		.byte	0x9b
 3705 025e 4D       		.uleb128 .LLSDATT1196-.LLSDATTD1196
 3706              	.LLSDATTD1196:
 3707 025f 01       		.byte	0x1
 3708 0260 42       		.uleb128 .LLSDACSE1196-.LLSDACSB1196
 3709              	.LLSDACSB1196:
 3710 0261 50       		.uleb128 .LEHB94-.LFB1196
 3711 0262 23       		.uleb128 .LEHE94-.LEHB94
 3712 0263 DE03     		.uleb128 .L175-.LFB1196
 3713 0265 00       		.uleb128 0
 3714 0266 73       		.uleb128 .LEHB95-.LFB1196
 3715 0267 59       		.uleb128 .LEHE95-.LEHB95
 3716 0268 E202     		.uleb128 .L176-.LFB1196
 3717 026a 01       		.uleb128 0x1
 3718 026b D601     		.uleb128 .LEHB96-.LFB1196
 3719 026d 05       		.uleb128 .LEHE96-.LEHB96
 3720 026e C603     		.uleb128 .L177-.LFB1196
 3721 0270 00       		.uleb128 0
 3722 0271 F001     		.uleb128 .LEHB97-.LFB1196
 3723 0273 05       		.uleb128 .LEHE97-.LEHB97
 3724 0274 DE03     		.uleb128 .L175-.LFB1196
 3725 0276 00       		.uleb128 0
 3726 0277 FF01     		.uleb128 .LEHB98-.LFB1196
 3727 0279 05       		.uleb128 .LEHE98-.LEHB98
 3728 027a 00       		.uleb128 0
 3729 027b 00       		.uleb128 0
 3730 027c 9D02     		.uleb128 .LEHB99-.LFB1196
 3731 027e 40       		.uleb128 .LEHE99-.LEHB99
 3732 027f FF03     		.uleb128 .L179-.LFB1196
 3733 0281 01       		.uleb128 0x1
 3734 0282 EE02     		.uleb128 .LEHB100-.LFB1196
 3735 0284 40       		.uleb128 .LEHE100-.LEHB100
 3736 0285 B803     		.uleb128 .L178-.LFB1196
 3737 0287 00       		.uleb128 0
 3738 0288 AE03     		.uleb128 .LEHB101-.LFB1196
 3739 028a 05       		.uleb128 .LEHE101-.LEHB101
 3740 028b C603     		.uleb128 .L177-.LFB1196
 3741 028d 00       		.uleb128 0
 3742 028e FA03     		.uleb128 .LEHB102-.LFB1196
 3743 0290 05       		.uleb128 .LEHE102-.LEHB102
 3744 0291 00       		.uleb128 0
 3745 0292 00       		.uleb128 0
 3746 0293 8B04     		.uleb128 .LEHB103-.LFB1196
 3747 0295 40       		.uleb128 .LEHE103-.LEHB103
 3748 0296 D204     		.uleb128 .L180-.LFB1196
 3749 0298 00       		.uleb128 0
 3750 0299 CB04     		.uleb128 .LEHB104-.LFB1196
 3751 029b 05       		.uleb128 .LEHE104-.LEHB104
 3752 029c 00       		.uleb128 0
 3753 029d 00       		.uleb128 0
 3754 029e E404     		.uleb128 .LEHB105-.LFB1196
 3755 02a0 05       		.uleb128 .LEHE105-.LEHB105
 3756 02a1 00       		.uleb128 0
 3757 02a2 00       		.uleb128 0
 3758              	.LLSDACSE1196:
 3759 02a3 01       		.byte	0x1
 3760 02a4 00       		.byte	0
 3761 02a5 000000   		.align 4
 3762 02a8 00000000 		.long	0
 3763              	
 3764              	.LLSDATT1196:
 3765              		.text
 3767              		.section	.rodata
 3768 048a 00000000 		.align 8
 3768      0000
 3769              	.LC33:
 3770 0490 43686563 		.string	"CheckEqualFailureContainsCorrectDetails"
 3770      6B457175 
 3770      616C4661 
 3770      696C7572 
 3770      65436F6E 
 3771              		.text
 3772              		.align 2
 3774              	_ZN12_GLOBAL__N_143TestCheckEqualFailureContainsCorrectDetailsC2Ev:
 3775              	.LFB1198:
 137:TestCheckMacros.cpp **** 
 138:TestCheckMacros.cpp **** TEST(CheckEqualFailureContainsCorrectDetails)
 3776              		.loc 6 138 1
 3777              		.cfi_startproc
 3778 1960 55       		pushq	%rbp
 3779              		.cfi_def_cfa_offset 16
 3780              		.cfi_offset 6, -16
 3781 1961 4889E5   		movq	%rsp, %rbp
 3782              		.cfi_def_cfa_register 6
 3783 1964 53       		pushq	%rbx
 3784 1965 4883EC18 		subq	$24, %rsp
 3785              		.cfi_offset 3, -24
 3786 1969 48897DE8 		movq	%rdi, -24(%rbp)
 3787              	.LBB35:
 3788              		.loc 6 138 1
 3789 196d 488B5DE8 		movq	-24(%rbp), %rbx
 3790 1971 E8000000 		call	_ZN13UnitTestSuite12GetSuiteNameEv
 3790      00
 3791 1976 4889C2   		movq	%rax, %rdx
 3792 1979 41B88A00 		movl	$138, %r8d
 3792      0000
 3793 197f 488D0500 		leaq	.LC2(%rip), %rax
 3793      000000
 3794 1986 4889C1   		movq	%rax, %rcx
 3795 1989 488D0500 		leaq	.LC33(%rip), %rax
 3795      000000
 3796 1990 4889C6   		movq	%rax, %rsi
 3797 1993 4889DF   		movq	%rbx, %rdi
 3798 1996 E8000000 		call	_ZN8UnitTest4TestC2EPKcS2_S2_i@PLT
 3798      00
 3799 199b 488D1500 		leaq	16+_ZTVN12_GLOBAL__N_143TestCheckEqualFailureContainsCorrectDetailsE(%rip), %rdx
 3799      000000
 3800 19a2 488B45E8 		movq	-24(%rbp), %rax
 3801 19a6 488910   		movq	%rdx, (%rax)
 3802              	.LBE35:
 3803 19a9 90       		nop
 3804 19aa 488B5DF8 		movq	-8(%rbp), %rbx
 3805 19ae C9       		leave
 3806              		.cfi_def_cfa 7, 8
 3807 19af C3       		ret
 3808              		.cfi_endproc
 3809              	.LFE1198:
 3811              		.set	_ZN12_GLOBAL__N_143TestCheckEqualFailureContainsCorrectDetailsC1Ev,_ZN12_GLOBAL__N_143TestChe
 3812              		.local	_ZN12_GLOBAL__N_151testCheckEqualFailureContainsCorrectDetailsInstanceE
 3813              		.comm	_ZN12_GLOBAL__N_151testCheckEqualFailureContainsCorrectDetailsInstanceE,56,32
 3814              		.local	_ZN12_GLOBAL__N_144adderCheckEqualFailureContainsCorrectDetailsE
 3815              		.comm	_ZN12_GLOBAL__N_144adderCheckEqualFailureContainsCorrectDetailsE,1,1
 3816              		.section	.rodata
 3817              	.LC34:
 3818 04b8 66696C65 		.string	"filename"
 3818      6E616D65 
 3818      00
 3819              	.LC35:
 3820 04c1 73756974 		.string	"suiteName"
 3820      654E616D 
 3820      6500
 3821              	.LC36:
 3822 04cb 74657374 		.string	"testName"
 3822      4E616D65 
 3822      00
 3823 04d4 00000000 		.align 8
 3824              	.LC37:
 3825 04d8 556E6861 		.string	"Unhandled exception in CHECK_EQUAL(1, 123)"
 3825      6E646C65 
 3825      64206578 
 3825      63657074 
 3825      696F6E20 
 3826 0503 00000000 		.align 8
 3826      00
 3827              	.LC38:
 3828 0508 556E6861 		.string	"Unhandled exception in CHECK_EQUAL(\"testName\", reporter.lastFailedTest)"
 3828      6E646C65 
 3828      64206578 
 3828      63657074 
 3828      696F6E20 
 3829              		.align 8
 3830              	.LC39:
 3831 0550 556E6861 		.string	"Unhandled exception in CHECK_EQUAL(\"suiteName\", reporter.lastFailedSuite)"
 3831      6E646C65 
 3831      64206578 
 3831      63657074 
 3831      696F6E20 
 3832 059a 00000000 		.align 8
 3832      0000
 3833              	.LC40:
 3834 05a0 556E6861 		.string	"Unhandled exception in CHECK_EQUAL(\"filename\", reporter.lastFailedFile)"
 3834      6E646C65 
 3834      64206578 
 3834      63657074 
 3834      696F6E20 
 3835              		.align 8
 3836              	.LC41:
 3837 05e8 556E6861 		.string	"Unhandled exception in CHECK_EQUAL(line, reporter.lastFailedLine)"
 3837      6E646C65 
 3837      64206578 
 3837      63657074 
 3837      696F6E20 
 3838              		.text
 3839              		.align 2
 3841              	_ZNK12_GLOBAL__N_143TestCheckEqualFailureContainsCorrectDetails7RunImplEv:
 3842              	.LFB1200:
 139:TestCheckMacros.cpp **** {
 3843              		.loc 6 139 1
 3844              		.cfi_startproc
 3845              		.cfi_personality 0x9b,DW.ref.__gxx_personality_v0
 3846              		.cfi_lsda 0x1b,.LLSDA1200
 3847 19b0 F30F1EFA 		endbr64
 3848 19b4 55       		pushq	%rbp
 3849              		.cfi_def_cfa_offset 16
 3850              		.cfi_offset 6, -16
 3851 19b5 4889E5   		movq	%rsp, %rbp
 3852              		.cfi_def_cfa_register 6
 3853 19b8 53       		pushq	%rbx
 3854 19b9 4881ECD8 		subq	$2264, %rsp
 3854      080000
 3855              		.cfi_offset 3, -24
 3856 19c0 4889BD28 		movq	%rdi, -2264(%rbp)
 3856      F7FFFF
 3857              		.loc 6 139 1
 3858 19c7 64488B04 		movq	%fs:40, %rax
 3858      25280000 
 3858      00
 3859 19d0 488945E8 		movq	%rax, -24(%rbp)
 3860 19d4 31C0     		xorl	%eax, %eax
 140:TestCheckMacros.cpp ****     int line = 0;
 3861              		.loc 6 140 9
 3862 19d6 C78534F7 		movl	$0, -2252(%rbp)
 3862      FFFF0000 
 3862      0000
 141:TestCheckMacros.cpp ****     RecordingReporter reporter;
 3863              		.loc 6 141 23
 3864 19e0 488D85B0 		leaq	-2128(%rbp), %rax
 3864      F7FFFF
 3865 19e7 4889C7   		movq	%rax, %rdi
 3866 19ea E8000000 		call	_ZN17RecordingReporterC1Ev
 3866      00
 3867              	.LBB36:
 142:TestCheckMacros.cpp ****     {
 143:TestCheckMacros.cpp ****         UnitTest::TestResults testResults(&reporter);
 3868              		.loc 6 143 52
 3869 19ef 488D95B0 		leaq	-2128(%rbp), %rdx
 3869      F7FFFF
 3870 19f6 488D8550 		leaq	-2224(%rbp), %rax
 3870      F7FFFF
 3871 19fd 4889D6   		movq	%rdx, %rsi
 3872 1a00 4889C7   		movq	%rax, %rdi
 3873              	.LEHB106:
 3874 1a03 E8000000 		call	_ZN8UnitTest11TestResultsC1EPNS_12TestReporterE@PLT
 3874      00
 144:TestCheckMacros.cpp **** 		UnitTest::TestDetails const testDetails("testName", "suiteName", "filename", -1);
 3875              		.loc 6 144 82
 3876 1a08 488D8570 		leaq	-2192(%rbp), %rax
 3876      F7FFFF
 3877 1a0f 41B8FFFF 		movl	$-1, %r8d
 3877      FFFF
 3878 1a15 488D1500 		leaq	.LC34(%rip), %rdx
 3878      000000
 3879 1a1c 4889D1   		movq	%rdx, %rcx
 3880 1a1f 488D1500 		leaq	.LC35(%rip), %rdx
 3880      000000
 3881 1a26 488D3500 		leaq	.LC36(%rip), %rsi
 3881      000000
 3882 1a2d 4889C7   		movq	%rax, %rdi
 3883 1a30 E8000000 		call	_ZN8UnitTest11TestDetailsC1EPKcS2_S2_i@PLT
 3883      00
 145:TestCheckMacros.cpp **** 		ScopedCurrentTest scopedResults(testResults, &testDetails);
 3884              		.loc 6 145 60
 3885 1a35 488D9570 		leaq	-2192(%rbp), %rdx
 3885      F7FFFF
 3886 1a3c 488D8D50 		leaq	-2224(%rbp), %rcx
 3886      F7FFFF
 3887 1a43 488D8540 		leaq	-2240(%rbp), %rax
 3887      F7FFFF
 3888 1a4a 4889CE   		movq	%rcx, %rsi
 3889 1a4d 4889C7   		movq	%rax, %rdi
 3890 1a50 E8000000 		call	_ZN17ScopedCurrentTestC1ERN8UnitTest11TestResultsEPKNS0_11TestDetailsE
 3890      00
 3891              	.LEHE106:
 3892              	.LEHB107:
 146:TestCheckMacros.cpp **** 
 147:TestCheckMacros.cpp **** 		CHECK_EQUAL(1, 123);    line = __LINE__;
 3893              		.loc 6 147 3
 3894 1a55 E8000000 		call	_ZN8UnitTest11CurrentTest7DetailsEv@PLT
 3894      00
 3895 1a5a 488B08   		movq	(%rax), %rcx
 3896 1a5d 488D8590 		leaq	-2160(%rbp), %rax
 3896      F7FFFF
 3897 1a64 BA930000 		movl	$147, %edx
 3897      00
 3898 1a69 4889CE   		movq	%rcx, %rsi
 3899 1a6c 4889C7   		movq	%rax, %rdi
 3900 1a6f E8000000 		call	_ZN8UnitTest11TestDetailsC1ERKS0_i@PLT
 3900      00
 3901              		.loc 6 147 3 is_stmt 0 discriminator 4
 3902 1a74 C7853CF7 		movl	$123, -2244(%rbp)
 3902      FFFF7B00 
 3902      0000
 3903 1a7e C78538F7 		movl	$1, -2248(%rbp)
 3903      FFFF0100 
 3903      0000
 3904 1a88 E8000000 		call	_ZN8UnitTest11CurrentTest7ResultsEv@PLT
 3904      00
 3905 1a8d 488B00   		movq	(%rax), %rax
 3906 1a90 488D8D90 		leaq	-2160(%rbp), %rcx
 3906      F7FFFF
 3907 1a97 488D953C 		leaq	-2244(%rbp), %rdx
 3907      F7FFFF
 3908 1a9e 488DB538 		leaq	-2248(%rbp), %rsi
 3908      F7FFFF
 3909 1aa5 4889C7   		movq	%rax, %rdi
 3910 1aa8 E8000000 		call	_ZN8UnitTest10CheckEqualIiiEEvRNS_11TestResultsERKT_RKT0_RKNS_11TestDetailsE
 3910      00
 3911              	.LEHE107:
 3912              	.L185:
 3913              		.loc 6 147 32 is_stmt 1 discriminator 9
 3914 1aad C78534F7 		movl	$147, -2252(%rbp)
 3914      FFFF9300 
 3914      0000
 148:TestCheckMacros.cpp ****     }
 3915              		.loc 6 148 5 discriminator 9
 3916 1ab7 488D8540 		leaq	-2240(%rbp), %rax
 3916      F7FFFF
 3917 1abe 4889C7   		movq	%rax, %rdi
 3918              	.LEHB108:
 3919 1ac1 E8000000 		call	_ZN17ScopedCurrentTestD1Ev
 3919      00
 3920              	.LEHE108:
 3921              	.LEHB109:
 3922              	.LBE36:
 149:TestCheckMacros.cpp **** 
 150:TestCheckMacros.cpp ****     CHECK_EQUAL("testName", reporter.lastFailedTest);
 3923              		.loc 6 150 5
 3924 1ac6 E8000000 		call	_ZN8UnitTest11CurrentTest7DetailsEv@PLT
 3924      00
 3925 1acb 488B08   		movq	(%rax), %rcx
 3926 1ace 488D8590 		leaq	-2160(%rbp), %rax
 3926      F7FFFF
 3927 1ad5 BA960000 		movl	$150, %edx
 3927      00
 3928 1ada 4889CE   		movq	%rcx, %rsi
 3929 1add 4889C7   		movq	%rax, %rdi
 3930 1ae0 E8000000 		call	_ZN8UnitTest11TestDetailsC1ERKS0_i@PLT
 3930      00
 3931              		.loc 6 150 5 is_stmt 0 discriminator 4
 3932 1ae5 E8000000 		call	_ZN8UnitTest11CurrentTest7ResultsEv@PLT
 3932      00
 3933 1aea 488B00   		movq	(%rax), %rax
 3934 1aed 488D9590 		leaq	-2160(%rbp), %rdx
 3934      F7FFFF
 3935 1af4 488D8DB0 		leaq	-2128(%rbp), %rcx
 3935      F7FFFF
 3936 1afb 488DB114 		leaq	1044(%rcx), %rsi
 3936      040000
 3937 1b02 4889D1   		movq	%rdx, %rcx
 3938 1b05 4889F2   		movq	%rsi, %rdx
 3939 1b08 488D3500 		leaq	.LC36(%rip), %rsi
 3939      000000
 3940 1b0f 4889C7   		movq	%rax, %rdi
 3941 1b12 E8000000 		call	_ZN8UnitTest10CheckEqualERNS_11TestResultsEPKcPcRKNS_11TestDetailsE@PLT
 3941      00
 3942              	.LEHE109:
 3943              	.L190:
 3944              	.LEHB110:
 151:TestCheckMacros.cpp ****     CHECK_EQUAL("suiteName", reporter.lastFailedSuite);
 3945              		.loc 6 151 5 is_stmt 1
 3946 1b17 E8000000 		call	_ZN8UnitTest11CurrentTest7DetailsEv@PLT
 3946      00
 3947 1b1c 488B08   		movq	(%rax), %rcx
 3948 1b1f 488D8590 		leaq	-2160(%rbp), %rax
 3948      F7FFFF
 3949 1b26 BA970000 		movl	$151, %edx
 3949      00
 3950 1b2b 4889CE   		movq	%rcx, %rsi
 3951 1b2e 4889C7   		movq	%rax, %rdi
 3952 1b31 E8000000 		call	_ZN8UnitTest11TestDetailsC1ERKS0_i@PLT
 3952      00
 3953              		.loc 6 151 5 is_stmt 0 discriminator 4
 3954 1b36 E8000000 		call	_ZN8UnitTest11CurrentTest7ResultsEv@PLT
 3954      00
 3955 1b3b 488B00   		movq	(%rax), %rax
 3956 1b3e 488D9590 		leaq	-2160(%rbp), %rdx
 3956      F7FFFF
 3957 1b45 488D8DB0 		leaq	-2128(%rbp), %rcx
 3957      F7FFFF
 3958 1b4c 488DB114 		leaq	788(%rcx), %rsi
 3958      030000
 3959 1b53 4889D1   		movq	%rdx, %rcx
 3960 1b56 4889F2   		movq	%rsi, %rdx
 3961 1b59 488D3500 		leaq	.LC35(%rip), %rsi
 3961      000000
 3962 1b60 4889C7   		movq	%rax, %rdi
 3963 1b63 E8000000 		call	_ZN8UnitTest10CheckEqualERNS_11TestResultsEPKcPcRKNS_11TestDetailsE@PLT
 3963      00
 3964              	.LEHE110:
 3965              	.L193:
 3966              	.LEHB111:
 152:TestCheckMacros.cpp ****     CHECK_EQUAL("filename", reporter.lastFailedFile);
 3967              		.loc 6 152 5 is_stmt 1
 3968 1b68 E8000000 		call	_ZN8UnitTest11CurrentTest7DetailsEv@PLT
 3968      00
 3969 1b6d 488B08   		movq	(%rax), %rcx
 3970 1b70 488D8590 		leaq	-2160(%rbp), %rax
 3970      F7FFFF
 3971 1b77 BA980000 		movl	$152, %edx
 3971      00
 3972 1b7c 4889CE   		movq	%rcx, %rsi
 3973 1b7f 4889C7   		movq	%rax, %rdi
 3974 1b82 E8000000 		call	_ZN8UnitTest11TestDetailsC1ERKS0_i@PLT
 3974      00
 3975              		.loc 6 152 5 is_stmt 0 discriminator 4
 3976 1b87 E8000000 		call	_ZN8UnitTest11CurrentTest7ResultsEv@PLT
 3976      00
 3977 1b8c 488B00   		movq	(%rax), %rax
 3978 1b8f 488D9590 		leaq	-2160(%rbp), %rdx
 3978      F7FFFF
 3979 1b96 488D8DB0 		leaq	-2128(%rbp), %rcx
 3979      F7FFFF
 3980 1b9d 488DB110 		leaq	528(%rcx), %rsi
 3980      020000
 3981 1ba4 4889D1   		movq	%rdx, %rcx
 3982 1ba7 4889F2   		movq	%rsi, %rdx
 3983 1baa 488D3500 		leaq	.LC34(%rip), %rsi
 3983      000000
 3984 1bb1 4889C7   		movq	%rax, %rdi
 3985 1bb4 E8000000 		call	_ZN8UnitTest10CheckEqualERNS_11TestResultsEPKcPcRKNS_11TestDetailsE@PLT
 3985      00
 3986              	.LEHE111:
 3987              	.L196:
 3988              	.LEHB112:
 153:TestCheckMacros.cpp ****     CHECK_EQUAL(line, reporter.lastFailedLine);
 3989              		.loc 6 153 5 is_stmt 1
 3990 1bb9 E8000000 		call	_ZN8UnitTest11CurrentTest7DetailsEv@PLT
 3990      00
 3991 1bbe 488B08   		movq	(%rax), %rcx
 3992 1bc1 488D8590 		leaq	-2160(%rbp), %rax
 3992      F7FFFF
 3993 1bc8 BA990000 		movl	$153, %edx
 3993      00
 3994 1bcd 4889CE   		movq	%rcx, %rsi
 3995 1bd0 4889C7   		movq	%rax, %rdi
 3996 1bd3 E8000000 		call	_ZN8UnitTest11TestDetailsC1ERKS0_i@PLT
 3996      00
 3997              		.loc 6 153 5 is_stmt 0 discriminator 4
 3998 1bd8 E8000000 		call	_ZN8UnitTest11CurrentTest7ResultsEv@PLT
 3998      00
 3999 1bdd 488B00   		movq	(%rax), %rax
 4000 1be0 488D9590 		leaq	-2160(%rbp), %rdx
 4000      F7FFFF
 4001 1be7 488D8DB0 		leaq	-2128(%rbp), %rcx
 4001      F7FFFF
 4002 1bee 488DB910 		leaq	784(%rcx), %rdi
 4002      030000
 4003 1bf5 488DB534 		leaq	-2252(%rbp), %rsi
 4003      F7FFFF
 4004 1bfc 4889D1   		movq	%rdx, %rcx
 4005 1bff 4889FA   		movq	%rdi, %rdx
 4006 1c02 4889C7   		movq	%rax, %rdi
 4007 1c05 E8000000 		call	_ZN8UnitTest10CheckEqualIiiEEvRNS_11TestResultsERKT_RKT0_RKNS_11TestDetailsE
 4007      00
 4008              	.LEHE112:
 4009              	.L199:
 154:TestCheckMacros.cpp **** }
 4010              		.loc 6 154 1 is_stmt 1
 4011 1c0a 488D85B0 		leaq	-2128(%rbp), %rax
 4011      F7FFFF
 4012 1c11 4889C7   		movq	%rax, %rdi
 4013              	.LEHB113:
 4014 1c14 E8000000 		call	_ZN17RecordingReporterD1Ev
 4014      00
 4015              	.LEHE113:
 4016 1c19 488B45E8 		movq	-24(%rbp), %rax
 4017 1c1d 64482B04 		subq	%fs:40, %rax
 4017      25280000 
 4017      00
 4018 1c26 0F844002 		je	.L201
 4018      0000
 4019 1c2c E9360200 		jmp	.L214
 4019      00
 4020              	.L202:
 4021 1c31 F30F1EFA 		endbr64
 4022              	.LBB37:
 147:TestCheckMacros.cpp ****     }
 4023              		.loc 6 147 3
 4024 1c35 4889C7   		movq	%rax, %rdi
 4025 1c38 E8000000 		call	__cxa_begin_catch@PLT
 4025      00
 4026              	.LEHB114:
 4027 1c3d E8000000 		call	_ZN8UnitTest11CurrentTest7ResultsEv@PLT
 4027      00
 147:TestCheckMacros.cpp ****     }
 4028              		.loc 6 147 3 is_stmt 0 discriminator 3
 4029 1c42 488B18   		movq	(%rax), %rbx
 4030 1c45 E8000000 		call	_ZN8UnitTest11CurrentTest7DetailsEv@PLT
 4030      00
 147:TestCheckMacros.cpp ****     }
 4031              		.loc 6 147 3 discriminator 12
 4032 1c4a 488B08   		movq	(%rax), %rcx
 4033 1c4d 488D8590 		leaq	-2160(%rbp), %rax
 4033      F7FFFF
 4034 1c54 BA930000 		movl	$147, %edx
 4034      00
 4035 1c59 4889CE   		movq	%rcx, %rsi
 4036 1c5c 4889C7   		movq	%rax, %rdi
 4037 1c5f E8000000 		call	_ZN8UnitTest11TestDetailsC1ERKS0_i@PLT
 4037      00
 147:TestCheckMacros.cpp ****     }
 4038              		.loc 6 147 3 discriminator 16
 4039 1c64 488D8590 		leaq	-2160(%rbp), %rax
 4039      F7FFFF
 4040 1c6b 488D1500 		leaq	.LC37(%rip), %rdx
 4040      000000
 4041 1c72 4889C6   		movq	%rax, %rsi
 4042 1c75 4889DF   		movq	%rbx, %rdi
 4043 1c78 E8000000 		call	_ZN8UnitTest11TestResults13OnTestFailureERKNS_11TestDetailsEPKc@PLT
 4043      00
 4044              	.LEHE114:
 4045              	.LEHB115:
 147:TestCheckMacros.cpp ****     }
 4046              		.loc 6 147 3 discriminator 18
 4047 1c7d E8000000 		call	__cxa_end_catch@PLT
 4047      00
 4048              	.LEHE115:
 147:TestCheckMacros.cpp ****     }
 4049              		.loc 6 147 3
 4050 1c82 E926FEFF 		jmp	.L185
 4050      FF
 4051              	.L204:
 4052 1c87 F30F1EFA 		endbr64
 4053 1c8b 4889C3   		movq	%rax, %rbx
 4054 1c8e E8000000 		call	__cxa_end_catch@PLT
 4054      00
 4055 1c93 EB07     		jmp	.L187
 4056              	.L203:
 4057 1c95 F30F1EFA 		endbr64
 148:TestCheckMacros.cpp **** 
 4058              		.loc 6 148 5 is_stmt 1
 4059 1c99 4889C3   		movq	%rax, %rbx
 4060              	.L187:
 4061 1c9c 488D8540 		leaq	-2240(%rbp), %rax
 4061      F7FFFF
 4062 1ca3 4889C7   		movq	%rax, %rdi
 4063 1ca6 E8000000 		call	_ZN17ScopedCurrentTestD1Ev
 4063      00
 4064 1cab E99D0100 		jmp	.L188
 4064      00
 4065              	.L206:
 4066 1cb0 F30F1EFA 		endbr64
 4067              	.LBE37:
 150:TestCheckMacros.cpp ****     CHECK_EQUAL("suiteName", reporter.lastFailedSuite);
 4068              		.loc 6 150 5
 4069 1cb4 4889C7   		movq	%rax, %rdi
 4070 1cb7 E8000000 		call	__cxa_begin_catch@PLT
 4070      00
 4071              	.LEHB116:
 4072 1cbc E8000000 		call	_ZN8UnitTest11CurrentTest7ResultsEv@PLT
 4072      00
 150:TestCheckMacros.cpp ****     CHECK_EQUAL("suiteName", reporter.lastFailedSuite);
 4073              		.loc 6 150 5 is_stmt 0 discriminator 3
 4074 1cc1 488B18   		movq	(%rax), %rbx
 4075 1cc4 E8000000 		call	_ZN8UnitTest11CurrentTest7DetailsEv@PLT
 4075      00
 150:TestCheckMacros.cpp ****     CHECK_EQUAL("suiteName", reporter.lastFailedSuite);
 4076              		.loc 6 150 5 discriminator 11
 4077 1cc9 488B08   		movq	(%rax), %rcx
 4078 1ccc 488D8590 		leaq	-2160(%rbp), %rax
 4078      F7FFFF
 4079 1cd3 BA960000 		movl	$150, %edx
 4079      00
 4080 1cd8 4889CE   		movq	%rcx, %rsi
 4081 1cdb 4889C7   		movq	%rax, %rdi
 4082 1cde E8000000 		call	_ZN8UnitTest11TestDetailsC1ERKS0_i@PLT
 4082      00
 150:TestCheckMacros.cpp ****     CHECK_EQUAL("suiteName", reporter.lastFailedSuite);
 4083              		.loc 6 150 5 discriminator 15
 4084 1ce3 488D8590 		leaq	-2160(%rbp), %rax
 4084      F7FFFF
 4085 1cea 488D1500 		leaq	.LC38(%rip), %rdx
 4085      000000
 4086 1cf1 4889C6   		movq	%rax, %rsi
 4087 1cf4 4889DF   		movq	%rbx, %rdi
 4088 1cf7 E8000000 		call	_ZN8UnitTest11TestResults13OnTestFailureERKNS_11TestDetailsEPKc@PLT
 4088      00
 4089              	.LEHE116:
 4090              	.LEHB117:
 150:TestCheckMacros.cpp ****     CHECK_EQUAL("suiteName", reporter.lastFailedSuite);
 4091              		.loc 6 150 5 discriminator 17
 4092 1cfc E8000000 		call	__cxa_end_catch@PLT
 4092      00
 4093              	.LEHE117:
 150:TestCheckMacros.cpp ****     CHECK_EQUAL("suiteName", reporter.lastFailedSuite);
 4094              		.loc 6 150 5
 4095 1d01 E911FEFF 		jmp	.L190
 4095      FF
 4096              	.L207:
 4097 1d06 F30F1EFA 		endbr64
 4098 1d0a 4889C3   		movq	%rax, %rbx
 4099 1d0d E8000000 		call	__cxa_end_catch@PLT
 4099      00
 4100 1d12 E9360100 		jmp	.L188
 4100      00
 4101              	.L208:
 4102 1d17 F30F1EFA 		endbr64
 151:TestCheckMacros.cpp ****     CHECK_EQUAL("filename", reporter.lastFailedFile);
 4103              		.loc 6 151 5 is_stmt 1
 4104 1d1b 4889C7   		movq	%rax, %rdi
 4105 1d1e E8000000 		call	__cxa_begin_catch@PLT
 4105      00
 4106              	.LEHB118:
 4107 1d23 E8000000 		call	_ZN8UnitTest11CurrentTest7ResultsEv@PLT
 4107      00
 151:TestCheckMacros.cpp ****     CHECK_EQUAL("filename", reporter.lastFailedFile);
 4108              		.loc 6 151 5 is_stmt 0 discriminator 3
 4109 1d28 488B18   		movq	(%rax), %rbx
 4110 1d2b E8000000 		call	_ZN8UnitTest11CurrentTest7DetailsEv@PLT
 4110      00
 151:TestCheckMacros.cpp ****     CHECK_EQUAL("filename", reporter.lastFailedFile);
 4111              		.loc 6 151 5 discriminator 11
 4112 1d30 488B08   		movq	(%rax), %rcx
 4113 1d33 488D8590 		leaq	-2160(%rbp), %rax
 4113      F7FFFF
 4114 1d3a BA970000 		movl	$151, %edx
 4114      00
 4115 1d3f 4889CE   		movq	%rcx, %rsi
 4116 1d42 4889C7   		movq	%rax, %rdi
 4117 1d45 E8000000 		call	_ZN8UnitTest11TestDetailsC1ERKS0_i@PLT
 4117      00
 151:TestCheckMacros.cpp ****     CHECK_EQUAL("filename", reporter.lastFailedFile);
 4118              		.loc 6 151 5 discriminator 15
 4119 1d4a 488D8590 		leaq	-2160(%rbp), %rax
 4119      F7FFFF
 4120 1d51 488D1500 		leaq	.LC39(%rip), %rdx
 4120      000000
 4121 1d58 4889C6   		movq	%rax, %rsi
 4122 1d5b 4889DF   		movq	%rbx, %rdi
 4123 1d5e E8000000 		call	_ZN8UnitTest11TestResults13OnTestFailureERKNS_11TestDetailsEPKc@PLT
 4123      00
 4124              	.LEHE118:
 4125              	.LEHB119:
 151:TestCheckMacros.cpp ****     CHECK_EQUAL("filename", reporter.lastFailedFile);
 4126              		.loc 6 151 5 discriminator 17
 4127 1d63 E8000000 		call	__cxa_end_catch@PLT
 4127      00
 4128              	.LEHE119:
 151:TestCheckMacros.cpp ****     CHECK_EQUAL("filename", reporter.lastFailedFile);
 4129              		.loc 6 151 5
 4130 1d68 E9FBFDFF 		jmp	.L193
 4130      FF
 4131              	.L209:
 4132 1d6d F30F1EFA 		endbr64
 4133 1d71 4889C3   		movq	%rax, %rbx
 4134 1d74 E8000000 		call	__cxa_end_catch@PLT
 4134      00
 4135 1d79 E9CF0000 		jmp	.L188
 4135      00
 4136              	.L210:
 4137 1d7e F30F1EFA 		endbr64
 152:TestCheckMacros.cpp ****     CHECK_EQUAL(line, reporter.lastFailedLine);
 4138              		.loc 6 152 5 is_stmt 1
 4139 1d82 4889C7   		movq	%rax, %rdi
 4140 1d85 E8000000 		call	__cxa_begin_catch@PLT
 4140      00
 4141              	.LEHB120:
 4142 1d8a E8000000 		call	_ZN8UnitTest11CurrentTest7ResultsEv@PLT
 4142      00
 152:TestCheckMacros.cpp ****     CHECK_EQUAL(line, reporter.lastFailedLine);
 4143              		.loc 6 152 5 is_stmt 0 discriminator 3
 4144 1d8f 488B18   		movq	(%rax), %rbx
 4145 1d92 E8000000 		call	_ZN8UnitTest11CurrentTest7DetailsEv@PLT
 4145      00
 152:TestCheckMacros.cpp ****     CHECK_EQUAL(line, reporter.lastFailedLine);
 4146              		.loc 6 152 5 discriminator 11
 4147 1d97 488B08   		movq	(%rax), %rcx
 4148 1d9a 488D8590 		leaq	-2160(%rbp), %rax
 4148      F7FFFF
 4149 1da1 BA980000 		movl	$152, %edx
 4149      00
 4150 1da6 4889CE   		movq	%rcx, %rsi
 4151 1da9 4889C7   		movq	%rax, %rdi
 4152 1dac E8000000 		call	_ZN8UnitTest11TestDetailsC1ERKS0_i@PLT
 4152      00
 152:TestCheckMacros.cpp ****     CHECK_EQUAL(line, reporter.lastFailedLine);
 4153              		.loc 6 152 5 discriminator 15
 4154 1db1 488D8590 		leaq	-2160(%rbp), %rax
 4154      F7FFFF
 4155 1db8 488D1500 		leaq	.LC40(%rip), %rdx
 4155      000000
 4156 1dbf 4889C6   		movq	%rax, %rsi
 4157 1dc2 4889DF   		movq	%rbx, %rdi
 4158 1dc5 E8000000 		call	_ZN8UnitTest11TestResults13OnTestFailureERKNS_11TestDetailsEPKc@PLT
 4158      00
 4159              	.LEHE120:
 4160              	.LEHB121:
 152:TestCheckMacros.cpp ****     CHECK_EQUAL(line, reporter.lastFailedLine);
 4161              		.loc 6 152 5 discriminator 17
 4162 1dca E8000000 		call	__cxa_end_catch@PLT
 4162      00
 4163              	.LEHE121:
 152:TestCheckMacros.cpp ****     CHECK_EQUAL(line, reporter.lastFailedLine);
 4164              		.loc 6 152 5
 4165 1dcf E9E5FDFF 		jmp	.L196
 4165      FF
 4166              	.L211:
 4167 1dd4 F30F1EFA 		endbr64
 4168 1dd8 4889C3   		movq	%rax, %rbx
 4169 1ddb E8000000 		call	__cxa_end_catch@PLT
 4169      00
 4170 1de0 EB6B     		jmp	.L188
 4171              	.L212:
 4172 1de2 F30F1EFA 		endbr64
 153:TestCheckMacros.cpp **** }
 4173              		.loc 6 153 5 is_stmt 1
 4174 1de6 4889C7   		movq	%rax, %rdi
 4175 1de9 E8000000 		call	__cxa_begin_catch@PLT
 4175      00
 4176              	.LEHB122:
 4177 1dee E8000000 		call	_ZN8UnitTest11CurrentTest7ResultsEv@PLT
 4177      00
 153:TestCheckMacros.cpp **** }
 4178              		.loc 6 153 5 is_stmt 0 discriminator 3
 4179 1df3 488B18   		movq	(%rax), %rbx
 4180 1df6 E8000000 		call	_ZN8UnitTest11CurrentTest7DetailsEv@PLT
 4180      00
 153:TestCheckMacros.cpp **** }
 4181              		.loc 6 153 5 discriminator 11
 4182 1dfb 488B08   		movq	(%rax), %rcx
 4183 1dfe 488D8590 		leaq	-2160(%rbp), %rax
 4183      F7FFFF
 4184 1e05 BA990000 		movl	$153, %edx
 4184      00
 4185 1e0a 4889CE   		movq	%rcx, %rsi
 4186 1e0d 4889C7   		movq	%rax, %rdi
 4187 1e10 E8000000 		call	_ZN8UnitTest11TestDetailsC1ERKS0_i@PLT
 4187      00
 153:TestCheckMacros.cpp **** }
 4188              		.loc 6 153 5 discriminator 15
 4189 1e15 488D8590 		leaq	-2160(%rbp), %rax
 4189      F7FFFF
 4190 1e1c 488D1500 		leaq	.LC41(%rip), %rdx
 4190      000000
 4191 1e23 4889C6   		movq	%rax, %rsi
 4192 1e26 4889DF   		movq	%rbx, %rdi
 4193 1e29 E8000000 		call	_ZN8UnitTest11TestResults13OnTestFailureERKNS_11TestDetailsEPKc@PLT
 4193      00
 4194              	.LEHE122:
 4195              	.LEHB123:
 153:TestCheckMacros.cpp **** }
 4196              		.loc 6 153 5 discriminator 17
 4197 1e2e E8000000 		call	__cxa_end_catch@PLT
 4197      00
 4198              	.LEHE123:
 153:TestCheckMacros.cpp **** }
 4199              		.loc 6 153 5
 4200 1e33 E9D2FDFF 		jmp	.L199
 4200      FF
 4201              	.L213:
 4202 1e38 F30F1EFA 		endbr64
 4203 1e3c 4889C3   		movq	%rax, %rbx
 4204 1e3f E8000000 		call	__cxa_end_catch@PLT
 4204      00
 4205 1e44 EB07     		jmp	.L188
 4206              	.L205:
 4207 1e46 F30F1EFA 		endbr64
 4208              		.loc 6 154 1 is_stmt 1
 4209 1e4a 4889C3   		movq	%rax, %rbx
 4210              	.L188:
 4211 1e4d 488D85B0 		leaq	-2128(%rbp), %rax
 4211      F7FFFF
 4212 1e54 4889C7   		movq	%rax, %rdi
 4213 1e57 E8000000 		call	_ZN17RecordingReporterD1Ev
 4213      00
 4214 1e5c 4889D8   		movq	%rbx, %rax
 4215 1e5f 4889C7   		movq	%rax, %rdi
 4216              	.LEHB124:
 4217 1e62 E8000000 		call	_Unwind_Resume@PLT
 4217      00
 4218              	.LEHE124:
 4219              	.L214:
 4220 1e67 E8000000 		call	__stack_chk_fail@PLT
 4220      00
 4221              	.L201:
 4222 1e6c 488B5DF8 		movq	-8(%rbp), %rbx
 4223 1e70 C9       		leave
 4224              		.cfi_def_cfa 7, 8
 4225 1e71 C3       		ret
 4226              		.cfi_endproc
 4227              	.LFE1200:
 4228              		.section	.gcc_except_table
 4229              		.align 4
 4230              	.LLSDA1200:
 4231 02ac FF       		.byte	0xff
 4232 02ad 9B       		.byte	0x9b
 4233 02ae 79       		.uleb128 .LLSDATT1200-.LLSDATTD1200
 4234              	.LLSDATTD1200:
 4235 02af 01       		.byte	0x1
 4236 02b0 6F       		.uleb128 .LLSDACSE1200-.LLSDACSB1200
 4237              	.LLSDACSB1200:
 4238 02b1 53       		.uleb128 .LEHB106-.LFB1200
 4239 02b2 52       		.uleb128 .LEHE106-.LEHB106
 4240 02b3 9609     		.uleb128 .L205-.LFB1200
 4241 02b5 00       		.uleb128 0
 4242 02b6 A501     		.uleb128 .LEHB107-.LFB1200
 4243 02b8 58       		.uleb128 .LEHE107-.LEHB107
 4244 02b9 8105     		.uleb128 .L202-.LFB1200
 4245 02bb 01       		.uleb128 0x1
 4246 02bc 9102     		.uleb128 .LEHB108-.LFB1200
 4247 02be 05       		.uleb128 .LEHE108-.LEHB108
 4248 02bf 9609     		.uleb128 .L205-.LFB1200
 4249 02c1 00       		.uleb128 0
 4250 02c2 9602     		.uleb128 .LEHB109-.LFB1200
 4251 02c4 51       		.uleb128 .LEHE109-.LEHB109
 4252 02c5 8006     		.uleb128 .L206-.LFB1200
 4253 02c7 01       		.uleb128 0x1
 4254 02c8 E702     		.uleb128 .LEHB110-.LFB1200
 4255 02ca 51       		.uleb128 .LEHE110-.LEHB110
 4256 02cb E706     		.uleb128 .L208-.LFB1200
 4257 02cd 01       		.uleb128 0x1
 4258 02ce B803     		.uleb128 .LEHB111-.LFB1200
 4259 02d0 51       		.uleb128 .LEHE111-.LEHB111
 4260 02d1 CE07     		.uleb128 .L210-.LFB1200
 4261 02d3 01       		.uleb128 0x1
 4262 02d4 8904     		.uleb128 .LEHB112-.LFB1200
 4263 02d6 51       		.uleb128 .LEHE112-.LEHB112
 4264 02d7 B208     		.uleb128 .L212-.LFB1200
 4265 02d9 01       		.uleb128 0x1
 4266 02da E404     		.uleb128 .LEHB113-.LFB1200
 4267 02dc 05       		.uleb128 .LEHE113-.LEHB113
 4268 02dd 00       		.uleb128 0
 4269 02de 00       		.uleb128 0
 4270 02df 8D05     		.uleb128 .LEHB114-.LFB1200
 4271 02e1 40       		.uleb128 .LEHE114-.LEHB114
 4272 02e2 D705     		.uleb128 .L204-.LFB1200
 4273 02e4 00       		.uleb128 0
 4274 02e5 CD05     		.uleb128 .LEHB115-.LFB1200
 4275 02e7 05       		.uleb128 .LEHE115-.LEHB115
 4276 02e8 E505     		.uleb128 .L203-.LFB1200
 4277 02ea 00       		.uleb128 0
 4278 02eb 8C06     		.uleb128 .LEHB116-.LFB1200
 4279 02ed 40       		.uleb128 .LEHE116-.LEHB116
 4280 02ee D606     		.uleb128 .L207-.LFB1200
 4281 02f0 00       		.uleb128 0
 4282 02f1 CC06     		.uleb128 .LEHB117-.LFB1200
 4283 02f3 05       		.uleb128 .LEHE117-.LEHB117
 4284 02f4 9609     		.uleb128 .L205-.LFB1200
 4285 02f6 00       		.uleb128 0
 4286 02f7 F306     		.uleb128 .LEHB118-.LFB1200
 4287 02f9 40       		.uleb128 .LEHE118-.LEHB118
 4288 02fa BD07     		.uleb128 .L209-.LFB1200
 4289 02fc 00       		.uleb128 0
 4290 02fd B307     		.uleb128 .LEHB119-.LFB1200
 4291 02ff 05       		.uleb128 .LEHE119-.LEHB119
 4292 0300 9609     		.uleb128 .L205-.LFB1200
 4293 0302 00       		.uleb128 0
 4294 0303 DA07     		.uleb128 .LEHB120-.LFB1200
 4295 0305 40       		.uleb128 .LEHE120-.LEHB120
 4296 0306 A408     		.uleb128 .L211-.LFB1200
 4297 0308 00       		.uleb128 0
 4298 0309 9A08     		.uleb128 .LEHB121-.LFB1200
 4299 030b 05       		.uleb128 .LEHE121-.LEHB121
 4300 030c 9609     		.uleb128 .L205-.LFB1200
 4301 030e 00       		.uleb128 0
 4302 030f BE08     		.uleb128 .LEHB122-.LFB1200
 4303 0311 40       		.uleb128 .LEHE122-.LEHB122
 4304 0312 8809     		.uleb128 .L213-.LFB1200
 4305 0314 00       		.uleb128 0
 4306 0315 FE08     		.uleb128 .LEHB123-.LFB1200
 4307 0317 05       		.uleb128 .LEHE123-.LEHB123
 4308 0318 9609     		.uleb128 .L205-.LFB1200
 4309 031a 00       		.uleb128 0
 4310 031b B209     		.uleb128 .LEHB124-.LFB1200
 4311 031d 05       		.uleb128 .LEHE124-.LEHB124
 4312 031e 00       		.uleb128 0
 4313 031f 00       		.uleb128 0
 4314              	.LLSDACSE1200:
 4315 0320 01       		.byte	0x1
 4316 0321 00       		.byte	0
 4317 0322 0000     		.align 4
 4318 0324 00000000 		.long	0
 4319              	
 4320              	.LLSDATT1200:
 4321              		.text
 4323              		.section	.rodata
 4324 062a 00000000 		.align 8
 4324      0000
 4325              	.LC42:
 4326 0630 43686563 		.string	"CheckEqualFailureBecauseOfExceptionContainsCorrectDetails"
 4326      6B457175 
 4326      616C4661 
 4326      696C7572 
 4326      65426563 
 4327              		.text
 4328              		.align 2
 4330              	_ZN12_GLOBAL__N_161TestCheckEqualFailureBecauseOfExceptionContainsCorrectDetailsC2Ev:
 4331              	.LFB1202:
 155:TestCheckMacros.cpp **** 
 156:TestCheckMacros.cpp **** TEST(CheckEqualFailureBecauseOfExceptionContainsCorrectDetails)
 4332              		.loc 6 156 1
 4333              		.cfi_startproc
 4334 1e72 55       		pushq	%rbp
 4335              		.cfi_def_cfa_offset 16
 4336              		.cfi_offset 6, -16
 4337 1e73 4889E5   		movq	%rsp, %rbp
 4338              		.cfi_def_cfa_register 6
 4339 1e76 53       		pushq	%rbx
 4340 1e77 4883EC18 		subq	$24, %rsp
 4341              		.cfi_offset 3, -24
 4342 1e7b 48897DE8 		movq	%rdi, -24(%rbp)
 4343              	.LBB38:
 4344              		.loc 6 156 1
 4345 1e7f 488B5DE8 		movq	-24(%rbp), %rbx
 4346 1e83 E8000000 		call	_ZN13UnitTestSuite12GetSuiteNameEv
 4346      00
 4347 1e88 4889C2   		movq	%rax, %rdx
 4348 1e8b 41B89C00 		movl	$156, %r8d
 4348      0000
 4349 1e91 488D0500 		leaq	.LC2(%rip), %rax
 4349      000000
 4350 1e98 4889C1   		movq	%rax, %rcx
 4351 1e9b 488D0500 		leaq	.LC42(%rip), %rax
 4351      000000
 4352 1ea2 4889C6   		movq	%rax, %rsi
 4353 1ea5 4889DF   		movq	%rbx, %rdi
 4354 1ea8 E8000000 		call	_ZN8UnitTest4TestC2EPKcS2_S2_i@PLT
 4354      00
 4355 1ead 488D1500 		leaq	16+_ZTVN12_GLOBAL__N_161TestCheckEqualFailureBecauseOfExceptionContainsCorrectDetailsE(%rip),
 4355      000000
 4356 1eb4 488B45E8 		movq	-24(%rbp), %rax
 4357 1eb8 488910   		movq	%rdx, (%rax)
 4358              	.LBE38:
 4359 1ebb 90       		nop
 4360 1ebc 488B5DF8 		movq	-8(%rbp), %rbx
 4361 1ec0 C9       		leave
 4362              		.cfi_def_cfa 7, 8
 4363 1ec1 C3       		ret
 4364              		.cfi_endproc
 4365              	.LFE1202:
 4367              		.set	_ZN12_GLOBAL__N_161TestCheckEqualFailureBecauseOfExceptionContainsCorrectDetailsC1Ev,_ZN12_GL
 4368              		.local	_ZN12_GLOBAL__N_169testCheckEqualFailureBecauseOfExceptionContainsCorrectDetailsInstanceE
 4369              		.comm	_ZN12_GLOBAL__N_169testCheckEqualFailureBecauseOfExceptionContainsCorrectDetailsInstanceE,56
 4370              		.local	_ZN12_GLOBAL__N_162adderCheckEqualFailureBecauseOfExceptionContainsCorrectDetailsE
 4371              		.comm	_ZN12_GLOBAL__N_162adderCheckEqualFailureBecauseOfExceptionContainsCorrectDetailsE,1,1
 4372              		.section	.rodata
 4373 066a 00000000 		.align 8
 4373      0000
 4374              	.LC43:
 4375 0670 556E6861 		.string	"Unhandled exception in CHECK_EQUAL(ThrowingFunction(), 123)"
 4375      6E646C65 
 4375      64206578 
 4375      63657074 
 4375      696F6E20 
 4376              		.text
 4377              		.align 2
 4379              	_ZNK12_GLOBAL__N_161TestCheckEqualFailureBecauseOfExceptionContainsCorrectDetails7RunImplEv:
 4380              	.LFB1204:
 157:TestCheckMacros.cpp **** {
 4381              		.loc 6 157 1
 4382              		.cfi_startproc
 4383              		.cfi_personality 0x9b,DW.ref.__gxx_personality_v0
 4384              		.cfi_lsda 0x1b,.LLSDA1204
 4385 1ec2 F30F1EFA 		endbr64
 4386 1ec6 55       		pushq	%rbp
 4387              		.cfi_def_cfa_offset 16
 4388              		.cfi_offset 6, -16
 4389 1ec7 4889E5   		movq	%rsp, %rbp
 4390              		.cfi_def_cfa_register 6
 4391 1eca 53       		pushq	%rbx
 4392 1ecb 4881ECD8 		subq	$2264, %rsp
 4392      080000
 4393              		.cfi_offset 3, -24
 4394 1ed2 4889BD28 		movq	%rdi, -2264(%rbp)
 4394      F7FFFF
 4395              		.loc 6 157 1
 4396 1ed9 64488B04 		movq	%fs:40, %rax
 4396      25280000 
 4396      00
 4397 1ee2 488945E8 		movq	%rax, -24(%rbp)
 4398 1ee6 31C0     		xorl	%eax, %eax
 158:TestCheckMacros.cpp ****     int line = 0;
 4399              		.loc 6 158 9
 4400 1ee8 C78534F7 		movl	$0, -2252(%rbp)
 4400      FFFF0000 
 4400      0000
 159:TestCheckMacros.cpp ****     RecordingReporter reporter;
 4401              		.loc 6 159 23
 4402 1ef2 488D85B0 		leaq	-2128(%rbp), %rax
 4402      F7FFFF
 4403 1ef9 4889C7   		movq	%rax, %rdi
 4404 1efc E8000000 		call	_ZN17RecordingReporterC1Ev
 4404      00
 4405              	.LBB39:
 160:TestCheckMacros.cpp ****     {
 161:TestCheckMacros.cpp ****         UnitTest::TestResults testResults(&reporter);
 4406              		.loc 6 161 52
 4407 1f01 488D95B0 		leaq	-2128(%rbp), %rdx
 4407      F7FFFF
 4408 1f08 488D8550 		leaq	-2224(%rbp), %rax
 4408      F7FFFF
 4409 1f0f 4889D6   		movq	%rdx, %rsi
 4410 1f12 4889C7   		movq	%rax, %rdi
 4411              	.LEHB125:
 4412 1f15 E8000000 		call	_ZN8UnitTest11TestResultsC1EPNS_12TestReporterE@PLT
 4412      00
 162:TestCheckMacros.cpp **** 		UnitTest::TestDetails const testDetails("testName", "suiteName", "filename", -1);
 4413              		.loc 6 162 82
 4414 1f1a 488D8570 		leaq	-2192(%rbp), %rax
 4414      F7FFFF
 4415 1f21 41B8FFFF 		movl	$-1, %r8d
 4415      FFFF
 4416 1f27 488D1500 		leaq	.LC34(%rip), %rdx
 4416      000000
 4417 1f2e 4889D1   		movq	%rdx, %rcx
 4418 1f31 488D1500 		leaq	.LC35(%rip), %rdx
 4418      000000
 4419 1f38 488D3500 		leaq	.LC36(%rip), %rsi
 4419      000000
 4420 1f3f 4889C7   		movq	%rax, %rdi
 4421 1f42 E8000000 		call	_ZN8UnitTest11TestDetailsC1EPKcS2_S2_i@PLT
 4421      00
 163:TestCheckMacros.cpp **** 		ScopedCurrentTest scopedResults(testResults, &testDetails);
 4422              		.loc 6 163 60
 4423 1f47 488D9570 		leaq	-2192(%rbp), %rdx
 4423      F7FFFF
 4424 1f4e 488D8D50 		leaq	-2224(%rbp), %rcx
 4424      F7FFFF
 4425 1f55 488D8540 		leaq	-2240(%rbp), %rax
 4425      F7FFFF
 4426 1f5c 4889CE   		movq	%rcx, %rsi
 4427 1f5f 4889C7   		movq	%rax, %rdi
 4428 1f62 E8000000 		call	_ZN17ScopedCurrentTestC1ERN8UnitTest11TestResultsEPKNS0_11TestDetailsE
 4428      00
 4429              	.LEHE125:
 4430              	.LEHB126:
 164:TestCheckMacros.cpp **** 
 165:TestCheckMacros.cpp **** 		CHECK_EQUAL(ThrowingFunction(), 123);    line = __LINE__;
 4431              		.loc 6 165 3
 4432 1f67 E8000000 		call	_ZN8UnitTest11CurrentTest7DetailsEv@PLT
 4432      00
 4433 1f6c 488B08   		movq	(%rax), %rcx
 4434 1f6f 488D8590 		leaq	-2160(%rbp), %rax
 4434      F7FFFF
 4435 1f76 BAA50000 		movl	$165, %edx
 4435      00
 4436 1f7b 4889CE   		movq	%rcx, %rsi
 4437 1f7e 4889C7   		movq	%rax, %rdi
 4438 1f81 E8000000 		call	_ZN8UnitTest11TestDetailsC1ERKS0_i@PLT
 4438      00
 4439              		.loc 6 165 3 is_stmt 0 discriminator 4
 4440 1f86 C7853CF7 		movl	$123, -2244(%rbp)
 4440      FFFF7B00 
 4440      0000
 4441 1f90 E875EBFF 		call	_ZN12_GLOBAL__N_116ThrowingFunctionEv
 4441      FF
 4442 1f95 898538F7 		movl	%eax, -2248(%rbp)
 4442      FFFF
 4443 1f9b E8000000 		call	_ZN8UnitTest11CurrentTest7ResultsEv@PLT
 4443      00
 4444              		.loc 6 165 3 discriminator 6
 4445 1fa0 488B00   		movq	(%rax), %rax
 4446 1fa3 488D8D90 		leaq	-2160(%rbp), %rcx
 4446      F7FFFF
 4447 1faa 488D953C 		leaq	-2244(%rbp), %rdx
 4447      F7FFFF
 4448 1fb1 488DB538 		leaq	-2248(%rbp), %rsi
 4448      F7FFFF
 4449 1fb8 4889C7   		movq	%rax, %rdi
 4450 1fbb E8000000 		call	_ZN8UnitTest10CheckEqualIiiEEvRNS_11TestResultsERKT_RKT0_RKNS_11TestDetailsE
 4450      00
 4451              	.LEHE126:
 4452              	.L218:
 4453              		.loc 6 165 49 is_stmt 1 discriminator 11
 4454 1fc0 C78534F7 		movl	$165, -2252(%rbp)
 4454      FFFFA500 
 4454      0000
 166:TestCheckMacros.cpp ****     }
 4455              		.loc 6 166 5 discriminator 11
 4456 1fca 488D8540 		leaq	-2240(%rbp), %rax
 4456      F7FFFF
 4457 1fd1 4889C7   		movq	%rax, %rdi
 4458              	.LEHB127:
 4459 1fd4 E8000000 		call	_ZN17ScopedCurrentTestD1Ev
 4459      00
 4460              	.LEHE127:
 4461              	.LEHB128:
 4462              	.LBE39:
 167:TestCheckMacros.cpp **** 
 168:TestCheckMacros.cpp ****     CHECK_EQUAL("testName", reporter.lastFailedTest);
 4463              		.loc 6 168 5
 4464 1fd9 E8000000 		call	_ZN8UnitTest11CurrentTest7DetailsEv@PLT
 4464      00
 4465 1fde 488B08   		movq	(%rax), %rcx
 4466 1fe1 488D8590 		leaq	-2160(%rbp), %rax
 4466      F7FFFF
 4467 1fe8 BAA80000 		movl	$168, %edx
 4467      00
 4468 1fed 4889CE   		movq	%rcx, %rsi
 4469 1ff0 4889C7   		movq	%rax, %rdi
 4470 1ff3 E8000000 		call	_ZN8UnitTest11TestDetailsC1ERKS0_i@PLT
 4470      00
 4471              		.loc 6 168 5 is_stmt 0 discriminator 4
 4472 1ff8 E8000000 		call	_ZN8UnitTest11CurrentTest7ResultsEv@PLT
 4472      00
 4473 1ffd 488B00   		movq	(%rax), %rax
 4474 2000 488D9590 		leaq	-2160(%rbp), %rdx
 4474      F7FFFF
 4475 2007 488D8DB0 		leaq	-2128(%rbp), %rcx
 4475      F7FFFF
 4476 200e 488DB114 		leaq	1044(%rcx), %rsi
 4476      040000
 4477 2015 4889D1   		movq	%rdx, %rcx
 4478 2018 4889F2   		movq	%rsi, %rdx
 4479 201b 488D3500 		leaq	.LC36(%rip), %rsi
 4479      000000
 4480 2022 4889C7   		movq	%rax, %rdi
 4481 2025 E8000000 		call	_ZN8UnitTest10CheckEqualERNS_11TestResultsEPKcPcRKNS_11TestDetailsE@PLT
 4481      00
 4482              	.LEHE128:
 4483              	.L223:
 4484              	.LEHB129:
 169:TestCheckMacros.cpp ****     CHECK_EQUAL("suiteName", reporter.lastFailedSuite);
 4485              		.loc 6 169 5 is_stmt 1
 4486 202a E8000000 		call	_ZN8UnitTest11CurrentTest7DetailsEv@PLT
 4486      00
 4487 202f 488B08   		movq	(%rax), %rcx
 4488 2032 488D8590 		leaq	-2160(%rbp), %rax
 4488      F7FFFF
 4489 2039 BAA90000 		movl	$169, %edx
 4489      00
 4490 203e 4889CE   		movq	%rcx, %rsi
 4491 2041 4889C7   		movq	%rax, %rdi
 4492 2044 E8000000 		call	_ZN8UnitTest11TestDetailsC1ERKS0_i@PLT
 4492      00
 4493              		.loc 6 169 5 is_stmt 0 discriminator 4
 4494 2049 E8000000 		call	_ZN8UnitTest11CurrentTest7ResultsEv@PLT
 4494      00
 4495 204e 488B00   		movq	(%rax), %rax
 4496 2051 488D9590 		leaq	-2160(%rbp), %rdx
 4496      F7FFFF
 4497 2058 488D8DB0 		leaq	-2128(%rbp), %rcx
 4497      F7FFFF
 4498 205f 488DB114 		leaq	788(%rcx), %rsi
 4498      030000
 4499 2066 4889D1   		movq	%rdx, %rcx
 4500 2069 4889F2   		movq	%rsi, %rdx
 4501 206c 488D3500 		leaq	.LC35(%rip), %rsi
 4501      000000
 4502 2073 4889C7   		movq	%rax, %rdi
 4503 2076 E8000000 		call	_ZN8UnitTest10CheckEqualERNS_11TestResultsEPKcPcRKNS_11TestDetailsE@PLT
 4503      00
 4504              	.LEHE129:
 4505              	.L226:
 4506              	.LEHB130:
 170:TestCheckMacros.cpp ****     CHECK_EQUAL("filename", reporter.lastFailedFile);
 4507              		.loc 6 170 5 is_stmt 1
 4508 207b E8000000 		call	_ZN8UnitTest11CurrentTest7DetailsEv@PLT
 4508      00
 4509 2080 488B08   		movq	(%rax), %rcx
 4510 2083 488D8590 		leaq	-2160(%rbp), %rax
 4510      F7FFFF
 4511 208a BAAA0000 		movl	$170, %edx
 4511      00
 4512 208f 4889CE   		movq	%rcx, %rsi
 4513 2092 4889C7   		movq	%rax, %rdi
 4514 2095 E8000000 		call	_ZN8UnitTest11TestDetailsC1ERKS0_i@PLT
 4514      00
 4515              		.loc 6 170 5 is_stmt 0 discriminator 4
 4516 209a E8000000 		call	_ZN8UnitTest11CurrentTest7ResultsEv@PLT
 4516      00
 4517 209f 488B00   		movq	(%rax), %rax
 4518 20a2 488D9590 		leaq	-2160(%rbp), %rdx
 4518      F7FFFF
 4519 20a9 488D8DB0 		leaq	-2128(%rbp), %rcx
 4519      F7FFFF
 4520 20b0 488DB110 		leaq	528(%rcx), %rsi
 4520      020000
 4521 20b7 4889D1   		movq	%rdx, %rcx
 4522 20ba 4889F2   		movq	%rsi, %rdx
 4523 20bd 488D3500 		leaq	.LC34(%rip), %rsi
 4523      000000
 4524 20c4 4889C7   		movq	%rax, %rdi
 4525 20c7 E8000000 		call	_ZN8UnitTest10CheckEqualERNS_11TestResultsEPKcPcRKNS_11TestDetailsE@PLT
 4525      00
 4526              	.LEHE130:
 4527              	.L229:
 4528              	.LEHB131:
 171:TestCheckMacros.cpp ****     CHECK_EQUAL(line, reporter.lastFailedLine);
 4529              		.loc 6 171 5 is_stmt 1
 4530 20cc E8000000 		call	_ZN8UnitTest11CurrentTest7DetailsEv@PLT
 4530      00
 4531 20d1 488B08   		movq	(%rax), %rcx
 4532 20d4 488D8590 		leaq	-2160(%rbp), %rax
 4532      F7FFFF
 4533 20db BAAB0000 		movl	$171, %edx
 4533      00
 4534 20e0 4889CE   		movq	%rcx, %rsi
 4535 20e3 4889C7   		movq	%rax, %rdi
 4536 20e6 E8000000 		call	_ZN8UnitTest11TestDetailsC1ERKS0_i@PLT
 4536      00
 4537              		.loc 6 171 5 is_stmt 0 discriminator 4
 4538 20eb E8000000 		call	_ZN8UnitTest11CurrentTest7ResultsEv@PLT
 4538      00
 4539 20f0 488B00   		movq	(%rax), %rax
 4540 20f3 488D9590 		leaq	-2160(%rbp), %rdx
 4540      F7FFFF
 4541 20fa 488D8DB0 		leaq	-2128(%rbp), %rcx
 4541      F7FFFF
 4542 2101 488DB910 		leaq	784(%rcx), %rdi
 4542      030000
 4543 2108 488DB534 		leaq	-2252(%rbp), %rsi
 4543      F7FFFF
 4544 210f 4889D1   		movq	%rdx, %rcx
 4545 2112 4889FA   		movq	%rdi, %rdx
 4546 2115 4889C7   		movq	%rax, %rdi
 4547 2118 E8000000 		call	_ZN8UnitTest10CheckEqualIiiEEvRNS_11TestResultsERKT_RKT0_RKNS_11TestDetailsE
 4547      00
 4548              	.LEHE131:
 4549              	.L232:
 172:TestCheckMacros.cpp **** }
 4550              		.loc 6 172 1 is_stmt 1
 4551 211d 488D85B0 		leaq	-2128(%rbp), %rax
 4551      F7FFFF
 4552 2124 4889C7   		movq	%rax, %rdi
 4553              	.LEHB132:
 4554 2127 E8000000 		call	_ZN17RecordingReporterD1Ev
 4554      00
 4555              	.LEHE132:
 4556 212c 488B45E8 		movq	-24(%rbp), %rax
 4557 2130 64482B04 		subq	%fs:40, %rax
 4557      25280000 
 4557      00
 4558 2139 0F844002 		je	.L234
 4558      0000
 4559 213f E9360200 		jmp	.L247
 4559      00
 4560              	.L235:
 4561 2144 F30F1EFA 		endbr64
 4562              	.LBB40:
 165:TestCheckMacros.cpp ****     }
 4563              		.loc 6 165 3
 4564 2148 4889C7   		movq	%rax, %rdi
 4565 214b E8000000 		call	__cxa_begin_catch@PLT
 4565      00
 4566              	.LEHB133:
 4567 2150 E8000000 		call	_ZN8UnitTest11CurrentTest7ResultsEv@PLT
 4567      00
 165:TestCheckMacros.cpp ****     }
 4568              		.loc 6 165 3 is_stmt 0 discriminator 3
 4569 2155 488B18   		movq	(%rax), %rbx
 4570 2158 E8000000 		call	_ZN8UnitTest11CurrentTest7DetailsEv@PLT
 4570      00
 165:TestCheckMacros.cpp ****     }
 4571              		.loc 6 165 3 discriminator 14
 4572 215d 488B08   		movq	(%rax), %rcx
 4573 2160 488D8590 		leaq	-2160(%rbp), %rax
 4573      F7FFFF
 4574 2167 BAA50000 		movl	$165, %edx
 4574      00
 4575 216c 4889CE   		movq	%rcx, %rsi
 4576 216f 4889C7   		movq	%rax, %rdi
 4577 2172 E8000000 		call	_ZN8UnitTest11TestDetailsC1ERKS0_i@PLT
 4577      00
 165:TestCheckMacros.cpp ****     }
 4578              		.loc 6 165 3 discriminator 18
 4579 2177 488D8590 		leaq	-2160(%rbp), %rax
 4579      F7FFFF
 4580 217e 488D1500 		leaq	.LC43(%rip), %rdx
 4580      000000
 4581 2185 4889C6   		movq	%rax, %rsi
 4582 2188 4889DF   		movq	%rbx, %rdi
 4583 218b E8000000 		call	_ZN8UnitTest11TestResults13OnTestFailureERKNS_11TestDetailsEPKc@PLT
 4583      00
 4584              	.LEHE133:
 4585              	.LEHB134:
 165:TestCheckMacros.cpp ****     }
 4586              		.loc 6 165 3 discriminator 20
 4587 2190 E8000000 		call	__cxa_end_catch@PLT
 4587      00
 4588              	.LEHE134:
 165:TestCheckMacros.cpp ****     }
 4589              		.loc 6 165 3
 4590 2195 E926FEFF 		jmp	.L218
 4590      FF
 4591              	.L237:
 4592 219a F30F1EFA 		endbr64
 4593 219e 4889C3   		movq	%rax, %rbx
 4594 21a1 E8000000 		call	__cxa_end_catch@PLT
 4594      00
 4595 21a6 EB07     		jmp	.L220
 4596              	.L236:
 4597 21a8 F30F1EFA 		endbr64
 166:TestCheckMacros.cpp **** 
 4598              		.loc 6 166 5 is_stmt 1
 4599 21ac 4889C3   		movq	%rax, %rbx
 4600              	.L220:
 4601 21af 488D8540 		leaq	-2240(%rbp), %rax
 4601      F7FFFF
 4602 21b6 4889C7   		movq	%rax, %rdi
 4603 21b9 E8000000 		call	_ZN17ScopedCurrentTestD1Ev
 4603      00
 4604 21be E99D0100 		jmp	.L221
 4604      00
 4605              	.L239:
 4606 21c3 F30F1EFA 		endbr64
 4607              	.LBE40:
 168:TestCheckMacros.cpp ****     CHECK_EQUAL("suiteName", reporter.lastFailedSuite);
 4608              		.loc 6 168 5
 4609 21c7 4889C7   		movq	%rax, %rdi
 4610 21ca E8000000 		call	__cxa_begin_catch@PLT
 4610      00
 4611              	.LEHB135:
 4612 21cf E8000000 		call	_ZN8UnitTest11CurrentTest7ResultsEv@PLT
 4612      00
 168:TestCheckMacros.cpp ****     CHECK_EQUAL("suiteName", reporter.lastFailedSuite);
 4613              		.loc 6 168 5 is_stmt 0 discriminator 3
 4614 21d4 488B18   		movq	(%rax), %rbx
 4615 21d7 E8000000 		call	_ZN8UnitTest11CurrentTest7DetailsEv@PLT
 4615      00
 168:TestCheckMacros.cpp ****     CHECK_EQUAL("suiteName", reporter.lastFailedSuite);
 4616              		.loc 6 168 5 discriminator 11
 4617 21dc 488B08   		movq	(%rax), %rcx
 4618 21df 488D8590 		leaq	-2160(%rbp), %rax
 4618      F7FFFF
 4619 21e6 BAA80000 		movl	$168, %edx
 4619      00
 4620 21eb 4889CE   		movq	%rcx, %rsi
 4621 21ee 4889C7   		movq	%rax, %rdi
 4622 21f1 E8000000 		call	_ZN8UnitTest11TestDetailsC1ERKS0_i@PLT
 4622      00
 168:TestCheckMacros.cpp ****     CHECK_EQUAL("suiteName", reporter.lastFailedSuite);
 4623              		.loc 6 168 5 discriminator 15
 4624 21f6 488D8590 		leaq	-2160(%rbp), %rax
 4624      F7FFFF
 4625 21fd 488D1500 		leaq	.LC38(%rip), %rdx
 4625      000000
 4626 2204 4889C6   		movq	%rax, %rsi
 4627 2207 4889DF   		movq	%rbx, %rdi
 4628 220a E8000000 		call	_ZN8UnitTest11TestResults13OnTestFailureERKNS_11TestDetailsEPKc@PLT
 4628      00
 4629              	.LEHE135:
 4630              	.LEHB136:
 168:TestCheckMacros.cpp ****     CHECK_EQUAL("suiteName", reporter.lastFailedSuite);
 4631              		.loc 6 168 5 discriminator 17
 4632 220f E8000000 		call	__cxa_end_catch@PLT
 4632      00
 4633              	.LEHE136:
 168:TestCheckMacros.cpp ****     CHECK_EQUAL("suiteName", reporter.lastFailedSuite);
 4634              		.loc 6 168 5
 4635 2214 E911FEFF 		jmp	.L223
 4635      FF
 4636              	.L240:
 4637 2219 F30F1EFA 		endbr64
 4638 221d 4889C3   		movq	%rax, %rbx
 4639 2220 E8000000 		call	__cxa_end_catch@PLT
 4639      00
 4640 2225 E9360100 		jmp	.L221
 4640      00
 4641              	.L241:
 4642 222a F30F1EFA 		endbr64
 169:TestCheckMacros.cpp ****     CHECK_EQUAL("filename", reporter.lastFailedFile);
 4643              		.loc 6 169 5 is_stmt 1
 4644 222e 4889C7   		movq	%rax, %rdi
 4645 2231 E8000000 		call	__cxa_begin_catch@PLT
 4645      00
 4646              	.LEHB137:
 4647 2236 E8000000 		call	_ZN8UnitTest11CurrentTest7ResultsEv@PLT
 4647      00
 169:TestCheckMacros.cpp ****     CHECK_EQUAL("filename", reporter.lastFailedFile);
 4648              		.loc 6 169 5 is_stmt 0 discriminator 3
 4649 223b 488B18   		movq	(%rax), %rbx
 4650 223e E8000000 		call	_ZN8UnitTest11CurrentTest7DetailsEv@PLT
 4650      00
 169:TestCheckMacros.cpp ****     CHECK_EQUAL("filename", reporter.lastFailedFile);
 4651              		.loc 6 169 5 discriminator 11
 4652 2243 488B08   		movq	(%rax), %rcx
 4653 2246 488D8590 		leaq	-2160(%rbp), %rax
 4653      F7FFFF
 4654 224d BAA90000 		movl	$169, %edx
 4654      00
 4655 2252 4889CE   		movq	%rcx, %rsi
 4656 2255 4889C7   		movq	%rax, %rdi
 4657 2258 E8000000 		call	_ZN8UnitTest11TestDetailsC1ERKS0_i@PLT
 4657      00
 169:TestCheckMacros.cpp ****     CHECK_EQUAL("filename", reporter.lastFailedFile);
 4658              		.loc 6 169 5 discriminator 15
 4659 225d 488D8590 		leaq	-2160(%rbp), %rax
 4659      F7FFFF
 4660 2264 488D1500 		leaq	.LC39(%rip), %rdx
 4660      000000
 4661 226b 4889C6   		movq	%rax, %rsi
 4662 226e 4889DF   		movq	%rbx, %rdi
 4663 2271 E8000000 		call	_ZN8UnitTest11TestResults13OnTestFailureERKNS_11TestDetailsEPKc@PLT
 4663      00
 4664              	.LEHE137:
 4665              	.LEHB138:
 169:TestCheckMacros.cpp ****     CHECK_EQUAL("filename", reporter.lastFailedFile);
 4666              		.loc 6 169 5 discriminator 17
 4667 2276 E8000000 		call	__cxa_end_catch@PLT
 4667      00
 4668              	.LEHE138:
 169:TestCheckMacros.cpp ****     CHECK_EQUAL("filename", reporter.lastFailedFile);
 4669              		.loc 6 169 5
 4670 227b E9FBFDFF 		jmp	.L226
 4670      FF
 4671              	.L242:
 4672 2280 F30F1EFA 		endbr64
 4673 2284 4889C3   		movq	%rax, %rbx
 4674 2287 E8000000 		call	__cxa_end_catch@PLT
 4674      00
 4675 228c E9CF0000 		jmp	.L221
 4675      00
 4676              	.L243:
 4677 2291 F30F1EFA 		endbr64
 170:TestCheckMacros.cpp ****     CHECK_EQUAL(line, reporter.lastFailedLine);
 4678              		.loc 6 170 5 is_stmt 1
 4679 2295 4889C7   		movq	%rax, %rdi
 4680 2298 E8000000 		call	__cxa_begin_catch@PLT
 4680      00
 4681              	.LEHB139:
 4682 229d E8000000 		call	_ZN8UnitTest11CurrentTest7ResultsEv@PLT
 4682      00
 170:TestCheckMacros.cpp ****     CHECK_EQUAL(line, reporter.lastFailedLine);
 4683              		.loc 6 170 5 is_stmt 0 discriminator 3
 4684 22a2 488B18   		movq	(%rax), %rbx
 4685 22a5 E8000000 		call	_ZN8UnitTest11CurrentTest7DetailsEv@PLT
 4685      00
 170:TestCheckMacros.cpp ****     CHECK_EQUAL(line, reporter.lastFailedLine);
 4686              		.loc 6 170 5 discriminator 11
 4687 22aa 488B08   		movq	(%rax), %rcx
 4688 22ad 488D8590 		leaq	-2160(%rbp), %rax
 4688      F7FFFF
 4689 22b4 BAAA0000 		movl	$170, %edx
 4689      00
 4690 22b9 4889CE   		movq	%rcx, %rsi
 4691 22bc 4889C7   		movq	%rax, %rdi
 4692 22bf E8000000 		call	_ZN8UnitTest11TestDetailsC1ERKS0_i@PLT
 4692      00
 170:TestCheckMacros.cpp ****     CHECK_EQUAL(line, reporter.lastFailedLine);
 4693              		.loc 6 170 5 discriminator 15
 4694 22c4 488D8590 		leaq	-2160(%rbp), %rax
 4694      F7FFFF
 4695 22cb 488D1500 		leaq	.LC40(%rip), %rdx
 4695      000000
 4696 22d2 4889C6   		movq	%rax, %rsi
 4697 22d5 4889DF   		movq	%rbx, %rdi
 4698 22d8 E8000000 		call	_ZN8UnitTest11TestResults13OnTestFailureERKNS_11TestDetailsEPKc@PLT
 4698      00
 4699              	.LEHE139:
 4700              	.LEHB140:
 170:TestCheckMacros.cpp ****     CHECK_EQUAL(line, reporter.lastFailedLine);
 4701              		.loc 6 170 5 discriminator 17
 4702 22dd E8000000 		call	__cxa_end_catch@PLT
 4702      00
 4703              	.LEHE140:
 170:TestCheckMacros.cpp ****     CHECK_EQUAL(line, reporter.lastFailedLine);
 4704              		.loc 6 170 5
 4705 22e2 E9E5FDFF 		jmp	.L229
 4705      FF
 4706              	.L244:
 4707 22e7 F30F1EFA 		endbr64
 4708 22eb 4889C3   		movq	%rax, %rbx
 4709 22ee E8000000 		call	__cxa_end_catch@PLT
 4709      00
 4710 22f3 EB6B     		jmp	.L221
 4711              	.L245:
 4712 22f5 F30F1EFA 		endbr64
 171:TestCheckMacros.cpp **** }
 4713              		.loc 6 171 5 is_stmt 1
 4714 22f9 4889C7   		movq	%rax, %rdi
 4715 22fc E8000000 		call	__cxa_begin_catch@PLT
 4715      00
 4716              	.LEHB141:
 4717 2301 E8000000 		call	_ZN8UnitTest11CurrentTest7ResultsEv@PLT
 4717      00
 171:TestCheckMacros.cpp **** }
 4718              		.loc 6 171 5 is_stmt 0 discriminator 3
 4719 2306 488B18   		movq	(%rax), %rbx
 4720 2309 E8000000 		call	_ZN8UnitTest11CurrentTest7DetailsEv@PLT
 4720      00
 171:TestCheckMacros.cpp **** }
 4721              		.loc 6 171 5 discriminator 11
 4722 230e 488B08   		movq	(%rax), %rcx
 4723 2311 488D8590 		leaq	-2160(%rbp), %rax
 4723      F7FFFF
 4724 2318 BAAB0000 		movl	$171, %edx
 4724      00
 4725 231d 4889CE   		movq	%rcx, %rsi
 4726 2320 4889C7   		movq	%rax, %rdi
 4727 2323 E8000000 		call	_ZN8UnitTest11TestDetailsC1ERKS0_i@PLT
 4727      00
 171:TestCheckMacros.cpp **** }
 4728              		.loc 6 171 5 discriminator 15
 4729 2328 488D8590 		leaq	-2160(%rbp), %rax
 4729      F7FFFF
 4730 232f 488D1500 		leaq	.LC41(%rip), %rdx
 4730      000000
 4731 2336 4889C6   		movq	%rax, %rsi
 4732 2339 4889DF   		movq	%rbx, %rdi
 4733 233c E8000000 		call	_ZN8UnitTest11TestResults13OnTestFailureERKNS_11TestDetailsEPKc@PLT
 4733      00
 4734              	.LEHE141:
 4735              	.LEHB142:
 171:TestCheckMacros.cpp **** }
 4736              		.loc 6 171 5 discriminator 17
 4737 2341 E8000000 		call	__cxa_end_catch@PLT
 4737      00
 4738              	.LEHE142:
 171:TestCheckMacros.cpp **** }
 4739              		.loc 6 171 5
 4740 2346 E9D2FDFF 		jmp	.L232
 4740      FF
 4741              	.L246:
 4742 234b F30F1EFA 		endbr64
 4743 234f 4889C3   		movq	%rax, %rbx
 4744 2352 E8000000 		call	__cxa_end_catch@PLT
 4744      00
 4745 2357 EB07     		jmp	.L221
 4746              	.L238:
 4747 2359 F30F1EFA 		endbr64
 4748              		.loc 6 172 1 is_stmt 1
 4749 235d 4889C3   		movq	%rax, %rbx
 4750              	.L221:
 4751 2360 488D85B0 		leaq	-2128(%rbp), %rax
 4751      F7FFFF
 4752 2367 4889C7   		movq	%rax, %rdi
 4753 236a E8000000 		call	_ZN17RecordingReporterD1Ev
 4753      00
 4754 236f 4889D8   		movq	%rbx, %rax
 4755 2372 4889C7   		movq	%rax, %rdi
 4756              	.LEHB143:
 4757 2375 E8000000 		call	_Unwind_Resume@PLT
 4757      00
 4758              	.LEHE143:
 4759              	.L247:
 4760 237a E8000000 		call	__stack_chk_fail@PLT
 4760      00
 4761              	.L234:
 4762 237f 488B5DF8 		movq	-8(%rbp), %rbx
 4763 2383 C9       		leave
 4764              		.cfi_def_cfa 7, 8
 4765 2384 C3       		ret
 4766              		.cfi_endproc
 4767              	.LFE1204:
 4768              		.section	.gcc_except_table
 4769              		.align 4
 4770              	.LLSDA1204:
 4771 0328 FF       		.byte	0xff
 4772 0329 9B       		.byte	0x9b
 4773 032a 79       		.uleb128 .LLSDATT1204-.LLSDATTD1204
 4774              	.LLSDATTD1204:
 4775 032b 01       		.byte	0x1
 4776 032c 6F       		.uleb128 .LLSDACSE1204-.LLSDACSB1204
 4777              	.LLSDACSB1204:
 4778 032d 53       		.uleb128 .LEHB125-.LFB1204
 4779 032e 52       		.uleb128 .LEHE125-.LEHB125
 4780 032f 9709     		.uleb128 .L238-.LFB1204
 4781 0331 00       		.uleb128 0
 4782 0332 A501     		.uleb128 .LEHB126-.LFB1204
 4783 0334 59       		.uleb128 .LEHE126-.LEHB126
 4784 0335 8205     		.uleb128 .L235-.LFB1204
 4785 0337 01       		.uleb128 0x1
 4786 0338 9202     		.uleb128 .LEHB127-.LFB1204
 4787 033a 05       		.uleb128 .LEHE127-.LEHB127
 4788 033b 9709     		.uleb128 .L238-.LFB1204
 4789 033d 00       		.uleb128 0
 4790 033e 9702     		.uleb128 .LEHB128-.LFB1204
 4791 0340 51       		.uleb128 .LEHE128-.LEHB128
 4792 0341 8106     		.uleb128 .L239-.LFB1204
 4793 0343 01       		.uleb128 0x1
 4794 0344 E802     		.uleb128 .LEHB129-.LFB1204
 4795 0346 51       		.uleb128 .LEHE129-.LEHB129
 4796 0347 E806     		.uleb128 .L241-.LFB1204
 4797 0349 01       		.uleb128 0x1
 4798 034a B903     		.uleb128 .LEHB130-.LFB1204
 4799 034c 51       		.uleb128 .LEHE130-.LEHB130
 4800 034d CF07     		.uleb128 .L243-.LFB1204
 4801 034f 01       		.uleb128 0x1
 4802 0350 8A04     		.uleb128 .LEHB131-.LFB1204
 4803 0352 51       		.uleb128 .LEHE131-.LEHB131
 4804 0353 B308     		.uleb128 .L245-.LFB1204
 4805 0355 01       		.uleb128 0x1
 4806 0356 E504     		.uleb128 .LEHB132-.LFB1204
 4807 0358 05       		.uleb128 .LEHE132-.LEHB132
 4808 0359 00       		.uleb128 0
 4809 035a 00       		.uleb128 0
 4810 035b 8E05     		.uleb128 .LEHB133-.LFB1204
 4811 035d 40       		.uleb128 .LEHE133-.LEHB133
 4812 035e D805     		.uleb128 .L237-.LFB1204
 4813 0360 00       		.uleb128 0
 4814 0361 CE05     		.uleb128 .LEHB134-.LFB1204
 4815 0363 05       		.uleb128 .LEHE134-.LEHB134
 4816 0364 E605     		.uleb128 .L236-.LFB1204
 4817 0366 00       		.uleb128 0
 4818 0367 8D06     		.uleb128 .LEHB135-.LFB1204
 4819 0369 40       		.uleb128 .LEHE135-.LEHB135
 4820 036a D706     		.uleb128 .L240-.LFB1204
 4821 036c 00       		.uleb128 0
 4822 036d CD06     		.uleb128 .LEHB136-.LFB1204
 4823 036f 05       		.uleb128 .LEHE136-.LEHB136
 4824 0370 9709     		.uleb128 .L238-.LFB1204
 4825 0372 00       		.uleb128 0
 4826 0373 F406     		.uleb128 .LEHB137-.LFB1204
 4827 0375 40       		.uleb128 .LEHE137-.LEHB137
 4828 0376 BE07     		.uleb128 .L242-.LFB1204
 4829 0378 00       		.uleb128 0
 4830 0379 B407     		.uleb128 .LEHB138-.LFB1204
 4831 037b 05       		.uleb128 .LEHE138-.LEHB138
 4832 037c 9709     		.uleb128 .L238-.LFB1204
 4833 037e 00       		.uleb128 0
 4834 037f DB07     		.uleb128 .LEHB139-.LFB1204
 4835 0381 40       		.uleb128 .LEHE139-.LEHB139
 4836 0382 A508     		.uleb128 .L244-.LFB1204
 4837 0384 00       		.uleb128 0
 4838 0385 9B08     		.uleb128 .LEHB140-.LFB1204
 4839 0387 05       		.uleb128 .LEHE140-.LEHB140
 4840 0388 9709     		.uleb128 .L238-.LFB1204
 4841 038a 00       		.uleb128 0
 4842 038b BF08     		.uleb128 .LEHB141-.LFB1204
 4843 038d 40       		.uleb128 .LEHE141-.LEHB141
 4844 038e 8909     		.uleb128 .L246-.LFB1204
 4845 0390 00       		.uleb128 0
 4846 0391 FF08     		.uleb128 .LEHB142-.LFB1204
 4847 0393 05       		.uleb128 .LEHE142-.LEHB142
 4848 0394 9709     		.uleb128 .L238-.LFB1204
 4849 0396 00       		.uleb128 0
 4850 0397 B309     		.uleb128 .LEHB143-.LFB1204
 4851 0399 05       		.uleb128 .LEHE143-.LEHB143
 4852 039a 00       		.uleb128 0
 4853 039b 00       		.uleb128 0
 4854              	.LLSDACSE1204:
 4855 039c 01       		.byte	0x1
 4856 039d 00       		.byte	0
 4857 039e 0000     		.align 4
