   1              		.file	"TestTestRunner.cpp"
   2              		.text
   3              	.Ltext0:
   4              		.file 0 "/home/pong/FPGALink/makestuff/libs/libutpp/tests" "TestTestRunner.cpp"
   5              		.section	.rodata
   6              	.LC0:
   7 0000 44656661 		.string	"DefaultSuite"
   7      756C7453 
   7      75697465 
   7      00
   8              		.section	.text._ZN13UnitTestSuite12GetSuiteNameEv,"axG",@progbits,_ZN13UnitTestSuite12GetSuiteName
   9              		.weak	_ZN13UnitTestSuite12GetSuiteNameEv
  11              	_ZN13UnitTestSuite12GetSuiteNameEv:
  12              	.LFB0:
  13              		.file 1 "../TestSuite.h"
   1:../TestSuite.h **** #ifndef UNITTEST_TESTSUITE_H
   2:../TestSuite.h **** #define UNITTEST_TESTSUITE_H
   3:../TestSuite.h **** 
   4:../TestSuite.h **** namespace UnitTestSuite {
   5:../TestSuite.h **** 
   6:../TestSuite.h ****     inline char const* GetSuiteName ()
   7:../TestSuite.h ****     {
  14              		.loc 1 7 5
  15              		.cfi_startproc
  16 0000 F30F1EFA 		endbr64
  17 0004 55       		pushq	%rbp
  18              		.cfi_def_cfa_offset 16
  19              		.cfi_offset 6, -16
  20 0005 4889E5   		movq	%rsp, %rbp
  21              		.cfi_def_cfa_register 6
   8:../TestSuite.h ****         return "DefaultSuite";
  22              		.loc 1 8 16
  23 0008 488D0500 		leaq	.LC0(%rip), %rax
  23      000000
   9:../TestSuite.h ****     }
  24              		.loc 1 9 5
  25 000f 5D       		popq	%rbp
  26              		.cfi_def_cfa 7, 8
  27 0010 C3       		ret
  28              		.cfi_endproc
  29              	.LFE0:
  31              		.section	.text._ZN8UnitTest15MemoryOutStreamC1Ev,"axG",@progbits,_ZN8UnitTest15MemoryOutStreamC1Ev
  32              		.align 2
  33              		.weak	_ZN8UnitTest15MemoryOutStreamC1Ev
  35              	_ZN8UnitTest15MemoryOutStreamC1Ev:
  36              	.LFB1129:
  37              		.file 2 "../MemoryOutStream.h"
   1:../MemoryOutStream.h **** #ifndef UNITTEST_MEMORYOUTSTREAM_H
   2:../MemoryOutStream.h **** #define UNITTEST_MEMORYOUTSTREAM_H
   3:../MemoryOutStream.h **** 
   4:../MemoryOutStream.h **** #include "Config.h"
   5:../MemoryOutStream.h **** 
   6:../MemoryOutStream.h **** #ifndef UNITTEST_USE_CUSTOM_STREAMS
   7:../MemoryOutStream.h **** 
   8:../MemoryOutStream.h **** #include <sstream>
   9:../MemoryOutStream.h **** 
  10:../MemoryOutStream.h **** namespace UnitTest
  11:../MemoryOutStream.h **** {
  12:../MemoryOutStream.h **** 
  13:../MemoryOutStream.h **** class MemoryOutStream : public std::ostringstream
  14:../MemoryOutStream.h **** {
  15:../MemoryOutStream.h **** public:
  16:../MemoryOutStream.h ****     MemoryOutStream() {}
  38              		.loc 2 16 5
  39              		.cfi_startproc
  40              		.cfi_personality 0x9b,DW.ref.__gxx_personality_v0
  41              		.cfi_lsda 0x1b,.LLSDA1129
  42 0000 F30F1EFA 		endbr64
  43 0004 55       		pushq	%rbp
  44              		.cfi_def_cfa_offset 16
  45              		.cfi_offset 6, -16
  46 0005 4889E5   		movq	%rsp, %rbp
  47              		.cfi_def_cfa_register 6
  48 0008 53       		pushq	%rbx
  49 0009 4883EC18 		subq	$24, %rsp
  50              		.cfi_offset 3, -24
  51 000d 48897DE8 		movq	%rdi, -24(%rbp)
  52              	.LBB2:
  53              		.loc 2 16 23
  54 0011 488B45E8 		movq	-24(%rbp), %rax
  55 0015 48059000 		addq	$144, %rax
  55      0000
  56 001b 4889C7   		movq	%rax, %rdi
  57              	.LEHB0:
  58 001e E8000000 		call	_ZNSt9basic_iosIcSt11char_traitsIcEEC2Ev@PLT
  58      00
  59              	.LEHE0:
  60 0023 488B45E8 		movq	-24(%rbp), %rax
  61 0027 488D1500 		leaq	8+_ZTTN8UnitTest15MemoryOutStreamE(%rip), %rdx
  61      000000
  62 002e 4889D6   		movq	%rdx, %rsi
  63 0031 4889C7   		movq	%rax, %rdi
  64              	.LEHB1:
  65 0034 E8000000 		call	_ZNSt7__cxx1119basic_ostringstreamIcSt11char_traitsIcESaIcEEC2Ev@PLT
  65      00
  66              	.LEHE1:
  67              		.loc 2 16 23 is_stmt 0 discriminator 2
  68 0039 488D1500 		leaq	24+_ZTVN8UnitTest15MemoryOutStreamE(%rip), %rdx
  68      000000
  69 0040 488B45E8 		movq	-24(%rbp), %rax
  70 0044 488910   		movq	%rdx, (%rax)
  71 0047 488B45E8 		movq	-24(%rbp), %rax
  72 004b 48059000 		addq	$144, %rax
  72      0000
  73 0051 488D1500 		leaq	64+_ZTVN8UnitTest15MemoryOutStreamE(%rip), %rdx
  73      000000
  74 0058 488910   		movq	%rdx, (%rax)
  75 005b 488B45E8 		movq	-24(%rbp), %rax
  76 005f 4883C070 		addq	$112, %rax
  77 0063 4889C7   		movq	%rax, %rdi
  78              	.LEHB2:
  79 0066 E8000000 		call	_ZNSt7__cxx1112basic_stringIcSt11char_traitsIcESaIcEEC1Ev@PLT
  79      00
  80              	.LEHE2:
  81              	.LBE2:
  82              		.loc 2 16 24 is_stmt 1
  83 006b EB43     		jmp	.L8
  84              	.L7:
  85 006d F30F1EFA 		endbr64
  86              	.LBB3:
  87 0071 4889C3   		movq	%rax, %rbx
  88 0074 488B45E8 		movq	-24(%rbp), %rax
  89 0078 488D1500 		leaq	8+_ZTTN8UnitTest15MemoryOutStreamE(%rip), %rdx
  89      000000
  90 007f 4889D6   		movq	%rdx, %rsi
  91 0082 4889C7   		movq	%rax, %rdi
  92 0085 E8000000 		call	_ZNSt7__cxx1119basic_ostringstreamIcSt11char_traitsIcESaIcEED2Ev@PLT
  92      00
  93 008a EB07     		jmp	.L5
  94              	.L6:
  95 008c F30F1EFA 		endbr64
  96 0090 4889C3   		movq	%rax, %rbx
  97              	.L5:
  98              		.loc 2 16 24 is_stmt 0 discriminator 1
  99 0093 488B45E8 		movq	-24(%rbp), %rax
 100 0097 48059000 		addq	$144, %rax
 100      0000
 101 009d 4889C7   		movq	%rax, %rdi
 102 00a0 E8000000 		call	_ZNSt9basic_iosIcSt11char_traitsIcEED2Ev@PLT
 102      00
 103 00a5 4889D8   		movq	%rbx, %rax
 104 00a8 4889C7   		movq	%rax, %rdi
 105              	.LEHB3:
 106 00ab E8000000 		call	_Unwind_Resume@PLT
 106      00
 107              	.LEHE3:
 108              	.L8:
 109              	.LBE3:
 110              		.loc 2 16 24
 111 00b0 488B5DF8 		movq	-8(%rbp), %rbx
 112 00b4 C9       		leave
 113              		.cfi_def_cfa 7, 8
 114 00b5 C3       		ret
 115              		.cfi_endproc
 116              	.LFE1129:
 117              		.globl	__gxx_personality_v0
 118              		.section	.gcc_except_table._ZN8UnitTest15MemoryOutStreamC1Ev,"aG",@progbits,_ZN8UnitTest15MemoryOu
 119              	.LLSDA1129:
 120 0000 FF       		.byte	0xff
 121 0001 FF       		.byte	0xff
 122 0002 01       		.byte	0x1
 123 0003 12       		.uleb128 .LLSDACSE1129-.LLSDACSB1129
 124              	.LLSDACSB1129:
 125 0004 1E       		.uleb128 .LEHB0-.LFB1129
 126 0005 05       		.uleb128 .LEHE0-.LEHB0
 127 0006 00       		.uleb128 0
 128 0007 00       		.uleb128 0
 129 0008 34       		.uleb128 .LEHB1-.LFB1129
 130 0009 05       		.uleb128 .LEHE1-.LEHB1
 131 000a 8C01     		.uleb128 .L6-.LFB1129
 132 000c 00       		.uleb128 0
 133 000d 66       		.uleb128 .LEHB2-.LFB1129
 134 000e 05       		.uleb128 .LEHE2-.LEHB2
 135 000f 6D       		.uleb128 .L7-.LFB1129
 136 0010 00       		.uleb128 0
 137 0011 AB01     		.uleb128 .LEHB3-.LFB1129
 138 0013 05       		.uleb128 .LEHE3-.LEHB3
 139 0014 00       		.uleb128 0
 140 0015 00       		.uleb128 0
 141              	.LLSDACSE1129:
 142              		.section	.text._ZN8UnitTest15MemoryOutStreamC1Ev,"axG",@progbits,_ZN8UnitTest15MemoryOutStreamC1Ev
 144              		.section	.text._ZNK8UnitTest4TrueclEPKNS_4TestE,"axG",@progbits,_ZNK8UnitTest4TrueclEPKNS_4TestE,c
 145              		.align 2
 146              		.weak	_ZNK8UnitTest4TrueclEPKNS_4TestE
 148              	_ZNK8UnitTest4TrueclEPKNS_4TestE:
 149              	.LFB1139:
 150              		.file 3 "../TestRunner.h"
   1:../TestRunner.h **** #ifndef UNITTEST_TESTRUNNER_H
   2:../TestRunner.h **** #define UNITTEST_TESTRUNNER_H
   3:../TestRunner.h **** 
   4:../TestRunner.h **** #include "Test.h"
   5:../TestRunner.h **** #include "TestList.h"
   6:../TestRunner.h **** #include "CurrentTest.h"
   7:../TestRunner.h **** 
   8:../TestRunner.h **** namespace UnitTest {
   9:../TestRunner.h **** 
  10:../TestRunner.h **** class TestReporter;
  11:../TestRunner.h **** class TestResults;
  12:../TestRunner.h **** class Timer;
  13:../TestRunner.h **** 
  14:../TestRunner.h **** int RunAllTests();
  15:../TestRunner.h **** 
  16:../TestRunner.h **** struct True
  17:../TestRunner.h **** {
  18:../TestRunner.h **** 	bool operator()(const Test* const) const
 151              		.loc 3 18 7 is_stmt 1
 152              		.cfi_startproc
 153 0000 F30F1EFA 		endbr64
 154 0004 55       		pushq	%rbp
 155              		.cfi_def_cfa_offset 16
 156              		.cfi_offset 6, -16
 157 0005 4889E5   		movq	%rsp, %rbp
 158              		.cfi_def_cfa_register 6
 159 0008 48897DF8 		movq	%rdi, -8(%rbp)
 160 000c 488975F0 		movq	%rsi, -16(%rbp)
  19:../TestRunner.h **** 	{
  20:../TestRunner.h **** 		return true;	
 161              		.loc 3 20 10
 162 0010 B8010000 		movl	$1, %eax
 162      00
  21:../TestRunner.h **** 	}
 163              		.loc 3 21 2
 164 0015 5D       		popq	%rbp
 165              		.cfi_def_cfa 7, 8
 166 0016 C3       		ret
 167              		.cfi_endproc
 168              	.LFE1139:
 170              		.section	.text._ZN8UnitTest12TestReporterC2Ev,"axG",@progbits,_ZN8UnitTest12TestReporterC5Ev,comda
 171              		.align 2
 172              		.weak	_ZN8UnitTest12TestReporterC2Ev
 174              	_ZN8UnitTest12TestReporterC2Ev:
 175              	.LFB1143:
 176              		.file 4 "../TestReporter.h"
   1:../TestReporter.h **** #ifndef UNITTEST_TESTREPORTER_H
   2:../TestReporter.h **** #define UNITTEST_TESTREPORTER_H
   3:../TestReporter.h **** 
   4:../TestReporter.h **** namespace UnitTest {
   5:../TestReporter.h **** 
   6:../TestReporter.h **** class TestDetails;
   7:../TestReporter.h **** 
   8:../TestReporter.h **** class TestReporter
 177              		.loc 4 8 7
 178              		.cfi_startproc
 179 0000 F30F1EFA 		endbr64
 180 0004 55       		pushq	%rbp
 181              		.cfi_def_cfa_offset 16
 182              		.cfi_offset 6, -16
 183 0005 4889E5   		movq	%rsp, %rbp
 184              		.cfi_def_cfa_register 6
 185 0008 48897DF8 		movq	%rdi, -8(%rbp)
 186              	.LBB4:
 187              		.loc 4 8 7
 188 000c 488D1500 		leaq	16+_ZTVN8UnitTest12TestReporterE(%rip), %rdx
 188      000000
 189 0013 488B45F8 		movq	-8(%rbp), %rax
 190 0017 488910   		movq	%rdx, (%rax)
 191              	.LBE4:
 192 001a 90       		nop
 193 001b 5D       		popq	%rbp
 194              		.cfi_def_cfa 7, 8
 195 001c C3       		ret
 196              		.cfi_endproc
 197              	.LFE1143:
 199              		.weak	_ZN8UnitTest12TestReporterC1Ev
 200              		.set	_ZN8UnitTest12TestReporterC1Ev,_ZN8UnitTest12TestReporterC2Ev
 201              		.section	.text._ZN17RecordingReporterC2Ev,"axG",@progbits,_ZN17RecordingReporterC5Ev,comdat
 202              		.align 2
 203              		.weak	_ZN17RecordingReporterC2Ev
 205              	_ZN17RecordingReporterC2Ev:
 206              	.LFB1145:
 207              		.file 5 "RecordingReporter.h"
   1:RecordingReporter.h **** #ifndef UNITTEST_RECORDINGREPORTER_H
   2:RecordingReporter.h **** #define UNITTEST_RECORDINGREPORTER_H
   3:RecordingReporter.h **** 
   4:RecordingReporter.h **** #include "../TestReporter.h"
   5:RecordingReporter.h **** #include <cstring>
   6:RecordingReporter.h **** 
   7:RecordingReporter.h **** #include "../TestDetails.h"
   8:RecordingReporter.h **** 
   9:RecordingReporter.h **** struct RecordingReporter : public UnitTest::TestReporter
  10:RecordingReporter.h **** {
  11:RecordingReporter.h **** private:
  12:RecordingReporter.h ****     enum { kMaxStringLength = 256 };
  13:RecordingReporter.h **** 
  14:RecordingReporter.h **** public:
  15:RecordingReporter.h ****     RecordingReporter()
 208              		.loc 5 15 5
 209              		.cfi_startproc
 210 0000 F30F1EFA 		endbr64
 211 0004 55       		pushq	%rbp
 212              		.cfi_def_cfa_offset 16
 213              		.cfi_offset 6, -16
 214 0005 4889E5   		movq	%rsp, %rbp
 215              		.cfi_def_cfa_register 6
 216 0008 4883EC10 		subq	$16, %rsp
 217 000c 48897DF8 		movq	%rdi, -8(%rbp)
 218              	.LBB5:
  16:RecordingReporter.h ****         : testRunCount(0)
  17:RecordingReporter.h ****         , testFailedCount(0)
  18:RecordingReporter.h ****         , lastFailedLine(0)
  19:RecordingReporter.h ****         , testFinishedCount(0)
  20:RecordingReporter.h ****         , lastFinishedTestTime(0)
  21:RecordingReporter.h ****         , summaryTotalTestCount(0)
  22:RecordingReporter.h ****         , summaryFailedTestCount(0)
  23:RecordingReporter.h ****         , summaryFailureCount(0)
  24:RecordingReporter.h ****         , summarySecondsElapsed(0)
 219              		.loc 5 24 34
 220 0010 488B45F8 		movq	-8(%rbp), %rax
 221 0014 4889C7   		movq	%rax, %rdi
 222 0017 E8000000 		call	_ZN8UnitTest12TestReporterC2Ev
 222      00
 223 001c 488D1500 		leaq	16+_ZTV17RecordingReporter(%rip), %rdx
 223      000000
 224 0023 488B45F8 		movq	-8(%rbp), %rax
 225 0027 488910   		movq	%rdx, (%rax)
  16:RecordingReporter.h ****         : testRunCount(0)
 226              		.loc 5 16 11
 227 002a 488B45F8 		movq	-8(%rbp), %rax
 228 002e C7400800 		movl	$0, 8(%rax)
 228      000000
  17:RecordingReporter.h ****         , lastFailedLine(0)
 229              		.loc 5 17 11
 230 0035 488B45F8 		movq	-8(%rbp), %rax
 231 0039 C7800C02 		movl	$0, 524(%rax)
 231      00000000 
 231      0000
  18:RecordingReporter.h ****         , testFinishedCount(0)
 232              		.loc 5 18 11
 233 0043 488B45F8 		movq	-8(%rbp), %rax
 234 0047 C7801003 		movl	$0, 784(%rax)
 234      00000000 
 234      0000
  19:RecordingReporter.h ****         , lastFinishedTestTime(0)
 235              		.loc 5 19 11
 236 0051 488B45F8 		movq	-8(%rbp), %rax
 237 0055 C7801406 		movl	$0, 1556(%rax)
 237      00000000 
 237      0000
  20:RecordingReporter.h ****         , summaryTotalTestCount(0)
 238              		.loc 5 20 11
 239 005f 488B45F8 		movq	-8(%rbp), %rax
 240 0063 660FEFC0 		pxor	%xmm0, %xmm0
 241 0067 F30F1180 		movss	%xmm0, 2072(%rax)
 241      18080000 
  21:RecordingReporter.h ****         , summaryFailedTestCount(0)
 242              		.loc 5 21 11
 243 006f 488B45F8 		movq	-8(%rbp), %rax
 244 0073 C7801C08 		movl	$0, 2076(%rax)
 244      00000000 
 244      0000
  22:RecordingReporter.h ****         , summaryFailureCount(0)
 245              		.loc 5 22 11
 246 007d 488B45F8 		movq	-8(%rbp), %rax
 247 0081 C7802008 		movl	$0, 2080(%rax)
 247      00000000 
 247      0000
  23:RecordingReporter.h ****         , summarySecondsElapsed(0)
 248              		.loc 5 23 11
 249 008b 488B45F8 		movq	-8(%rbp), %rax
 250 008f C7802408 		movl	$0, 2084(%rax)
 250      00000000 
 250      0000
 251              		.loc 5 24 11
 252 0099 488B45F8 		movq	-8(%rbp), %rax
 253 009d 660FEFC0 		pxor	%xmm0, %xmm0
 254 00a1 F30F1180 		movss	%xmm0, 2088(%rax)
 254      28080000 
  25:RecordingReporter.h ****     {
  26:RecordingReporter.h ****         lastStartedSuite[0] = '\0';
 255              		.loc 5 26 29
 256 00a9 488B45F8 		movq	-8(%rbp), %rax
 257 00ad C6400C00 		movb	$0, 12(%rax)
  27:RecordingReporter.h ****         lastStartedTest[0] = '\0';
 258              		.loc 5 27 28
 259 00b1 488B45F8 		movq	-8(%rbp), %rax
 260 00b5 C6800C01 		movb	$0, 268(%rax)
 260      000000
  28:RecordingReporter.h ****         lastFailedFile[0] = '\0';
 261              		.loc 5 28 27
 262 00bc 488B45F8 		movq	-8(%rbp), %rax
 263 00c0 C6801002 		movb	$0, 528(%rax)
 263      000000
  29:RecordingReporter.h ****         lastFailedSuite[0] = '\0';
 264              		.loc 5 29 28
 265 00c7 488B45F8 		movq	-8(%rbp), %rax
 266 00cb C6801403 		movb	$0, 788(%rax)
 266      000000
  30:RecordingReporter.h ****         lastFailedTest[0] = '\0';
 267              		.loc 5 30 27
 268 00d2 488B45F8 		movq	-8(%rbp), %rax
 269 00d6 C6801404 		movb	$0, 1044(%rax)
 269      000000
  31:RecordingReporter.h ****         lastFailedMessage[0] = '\0';
 270              		.loc 5 31 30
 271 00dd 488B45F8 		movq	-8(%rbp), %rax
 272 00e1 C6801405 		movb	$0, 1300(%rax)
 272      000000
  32:RecordingReporter.h ****         lastFinishedSuite[0] = '\0';
 273              		.loc 5 32 30
 274 00e8 488B45F8 		movq	-8(%rbp), %rax
 275 00ec C6801806 		movb	$0, 1560(%rax)
 275      000000
  33:RecordingReporter.h ****         lastFinishedTest[0] = '\0';
 276              		.loc 5 33 29
 277 00f3 488B45F8 		movq	-8(%rbp), %rax
 278 00f7 C6801807 		movb	$0, 1816(%rax)
 278      000000
 279              	.LBE5:
  34:RecordingReporter.h ****     }
 280              		.loc 5 34 5
 281 00fe 90       		nop
 282 00ff C9       		leave
 283              		.cfi_def_cfa 7, 8
 284 0100 C3       		ret
 285              		.cfi_endproc
 286              	.LFE1145:
 288              		.weak	_ZN17RecordingReporterC1Ev
 289              		.set	_ZN17RecordingReporterC1Ev,_ZN17RecordingReporterC2Ev
 290              		.section	.text._ZN17RecordingReporter15ReportTestStartERKN8UnitTest11TestDetailsE,"axG",@progbits,
 291              		.align 2
 292              		.weak	_ZN17RecordingReporter15ReportTestStartERKN8UnitTest11TestDetailsE
 294              	_ZN17RecordingReporter15ReportTestStartERKN8UnitTest11TestDetailsE:
 295              	.LFB1147:
  35:RecordingReporter.h **** 
  36:RecordingReporter.h ****     virtual void ReportTestStart(UnitTest::TestDetails const& test)
 296              		.loc 5 36 18
 297              		.cfi_startproc
 298 0000 F30F1EFA 		endbr64
 299 0004 55       		pushq	%rbp
 300              		.cfi_def_cfa_offset 16
 301              		.cfi_offset 6, -16
 302 0005 4889E5   		movq	%rsp, %rbp
 303              		.cfi_def_cfa_register 6
 304 0008 4883EC10 		subq	$16, %rsp
 305 000c 48897DF8 		movq	%rdi, -8(%rbp)
 306 0010 488975F0 		movq	%rsi, -16(%rbp)
  37:RecordingReporter.h ****     {
  38:RecordingReporter.h **** 		using namespace std;
  39:RecordingReporter.h **** 
  40:RecordingReporter.h ****         ++testRunCount;
 307              		.loc 5 40 11
 308 0014 488B45F8 		movq	-8(%rbp), %rax
 309 0018 8B4008   		movl	8(%rax), %eax
 310              		.loc 5 40 9
 311 001b 8D5001   		leal	1(%rax), %edx
 312 001e 488B45F8 		movq	-8(%rbp), %rax
 313 0022 895008   		movl	%edx, 8(%rax)
  41:RecordingReporter.h ****         strcpy(lastStartedSuite, test.suiteName);
 314              		.loc 5 41 39
 315 0025 488B45F0 		movq	-16(%rbp), %rax
 316 0029 488B00   		movq	(%rax), %rax
 317              		.loc 5 41 16
 318 002c 488B55F8 		movq	-8(%rbp), %rdx
 319 0030 4883C20C 		addq	$12, %rdx
 320              		.loc 5 41 15
 321 0034 4889C6   		movq	%rax, %rsi
 322 0037 4889D7   		movq	%rdx, %rdi
 323 003a E8000000 		call	strcpy@PLT
 323      00
  42:RecordingReporter.h ****         strcpy(lastStartedTest, test.testName);
 324              		.loc 5 42 38
 325 003f 488B45F0 		movq	-16(%rbp), %rax
 326 0043 488B4008 		movq	8(%rax), %rax
 327              		.loc 5 42 16
 328 0047 488B55F8 		movq	-8(%rbp), %rdx
 329 004b 4881C20C 		addq	$268, %rdx
 329      010000
 330              		.loc 5 42 15
 331 0052 4889C6   		movq	%rax, %rsi
 332 0055 4889D7   		movq	%rdx, %rdi
 333 0058 E8000000 		call	strcpy@PLT
 333      00
  43:RecordingReporter.h ****     }
 334              		.loc 5 43 5
 335 005d 90       		nop
 336 005e C9       		leave
 337              		.cfi_def_cfa 7, 8
 338 005f C3       		ret
 339              		.cfi_endproc
 340              	.LFE1147:
 342              		.section	.text._ZN17RecordingReporter13ReportFailureERKN8UnitTest11TestDetailsEPKc,"axG",@progbits
 343              		.align 2
 344              		.weak	_ZN17RecordingReporter13ReportFailureERKN8UnitTest11TestDetailsEPKc
 346              	_ZN17RecordingReporter13ReportFailureERKN8UnitTest11TestDetailsEPKc:
 347              	.LFB1148:
  44:RecordingReporter.h **** 
  45:RecordingReporter.h ****     virtual void ReportFailure(UnitTest::TestDetails const& test, char const* failure)
 348              		.loc 5 45 18
 349              		.cfi_startproc
 350 0000 F30F1EFA 		endbr64
 351 0004 55       		pushq	%rbp
 352              		.cfi_def_cfa_offset 16
 353              		.cfi_offset 6, -16
 354 0005 4889E5   		movq	%rsp, %rbp
 355              		.cfi_def_cfa_register 6
 356 0008 4883EC20 		subq	$32, %rsp
 357 000c 48897DF8 		movq	%rdi, -8(%rbp)
 358 0010 488975F0 		movq	%rsi, -16(%rbp)
 359 0014 488955E8 		movq	%rdx, -24(%rbp)
  46:RecordingReporter.h ****     {
  47:RecordingReporter.h **** 		using namespace std;
  48:RecordingReporter.h **** 
  49:RecordingReporter.h **** 		++testFailedCount;
 360              		.loc 5 49 5
 361 0018 488B45F8 		movq	-8(%rbp), %rax
 362 001c 8B800C02 		movl	524(%rax), %eax
 362      0000
 363              		.loc 5 49 3
 364 0022 8D5001   		leal	1(%rax), %edx
 365 0025 488B45F8 		movq	-8(%rbp), %rax
 366 0029 89900C02 		movl	%edx, 524(%rax)
 366      0000
  50:RecordingReporter.h ****         strcpy(lastFailedFile, test.filename);
 367              		.loc 5 50 37
 368 002f 488B45F0 		movq	-16(%rbp), %rax
 369 0033 488B4010 		movq	16(%rax), %rax
 370              		.loc 5 50 16
 371 0037 488B55F8 		movq	-8(%rbp), %rdx
 372 003b 4881C210 		addq	$528, %rdx
 372      020000
 373              		.loc 5 50 15
 374 0042 4889C6   		movq	%rax, %rsi
 375 0045 4889D7   		movq	%rdx, %rdi
 376 0048 E8000000 		call	strcpy@PLT
 376      00
  51:RecordingReporter.h ****         lastFailedLine = test.lineNumber;
 377              		.loc 5 51 31
 378 004d 488B45F0 		movq	-16(%rbp), %rax
 379 0051 8B5018   		movl	24(%rax), %edx
 380              		.loc 5 51 24
 381 0054 488B45F8 		movq	-8(%rbp), %rax
 382 0058 89901003 		movl	%edx, 784(%rax)
 382      0000
  52:RecordingReporter.h ****         strcpy(lastFailedSuite, test.suiteName);
 383              		.loc 5 52 38
 384 005e 488B45F0 		movq	-16(%rbp), %rax
 385 0062 488B00   		movq	(%rax), %rax
 386              		.loc 5 52 16
 387 0065 488B55F8 		movq	-8(%rbp), %rdx
 388 0069 4881C214 		addq	$788, %rdx
 388      030000
 389              		.loc 5 52 15
 390 0070 4889C6   		movq	%rax, %rsi
 391 0073 4889D7   		movq	%rdx, %rdi
 392 0076 E8000000 		call	strcpy@PLT
 392      00
  53:RecordingReporter.h ****         strcpy(lastFailedTest, test.testName);
 393              		.loc 5 53 37
 394 007b 488B45F0 		movq	-16(%rbp), %rax
 395 007f 488B4008 		movq	8(%rax), %rax
 396              		.loc 5 53 16
 397 0083 488B55F8 		movq	-8(%rbp), %rdx
 398 0087 4881C214 		addq	$1044, %rdx
 398      040000
 399              		.loc 5 53 15
 400 008e 4889C6   		movq	%rax, %rsi
 401 0091 4889D7   		movq	%rdx, %rdi
 402 0094 E8000000 		call	strcpy@PLT
 402      00
  54:RecordingReporter.h ****         strcpy(lastFailedMessage, failure);
 403              		.loc 5 54 16
 404 0099 488B45F8 		movq	-8(%rbp), %rax
 405 009d 488D9014 		leaq	1300(%rax), %rdx
 405      050000
 406              		.loc 5 54 15
 407 00a4 488B45E8 		movq	-24(%rbp), %rax
 408 00a8 4889C6   		movq	%rax, %rsi
 409 00ab 4889D7   		movq	%rdx, %rdi
 410 00ae E8000000 		call	strcpy@PLT
 410      00
  55:RecordingReporter.h ****     }
 411              		.loc 5 55 5
 412 00b3 90       		nop
 413 00b4 C9       		leave
 414              		.cfi_def_cfa 7, 8
 415 00b5 C3       		ret
 416              		.cfi_endproc
 417              	.LFE1148:
 419              		.section	.text._ZN17RecordingReporter16ReportTestFinishERKN8UnitTest11TestDetailsEf,"axG",@progbit
 420              		.align 2
 421              		.weak	_ZN17RecordingReporter16ReportTestFinishERKN8UnitTest11TestDetailsEf
 423              	_ZN17RecordingReporter16ReportTestFinishERKN8UnitTest11TestDetailsEf:
 424              	.LFB1149:
  56:RecordingReporter.h **** 
  57:RecordingReporter.h ****     virtual void ReportTestFinish(UnitTest::TestDetails const& test, float testDuration)
 425              		.loc 5 57 18
 426              		.cfi_startproc
 427 0000 F30F1EFA 		endbr64
 428 0004 55       		pushq	%rbp
 429              		.cfi_def_cfa_offset 16
 430              		.cfi_offset 6, -16
 431 0005 4889E5   		movq	%rsp, %rbp
 432              		.cfi_def_cfa_register 6
 433 0008 4883EC20 		subq	$32, %rsp
 434 000c 48897DF8 		movq	%rdi, -8(%rbp)
 435 0010 488975F0 		movq	%rsi, -16(%rbp)
 436 0014 F30F1145 		movss	%xmm0, -20(%rbp)
 436      EC
  58:RecordingReporter.h ****     {
  59:RecordingReporter.h **** 		using namespace std;
  60:RecordingReporter.h **** 
  61:RecordingReporter.h **** 		++testFinishedCount;
 437              		.loc 5 61 5
 438 0019 488B45F8 		movq	-8(%rbp), %rax
 439 001d 8B801406 		movl	1556(%rax), %eax
 439      0000
 440              		.loc 5 61 3
 441 0023 8D5001   		leal	1(%rax), %edx
 442 0026 488B45F8 		movq	-8(%rbp), %rax
 443 002a 89901406 		movl	%edx, 1556(%rax)
 443      0000
  62:RecordingReporter.h ****         strcpy(lastFinishedSuite, test.suiteName);
 444              		.loc 5 62 40
 445 0030 488B45F0 		movq	-16(%rbp), %rax
 446 0034 488B00   		movq	(%rax), %rax
 447              		.loc 5 62 16
 448 0037 488B55F8 		movq	-8(%rbp), %rdx
 449 003b 4881C218 		addq	$1560, %rdx
 449      060000
 450              		.loc 5 62 15
 451 0042 4889C6   		movq	%rax, %rsi
 452 0045 4889D7   		movq	%rdx, %rdi
 453 0048 E8000000 		call	strcpy@PLT
 453      00
  63:RecordingReporter.h ****         strcpy(lastFinishedTest, test.testName);
 454              		.loc 5 63 39
 455 004d 488B45F0 		movq	-16(%rbp), %rax
 456 0051 488B4008 		movq	8(%rax), %rax
 457              		.loc 5 63 16
 458 0055 488B55F8 		movq	-8(%rbp), %rdx
 459 0059 4881C218 		addq	$1816, %rdx
 459      070000
 460              		.loc 5 63 15
 461 0060 4889C6   		movq	%rax, %rsi
 462 0063 4889D7   		movq	%rdx, %rdi
 463 0066 E8000000 		call	strcpy@PLT
 463      00
  64:RecordingReporter.h ****         lastFinishedTestTime = testDuration;
 464              		.loc 5 64 30
 465 006b 488B45F8 		movq	-8(%rbp), %rax
 466 006f F30F1045 		movss	-20(%rbp), %xmm0
 466      EC
 467 0074 F30F1180 		movss	%xmm0, 2072(%rax)
 467      18080000 
  65:RecordingReporter.h ****     }
 468              		.loc 5 65 5
 469 007c 90       		nop
 470 007d C9       		leave
 471              		.cfi_def_cfa 7, 8
 472 007e C3       		ret
 473              		.cfi_endproc
 474              	.LFE1149:
 476              		.section	.text._ZN17RecordingReporter13ReportSummaryEiiif,"axG",@progbits,_ZN17RecordingReporter13
 477              		.align 2
 478              		.weak	_ZN17RecordingReporter13ReportSummaryEiiif
 480              	_ZN17RecordingReporter13ReportSummaryEiiif:
 481              	.LFB1150:
  66:RecordingReporter.h **** 
  67:RecordingReporter.h ****     virtual void ReportSummary(int totalTestCount, int failedTestCount, int failureCount, float sec
 482              		.loc 5 67 18
 483              		.cfi_startproc
 484 0000 F30F1EFA 		endbr64
 485 0004 55       		pushq	%rbp
 486              		.cfi_def_cfa_offset 16
 487              		.cfi_offset 6, -16
 488 0005 4889E5   		movq	%rsp, %rbp
 489              		.cfi_def_cfa_register 6
 490 0008 48897DF8 		movq	%rdi, -8(%rbp)
 491 000c 8975F4   		movl	%esi, -12(%rbp)
 492 000f 8955F0   		movl	%edx, -16(%rbp)
 493 0012 894DEC   		movl	%ecx, -20(%rbp)
 494 0015 F30F1145 		movss	%xmm0, -24(%rbp)
 494      E8
  68:RecordingReporter.h ****     {
  69:RecordingReporter.h ****         summaryTotalTestCount = totalTestCount;
 495              		.loc 5 69 31
 496 001a 488B45F8 		movq	-8(%rbp), %rax
 497 001e 8B55F4   		movl	-12(%rbp), %edx
 498 0021 89901C08 		movl	%edx, 2076(%rax)
 498      0000
  70:RecordingReporter.h ****         summaryFailedTestCount = failedTestCount;
 499              		.loc 5 70 32
 500 0027 488B45F8 		movq	-8(%rbp), %rax
 501 002b 8B55F0   		movl	-16(%rbp), %edx
 502 002e 89902008 		movl	%edx, 2080(%rax)
 502      0000
  71:RecordingReporter.h ****         summaryFailureCount = failureCount;
 503              		.loc 5 71 29
 504 0034 488B45F8 		movq	-8(%rbp), %rax
 505 0038 8B55EC   		movl	-20(%rbp), %edx
 506 003b 89902408 		movl	%edx, 2084(%rax)
 506      0000
  72:RecordingReporter.h ****         summarySecondsElapsed = secondsElapsed;
 507              		.loc 5 72 31
 508 0041 488B45F8 		movq	-8(%rbp), %rax
 509 0045 F30F1045 		movss	-24(%rbp), %xmm0
 509      E8
 510 004a F30F1180 		movss	%xmm0, 2088(%rax)
 510      28080000 
  73:RecordingReporter.h ****     }
 511              		.loc 5 73 5
 512 0052 90       		nop
 513 0053 5D       		popq	%rbp
 514              		.cfi_def_cfa 7, 8
 515 0054 C3       		ret
 516              		.cfi_endproc
 517              	.LFE1150:
 519              		.section	.rodata
 520              	.LC2:
 521 000d 00       		.string	""
 522              		.text
 523              		.align 2
 525              	_ZN12_GLOBAL__N_18MockTestC2EPKcbbi:
 526              	.LFB1152:
 527              		.file 6 "TestTestRunner.cpp"
   1:TestTestRunner.cpp **** #include "../UnitTest++.h"
   2:TestTestRunner.cpp **** #include "RecordingReporter.h"
   3:TestTestRunner.cpp **** #include "../ReportAssert.h"
   4:TestTestRunner.cpp **** #include "../TestList.h"
   5:TestTestRunner.cpp **** #include "../TimeHelpers.h"
   6:TestTestRunner.cpp **** #include "../TimeConstraint.h"
   7:TestTestRunner.cpp **** 
   8:TestTestRunner.cpp **** using namespace UnitTest;
   9:TestTestRunner.cpp **** 
  10:TestTestRunner.cpp **** namespace
  11:TestTestRunner.cpp **** {
  12:TestTestRunner.cpp **** 
  13:TestTestRunner.cpp **** struct MockTest : public Test
  14:TestTestRunner.cpp **** {
  15:TestTestRunner.cpp ****     MockTest(char const* testName, bool const success_, bool const assert_, int const count_ = 1)
 528              		.loc 6 15 5
 529              		.cfi_startproc
 530 0000 55       		pushq	%rbp
 531              		.cfi_def_cfa_offset 16
 532              		.cfi_offset 6, -16
 533 0001 4889E5   		movq	%rsp, %rbp
 534              		.cfi_def_cfa_register 6
 535 0004 4883EC20 		subq	$32, %rsp
 536 0008 48897DF8 		movq	%rdi, -8(%rbp)
 537 000c 488975F0 		movq	%rsi, -16(%rbp)
 538 0010 89C8     		movl	%ecx, %eax
 539 0012 448945E4 		movl	%r8d, -28(%rbp)
 540 0016 8855EC   		movb	%dl, -20(%rbp)
 541 0019 8845E8   		movb	%al, -24(%rbp)
 542              	.LBB6:
  16:TestTestRunner.cpp ****         : Test(testName)
  17:TestTestRunner.cpp ****         , success(success_)
  18:TestTestRunner.cpp ****         , asserted(assert_)
  19:TestTestRunner.cpp ****         , count(count_)
 543              		.loc 6 19 23
 544 001c 488B45F8 		movq	-8(%rbp), %rax
 545 0020 488B75F0 		movq	-16(%rbp), %rsi
 546 0024 41B80000 		movl	$0, %r8d
 546      0000
 547 002a 488D1500 		leaq	.LC2(%rip), %rdx
 547      000000
 548 0031 4889D1   		movq	%rdx, %rcx
 549 0034 488D1500 		leaq	.LC0(%rip), %rdx
 549      000000
 550 003b 4889C7   		movq	%rax, %rdi
 551 003e E8000000 		call	_ZN8UnitTest4TestC2EPKcS2_S2_i@PLT
 551      00
 552 0043 488D1500 		leaq	16+_ZTVN12_GLOBAL__N_18MockTestE(%rip), %rdx
 552      000000
 553 004a 488B45F8 		movq	-8(%rbp), %rax
 554 004e 488910   		movq	%rdx, (%rax)
  17:TestTestRunner.cpp ****         , asserted(assert_)
 555              		.loc 6 17 11
 556 0051 488B45F8 		movq	-8(%rbp), %rax
 557 0055 0FB655EC 		movzbl	-20(%rbp), %edx
 558 0059 885031   		movb	%dl, 49(%rax)
  18:TestTestRunner.cpp ****         , count(count_)
 559              		.loc 6 18 11
 560 005c 488B45F8 		movq	-8(%rbp), %rax
 561 0060 0FB655E8 		movzbl	-24(%rbp), %edx
 562 0064 885032   		movb	%dl, 50(%rax)
 563              		.loc 6 19 11
 564 0067 488B45F8 		movq	-8(%rbp), %rax
 565 006b 8B55E4   		movl	-28(%rbp), %edx
 566 006e 895034   		movl	%edx, 52(%rax)
 567              	.LBE6:
  20:TestTestRunner.cpp ****     {
  21:TestTestRunner.cpp ****     }
 568              		.loc 6 21 5
 569 0071 90       		nop
 570 0072 C9       		leave
 571              		.cfi_def_cfa 7, 8
 572 0073 C3       		ret
 573              		.cfi_endproc
 574              	.LFE1152:
 576              		.set	_ZN12_GLOBAL__N_18MockTestC1EPKcbbi,_ZN12_GLOBAL__N_18MockTestC2EPKcbbi
 577              		.section	.rodata
 578              	.LC3:
 579 000e 66696C65 		.string	"file"
 579      00
 580              	.LC4:
 581 0013 64657363 		.string	"desc"
 581      00
 582              	.LC5:
 583 0018 6D657373 		.string	"message"
 583      61676500 
 584              		.text
 585              		.align 2
 587              	_ZNK12_GLOBAL__N_18MockTest7RunImplEv:
 588              	.LFB1154:
  22:TestTestRunner.cpp **** 
  23:TestTestRunner.cpp ****     virtual void RunImpl() const
 589              		.loc 6 23 18
 590              		.cfi_startproc
 591 0074 F30F1EFA 		endbr64
 592 0078 55       		pushq	%rbp
 593              		.cfi_def_cfa_offset 16
 594              		.cfi_offset 6, -16
 595 0079 4889E5   		movq	%rsp, %rbp
 596              		.cfi_def_cfa_register 6
 597 007c 4883EC20 		subq	$32, %rsp
 598 0080 48897DE8 		movq	%rdi, -24(%rbp)
  24:TestTestRunner.cpp ****     {
  25:TestTestRunner.cpp **** 		TestResults& testResults_ = *CurrentTest::Results();
 599              		.loc 6 25 52
 600 0084 E8000000 		call	_ZN8UnitTest11CurrentTest7ResultsEv@PLT
 600      00
 601              		.loc 6 25 53
 602 0089 488B00   		movq	(%rax), %rax
 603 008c 488945F8 		movq	%rax, -8(%rbp)
 604              	.LBB7:
  26:TestTestRunner.cpp ****         for (int i=0; i < count; ++i)
 605              		.loc 6 26 18
 606 0090 C745F400 		movl	$0, -12(%rbp)
 606      000000
 607              		.loc 6 26 9
 608 0097 EB5D     		jmp	.L19
 609              	.L22:
  27:TestTestRunner.cpp ****         {
  28:TestTestRunner.cpp ****             if (asserted)
 610              		.loc 6 28 17
 611 0099 488B45E8 		movq	-24(%rbp), %rax
 612 009d 0FB64032 		movzbl	50(%rax), %eax
 613              		.loc 6 28 13
 614 00a1 84C0     		testb	%al, %al
 615 00a3 7420     		je	.L20
  29:TestTestRunner.cpp ****                 ReportAssert("desc", "file", 0);
 616              		.loc 6 29 29
 617 00a5 BA000000 		movl	$0, %edx
 617      00
 618 00aa 488D0500 		leaq	.LC3(%rip), %rax
 618      000000
 619 00b1 4889C6   		movq	%rax, %rsi
 620 00b4 488D0500 		leaq	.LC4(%rip), %rax
 620      000000
 621 00bb 4889C7   		movq	%rax, %rdi
 622 00be E8000000 		call	_ZN8UnitTest12ReportAssertEPKcS1_i@PLT
 622      00
 623 00c3 EB2D     		jmp	.L21
 624              	.L20:
  30:TestTestRunner.cpp ****             else if (!success)
 625              		.loc 6 30 23
 626 00c5 488B45E8 		movq	-24(%rbp), %rax
 627 00c9 0FB64031 		movzbl	49(%rax), %eax
 628              		.loc 6 30 22
 629 00cd 83F001   		xorl	$1, %eax
 630              		.loc 6 30 18
 631 00d0 84C0     		testb	%al, %al
 632 00d2 741E     		je	.L21
  31:TestTestRunner.cpp ****                 testResults_.OnTestFailure(m_details, "message");
 633              		.loc 6 31 44
 634 00d4 488B45E8 		movq	-24(%rbp), %rax
 635 00d8 488D4808 		leaq	8(%rax), %rcx
 636              		.loc 6 31 43
 637 00dc 488B45F8 		movq	-8(%rbp), %rax
 638 00e0 488D1500 		leaq	.LC5(%rip), %rdx
 638      000000
 639 00e7 4889CE   		movq	%rcx, %rsi
 640 00ea 4889C7   		movq	%rax, %rdi
 641 00ed E8000000 		call	_ZN8UnitTest11TestResults13OnTestFailureERKNS_11TestDetailsEPKc@PLT
 641      00
 642              	.L21:
  26:TestTestRunner.cpp ****         {
 643              		.loc 6 26 9 discriminator 2
 644 00f2 8345F401 		addl	$1, -12(%rbp)
 645              	.L19:
  26:TestTestRunner.cpp ****         {
 646              		.loc 6 26 27 discriminator 1
 647 00f6 488B45E8 		movq	-24(%rbp), %rax
 648 00fa 8B4034   		movl	52(%rax), %eax
  26:TestTestRunner.cpp ****         {
 649              		.loc 6 26 25 discriminator 1
 650 00fd 3945F4   		cmpl	%eax, -12(%rbp)
 651 0100 7C97     		jl	.L22
 652              	.LBE7:
  32:TestTestRunner.cpp ****         }
  33:TestTestRunner.cpp ****     }
 653              		.loc 6 33 5
 654 0102 90       		nop
 655 0103 90       		nop
 656 0104 C9       		leave
 657              		.cfi_def_cfa 7, 8
 658 0105 C3       		ret
 659              		.cfi_endproc
 660              	.LFE1154:
 662              		.align 2
 664              	_ZN12_GLOBAL__N_111FixtureBaseC2Ev:
 665              	.LFB1156:
  34:TestTestRunner.cpp **** 
  35:TestTestRunner.cpp ****     bool const success;
  36:TestTestRunner.cpp ****     bool const asserted;
  37:TestTestRunner.cpp ****     int const count;
  38:TestTestRunner.cpp **** };
  39:TestTestRunner.cpp **** 
  40:TestTestRunner.cpp **** struct FixtureBase {
  41:TestTestRunner.cpp **** 	explicit FixtureBase() : runner(reporter) { }
 666              		.loc 6 41 11
 667              		.cfi_startproc
 668 0106 55       		pushq	%rbp
 669              		.cfi_def_cfa_offset 16
 670              		.cfi_offset 6, -16
 671 0107 4889E5   		movq	%rsp, %rbp
 672              		.cfi_def_cfa_register 6
 673 010a 4883EC10 		subq	$16, %rsp
 674 010e 48897DF8 		movq	%rdi, -8(%rbp)
 675              	.LBB8:
 676              		.loc 6 41 27
 677 0112 488B45F8 		movq	-8(%rbp), %rax
 678 0116 488B55F8 		movq	-8(%rbp), %rdx
 679 011a 4883C218 		addq	$24, %rdx
 680 011e 4889D6   		movq	%rdx, %rsi
 681 0121 4889C7   		movq	%rax, %rdi
 682 0124 E8000000 		call	_ZN8UnitTest10TestRunnerC1ERNS_12TestReporterE@PLT
 682      00
 683              		.loc 6 41 42
 684 0129 488B45F8 		movq	-8(%rbp), %rax
 685 012d 4883C018 		addq	$24, %rax
 686 0131 4889C7   		movq	%rax, %rdi
 687 0134 E8000000 		call	_ZN17RecordingReporterC1Ev
 687      00
 688              	.LBE8:
 689              		.loc 6 41 46
 690 0139 90       		nop
 691 013a C9       		leave
 692              		.cfi_def_cfa 7, 8
 693 013b C3       		ret
 694              		.cfi_endproc
 695              	.LFE1156:
 697              		.align 2
 699              	_ZN12_GLOBAL__N_111FixtureBaseD2Ev:
 700              	.LFB1162:
  40:TestTestRunner.cpp **** 	explicit FixtureBase() : runner(reporter) { }
 701              		.loc 6 40 8
 702              		.cfi_startproc
 703              		.cfi_personality 0x9b,DW.ref.__gxx_personality_v0
 704              		.cfi_lsda 0x1b,.LLSDA1162
 705 013c 55       		pushq	%rbp
 706              		.cfi_def_cfa_offset 16
 707              		.cfi_offset 6, -16
 708 013d 4889E5   		movq	%rsp, %rbp
 709              		.cfi_def_cfa_register 6
 710 0140 53       		pushq	%rbx
 711 0141 4883EC18 		subq	$24, %rsp
 712              		.cfi_offset 3, -24
 713 0145 48897DE8 		movq	%rdi, -24(%rbp)
 714              	.LBB9:
  40:TestTestRunner.cpp **** 	explicit FixtureBase() : runner(reporter) { }
 715              		.loc 6 40 8
 716 0149 488B45E8 		movq	-24(%rbp), %rax
 717 014d 4883C018 		addq	$24, %rax
 718 0151 4889C7   		movq	%rax, %rdi
 719              	.LEHB4:
 720 0154 E8000000 		call	_ZN17RecordingReporterD1Ev
 720      00
 721              	.LEHE4:
  40:TestTestRunner.cpp **** 	explicit FixtureBase() : runner(reporter) { }
 722              		.loc 6 40 8 is_stmt 0 discriminator 2
 723 0159 488B45E8 		movq	-24(%rbp), %rax
 724 015d 4889C7   		movq	%rax, %rdi
 725              	.LEHB5:
 726 0160 E8000000 		call	_ZN8UnitTest10TestRunnerD1Ev@PLT
 726      00
 727              	.LEHE5:
 728              	.LBE9:
 729 0165 EB1E     		jmp	.L27
 730              	.L26:
 731 0167 F30F1EFA 		endbr64
 732              	.LBB10:
  40:TestTestRunner.cpp **** 	explicit FixtureBase() : runner(reporter) { }
 733              		.loc 6 40 8
 734 016b 4889C3   		movq	%rax, %rbx
 735 016e 488B45E8 		movq	-24(%rbp), %rax
 736 0172 4889C7   		movq	%rax, %rdi
 737 0175 E8000000 		call	_ZN8UnitTest10TestRunnerD1Ev@PLT
 737      00
 738 017a 4889D8   		movq	%rbx, %rax
 739 017d 4889C7   		movq	%rax, %rdi
 740              	.LEHB6:
 741 0180 E8000000 		call	_Unwind_Resume@PLT
 741      00
 742              	.LEHE6:
 743              	.L27:
 744              	.LBE10:
 745 0185 488B5DF8 		movq	-8(%rbp), %rbx
 746 0189 C9       		leave
 747              		.cfi_def_cfa 7, 8
 748 018a C3       		ret
 749              		.cfi_endproc
 750              	.LFE1162:
 751              		.section	.gcc_except_table,"a",@progbits
 752              	.LLSDA1162:
 753 0000 FF       		.byte	0xff
 754 0001 FF       		.byte	0xff
 755 0002 01       		.byte	0x1
 756 0003 0C       		.uleb128 .LLSDACSE1162-.LLSDACSB1162
 757              	.LLSDACSB1162:
 758 0004 18       		.uleb128 .LEHB4-.LFB1162
 759 0005 05       		.uleb128 .LEHE4-.LEHB4
 760 0006 2B       		.uleb128 .L26-.LFB1162
 761 0007 00       		.uleb128 0
 762 0008 24       		.uleb128 .LEHB5-.LFB1162
 763 0009 05       		.uleb128 .LEHE5-.LEHB5
 764 000a 00       		.uleb128 0
 765 000b 00       		.uleb128 0
 766 000c 44       		.uleb128 .LEHB6-.LFB1162
 767 000d 05       		.uleb128 .LEHE6-.LEHB6
 768 000e 00       		.uleb128 0
 769 000f 00       		.uleb128 0
 770              	.LLSDACSE1162:
 771              		.text
 773 018b 90       		.align 2
 775              	_ZN12_GLOBAL__N_117TestRunnerFixtureC2Ev:
 776              	.LFB1164:
  42:TestTestRunner.cpp **** 	template <class Predicate>
  43:TestTestRunner.cpp **** 	int RunTestsIf(TestList const& list, char const* suiteName, 
  44:TestTestRunner.cpp **** 				   const Predicate& predicate, int maxTestTimeInMs)
  45:TestTestRunner.cpp **** 	{
  46:TestTestRunner.cpp **** 		TestResults* oldResults = CurrentTest::Results();
  47:TestTestRunner.cpp **** 		const TestDetails* oldDetails = CurrentTest::Details();
  48:TestTestRunner.cpp **** 		int result = runner.RunTestsIf(list, suiteName, predicate, maxTestTimeInMs);
  49:TestTestRunner.cpp **** 		CurrentTest::Results() = oldResults;
  50:TestTestRunner.cpp **** 		CurrentTest::Details() = oldDetails;
  51:TestTestRunner.cpp **** 		return result;
  52:TestTestRunner.cpp **** 	}
  53:TestTestRunner.cpp **** 	TestRunner runner;
  54:TestTestRunner.cpp ****     RecordingReporter reporter;
  55:TestTestRunner.cpp **** };
  56:TestTestRunner.cpp **** 
  57:TestTestRunner.cpp **** struct TestRunnerFixture : public FixtureBase
 777              		.loc 6 57 8 is_stmt 1
 778              		.cfi_startproc
 779              		.cfi_personality 0x9b,DW.ref.__gxx_personality_v0
 780              		.cfi_lsda 0x1b,.LLSDA1164
 781 018c 55       		pushq	%rbp
 782              		.cfi_def_cfa_offset 16
 783              		.cfi_offset 6, -16
 784 018d 4889E5   		movq	%rsp, %rbp
 785              		.cfi_def_cfa_register 6
 786 0190 53       		pushq	%rbx
 787 0191 4883EC18 		subq	$24, %rsp
 788              		.cfi_offset 3, -24
 789 0195 48897DE8 		movq	%rdi, -24(%rbp)
 790              	.LBB11:
 791              		.loc 6 57 8
 792 0199 488B45E8 		movq	-24(%rbp), %rax
 793 019d 4889C7   		movq	%rax, %rdi
 794              	.LEHB7:
 795 01a0 E861FFFF 		call	_ZN12_GLOBAL__N_111FixtureBaseC2Ev
 795      FF
 796              	.LEHE7:
 797 01a5 488B45E8 		movq	-24(%rbp), %rax
 798 01a9 48054808 		addq	$2120, %rax
 798      0000
 799 01af 4889C7   		movq	%rax, %rdi
 800              	.LEHB8:
 801 01b2 E8000000 		call	_ZN8UnitTest8TestListC1Ev@PLT
 801      00
 802              	.LEHE8:
 803              	.LBE11:
 804 01b7 EB1E     		jmp	.L31
 805              	.L30:
 806 01b9 F30F1EFA 		endbr64
 807              	.LBB12:
 808 01bd 4889C3   		movq	%rax, %rbx
 809 01c0 488B45E8 		movq	-24(%rbp), %rax
 810 01c4 4889C7   		movq	%rax, %rdi
 811 01c7 E870FFFF 		call	_ZN12_GLOBAL__N_111FixtureBaseD2Ev
 811      FF
 812 01cc 4889D8   		movq	%rbx, %rax
 813 01cf 4889C7   		movq	%rax, %rdi
 814              	.LEHB9:
 815 01d2 E8000000 		call	_Unwind_Resume@PLT
 815      00
 816              	.LEHE9:
 817              	.L31:
 818              	.LBE12:
 819 01d7 488B5DF8 		movq	-8(%rbp), %rbx
 820 01db C9       		leave
 821              		.cfi_def_cfa 7, 8
 822 01dc C3       		ret
 823              		.cfi_endproc
 824              	.LFE1164:
 825              		.section	.gcc_except_table
 826              	.LLSDA1164:
 827 0010 FF       		.byte	0xff
 828 0011 FF       		.byte	0xff
 829 0012 01       		.byte	0x1
 830 0013 0C       		.uleb128 .LLSDACSE1164-.LLSDACSB1164
 831              	.LLSDACSB1164:
 832 0014 14       		.uleb128 .LEHB7-.LFB1164
 833 0015 05       		.uleb128 .LEHE7-.LEHB7
 834 0016 00       		.uleb128 0
 835 0017 00       		.uleb128 0
 836 0018 26       		.uleb128 .LEHB8-.LFB1164
 837 0019 05       		.uleb128 .LEHE8-.LEHB8
 838 001a 2D       		.uleb128 .L30-.LFB1164
 839 001b 00       		.uleb128 0
 840 001c 46       		.uleb128 .LEHB9-.LFB1164
 841 001d 05       		.uleb128 .LEHE9-.LEHB9
 842 001e 00       		.uleb128 0
 843 001f 00       		.uleb128 0
 844              	.LLSDACSE1164:
 845              		.text
 847 01dd 90       		.align 2
 849              	_ZN12_GLOBAL__N_117TestRunnerFixtureD2Ev:
 850              	.LFB1167:
 851              		.loc 6 57 8
 852              		.cfi_startproc
 853 01de 55       		pushq	%rbp
 854              		.cfi_def_cfa_offset 16
 855              		.cfi_offset 6, -16
 856 01df 4889E5   		movq	%rsp, %rbp
 857              		.cfi_def_cfa_register 6
 858 01e2 4883EC10 		subq	$16, %rsp
 859 01e6 48897DF8 		movq	%rdi, -8(%rbp)
 860              	.LBB13:
 861              		.loc 6 57 8
 862 01ea 488B45F8 		movq	-8(%rbp), %rax
 863 01ee 4889C7   		movq	%rax, %rdi
 864 01f1 E846FFFF 		call	_ZN12_GLOBAL__N_111FixtureBaseD2Ev
 864      FF
 865              	.LBE13:
 866 01f6 90       		nop
 867 01f7 C9       		leave
 868              		.cfi_def_cfa 7, 8
 869 01f8 C3       		ret
 870              		.cfi_endproc
 871              	.LFE1167:
 873 01f9 90       		.align 2
 875              	_ZN12_GLOBAL__N_151TestRunnerFixtureTestStartIsReportedCorrectlyHelperC2ERKN8UnitTest11TestDetailsE
 876              	.LFB1169:
  58:TestTestRunner.cpp **** {
  59:TestTestRunner.cpp ****     TestList list;
  60:TestTestRunner.cpp **** };
  61:TestTestRunner.cpp **** 
  62:TestTestRunner.cpp **** TEST_FIXTURE(TestRunnerFixture, TestStartIsReportedCorrectly)
 877              		.loc 6 62 1
 878              		.cfi_startproc
 879 01fa 55       		pushq	%rbp
 880              		.cfi_def_cfa_offset 16
 881              		.cfi_offset 6, -16
 882 01fb 4889E5   		movq	%rsp, %rbp
 883              		.cfi_def_cfa_register 6
 884 01fe 4883EC10 		subq	$16, %rsp
 885 0202 48897DF8 		movq	%rdi, -8(%rbp)
 886 0206 488975F0 		movq	%rsi, -16(%rbp)
 887              	.LBB14:
 888              		.loc 6 62 1
 889 020a 488B45F8 		movq	-8(%rbp), %rax
 890 020e 4889C7   		movq	%rax, %rdi
 891 0211 E876FFFF 		call	_ZN12_GLOBAL__N_117TestRunnerFixtureC2Ev
 891      FF
 892 0216 488B45F8 		movq	-8(%rbp), %rax
 893 021a 488B55F0 		movq	-16(%rbp), %rdx
 894 021e 48899058 		movq	%rdx, 2136(%rax)
 894      080000
 895              	.LBE14:
 896 0225 90       		nop
 897 0226 C9       		leave
 898              		.cfi_def_cfa 7, 8
 899 0227 C3       		ret
 900              		.cfi_endproc
 901              	.LFE1169:
 903              		.set	_ZN12_GLOBAL__N_151TestRunnerFixtureTestStartIsReportedCorrectlyHelperC1ERKN8UnitTest11TestDe
 904              		.section	.rodata
 905              	.LC6:
 906 0020 54657374 		.string	"TestTestRunner.cpp"
 906      54657374 
 906      52756E6E 
 906      65722E63 
 906      707000
 907              	.LC7:
 908 0033 54657374 		.string	"TestStartIsReportedCorrectly"
 908      53746172 
 908      74497352 
 908      65706F72 
 908      74656443 
 909              		.text
 910              		.align 2
 912              	_ZN12_GLOBAL__N_149TestTestRunnerFixtureTestStartIsReportedCorrectlyC2Ev:
 913              	.LFB1172:
 914              		.loc 6 62 1
 915              		.cfi_startproc
 916 0228 55       		pushq	%rbp
 917              		.cfi_def_cfa_offset 16
 918              		.cfi_offset 6, -16
 919 0229 4889E5   		movq	%rsp, %rbp
 920              		.cfi_def_cfa_register 6
 921 022c 53       		pushq	%rbx
 922 022d 4883EC18 		subq	$24, %rsp
 923              		.cfi_offset 3, -24
 924 0231 48897DE8 		movq	%rdi, -24(%rbp)
 925              	.LBB15:
 926              		.loc 6 62 1
 927 0235 488B5DE8 		movq	-24(%rbp), %rbx
 928 0239 E8000000 		call	_ZN13UnitTestSuite12GetSuiteNameEv
 928      00
 929 023e 4889C2   		movq	%rax, %rdx
 930 0241 41B83E00 		movl	$62, %r8d
 930      0000
 931 0247 488D0500 		leaq	.LC6(%rip), %rax
 931      000000
 932 024e 4889C1   		movq	%rax, %rcx
 933 0251 488D0500 		leaq	.LC7(%rip), %rax
 933      000000
 934 0258 4889C6   		movq	%rax, %rsi
 935 025b 4889DF   		movq	%rbx, %rdi
 936 025e E8000000 		call	_ZN8UnitTest4TestC2EPKcS2_S2_i@PLT
 936      00
 937 0263 488D1500 		leaq	16+_ZTVN12_GLOBAL__N_149TestTestRunnerFixtureTestStartIsReportedCorrectlyE(%rip), %rdx
 937      000000
 938 026a 488B45E8 		movq	-24(%rbp), %rax
 939 026e 488910   		movq	%rdx, (%rax)
 940              	.LBE15:
 941 0271 90       		nop
 942 0272 488B5DF8 		movq	-8(%rbp), %rbx
 943 0276 C9       		leave
 944              		.cfi_def_cfa 7, 8
 945 0277 C3       		ret
 946              		.cfi_endproc
 947              	.LFE1172:
 949              		.set	_ZN12_GLOBAL__N_149TestTestRunnerFixtureTestStartIsReportedCorrectlyC1Ev,_ZN12_GLOBAL__N_149T
 950              		.local	_ZN12_GLOBAL__N_157testTestRunnerFixtureTestStartIsReportedCorrectlyInstanceE
 951              		.comm	_ZN12_GLOBAL__N_157testTestRunnerFixtureTestStartIsReportedCorrectlyInstanceE,56,32
 952              		.local	_ZN12_GLOBAL__N_150adderTestRunnerFixtureTestStartIsReportedCorrectlyE
 953              		.comm	_ZN12_GLOBAL__N_150adderTestRunnerFixtureTestStartIsReportedCorrectlyE,1,1
 954              		.align 2
 956              	_ZN12_GLOBAL__N_151TestRunnerFixtureTestStartIsReportedCorrectlyHelperD2Ev:
 957              	.LFB1176:
 958              		.loc 6 62 1
 959              		.cfi_startproc
 960 0278 55       		pushq	%rbp
 961              		.cfi_def_cfa_offset 16
 962              		.cfi_offset 6, -16
 963 0279 4889E5   		movq	%rsp, %rbp
 964              		.cfi_def_cfa_register 6
 965 027c 4883EC10 		subq	$16, %rsp
 966 0280 48897DF8 		movq	%rdi, -8(%rbp)
 967              	.LBB16:
 968              		.loc 6 62 1
 969 0284 488B45F8 		movq	-8(%rbp), %rax
 970 0288 4889C7   		movq	%rax, %rdi
 971 028b E84EFFFF 		call	_ZN12_GLOBAL__N_117TestRunnerFixtureD2Ev
 971      FF
 972              	.LBE16:
 973 0290 90       		nop
 974 0291 C9       		leave
 975              		.cfi_def_cfa 7, 8
 976 0292 C3       		ret
 977              		.cfi_endproc
 978              	.LFE1176:
 980              		.set	_ZN12_GLOBAL__N_151TestRunnerFixtureTestStartIsReportedCorrectlyHelperD1Ev,_ZN12_GLOBAL__N_15
 981              		.section	.rodata
 982              	.LC8:
 983 0050 556E6861 		.string	"Unhandled exception: "
 983      6E646C65 
 983      64206578 
 983      63657074 
 983      696F6E3A 
 984 0066 0000     		.align 8
 985              	.LC9:
 986 0068 556E6861 		.string	"Unhandled exception while destroying fixture TestRunnerFixture"
 986      6E646C65 
 986      64206578 
 986      63657074 
 986      696F6E20 
 987 00a7 00       		.align 8
 988              	.LC10:
 989 00a8 556E6861 		.string	"Unhandled exception while constructing fixture TestRunnerFixture"
 989      6E646C65 
 989      64206578 
 989      63657074 
 989      696F6E20 
 990              		.text
 991 0293 90       		.align 2
 993              	_ZNK12_GLOBAL__N_149TestTestRunnerFixtureTestStartIsReportedCorrectly7RunImplEv:
 994              	.LFB1174:
 995              		.loc 6 62 1
 996              		.cfi_startproc
 997              		.cfi_personality 0x9b,DW.ref.__gxx_personality_v0
 998              		.cfi_lsda 0x1b,.LLSDA1174
 999 0294 F30F1EFA 		endbr64
 1000 0298 55       		pushq	%rbp
 1001              		.cfi_def_cfa_offset 16
 1002              		.cfi_offset 6, -16
 1003 0299 4889E5   		movq	%rsp, %rbp
 1004              		.cfi_def_cfa_register 6
 1005 029c 4155     		pushq	%r13
 1006 029e 4154     		pushq	%r12
 1007 02a0 53       		pushq	%rbx
 1008 02a1 4881ECC8 		subq	$2248, %rsp
 1008      080000
 1009              		.cfi_offset 13, -24
 1010              		.cfi_offset 12, -32
 1011              		.cfi_offset 3, -40
 1012 02a8 4889BD28 		movq	%rdi, -2264(%rbp)
 1012      F7FFFF
 1013              		.loc 6 62 1
 1014 02af 64488B04 		movq	%fs:40, %rax
 1014      25280000 
 1014      00
 1015 02b8 488945D8 		movq	%rax, -40(%rbp)
 1016 02bc 31C0     		xorl	%eax, %eax
 1017 02be C6853FF7 		movb	$0, -2241(%rbp)
 1017      FFFF00
 1018              	.LBB17:
 1019 02c5 488B8528 		movq	-2264(%rbp), %rax
 1019      F7FFFF
 1020 02cc 488D5008 		leaq	8(%rax), %rdx
 1021 02d0 488D8570 		leaq	-2192(%rbp), %rax
 1021      F7FFFF
 1022 02d7 4889D6   		movq	%rdx, %rsi
 1023 02da 4889C7   		movq	%rax, %rdi
 1024              	.LEHB10:
 1025 02dd E818FFFF 		call	_ZN12_GLOBAL__N_151TestRunnerFixtureTestStartIsReportedCorrectlyHelperC1ERKN8UnitTest11TestDe
 1025      FF
 1026              	.LEHE10:
 1027              		.loc 6 62 1 is_stmt 0 discriminator 1
 1028 02e2 C6853FF7 		movb	$1, -2241(%rbp)
 1028      FFFF01
 1029 02e9 488B8528 		movq	-2264(%rbp), %rax
 1029      F7FFFF
 1030 02f0 488D5008 		leaq	8(%rax), %rdx
 1031 02f4 488D8570 		leaq	-2192(%rbp), %rax
 1031      F7FFFF
 1032 02fb 4889D6   		movq	%rdx, %rsi
 1033 02fe 4889C7   		movq	%rax, %rdi
 1034              	.LEHB11:
 1035 0301 E8066D00 		call	_ZN8UnitTest11ExecuteTestIN12_GLOBAL__N_151TestRunnerFixtureTestStartIsReportedCorrectlyHelpe
 1035      00
 1036              	.LEHE11:
 1037              		.loc 6 62 1 discriminator 3
 1038 0306 488D8570 		leaq	-2192(%rbp), %rax
 1038      F7FFFF
 1039 030d 4889C7   		movq	%rax, %rdi
 1040              	.LEHB12:
 1041 0310 E863FFFF 		call	_ZN12_GLOBAL__N_151TestRunnerFixtureTestStartIsReportedCorrectlyHelperD1Ev
 1041      FF
 1042              	.LEHE12:
 1043              	.LBE17:
 1044              		.loc 6 62 1
 1045 0315 E9840200 		jmp	.L36
 1045      00
 1046              	.L51:
 1047 031a F30F1EFA 		endbr64
 1048              	.LBB18:
 1049 031e 4989C4   		movq	%rax, %r12
 1050 0321 4889D3   		movq	%rdx, %rbx
 1051 0324 488D8570 		leaq	-2192(%rbp), %rax
 1051      F7FFFF
 1052 032b 4889C7   		movq	%rax, %rdi
 1053 032e E845FFFF 		call	_ZN12_GLOBAL__N_151TestRunnerFixtureTestStartIsReportedCorrectlyHelperD1Ev
 1053      FF
 1054 0333 4C89E0   		movq	%r12, %rax
 1055 0336 4889DA   		movq	%rbx, %rdx
 1056 0339 EB04     		jmp	.L38
 1057              	.L50:
 1058 033b F30F1EFA 		endbr64
 1059              	.L38:
 1060              	.LBE18:
 1061 033f 4883FA01 		cmpq	$1, %rdx
 1062 0343 740F     		je	.L39
 1063 0345 4883FA02 		cmpq	$2, %rdx
 1064 0349 0F84A700 		je	.L40
 1064      0000
 1065 034f E94D0100 		jmp	.L56
 1065      00
 1066              	.L39:
 1067              	.LBB19:
 1068              		.loc 6 62 1 discriminator 4
 1069 0354 4889C7   		movq	%rax, %rdi
 1070 0357 E8000000 		call	__cxa_begin_catch@PLT
 1070      00
 1071 035c 48898548 		movq	%rax, -2232(%rbp)
 1071      F7FFFF
 1072              	.LEHB13:
 1073 0363 E8000000 		call	_ZN8UnitTest11CurrentTest7ResultsEv@PLT
 1073      00
 1074 0368 488B18   		movq	(%rax), %rbx
 1075 036b 488B8548 		movq	-2232(%rbp), %rax
 1075      F7FFFF
 1076 0372 488B00   		movq	(%rax), %rax
 1077 0375 4883C010 		addq	$16, %rax
 1078 0379 488B10   		movq	(%rax), %rdx
 1079 037c 488B8548 		movq	-2232(%rbp), %rax
 1079      F7FFFF
 1080 0383 4889C7   		movq	%rax, %rdi
 1081 0386 FFD2     		call	*%rdx
 1082              	.LVL0:
 1083 0388 4989C4   		movq	%rax, %r12
 1084 038b 488B8548 		movq	-2232(%rbp), %rax
 1084      F7FFFF
 1085 0392 4889C7   		movq	%rax, %rdi
 1086 0395 E8000000 		call	_ZNK8UnitTest15AssertException10LineNumberEv@PLT
 1086      00
 1087              		.loc 6 62 1 discriminator 8
 1088 039a 4189C5   		movl	%eax, %r13d
 1089 039d 488B8548 		movq	-2232(%rbp), %rax
 1089      F7FFFF
 1090 03a4 4889C7   		movq	%rax, %rdi
 1091 03a7 E8000000 		call	_ZNK8UnitTest15AssertException8FilenameEv@PLT
 1091      00
 1092              		.loc 6 62 1 discriminator 10
 1093 03ac 4889C1   		movq	%rax, %rcx
 1094 03af 488B8528 		movq	-2264(%rbp), %rax
 1094      F7FFFF
 1095 03b6 488B5008 		movq	8(%rax), %rdx
 1096 03ba 488B8528 		movq	-2264(%rbp), %rax
 1096      F7FFFF
 1097 03c1 488B7010 		movq	16(%rax), %rsi
 1098 03c5 488D8550 		leaq	-2224(%rbp), %rax
 1098      F7FFFF
 1099 03cc 4589E8   		movl	%r13d, %r8d
 1100 03cf 4889C7   		movq	%rax, %rdi
 1101 03d2 E8000000 		call	_ZN8UnitTest11TestDetailsC1EPKcS2_S2_i@PLT
 1101      00
 1102              		.loc 6 62 1 discriminator 14
 1103 03d7 488D8550 		leaq	-2224(%rbp), %rax
 1103      F7FFFF
 1104 03de 4C89E2   		movq	%r12, %rdx
 1105 03e1 4889C6   		movq	%rax, %rsi
 1106 03e4 4889DF   		movq	%rbx, %rdi
 1107 03e7 E8000000 		call	_ZN8UnitTest11TestResults13OnTestFailureERKNS_11TestDetailsEPKc@PLT
 1107      00
 1108              	.LEHE13:
 1109              		.loc 6 62 1 discriminator 16
 1110 03ec E8000000 		call	__cxa_end_catch@PLT
 1110      00
 1111              	.LBE19:
 1112 03f1 E9A80100 		jmp	.L36
 1112      00
 1113              	.L40:
 1114              	.LBB20:
 1115              		.loc 6 62 1 discriminator 5
 1116 03f6 4889C7   		movq	%rax, %rdi
 1117 03f9 E8000000 		call	__cxa_begin_catch@PLT
 1117      00
 1118 03fe 48898540 		movq	%rax, -2240(%rbp)
 1118      F7FFFF
 1119              	.LBB21:
 1120 0405 488D8570 		leaq	-2192(%rbp), %rax
 1120      F7FFFF
 1121 040c 4889C7   		movq	%rax, %rdi
 1122              	.LEHB14:
 1123 040f E8000000 		call	_ZN8UnitTest15MemoryOutStreamC1Ev
 1123      00
 1124              	.LEHE14:
 1125              		.loc 6 62 1 discriminator 18
 1126 0414 488D8570 		leaq	-2192(%rbp), %rax
 1126      F7FFFF
 1127 041b 488D1500 		leaq	.LC8(%rip), %rdx
 1127      000000
 1128 0422 4889D6   		movq	%rdx, %rsi
 1129 0425 4889C7   		movq	%rax, %rdi
 1130              	.LEHB15:
 1131 0428 E8000000 		call	_ZStlsISt11char_traitsIcEERSt13basic_ostreamIcT_ES5_PKc@PLT
 1131      00
 1132 042d 4889C3   		movq	%rax, %rbx
 1133 0430 488B8540 		movq	-2240(%rbp), %rax
 1133      F7FFFF
 1134 0437 488B00   		movq	(%rax), %rax
 1135 043a 4883C010 		addq	$16, %rax
 1136 043e 488B10   		movq	(%rax), %rdx
 1137 0441 488B8540 		movq	-2240(%rbp), %rax
 1137      F7FFFF
 1138 0448 4889C7   		movq	%rax, %rdi
 1139 044b FFD2     		call	*%rdx
 1140              	.LVL1:
 1141 044d 4889C6   		movq	%rax, %rsi
 1142 0450 4889DF   		movq	%rbx, %rdi
 1143 0453 E8000000 		call	_ZStlsISt11char_traitsIcEERSt13basic_ostreamIcT_ES5_PKc@PLT
 1143      00
 1144              		.loc 6 62 1 discriminator 22
 1145 0458 E8000000 		call	_ZN8UnitTest11CurrentTest7ResultsEv@PLT
 1145      00
 1146 045d 488B18   		movq	(%rax), %rbx
 1147 0460 488D8570 		leaq	-2192(%rbp), %rax
 1147      F7FFFF
 1148 0467 4889C7   		movq	%rax, %rdi
 1149 046a E8000000 		call	_ZNK8UnitTest15MemoryOutStream7GetTextEv@PLT
 1149      00
 1150              		.loc 6 62 1 discriminator 24
 1151 046f 4889C2   		movq	%rax, %rdx
 1152 0472 488B8528 		movq	-2264(%rbp), %rax
 1152      F7FFFF
 1153 0479 4883C008 		addq	$8, %rax
 1154 047d 4889C6   		movq	%rax, %rsi
 1155 0480 4889DF   		movq	%rbx, %rdi
 1156 0483 E8000000 		call	_ZN8UnitTest11TestResults13OnTestFailureERKNS_11TestDetailsEPKc@PLT
 1156      00
 1157              	.LEHE15:
 1158              		.loc 6 62 1 discriminator 28
 1159 0488 488D8570 		leaq	-2192(%rbp), %rax
 1159      F7FFFF
 1160 048f 4889C7   		movq	%rax, %rdi
 1161              	.LEHB16:
 1162 0492 E8000000 		call	_ZN8UnitTest15MemoryOutStreamD1Ev
 1162      00
 1163              	.LEHE16:
 1164              	.LBE21:
 1165              		.loc 6 62 1 discriminator 29
 1166 0497 E8000000 		call	__cxa_end_catch@PLT
 1166      00
 1167              	.LBE20:
 1168 049c E9FD0000 		jmp	.L36
 1168      00
 1169              	.L56:
 1170              		.loc 6 62 1 discriminator 6
 1171 04a1 4889C7   		movq	%rax, %rdi
 1172 04a4 E8000000 		call	__cxa_begin_catch@PLT
 1172      00
 1173 04a9 80BD3FF7 		cmpb	$0, -2241(%rbp)
 1173      FFFF00
 1174 04b0 7445     		je	.L43
 1175              	.LEHB17:
 1176              		.loc 6 62 1 discriminator 31
 1177 04b2 E8000000 		call	_ZN8UnitTest11CurrentTest7ResultsEv@PLT
 1177      00
 1178 04b7 488B18   		movq	(%rax), %rbx
 1179 04ba 488B8528 		movq	-2264(%rbp), %rax
 1179      F7FFFF
 1180 04c1 488D4808 		leaq	8(%rax), %rcx
 1181 04c5 488D8550 		leaq	-2224(%rbp), %rax
 1181      F7FFFF
 1182 04cc BA3E0000 		movl	$62, %edx
 1182      00
 1183 04d1 4889CE   		movq	%rcx, %rsi
 1184 04d4 4889C7   		movq	%rax, %rdi
 1185 04d7 E8000000 		call	_ZN8UnitTest11TestDetailsC1ERKS0_i@PLT
 1185      00
 1186              		.loc 6 62 1 discriminator 36
 1187 04dc 488D8550 		leaq	-2224(%rbp), %rax
 1187      F7FFFF
 1188 04e3 488D1500 		leaq	.LC9(%rip), %rdx
 1188      000000
 1189 04ea 4889C6   		movq	%rax, %rsi
 1190 04ed 4889DF   		movq	%rbx, %rdi
 1191 04f0 E8000000 		call	_ZN8UnitTest11TestResults13OnTestFailureERKNS_11TestDetailsEPKc@PLT
 1191      00
 1192 04f5 EB43     		jmp	.L44
 1193              	.L43:
 1194              		.loc 6 62 1 discriminator 32
 1195 04f7 E8000000 		call	_ZN8UnitTest11CurrentTest7ResultsEv@PLT
 1195      00
 1196 04fc 488B18   		movq	(%rax), %rbx
 1197 04ff 488B8528 		movq	-2264(%rbp), %rax
 1197      F7FFFF
 1198 0506 488D4808 		leaq	8(%rax), %rcx
 1199 050a 488D8550 		leaq	-2224(%rbp), %rax
 1199      F7FFFF
 1200 0511 BA3E0000 		movl	$62, %edx
 1200      00
 1201 0516 4889CE   		movq	%rcx, %rsi
 1202 0519 4889C7   		movq	%rax, %rdi
 1203 051c E8000000 		call	_ZN8UnitTest11TestDetailsC1ERKS0_i@PLT
 1203      00
 1204              		.loc 6 62 1 discriminator 43
 1205 0521 488D8550 		leaq	-2224(%rbp), %rax
 1205      F7FFFF
 1206 0528 488D1500 		leaq	.LC10(%rip), %rdx
 1206      000000
 1207 052f 4889C6   		movq	%rax, %rsi
 1208 0532 4889DF   		movq	%rbx, %rdi
 1209 0535 E8000000 		call	_ZN8UnitTest11TestResults13OnTestFailureERKNS_11TestDetailsEPKc@PLT
 1209      00
 1210              	.LEHE17:
 1211              	.L44:
 1212              	.LEHB18:
 1213              		.loc 6 62 1 discriminator 46
 1214 053a E8000000 		call	__cxa_end_catch@PLT
 1214      00
 1215 053f EB5D     		jmp	.L36
 1216              	.L52:
 1217 0541 F30F1EFA 		endbr64
 1218              	.LBB23:
 1219              		.loc 6 62 1
 1220 0545 4889C3   		movq	%rax, %rbx
 1221 0548 E8000000 		call	__cxa_end_catch@PLT
 1221      00
 1222 054d 4889D8   		movq	%rbx, %rax
 1223 0550 4889C7   		movq	%rax, %rdi
 1224 0553 E8000000 		call	_Unwind_Resume@PLT
 1224      00
 1225              	.LEHE18:
 1226              	.L54:
 1227 0558 F30F1EFA 		endbr64
 1228              	.LBE23:
 1229              	.LBB24:
 1230              	.LBB22:
 1231 055c 4889C3   		movq	%rax, %rbx
 1232 055f 488D8570 		leaq	-2192(%rbp), %rax
 1232      F7FFFF
 1233 0566 4889C7   		movq	%rax, %rdi
 1234 0569 E8000000 		call	_ZN8UnitTest15MemoryOutStreamD1Ev
 1234      00
 1235 056e EB07     		jmp	.L47
 1236              	.L53:
 1237 0570 F30F1EFA 		endbr64
 1238              	.LBE22:
 1239 0574 4889C3   		movq	%rax, %rbx
 1240              	.L47:
 1241 0577 E8000000 		call	__cxa_end_catch@PLT
 1241      00
 1242 057c 4889D8   		movq	%rbx, %rax
 1243 057f 4889C7   		movq	%rax, %rdi
 1244              	.LEHB19:
 1245 0582 E8000000 		call	_Unwind_Resume@PLT
 1245      00
 1246              	.LEHE19:
 1247              	.L55:
 1248 0587 F30F1EFA 		endbr64
 1249              	.LBE24:
 1250 058b 4889C3   		movq	%rax, %rbx
 1251 058e E8000000 		call	__cxa_end_catch@PLT
 1251      00
 1252 0593 4889D8   		movq	%rbx, %rax
 1253 0596 4889C7   		movq	%rax, %rdi
 1254              	.LEHB20:
 1255 0599 E8000000 		call	_Unwind_Resume@PLT
 1255      00
 1256              	.LEHE20:
 1257              	.L36:
 1258 059e 488B45D8 		movq	-40(%rbp), %rax
 1259 05a2 64482B04 		subq	%fs:40, %rax
 1259      25280000 
 1259      00
 1260 05ab 7405     		je	.L49
 1261 05ad E8000000 		call	__stack_chk_fail@PLT
 1261      00
 1262              	.L49:
 1263 05b2 4881C4C8 		addq	$2248, %rsp
 1263      080000
 1264 05b9 5B       		popq	%rbx
 1265 05ba 415C     		popq	%r12
 1266 05bc 415D     		popq	%r13
 1267 05be 5D       		popq	%rbp
 1268              		.cfi_def_cfa 7, 8
 1269 05bf C3       		ret
 1270              		.cfi_endproc
 1271              	.LFE1174:
 1272              		.section	.gcc_except_table
 1273              		.align 4
 1274              	.LLSDA1174:
 1275 0020 FF       		.byte	0xff
 1276 0021 9B       		.byte	0x9b
 1277 0022 55       		.uleb128 .LLSDATT1174-.LLSDATTD1174
 1278              	.LLSDATTD1174:
 1279 0023 01       		.byte	0x1
 1280 0024 3E       		.uleb128 .LLSDACSE1174-.LLSDACSB1174
 1281              	.LLSDACSB1174:
 1282 0025 49       		.uleb128 .LEHB10-.LFB1174
 1283 0026 05       		.uleb128 .LEHE10-.LEHB10
 1284 0027 A701     		.uleb128 .L50-.LFB1174
 1285 0029 05       		.uleb128 0x5
 1286 002a 6D       		.uleb128 .LEHB11-.LFB1174
 1287 002b 05       		.uleb128 .LEHE11-.LEHB11
 1288 002c 8601     		.uleb128 .L51-.LFB1174
 1289 002e 07       		.uleb128 0x7
 1290 002f 7C       		.uleb128 .LEHB12-.LFB1174
 1291 0030 05       		.uleb128 .LEHE12-.LEHB12
 1292 0031 A701     		.uleb128 .L50-.LFB1174
 1293 0033 05       		.uleb128 0x5
 1294 0034 CF01     		.uleb128 .LEHB13-.LFB1174
 1295 0036 8901     		.uleb128 .LEHE13-.LEHB13
 1296 0038 AD05     		.uleb128 .L52-.LFB1174
 1297 003a 00       		.uleb128 0
 1298 003b FB02     		.uleb128 .LEHB14-.LFB1174
 1299 003d 05       		.uleb128 .LEHE14-.LEHB14
 1300 003e DC05     		.uleb128 .L53-.LFB1174
 1301 0040 00       		.uleb128 0
 1302 0041 9403     		.uleb128 .LEHB15-.LFB1174
 1303 0043 60       		.uleb128 .LEHE15-.LEHB15
 1304 0044 C405     		.uleb128 .L54-.LFB1174
 1305 0046 00       		.uleb128 0
 1306 0047 FE03     		.uleb128 .LEHB16-.LFB1174
 1307 0049 05       		.uleb128 .LEHE16-.LEHB16
 1308 004a DC05     		.uleb128 .L53-.LFB1174
 1309 004c 00       		.uleb128 0
 1310 004d 9E04     		.uleb128 .LEHB17-.LFB1174
 1311 004f 8801     		.uleb128 .LEHE17-.LEHB17
 1312 0051 F305     		.uleb128 .L55-.LFB1174
 1313 0053 00       		.uleb128 0
 1314 0054 A605     		.uleb128 .LEHB18-.LFB1174
 1315 0056 1E       		.uleb128 .LEHE18-.LEHB18
 1316 0057 00       		.uleb128 0
 1317 0058 00       		.uleb128 0
 1318 0059 EE05     		.uleb128 .LEHB19-.LFB1174
 1319 005b 05       		.uleb128 .LEHE19-.LEHB19
 1320 005c 00       		.uleb128 0
 1321 005d 00       		.uleb128 0
 1322 005e 8506     		.uleb128 .LEHB20-.LFB1174
 1323 0060 05       		.uleb128 .LEHE20-.LEHB20
 1324 0061 00       		.uleb128 0
 1325 0062 00       		.uleb128 0
 1326              	.LLSDACSE1174:
 1327 0063 03       		.byte	0x3
 1328 0064 00       		.byte	0
 1329 0065 02       		.byte	0x2
 1330 0066 7D       		.byte	0x7d
 1331 0067 01       		.byte	0x1
 1332 0068 7D       		.byte	0x7d
 1333 0069 00       		.byte	0
 1334 006a 7D       		.byte	0x7d
 1335 006b 00       		.align 4
 1336 006c 00000000 		.long	0
 1337              	
 1338 0070 00000000 		.long	DW.ref._ZTISt9exception-.
 1339 0074 00000000 		.long	DW.ref._ZTIN8UnitTest15AssertExceptionE-.
 1340              	.LLSDATT1174:
 1341              		.text
 1343              		.section	.rodata
 1344              	.LC11:
 1345 00e9 676F6F64 		.string	"goodtest"
 1345      74657374 
 1345      00
 1346 00f2 00000000 		.align 8
 1346      0000
 1347              	.LC12:
 1348 00f8 556E6861 		.string	"Unhandled exception in CHECK_EQUAL(1, reporter.testRunCount)"
 1348      6E646C65 
 1348      64206578 
 1348      63657074 
 1348      696F6E20 
 1349 0135 000000   		.align 8
 1350              	.LC13:
 1351 0138 556E6861 		.string	"Unhandled exception in CHECK_EQUAL(\"goodtest\", reporter.lastStartedTest)"
 1351      6E646C65 
 1351      64206578 
 1351      63657074 
 1351      696F6E20 
 1352              		.text
 1353              		.align 2
 1355              	_ZN12_GLOBAL__N_151TestRunnerFixtureTestStartIsReportedCorrectlyHelper7RunImplEv:
 1356              	.LFB1178:
  63:TestTestRunner.cpp **** {
 1357              		.loc 6 63 1 is_stmt 1
 1358              		.cfi_startproc
 1359              		.cfi_personality 0x9b,DW.ref.__gxx_personality_v0
 1360              		.cfi_lsda 0x1b,.LLSDA1178
 1361 05c0 F30F1EFA 		endbr64
 1362 05c4 55       		pushq	%rbp
 1363              		.cfi_def_cfa_offset 16
 1364              		.cfi_offset 6, -16
 1365 05c5 4889E5   		movq	%rsp, %rbp
 1366              		.cfi_def_cfa_register 6
 1367 05c8 53       		pushq	%rbx
 1368 05c9 4881EC88 		subq	$136, %rsp
 1368      000000
 1369              		.cfi_offset 3, -24
 1370 05d0 4889BD78 		movq	%rdi, -136(%rbp)
 1370      FFFFFF
 1371              		.loc 6 63 1
 1372 05d7 64488B04 		movq	%fs:40, %rax
 1372      25280000 
 1372      00
 1373 05e0 488945E8 		movq	%rax, -24(%rbp)
 1374 05e4 31C0     		xorl	%eax, %eax
  64:TestTestRunner.cpp ****     MockTest test("goodtest", true, false);
 1375              		.loc 6 64 42
 1376 05e6 488D45B0 		leaq	-80(%rbp), %rax
 1377 05ea 41B80100 		movl	$1, %r8d
 1377      0000
 1378 05f0 B9000000 		movl	$0, %ecx
 1378      00
 1379 05f5 BA010000 		movl	$1, %edx
 1379      00
 1380 05fa 488D3500 		leaq	.LC11(%rip), %rsi
 1380      000000
 1381 0601 4889C7   		movq	%rax, %rdi
 1382              	.LEHB21:
 1383 0604 E8F7F9FF 		call	_ZN12_GLOBAL__N_18MockTestC1EPKcbbi
 1383      FF
 1384              	.LEHE21:
  65:TestTestRunner.cpp ****     list.Add(&test);
 1385              		.loc 6 65 13
 1386 0609 488B8578 		movq	-136(%rbp), %rax
 1386      FFFFFF
 1387 0610 488D9048 		leaq	2120(%rax), %rdx
 1387      080000
 1388 0617 488D45B0 		leaq	-80(%rbp), %rax
 1389 061b 4889C6   		movq	%rax, %rsi
 1390 061e 4889D7   		movq	%rdx, %rdi
 1391              	.LEHB22:
 1392 0621 E8000000 		call	_ZN8UnitTest8TestList3AddEPNS_4TestE@PLT
 1392      00
  66:TestTestRunner.cpp **** 
  67:TestTestRunner.cpp **** 	RunTestsIf(list, NULL, True(), 0);
 1393              		.loc 6 67 12
 1394 0626 488B8578 		movq	-136(%rbp), %rax
 1394      FFFFFF
 1395              		.loc 6 67 13
 1396 062d 488B9578 		movq	-136(%rbp), %rdx
 1396      FFFFFF
 1397 0634 488DB248 		leaq	2120(%rdx), %rsi
 1397      080000
 1398              		.loc 6 67 12
 1399 063b 488D5590 		leaq	-112(%rbp), %rdx
 1400 063f 41B80000 		movl	$0, %r8d
 1400      0000
 1401 0645 4889D1   		movq	%rdx, %rcx
 1402 0648 BA000000 		movl	$0, %edx
 1402      00
 1403 064d 4889C7   		movq	%rax, %rdi
 1404 0650 E8A76C00 		call	_ZN12_GLOBAL__N_111FixtureBase10RunTestsIfIN8UnitTest4TrueEEEiRKNS2_8TestListEPKcRKT_i
 1404      00
 1405              	.LEHE22:
 1406              	.LEHB23:
  68:TestTestRunner.cpp ****     CHECK_EQUAL(1, reporter.testRunCount);
 1407              		.loc 6 68 5 discriminator 2
 1408 0655 E8000000 		call	_ZN8UnitTest11CurrentTest7DetailsEv@PLT
 1408      00
 1409 065a 488B08   		movq	(%rax), %rcx
 1410 065d 488D4590 		leaq	-112(%rbp), %rax
 1411 0661 BA440000 		movl	$68, %edx
 1411      00
 1412 0666 4889CE   		movq	%rcx, %rsi
 1413 0669 4889C7   		movq	%rax, %rdi
 1414 066c E8000000 		call	_ZN8UnitTest11TestDetailsC1ERKS0_i@PLT
 1414      00
 1415              		.loc 6 68 5 is_stmt 0 discriminator 4
 1416 0671 488B8578 		movq	-136(%rbp), %rax
 1416      FFFFFF
 1417 0678 488D5820 		leaq	32(%rax), %rbx
 1418 067c C7458C01 		movl	$1, -116(%rbp)
 1418      000000
 1419 0683 E8000000 		call	_ZN8UnitTest11CurrentTest7ResultsEv@PLT
 1419      00
 1420 0688 488B00   		movq	(%rax), %rax
 1421 068b 488D5590 		leaq	-112(%rbp), %rdx
 1422 068f 488D758C 		leaq	-116(%rbp), %rsi
 1423 0693 4889D1   		movq	%rdx, %rcx
 1424 0696 4889DA   		movq	%rbx, %rdx
 1425 0699 4889C7   		movq	%rax, %rdi
 1426 069c E8000000 		call	_ZN8UnitTest10CheckEqualIiiEEvRNS_11TestResultsERKT_RKT0_RKNS_11TestDetailsE
 1426      00
 1427              	.LEHE23:
 1428              	.L59:
 1429              	.LEHB24:
  69:TestTestRunner.cpp ****     CHECK_EQUAL("goodtest", reporter.lastStartedTest);
 1430              		.loc 6 69 5 is_stmt 1
 1431 06a1 E8000000 		call	_ZN8UnitTest11CurrentTest7DetailsEv@PLT
 1431      00
 1432 06a6 488B08   		movq	(%rax), %rcx
 1433 06a9 488D4590 		leaq	-112(%rbp), %rax
 1434 06ad BA450000 		movl	$69, %edx
 1434      00
 1435 06b2 4889CE   		movq	%rcx, %rsi
 1436 06b5 4889C7   		movq	%rax, %rdi
 1437 06b8 E8000000 		call	_ZN8UnitTest11TestDetailsC1ERKS0_i@PLT
 1437      00
 1438              		.loc 6 69 5 is_stmt 0 discriminator 4
 1439 06bd 488B8578 		movq	-136(%rbp), %rax
 1439      FFFFFF
 1440 06c4 488D9824 		leaq	292(%rax), %rbx
 1440      010000
 1441 06cb E8000000 		call	_ZN8UnitTest11CurrentTest7ResultsEv@PLT
 1441      00
 1442 06d0 488B00   		movq	(%rax), %rax
 1443 06d3 488D5590 		leaq	-112(%rbp), %rdx
 1444 06d7 4889D1   		movq	%rdx, %rcx
 1445 06da 4889DA   		movq	%rbx, %rdx
 1446 06dd 488D3500 		leaq	.LC11(%rip), %rsi
 1446      000000
 1447 06e4 4889C7   		movq	%rax, %rdi
 1448 06e7 E8000000 		call	_ZN8UnitTest10CheckEqualERNS_11TestResultsEPKcPcRKNS_11TestDetailsE@PLT
 1448      00
 1449              	.LEHE24:
 1450              	.L63:
  70:TestTestRunner.cpp **** }
 1451              		.loc 6 70 1 is_stmt 1
 1452 06ec 488D45B0 		leaq	-80(%rbp), %rax
 1453 06f0 4889C7   		movq	%rax, %rdi
 1454              	.LEHB25:
 1455 06f3 E85EA600 		call	_ZN12_GLOBAL__N_18MockTestD1Ev
 1455      00
 1456              	.LEHE25:
 1457 06f8 488B45E8 		movq	-24(%rbp), %rax
 1458 06fc 64482B04 		subq	%fs:40, %rax
 1458      25280000 
 1458      00
 1459 0705 0F84E400 		je	.L65
 1459      0000
 1460 070b E9DA0000 		jmp	.L71
 1460      00
 1461              	.L67:
 1462 0710 F30F1EFA 		endbr64
  68:TestTestRunner.cpp ****     CHECK_EQUAL(1, reporter.testRunCount);
 1463              		.loc 6 68 5
 1464 0714 4889C7   		movq	%rax, %rdi
 1465 0717 E8000000 		call	__cxa_begin_catch@PLT
 1465      00
 1466              	.LEHB26:
 1467 071c E8000000 		call	_ZN8UnitTest11CurrentTest7ResultsEv@PLT
 1467      00
  68:TestTestRunner.cpp ****     CHECK_EQUAL(1, reporter.testRunCount);
 1468              		.loc 6 68 5 is_stmt 0 discriminator 3
 1469 0721 488B18   		movq	(%rax), %rbx
 1470 0724 E8000000 		call	_ZN8UnitTest11CurrentTest7DetailsEv@PLT
 1470      00
  68:TestTestRunner.cpp ****     CHECK_EQUAL(1, reporter.testRunCount);
 1471              		.loc 6 68 5 discriminator 11
 1472 0729 488B08   		movq	(%rax), %rcx
 1473 072c 488D4590 		leaq	-112(%rbp), %rax
 1474 0730 BA440000 		movl	$68, %edx
 1474      00
 1475 0735 4889CE   		movq	%rcx, %rsi
 1476 0738 4889C7   		movq	%rax, %rdi
 1477 073b E8000000 		call	_ZN8UnitTest11TestDetailsC1ERKS0_i@PLT
 1477      00
  68:TestTestRunner.cpp ****     CHECK_EQUAL(1, reporter.testRunCount);
 1478              		.loc 6 68 5 discriminator 15
 1479 0740 488D4590 		leaq	-112(%rbp), %rax
 1480 0744 488D1500 		leaq	.LC12(%rip), %rdx
 1480      000000
 1481 074b 4889C6   		movq	%rax, %rsi
 1482 074e 4889DF   		movq	%rbx, %rdi
 1483 0751 E8000000 		call	_ZN8UnitTest11TestResults13OnTestFailureERKNS_11TestDetailsEPKc@PLT
 1483      00
 1484              	.LEHE26:
 1485              	.LEHB27:
  68:TestTestRunner.cpp ****     CHECK_EQUAL(1, reporter.testRunCount);
 1486              		.loc 6 68 5 discriminator 17
 1487 0756 E8000000 		call	__cxa_end_catch@PLT
 1487      00
 1488              	.LEHE27:
  68:TestTestRunner.cpp ****     CHECK_EQUAL(1, reporter.testRunCount);
 1489              		.loc 6 68 5
 1490 075b E941FFFF 		jmp	.L59
 1490      FF
 1491              	.L68:
 1492 0760 F30F1EFA 		endbr64
 1493 0764 4889C3   		movq	%rax, %rbx
 1494 0767 E8000000 		call	__cxa_end_catch@PLT
 1494      00
 1495 076c EB65     		jmp	.L61
 1496              	.L69:
 1497 076e F30F1EFA 		endbr64
  69:TestTestRunner.cpp ****     CHECK_EQUAL("goodtest", reporter.lastStartedTest);
 1498              		.loc 6 69 5 is_stmt 1
 1499 0772 4889C7   		movq	%rax, %rdi
 1500 0775 E8000000 		call	__cxa_begin_catch@PLT
 1500      00
 1501              	.LEHB28:
 1502 077a E8000000 		call	_ZN8UnitTest11CurrentTest7ResultsEv@PLT
 1502      00
  69:TestTestRunner.cpp ****     CHECK_EQUAL("goodtest", reporter.lastStartedTest);
 1503              		.loc 6 69 5 is_stmt 0 discriminator 3
 1504 077f 488B18   		movq	(%rax), %rbx
 1505 0782 E8000000 		call	_ZN8UnitTest11CurrentTest7DetailsEv@PLT
 1505      00
  69:TestTestRunner.cpp ****     CHECK_EQUAL("goodtest", reporter.lastStartedTest);
 1506              		.loc 6 69 5 discriminator 11
 1507 0787 488B08   		movq	(%rax), %rcx
 1508 078a 488D4590 		leaq	-112(%rbp), %rax
 1509 078e BA450000 		movl	$69, %edx
 1509      00
 1510 0793 4889CE   		movq	%rcx, %rsi
 1511 0796 4889C7   		movq	%rax, %rdi
 1512 0799 E8000000 		call	_ZN8UnitTest11TestDetailsC1ERKS0_i@PLT
 1512      00
  69:TestTestRunner.cpp ****     CHECK_EQUAL("goodtest", reporter.lastStartedTest);
 1513              		.loc 6 69 5 discriminator 15
 1514 079e 488D4590 		leaq	-112(%rbp), %rax
 1515 07a2 488D1500 		leaq	.LC13(%rip), %rdx
 1515      000000
 1516 07a9 4889C6   		movq	%rax, %rsi
 1517 07ac 4889DF   		movq	%rbx, %rdi
 1518 07af E8000000 		call	_ZN8UnitTest11TestResults13OnTestFailureERKNS_11TestDetailsEPKc@PLT
 1518      00
 1519              	.LEHE28:
 1520              	.LEHB29:
  69:TestTestRunner.cpp ****     CHECK_EQUAL("goodtest", reporter.lastStartedTest);
 1521              		.loc 6 69 5 discriminator 17
 1522 07b4 E8000000 		call	__cxa_end_catch@PLT
 1522      00
 1523              	.LEHE29:
  69:TestTestRunner.cpp ****     CHECK_EQUAL("goodtest", reporter.lastStartedTest);
 1524              		.loc 6 69 5
 1525 07b9 E92EFFFF 		jmp	.L63
 1525      FF
 1526              	.L70:
 1527 07be F30F1EFA 		endbr64
 1528 07c2 4889C3   		movq	%rax, %rbx
 1529 07c5 E8000000 		call	__cxa_end_catch@PLT
 1529      00
 1530 07ca EB07     		jmp	.L61
 1531              	.L66:
 1532 07cc F30F1EFA 		endbr64
 1533              		.loc 6 70 1 is_stmt 1
 1534 07d0 4889C3   		movq	%rax, %rbx
 1535              	.L61:
 1536 07d3 488D45B0 		leaq	-80(%rbp), %rax
 1537 07d7 4889C7   		movq	%rax, %rdi
 1538 07da E877A500 		call	_ZN12_GLOBAL__N_18MockTestD1Ev
 1538      00
 1539 07df 4889D8   		movq	%rbx, %rax
 1540 07e2 4889C7   		movq	%rax, %rdi
 1541              	.LEHB30:
 1542 07e5 E8000000 		call	_Unwind_Resume@PLT
 1542      00
 1543              	.LEHE30:
 1544              	.L71:
 1545 07ea E8000000 		call	__stack_chk_fail@PLT
 1545      00
 1546              	.L65:
 1547 07ef 488B5DF8 		movq	-8(%rbp), %rbx
 1548 07f3 C9       		leave
 1549              		.cfi_def_cfa 7, 8
 1550 07f4 C3       		ret
 1551              		.cfi_endproc
 1552              	.LFE1178:
 1553              		.section	.gcc_except_table
 1554              		.align 4
 1555              	.LLSDA1178:
 1556 0078 FF       		.byte	0xff
 1557 0079 9B       		.byte	0x9b
 1558 007a 41       		.uleb128 .LLSDATT1178-.LLSDATTD1178
 1559              	.LLSDATTD1178:
 1560 007b 01       		.byte	0x1
 1561 007c 37       		.uleb128 .LLSDACSE1178-.LLSDACSB1178
 1562              	.LLSDACSB1178:
 1563 007d 44       		.uleb128 .LEHB21-.LFB1178
 1564 007e 05       		.uleb128 .LEHE21-.LEHB21
 1565 007f 00       		.uleb128 0
 1566 0080 00       		.uleb128 0
 1567 0081 61       		.uleb128 .LEHB22-.LFB1178
 1568 0082 34       		.uleb128 .LEHE22-.LEHB22
 1569 0083 8C04     		.uleb128 .L66-.LFB1178
 1570 0085 00       		.uleb128 0
 1571 0086 9501     		.uleb128 .LEHB23-.LFB1178
 1572 0088 4C       		.uleb128 .LEHE23-.LEHB23
 1573 0089 D002     		.uleb128 .L67-.LFB1178
 1574 008b 01       		.uleb128 0x1
 1575 008c E101     		.uleb128 .LEHB24-.LFB1178
 1576 008e 4B       		.uleb128 .LEHE24-.LEHB24
 1577 008f AE03     		.uleb128 .L69-.LFB1178
 1578 0091 01       		.uleb128 0x1
 1579 0092 B302     		.uleb128 .LEHB25-.LFB1178
 1580 0094 05       		.uleb128 .LEHE25-.LEHB25
 1581 0095 00       		.uleb128 0
 1582 0096 00       		.uleb128 0
 1583 0097 DC02     		.uleb128 .LEHB26-.LFB1178
 1584 0099 3A       		.uleb128 .LEHE26-.LEHB26
 1585 009a A003     		.uleb128 .L68-.LFB1178
 1586 009c 00       		.uleb128 0
 1587 009d 9603     		.uleb128 .LEHB27-.LFB1178
 1588 009f 05       		.uleb128 .LEHE27-.LEHB27
 1589 00a0 8C04     		.uleb128 .L66-.LFB1178
 1590 00a2 00       		.uleb128 0
 1591 00a3 BA03     		.uleb128 .LEHB28-.LFB1178
 1592 00a5 3A       		.uleb128 .LEHE28-.LEHB28
 1593 00a6 FE03     		.uleb128 .L70-.LFB1178
 1594 00a8 00       		.uleb128 0
 1595 00a9 F403     		.uleb128 .LEHB29-.LFB1178
 1596 00ab 05       		.uleb128 .LEHE29-.LEHB29
 1597 00ac 8C04     		.uleb128 .L66-.LFB1178
 1598 00ae 00       		.uleb128 0
 1599 00af A504     		.uleb128 .LEHB30-.LFB1178
 1600 00b1 05       		.uleb128 .LEHE30-.LEHB30
 1601 00b2 00       		.uleb128 0
 1602 00b3 00       		.uleb128 0
 1603              	.LLSDACSE1178:
 1604 00b4 01       		.byte	0x1
 1605 00b5 00       		.byte	0
 1606 00b6 0000     		.align 4
 1607 00b8 00000000 		.long	0
 1608              	
 1609              	.LLSDATT1178:
 1610              		.text
 1612 07f5 90       		.align 2
 1614              	_ZN12_GLOBAL__N_152TestRunnerFixtureTestFinishIsReportedCorrectlyHelperC2ERKN8UnitTest11TestDetails
 1615              	.LFB1180:
  71:TestTestRunner.cpp **** 
  72:TestTestRunner.cpp **** TEST_FIXTURE(TestRunnerFixture, TestFinishIsReportedCorrectly)
 1616              		.loc 6 72 1
 1617              		.cfi_startproc
 1618 07f6 55       		pushq	%rbp
 1619              		.cfi_def_cfa_offset 16
 1620              		.cfi_offset 6, -16
 1621 07f7 4889E5   		movq	%rsp, %rbp
 1622              		.cfi_def_cfa_register 6
 1623 07fa 4883EC10 		subq	$16, %rsp
 1624 07fe 48897DF8 		movq	%rdi, -8(%rbp)
 1625 0802 488975F0 		movq	%rsi, -16(%rbp)
 1626              	.LBB25:
 1627              		.loc 6 72 1
 1628 0806 488B45F8 		movq	-8(%rbp), %rax
 1629 080a 4889C7   		movq	%rax, %rdi
 1630 080d E87AF9FF 		call	_ZN12_GLOBAL__N_117TestRunnerFixtureC2Ev
 1630      FF
 1631 0812 488B45F8 		movq	-8(%rbp), %rax
 1632 0816 488B55F0 		movq	-16(%rbp), %rdx
 1633 081a 48899058 		movq	%rdx, 2136(%rax)
 1633      080000
 1634              	.LBE25:
 1635 0821 90       		nop
 1636 0822 C9       		leave
 1637              		.cfi_def_cfa 7, 8
 1638 0823 C3       		ret
 1639              		.cfi_endproc
 1640              	.LFE1180:
 1642              		.set	_ZN12_GLOBAL__N_152TestRunnerFixtureTestFinishIsReportedCorrectlyHelperC1ERKN8UnitTest11TestD
 1643              		.section	.rodata
 1644              	.LC14:
 1645 0181 54657374 		.string	"TestFinishIsReportedCorrectly"
 1645      46696E69 
 1645      73684973 
 1645      5265706F 
 1645      72746564 
 1646              		.text
 1647              		.align 2
 1649              	_ZN12_GLOBAL__N_150TestTestRunnerFixtureTestFinishIsReportedCorrectlyC2Ev:
 1650              	.LFB1183:
 1651              		.loc 6 72 1
 1652              		.cfi_startproc
 1653 0824 55       		pushq	%rbp
 1654              		.cfi_def_cfa_offset 16
 1655              		.cfi_offset 6, -16
 1656 0825 4889E5   		movq	%rsp, %rbp
 1657              		.cfi_def_cfa_register 6
 1658 0828 53       		pushq	%rbx
 1659 0829 4883EC18 		subq	$24, %rsp
 1660              		.cfi_offset 3, -24
 1661 082d 48897DE8 		movq	%rdi, -24(%rbp)
 1662              	.LBB26:
 1663              		.loc 6 72 1
 1664 0831 488B5DE8 		movq	-24(%rbp), %rbx
 1665 0835 E8000000 		call	_ZN13UnitTestSuite12GetSuiteNameEv
 1665      00
 1666 083a 4889C2   		movq	%rax, %rdx
 1667 083d 41B84800 		movl	$72, %r8d
 1667      0000
 1668 0843 488D0500 		leaq	.LC6(%rip), %rax
 1668      000000
 1669 084a 4889C1   		movq	%rax, %rcx
 1670 084d 488D0500 		leaq	.LC14(%rip), %rax
 1670      000000
 1671 0854 4889C6   		movq	%rax, %rsi
 1672 0857 4889DF   		movq	%rbx, %rdi
 1673 085a E8000000 		call	_ZN8UnitTest4TestC2EPKcS2_S2_i@PLT
 1673      00
 1674 085f 488D1500 		leaq	16+_ZTVN12_GLOBAL__N_150TestTestRunnerFixtureTestFinishIsReportedCorrectlyE(%rip), %rdx
 1674      000000
 1675 0866 488B45E8 		movq	-24(%rbp), %rax
 1676 086a 488910   		movq	%rdx, (%rax)
 1677              	.LBE26:
 1678 086d 90       		nop
 1679 086e 488B5DF8 		movq	-8(%rbp), %rbx
 1680 0872 C9       		leave
 1681              		.cfi_def_cfa 7, 8
 1682 0873 C3       		ret
 1683              		.cfi_endproc
 1684              	.LFE1183:
 1686              		.set	_ZN12_GLOBAL__N_150TestTestRunnerFixtureTestFinishIsReportedCorrectlyC1Ev,_ZN12_GLOBAL__N_150
 1687              		.local	_ZN12_GLOBAL__N_158testTestRunnerFixtureTestFinishIsReportedCorrectlyInstanceE
 1688              		.comm	_ZN12_GLOBAL__N_158testTestRunnerFixtureTestFinishIsReportedCorrectlyInstanceE,56,32
 1689              		.local	_ZN12_GLOBAL__N_151adderTestRunnerFixtureTestFinishIsReportedCorrectlyE
 1690              		.comm	_ZN12_GLOBAL__N_151adderTestRunnerFixtureTestFinishIsReportedCorrectlyE,1,1
 1691              		.align 2
 1693              	_ZN12_GLOBAL__N_152TestRunnerFixtureTestFinishIsReportedCorrectlyHelperD2Ev:
 1694              	.LFB1187:
 1695              		.loc 6 72 1
 1696              		.cfi_startproc
 1697 0874 55       		pushq	%rbp
 1698              		.cfi_def_cfa_offset 16
 1699              		.cfi_offset 6, -16
 1700 0875 4889E5   		movq	%rsp, %rbp
 1701              		.cfi_def_cfa_register 6
 1702 0878 4883EC10 		subq	$16, %rsp
 1703 087c 48897DF8 		movq	%rdi, -8(%rbp)
 1704              	.LBB27:
 1705              		.loc 6 72 1
 1706 0880 488B45F8 		movq	-8(%rbp), %rax
 1707 0884 4889C7   		movq	%rax, %rdi
 1708 0887 E852F9FF 		call	_ZN12_GLOBAL__N_117TestRunnerFixtureD2Ev
 1708      FF
 1709              	.LBE27:
 1710 088c 90       		nop
 1711 088d C9       		leave
 1712              		.cfi_def_cfa 7, 8
 1713 088e C3       		ret
 1714              		.cfi_endproc
 1715              	.LFE1187:
 1717              		.set	_ZN12_GLOBAL__N_152TestRunnerFixtureTestFinishIsReportedCorrectlyHelperD1Ev,_ZN12_GLOBAL__N_1
 1718 088f 90       		.align 2
 1720              	_ZNK12_GLOBAL__N_150TestTestRunnerFixtureTestFinishIsReportedCorrectly7RunImplEv:
 1721              	.LFB1185:
 1722              		.loc 6 72 1
 1723              		.cfi_startproc
 1724              		.cfi_personality 0x9b,DW.ref.__gxx_personality_v0
 1725              		.cfi_lsda 0x1b,.LLSDA1185
 1726 0890 F30F1EFA 		endbr64
 1727 0894 55       		pushq	%rbp
 1728              		.cfi_def_cfa_offset 16
 1729              		.cfi_offset 6, -16
 1730 0895 4889E5   		movq	%rsp, %rbp
 1731              		.cfi_def_cfa_register 6
 1732 0898 4155     		pushq	%r13
 1733 089a 4154     		pushq	%r12
 1734 089c 53       		pushq	%rbx
 1735 089d 4881ECC8 		subq	$2248, %rsp
 1735      080000
 1736              		.cfi_offset 13, -24
 1737              		.cfi_offset 12, -32
 1738              		.cfi_offset 3, -40
 1739 08a4 4889BD28 		movq	%rdi, -2264(%rbp)
 1739      F7FFFF
 1740              		.loc 6 72 1
 1741 08ab 64488B04 		movq	%fs:40, %rax
 1741      25280000 
 1741      00
 1742 08b4 488945D8 		movq	%rax, -40(%rbp)
 1743 08b8 31C0     		xorl	%eax, %eax
 1744 08ba C6853FF7 		movb	$0, -2241(%rbp)
 1744      FFFF00
 1745              	.LBB28:
 1746 08c1 488B8528 		movq	-2264(%rbp), %rax
 1746      F7FFFF
 1747 08c8 488D5008 		leaq	8(%rax), %rdx
 1748 08cc 488D8570 		leaq	-2192(%rbp), %rax
 1748      F7FFFF
 1749 08d3 4889D6   		movq	%rdx, %rsi
 1750 08d6 4889C7   		movq	%rax, %rdi
 1751              	.LEHB31:
 1752 08d9 E818FFFF 		call	_ZN12_GLOBAL__N_152TestRunnerFixtureTestFinishIsReportedCorrectlyHelperC1ERKN8UnitTest11TestD
 1752      FF
 1753              	.LEHE31:
 1754              		.loc 6 72 1 is_stmt 0 discriminator 1
 1755 08de C6853FF7 		movb	$1, -2241(%rbp)
 1755      FFFF01
 1756 08e5 488B8528 		movq	-2264(%rbp), %rax
 1756      F7FFFF
 1757 08ec 488D5008 		leaq	8(%rax), %rdx
 1758 08f0 488D8570 		leaq	-2192(%rbp), %rax
 1758      F7FFFF
 1759 08f7 4889D6   		movq	%rdx, %rsi
 1760 08fa 4889C7   		movq	%rax, %rdi
 1761              	.LEHB32:
 1762 08fd E86C6A00 		call	_ZN8UnitTest11ExecuteTestIN12_GLOBAL__N_152TestRunnerFixtureTestFinishIsReportedCorrectlyHelp
 1762      00
 1763              	.LEHE32:
 1764              		.loc 6 72 1 discriminator 3
 1765 0902 488D8570 		leaq	-2192(%rbp), %rax
 1765      F7FFFF
 1766 0909 4889C7   		movq	%rax, %rdi
 1767              	.LEHB33:
 1768 090c E863FFFF 		call	_ZN12_GLOBAL__N_152TestRunnerFixtureTestFinishIsReportedCorrectlyHelperD1Ev
 1768      FF
 1769              	.LEHE33:
 1770              	.LBE28:
 1771              		.loc 6 72 1
 1772 0911 E9840200 		jmp	.L75
 1772      00
 1773              	.L90:
 1774 0916 F30F1EFA 		endbr64
 1775              	.LBB29:
 1776 091a 4989C4   		movq	%rax, %r12
 1777 091d 4889D3   		movq	%rdx, %rbx
 1778 0920 488D8570 		leaq	-2192(%rbp), %rax
 1778      F7FFFF
 1779 0927 4889C7   		movq	%rax, %rdi
 1780 092a E845FFFF 		call	_ZN12_GLOBAL__N_152TestRunnerFixtureTestFinishIsReportedCorrectlyHelperD1Ev
 1780      FF
 1781 092f 4C89E0   		movq	%r12, %rax
 1782 0932 4889DA   		movq	%rbx, %rdx
 1783 0935 EB04     		jmp	.L77
 1784              	.L89:
 1785 0937 F30F1EFA 		endbr64
 1786              	.L77:
 1787              	.LBE29:
 1788 093b 4883FA01 		cmpq	$1, %rdx
 1789 093f 740F     		je	.L78
 1790 0941 4883FA02 		cmpq	$2, %rdx
 1791 0945 0F84A700 		je	.L79
 1791      0000
 1792 094b E94D0100 		jmp	.L95
 1792      00
 1793              	.L78:
 1794              	.LBB30:
 1795              		.loc 6 72 1 discriminator 4
 1796 0950 4889C7   		movq	%rax, %rdi
 1797 0953 E8000000 		call	__cxa_begin_catch@PLT
 1797      00
 1798 0958 48898548 		movq	%rax, -2232(%rbp)
 1798      F7FFFF
 1799              	.LEHB34:
 1800 095f E8000000 		call	_ZN8UnitTest11CurrentTest7ResultsEv@PLT
 1800      00
 1801 0964 488B18   		movq	(%rax), %rbx
 1802 0967 488B8548 		movq	-2232(%rbp), %rax
 1802      F7FFFF
 1803 096e 488B00   		movq	(%rax), %rax
 1804 0971 4883C010 		addq	$16, %rax
 1805 0975 488B10   		movq	(%rax), %rdx
 1806 0978 488B8548 		movq	-2232(%rbp), %rax
 1806      F7FFFF
 1807 097f 4889C7   		movq	%rax, %rdi
 1808 0982 FFD2     		call	*%rdx
 1809              	.LVL2:
 1810 0984 4989C4   		movq	%rax, %r12
 1811 0987 488B8548 		movq	-2232(%rbp), %rax
 1811      F7FFFF
 1812 098e 4889C7   		movq	%rax, %rdi
 1813 0991 E8000000 		call	_ZNK8UnitTest15AssertException10LineNumberEv@PLT
 1813      00
 1814              		.loc 6 72 1 discriminator 8
 1815 0996 4189C5   		movl	%eax, %r13d
 1816 0999 488B8548 		movq	-2232(%rbp), %rax
 1816      F7FFFF
 1817 09a0 4889C7   		movq	%rax, %rdi
 1818 09a3 E8000000 		call	_ZNK8UnitTest15AssertException8FilenameEv@PLT
 1818      00
 1819              		.loc 6 72 1 discriminator 10
 1820 09a8 4889C1   		movq	%rax, %rcx
 1821 09ab 488B8528 		movq	-2264(%rbp), %rax
 1821      F7FFFF
 1822 09b2 488B5008 		movq	8(%rax), %rdx
 1823 09b6 488B8528 		movq	-2264(%rbp), %rax
 1823      F7FFFF
 1824 09bd 488B7010 		movq	16(%rax), %rsi
 1825 09c1 488D8550 		leaq	-2224(%rbp), %rax
 1825      F7FFFF
 1826 09c8 4589E8   		movl	%r13d, %r8d
 1827 09cb 4889C7   		movq	%rax, %rdi
 1828 09ce E8000000 		call	_ZN8UnitTest11TestDetailsC1EPKcS2_S2_i@PLT
 1828      00
 1829              		.loc 6 72 1 discriminator 14
 1830 09d3 488D8550 		leaq	-2224(%rbp), %rax
 1830      F7FFFF
 1831 09da 4C89E2   		movq	%r12, %rdx
 1832 09dd 4889C6   		movq	%rax, %rsi
 1833 09e0 4889DF   		movq	%rbx, %rdi
 1834 09e3 E8000000 		call	_ZN8UnitTest11TestResults13OnTestFailureERKNS_11TestDetailsEPKc@PLT
 1834      00
 1835              	.LEHE34:
 1836              		.loc 6 72 1 discriminator 16
 1837 09e8 E8000000 		call	__cxa_end_catch@PLT
 1837      00
 1838              	.LBE30:
 1839 09ed E9A80100 		jmp	.L75
 1839      00
 1840              	.L79:
 1841              	.LBB31:
 1842              		.loc 6 72 1 discriminator 5
 1843 09f2 4889C7   		movq	%rax, %rdi
 1844 09f5 E8000000 		call	__cxa_begin_catch@PLT
 1844      00
 1845 09fa 48898540 		movq	%rax, -2240(%rbp)
 1845      F7FFFF
 1846              	.LBB32:
 1847 0a01 488D8570 		leaq	-2192(%rbp), %rax
 1847      F7FFFF
 1848 0a08 4889C7   		movq	%rax, %rdi
 1849              	.LEHB35:
 1850 0a0b E8000000 		call	_ZN8UnitTest15MemoryOutStreamC1Ev
 1850      00
 1851              	.LEHE35:
 1852              		.loc 6 72 1 discriminator 18
 1853 0a10 488D8570 		leaq	-2192(%rbp), %rax
 1853      F7FFFF
 1854 0a17 488D1500 		leaq	.LC8(%rip), %rdx
 1854      000000
 1855 0a1e 4889D6   		movq	%rdx, %rsi
 1856 0a21 4889C7   		movq	%rax, %rdi
 1857              	.LEHB36:
 1858 0a24 E8000000 		call	_ZStlsISt11char_traitsIcEERSt13basic_ostreamIcT_ES5_PKc@PLT
 1858      00
 1859 0a29 4889C3   		movq	%rax, %rbx
 1860 0a2c 488B8540 		movq	-2240(%rbp), %rax
 1860      F7FFFF
 1861 0a33 488B00   		movq	(%rax), %rax
 1862 0a36 4883C010 		addq	$16, %rax
 1863 0a3a 488B10   		movq	(%rax), %rdx
 1864 0a3d 488B8540 		movq	-2240(%rbp), %rax
 1864      F7FFFF
 1865 0a44 4889C7   		movq	%rax, %rdi
 1866 0a47 FFD2     		call	*%rdx
 1867              	.LVL3:
 1868 0a49 4889C6   		movq	%rax, %rsi
 1869 0a4c 4889DF   		movq	%rbx, %rdi
 1870 0a4f E8000000 		call	_ZStlsISt11char_traitsIcEERSt13basic_ostreamIcT_ES5_PKc@PLT
 1870      00
 1871              		.loc 6 72 1 discriminator 22
 1872 0a54 E8000000 		call	_ZN8UnitTest11CurrentTest7ResultsEv@PLT
 1872      00
 1873 0a59 488B18   		movq	(%rax), %rbx
 1874 0a5c 488D8570 		leaq	-2192(%rbp), %rax
 1874      F7FFFF
 1875 0a63 4889C7   		movq	%rax, %rdi
 1876 0a66 E8000000 		call	_ZNK8UnitTest15MemoryOutStream7GetTextEv@PLT
 1876      00
 1877              		.loc 6 72 1 discriminator 24
 1878 0a6b 4889C2   		movq	%rax, %rdx
 1879 0a6e 488B8528 		movq	-2264(%rbp), %rax
 1879      F7FFFF
 1880 0a75 4883C008 		addq	$8, %rax
 1881 0a79 4889C6   		movq	%rax, %rsi
 1882 0a7c 4889DF   		movq	%rbx, %rdi
 1883 0a7f E8000000 		call	_ZN8UnitTest11TestResults13OnTestFailureERKNS_11TestDetailsEPKc@PLT
 1883      00
 1884              	.LEHE36:
 1885              		.loc 6 72 1 discriminator 28
 1886 0a84 488D8570 		leaq	-2192(%rbp), %rax
 1886      F7FFFF
 1887 0a8b 4889C7   		movq	%rax, %rdi
 1888              	.LEHB37:
 1889 0a8e E8000000 		call	_ZN8UnitTest15MemoryOutStreamD1Ev
 1889      00
 1890              	.LEHE37:
 1891              	.LBE32:
 1892              		.loc 6 72 1 discriminator 29
 1893 0a93 E8000000 		call	__cxa_end_catch@PLT
 1893      00
 1894              	.LBE31:
 1895 0a98 E9FD0000 		jmp	.L75
 1895      00
 1896              	.L95:
 1897              		.loc 6 72 1 discriminator 6
 1898 0a9d 4889C7   		movq	%rax, %rdi
 1899 0aa0 E8000000 		call	__cxa_begin_catch@PLT
 1899      00
 1900 0aa5 80BD3FF7 		cmpb	$0, -2241(%rbp)
 1900      FFFF00
 1901 0aac 7445     		je	.L82
 1902              	.LEHB38:
 1903              		.loc 6 72 1 discriminator 31
 1904 0aae E8000000 		call	_ZN8UnitTest11CurrentTest7ResultsEv@PLT
 1904      00
 1905 0ab3 488B18   		movq	(%rax), %rbx
 1906 0ab6 488B8528 		movq	-2264(%rbp), %rax
 1906      F7FFFF
 1907 0abd 488D4808 		leaq	8(%rax), %rcx
 1908 0ac1 488D8550 		leaq	-2224(%rbp), %rax
 1908      F7FFFF
 1909 0ac8 BA480000 		movl	$72, %edx
 1909      00
 1910 0acd 4889CE   		movq	%rcx, %rsi
 1911 0ad0 4889C7   		movq	%rax, %rdi
 1912 0ad3 E8000000 		call	_ZN8UnitTest11TestDetailsC1ERKS0_i@PLT
 1912      00
 1913              		.loc 6 72 1 discriminator 36
 1914 0ad8 488D8550 		leaq	-2224(%rbp), %rax
 1914      F7FFFF
 1915 0adf 488D1500 		leaq	.LC9(%rip), %rdx
 1915      000000
 1916 0ae6 4889C6   		movq	%rax, %rsi
 1917 0ae9 4889DF   		movq	%rbx, %rdi
 1918 0aec E8000000 		call	_ZN8UnitTest11TestResults13OnTestFailureERKNS_11TestDetailsEPKc@PLT
 1918      00
 1919 0af1 EB43     		jmp	.L83
 1920              	.L82:
 1921              		.loc 6 72 1 discriminator 32
 1922 0af3 E8000000 		call	_ZN8UnitTest11CurrentTest7ResultsEv@PLT
 1922      00
 1923 0af8 488B18   		movq	(%rax), %rbx
 1924 0afb 488B8528 		movq	-2264(%rbp), %rax
 1924      F7FFFF
 1925 0b02 488D4808 		leaq	8(%rax), %rcx
 1926 0b06 488D8550 		leaq	-2224(%rbp), %rax
 1926      F7FFFF
 1927 0b0d BA480000 		movl	$72, %edx
 1927      00
 1928 0b12 4889CE   		movq	%rcx, %rsi
 1929 0b15 4889C7   		movq	%rax, %rdi
 1930 0b18 E8000000 		call	_ZN8UnitTest11TestDetailsC1ERKS0_i@PLT
 1930      00
 1931              		.loc 6 72 1 discriminator 43
 1932 0b1d 488D8550 		leaq	-2224(%rbp), %rax
 1932      F7FFFF
 1933 0b24 488D1500 		leaq	.LC10(%rip), %rdx
 1933      000000
 1934 0b2b 4889C6   		movq	%rax, %rsi
 1935 0b2e 4889DF   		movq	%rbx, %rdi
 1936 0b31 E8000000 		call	_ZN8UnitTest11TestResults13OnTestFailureERKNS_11TestDetailsEPKc@PLT
 1936      00
 1937              	.LEHE38:
 1938              	.L83:
 1939              	.LEHB39:
 1940              		.loc 6 72 1 discriminator 46
 1941 0b36 E8000000 		call	__cxa_end_catch@PLT
 1941      00
 1942 0b3b EB5D     		jmp	.L75
 1943              	.L91:
 1944 0b3d F30F1EFA 		endbr64
 1945              	.LBB34:
 1946              		.loc 6 72 1
 1947 0b41 4889C3   		movq	%rax, %rbx
 1948 0b44 E8000000 		call	__cxa_end_catch@PLT
 1948      00
 1949 0b49 4889D8   		movq	%rbx, %rax
 1950 0b4c 4889C7   		movq	%rax, %rdi
 1951 0b4f E8000000 		call	_Unwind_Resume@PLT
 1951      00
 1952              	.LEHE39:
 1953              	.L93:
 1954 0b54 F30F1EFA 		endbr64
 1955              	.LBE34:
 1956              	.LBB35:
 1957              	.LBB33:
 1958 0b58 4889C3   		movq	%rax, %rbx
 1959 0b5b 488D8570 		leaq	-2192(%rbp), %rax
 1959      F7FFFF
 1960 0b62 4889C7   		movq	%rax, %rdi
 1961 0b65 E8000000 		call	_ZN8UnitTest15MemoryOutStreamD1Ev
 1961      00
 1962 0b6a EB07     		jmp	.L86
 1963              	.L92:
 1964 0b6c F30F1EFA 		endbr64
 1965              	.LBE33:
 1966 0b70 4889C3   		movq	%rax, %rbx
 1967              	.L86:
 1968 0b73 E8000000 		call	__cxa_end_catch@PLT
 1968      00
 1969 0b78 4889D8   		movq	%rbx, %rax
 1970 0b7b 4889C7   		movq	%rax, %rdi
 1971              	.LEHB40:
 1972 0b7e E8000000 		call	_Unwind_Resume@PLT
 1972      00
 1973              	.LEHE40:
 1974              	.L94:
 1975 0b83 F30F1EFA 		endbr64
 1976              	.LBE35:
 1977 0b87 4889C3   		movq	%rax, %rbx
 1978 0b8a E8000000 		call	__cxa_end_catch@PLT
 1978      00
 1979 0b8f 4889D8   		movq	%rbx, %rax
 1980 0b92 4889C7   		movq	%rax, %rdi
 1981              	.LEHB41:
 1982 0b95 E8000000 		call	_Unwind_Resume@PLT
 1982      00
 1983              	.LEHE41:
 1984              	.L75:
 1985 0b9a 488B45D8 		movq	-40(%rbp), %rax
 1986 0b9e 64482B04 		subq	%fs:40, %rax
 1986      25280000 
 1986      00
 1987 0ba7 7405     		je	.L88
 1988 0ba9 E8000000 		call	__stack_chk_fail@PLT
 1988      00
 1989              	.L88:
 1990 0bae 4881C4C8 		addq	$2248, %rsp
 1990      080000
 1991 0bb5 5B       		popq	%rbx
 1992 0bb6 415C     		popq	%r12
 1993 0bb8 415D     		popq	%r13
 1994 0bba 5D       		popq	%rbp
 1995              		.cfi_def_cfa 7, 8
 1996 0bbb C3       		ret
 1997              		.cfi_endproc
 1998              	.LFE1185:
 1999              		.section	.gcc_except_table
 2000              		.align 4
 2001              	.LLSDA1185:
 2002 00bc FF       		.byte	0xff
 2003 00bd 9B       		.byte	0x9b
 2004 00be 55       		.uleb128 .LLSDATT1185-.LLSDATTD1185
 2005              	.LLSDATTD1185:
 2006 00bf 01       		.byte	0x1
 2007 00c0 3E       		.uleb128 .LLSDACSE1185-.LLSDACSB1185
 2008              	.LLSDACSB1185:
 2009 00c1 49       		.uleb128 .LEHB31-.LFB1185
 2010 00c2 05       		.uleb128 .LEHE31-.LEHB31
 2011 00c3 A701     		.uleb128 .L89-.LFB1185
 2012 00c5 05       		.uleb128 0x5
 2013 00c6 6D       		.uleb128 .LEHB32-.LFB1185
 2014 00c7 05       		.uleb128 .LEHE32-.LEHB32
 2015 00c8 8601     		.uleb128 .L90-.LFB1185
 2016 00ca 07       		.uleb128 0x7
 2017 00cb 7C       		.uleb128 .LEHB33-.LFB1185
 2018 00cc 05       		.uleb128 .LEHE33-.LEHB33
 2019 00cd A701     		.uleb128 .L89-.LFB1185
 2020 00cf 05       		.uleb128 0x5
 2021 00d0 CF01     		.uleb128 .LEHB34-.LFB1185
 2022 00d2 8901     		.uleb128 .LEHE34-.LEHB34
 2023 00d4 AD05     		.uleb128 .L91-.LFB1185
 2024 00d6 00       		.uleb128 0
 2025 00d7 FB02     		.uleb128 .LEHB35-.LFB1185
 2026 00d9 05       		.uleb128 .LEHE35-.LEHB35
 2027 00da DC05     		.uleb128 .L92-.LFB1185
 2028 00dc 00       		.uleb128 0
 2029 00dd 9403     		.uleb128 .LEHB36-.LFB1185
 2030 00df 60       		.uleb128 .LEHE36-.LEHB36
 2031 00e0 C405     		.uleb128 .L93-.LFB1185
 2032 00e2 00       		.uleb128 0
 2033 00e3 FE03     		.uleb128 .LEHB37-.LFB1185
 2034 00e5 05       		.uleb128 .LEHE37-.LEHB37
 2035 00e6 DC05     		.uleb128 .L92-.LFB1185
 2036 00e8 00       		.uleb128 0
 2037 00e9 9E04     		.uleb128 .LEHB38-.LFB1185
 2038 00eb 8801     		.uleb128 .LEHE38-.LEHB38
 2039 00ed F305     		.uleb128 .L94-.LFB1185
 2040 00ef 00       		.uleb128 0
 2041 00f0 A605     		.uleb128 .LEHB39-.LFB1185
 2042 00f2 1E       		.uleb128 .LEHE39-.LEHB39
 2043 00f3 00       		.uleb128 0
 2044 00f4 00       		.uleb128 0
 2045 00f5 EE05     		.uleb128 .LEHB40-.LFB1185
 2046 00f7 05       		.uleb128 .LEHE40-.LEHB40
 2047 00f8 00       		.uleb128 0
 2048 00f9 00       		.uleb128 0
 2049 00fa 8506     		.uleb128 .LEHB41-.LFB1185
 2050 00fc 05       		.uleb128 .LEHE41-.LEHB41
 2051 00fd 00       		.uleb128 0
 2052 00fe 00       		.uleb128 0
 2053              	.LLSDACSE1185:
 2054 00ff 03       		.byte	0x3
 2055 0100 00       		.byte	0
 2056 0101 02       		.byte	0x2
 2057 0102 7D       		.byte	0x7d
 2058 0103 01       		.byte	0x1
 2059 0104 7D       		.byte	0x7d
 2060 0105 00       		.byte	0
 2061 0106 7D       		.byte	0x7d
 2062 0107 00       		.align 4
 2063 0108 00000000 		.long	0
 2064              	
 2065 010c 00000000 		.long	DW.ref._ZTISt9exception-.
 2066 0110 00000000 		.long	DW.ref._ZTIN8UnitTest15AssertExceptionE-.
 2067              	.LLSDATT1185:
 2068              		.text
 2070              		.section	.rodata
 2071 019f 00       		.align 8
 2072              	.LC15:
 2073 01a0 556E6861 		.string	"Unhandled exception in CHECK_EQUAL(1, reporter.testFinishedCount)"
 2073      6E646C65 
 2073      64206578 
 2073      63657074 
 2073      696F6E20 
 2074 01e2 00000000 		.align 8
 2074      0000
 2075              	.LC16:
 2076 01e8 556E6861 		.string	"Unhandled exception in CHECK_EQUAL(\"goodtest\", reporter.lastFinishedTest)"
 2076      6E646C65 
 2076      64206578 
 2076      63657074 
 2076      696F6E20 
 2077              		.text
 2078              		.align 2
 2080              	_ZN12_GLOBAL__N_152TestRunnerFixtureTestFinishIsReportedCorrectlyHelper7RunImplEv:
 2081              	.LFB1189:
  73:TestTestRunner.cpp **** {
 2082              		.loc 6 73 1 is_stmt 1
 2083              		.cfi_startproc
 2084              		.cfi_personality 0x9b,DW.ref.__gxx_personality_v0
 2085              		.cfi_lsda 0x1b,.LLSDA1189
 2086 0bbc F30F1EFA 		endbr64
 2087 0bc0 55       		pushq	%rbp
 2088              		.cfi_def_cfa_offset 16
 2089              		.cfi_offset 6, -16
 2090 0bc1 4889E5   		movq	%rsp, %rbp
 2091              		.cfi_def_cfa_register 6
 2092 0bc4 53       		pushq	%rbx
 2093 0bc5 4881EC88 		subq	$136, %rsp
 2093      000000
 2094              		.cfi_offset 3, -24
 2095 0bcc 4889BD78 		movq	%rdi, -136(%rbp)
 2095      FFFFFF
 2096              		.loc 6 73 1
 2097 0bd3 64488B04 		movq	%fs:40, %rax
 2097      25280000 
 2097      00
 2098 0bdc 488945E8 		movq	%rax, -24(%rbp)
 2099 0be0 31C0     		xorl	%eax, %eax
  74:TestTestRunner.cpp ****     MockTest test("goodtest", true, false);
 2100              		.loc 6 74 42
 2101 0be2 488D45B0 		leaq	-80(%rbp), %rax
 2102 0be6 41B80100 		movl	$1, %r8d
 2102      0000
 2103 0bec B9000000 		movl	$0, %ecx
 2103      00
 2104 0bf1 BA010000 		movl	$1, %edx
 2104      00
 2105 0bf6 488D3500 		leaq	.LC11(%rip), %rsi
 2105      000000
 2106 0bfd 4889C7   		movq	%rax, %rdi
 2107              	.LEHB42:
 2108 0c00 E8FBF3FF 		call	_ZN12_GLOBAL__N_18MockTestC1EPKcbbi
 2108      FF
 2109              	.LEHE42:
  75:TestTestRunner.cpp ****     list.Add(&test);
 2110              		.loc 6 75 13
 2111 0c05 488B8578 		movq	-136(%rbp), %rax
 2111      FFFFFF
 2112 0c0c 488D9048 		leaq	2120(%rax), %rdx
 2112      080000
 2113 0c13 488D45B0 		leaq	-80(%rbp), %rax
 2114 0c17 4889C6   		movq	%rax, %rsi
 2115 0c1a 4889D7   		movq	%rdx, %rdi
 2116              	.LEHB43:
 2117 0c1d E8000000 		call	_ZN8UnitTest8TestList3AddEPNS_4TestE@PLT
 2117      00
  76:TestTestRunner.cpp **** 
  77:TestTestRunner.cpp **** 	RunTestsIf(list, NULL, True(), 0);
 2118              		.loc 6 77 12
 2119 0c22 488B8578 		movq	-136(%rbp), %rax
 2119      FFFFFF
 2120              		.loc 6 77 13
 2121 0c29 488B9578 		movq	-136(%rbp), %rdx
 2121      FFFFFF
 2122 0c30 488DB248 		leaq	2120(%rdx), %rsi
 2122      080000
 2123              		.loc 6 77 12
 2124 0c37 488D5590 		leaq	-112(%rbp), %rdx
 2125 0c3b 41B80000 		movl	$0, %r8d
 2125      0000
 2126 0c41 4889D1   		movq	%rdx, %rcx
 2127 0c44 BA000000 		movl	$0, %edx
 2127      00
 2128 0c49 4889C7   		movq	%rax, %rdi
 2129 0c4c E8AB6600 		call	_ZN12_GLOBAL__N_111FixtureBase10RunTestsIfIN8UnitTest4TrueEEEiRKNS2_8TestListEPKcRKT_i
 2129      00
 2130              	.LEHE43:
 2131              	.LEHB44:
  78:TestTestRunner.cpp ****     CHECK_EQUAL(1, reporter.testFinishedCount);
 2132              		.loc 6 78 5 discriminator 2
 2133 0c51 E8000000 		call	_ZN8UnitTest11CurrentTest7DetailsEv@PLT
 2133      00
 2134 0c56 488B08   		movq	(%rax), %rcx
 2135 0c59 488D4590 		leaq	-112(%rbp), %rax
 2136 0c5d BA4E0000 		movl	$78, %edx
 2136      00
 2137 0c62 4889CE   		movq	%rcx, %rsi
 2138 0c65 4889C7   		movq	%rax, %rdi
 2139 0c68 E8000000 		call	_ZN8UnitTest11TestDetailsC1ERKS0_i@PLT
 2139      00
 2140              		.loc 6 78 5 is_stmt 0 discriminator 4
 2141 0c6d 488B8578 		movq	-136(%rbp), %rax
 2141      FFFFFF
 2142 0c74 488D982C 		leaq	1580(%rax), %rbx
 2142      060000
 2143 0c7b C7458C01 		movl	$1, -116(%rbp)
 2143      000000
 2144 0c82 E8000000 		call	_ZN8UnitTest11CurrentTest7ResultsEv@PLT
 2144      00
 2145 0c87 488B00   		movq	(%rax), %rax
 2146 0c8a 488D5590 		leaq	-112(%rbp), %rdx
 2147 0c8e 488D758C 		leaq	-116(%rbp), %rsi
 2148 0c92 4889D1   		movq	%rdx, %rcx
 2149 0c95 4889DA   		movq	%rbx, %rdx
 2150 0c98 4889C7   		movq	%rax, %rdi
 2151 0c9b E8000000 		call	_ZN8UnitTest10CheckEqualIiiEEvRNS_11TestResultsERKT_RKT0_RKNS_11TestDetailsE
 2151      00
 2152              	.LEHE44:
 2153              	.L98:
 2154              	.LEHB45:
  79:TestTestRunner.cpp ****     CHECK_EQUAL("goodtest", reporter.lastFinishedTest);
 2155              		.loc 6 79 5 is_stmt 1
 2156 0ca0 E8000000 		call	_ZN8UnitTest11CurrentTest7DetailsEv@PLT
 2156      00
 2157 0ca5 488B08   		movq	(%rax), %rcx
 2158 0ca8 488D4590 		leaq	-112(%rbp), %rax
 2159 0cac BA4F0000 		movl	$79, %edx
 2159      00
 2160 0cb1 4889CE   		movq	%rcx, %rsi
 2161 0cb4 4889C7   		movq	%rax, %rdi
 2162 0cb7 E8000000 		call	_ZN8UnitTest11TestDetailsC1ERKS0_i@PLT
 2162      00
 2163              		.loc 6 79 5 is_stmt 0 discriminator 4
 2164 0cbc 488B8578 		movq	-136(%rbp), %rax
 2164      FFFFFF
 2165 0cc3 488D9830 		leaq	1840(%rax), %rbx
 2165      070000
 2166 0cca E8000000 		call	_ZN8UnitTest11CurrentTest7ResultsEv@PLT
 2166      00
 2167 0ccf 488B00   		movq	(%rax), %rax
 2168 0cd2 488D5590 		leaq	-112(%rbp), %rdx
 2169 0cd6 4889D1   		movq	%rdx, %rcx
 2170 0cd9 4889DA   		movq	%rbx, %rdx
 2171 0cdc 488D3500 		leaq	.LC11(%rip), %rsi
 2171      000000
 2172 0ce3 4889C7   		movq	%rax, %rdi
 2173 0ce6 E8000000 		call	_ZN8UnitTest10CheckEqualERNS_11TestResultsEPKcPcRKNS_11TestDetailsE@PLT
 2173      00
 2174              	.LEHE45:
 2175              	.L102:
  80:TestTestRunner.cpp **** }
 2176              		.loc 6 80 1 is_stmt 1
 2177 0ceb 488D45B0 		leaq	-80(%rbp), %rax
 2178 0cef 4889C7   		movq	%rax, %rdi
 2179              	.LEHB46:
 2180 0cf2 E85FA000 		call	_ZN12_GLOBAL__N_18MockTestD1Ev
 2180      00
 2181              	.LEHE46:
 2182 0cf7 488B45E8 		movq	-24(%rbp), %rax
 2183 0cfb 64482B04 		subq	%fs:40, %rax
 2183      25280000 
 2183      00
 2184 0d04 0F84E400 		je	.L104
 2184      0000
 2185 0d0a E9DA0000 		jmp	.L110
 2185      00
 2186              	.L106:
 2187 0d0f F30F1EFA 		endbr64
  78:TestTestRunner.cpp ****     CHECK_EQUAL(1, reporter.testFinishedCount);
 2188              		.loc 6 78 5
 2189 0d13 4889C7   		movq	%rax, %rdi
 2190 0d16 E8000000 		call	__cxa_begin_catch@PLT
 2190      00
 2191              	.LEHB47:
 2192 0d1b E8000000 		call	_ZN8UnitTest11CurrentTest7ResultsEv@PLT
 2192      00
  78:TestTestRunner.cpp ****     CHECK_EQUAL(1, reporter.testFinishedCount);
 2193              		.loc 6 78 5 is_stmt 0 discriminator 3
 2194 0d20 488B18   		movq	(%rax), %rbx
 2195 0d23 E8000000 		call	_ZN8UnitTest11CurrentTest7DetailsEv@PLT
 2195      00
  78:TestTestRunner.cpp ****     CHECK_EQUAL(1, reporter.testFinishedCount);
 2196              		.loc 6 78 5 discriminator 11
 2197 0d28 488B08   		movq	(%rax), %rcx
 2198 0d2b 488D4590 		leaq	-112(%rbp), %rax
 2199 0d2f BA4E0000 		movl	$78, %edx
 2199      00
 2200 0d34 4889CE   		movq	%rcx, %rsi
 2201 0d37 4889C7   		movq	%rax, %rdi
 2202 0d3a E8000000 		call	_ZN8UnitTest11TestDetailsC1ERKS0_i@PLT
 2202      00
  78:TestTestRunner.cpp ****     CHECK_EQUAL(1, reporter.testFinishedCount);
 2203              		.loc 6 78 5 discriminator 15
 2204 0d3f 488D4590 		leaq	-112(%rbp), %rax
 2205 0d43 488D1500 		leaq	.LC15(%rip), %rdx
 2205      000000
 2206 0d4a 4889C6   		movq	%rax, %rsi
 2207 0d4d 4889DF   		movq	%rbx, %rdi
 2208 0d50 E8000000 		call	_ZN8UnitTest11TestResults13OnTestFailureERKNS_11TestDetailsEPKc@PLT
 2208      00
 2209              	.LEHE47:
 2210              	.LEHB48:
  78:TestTestRunner.cpp ****     CHECK_EQUAL(1, reporter.testFinishedCount);
 2211              		.loc 6 78 5 discriminator 17
 2212 0d55 E8000000 		call	__cxa_end_catch@PLT
 2212      00
 2213              	.LEHE48:
  78:TestTestRunner.cpp ****     CHECK_EQUAL(1, reporter.testFinishedCount);
 2214              		.loc 6 78 5
 2215 0d5a E941FFFF 		jmp	.L98
 2215      FF
 2216              	.L107:
 2217 0d5f F30F1EFA 		endbr64
 2218 0d63 4889C3   		movq	%rax, %rbx
 2219 0d66 E8000000 		call	__cxa_end_catch@PLT
 2219      00
 2220 0d6b EB65     		jmp	.L100
 2221              	.L108:
 2222 0d6d F30F1EFA 		endbr64
  79:TestTestRunner.cpp ****     CHECK_EQUAL("goodtest", reporter.lastFinishedTest);
 2223              		.loc 6 79 5 is_stmt 1
 2224 0d71 4889C7   		movq	%rax, %rdi
 2225 0d74 E8000000 		call	__cxa_begin_catch@PLT
 2225      00
 2226              	.LEHB49:
 2227 0d79 E8000000 		call	_ZN8UnitTest11CurrentTest7ResultsEv@PLT
 2227      00
  79:TestTestRunner.cpp ****     CHECK_EQUAL("goodtest", reporter.lastFinishedTest);
 2228              		.loc 6 79 5 is_stmt 0 discriminator 3
 2229 0d7e 488B18   		movq	(%rax), %rbx
 2230 0d81 E8000000 		call	_ZN8UnitTest11CurrentTest7DetailsEv@PLT
 2230      00
  79:TestTestRunner.cpp ****     CHECK_EQUAL("goodtest", reporter.lastFinishedTest);
 2231              		.loc 6 79 5 discriminator 11
 2232 0d86 488B08   		movq	(%rax), %rcx
 2233 0d89 488D4590 		leaq	-112(%rbp), %rax
 2234 0d8d BA4F0000 		movl	$79, %edx
 2234      00
 2235 0d92 4889CE   		movq	%rcx, %rsi
 2236 0d95 4889C7   		movq	%rax, %rdi
 2237 0d98 E8000000 		call	_ZN8UnitTest11TestDetailsC1ERKS0_i@PLT
 2237      00
  79:TestTestRunner.cpp ****     CHECK_EQUAL("goodtest", reporter.lastFinishedTest);
 2238              		.loc 6 79 5 discriminator 15
 2239 0d9d 488D4590 		leaq	-112(%rbp), %rax
 2240 0da1 488D1500 		leaq	.LC16(%rip), %rdx
 2240      000000
 2241 0da8 4889C6   		movq	%rax, %rsi
 2242 0dab 4889DF   		movq	%rbx, %rdi
 2243 0dae E8000000 		call	_ZN8UnitTest11TestResults13OnTestFailureERKNS_11TestDetailsEPKc@PLT
 2243      00
 2244              	.LEHE49:
 2245              	.LEHB50:
  79:TestTestRunner.cpp ****     CHECK_EQUAL("goodtest", reporter.lastFinishedTest);
 2246              		.loc 6 79 5 discriminator 17
 2247 0db3 E8000000 		call	__cxa_end_catch@PLT
 2247      00
 2248              	.LEHE50:
  79:TestTestRunner.cpp ****     CHECK_EQUAL("goodtest", reporter.lastFinishedTest);
 2249              		.loc 6 79 5
 2250 0db8 E92EFFFF 		jmp	.L102
 2250      FF
 2251              	.L109:
 2252 0dbd F30F1EFA 		endbr64
 2253 0dc1 4889C3   		movq	%rax, %rbx
 2254 0dc4 E8000000 		call	__cxa_end_catch@PLT
 2254      00
 2255 0dc9 EB07     		jmp	.L100
 2256              	.L105:
 2257 0dcb F30F1EFA 		endbr64
 2258              		.loc 6 80 1 is_stmt 1
 2259 0dcf 4889C3   		movq	%rax, %rbx
 2260              	.L100:
 2261 0dd2 488D45B0 		leaq	-80(%rbp), %rax
 2262 0dd6 4889C7   		movq	%rax, %rdi
 2263 0dd9 E8789F00 		call	_ZN12_GLOBAL__N_18MockTestD1Ev
 2263      00
 2264 0dde 4889D8   		movq	%rbx, %rax
 2265 0de1 4889C7   		movq	%rax, %rdi
 2266              	.LEHB51:
 2267 0de4 E8000000 		call	_Unwind_Resume@PLT
 2267      00
 2268              	.LEHE51:
 2269              	.L110:
 2270 0de9 E8000000 		call	__stack_chk_fail@PLT
 2270      00
 2271              	.L104:
 2272 0dee 488B5DF8 		movq	-8(%rbp), %rbx
 2273 0df2 C9       		leave
 2274              		.cfi_def_cfa 7, 8
 2275 0df3 C3       		ret
 2276              		.cfi_endproc
 2277              	.LFE1189:
 2278              		.section	.gcc_except_table
 2279              		.align 4
 2280              	.LLSDA1189:
 2281 0114 FF       		.byte	0xff
 2282 0115 9B       		.byte	0x9b
 2283 0116 41       		.uleb128 .LLSDATT1189-.LLSDATTD1189
 2284              	.LLSDATTD1189:
 2285 0117 01       		.byte	0x1
 2286 0118 37       		.uleb128 .LLSDACSE1189-.LLSDACSB1189
 2287              	.LLSDACSB1189:
 2288 0119 44       		.uleb128 .LEHB42-.LFB1189
 2289 011a 05       		.uleb128 .LEHE42-.LEHB42
 2290 011b 00       		.uleb128 0
 2291 011c 00       		.uleb128 0
 2292 011d 61       		.uleb128 .LEHB43-.LFB1189
 2293 011e 34       		.uleb128 .LEHE43-.LEHB43
 2294 011f 8F04     		.uleb128 .L105-.LFB1189
 2295 0121 00       		.uleb128 0
 2296 0122 9501     		.uleb128 .LEHB44-.LFB1189
 2297 0124 4F       		.uleb128 .LEHE44-.LEHB44
 2298 0125 D302     		.uleb128 .L106-.LFB1189
 2299 0127 01       		.uleb128 0x1
 2300 0128 E401     		.uleb128 .LEHB45-.LFB1189
 2301 012a 4B       		.uleb128 .LEHE45-.LEHB45
 2302 012b B103     		.uleb128 .L108-.LFB1189
 2303 012d 01       		.uleb128 0x1
 2304 012e B602     		.uleb128 .LEHB46-.LFB1189
 2305 0130 05       		.uleb128 .LEHE46-.LEHB46
 2306 0131 00       		.uleb128 0
 2307 0132 00       		.uleb128 0
 2308 0133 DF02     		.uleb128 .LEHB47-.LFB1189
 2309 0135 3A       		.uleb128 .LEHE47-.LEHB47
 2310 0136 A303     		.uleb128 .L107-.LFB1189
 2311 0138 00       		.uleb128 0
 2312 0139 9903     		.uleb128 .LEHB48-.LFB1189
 2313 013b 05       		.uleb128 .LEHE48-.LEHB48
 2314 013c 8F04     		.uleb128 .L105-.LFB1189
 2315 013e 00       		.uleb128 0
 2316 013f BD03     		.uleb128 .LEHB49-.LFB1189
 2317 0141 3A       		.uleb128 .LEHE49-.LEHB49
 2318 0142 8104     		.uleb128 .L109-.LFB1189
 2319 0144 00       		.uleb128 0
 2320 0145 F703     		.uleb128 .LEHB50-.LFB1189
 2321 0147 05       		.uleb128 .LEHE50-.LEHB50
 2322 0148 8F04     		.uleb128 .L105-.LFB1189
 2323 014a 00       		.uleb128 0
 2324 014b A804     		.uleb128 .LEHB51-.LFB1189
 2325 014d 05       		.uleb128 .LEHE51-.LEHB51
 2326 014e 00       		.uleb128 0
 2327 014f 00       		.uleb128 0
 2328              	.LLSDACSE1189:
 2329 0150 01       		.byte	0x1
 2330 0151 00       		.byte	0
 2331 0152 0000     		.align 4
 2332 0154 00000000 		.long	0
 2333              	
 2334              	.LLSDATT1189:
 2335              		.text
 2337              		.section	.rodata
 2338              	.LC17:
 2339 0232 66696C65 		.string	"filename"
 2339      6E616D65 
 2339      00
 2340              	.LC18:
 2341 023b 736F6D65 		.string	"somesuite"
 2341      73756974 
 2341      6500
 2342              	.LC19:
 2343 0245 736C6F77 		.string	"slow"
 2343      00
 2344              		.text
 2345              		.align 2
 2347              	_ZN12_GLOBAL__N_18SlowTestC2Ev:
 2348              	.LFB1191:
  81:TestTestRunner.cpp **** 
  82:TestTestRunner.cpp **** class SlowTest : public Test
  83:TestTestRunner.cpp **** {
  84:TestTestRunner.cpp **** public:
  85:TestTestRunner.cpp ****     SlowTest() : Test("slow", "somesuite", "filename", 123) {}
 2349              		.loc 6 85 5
 2350              		.cfi_startproc
 2351 0df4 55       		pushq	%rbp
 2352              		.cfi_def_cfa_offset 16
 2353              		.cfi_offset 6, -16
 2354 0df5 4889E5   		movq	%rsp, %rbp
 2355              		.cfi_def_cfa_register 6
 2356 0df8 4883EC10 		subq	$16, %rsp
 2357 0dfc 48897DF8 		movq	%rdi, -8(%rbp)
 2358              	.LBB36:
 2359              		.loc 6 85 59
 2360 0e00 488B45F8 		movq	-8(%rbp), %rax
 2361 0e04 41B87B00 		movl	$123, %r8d
 2361      0000
 2362 0e0a 488D1500 		leaq	.LC17(%rip), %rdx
 2362      000000
 2363 0e11 4889D1   		movq	%rdx, %rcx
 2364 0e14 488D1500 		leaq	.LC18(%rip), %rdx
 2364      000000
 2365 0e1b 488D3500 		leaq	.LC19(%rip), %rsi
 2365      000000
 2366 0e22 4889C7   		movq	%rax, %rdi
 2367 0e25 E8000000 		call	_ZN8UnitTest4TestC2EPKcS2_S2_i@PLT
 2367      00
 2368 0e2a 488D1500 		leaq	16+_ZTVN12_GLOBAL__N_18SlowTestE(%rip), %rdx
 2368      000000
 2369 0e31 488B45F8 		movq	-8(%rbp), %rax
 2370 0e35 488910   		movq	%rdx, (%rax)
 2371              	.LBE36:
 2372              		.loc 6 85 62
 2373 0e38 90       		nop
 2374 0e39 C9       		leave
 2375              		.cfi_def_cfa 7, 8
 2376 0e3a C3       		ret
 2377              		.cfi_endproc
 2378              	.LFE1191:
 2380              		.set	_ZN12_GLOBAL__N_18SlowTestC1Ev,_ZN12_GLOBAL__N_18SlowTestC2Ev
 2381 0e3b 90       		.align 2
 2383              	_ZNK12_GLOBAL__N_18SlowTest7RunImplEv:
 2384              	.LFB1193:
  86:TestTestRunner.cpp ****     virtual void RunImpl() const
 2385              		.loc 6 86 18
 2386              		.cfi_startproc
 2387 0e3c F30F1EFA 		endbr64
 2388 0e40 55       		pushq	%rbp
 2389              		.cfi_def_cfa_offset 16
 2390              		.cfi_offset 6, -16
 2391 0e41 4889E5   		movq	%rsp, %rbp
 2392              		.cfi_def_cfa_register 6
 2393 0e44 4883EC10 		subq	$16, %rsp
 2394 0e48 48897DF8 		movq	%rdi, -8(%rbp)
  87:TestTestRunner.cpp ****     {
  88:TestTestRunner.cpp ****         TimeHelpers::SleepMs(20);
 2395              		.loc 6 88 29
 2396 0e4c BF140000 		movl	$20, %edi
 2396      00
 2397 0e51 E8000000 		call	_ZN8UnitTest11TimeHelpers7SleepMsEi@PLT
 2397      00
  89:TestTestRunner.cpp ****     }
 2398              		.loc 6 89 5
 2399 0e56 90       		nop
 2400 0e57 C9       		leave
 2401              		.cfi_def_cfa 7, 8
 2402 0e58 C3       		ret
 2403              		.cfi_endproc
 2404              	.LFE1193:
 2406 0e59 90       		.align 2
 2408              	_ZN12_GLOBAL__N_156TestRunnerFixtureTestFinishIsCalledWithCorrectTimeHelperC2ERKN8UnitTest11TestDet
 2409              	.LFB1195:
  90:TestTestRunner.cpp **** };
  91:TestTestRunner.cpp **** 
  92:TestTestRunner.cpp **** TEST_FIXTURE(TestRunnerFixture, TestFinishIsCalledWithCorrectTime)
 2410              		.loc 6 92 1
 2411              		.cfi_startproc
 2412 0e5a 55       		pushq	%rbp
 2413              		.cfi_def_cfa_offset 16
 2414              		.cfi_offset 6, -16
 2415 0e5b 4889E5   		movq	%rsp, %rbp
 2416              		.cfi_def_cfa_register 6
 2417 0e5e 4883EC10 		subq	$16, %rsp
 2418 0e62 48897DF8 		movq	%rdi, -8(%rbp)
 2419 0e66 488975F0 		movq	%rsi, -16(%rbp)
 2420              	.LBB37:
 2421              		.loc 6 92 1
 2422 0e6a 488B45F8 		movq	-8(%rbp), %rax
 2423 0e6e 4889C7   		movq	%rax, %rdi
 2424 0e71 E816F3FF 		call	_ZN12_GLOBAL__N_117TestRunnerFixtureC2Ev
 2424      FF
 2425 0e76 488B45F8 		movq	-8(%rbp), %rax
 2426 0e7a 488B55F0 		movq	-16(%rbp), %rdx
 2427 0e7e 48899058 		movq	%rdx, 2136(%rax)
 2427      080000
 2428              	.LBE37:
 2429 0e85 90       		nop
 2430 0e86 C9       		leave
 2431              		.cfi_def_cfa 7, 8
 2432 0e87 C3       		ret
 2433              		.cfi_endproc
 2434              	.LFE1195:
 2436              		.set	_ZN12_GLOBAL__N_156TestRunnerFixtureTestFinishIsCalledWithCorrectTimeHelperC1ERKN8UnitTest11T
 2437              		.section	.rodata
 2438 024a 00000000 		.align 8
 2438      0000
 2439              	.LC20:
 2440 0250 54657374 		.string	"TestFinishIsCalledWithCorrectTime"
 2440      46696E69 
 2440      73684973 
 2440      43616C6C 
 2440      65645769 
 2441              		.text
 2442              		.align 2
 2444              	_ZN12_GLOBAL__N_154TestTestRunnerFixtureTestFinishIsCalledWithCorrectTimeC2Ev:
 2445              	.LFB1198:
 2446              		.loc 6 92 1
 2447              		.cfi_startproc
 2448 0e88 55       		pushq	%rbp
 2449              		.cfi_def_cfa_offset 16
 2450              		.cfi_offset 6, -16
 2451 0e89 4889E5   		movq	%rsp, %rbp
 2452              		.cfi_def_cfa_register 6
 2453 0e8c 53       		pushq	%rbx
 2454 0e8d 4883EC18 		subq	$24, %rsp
 2455              		.cfi_offset 3, -24
 2456 0e91 48897DE8 		movq	%rdi, -24(%rbp)
 2457              	.LBB38:
 2458              		.loc 6 92 1
 2459 0e95 488B5DE8 		movq	-24(%rbp), %rbx
 2460 0e99 E8000000 		call	_ZN13UnitTestSuite12GetSuiteNameEv
 2460      00
 2461 0e9e 4889C2   		movq	%rax, %rdx
 2462 0ea1 41B85C00 		movl	$92, %r8d
 2462      0000
 2463 0ea7 488D0500 		leaq	.LC6(%rip), %rax
 2463      000000
 2464 0eae 4889C1   		movq	%rax, %rcx
 2465 0eb1 488D0500 		leaq	.LC20(%rip), %rax
 2465      000000
 2466 0eb8 4889C6   		movq	%rax, %rsi
 2467 0ebb 4889DF   		movq	%rbx, %rdi
 2468 0ebe E8000000 		call	_ZN8UnitTest4TestC2EPKcS2_S2_i@PLT
 2468      00
 2469 0ec3 488D1500 		leaq	16+_ZTVN12_GLOBAL__N_154TestTestRunnerFixtureTestFinishIsCalledWithCorrectTimeE(%rip), %rdx
 2469      000000
 2470 0eca 488B45E8 		movq	-24(%rbp), %rax
 2471 0ece 488910   		movq	%rdx, (%rax)
 2472              	.LBE38:
 2473 0ed1 90       		nop
 2474 0ed2 488B5DF8 		movq	-8(%rbp), %rbx
 2475 0ed6 C9       		leave
 2476              		.cfi_def_cfa 7, 8
 2477 0ed7 C3       		ret
 2478              		.cfi_endproc
 2479              	.LFE1198:
 2481              		.set	_ZN12_GLOBAL__N_154TestTestRunnerFixtureTestFinishIsCalledWithCorrectTimeC1Ev,_ZN12_GLOBAL__N
 2482              		.local	_ZN12_GLOBAL__N_162testTestRunnerFixtureTestFinishIsCalledWithCorrectTimeInstanceE
 2483              		.comm	_ZN12_GLOBAL__N_162testTestRunnerFixtureTestFinishIsCalledWithCorrectTimeInstanceE,56,32
 2484              		.local	_ZN12_GLOBAL__N_155adderTestRunnerFixtureTestFinishIsCalledWithCorrectTimeE
 2485              		.comm	_ZN12_GLOBAL__N_155adderTestRunnerFixtureTestFinishIsCalledWithCorrectTimeE,1,1
 2486              		.align 2
 2488              	_ZN12_GLOBAL__N_156TestRunnerFixtureTestFinishIsCalledWithCorrectTimeHelperD2Ev:
 2489              	.LFB1202:
 2490              		.loc 6 92 1
 2491              		.cfi_startproc
 2492 0ed8 55       		pushq	%rbp
 2493              		.cfi_def_cfa_offset 16
 2494              		.cfi_offset 6, -16
 2495 0ed9 4889E5   		movq	%rsp, %rbp
 2496              		.cfi_def_cfa_register 6
 2497 0edc 4883EC10 		subq	$16, %rsp
 2498 0ee0 48897DF8 		movq	%rdi, -8(%rbp)
 2499              	.LBB39:
 2500              		.loc 6 92 1
 2501 0ee4 488B45F8 		movq	-8(%rbp), %rax
 2502 0ee8 4889C7   		movq	%rax, %rdi
 2503 0eeb E8EEF2FF 		call	_ZN12_GLOBAL__N_117TestRunnerFixtureD2Ev
 2503      FF
 2504              	.LBE39:
 2505 0ef0 90       		nop
 2506 0ef1 C9       		leave
 2507              		.cfi_def_cfa 7, 8
 2508 0ef2 C3       		ret
 2509              		.cfi_endproc
 2510              	.LFE1202:
 2512              		.set	_ZN12_GLOBAL__N_156TestRunnerFixtureTestFinishIsCalledWithCorrectTimeHelperD1Ev,_ZN12_GLOBAL_
 2513 0ef3 90       		.align 2
 2515              	_ZNK12_GLOBAL__N_154TestTestRunnerFixtureTestFinishIsCalledWithCorrectTime7RunImplEv:
 2516              	.LFB1200:
 2517              		.loc 6 92 1
 2518              		.cfi_startproc
 2519              		.cfi_personality 0x9b,DW.ref.__gxx_personality_v0
 2520              		.cfi_lsda 0x1b,.LLSDA1200
 2521 0ef4 F30F1EFA 		endbr64
 2522 0ef8 55       		pushq	%rbp
 2523              		.cfi_def_cfa_offset 16
 2524              		.cfi_offset 6, -16
 2525 0ef9 4889E5   		movq	%rsp, %rbp
 2526              		.cfi_def_cfa_register 6
 2527 0efc 4155     		pushq	%r13
 2528 0efe 4154     		pushq	%r12
 2529 0f00 53       		pushq	%rbx
 2530 0f01 4881ECC8 		subq	$2248, %rsp
 2530      080000
 2531              		.cfi_offset 13, -24
 2532              		.cfi_offset 12, -32
 2533              		.cfi_offset 3, -40
 2534 0f08 4889BD28 		movq	%rdi, -2264(%rbp)
 2534      F7FFFF
 2535              		.loc 6 92 1
 2536 0f0f 64488B04 		movq	%fs:40, %rax
 2536      25280000 
 2536      00
 2537 0f18 488945D8 		movq	%rax, -40(%rbp)
 2538 0f1c 31C0     		xorl	%eax, %eax
 2539 0f1e C6853FF7 		movb	$0, -2241(%rbp)
 2539      FFFF00
 2540              	.LBB40:
 2541 0f25 488B8528 		movq	-2264(%rbp), %rax
 2541      F7FFFF
 2542 0f2c 488D5008 		leaq	8(%rax), %rdx
 2543 0f30 488D8570 		leaq	-2192(%rbp), %rax
 2543      F7FFFF
 2544 0f37 4889D6   		movq	%rdx, %rsi
 2545 0f3a 4889C7   		movq	%rax, %rdi
 2546              	.LEHB52:
 2547 0f3d E818FFFF 		call	_ZN12_GLOBAL__N_156TestRunnerFixtureTestFinishIsCalledWithCorrectTimeHelperC1ERKN8UnitTest11T
 2547      FF
 2548              	.LEHE52:
 2549              		.loc 6 92 1 is_stmt 0 discriminator 1
 2550 0f42 C6853FF7 		movb	$1, -2241(%rbp)
 2550      FFFF01
 2551 0f49 488B8528 		movq	-2264(%rbp), %rax
 2551      F7FFFF
 2552 0f50 488D5008 		leaq	8(%rax), %rdx
 2553 0f54 488D8570 		leaq	-2192(%rbp), %rax
 2553      F7FFFF
 2554 0f5b 4889D6   		movq	%rdx, %rsi
 2555 0f5e 4889C7   		movq	%rax, %rdi
 2556              	.LEHB53:
 2557 0f61 E8F76600 		call	_ZN8UnitTest11ExecuteTestIN12_GLOBAL__N_156TestRunnerFixtureTestFinishIsCalledWithCorrectTime
 2557      00
 2558              	.LEHE53:
 2559              		.loc 6 92 1 discriminator 3
 2560 0f66 488D8570 		leaq	-2192(%rbp), %rax
 2560      F7FFFF
 2561 0f6d 4889C7   		movq	%rax, %rdi
 2562              	.LEHB54:
 2563 0f70 E863FFFF 		call	_ZN12_GLOBAL__N_156TestRunnerFixtureTestFinishIsCalledWithCorrectTimeHelperD1Ev
 2563      FF
 2564              	.LEHE54:
 2565              	.LBE40:
 2566              		.loc 6 92 1
 2567 0f75 E9840200 		jmp	.L116
 2567      00
 2568              	.L131:
 2569 0f7a F30F1EFA 		endbr64
 2570              	.LBB41:
 2571 0f7e 4989C4   		movq	%rax, %r12
 2572 0f81 4889D3   		movq	%rdx, %rbx
 2573 0f84 488D8570 		leaq	-2192(%rbp), %rax
 2573      F7FFFF
 2574 0f8b 4889C7   		movq	%rax, %rdi
 2575 0f8e E845FFFF 		call	_ZN12_GLOBAL__N_156TestRunnerFixtureTestFinishIsCalledWithCorrectTimeHelperD1Ev
 2575      FF
 2576 0f93 4C89E0   		movq	%r12, %rax
 2577 0f96 4889DA   		movq	%rbx, %rdx
 2578 0f99 EB04     		jmp	.L118
 2579              	.L130:
 2580 0f9b F30F1EFA 		endbr64
 2581              	.L118:
 2582              	.LBE41:
 2583 0f9f 4883FA01 		cmpq	$1, %rdx
 2584 0fa3 740F     		je	.L119
 2585 0fa5 4883FA02 		cmpq	$2, %rdx
 2586 0fa9 0F84A700 		je	.L120
 2586      0000
 2587 0faf E94D0100 		jmp	.L136
 2587      00
 2588              	.L119:
 2589              	.LBB42:
 2590              		.loc 6 92 1 discriminator 4
 2591 0fb4 4889C7   		movq	%rax, %rdi
 2592 0fb7 E8000000 		call	__cxa_begin_catch@PLT
 2592      00
 2593 0fbc 48898548 		movq	%rax, -2232(%rbp)
 2593      F7FFFF
 2594              	.LEHB55:
 2595 0fc3 E8000000 		call	_ZN8UnitTest11CurrentTest7ResultsEv@PLT
 2595      00
 2596 0fc8 488B18   		movq	(%rax), %rbx
 2597 0fcb 488B8548 		movq	-2232(%rbp), %rax
 2597      F7FFFF
 2598 0fd2 488B00   		movq	(%rax), %rax
 2599 0fd5 4883C010 		addq	$16, %rax
 2600 0fd9 488B10   		movq	(%rax), %rdx
 2601 0fdc 488B8548 		movq	-2232(%rbp), %rax
 2601      F7FFFF
 2602 0fe3 4889C7   		movq	%rax, %rdi
 2603 0fe6 FFD2     		call	*%rdx
 2604              	.LVL4:
 2605 0fe8 4989C4   		movq	%rax, %r12
 2606 0feb 488B8548 		movq	-2232(%rbp), %rax
 2606      F7FFFF
 2607 0ff2 4889C7   		movq	%rax, %rdi
 2608 0ff5 E8000000 		call	_ZNK8UnitTest15AssertException10LineNumberEv@PLT
 2608      00
 2609              		.loc 6 92 1 discriminator 8
 2610 0ffa 4189C5   		movl	%eax, %r13d
 2611 0ffd 488B8548 		movq	-2232(%rbp), %rax
 2611      F7FFFF
 2612 1004 4889C7   		movq	%rax, %rdi
 2613 1007 E8000000 		call	_ZNK8UnitTest15AssertException8FilenameEv@PLT
 2613      00
 2614              		.loc 6 92 1 discriminator 10
 2615 100c 4889C1   		movq	%rax, %rcx
 2616 100f 488B8528 		movq	-2264(%rbp), %rax
 2616      F7FFFF
 2617 1016 488B5008 		movq	8(%rax), %rdx
 2618 101a 488B8528 		movq	-2264(%rbp), %rax
 2618      F7FFFF
 2619 1021 488B7010 		movq	16(%rax), %rsi
 2620 1025 488D8550 		leaq	-2224(%rbp), %rax
 2620      F7FFFF
 2621 102c 4589E8   		movl	%r13d, %r8d
 2622 102f 4889C7   		movq	%rax, %rdi
 2623 1032 E8000000 		call	_ZN8UnitTest11TestDetailsC1EPKcS2_S2_i@PLT
 2623      00
 2624              		.loc 6 92 1 discriminator 14
 2625 1037 488D8550 		leaq	-2224(%rbp), %rax
 2625      F7FFFF
 2626 103e 4C89E2   		movq	%r12, %rdx
 2627 1041 4889C6   		movq	%rax, %rsi
 2628 1044 4889DF   		movq	%rbx, %rdi
 2629 1047 E8000000 		call	_ZN8UnitTest11TestResults13OnTestFailureERKNS_11TestDetailsEPKc@PLT
 2629      00
 2630              	.LEHE55:
 2631              		.loc 6 92 1 discriminator 16
 2632 104c E8000000 		call	__cxa_end_catch@PLT
 2632      00
 2633              	.LBE42:
 2634 1051 E9A80100 		jmp	.L116
 2634      00
 2635              	.L120:
 2636              	.LBB43:
 2637              		.loc 6 92 1 discriminator 5
 2638 1056 4889C7   		movq	%rax, %rdi
 2639 1059 E8000000 		call	__cxa_begin_catch@PLT
 2639      00
 2640 105e 48898540 		movq	%rax, -2240(%rbp)
 2640      F7FFFF
 2641              	.LBB44:
 2642 1065 488D8570 		leaq	-2192(%rbp), %rax
 2642      F7FFFF
 2643 106c 4889C7   		movq	%rax, %rdi
 2644              	.LEHB56:
 2645 106f E8000000 		call	_ZN8UnitTest15MemoryOutStreamC1Ev
 2645      00
 2646              	.LEHE56:
 2647              		.loc 6 92 1 discriminator 18
 2648 1074 488D8570 		leaq	-2192(%rbp), %rax
 2648      F7FFFF
 2649 107b 488D1500 		leaq	.LC8(%rip), %rdx
 2649      000000
 2650 1082 4889D6   		movq	%rdx, %rsi
 2651 1085 4889C7   		movq	%rax, %rdi
 2652              	.LEHB57:
 2653 1088 E8000000 		call	_ZStlsISt11char_traitsIcEERSt13basic_ostreamIcT_ES5_PKc@PLT
 2653      00
 2654 108d 4889C3   		movq	%rax, %rbx
 2655 1090 488B8540 		movq	-2240(%rbp), %rax
 2655      F7FFFF
 2656 1097 488B00   		movq	(%rax), %rax
 2657 109a 4883C010 		addq	$16, %rax
 2658 109e 488B10   		movq	(%rax), %rdx
 2659 10a1 488B8540 		movq	-2240(%rbp), %rax
 2659      F7FFFF
 2660 10a8 4889C7   		movq	%rax, %rdi
 2661 10ab FFD2     		call	*%rdx
 2662              	.LVL5:
 2663 10ad 4889C6   		movq	%rax, %rsi
 2664 10b0 4889DF   		movq	%rbx, %rdi
 2665 10b3 E8000000 		call	_ZStlsISt11char_traitsIcEERSt13basic_ostreamIcT_ES5_PKc@PLT
 2665      00
 2666              		.loc 6 92 1 discriminator 22
 2667 10b8 E8000000 		call	_ZN8UnitTest11CurrentTest7ResultsEv@PLT
 2667      00
 2668 10bd 488B18   		movq	(%rax), %rbx
 2669 10c0 488D8570 		leaq	-2192(%rbp), %rax
 2669      F7FFFF
 2670 10c7 4889C7   		movq	%rax, %rdi
 2671 10ca E8000000 		call	_ZNK8UnitTest15MemoryOutStream7GetTextEv@PLT
 2671      00
 2672              		.loc 6 92 1 discriminator 24
 2673 10cf 4889C2   		movq	%rax, %rdx
 2674 10d2 488B8528 		movq	-2264(%rbp), %rax
 2674      F7FFFF
 2675 10d9 4883C008 		addq	$8, %rax
 2676 10dd 4889C6   		movq	%rax, %rsi
 2677 10e0 4889DF   		movq	%rbx, %rdi
 2678 10e3 E8000000 		call	_ZN8UnitTest11TestResults13OnTestFailureERKNS_11TestDetailsEPKc@PLT
 2678      00
 2679              	.LEHE57:
 2680              		.loc 6 92 1 discriminator 28
 2681 10e8 488D8570 		leaq	-2192(%rbp), %rax
 2681      F7FFFF
 2682 10ef 4889C7   		movq	%rax, %rdi
 2683              	.LEHB58:
 2684 10f2 E8000000 		call	_ZN8UnitTest15MemoryOutStreamD1Ev
 2684      00
 2685              	.LEHE58:
 2686              	.LBE44:
 2687              		.loc 6 92 1 discriminator 29
 2688 10f7 E8000000 		call	__cxa_end_catch@PLT
 2688      00
 2689              	.LBE43:
 2690 10fc E9FD0000 		jmp	.L116
 2690      00
 2691              	.L136:
 2692              		.loc 6 92 1 discriminator 6
 2693 1101 4889C7   		movq	%rax, %rdi
 2694 1104 E8000000 		call	__cxa_begin_catch@PLT
 2694      00
 2695 1109 80BD3FF7 		cmpb	$0, -2241(%rbp)
 2695      FFFF00
 2696 1110 7445     		je	.L123
 2697              	.LEHB59:
 2698              		.loc 6 92 1 discriminator 31
 2699 1112 E8000000 		call	_ZN8UnitTest11CurrentTest7ResultsEv@PLT
 2699      00
 2700 1117 488B18   		movq	(%rax), %rbx
 2701 111a 488B8528 		movq	-2264(%rbp), %rax
 2701      F7FFFF
 2702 1121 488D4808 		leaq	8(%rax), %rcx
 2703 1125 488D8550 		leaq	-2224(%rbp), %rax
 2703      F7FFFF
 2704 112c BA5C0000 		movl	$92, %edx
 2704      00
 2705 1131 4889CE   		movq	%rcx, %rsi
 2706 1134 4889C7   		movq	%rax, %rdi
 2707 1137 E8000000 		call	_ZN8UnitTest11TestDetailsC1ERKS0_i@PLT
 2707      00
 2708              		.loc 6 92 1 discriminator 36
 2709 113c 488D8550 		leaq	-2224(%rbp), %rax
 2709      F7FFFF
 2710 1143 488D1500 		leaq	.LC9(%rip), %rdx
 2710      000000
 2711 114a 4889C6   		movq	%rax, %rsi
 2712 114d 4889DF   		movq	%rbx, %rdi
 2713 1150 E8000000 		call	_ZN8UnitTest11TestResults13OnTestFailureERKNS_11TestDetailsEPKc@PLT
 2713      00
 2714 1155 EB43     		jmp	.L124
 2715              	.L123:
 2716              		.loc 6 92 1 discriminator 32
 2717 1157 E8000000 		call	_ZN8UnitTest11CurrentTest7ResultsEv@PLT
 2717      00
 2718 115c 488B18   		movq	(%rax), %rbx
 2719 115f 488B8528 		movq	-2264(%rbp), %rax
 2719      F7FFFF
 2720 1166 488D4808 		leaq	8(%rax), %rcx
 2721 116a 488D8550 		leaq	-2224(%rbp), %rax
 2721      F7FFFF
 2722 1171 BA5C0000 		movl	$92, %edx
 2722      00
 2723 1176 4889CE   		movq	%rcx, %rsi
 2724 1179 4889C7   		movq	%rax, %rdi
 2725 117c E8000000 		call	_ZN8UnitTest11TestDetailsC1ERKS0_i@PLT
 2725      00
 2726              		.loc 6 92 1 discriminator 43
 2727 1181 488D8550 		leaq	-2224(%rbp), %rax
 2727      F7FFFF
 2728 1188 488D1500 		leaq	.LC10(%rip), %rdx
 2728      000000
 2729 118f 4889C6   		movq	%rax, %rsi
 2730 1192 4889DF   		movq	%rbx, %rdi
 2731 1195 E8000000 		call	_ZN8UnitTest11TestResults13OnTestFailureERKNS_11TestDetailsEPKc@PLT
 2731      00
 2732              	.LEHE59:
 2733              	.L124:
 2734              	.LEHB60:
 2735              		.loc 6 92 1 discriminator 46
 2736 119a E8000000 		call	__cxa_end_catch@PLT
 2736      00
 2737 119f EB5D     		jmp	.L116
 2738              	.L132:
 2739 11a1 F30F1EFA 		endbr64
 2740              	.LBB46:
 2741              		.loc 6 92 1
 2742 11a5 4889C3   		movq	%rax, %rbx
 2743 11a8 E8000000 		call	__cxa_end_catch@PLT
 2743      00
 2744 11ad 4889D8   		movq	%rbx, %rax
 2745 11b0 4889C7   		movq	%rax, %rdi
 2746 11b3 E8000000 		call	_Unwind_Resume@PLT
 2746      00
 2747              	.LEHE60:
 2748              	.L134:
 2749 11b8 F30F1EFA 		endbr64
 2750              	.LBE46:
 2751              	.LBB47:
 2752              	.LBB45:
 2753 11bc 4889C3   		movq	%rax, %rbx
 2754 11bf 488D8570 		leaq	-2192(%rbp), %rax
 2754      F7FFFF
 2755 11c6 4889C7   		movq	%rax, %rdi
 2756 11c9 E8000000 		call	_ZN8UnitTest15MemoryOutStreamD1Ev
 2756      00
 2757 11ce EB07     		jmp	.L127
 2758              	.L133:
 2759 11d0 F30F1EFA 		endbr64
 2760              	.LBE45:
 2761 11d4 4889C3   		movq	%rax, %rbx
 2762              	.L127:
 2763 11d7 E8000000 		call	__cxa_end_catch@PLT
 2763      00
 2764 11dc 4889D8   		movq	%rbx, %rax
 2765 11df 4889C7   		movq	%rax, %rdi
 2766              	.LEHB61:
 2767 11e2 E8000000 		call	_Unwind_Resume@PLT
 2767      00
 2768              	.LEHE61:
 2769              	.L135:
 2770 11e7 F30F1EFA 		endbr64
 2771              	.LBE47:
 2772 11eb 4889C3   		movq	%rax, %rbx
 2773 11ee E8000000 		call	__cxa_end_catch@PLT
 2773      00
 2774 11f3 4889D8   		movq	%rbx, %rax
 2775 11f6 4889C7   		movq	%rax, %rdi
 2776              	.LEHB62:
 2777 11f9 E8000000 		call	_Unwind_Resume@PLT
 2777      00
 2778              	.LEHE62:
 2779              	.L116:
 2780 11fe 488B45D8 		movq	-40(%rbp), %rax
 2781 1202 64482B04 		subq	%fs:40, %rax
 2781      25280000 
 2781      00
 2782 120b 7405     		je	.L129
 2783 120d E8000000 		call	__stack_chk_fail@PLT
 2783      00
 2784              	.L129:
 2785 1212 4881C4C8 		addq	$2248, %rsp
 2785      080000
 2786 1219 5B       		popq	%rbx
 2787 121a 415C     		popq	%r12
 2788 121c 415D     		popq	%r13
 2789 121e 5D       		popq	%rbp
 2790              		.cfi_def_cfa 7, 8
 2791 121f C3       		ret
 2792              		.cfi_endproc
 2793              	.LFE1200:
 2794              		.section	.gcc_except_table
 2795              		.align 4
 2796              	.LLSDA1200:
 2797 0158 FF       		.byte	0xff
 2798 0159 9B       		.byte	0x9b
 2799 015a 55       		.uleb128 .LLSDATT1200-.LLSDATTD1200
 2800              	.LLSDATTD1200:
 2801 015b 01       		.byte	0x1
 2802 015c 3E       		.uleb128 .LLSDACSE1200-.LLSDACSB1200
 2803              	.LLSDACSB1200:
 2804 015d 49       		.uleb128 .LEHB52-.LFB1200
 2805 015e 05       		.uleb128 .LEHE52-.LEHB52
 2806 015f A701     		.uleb128 .L130-.LFB1200
 2807 0161 05       		.uleb128 0x5
 2808 0162 6D       		.uleb128 .LEHB53-.LFB1200
 2809 0163 05       		.uleb128 .LEHE53-.LEHB53
 2810 0164 8601     		.uleb128 .L131-.LFB1200
 2811 0166 07       		.uleb128 0x7
 2812 0167 7C       		.uleb128 .LEHB54-.LFB1200
 2813 0168 05       		.uleb128 .LEHE54-.LEHB54
 2814 0169 A701     		.uleb128 .L130-.LFB1200
 2815 016b 05       		.uleb128 0x5
 2816 016c CF01     		.uleb128 .LEHB55-.LFB1200
 2817 016e 8901     		.uleb128 .LEHE55-.LEHB55
 2818 0170 AD05     		.uleb128 .L132-.LFB1200
 2819 0172 00       		.uleb128 0
 2820 0173 FB02     		.uleb128 .LEHB56-.LFB1200
 2821 0175 05       		.uleb128 .LEHE56-.LEHB56
 2822 0176 DC05     		.uleb128 .L133-.LFB1200
 2823 0178 00       		.uleb128 0
 2824 0179 9403     		.uleb128 .LEHB57-.LFB1200
 2825 017b 60       		.uleb128 .LEHE57-.LEHB57
 2826 017c C405     		.uleb128 .L134-.LFB1200
 2827 017e 00       		.uleb128 0
 2828 017f FE03     		.uleb128 .LEHB58-.LFB1200
 2829 0181 05       		.uleb128 .LEHE58-.LEHB58
 2830 0182 DC05     		.uleb128 .L133-.LFB1200
 2831 0184 00       		.uleb128 0
 2832 0185 9E04     		.uleb128 .LEHB59-.LFB1200
 2833 0187 8801     		.uleb128 .LEHE59-.LEHB59
 2834 0189 F305     		.uleb128 .L135-.LFB1200
 2835 018b 00       		.uleb128 0
 2836 018c A605     		.uleb128 .LEHB60-.LFB1200
 2837 018e 1E       		.uleb128 .LEHE60-.LEHB60
 2838 018f 00       		.uleb128 0
 2839 0190 00       		.uleb128 0
 2840 0191 EE05     		.uleb128 .LEHB61-.LFB1200
 2841 0193 05       		.uleb128 .LEHE61-.LEHB61
 2842 0194 00       		.uleb128 0
 2843 0195 00       		.uleb128 0
 2844 0196 8506     		.uleb128 .LEHB62-.LFB1200
 2845 0198 05       		.uleb128 .LEHE62-.LEHB62
 2846 0199 00       		.uleb128 0
 2847 019a 00       		.uleb128 0
 2848              	.LLSDACSE1200:
 2849 019b 03       		.byte	0x3
 2850 019c 00       		.byte	0
 2851 019d 02       		.byte	0x2
 2852 019e 7D       		.byte	0x7d
 2853 019f 01       		.byte	0x1
 2854 01a0 7D       		.byte	0x7d
 2855 01a1 00       		.byte	0
 2856 01a2 7D       		.byte	0x7d
 2857 01a3 00       		.align 4
 2858 01a4 00000000 		.long	0
 2859              	
 2860 01a8 00000000 		.long	DW.ref._ZTISt9exception-.
 2861 01ac 00000000 		.long	DW.ref._ZTIN8UnitTest15AssertExceptionE-.
 2862              	.LLSDATT1200:
 2863              		.text
 2865              		.section	.rodata
 2866 0272 00000000 		.align 8
 2866      0000
 2867              	.LC23:
 2868 0278 7265706F 		.string	"reporter.lastFinishedTestTime >= 0.005f && reporter.lastFinishedTestTime <= 0.050f"
 2868      72746572 
 2868      2E6C6173 
 2868      7446696E 
 2868      69736865 
 2869 02cb 00000000 		.align 8
 2869      00
 2870              	.LC24:
 2871 02d0 556E6861 		.string	"Unhandled exception in CHECK(reporter.lastFinishedTestTime >= 0.005f && reporter.lastFini
 2871      6E646C65 
 2871      64206578 
 2871      63657074 
 2871      696F6E20 
 2872              		.text
 2873              		.align 2
 2875              	_ZN12_GLOBAL__N_156TestRunnerFixtureTestFinishIsCalledWithCorrectTimeHelper7RunImplEv:
 2876              	.LFB1204:
  93:TestTestRunner.cpp **** {
 2877              		.loc 6 93 1 is_stmt 1
 2878              		.cfi_startproc
 2879              		.cfi_personality 0x9b,DW.ref.__gxx_personality_v0
 2880              		.cfi_lsda 0x1b,.LLSDA1204
 2881 1220 F30F1EFA 		endbr64
 2882 1224 55       		pushq	%rbp
 2883              		.cfi_def_cfa_offset 16
 2884              		.cfi_offset 6, -16
 2885 1225 4889E5   		movq	%rsp, %rbp
 2886              		.cfi_def_cfa_register 6
 2887 1228 53       		pushq	%rbx
 2888 1229 4883EC78 		subq	$120, %rsp
 2889              		.cfi_offset 3, -24
 2890 122d 48897D88 		movq	%rdi, -120(%rbp)
 2891              		.loc 6 93 1
 2892 1231 64488B04 		movq	%fs:40, %rax
 2892      25280000 
 2892      00
 2893 123a 488945E8 		movq	%rax, -24(%rbp)
 2894 123e 31C0     		xorl	%eax, %eax
  94:TestTestRunner.cpp ****     SlowTest test;
 2895              		.loc 6 94 14
 2896 1240 488D45B0 		leaq	-80(%rbp), %rax
 2897 1244 4889C7   		movq	%rax, %rdi
 2898              	.LEHB63:
 2899 1247 E8A8FBFF 		call	_ZN12_GLOBAL__N_18SlowTestC1Ev
 2899      FF
 2900              	.LEHE63:
  95:TestTestRunner.cpp ****     list.Add(&test);
 2901              		.loc 6 95 13
 2902 124c 488B4588 		movq	-120(%rbp), %rax
 2903 1250 488D9048 		leaq	2120(%rax), %rdx
 2903      080000
 2904 1257 488D45B0 		leaq	-80(%rbp), %rax
 2905 125b 4889C6   		movq	%rax, %rsi
 2906 125e 4889D7   		movq	%rdx, %rdi
 2907              	.LEHB64:
 2908 1261 E8000000 		call	_ZN8UnitTest8TestList3AddEPNS_4TestE@PLT
 2908      00
  96:TestTestRunner.cpp **** 
  97:TestTestRunner.cpp **** 	RunTestsIf(list, NULL, True(), 0);
 2909              		.loc 6 97 12
 2910 1266 488B4588 		movq	-120(%rbp), %rax
 2911              		.loc 6 97 13
 2912 126a 488B5588 		movq	-120(%rbp), %rdx
 2913 126e 488DB248 		leaq	2120(%rdx), %rsi
 2913      080000
 2914              		.loc 6 97 12
 2915 1275 488D5590 		leaq	-112(%rbp), %rdx
 2916 1279 41B80000 		movl	$0, %r8d
 2916      0000
 2917 127f 4889D1   		movq	%rdx, %rcx
 2918 1282 BA000000 		movl	$0, %edx
 2918      00
 2919 1287 4889C7   		movq	%rax, %rdi
 2920 128a E86D6000 		call	_ZN12_GLOBAL__N_111FixtureBase10RunTestsIfIN8UnitTest4TrueEEEiRKNS2_8TestListEPKcRKT_i
 2920      00
 2921              	.LEHE64:
  98:TestTestRunner.cpp ****     CHECK(reporter.lastFinishedTestTime >= 0.005f && reporter.lastFinishedTestTime <= 0.050f);
 2922              		.loc 6 98 5 discriminator 2
 2923 128f 488B4588 		movq	-120(%rbp), %rax
 2924 1293 F30F1080 		movss	2096(%rax), %xmm0
 2924      30080000 
 2925 129b 0F2F0500 		comiss	.LC21(%rip), %xmm0
 2925      000000
 2926 12a2 7220     		jb	.L138
 2927              		.loc 6 98 5 is_stmt 0 discriminator 1
 2928 12a4 488B4588 		movq	-120(%rbp), %rax
 2929 12a8 F30F1088 		movss	2096(%rax), %xmm1
 2929      30080000 
 2930 12b0 F30F1005 		movss	.LC22(%rip), %xmm0
 2930      00000000 
 2931 12b8 0F2FC1   		comiss	%xmm1, %xmm0
 2932 12bb 7207     		jb	.L138
 2933              		.loc 6 98 5 discriminator 3
 2934 12bd B8010000 		movl	$1, %eax
 2934      00
 2935 12c2 EB05     		jmp	.L141
 2936              	.L138:
 2937              		.loc 6 98 5 discriminator 4
 2938 12c4 B8000000 		movl	$0, %eax
 2938      00
 2939              	.L141:
 2940              		.loc 6 98 5 discriminator 6
 2941 12c9 0FB6C0   		movzbl	%al, %eax
 2942 12cc 89C7     		movl	%eax, %edi
 2943 12ce E8000000 		call	_ZN8UnitTest5CheckIbEEbT_
 2943      00
 2944 12d3 83F001   		xorl	$1, %eax
 2945 12d6 84C0     		testb	%al, %al
 2946 12d8 743A     		je	.L142
 2947              	.LEHB65:
 2948              		.loc 6 98 5 discriminator 7
 2949 12da E8000000 		call	_ZN8UnitTest11CurrentTest7ResultsEv@PLT
 2949      00
 2950 12df 488B18   		movq	(%rax), %rbx
 2951 12e2 E8000000 		call	_ZN8UnitTest11CurrentTest7DetailsEv@PLT
 2951      00
 2952              		.loc 6 98 5 discriminator 9
 2953 12e7 488B08   		movq	(%rax), %rcx
 2954 12ea 488D4590 		leaq	-112(%rbp), %rax
 2955 12ee BA620000 		movl	$98, %edx
 2955      00
 2956 12f3 4889CE   		movq	%rcx, %rsi
 2957 12f6 4889C7   		movq	%rax, %rdi
 2958 12f9 E8000000 		call	_ZN8UnitTest11TestDetailsC1ERKS0_i@PLT
 2958      00
 2959              		.loc 6 98 5 discriminator 13
 2960 12fe 488D4590 		leaq	-112(%rbp), %rax
 2961 1302 488D1500 		leaq	.LC23(%rip), %rdx
 2961      000000
 2962 1309 4889C6   		movq	%rax, %rsi
 2963 130c 4889DF   		movq	%rbx, %rdi
 2964 130f E8000000 		call	_ZN8UnitTest11TestResults13OnTestFailureERKNS_11TestDetailsEPKc@PLT
 2964      00
 2965              	.LEHE65:
 2966              	.L142:
  99:TestTestRunner.cpp **** }
 2967              		.loc 6 99 1 is_stmt 1
 2968 1314 488D45B0 		leaq	-80(%rbp), %rax
 2969 1318 4889C7   		movq	%rax, %rdi
 2970              	.LEHB66:
 2971 131b E8BC9800 		call	_ZN12_GLOBAL__N_18SlowTestD1Ev
 2971      00
 2972              	.LEHE66:
 2973 1320 488B45E8 		movq	-24(%rbp), %rax
 2974 1324 64482B04 		subq	%fs:40, %rax
 2974      25280000 
 2974      00
 2975 132d 0F848000 		je	.L146
 2975      0000
 2976 1333 EB79     		jmp	.L152
 2977              	.L148:
 2978 1335 F30F1EFA 		endbr64
  98:TestTestRunner.cpp ****     CHECK(reporter.lastFinishedTestTime >= 0.005f && reporter.lastFinishedTestTime <= 0.050f);
 2979              		.loc 6 98 5
 2980 1339 4889C7   		movq	%rax, %rdi
 2981 133c E8000000 		call	__cxa_begin_catch@PLT
 2981      00
 2982              	.LEHB67:
 2983 1341 E8000000 		call	_ZN8UnitTest11CurrentTest7ResultsEv@PLT
 2983      00
  98:TestTestRunner.cpp ****     CHECK(reporter.lastFinishedTestTime >= 0.005f && reporter.lastFinishedTestTime <= 0.050f);
 2984              		.loc 6 98 5 is_stmt 0 discriminator 12
 2985 1346 488B18   		movq	(%rax), %rbx
 2986 1349 E8000000 		call	_ZN8UnitTest11CurrentTest7DetailsEv@PLT
 2986      00
  98:TestTestRunner.cpp ****     CHECK(reporter.lastFinishedTestTime >= 0.005f && reporter.lastFinishedTestTime <= 0.050f);
 2987              		.loc 6 98 5 discriminator 18
 2988 134e 488B08   		movq	(%rax), %rcx
 2989 1351 488D4590 		leaq	-112(%rbp), %rax
 2990 1355 BA620000 		movl	$98, %edx
 2990      00
 2991 135a 4889CE   		movq	%rcx, %rsi
 2992 135d 4889C7   		movq	%rax, %rdi
 2993 1360 E8000000 		call	_ZN8UnitTest11TestDetailsC1ERKS0_i@PLT
 2993      00
  98:TestTestRunner.cpp ****     CHECK(reporter.lastFinishedTestTime >= 0.005f && reporter.lastFinishedTestTime <= 0.050f);
 2994              		.loc 6 98 5 discriminator 22
 2995 1365 488D4590 		leaq	-112(%rbp), %rax
 2996 1369 488D1500 		leaq	.LC24(%rip), %rdx
 2996      000000
 2997 1370 4889C6   		movq	%rax, %rsi
 2998 1373 4889DF   		movq	%rbx, %rdi
 2999 1376 E8000000 		call	_ZN8UnitTest11TestResults13OnTestFailureERKNS_11TestDetailsEPKc@PLT
 2999      00
 3000              	.LEHE67:
 3001              	.LEHB68:
  98:TestTestRunner.cpp ****     CHECK(reporter.lastFinishedTestTime >= 0.005f && reporter.lastFinishedTestTime <= 0.050f);
 3002              		.loc 6 98 5 discriminator 24
 3003 137b E8000000 		call	__cxa_end_catch@PLT
 3003      00
 3004              	.LEHE68:
  98:TestTestRunner.cpp ****     CHECK(reporter.lastFinishedTestTime >= 0.005f && reporter.lastFinishedTestTime <= 0.050f);
 3005              		.loc 6 98 5
 3006 1380 EB92     		jmp	.L142
 3007              	.L149:
 3008 1382 F30F1EFA 		endbr64
 3009 1386 4889C3   		movq	%rax, %rbx
 3010 1389 E8000000 		call	__cxa_end_catch@PLT
 3010      00
 3011 138e EB07     		jmp	.L145
 3012              	.L147:
 3013 1390 F30F1EFA 		endbr64
 3014              		.loc 6 99 1 is_stmt 1
 3015 1394 4889C3   		movq	%rax, %rbx
 3016              	.L145:
 3017 1397 488D45B0 		leaq	-80(%rbp), %rax
 3018 139b 4889C7   		movq	%rax, %rdi
 3019 139e E8399800 		call	_ZN12_GLOBAL__N_18SlowTestD1Ev
 3019      00
 3020 13a3 4889D8   		movq	%rbx, %rax
 3021 13a6 4889C7   		movq	%rax, %rdi
 3022              	.LEHB69:
 3023 13a9 E8000000 		call	_Unwind_Resume@PLT
 3023      00
 3024              	.LEHE69:
 3025              	.L152:
 3026 13ae E8000000 		call	__stack_chk_fail@PLT
 3026      00
 3027              	.L146:
 3028 13b3 488B5DF8 		movq	-8(%rbp), %rbx
 3029 13b7 C9       		leave
 3030              		.cfi_def_cfa 7, 8
 3031 13b8 C3       		ret
 3032              		.cfi_endproc
 3033              	.LFE1204:
 3034              		.section	.gcc_except_table
 3035              		.align 4
 3036              	.LLSDA1204:
 3037 01b0 FF       		.byte	0xff
 3038 01b1 9B       		.byte	0x9b
 3039 01b2 2D       		.uleb128 .LLSDATT1204-.LLSDATTD1204
 3040              	.LLSDATTD1204:
 3041 01b3 01       		.byte	0x1
 3042 01b4 25       		.uleb128 .LLSDACSE1204-.LLSDACSB1204
 3043              	.LLSDACSB1204:
 3044 01b5 27       		.uleb128 .LEHB63-.LFB1204
 3045 01b6 05       		.uleb128 .LEHE63-.LEHB63
 3046 01b7 00       		.uleb128 0
 3047 01b8 00       		.uleb128 0
 3048 01b9 41       		.uleb128 .LEHB64-.LFB1204
 3049 01ba 2E       		.uleb128 .LEHE64-.LEHB64
 3050 01bb F002     		.uleb128 .L147-.LFB1204
 3051 01bd 00       		.uleb128 0
 3052 01be BA01     		.uleb128 .LEHB65-.LFB1204
 3053 01c0 3A       		.uleb128 .LEHE65-.LEHB65
 3054 01c1 9502     		.uleb128 .L148-.LFB1204
 3055 01c3 01       		.uleb128 0x1
 3056 01c4 FB01     		.uleb128 .LEHB66-.LFB1204
 3057 01c6 05       		.uleb128 .LEHE66-.LEHB66
 3058 01c7 00       		.uleb128 0
 3059 01c8 00       		.uleb128 0
 3060 01c9 A102     		.uleb128 .LEHB67-.LFB1204
 3061 01cb 3A       		.uleb128 .LEHE67-.LEHB67
 3062 01cc E202     		.uleb128 .L149-.LFB1204
 3063 01ce 00       		.uleb128 0
 3064 01cf DB02     		.uleb128 .LEHB68-.LFB1204
 3065 01d1 05       		.uleb128 .LEHE68-.LEHB68
 3066 01d2 F002     		.uleb128 .L147-.LFB1204
 3067 01d4 00       		.uleb128 0
 3068 01d5 8903     		.uleb128 .LEHB69-.LFB1204
 3069 01d7 05       		.uleb128 .LEHE69-.LEHB69
 3070 01d8 00       		.uleb128 0
 3071 01d9 00       		.uleb128 0
 3072              	.LLSDACSE1204:
 3073 01da 01       		.byte	0x1
 3074 01db 00       		.byte	0
 3075              		.align 4
 3076 01dc 00000000 		.long	0
 3077              	
 3078              	.LLSDATT1204:
 3079              		.text
 3081 13b9 90       		.align 2
 3083              	_ZN12_GLOBAL__N_158TestRunnerFixtureFailureCountIsZeroWhenNoTestsAreRunHelperC2ERKN8UnitTest11TestD
 3084              	.LFB1206:
 100:TestTestRunner.cpp **** 
 101:TestTestRunner.cpp **** TEST_FIXTURE(TestRunnerFixture, FailureCountIsZeroWhenNoTestsAreRun)
 3085              		.loc 6 101 1
 3086              		.cfi_startproc
 3087 13ba 55       		pushq	%rbp
 3088              		.cfi_def_cfa_offset 16
 3089              		.cfi_offset 6, -16
 3090 13bb 4889E5   		movq	%rsp, %rbp
 3091              		.cfi_def_cfa_register 6
 3092 13be 4883EC10 		subq	$16, %rsp
 3093 13c2 48897DF8 		movq	%rdi, -8(%rbp)
 3094 13c6 488975F0 		movq	%rsi, -16(%rbp)
 3095              	.LBB48:
 3096              		.loc 6 101 1
 3097 13ca 488B45F8 		movq	-8(%rbp), %rax
 3098 13ce 4889C7   		movq	%rax, %rdi
 3099 13d1 E8B6EDFF 		call	_ZN12_GLOBAL__N_117TestRunnerFixtureC2Ev
 3099      FF
 3100 13d6 488B45F8 		movq	-8(%rbp), %rax
 3101 13da 488B55F0 		movq	-16(%rbp), %rdx
 3102 13de 48899058 		movq	%rdx, 2136(%rax)
 3102      080000
 3103              	.LBE48:
 3104 13e5 90       		nop
 3105 13e6 C9       		leave
 3106              		.cfi_def_cfa 7, 8
 3107 13e7 C3       		ret
 3108              		.cfi_endproc
 3109              	.LFE1206:
 3111              		.set	_ZN12_GLOBAL__N_158TestRunnerFixtureFailureCountIsZeroWhenNoTestsAreRunHelperC1ERKN8UnitTest1
 3112              		.section	.rodata
 3113 0341 00000000 		.align 8
 3113      000000
 3114              	.LC25:
 3115 0348 4661696C 		.string	"FailureCountIsZeroWhenNoTestsAreRun"
 3115      75726543 
 3115      6F756E74 
 3115      49735A65 
 3115      726F5768 
 3116              		.text
 3117              		.align 2
 3119              	_ZN12_GLOBAL__N_156TestTestRunnerFixtureFailureCountIsZeroWhenNoTestsAreRunC2Ev:
 3120              	.LFB1209:
 3121              		.loc 6 101 1
 3122              		.cfi_startproc
 3123 13e8 55       		pushq	%rbp
 3124              		.cfi_def_cfa_offset 16
 3125              		.cfi_offset 6, -16
 3126 13e9 4889E5   		movq	%rsp, %rbp
 3127              		.cfi_def_cfa_register 6
 3128 13ec 53       		pushq	%rbx
 3129 13ed 4883EC18 		subq	$24, %rsp
 3130              		.cfi_offset 3, -24
 3131 13f1 48897DE8 		movq	%rdi, -24(%rbp)
 3132              	.LBB49:
 3133              		.loc 6 101 1
 3134 13f5 488B5DE8 		movq	-24(%rbp), %rbx
 3135 13f9 E8000000 		call	_ZN13UnitTestSuite12GetSuiteNameEv
 3135      00
 3136 13fe 4889C2   		movq	%rax, %rdx
 3137 1401 41B86500 		movl	$101, %r8d
 3137      0000
 3138 1407 488D0500 		leaq	.LC6(%rip), %rax
 3138      000000
 3139 140e 4889C1   		movq	%rax, %rcx
 3140 1411 488D0500 		leaq	.LC25(%rip), %rax
 3140      000000
 3141 1418 4889C6   		movq	%rax, %rsi
 3142 141b 4889DF   		movq	%rbx, %rdi
 3143 141e E8000000 		call	_ZN8UnitTest4TestC2EPKcS2_S2_i@PLT
 3143      00
 3144 1423 488D1500 		leaq	16+_ZTVN12_GLOBAL__N_156TestTestRunnerFixtureFailureCountIsZeroWhenNoTestsAreRunE(%rip), %rdx
 3144      000000
 3145 142a 488B45E8 		movq	-24(%rbp), %rax
 3146 142e 488910   		movq	%rdx, (%rax)
 3147              	.LBE49:
 3148 1431 90       		nop
 3149 1432 488B5DF8 		movq	-8(%rbp), %rbx
 3150 1436 C9       		leave
 3151              		.cfi_def_cfa 7, 8
 3152 1437 C3       		ret
 3153              		.cfi_endproc
 3154              	.LFE1209:
 3156              		.set	_ZN12_GLOBAL__N_156TestTestRunnerFixtureFailureCountIsZeroWhenNoTestsAreRunC1Ev,_ZN12_GLOBAL_
 3157              		.local	_ZN12_GLOBAL__N_164testTestRunnerFixtureFailureCountIsZeroWhenNoTestsAreRunInstanceE
 3158              		.comm	_ZN12_GLOBAL__N_164testTestRunnerFixtureFailureCountIsZeroWhenNoTestsAreRunInstanceE,56,32
 3159              		.local	_ZN12_GLOBAL__N_157adderTestRunnerFixtureFailureCountIsZeroWhenNoTestsAreRunE
 3160              		.comm	_ZN12_GLOBAL__N_157adderTestRunnerFixtureFailureCountIsZeroWhenNoTestsAreRunE,1,1
 3161              		.align 2
 3163              	_ZN12_GLOBAL__N_158TestRunnerFixtureFailureCountIsZeroWhenNoTestsAreRunHelperD2Ev:
 3164              	.LFB1213:
 3165              		.loc 6 101 1
 3166              		.cfi_startproc
 3167 1438 55       		pushq	%rbp
 3168              		.cfi_def_cfa_offset 16
 3169              		.cfi_offset 6, -16
 3170 1439 4889E5   		movq	%rsp, %rbp
 3171              		.cfi_def_cfa_register 6
 3172 143c 4883EC10 		subq	$16, %rsp
 3173 1440 48897DF8 		movq	%rdi, -8(%rbp)
 3174              	.LBB50:
 3175              		.loc 6 101 1
 3176 1444 488B45F8 		movq	-8(%rbp), %rax
 3177 1448 4889C7   		movq	%rax, %rdi
 3178 144b E88EEDFF 		call	_ZN12_GLOBAL__N_117TestRunnerFixtureD2Ev
 3178      FF
 3179              	.LBE50:
 3180 1450 90       		nop
 3181 1451 C9       		leave
 3182              		.cfi_def_cfa 7, 8
 3183 1452 C3       		ret
 3184              		.cfi_endproc
 3185              	.LFE1213:
 3187              		.set	_ZN12_GLOBAL__N_158TestRunnerFixtureFailureCountIsZeroWhenNoTestsAreRunHelperD1Ev,_ZN12_GLOBA
 3188 1453 90       		.align 2
 3190              	_ZNK12_GLOBAL__N_156TestTestRunnerFixtureFailureCountIsZeroWhenNoTestsAreRun7RunImplEv:
 3191              	.LFB1211:
 3192              		.loc 6 101 1
 3193              		.cfi_startproc
 3194              		.cfi_personality 0x9b,DW.ref.__gxx_personality_v0
 3195              		.cfi_lsda 0x1b,.LLSDA1211
 3196 1454 F30F1EFA 		endbr64
 3197 1458 55       		pushq	%rbp
 3198              		.cfi_def_cfa_offset 16
 3199              		.cfi_offset 6, -16
 3200 1459 4889E5   		movq	%rsp, %rbp
 3201              		.cfi_def_cfa_register 6
 3202 145c 4155     		pushq	%r13
 3203 145e 4154     		pushq	%r12
 3204 1460 53       		pushq	%rbx
 3205 1461 4881ECC8 		subq	$2248, %rsp
 3205      080000
 3206              		.cfi_offset 13, -24
 3207              		.cfi_offset 12, -32
 3208              		.cfi_offset 3, -40
 3209 1468 4889BD28 		movq	%rdi, -2264(%rbp)
 3209      F7FFFF
 3210              		.loc 6 101 1
 3211 146f 64488B04 		movq	%fs:40, %rax
 3211      25280000 
 3211      00
 3212 1478 488945D8 		movq	%rax, -40(%rbp)
 3213 147c 31C0     		xorl	%eax, %eax
 3214 147e C6853FF7 		movb	$0, -2241(%rbp)
 3214      FFFF00
 3215              	.LBB51:
 3216 1485 488B8528 		movq	-2264(%rbp), %rax
 3216      F7FFFF
 3217 148c 488D5008 		leaq	8(%rax), %rdx
 3218 1490 488D8570 		leaq	-2192(%rbp), %rax
 3218      F7FFFF
 3219 1497 4889D6   		movq	%rdx, %rsi
 3220 149a 4889C7   		movq	%rax, %rdi
 3221              	.LEHB70:
 3222 149d E818FFFF 		call	_ZN12_GLOBAL__N_158TestRunnerFixtureFailureCountIsZeroWhenNoTestsAreRunHelperC1ERKN8UnitTest1
 3222      FF
 3223              	.LEHE70:
 3224              		.loc 6 101 1 is_stmt 0 discriminator 1
 3225 14a2 C6853FF7 		movb	$1, -2241(%rbp)
 3225      FFFF01
 3226 14a9 488B8528 		movq	-2264(%rbp), %rax
 3226      F7FFFF
 3227 14b0 488D5008 		leaq	8(%rax), %rdx
 3228 14b4 488D8570 		leaq	-2192(%rbp), %rax
 3228      F7FFFF
 3229 14bb 4889D6   		movq	%rdx, %rsi
 3230 14be 4889C7   		movq	%rax, %rdi
 3231              	.LEHB71:
 3232 14c1 E8866400 		call	_ZN8UnitTest11ExecuteTestIN12_GLOBAL__N_158TestRunnerFixtureFailureCountIsZeroWhenNoTestsAreR
 3232      00
 3233              	.LEHE71:
 3234              		.loc 6 101 1 discriminator 3
 3235 14c6 488D8570 		leaq	-2192(%rbp), %rax
 3235      F7FFFF
 3236 14cd 4889C7   		movq	%rax, %rdi
 3237              	.LEHB72:
 3238 14d0 E863FFFF 		call	_ZN12_GLOBAL__N_158TestRunnerFixtureFailureCountIsZeroWhenNoTestsAreRunHelperD1Ev
 3238      FF
 3239              	.LEHE72:
 3240              	.LBE51:
 3241              		.loc 6 101 1
 3242 14d5 E9840200 		jmp	.L156
 3242      00
 3243              	.L171:
 3244 14da F30F1EFA 		endbr64
 3245              	.LBB52:
 3246 14de 4989C4   		movq	%rax, %r12
 3247 14e1 4889D3   		movq	%rdx, %rbx
 3248 14e4 488D8570 		leaq	-2192(%rbp), %rax
 3248      F7FFFF
 3249 14eb 4889C7   		movq	%rax, %rdi
 3250 14ee E845FFFF 		call	_ZN12_GLOBAL__N_158TestRunnerFixtureFailureCountIsZeroWhenNoTestsAreRunHelperD1Ev
 3250      FF
 3251 14f3 4C89E0   		movq	%r12, %rax
 3252 14f6 4889DA   		movq	%rbx, %rdx
 3253 14f9 EB04     		jmp	.L158
 3254              	.L170:
 3255 14fb F30F1EFA 		endbr64
 3256              	.L158:
 3257              	.LBE52:
 3258 14ff 4883FA01 		cmpq	$1, %rdx
 3259 1503 740F     		je	.L159
 3260 1505 4883FA02 		cmpq	$2, %rdx
 3261 1509 0F84A700 		je	.L160
 3261      0000
 3262 150f E94D0100 		jmp	.L176
 3262      00
 3263              	.L159:
 3264              	.LBB53:
 3265              		.loc 6 101 1 discriminator 4
 3266 1514 4889C7   		movq	%rax, %rdi
 3267 1517 E8000000 		call	__cxa_begin_catch@PLT
 3267      00
 3268 151c 48898548 		movq	%rax, -2232(%rbp)
 3268      F7FFFF
 3269              	.LEHB73:
 3270 1523 E8000000 		call	_ZN8UnitTest11CurrentTest7ResultsEv@PLT
 3270      00
 3271 1528 488B18   		movq	(%rax), %rbx
 3272 152b 488B8548 		movq	-2232(%rbp), %rax
 3272      F7FFFF
 3273 1532 488B00   		movq	(%rax), %rax
 3274 1535 4883C010 		addq	$16, %rax
 3275 1539 488B10   		movq	(%rax), %rdx
 3276 153c 488B8548 		movq	-2232(%rbp), %rax
 3276      F7FFFF
 3277 1543 4889C7   		movq	%rax, %rdi
 3278 1546 FFD2     		call	*%rdx
 3279              	.LVL6:
 3280 1548 4989C4   		movq	%rax, %r12
 3281 154b 488B8548 		movq	-2232(%rbp), %rax
 3281      F7FFFF
 3282 1552 4889C7   		movq	%rax, %rdi
 3283 1555 E8000000 		call	_ZNK8UnitTest15AssertException10LineNumberEv@PLT
 3283      00
 3284              		.loc 6 101 1 discriminator 8
 3285 155a 4189C5   		movl	%eax, %r13d
 3286 155d 488B8548 		movq	-2232(%rbp), %rax
 3286      F7FFFF
 3287 1564 4889C7   		movq	%rax, %rdi
 3288 1567 E8000000 		call	_ZNK8UnitTest15AssertException8FilenameEv@PLT
 3288      00
 3289              		.loc 6 101 1 discriminator 10
 3290 156c 4889C1   		movq	%rax, %rcx
 3291 156f 488B8528 		movq	-2264(%rbp), %rax
 3291      F7FFFF
 3292 1576 488B5008 		movq	8(%rax), %rdx
 3293 157a 488B8528 		movq	-2264(%rbp), %rax
 3293      F7FFFF
 3294 1581 488B7010 		movq	16(%rax), %rsi
 3295 1585 488D8550 		leaq	-2224(%rbp), %rax
 3295      F7FFFF
 3296 158c 4589E8   		movl	%r13d, %r8d
 3297 158f 4889C7   		movq	%rax, %rdi
 3298 1592 E8000000 		call	_ZN8UnitTest11TestDetailsC1EPKcS2_S2_i@PLT
 3298      00
 3299              		.loc 6 101 1 discriminator 14
 3300 1597 488D8550 		leaq	-2224(%rbp), %rax
 3300      F7FFFF
 3301 159e 4C89E2   		movq	%r12, %rdx
 3302 15a1 4889C6   		movq	%rax, %rsi
 3303 15a4 4889DF   		movq	%rbx, %rdi
 3304 15a7 E8000000 		call	_ZN8UnitTest11TestResults13OnTestFailureERKNS_11TestDetailsEPKc@PLT
 3304      00
 3305              	.LEHE73:
 3306              		.loc 6 101 1 discriminator 16
 3307 15ac E8000000 		call	__cxa_end_catch@PLT
 3307      00
 3308              	.LBE53:
 3309 15b1 E9A80100 		jmp	.L156
 3309      00
 3310              	.L160:
 3311              	.LBB54:
 3312              		.loc 6 101 1 discriminator 5
 3313 15b6 4889C7   		movq	%rax, %rdi
 3314 15b9 E8000000 		call	__cxa_begin_catch@PLT
 3314      00
 3315 15be 48898540 		movq	%rax, -2240(%rbp)
 3315      F7FFFF
 3316              	.LBB55:
 3317 15c5 488D8570 		leaq	-2192(%rbp), %rax
 3317      F7FFFF
 3318 15cc 4889C7   		movq	%rax, %rdi
 3319              	.LEHB74:
 3320 15cf E8000000 		call	_ZN8UnitTest15MemoryOutStreamC1Ev
 3320      00
 3321              	.LEHE74:
 3322              		.loc 6 101 1 discriminator 18
 3323 15d4 488D8570 		leaq	-2192(%rbp), %rax
 3323      F7FFFF
 3324 15db 488D1500 		leaq	.LC8(%rip), %rdx
 3324      000000
 3325 15e2 4889D6   		movq	%rdx, %rsi
 3326 15e5 4889C7   		movq	%rax, %rdi
 3327              	.LEHB75:
 3328 15e8 E8000000 		call	_ZStlsISt11char_traitsIcEERSt13basic_ostreamIcT_ES5_PKc@PLT
 3328      00
 3329 15ed 4889C3   		movq	%rax, %rbx
 3330 15f0 488B8540 		movq	-2240(%rbp), %rax
 3330      F7FFFF
 3331 15f7 488B00   		movq	(%rax), %rax
 3332 15fa 4883C010 		addq	$16, %rax
 3333 15fe 488B10   		movq	(%rax), %rdx
 3334 1601 488B8540 		movq	-2240(%rbp), %rax
 3334      F7FFFF
 3335 1608 4889C7   		movq	%rax, %rdi
 3336 160b FFD2     		call	*%rdx
 3337              	.LVL7:
 3338 160d 4889C6   		movq	%rax, %rsi
 3339 1610 4889DF   		movq	%rbx, %rdi
 3340 1613 E8000000 		call	_ZStlsISt11char_traitsIcEERSt13basic_ostreamIcT_ES5_PKc@PLT
 3340      00
 3341              		.loc 6 101 1 discriminator 22
 3342 1618 E8000000 		call	_ZN8UnitTest11CurrentTest7ResultsEv@PLT
 3342      00
 3343 161d 488B18   		movq	(%rax), %rbx
 3344 1620 488D8570 		leaq	-2192(%rbp), %rax
 3344      F7FFFF
 3345 1627 4889C7   		movq	%rax, %rdi
 3346 162a E8000000 		call	_ZNK8UnitTest15MemoryOutStream7GetTextEv@PLT
 3346      00
 3347              		.loc 6 101 1 discriminator 24
 3348 162f 4889C2   		movq	%rax, %rdx
 3349 1632 488B8528 		movq	-2264(%rbp), %rax
 3349      F7FFFF
 3350 1639 4883C008 		addq	$8, %rax
 3351 163d 4889C6   		movq	%rax, %rsi
 3352 1640 4889DF   		movq	%rbx, %rdi
 3353 1643 E8000000 		call	_ZN8UnitTest11TestResults13OnTestFailureERKNS_11TestDetailsEPKc@PLT
 3353      00
 3354              	.LEHE75:
 3355              		.loc 6 101 1 discriminator 28
 3356 1648 488D8570 		leaq	-2192(%rbp), %rax
 3356      F7FFFF
 3357 164f 4889C7   		movq	%rax, %rdi
 3358              	.LEHB76:
 3359 1652 E8000000 		call	_ZN8UnitTest15MemoryOutStreamD1Ev
 3359      00
 3360              	.LEHE76:
 3361              	.LBE55:
 3362              		.loc 6 101 1 discriminator 29
 3363 1657 E8000000 		call	__cxa_end_catch@PLT
 3363      00
 3364              	.LBE54:
 3365 165c E9FD0000 		jmp	.L156
 3365      00
 3366              	.L176:
 3367              		.loc 6 101 1 discriminator 6
 3368 1661 4889C7   		movq	%rax, %rdi
 3369 1664 E8000000 		call	__cxa_begin_catch@PLT
 3369      00
 3370 1669 80BD3FF7 		cmpb	$0, -2241(%rbp)
 3370      FFFF00
 3371 1670 7445     		je	.L163
 3372              	.LEHB77:
 3373              		.loc 6 101 1 discriminator 31
 3374 1672 E8000000 		call	_ZN8UnitTest11CurrentTest7ResultsEv@PLT
 3374      00
 3375 1677 488B18   		movq	(%rax), %rbx
 3376 167a 488B8528 		movq	-2264(%rbp), %rax
 3376      F7FFFF
 3377 1681 488D4808 		leaq	8(%rax), %rcx
 3378 1685 488D8550 		leaq	-2224(%rbp), %rax
 3378      F7FFFF
 3379 168c BA650000 		movl	$101, %edx
 3379      00
 3380 1691 4889CE   		movq	%rcx, %rsi
 3381 1694 4889C7   		movq	%rax, %rdi
 3382 1697 E8000000 		call	_ZN8UnitTest11TestDetailsC1ERKS0_i@PLT
 3382      00
 3383              		.loc 6 101 1 discriminator 36
 3384 169c 488D8550 		leaq	-2224(%rbp), %rax
 3384      F7FFFF
 3385 16a3 488D1500 		leaq	.LC9(%rip), %rdx
 3385      000000
 3386 16aa 4889C6   		movq	%rax, %rsi
 3387 16ad 4889DF   		movq	%rbx, %rdi
 3388 16b0 E8000000 		call	_ZN8UnitTest11TestResults13OnTestFailureERKNS_11TestDetailsEPKc@PLT
 3388      00
 3389 16b5 EB43     		jmp	.L164
 3390              	.L163:
 3391              		.loc 6 101 1 discriminator 32
 3392 16b7 E8000000 		call	_ZN8UnitTest11CurrentTest7ResultsEv@PLT
 3392      00
 3393 16bc 488B18   		movq	(%rax), %rbx
 3394 16bf 488B8528 		movq	-2264(%rbp), %rax
 3394      F7FFFF
 3395 16c6 488D4808 		leaq	8(%rax), %rcx
 3396 16ca 488D8550 		leaq	-2224(%rbp), %rax
 3396      F7FFFF
 3397 16d1 BA650000 		movl	$101, %edx
 3397      00
 3398 16d6 4889CE   		movq	%rcx, %rsi
 3399 16d9 4889C7   		movq	%rax, %rdi
 3400 16dc E8000000 		call	_ZN8UnitTest11TestDetailsC1ERKS0_i@PLT
 3400      00
 3401              		.loc 6 101 1 discriminator 43
 3402 16e1 488D8550 		leaq	-2224(%rbp), %rax
 3402      F7FFFF
 3403 16e8 488D1500 		leaq	.LC10(%rip), %rdx
 3403      000000
 3404 16ef 4889C6   		movq	%rax, %rsi
 3405 16f2 4889DF   		movq	%rbx, %rdi
 3406 16f5 E8000000 		call	_ZN8UnitTest11TestResults13OnTestFailureERKNS_11TestDetailsEPKc@PLT
 3406      00
 3407              	.LEHE77:
 3408              	.L164:
 3409              	.LEHB78:
 3410              		.loc 6 101 1 discriminator 46
 3411 16fa E8000000 		call	__cxa_end_catch@PLT
 3411      00
 3412 16ff EB5D     		jmp	.L156
 3413              	.L172:
 3414 1701 F30F1EFA 		endbr64
 3415              	.LBB57:
 3416              		.loc 6 101 1
 3417 1705 4889C3   		movq	%rax, %rbx
 3418 1708 E8000000 		call	__cxa_end_catch@PLT
 3418      00
 3419 170d 4889D8   		movq	%rbx, %rax
 3420 1710 4889C7   		movq	%rax, %rdi
 3421 1713 E8000000 		call	_Unwind_Resume@PLT
 3421      00
 3422              	.LEHE78:
 3423              	.L174:
 3424 1718 F30F1EFA 		endbr64
 3425              	.LBE57:
 3426              	.LBB58:
 3427              	.LBB56:
 3428 171c 4889C3   		movq	%rax, %rbx
 3429 171f 488D8570 		leaq	-2192(%rbp), %rax
 3429      F7FFFF
 3430 1726 4889C7   		movq	%rax, %rdi
 3431 1729 E8000000 		call	_ZN8UnitTest15MemoryOutStreamD1Ev
 3431      00
 3432 172e EB07     		jmp	.L167
 3433              	.L173:
 3434 1730 F30F1EFA 		endbr64
 3435              	.LBE56:
 3436 1734 4889C3   		movq	%rax, %rbx
 3437              	.L167:
 3438 1737 E8000000 		call	__cxa_end_catch@PLT
 3438      00
 3439 173c 4889D8   		movq	%rbx, %rax
 3440 173f 4889C7   		movq	%rax, %rdi
 3441              	.LEHB79:
 3442 1742 E8000000 		call	_Unwind_Resume@PLT
 3442      00
 3443              	.LEHE79:
 3444              	.L175:
 3445 1747 F30F1EFA 		endbr64
 3446              	.LBE58:
 3447 174b 4889C3   		movq	%rax, %rbx
 3448 174e E8000000 		call	__cxa_end_catch@PLT
 3448      00
 3449 1753 4889D8   		movq	%rbx, %rax
 3450 1756 4889C7   		movq	%rax, %rdi
 3451              	.LEHB80:
 3452 1759 E8000000 		call	_Unwind_Resume@PLT
 3452      00
 3453              	.LEHE80:
 3454              	.L156:
 3455 175e 488B45D8 		movq	-40(%rbp), %rax
 3456 1762 64482B04 		subq	%fs:40, %rax
 3456      25280000 
 3456      00
 3457 176b 7405     		je	.L169
 3458 176d E8000000 		call	__stack_chk_fail@PLT
 3458      00
 3459              	.L169:
 3460 1772 4881C4C8 		addq	$2248, %rsp
 3460      080000
 3461 1779 5B       		popq	%rbx
 3462 177a 415C     		popq	%r12
 3463 177c 415D     		popq	%r13
 3464 177e 5D       		popq	%rbp
 3465              		.cfi_def_cfa 7, 8
 3466 177f C3       		ret
 3467              		.cfi_endproc
 3468              	.LFE1211:
 3469              		.section	.gcc_except_table
 3470              		.align 4
 3471              	.LLSDA1211:
 3472 01e0 FF       		.byte	0xff
 3473 01e1 9B       		.byte	0x9b
 3474 01e2 55       		.uleb128 .LLSDATT1211-.LLSDATTD1211
 3475              	.LLSDATTD1211:
 3476 01e3 01       		.byte	0x1
 3477 01e4 3E       		.uleb128 .LLSDACSE1211-.LLSDACSB1211
 3478              	.LLSDACSB1211:
 3479 01e5 49       		.uleb128 .LEHB70-.LFB1211
 3480 01e6 05       		.uleb128 .LEHE70-.LEHB70
 3481 01e7 A701     		.uleb128 .L170-.LFB1211
 3482 01e9 05       		.uleb128 0x5
 3483 01ea 6D       		.uleb128 .LEHB71-.LFB1211
 3484 01eb 05       		.uleb128 .LEHE71-.LEHB71
 3485 01ec 8601     		.uleb128 .L171-.LFB1211
 3486 01ee 07       		.uleb128 0x7
 3487 01ef 7C       		.uleb128 .LEHB72-.LFB1211
 3488 01f0 05       		.uleb128 .LEHE72-.LEHB72
 3489 01f1 A701     		.uleb128 .L170-.LFB1211
 3490 01f3 05       		.uleb128 0x5
 3491 01f4 CF01     		.uleb128 .LEHB73-.LFB1211
 3492 01f6 8901     		.uleb128 .LEHE73-.LEHB73
 3493 01f8 AD05     		.uleb128 .L172-.LFB1211
 3494 01fa 00       		.uleb128 0
 3495 01fb FB02     		.uleb128 .LEHB74-.LFB1211
 3496 01fd 05       		.uleb128 .LEHE74-.LEHB74
 3497 01fe DC05     		.uleb128 .L173-.LFB1211
 3498 0200 00       		.uleb128 0
 3499 0201 9403     		.uleb128 .LEHB75-.LFB1211
 3500 0203 60       		.uleb128 .LEHE75-.LEHB75
 3501 0204 C405     		.uleb128 .L174-.LFB1211
 3502 0206 00       		.uleb128 0
 3503 0207 FE03     		.uleb128 .LEHB76-.LFB1211
 3504 0209 05       		.uleb128 .LEHE76-.LEHB76
 3505 020a DC05     		.uleb128 .L173-.LFB1211
 3506 020c 00       		.uleb128 0
 3507 020d 9E04     		.uleb128 .LEHB77-.LFB1211
 3508 020f 8801     		.uleb128 .LEHE77-.LEHB77
 3509 0211 F305     		.uleb128 .L175-.LFB1211
 3510 0213 00       		.uleb128 0
 3511 0214 A605     		.uleb128 .LEHB78-.LFB1211
 3512 0216 1E       		.uleb128 .LEHE78-.LEHB78
 3513 0217 00       		.uleb128 0
 3514 0218 00       		.uleb128 0
 3515 0219 EE05     		.uleb128 .LEHB79-.LFB1211
 3516 021b 05       		.uleb128 .LEHE79-.LEHB79
 3517 021c 00       		.uleb128 0
 3518 021d 00       		.uleb128 0
 3519 021e 8506     		.uleb128 .LEHB80-.LFB1211
 3520 0220 05       		.uleb128 .LEHE80-.LEHB80
 3521 0221 00       		.uleb128 0
 3522 0222 00       		.uleb128 0
 3523              	.LLSDACSE1211:
 3524 0223 03       		.byte	0x3
 3525 0224 00       		.byte	0
 3526 0225 02       		.byte	0x2
 3527 0226 7D       		.byte	0x7d
 3528 0227 01       		.byte	0x1
 3529 0228 7D       		.byte	0x7d
 3530 0229 00       		.byte	0
 3531 022a 7D       		.byte	0x7d
 3532 022b 00       		.align 4
 3533 022c 00000000 		.long	0
 3534              	
 3535 0230 00000000 		.long	DW.ref._ZTISt9exception-.
 3536 0234 00000000 		.long	DW.ref._ZTIN8UnitTest15AssertExceptionE-.
 3537              	.LLSDATT1211:
 3538              		.text
 3540              		.section	.rodata
 3541 036c 00000000 		.align 8
 3542              	.LC26:
 3543 0370 556E6861 		.string	"Unhandled exception in CHECK_EQUAL(0, RunTestsIf(list, NULL, True(), 0))"
 3543      6E646C65 
 3543      64206578 
 3543      63657074 
 3543      696F6E20 
 3544 03b9 00000000 		.align 8
 3544      000000
 3545              	.LC27:
 3546 03c0 556E6861 		.string	"Unhandled exception in CHECK_EQUAL(0, reporter.testRunCount)"
 3546      6E646C65 
 3546      64206578 
 3546      63657074 
 3546      696F6E20 
 3547 03fd 000000   		.align 8
 3548              	.LC28:
 3549 0400 556E6861 		.string	"Unhandled exception in CHECK_EQUAL(0, reporter.testFailedCount)"
 3549      6E646C65 
 3549      64206578 
 3549      63657074 
 3549      696F6E20 
 3550              		.text
 3551              		.align 2
 3553              	_ZN12_GLOBAL__N_158TestRunnerFixtureFailureCountIsZeroWhenNoTestsAreRunHelper7RunImplEv:
 3554              	.LFB1215:
 102:TestTestRunner.cpp **** {
 3555              		.loc 6 102 1 is_stmt 1
 3556              		.cfi_startproc
 3557              		.cfi_personality 0x9b,DW.ref.__gxx_personality_v0
 3558              		.cfi_lsda 0x1b,.LLSDA1215
 3559 1780 F30F1EFA 		endbr64
 3560 1784 55       		pushq	%rbp
 3561              		.cfi_def_cfa_offset 16
 3562              		.cfi_offset 6, -16
 3563 1785 4889E5   		movq	%rsp, %rbp
 3564              		.cfi_def_cfa_register 6
 3565 1788 53       		pushq	%rbx
 3566 1789 4883EC58 		subq	$88, %rsp
 3567              		.cfi_offset 3, -24
 3568 178d 48897DA8 		movq	%rdi, -88(%rbp)
 3569              		.loc 6 102 1
 3570 1791 64488B04 		movq	%fs:40, %rax
 3570      25280000 
 3570      00
 3571 179a 488945E8 		movq	%rax, -24(%rbp)
 3572 179e 31C0     		xorl	%eax, %eax
 3573              	.LEHB81:
 103:TestTestRunner.cpp **** 	CHECK_EQUAL(0, RunTestsIf(list, NULL, True(), 0));
 3574              		.loc 6 103 2
 3575 17a0 E8000000 		call	_ZN8UnitTest11CurrentTest7DetailsEv@PLT
 3575      00
 3576 17a5 488B08   		movq	(%rax), %rcx
 3577 17a8 488D45C0 		leaq	-64(%rbp), %rax
 3578 17ac BA670000 		movl	$103, %edx
 3578      00
 3579 17b1 4889CE   		movq	%rcx, %rsi
 3580 17b4 4889C7   		movq	%rax, %rdi
 3581 17b7 E8000000 		call	_ZN8UnitTest11TestDetailsC1ERKS0_i@PLT
 3581      00
 3582              		.loc 6 103 2 is_stmt 0 discriminator 4
 3583 17bc 488B45A8 		movq	-88(%rbp), %rax
 3584 17c0 488B55A8 		movq	-88(%rbp), %rdx
 3585 17c4 488DB248 		leaq	2120(%rdx), %rsi
 3585      080000
 3586 17cb 488D55B7 		leaq	-73(%rbp), %rdx
 3587 17cf 41B80000 		movl	$0, %r8d
 3587      0000
 3588 17d5 4889D1   		movq	%rdx, %rcx
 3589 17d8 BA000000 		movl	$0, %edx
 3589      00
 3590 17dd 4889C7   		movq	%rax, %rdi
 3591 17e0 E8175B00 		call	_ZN12_GLOBAL__N_111FixtureBase10RunTestsIfIN8UnitTest4TrueEEEiRKNS2_8TestListEPKcRKT_i
 3591      00
 3592 17e5 8945BC   		movl	%eax, -68(%rbp)
 3593 17e8 C745B800 		movl	$0, -72(%rbp)
 3593      000000
 3594 17ef E8000000 		call	_ZN8UnitTest11CurrentTest7ResultsEv@PLT
 3594      00
 3595              		.loc 6 103 2 discriminator 6
 3596 17f4 488B00   		movq	(%rax), %rax
 3597 17f7 488D4DC0 		leaq	-64(%rbp), %rcx
 3598 17fb 488D55BC 		leaq	-68(%rbp), %rdx
 3599 17ff 488D75B8 		leaq	-72(%rbp), %rsi
 3600 1803 4889C7   		movq	%rax, %rdi
 3601 1806 E8000000 		call	_ZN8UnitTest10CheckEqualIiiEEvRNS_11TestResultsERKT_RKT0_RKNS_11TestDetailsE
 3601      00
 3602              	.LEHE81:
 3603              	.L179:
 3604              	.LEHB82:
 104:TestTestRunner.cpp ****     CHECK_EQUAL(0, reporter.testRunCount);
 3605              		.loc 6 104 5 is_stmt 1
 3606 180b E8000000 		call	_ZN8UnitTest11CurrentTest7DetailsEv@PLT
 3606      00
 3607 1810 488B08   		movq	(%rax), %rcx
 3608 1813 488D45C0 		leaq	-64(%rbp), %rax
 3609 1817 BA680000 		movl	$104, %edx
 3609      00
 3610 181c 4889CE   		movq	%rcx, %rsi
 3611 181f 4889C7   		movq	%rax, %rdi
 3612 1822 E8000000 		call	_ZN8UnitTest11TestDetailsC1ERKS0_i@PLT
 3612      00
 3613              		.loc 6 104 5 is_stmt 0 discriminator 4
 3614 1827 488B45A8 		movq	-88(%rbp), %rax
 3615 182b 488D5820 		leaq	32(%rax), %rbx
 3616 182f C745BC00 		movl	$0, -68(%rbp)
 3616      000000
 3617 1836 E8000000 		call	_ZN8UnitTest11CurrentTest7ResultsEv@PLT
 3617      00
 3618 183b 488B00   		movq	(%rax), %rax
 3619 183e 488D55C0 		leaq	-64(%rbp), %rdx
 3620 1842 488D75BC 		leaq	-68(%rbp), %rsi
 3621 1846 4889D1   		movq	%rdx, %rcx
 3622 1849 4889DA   		movq	%rbx, %rdx
 3623 184c 4889C7   		movq	%rax, %rdi
 3624 184f E8000000 		call	_ZN8UnitTest10CheckEqualIiiEEvRNS_11TestResultsERKT_RKT0_RKNS_11TestDetailsE
 3624      00
 3625              	.LEHE82:
 3626              	.L182:
 3627              	.LEHB83:
 105:TestTestRunner.cpp ****     CHECK_EQUAL(0, reporter.testFailedCount);
 3628              		.loc 6 105 5 is_stmt 1
 3629 1854 E8000000 		call	_ZN8UnitTest11CurrentTest7DetailsEv@PLT
 3629      00
 3630 1859 488B08   		movq	(%rax), %rcx
 3631 185c 488D45C0 		leaq	-64(%rbp), %rax
 3632 1860 BA690000 		movl	$105, %edx
 3632      00
 3633 1865 4889CE   		movq	%rcx, %rsi
 3634 1868 4889C7   		movq	%rax, %rdi
 3635 186b E8000000 		call	_ZN8UnitTest11TestDetailsC1ERKS0_i@PLT
 3635      00
 3636              		.loc 6 105 5 is_stmt 0 discriminator 4
 3637 1870 488B45A8 		movq	-88(%rbp), %rax
 3638 1874 488D9824 		leaq	548(%rax), %rbx
 3638      020000
 3639 187b C745BC00 		movl	$0, -68(%rbp)
 3639      000000
 3640 1882 E8000000 		call	_ZN8UnitTest11CurrentTest7ResultsEv@PLT
 3640      00
 3641 1887 488B00   		movq	(%rax), %rax
 3642 188a 488D55C0 		leaq	-64(%rbp), %rdx
 3643 188e 488D75BC 		leaq	-68(%rbp), %rsi
 3644 1892 4889D1   		movq	%rdx, %rcx
 3645 1895 4889DA   		movq	%rbx, %rdx
 3646 1898 4889C7   		movq	%rax, %rdi
 3647 189b E8000000 		call	_ZN8UnitTest10CheckEqualIiiEEvRNS_11TestResultsERKT_RKT0_RKNS_11TestDetailsE
 3647      00
 3648              	.LEHE83:
 106:TestTestRunner.cpp **** }
 3649              		.loc 6 106 1 is_stmt 1
 3650 18a0 E9320100 		jmp	.L177
 3650      00
 3651              	.L188:
 3652 18a5 F30F1EFA 		endbr64
 103:TestTestRunner.cpp ****     CHECK_EQUAL(0, reporter.testRunCount);
 3653              		.loc 6 103 2
 3654 18a9 4889C7   		movq	%rax, %rdi
 3655 18ac E8000000 		call	__cxa_begin_catch@PLT
 3655      00
 3656              	.LEHB84:
 3657 18b1 E8000000 		call	_ZN8UnitTest11CurrentTest7ResultsEv@PLT
 3657      00
 103:TestTestRunner.cpp ****     CHECK_EQUAL(0, reporter.testRunCount);
 3658              		.loc 6 103 2 is_stmt 0 discriminator 3
 3659 18b6 488B18   		movq	(%rax), %rbx
 3660 18b9 E8000000 		call	_ZN8UnitTest11CurrentTest7DetailsEv@PLT
 3660      00
 103:TestTestRunner.cpp ****     CHECK_EQUAL(0, reporter.testRunCount);
 3661              		.loc 6 103 2 discriminator 13
 3662 18be 488B08   		movq	(%rax), %rcx
 3663 18c1 488D45C0 		leaq	-64(%rbp), %rax
 3664 18c5 BA670000 		movl	$103, %edx
 3664      00
 3665 18ca 4889CE   		movq	%rcx, %rsi
 3666 18cd 4889C7   		movq	%rax, %rdi
 3667 18d0 E8000000 		call	_ZN8UnitTest11TestDetailsC1ERKS0_i@PLT
 3667      00
 103:TestTestRunner.cpp ****     CHECK_EQUAL(0, reporter.testRunCount);
 3668              		.loc 6 103 2 discriminator 17
 3669 18d5 488D45C0 		leaq	-64(%rbp), %rax
 3670 18d9 488D1500 		leaq	.LC26(%rip), %rdx
 3670      000000
 3671 18e0 4889C6   		movq	%rax, %rsi
 3672 18e3 4889DF   		movq	%rbx, %rdi
 3673 18e6 E8000000 		call	_ZN8UnitTest11TestResults13OnTestFailureERKNS_11TestDetailsEPKc@PLT
 3673      00
 3674              	.LEHE84:
 3675              	.LEHB85:
 103:TestTestRunner.cpp ****     CHECK_EQUAL(0, reporter.testRunCount);
 3676              		.loc 6 103 2 discriminator 19
 3677 18eb E8000000 		call	__cxa_end_catch@PLT
 3677      00
 3678              	.LEHE85:
 3679 18f0 E916FFFF 		jmp	.L179
 3679      FF
 3680              	.L189:
 3681 18f5 F30F1EFA 		endbr64
 103:TestTestRunner.cpp ****     CHECK_EQUAL(0, reporter.testRunCount);
 3682              		.loc 6 103 2
 3683 18f9 4889C3   		movq	%rax, %rbx
 3684 18fc E8000000 		call	__cxa_end_catch@PLT
 3684      00
 3685 1901 4889D8   		movq	%rbx, %rax
 3686 1904 4889C7   		movq	%rax, %rdi
 3687              	.LEHB86:
 3688 1907 E8000000 		call	_Unwind_Resume@PLT
 3688      00
 3689              	.LEHE86:
 3690              	.L190:
 3691 190c F30F1EFA 		endbr64
 104:TestTestRunner.cpp ****     CHECK_EQUAL(0, reporter.testFailedCount);
 3692              		.loc 6 104 5 is_stmt 1
 3693 1910 4889C7   		movq	%rax, %rdi
 3694 1913 E8000000 		call	__cxa_begin_catch@PLT
 3694      00
 3695              	.LEHB87:
 3696 1918 E8000000 		call	_ZN8UnitTest11CurrentTest7ResultsEv@PLT
 3696      00
 104:TestTestRunner.cpp ****     CHECK_EQUAL(0, reporter.testFailedCount);
 3697              		.loc 6 104 5 is_stmt 0 discriminator 3
 3698 191d 488B18   		movq	(%rax), %rbx
 3699 1920 E8000000 		call	_ZN8UnitTest11CurrentTest7DetailsEv@PLT
 3699      00
 104:TestTestRunner.cpp ****     CHECK_EQUAL(0, reporter.testFailedCount);
 3700              		.loc 6 104 5 discriminator 11
 3701 1925 488B08   		movq	(%rax), %rcx
 3702 1928 488D45C0 		leaq	-64(%rbp), %rax
 3703 192c BA680000 		movl	$104, %edx
 3703      00
 3704 1931 4889CE   		movq	%rcx, %rsi
 3705 1934 4889C7   		movq	%rax, %rdi
 3706 1937 E8000000 		call	_ZN8UnitTest11TestDetailsC1ERKS0_i@PLT
 3706      00
 104:TestTestRunner.cpp ****     CHECK_EQUAL(0, reporter.testFailedCount);
 3707              		.loc 6 104 5 discriminator 15
 3708 193c 488D45C0 		leaq	-64(%rbp), %rax
 3709 1940 488D1500 		leaq	.LC27(%rip), %rdx
 3709      000000
 3710 1947 4889C6   		movq	%rax, %rsi
 3711 194a 4889DF   		movq	%rbx, %rdi
 3712 194d E8000000 		call	_ZN8UnitTest11TestResults13OnTestFailureERKNS_11TestDetailsEPKc@PLT
 3712      00
 3713              	.LEHE87:
 3714              	.LEHB88:
 104:TestTestRunner.cpp ****     CHECK_EQUAL(0, reporter.testFailedCount);
 3715              		.loc 6 104 5 discriminator 17
 3716 1952 E8000000 		call	__cxa_end_catch@PLT
 3716      00
 3717              	.LEHE88:
 3718 1957 E9F8FEFF 		jmp	.L182
 3718      FF
 3719              	.L191:
 3720 195c F30F1EFA 		endbr64
 104:TestTestRunner.cpp ****     CHECK_EQUAL(0, reporter.testFailedCount);
 3721              		.loc 6 104 5
 3722 1960 4889C3   		movq	%rax, %rbx
 3723 1963 E8000000 		call	__cxa_end_catch@PLT
 3723      00
 3724 1968 4889D8   		movq	%rbx, %rax
 3725 196b 4889C7   		movq	%rax, %rdi
 3726              	.LEHB89:
 3727 196e E8000000 		call	_Unwind_Resume@PLT
 3727      00
 3728              	.LEHE89:
 3729              	.L192:
 3730 1973 F30F1EFA 		endbr64
 105:TestTestRunner.cpp **** }
 3731              		.loc 6 105 5 is_stmt 1
 3732 1977 4889C7   		movq	%rax, %rdi
 3733 197a E8000000 		call	__cxa_begin_catch@PLT
 3733      00
 3734              	.LEHB90:
 3735 197f E8000000 		call	_ZN8UnitTest11CurrentTest7ResultsEv@PLT
 3735      00
 105:TestTestRunner.cpp **** }
 3736              		.loc 6 105 5 is_stmt 0 discriminator 3
 3737 1984 488B18   		movq	(%rax), %rbx
 3738 1987 E8000000 		call	_ZN8UnitTest11CurrentTest7DetailsEv@PLT
 3738      00
 105:TestTestRunner.cpp **** }
 3739              		.loc 6 105 5 discriminator 11
 3740 198c 488B08   		movq	(%rax), %rcx
 3741 198f 488D45C0 		leaq	-64(%rbp), %rax
 3742 1993 BA690000 		movl	$105, %edx
 3742      00
 3743 1998 4889CE   		movq	%rcx, %rsi
 3744 199b 4889C7   		movq	%rax, %rdi
 3745 199e E8000000 		call	_ZN8UnitTest11TestDetailsC1ERKS0_i@PLT
 3745      00
 105:TestTestRunner.cpp **** }
 3746              		.loc 6 105 5 discriminator 15
 3747 19a3 488D45C0 		leaq	-64(%rbp), %rax
 3748 19a7 488D1500 		leaq	.LC28(%rip), %rdx
 3748      000000
 3749 19ae 4889C6   		movq	%rax, %rsi
 3750 19b1 4889DF   		movq	%rbx, %rdi
 3751 19b4 E8000000 		call	_ZN8UnitTest11TestResults13OnTestFailureERKNS_11TestDetailsEPKc@PLT
 3751      00
 3752              	.LEHE90:
 3753              	.LEHB91:
 105:TestTestRunner.cpp **** }
 3754              		.loc 6 105 5 discriminator 17
 3755 19b9 E8000000 		call	__cxa_end_catch@PLT
 3755      00
 3756              	.LEHE91:
 3757              		.loc 6 106 1 is_stmt 1 discriminator 17
 3758 19be EB17     		jmp	.L177
 3759              	.L193:
 3760 19c0 F30F1EFA 		endbr64
 105:TestTestRunner.cpp **** }
 3761              		.loc 6 105 5
 3762 19c4 4889C3   		movq	%rax, %rbx
 3763 19c7 E8000000 		call	__cxa_end_catch@PLT
 3763      00
 3764 19cc 4889D8   		movq	%rbx, %rax
 3765 19cf 4889C7   		movq	%rax, %rdi
 3766              	.LEHB92:
 3767 19d2 E8000000 		call	_Unwind_Resume@PLT
 3767      00
 3768              	.LEHE92:
 3769              	.L177:
 3770              		.loc 6 106 1
 3771 19d7 488B45E8 		movq	-24(%rbp), %rax
 3772 19db 64482B04 		subq	%fs:40, %rax
 3772      25280000 
 3772      00
 3773 19e4 7405     		je	.L187
 3774 19e6 E8000000 		call	__stack_chk_fail@PLT
 3774      00
 3775              	.L187:
 3776 19eb 488B5DF8 		movq	-8(%rbp), %rbx
 3777 19ef C9       		leave
 3778              		.cfi_def_cfa 7, 8
 3779 19f0 C3       		ret
 3780              		.cfi_endproc
 3781              	.LFE1215:
 3782              		.section	.gcc_except_table
 3783              		.align 4
 3784              	.LLSDA1215:
 3785 0238 FF       		.byte	0xff
 3786 0239 9B       		.byte	0x9b
 3787 023a 49       		.uleb128 .LLSDATT1215-.LLSDATTD1215
 3788              	.LLSDATTD1215:
 3789 023b 01       		.byte	0x1
 3790 023c 41       		.uleb128 .LLSDACSE1215-.LLSDACSB1215
 3791              	.LLSDACSB1215:
 3792 023d 20       		.uleb128 .LEHB81-.LFB1215
 3793 023e 6B       		.uleb128 .LEHE81-.LEHB81
 3794 023f A502     		.uleb128 .L188-.LFB1215
 3795 0241 01       		.uleb128 0x1
 3796 0242 8B01     		.uleb128 .LEHB82-.LFB1215
 3797 0244 49       		.uleb128 .LEHE82-.LEHB82
 3798 0245 8C03     		.uleb128 .L190-.LFB1215
 3799 0247 01       		.uleb128 0x1
 3800 0248 D401     		.uleb128 .LEHB83-.LFB1215
 3801 024a 4C       		.uleb128 .LEHE83-.LEHB83
 3802 024b F303     		.uleb128 .L192-.LFB1215
 3803 024d 01       		.uleb128 0x1
 3804 024e B102     		.uleb128 .LEHB84-.LFB1215
 3805 0250 3A       		.uleb128 .LEHE84-.LEHB84
 3806 0251 F502     		.uleb128 .L189-.LFB1215
 3807 0253 00       		.uleb128 0
 3808 0254 EB02     		.uleb128 .LEHB85-.LFB1215
 3809 0256 05       		.uleb128 .LEHE85-.LEHB85
 3810 0257 00       		.uleb128 0
 3811 0258 00       		.uleb128 0
 3812 0259 8703     		.uleb128 .LEHB86-.LFB1215
 3813 025b 05       		.uleb128 .LEHE86-.LEHB86
 3814 025c 00       		.uleb128 0
 3815 025d 00       		.uleb128 0
 3816 025e 9803     		.uleb128 .LEHB87-.LFB1215
 3817 0260 3A       		.uleb128 .LEHE87-.LEHB87
 3818 0261 DC03     		.uleb128 .L191-.LFB1215
 3819 0263 00       		.uleb128 0
 3820 0264 D203     		.uleb128 .LEHB88-.LFB1215
 3821 0266 05       		.uleb128 .LEHE88-.LEHB88
 3822 0267 00       		.uleb128 0
 3823 0268 00       		.uleb128 0
 3824 0269 EE03     		.uleb128 .LEHB89-.LFB1215
 3825 026b 05       		.uleb128 .LEHE89-.LEHB89
 3826 026c 00       		.uleb128 0
 3827 026d 00       		.uleb128 0
 3828 026e FF03     		.uleb128 .LEHB90-.LFB1215
 3829 0270 3A       		.uleb128 .LEHE90-.LEHB90
 3830 0271 C004     		.uleb128 .L193-.LFB1215
 3831 0273 00       		.uleb128 0
 3832 0274 B904     		.uleb128 .LEHB91-.LFB1215
 3833 0276 05       		.uleb128 .LEHE91-.LEHB91
 3834 0277 00       		.uleb128 0
 3835 0278 00       		.uleb128 0
 3836 0279 D204     		.uleb128 .LEHB92-.LFB1215
 3837 027b 05       		.uleb128 .LEHE92-.LEHB92
 3838 027c 00       		.uleb128 0
 3839 027d 00       		.uleb128 0
 3840              	.LLSDACSE1215:
 3841 027e 01       		.byte	0x1
 3842 027f 00       		.byte	0
 3843              		.align 4
 3844 0280 00000000 		.long	0
 3845              	
 3846              	.LLSDATT1215:
 3847              		.text
 3849 19f1 90       		.align 2
 3851              	_ZN12_GLOBAL__N_159TestRunnerFixtureCallsReportFailureOncePerFailingTestHelperC2ERKN8UnitTest11Test
 3852              	.LFB1217:
 107:TestTestRunner.cpp **** 
 108:TestTestRunner.cpp **** TEST_FIXTURE(TestRunnerFixture, CallsReportFailureOncePerFailingTest)
 3853              		.loc 6 108 1
 3854              		.cfi_startproc
 3855 19f2 55       		pushq	%rbp
 3856              		.cfi_def_cfa_offset 16
 3857              		.cfi_offset 6, -16
 3858 19f3 4889E5   		movq	%rsp, %rbp
 3859              		.cfi_def_cfa_register 6
 3860 19f6 4883EC10 		subq	$16, %rsp
 3861 19fa 48897DF8 		movq	%rdi, -8(%rbp)
 3862 19fe 488975F0 		movq	%rsi, -16(%rbp)
 3863              	.LBB59:
 3864              		.loc 6 108 1
 3865 1a02 488B45F8 		movq	-8(%rbp), %rax
 3866 1a06 4889C7   		movq	%rax, %rdi
 3867 1a09 E87EE7FF 		call	_ZN12_GLOBAL__N_117TestRunnerFixtureC2Ev
 3867      FF
 3868 1a0e 488B45F8 		movq	-8(%rbp), %rax
 3869 1a12 488B55F0 		movq	-16(%rbp), %rdx
 3870 1a16 48899058 		movq	%rdx, 2136(%rax)
 3870      080000
 3871              	.LBE59:
 3872 1a1d 90       		nop
 3873 1a1e C9       		leave
 3874              		.cfi_def_cfa 7, 8
 3875 1a1f C3       		ret
 3876              		.cfi_endproc
 3877              	.LFE1217:
 3879              		.set	_ZN12_GLOBAL__N_159TestRunnerFixtureCallsReportFailureOncePerFailingTestHelperC1ERKN8UnitTest
 3880              		.section	.rodata
 3881              		.align 8
 3882              	.LC29:
 3883 0440 43616C6C 		.string	"CallsReportFailureOncePerFailingTest"
 3883      73526570 
 3883      6F727446 
 3883      61696C75 
 3883      72654F6E 
 3884              		.text
 3885              		.align 2
 3887              	_ZN12_GLOBAL__N_157TestTestRunnerFixtureCallsReportFailureOncePerFailingTestC2Ev:
 3888              	.LFB1220:
 3889              		.loc 6 108 1
 3890              		.cfi_startproc
 3891 1a20 55       		pushq	%rbp
 3892              		.cfi_def_cfa_offset 16
 3893              		.cfi_offset 6, -16
 3894 1a21 4889E5   		movq	%rsp, %rbp
 3895              		.cfi_def_cfa_register 6
 3896 1a24 53       		pushq	%rbx
 3897 1a25 4883EC18 		subq	$24, %rsp
 3898              		.cfi_offset 3, -24
 3899 1a29 48897DE8 		movq	%rdi, -24(%rbp)
 3900              	.LBB60:
 3901              		.loc 6 108 1
 3902 1a2d 488B5DE8 		movq	-24(%rbp), %rbx
 3903 1a31 E8000000 		call	_ZN13UnitTestSuite12GetSuiteNameEv
 3903      00
 3904 1a36 4889C2   		movq	%rax, %rdx
 3905 1a39 41B86C00 		movl	$108, %r8d
 3905      0000
 3906 1a3f 488D0500 		leaq	.LC6(%rip), %rax
 3906      000000
 3907 1a46 4889C1   		movq	%rax, %rcx
 3908 1a49 488D0500 		leaq	.LC29(%rip), %rax
 3908      000000
 3909 1a50 4889C6   		movq	%rax, %rsi
 3910 1a53 4889DF   		movq	%rbx, %rdi
 3911 1a56 E8000000 		call	_ZN8UnitTest4TestC2EPKcS2_S2_i@PLT
 3911      00
 3912 1a5b 488D1500 		leaq	16+_ZTVN12_GLOBAL__N_157TestTestRunnerFixtureCallsReportFailureOncePerFailingTestE(%rip), %rd
 3912      000000
 3913 1a62 488B45E8 		movq	-24(%rbp), %rax
 3914 1a66 488910   		movq	%rdx, (%rax)
 3915              	.LBE60:
 3916 1a69 90       		nop
 3917 1a6a 488B5DF8 		movq	-8(%rbp), %rbx
 3918 1a6e C9       		leave
 3919              		.cfi_def_cfa 7, 8
 3920 1a6f C3       		ret
 3921              		.cfi_endproc
 3922              	.LFE1220:
 3924              		.set	_ZN12_GLOBAL__N_157TestTestRunnerFixtureCallsReportFailureOncePerFailingTestC1Ev,_ZN12_GLOBAL
 3925              		.local	_ZN12_GLOBAL__N_165testTestRunnerFixtureCallsReportFailureOncePerFailingTestInstanceE
 3926              		.comm	_ZN12_GLOBAL__N_165testTestRunnerFixtureCallsReportFailureOncePerFailingTestInstanceE,56,32
 3927              		.local	_ZN12_GLOBAL__N_158adderTestRunnerFixtureCallsReportFailureOncePerFailingTestE
 3928              		.comm	_ZN12_GLOBAL__N_158adderTestRunnerFixtureCallsReportFailureOncePerFailingTestE,1,1
 3929              		.align 2
 3931              	_ZN12_GLOBAL__N_159TestRunnerFixtureCallsReportFailureOncePerFailingTestHelperD2Ev:
 3932              	.LFB1224:
 3933              		.loc 6 108 1
 3934              		.cfi_startproc
 3935 1a70 55       		pushq	%rbp
 3936              		.cfi_def_cfa_offset 16
 3937              		.cfi_offset 6, -16
 3938 1a71 4889E5   		movq	%rsp, %rbp
 3939              		.cfi_def_cfa_register 6
 3940 1a74 4883EC10 		subq	$16, %rsp
 3941 1a78 48897DF8 		movq	%rdi, -8(%rbp)
 3942              	.LBB61:
 3943              		.loc 6 108 1
 3944 1a7c 488B45F8 		movq	-8(%rbp), %rax
 3945 1a80 4889C7   		movq	%rax, %rdi
 3946 1a83 E856E7FF 		call	_ZN12_GLOBAL__N_117TestRunnerFixtureD2Ev
 3946      FF
 3947              	.LBE61:
 3948 1a88 90       		nop
 3949 1a89 C9       		leave
 3950              		.cfi_def_cfa 7, 8
 3951 1a8a C3       		ret
 3952              		.cfi_endproc
 3953              	.LFE1224:
 3955              		.set	_ZN12_GLOBAL__N_159TestRunnerFixtureCallsReportFailureOncePerFailingTestHelperD1Ev,_ZN12_GLOB
 3956 1a8b 90       		.align 2
 3958              	_ZNK12_GLOBAL__N_157TestTestRunnerFixtureCallsReportFailureOncePerFailingTest7RunImplEv:
 3959              	.LFB1222:
 3960              		.loc 6 108 1
 3961              		.cfi_startproc
 3962              		.cfi_personality 0x9b,DW.ref.__gxx_personality_v0
 3963              		.cfi_lsda 0x1b,.LLSDA1222
 3964 1a8c F30F1EFA 		endbr64
 3965 1a90 55       		pushq	%rbp
 3966              		.cfi_def_cfa_offset 16
 3967              		.cfi_offset 6, -16
 3968 1a91 4889E5   		movq	%rsp, %rbp
 3969              		.cfi_def_cfa_register 6
 3970 1a94 4155     		pushq	%r13
 3971 1a96 4154     		pushq	%r12
 3972 1a98 53       		pushq	%rbx
 3973 1a99 4881ECC8 		subq	$2248, %rsp
 3973      080000
 3974              		.cfi_offset 13, -24
 3975              		.cfi_offset 12, -32
 3976              		.cfi_offset 3, -40
 3977 1aa0 4889BD28 		movq	%rdi, -2264(%rbp)
 3977      F7FFFF
 3978              		.loc 6 108 1
 3979 1aa7 64488B04 		movq	%fs:40, %rax
 3979      25280000 
 3979      00
 3980 1ab0 488945D8 		movq	%rax, -40(%rbp)
 3981 1ab4 31C0     		xorl	%eax, %eax
 3982 1ab6 C6853FF7 		movb	$0, -2241(%rbp)
 3982      FFFF00
 3983              	.LBB62:
 3984 1abd 488B8528 		movq	-2264(%rbp), %rax
 3984      F7FFFF
 3985 1ac4 488D5008 		leaq	8(%rax), %rdx
 3986 1ac8 488D8570 		leaq	-2192(%rbp), %rax
 3986      F7FFFF
 3987 1acf 4889D6   		movq	%rdx, %rsi
 3988 1ad2 4889C7   		movq	%rax, %rdi
 3989              	.LEHB93:
 3990 1ad5 E818FFFF 		call	_ZN12_GLOBAL__N_159TestRunnerFixtureCallsReportFailureOncePerFailingTestHelperC1ERKN8UnitTest
 3990      FF
 3991              	.LEHE93:
 3992              		.loc 6 108 1 is_stmt 0 discriminator 1
 3993 1ada C6853FF7 		movb	$1, -2241(%rbp)
 3993      FFFF01
 3994 1ae1 488B8528 		movq	-2264(%rbp), %rax
 3994      F7FFFF
 3995 1ae8 488D5008 		leaq	8(%rax), %rdx
 3996 1aec 488D8570 		leaq	-2192(%rbp), %rax
 3996      F7FFFF
 3997 1af3 4889D6   		movq	%rdx, %rsi
 3998 1af6 4889C7   		movq	%rax, %rdi
 3999              	.LEHB94:
 4000 1af9 E83D6100 		call	_ZN8UnitTest11ExecuteTestIN12_GLOBAL__N_159TestRunnerFixtureCallsReportFailureOncePerFailingT
 4000      00
 4001              	.LEHE94:
 4002              		.loc 6 108 1 discriminator 3
 4003 1afe 488D8570 		leaq	-2192(%rbp), %rax
 4003      F7FFFF
 4004 1b05 4889C7   		movq	%rax, %rdi
 4005              	.LEHB95:
 4006 1b08 E863FFFF 		call	_ZN12_GLOBAL__N_159TestRunnerFixtureCallsReportFailureOncePerFailingTestHelperD1Ev
 4006      FF
 4007              	.LEHE95:
 4008              	.LBE62:
 4009              		.loc 6 108 1
 4010 1b0d E9840200 		jmp	.L197
 4010      00
 4011              	.L212:
 4012 1b12 F30F1EFA 		endbr64
 4013              	.LBB63:
 4014 1b16 4989C4   		movq	%rax, %r12
 4015 1b19 4889D3   		movq	%rdx, %rbx
 4016 1b1c 488D8570 		leaq	-2192(%rbp), %rax
 4016      F7FFFF
 4017 1b23 4889C7   		movq	%rax, %rdi
 4018 1b26 E845FFFF 		call	_ZN12_GLOBAL__N_159TestRunnerFixtureCallsReportFailureOncePerFailingTestHelperD1Ev
 4018      FF
 4019 1b2b 4C89E0   		movq	%r12, %rax
 4020 1b2e 4889DA   		movq	%rbx, %rdx
 4021 1b31 EB04     		jmp	.L199
 4022              	.L211:
 4023 1b33 F30F1EFA 		endbr64
 4024              	.L199:
 4025              	.LBE63:
 4026 1b37 4883FA01 		cmpq	$1, %rdx
 4027 1b3b 740F     		je	.L200
 4028 1b3d 4883FA02 		cmpq	$2, %rdx
 4029 1b41 0F84A700 		je	.L201
 4029      0000
 4030 1b47 E94D0100 		jmp	.L217
 4030      00
 4031              	.L200:
 4032              	.LBB64:
 4033              		.loc 6 108 1 discriminator 4
 4034 1b4c 4889C7   		movq	%rax, %rdi
 4035 1b4f E8000000 		call	__cxa_begin_catch@PLT
 4035      00
 4036 1b54 48898548 		movq	%rax, -2232(%rbp)
 4036      F7FFFF
 4037              	.LEHB96:
 4038 1b5b E8000000 		call	_ZN8UnitTest11CurrentTest7ResultsEv@PLT
 4038      00
 4039 1b60 488B18   		movq	(%rax), %rbx
 4040 1b63 488B8548 		movq	-2232(%rbp), %rax
 4040      F7FFFF
 4041 1b6a 488B00   		movq	(%rax), %rax
 4042 1b6d 4883C010 		addq	$16, %rax
 4043 1b71 488B10   		movq	(%rax), %rdx
 4044 1b74 488B8548 		movq	-2232(%rbp), %rax
 4044      F7FFFF
 4045 1b7b 4889C7   		movq	%rax, %rdi
 4046 1b7e FFD2     		call	*%rdx
 4047              	.LVL8:
 4048 1b80 4989C4   		movq	%rax, %r12
 4049 1b83 488B8548 		movq	-2232(%rbp), %rax
 4049      F7FFFF
 4050 1b8a 4889C7   		movq	%rax, %rdi
 4051 1b8d E8000000 		call	_ZNK8UnitTest15AssertException10LineNumberEv@PLT
 4051      00
 4052              		.loc 6 108 1 discriminator 8
 4053 1b92 4189C5   		movl	%eax, %r13d
 4054 1b95 488B8548 		movq	-2232(%rbp), %rax
 4054      F7FFFF
 4055 1b9c 4889C7   		movq	%rax, %rdi
 4056 1b9f E8000000 		call	_ZNK8UnitTest15AssertException8FilenameEv@PLT
 4056      00
 4057              		.loc 6 108 1 discriminator 10
 4058 1ba4 4889C1   		movq	%rax, %rcx
 4059 1ba7 488B8528 		movq	-2264(%rbp), %rax
 4059      F7FFFF
 4060 1bae 488B5008 		movq	8(%rax), %rdx
 4061 1bb2 488B8528 		movq	-2264(%rbp), %rax
 4061      F7FFFF
 4062 1bb9 488B7010 		movq	16(%rax), %rsi
 4063 1bbd 488D8550 		leaq	-2224(%rbp), %rax
 4063      F7FFFF
 4064 1bc4 4589E8   		movl	%r13d, %r8d
 4065 1bc7 4889C7   		movq	%rax, %rdi
 4066 1bca E8000000 		call	_ZN8UnitTest11TestDetailsC1EPKcS2_S2_i@PLT
 4066      00
 4067              		.loc 6 108 1 discriminator 14
 4068 1bcf 488D8550 		leaq	-2224(%rbp), %rax
 4068      F7FFFF
 4069 1bd6 4C89E2   		movq	%r12, %rdx
 4070 1bd9 4889C6   		movq	%rax, %rsi
 4071 1bdc 4889DF   		movq	%rbx, %rdi
 4072 1bdf E8000000 		call	_ZN8UnitTest11TestResults13OnTestFailureERKNS_11TestDetailsEPKc@PLT
 4072      00
 4073              	.LEHE96:
 4074              		.loc 6 108 1 discriminator 16
 4075 1be4 E8000000 		call	__cxa_end_catch@PLT
 4075      00
 4076              	.LBE64:
 4077 1be9 E9A80100 		jmp	.L197
 4077      00
 4078              	.L201:
 4079              	.LBB65:
 4080              		.loc 6 108 1 discriminator 5
 4081 1bee 4889C7   		movq	%rax, %rdi
 4082 1bf1 E8000000 		call	__cxa_begin_catch@PLT
 4082      00
 4083 1bf6 48898540 		movq	%rax, -2240(%rbp)
 4083      F7FFFF
 4084              	.LBB66:
 4085 1bfd 488D8570 		leaq	-2192(%rbp), %rax
 4085      F7FFFF
 4086 1c04 4889C7   		movq	%rax, %rdi
 4087              	.LEHB97:
 4088 1c07 E8000000 		call	_ZN8UnitTest15MemoryOutStreamC1Ev
 4088      00
 4089              	.LEHE97:
 4090              		.loc 6 108 1 discriminator 18
 4091 1c0c 488D8570 		leaq	-2192(%rbp), %rax
 4091      F7FFFF
 4092 1c13 488D1500 		leaq	.LC8(%rip), %rdx
 4092      000000
 4093 1c1a 4889D6   		movq	%rdx, %rsi
 4094 1c1d 4889C7   		movq	%rax, %rdi
 4095              	.LEHB98:
 4096 1c20 E8000000 		call	_ZStlsISt11char_traitsIcEERSt13basic_ostreamIcT_ES5_PKc@PLT
 4096      00
 4097 1c25 4889C3   		movq	%rax, %rbx
 4098 1c28 488B8540 		movq	-2240(%rbp), %rax
 4098      F7FFFF
 4099 1c2f 488B00   		movq	(%rax), %rax
 4100 1c32 4883C010 		addq	$16, %rax
 4101 1c36 488B10   		movq	(%rax), %rdx
 4102 1c39 488B8540 		movq	-2240(%rbp), %rax
 4102      F7FFFF
 4103 1c40 4889C7   		movq	%rax, %rdi
 4104 1c43 FFD2     		call	*%rdx
 4105              	.LVL9:
 4106 1c45 4889C6   		movq	%rax, %rsi
 4107 1c48 4889DF   		movq	%rbx, %rdi
 4108 1c4b E8000000 		call	_ZStlsISt11char_traitsIcEERSt13basic_ostreamIcT_ES5_PKc@PLT
 4108      00
 4109              		.loc 6 108 1 discriminator 22
 4110 1c50 E8000000 		call	_ZN8UnitTest11CurrentTest7ResultsEv@PLT
 4110      00
 4111 1c55 488B18   		movq	(%rax), %rbx
 4112 1c58 488D8570 		leaq	-2192(%rbp), %rax
 4112      F7FFFF
 4113 1c5f 4889C7   		movq	%rax, %rdi
 4114 1c62 E8000000 		call	_ZNK8UnitTest15MemoryOutStream7GetTextEv@PLT
 4114      00
 4115              		.loc 6 108 1 discriminator 24
 4116 1c67 4889C2   		movq	%rax, %rdx
 4117 1c6a 488B8528 		movq	-2264(%rbp), %rax
 4117      F7FFFF
 4118 1c71 4883C008 		addq	$8, %rax
 4119 1c75 4889C6   		movq	%rax, %rsi
 4120 1c78 4889DF   		movq	%rbx, %rdi
 4121 1c7b E8000000 		call	_ZN8UnitTest11TestResults13OnTestFailureERKNS_11TestDetailsEPKc@PLT
 4121      00
 4122              	.LEHE98:
 4123              		.loc 6 108 1 discriminator 28
 4124 1c80 488D8570 		leaq	-2192(%rbp), %rax
 4124      F7FFFF
 4125 1c87 4889C7   		movq	%rax, %rdi
 4126              	.LEHB99:
 4127 1c8a E8000000 		call	_ZN8UnitTest15MemoryOutStreamD1Ev
 4127      00
 4128              	.LEHE99:
 4129              	.LBE66:
 4130              		.loc 6 108 1 discriminator 29
 4131 1c8f E8000000 		call	__cxa_end_catch@PLT
 4131      00
 4132              	.LBE65:
 4133 1c94 E9FD0000 		jmp	.L197
 4133      00
 4134              	.L217:
 4135              		.loc 6 108 1 discriminator 6
 4136 1c99 4889C7   		movq	%rax, %rdi
 4137 1c9c E8000000 		call	__cxa_begin_catch@PLT
 4137      00
 4138 1ca1 80BD3FF7 		cmpb	$0, -2241(%rbp)
 4138      FFFF00
 4139 1ca8 7445     		je	.L204
 4140              	.LEHB100:
 4141              		.loc 6 108 1 discriminator 31
 4142 1caa E8000000 		call	_ZN8UnitTest11CurrentTest7ResultsEv@PLT
 4142      00
 4143 1caf 488B18   		movq	(%rax), %rbx
 4144 1cb2 488B8528 		movq	-2264(%rbp), %rax
 4144      F7FFFF
 4145 1cb9 488D4808 		leaq	8(%rax), %rcx
 4146 1cbd 488D8550 		leaq	-2224(%rbp), %rax
 4146      F7FFFF
 4147 1cc4 BA6C0000 		movl	$108, %edx
 4147      00
 4148 1cc9 4889CE   		movq	%rcx, %rsi
 4149 1ccc 4889C7   		movq	%rax, %rdi
 4150 1ccf E8000000 		call	_ZN8UnitTest11TestDetailsC1ERKS0_i@PLT
 4150      00
 4151              		.loc 6 108 1 discriminator 36
 4152 1cd4 488D8550 		leaq	-2224(%rbp), %rax
 4152      F7FFFF
 4153 1cdb 488D1500 		leaq	.LC9(%rip), %rdx
 4153      000000
 4154 1ce2 4889C6   		movq	%rax, %rsi
 4155 1ce5 4889DF   		movq	%rbx, %rdi
 4156 1ce8 E8000000 		call	_ZN8UnitTest11TestResults13OnTestFailureERKNS_11TestDetailsEPKc@PLT
 4156      00
 4157 1ced EB43     		jmp	.L205
 4158              	.L204:
 4159              		.loc 6 108 1 discriminator 32
 4160 1cef E8000000 		call	_ZN8UnitTest11CurrentTest7ResultsEv@PLT
 4160      00
 4161 1cf4 488B18   		movq	(%rax), %rbx
 4162 1cf7 488B8528 		movq	-2264(%rbp), %rax
 4162      F7FFFF
 4163 1cfe 488D4808 		leaq	8(%rax), %rcx
 4164 1d02 488D8550 		leaq	-2224(%rbp), %rax
 4164      F7FFFF
 4165 1d09 BA6C0000 		movl	$108, %edx
 4165      00
 4166 1d0e 4889CE   		movq	%rcx, %rsi
 4167 1d11 4889C7   		movq	%rax, %rdi
 4168 1d14 E8000000 		call	_ZN8UnitTest11TestDetailsC1ERKS0_i@PLT
 4168      00
 4169              		.loc 6 108 1 discriminator 43
 4170 1d19 488D8550 		leaq	-2224(%rbp), %rax
 4170      F7FFFF
 4171 1d20 488D1500 		leaq	.LC10(%rip), %rdx
 4171      000000
 4172 1d27 4889C6   		movq	%rax, %rsi
 4173 1d2a 4889DF   		movq	%rbx, %rdi
 4174 1d2d E8000000 		call	_ZN8UnitTest11TestResults13OnTestFailureERKNS_11TestDetailsEPKc@PLT
 4174      00
 4175              	.LEHE100:
 4176              	.L205:
 4177              	.LEHB101:
 4178              		.loc 6 108 1 discriminator 46
 4179 1d32 E8000000 		call	__cxa_end_catch@PLT
 4179      00
 4180 1d37 EB5D     		jmp	.L197
 4181              	.L213:
 4182 1d39 F30F1EFA 		endbr64
 4183              	.LBB68:
 4184              		.loc 6 108 1
 4185 1d3d 4889C3   		movq	%rax, %rbx
 4186 1d40 E8000000 		call	__cxa_end_catch@PLT
 4186      00
 4187 1d45 4889D8   		movq	%rbx, %rax
 4188 1d48 4889C7   		movq	%rax, %rdi
 4189 1d4b E8000000 		call	_Unwind_Resume@PLT
 4189      00
 4190              	.LEHE101:
 4191              	.L215:
 4192 1d50 F30F1EFA 		endbr64
 4193              	.LBE68:
 4194              	.LBB69:
 4195              	.LBB67:
 4196 1d54 4889C3   		movq	%rax, %rbx
 4197 1d57 488D8570 		leaq	-2192(%rbp), %rax
 4197      F7FFFF
 4198 1d5e 4889C7   		movq	%rax, %rdi
 4199 1d61 E8000000 		call	_ZN8UnitTest15MemoryOutStreamD1Ev
 4199      00
 4200 1d66 EB07     		jmp	.L208
 4201              	.L214:
 4202 1d68 F30F1EFA 		endbr64
 4203              	.LBE67:
 4204 1d6c 4889C3   		movq	%rax, %rbx
 4205              	.L208:
 4206 1d6f E8000000 		call	__cxa_end_catch@PLT
 4206      00
 4207 1d74 4889D8   		movq	%rbx, %rax
 4208 1d77 4889C7   		movq	%rax, %rdi
 4209              	.LEHB102:
 4210 1d7a E8000000 		call	_Unwind_Resume@PLT
 4210      00
 4211              	.LEHE102:
 4212              	.L216:
 4213 1d7f F30F1EFA 		endbr64
 4214              	.LBE69:
 4215 1d83 4889C3   		movq	%rax, %rbx
 4216 1d86 E8000000 		call	__cxa_end_catch@PLT
 4216      00
 4217 1d8b 4889D8   		movq	%rbx, %rax
 4218 1d8e 4889C7   		movq	%rax, %rdi
 4219              	.LEHB103:
 4220 1d91 E8000000 		call	_Unwind_Resume@PLT
 4220      00
 4221              	.LEHE103:
 4222              	.L197:
 4223 1d96 488B45D8 		movq	-40(%rbp), %rax
 4224 1d9a 64482B04 		subq	%fs:40, %rax
 4224      25280000 
 4224      00
 4225 1da3 7405     		je	.L210
 4226 1da5 E8000000 		call	__stack_chk_fail@PLT
 4226      00
 4227              	.L210:
 4228 1daa 4881C4C8 		addq	$2248, %rsp
 4228      080000
 4229 1db1 5B       		popq	%rbx
 4230 1db2 415C     		popq	%r12
 4231 1db4 415D     		popq	%r13
 4232 1db6 5D       		popq	%rbp
 4233              		.cfi_def_cfa 7, 8
 4234 1db7 C3       		ret
 4235              		.cfi_endproc
 4236              	.LFE1222:
 4237              		.section	.gcc_except_table
 4238              		.align 4
 4239              	.LLSDA1222:
 4240 0284 FF       		.byte	0xff
 4241 0285 9B       		.byte	0x9b
 4242 0286 55       		.uleb128 .LLSDATT1222-.LLSDATTD1222
 4243              	.LLSDATTD1222:
 4244 0287 01       		.byte	0x1
 4245 0288 3E       		.uleb128 .LLSDACSE1222-.LLSDACSB1222
 4246              	.LLSDACSB1222:
 4247 0289 49       		.uleb128 .LEHB93-.LFB1222
 4248 028a 05       		.uleb128 .LEHE93-.LEHB93
 4249 028b A701     		.uleb128 .L211-.LFB1222
 4250 028d 05       		.uleb128 0x5
 4251 028e 6D       		.uleb128 .LEHB94-.LFB1222
 4252 028f 05       		.uleb128 .LEHE94-.LEHB94
 4253 0290 8601     		.uleb128 .L212-.LFB1222
 4254 0292 07       		.uleb128 0x7
 4255 0293 7C       		.uleb128 .LEHB95-.LFB1222
 4256 0294 05       		.uleb128 .LEHE95-.LEHB95
 4257 0295 A701     		.uleb128 .L211-.LFB1222
 4258 0297 05       		.uleb128 0x5
 4259 0298 CF01     		.uleb128 .LEHB96-.LFB1222
 4260 029a 8901     		.uleb128 .LEHE96-.LEHB96
 4261 029c AD05     		.uleb128 .L213-.LFB1222
 4262 029e 00       		.uleb128 0
 4263 029f FB02     		.uleb128 .LEHB97-.LFB1222
 4264 02a1 05       		.uleb128 .LEHE97-.LEHB97
 4265 02a2 DC05     		.uleb128 .L214-.LFB1222
 4266 02a4 00       		.uleb128 0
 4267 02a5 9403     		.uleb128 .LEHB98-.LFB1222
 4268 02a7 60       		.uleb128 .LEHE98-.LEHB98
 4269 02a8 C405     		.uleb128 .L215-.LFB1222
 4270 02aa 00       		.uleb128 0
 4271 02ab FE03     		.uleb128 .LEHB99-.LFB1222
 4272 02ad 05       		.uleb128 .LEHE99-.LEHB99
 4273 02ae DC05     		.uleb128 .L214-.LFB1222
 4274 02b0 00       		.uleb128 0
 4275 02b1 9E04     		.uleb128 .LEHB100-.LFB1222
 4276 02b3 8801     		.uleb128 .LEHE100-.LEHB100
 4277 02b5 F305     		.uleb128 .L216-.LFB1222
 4278 02b7 00       		.uleb128 0
 4279 02b8 A605     		.uleb128 .LEHB101-.LFB1222
 4280 02ba 1E       		.uleb128 .LEHE101-.LEHB101
 4281 02bb 00       		.uleb128 0
 4282 02bc 00       		.uleb128 0
 4283 02bd EE05     		.uleb128 .LEHB102-.LFB1222
 4284 02bf 05       		.uleb128 .LEHE102-.LEHB102
 4285 02c0 00       		.uleb128 0
 4286 02c1 00       		.uleb128 0
 4287 02c2 8506     		.uleb128 .LEHB103-.LFB1222
 4288 02c4 05       		.uleb128 .LEHE103-.LEHB103
 4289 02c5 00       		.uleb128 0
 4290 02c6 00       		.uleb128 0
 4291              	.LLSDACSE1222:
 4292 02c7 03       		.byte	0x3
 4293 02c8 00       		.byte	0
 4294 02c9 02       		.byte	0x2
 4295 02ca 7D       		.byte	0x7d
 4296 02cb 01       		.byte	0x1
 4297 02cc 7D       		.byte	0x7d
 4298 02cd 00       		.byte	0
 4299 02ce 7D       		.byte	0x7d
 4300 02cf 00       		.align 4
 4301 02d0 00000000 		.long	0
 4302              	
 4303 02d4 00000000 		.long	DW.ref._ZTISt9exception-.
 4304 02d8 00000000 		.long	DW.ref._ZTIN8UnitTest15AssertExceptionE-.
 4305              	.LLSDATT1222:
 4306              		.text
 4308              		.section	.rodata
 4309              	.LC30:
 4310 0465 74657374 		.string	"test"
 4310      00
 4311 046a 00000000 		.align 8
 4311      0000
 4312              	.LC31:
 4313 0470 556E6861 		.string	"Unhandled exception in CHECK_EQUAL(2, RunTestsIf(list, NULL, True(), 0))"
 4313      6E646C65 
 4313      64206578 
 4313      63657074 
 4313      696F6E20 
 4314 04b9 00000000 		.align 8
 4314      000000
 4315              	.LC32:
 4316 04c0 556E6861 		.string	"Unhandled exception in CHECK_EQUAL(2, reporter.testFailedCount)"
 4316      6E646C65 
 4316      64206578 
 4316      63657074 
 4316      696F6E20 
 4317              		.text
 4318              		.align 2
 4320              	_ZN12_GLOBAL__N_159TestRunnerFixtureCallsReportFailureOncePerFailingTestHelper7RunImplEv:
 4321              	.LFB1226:
 109:TestTestRunner.cpp **** {
 4322              		.loc 6 109 1 is_stmt 1
 4323              		.cfi_startproc
 4324              		.cfi_personality 0x9b,DW.ref.__gxx_personality_v0
 4325              		.cfi_lsda 0x1b,.LLSDA1226
 4326 1db8 F30F1EFA 		endbr64
 4327 1dbc 55       		pushq	%rbp
 4328              		.cfi_def_cfa_offset 16
 4329              		.cfi_offset 6, -16
 4330 1dbd 4889E5   		movq	%rsp, %rbp
 4331              		.cfi_def_cfa_register 6
 4332 1dc0 53       		pushq	%rbx
 4333 1dc1 4881EC08 		subq	$264, %rsp
 4333      010000
 4334              		.cfi_offset 3, -24
 4335 1dc8 4889BDF8 		movq	%rdi, -264(%rbp)
 4335      FEFFFF
 4336              		.loc 6 109 1
 4337 1dcf 64488B04 		movq	%fs:40, %rax
 4337      25280000 
 4337      00
 4338 1dd8 488945E8 		movq	%rax, -24(%rbp)
 4339 1ddc 31C0     		xorl	%eax, %eax
 110:TestTestRunner.cpp ****     MockTest test1("test", false, false);
 4340              		.loc 6 110 40
 4341 1dde 488D8530 		leaq	-208(%rbp), %rax
 4341      FFFFFF
 4342 1de5 41B80100 		movl	$1, %r8d
 4342      0000
 4343 1deb B9000000 		movl	$0, %ecx
 4343      00
 4344 1df0 BA000000 		movl	$0, %edx
 4344      00
 4345 1df5 488D3500 		leaq	.LC30(%rip), %rsi
 4345      000000
 4346 1dfc 4889C7   		movq	%rax, %rdi
 4347              	.LEHB104:
 4348 1dff E8FCE1FF 		call	_ZN12_GLOBAL__N_18MockTestC1EPKcbbi
 4348      FF
 4349              	.LEHE104:
 111:TestTestRunner.cpp ****     list.Add(&test1);
 4350              		.loc 6 111 13
 4351 1e04 488B85F8 		movq	-264(%rbp), %rax
 4351      FEFFFF
 4352 1e0b 488D9048 		leaq	2120(%rax), %rdx
 4352      080000
 4353 1e12 488D8530 		leaq	-208(%rbp), %rax
 4353      FFFFFF
 4354 1e19 4889C6   		movq	%rax, %rsi
 4355 1e1c 4889D7   		movq	%rdx, %rdi
 4356              	.LEHB105:
 4357 1e1f E8000000 		call	_ZN8UnitTest8TestList3AddEPNS_4TestE@PLT
 4357      00
 112:TestTestRunner.cpp ****     MockTest test2("test", true, false);
 4358              		.loc 6 112 39
 4359 1e24 488D8570 		leaq	-144(%rbp), %rax
 4359      FFFFFF
 4360 1e2b 41B80100 		movl	$1, %r8d
 4360      0000
 4361 1e31 B9000000 		movl	$0, %ecx
 4361      00
 4362 1e36 BA010000 		movl	$1, %edx
 4362      00
 4363 1e3b 488D3500 		leaq	.LC30(%rip), %rsi
 4363      000000
 4364 1e42 4889C7   		movq	%rax, %rdi
 4365 1e45 E8B6E1FF 		call	_ZN12_GLOBAL__N_18MockTestC1EPKcbbi
 4365      FF
 4366              	.LEHE105:
 113:TestTestRunner.cpp ****     list.Add(&test2);
 4367              		.loc 6 113 13
 4368 1e4a 488B85F8 		movq	-264(%rbp), %rax
 4368      FEFFFF
 4369 1e51 488D9048 		leaq	2120(%rax), %rdx
 4369      080000
 4370 1e58 488D8570 		leaq	-144(%rbp), %rax
 4370      FFFFFF
 4371 1e5f 4889C6   		movq	%rax, %rsi
 4372 1e62 4889D7   		movq	%rdx, %rdi
 4373              	.LEHB106:
 4374 1e65 E8000000 		call	_ZN8UnitTest8TestList3AddEPNS_4TestE@PLT
 4374      00
 114:TestTestRunner.cpp ****     MockTest test3("test", false, false);
 4375              		.loc 6 114 40
 4376 1e6a 488D45B0 		leaq	-80(%rbp), %rax
 4377 1e6e 41B80100 		movl	$1, %r8d
 4377      0000
 4378 1e74 B9000000 		movl	$0, %ecx
 4378      00
 4379 1e79 BA000000 		movl	$0, %edx
 4379      00
 4380 1e7e 488D3500 		leaq	.LC30(%rip), %rsi
 4380      000000
 4381 1e85 4889C7   		movq	%rax, %rdi
 4382 1e88 E873E1FF 		call	_ZN12_GLOBAL__N_18MockTestC1EPKcbbi
 4382      FF
 4383              	.LEHE106:
 115:TestTestRunner.cpp ****     list.Add(&test3);
 4384              		.loc 6 115 13
 4385 1e8d 488B85F8 		movq	-264(%rbp), %rax
 4385      FEFFFF
 4386 1e94 488D9048 		leaq	2120(%rax), %rdx
 4386      080000
 4387 1e9b 488D45B0 		leaq	-80(%rbp), %rax
 4388 1e9f 4889C6   		movq	%rax, %rsi
 4389 1ea2 4889D7   		movq	%rdx, %rdi
 4390              	.LEHB107:
 4391 1ea5 E8000000 		call	_ZN8UnitTest8TestList3AddEPNS_4TestE@PLT
 4391      00
 4392              	.LEHE107:
 4393              	.LEHB108:
 116:TestTestRunner.cpp **** 
 117:TestTestRunner.cpp **** 	CHECK_EQUAL(2, 	RunTestsIf(list, NULL, True(), 0));
 4394              		.loc 6 117 2
 4395 1eaa E8000000 		call	_ZN8UnitTest11CurrentTest7DetailsEv@PLT
 4395      00
 4396 1eaf 488B08   		movq	(%rax), %rcx
 4397 1eb2 488D8510 		leaq	-240(%rbp), %rax
 4397      FFFFFF
 4398 1eb9 BA750000 		movl	$117, %edx
 4398      00
 4399 1ebe 4889CE   		movq	%rcx, %rsi
 4400 1ec1 4889C7   		movq	%rax, %rdi
 4401 1ec4 E8000000 		call	_ZN8UnitTest11TestDetailsC1ERKS0_i@PLT
 4401      00
 4402              		.loc 6 117 2 is_stmt 0 discriminator 4
 4403 1ec9 488B85F8 		movq	-264(%rbp), %rax
 4403      FEFFFF
 4404 1ed0 488B95F8 		movq	-264(%rbp), %rdx
 4404      FEFFFF
 4405 1ed7 488DB248 		leaq	2120(%rdx), %rsi
 4405      080000
 4406 1ede 488D9507 		leaq	-249(%rbp), %rdx
 4406      FFFFFF
 4407 1ee5 41B80000 		movl	$0, %r8d
 4407      0000
 4408 1eeb 4889D1   		movq	%rdx, %rcx
 4409 1eee BA000000 		movl	$0, %edx
 4409      00
 4410 1ef3 4889C7   		movq	%rax, %rdi
 4411 1ef6 E8015400 		call	_ZN12_GLOBAL__N_111FixtureBase10RunTestsIfIN8UnitTest4TrueEEEiRKNS2_8TestListEPKcRKT_i
 4411      00
 4412 1efb 89850CFF 		movl	%eax, -244(%rbp)
 4412      FFFF
 4413 1f01 C78508FF 		movl	$2, -248(%rbp)
 4413      FFFF0200 
 4413      0000
 4414 1f0b E8000000 		call	_ZN8UnitTest11CurrentTest7ResultsEv@PLT
 4414      00
 4415              		.loc 6 117 2 discriminator 6
 4416 1f10 488B00   		movq	(%rax), %rax
 4417 1f13 488D8D10 		leaq	-240(%rbp), %rcx
 4417      FFFFFF
 4418 1f1a 488D950C 		leaq	-244(%rbp), %rdx
 4418      FFFFFF
 4419 1f21 488DB508 		leaq	-248(%rbp), %rsi
 4419      FFFFFF
 4420 1f28 4889C7   		movq	%rax, %rdi
 4421 1f2b E8000000 		call	_ZN8UnitTest10CheckEqualIiiEEvRNS_11TestResultsERKT_RKT0_RKNS_11TestDetailsE
 4421      00
 4422              	.LEHE108:
 4423              	.L220:
 4424              	.LEHB109:
 118:TestTestRunner.cpp ****     CHECK_EQUAL(2, reporter.testFailedCount);
 4425              		.loc 6 118 5 is_stmt 1
 4426 1f30 E8000000 		call	_ZN8UnitTest11CurrentTest7DetailsEv@PLT
 4426      00
 4427 1f35 488B08   		movq	(%rax), %rcx
 4428 1f38 488D8510 		leaq	-240(%rbp), %rax
 4428      FFFFFF
 4429 1f3f BA760000 		movl	$118, %edx
 4429      00
 4430 1f44 4889CE   		movq	%rcx, %rsi
 4431 1f47 4889C7   		movq	%rax, %rdi
 4432 1f4a E8000000 		call	_ZN8UnitTest11TestDetailsC1ERKS0_i@PLT
 4432      00
 4433              		.loc 6 118 5 is_stmt 0 discriminator 4
 4434 1f4f 488B85F8 		movq	-264(%rbp), %rax
 4434      FEFFFF
 4435 1f56 488D9824 		leaq	548(%rax), %rbx
 4435      020000
 4436 1f5d C7850CFF 		movl	$2, -244(%rbp)
 4436      FFFF0200 
 4436      0000
 4437 1f67 E8000000 		call	_ZN8UnitTest11CurrentTest7ResultsEv@PLT
 4437      00
 4438 1f6c 488B00   		movq	(%rax), %rax
 4439 1f6f 488D9510 		leaq	-240(%rbp), %rdx
 4439      FFFFFF
 4440 1f76 488DB50C 		leaq	-244(%rbp), %rsi
 4440      FFFFFF
 4441 1f7d 4889D1   		movq	%rdx, %rcx
 4442 1f80 4889DA   		movq	%rbx, %rdx
 4443 1f83 4889C7   		movq	%rax, %rdi
 4444 1f86 E8000000 		call	_ZN8UnitTest10CheckEqualIiiEEvRNS_11TestResultsERKT_RKT0_RKNS_11TestDetailsE
 4444      00
 4445              	.LEHE109:
 4446              	.L224:
 119:TestTestRunner.cpp **** }
 4447              		.loc 6 119 1 is_stmt 1
 4448 1f8b 488D45B0 		leaq	-80(%rbp), %rax
 4449 1f8f 4889C7   		movq	%rax, %rdi
 4450              	.LEHB110:
 4451 1f92 E8BF8D00 		call	_ZN12_GLOBAL__N_18MockTestD1Ev
 4451      00
 4452              	.LEHE110:
 4453              		.loc 6 119 1 is_stmt 0 discriminator 2
 4454 1f97 488D8570 		leaq	-144(%rbp), %rax
 4454      FFFFFF
 4455 1f9e 4889C7   		movq	%rax, %rdi
 4456              	.LEHB111:
 4457 1fa1 E8B08D00 		call	_ZN12_GLOBAL__N_18MockTestD1Ev
 4457      00
 4458              	.LEHE111:
 4459              		.loc 6 119 1 discriminator 4
 4460 1fa6 488D8530 		leaq	-208(%rbp), %rax
 4460      FFFFFF
 4461 1fad 4889C7   		movq	%rax, %rdi
 4462              	.LEHB112:
 4463 1fb0 E8A18D00 		call	_ZN12_GLOBAL__N_18MockTestD1Ev
 4463      00
 4464              	.LEHE112:
 4465 1fb5 488B45E8 		movq	-24(%rbp), %rax
 4466 1fb9 64482B04 		subq	%fs:40, %rax
 4466      25280000 
 4466      00
 4467 1fc2 0F842001 		je	.L228
 4467      0000
 4468 1fc8 E9160100 		jmp	.L236
 4468      00
 4469              	.L232:
 4470 1fcd F30F1EFA 		endbr64
 117:TestTestRunner.cpp ****     CHECK_EQUAL(2, reporter.testFailedCount);
 4471              		.loc 6 117 2 is_stmt 1
 4472 1fd1 4889C7   		movq	%rax, %rdi
 4473 1fd4 E8000000 		call	__cxa_begin_catch@PLT
 4473      00
 4474              	.LEHB113:
 4475 1fd9 E8000000 		call	_ZN8UnitTest11CurrentTest7ResultsEv@PLT
 4475      00
 117:TestTestRunner.cpp ****     CHECK_EQUAL(2, reporter.testFailedCount);
 4476              		.loc 6 117 2 is_stmt 0 discriminator 3
 4477 1fde 488B18   		movq	(%rax), %rbx
 4478 1fe1 E8000000 		call	_ZN8UnitTest11CurrentTest7DetailsEv@PLT
 4478      00
 117:TestTestRunner.cpp ****     CHECK_EQUAL(2, reporter.testFailedCount);
 4479              		.loc 6 117 2 discriminator 13
 4480 1fe6 488B08   		movq	(%rax), %rcx
 4481 1fe9 488D8510 		leaq	-240(%rbp), %rax
 4481      FFFFFF
 4482 1ff0 BA750000 		movl	$117, %edx
 4482      00
 4483 1ff5 4889CE   		movq	%rcx, %rsi
 4484 1ff8 4889C7   		movq	%rax, %rdi
 4485 1ffb E8000000 		call	_ZN8UnitTest11TestDetailsC1ERKS0_i@PLT
 4485      00
 117:TestTestRunner.cpp ****     CHECK_EQUAL(2, reporter.testFailedCount);
 4486              		.loc 6 117 2 discriminator 17
 4487 2000 488D8510 		leaq	-240(%rbp), %rax
 4487      FFFFFF
 4488 2007 488D1500 		leaq	.LC31(%rip), %rdx
 4488      000000
 4489 200e 4889C6   		movq	%rax, %rsi
 4490 2011 4889DF   		movq	%rbx, %rdi
 4491 2014 E8000000 		call	_ZN8UnitTest11TestResults13OnTestFailureERKNS_11TestDetailsEPKc@PLT
 4491      00
 4492              	.LEHE113:
 4493              	.LEHB114:
 117:TestTestRunner.cpp ****     CHECK_EQUAL(2, reporter.testFailedCount);
 4494              		.loc 6 117 2 discriminator 19
 4495 2019 E8000000 		call	__cxa_end_catch@PLT
 4495      00
 4496              	.LEHE114:
 117:TestTestRunner.cpp ****     CHECK_EQUAL(2, reporter.testFailedCount);
 4497              		.loc 6 117 2
 4498 201e E90DFFFF 		jmp	.L220
 4498      FF
 4499              	.L233:
 4500 2023 F30F1EFA 		endbr64
 4501 2027 4889C3   		movq	%rax, %rbx
 4502 202a E8000000 		call	__cxa_end_catch@PLT
 4502      00
 4503 202f EB6B     		jmp	.L222
 4504              	.L234:
 4505 2031 F30F1EFA 		endbr64
 118:TestTestRunner.cpp ****     CHECK_EQUAL(2, reporter.testFailedCount);
 4506              		.loc 6 118 5 is_stmt 1
 4507 2035 4889C7   		movq	%rax, %rdi
 4508 2038 E8000000 		call	__cxa_begin_catch@PLT
 4508      00
 4509              	.LEHB115:
 4510 203d E8000000 		call	_ZN8UnitTest11CurrentTest7ResultsEv@PLT
 4510      00
 118:TestTestRunner.cpp ****     CHECK_EQUAL(2, reporter.testFailedCount);
 4511              		.loc 6 118 5 is_stmt 0 discriminator 3
 4512 2042 488B18   		movq	(%rax), %rbx
 4513 2045 E8000000 		call	_ZN8UnitTest11CurrentTest7DetailsEv@PLT
 4513      00
 118:TestTestRunner.cpp ****     CHECK_EQUAL(2, reporter.testFailedCount);
 4514              		.loc 6 118 5 discriminator 11
 4515 204a 488B08   		movq	(%rax), %rcx
 4516 204d 488D8510 		leaq	-240(%rbp), %rax
 4516      FFFFFF
 4517 2054 BA760000 		movl	$118, %edx
 4517      00
 4518 2059 4889CE   		movq	%rcx, %rsi
 4519 205c 4889C7   		movq	%rax, %rdi
 4520 205f E8000000 		call	_ZN8UnitTest11TestDetailsC1ERKS0_i@PLT
 4520      00
 118:TestTestRunner.cpp ****     CHECK_EQUAL(2, reporter.testFailedCount);
 4521              		.loc 6 118 5 discriminator 15
 4522 2064 488D8510 		leaq	-240(%rbp), %rax
 4522      FFFFFF
 4523 206b 488D1500 		leaq	.LC32(%rip), %rdx
 4523      000000
 4524 2072 4889C6   		movq	%rax, %rsi
 4525 2075 4889DF   		movq	%rbx, %rdi
 4526 2078 E8000000 		call	_ZN8UnitTest11TestResults13OnTestFailureERKNS_11TestDetailsEPKc@PLT
 4526      00
 4527              	.LEHE115:
 4528              	.LEHB116:
 118:TestTestRunner.cpp ****     CHECK_EQUAL(2, reporter.testFailedCount);
 4529              		.loc 6 118 5 discriminator 17
 4530 207d E8000000 		call	__cxa_end_catch@PLT
 4530      00
 4531              	.LEHE116:
 118:TestTestRunner.cpp ****     CHECK_EQUAL(2, reporter.testFailedCount);
 4532              		.loc 6 118 5
 4533 2082 E904FFFF 		jmp	.L224
 4533      FF
 4534              	.L235:
 4535 2087 F30F1EFA 		endbr64
 4536 208b 4889C3   		movq	%rax, %rbx
 4537 208e E8000000 		call	__cxa_end_catch@PLT
 4537      00
 4538 2093 EB07     		jmp	.L222
 4539              	.L231:
 4540 2095 F30F1EFA 		endbr64
 4541              		.loc 6 119 1 is_stmt 1
 4542 2099 4889C3   		movq	%rax, %rbx
 4543              	.L222:
 4544 209c 488D45B0 		leaq	-80(%rbp), %rax
 4545 20a0 4889C7   		movq	%rax, %rdi
 4546 20a3 E8AE8C00 		call	_ZN12_GLOBAL__N_18MockTestD1Ev
 4546      00
 4547 20a8 EB07     		jmp	.L226
 4548              	.L230:
 4549 20aa F30F1EFA 		endbr64
 4550 20ae 4889C3   		movq	%rax, %rbx
 4551              	.L226:
 4552              		.loc 6 119 1 is_stmt 0 discriminator 1
 4553 20b1 488D8570 		leaq	-144(%rbp), %rax
 4553      FFFFFF
 4554 20b8 4889C7   		movq	%rax, %rdi
 4555 20bb E8968C00 		call	_ZN12_GLOBAL__N_18MockTestD1Ev
 4555      00
 4556 20c0 EB07     		jmp	.L227
 4557              	.L229:
 4558 20c2 F30F1EFA 		endbr64
 4559              		.loc 6 119 1
 4560 20c6 4889C3   		movq	%rax, %rbx
 4561              	.L227:
 4562              		.loc 6 119 1 discriminator 3
 4563 20c9 488D8530 		leaq	-208(%rbp), %rax
 4563      FFFFFF
 4564 20d0 4889C7   		movq	%rax, %rdi
 4565 20d3 E87E8C00 		call	_ZN12_GLOBAL__N_18MockTestD1Ev
 4565      00
 4566 20d8 4889D8   		movq	%rbx, %rax
 4567 20db 4889C7   		movq	%rax, %rdi
 4568              	.LEHB117:
 4569 20de E8000000 		call	_Unwind_Resume@PLT
 4569      00
 4570              	.LEHE117:
 4571              	.L236:
 4572              		.loc 6 119 1
 4573 20e3 E8000000 		call	__stack_chk_fail@PLT
 4573      00
 4574              	.L228:
 4575 20e8 488B5DF8 		movq	-8(%rbp), %rbx
 4576 20ec C9       		leave
 4577              		.cfi_def_cfa 7, 8
 4578 20ed C3       		ret
 4579              		.cfi_endproc
 4580              	.LFE1226:
 4581              		.section	.gcc_except_table
 4582              		.align 4
 4583              	.LLSDA1226:
 4584 02dc FF       		.byte	0xff
 4585 02dd 9B       		.byte	0x9b
 4586 02de 59       		.uleb128 .LLSDATT1226-.LLSDATTD1226
 4587              	.LLSDATTD1226:
 4588 02df 01       		.byte	0x1
 4589 02e0 50       		.uleb128 .LLSDACSE1226-.LLSDACSB1226
 4590              	.LLSDACSB1226:
 4591 02e1 47       		.uleb128 .LEHB104-.LFB1226
 4592 02e2 05       		.uleb128 .LEHE104-.LEHB104
 4593 02e3 00       		.uleb128 0
 4594 02e4 00       		.uleb128 0
 4595 02e5 67       		.uleb128 .LEHB105-.LFB1226
 4596 02e6 2B       		.uleb128 .LEHE105-.LEHB105
 4597 02e7 8A06     		.uleb128 .L229-.LFB1226
 4598 02e9 00       		.uleb128 0
 4599 02ea AD01     		.uleb128 .LEHB106-.LFB1226
 4600 02ec 28       		.uleb128 .LEHE106-.LEHB106
 4601 02ed F205     		.uleb128 .L230-.LFB1226
 4602 02ef 00       		.uleb128 0
 4603 02f0 ED01     		.uleb128 .LEHB107-.LFB1226
 4604 02f2 05       		.uleb128 .LEHE107-.LEHB107
 4605 02f3 DD05     		.uleb128 .L231-.LFB1226
 4606 02f5 00       		.uleb128 0
 4607 02f6 F201     		.uleb128 .LEHB108-.LFB1226
 4608 02f8 8601     		.uleb128 .LEHE108-.LEHB108
 4609 02fa 9504     		.uleb128 .L232-.LFB1226
 4610 02fc 01       		.uleb128 0x1
 4611 02fd F802     		.uleb128 .LEHB109-.LFB1226
 4612 02ff 5B       		.uleb128 .LEHE109-.LEHB109
 4613 0300 F904     		.uleb128 .L234-.LFB1226
 4614 0302 01       		.uleb128 0x1
 4615 0303 DA03     		.uleb128 .LEHB110-.LFB1226
 4616 0305 05       		.uleb128 .LEHE110-.LEHB110
 4617 0306 F205     		.uleb128 .L230-.LFB1226
 4618 0308 00       		.uleb128 0
 4619 0309 E903     		.uleb128 .LEHB111-.LFB1226
 4620 030b 05       		.uleb128 .LEHE111-.LEHB111
 4621 030c 8A06     		.uleb128 .L229-.LFB1226
 4622 030e 00       		.uleb128 0
 4623 030f F803     		.uleb128 .LEHB112-.LFB1226
 4624 0311 05       		.uleb128 .LEHE112-.LEHB112
 4625 0312 00       		.uleb128 0
 4626 0313 00       		.uleb128 0
 4627 0314 A104     		.uleb128 .LEHB113-.LFB1226
 4628 0316 40       		.uleb128 .LEHE113-.LEHB113
 4629 0317 EB04     		.uleb128 .L233-.LFB1226
 4630 0319 00       		.uleb128 0
 4631 031a E104     		.uleb128 .LEHB114-.LFB1226
 4632 031c 05       		.uleb128 .LEHE114-.LEHB114
 4633 031d DD05     		.uleb128 .L231-.LFB1226
 4634 031f 00       		.uleb128 0
 4635 0320 8505     		.uleb128 .LEHB115-.LFB1226
 4636 0322 40       		.uleb128 .LEHE115-.LEHB115
 4637 0323 CF05     		.uleb128 .L235-.LFB1226
 4638 0325 00       		.uleb128 0
 4639 0326 C505     		.uleb128 .LEHB116-.LFB1226
 4640 0328 05       		.uleb128 .LEHE116-.LEHB116
 4641 0329 DD05     		.uleb128 .L231-.LFB1226
 4642 032b 00       		.uleb128 0
 4643 032c A606     		.uleb128 .LEHB117-.LFB1226
 4644 032e 05       		.uleb128 .LEHE117-.LEHB117
 4645 032f 00       		.uleb128 0
 4646 0330 00       		.uleb128 0
 4647              	.LLSDACSE1226:
 4648 0331 01       		.byte	0x1
 4649 0332 00       		.byte	0
 4650 0333 00       		.align 4
 4651 0334 00000000 		.long	0
 4652              	
 4653              	.LLSDATT1226:
 4654              		.text
 4656              		.align 2
 4658              	_ZN12_GLOBAL__N_158TestRunnerFixtureTestsThatAssertAreReportedAsFailingHelperC2ERKN8UnitTest11TestD
 4659              	.LFB1228:
 120:TestTestRunner.cpp **** 
 121:TestTestRunner.cpp **** TEST_FIXTURE(TestRunnerFixture, TestsThatAssertAreReportedAsFailing)
 4660              		.loc 6 121 1 is_stmt 1
 4661              		.cfi_startproc
 4662 20ee 55       		pushq	%rbp
 4663              		.cfi_def_cfa_offset 16
 4664              		.cfi_offset 6, -16
 4665 20ef 4889E5   		movq	%rsp, %rbp
 4666              		.cfi_def_cfa_register 6
 4667 20f2 4883EC10 		subq	$16, %rsp
 4668 20f6 48897DF8 		movq	%rdi, -8(%rbp)
 4669 20fa 488975F0 		movq	%rsi, -16(%rbp)
 4670              	.LBB70:
 4671              		.loc 6 121 1
 4672 20fe 488B45F8 		movq	-8(%rbp), %rax
 4673 2102 4889C7   		movq	%rax, %rdi
 4674 2105 E882E0FF 		call	_ZN12_GLOBAL__N_117TestRunnerFixtureC2Ev
 4674      FF
 4675 210a 488B45F8 		movq	-8(%rbp), %rax
 4676 210e 488B55F0 		movq	-16(%rbp), %rdx
 4677 2112 48899058 		movq	%rdx, 2136(%rax)
 4677      080000
 4678              	.LBE70:
 4679 2119 90       		nop
 4680 211a C9       		leave
 4681              		.cfi_def_cfa 7, 8
 4682 211b C3       		ret
 4683              		.cfi_endproc
 4684              	.LFE1228:
 4686              		.set	_ZN12_GLOBAL__N_158TestRunnerFixtureTestsThatAssertAreReportedAsFailingHelperC1ERKN8UnitTest1
 4687              		.section	.rodata
 4688              		.align 8
 4689              	.LC33:
 4690 0500 54657374 		.string	"TestsThatAssertAreReportedAsFailing"
 4690      73546861 
 4690      74417373 
 4690      65727441 
 4690      72655265 
 4691              		.text
 4692              		.align 2
 4694              	_ZN12_GLOBAL__N_156TestTestRunnerFixtureTestsThatAssertAreReportedAsFailingC2Ev:
 4695              	.LFB1231:
 4696              		.loc 6 121 1
 4697              		.cfi_startproc
 4698 211c 55       		pushq	%rbp
 4699              		.cfi_def_cfa_offset 16
 4700              		.cfi_offset 6, -16
 4701 211d 4889E5   		movq	%rsp, %rbp
 4702              		.cfi_def_cfa_register 6
 4703 2120 53       		pushq	%rbx
 4704 2121 4883EC18 		subq	$24, %rsp
 4705              		.cfi_offset 3, -24
 4706 2125 48897DE8 		movq	%rdi, -24(%rbp)
 4707              	.LBB71:
 4708              		.loc 6 121 1
 4709 2129 488B5DE8 		movq	-24(%rbp), %rbx
 4710 212d E8000000 		call	_ZN13UnitTestSuite12GetSuiteNameEv
 4710      00
 4711 2132 4889C2   		movq	%rax, %rdx
 4712 2135 41B87900 		movl	$121, %r8d
 4712      0000
 4713 213b 488D0500 		leaq	.LC6(%rip), %rax
 4713      000000
 4714 2142 4889C1   		movq	%rax, %rcx
 4715 2145 488D0500 		leaq	.LC33(%rip), %rax
 4715      000000
 4716 214c 4889C6   		movq	%rax, %rsi
 4717 214f 4889DF   		movq	%rbx, %rdi
 4718 2152 E8000000 		call	_ZN8UnitTest4TestC2EPKcS2_S2_i@PLT
 4718      00
 4719 2157 488D1500 		leaq	16+_ZTVN12_GLOBAL__N_156TestTestRunnerFixtureTestsThatAssertAreReportedAsFailingE(%rip), %rdx
 4719      000000
 4720 215e 488B45E8 		movq	-24(%rbp), %rax
 4721 2162 488910   		movq	%rdx, (%rax)
 4722              	.LBE71:
 4723 2165 90       		nop
 4724 2166 488B5DF8 		movq	-8(%rbp), %rbx
 4725 216a C9       		leave
 4726              		.cfi_def_cfa 7, 8
 4727 216b C3       		ret
 4728              		.cfi_endproc
 4729              	.LFE1231:
 4731              		.set	_ZN12_GLOBAL__N_156TestTestRunnerFixtureTestsThatAssertAreReportedAsFailingC1Ev,_ZN12_GLOBAL_
 4732              		.local	_ZN12_GLOBAL__N_164testTestRunnerFixtureTestsThatAssertAreReportedAsFailingInstanceE
 4733              		.comm	_ZN12_GLOBAL__N_164testTestRunnerFixtureTestsThatAssertAreReportedAsFailingInstanceE,56,32
 4734              		.local	_ZN12_GLOBAL__N_157adderTestRunnerFixtureTestsThatAssertAreReportedAsFailingE
 4735              		.comm	_ZN12_GLOBAL__N_157adderTestRunnerFixtureTestsThatAssertAreReportedAsFailingE,1,1
 4736              		.align 2
 4738              	_ZN12_GLOBAL__N_158TestRunnerFixtureTestsThatAssertAreReportedAsFailingHelperD2Ev:
 4739              	.LFB1235:
 4740              		.loc 6 121 1
 4741              		.cfi_startproc
 4742 216c 55       		pushq	%rbp
 4743              		.cfi_def_cfa_offset 16
 4744              		.cfi_offset 6, -16
 4745 216d 4889E5   		movq	%rsp, %rbp
 4746              		.cfi_def_cfa_register 6
 4747 2170 4883EC10 		subq	$16, %rsp
 4748 2174 48897DF8 		movq	%rdi, -8(%rbp)
 4749              	.LBB72:
 4750              		.loc 6 121 1
 4751 2178 488B45F8 		movq	-8(%rbp), %rax
 4752 217c 4889C7   		movq	%rax, %rdi
 4753 217f E85AE0FF 		call	_ZN12_GLOBAL__N_117TestRunnerFixtureD2Ev
 4753      FF
 4754              	.LBE72:
 4755 2184 90       		nop
 4756 2185 C9       		leave
 4757              		.cfi_def_cfa 7, 8
 4758 2186 C3       		ret
 4759              		.cfi_endproc
 4760              	.LFE1235:
 4762              		.set	_ZN12_GLOBAL__N_158TestRunnerFixtureTestsThatAssertAreReportedAsFailingHelperD1Ev,_ZN12_GLOBA
 4763 2187 90       		.align 2
 4765              	_ZNK12_GLOBAL__N_156TestTestRunnerFixtureTestsThatAssertAreReportedAsFailing7RunImplEv:
 4766              	.LFB1233:
 4767              		.loc 6 121 1
 4768              		.cfi_startproc
 4769              		.cfi_personality 0x9b,DW.ref.__gxx_personality_v0
 4770              		.cfi_lsda 0x1b,.LLSDA1233
 4771 2188 F30F1EFA 		endbr64
 4772 218c 55       		pushq	%rbp
 4773              		.cfi_def_cfa_offset 16
 4774              		.cfi_offset 6, -16
 4775 218d 4889E5   		movq	%rsp, %rbp
 4776              		.cfi_def_cfa_register 6
 4777 2190 4155     		pushq	%r13
 4778 2192 4154     		pushq	%r12
 4779 2194 53       		pushq	%rbx
 4780 2195 4881ECC8 		subq	$2248, %rsp
 4780      080000
 4781              		.cfi_offset 13, -24
 4782              		.cfi_offset 12, -32
 4783              		.cfi_offset 3, -40
 4784 219c 4889BD28 		movq	%rdi, -2264(%rbp)
 4784      F7FFFF
 4785              		.loc 6 121 1
 4786 21a3 64488B04 		movq	%fs:40, %rax
 4786      25280000 
 4786      00
 4787 21ac 488945D8 		movq	%rax, -40(%rbp)
 4788 21b0 31C0     		xorl	%eax, %eax
 4789 21b2 C6853FF7 		movb	$0, -2241(%rbp)
 4789      FFFF00
 4790              	.LBB73:
 4791 21b9 488B8528 		movq	-2264(%rbp), %rax
 4791      F7FFFF
 4792 21c0 488D5008 		leaq	8(%rax), %rdx
 4793 21c4 488D8570 		leaq	-2192(%rbp), %rax
 4793      F7FFFF
 4794 21cb 4889D6   		movq	%rdx, %rsi
 4795 21ce 4889C7   		movq	%rax, %rdi
 4796              	.LEHB118:
 4797 21d1 E818FFFF 		call	_ZN12_GLOBAL__N_158TestRunnerFixtureTestsThatAssertAreReportedAsFailingHelperC1ERKN8UnitTest1
 4797      FF
 4798              	.LEHE118:
 4799              		.loc 6 121 1 is_stmt 0 discriminator 1
 4800 21d6 C6853FF7 		movb	$1, -2241(%rbp)
 4800      FFFF01
 4801 21dd 488B8528 		movq	-2264(%rbp), %rax
 4801      F7FFFF
 4802 21e4 488D5008 		leaq	8(%rax), %rdx
 4803 21e8 488D8570 		leaq	-2192(%rbp), %rax
 4803      F7FFFF
 4804 21ef 4889D6   		movq	%rdx, %rsi
 4805 21f2 4889C7   		movq	%rax, %rdi
 4806              	.LEHB119:
 4807 21f5 E8305D00 		call	_ZN8UnitTest11ExecuteTestIN12_GLOBAL__N_158TestRunnerFixtureTestsThatAssertAreReportedAsFaili
 4807      00
 4808              	.LEHE119:
 4809              		.loc 6 121 1 discriminator 3
 4810 21fa 488D8570 		leaq	-2192(%rbp), %rax
 4810      F7FFFF
 4811 2201 4889C7   		movq	%rax, %rdi
 4812              	.LEHB120:
 4813 2204 E863FFFF 		call	_ZN12_GLOBAL__N_158TestRunnerFixtureTestsThatAssertAreReportedAsFailingHelperD1Ev
 4813      FF
 4814              	.LEHE120:
 4815              	.LBE73:
 4816              		.loc 6 121 1
 4817 2209 E9840200 		jmp	.L240
 4817      00
 4818              	.L255:
 4819 220e F30F1EFA 		endbr64
 4820              	.LBB74:
 4821 2212 4989C4   		movq	%rax, %r12
 4822 2215 4889D3   		movq	%rdx, %rbx
 4823 2218 488D8570 		leaq	-2192(%rbp), %rax
 4823      F7FFFF
 4824 221f 4889C7   		movq	%rax, %rdi
 4825 2222 E845FFFF 		call	_ZN12_GLOBAL__N_158TestRunnerFixtureTestsThatAssertAreReportedAsFailingHelperD1Ev
 4825      FF
 4826 2227 4C89E0   		movq	%r12, %rax
 4827 222a 4889DA   		movq	%rbx, %rdx
 4828 222d EB04     		jmp	.L242
 4829              	.L254:
 4830 222f F30F1EFA 		endbr64
 4831              	.L242:
 4832              	.LBE74:
 4833 2233 4883FA01 		cmpq	$1, %rdx
 4834 2237 740F     		je	.L243
 4835 2239 4883FA02 		cmpq	$2, %rdx
 4836 223d 0F84A700 		je	.L244
 4836      0000
 4837 2243 E94D0100 		jmp	.L260
 4837      00
 4838              	.L243:
 4839              	.LBB75:
 4840              		.loc 6 121 1 discriminator 4
 4841 2248 4889C7   		movq	%rax, %rdi
 4842 224b E8000000 		call	__cxa_begin_catch@PLT
 4842      00
 4843 2250 48898548 		movq	%rax, -2232(%rbp)
 4843      F7FFFF
 4844              	.LEHB121:
 4845 2257 E8000000 		call	_ZN8UnitTest11CurrentTest7ResultsEv@PLT
 4845      00
 4846 225c 488B18   		movq	(%rax), %rbx
 4847 225f 488B8548 		movq	-2232(%rbp), %rax
 4847      F7FFFF
 4848 2266 488B00   		movq	(%rax), %rax
 4849 2269 4883C010 		addq	$16, %rax
 4850 226d 488B10   		movq	(%rax), %rdx
 4851 2270 488B8548 		movq	-2232(%rbp), %rax
 4851      F7FFFF
 4852 2277 4889C7   		movq	%rax, %rdi
 4853 227a FFD2     		call	*%rdx
 4854              	.LVL10:
 4855 227c 4989C4   		movq	%rax, %r12
 4856 227f 488B8548 		movq	-2232(%rbp), %rax
 4856      F7FFFF
 4857 2286 4889C7   		movq	%rax, %rdi
 4858 2289 E8000000 		call	_ZNK8UnitTest15AssertException10LineNumberEv@PLT
 4858      00
 4859              		.loc 6 121 1 discriminator 8
 4860 228e 4189C5   		movl	%eax, %r13d
 4861 2291 488B8548 		movq	-2232(%rbp), %rax
 4861      F7FFFF
 4862 2298 4889C7   		movq	%rax, %rdi
 4863 229b E8000000 		call	_ZNK8UnitTest15AssertException8FilenameEv@PLT
 4863      00
 4864              		.loc 6 121 1 discriminator 10
 4865 22a0 4889C1   		movq	%rax, %rcx
 4866 22a3 488B8528 		movq	-2264(%rbp), %rax
 4866      F7FFFF
 4867 22aa 488B5008 		movq	8(%rax), %rdx
 4868 22ae 488B8528 		movq	-2264(%rbp), %rax
 4868      F7FFFF
 4869 22b5 488B7010 		movq	16(%rax), %rsi
 4870 22b9 488D8550 		leaq	-2224(%rbp), %rax
 4870      F7FFFF
 4871 22c0 4589E8   		movl	%r13d, %r8d
 4872 22c3 4889C7   		movq	%rax, %rdi
 4873 22c6 E8000000 		call	_ZN8UnitTest11TestDetailsC1EPKcS2_S2_i@PLT
 4873      00
 4874              		.loc 6 121 1 discriminator 14
 4875 22cb 488D8550 		leaq	-2224(%rbp), %rax
 4875      F7FFFF
 4876 22d2 4C89E2   		movq	%r12, %rdx
 4877 22d5 4889C6   		movq	%rax, %rsi
 4878 22d8 4889DF   		movq	%rbx, %rdi
 4879 22db E8000000 		call	_ZN8UnitTest11TestResults13OnTestFailureERKNS_11TestDetailsEPKc@PLT
 4879      00
 4880              	.LEHE121:
 4881              		.loc 6 121 1 discriminator 16
 4882 22e0 E8000000 		call	__cxa_end_catch@PLT
 4882      00
 4883              	.LBE75:
 4884 22e5 E9A80100 		jmp	.L240
 4884      00
 4885              	.L244:
 4886              	.LBB76:
 4887              		.loc 6 121 1 discriminator 5
 4888 22ea 4889C7   		movq	%rax, %rdi
 4889 22ed E8000000 		call	__cxa_begin_catch@PLT
 4889      00
 4890 22f2 48898540 		movq	%rax, -2240(%rbp)
 4890      F7FFFF
 4891              	.LBB77:
 4892 22f9 488D8570 		leaq	-2192(%rbp), %rax
 4892      F7FFFF
 4893 2300 4889C7   		movq	%rax, %rdi
 4894              	.LEHB122:
 4895 2303 E8000000 		call	_ZN8UnitTest15MemoryOutStreamC1Ev
 4895      00
 4896              	.LEHE122:
 4897              		.loc 6 121 1 discriminator 18
 4898 2308 488D8570 		leaq	-2192(%rbp), %rax
 4898      F7FFFF
 4899 230f 488D1500 		leaq	.LC8(%rip), %rdx
 4899      000000
 4900 2316 4889D6   		movq	%rdx, %rsi
 4901 2319 4889C7   		movq	%rax, %rdi
 4902              	.LEHB123:
 4903 231c E8000000 		call	_ZStlsISt11char_traitsIcEERSt13basic_ostreamIcT_ES5_PKc@PLT
 4903      00
 4904 2321 4889C3   		movq	%rax, %rbx
 4905 2324 488B8540 		movq	-2240(%rbp), %rax
 4905      F7FFFF
 4906 232b 488B00   		movq	(%rax), %rax
 4907 232e 4883C010 		addq	$16, %rax
 4908 2332 488B10   		movq	(%rax), %rdx
 4909 2335 488B8540 		movq	-2240(%rbp), %rax
 4909      F7FFFF
 4910 233c 4889C7   		movq	%rax, %rdi
 4911 233f FFD2     		call	*%rdx
 4912              	.LVL11:
 4913 2341 4889C6   		movq	%rax, %rsi
 4914 2344 4889DF   		movq	%rbx, %rdi
 4915 2347 E8000000 		call	_ZStlsISt11char_traitsIcEERSt13basic_ostreamIcT_ES5_PKc@PLT
 4915      00
 4916              		.loc 6 121 1 discriminator 22
 4917 234c E8000000 		call	_ZN8UnitTest11CurrentTest7ResultsEv@PLT
 4917      00
 4918 2351 488B18   		movq	(%rax), %rbx
 4919 2354 488D8570 		leaq	-2192(%rbp), %rax
 4919      F7FFFF
 4920 235b 4889C7   		movq	%rax, %rdi
 4921 235e E8000000 		call	_ZNK8UnitTest15MemoryOutStream7GetTextEv@PLT
 4921      00
 4922              		.loc 6 121 1 discriminator 24
 4923 2363 4889C2   		movq	%rax, %rdx
 4924 2366 488B8528 		movq	-2264(%rbp), %rax
 4924      F7FFFF
 4925 236d 4883C008 		addq	$8, %rax
 4926 2371 4889C6   		movq	%rax, %rsi
 4927 2374 4889DF   		movq	%rbx, %rdi
 4928 2377 E8000000 		call	_ZN8UnitTest11TestResults13OnTestFailureERKNS_11TestDetailsEPKc@PLT
 4928      00
 4929              	.LEHE123:
 4930              		.loc 6 121 1 discriminator 28
 4931 237c 488D8570 		leaq	-2192(%rbp), %rax
 4931      F7FFFF
 4932 2383 4889C7   		movq	%rax, %rdi
 4933              	.LEHB124:
 4934 2386 E8000000 		call	_ZN8UnitTest15MemoryOutStreamD1Ev
 4934      00
 4935              	.LEHE124:
 4936              	.LBE77:
 4937              		.loc 6 121 1 discriminator 29
 4938 238b E8000000 		call	__cxa_end_catch@PLT
 4938      00
 4939              	.LBE76:
 4940 2390 E9FD0000 		jmp	.L240
 4940      00
 4941              	.L260:
 4942              		.loc 6 121 1 discriminator 6
 4943 2395 4889C7   		movq	%rax, %rdi
 4944 2398 E8000000 		call	__cxa_begin_catch@PLT
 4944      00
 4945 239d 80BD3FF7 		cmpb	$0, -2241(%rbp)
 4945      FFFF00
 4946 23a4 7445     		je	.L247
 4947              	.LEHB125:
 4948              		.loc 6 121 1 discriminator 31
 4949 23a6 E8000000 		call	_ZN8UnitTest11CurrentTest7ResultsEv@PLT
 4949      00
 4950 23ab 488B18   		movq	(%rax), %rbx
 4951 23ae 488B8528 		movq	-2264(%rbp), %rax
 4951      F7FFFF
 4952 23b5 488D4808 		leaq	8(%rax), %rcx
 4953 23b9 488D8550 		leaq	-2224(%rbp), %rax
 4953      F7FFFF
 4954 23c0 BA790000 		movl	$121, %edx
 4954      00
 4955 23c5 4889CE   		movq	%rcx, %rsi
 4956 23c8 4889C7   		movq	%rax, %rdi
 4957 23cb E8000000 		call	_ZN8UnitTest11TestDetailsC1ERKS0_i@PLT
 4957      00
 4958              		.loc 6 121 1 discriminator 36
 4959 23d0 488D8550 		leaq	-2224(%rbp), %rax
 4959      F7FFFF
 4960 23d7 488D1500 		leaq	.LC9(%rip), %rdx
 4960      000000
 4961 23de 4889C6   		movq	%rax, %rsi
 4962 23e1 4889DF   		movq	%rbx, %rdi
 4963 23e4 E8000000 		call	_ZN8UnitTest11TestResults13OnTestFailureERKNS_11TestDetailsEPKc@PLT
 4963      00
 4964 23e9 EB43     		jmp	.L248
 4965              	.L247:
 4966              		.loc 6 121 1 discriminator 32
 4967 23eb E8000000 		call	_ZN8UnitTest11CurrentTest7ResultsEv@PLT
 4967      00
 4968 23f0 488B18   		movq	(%rax), %rbx
 4969 23f3 488B8528 		movq	-2264(%rbp), %rax
 4969      F7FFFF
 4970 23fa 488D4808 		leaq	8(%rax), %rcx
 4971 23fe 488D8550 		leaq	-2224(%rbp), %rax
 4971      F7FFFF
 4972 2405 BA790000 		movl	$121, %edx
 4972      00
 4973 240a 4889CE   		movq	%rcx, %rsi
 4974 240d 4889C7   		movq	%rax, %rdi
 4975 2410 E8000000 		call	_ZN8UnitTest11TestDetailsC1ERKS0_i@PLT
 4975      00
 4976              		.loc 6 121 1 discriminator 43
 4977 2415 488D8550 		leaq	-2224(%rbp), %rax
 4977      F7FFFF
 4978 241c 488D1500 		leaq	.LC10(%rip), %rdx
 4978      000000
 4979 2423 4889C6   		movq	%rax, %rsi
 4980 2426 4889DF   		movq	%rbx, %rdi
 4981 2429 E8000000 		call	_ZN8UnitTest11TestResults13OnTestFailureERKNS_11TestDetailsEPKc@PLT
 4981      00
 4982              	.LEHE125:
 4983              	.L248:
 4984              	.LEHB126:
 4985              		.loc 6 121 1 discriminator 46
 4986 242e E8000000 		call	__cxa_end_catch@PLT
 4986      00
 4987 2433 EB5D     		jmp	.L240
 4988              	.L256:
 4989 2435 F30F1EFA 		endbr64
 4990              	.LBB79:
 4991              		.loc 6 121 1
 4992 2439 4889C3   		movq	%rax, %rbx
 4993 243c E8000000 		call	__cxa_end_catch@PLT
 4993      00
 4994 2441 4889D8   		movq	%rbx, %rax
 4995 2444 4889C7   		movq	%rax, %rdi
 4996 2447 E8000000 		call	_Unwind_Resume@PLT
 4996      00
 4997              	.LEHE126:
 4998              	.L258:
 4999 244c F30F1EFA 		endbr64
 5000              	.LBE79:
 5001              	.LBB80:
 5002              	.LBB78:
 5003 2450 4889C3   		movq	%rax, %rbx
 5004 2453 488D8570 		leaq	-2192(%rbp), %rax
 5004      F7FFFF
 5005 245a 4889C7   		movq	%rax, %rdi
 5006 245d E8000000 		call	_ZN8UnitTest15MemoryOutStreamD1Ev
 5006      00
 5007 2462 EB07     		jmp	.L251
 5008              	.L257:
 5009 2464 F30F1EFA 		endbr64
 5010              	.LBE78:
 5011 2468 4889C3   		movq	%rax, %rbx
 5012              	.L251:
 5013 246b E8000000 		call	__cxa_end_catch@PLT
 5013      00
 5014 2470 4889D8   		movq	%rbx, %rax
 5015 2473 4889C7   		movq	%rax, %rdi
 5016              	.LEHB127:
 5017 2476 E8000000 		call	_Unwind_Resume@PLT
 5017      00
 5018              	.LEHE127:
 5019              	.L259:
 5020 247b F30F1EFA 		endbr64
 5021              	.LBE80:
 5022 247f 4889C3   		movq	%rax, %rbx
 5023 2482 E8000000 		call	__cxa_end_catch@PLT
 5023      00
 5024 2487 4889D8   		movq	%rbx, %rax
 5025 248a 4889C7   		movq	%rax, %rdi
 5026              	.LEHB128:
 5027 248d E8000000 		call	_Unwind_Resume@PLT
 5027      00
 5028              	.LEHE128:
 5029              	.L240:
 5030 2492 488B45D8 		movq	-40(%rbp), %rax
 5031 2496 64482B04 		subq	%fs:40, %rax
 5031      25280000 
 5031      00
 5032 249f 7405     		je	.L253
 5033 24a1 E8000000 		call	__stack_chk_fail@PLT
 5033      00
 5034              	.L253:
 5035 24a6 4881C4C8 		addq	$2248, %rsp
 5035      080000
 5036 24ad 5B       		popq	%rbx
 5037 24ae 415C     		popq	%r12
 5038 24b0 415D     		popq	%r13
 5039 24b2 5D       		popq	%rbp
 5040              		.cfi_def_cfa 7, 8
 5041 24b3 C3       		ret
 5042              		.cfi_endproc
 5043              	.LFE1233:
 5044              		.section	.gcc_except_table
 5045              		.align 4
 5046              	.LLSDA1233:
 5047 0338 FF       		.byte	0xff
 5048 0339 9B       		.byte	0x9b
 5049 033a 55       		.uleb128 .LLSDATT1233-.LLSDATTD1233
 5050              	.LLSDATTD1233:
 5051 033b 01       		.byte	0x1
 5052 033c 3E       		.uleb128 .LLSDACSE1233-.LLSDACSB1233
 5053              	.LLSDACSB1233:
 5054 033d 49       		.uleb128 .LEHB118-.LFB1233
 5055 033e 05       		.uleb128 .LEHE118-.LEHB118
 5056 033f A701     		.uleb128 .L254-.LFB1233
 5057 0341 05       		.uleb128 0x5
 5058 0342 6D       		.uleb128 .LEHB119-.LFB1233
 5059 0343 05       		.uleb128 .LEHE119-.LEHB119
 5060 0344 8601     		.uleb128 .L255-.LFB1233
 5061 0346 07       		.uleb128 0x7
 5062 0347 7C       		.uleb128 .LEHB120-.LFB1233
 5063 0348 05       		.uleb128 .LEHE120-.LEHB120
 5064 0349 A701     		.uleb128 .L254-.LFB1233
 5065 034b 05       		.uleb128 0x5
 5066 034c CF01     		.uleb128 .LEHB121-.LFB1233
 5067 034e 8901     		.uleb128 .LEHE121-.LEHB121
 5068 0350 AD05     		.uleb128 .L256-.LFB1233
 5069 0352 00       		.uleb128 0
 5070 0353 FB02     		.uleb128 .LEHB122-.LFB1233
 5071 0355 05       		.uleb128 .LEHE122-.LEHB122
 5072 0356 DC05     		.uleb128 .L257-.LFB1233
 5073 0358 00       		.uleb128 0
 5074 0359 9403     		.uleb128 .LEHB123-.LFB1233
 5075 035b 60       		.uleb128 .LEHE123-.LEHB123
 5076 035c C405     		.uleb128 .L258-.LFB1233
 5077 035e 00       		.uleb128 0
 5078 035f FE03     		.uleb128 .LEHB124-.LFB1233
 5079 0361 05       		.uleb128 .LEHE124-.LEHB124
 5080 0362 DC05     		.uleb128 .L257-.LFB1233
 5081 0364 00       		.uleb128 0
 5082 0365 9E04     		.uleb128 .LEHB125-.LFB1233
 5083 0367 8801     		.uleb128 .LEHE125-.LEHB125
 5084 0369 F305     		.uleb128 .L259-.LFB1233
 5085 036b 00       		.uleb128 0
 5086 036c A605     		.uleb128 .LEHB126-.LFB1233
 5087 036e 1E       		.uleb128 .LEHE126-.LEHB126
 5088 036f 00       		.uleb128 0
 5089 0370 00       		.uleb128 0
 5090 0371 EE05     		.uleb128 .LEHB127-.LFB1233
 5091 0373 05       		.uleb128 .LEHE127-.LEHB127
 5092 0374 00       		.uleb128 0
 5093 0375 00       		.uleb128 0
 5094 0376 8506     		.uleb128 .LEHB128-.LFB1233
 5095 0378 05       		.uleb128 .LEHE128-.LEHB128
 5096 0379 00       		.uleb128 0
 5097 037a 00       		.uleb128 0
 5098              	.LLSDACSE1233:
 5099 037b 03       		.byte	0x3
 5100 037c 00       		.byte	0
 5101 037d 02       		.byte	0x2
 5102 037e 7D       		.byte	0x7d
 5103 037f 01       		.byte	0x1
 5104 0380 7D       		.byte	0x7d
 5105 0381 00       		.byte	0
 5106 0382 7D       		.byte	0x7d
 5107 0383 00       		.align 4
 5108 0384 00000000 		.long	0
 5109              	
 5110 0388 00000000 		.long	DW.ref._ZTISt9exception-.
 5111 038c 00000000 		.long	DW.ref._ZTIN8UnitTest15AssertExceptionE-.
 5112              	.LLSDATT1233:
 5113              		.text
 5115              		.section	.rodata
 5116 0524 00000000 		.align 8
 5117              	.LC34:
 5118 0528 556E6861 		.string	"Unhandled exception in CHECK_EQUAL(1, reporter.testFailedCount)"
 5118      6E646C65 
 5118      64206578 
 5118      63657074 
 5118      696F6E20 
 5119              		.text
 5120              		.align 2
 5122              	_ZN12_GLOBAL__N_158TestRunnerFixtureTestsThatAssertAreReportedAsFailingHelper7RunImplEv:
 5123              	.LFB1237:
 122:TestTestRunner.cpp **** {
 5124              		.loc 6 122 1 is_stmt 1
 5125              		.cfi_startproc
 5126              		.cfi_personality 0x9b,DW.ref.__gxx_personality_v0
 5127              		.cfi_lsda 0x1b,.LLSDA1237
 5128 24b4 F30F1EFA 		endbr64
 5129 24b8 55       		pushq	%rbp
 5130              		.cfi_def_cfa_offset 16
 5131              		.cfi_offset 6, -16
 5132 24b9 4889E5   		movq	%rsp, %rbp
 5133              		.cfi_def_cfa_register 6
 5134 24bc 53       		pushq	%rbx
 5135 24bd 4881EC88 		subq	$136, %rsp
 5135      000000
 5136              		.cfi_offset 3, -24
 5137 24c4 4889BD78 		movq	%rdi, -136(%rbp)
 5137      FFFFFF
 5138              		.loc 6 122 1
 5139 24cb 64488B04 		movq	%fs:40, %rax
 5139      25280000 
 5139      00
 5140 24d4 488945E8 		movq	%rax, -24(%rbp)
 5141 24d8 31C0     		xorl	%eax, %eax
 123:TestTestRunner.cpp ****     MockTest test("test", true, true);
 5142              		.loc 6 123 37
 5143 24da 488D45B0 		leaq	-80(%rbp), %rax
 5144 24de 41B80100 		movl	$1, %r8d
 5144      0000
 5145 24e4 B9010000 		movl	$1, %ecx
 5145      00
 5146 24e9 BA010000 		movl	$1, %edx
 5146      00
 5147 24ee 488D3500 		leaq	.LC30(%rip), %rsi
 5147      000000
 5148 24f5 4889C7   		movq	%rax, %rdi
 5149              	.LEHB129:
 5150 24f8 E803DBFF 		call	_ZN12_GLOBAL__N_18MockTestC1EPKcbbi
 5150      FF
 5151              	.LEHE129:
 124:TestTestRunner.cpp ****     list.Add(&test);
 5152              		.loc 6 124 13
 5153 24fd 488B8578 		movq	-136(%rbp), %rax
 5153      FFFFFF
 5154 2504 488D9048 		leaq	2120(%rax), %rdx
 5154      080000
 5155 250b 488D45B0 		leaq	-80(%rbp), %rax
 5156 250f 4889C6   		movq	%rax, %rsi
 5157 2512 4889D7   		movq	%rdx, %rdi
 5158              	.LEHB130:
 5159 2515 E8000000 		call	_ZN8UnitTest8TestList3AddEPNS_4TestE@PLT
 5159      00
 125:TestTestRunner.cpp **** 
 126:TestTestRunner.cpp **** 	RunTestsIf(list, NULL, True(), 0);
 5160              		.loc 6 126 12
 5161 251a 488B8578 		movq	-136(%rbp), %rax
 5161      FFFFFF
 5162              		.loc 6 126 13
 5163 2521 488B9578 		movq	-136(%rbp), %rdx
 5163      FFFFFF
 5164 2528 488DB248 		leaq	2120(%rdx), %rsi
 5164      080000
 5165              		.loc 6 126 12
 5166 252f 488D5590 		leaq	-112(%rbp), %rdx
 5167 2533 41B80000 		movl	$0, %r8d
 5167      0000
 5168 2539 4889D1   		movq	%rdx, %rcx
 5169 253c BA000000 		movl	$0, %edx
 5169      00
 5170 2541 4889C7   		movq	%rax, %rdi
 5171 2544 E8B34D00 		call	_ZN12_GLOBAL__N_111FixtureBase10RunTestsIfIN8UnitTest4TrueEEEiRKNS2_8TestListEPKcRKT_i
 5171      00
 5172              	.LEHE130:
 5173              	.LEHB131:
 127:TestTestRunner.cpp ****     CHECK_EQUAL(1, reporter.testFailedCount);
 5174              		.loc 6 127 5 discriminator 2
 5175 2549 E8000000 		call	_ZN8UnitTest11CurrentTest7DetailsEv@PLT
 5175      00
 5176 254e 488B08   		movq	(%rax), %rcx
 5177 2551 488D4590 		leaq	-112(%rbp), %rax
 5178 2555 BA7F0000 		movl	$127, %edx
 5178      00
 5179 255a 4889CE   		movq	%rcx, %rsi
 5180 255d 4889C7   		movq	%rax, %rdi
 5181 2560 E8000000 		call	_ZN8UnitTest11TestDetailsC1ERKS0_i@PLT
 5181      00
 5182              		.loc 6 127 5 is_stmt 0 discriminator 4
 5183 2565 488B8578 		movq	-136(%rbp), %rax
 5183      FFFFFF
 5184 256c 488D9824 		leaq	548(%rax), %rbx
 5184      020000
 5185 2573 C7458C01 		movl	$1, -116(%rbp)
 5185      000000
 5186 257a E8000000 		call	_ZN8UnitTest11CurrentTest7ResultsEv@PLT
 5186      00
 5187 257f 488B00   		movq	(%rax), %rax
 5188 2582 488D5590 		leaq	-112(%rbp), %rdx
 5189 2586 488D758C 		leaq	-116(%rbp), %rsi
 5190 258a 4889D1   		movq	%rdx, %rcx
 5191 258d 4889DA   		movq	%rbx, %rdx
