   1              		.file	"TestTestMacros.cpp"
   2              		.text
   3              	.Ltext0:
   4              		.file 0 "/home/pong/FPGALink/makestuff/libs/libutpp/tests" "TestTestMacros.cpp"
   5              		.section	.rodata
   6              	.LC0:
   7 0000 44656661 		.string	"DefaultSuite"
   7      756C7453 
   7      75697465 
   7      00
   8              		.section	.text._ZN13UnitTestSuite12GetSuiteNameEv,"axG",@progbits,_ZN13UnitTestSuite12GetSuiteName
   9              		.weak	_ZN13UnitTestSuite12GetSuiteNameEv
  11              	_ZN13UnitTestSuite12GetSuiteNameEv:
  12              	.LFB0:
  13              		.file 1 "../TestSuite.h"
   1:../TestSuite.h **** #ifndef UNITTEST_TESTSUITE_H
   2:../TestSuite.h **** #define UNITTEST_TESTSUITE_H
   3:../TestSuite.h **** 
   4:../TestSuite.h **** namespace UnitTestSuite {
   5:../TestSuite.h **** 
   6:../TestSuite.h ****     inline char const* GetSuiteName ()
   7:../TestSuite.h ****     {
  14              		.loc 1 7 5
  15              		.cfi_startproc
  16 0000 F30F1EFA 		endbr64
  17 0004 55       		pushq	%rbp
  18              		.cfi_def_cfa_offset 16
  19              		.cfi_offset 6, -16
  20 0005 4889E5   		movq	%rsp, %rbp
  21              		.cfi_def_cfa_register 6
   8:../TestSuite.h ****         return "DefaultSuite";
  22              		.loc 1 8 16
  23 0008 488D0500 		leaq	.LC0(%rip), %rax
  23      000000
   9:../TestSuite.h ****     }
  24              		.loc 1 9 5
  25 000f 5D       		popq	%rbp
  26              		.cfi_def_cfa 7, 8
  27 0010 C3       		ret
  28              		.cfi_endproc
  29              	.LFE0:
  31              		.section	.text._ZN8UnitTest15MemoryOutStreamC1Ev,"axG",@progbits,_ZN8UnitTest15MemoryOutStreamC1Ev
  32              		.align 2
  33              		.weak	_ZN8UnitTest15MemoryOutStreamC1Ev
  35              	_ZN8UnitTest15MemoryOutStreamC1Ev:
  36              	.LFB1129:
  37              		.file 2 "../MemoryOutStream.h"
   1:../MemoryOutStream.h **** #ifndef UNITTEST_MEMORYOUTSTREAM_H
   2:../MemoryOutStream.h **** #define UNITTEST_MEMORYOUTSTREAM_H
   3:../MemoryOutStream.h **** 
   4:../MemoryOutStream.h **** #include "Config.h"
   5:../MemoryOutStream.h **** 
   6:../MemoryOutStream.h **** #ifndef UNITTEST_USE_CUSTOM_STREAMS
   7:../MemoryOutStream.h **** 
   8:../MemoryOutStream.h **** #include <sstream>
   9:../MemoryOutStream.h **** 
  10:../MemoryOutStream.h **** namespace UnitTest
  11:../MemoryOutStream.h **** {
  12:../MemoryOutStream.h **** 
  13:../MemoryOutStream.h **** class MemoryOutStream : public std::ostringstream
  14:../MemoryOutStream.h **** {
  15:../MemoryOutStream.h **** public:
  16:../MemoryOutStream.h ****     MemoryOutStream() {}
  38              		.loc 2 16 5
  39              		.cfi_startproc
  40              		.cfi_personality 0x9b,DW.ref.__gxx_personality_v0
  41              		.cfi_lsda 0x1b,.LLSDA1129
  42 0000 F30F1EFA 		endbr64
  43 0004 55       		pushq	%rbp
  44              		.cfi_def_cfa_offset 16
  45              		.cfi_offset 6, -16
  46 0005 4889E5   		movq	%rsp, %rbp
  47              		.cfi_def_cfa_register 6
  48 0008 53       		pushq	%rbx
  49 0009 4883EC18 		subq	$24, %rsp
  50              		.cfi_offset 3, -24
  51 000d 48897DE8 		movq	%rdi, -24(%rbp)
  52              	.LBB2:
  53              		.loc 2 16 23
  54 0011 488B45E8 		movq	-24(%rbp), %rax
  55 0015 48059000 		addq	$144, %rax
  55      0000
  56 001b 4889C7   		movq	%rax, %rdi
  57              	.LEHB0:
  58 001e E8000000 		call	_ZNSt9basic_iosIcSt11char_traitsIcEEC2Ev@PLT
  58      00
  59              	.LEHE0:
  60 0023 488B45E8 		movq	-24(%rbp), %rax
  61 0027 488D1500 		leaq	8+_ZTTN8UnitTest15MemoryOutStreamE(%rip), %rdx
  61      000000
  62 002e 4889D6   		movq	%rdx, %rsi
  63 0031 4889C7   		movq	%rax, %rdi
  64              	.LEHB1:
  65 0034 E8000000 		call	_ZNSt7__cxx1119basic_ostringstreamIcSt11char_traitsIcESaIcEEC2Ev@PLT
  65      00
  66              	.LEHE1:
  67              		.loc 2 16 23 is_stmt 0 discriminator 2
  68 0039 488D1500 		leaq	24+_ZTVN8UnitTest15MemoryOutStreamE(%rip), %rdx
  68      000000
  69 0040 488B45E8 		movq	-24(%rbp), %rax
  70 0044 488910   		movq	%rdx, (%rax)
  71 0047 488B45E8 		movq	-24(%rbp), %rax
  72 004b 48059000 		addq	$144, %rax
  72      0000
  73 0051 488D1500 		leaq	64+_ZTVN8UnitTest15MemoryOutStreamE(%rip), %rdx
  73      000000
  74 0058 488910   		movq	%rdx, (%rax)
  75 005b 488B45E8 		movq	-24(%rbp), %rax
  76 005f 4883C070 		addq	$112, %rax
  77 0063 4889C7   		movq	%rax, %rdi
  78              	.LEHB2:
  79 0066 E8000000 		call	_ZNSt7__cxx1112basic_stringIcSt11char_traitsIcESaIcEEC1Ev@PLT
  79      00
  80              	.LEHE2:
  81              	.LBE2:
  82              		.loc 2 16 24 is_stmt 1
  83 006b EB43     		jmp	.L8
  84              	.L7:
  85 006d F30F1EFA 		endbr64
  86              	.LBB3:
  87 0071 4889C3   		movq	%rax, %rbx
  88 0074 488B45E8 		movq	-24(%rbp), %rax
  89 0078 488D1500 		leaq	8+_ZTTN8UnitTest15MemoryOutStreamE(%rip), %rdx
  89      000000
  90 007f 4889D6   		movq	%rdx, %rsi
  91 0082 4889C7   		movq	%rax, %rdi
  92 0085 E8000000 		call	_ZNSt7__cxx1119basic_ostringstreamIcSt11char_traitsIcESaIcEED2Ev@PLT
  92      00
  93 008a EB07     		jmp	.L5
  94              	.L6:
  95 008c F30F1EFA 		endbr64
  96 0090 4889C3   		movq	%rax, %rbx
  97              	.L5:
  98              		.loc 2 16 24 is_stmt 0 discriminator 1
  99 0093 488B45E8 		movq	-24(%rbp), %rax
 100 0097 48059000 		addq	$144, %rax
 100      0000
 101 009d 4889C7   		movq	%rax, %rdi
 102 00a0 E8000000 		call	_ZNSt9basic_iosIcSt11char_traitsIcEED2Ev@PLT
 102      00
 103 00a5 4889D8   		movq	%rbx, %rax
 104 00a8 4889C7   		movq	%rax, %rdi
 105              	.LEHB3:
 106 00ab E8000000 		call	_Unwind_Resume@PLT
 106      00
 107              	.LEHE3:
 108              	.L8:
 109              	.LBE3:
 110              		.loc 2 16 24
 111 00b0 488B5DF8 		movq	-8(%rbp), %rbx
 112 00b4 C9       		leave
 113              		.cfi_def_cfa 7, 8
 114 00b5 C3       		ret
 115              		.cfi_endproc
 116              	.LFE1129:
 117              		.globl	__gxx_personality_v0
 118              		.section	.gcc_except_table._ZN8UnitTest15MemoryOutStreamC1Ev,"aG",@progbits,_ZN8UnitTest15MemoryOu
 119              	.LLSDA1129:
 120 0000 FF       		.byte	0xff
 121 0001 FF       		.byte	0xff
 122 0002 01       		.byte	0x1
 123 0003 12       		.uleb128 .LLSDACSE1129-.LLSDACSB1129
 124              	.LLSDACSB1129:
 125 0004 1E       		.uleb128 .LEHB0-.LFB1129
 126 0005 05       		.uleb128 .LEHE0-.LEHB0
 127 0006 00       		.uleb128 0
 128 0007 00       		.uleb128 0
 129 0008 34       		.uleb128 .LEHB1-.LFB1129
 130 0009 05       		.uleb128 .LEHE1-.LEHB1
 131 000a 8C01     		.uleb128 .L6-.LFB1129
 132 000c 00       		.uleb128 0
 133 000d 66       		.uleb128 .LEHB2-.LFB1129
 134 000e 05       		.uleb128 .LEHE2-.LEHB2
 135 000f 6D       		.uleb128 .L7-.LFB1129
 136 0010 00       		.uleb128 0
 137 0011 AB01     		.uleb128 .LEHB3-.LFB1129
 138 0013 05       		.uleb128 .LEHE3-.LEHB3
 139 0014 00       		.uleb128 0
 140 0015 00       		.uleb128 0
 141              	.LLSDACSE1129:
 142              		.section	.text._ZN8UnitTest15MemoryOutStreamC1Ev,"axG",@progbits,_ZN8UnitTest15MemoryOutStreamC1Ev
 144              		.section	.text._ZN8UnitTest12TestReporterC2Ev,"axG",@progbits,_ZN8UnitTest12TestReporterC5Ev,comda
 145              		.align 2
 146              		.weak	_ZN8UnitTest12TestReporterC2Ev
 148              	_ZN8UnitTest12TestReporterC2Ev:
 149              	.LFB1143:
 150              		.file 3 "../TestReporter.h"
   1:../TestReporter.h **** #ifndef UNITTEST_TESTREPORTER_H
   2:../TestReporter.h **** #define UNITTEST_TESTREPORTER_H
   3:../TestReporter.h **** 
   4:../TestReporter.h **** namespace UnitTest {
   5:../TestReporter.h **** 
   6:../TestReporter.h **** class TestDetails;
   7:../TestReporter.h **** 
   8:../TestReporter.h **** class TestReporter
 151              		.loc 3 8 7 is_stmt 1
 152              		.cfi_startproc
 153 0000 F30F1EFA 		endbr64
 154 0004 55       		pushq	%rbp
 155              		.cfi_def_cfa_offset 16
 156              		.cfi_offset 6, -16
 157 0005 4889E5   		movq	%rsp, %rbp
 158              		.cfi_def_cfa_register 6
 159 0008 48897DF8 		movq	%rdi, -8(%rbp)
 160              	.LBB4:
 161              		.loc 3 8 7
 162 000c 488D1500 		leaq	16+_ZTVN8UnitTest12TestReporterE(%rip), %rdx
 162      000000
 163 0013 488B45F8 		movq	-8(%rbp), %rax
 164 0017 488910   		movq	%rdx, (%rax)
 165              	.LBE4:
 166 001a 90       		nop
 167 001b 5D       		popq	%rbp
 168              		.cfi_def_cfa 7, 8
 169 001c C3       		ret
 170              		.cfi_endproc
 171              	.LFE1143:
 173              		.weak	_ZN8UnitTest12TestReporterC1Ev
 174              		.set	_ZN8UnitTest12TestReporterC1Ev,_ZN8UnitTest12TestReporterC2Ev
 175              		.section	.text._ZN17RecordingReporterC2Ev,"axG",@progbits,_ZN17RecordingReporterC5Ev,comdat
 176              		.align 2
 177              		.weak	_ZN17RecordingReporterC2Ev
 179              	_ZN17RecordingReporterC2Ev:
 180              	.LFB1145:
 181              		.file 4 "RecordingReporter.h"
   1:RecordingReporter.h **** #ifndef UNITTEST_RECORDINGREPORTER_H
   2:RecordingReporter.h **** #define UNITTEST_RECORDINGREPORTER_H
   3:RecordingReporter.h **** 
   4:RecordingReporter.h **** #include "../TestReporter.h"
   5:RecordingReporter.h **** #include <cstring>
   6:RecordingReporter.h **** 
   7:RecordingReporter.h **** #include "../TestDetails.h"
   8:RecordingReporter.h **** 
   9:RecordingReporter.h **** struct RecordingReporter : public UnitTest::TestReporter
  10:RecordingReporter.h **** {
  11:RecordingReporter.h **** private:
  12:RecordingReporter.h ****     enum { kMaxStringLength = 256 };
  13:RecordingReporter.h **** 
  14:RecordingReporter.h **** public:
  15:RecordingReporter.h ****     RecordingReporter()
 182              		.loc 4 15 5
 183              		.cfi_startproc
 184 0000 F30F1EFA 		endbr64
 185 0004 55       		pushq	%rbp
 186              		.cfi_def_cfa_offset 16
 187              		.cfi_offset 6, -16
 188 0005 4889E5   		movq	%rsp, %rbp
 189              		.cfi_def_cfa_register 6
 190 0008 4883EC10 		subq	$16, %rsp
 191 000c 48897DF8 		movq	%rdi, -8(%rbp)
 192              	.LBB5:
  16:RecordingReporter.h ****         : testRunCount(0)
  17:RecordingReporter.h ****         , testFailedCount(0)
  18:RecordingReporter.h ****         , lastFailedLine(0)
  19:RecordingReporter.h ****         , testFinishedCount(0)
  20:RecordingReporter.h ****         , lastFinishedTestTime(0)
  21:RecordingReporter.h ****         , summaryTotalTestCount(0)
  22:RecordingReporter.h ****         , summaryFailedTestCount(0)
  23:RecordingReporter.h ****         , summaryFailureCount(0)
  24:RecordingReporter.h ****         , summarySecondsElapsed(0)
 193              		.loc 4 24 34
 194 0010 488B45F8 		movq	-8(%rbp), %rax
 195 0014 4889C7   		movq	%rax, %rdi
 196 0017 E8000000 		call	_ZN8UnitTest12TestReporterC2Ev
 196      00
 197 001c 488D1500 		leaq	16+_ZTV17RecordingReporter(%rip), %rdx
 197      000000
 198 0023 488B45F8 		movq	-8(%rbp), %rax
 199 0027 488910   		movq	%rdx, (%rax)
  16:RecordingReporter.h ****         : testRunCount(0)
 200              		.loc 4 16 11
 201 002a 488B45F8 		movq	-8(%rbp), %rax
 202 002e C7400800 		movl	$0, 8(%rax)
 202      000000
  17:RecordingReporter.h ****         , lastFailedLine(0)
 203              		.loc 4 17 11
 204 0035 488B45F8 		movq	-8(%rbp), %rax
 205 0039 C7800C02 		movl	$0, 524(%rax)
 205      00000000 
 205      0000
  18:RecordingReporter.h ****         , testFinishedCount(0)
 206              		.loc 4 18 11
 207 0043 488B45F8 		movq	-8(%rbp), %rax
 208 0047 C7801003 		movl	$0, 784(%rax)
 208      00000000 
 208      0000
  19:RecordingReporter.h ****         , lastFinishedTestTime(0)
 209              		.loc 4 19 11
 210 0051 488B45F8 		movq	-8(%rbp), %rax
 211 0055 C7801406 		movl	$0, 1556(%rax)
 211      00000000 
 211      0000
  20:RecordingReporter.h ****         , summaryTotalTestCount(0)
 212              		.loc 4 20 11
 213 005f 488B45F8 		movq	-8(%rbp), %rax
 214 0063 660FEFC0 		pxor	%xmm0, %xmm0
 215 0067 F30F1180 		movss	%xmm0, 2072(%rax)
 215      18080000 
  21:RecordingReporter.h ****         , summaryFailedTestCount(0)
 216              		.loc 4 21 11
 217 006f 488B45F8 		movq	-8(%rbp), %rax
 218 0073 C7801C08 		movl	$0, 2076(%rax)
 218      00000000 
 218      0000
  22:RecordingReporter.h ****         , summaryFailureCount(0)
 219              		.loc 4 22 11
 220 007d 488B45F8 		movq	-8(%rbp), %rax
 221 0081 C7802008 		movl	$0, 2080(%rax)
 221      00000000 
 221      0000
  23:RecordingReporter.h ****         , summarySecondsElapsed(0)
 222              		.loc 4 23 11
 223 008b 488B45F8 		movq	-8(%rbp), %rax
 224 008f C7802408 		movl	$0, 2084(%rax)
 224      00000000 
 224      0000
 225              		.loc 4 24 11
 226 0099 488B45F8 		movq	-8(%rbp), %rax
 227 009d 660FEFC0 		pxor	%xmm0, %xmm0
 228 00a1 F30F1180 		movss	%xmm0, 2088(%rax)
 228      28080000 
  25:RecordingReporter.h ****     {
  26:RecordingReporter.h ****         lastStartedSuite[0] = '\0';
 229              		.loc 4 26 29
 230 00a9 488B45F8 		movq	-8(%rbp), %rax
 231 00ad C6400C00 		movb	$0, 12(%rax)
  27:RecordingReporter.h ****         lastStartedTest[0] = '\0';
 232              		.loc 4 27 28
 233 00b1 488B45F8 		movq	-8(%rbp), %rax
 234 00b5 C6800C01 		movb	$0, 268(%rax)
 234      000000
  28:RecordingReporter.h ****         lastFailedFile[0] = '\0';
 235              		.loc 4 28 27
 236 00bc 488B45F8 		movq	-8(%rbp), %rax
 237 00c0 C6801002 		movb	$0, 528(%rax)
 237      000000
  29:RecordingReporter.h ****         lastFailedSuite[0] = '\0';
 238              		.loc 4 29 28
 239 00c7 488B45F8 		movq	-8(%rbp), %rax
 240 00cb C6801403 		movb	$0, 788(%rax)
 240      000000
  30:RecordingReporter.h ****         lastFailedTest[0] = '\0';
 241              		.loc 4 30 27
 242 00d2 488B45F8 		movq	-8(%rbp), %rax
 243 00d6 C6801404 		movb	$0, 1044(%rax)
 243      000000
  31:RecordingReporter.h ****         lastFailedMessage[0] = '\0';
 244              		.loc 4 31 30
 245 00dd 488B45F8 		movq	-8(%rbp), %rax
 246 00e1 C6801405 		movb	$0, 1300(%rax)
 246      000000
  32:RecordingReporter.h ****         lastFinishedSuite[0] = '\0';
 247              		.loc 4 32 30
 248 00e8 488B45F8 		movq	-8(%rbp), %rax
 249 00ec C6801806 		movb	$0, 1560(%rax)
 249      000000
  33:RecordingReporter.h ****         lastFinishedTest[0] = '\0';
 250              		.loc 4 33 29
 251 00f3 488B45F8 		movq	-8(%rbp), %rax
 252 00f7 C6801807 		movb	$0, 1816(%rax)
 252      000000
 253              	.LBE5:
  34:RecordingReporter.h ****     }
 254              		.loc 4 34 5
 255 00fe 90       		nop
 256 00ff C9       		leave
 257              		.cfi_def_cfa 7, 8
 258 0100 C3       		ret
 259              		.cfi_endproc
 260              	.LFE1145:
 262              		.weak	_ZN17RecordingReporterC1Ev
 263              		.set	_ZN17RecordingReporterC1Ev,_ZN17RecordingReporterC2Ev
 264              		.section	.text._ZN17RecordingReporter15ReportTestStartERKN8UnitTest11TestDetailsE,"axG",@progbits,
 265              		.align 2
 266              		.weak	_ZN17RecordingReporter15ReportTestStartERKN8UnitTest11TestDetailsE
 268              	_ZN17RecordingReporter15ReportTestStartERKN8UnitTest11TestDetailsE:
 269              	.LFB1147:
  35:RecordingReporter.h **** 
  36:RecordingReporter.h ****     virtual void ReportTestStart(UnitTest::TestDetails const& test)
 270              		.loc 4 36 18
 271              		.cfi_startproc
 272 0000 F30F1EFA 		endbr64
 273 0004 55       		pushq	%rbp
 274              		.cfi_def_cfa_offset 16
 275              		.cfi_offset 6, -16
 276 0005 4889E5   		movq	%rsp, %rbp
 277              		.cfi_def_cfa_register 6
 278 0008 4883EC10 		subq	$16, %rsp
 279 000c 48897DF8 		movq	%rdi, -8(%rbp)
 280 0010 488975F0 		movq	%rsi, -16(%rbp)
  37:RecordingReporter.h ****     {
  38:RecordingReporter.h **** 		using namespace std;
  39:RecordingReporter.h **** 
  40:RecordingReporter.h ****         ++testRunCount;
 281              		.loc 4 40 11
 282 0014 488B45F8 		movq	-8(%rbp), %rax
 283 0018 8B4008   		movl	8(%rax), %eax
 284              		.loc 4 40 9
 285 001b 8D5001   		leal	1(%rax), %edx
 286 001e 488B45F8 		movq	-8(%rbp), %rax
 287 0022 895008   		movl	%edx, 8(%rax)
  41:RecordingReporter.h ****         strcpy(lastStartedSuite, test.suiteName);
 288              		.loc 4 41 39
 289 0025 488B45F0 		movq	-16(%rbp), %rax
 290 0029 488B00   		movq	(%rax), %rax
 291              		.loc 4 41 16
 292 002c 488B55F8 		movq	-8(%rbp), %rdx
 293 0030 4883C20C 		addq	$12, %rdx
 294              		.loc 4 41 15
 295 0034 4889C6   		movq	%rax, %rsi
 296 0037 4889D7   		movq	%rdx, %rdi
 297 003a E8000000 		call	strcpy@PLT
 297      00
  42:RecordingReporter.h ****         strcpy(lastStartedTest, test.testName);
 298              		.loc 4 42 38
 299 003f 488B45F0 		movq	-16(%rbp), %rax
 300 0043 488B4008 		movq	8(%rax), %rax
 301              		.loc 4 42 16
 302 0047 488B55F8 		movq	-8(%rbp), %rdx
 303 004b 4881C20C 		addq	$268, %rdx
 303      010000
 304              		.loc 4 42 15
 305 0052 4889C6   		movq	%rax, %rsi
 306 0055 4889D7   		movq	%rdx, %rdi
 307 0058 E8000000 		call	strcpy@PLT
 307      00
  43:RecordingReporter.h ****     }
 308              		.loc 4 43 5
 309 005d 90       		nop
 310 005e C9       		leave
 311              		.cfi_def_cfa 7, 8
 312 005f C3       		ret
 313              		.cfi_endproc
 314              	.LFE1147:
 316              		.section	.text._ZN17RecordingReporter13ReportFailureERKN8UnitTest11TestDetailsEPKc,"axG",@progbits
 317              		.align 2
 318              		.weak	_ZN17RecordingReporter13ReportFailureERKN8UnitTest11TestDetailsEPKc
 320              	_ZN17RecordingReporter13ReportFailureERKN8UnitTest11TestDetailsEPKc:
 321              	.LFB1148:
  44:RecordingReporter.h **** 
  45:RecordingReporter.h ****     virtual void ReportFailure(UnitTest::TestDetails const& test, char const* failure)
 322              		.loc 4 45 18
 323              		.cfi_startproc
 324 0000 F30F1EFA 		endbr64
 325 0004 55       		pushq	%rbp
 326              		.cfi_def_cfa_offset 16
 327              		.cfi_offset 6, -16
 328 0005 4889E5   		movq	%rsp, %rbp
 329              		.cfi_def_cfa_register 6
 330 0008 4883EC20 		subq	$32, %rsp
 331 000c 48897DF8 		movq	%rdi, -8(%rbp)
 332 0010 488975F0 		movq	%rsi, -16(%rbp)
 333 0014 488955E8 		movq	%rdx, -24(%rbp)
  46:RecordingReporter.h ****     {
  47:RecordingReporter.h **** 		using namespace std;
  48:RecordingReporter.h **** 
  49:RecordingReporter.h **** 		++testFailedCount;
 334              		.loc 4 49 5
 335 0018 488B45F8 		movq	-8(%rbp), %rax
 336 001c 8B800C02 		movl	524(%rax), %eax
 336      0000
 337              		.loc 4 49 3
 338 0022 8D5001   		leal	1(%rax), %edx
 339 0025 488B45F8 		movq	-8(%rbp), %rax
 340 0029 89900C02 		movl	%edx, 524(%rax)
 340      0000
  50:RecordingReporter.h ****         strcpy(lastFailedFile, test.filename);
 341              		.loc 4 50 37
 342 002f 488B45F0 		movq	-16(%rbp), %rax
 343 0033 488B4010 		movq	16(%rax), %rax
 344              		.loc 4 50 16
 345 0037 488B55F8 		movq	-8(%rbp), %rdx
 346 003b 4881C210 		addq	$528, %rdx
 346      020000
 347              		.loc 4 50 15
 348 0042 4889C6   		movq	%rax, %rsi
 349 0045 4889D7   		movq	%rdx, %rdi
 350 0048 E8000000 		call	strcpy@PLT
 350      00
  51:RecordingReporter.h ****         lastFailedLine = test.lineNumber;
 351              		.loc 4 51 31
 352 004d 488B45F0 		movq	-16(%rbp), %rax
 353 0051 8B5018   		movl	24(%rax), %edx
 354              		.loc 4 51 24
 355 0054 488B45F8 		movq	-8(%rbp), %rax
 356 0058 89901003 		movl	%edx, 784(%rax)
 356      0000
  52:RecordingReporter.h ****         strcpy(lastFailedSuite, test.suiteName);
 357              		.loc 4 52 38
 358 005e 488B45F0 		movq	-16(%rbp), %rax
 359 0062 488B00   		movq	(%rax), %rax
 360              		.loc 4 52 16
 361 0065 488B55F8 		movq	-8(%rbp), %rdx
 362 0069 4881C214 		addq	$788, %rdx
 362      030000
 363              		.loc 4 52 15
 364 0070 4889C6   		movq	%rax, %rsi
 365 0073 4889D7   		movq	%rdx, %rdi
 366 0076 E8000000 		call	strcpy@PLT
 366      00
  53:RecordingReporter.h ****         strcpy(lastFailedTest, test.testName);
 367              		.loc 4 53 37
 368 007b 488B45F0 		movq	-16(%rbp), %rax
 369 007f 488B4008 		movq	8(%rax), %rax
 370              		.loc 4 53 16
 371 0083 488B55F8 		movq	-8(%rbp), %rdx
 372 0087 4881C214 		addq	$1044, %rdx
 372      040000
 373              		.loc 4 53 15
 374 008e 4889C6   		movq	%rax, %rsi
 375 0091 4889D7   		movq	%rdx, %rdi
 376 0094 E8000000 		call	strcpy@PLT
 376      00
  54:RecordingReporter.h ****         strcpy(lastFailedMessage, failure);
 377              		.loc 4 54 16
 378 0099 488B45F8 		movq	-8(%rbp), %rax
 379 009d 488D9014 		leaq	1300(%rax), %rdx
 379      050000
 380              		.loc 4 54 15
 381 00a4 488B45E8 		movq	-24(%rbp), %rax
 382 00a8 4889C6   		movq	%rax, %rsi
 383 00ab 4889D7   		movq	%rdx, %rdi
 384 00ae E8000000 		call	strcpy@PLT
 384      00
  55:RecordingReporter.h ****     }
 385              		.loc 4 55 5
 386 00b3 90       		nop
 387 00b4 C9       		leave
 388              		.cfi_def_cfa 7, 8
 389 00b5 C3       		ret
 390              		.cfi_endproc
 391              	.LFE1148:
 393              		.section	.text._ZN17RecordingReporter16ReportTestFinishERKN8UnitTest11TestDetailsEf,"axG",@progbit
 394              		.align 2
 395              		.weak	_ZN17RecordingReporter16ReportTestFinishERKN8UnitTest11TestDetailsEf
 397              	_ZN17RecordingReporter16ReportTestFinishERKN8UnitTest11TestDetailsEf:
 398              	.LFB1149:
  56:RecordingReporter.h **** 
  57:RecordingReporter.h ****     virtual void ReportTestFinish(UnitTest::TestDetails const& test, float testDuration)
 399              		.loc 4 57 18
 400              		.cfi_startproc
 401 0000 F30F1EFA 		endbr64
 402 0004 55       		pushq	%rbp
 403              		.cfi_def_cfa_offset 16
 404              		.cfi_offset 6, -16
 405 0005 4889E5   		movq	%rsp, %rbp
 406              		.cfi_def_cfa_register 6
 407 0008 4883EC20 		subq	$32, %rsp
 408 000c 48897DF8 		movq	%rdi, -8(%rbp)
 409 0010 488975F0 		movq	%rsi, -16(%rbp)
 410 0014 F30F1145 		movss	%xmm0, -20(%rbp)
 410      EC
  58:RecordingReporter.h ****     {
  59:RecordingReporter.h **** 		using namespace std;
  60:RecordingReporter.h **** 
  61:RecordingReporter.h **** 		++testFinishedCount;
 411              		.loc 4 61 5
 412 0019 488B45F8 		movq	-8(%rbp), %rax
 413 001d 8B801406 		movl	1556(%rax), %eax
 413      0000
 414              		.loc 4 61 3
 415 0023 8D5001   		leal	1(%rax), %edx
 416 0026 488B45F8 		movq	-8(%rbp), %rax
 417 002a 89901406 		movl	%edx, 1556(%rax)
 417      0000
  62:RecordingReporter.h ****         strcpy(lastFinishedSuite, test.suiteName);
 418              		.loc 4 62 40
 419 0030 488B45F0 		movq	-16(%rbp), %rax
 420 0034 488B00   		movq	(%rax), %rax
 421              		.loc 4 62 16
 422 0037 488B55F8 		movq	-8(%rbp), %rdx
 423 003b 4881C218 		addq	$1560, %rdx
 423      060000
 424              		.loc 4 62 15
 425 0042 4889C6   		movq	%rax, %rsi
 426 0045 4889D7   		movq	%rdx, %rdi
 427 0048 E8000000 		call	strcpy@PLT
 427      00
  63:RecordingReporter.h ****         strcpy(lastFinishedTest, test.testName);
 428              		.loc 4 63 39
 429 004d 488B45F0 		movq	-16(%rbp), %rax
 430 0051 488B4008 		movq	8(%rax), %rax
 431              		.loc 4 63 16
 432 0055 488B55F8 		movq	-8(%rbp), %rdx
 433 0059 4881C218 		addq	$1816, %rdx
 433      070000
 434              		.loc 4 63 15
 435 0060 4889C6   		movq	%rax, %rsi
 436 0063 4889D7   		movq	%rdx, %rdi
 437 0066 E8000000 		call	strcpy@PLT
 437      00
  64:RecordingReporter.h ****         lastFinishedTestTime = testDuration;
 438              		.loc 4 64 30
 439 006b 488B45F8 		movq	-8(%rbp), %rax
 440 006f F30F1045 		movss	-20(%rbp), %xmm0
 440      EC
 441 0074 F30F1180 		movss	%xmm0, 2072(%rax)
 441      18080000 
  65:RecordingReporter.h ****     }
 442              		.loc 4 65 5
 443 007c 90       		nop
 444 007d C9       		leave
 445              		.cfi_def_cfa 7, 8
 446 007e C3       		ret
 447              		.cfi_endproc
 448              	.LFE1149:
 450              		.section	.text._ZN17RecordingReporter13ReportSummaryEiiif,"axG",@progbits,_ZN17RecordingReporter13
 451              		.align 2
 452              		.weak	_ZN17RecordingReporter13ReportSummaryEiiif
 454              	_ZN17RecordingReporter13ReportSummaryEiiif:
 455              	.LFB1150:
  66:RecordingReporter.h **** 
  67:RecordingReporter.h ****     virtual void ReportSummary(int totalTestCount, int failedTestCount, int failureCount, float sec
 456              		.loc 4 67 18
 457              		.cfi_startproc
 458 0000 F30F1EFA 		endbr64
 459 0004 55       		pushq	%rbp
 460              		.cfi_def_cfa_offset 16
 461              		.cfi_offset 6, -16
 462 0005 4889E5   		movq	%rsp, %rbp
 463              		.cfi_def_cfa_register 6
 464 0008 48897DF8 		movq	%rdi, -8(%rbp)
 465 000c 8975F4   		movl	%esi, -12(%rbp)
 466 000f 8955F0   		movl	%edx, -16(%rbp)
 467 0012 894DEC   		movl	%ecx, -20(%rbp)
 468 0015 F30F1145 		movss	%xmm0, -24(%rbp)
 468      E8
  68:RecordingReporter.h ****     {
  69:RecordingReporter.h ****         summaryTotalTestCount = totalTestCount;
 469              		.loc 4 69 31
 470 001a 488B45F8 		movq	-8(%rbp), %rax
 471 001e 8B55F4   		movl	-12(%rbp), %edx
 472 0021 89901C08 		movl	%edx, 2076(%rax)
 472      0000
  70:RecordingReporter.h ****         summaryFailedTestCount = failedTestCount;
 473              		.loc 4 70 32
 474 0027 488B45F8 		movq	-8(%rbp), %rax
 475 002b 8B55F0   		movl	-16(%rbp), %edx
 476 002e 89902008 		movl	%edx, 2080(%rax)
 476      0000
  71:RecordingReporter.h ****         summaryFailureCount = failureCount;
 477              		.loc 4 71 29
 478 0034 488B45F8 		movq	-8(%rbp), %rax
 479 0038 8B55EC   		movl	-20(%rbp), %edx
 480 003b 89902408 		movl	%edx, 2084(%rax)
 480      0000
  72:RecordingReporter.h ****         summarySecondsElapsed = secondsElapsed;
 481              		.loc 4 72 31
 482 0041 488B45F8 		movq	-8(%rbp), %rax
 483 0045 F30F1045 		movss	-24(%rbp), %xmm0
 483      E8
 484 004a F30F1180 		movss	%xmm0, 2088(%rax)
 484      28080000 
  73:RecordingReporter.h ****     }
 485              		.loc 4 73 5
 486 0052 90       		nop
 487 0053 5D       		popq	%rbp
 488              		.cfi_def_cfa 7, 8
 489 0054 C3       		ret
 490              		.cfi_endproc
 491              	.LFE1150:
 493              		.section	.text._ZN17ScopedCurrentTestC2ERN8UnitTest11TestResultsEPKNS0_11TestDetailsE,"axG",@progb
 494              		.align 2
 495              		.weak	_ZN17ScopedCurrentTestC2ERN8UnitTest11TestResultsEPKNS0_11TestDetailsE
 497              	_ZN17ScopedCurrentTestC2ERN8UnitTest11TestResultsEPKNS0_11TestDetailsE:
 498              	.LFB1155:
 499              		.file 5 "ScopedCurrentTest.h"
   1:ScopedCurrentTest.h **** #ifndef UNITTEST_SCOPEDCURRENTTEST_H
   2:ScopedCurrentTest.h **** #define UNITTEST_SCOPEDCURRENTTEST_H
   3:ScopedCurrentTest.h **** 
   4:ScopedCurrentTest.h **** #include "../CurrentTest.h"
   5:ScopedCurrentTest.h **** #include <cstddef>
   6:ScopedCurrentTest.h **** 
   7:ScopedCurrentTest.h **** class ScopedCurrentTest
   8:ScopedCurrentTest.h **** {
   9:ScopedCurrentTest.h **** public:
  10:ScopedCurrentTest.h **** 	ScopedCurrentTest()
  11:ScopedCurrentTest.h **** 		: m_oldTestResults(UnitTest::CurrentTest::Results())
  12:ScopedCurrentTest.h **** 		, m_oldTestDetails(UnitTest::CurrentTest::Details())
  13:ScopedCurrentTest.h **** 	{
  14:ScopedCurrentTest.h **** 	}
  15:ScopedCurrentTest.h **** 
  16:ScopedCurrentTest.h **** 	explicit ScopedCurrentTest(UnitTest::TestResults& newResults, const UnitTest::TestDetails* newDeta
 500              		.loc 5 16 11
 501              		.cfi_startproc
 502 0000 F30F1EFA 		endbr64
 503 0004 55       		pushq	%rbp
 504              		.cfi_def_cfa_offset 16
 505              		.cfi_offset 6, -16
 506 0005 4889E5   		movq	%rsp, %rbp
 507              		.cfi_def_cfa_register 6
 508 0008 4883EC20 		subq	$32, %rsp
 509 000c 48897DF8 		movq	%rdi, -8(%rbp)
 510 0010 488975F0 		movq	%rsi, -16(%rbp)
 511 0014 488955E8 		movq	%rdx, -24(%rbp)
 512              	.LBB6:
  17:ScopedCurrentTest.h **** 		: m_oldTestResults(UnitTest::CurrentTest::Results())
 513              		.loc 5 17 52
 514 0018 E8000000 		call	_ZN8UnitTest11CurrentTest7ResultsEv@PLT
 514      00
 515 001d 488B10   		movq	(%rax), %rdx
 516              		.loc 5 17 5
 517 0020 488B45F8 		movq	-8(%rbp), %rax
 518 0024 488910   		movq	%rdx, (%rax)
  18:ScopedCurrentTest.h **** 		, m_oldTestDetails(UnitTest::CurrentTest::Details())
 519              		.loc 5 18 52
 520 0027 E8000000 		call	_ZN8UnitTest11CurrentTest7DetailsEv@PLT
 520      00
 521 002c 488B10   		movq	(%rax), %rdx
 522              		.loc 5 18 5
 523 002f 488B45F8 		movq	-8(%rbp), %rax
 524 0033 48895008 		movq	%rdx, 8(%rax)
  19:ScopedCurrentTest.h **** 	{
  20:ScopedCurrentTest.h **** 		UnitTest::CurrentTest::Results() = &newResults;
 525              		.loc 5 20 33
 526 0037 E8000000 		call	_ZN8UnitTest11CurrentTest7ResultsEv@PLT
 526      00
 527              		.loc 5 20 36
 528 003c 488B55F0 		movq	-16(%rbp), %rdx
 529 0040 488910   		movq	%rdx, (%rax)
  21:ScopedCurrentTest.h **** 
  22:ScopedCurrentTest.h **** 		if (newDetails != NULL)
 530              		.loc 5 22 3
 531 0043 48837DE8 		cmpq	$0, -24(%rbp)
 531      00
 532 0048 740C     		je	.L17
  23:ScopedCurrentTest.h **** 			UnitTest::CurrentTest::Details() = newDetails;
 533              		.loc 5 23 34
 534 004a E8000000 		call	_ZN8UnitTest11CurrentTest7DetailsEv@PLT
 534      00
 535              		.loc 5 23 37
 536 004f 488B55E8 		movq	-24(%rbp), %rdx
 537 0053 488910   		movq	%rdx, (%rax)
 538              	.L17:
 539              	.LBE6:
  24:ScopedCurrentTest.h **** 	}
 540              		.loc 5 24 2
 541 0056 90       		nop
 542 0057 C9       		leave
 543              		.cfi_def_cfa 7, 8
 544 0058 C3       		ret
 545              		.cfi_endproc
 546              	.LFE1155:
 548              		.weak	_ZN17ScopedCurrentTestC1ERN8UnitTest11TestResultsEPKNS0_11TestDetailsE
 549              		.set	_ZN17ScopedCurrentTestC1ERN8UnitTest11TestResultsEPKNS0_11TestDetailsE,_ZN17ScopedCurrentTest
 550              		.section	.text._ZN17ScopedCurrentTestD2Ev,"axG",@progbits,_ZN17ScopedCurrentTestD5Ev,comdat
 551              		.align 2
 552              		.weak	_ZN17ScopedCurrentTestD2Ev
 554              	_ZN17ScopedCurrentTestD2Ev:
 555              	.LFB1158:
  25:ScopedCurrentTest.h **** 
  26:ScopedCurrentTest.h **** 	~ScopedCurrentTest()
 556              		.loc 5 26 2
 557              		.cfi_startproc
 558 0000 F30F1EFA 		endbr64
 559 0004 55       		pushq	%rbp
 560              		.cfi_def_cfa_offset 16
 561              		.cfi_offset 6, -16
 562 0005 4889E5   		movq	%rsp, %rbp
 563              		.cfi_def_cfa_register 6
 564 0008 4883EC10 		subq	$16, %rsp
 565 000c 48897DF8 		movq	%rdi, -8(%rbp)
 566              	.LBB7:
  27:ScopedCurrentTest.h **** 	{
  28:ScopedCurrentTest.h **** 		UnitTest::CurrentTest::Results() = m_oldTestResults;
 567              		.loc 5 28 33
 568 0010 E8000000 		call	_ZN8UnitTest11CurrentTest7ResultsEv@PLT
 568      00
 569              		.loc 5 28 38
 570 0015 488B55F8 		movq	-8(%rbp), %rdx
 571 0019 488B12   		movq	(%rdx), %rdx
 572              		.loc 5 28 36
 573 001c 488910   		movq	%rdx, (%rax)
  29:ScopedCurrentTest.h **** 		UnitTest::CurrentTest::Details() = m_oldTestDetails;
 574              		.loc 5 29 33
 575 001f E8000000 		call	_ZN8UnitTest11CurrentTest7DetailsEv@PLT
 575      00
 576              		.loc 5 29 38
 577 0024 488B55F8 		movq	-8(%rbp), %rdx
 578 0028 488B5208 		movq	8(%rdx), %rdx
 579              		.loc 5 29 36
 580 002c 488910   		movq	%rdx, (%rax)
 581              	.LBE7:
  30:ScopedCurrentTest.h **** 	}
 582              		.loc 5 30 2
 583 002f 90       		nop
 584 0030 C9       		leave
 585              		.cfi_def_cfa 7, 8
 586 0031 C3       		ret
 587              		.cfi_endproc
 588              	.LFE1158:
 590              		.weak	_ZN17ScopedCurrentTestD1Ev
 591              		.set	_ZN17ScopedCurrentTestD1Ev,_ZN17ScopedCurrentTestD2Ev
 592              		.local	_ZN12_GLOBAL__N_15list1E
 593              		.comm	_ZN12_GLOBAL__N_15list1E,16,16
 594              		.section	.rodata
 595              	.LC2:
 596 000d 54657374 		.string	"TestTestMacros.cpp"
 596      54657374 
 596      4D616372 
 596      6F732E63 
 596      707000
 597              	.LC3:
 598 0020 44756D6D 		.string	"DummyTest"
 598      79546573 
 598      7400
 599              		.text
 600              		.align 2
 602              	_ZN12_GLOBAL__N_113TestDummyTestC2Ev:
 603              	.LFB1161:
 604              		.file 6 "TestTestMacros.cpp"
   1:TestTestMacros.cpp **** #include "../UnitTest++.h"
   2:TestTestMacros.cpp **** #include "../TestMacros.h"
   3:TestTestMacros.cpp **** #include "../TestList.h"
   4:TestTestMacros.cpp **** #include "../TestResults.h"
   5:TestTestMacros.cpp **** #include "../TestReporter.h"
   6:TestTestMacros.cpp **** #include "../ReportAssert.h"
   7:TestTestMacros.cpp **** #include "RecordingReporter.h"
   8:TestTestMacros.cpp **** #include "ScopedCurrentTest.h"
   9:TestTestMacros.cpp **** 
  10:TestTestMacros.cpp **** using namespace UnitTest;
  11:TestTestMacros.cpp **** 
  12:TestTestMacros.cpp **** namespace {
  13:TestTestMacros.cpp **** 
  14:TestTestMacros.cpp **** TestList list1;
  15:TestTestMacros.cpp **** TEST_EX(DummyTest, list1)
 605              		.loc 6 15 1
 606              		.cfi_startproc
 607 0000 55       		pushq	%rbp
 608              		.cfi_def_cfa_offset 16
 609              		.cfi_offset 6, -16
 610 0001 4889E5   		movq	%rsp, %rbp
 611              		.cfi_def_cfa_register 6
 612 0004 53       		pushq	%rbx
 613 0005 4883EC18 		subq	$24, %rsp
 614              		.cfi_offset 3, -24
 615 0009 48897DE8 		movq	%rdi, -24(%rbp)
 616              	.LBB8:
 617              		.loc 6 15 1
 618 000d 488B5DE8 		movq	-24(%rbp), %rbx
 619 0011 E8000000 		call	_ZN13UnitTestSuite12GetSuiteNameEv
 619      00
 620 0016 4889C2   		movq	%rax, %rdx
 621 0019 41B80F00 		movl	$15, %r8d
 621      0000
 622 001f 488D0500 		leaq	.LC2(%rip), %rax
 622      000000
 623 0026 4889C1   		movq	%rax, %rcx
 624 0029 488D0500 		leaq	.LC3(%rip), %rax
 624      000000
 625 0030 4889C6   		movq	%rax, %rsi
 626 0033 4889DF   		movq	%rbx, %rdi
 627 0036 E8000000 		call	_ZN8UnitTest4TestC2EPKcS2_S2_i@PLT
 627      00
 628 003b 488D1500 		leaq	16+_ZTVN12_GLOBAL__N_113TestDummyTestE(%rip), %rdx
 628      000000
 629 0042 488B45E8 		movq	-24(%rbp), %rax
 630 0046 488910   		movq	%rdx, (%rax)
 631              	.LBE8:
 632 0049 90       		nop
 633 004a 488B5DF8 		movq	-8(%rbp), %rbx
 634 004e C9       		leave
 635              		.cfi_def_cfa 7, 8
 636 004f C3       		ret
 637              		.cfi_endproc
 638              	.LFE1161:
 640              		.set	_ZN12_GLOBAL__N_113TestDummyTestC1Ev,_ZN12_GLOBAL__N_113TestDummyTestC2Ev
 641              		.local	_ZN12_GLOBAL__N_121testDummyTestInstanceE
 642              		.comm	_ZN12_GLOBAL__N_121testDummyTestInstanceE,56,32
 643              		.local	_ZN12_GLOBAL__N_114adderDummyTestE
 644              		.comm	_ZN12_GLOBAL__N_114adderDummyTestE,1,1
 645              		.align 2
 647              	_ZNK12_GLOBAL__N_113TestDummyTest7RunImplEv:
 648              	.LFB1163:
  16:TestTestMacros.cpp **** {
 649              		.loc 6 16 1
 650              		.cfi_startproc
 651 0050 F30F1EFA 		endbr64
 652 0054 55       		pushq	%rbp
 653              		.cfi_def_cfa_offset 16
 654              		.cfi_offset 6, -16
 655 0055 4889E5   		movq	%rsp, %rbp
 656              		.cfi_def_cfa_register 6
 657 0058 48897DF8 		movq	%rdi, -8(%rbp)
  17:TestTestMacros.cpp **** }
 658              		.loc 6 17 1
 659 005c 90       		nop
 660 005d 5D       		popq	%rbp
 661              		.cfi_def_cfa 7, 8
 662 005e C3       		ret
 663              		.cfi_endproc
 664              	.LFE1163:
 666              		.section	.rodata
 667 002a 00000000 		.align 8
 667      0000
 668              	.LC4:
 669 0030 54657374 		.string	"TestsAreAddedToTheListThroughMacro"
 669      73417265 
 669      41646465 
 669      64546F54 
 669      68654C69 
 670              		.text
 671 005f 90       		.align 2
 673              	_ZN12_GLOBAL__N_138TestTestsAreAddedToTheListThroughMacroC2Ev:
 674              	.LFB1165:
  18:TestTestMacros.cpp **** 
  19:TestTestMacros.cpp **** TEST (TestsAreAddedToTheListThroughMacro)
 675              		.loc 6 19 1
 676              		.cfi_startproc
 677 0060 55       		pushq	%rbp
 678              		.cfi_def_cfa_offset 16
 679              		.cfi_offset 6, -16
 680 0061 4889E5   		movq	%rsp, %rbp
 681              		.cfi_def_cfa_register 6
 682 0064 53       		pushq	%rbx
 683 0065 4883EC18 		subq	$24, %rsp
 684              		.cfi_offset 3, -24
 685 0069 48897DE8 		movq	%rdi, -24(%rbp)
 686              	.LBB9:
 687              		.loc 6 19 1
 688 006d 488B5DE8 		movq	-24(%rbp), %rbx
 689 0071 E8000000 		call	_ZN13UnitTestSuite12GetSuiteNameEv
 689      00
 690 0076 4889C2   		movq	%rax, %rdx
 691 0079 41B81300 		movl	$19, %r8d
 691      0000
 692 007f 488D0500 		leaq	.LC2(%rip), %rax
 692      000000
 693 0086 4889C1   		movq	%rax, %rcx
 694 0089 488D0500 		leaq	.LC4(%rip), %rax
 694      000000
 695 0090 4889C6   		movq	%rax, %rsi
 696 0093 4889DF   		movq	%rbx, %rdi
 697 0096 E8000000 		call	_ZN8UnitTest4TestC2EPKcS2_S2_i@PLT
 697      00
 698 009b 488D1500 		leaq	16+_ZTVN12_GLOBAL__N_138TestTestsAreAddedToTheListThroughMacroE(%rip), %rdx
 698      000000
 699 00a2 488B45E8 		movq	-24(%rbp), %rax
 700 00a6 488910   		movq	%rdx, (%rax)
 701              	.LBE9:
 702 00a9 90       		nop
 703 00aa 488B5DF8 		movq	-8(%rbp), %rbx
 704 00ae C9       		leave
 705              		.cfi_def_cfa 7, 8
 706 00af C3       		ret
 707              		.cfi_endproc
 708              	.LFE1165:
 710              		.set	_ZN12_GLOBAL__N_138TestTestsAreAddedToTheListThroughMacroC1Ev,_ZN12_GLOBAL__N_138TestTestsAre
 711              		.local	_ZN12_GLOBAL__N_146testTestsAreAddedToTheListThroughMacroInstanceE
 712              		.comm	_ZN12_GLOBAL__N_146testTestsAreAddedToTheListThroughMacroInstanceE,56,32
 713              		.local	_ZN12_GLOBAL__N_139adderTestsAreAddedToTheListThroughMacroE
 714              		.comm	_ZN12_GLOBAL__N_139adderTestsAreAddedToTheListThroughMacroE,1,1
 715              		.section	.rodata
 716              	.LC5:
 717 0053 6C697374 		.string	"list1.GetHead() != 0"
 717      312E4765 
 717      74486561 
 717      64282920 
 717      213D2030 
 718              	.LC6:
 719 0068 6C697374 		.string	"list1.GetHead()->next == 0"
 719      312E4765 
 719      74486561 
 719      6428292D 
 719      3E6E6578 
 720 0083 00000000 		.align 8
 720      00
 721              	.LC7:
 722 0088 556E6861 		.string	"Unhandled exception in CHECK(list1.GetHead() != 0)"
 722      6E646C65 
 722      64206578 
 722      63657074 
 722      696F6E20 
 723 00bb 00000000 		.align 8
 723      00
 724              	.LC8:
 725 00c0 556E6861 		.string	"Unhandled exception in CHECK(list1.GetHead()->next == 0)"
 725      6E646C65 
 725      64206578 
 725      63657074 
 725      696F6E20 
 726              		.text
 727              		.align 2
 729              	_ZNK12_GLOBAL__N_138TestTestsAreAddedToTheListThroughMacro7RunImplEv:
 730              	.LFB1167:
  20:TestTestMacros.cpp **** {
 731              		.loc 6 20 1
 732              		.cfi_startproc
 733              		.cfi_personality 0x9b,DW.ref.__gxx_personality_v0
 734              		.cfi_lsda 0x1b,.LLSDA1167
 735 00b0 F30F1EFA 		endbr64
 736 00b4 55       		pushq	%rbp
 737              		.cfi_def_cfa_offset 16
 738              		.cfi_offset 6, -16
 739 00b5 4889E5   		movq	%rsp, %rbp
 740              		.cfi_def_cfa_register 6
 741 00b8 53       		pushq	%rbx
 742 00b9 4883EC48 		subq	$72, %rsp
 743              		.cfi_offset 3, -24
 744 00bd 48897DB8 		movq	%rdi, -72(%rbp)
 745              		.loc 6 20 1
 746 00c1 64488B04 		movq	%fs:40, %rax
 746      25280000 
 746      00
 747 00ca 488945E8 		movq	%rax, -24(%rbp)
 748 00ce 31C0     		xorl	%eax, %eax
  21:TestTestMacros.cpp ****     CHECK(list1.GetHead() != 0);
 749              		.loc 6 21 5
 750 00d0 488D0500 		leaq	_ZN12_GLOBAL__N_15list1E(%rip), %rax
 750      000000
 751 00d7 4889C7   		movq	%rax, %rdi
 752              	.LEHB4:
 753 00da E8000000 		call	_ZNK8UnitTest8TestList7GetHeadEv@PLT
 753      00
 754 00df 4885C0   		testq	%rax, %rax
 755 00e2 0F95C0   		setne	%al
 756 00e5 0FB6C0   		movzbl	%al, %eax
 757 00e8 89C7     		movl	%eax, %edi
 758 00ea E8000000 		call	_ZN8UnitTest5CheckIbEEbT_
 758      00
 759 00ef 83F001   		xorl	$1, %eax
 760 00f2 84C0     		testb	%al, %al
 761 00f4 743A     		je	.L23
 762              		.loc 6 21 5 is_stmt 0 discriminator 3
 763 00f6 E8000000 		call	_ZN8UnitTest11CurrentTest7ResultsEv@PLT
 763      00
 764 00fb 488B18   		movq	(%rax), %rbx
 765 00fe E8000000 		call	_ZN8UnitTest11CurrentTest7DetailsEv@PLT
 765      00
 766              		.loc 6 21 5 discriminator 5
 767 0103 488B08   		movq	(%rax), %rcx
 768 0106 488D45C0 		leaq	-64(%rbp), %rax
 769 010a BA150000 		movl	$21, %edx
 769      00
 770 010f 4889CE   		movq	%rcx, %rsi
 771 0112 4889C7   		movq	%rax, %rdi
 772 0115 E8000000 		call	_ZN8UnitTest11TestDetailsC1ERKS0_i@PLT
 772      00
 773              		.loc 6 21 5 discriminator 9
 774 011a 488D45C0 		leaq	-64(%rbp), %rax
 775 011e 488D1500 		leaq	.LC5(%rip), %rdx
 775      000000
 776 0125 4889C6   		movq	%rax, %rsi
 777 0128 4889DF   		movq	%rbx, %rdi
 778 012b E8000000 		call	_ZN8UnitTest11TestResults13OnTestFailureERKNS_11TestDetailsEPKc@PLT
 778      00
 779              	.LEHE4:
 780              	.L23:
  22:TestTestMacros.cpp ****     CHECK(list1.GetHead()->next == 0);
 781              		.loc 6 22 5 is_stmt 1
 782 0130 488D0500 		leaq	_ZN12_GLOBAL__N_15list1E(%rip), %rax
 782      000000
 783 0137 4889C7   		movq	%rax, %rdi
 784              	.LEHB5:
 785 013a E8000000 		call	_ZNK8UnitTest8TestList7GetHeadEv@PLT
 785      00
 786 013f 488B4028 		movq	40(%rax), %rax
 787 0143 4885C0   		testq	%rax, %rax
 788 0146 0F94C0   		sete	%al
 789 0149 0FB6C0   		movzbl	%al, %eax
 790 014c 89C7     		movl	%eax, %edi
 791 014e E8000000 		call	_ZN8UnitTest5CheckIbEEbT_
 791      00
 792 0153 83F001   		xorl	$1, %eax
 793 0156 84C0     		testb	%al, %al
 794 0158 0F840A01 		je	.L34
 794      0000
 795              		.loc 6 22 5 is_stmt 0 discriminator 3
 796 015e E8000000 		call	_ZN8UnitTest11CurrentTest7ResultsEv@PLT
 796      00
 797 0163 488B18   		movq	(%rax), %rbx
 798 0166 E8000000 		call	_ZN8UnitTest11CurrentTest7DetailsEv@PLT
 798      00
 799              		.loc 6 22 5 discriminator 5
 800 016b 488B08   		movq	(%rax), %rcx
 801 016e 488D45C0 		leaq	-64(%rbp), %rax
 802 0172 BA160000 		movl	$22, %edx
 802      00
 803 0177 4889CE   		movq	%rcx, %rsi
 804 017a 4889C7   		movq	%rax, %rdi
 805 017d E8000000 		call	_ZN8UnitTest11TestDetailsC1ERKS0_i@PLT
 805      00
 806              		.loc 6 22 5 discriminator 9
 807 0182 488D45C0 		leaq	-64(%rbp), %rax
 808 0186 488D1500 		leaq	.LC6(%rip), %rdx
 808      000000
 809 018d 4889C6   		movq	%rax, %rsi
 810 0190 4889DF   		movq	%rbx, %rdi
 811 0193 E8000000 		call	_ZN8UnitTest11TestResults13OnTestFailureERKNS_11TestDetailsEPKc@PLT
 811      00
 812              	.LEHE5:
  23:TestTestMacros.cpp **** }
 813              		.loc 6 23 1 is_stmt 1
 814 0198 E9CB0000 		jmp	.L34
 814      00
 815              	.L30:
 816 019d F30F1EFA 		endbr64
  21:TestTestMacros.cpp ****     CHECK(list1.GetHead() != 0);
 817              		.loc 6 21 5
 818 01a1 4889C7   		movq	%rax, %rdi
 819 01a4 E8000000 		call	__cxa_begin_catch@PLT
 819      00
 820              	.LEHB6:
 821 01a9 E8000000 		call	_ZN8UnitTest11CurrentTest7ResultsEv@PLT
 821      00
  21:TestTestMacros.cpp ****     CHECK(list1.GetHead() != 0);
 822              		.loc 6 21 5 is_stmt 0 discriminator 8
 823 01ae 488B18   		movq	(%rax), %rbx
 824 01b1 E8000000 		call	_ZN8UnitTest11CurrentTest7DetailsEv@PLT
 824      00
  21:TestTestMacros.cpp ****     CHECK(list1.GetHead() != 0);
 825              		.loc 6 21 5 discriminator 14
 826 01b6 488B08   		movq	(%rax), %rcx
 827 01b9 488D45C0 		leaq	-64(%rbp), %rax
 828 01bd BA150000 		movl	$21, %edx
 828      00
 829 01c2 4889CE   		movq	%rcx, %rsi
 830 01c5 4889C7   		movq	%rax, %rdi
 831 01c8 E8000000 		call	_ZN8UnitTest11TestDetailsC1ERKS0_i@PLT
 831      00
  21:TestTestMacros.cpp ****     CHECK(list1.GetHead() != 0);
 832              		.loc 6 21 5 discriminator 18
 833 01cd 488D45C0 		leaq	-64(%rbp), %rax
 834 01d1 488D1500 		leaq	.LC7(%rip), %rdx
 834      000000
 835 01d8 4889C6   		movq	%rax, %rsi
 836 01db 4889DF   		movq	%rbx, %rdi
 837 01de E8000000 		call	_ZN8UnitTest11TestResults13OnTestFailureERKNS_11TestDetailsEPKc@PLT
 837      00
 838              	.LEHE6:
 839              	.LEHB7:
  21:TestTestMacros.cpp ****     CHECK(list1.GetHead() != 0);
 840              		.loc 6 21 5 discriminator 20
 841 01e3 E8000000 		call	__cxa_end_catch@PLT
 841      00
 842              	.LEHE7:
 843 01e8 E943FFFF 		jmp	.L23
 843      FF
 844              	.L31:
 845 01ed F30F1EFA 		endbr64
  21:TestTestMacros.cpp ****     CHECK(list1.GetHead() != 0);
 846              		.loc 6 21 5
 847 01f1 4889C3   		movq	%rax, %rbx
 848 01f4 E8000000 		call	__cxa_end_catch@PLT
 848      00
 849 01f9 4889D8   		movq	%rbx, %rax
 850 01fc 4889C7   		movq	%rax, %rdi
 851              	.LEHB8:
 852 01ff E8000000 		call	_Unwind_Resume@PLT
 852      00
 853              	.LEHE8:
 854              	.L32:
 855 0204 F30F1EFA 		endbr64
  22:TestTestMacros.cpp ****     CHECK(list1.GetHead()->next == 0);
 856              		.loc 6 22 5 is_stmt 1
 857 0208 4889C7   		movq	%rax, %rdi
 858 020b E8000000 		call	__cxa_begin_catch@PLT
 858      00
 859              	.LEHB9:
 860 0210 E8000000 		call	_ZN8UnitTest11CurrentTest7ResultsEv@PLT
 860      00
  22:TestTestMacros.cpp ****     CHECK(list1.GetHead()->next == 0);
 861              		.loc 6 22 5 is_stmt 0 discriminator 8
 862 0215 488B18   		movq	(%rax), %rbx
 863 0218 E8000000 		call	_ZN8UnitTest11CurrentTest7DetailsEv@PLT
 863      00
  22:TestTestMacros.cpp ****     CHECK(list1.GetHead()->next == 0);
 864              		.loc 6 22 5 discriminator 14
 865 021d 488B08   		movq	(%rax), %rcx
 866 0220 488D45C0 		leaq	-64(%rbp), %rax
 867 0224 BA160000 		movl	$22, %edx
 867      00
 868 0229 4889CE   		movq	%rcx, %rsi
 869 022c 4889C7   		movq	%rax, %rdi
 870 022f E8000000 		call	_ZN8UnitTest11TestDetailsC1ERKS0_i@PLT
 870      00
  22:TestTestMacros.cpp ****     CHECK(list1.GetHead()->next == 0);
 871              		.loc 6 22 5 discriminator 18
 872 0234 488D45C0 		leaq	-64(%rbp), %rax
 873 0238 488D1500 		leaq	.LC8(%rip), %rdx
 873      000000
 874 023f 4889C6   		movq	%rax, %rsi
 875 0242 4889DF   		movq	%rbx, %rdi
 876 0245 E8000000 		call	_ZN8UnitTest11TestResults13OnTestFailureERKNS_11TestDetailsEPKc@PLT
 876      00
 877              	.LEHE9:
 878              	.LEHB10:
  22:TestTestMacros.cpp ****     CHECK(list1.GetHead()->next == 0);
 879              		.loc 6 22 5 discriminator 20
 880 024a E8000000 		call	__cxa_end_catch@PLT
 880      00
 881              	.LEHE10:
 882              		.loc 6 23 1 is_stmt 1 discriminator 20
 883 024f EB17     		jmp	.L34
 884              	.L33:
 885 0251 F30F1EFA 		endbr64
  22:TestTestMacros.cpp ****     CHECK(list1.GetHead()->next == 0);
 886              		.loc 6 22 5
 887 0255 4889C3   		movq	%rax, %rbx
 888 0258 E8000000 		call	__cxa_end_catch@PLT
 888      00
 889 025d 4889D8   		movq	%rbx, %rax
 890 0260 4889C7   		movq	%rax, %rdi
 891              	.LEHB11:
 892 0263 E8000000 		call	_Unwind_Resume@PLT
 892      00
 893              	.LEHE11:
 894              	.L34:
 895              		.loc 6 23 1
 896 0268 90       		nop
 897 0269 488B45E8 		movq	-24(%rbp), %rax
 898 026d 64482B04 		subq	%fs:40, %rax
 898      25280000 
 898      00
 899 0276 7405     		je	.L29
 900 0278 E8000000 		call	__stack_chk_fail@PLT
 900      00
 901              	.L29:
 902 027d 488B5DF8 		movq	-8(%rbp), %rbx
 903 0281 C9       		leave
 904              		.cfi_def_cfa 7, 8
 905 0282 C3       		ret
 906              		.cfi_endproc
 907              	.LFE1167:
 908              		.section	.gcc_except_table,"a",@progbits
 909              		.align 4
 910              	.LLSDA1167:
 911 0000 FF       		.byte	0xff
 912 0001 9B       		.byte	0x9b
 913 0002 35       		.uleb128 .LLSDATT1167-.LLSDATTD1167
 914              	.LLSDATTD1167:
 915 0003 01       		.byte	0x1
 916 0004 2B       		.uleb128 .LLSDACSE1167-.LLSDACSB1167
 917              	.LLSDACSB1167:
 918 0005 2A       		.uleb128 .LEHB4-.LFB1167
 919 0006 56       		.uleb128 .LEHE4-.LEHB4
 920 0007 ED01     		.uleb128 .L30-.LFB1167
 921 0009 01       		.uleb128 0x1
 922 000a 8A01     		.uleb128 .LEHB5-.LFB1167
 923 000c 5E       		.uleb128 .LEHE5-.LEHB5
 924 000d D402     		.uleb128 .L32-.LFB1167
 925 000f 01       		.uleb128 0x1
 926 0010 F901     		.uleb128 .LEHB6-.LFB1167
 927 0012 3A       		.uleb128 .LEHE6-.LEHB6
 928 0013 BD02     		.uleb128 .L31-.LFB1167
 929 0015 00       		.uleb128 0
 930 0016 B302     		.uleb128 .LEHB7-.LFB1167
 931 0018 05       		.uleb128 .LEHE7-.LEHB7
 932 0019 00       		.uleb128 0
 933 001a 00       		.uleb128 0
 934 001b CF02     		.uleb128 .LEHB8-.LFB1167
 935 001d 05       		.uleb128 .LEHE8-.LEHB8
 936 001e 00       		.uleb128 0
 937 001f 00       		.uleb128 0
 938 0020 E002     		.uleb128 .LEHB9-.LFB1167
 939 0022 3A       		.uleb128 .LEHE9-.LEHB9
 940 0023 A103     		.uleb128 .L33-.LFB1167
 941 0025 00       		.uleb128 0
 942 0026 9A03     		.uleb128 .LEHB10-.LFB1167
 943 0028 05       		.uleb128 .LEHE10-.LEHB10
 944 0029 00       		.uleb128 0
 945 002a 00       		.uleb128 0
 946 002b B303     		.uleb128 .LEHB11-.LFB1167
 947 002d 05       		.uleb128 .LEHE11-.LEHB11
 948 002e 00       		.uleb128 0
 949 002f 00       		.uleb128 0
 950              	.LLSDACSE1167:
 951 0030 01       		.byte	0x1
 952 0031 00       		.byte	0
 953 0032 0000     		.align 4
 954 0034 00000000 		.long	0
 955              	
 956              	.LLSDATT1167:
 957              		.text
 959              		.section	.rodata
 960              	.LC9:
 961 00f9 4F6F7073 		.string	"Oops"
 961      00
 962              		.text
 963 0283 90       		.align 2
 965              	_ZN12_GLOBAL__N_115ThrowingThingieC2Ev:
 966              	.LFB1169:
  24:TestTestMacros.cpp **** 
  25:TestTestMacros.cpp **** struct ThrowingThingie
  26:TestTestMacros.cpp **** {
  27:TestTestMacros.cpp ****     ThrowingThingie() : dummy(false)
 967              		.loc 6 27 5
 968              		.cfi_startproc
 969 0284 55       		pushq	%rbp
 970              		.cfi_def_cfa_offset 16
 971              		.cfi_offset 6, -16
 972 0285 4889E5   		movq	%rsp, %rbp
 973              		.cfi_def_cfa_register 6
 974 0288 4883EC10 		subq	$16, %rsp
 975 028c 48897DF8 		movq	%rdi, -8(%rbp)
 976              	.LBB10:
 977              		.loc 6 27 25
 978 0290 488B45F8 		movq	-8(%rbp), %rax
 979 0294 C60000   		movb	$0, (%rax)
  28:TestTestMacros.cpp ****     {
  29:TestTestMacros.cpp ****         if (!dummy)
 980              		.loc 6 29 14
 981 0297 488B45F8 		movq	-8(%rbp), %rax
 982 029b 0FB600   		movzbl	(%rax), %eax
 983              		.loc 6 29 13
 984 029e 83F001   		xorl	$1, %eax
 985              		.loc 6 29 9
 986 02a1 84C0     		testb	%al, %al
 987 02a3 742B     		je	.L37
  30:TestTestMacros.cpp ****             throw "Oops";
 988              		.loc 6 30 19
 989 02a5 BF080000 		movl	$8, %edi
 989      00
 990 02aa E8000000 		call	__cxa_allocate_exception@PLT
 990      00
 991              		.loc 6 30 13
 992 02af 488D1500 		leaq	.LC9(%rip), %rdx
 992      000000
 993 02b6 488910   		movq	%rdx, (%rax)
 994              		.loc 6 30 19
 995 02b9 BA000000 		movl	$0, %edx
 995      00
 996 02be 488D0D00 		leaq	_ZTIPKc(%rip), %rcx
 996      000000
 997 02c5 4889CE   		movq	%rcx, %rsi
 998 02c8 4889C7   		movq	%rax, %rdi
 999 02cb E8000000 		call	__cxa_throw@PLT
 999      00
 1000              	.L37:
 1001              	.LBE10:
  31:TestTestMacros.cpp ****     }
 1002              		.loc 6 31 5
 1003 02d0 90       		nop
 1004 02d1 C9       		leave
 1005              		.cfi_def_cfa 7, 8
 1006 02d2 C3       		ret
 1007              		.cfi_endproc
 1008              	.LFE1169:
 1010              		.local	_ZN12_GLOBAL__N_15list2E
 1011              		.comm	_ZN12_GLOBAL__N_15list2E,16,16
 1012 02d3 90       		.align 2
 1014              	_ZN12_GLOBAL__N_134ThrowingThingieDummyTestNameHelperC2ERKN8UnitTest11TestDetailsE:
 1015              	.LFB1172:
  32:TestTestMacros.cpp **** 
  33:TestTestMacros.cpp ****     bool dummy;
  34:TestTestMacros.cpp **** };
  35:TestTestMacros.cpp **** 
  36:TestTestMacros.cpp **** TestList list2;
  37:TestTestMacros.cpp **** TEST_FIXTURE_EX(ThrowingThingie, DummyTestName, list2)
 1016              		.loc 6 37 1
 1017              		.cfi_startproc
 1018 02d4 55       		pushq	%rbp
 1019              		.cfi_def_cfa_offset 16
 1020              		.cfi_offset 6, -16
 1021 02d5 4889E5   		movq	%rsp, %rbp
 1022              		.cfi_def_cfa_register 6
 1023 02d8 4883EC10 		subq	$16, %rsp
 1024 02dc 48897DF8 		movq	%rdi, -8(%rbp)
 1025 02e0 488975F0 		movq	%rsi, -16(%rbp)
 1026              	.LBB11:
 1027              		.loc 6 37 1
 1028 02e4 488B45F8 		movq	-8(%rbp), %rax
 1029 02e8 4889C7   		movq	%rax, %rdi
 1030 02eb E894FFFF 		call	_ZN12_GLOBAL__N_115ThrowingThingieC2Ev
 1030      FF
 1031 02f0 488B45F8 		movq	-8(%rbp), %rax
 1032 02f4 488B55F0 		movq	-16(%rbp), %rdx
 1033 02f8 48895008 		movq	%rdx, 8(%rax)
 1034              	.LBE11:
 1035 02fc 90       		nop
 1036 02fd C9       		leave
 1037              		.cfi_def_cfa 7, 8
 1038 02fe C3       		ret
 1039              		.cfi_endproc
 1040              	.LFE1172:
 1042              		.set	_ZN12_GLOBAL__N_134ThrowingThingieDummyTestNameHelperC1ERKN8UnitTest11TestDetailsE,_ZN12_GLOB
 1043              		.section	.rodata
 1044              	.LC10:
 1045 00fe 44756D6D 		.string	"DummyTestName"
 1045      79546573 
 1045      744E616D 
 1045      6500
 1046              		.text
 1047 02ff 90       		.align 2
 1049              	_ZN12_GLOBAL__N_132TestThrowingThingieDummyTestNameC2Ev:
 1050              	.LFB1175:
 1051              		.loc 6 37 1
 1052              		.cfi_startproc
 1053 0300 55       		pushq	%rbp
 1054              		.cfi_def_cfa_offset 16
 1055              		.cfi_offset 6, -16
 1056 0301 4889E5   		movq	%rsp, %rbp
 1057              		.cfi_def_cfa_register 6
 1058 0304 53       		pushq	%rbx
 1059 0305 4883EC18 		subq	$24, %rsp
 1060              		.cfi_offset 3, -24
 1061 0309 48897DE8 		movq	%rdi, -24(%rbp)
 1062              	.LBB12:
 1063              		.loc 6 37 1
 1064 030d 488B5DE8 		movq	-24(%rbp), %rbx
 1065 0311 E8000000 		call	_ZN13UnitTestSuite12GetSuiteNameEv
 1065      00
 1066 0316 4889C2   		movq	%rax, %rdx
 1067 0319 41B82500 		movl	$37, %r8d
 1067      0000
 1068 031f 488D0500 		leaq	.LC2(%rip), %rax
 1068      000000
 1069 0326 4889C1   		movq	%rax, %rcx
 1070 0329 488D0500 		leaq	.LC10(%rip), %rax
 1070      000000
 1071 0330 4889C6   		movq	%rax, %rsi
 1072 0333 4889DF   		movq	%rbx, %rdi
 1073 0336 E8000000 		call	_ZN8UnitTest4TestC2EPKcS2_S2_i@PLT
 1073      00
 1074 033b 488D1500 		leaq	16+_ZTVN12_GLOBAL__N_132TestThrowingThingieDummyTestNameE(%rip), %rdx
 1074      000000
 1075 0342 488B45E8 		movq	-24(%rbp), %rax
 1076 0346 488910   		movq	%rdx, (%rax)
 1077              	.LBE12:
 1078 0349 90       		nop
 1079 034a 488B5DF8 		movq	-8(%rbp), %rbx
 1080 034e C9       		leave
 1081              		.cfi_def_cfa 7, 8
 1082 034f C3       		ret
 1083              		.cfi_endproc
 1084              	.LFE1175:
 1086              		.set	_ZN12_GLOBAL__N_132TestThrowingThingieDummyTestNameC1Ev,_ZN12_GLOBAL__N_132TestThrowingThingi
 1087              		.local	_ZN12_GLOBAL__N_140testThrowingThingieDummyTestNameInstanceE
 1088              		.comm	_ZN12_GLOBAL__N_140testThrowingThingieDummyTestNameInstanceE,56,32
 1089              		.local	_ZN12_GLOBAL__N_133adderThrowingThingieDummyTestNameE
 1090              		.comm	_ZN12_GLOBAL__N_133adderThrowingThingieDummyTestNameE,1,1
 1091              		.section	.rodata
 1092              	.LC11:
 1093 010c 556E6861 		.string	"Unhandled exception: "
 1093      6E646C65 
 1093      64206578 
 1093      63657074 
 1093      696F6E3A 
 1094 0122 00000000 		.align 8
 1094      0000
 1095              	.LC12:
 1096 0128 556E6861 		.string	"Unhandled exception while destroying fixture ThrowingThingie"
 1096      6E646C65 
 1096      64206578 
 1096      63657074 
 1096      696F6E20 
 1097 0165 000000   		.align 8
 1098              	.LC13:
 1099 0168 556E6861 		.string	"Unhandled exception while constructing fixture ThrowingThingie"
 1099      6E646C65 
 1099      64206578 
 1099      63657074 
 1099      696F6E20 
 1100              		.text
 1101              		.align 2
 1103              	_ZNK12_GLOBAL__N_132TestThrowingThingieDummyTestName7RunImplEv:
 1104              	.LFB1177:
 1105              		.loc 6 37 1
 1106              		.cfi_startproc
 1107              		.cfi_personality 0x9b,DW.ref.__gxx_personality_v0
 1108              		.cfi_lsda 0x1b,.LLSDA1177
 1109 0350 F30F1EFA 		endbr64
 1110 0354 55       		pushq	%rbp
 1111              		.cfi_def_cfa_offset 16
 1112              		.cfi_offset 6, -16
 1113 0355 4889E5   		movq	%rsp, %rbp
 1114              		.cfi_def_cfa_register 6
 1115 0358 4155     		pushq	%r13
 1116 035a 4154     		pushq	%r12
 1117 035c 53       		pushq	%rbx
 1118 035d 4881ECF8 		subq	$504, %rsp
 1118      010000
 1119              		.cfi_offset 13, -24
 1120              		.cfi_offset 12, -32
 1121              		.cfi_offset 3, -40
 1122 0364 4889BDF8 		movq	%rdi, -520(%rbp)
 1122      FDFFFF
 1123              		.loc 6 37 1
 1124 036b 64488B04 		movq	%fs:40, %rax
 1124      25280000 
 1124      00
 1125 0374 488945D8 		movq	%rax, -40(%rbp)
 1126 0378 31C0     		xorl	%eax, %eax
 1127 037a C6850FFE 		movb	$0, -497(%rbp)
 1127      FFFF00
 1128              	.LBB13:
 1129 0381 488B85F8 		movq	-520(%rbp), %rax
 1129      FDFFFF
 1130 0388 488D5008 		leaq	8(%rax), %rdx
 1131 038c 488D8520 		leaq	-480(%rbp), %rax
 1131      FEFFFF
 1132 0393 4889D6   		movq	%rdx, %rsi
 1133 0396 4889C7   		movq	%rax, %rdi
 1134              	.LEHB12:
 1135 0399 E836FFFF 		call	_ZN12_GLOBAL__N_134ThrowingThingieDummyTestNameHelperC1ERKN8UnitTest11TestDetailsE
 1135      FF
 1136              		.loc 6 37 1 is_stmt 0 discriminator 1
 1137 039e C6850FFE 		movb	$1, -497(%rbp)
 1137      FFFF01
 1138 03a5 488B85F8 		movq	-520(%rbp), %rax
 1138      FDFFFF
 1139 03ac 488D5008 		leaq	8(%rax), %rdx
 1140 03b0 488D8520 		leaq	-480(%rbp), %rax
 1140      FEFFFF
 1141 03b7 4889D6   		movq	%rdx, %rsi
 1142 03ba 4889C7   		movq	%rax, %rdi
 1143 03bd E80F2F00 		call	_ZN8UnitTest11ExecuteTestIN12_GLOBAL__N_134ThrowingThingieDummyTestNameHelperEEEvRT_RKNS_11Te
 1143      00
 1144              	.LEHE12:
 1145              	.LBE13:
 1146              		.loc 6 37 1
 1147 03c2 E9630200 		jmp	.L40
 1147      00
 1148              	.L53:
 1149 03c7 F30F1EFA 		endbr64
 1150 03cb 4883FA01 		cmpq	$1, %rdx
 1151 03cf 740F     		je	.L42
 1152 03d1 4883FA02 		cmpq	$2, %rdx
 1153 03d5 0F84A700 		je	.L43
 1153      0000
 1154 03db E94D0100 		jmp	.L58
 1154      00
 1155              	.L42:
 1156              	.LBB14:
 1157              		.loc 6 37 1 discriminator 2
 1158 03e0 4889C7   		movq	%rax, %rdi
 1159 03e3 E8000000 		call	__cxa_begin_catch@PLT
 1159      00
 1160 03e8 48898518 		movq	%rax, -488(%rbp)
 1160      FEFFFF
 1161              	.LEHB13:
 1162 03ef E8000000 		call	_ZN8UnitTest11CurrentTest7ResultsEv@PLT
 1162      00
 1163 03f4 488B18   		movq	(%rax), %rbx
 1164 03f7 488B8518 		movq	-488(%rbp), %rax
 1164      FEFFFF
 1165 03fe 488B00   		movq	(%rax), %rax
 1166 0401 4883C010 		addq	$16, %rax
 1167 0405 488B10   		movq	(%rax), %rdx
 1168 0408 488B8518 		movq	-488(%rbp), %rax
 1168      FEFFFF
 1169 040f 4889C7   		movq	%rax, %rdi
 1170 0412 FFD2     		call	*%rdx
 1171              	.LVL0:
 1172 0414 4989C4   		movq	%rax, %r12
 1173 0417 488B8518 		movq	-488(%rbp), %rax
 1173      FEFFFF
 1174 041e 4889C7   		movq	%rax, %rdi
 1175 0421 E8000000 		call	_ZNK8UnitTest15AssertException10LineNumberEv@PLT
 1175      00
 1176              		.loc 6 37 1 discriminator 6
 1177 0426 4189C5   		movl	%eax, %r13d
 1178 0429 488B8518 		movq	-488(%rbp), %rax
 1178      FEFFFF
 1179 0430 4889C7   		movq	%rax, %rdi
 1180 0433 E8000000 		call	_ZNK8UnitTest15AssertException8FilenameEv@PLT
 1180      00
 1181              		.loc 6 37 1 discriminator 8
 1182 0438 4889C1   		movq	%rax, %rcx
 1183 043b 488B85F8 		movq	-520(%rbp), %rax
 1183      FDFFFF
 1184 0442 488B5008 		movq	8(%rax), %rdx
 1185 0446 488B85F8 		movq	-520(%rbp), %rax
 1185      FDFFFF
 1186 044d 488B7010 		movq	16(%rax), %rsi
 1187 0451 488D8520 		leaq	-480(%rbp), %rax
 1187      FEFFFF
 1188 0458 4589E8   		movl	%r13d, %r8d
 1189 045b 4889C7   		movq	%rax, %rdi
 1190 045e E8000000 		call	_ZN8UnitTest11TestDetailsC1EPKcS2_S2_i@PLT
 1190      00
 1191              		.loc 6 37 1 discriminator 12
 1192 0463 488D8520 		leaq	-480(%rbp), %rax
 1192      FEFFFF
 1193 046a 4C89E2   		movq	%r12, %rdx
 1194 046d 4889C6   		movq	%rax, %rsi
 1195 0470 4889DF   		movq	%rbx, %rdi
 1196 0473 E8000000 		call	_ZN8UnitTest11TestResults13OnTestFailureERKNS_11TestDetailsEPKc@PLT
 1196      00
 1197              	.LEHE13:
 1198              		.loc 6 37 1 discriminator 14
 1199 0478 E8000000 		call	__cxa_end_catch@PLT
 1199      00
 1200              	.LBE14:
 1201 047d E9A80100 		jmp	.L40
 1201      00
 1202              	.L43:
 1203              	.LBB15:
 1204              		.loc 6 37 1 discriminator 3
 1205 0482 4889C7   		movq	%rax, %rdi
 1206 0485 E8000000 		call	__cxa_begin_catch@PLT
 1206      00
 1207 048a 48898510 		movq	%rax, -496(%rbp)
 1207      FEFFFF
 1208              	.LBB16:
 1209 0491 488D8540 		leaq	-448(%rbp), %rax
 1209      FEFFFF
 1210 0498 4889C7   		movq	%rax, %rdi
 1211              	.LEHB14:
 1212 049b E8000000 		call	_ZN8UnitTest15MemoryOutStreamC1Ev
 1212      00
 1213              	.LEHE14:
 1214              		.loc 6 37 1 discriminator 16
 1215 04a0 488D8540 		leaq	-448(%rbp), %rax
 1215      FEFFFF
 1216 04a7 488D1500 		leaq	.LC11(%rip), %rdx
 1216      000000
 1217 04ae 4889D6   		movq	%rdx, %rsi
 1218 04b1 4889C7   		movq	%rax, %rdi
 1219              	.LEHB15:
 1220 04b4 E8000000 		call	_ZStlsISt11char_traitsIcEERSt13basic_ostreamIcT_ES5_PKc@PLT
 1220      00
 1221 04b9 4889C3   		movq	%rax, %rbx
 1222 04bc 488B8510 		movq	-496(%rbp), %rax
 1222      FEFFFF
 1223 04c3 488B00   		movq	(%rax), %rax
 1224 04c6 4883C010 		addq	$16, %rax
 1225 04ca 488B10   		movq	(%rax), %rdx
 1226 04cd 488B8510 		movq	-496(%rbp), %rax
 1226      FEFFFF
 1227 04d4 4889C7   		movq	%rax, %rdi
 1228 04d7 FFD2     		call	*%rdx
 1229              	.LVL1:
 1230 04d9 4889C6   		movq	%rax, %rsi
 1231 04dc 4889DF   		movq	%rbx, %rdi
 1232 04df E8000000 		call	_ZStlsISt11char_traitsIcEERSt13basic_ostreamIcT_ES5_PKc@PLT
 1232      00
 1233              		.loc 6 37 1 discriminator 20
 1234 04e4 E8000000 		call	_ZN8UnitTest11CurrentTest7ResultsEv@PLT
 1234      00
 1235 04e9 488B18   		movq	(%rax), %rbx
 1236 04ec 488D8540 		leaq	-448(%rbp), %rax
 1236      FEFFFF
 1237 04f3 4889C7   		movq	%rax, %rdi
 1238 04f6 E8000000 		call	_ZNK8UnitTest15MemoryOutStream7GetTextEv@PLT
 1238      00
 1239              		.loc 6 37 1 discriminator 22
 1240 04fb 4889C2   		movq	%rax, %rdx
 1241 04fe 488B85F8 		movq	-520(%rbp), %rax
 1241      FDFFFF
 1242 0505 4883C008 		addq	$8, %rax
 1243 0509 4889C6   		movq	%rax, %rsi
 1244 050c 4889DF   		movq	%rbx, %rdi
 1245 050f E8000000 		call	_ZN8UnitTest11TestResults13OnTestFailureERKNS_11TestDetailsEPKc@PLT
 1245      00
 1246              	.LEHE15:
 1247              		.loc 6 37 1 discriminator 26
 1248 0514 488D8540 		leaq	-448(%rbp), %rax
 1248      FEFFFF
 1249 051b 4889C7   		movq	%rax, %rdi
 1250              	.LEHB16:
 1251 051e E8000000 		call	_ZN8UnitTest15MemoryOutStreamD1Ev
 1251      00
 1252              	.LEHE16:
 1253              	.LBE16:
 1254              		.loc 6 37 1 discriminator 27
 1255 0523 E8000000 		call	__cxa_end_catch@PLT
 1255      00
 1256              	.LBE15:
 1257 0528 E9FD0000 		jmp	.L40
 1257      00
 1258              	.L58:
 1259              		.loc 6 37 1 discriminator 4
 1260 052d 4889C7   		movq	%rax, %rdi
 1261 0530 E8000000 		call	__cxa_begin_catch@PLT
 1261      00
 1262 0535 80BD0FFE 		cmpb	$0, -497(%rbp)
 1262      FFFF00
 1263 053c 7445     		je	.L46
 1264              	.LEHB17:
 1265              		.loc 6 37 1 discriminator 29
 1266 053e E8000000 		call	_ZN8UnitTest11CurrentTest7ResultsEv@PLT
 1266      00
 1267 0543 488B18   		movq	(%rax), %rbx
 1268 0546 488B85F8 		movq	-520(%rbp), %rax
 1268      FDFFFF
 1269 054d 488D4808 		leaq	8(%rax), %rcx
 1270 0551 488D8520 		leaq	-480(%rbp), %rax
 1270      FEFFFF
 1271 0558 BA250000 		movl	$37, %edx
 1271      00
 1272 055d 4889CE   		movq	%rcx, %rsi
 1273 0560 4889C7   		movq	%rax, %rdi
 1274 0563 E8000000 		call	_ZN8UnitTest11TestDetailsC1ERKS0_i@PLT
 1274      00
 1275              		.loc 6 37 1 discriminator 34
 1276 0568 488D8520 		leaq	-480(%rbp), %rax
 1276      FEFFFF
 1277 056f 488D1500 		leaq	.LC12(%rip), %rdx
 1277      000000
 1278 0576 4889C6   		movq	%rax, %rsi
 1279 0579 4889DF   		movq	%rbx, %rdi
 1280 057c E8000000 		call	_ZN8UnitTest11TestResults13OnTestFailureERKNS_11TestDetailsEPKc@PLT
 1280      00
 1281 0581 EB43     		jmp	.L47
 1282              	.L46:
 1283              		.loc 6 37 1 discriminator 30
 1284 0583 E8000000 		call	_ZN8UnitTest11CurrentTest7ResultsEv@PLT
 1284      00
 1285 0588 488B18   		movq	(%rax), %rbx
 1286 058b 488B85F8 		movq	-520(%rbp), %rax
 1286      FDFFFF
 1287 0592 488D4808 		leaq	8(%rax), %rcx
 1288 0596 488D8520 		leaq	-480(%rbp), %rax
 1288      FEFFFF
 1289 059d BA250000 		movl	$37, %edx
 1289      00
 1290 05a2 4889CE   		movq	%rcx, %rsi
 1291 05a5 4889C7   		movq	%rax, %rdi
 1292 05a8 E8000000 		call	_ZN8UnitTest11TestDetailsC1ERKS0_i@PLT
 1292      00
 1293              		.loc 6 37 1 discriminator 41
 1294 05ad 488D8520 		leaq	-480(%rbp), %rax
 1294      FEFFFF
 1295 05b4 488D1500 		leaq	.LC13(%rip), %rdx
 1295      000000
 1296 05bb 4889C6   		movq	%rax, %rsi
 1297 05be 4889DF   		movq	%rbx, %rdi
 1298 05c1 E8000000 		call	_ZN8UnitTest11TestResults13OnTestFailureERKNS_11TestDetailsEPKc@PLT
 1298      00
 1299              	.LEHE17:
 1300              	.L47:
 1301              	.LEHB18:
 1302              		.loc 6 37 1 discriminator 44
 1303 05c6 E8000000 		call	__cxa_end_catch@PLT
 1303      00
 1304 05cb EB5D     		jmp	.L40
 1305              	.L54:
 1306 05cd F30F1EFA 		endbr64
 1307              	.LBB18:
 1308              		.loc 6 37 1
 1309 05d1 4889C3   		movq	%rax, %rbx
 1310 05d4 E8000000 		call	__cxa_end_catch@PLT
 1310      00
 1311 05d9 4889D8   		movq	%rbx, %rax
 1312 05dc 4889C7   		movq	%rax, %rdi
 1313 05df E8000000 		call	_Unwind_Resume@PLT
 1313      00
 1314              	.LEHE18:
 1315              	.L56:
 1316 05e4 F30F1EFA 		endbr64
 1317              	.LBE18:
 1318              	.LBB19:
 1319              	.LBB17:
 1320 05e8 4889C3   		movq	%rax, %rbx
 1321 05eb 488D8540 		leaq	-448(%rbp), %rax
 1321      FEFFFF
 1322 05f2 4889C7   		movq	%rax, %rdi
 1323 05f5 E8000000 		call	_ZN8UnitTest15MemoryOutStreamD1Ev
 1323      00
 1324 05fa EB07     		jmp	.L50
 1325              	.L55:
 1326 05fc F30F1EFA 		endbr64
 1327              	.LBE17:
 1328 0600 4889C3   		movq	%rax, %rbx
 1329              	.L50:
 1330 0603 E8000000 		call	__cxa_end_catch@PLT
 1330      00
 1331 0608 4889D8   		movq	%rbx, %rax
 1332 060b 4889C7   		movq	%rax, %rdi
 1333              	.LEHB19:
 1334 060e E8000000 		call	_Unwind_Resume@PLT
 1334      00
 1335              	.LEHE19:
 1336              	.L57:
 1337 0613 F30F1EFA 		endbr64
 1338              	.LBE19:
 1339 0617 4889C3   		movq	%rax, %rbx
 1340 061a E8000000 		call	__cxa_end_catch@PLT
 1340      00
 1341 061f 4889D8   		movq	%rbx, %rax
 1342 0622 4889C7   		movq	%rax, %rdi
 1343              	.LEHB20:
 1344 0625 E8000000 		call	_Unwind_Resume@PLT
 1344      00
 1345              	.LEHE20:
 1346              	.L40:
 1347 062a 488B45D8 		movq	-40(%rbp), %rax
 1348 062e 64482B04 		subq	%fs:40, %rax
 1348      25280000 
 1348      00
 1349 0637 7405     		je	.L52
 1350 0639 E8000000 		call	__stack_chk_fail@PLT
 1350      00
 1351              	.L52:
 1352 063e 4881C4F8 		addq	$504, %rsp
 1352      010000
 1353 0645 5B       		popq	%rbx
 1354 0646 415C     		popq	%r12
 1355 0648 415D     		popq	%r13
 1356 064a 5D       		popq	%rbp
 1357              		.cfi_def_cfa 7, 8
 1358 064b C3       		ret
 1359              		.cfi_endproc
 1360              	.LFE1177:
 1361              		.section	.gcc_except_table
 1362              		.align 4
 1363              	.LLSDA1177:
 1364 0038 FF       		.byte	0xff
 1365 0039 9B       		.byte	0x9b
 1366 003a 49       		.uleb128 .LLSDATT1177-.LLSDATTD1177
 1367              	.LLSDATTD1177:
 1368 003b 01       		.byte	0x1
 1369 003c 33       		.uleb128 .LLSDACSE1177-.LLSDACSB1177
 1370              	.LLSDACSB1177:
 1371 003d 49       		.uleb128 .LEHB12-.LFB1177
 1372 003e 29       		.uleb128 .LEHE12-.LEHB12
 1373 003f 77       		.uleb128 .L53-.LFB1177
 1374 0040 05       		.uleb128 0x5
 1375 0041 9F01     		.uleb128 .LEHB13-.LFB1177
 1376 0043 8901     		.uleb128 .LEHE13-.LEHB13
 1377 0045 FD04     		.uleb128 .L54-.LFB1177
 1378 0047 00       		.uleb128 0
 1379 0048 CB02     		.uleb128 .LEHB14-.LFB1177
 1380 004a 05       		.uleb128 .LEHE14-.LEHB14
 1381 004b AC05     		.uleb128 .L55-.LFB1177
 1382 004d 00       		.uleb128 0
 1383 004e E402     		.uleb128 .LEHB15-.LFB1177
 1384 0050 60       		.uleb128 .LEHE15-.LEHB15
 1385 0051 9405     		.uleb128 .L56-.LFB1177
 1386 0053 00       		.uleb128 0
 1387 0054 CE03     		.uleb128 .LEHB16-.LFB1177
 1388 0056 05       		.uleb128 .LEHE16-.LEHB16
 1389 0057 AC05     		.uleb128 .L55-.LFB1177
 1390 0059 00       		.uleb128 0
 1391 005a EE03     		.uleb128 .LEHB17-.LFB1177
 1392 005c 8801     		.uleb128 .LEHE17-.LEHB17
 1393 005e C305     		.uleb128 .L57-.LFB1177
 1394 0060 00       		.uleb128 0
 1395 0061 F604     		.uleb128 .LEHB18-.LFB1177
 1396 0063 1E       		.uleb128 .LEHE18-.LEHB18
 1397 0064 00       		.uleb128 0
 1398 0065 00       		.uleb128 0
 1399 0066 BE05     		.uleb128 .LEHB19-.LFB1177
 1400 0068 05       		.uleb128 .LEHE19-.LEHB19
 1401 0069 00       		.uleb128 0
 1402 006a 00       		.uleb128 0
 1403 006b D505     		.uleb128 .LEHB20-.LFB1177
 1404 006d 05       		.uleb128 .LEHE20-.LEHB20
 1405 006e 00       		.uleb128 0
 1406 006f 00       		.uleb128 0
 1407              	.LLSDACSE1177:
 1408 0070 03       		.byte	0x3
 1409 0071 00       		.byte	0
 1410 0072 02       		.byte	0x2
 1411 0073 7D       		.byte	0x7d
 1412 0074 01       		.byte	0x1
 1413 0075 7D       		.byte	0x7d
 1414 0076 0000     		.align 4
 1415 0078 00000000 		.long	0
 1416              	
 1417 007c 00000000 		.long	DW.ref._ZTISt9exception-.
 1418 0080 00000000 		.long	DW.ref._ZTIN8UnitTest15AssertExceptionE-.
 1419              	.LLSDATT1177:
 1420              		.text
 1422              		.align 2
 1424              	_ZN12_GLOBAL__N_134ThrowingThingieDummyTestNameHelper7RunImplEv:
 1425              	.LFB1178:
  38:TestTestMacros.cpp **** {
 1426              		.loc 6 38 1 is_stmt 1
 1427              		.cfi_startproc
 1428 064c F30F1EFA 		endbr64
 1429 0650 55       		pushq	%rbp
 1430              		.cfi_def_cfa_offset 16
 1431              		.cfi_offset 6, -16
 1432 0651 4889E5   		movq	%rsp, %rbp
 1433              		.cfi_def_cfa_register 6
 1434 0654 48897DF8 		movq	%rdi, -8(%rbp)
  39:TestTestMacros.cpp **** }
 1435              		.loc 6 39 1
 1436 0658 90       		nop
 1437 0659 5D       		popq	%rbp
 1438              		.cfi_def_cfa 7, 8
 1439 065a C3       		ret
 1440              		.cfi_endproc
 1441              	.LFE1178:
 1443              		.section	.rodata
 1444 01a7 00       		.align 8
 1445              	.LC14:
 1446 01a8 45786365 		.string	"ExceptionsInFixtureAreReportedAsHappeningInTheFixture"
 1446      7074696F 
 1446      6E73496E 
 1446      46697874 
 1446      75726541 
 1447              		.text
 1448 065b 90       		.align 2
 1450              	_ZN12_GLOBAL__N_157TestExceptionsInFixtureAreReportedAsHappeningInTheFixtureC2Ev:
 1451              	.LFB1180:
  40:TestTestMacros.cpp **** 
  41:TestTestMacros.cpp **** TEST (ExceptionsInFixtureAreReportedAsHappeningInTheFixture)
 1452              		.loc 6 41 1
 1453              		.cfi_startproc
 1454 065c 55       		pushq	%rbp
 1455              		.cfi_def_cfa_offset 16
 1456              		.cfi_offset 6, -16
 1457 065d 4889E5   		movq	%rsp, %rbp
 1458              		.cfi_def_cfa_register 6
 1459 0660 53       		pushq	%rbx
 1460 0661 4883EC18 		subq	$24, %rsp
 1461              		.cfi_offset 3, -24
 1462 0665 48897DE8 		movq	%rdi, -24(%rbp)
 1463              	.LBB20:
 1464              		.loc 6 41 1
 1465 0669 488B5DE8 		movq	-24(%rbp), %rbx
 1466 066d E8000000 		call	_ZN13UnitTestSuite12GetSuiteNameEv
 1466      00
 1467 0672 4889C2   		movq	%rax, %rdx
 1468 0675 41B82900 		movl	$41, %r8d
 1468      0000
 1469 067b 488D0500 		leaq	.LC2(%rip), %rax
 1469      000000
 1470 0682 4889C1   		movq	%rax, %rcx
 1471 0685 488D0500 		leaq	.LC14(%rip), %rax
 1471      000000
 1472 068c 4889C6   		movq	%rax, %rsi
 1473 068f 4889DF   		movq	%rbx, %rdi
 1474 0692 E8000000 		call	_ZN8UnitTest4TestC2EPKcS2_S2_i@PLT
 1474      00
 1475 0697 488D1500 		leaq	16+_ZTVN12_GLOBAL__N_157TestExceptionsInFixtureAreReportedAsHappeningInTheFixtureE(%rip), %rd
 1475      000000
 1476 069e 488B45E8 		movq	-24(%rbp), %rax
 1477 06a2 488910   		movq	%rdx, (%rax)
 1478              	.LBE20:
 1479 06a5 90       		nop
 1480 06a6 488B5DF8 		movq	-8(%rbp), %rbx
 1481 06aa C9       		leave
 1482              		.cfi_def_cfa 7, 8
 1483 06ab C3       		ret
 1484              		.cfi_endproc
 1485              	.LFE1180:
 1487              		.set	_ZN12_GLOBAL__N_157TestExceptionsInFixtureAreReportedAsHappeningInTheFixtureC1Ev,_ZN12_GLOBAL
 1488              		.local	_ZN12_GLOBAL__N_165testExceptionsInFixtureAreReportedAsHappeningInTheFixtureInstanceE
 1489              		.comm	_ZN12_GLOBAL__N_165testExceptionsInFixtureAreReportedAsHappeningInTheFixtureInstanceE,56,32
 1490              		.local	_ZN12_GLOBAL__N_158adderExceptionsInFixtureAreReportedAsHappeningInTheFixtureE
 1491              		.comm	_ZN12_GLOBAL__N_158adderExceptionsInFixtureAreReportedAsHappeningInTheFixtureE,1,1
 1492              		.section	.rodata
 1493              	.LC15:
 1494 01de 78636570 		.string	"xception"
 1494      74696F6E 
 1494      00
 1495 01e7 00       		.align 8
 1496              	.LC16:
 1497 01e8 73747273 		.string	"strstr(reporter.lastFailedMessage, \"xception\")"
 1497      74722872 
 1497      65706F72 
 1497      7465722E 
 1497      6C617374 
 1498              	.LC17:
 1499 0217 66697874 		.string	"fixture"
 1499      75726500 
 1500 021f 00       		.align 8
 1501              	.LC18:
 1502 0220 73747273 		.string	"strstr(reporter.lastFailedMessage, \"fixture\")"
 1502      74722872 
 1502      65706F72 
 1502      7465722E 
 1502      6C617374 
 1503              	.LC19:
 1504 024e 5468726F 		.string	"ThrowingThingie"
 1504      77696E67 
 1504      5468696E 
 1504      67696500 
 1505 025e 0000     		.align 8
 1506              	.LC20:
 1507 0260 73747273 		.string	"strstr(reporter.lastFailedMessage, \"ThrowingThingie\")"
 1507      74722872 
 1507      65706F72 
 1507      7465722E 
 1507      6C617374 
 1508 0296 0000     		.align 8
 1509              	.LC21:
 1510 0298 556E6861 		.string	"Unhandled exception in CHECK(strstr(reporter.lastFailedMessage, \"xception\"))"
 1510      6E646C65 
 1510      64206578 
 1510      63657074 
 1510      696F6E20 
 1511 02e5 000000   		.align 8
 1512              	.LC22:
 1513 02e8 556E6861 		.string	"Unhandled exception in CHECK(strstr(reporter.lastFailedMessage, \"fixture\"))"
 1513      6E646C65 
 1513      64206578 
 1513      63657074 
 1513      696F6E20 
 1514 0334 00000000 		.align 8
 1515              	.LC23:
 1516 0338 556E6861 		.string	"Unhandled exception in CHECK(strstr(reporter.lastFailedMessage, \"ThrowingThingie\"))"
 1516      6E646C65 
 1516      64206578 
 1516      63657074 
 1516      696F6E20 
 1517              		.text
 1518              		.align 2
 1520              	_ZNK12_GLOBAL__N_157TestExceptionsInFixtureAreReportedAsHappeningInTheFixture7RunImplEv:
 1521              	.LFB1182:
  42:TestTestMacros.cpp **** {
 1522              		.loc 6 42 1
 1523              		.cfi_startproc
 1524              		.cfi_personality 0x9b,DW.ref.__gxx_personality_v0
 1525              		.cfi_lsda 0x1b,.LLSDA1182
 1526 06ac F30F1EFA 		endbr64
 1527 06b0 55       		pushq	%rbp
 1528              		.cfi_def_cfa_offset 16
 1529              		.cfi_offset 6, -16
 1530 06b1 4889E5   		movq	%rsp, %rbp
 1531              		.cfi_def_cfa_register 6
 1532 06b4 53       		pushq	%rbx
 1533 06b5 4881EC98 		subq	$2200, %rsp
 1533      080000
 1534              		.cfi_offset 3, -24
 1535 06bc 4889BD68 		movq	%rdi, -2200(%rbp)
 1535      F7FFFF
 1536              		.loc 6 42 1
 1537 06c3 64488B04 		movq	%fs:40, %rax
 1537      25280000 
 1537      00
 1538 06cc 488945E8 		movq	%rax, -24(%rbp)
 1539 06d0 31C0     		xorl	%eax, %eax
  43:TestTestMacros.cpp ****     RecordingReporter reporter;
 1540              		.loc 6 43 23
 1541 06d2 488D85B0 		leaq	-2128(%rbp), %rax
 1541      F7FFFF
 1542 06d9 4889C7   		movq	%rax, %rdi
 1543 06dc E8000000 		call	_ZN17RecordingReporterC1Ev
 1543      00
  44:TestTestMacros.cpp ****     TestResults result(&reporter);
 1544              		.loc 6 44 33
 1545 06e1 488D95B0 		leaq	-2128(%rbp), %rdx
 1545      F7FFFF
 1546 06e8 488D8570 		leaq	-2192(%rbp), %rax
 1546      F7FFFF
 1547 06ef 4889D6   		movq	%rdx, %rsi
 1548 06f2 4889C7   		movq	%rax, %rdi
 1549              	.LEHB21:
 1550 06f5 E8000000 		call	_ZN8UnitTest11TestResultsC1EPNS_12TestReporterE@PLT
 1550      00
 1551              	.LBB21:
  45:TestTestMacros.cpp **** 	{
  46:TestTestMacros.cpp **** 		ScopedCurrentTest scopedResults(result);
 1552              		.loc 6 46 41
 1553 06fa 488D8D70 		leaq	-2192(%rbp), %rcx
 1553      F7FFFF
 1554 0701 488D8590 		leaq	-2160(%rbp), %rax
 1554      F7FFFF
 1555 0708 BA000000 		movl	$0, %edx
 1555      00
 1556 070d 4889CE   		movq	%rcx, %rsi
 1557 0710 4889C7   		movq	%rax, %rdi
 1558 0713 E8000000 		call	_ZN17ScopedCurrentTestC1ERN8UnitTest11TestResultsEPKNS0_11TestDetailsE
 1558      00
 1559              	.LEHE21:
  47:TestTestMacros.cpp **** 		list2.GetHead()->Run();
 1560              		.loc 6 47 23
 1561 0718 488D0500 		leaq	_ZN12_GLOBAL__N_15list2E(%rip), %rax
 1561      000000
 1562 071f 4889C7   		movq	%rax, %rdi
 1563              	.LEHB22:
 1564 0722 E8000000 		call	_ZNK8UnitTest8TestList7GetHeadEv@PLT
 1564      00
 1565 0727 4889C7   		movq	%rax, %rdi
 1566 072a E8000000 		call	_ZN8UnitTest4Test3RunEv@PLT
 1566      00
 1567              	.LEHE22:
  48:TestTestMacros.cpp **** 	}
 1568              		.loc 6 48 2
 1569 072f 488D8590 		leaq	-2160(%rbp), %rax
 1569      F7FFFF
 1570 0736 4889C7   		movq	%rax, %rdi
 1571              	.LEHB23:
 1572 0739 E8000000 		call	_ZN17ScopedCurrentTestD1Ev
 1572      00
 1573              	.LEHE23:
 1574              	.LBE21:
  49:TestTestMacros.cpp **** 
  50:TestTestMacros.cpp ****     CHECK(strstr(reporter.lastFailedMessage, "xception"));
 1575              		.loc 6 50 5
 1576 073e 488D85B0 		leaq	-2128(%rbp), %rax
 1576      F7FFFF
 1577 0745 48051405 		addq	$1300, %rax
 1577      0000
 1578 074b 488D1500 		leaq	.LC15(%rip), %rdx
 1578      000000
 1579 0752 4889D6   		movq	%rdx, %rsi
 1580 0755 4889C7   		movq	%rax, %rdi
 1581 0758 E8000000 		call	strstr@PLT
 1581      00
 1582 075d 4889C7   		movq	%rax, %rdi
 1583 0760 E8000000 		call	_ZN8UnitTest5CheckIPcEEbT_
 1583      00
 1584 0765 83F001   		xorl	$1, %eax
 1585 0768 84C0     		testb	%al, %al
 1586 076a 7440     		je	.L62
 1587              	.LEHB24:
 1588              		.loc 6 50 5 is_stmt 0 discriminator 1
 1589 076c E8000000 		call	_ZN8UnitTest11CurrentTest7ResultsEv@PLT
 1589      00
 1590 0771 488B18   		movq	(%rax), %rbx
 1591 0774 E8000000 		call	_ZN8UnitTest11CurrentTest7DetailsEv@PLT
 1591      00
 1592              		.loc 6 50 5 discriminator 3
 1593 0779 488B08   		movq	(%rax), %rcx
 1594 077c 488D8590 		leaq	-2160(%rbp), %rax
 1594      F7FFFF
 1595 0783 BA320000 		movl	$50, %edx
 1595      00
 1596 0788 4889CE   		movq	%rcx, %rsi
 1597 078b 4889C7   		movq	%rax, %rdi
 1598 078e E8000000 		call	_ZN8UnitTest11TestDetailsC1ERKS0_i@PLT
 1598      00
 1599              		.loc 6 50 5 discriminator 7
 1600 0793 488D8590 		leaq	-2160(%rbp), %rax
 1600      F7FFFF
 1601 079a 488D1500 		leaq	.LC16(%rip), %rdx
 1601      000000
 1602 07a1 4889C6   		movq	%rax, %rsi
 1603 07a4 4889DF   		movq	%rbx, %rdi
 1604 07a7 E8000000 		call	_ZN8UnitTest11TestResults13OnTestFailureERKNS_11TestDetailsEPKc@PLT
 1604      00
 1605              	.LEHE24:
 1606              	.L62:
  51:TestTestMacros.cpp ****     CHECK(strstr(reporter.lastFailedMessage, "fixture"));
 1607              		.loc 6 51 5 is_stmt 1
 1608 07ac 488D85B0 		leaq	-2128(%rbp), %rax
 1608      F7FFFF
 1609 07b3 48051405 		addq	$1300, %rax
 1609      0000
 1610 07b9 488D1500 		leaq	.LC17(%rip), %rdx
 1610      000000
 1611 07c0 4889D6   		movq	%rdx, %rsi
 1612 07c3 4889C7   		movq	%rax, %rdi
 1613 07c6 E8000000 		call	strstr@PLT
 1613      00
 1614 07cb 4889C7   		movq	%rax, %rdi
 1615 07ce E8000000 		call	_ZN8UnitTest5CheckIPcEEbT_
 1615      00
 1616 07d3 83F001   		xorl	$1, %eax
 1617 07d6 84C0     		testb	%al, %al
 1618 07d8 7440     		je	.L63
 1619              	.LEHB25:
 1620              		.loc 6 51 5 is_stmt 0 discriminator 1
 1621 07da E8000000 		call	_ZN8UnitTest11CurrentTest7ResultsEv@PLT
 1621      00
 1622 07df 488B18   		movq	(%rax), %rbx
 1623 07e2 E8000000 		call	_ZN8UnitTest11CurrentTest7DetailsEv@PLT
 1623      00
 1624              		.loc 6 51 5 discriminator 3
 1625 07e7 488B08   		movq	(%rax), %rcx
 1626 07ea 488D8590 		leaq	-2160(%rbp), %rax
 1626      F7FFFF
 1627 07f1 BA330000 		movl	$51, %edx
 1627      00
 1628 07f6 4889CE   		movq	%rcx, %rsi
 1629 07f9 4889C7   		movq	%rax, %rdi
 1630 07fc E8000000 		call	_ZN8UnitTest11TestDetailsC1ERKS0_i@PLT
 1630      00
 1631              		.loc 6 51 5 discriminator 7
 1632 0801 488D8590 		leaq	-2160(%rbp), %rax
 1632      F7FFFF
 1633 0808 488D1500 		leaq	.LC18(%rip), %rdx
 1633      000000
 1634 080f 4889C6   		movq	%rax, %rsi
 1635 0812 4889DF   		movq	%rbx, %rdi
 1636 0815 E8000000 		call	_ZN8UnitTest11TestResults13OnTestFailureERKNS_11TestDetailsEPKc@PLT
 1636      00
 1637              	.LEHE25:
 1638              	.L63:
  52:TestTestMacros.cpp ****     CHECK(strstr(reporter.lastFailedMessage, "ThrowingThingie"));
 1639              		.loc 6 52 5 is_stmt 1
 1640 081a 488D85B0 		leaq	-2128(%rbp), %rax
 1640      F7FFFF
 1641 0821 48051405 		addq	$1300, %rax
 1641      0000
 1642 0827 488D1500 		leaq	.LC19(%rip), %rdx
 1642      000000
 1643 082e 4889D6   		movq	%rdx, %rsi
 1644 0831 4889C7   		movq	%rax, %rdi
 1645 0834 E8000000 		call	strstr@PLT
 1645      00
 1646 0839 4889C7   		movq	%rax, %rdi
 1647 083c E8000000 		call	_ZN8UnitTest5CheckIPcEEbT_
 1647      00
 1648 0841 83F001   		xorl	$1, %eax
 1649 0844 84C0     		testb	%al, %al
 1650 0846 7440     		je	.L64
 1651              	.LEHB26:
 1652              		.loc 6 52 5 is_stmt 0 discriminator 1
 1653 0848 E8000000 		call	_ZN8UnitTest11CurrentTest7ResultsEv@PLT
 1653      00
 1654 084d 488B18   		movq	(%rax), %rbx
 1655 0850 E8000000 		call	_ZN8UnitTest11CurrentTest7DetailsEv@PLT
 1655      00
 1656              		.loc 6 52 5 discriminator 3
 1657 0855 488B08   		movq	(%rax), %rcx
 1658 0858 488D8590 		leaq	-2160(%rbp), %rax
 1658      F7FFFF
 1659 085f BA340000 		movl	$52, %edx
 1659      00
 1660 0864 4889CE   		movq	%rcx, %rsi
 1661 0867 4889C7   		movq	%rax, %rdi
 1662 086a E8000000 		call	_ZN8UnitTest11TestDetailsC1ERKS0_i@PLT
 1662      00
 1663              		.loc 6 52 5 discriminator 7
 1664 086f 488D8590 		leaq	-2160(%rbp), %rax
 1664      F7FFFF
 1665 0876 488D1500 		leaq	.LC20(%rip), %rdx
 1665      000000
 1666 087d 4889C6   		movq	%rax, %rsi
 1667 0880 4889DF   		movq	%rbx, %rdi
 1668 0883 E8000000 		call	_ZN8UnitTest11TestResults13OnTestFailureERKNS_11TestDetailsEPKc@PLT
 1668      00
 1669              	.LEHE26:
 1670              	.L64:
  53:TestTestMacros.cpp **** }
 1671              		.loc 6 53 1 is_stmt 1
 1672 0888 488D85B0 		leaq	-2128(%rbp), %rax
 1672      F7FFFF
 1673 088f 4889C7   		movq	%rax, %rdi
 1674              	.LEHB27:
 1675 0892 E8000000 		call	_ZN17RecordingReporterD1Ev
 1675      00
 1676              	.LEHE27:
 1677 0897 488B45E8 		movq	-24(%rbp), %rax
 1678 089b 64482B04 		subq	%fs:40, %rax
 1678      25280000 
 1678      00
 1679 08a4 0F847501 		je	.L73
 1679      0000
 1680 08aa E96B0100 		jmp	.L82
 1680      00
 1681              	.L75:
 1682 08af F30F1EFA 		endbr64
 1683              	.LBB22:
  48:TestTestMacros.cpp **** 
 1684              		.loc 6 48 2
 1685 08b3 4889C3   		movq	%rax, %rbx
 1686 08b6 488D8590 		leaq	-2160(%rbp), %rax
 1686      F7FFFF
 1687 08bd 4889C7   		movq	%rax, %rdi
 1688 08c0 E8000000 		call	_ZN17ScopedCurrentTestD1Ev
 1688      00
 1689 08c5 E9360100 		jmp	.L66
 1689      00
 1690              	.L76:
 1691 08ca F30F1EFA 		endbr64
 1692              	.LBE22:
  50:TestTestMacros.cpp ****     CHECK(strstr(reporter.lastFailedMessage, "fixture"));
 1693              		.loc 6 50 5
 1694 08ce 4889C7   		movq	%rax, %rdi
 1695 08d1 E8000000 		call	__cxa_begin_catch@PLT
 1695      00
 1696              	.LEHB28:
 1697 08d6 E8000000 		call	_ZN8UnitTest11CurrentTest7ResultsEv@PLT
 1697      00
  50:TestTestMacros.cpp ****     CHECK(strstr(reporter.lastFailedMessage, "fixture"));
 1698              		.loc 6 50 5 is_stmt 0 discriminator 6
 1699 08db 488B18   		movq	(%rax), %rbx
 1700 08de E8000000 		call	_ZN8UnitTest11CurrentTest7DetailsEv@PLT
 1700      00
  50:TestTestMacros.cpp ****     CHECK(strstr(reporter.lastFailedMessage, "fixture"));
 1701              		.loc 6 50 5 discriminator 12
 1702 08e3 488B08   		movq	(%rax), %rcx
 1703 08e6 488D8590 		leaq	-2160(%rbp), %rax
 1703      F7FFFF
 1704 08ed BA320000 		movl	$50, %edx
 1704      00
 1705 08f2 4889CE   		movq	%rcx, %rsi
 1706 08f5 4889C7   		movq	%rax, %rdi
 1707 08f8 E8000000 		call	_ZN8UnitTest11TestDetailsC1ERKS0_i@PLT
 1707      00
  50:TestTestMacros.cpp ****     CHECK(strstr(reporter.lastFailedMessage, "fixture"));
 1708              		.loc 6 50 5 discriminator 16
 1709 08fd 488D8590 		leaq	-2160(%rbp), %rax
 1709      F7FFFF
 1710 0904 488D1500 		leaq	.LC21(%rip), %rdx
 1710      000000
 1711 090b 4889C6   		movq	%rax, %rsi
 1712 090e 4889DF   		movq	%rbx, %rdi
 1713 0911 E8000000 		call	_ZN8UnitTest11TestResults13OnTestFailureERKNS_11TestDetailsEPKc@PLT
 1713      00
 1714              	.LEHE28:
 1715              	.LEHB29:
  50:TestTestMacros.cpp ****     CHECK(strstr(reporter.lastFailedMessage, "fixture"));
 1716              		.loc 6 50 5 discriminator 18
 1717 0916 E8000000 		call	__cxa_end_catch@PLT
 1717      00
 1718              	.LEHE29:
  50:TestTestMacros.cpp ****     CHECK(strstr(reporter.lastFailedMessage, "fixture"));
 1719              		.loc 6 50 5
 1720 091b E98CFEFF 		jmp	.L62
 1720      FF
 1721              	.L77:
 1722 0920 F30F1EFA 		endbr64
 1723 0924 4889C3   		movq	%rax, %rbx
 1724 0927 E8000000 		call	__cxa_end_catch@PLT
 1724      00
 1725 092c E9CF0000 		jmp	.L66
 1725      00
 1726              	.L78:
 1727 0931 F30F1EFA 		endbr64
  51:TestTestMacros.cpp ****     CHECK(strstr(reporter.lastFailedMessage, "ThrowingThingie"));
 1728              		.loc 6 51 5 is_stmt 1
 1729 0935 4889C7   		movq	%rax, %rdi
 1730 0938 E8000000 		call	__cxa_begin_catch@PLT
 1730      00
 1731              	.LEHB30:
 1732 093d E8000000 		call	_ZN8UnitTest11CurrentTest7ResultsEv@PLT
 1732      00
  51:TestTestMacros.cpp ****     CHECK(strstr(reporter.lastFailedMessage, "ThrowingThingie"));
 1733              		.loc 6 51 5 is_stmt 0 discriminator 6
 1734 0942 488B18   		movq	(%rax), %rbx
 1735 0945 E8000000 		call	_ZN8UnitTest11CurrentTest7DetailsEv@PLT
 1735      00
  51:TestTestMacros.cpp ****     CHECK(strstr(reporter.lastFailedMessage, "ThrowingThingie"));
 1736              		.loc 6 51 5 discriminator 12
 1737 094a 488B08   		movq	(%rax), %rcx
 1738 094d 488D8590 		leaq	-2160(%rbp), %rax
 1738      F7FFFF
 1739 0954 BA330000 		movl	$51, %edx
 1739      00
 1740 0959 4889CE   		movq	%rcx, %rsi
 1741 095c 4889C7   		movq	%rax, %rdi
 1742 095f E8000000 		call	_ZN8UnitTest11TestDetailsC1ERKS0_i@PLT
 1742      00
  51:TestTestMacros.cpp ****     CHECK(strstr(reporter.lastFailedMessage, "ThrowingThingie"));
 1743              		.loc 6 51 5 discriminator 16
 1744 0964 488D8590 		leaq	-2160(%rbp), %rax
 1744      F7FFFF
 1745 096b 488D1500 		leaq	.LC22(%rip), %rdx
 1745      000000
 1746 0972 4889C6   		movq	%rax, %rsi
 1747 0975 4889DF   		movq	%rbx, %rdi
 1748 0978 E8000000 		call	_ZN8UnitTest11TestResults13OnTestFailureERKNS_11TestDetailsEPKc@PLT
 1748      00
 1749              	.LEHE30:
 1750              	.LEHB31:
  51:TestTestMacros.cpp ****     CHECK(strstr(reporter.lastFailedMessage, "ThrowingThingie"));
 1751              		.loc 6 51 5 discriminator 18
 1752 097d E8000000 		call	__cxa_end_catch@PLT
 1752      00
 1753              	.LEHE31:
  51:TestTestMacros.cpp ****     CHECK(strstr(reporter.lastFailedMessage, "ThrowingThingie"));
 1754              		.loc 6 51 5
 1755 0982 E993FEFF 		jmp	.L63
 1755      FF
 1756              	.L79:
 1757 0987 F30F1EFA 		endbr64
 1758 098b 4889C3   		movq	%rax, %rbx
 1759 098e E8000000 		call	__cxa_end_catch@PLT
 1759      00
 1760 0993 EB6B     		jmp	.L66
 1761              	.L80:
 1762 0995 F30F1EFA 		endbr64
  52:TestTestMacros.cpp **** }
 1763              		.loc 6 52 5 is_stmt 1
 1764 0999 4889C7   		movq	%rax, %rdi
 1765 099c E8000000 		call	__cxa_begin_catch@PLT
 1765      00
 1766              	.LEHB32:
 1767 09a1 E8000000 		call	_ZN8UnitTest11CurrentTest7ResultsEv@PLT
 1767      00
  52:TestTestMacros.cpp **** }
 1768              		.loc 6 52 5 is_stmt 0 discriminator 6
 1769 09a6 488B18   		movq	(%rax), %rbx
 1770 09a9 E8000000 		call	_ZN8UnitTest11CurrentTest7DetailsEv@PLT
 1770      00
  52:TestTestMacros.cpp **** }
 1771              		.loc 6 52 5 discriminator 12
 1772 09ae 488B08   		movq	(%rax), %rcx
 1773 09b1 488D8590 		leaq	-2160(%rbp), %rax
 1773      F7FFFF
 1774 09b8 BA340000 		movl	$52, %edx
 1774      00
 1775 09bd 4889CE   		movq	%rcx, %rsi
 1776 09c0 4889C7   		movq	%rax, %rdi
 1777 09c3 E8000000 		call	_ZN8UnitTest11TestDetailsC1ERKS0_i@PLT
 1777      00
  52:TestTestMacros.cpp **** }
 1778              		.loc 6 52 5 discriminator 16
 1779 09c8 488D8590 		leaq	-2160(%rbp), %rax
 1779      F7FFFF
 1780 09cf 488D1500 		leaq	.LC23(%rip), %rdx
 1780      000000
 1781 09d6 4889C6   		movq	%rax, %rsi
 1782 09d9 4889DF   		movq	%rbx, %rdi
 1783 09dc E8000000 		call	_ZN8UnitTest11TestResults13OnTestFailureERKNS_11TestDetailsEPKc@PLT
 1783      00
 1784              	.LEHE32:
 1785              	.LEHB33:
  52:TestTestMacros.cpp **** }
 1786              		.loc 6 52 5 discriminator 18
 1787 09e1 E8000000 		call	__cxa_end_catch@PLT
 1787      00
 1788              	.LEHE33:
  52:TestTestMacros.cpp **** }
 1789              		.loc 6 52 5
 1790 09e6 E99DFEFF 		jmp	.L64
 1790      FF
 1791              	.L81:
 1792 09eb F30F1EFA 		endbr64
 1793 09ef 4889C3   		movq	%rax, %rbx
 1794 09f2 E8000000 		call	__cxa_end_catch@PLT
 1794      00
 1795 09f7 EB07     		jmp	.L66
 1796              	.L74:
 1797 09f9 F30F1EFA 		endbr64
 1798              		.loc 6 53 1 is_stmt 1
 1799 09fd 4889C3   		movq	%rax, %rbx
 1800              	.L66:
 1801 0a00 488D85B0 		leaq	-2128(%rbp), %rax
 1801      F7FFFF
 1802 0a07 4889C7   		movq	%rax, %rdi
 1803 0a0a E8000000 		call	_ZN17RecordingReporterD1Ev
 1803      00
 1804 0a0f 4889D8   		movq	%rbx, %rax
 1805 0a12 4889C7   		movq	%rax, %rdi
 1806              	.LEHB34:
 1807 0a15 E8000000 		call	_Unwind_Resume@PLT
 1807      00
 1808              	.LEHE34:
 1809              	.L82:
 1810 0a1a E8000000 		call	__stack_chk_fail@PLT
 1810      00
 1811              	.L73:
 1812 0a1f 488B5DF8 		movq	-8(%rbp), %rbx
 1813 0a23 C9       		leave
 1814              		.cfi_def_cfa 7, 8
 1815 0a24 C3       		ret
 1816              		.cfi_endproc
 1817              	.LFE1182:
 1818              		.section	.gcc_except_table
 1819              		.align 4
 1820              	.LLSDA1182:
 1821 0084 FF       		.byte	0xff
 1822 0085 9B       		.byte	0x9b
 1823 0086 59       		.uleb128 .LLSDATT1182-.LLSDATTD1182
 1824              	.LLSDATTD1182:
 1825 0087 01       		.byte	0x1
 1826 0088 50       		.uleb128 .LLSDACSE1182-.LLSDACSB1182
 1827              	.LLSDACSB1182:
 1828 0089 49       		.uleb128 .LEHB21-.LFB1182
 1829 008a 23       		.uleb128 .LEHE21-.LEHB21
 1830 008b CD06     		.uleb128 .L74-.LFB1182
 1831 008d 00       		.uleb128 0
 1832 008e 76       		.uleb128 .LEHB22-.LFB1182
 1833 008f 0D       		.uleb128 .LEHE22-.LEHB22
 1834 0090 8304     		.uleb128 .L75-.LFB1182
 1835 0092 00       		.uleb128 0
 1836 0093 8D01     		.uleb128 .LEHB23-.LFB1182
 1837 0095 05       		.uleb128 .LEHE23-.LEHB23
 1838 0096 CD06     		.uleb128 .L74-.LFB1182
 1839 0098 00       		.uleb128 0
 1840 0099 C001     		.uleb128 .LEHB24-.LFB1182
 1841 009b 40       		.uleb128 .LEHE24-.LEHB24
 1842 009c 9E04     		.uleb128 .L76-.LFB1182
 1843 009e 01       		.uleb128 0x1
 1844 009f AE02     		.uleb128 .LEHB25-.LFB1182
 1845 00a1 40       		.uleb128 .LEHE25-.LEHB25
 1846 00a2 8505     		.uleb128 .L78-.LFB1182
 1847 00a4 01       		.uleb128 0x1
 1848 00a5 9C03     		.uleb128 .LEHB26-.LFB1182
 1849 00a7 40       		.uleb128 .LEHE26-.LEHB26
 1850 00a8 E905     		.uleb128 .L80-.LFB1182
 1851 00aa 01       		.uleb128 0x1
 1852 00ab E603     		.uleb128 .LEHB27-.LFB1182
 1853 00ad 05       		.uleb128 .LEHE27-.LEHB27
 1854 00ae 00       		.uleb128 0
 1855 00af 00       		.uleb128 0
 1856 00b0 AA04     		.uleb128 .LEHB28-.LFB1182
 1857 00b2 40       		.uleb128 .LEHE28-.LEHB28
 1858 00b3 F404     		.uleb128 .L77-.LFB1182
 1859 00b5 00       		.uleb128 0
 1860 00b6 EA04     		.uleb128 .LEHB29-.LFB1182
 1861 00b8 05       		.uleb128 .LEHE29-.LEHB29
 1862 00b9 CD06     		.uleb128 .L74-.LFB1182
 1863 00bb 00       		.uleb128 0
 1864 00bc 9105     		.uleb128 .LEHB30-.LFB1182
 1865 00be 40       		.uleb128 .LEHE30-.LEHB30
 1866 00bf DB05     		.uleb128 .L79-.LFB1182
 1867 00c1 00       		.uleb128 0
 1868 00c2 D105     		.uleb128 .LEHB31-.LFB1182
 1869 00c4 05       		.uleb128 .LEHE31-.LEHB31
 1870 00c5 CD06     		.uleb128 .L74-.LFB1182
 1871 00c7 00       		.uleb128 0
 1872 00c8 F505     		.uleb128 .LEHB32-.LFB1182
 1873 00ca 40       		.uleb128 .LEHE32-.LEHB32
 1874 00cb BF06     		.uleb128 .L81-.LFB1182
 1875 00cd 00       		.uleb128 0
 1876 00ce B506     		.uleb128 .LEHB33-.LFB1182
 1877 00d0 05       		.uleb128 .LEHE33-.LEHB33
 1878 00d1 CD06     		.uleb128 .L74-.LFB1182
 1879 00d3 00       		.uleb128 0
 1880 00d4 E906     		.uleb128 .LEHB34-.LFB1182
 1881 00d6 05       		.uleb128 .LEHE34-.LEHB34
 1882 00d7 00       		.uleb128 0
 1883 00d8 00       		.uleb128 0
 1884              	.LLSDACSE1182:
 1885 00d9 01       		.byte	0x1
 1886 00da 00       		.byte	0
 1887 00db 00       		.align 4
 1888 00dc 00000000 		.long	0
 1889              	
 1890              	.LLSDATT1182:
 1891              		.text
 1893              		.section	.rodata
 1894              	.LC24:
 1895 038c 54657374 		.string	"TestSuite1"
 1895      53756974 
 1895      653100
 1896              		.text
 1898              	_ZN12_GLOBAL__N_115SuiteTestSuite113UnitTestSuite12GetSuiteNameEv:
 1899              	.LFB1183:
  54:TestTestMacros.cpp **** 
  55:TestTestMacros.cpp **** struct DummyFixture
  56:TestTestMacros.cpp **** {
  57:TestTestMacros.cpp ****     int x;
  58:TestTestMacros.cpp **** };
  59:TestTestMacros.cpp **** 
  60:TestTestMacros.cpp **** // We're really testing the macros so we just want them to compile and link
  61:TestTestMacros.cpp **** SUITE(TestSuite1)
 1900              		.loc 6 61 1
 1901              		.cfi_startproc
 1902 0a25 55       		pushq	%rbp
 1903              		.cfi_def_cfa_offset 16
 1904              		.cfi_offset 6, -16
 1905 0a26 4889E5   		movq	%rsp, %rbp
 1906              		.cfi_def_cfa_register 6
 1907              		.loc 6 61 1
 1908 0a29 488D0500 		leaq	.LC24(%rip), %rax
 1908      000000
 1909 0a30 5D       		popq	%rbp
 1910              		.cfi_def_cfa 7, 8
 1911 0a31 C3       		ret
 1912              		.cfi_endproc
 1913              	.LFE1183:
 1915              		.section	.rodata
 1916 0397 00       		.align 8
 1917              	.LC25:
 1918 0398 53696D69 		.string	"SimilarlyNamedTestsInDifferentSuitesWork"
 1918      6C61726C 
 1918      794E616D 
 1918      65645465 
 1918      73747349 
 1919              		.text
 1920              		.align 2
 1922              	_ZN12_GLOBAL__N_115SuiteTestSuite144TestSimilarlyNamedTestsInDifferentSuitesWorkC2Ev:
 1923              	.LFB1185:
  62:TestTestMacros.cpp **** {
  63:TestTestMacros.cpp **** 	TEST(SimilarlyNamedTestsInDifferentSuitesWork)
 1924              		.loc 6 63 2
 1925              		.cfi_startproc
 1926 0a32 55       		pushq	%rbp
 1927              		.cfi_def_cfa_offset 16
 1928              		.cfi_offset 6, -16
 1929 0a33 4889E5   		movq	%rsp, %rbp
 1930              		.cfi_def_cfa_register 6
 1931 0a36 53       		pushq	%rbx
 1932 0a37 4883EC18 		subq	$24, %rsp
 1933              		.cfi_offset 3, -24
 1934 0a3b 48897DE8 		movq	%rdi, -24(%rbp)
 1935              	.LBB23:
 1936              		.loc 6 63 2
 1937 0a3f 488B5DE8 		movq	-24(%rbp), %rbx
 1938 0a43 E8DDFFFF 		call	_ZN12_GLOBAL__N_115SuiteTestSuite113UnitTestSuite12GetSuiteNameEv
 1938      FF
 1939 0a48 4889C2   		movq	%rax, %rdx
 1940 0a4b 41B83F00 		movl	$63, %r8d
 1940      0000
 1941 0a51 488D0500 		leaq	.LC2(%rip), %rax
 1941      000000
 1942 0a58 4889C1   		movq	%rax, %rcx
 1943 0a5b 488D0500 		leaq	.LC25(%rip), %rax
 1943      000000
 1944 0a62 4889C6   		movq	%rax, %rsi
 1945 0a65 4889DF   		movq	%rbx, %rdi
 1946 0a68 E8000000 		call	_ZN8UnitTest4TestC2EPKcS2_S2_i@PLT
 1946      00
 1947 0a6d 488D1500 		leaq	16+_ZTVN12_GLOBAL__N_115SuiteTestSuite144TestSimilarlyNamedTestsInDifferentSuitesWorkE(%rip),
 1947      000000
 1948 0a74 488B45E8 		movq	-24(%rbp), %rax
 1949 0a78 488910   		movq	%rdx, (%rax)
 1950              	.LBE23:
 1951 0a7b 90       		nop
 1952 0a7c 488B5DF8 		movq	-8(%rbp), %rbx
 1953 0a80 C9       		leave
 1954              		.cfi_def_cfa 7, 8
 1955 0a81 C3       		ret
 1956              		.cfi_endproc
 1957              	.LFE1185:
 1959              		.set	_ZN12_GLOBAL__N_115SuiteTestSuite144TestSimilarlyNamedTestsInDifferentSuitesWorkC1Ev,_ZN12_GL
 1960              		.local	_ZN12_GLOBAL__N_115SuiteTestSuite152testSimilarlyNamedTestsInDifferentSuitesWorkInstanceE
 1961              		.comm	_ZN12_GLOBAL__N_115SuiteTestSuite152testSimilarlyNamedTestsInDifferentSuitesWorkInstanceE,56
 1962              		.local	_ZN12_GLOBAL__N_115SuiteTestSuite145adderSimilarlyNamedTestsInDifferentSuitesWorkE
 1963              		.comm	_ZN12_GLOBAL__N_115SuiteTestSuite145adderSimilarlyNamedTestsInDifferentSuitesWorkE,1,1
 1964              		.align 2
 1966              	_ZNK12_GLOBAL__N_115SuiteTestSuite144TestSimilarlyNamedTestsInDifferentSuitesWork7RunImplEv:
 1967              	.LFB1187:
  64:TestTestMacros.cpp **** 	{
 1968              		.loc 6 64 2
 1969              		.cfi_startproc
 1970 0a82 F30F1EFA 		endbr64
 1971 0a86 55       		pushq	%rbp
 1972              		.cfi_def_cfa_offset 16
 1973              		.cfi_offset 6, -16
 1974 0a87 4889E5   		movq	%rsp, %rbp
 1975              		.cfi_def_cfa_register 6
 1976 0a8a 48897DF8 		movq	%rdi, -8(%rbp)
  65:TestTestMacros.cpp **** 	}
 1977              		.loc 6 65 2
 1978 0a8e 90       		nop
 1979 0a8f 5D       		popq	%rbp
 1980              		.cfi_def_cfa 7, 8
 1981 0a90 C3       		ret
 1982              		.cfi_endproc
 1983              	.LFE1187:
 1985 0a91 90       		.align 2
 1987              	_ZN12_GLOBAL__N_115SuiteTestSuite165DummyFixtureSimilarlyNamedFixtureTestsInDifferentSuitesWorkHelp
 1988              	.LFB1189:
  66:TestTestMacros.cpp **** 
  67:TestTestMacros.cpp **** 	TEST_FIXTURE(DummyFixture, SimilarlyNamedFixtureTestsInDifferentSuitesWork)
 1989              		.loc 6 67 2
 1990              		.cfi_startproc
 1991 0a92 55       		pushq	%rbp
 1992              		.cfi_def_cfa_offset 16
 1993              		.cfi_offset 6, -16
 1994 0a93 4889E5   		movq	%rsp, %rbp
 1995              		.cfi_def_cfa_register 6
 1996 0a96 48897DF8 		movq	%rdi, -8(%rbp)
 1997 0a9a 488975F0 		movq	%rsi, -16(%rbp)
 1998              	.LBB24:
 1999              		.loc 6 67 2
 2000 0a9e 488B45F8 		movq	-8(%rbp), %rax
 2001 0aa2 488B55F0 		movq	-16(%rbp), %rdx
 2002 0aa6 48895008 		movq	%rdx, 8(%rax)
 2003              	.LBE24:
 2004 0aaa 90       		nop
 2005 0aab 5D       		popq	%rbp
 2006              		.cfi_def_cfa 7, 8
 2007 0aac C3       		ret
 2008              		.cfi_endproc
 2009              	.LFE1189:
 2011              		.set	_ZN12_GLOBAL__N_115SuiteTestSuite165DummyFixtureSimilarlyNamedFixtureTestsInDifferentSuitesWo
 2012              		.section	.rodata
 2013 03c1 00000000 		.align 8
 2013      000000
 2014              	.LC26:
 2015 03c8 53696D69 		.string	"SimilarlyNamedFixtureTestsInDifferentSuitesWork"
 2015      6C61726C 
 2015      794E616D 
 2015      65644669 
 2015      78747572 
 2016              		.text
 2017 0aad 90       		.align 2
 2019              	_ZN12_GLOBAL__N_115SuiteTestSuite163TestDummyFixtureSimilarlyNamedFixtureTestsInDifferentSuitesWork
 2020              	.LFB1192:
 2021              		.loc 6 67 2
 2022              		.cfi_startproc
 2023 0aae 55       		pushq	%rbp
 2024              		.cfi_def_cfa_offset 16
 2025              		.cfi_offset 6, -16
 2026 0aaf 4889E5   		movq	%rsp, %rbp
 2027              		.cfi_def_cfa_register 6
 2028 0ab2 53       		pushq	%rbx
 2029 0ab3 4883EC18 		subq	$24, %rsp
 2030              		.cfi_offset 3, -24
 2031 0ab7 48897DE8 		movq	%rdi, -24(%rbp)
 2032              	.LBB25:
 2033              		.loc 6 67 2
 2034 0abb 488B5DE8 		movq	-24(%rbp), %rbx
 2035 0abf E861FFFF 		call	_ZN12_GLOBAL__N_115SuiteTestSuite113UnitTestSuite12GetSuiteNameEv
 2035      FF
 2036 0ac4 4889C2   		movq	%rax, %rdx
 2037 0ac7 41B84300 		movl	$67, %r8d
 2037      0000
 2038 0acd 488D0500 		leaq	.LC2(%rip), %rax
 2038      000000
 2039 0ad4 4889C1   		movq	%rax, %rcx
 2040 0ad7 488D0500 		leaq	.LC26(%rip), %rax
 2040      000000
 2041 0ade 4889C6   		movq	%rax, %rsi
 2042 0ae1 4889DF   		movq	%rbx, %rdi
 2043 0ae4 E8000000 		call	_ZN8UnitTest4TestC2EPKcS2_S2_i@PLT
 2043      00
 2044 0ae9 488D1500 		leaq	16+_ZTVN12_GLOBAL__N_115SuiteTestSuite163TestDummyFixtureSimilarlyNamedFixtureTestsInDifferen
 2044      000000
 2045 0af0 488B45E8 		movq	-24(%rbp), %rax
 2046 0af4 488910   		movq	%rdx, (%rax)
 2047              	.LBE25:
 2048 0af7 90       		nop
 2049 0af8 488B5DF8 		movq	-8(%rbp), %rbx
 2050 0afc C9       		leave
 2051              		.cfi_def_cfa 7, 8
 2052 0afd C3       		ret
 2053              		.cfi_endproc
 2054              	.LFE1192:
 2056              		.set	_ZN12_GLOBAL__N_115SuiteTestSuite163TestDummyFixtureSimilarlyNamedFixtureTestsInDifferentSuit
 2057              		.local	_ZN12_GLOBAL__N_115SuiteTestSuite171testDummyFixtureSimilarlyNamedFixtureTestsInDifferentSu
 2058              		.comm	_ZN12_GLOBAL__N_115SuiteTestSuite171testDummyFixtureSimilarlyNamedFixtureTestsInDifferentSui
 2059              		.local	_ZN12_GLOBAL__N_115SuiteTestSuite164adderDummyFixtureSimilarlyNamedFixtureTestsInDifferentS
 2060              		.comm	_ZN12_GLOBAL__N_115SuiteTestSuite164adderDummyFixtureSimilarlyNamedFixtureTestsInDifferentSu
 2061              		.section	.rodata
 2062              		.align 8
 2063              	.LC27:
 2064 03f8 556E6861 		.string	"Unhandled exception while destroying fixture DummyFixture"
 2064      6E646C65 
 2064      64206578 
 2064      63657074 
 2064      696F6E20 
 2065 0432 00000000 		.align 8
 2065      0000
 2066              	.LC28:
 2067 0438 556E6861 		.string	"Unhandled exception while constructing fixture DummyFixture"
 2067      6E646C65 
 2067      64206578 
 2067      63657074 
 2067      696F6E20 
 2068              		.text
 2069              		.align 2
 2071              	_ZNK12_GLOBAL__N_115SuiteTestSuite163TestDummyFixtureSimilarlyNamedFixtureTestsInDifferentSuitesWor
 2072              	.LFB1194:
 2073              		.loc 6 67 2
 2074              		.cfi_startproc
 2075              		.cfi_personality 0x9b,DW.ref.__gxx_personality_v0
 2076              		.cfi_lsda 0x1b,.LLSDA1194
 2077 0afe F30F1EFA 		endbr64
 2078 0b02 55       		pushq	%rbp
 2079              		.cfi_def_cfa_offset 16
 2080              		.cfi_offset 6, -16
 2081 0b03 4889E5   		movq	%rsp, %rbp
 2082              		.cfi_def_cfa_register 6
 2083 0b06 4155     		pushq	%r13
 2084 0b08 4154     		pushq	%r12
 2085 0b0a 53       		pushq	%rbx
 2086 0b0b 4881ECF8 		subq	$504, %rsp
 2086      010000
 2087              		.cfi_offset 13, -24
 2088              		.cfi_offset 12, -32
 2089              		.cfi_offset 3, -40
 2090 0b12 4889BDF8 		movq	%rdi, -520(%rbp)
 2090      FDFFFF
 2091              		.loc 6 67 2
 2092 0b19 64488B04 		movq	%fs:40, %rax
 2092      25280000 
 2092      00
 2093 0b22 488945D8 		movq	%rax, -40(%rbp)
 2094 0b26 31C0     		xorl	%eax, %eax
 2095 0b28 C6850FFE 		movb	$0, -497(%rbp)
 2095      FFFF00
 2096              	.LBB26:
 2097 0b2f 488B85F8 		movq	-520(%rbp), %rax
 2097      FDFFFF
 2098 0b36 488D5008 		leaq	8(%rax), %rdx
 2099 0b3a 488D8520 		leaq	-480(%rbp), %rax
 2099      FEFFFF
 2100 0b41 4889D6   		movq	%rdx, %rsi
 2101 0b44 4889C7   		movq	%rax, %rdi
 2102 0b47 E846FFFF 		call	_ZN12_GLOBAL__N_115SuiteTestSuite165DummyFixtureSimilarlyNamedFixtureTestsInDifferentSuitesWo
 2102      FF
 2103 0b4c C6850FFE 		movb	$1, -497(%rbp)
 2103      FFFF01
 2104 0b53 488B85F8 		movq	-520(%rbp), %rax
 2104      FDFFFF
 2105 0b5a 488D5008 		leaq	8(%rax), %rdx
 2106 0b5e 488D8520 		leaq	-480(%rbp), %rax
 2106      FEFFFF
 2107 0b65 4889D6   		movq	%rdx, %rsi
 2108 0b68 4889C7   		movq	%rax, %rdi
 2109              	.LEHB35:
 2110 0b6b E8502A00 		call	_ZN8UnitTest11ExecuteTestIN12_GLOBAL__N_115SuiteTestSuite165DummyFixtureSimilarlyNamedFixture
 2110      00
 2111              	.LEHE35:
 2112              	.LBE26:
 2113 0b70 E9630200 		jmp	.L89
 2113      00
 2114              	.L102:
 2115 0b75 F30F1EFA 		endbr64
 2116 0b79 4883FA01 		cmpq	$1, %rdx
 2117 0b7d 740F     		je	.L91
 2118 0b7f 4883FA02 		cmpq	$2, %rdx
 2119 0b83 0F84A700 		je	.L92
 2119      0000
 2120 0b89 E94D0100 		jmp	.L107
 2120      00
 2121              	.L91:
 2122              	.LBB27:
 2123              		.loc 6 67 2 is_stmt 0 discriminator 1
 2124 0b8e 4889C7   		movq	%rax, %rdi
 2125 0b91 E8000000 		call	__cxa_begin_catch@PLT
 2125      00
 2126 0b96 48898518 		movq	%rax, -488(%rbp)
 2126      FEFFFF
 2127              	.LEHB36:
 2128 0b9d E8000000 		call	_ZN8UnitTest11CurrentTest7ResultsEv@PLT
 2128      00
 2129 0ba2 488B18   		movq	(%rax), %rbx
 2130 0ba5 488B8518 		movq	-488(%rbp), %rax
 2130      FEFFFF
 2131 0bac 488B00   		movq	(%rax), %rax
 2132 0baf 4883C010 		addq	$16, %rax
 2133 0bb3 488B10   		movq	(%rax), %rdx
 2134 0bb6 488B8518 		movq	-488(%rbp), %rax
 2134      FEFFFF
 2135 0bbd 4889C7   		movq	%rax, %rdi
 2136 0bc0 FFD2     		call	*%rdx
 2137              	.LVL2:
 2138 0bc2 4989C4   		movq	%rax, %r12
 2139 0bc5 488B8518 		movq	-488(%rbp), %rax
 2139      FEFFFF
 2140 0bcc 4889C7   		movq	%rax, %rdi
 2141 0bcf E8000000 		call	_ZNK8UnitTest15AssertException10LineNumberEv@PLT
 2141      00
 2142              		.loc 6 67 2 discriminator 5
 2143 0bd4 4189C5   		movl	%eax, %r13d
 2144 0bd7 488B8518 		movq	-488(%rbp), %rax
 2144      FEFFFF
 2145 0bde 4889C7   		movq	%rax, %rdi
 2146 0be1 E8000000 		call	_ZNK8UnitTest15AssertException8FilenameEv@PLT
 2146      00
 2147              		.loc 6 67 2 discriminator 7
 2148 0be6 4889C1   		movq	%rax, %rcx
 2149 0be9 488B85F8 		movq	-520(%rbp), %rax
 2149      FDFFFF
 2150 0bf0 488B5008 		movq	8(%rax), %rdx
 2151 0bf4 488B85F8 		movq	-520(%rbp), %rax
 2151      FDFFFF
 2152 0bfb 488B7010 		movq	16(%rax), %rsi
 2153 0bff 488D8520 		leaq	-480(%rbp), %rax
 2153      FEFFFF
 2154 0c06 4589E8   		movl	%r13d, %r8d
 2155 0c09 4889C7   		movq	%rax, %rdi
 2156 0c0c E8000000 		call	_ZN8UnitTest11TestDetailsC1EPKcS2_S2_i@PLT
 2156      00
 2157              		.loc 6 67 2 discriminator 11
 2158 0c11 488D8520 		leaq	-480(%rbp), %rax
 2158      FEFFFF
 2159 0c18 4C89E2   		movq	%r12, %rdx
 2160 0c1b 4889C6   		movq	%rax, %rsi
 2161 0c1e 4889DF   		movq	%rbx, %rdi
 2162 0c21 E8000000 		call	_ZN8UnitTest11TestResults13OnTestFailureERKNS_11TestDetailsEPKc@PLT
 2162      00
 2163              	.LEHE36:
 2164              		.loc 6 67 2 discriminator 13
 2165 0c26 E8000000 		call	__cxa_end_catch@PLT
 2165      00
 2166              	.LBE27:
 2167 0c2b E9A80100 		jmp	.L89
 2167      00
 2168              	.L92:
 2169              	.LBB28:
 2170              		.loc 6 67 2 discriminator 2
 2171 0c30 4889C7   		movq	%rax, %rdi
 2172 0c33 E8000000 		call	__cxa_begin_catch@PLT
 2172      00
 2173 0c38 48898510 		movq	%rax, -496(%rbp)
 2173      FEFFFF
 2174              	.LBB29:
 2175 0c3f 488D8540 		leaq	-448(%rbp), %rax
 2175      FEFFFF
 2176 0c46 4889C7   		movq	%rax, %rdi
 2177              	.LEHB37:
 2178 0c49 E8000000 		call	_ZN8UnitTest15MemoryOutStreamC1Ev
 2178      00
 2179              	.LEHE37:
 2180              		.loc 6 67 2 discriminator 15
 2181 0c4e 488D8540 		leaq	-448(%rbp), %rax
 2181      FEFFFF
 2182 0c55 488D1500 		leaq	.LC11(%rip), %rdx
 2182      000000
 2183 0c5c 4889D6   		movq	%rdx, %rsi
 2184 0c5f 4889C7   		movq	%rax, %rdi
 2185              	.LEHB38:
 2186 0c62 E8000000 		call	_ZStlsISt11char_traitsIcEERSt13basic_ostreamIcT_ES5_PKc@PLT
 2186      00
 2187 0c67 4889C3   		movq	%rax, %rbx
 2188 0c6a 488B8510 		movq	-496(%rbp), %rax
 2188      FEFFFF
 2189 0c71 488B00   		movq	(%rax), %rax
 2190 0c74 4883C010 		addq	$16, %rax
 2191 0c78 488B10   		movq	(%rax), %rdx
 2192 0c7b 488B8510 		movq	-496(%rbp), %rax
 2192      FEFFFF
 2193 0c82 4889C7   		movq	%rax, %rdi
 2194 0c85 FFD2     		call	*%rdx
 2195              	.LVL3:
 2196 0c87 4889C6   		movq	%rax, %rsi
 2197 0c8a 4889DF   		movq	%rbx, %rdi
 2198 0c8d E8000000 		call	_ZStlsISt11char_traitsIcEERSt13basic_ostreamIcT_ES5_PKc@PLT
 2198      00
 2199              		.loc 6 67 2 discriminator 19
 2200 0c92 E8000000 		call	_ZN8UnitTest11CurrentTest7ResultsEv@PLT
 2200      00
 2201 0c97 488B18   		movq	(%rax), %rbx
 2202 0c9a 488D8540 		leaq	-448(%rbp), %rax
 2202      FEFFFF
 2203 0ca1 4889C7   		movq	%rax, %rdi
 2204 0ca4 E8000000 		call	_ZNK8UnitTest15MemoryOutStream7GetTextEv@PLT
 2204      00
 2205              		.loc 6 67 2 discriminator 21
 2206 0ca9 4889C2   		movq	%rax, %rdx
 2207 0cac 488B85F8 		movq	-520(%rbp), %rax
 2207      FDFFFF
 2208 0cb3 4883C008 		addq	$8, %rax
 2209 0cb7 4889C6   		movq	%rax, %rsi
 2210 0cba 4889DF   		movq	%rbx, %rdi
 2211 0cbd E8000000 		call	_ZN8UnitTest11TestResults13OnTestFailureERKNS_11TestDetailsEPKc@PLT
 2211      00
 2212              	.LEHE38:
 2213              		.loc 6 67 2 discriminator 25
 2214 0cc2 488D8540 		leaq	-448(%rbp), %rax
 2214      FEFFFF
 2215 0cc9 4889C7   		movq	%rax, %rdi
 2216              	.LEHB39:
 2217 0ccc E8000000 		call	_ZN8UnitTest15MemoryOutStreamD1Ev
 2217      00
 2218              	.LEHE39:
 2219              	.LBE29:
 2220              		.loc 6 67 2 discriminator 26
 2221 0cd1 E8000000 		call	__cxa_end_catch@PLT
 2221      00
 2222              	.LBE28:
 2223 0cd6 E9FD0000 		jmp	.L89
 2223      00
 2224              	.L107:
 2225              		.loc 6 67 2 discriminator 3
 2226 0cdb 4889C7   		movq	%rax, %rdi
 2227 0cde E8000000 		call	__cxa_begin_catch@PLT
 2227      00
 2228 0ce3 80BD0FFE 		cmpb	$0, -497(%rbp)
 2228      FFFF00
 2229 0cea 7445     		je	.L95
 2230              	.LEHB40:
 2231              		.loc 6 67 2 discriminator 28
 2232 0cec E8000000 		call	_ZN8UnitTest11CurrentTest7ResultsEv@PLT
 2232      00
 2233 0cf1 488B18   		movq	(%rax), %rbx
 2234 0cf4 488B85F8 		movq	-520(%rbp), %rax
 2234      FDFFFF
 2235 0cfb 488D4808 		leaq	8(%rax), %rcx
 2236 0cff 488D8520 		leaq	-480(%rbp), %rax
 2236      FEFFFF
 2237 0d06 BA430000 		movl	$67, %edx
 2237      00
 2238 0d0b 4889CE   		movq	%rcx, %rsi
 2239 0d0e 4889C7   		movq	%rax, %rdi
 2240 0d11 E8000000 		call	_ZN8UnitTest11TestDetailsC1ERKS0_i@PLT
 2240      00
 2241              		.loc 6 67 2 discriminator 33
 2242 0d16 488D8520 		leaq	-480(%rbp), %rax
 2242      FEFFFF
 2243 0d1d 488D1500 		leaq	.LC27(%rip), %rdx
 2243      000000
 2244 0d24 4889C6   		movq	%rax, %rsi
 2245 0d27 4889DF   		movq	%rbx, %rdi
 2246 0d2a E8000000 		call	_ZN8UnitTest11TestResults13OnTestFailureERKNS_11TestDetailsEPKc@PLT
 2246      00
 2247 0d2f EB43     		jmp	.L96
 2248              	.L95:
 2249              		.loc 6 67 2 discriminator 29
 2250 0d31 E8000000 		call	_ZN8UnitTest11CurrentTest7ResultsEv@PLT
 2250      00
 2251 0d36 488B18   		movq	(%rax), %rbx
 2252 0d39 488B85F8 		movq	-520(%rbp), %rax
 2252      FDFFFF
 2253 0d40 488D4808 		leaq	8(%rax), %rcx
 2254 0d44 488D8520 		leaq	-480(%rbp), %rax
 2254      FEFFFF
 2255 0d4b BA430000 		movl	$67, %edx
 2255      00
 2256 0d50 4889CE   		movq	%rcx, %rsi
 2257 0d53 4889C7   		movq	%rax, %rdi
 2258 0d56 E8000000 		call	_ZN8UnitTest11TestDetailsC1ERKS0_i@PLT
 2258      00
 2259              		.loc 6 67 2 discriminator 40
 2260 0d5b 488D8520 		leaq	-480(%rbp), %rax
 2260      FEFFFF
 2261 0d62 488D1500 		leaq	.LC28(%rip), %rdx
 2261      000000
 2262 0d69 4889C6   		movq	%rax, %rsi
 2263 0d6c 4889DF   		movq	%rbx, %rdi
 2264 0d6f E8000000 		call	_ZN8UnitTest11TestResults13OnTestFailureERKNS_11TestDetailsEPKc@PLT
 2264      00
 2265              	.LEHE40:
 2266              	.L96:
 2267              	.LEHB41:
 2268              		.loc 6 67 2 discriminator 43
 2269 0d74 E8000000 		call	__cxa_end_catch@PLT
 2269      00
 2270 0d79 EB5D     		jmp	.L89
 2271              	.L103:
 2272 0d7b F30F1EFA 		endbr64
 2273              	.LBB31:
 2274              		.loc 6 67 2
 2275 0d7f 4889C3   		movq	%rax, %rbx
 2276 0d82 E8000000 		call	__cxa_end_catch@PLT
 2276      00
 2277 0d87 4889D8   		movq	%rbx, %rax
 2278 0d8a 4889C7   		movq	%rax, %rdi
 2279 0d8d E8000000 		call	_Unwind_Resume@PLT
 2279      00
 2280              	.LEHE41:
 2281              	.L105:
 2282 0d92 F30F1EFA 		endbr64
 2283              	.LBE31:
 2284              	.LBB32:
 2285              	.LBB30:
 2286 0d96 4889C3   		movq	%rax, %rbx
 2287 0d99 488D8540 		leaq	-448(%rbp), %rax
 2287      FEFFFF
 2288 0da0 4889C7   		movq	%rax, %rdi
 2289 0da3 E8000000 		call	_ZN8UnitTest15MemoryOutStreamD1Ev
 2289      00
 2290 0da8 EB07     		jmp	.L99
 2291              	.L104:
 2292 0daa F30F1EFA 		endbr64
 2293              	.LBE30:
 2294 0dae 4889C3   		movq	%rax, %rbx
 2295              	.L99:
 2296 0db1 E8000000 		call	__cxa_end_catch@PLT
 2296      00
 2297 0db6 4889D8   		movq	%rbx, %rax
 2298 0db9 4889C7   		movq	%rax, %rdi
 2299              	.LEHB42:
 2300 0dbc E8000000 		call	_Unwind_Resume@PLT
 2300      00
 2301              	.LEHE42:
 2302              	.L106:
 2303 0dc1 F30F1EFA 		endbr64
 2304              	.LBE32:
 2305 0dc5 4889C3   		movq	%rax, %rbx
 2306 0dc8 E8000000 		call	__cxa_end_catch@PLT
 2306      00
 2307 0dcd 4889D8   		movq	%rbx, %rax
 2308 0dd0 4889C7   		movq	%rax, %rdi
 2309              	.LEHB43:
 2310 0dd3 E8000000 		call	_Unwind_Resume@PLT
 2310      00
 2311              	.LEHE43:
 2312              	.L89:
 2313 0dd8 488B45D8 		movq	-40(%rbp), %rax
 2314 0ddc 64482B04 		subq	%fs:40, %rax
 2314      25280000 
 2314      00
 2315 0de5 7405     		je	.L101
 2316 0de7 E8000000 		call	__stack_chk_fail@PLT
 2316      00
 2317              	.L101:
 2318 0dec 4881C4F8 		addq	$504, %rsp
 2318      010000
 2319 0df3 5B       		popq	%rbx
 2320 0df4 415C     		popq	%r12
 2321 0df6 415D     		popq	%r13
 2322 0df8 5D       		popq	%rbp
 2323              		.cfi_def_cfa 7, 8
 2324 0df9 C3       		ret
 2325              		.cfi_endproc
 2326              	.LFE1194:
 2327              		.section	.gcc_except_table
 2328              		.align 4
 2329              	.LLSDA1194:
 2330 00e0 FF       		.byte	0xff
 2331 00e1 9B       		.byte	0x9b
 2332 00e2 49       		.uleb128 .LLSDATT1194-.LLSDATTD1194
 2333              	.LLSDATTD1194:
 2334 00e3 01       		.byte	0x1
 2335 00e4 33       		.uleb128 .LLSDACSE1194-.LLSDACSB1194
 2336              	.LLSDACSB1194:
 2337 00e5 6D       		.uleb128 .LEHB35-.LFB1194
 2338 00e6 05       		.uleb128 .LEHE35-.LEHB35
 2339 00e7 77       		.uleb128 .L102-.LFB1194
 2340 00e8 05       		.uleb128 0x5
 2341 00e9 9F01     		.uleb128 .LEHB36-.LFB1194
 2342 00eb 8901     		.uleb128 .LEHE36-.LEHB36
 2343 00ed FD04     		.uleb128 .L103-.LFB1194
 2344 00ef 00       		.uleb128 0
 2345 00f0 CB02     		.uleb128 .LEHB37-.LFB1194
 2346 00f2 05       		.uleb128 .LEHE37-.LEHB37
 2347 00f3 AC05     		.uleb128 .L104-.LFB1194
 2348 00f5 00       		.uleb128 0
 2349 00f6 E402     		.uleb128 .LEHB38-.LFB1194
 2350 00f8 60       		.uleb128 .LEHE38-.LEHB38
 2351 00f9 9405     		.uleb128 .L105-.LFB1194
 2352 00fb 00       		.uleb128 0
 2353 00fc CE03     		.uleb128 .LEHB39-.LFB1194
 2354 00fe 05       		.uleb128 .LEHE39-.LEHB39
 2355 00ff AC05     		.uleb128 .L104-.LFB1194
 2356 0101 00       		.uleb128 0
 2357 0102 EE03     		.uleb128 .LEHB40-.LFB1194
 2358 0104 8801     		.uleb128 .LEHE40-.LEHB40
 2359 0106 C305     		.uleb128 .L106-.LFB1194
 2360 0108 00       		.uleb128 0
 2361 0109 F604     		.uleb128 .LEHB41-.LFB1194
 2362 010b 1E       		.uleb128 .LEHE41-.LEHB41
 2363 010c 00       		.uleb128 0
 2364 010d 00       		.uleb128 0
 2365 010e BE05     		.uleb128 .LEHB42-.LFB1194
 2366 0110 05       		.uleb128 .LEHE42-.LEHB42
 2367 0111 00       		.uleb128 0
 2368 0112 00       		.uleb128 0
 2369 0113 D505     		.uleb128 .LEHB43-.LFB1194
 2370 0115 05       		.uleb128 .LEHE43-.LEHB43
 2371 0116 00       		.uleb128 0
 2372 0117 00       		.uleb128 0
 2373              	.LLSDACSE1194:
 2374 0118 03       		.byte	0x3
 2375 0119 00       		.byte	0
 2376 011a 02       		.byte	0x2
 2377 011b 7D       		.byte	0x7d
 2378 011c 01       		.byte	0x1
 2379 011d 7D       		.byte	0x7d
 2380 011e 0000     		.align 4
 2381 0120 00000000 		.long	0
 2382              	
 2383 0124 00000000 		.long	DW.ref._ZTISt9exception-.
 2384 0128 00000000 		.long	DW.ref._ZTIN8UnitTest15AssertExceptionE-.
 2385              	.LLSDATT1194:
 2386              		.text
 2388              		.align 2
 2390              	_ZN12_GLOBAL__N_115SuiteTestSuite165DummyFixtureSimilarlyNamedFixtureTestsInDifferentSuitesWorkHelp
 2391              	.LFB1195:
  68:TestTestMacros.cpp **** 	{
 2392              		.loc 6 68 2 is_stmt 1
 2393              		.cfi_startproc
 2394 0dfa F30F1EFA 		endbr64
 2395 0dfe 55       		pushq	%rbp
 2396              		.cfi_def_cfa_offset 16
 2397              		.cfi_offset 6, -16
 2398 0dff 4889E5   		movq	%rsp, %rbp
 2399              		.cfi_def_cfa_register 6
 2400 0e02 48897DF8 		movq	%rdi, -8(%rbp)
  69:TestTestMacros.cpp **** 	}
 2401              		.loc 6 69 2
 2402 0e06 90       		nop
 2403 0e07 5D       		popq	%rbp
 2404              		.cfi_def_cfa 7, 8
 2405 0e08 C3       		ret
 2406              		.cfi_endproc
 2407              	.LFE1195:
 2409              		.section	.rodata
 2410              	.LC29:
 2411 0474 54657374 		.string	"TestSuite2"
 2411      53756974 
 2411      653200
 2412              		.text
 2414              	_ZN12_GLOBAL__N_115SuiteTestSuite213UnitTestSuite12GetSuiteNameEv:
 2415              	.LFB1196:
  70:TestTestMacros.cpp **** }
  71:TestTestMacros.cpp **** 
  72:TestTestMacros.cpp **** SUITE(TestSuite2)
 2416              		.loc 6 72 1
 2417              		.cfi_startproc
 2418 0e09 55       		pushq	%rbp
 2419              		.cfi_def_cfa_offset 16
 2420              		.cfi_offset 6, -16
 2421 0e0a 4889E5   		movq	%rsp, %rbp
 2422              		.cfi_def_cfa_register 6
 2423              		.loc 6 72 1
 2424 0e0d 488D0500 		leaq	.LC29(%rip), %rax
 2424      000000
 2425 0e14 5D       		popq	%rbp
 2426              		.cfi_def_cfa 7, 8
 2427 0e15 C3       		ret
 2428              		.cfi_endproc
 2429              	.LFE1196:
 2431              		.align 2
 2433              	_ZN12_GLOBAL__N_115SuiteTestSuite244TestSimilarlyNamedTestsInDifferentSuitesWorkC2Ev:
 2434              	.LFB1198:
  73:TestTestMacros.cpp **** {
  74:TestTestMacros.cpp **** 	TEST(SimilarlyNamedTestsInDifferentSuitesWork)
 2435              		.loc 6 74 2
 2436              		.cfi_startproc
 2437 0e16 55       		pushq	%rbp
 2438              		.cfi_def_cfa_offset 16
 2439              		.cfi_offset 6, -16
 2440 0e17 4889E5   		movq	%rsp, %rbp
 2441              		.cfi_def_cfa_register 6
 2442 0e1a 53       		pushq	%rbx
 2443 0e1b 4883EC18 		subq	$24, %rsp
 2444              		.cfi_offset 3, -24
 2445 0e1f 48897DE8 		movq	%rdi, -24(%rbp)
 2446              	.LBB33:
 2447              		.loc 6 74 2
 2448 0e23 488B5DE8 		movq	-24(%rbp), %rbx
 2449 0e27 E8DDFFFF 		call	_ZN12_GLOBAL__N_115SuiteTestSuite213UnitTestSuite12GetSuiteNameEv
 2449      FF
 2450 0e2c 4889C2   		movq	%rax, %rdx
 2451 0e2f 41B84A00 		movl	$74, %r8d
 2451      0000
 2452 0e35 488D0500 		leaq	.LC2(%rip), %rax
 2452      000000
 2453 0e3c 4889C1   		movq	%rax, %rcx
 2454 0e3f 488D0500 		leaq	.LC25(%rip), %rax
 2454      000000
 2455 0e46 4889C6   		movq	%rax, %rsi
 2456 0e49 4889DF   		movq	%rbx, %rdi
 2457 0e4c E8000000 		call	_ZN8UnitTest4TestC2EPKcS2_S2_i@PLT
 2457      00
 2458 0e51 488D1500 		leaq	16+_ZTVN12_GLOBAL__N_115SuiteTestSuite244TestSimilarlyNamedTestsInDifferentSuitesWorkE(%rip),
 2458      000000
 2459 0e58 488B45E8 		movq	-24(%rbp), %rax
 2460 0e5c 488910   		movq	%rdx, (%rax)
 2461              	.LBE33:
 2462 0e5f 90       		nop
 2463 0e60 488B5DF8 		movq	-8(%rbp), %rbx
 2464 0e64 C9       		leave
 2465              		.cfi_def_cfa 7, 8
 2466 0e65 C3       		ret
 2467              		.cfi_endproc
 2468              	.LFE1198:
 2470              		.set	_ZN12_GLOBAL__N_115SuiteTestSuite244TestSimilarlyNamedTestsInDifferentSuitesWorkC1Ev,_ZN12_GL
 2471              		.local	_ZN12_GLOBAL__N_115SuiteTestSuite252testSimilarlyNamedTestsInDifferentSuitesWorkInstanceE
 2472              		.comm	_ZN12_GLOBAL__N_115SuiteTestSuite252testSimilarlyNamedTestsInDifferentSuitesWorkInstanceE,56
 2473              		.local	_ZN12_GLOBAL__N_115SuiteTestSuite245adderSimilarlyNamedTestsInDifferentSuitesWorkE
 2474              		.comm	_ZN12_GLOBAL__N_115SuiteTestSuite245adderSimilarlyNamedTestsInDifferentSuitesWorkE,1,1
 2475              		.align 2
 2477              	_ZNK12_GLOBAL__N_115SuiteTestSuite244TestSimilarlyNamedTestsInDifferentSuitesWork7RunImplEv:
 2478              	.LFB1200:
  75:TestTestMacros.cpp **** 	{
 2479              		.loc 6 75 2
 2480              		.cfi_startproc
 2481 0e66 F30F1EFA 		endbr64
 2482 0e6a 55       		pushq	%rbp
 2483              		.cfi_def_cfa_offset 16
 2484              		.cfi_offset 6, -16
 2485 0e6b 4889E5   		movq	%rsp, %rbp
 2486              		.cfi_def_cfa_register 6
 2487 0e6e 48897DF8 		movq	%rdi, -8(%rbp)
  76:TestTestMacros.cpp **** 	}
 2488              		.loc 6 76 2
 2489 0e72 90       		nop
 2490 0e73 5D       		popq	%rbp
 2491              		.cfi_def_cfa 7, 8
 2492 0e74 C3       		ret
 2493              		.cfi_endproc
 2494              	.LFE1200:
 2496 0e75 90       		.align 2
 2498              	_ZN12_GLOBAL__N_115SuiteTestSuite265DummyFixtureSimilarlyNamedFixtureTestsInDifferentSuitesWorkHelp
 2499              	.LFB1202:
  77:TestTestMacros.cpp **** 
  78:TestTestMacros.cpp **** 	TEST_FIXTURE(DummyFixture,SimilarlyNamedFixtureTestsInDifferentSuitesWork)
 2500              		.loc 6 78 2
 2501              		.cfi_startproc
 2502 0e76 55       		pushq	%rbp
 2503              		.cfi_def_cfa_offset 16
 2504              		.cfi_offset 6, -16
 2505 0e77 4889E5   		movq	%rsp, %rbp
 2506              		.cfi_def_cfa_register 6
 2507 0e7a 48897DF8 		movq	%rdi, -8(%rbp)
 2508 0e7e 488975F0 		movq	%rsi, -16(%rbp)
 2509              	.LBB34:
 2510              		.loc 6 78 2
 2511 0e82 488B45F8 		movq	-8(%rbp), %rax
 2512 0e86 488B55F0 		movq	-16(%rbp), %rdx
 2513 0e8a 48895008 		movq	%rdx, 8(%rax)
 2514              	.LBE34:
 2515 0e8e 90       		nop
 2516 0e8f 5D       		popq	%rbp
 2517              		.cfi_def_cfa 7, 8
 2518 0e90 C3       		ret
 2519              		.cfi_endproc
 2520              	.LFE1202:
 2522              		.set	_ZN12_GLOBAL__N_115SuiteTestSuite265DummyFixtureSimilarlyNamedFixtureTestsInDifferentSuitesWo
 2523 0e91 90       		.align 2
 2525              	_ZN12_GLOBAL__N_115SuiteTestSuite263TestDummyFixtureSimilarlyNamedFixtureTestsInDifferentSuitesWork
 2526              	.LFB1205:
 2527              		.loc 6 78 2
 2528              		.cfi_startproc
 2529 0e92 55       		pushq	%rbp
 2530              		.cfi_def_cfa_offset 16
 2531              		.cfi_offset 6, -16
 2532 0e93 4889E5   		movq	%rsp, %rbp
 2533              		.cfi_def_cfa_register 6
 2534 0e96 53       		pushq	%rbx
 2535 0e97 4883EC18 		subq	$24, %rsp
 2536              		.cfi_offset 3, -24
 2537 0e9b 48897DE8 		movq	%rdi, -24(%rbp)
 2538              	.LBB35:
 2539              		.loc 6 78 2
 2540 0e9f 488B5DE8 		movq	-24(%rbp), %rbx
 2541 0ea3 E861FFFF 		call	_ZN12_GLOBAL__N_115SuiteTestSuite213UnitTestSuite12GetSuiteNameEv
 2541      FF
 2542 0ea8 4889C2   		movq	%rax, %rdx
 2543 0eab 41B84E00 		movl	$78, %r8d
 2543      0000
 2544 0eb1 488D0500 		leaq	.LC2(%rip), %rax
 2544      000000
 2545 0eb8 4889C1   		movq	%rax, %rcx
 2546 0ebb 488D0500 		leaq	.LC26(%rip), %rax
 2546      000000
 2547 0ec2 4889C6   		movq	%rax, %rsi
 2548 0ec5 4889DF   		movq	%rbx, %rdi
 2549 0ec8 E8000000 		call	_ZN8UnitTest4TestC2EPKcS2_S2_i@PLT
 2549      00
 2550 0ecd 488D1500 		leaq	16+_ZTVN12_GLOBAL__N_115SuiteTestSuite263TestDummyFixtureSimilarlyNamedFixtureTestsInDifferen
 2550      000000
 2551 0ed4 488B45E8 		movq	-24(%rbp), %rax
 2552 0ed8 488910   		movq	%rdx, (%rax)
 2553              	.LBE35:
 2554 0edb 90       		nop
 2555 0edc 488B5DF8 		movq	-8(%rbp), %rbx
 2556 0ee0 C9       		leave
 2557              		.cfi_def_cfa 7, 8
 2558 0ee1 C3       		ret
 2559              		.cfi_endproc
 2560              	.LFE1205:
 2562              		.set	_ZN12_GLOBAL__N_115SuiteTestSuite263TestDummyFixtureSimilarlyNamedFixtureTestsInDifferentSuit
 2563              		.local	_ZN12_GLOBAL__N_115SuiteTestSuite271testDummyFixtureSimilarlyNamedFixtureTestsInDifferentSu
 2564              		.comm	_ZN12_GLOBAL__N_115SuiteTestSuite271testDummyFixtureSimilarlyNamedFixtureTestsInDifferentSui
 2565              		.local	_ZN12_GLOBAL__N_115SuiteTestSuite264adderDummyFixtureSimilarlyNamedFixtureTestsInDifferentS
 2566              		.comm	_ZN12_GLOBAL__N_115SuiteTestSuite264adderDummyFixtureSimilarlyNamedFixtureTestsInDifferentSu
 2567              		.align 2
 2569              	_ZNK12_GLOBAL__N_115SuiteTestSuite263TestDummyFixtureSimilarlyNamedFixtureTestsInDifferentSuitesWor
 2570              	.LFB1207:
 2571              		.loc 6 78 2
 2572              		.cfi_startproc
 2573              		.cfi_personality 0x9b,DW.ref.__gxx_personality_v0
 2574              		.cfi_lsda 0x1b,.LLSDA1207
 2575 0ee2 F30F1EFA 		endbr64
 2576 0ee6 55       		pushq	%rbp
 2577              		.cfi_def_cfa_offset 16
 2578              		.cfi_offset 6, -16
 2579 0ee7 4889E5   		movq	%rsp, %rbp
 2580              		.cfi_def_cfa_register 6
 2581 0eea 4155     		pushq	%r13
 2582 0eec 4154     		pushq	%r12
 2583 0eee 53       		pushq	%rbx
 2584 0eef 4881ECF8 		subq	$504, %rsp
 2584      010000
 2585              		.cfi_offset 13, -24
 2586              		.cfi_offset 12, -32
 2587              		.cfi_offset 3, -40
 2588 0ef6 4889BDF8 		movq	%rdi, -520(%rbp)
 2588      FDFFFF
 2589              		.loc 6 78 2
 2590 0efd 64488B04 		movq	%fs:40, %rax
 2590      25280000 
 2590      00
 2591 0f06 488945D8 		movq	%rax, -40(%rbp)
 2592 0f0a 31C0     		xorl	%eax, %eax
 2593 0f0c C6850FFE 		movb	$0, -497(%rbp)
 2593      FFFF00
 2594              	.LBB36:
 2595 0f13 488B85F8 		movq	-520(%rbp), %rax
 2595      FDFFFF
 2596 0f1a 488D5008 		leaq	8(%rax), %rdx
 2597 0f1e 488D8520 		leaq	-480(%rbp), %rax
 2597      FEFFFF
 2598 0f25 4889D6   		movq	%rdx, %rsi
 2599 0f28 4889C7   		movq	%rax, %rdi
 2600 0f2b E846FFFF 		call	_ZN12_GLOBAL__N_115SuiteTestSuite265DummyFixtureSimilarlyNamedFixtureTestsInDifferentSuitesWo
 2600      FF
 2601 0f30 C6850FFE 		movb	$1, -497(%rbp)
 2601      FFFF01
 2602 0f37 488B85F8 		movq	-520(%rbp), %rax
 2602      FDFFFF
 2603 0f3e 488D5008 		leaq	8(%rax), %rdx
 2604 0f42 488D8520 		leaq	-480(%rbp), %rax
 2604      FEFFFF
 2605 0f49 4889D6   		movq	%rdx, %rsi
 2606 0f4c 4889C7   		movq	%rax, %rdi
 2607              	.LEHB44:
 2608 0f4f E85B2900 		call	_ZN8UnitTest11ExecuteTestIN12_GLOBAL__N_115SuiteTestSuite265DummyFixtureSimilarlyNamedFixture
 2608      00
 2609              	.LEHE44:
 2610              	.LBE36:
 2611 0f54 E9630200 		jmp	.L115
 2611      00
 2612              	.L128:
 2613 0f59 F30F1EFA 		endbr64
 2614 0f5d 4883FA01 		cmpq	$1, %rdx
 2615 0f61 740F     		je	.L117
 2616 0f63 4883FA02 		cmpq	$2, %rdx
 2617 0f67 0F84A700 		je	.L118
 2617      0000
 2618 0f6d E94D0100 		jmp	.L133
 2618      00
 2619              	.L117:
 2620              	.LBB37:
 2621              		.loc 6 78 2 is_stmt 0 discriminator 1
 2622 0f72 4889C7   		movq	%rax, %rdi
 2623 0f75 E8000000 		call	__cxa_begin_catch@PLT
 2623      00
 2624 0f7a 48898518 		movq	%rax, -488(%rbp)
 2624      FEFFFF
 2625              	.LEHB45:
 2626 0f81 E8000000 		call	_ZN8UnitTest11CurrentTest7ResultsEv@PLT
 2626      00
 2627 0f86 488B18   		movq	(%rax), %rbx
 2628 0f89 488B8518 		movq	-488(%rbp), %rax
 2628      FEFFFF
 2629 0f90 488B00   		movq	(%rax), %rax
 2630 0f93 4883C010 		addq	$16, %rax
 2631 0f97 488B10   		movq	(%rax), %rdx
 2632 0f9a 488B8518 		movq	-488(%rbp), %rax
 2632      FEFFFF
 2633 0fa1 4889C7   		movq	%rax, %rdi
 2634 0fa4 FFD2     		call	*%rdx
 2635              	.LVL4:
 2636 0fa6 4989C4   		movq	%rax, %r12
 2637 0fa9 488B8518 		movq	-488(%rbp), %rax
 2637      FEFFFF
 2638 0fb0 4889C7   		movq	%rax, %rdi
 2639 0fb3 E8000000 		call	_ZNK8UnitTest15AssertException10LineNumberEv@PLT
 2639      00
 2640              		.loc 6 78 2 discriminator 5
 2641 0fb8 4189C5   		movl	%eax, %r13d
 2642 0fbb 488B8518 		movq	-488(%rbp), %rax
 2642      FEFFFF
 2643 0fc2 4889C7   		movq	%rax, %rdi
 2644 0fc5 E8000000 		call	_ZNK8UnitTest15AssertException8FilenameEv@PLT
 2644      00
 2645              		.loc 6 78 2 discriminator 7
 2646 0fca 4889C1   		movq	%rax, %rcx
 2647 0fcd 488B85F8 		movq	-520(%rbp), %rax
 2647      FDFFFF
 2648 0fd4 488B5008 		movq	8(%rax), %rdx
 2649 0fd8 488B85F8 		movq	-520(%rbp), %rax
 2649      FDFFFF
 2650 0fdf 488B7010 		movq	16(%rax), %rsi
 2651 0fe3 488D8520 		leaq	-480(%rbp), %rax
 2651      FEFFFF
 2652 0fea 4589E8   		movl	%r13d, %r8d
 2653 0fed 4889C7   		movq	%rax, %rdi
 2654 0ff0 E8000000 		call	_ZN8UnitTest11TestDetailsC1EPKcS2_S2_i@PLT
 2654      00
 2655              		.loc 6 78 2 discriminator 11
 2656 0ff5 488D8520 		leaq	-480(%rbp), %rax
 2656      FEFFFF
 2657 0ffc 4C89E2   		movq	%r12, %rdx
 2658 0fff 4889C6   		movq	%rax, %rsi
 2659 1002 4889DF   		movq	%rbx, %rdi
 2660 1005 E8000000 		call	_ZN8UnitTest11TestResults13OnTestFailureERKNS_11TestDetailsEPKc@PLT
 2660      00
 2661              	.LEHE45:
 2662              		.loc 6 78 2 discriminator 13
 2663 100a E8000000 		call	__cxa_end_catch@PLT
 2663      00
 2664              	.LBE37:
 2665 100f E9A80100 		jmp	.L115
 2665      00
 2666              	.L118:
 2667              	.LBB38:
 2668              		.loc 6 78 2 discriminator 2
 2669 1014 4889C7   		movq	%rax, %rdi
 2670 1017 E8000000 		call	__cxa_begin_catch@PLT
 2670      00
 2671 101c 48898510 		movq	%rax, -496(%rbp)
 2671      FEFFFF
 2672              	.LBB39:
 2673 1023 488D8540 		leaq	-448(%rbp), %rax
 2673      FEFFFF
 2674 102a 4889C7   		movq	%rax, %rdi
 2675              	.LEHB46:
 2676 102d E8000000 		call	_ZN8UnitTest15MemoryOutStreamC1Ev
 2676      00
 2677              	.LEHE46:
 2678              		.loc 6 78 2 discriminator 15
 2679 1032 488D8540 		leaq	-448(%rbp), %rax
 2679      FEFFFF
 2680 1039 488D1500 		leaq	.LC11(%rip), %rdx
 2680      000000
 2681 1040 4889D6   		movq	%rdx, %rsi
 2682 1043 4889C7   		movq	%rax, %rdi
 2683              	.LEHB47:
 2684 1046 E8000000 		call	_ZStlsISt11char_traitsIcEERSt13basic_ostreamIcT_ES5_PKc@PLT
 2684      00
 2685 104b 4889C3   		movq	%rax, %rbx
 2686 104e 488B8510 		movq	-496(%rbp), %rax
 2686      FEFFFF
 2687 1055 488B00   		movq	(%rax), %rax
 2688 1058 4883C010 		addq	$16, %rax
 2689 105c 488B10   		movq	(%rax), %rdx
 2690 105f 488B8510 		movq	-496(%rbp), %rax
 2690      FEFFFF
 2691 1066 4889C7   		movq	%rax, %rdi
 2692 1069 FFD2     		call	*%rdx
 2693              	.LVL5:
 2694 106b 4889C6   		movq	%rax, %rsi
 2695 106e 4889DF   		movq	%rbx, %rdi
 2696 1071 E8000000 		call	_ZStlsISt11char_traitsIcEERSt13basic_ostreamIcT_ES5_PKc@PLT
 2696      00
 2697              		.loc 6 78 2 discriminator 19
 2698 1076 E8000000 		call	_ZN8UnitTest11CurrentTest7ResultsEv@PLT
 2698      00
 2699 107b 488B18   		movq	(%rax), %rbx
 2700 107e 488D8540 		leaq	-448(%rbp), %rax
 2700      FEFFFF
 2701 1085 4889C7   		movq	%rax, %rdi
 2702 1088 E8000000 		call	_ZNK8UnitTest15MemoryOutStream7GetTextEv@PLT
 2702      00
 2703              		.loc 6 78 2 discriminator 21
 2704 108d 4889C2   		movq	%rax, %rdx
 2705 1090 488B85F8 		movq	-520(%rbp), %rax
 2705      FDFFFF
 2706 1097 4883C008 		addq	$8, %rax
 2707 109b 4889C6   		movq	%rax, %rsi
 2708 109e 4889DF   		movq	%rbx, %rdi
 2709 10a1 E8000000 		call	_ZN8UnitTest11TestResults13OnTestFailureERKNS_11TestDetailsEPKc@PLT
 2709      00
 2710              	.LEHE47:
 2711              		.loc 6 78 2 discriminator 25
 2712 10a6 488D8540 		leaq	-448(%rbp), %rax
 2712      FEFFFF
 2713 10ad 4889C7   		movq	%rax, %rdi
 2714              	.LEHB48:
 2715 10b0 E8000000 		call	_ZN8UnitTest15MemoryOutStreamD1Ev
 2715      00
 2716              	.LEHE48:
 2717              	.LBE39:
 2718              		.loc 6 78 2 discriminator 26
 2719 10b5 E8000000 		call	__cxa_end_catch@PLT
 2719      00
 2720              	.LBE38:
 2721 10ba E9FD0000 		jmp	.L115
 2721      00
 2722              	.L133:
 2723              		.loc 6 78 2 discriminator 3
 2724 10bf 4889C7   		movq	%rax, %rdi
 2725 10c2 E8000000 		call	__cxa_begin_catch@PLT
 2725      00
 2726 10c7 80BD0FFE 		cmpb	$0, -497(%rbp)
 2726      FFFF00
 2727 10ce 7445     		je	.L121
 2728              	.LEHB49:
 2729              		.loc 6 78 2 discriminator 28
 2730 10d0 E8000000 		call	_ZN8UnitTest11CurrentTest7ResultsEv@PLT
 2730      00
 2731 10d5 488B18   		movq	(%rax), %rbx
 2732 10d8 488B85F8 		movq	-520(%rbp), %rax
 2732      FDFFFF
 2733 10df 488D4808 		leaq	8(%rax), %rcx
 2734 10e3 488D8520 		leaq	-480(%rbp), %rax
 2734      FEFFFF
 2735 10ea BA4E0000 		movl	$78, %edx
 2735      00
 2736 10ef 4889CE   		movq	%rcx, %rsi
 2737 10f2 4889C7   		movq	%rax, %rdi
 2738 10f5 E8000000 		call	_ZN8UnitTest11TestDetailsC1ERKS0_i@PLT
 2738      00
 2739              		.loc 6 78 2 discriminator 33
 2740 10fa 488D8520 		leaq	-480(%rbp), %rax
 2740      FEFFFF
 2741 1101 488D1500 		leaq	.LC27(%rip), %rdx
 2741      000000
 2742 1108 4889C6   		movq	%rax, %rsi
 2743 110b 4889DF   		movq	%rbx, %rdi
 2744 110e E8000000 		call	_ZN8UnitTest11TestResults13OnTestFailureERKNS_11TestDetailsEPKc@PLT
 2744      00
 2745 1113 EB43     		jmp	.L122
 2746              	.L121:
 2747              		.loc 6 78 2 discriminator 29
 2748 1115 E8000000 		call	_ZN8UnitTest11CurrentTest7ResultsEv@PLT
 2748      00
 2749 111a 488B18   		movq	(%rax), %rbx
 2750 111d 488B85F8 		movq	-520(%rbp), %rax
 2750      FDFFFF
 2751 1124 488D4808 		leaq	8(%rax), %rcx
 2752 1128 488D8520 		leaq	-480(%rbp), %rax
 2752      FEFFFF
 2753 112f BA4E0000 		movl	$78, %edx
 2753      00
 2754 1134 4889CE   		movq	%rcx, %rsi
 2755 1137 4889C7   		movq	%rax, %rdi
 2756 113a E8000000 		call	_ZN8UnitTest11TestDetailsC1ERKS0_i@PLT
 2756      00
 2757              		.loc 6 78 2 discriminator 40
 2758 113f 488D8520 		leaq	-480(%rbp), %rax
 2758      FEFFFF
 2759 1146 488D1500 		leaq	.LC28(%rip), %rdx
 2759      000000
 2760 114d 4889C6   		movq	%rax, %rsi
 2761 1150 4889DF   		movq	%rbx, %rdi
 2762 1153 E8000000 		call	_ZN8UnitTest11TestResults13OnTestFailureERKNS_11TestDetailsEPKc@PLT
 2762      00
 2763              	.LEHE49:
 2764              	.L122:
 2765              	.LEHB50:
 2766              		.loc 6 78 2 discriminator 43
 2767 1158 E8000000 		call	__cxa_end_catch@PLT
 2767      00
 2768 115d EB5D     		jmp	.L115
 2769              	.L129:
 2770 115f F30F1EFA 		endbr64
 2771              	.LBB41:
 2772              		.loc 6 78 2
 2773 1163 4889C3   		movq	%rax, %rbx
 2774 1166 E8000000 		call	__cxa_end_catch@PLT
 2774      00
 2775 116b 4889D8   		movq	%rbx, %rax
 2776 116e 4889C7   		movq	%rax, %rdi
 2777 1171 E8000000 		call	_Unwind_Resume@PLT
 2777      00
 2778              	.LEHE50:
 2779              	.L131:
 2780 1176 F30F1EFA 		endbr64
 2781              	.LBE41:
 2782              	.LBB42:
 2783              	.LBB40:
 2784 117a 4889C3   		movq	%rax, %rbx
 2785 117d 488D8540 		leaq	-448(%rbp), %rax
 2785      FEFFFF
 2786 1184 4889C7   		movq	%rax, %rdi
 2787 1187 E8000000 		call	_ZN8UnitTest15MemoryOutStreamD1Ev
 2787      00
 2788 118c EB07     		jmp	.L125
 2789              	.L130:
 2790 118e F30F1EFA 		endbr64
 2791              	.LBE40:
 2792 1192 4889C3   		movq	%rax, %rbx
 2793              	.L125:
 2794 1195 E8000000 		call	__cxa_end_catch@PLT
 2794      00
 2795 119a 4889D8   		movq	%rbx, %rax
 2796 119d 4889C7   		movq	%rax, %rdi
 2797              	.LEHB51:
 2798 11a0 E8000000 		call	_Unwind_Resume@PLT
 2798      00
 2799              	.LEHE51:
 2800              	.L132:
 2801 11a5 F30F1EFA 		endbr64
 2802              	.LBE42:
 2803 11a9 4889C3   		movq	%rax, %rbx
 2804 11ac E8000000 		call	__cxa_end_catch@PLT
 2804      00
 2805 11b1 4889D8   		movq	%rbx, %rax
 2806 11b4 4889C7   		movq	%rax, %rdi
 2807              	.LEHB52:
 2808 11b7 E8000000 		call	_Unwind_Resume@PLT
 2808      00
 2809              	.LEHE52:
 2810              	.L115:
 2811 11bc 488B45D8 		movq	-40(%rbp), %rax
 2812 11c0 64482B04 		subq	%fs:40, %rax
 2812      25280000 
 2812      00
 2813 11c9 7405     		je	.L127
 2814 11cb E8000000 		call	__stack_chk_fail@PLT
 2814      00
 2815              	.L127:
 2816 11d0 4881C4F8 		addq	$504, %rsp
 2816      010000
 2817 11d7 5B       		popq	%rbx
 2818 11d8 415C     		popq	%r12
 2819 11da 415D     		popq	%r13
 2820 11dc 5D       		popq	%rbp
 2821              		.cfi_def_cfa 7, 8
 2822 11dd C3       		ret
 2823              		.cfi_endproc
 2824              	.LFE1207:
 2825              		.section	.gcc_except_table
 2826              		.align 4
 2827              	.LLSDA1207:
 2828 012c FF       		.byte	0xff
 2829 012d 9B       		.byte	0x9b
 2830 012e 49       		.uleb128 .LLSDATT1207-.LLSDATTD1207
 2831              	.LLSDATTD1207:
 2832 012f 01       		.byte	0x1
 2833 0130 33       		.uleb128 .LLSDACSE1207-.LLSDACSB1207
 2834              	.LLSDACSB1207:
 2835 0131 6D       		.uleb128 .LEHB44-.LFB1207
 2836 0132 05       		.uleb128 .LEHE44-.LEHB44
 2837 0133 77       		.uleb128 .L128-.LFB1207
 2838 0134 05       		.uleb128 0x5
 2839 0135 9F01     		.uleb128 .LEHB45-.LFB1207
 2840 0137 8901     		.uleb128 .LEHE45-.LEHB45
 2841 0139 FD04     		.uleb128 .L129-.LFB1207
 2842 013b 00       		.uleb128 0
 2843 013c CB02     		.uleb128 .LEHB46-.LFB1207
 2844 013e 05       		.uleb128 .LEHE46-.LEHB46
 2845 013f AC05     		.uleb128 .L130-.LFB1207
 2846 0141 00       		.uleb128 0
 2847 0142 E402     		.uleb128 .LEHB47-.LFB1207
 2848 0144 60       		.uleb128 .LEHE47-.LEHB47
 2849 0145 9405     		.uleb128 .L131-.LFB1207
 2850 0147 00       		.uleb128 0
 2851 0148 CE03     		.uleb128 .LEHB48-.LFB1207
 2852 014a 05       		.uleb128 .LEHE48-.LEHB48
 2853 014b AC05     		.uleb128 .L130-.LFB1207
 2854 014d 00       		.uleb128 0
 2855 014e EE03     		.uleb128 .LEHB49-.LFB1207
 2856 0150 8801     		.uleb128 .LEHE49-.LEHB49
 2857 0152 C305     		.uleb128 .L132-.LFB1207
 2858 0154 00       		.uleb128 0
 2859 0155 F604     		.uleb128 .LEHB50-.LFB1207
 2860 0157 1E       		.uleb128 .LEHE50-.LEHB50
 2861 0158 00       		.uleb128 0
 2862 0159 00       		.uleb128 0
 2863 015a BE05     		.uleb128 .LEHB51-.LFB1207
 2864 015c 05       		.uleb128 .LEHE51-.LEHB51
 2865 015d 00       		.uleb128 0
 2866 015e 00       		.uleb128 0
 2867 015f D505     		.uleb128 .LEHB52-.LFB1207
 2868 0161 05       		.uleb128 .LEHE52-.LEHB52
 2869 0162 00       		.uleb128 0
 2870 0163 00       		.uleb128 0
 2871              	.LLSDACSE1207:
 2872 0164 03       		.byte	0x3
 2873 0165 00       		.byte	0
 2874 0166 02       		.byte	0x2
 2875 0167 7D       		.byte	0x7d
 2876 0168 01       		.byte	0x1
 2877 0169 7D       		.byte	0x7d
 2878 016a 0000     		.align 4
 2879 016c 00000000 		.long	0
 2880              	
 2881 0170 00000000 		.long	DW.ref._ZTISt9exception-.
 2882 0174 00000000 		.long	DW.ref._ZTIN8UnitTest15AssertExceptionE-.
 2883              	.LLSDATT1207:
 2884              		.text
 2886              		.align 2
 2888              	_ZN12_GLOBAL__N_115SuiteTestSuite265DummyFixtureSimilarlyNamedFixtureTestsInDifferentSuitesWorkHelp
 2889              	.LFB1208:
  79:TestTestMacros.cpp **** 	{
 2890              		.loc 6 79 2 is_stmt 1
 2891              		.cfi_startproc
 2892 11de F30F1EFA 		endbr64
 2893 11e2 55       		pushq	%rbp
 2894              		.cfi_def_cfa_offset 16
 2895              		.cfi_offset 6, -16
 2896 11e3 4889E5   		movq	%rsp, %rbp
 2897              		.cfi_def_cfa_register 6
 2898 11e6 48897DF8 		movq	%rdi, -8(%rbp)
  80:TestTestMacros.cpp **** 	}
 2899              		.loc 6 80 2
 2900 11ea 90       		nop
 2901 11eb 5D       		popq	%rbp
 2902              		.cfi_def_cfa 7, 8
 2903 11ec C3       		ret
 2904              		.cfi_endproc
 2905              	.LFE1208:
 2907              		.local	_ZN12_GLOBAL__N_114macroTestList1E
 2908              		.comm	_ZN12_GLOBAL__N_114macroTestList1E,16,16
 2909              		.section	.rodata
 2910              	.LC30:
 2911 047f 4D616372 		.string	"MacroTestHelper1"
 2911      6F546573 
 2911      7448656C 
 2911      70657231 
 2911      00
 2912              		.text
 2913 11ed 90       		.align 2
 2915              	_ZN12_GLOBAL__N_120TestMacroTestHelper1C2Ev:
 2916              	.LFB1210:
  81:TestTestMacros.cpp **** }
  82:TestTestMacros.cpp **** 
  83:TestTestMacros.cpp **** TestList macroTestList1;
  84:TestTestMacros.cpp **** TEST_EX(MacroTestHelper1, macroTestList1)
 2917              		.loc 6 84 1
 2918              		.cfi_startproc
 2919 11ee 55       		pushq	%rbp
 2920              		.cfi_def_cfa_offset 16
 2921              		.cfi_offset 6, -16
 2922 11ef 4889E5   		movq	%rsp, %rbp
 2923              		.cfi_def_cfa_register 6
 2924 11f2 53       		pushq	%rbx
 2925 11f3 4883EC18 		subq	$24, %rsp
 2926              		.cfi_offset 3, -24
 2927 11f7 48897DE8 		movq	%rdi, -24(%rbp)
 2928              	.LBB43:
 2929              		.loc 6 84 1
 2930 11fb 488B5DE8 		movq	-24(%rbp), %rbx
 2931 11ff E8000000 		call	_ZN13UnitTestSuite12GetSuiteNameEv
 2931      00
 2932 1204 4889C2   		movq	%rax, %rdx
 2933 1207 41B85400 		movl	$84, %r8d
 2933      0000
 2934 120d 488D0500 		leaq	.LC2(%rip), %rax
 2934      000000
 2935 1214 4889C1   		movq	%rax, %rcx
 2936 1217 488D0500 		leaq	.LC30(%rip), %rax
 2936      000000
 2937 121e 4889C6   		movq	%rax, %rsi
 2938 1221 4889DF   		movq	%rbx, %rdi
 2939 1224 E8000000 		call	_ZN8UnitTest4TestC2EPKcS2_S2_i@PLT
 2939      00
 2940 1229 488D1500 		leaq	16+_ZTVN12_GLOBAL__N_120TestMacroTestHelper1E(%rip), %rdx
 2940      000000
 2941 1230 488B45E8 		movq	-24(%rbp), %rax
 2942 1234 488910   		movq	%rdx, (%rax)
 2943              	.LBE43:
 2944 1237 90       		nop
 2945 1238 488B5DF8 		movq	-8(%rbp), %rbx
 2946 123c C9       		leave
 2947              		.cfi_def_cfa 7, 8
 2948 123d C3       		ret
 2949              		.cfi_endproc
 2950              	.LFE1210:
 2952              		.set	_ZN12_GLOBAL__N_120TestMacroTestHelper1C1Ev,_ZN12_GLOBAL__N_120TestMacroTestHelper1C2Ev
 2953              		.local	_ZN12_GLOBAL__N_128testMacroTestHelper1InstanceE
 2954              		.comm	_ZN12_GLOBAL__N_128testMacroTestHelper1InstanceE,56,32
 2955              		.local	_ZN12_GLOBAL__N_121adderMacroTestHelper1E
 2956              		.comm	_ZN12_GLOBAL__N_121adderMacroTestHelper1E,1,1
 2957              		.align 2
 2959              	_ZNK12_GLOBAL__N_120TestMacroTestHelper17RunImplEv:
 2960              	.LFB1212:
  85:TestTestMacros.cpp **** {
 2961              		.loc 6 85 1
 2962              		.cfi_startproc
 2963 123e F30F1EFA 		endbr64
 2964 1242 55       		pushq	%rbp
 2965              		.cfi_def_cfa_offset 16
 2966              		.cfi_offset 6, -16
 2967 1243 4889E5   		movq	%rsp, %rbp
 2968              		.cfi_def_cfa_register 6
 2969 1246 48897DF8 		movq	%rdi, -8(%rbp)
  86:TestTestMacros.cpp **** }
 2970              		.loc 6 86 1
 2971 124a 90       		nop
 2972 124b 5D       		popq	%rbp
 2973              		.cfi_def_cfa 7, 8
 2974 124c C3       		ret
 2975              		.cfi_endproc
 2976              	.LFE1212:
 2978              		.section	.rodata
 2979              		.align 8
 2980              	.LC31:
 2981 0490 54657374 		.string	"TestAddedWithTEST_EXMacroGetsDefaultSuite"
 2981      41646465 
 2981      64576974 
 2981      68544553 
 2981      545F4558 
 2982              		.text
 2983 124d 90       		.align 2
 2985              	_ZN12_GLOBAL__N_145TestTestAddedWithTEST_EXMacroGetsDefaultSuiteC2Ev:
 2986              	.LFB1214:
  87:TestTestMacros.cpp **** 
  88:TestTestMacros.cpp **** TEST(TestAddedWithTEST_EXMacroGetsDefaultSuite)
 2987              		.loc 6 88 1
 2988              		.cfi_startproc
 2989 124e 55       		pushq	%rbp
 2990              		.cfi_def_cfa_offset 16
 2991              		.cfi_offset 6, -16
 2992 124f 4889E5   		movq	%rsp, %rbp
 2993              		.cfi_def_cfa_register 6
 2994 1252 53       		pushq	%rbx
 2995 1253 4883EC18 		subq	$24, %rsp
 2996              		.cfi_offset 3, -24
 2997 1257 48897DE8 		movq	%rdi, -24(%rbp)
 2998              	.LBB44:
 2999              		.loc 6 88 1
 3000 125b 488B5DE8 		movq	-24(%rbp), %rbx
 3001 125f E8000000 		call	_ZN13UnitTestSuite12GetSuiteNameEv
 3001      00
 3002 1264 4889C2   		movq	%rax, %rdx
 3003 1267 41B85800 		movl	$88, %r8d
 3003      0000
 3004 126d 488D0500 		leaq	.LC2(%rip), %rax
 3004      000000
 3005 1274 4889C1   		movq	%rax, %rcx
 3006 1277 488D0500 		leaq	.LC31(%rip), %rax
 3006      000000
 3007 127e 4889C6   		movq	%rax, %rsi
 3008 1281 4889DF   		movq	%rbx, %rdi
 3009 1284 E8000000 		call	_ZN8UnitTest4TestC2EPKcS2_S2_i@PLT
 3009      00
 3010 1289 488D1500 		leaq	16+_ZTVN12_GLOBAL__N_145TestTestAddedWithTEST_EXMacroGetsDefaultSuiteE(%rip), %rdx
 3010      000000
 3011 1290 488B45E8 		movq	-24(%rbp), %rax
 3012 1294 488910   		movq	%rdx, (%rax)
 3013              	.LBE44:
 3014 1297 90       		nop
 3015 1298 488B5DF8 		movq	-8(%rbp), %rbx
 3016 129c C9       		leave
 3017              		.cfi_def_cfa 7, 8
 3018 129d C3       		ret
 3019              		.cfi_endproc
 3020              	.LFE1214:
 3022              		.set	_ZN12_GLOBAL__N_145TestTestAddedWithTEST_EXMacroGetsDefaultSuiteC1Ev,_ZN12_GLOBAL__N_145TestT
 3023              		.local	_ZN12_GLOBAL__N_153testTestAddedWithTEST_EXMacroGetsDefaultSuiteInstanceE
 3024              		.comm	_ZN12_GLOBAL__N_153testTestAddedWithTEST_EXMacroGetsDefaultSuiteInstanceE,56,32
 3025              		.local	_ZN12_GLOBAL__N_146adderTestAddedWithTEST_EXMacroGetsDefaultSuiteE
 3026              		.comm	_ZN12_GLOBAL__N_146adderTestAddedWithTEST_EXMacroGetsDefaultSuiteE,1,1
 3027              		.section	.rodata
 3028 04ba 00000000 		.align 8
 3028      0000
 3029              	.LC32:
 3030 04c0 6D616372 		.string	"macroTestList1.GetHead() != NULL"
 3030      6F546573 
 3030      744C6973 
 3030      74312E47 
 3030      65744865 
 3031 04e1 00000000 		.align 8
 3031      000000
 3032              	.LC33:
 3033 04e8 556E6861 		.string	"Unhandled exception in CHECK(macroTestList1.GetHead() != NULL)"
 3033      6E646C65 
 3033      64206578 
 3033      63657074 
 3033      696F6E20 
 3034 0527 00       		.align 8
 3035              	.LC34:
 3036 0528 556E6861 		.string	"Unhandled exception in CHECK_EQUAL(\"MacroTestHelper1\", macroTestList1.GetHead()->m_deta
 3036      6E646C65 
 3036      64206578 
 3036      63657074 
 3036      696F6E20 
 3037 058d 000000   		.align 8
 3038              	.LC35:
 3039 0590 556E6861 		.string	"Unhandled exception in CHECK_EQUAL(\"DefaultSuite\", macroTestList1.GetHead()->m_details.
 3039      6E646C65 
 3039      64206578 
 3039      63657074 
 3039      696F6E20 
 3040              		.text
 3041              		.align 2
 3043              	_ZNK12_GLOBAL__N_145TestTestAddedWithTEST_EXMacroGetsDefaultSuite7RunImplEv:
 3044              	.LFB1216:
  89:TestTestMacros.cpp **** {
 3045              		.loc 6 89 1
 3046              		.cfi_startproc
 3047              		.cfi_personality 0x9b,DW.ref.__gxx_personality_v0
 3048              		.cfi_lsda 0x1b,.LLSDA1216
 3049 129e F30F1EFA 		endbr64
 3050 12a2 55       		pushq	%rbp
 3051              		.cfi_def_cfa_offset 16
 3052              		.cfi_offset 6, -16
 3053 12a3 4889E5   		movq	%rsp, %rbp
 3054              		.cfi_def_cfa_register 6
 3055 12a6 53       		pushq	%rbx
 3056 12a7 4883EC48 		subq	$72, %rsp
 3057              		.cfi_offset 3, -24
 3058 12ab 48897DB8 		movq	%rdi, -72(%rbp)
 3059              		.loc 6 89 1
 3060 12af 64488B04 		movq	%fs:40, %rax
 3060      25280000 
 3060      00
 3061 12b8 488945E8 		movq	%rax, -24(%rbp)
 3062 12bc 31C0     		xorl	%eax, %eax
  90:TestTestMacros.cpp ****     CHECK(macroTestList1.GetHead() != NULL);
 3063              		.loc 6 90 5
 3064 12be 488D0500 		leaq	_ZN12_GLOBAL__N_114macroTestList1E(%rip), %rax
 3064      000000
 3065 12c5 4889C7   		movq	%rax, %rdi
 3066              	.LEHB53:
 3067 12c8 E8000000 		call	_ZNK8UnitTest8TestList7GetHeadEv@PLT
 3067      00
 3068 12cd 4885C0   		testq	%rax, %rax
 3069 12d0 0F95C0   		setne	%al
 3070 12d3 0FB6C0   		movzbl	%al, %eax
 3071 12d6 89C7     		movl	%eax, %edi
 3072 12d8 E8000000 		call	_ZN8UnitTest5CheckIbEEbT_
 3072      00
 3073 12dd 83F001   		xorl	$1, %eax
 3074 12e0 84C0     		testb	%al, %al
 3075 12e2 743A     		je	.L139
 3076              		.loc 6 90 5 is_stmt 0 discriminator 3
 3077 12e4 E8000000 		call	_ZN8UnitTest11CurrentTest7ResultsEv@PLT
 3077      00
 3078 12e9 488B18   		movq	(%rax), %rbx
 3079 12ec E8000000 		call	_ZN8UnitTest11CurrentTest7DetailsEv@PLT
 3079      00
 3080              		.loc 6 90 5 discriminator 5
 3081 12f1 488B08   		movq	(%rax), %rcx
 3082 12f4 488D45C0 		leaq	-64(%rbp), %rax
 3083 12f8 BA5A0000 		movl	$90, %edx
 3083      00
 3084 12fd 4889CE   		movq	%rcx, %rsi
 3085 1300 4889C7   		movq	%rax, %rdi
 3086 1303 E8000000 		call	_ZN8UnitTest11TestDetailsC1ERKS0_i@PLT
 3086      00
 3087              		.loc 6 90 5 discriminator 9
 3088 1308 488D45C0 		leaq	-64(%rbp), %rax
 3089 130c 488D1500 		leaq	.LC32(%rip), %rdx
 3089      000000
 3090 1313 4889C6   		movq	%rax, %rsi
 3091 1316 4889DF   		movq	%rbx, %rdi
 3092 1319 E8000000 		call	_ZN8UnitTest11TestResults13OnTestFailureERKNS_11TestDetailsEPKc@PLT
 3092      00
 3093              	.LEHE53:
 3094              	.L139:
 3095              	.LEHB54:
  91:TestTestMacros.cpp ****     CHECK_EQUAL ("MacroTestHelper1", macroTestList1.GetHead()->m_details.testName);
 3096              		.loc 6 91 5 is_stmt 1
 3097 131e E8000000 		call	_ZN8UnitTest11CurrentTest7DetailsEv@PLT
 3097      00
 3098 1323 488B08   		movq	(%rax), %rcx
 3099 1326 488D45C0 		leaq	-64(%rbp), %rax
 3100 132a BA5B0000 		movl	$91, %edx
 3100      00
 3101 132f 4889CE   		movq	%rcx, %rsi
 3102 1332 4889C7   		movq	%rax, %rdi
 3103 1335 E8000000 		call	_ZN8UnitTest11TestDetailsC1ERKS0_i@PLT
 3103      00
 3104              		.loc 6 91 5 is_stmt 0 discriminator 4
 3105 133a 488D0500 		leaq	_ZN12_GLOBAL__N_114macroTestList1E(%rip), %rax
 3105      000000
 3106 1341 4889C7   		movq	%rax, %rdi
 3107 1344 E8000000 		call	_ZNK8UnitTest8TestList7GetHeadEv@PLT
 3107      00
 3108 1349 488B5810 		movq	16(%rax), %rbx
 3109 134d E8000000 		call	_ZN8UnitTest11CurrentTest7ResultsEv@PLT
 3109      00
 3110              		.loc 6 91 5 discriminator 6
 3111 1352 488B00   		movq	(%rax), %rax
 3112 1355 488D55C0 		leaq	-64(%rbp), %rdx
 3113 1359 4889D1   		movq	%rdx, %rcx
 3114 135c 4889DA   		movq	%rbx, %rdx
 3115 135f 488D3500 		leaq	.LC30(%rip), %rsi
 3115      000000
 3116 1366 4889C7   		movq	%rax, %rdi
 3117 1369 E8000000 		call	_ZN8UnitTest10CheckEqualERNS_11TestResultsEPKcS3_RKNS_11TestDetailsE@PLT
 3117      00
 3118              	.LEHE54:
 3119              	.L143:
 3120              	.LEHB55:
  92:TestTestMacros.cpp ****     CHECK_EQUAL ("DefaultSuite", macroTestList1.GetHead()->m_details.suiteName);
 3121              		.loc 6 92 5 is_stmt 1
 3122 136e E8000000 		call	_ZN8UnitTest11CurrentTest7DetailsEv@PLT
 3122      00
 3123 1373 488B08   		movq	(%rax), %rcx
 3124 1376 488D45C0 		leaq	-64(%rbp), %rax
 3125 137a BA5C0000 		movl	$92, %edx
 3125      00
 3126 137f 4889CE   		movq	%rcx, %rsi
 3127 1382 4889C7   		movq	%rax, %rdi
 3128 1385 E8000000 		call	_ZN8UnitTest11TestDetailsC1ERKS0_i@PLT
 3128      00
 3129              		.loc 6 92 5 is_stmt 0 discriminator 4
 3130 138a 488D0500 		leaq	_ZN12_GLOBAL__N_114macroTestList1E(%rip), %rax
 3130      000000
 3131 1391 4889C7   		movq	%rax, %rdi
 3132 1394 E8000000 		call	_ZNK8UnitTest8TestList7GetHeadEv@PLT
 3132      00
 3133 1399 488B5808 		movq	8(%rax), %rbx
 3134 139d E8000000 		call	_ZN8UnitTest11CurrentTest7ResultsEv@PLT
 3134      00
 3135              		.loc 6 92 5 discriminator 6
 3136 13a2 488B00   		movq	(%rax), %rax
 3137 13a5 488D55C0 		leaq	-64(%rbp), %rdx
 3138 13a9 4889D1   		movq	%rdx, %rcx
 3139 13ac 4889DA   		movq	%rbx, %rdx
 3140 13af 488D3500 		leaq	.LC0(%rip), %rsi
 3140      000000
 3141 13b6 4889C7   		movq	%rax, %rdi
 3142 13b9 E8000000 		call	_ZN8UnitTest10CheckEqualERNS_11TestResultsEPKcS3_RKNS_11TestDetailsE@PLT
 3142      00
 3143              	.LEHE55:
  93:TestTestMacros.cpp **** }
 3144              		.loc 6 93 1 is_stmt 1
 3145 13be E9320100 		jmp	.L138
 3145      00
 3146              	.L149:
 3147 13c3 F30F1EFA 		endbr64
  90:TestTestMacros.cpp ****     CHECK_EQUAL ("MacroTestHelper1", macroTestList1.GetHead()->m_details.testName);
 3148              		.loc 6 90 5
 3149 13c7 4889C7   		movq	%rax, %rdi
 3150 13ca E8000000 		call	__cxa_begin_catch@PLT
 3150      00
 3151              	.LEHB56:
 3152 13cf E8000000 		call	_ZN8UnitTest11CurrentTest7ResultsEv@PLT
 3152      00
  90:TestTestMacros.cpp ****     CHECK_EQUAL ("MacroTestHelper1", macroTestList1.GetHead()->m_details.testName);
 3153              		.loc 6 90 5 is_stmt 0 discriminator 8
 3154 13d4 488B18   		movq	(%rax), %rbx
 3155 13d7 E8000000 		call	_ZN8UnitTest11CurrentTest7DetailsEv@PLT
 3155      00
  90:TestTestMacros.cpp ****     CHECK_EQUAL ("MacroTestHelper1", macroTestList1.GetHead()->m_details.testName);
 3156              		.loc 6 90 5 discriminator 14
 3157 13dc 488B08   		movq	(%rax), %rcx
 3158 13df 488D45C0 		leaq	-64(%rbp), %rax
 3159 13e3 BA5A0000 		movl	$90, %edx
 3159      00
 3160 13e8 4889CE   		movq	%rcx, %rsi
 3161 13eb 4889C7   		movq	%rax, %rdi
 3162 13ee E8000000 		call	_ZN8UnitTest11TestDetailsC1ERKS0_i@PLT
 3162      00
  90:TestTestMacros.cpp ****     CHECK_EQUAL ("MacroTestHelper1", macroTestList1.GetHead()->m_details.testName);
 3163              		.loc 6 90 5 discriminator 18
 3164 13f3 488D45C0 		leaq	-64(%rbp), %rax
 3165 13f7 488D1500 		leaq	.LC33(%rip), %rdx
 3165      000000
 3166 13fe 4889C6   		movq	%rax, %rsi
 3167 1401 4889DF   		movq	%rbx, %rdi
 3168 1404 E8000000 		call	_ZN8UnitTest11TestResults13OnTestFailureERKNS_11TestDetailsEPKc@PLT
 3168      00
 3169              	.LEHE56:
 3170              	.LEHB57:
  90:TestTestMacros.cpp ****     CHECK_EQUAL ("MacroTestHelper1", macroTestList1.GetHead()->m_details.testName);
 3171              		.loc 6 90 5 discriminator 20
 3172 1409 E8000000 		call	__cxa_end_catch@PLT
 3172      00
 3173              	.LEHE57:
 3174 140e E90BFFFF 		jmp	.L139
 3174      FF
 3175              	.L150:
 3176 1413 F30F1EFA 		endbr64
  90:TestTestMacros.cpp ****     CHECK_EQUAL ("MacroTestHelper1", macroTestList1.GetHead()->m_details.testName);
 3177              		.loc 6 90 5
 3178 1417 4889C3   		movq	%rax, %rbx
 3179 141a E8000000 		call	__cxa_end_catch@PLT
 3179      00
 3180 141f 4889D8   		movq	%rbx, %rax
 3181 1422 4889C7   		movq	%rax, %rdi
 3182              	.LEHB58:
 3183 1425 E8000000 		call	_Unwind_Resume@PLT
 3183      00
 3184              	.LEHE58:
 3185              	.L151:
 3186 142a F30F1EFA 		endbr64
  91:TestTestMacros.cpp ****     CHECK_EQUAL ("DefaultSuite", macroTestList1.GetHead()->m_details.suiteName);
 3187              		.loc 6 91 5 is_stmt 1
 3188 142e 4889C7   		movq	%rax, %rdi
 3189 1431 E8000000 		call	__cxa_begin_catch@PLT
 3189      00
 3190              	.LEHB59:
 3191 1436 E8000000 		call	_ZN8UnitTest11CurrentTest7ResultsEv@PLT
 3191      00
  91:TestTestMacros.cpp ****     CHECK_EQUAL ("DefaultSuite", macroTestList1.GetHead()->m_details.suiteName);
 3192              		.loc 6 91 5 is_stmt 0 discriminator 3
 3193 143b 488B18   		movq	(%rax), %rbx
 3194 143e E8000000 		call	_ZN8UnitTest11CurrentTest7DetailsEv@PLT
 3194      00
  91:TestTestMacros.cpp ****     CHECK_EQUAL ("DefaultSuite", macroTestList1.GetHead()->m_details.suiteName);
 3195              		.loc 6 91 5 discriminator 13
 3196 1443 488B08   		movq	(%rax), %rcx
 3197 1446 488D45C0 		leaq	-64(%rbp), %rax
 3198 144a BA5B0000 		movl	$91, %edx
 3198      00
 3199 144f 4889CE   		movq	%rcx, %rsi
 3200 1452 4889C7   		movq	%rax, %rdi
 3201 1455 E8000000 		call	_ZN8UnitTest11TestDetailsC1ERKS0_i@PLT
 3201      00
  91:TestTestMacros.cpp ****     CHECK_EQUAL ("DefaultSuite", macroTestList1.GetHead()->m_details.suiteName);
 3202              		.loc 6 91 5 discriminator 17
 3203 145a 488D45C0 		leaq	-64(%rbp), %rax
 3204 145e 488D1500 		leaq	.LC34(%rip), %rdx
 3204      000000
 3205 1465 4889C6   		movq	%rax, %rsi
 3206 1468 4889DF   		movq	%rbx, %rdi
 3207 146b E8000000 		call	_ZN8UnitTest11TestResults13OnTestFailureERKNS_11TestDetailsEPKc@PLT
 3207      00
 3208              	.LEHE59:
 3209              	.LEHB60:
  91:TestTestMacros.cpp ****     CHECK_EQUAL ("DefaultSuite", macroTestList1.GetHead()->m_details.suiteName);
 3210              		.loc 6 91 5 discriminator 19
 3211 1470 E8000000 		call	__cxa_end_catch@PLT
 3211      00
 3212              	.LEHE60:
 3213 1475 E9F4FEFF 		jmp	.L143
 3213      FF
 3214              	.L152:
 3215 147a F30F1EFA 		endbr64
  91:TestTestMacros.cpp ****     CHECK_EQUAL ("DefaultSuite", macroTestList1.GetHead()->m_details.suiteName);
 3216              		.loc 6 91 5
 3217 147e 4889C3   		movq	%rax, %rbx
 3218 1481 E8000000 		call	__cxa_end_catch@PLT
 3218      00
 3219 1486 4889D8   		movq	%rbx, %rax
 3220 1489 4889C7   		movq	%rax, %rdi
 3221              	.LEHB61:
 3222 148c E8000000 		call	_Unwind_Resume@PLT
 3222      00
 3223              	.LEHE61:
 3224              	.L153:
 3225 1491 F30F1EFA 		endbr64
  92:TestTestMacros.cpp **** }
 3226              		.loc 6 92 5 is_stmt 1
 3227 1495 4889C7   		movq	%rax, %rdi
 3228 1498 E8000000 		call	__cxa_begin_catch@PLT
 3228      00
 3229              	.LEHB62:
 3230 149d E8000000 		call	_ZN8UnitTest11CurrentTest7ResultsEv@PLT
 3230      00
  92:TestTestMacros.cpp **** }
 3231              		.loc 6 92 5 is_stmt 0 discriminator 3
 3232 14a2 488B18   		movq	(%rax), %rbx
 3233 14a5 E8000000 		call	_ZN8UnitTest11CurrentTest7DetailsEv@PLT
 3233      00
  92:TestTestMacros.cpp **** }
 3234              		.loc 6 92 5 discriminator 13
 3235 14aa 488B08   		movq	(%rax), %rcx
 3236 14ad 488D45C0 		leaq	-64(%rbp), %rax
 3237 14b1 BA5C0000 		movl	$92, %edx
 3237      00
 3238 14b6 4889CE   		movq	%rcx, %rsi
 3239 14b9 4889C7   		movq	%rax, %rdi
 3240 14bc E8000000 		call	_ZN8UnitTest11TestDetailsC1ERKS0_i@PLT
 3240      00
  92:TestTestMacros.cpp **** }
 3241              		.loc 6 92 5 discriminator 17
 3242 14c1 488D45C0 		leaq	-64(%rbp), %rax
 3243 14c5 488D1500 		leaq	.LC35(%rip), %rdx
 3243      000000
 3244 14cc 4889C6   		movq	%rax, %rsi
 3245 14cf 4889DF   		movq	%rbx, %rdi
 3246 14d2 E8000000 		call	_ZN8UnitTest11TestResults13OnTestFailureERKNS_11TestDetailsEPKc@PLT
 3246      00
 3247              	.LEHE62:
 3248              	.LEHB63:
  92:TestTestMacros.cpp **** }
 3249              		.loc 6 92 5 discriminator 19
 3250 14d7 E8000000 		call	__cxa_end_catch@PLT
 3250      00
 3251              	.LEHE63:
 3252              		.loc 6 93 1 is_stmt 1 discriminator 19
 3253 14dc EB17     		jmp	.L138
 3254              	.L154:
 3255 14de F30F1EFA 		endbr64
  92:TestTestMacros.cpp **** }
 3256              		.loc 6 92 5
 3257 14e2 4889C3   		movq	%rax, %rbx
 3258 14e5 E8000000 		call	__cxa_end_catch@PLT
 3258      00
 3259 14ea 4889D8   		movq	%rbx, %rax
 3260 14ed 4889C7   		movq	%rax, %rdi
 3261              	.LEHB64:
 3262 14f0 E8000000 		call	_Unwind_Resume@PLT
 3262      00
 3263              	.LEHE64:
 3264              	.L138:
 3265              		.loc 6 93 1
 3266 14f5 488B45E8 		movq	-24(%rbp), %rax
 3267 14f9 64482B04 		subq	%fs:40, %rax
 3267      25280000 
 3267      00
 3268 1502 7405     		je	.L148
 3269 1504 E8000000 		call	__stack_chk_fail@PLT
 3269      00
 3270              	.L148:
 3271 1509 488B5DF8 		movq	-8(%rbp), %rbx
 3272 150d C9       		leave
 3273              		.cfi_def_cfa 7, 8
 3274 150e C3       		ret
 3275              		.cfi_endproc
 3276              	.LFE1216:
 3277              		.section	.gcc_except_table
 3278              		.align 4
 3279              	.LLSDA1216:
 3280 0178 FF       		.byte	0xff
 3281 0179 9B       		.byte	0x9b
 3282 017a 49       		.uleb128 .LLSDATT1216-.LLSDATTD1216
 3283              	.LLSDATTD1216:
 3284 017b 01       		.byte	0x1
 3285 017c 41       		.uleb128 .LLSDACSE1216-.LLSDACSB1216
 3286              	.LLSDACSB1216:
 3287 017d 2A       		.uleb128 .LEHB53-.LFB1216
 3288 017e 56       		.uleb128 .LEHE53-.LEHB53
 3289 017f A502     		.uleb128 .L149-.LFB1216
 3290 0181 01       		.uleb128 0x1
 3291 0182 8001     		.uleb128 .LEHB54-.LFB1216
 3292 0184 50       		.uleb128 .LEHE54-.LEHB54
 3293 0185 8C03     		.uleb128 .L151-.LFB1216
 3294 0187 01       		.uleb128 0x1
 3295 0188 D001     		.uleb128 .LEHB55-.LFB1216
 3296 018a 50       		.uleb128 .LEHE55-.LEHB55
 3297 018b F303     		.uleb128 .L153-.LFB1216
 3298 018d 01       		.uleb128 0x1
 3299 018e B102     		.uleb128 .LEHB56-.LFB1216
 3300 0190 3A       		.uleb128 .LEHE56-.LEHB56
 3301 0191 F502     		.uleb128 .L150-.LFB1216
 3302 0193 00       		.uleb128 0
 3303 0194 EB02     		.uleb128 .LEHB57-.LFB1216
 3304 0196 05       		.uleb128 .LEHE57-.LEHB57
 3305 0197 00       		.uleb128 0
 3306 0198 00       		.uleb128 0
 3307 0199 8703     		.uleb128 .LEHB58-.LFB1216
 3308 019b 05       		.uleb128 .LEHE58-.LEHB58
 3309 019c 00       		.uleb128 0
 3310 019d 00       		.uleb128 0
 3311 019e 9803     		.uleb128 .LEHB59-.LFB1216
 3312 01a0 3A       		.uleb128 .LEHE59-.LEHB59
 3313 01a1 DC03     		.uleb128 .L152-.LFB1216
 3314 01a3 00       		.uleb128 0
 3315 01a4 D203     		.uleb128 .LEHB60-.LFB1216
 3316 01a6 05       		.uleb128 .LEHE60-.LEHB60
 3317 01a7 00       		.uleb128 0
 3318 01a8 00       		.uleb128 0
 3319 01a9 EE03     		.uleb128 .LEHB61-.LFB1216
 3320 01ab 05       		.uleb128 .LEHE61-.LEHB61
 3321 01ac 00       		.uleb128 0
 3322 01ad 00       		.uleb128 0
 3323 01ae FF03     		.uleb128 .LEHB62-.LFB1216
 3324 01b0 3A       		.uleb128 .LEHE62-.LEHB62
 3325 01b1 C004     		.uleb128 .L154-.LFB1216
 3326 01b3 00       		.uleb128 0
 3327 01b4 B904     		.uleb128 .LEHB63-.LFB1216
 3328 01b6 05       		.uleb128 .LEHE63-.LEHB63
 3329 01b7 00       		.uleb128 0
 3330 01b8 00       		.uleb128 0
 3331 01b9 D204     		.uleb128 .LEHB64-.LFB1216
 3332 01bb 05       		.uleb128 .LEHE64-.LEHB64
 3333 01bc 00       		.uleb128 0
 3334 01bd 00       		.uleb128 0
 3335              	.LLSDACSE1216:
 3336 01be 01       		.byte	0x1
 3337 01bf 00       		.byte	0
 3338              		.align 4
 3339 01c0 00000000 		.long	0
 3340              	
 3341              	.LLSDATT1216:
 3342              		.text
 3344              		.local	_ZN12_GLOBAL__N_114macroTestList2E
 3345              		.comm	_ZN12_GLOBAL__N_114macroTestList2E,16,16
 3346 150f 90       		.align 2
 3348              	_ZN12_GLOBAL__N_134DummyFixtureMacroTestHelper2HelperC2ERKN8UnitTest11TestDetailsE:
 3349              	.LFB1218:
  94:TestTestMacros.cpp **** 
  95:TestTestMacros.cpp **** TestList macroTestList2;
  96:TestTestMacros.cpp **** TEST_FIXTURE_EX(DummyFixture, MacroTestHelper2, macroTestList2)
 3350              		.loc 6 96 1
 3351              		.cfi_startproc
 3352 1510 55       		pushq	%rbp
 3353              		.cfi_def_cfa_offset 16
 3354              		.cfi_offset 6, -16
 3355 1511 4889E5   		movq	%rsp, %rbp
 3356              		.cfi_def_cfa_register 6
 3357 1514 48897DF8 		movq	%rdi, -8(%rbp)
 3358 1518 488975F0 		movq	%rsi, -16(%rbp)
 3359              	.LBB45:
 3360              		.loc 6 96 1
 3361 151c 488B45F8 		movq	-8(%rbp), %rax
 3362 1520 488B55F0 		movq	-16(%rbp), %rdx
 3363 1524 48895008 		movq	%rdx, 8(%rax)
 3364              	.LBE45:
 3365 1528 90       		nop
 3366 1529 5D       		popq	%rbp
 3367              		.cfi_def_cfa 7, 8
 3368 152a C3       		ret
 3369              		.cfi_endproc
 3370              	.LFE1218:
 3372              		.set	_ZN12_GLOBAL__N_134DummyFixtureMacroTestHelper2HelperC1ERKN8UnitTest11TestDetailsE,_ZN12_GLOB
 3373              		.section	.rodata
 3374              	.LC36:
 3375 05f2 4D616372 		.string	"MacroTestHelper2"
 3375      6F546573 
 3375      7448656C 
 3375      70657232 
 3375      00
 3376              		.text
 3377 152b 90       		.align 2
 3379              	_ZN12_GLOBAL__N_132TestDummyFixtureMacroTestHelper2C2Ev:
 3380              	.LFB1221:
 3381              		.loc 6 96 1
 3382              		.cfi_startproc
 3383 152c 55       		pushq	%rbp
 3384              		.cfi_def_cfa_offset 16
 3385              		.cfi_offset 6, -16
 3386 152d 4889E5   		movq	%rsp, %rbp
 3387              		.cfi_def_cfa_register 6
 3388 1530 53       		pushq	%rbx
 3389 1531 4883EC18 		subq	$24, %rsp
 3390              		.cfi_offset 3, -24
 3391 1535 48897DE8 		movq	%rdi, -24(%rbp)
 3392              	.LBB46:
 3393              		.loc 6 96 1
 3394 1539 488B5DE8 		movq	-24(%rbp), %rbx
 3395 153d E8000000 		call	_ZN13UnitTestSuite12GetSuiteNameEv
 3395      00
 3396 1542 4889C2   		movq	%rax, %rdx
 3397 1545 41B86000 		movl	$96, %r8d
 3397      0000
 3398 154b 488D0500 		leaq	.LC2(%rip), %rax
 3398      000000
 3399 1552 4889C1   		movq	%rax, %rcx
 3400 1555 488D0500 		leaq	.LC36(%rip), %rax
 3400      000000
 3401 155c 4889C6   		movq	%rax, %rsi
 3402 155f 4889DF   		movq	%rbx, %rdi
 3403 1562 E8000000 		call	_ZN8UnitTest4TestC2EPKcS2_S2_i@PLT
 3403      00
 3404 1567 488D1500 		leaq	16+_ZTVN12_GLOBAL__N_132TestDummyFixtureMacroTestHelper2E(%rip), %rdx
 3404      000000
 3405 156e 488B45E8 		movq	-24(%rbp), %rax
 3406 1572 488910   		movq	%rdx, (%rax)
 3407              	.LBE46:
 3408 1575 90       		nop
 3409 1576 488B5DF8 		movq	-8(%rbp), %rbx
 3410 157a C9       		leave
 3411              		.cfi_def_cfa 7, 8
 3412 157b C3       		ret
 3413              		.cfi_endproc
 3414              	.LFE1221:
 3416              		.set	_ZN12_GLOBAL__N_132TestDummyFixtureMacroTestHelper2C1Ev,_ZN12_GLOBAL__N_132TestDummyFixtureMa
 3417              		.local	_ZN12_GLOBAL__N_140testDummyFixtureMacroTestHelper2InstanceE
 3418              		.comm	_ZN12_GLOBAL__N_140testDummyFixtureMacroTestHelper2InstanceE,56,32
 3419              		.local	_ZN12_GLOBAL__N_133adderDummyFixtureMacroTestHelper2E
 3420              		.comm	_ZN12_GLOBAL__N_133adderDummyFixtureMacroTestHelper2E,1,1
 3421              		.align 2
 3423              	_ZNK12_GLOBAL__N_132TestDummyFixtureMacroTestHelper27RunImplEv:
 3424              	.LFB1223:
 3425              		.loc 6 96 1
 3426              		.cfi_startproc
 3427              		.cfi_personality 0x9b,DW.ref.__gxx_personality_v0
 3428              		.cfi_lsda 0x1b,.LLSDA1223
 3429 157c F30F1EFA 		endbr64
 3430 1580 55       		pushq	%rbp
 3431              		.cfi_def_cfa_offset 16
 3432              		.cfi_offset 6, -16
 3433 1581 4889E5   		movq	%rsp, %rbp
 3434              		.cfi_def_cfa_register 6
 3435 1584 4155     		pushq	%r13
 3436 1586 4154     		pushq	%r12
 3437 1588 53       		pushq	%rbx
 3438 1589 4881ECF8 		subq	$504, %rsp
 3438      010000
 3439              		.cfi_offset 13, -24
 3440              		.cfi_offset 12, -32
 3441              		.cfi_offset 3, -40
 3442 1590 4889BDF8 		movq	%rdi, -520(%rbp)
 3442      FDFFFF
 3443              		.loc 6 96 1
 3444 1597 64488B04 		movq	%fs:40, %rax
 3444      25280000 
 3444      00
 3445 15a0 488945D8 		movq	%rax, -40(%rbp)
 3446 15a4 31C0     		xorl	%eax, %eax
 3447 15a6 C6850FFE 		movb	$0, -497(%rbp)
 3447      FFFF00
 3448              	.LBB47:
 3449 15ad 488B85F8 		movq	-520(%rbp), %rax
 3449      FDFFFF
 3450 15b4 488D5008 		leaq	8(%rax), %rdx
 3451 15b8 488D8520 		leaq	-480(%rbp), %rax
 3451      FEFFFF
 3452 15bf 4889D6   		movq	%rdx, %rsi
 3453 15c2 4889C7   		movq	%rax, %rdi
 3454 15c5 E846FFFF 		call	_ZN12_GLOBAL__N_134DummyFixtureMacroTestHelper2HelperC1ERKN8UnitTest11TestDetailsE
 3454      FF
 3455 15ca C6850FFE 		movb	$1, -497(%rbp)
 3455      FFFF01
 3456 15d1 488B85F8 		movq	-520(%rbp), %rax
 3456      FDFFFF
 3457 15d8 488D5008 		leaq	8(%rax), %rdx
 3458 15dc 488D8520 		leaq	-480(%rbp), %rax
 3458      FEFFFF
 3459 15e3 4889D6   		movq	%rdx, %rsi
 3460 15e6 4889C7   		movq	%rax, %rdi
 3461              	.LEHB65:
 3462 15e9 E8B02500 		call	_ZN8UnitTest11ExecuteTestIN12_GLOBAL__N_134DummyFixtureMacroTestHelper2HelperEEEvRT_RKNS_11Te
 3462      00
 3463              	.LEHE65:
 3464              	.LBE47:
 3465 15ee E9630200 		jmp	.L157
 3465      00
 3466              	.L170:
 3467 15f3 F30F1EFA 		endbr64
 3468 15f7 4883FA01 		cmpq	$1, %rdx
 3469 15fb 740F     		je	.L159
 3470 15fd 4883FA02 		cmpq	$2, %rdx
 3471 1601 0F84A700 		je	.L160
 3471      0000
 3472 1607 E94D0100 		jmp	.L175
 3472      00
 3473              	.L159:
 3474              	.LBB48:
 3475              		.loc 6 96 1 is_stmt 0 discriminator 1
 3476 160c 4889C7   		movq	%rax, %rdi
 3477 160f E8000000 		call	__cxa_begin_catch@PLT
 3477      00
 3478 1614 48898518 		movq	%rax, -488(%rbp)
 3478      FEFFFF
 3479              	.LEHB66:
 3480 161b E8000000 		call	_ZN8UnitTest11CurrentTest7ResultsEv@PLT
 3480      00
 3481 1620 488B18   		movq	(%rax), %rbx
 3482 1623 488B8518 		movq	-488(%rbp), %rax
 3482      FEFFFF
 3483 162a 488B00   		movq	(%rax), %rax
 3484 162d 4883C010 		addq	$16, %rax
 3485 1631 488B10   		movq	(%rax), %rdx
 3486 1634 488B8518 		movq	-488(%rbp), %rax
 3486      FEFFFF
 3487 163b 4889C7   		movq	%rax, %rdi
 3488 163e FFD2     		call	*%rdx
 3489              	.LVL6:
 3490 1640 4989C4   		movq	%rax, %r12
 3491 1643 488B8518 		movq	-488(%rbp), %rax
 3491      FEFFFF
 3492 164a 4889C7   		movq	%rax, %rdi
 3493 164d E8000000 		call	_ZNK8UnitTest15AssertException10LineNumberEv@PLT
 3493      00
 3494              		.loc 6 96 1 discriminator 5
 3495 1652 4189C5   		movl	%eax, %r13d
 3496 1655 488B8518 		movq	-488(%rbp), %rax
 3496      FEFFFF
 3497 165c 4889C7   		movq	%rax, %rdi
 3498 165f E8000000 		call	_ZNK8UnitTest15AssertException8FilenameEv@PLT
 3498      00
 3499              		.loc 6 96 1 discriminator 7
 3500 1664 4889C1   		movq	%rax, %rcx
 3501 1667 488B85F8 		movq	-520(%rbp), %rax
 3501      FDFFFF
 3502 166e 488B5008 		movq	8(%rax), %rdx
 3503 1672 488B85F8 		movq	-520(%rbp), %rax
 3503      FDFFFF
 3504 1679 488B7010 		movq	16(%rax), %rsi
 3505 167d 488D8520 		leaq	-480(%rbp), %rax
 3505      FEFFFF
 3506 1684 4589E8   		movl	%r13d, %r8d
 3507 1687 4889C7   		movq	%rax, %rdi
 3508 168a E8000000 		call	_ZN8UnitTest11TestDetailsC1EPKcS2_S2_i@PLT
 3508      00
 3509              		.loc 6 96 1 discriminator 11
 3510 168f 488D8520 		leaq	-480(%rbp), %rax
 3510      FEFFFF
 3511 1696 4C89E2   		movq	%r12, %rdx
 3512 1699 4889C6   		movq	%rax, %rsi
 3513 169c 4889DF   		movq	%rbx, %rdi
 3514 169f E8000000 		call	_ZN8UnitTest11TestResults13OnTestFailureERKNS_11TestDetailsEPKc@PLT
 3514      00
 3515              	.LEHE66:
 3516              		.loc 6 96 1 discriminator 13
 3517 16a4 E8000000 		call	__cxa_end_catch@PLT
 3517      00
 3518              	.LBE48:
 3519 16a9 E9A80100 		jmp	.L157
 3519      00
 3520              	.L160:
 3521              	.LBB49:
 3522              		.loc 6 96 1 discriminator 2
 3523 16ae 4889C7   		movq	%rax, %rdi
 3524 16b1 E8000000 		call	__cxa_begin_catch@PLT
 3524      00
 3525 16b6 48898510 		movq	%rax, -496(%rbp)
 3525      FEFFFF
 3526              	.LBB50:
 3527 16bd 488D8540 		leaq	-448(%rbp), %rax
 3527      FEFFFF
 3528 16c4 4889C7   		movq	%rax, %rdi
 3529              	.LEHB67:
 3530 16c7 E8000000 		call	_ZN8UnitTest15MemoryOutStreamC1Ev
 3530      00
 3531              	.LEHE67:
 3532              		.loc 6 96 1 discriminator 15
 3533 16cc 488D8540 		leaq	-448(%rbp), %rax
 3533      FEFFFF
 3534 16d3 488D1500 		leaq	.LC11(%rip), %rdx
 3534      000000
 3535 16da 4889D6   		movq	%rdx, %rsi
 3536 16dd 4889C7   		movq	%rax, %rdi
 3537              	.LEHB68:
 3538 16e0 E8000000 		call	_ZStlsISt11char_traitsIcEERSt13basic_ostreamIcT_ES5_PKc@PLT
 3538      00
 3539 16e5 4889C3   		movq	%rax, %rbx
 3540 16e8 488B8510 		movq	-496(%rbp), %rax
 3540      FEFFFF
 3541 16ef 488B00   		movq	(%rax), %rax
 3542 16f2 4883C010 		addq	$16, %rax
 3543 16f6 488B10   		movq	(%rax), %rdx
 3544 16f9 488B8510 		movq	-496(%rbp), %rax
 3544      FEFFFF
 3545 1700 4889C7   		movq	%rax, %rdi
 3546 1703 FFD2     		call	*%rdx
 3547              	.LVL7:
 3548 1705 4889C6   		movq	%rax, %rsi
 3549 1708 4889DF   		movq	%rbx, %rdi
 3550 170b E8000000 		call	_ZStlsISt11char_traitsIcEERSt13basic_ostreamIcT_ES5_PKc@PLT
 3550      00
 3551              		.loc 6 96 1 discriminator 19
 3552 1710 E8000000 		call	_ZN8UnitTest11CurrentTest7ResultsEv@PLT
 3552      00
 3553 1715 488B18   		movq	(%rax), %rbx
 3554 1718 488D8540 		leaq	-448(%rbp), %rax
 3554      FEFFFF
 3555 171f 4889C7   		movq	%rax, %rdi
 3556 1722 E8000000 		call	_ZNK8UnitTest15MemoryOutStream7GetTextEv@PLT
 3556      00
 3557              		.loc 6 96 1 discriminator 21
 3558 1727 4889C2   		movq	%rax, %rdx
 3559 172a 488B85F8 		movq	-520(%rbp), %rax
 3559      FDFFFF
 3560 1731 4883C008 		addq	$8, %rax
 3561 1735 4889C6   		movq	%rax, %rsi
 3562 1738 4889DF   		movq	%rbx, %rdi
 3563 173b E8000000 		call	_ZN8UnitTest11TestResults13OnTestFailureERKNS_11TestDetailsEPKc@PLT
 3563      00
 3564              	.LEHE68:
 3565              		.loc 6 96 1 discriminator 25
 3566 1740 488D8540 		leaq	-448(%rbp), %rax
 3566      FEFFFF
 3567 1747 4889C7   		movq	%rax, %rdi
 3568              	.LEHB69:
 3569 174a E8000000 		call	_ZN8UnitTest15MemoryOutStreamD1Ev
 3569      00
 3570              	.LEHE69:
 3571              	.LBE50:
 3572              		.loc 6 96 1 discriminator 26
 3573 174f E8000000 		call	__cxa_end_catch@PLT
 3573      00
 3574              	.LBE49:
 3575 1754 E9FD0000 		jmp	.L157
 3575      00
 3576              	.L175:
 3577              		.loc 6 96 1 discriminator 3
 3578 1759 4889C7   		movq	%rax, %rdi
 3579 175c E8000000 		call	__cxa_begin_catch@PLT
 3579      00
 3580 1761 80BD0FFE 		cmpb	$0, -497(%rbp)
 3580      FFFF00
 3581 1768 7445     		je	.L163
 3582              	.LEHB70:
 3583              		.loc 6 96 1 discriminator 28
 3584 176a E8000000 		call	_ZN8UnitTest11CurrentTest7ResultsEv@PLT
 3584      00
 3585 176f 488B18   		movq	(%rax), %rbx
 3586 1772 488B85F8 		movq	-520(%rbp), %rax
 3586      FDFFFF
 3587 1779 488D4808 		leaq	8(%rax), %rcx
 3588 177d 488D8520 		leaq	-480(%rbp), %rax
 3588      FEFFFF
 3589 1784 BA600000 		movl	$96, %edx
 3589      00
 3590 1789 4889CE   		movq	%rcx, %rsi
 3591 178c 4889C7   		movq	%rax, %rdi
 3592 178f E8000000 		call	_ZN8UnitTest11TestDetailsC1ERKS0_i@PLT
 3592      00
 3593              		.loc 6 96 1 discriminator 33
 3594 1794 488D8520 		leaq	-480(%rbp), %rax
 3594      FEFFFF
 3595 179b 488D1500 		leaq	.LC27(%rip), %rdx
 3595      000000
 3596 17a2 4889C6   		movq	%rax, %rsi
 3597 17a5 4889DF   		movq	%rbx, %rdi
 3598 17a8 E8000000 		call	_ZN8UnitTest11TestResults13OnTestFailureERKNS_11TestDetailsEPKc@PLT
 3598      00
 3599 17ad EB43     		jmp	.L164
 3600              	.L163:
 3601              		.loc 6 96 1 discriminator 29
 3602 17af E8000000 		call	_ZN8UnitTest11CurrentTest7ResultsEv@PLT
 3602      00
 3603 17b4 488B18   		movq	(%rax), %rbx
 3604 17b7 488B85F8 		movq	-520(%rbp), %rax
 3604      FDFFFF
 3605 17be 488D4808 		leaq	8(%rax), %rcx
 3606 17c2 488D8520 		leaq	-480(%rbp), %rax
 3606      FEFFFF
 3607 17c9 BA600000 		movl	$96, %edx
 3607      00
 3608 17ce 4889CE   		movq	%rcx, %rsi
 3609 17d1 4889C7   		movq	%rax, %rdi
 3610 17d4 E8000000 		call	_ZN8UnitTest11TestDetailsC1ERKS0_i@PLT
 3610      00
 3611              		.loc 6 96 1 discriminator 40
 3612 17d9 488D8520 		leaq	-480(%rbp), %rax
 3612      FEFFFF
 3613 17e0 488D1500 		leaq	.LC28(%rip), %rdx
 3613      000000
 3614 17e7 4889C6   		movq	%rax, %rsi
 3615 17ea 4889DF   		movq	%rbx, %rdi
 3616 17ed E8000000 		call	_ZN8UnitTest11TestResults13OnTestFailureERKNS_11TestDetailsEPKc@PLT
 3616      00
 3617              	.LEHE70:
 3618              	.L164:
 3619              	.LEHB71:
 3620              		.loc 6 96 1 discriminator 43
 3621 17f2 E8000000 		call	__cxa_end_catch@PLT
 3621      00
 3622 17f7 EB5D     		jmp	.L157
 3623              	.L171:
 3624 17f9 F30F1EFA 		endbr64
 3625              	.LBB52:
 3626              		.loc 6 96 1
 3627 17fd 4889C3   		movq	%rax, %rbx
 3628 1800 E8000000 		call	__cxa_end_catch@PLT
 3628      00
 3629 1805 4889D8   		movq	%rbx, %rax
 3630 1808 4889C7   		movq	%rax, %rdi
 3631 180b E8000000 		call	_Unwind_Resume@PLT
 3631      00
 3632              	.LEHE71:
 3633              	.L173:
 3634 1810 F30F1EFA 		endbr64
 3635              	.LBE52:
 3636              	.LBB53:
 3637              	.LBB51:
 3638 1814 4889C3   		movq	%rax, %rbx
 3639 1817 488D8540 		leaq	-448(%rbp), %rax
 3639      FEFFFF
 3640 181e 4889C7   		movq	%rax, %rdi
 3641 1821 E8000000 		call	_ZN8UnitTest15MemoryOutStreamD1Ev
 3641      00
 3642 1826 EB07     		jmp	.L167
 3643              	.L172:
 3644 1828 F30F1EFA 		endbr64
 3645              	.LBE51:
 3646 182c 4889C3   		movq	%rax, %rbx
 3647              	.L167:
 3648 182f E8000000 		call	__cxa_end_catch@PLT
 3648      00
 3649 1834 4889D8   		movq	%rbx, %rax
 3650 1837 4889C7   		movq	%rax, %rdi
 3651              	.LEHB72:
 3652 183a E8000000 		call	_Unwind_Resume@PLT
 3652      00
 3653              	.LEHE72:
 3654              	.L174:
 3655 183f F30F1EFA 		endbr64
 3656              	.LBE53:
 3657 1843 4889C3   		movq	%rax, %rbx
 3658 1846 E8000000 		call	__cxa_end_catch@PLT
 3658      00
 3659 184b 4889D8   		movq	%rbx, %rax
 3660 184e 4889C7   		movq	%rax, %rdi
 3661              	.LEHB73:
 3662 1851 E8000000 		call	_Unwind_Resume@PLT
 3662      00
 3663              	.LEHE73:
 3664              	.L157:
 3665 1856 488B45D8 		movq	-40(%rbp), %rax
 3666 185a 64482B04 		subq	%fs:40, %rax
 3666      25280000 
 3666      00
 3667 1863 7405     		je	.L169
 3668 1865 E8000000 		call	__stack_chk_fail@PLT
 3668      00
 3669              	.L169:
 3670 186a 4881C4F8 		addq	$504, %rsp
 3670      010000
 3671 1871 5B       		popq	%rbx
 3672 1872 415C     		popq	%r12
 3673 1874 415D     		popq	%r13
 3674 1876 5D       		popq	%rbp
 3675              		.cfi_def_cfa 7, 8
 3676 1877 C3       		ret
 3677              		.cfi_endproc
 3678              	.LFE1223:
 3679              		.section	.gcc_except_table
 3680              		.align 4
 3681              	.LLSDA1223:
 3682 01c4 FF       		.byte	0xff
 3683 01c5 9B       		.byte	0x9b
 3684 01c6 49       		.uleb128 .LLSDATT1223-.LLSDATTD1223
 3685              	.LLSDATTD1223:
 3686 01c7 01       		.byte	0x1
 3687 01c8 33       		.uleb128 .LLSDACSE1223-.LLSDACSB1223
 3688              	.LLSDACSB1223:
 3689 01c9 6D       		.uleb128 .LEHB65-.LFB1223
 3690 01ca 05       		.uleb128 .LEHE65-.LEHB65
 3691 01cb 77       		.uleb128 .L170-.LFB1223
 3692 01cc 05       		.uleb128 0x5
 3693 01cd 9F01     		.uleb128 .LEHB66-.LFB1223
 3694 01cf 8901     		.uleb128 .LEHE66-.LEHB66
 3695 01d1 FD04     		.uleb128 .L171-.LFB1223
 3696 01d3 00       		.uleb128 0
 3697 01d4 CB02     		.uleb128 .LEHB67-.LFB1223
 3698 01d6 05       		.uleb128 .LEHE67-.LEHB67
 3699 01d7 AC05     		.uleb128 .L172-.LFB1223
 3700 01d9 00       		.uleb128 0
 3701 01da E402     		.uleb128 .LEHB68-.LFB1223
 3702 01dc 60       		.uleb128 .LEHE68-.LEHB68
 3703 01dd 9405     		.uleb128 .L173-.LFB1223
 3704 01df 00       		.uleb128 0
 3705 01e0 CE03     		.uleb128 .LEHB69-.LFB1223
 3706 01e2 05       		.uleb128 .LEHE69-.LEHB69
 3707 01e3 AC05     		.uleb128 .L172-.LFB1223
 3708 01e5 00       		.uleb128 0
 3709 01e6 EE03     		.uleb128 .LEHB70-.LFB1223
 3710 01e8 8801     		.uleb128 .LEHE70-.LEHB70
 3711 01ea C305     		.uleb128 .L174-.LFB1223
 3712 01ec 00       		.uleb128 0
 3713 01ed F604     		.uleb128 .LEHB71-.LFB1223
 3714 01ef 1E       		.uleb128 .LEHE71-.LEHB71
 3715 01f0 00       		.uleb128 0
 3716 01f1 00       		.uleb128 0
 3717 01f2 BE05     		.uleb128 .LEHB72-.LFB1223
 3718 01f4 05       		.uleb128 .LEHE72-.LEHB72
 3719 01f5 00       		.uleb128 0
 3720 01f6 00       		.uleb128 0
 3721 01f7 D505     		.uleb128 .LEHB73-.LFB1223
 3722 01f9 05       		.uleb128 .LEHE73-.LEHB73
 3723 01fa 00       		.uleb128 0
 3724 01fb 00       		.uleb128 0
 3725              	.LLSDACSE1223:
 3726 01fc 03       		.byte	0x3
 3727 01fd 00       		.byte	0
 3728 01fe 02       		.byte	0x2
 3729 01ff 7D       		.byte	0x7d
 3730 0200 01       		.byte	0x1
 3731 0201 7D       		.byte	0x7d
 3732 0202 0000     		.align 4
 3733 0204 00000000 		.long	0
 3734              	
 3735 0208 00000000 		.long	DW.ref._ZTISt9exception-.
 3736 020c 00000000 		.long	DW.ref._ZTIN8UnitTest15AssertExceptionE-.
 3737              	.LLSDATT1223:
 3738              		.text
 3740              		.align 2
 3742              	_ZN12_GLOBAL__N_134DummyFixtureMacroTestHelper2Helper7RunImplEv:
 3743              	.LFB1224:
  97:TestTestMacros.cpp **** {
 3744              		.loc 6 97 1 is_stmt 1
 3745              		.cfi_startproc
 3746 1878 F30F1EFA 		endbr64
 3747 187c 55       		pushq	%rbp
 3748              		.cfi_def_cfa_offset 16
 3749              		.cfi_offset 6, -16
 3750 187d 4889E5   		movq	%rsp, %rbp
 3751              		.cfi_def_cfa_register 6
 3752 1880 48897DF8 		movq	%rdi, -8(%rbp)
  98:TestTestMacros.cpp **** }
 3753              		.loc 6 98 1
 3754 1884 90       		nop
 3755 1885 5D       		popq	%rbp
 3756              		.cfi_def_cfa 7, 8
 3757 1886 C3       		ret
 3758              		.cfi_endproc
 3759              	.LFE1224:
 3761              		.section	.rodata
 3762 0603 00000000 		.align 8
 3762      00
 3763              	.LC37:
 3764 0608 54657374 		.string	"TestAddedWithTEST_FIXTURE_EXMacroGetsDefaultSuite"
 3764      41646465 
 3764      64576974 
 3764      68544553 
 3764      545F4649 
 3765              		.text
 3766 1887 90       		.align 2
 3768              	_ZN12_GLOBAL__N_153TestTestAddedWithTEST_FIXTURE_EXMacroGetsDefaultSuiteC2Ev:
 3769              	.LFB1226:
  99:TestTestMacros.cpp **** 
 100:TestTestMacros.cpp **** TEST(TestAddedWithTEST_FIXTURE_EXMacroGetsDefaultSuite)
 3770              		.loc 6 100 1
 3771              		.cfi_startproc
 3772 1888 55       		pushq	%rbp
 3773              		.cfi_def_cfa_offset 16
 3774              		.cfi_offset 6, -16
 3775 1889 4889E5   		movq	%rsp, %rbp
 3776              		.cfi_def_cfa_register 6
 3777 188c 53       		pushq	%rbx
 3778 188d 4883EC18 		subq	$24, %rsp
 3779              		.cfi_offset 3, -24
 3780 1891 48897DE8 		movq	%rdi, -24(%rbp)
 3781              	.LBB54:
 3782              		.loc 6 100 1
 3783 1895 488B5DE8 		movq	-24(%rbp), %rbx
 3784 1899 E8000000 		call	_ZN13UnitTestSuite12GetSuiteNameEv
 3784      00
 3785 189e 4889C2   		movq	%rax, %rdx
 3786 18a1 41B86400 		movl	$100, %r8d
 3786      0000
 3787 18a7 488D0500 		leaq	.LC2(%rip), %rax
 3787      000000
 3788 18ae 4889C1   		movq	%rax, %rcx
 3789 18b1 488D0500 		leaq	.LC37(%rip), %rax
 3789      000000
 3790 18b8 4889C6   		movq	%rax, %rsi
 3791 18bb 4889DF   		movq	%rbx, %rdi
 3792 18be E8000000 		call	_ZN8UnitTest4TestC2EPKcS2_S2_i@PLT
 3792      00
 3793 18c3 488D1500 		leaq	16+_ZTVN12_GLOBAL__N_153TestTestAddedWithTEST_FIXTURE_EXMacroGetsDefaultSuiteE(%rip), %rdx
 3793      000000
 3794 18ca 488B45E8 		movq	-24(%rbp), %rax
 3795 18ce 488910   		movq	%rdx, (%rax)
 3796              	.LBE54:
 3797 18d1 90       		nop
 3798 18d2 488B5DF8 		movq	-8(%rbp), %rbx
 3799 18d6 C9       		leave
 3800              		.cfi_def_cfa 7, 8
 3801 18d7 C3       		ret
 3802              		.cfi_endproc
 3803              	.LFE1226:
 3805              		.set	_ZN12_GLOBAL__N_153TestTestAddedWithTEST_FIXTURE_EXMacroGetsDefaultSuiteC1Ev,_ZN12_GLOBAL__N_
 3806              		.local	_ZN12_GLOBAL__N_161testTestAddedWithTEST_FIXTURE_EXMacroGetsDefaultSuiteInstanceE
 3807              		.comm	_ZN12_GLOBAL__N_161testTestAddedWithTEST_FIXTURE_EXMacroGetsDefaultSuiteInstanceE,56,32
 3808              		.local	_ZN12_GLOBAL__N_154adderTestAddedWithTEST_FIXTURE_EXMacroGetsDefaultSuiteE
 3809              		.comm	_ZN12_GLOBAL__N_154adderTestAddedWithTEST_FIXTURE_EXMacroGetsDefaultSuiteE,1,1
 3810              		.section	.rodata
 3811 063a 00000000 		.align 8
 3811      0000
 3812              	.LC38:
 3813 0640 6D616372 		.string	"macroTestList2.GetHead() != NULL"
 3813      6F546573 
 3813      744C6973 
 3813      74322E47 
 3813      65744865 
 3814 0661 00000000 		.align 8
 3814      000000
 3815              	.LC39:
 3816 0668 556E6861 		.string	"Unhandled exception in CHECK(macroTestList2.GetHead() != NULL)"
 3816      6E646C65 
 3816      64206578 
 3816      63657074 
 3816      696F6E20 
 3817 06a7 00       		.align 8
 3818              	.LC40:
 3819 06a8 556E6861 		.string	"Unhandled exception in CHECK_EQUAL(\"MacroTestHelper2\", macroTestList2.GetHead()->m_deta
 3819      6E646C65 
 3819      64206578 
 3819      63657074 
 3819      696F6E20 
 3820 070d 000000   		.align 8
 3821              	.LC41:
 3822 0710 556E6861 		.string	"Unhandled exception in CHECK_EQUAL(\"DefaultSuite\", macroTestList2.GetHead()->m_details.
 3822      6E646C65 
 3822      64206578 
 3822      63657074 
 3822      696F6E20 
 3823              		.text
 3824              		.align 2
 3826              	_ZNK12_GLOBAL__N_153TestTestAddedWithTEST_FIXTURE_EXMacroGetsDefaultSuite7RunImplEv:
 3827              	.LFB1228:
 101:TestTestMacros.cpp **** {
 3828              		.loc 6 101 1
 3829              		.cfi_startproc
 3830              		.cfi_personality 0x9b,DW.ref.__gxx_personality_v0
 3831              		.cfi_lsda 0x1b,.LLSDA1228
 3832 18d8 F30F1EFA 		endbr64
 3833 18dc 55       		pushq	%rbp
 3834              		.cfi_def_cfa_offset 16
 3835              		.cfi_offset 6, -16
 3836 18dd 4889E5   		movq	%rsp, %rbp
 3837              		.cfi_def_cfa_register 6
 3838 18e0 53       		pushq	%rbx
 3839 18e1 4883EC48 		subq	$72, %rsp
 3840              		.cfi_offset 3, -24
 3841 18e5 48897DB8 		movq	%rdi, -72(%rbp)
 3842              		.loc 6 101 1
 3843 18e9 64488B04 		movq	%fs:40, %rax
 3843      25280000 
 3843      00
 3844 18f2 488945E8 		movq	%rax, -24(%rbp)
 3845 18f6 31C0     		xorl	%eax, %eax
 102:TestTestMacros.cpp ****     CHECK(macroTestList2.GetHead() != NULL);
 3846              		.loc 6 102 5
 3847 18f8 488D0500 		leaq	_ZN12_GLOBAL__N_114macroTestList2E(%rip), %rax
 3847      000000
 3848 18ff 4889C7   		movq	%rax, %rdi
 3849              	.LEHB74:
 3850 1902 E8000000 		call	_ZNK8UnitTest8TestList7GetHeadEv@PLT
 3850      00
 3851 1907 4885C0   		testq	%rax, %rax
 3852 190a 0F95C0   		setne	%al
 3853 190d 0FB6C0   		movzbl	%al, %eax
 3854 1910 89C7     		movl	%eax, %edi
 3855 1912 E8000000 		call	_ZN8UnitTest5CheckIbEEbT_
 3855      00
 3856 1917 83F001   		xorl	$1, %eax
 3857 191a 84C0     		testb	%al, %al
 3858 191c 743A     		je	.L179
 3859              		.loc 6 102 5 is_stmt 0 discriminator 3
 3860 191e E8000000 		call	_ZN8UnitTest11CurrentTest7ResultsEv@PLT
 3860      00
 3861 1923 488B18   		movq	(%rax), %rbx
 3862 1926 E8000000 		call	_ZN8UnitTest11CurrentTest7DetailsEv@PLT
 3862      00
 3863              		.loc 6 102 5 discriminator 5
 3864 192b 488B08   		movq	(%rax), %rcx
 3865 192e 488D45C0 		leaq	-64(%rbp), %rax
 3866 1932 BA660000 		movl	$102, %edx
 3866      00
 3867 1937 4889CE   		movq	%rcx, %rsi
 3868 193a 4889C7   		movq	%rax, %rdi
 3869 193d E8000000 		call	_ZN8UnitTest11TestDetailsC1ERKS0_i@PLT
 3869      00
 3870              		.loc 6 102 5 discriminator 9
 3871 1942 488D45C0 		leaq	-64(%rbp), %rax
 3872 1946 488D1500 		leaq	.LC38(%rip), %rdx
 3872      000000
 3873 194d 4889C6   		movq	%rax, %rsi
 3874 1950 4889DF   		movq	%rbx, %rdi
 3875 1953 E8000000 		call	_ZN8UnitTest11TestResults13OnTestFailureERKNS_11TestDetailsEPKc@PLT
 3875      00
 3876              	.LEHE74:
 3877              	.L179:
 3878              	.LEHB75:
 103:TestTestMacros.cpp ****     CHECK_EQUAL ("MacroTestHelper2", macroTestList2.GetHead()->m_details.testName);
 3879              		.loc 6 103 5 is_stmt 1
 3880 1958 E8000000 		call	_ZN8UnitTest11CurrentTest7DetailsEv@PLT
 3880      00
 3881 195d 488B08   		movq	(%rax), %rcx
 3882 1960 488D45C0 		leaq	-64(%rbp), %rax
 3883 1964 BA670000 		movl	$103, %edx
 3883      00
 3884 1969 4889CE   		movq	%rcx, %rsi
 3885 196c 4889C7   		movq	%rax, %rdi
 3886 196f E8000000 		call	_ZN8UnitTest11TestDetailsC1ERKS0_i@PLT
 3886      00
 3887              		.loc 6 103 5 is_stmt 0 discriminator 4
 3888 1974 488D0500 		leaq	_ZN12_GLOBAL__N_114macroTestList2E(%rip), %rax
 3888      000000
 3889 197b 4889C7   		movq	%rax, %rdi
 3890 197e E8000000 		call	_ZNK8UnitTest8TestList7GetHeadEv@PLT
 3890      00
 3891 1983 488B5810 		movq	16(%rax), %rbx
 3892 1987 E8000000 		call	_ZN8UnitTest11CurrentTest7ResultsEv@PLT
 3892      00
 3893              		.loc 6 103 5 discriminator 6
 3894 198c 488B00   		movq	(%rax), %rax
 3895 198f 488D55C0 		leaq	-64(%rbp), %rdx
 3896 1993 4889D1   		movq	%rdx, %rcx
 3897 1996 4889DA   		movq	%rbx, %rdx
 3898 1999 488D3500 		leaq	.LC36(%rip), %rsi
 3898      000000
 3899 19a0 4889C7   		movq	%rax, %rdi
 3900 19a3 E8000000 		call	_ZN8UnitTest10CheckEqualERNS_11TestResultsEPKcS3_RKNS_11TestDetailsE@PLT
 3900      00
 3901              	.LEHE75:
 3902              	.L183:
 3903              	.LEHB76:
 104:TestTestMacros.cpp ****     CHECK_EQUAL ("DefaultSuite", macroTestList2.GetHead()->m_details.suiteName);
 3904              		.loc 6 104 5 is_stmt 1
 3905 19a8 E8000000 		call	_ZN8UnitTest11CurrentTest7DetailsEv@PLT
 3905      00
 3906 19ad 488B08   		movq	(%rax), %rcx
 3907 19b0 488D45C0 		leaq	-64(%rbp), %rax
 3908 19b4 BA680000 		movl	$104, %edx
 3908      00
 3909 19b9 4889CE   		movq	%rcx, %rsi
 3910 19bc 4889C7   		movq	%rax, %rdi
 3911 19bf E8000000 		call	_ZN8UnitTest11TestDetailsC1ERKS0_i@PLT
 3911      00
 3912              		.loc 6 104 5 is_stmt 0 discriminator 4
 3913 19c4 488D0500 		leaq	_ZN12_GLOBAL__N_114macroTestList2E(%rip), %rax
 3913      000000
 3914 19cb 4889C7   		movq	%rax, %rdi
 3915 19ce E8000000 		call	_ZNK8UnitTest8TestList7GetHeadEv@PLT
 3915      00
 3916 19d3 488B5808 		movq	8(%rax), %rbx
 3917 19d7 E8000000 		call	_ZN8UnitTest11CurrentTest7ResultsEv@PLT
 3917      00
 3918              		.loc 6 104 5 discriminator 6
 3919 19dc 488B00   		movq	(%rax), %rax
 3920 19df 488D55C0 		leaq	-64(%rbp), %rdx
 3921 19e3 4889D1   		movq	%rdx, %rcx
 3922 19e6 4889DA   		movq	%rbx, %rdx
 3923 19e9 488D3500 		leaq	.LC0(%rip), %rsi
 3923      000000
 3924 19f0 4889C7   		movq	%rax, %rdi
 3925 19f3 E8000000 		call	_ZN8UnitTest10CheckEqualERNS_11TestResultsEPKcS3_RKNS_11TestDetailsE@PLT
 3925      00
 3926              	.LEHE76:
 105:TestTestMacros.cpp **** }
 3927              		.loc 6 105 1 is_stmt 1
 3928 19f8 E9320100 		jmp	.L178
 3928      00
 3929              	.L189:
 3930 19fd F30F1EFA 		endbr64
 102:TestTestMacros.cpp ****     CHECK_EQUAL ("MacroTestHelper2", macroTestList2.GetHead()->m_details.testName);
 3931              		.loc 6 102 5
 3932 1a01 4889C7   		movq	%rax, %rdi
 3933 1a04 E8000000 		call	__cxa_begin_catch@PLT
 3933      00
 3934              	.LEHB77:
 3935 1a09 E8000000 		call	_ZN8UnitTest11CurrentTest7ResultsEv@PLT
 3935      00
 102:TestTestMacros.cpp ****     CHECK_EQUAL ("MacroTestHelper2", macroTestList2.GetHead()->m_details.testName);
 3936              		.loc 6 102 5 is_stmt 0 discriminator 8
 3937 1a0e 488B18   		movq	(%rax), %rbx
 3938 1a11 E8000000 		call	_ZN8UnitTest11CurrentTest7DetailsEv@PLT
 3938      00
 102:TestTestMacros.cpp ****     CHECK_EQUAL ("MacroTestHelper2", macroTestList2.GetHead()->m_details.testName);
 3939              		.loc 6 102 5 discriminator 14
 3940 1a16 488B08   		movq	(%rax), %rcx
 3941 1a19 488D45C0 		leaq	-64(%rbp), %rax
 3942 1a1d BA660000 		movl	$102, %edx
 3942      00
 3943 1a22 4889CE   		movq	%rcx, %rsi
 3944 1a25 4889C7   		movq	%rax, %rdi
 3945 1a28 E8000000 		call	_ZN8UnitTest11TestDetailsC1ERKS0_i@PLT
 3945      00
 102:TestTestMacros.cpp ****     CHECK_EQUAL ("MacroTestHelper2", macroTestList2.GetHead()->m_details.testName);
 3946              		.loc 6 102 5 discriminator 18
 3947 1a2d 488D45C0 		leaq	-64(%rbp), %rax
 3948 1a31 488D1500 		leaq	.LC39(%rip), %rdx
 3948      000000
 3949 1a38 4889C6   		movq	%rax, %rsi
 3950 1a3b 4889DF   		movq	%rbx, %rdi
 3951 1a3e E8000000 		call	_ZN8UnitTest11TestResults13OnTestFailureERKNS_11TestDetailsEPKc@PLT
 3951      00
 3952              	.LEHE77:
 3953              	.LEHB78:
 102:TestTestMacros.cpp ****     CHECK_EQUAL ("MacroTestHelper2", macroTestList2.GetHead()->m_details.testName);
 3954              		.loc 6 102 5 discriminator 20
 3955 1a43 E8000000 		call	__cxa_end_catch@PLT
 3955      00
 3956              	.LEHE78:
 3957 1a48 E90BFFFF 		jmp	.L179
 3957      FF
 3958              	.L190:
 3959 1a4d F30F1EFA 		endbr64
 102:TestTestMacros.cpp ****     CHECK_EQUAL ("MacroTestHelper2", macroTestList2.GetHead()->m_details.testName);
 3960              		.loc 6 102 5
 3961 1a51 4889C3   		movq	%rax, %rbx
 3962 1a54 E8000000 		call	__cxa_end_catch@PLT
 3962      00
 3963 1a59 4889D8   		movq	%rbx, %rax
 3964 1a5c 4889C7   		movq	%rax, %rdi
 3965              	.LEHB79:
 3966 1a5f E8000000 		call	_Unwind_Resume@PLT
 3966      00
 3967              	.LEHE79:
 3968              	.L191:
 3969 1a64 F30F1EFA 		endbr64
 103:TestTestMacros.cpp ****     CHECK_EQUAL ("DefaultSuite", macroTestList2.GetHead()->m_details.suiteName);
 3970              		.loc 6 103 5 is_stmt 1
 3971 1a68 4889C7   		movq	%rax, %rdi
 3972 1a6b E8000000 		call	__cxa_begin_catch@PLT
 3972      00
 3973              	.LEHB80:
 3974 1a70 E8000000 		call	_ZN8UnitTest11CurrentTest7ResultsEv@PLT
 3974      00
 103:TestTestMacros.cpp ****     CHECK_EQUAL ("DefaultSuite", macroTestList2.GetHead()->m_details.suiteName);
 3975              		.loc 6 103 5 is_stmt 0 discriminator 3
 3976 1a75 488B18   		movq	(%rax), %rbx
 3977 1a78 E8000000 		call	_ZN8UnitTest11CurrentTest7DetailsEv@PLT
 3977      00
 103:TestTestMacros.cpp ****     CHECK_EQUAL ("DefaultSuite", macroTestList2.GetHead()->m_details.suiteName);
 3978              		.loc 6 103 5 discriminator 13
 3979 1a7d 488B08   		movq	(%rax), %rcx
 3980 1a80 488D45C0 		leaq	-64(%rbp), %rax
 3981 1a84 BA670000 		movl	$103, %edx
 3981      00
 3982 1a89 4889CE   		movq	%rcx, %rsi
 3983 1a8c 4889C7   		movq	%rax, %rdi
 3984 1a8f E8000000 		call	_ZN8UnitTest11TestDetailsC1ERKS0_i@PLT
 3984      00
 103:TestTestMacros.cpp ****     CHECK_EQUAL ("DefaultSuite", macroTestList2.GetHead()->m_details.suiteName);
 3985              		.loc 6 103 5 discriminator 17
 3986 1a94 488D45C0 		leaq	-64(%rbp), %rax
 3987 1a98 488D1500 		leaq	.LC40(%rip), %rdx
 3987      000000
 3988 1a9f 4889C6   		movq	%rax, %rsi
 3989 1aa2 4889DF   		movq	%rbx, %rdi
 3990 1aa5 E8000000 		call	_ZN8UnitTest11TestResults13OnTestFailureERKNS_11TestDetailsEPKc@PLT
 3990      00
 3991              	.LEHE80:
 3992              	.LEHB81:
 103:TestTestMacros.cpp ****     CHECK_EQUAL ("DefaultSuite", macroTestList2.GetHead()->m_details.suiteName);
 3993              		.loc 6 103 5 discriminator 19
 3994 1aaa E8000000 		call	__cxa_end_catch@PLT
 3994      00
 3995              	.LEHE81:
 3996 1aaf E9F4FEFF 		jmp	.L183
 3996      FF
 3997              	.L192:
 3998 1ab4 F30F1EFA 		endbr64
 103:TestTestMacros.cpp ****     CHECK_EQUAL ("DefaultSuite", macroTestList2.GetHead()->m_details.suiteName);
 3999              		.loc 6 103 5
 4000 1ab8 4889C3   		movq	%rax, %rbx
 4001 1abb E8000000 		call	__cxa_end_catch@PLT
 4001      00
 4002 1ac0 4889D8   		movq	%rbx, %rax
 4003 1ac3 4889C7   		movq	%rax, %rdi
 4004              	.LEHB82:
 4005 1ac6 E8000000 		call	_Unwind_Resume@PLT
 4005      00
 4006              	.LEHE82:
 4007              	.L193:
 4008 1acb F30F1EFA 		endbr64
 104:TestTestMacros.cpp **** }
 4009              		.loc 6 104 5 is_stmt 1
 4010 1acf 4889C7   		movq	%rax, %rdi
 4011 1ad2 E8000000 		call	__cxa_begin_catch@PLT
 4011      00
 4012              	.LEHB83:
 4013 1ad7 E8000000 		call	_ZN8UnitTest11CurrentTest7ResultsEv@PLT
 4013      00
 104:TestTestMacros.cpp **** }
 4014              		.loc 6 104 5 is_stmt 0 discriminator 3
 4015 1adc 488B18   		movq	(%rax), %rbx
 4016 1adf E8000000 		call	_ZN8UnitTest11CurrentTest7DetailsEv@PLT
 4016      00
 104:TestTestMacros.cpp **** }
 4017              		.loc 6 104 5 discriminator 13
 4018 1ae4 488B08   		movq	(%rax), %rcx
 4019 1ae7 488D45C0 		leaq	-64(%rbp), %rax
 4020 1aeb BA680000 		movl	$104, %edx
 4020      00
 4021 1af0 4889CE   		movq	%rcx, %rsi
 4022 1af3 4889C7   		movq	%rax, %rdi
 4023 1af6 E8000000 		call	_ZN8UnitTest11TestDetailsC1ERKS0_i@PLT
 4023      00
 104:TestTestMacros.cpp **** }
 4024              		.loc 6 104 5 discriminator 17
 4025 1afb 488D45C0 		leaq	-64(%rbp), %rax
 4026 1aff 488D1500 		leaq	.LC41(%rip), %rdx
 4026      000000
 4027 1b06 4889C6   		movq	%rax, %rsi
 4028 1b09 4889DF   		movq	%rbx, %rdi
 4029 1b0c E8000000 		call	_ZN8UnitTest11TestResults13OnTestFailureERKNS_11TestDetailsEPKc@PLT
 4029      00
 4030              	.LEHE83:
 4031              	.LEHB84:
 104:TestTestMacros.cpp **** }
 4032              		.loc 6 104 5 discriminator 19
 4033 1b11 E8000000 		call	__cxa_end_catch@PLT
 4033      00
 4034              	.LEHE84:
 4035              		.loc 6 105 1 is_stmt 1 discriminator 19
 4036 1b16 EB17     		jmp	.L178
 4037              	.L194:
 4038 1b18 F30F1EFA 		endbr64
 104:TestTestMacros.cpp **** }
 4039              		.loc 6 104 5
 4040 1b1c 4889C3   		movq	%rax, %rbx
 4041 1b1f E8000000 		call	__cxa_end_catch@PLT
 4041      00
 4042 1b24 4889D8   		movq	%rbx, %rax
 4043 1b27 4889C7   		movq	%rax, %rdi
 4044              	.LEHB85:
 4045 1b2a E8000000 		call	_Unwind_Resume@PLT
 4045      00
 4046              	.LEHE85:
 4047              	.L178:
 4048              		.loc 6 105 1
 4049 1b2f 488B45E8 		movq	-24(%rbp), %rax
 4050 1b33 64482B04 		subq	%fs:40, %rax
 4050      25280000 
 4050      00
 4051 1b3c 7405     		je	.L188
 4052 1b3e E8000000 		call	__stack_chk_fail@PLT
 4052      00
 4053              	.L188:
 4054 1b43 488B5DF8 		movq	-8(%rbp), %rbx
 4055 1b47 C9       		leave
 4056              		.cfi_def_cfa 7, 8
 4057 1b48 C3       		ret
 4058              		.cfi_endproc
 4059              	.LFE1228:
 4060              		.section	.gcc_except_table
 4061              		.align 4
 4062              	.LLSDA1228:
 4063 0210 FF       		.byte	0xff
 4064 0211 9B       		.byte	0x9b
 4065 0212 49       		.uleb128 .LLSDATT1228-.LLSDATTD1228
 4066              	.LLSDATTD1228:
 4067 0213 01       		.byte	0x1
 4068 0214 41       		.uleb128 .LLSDACSE1228-.LLSDACSB1228
 4069              	.LLSDACSB1228:
 4070 0215 2A       		.uleb128 .LEHB74-.LFB1228
 4071 0216 56       		.uleb128 .LEHE74-.LEHB74
 4072 0217 A502     		.uleb128 .L189-.LFB1228
 4073 0219 01       		.uleb128 0x1
 4074 021a 8001     		.uleb128 .LEHB75-.LFB1228
 4075 021c 50       		.uleb128 .LEHE75-.LEHB75
 4076 021d 8C03     		.uleb128 .L191-.LFB1228
 4077 021f 01       		.uleb128 0x1
 4078 0220 D001     		.uleb128 .LEHB76-.LFB1228
 4079 0222 50       		.uleb128 .LEHE76-.LEHB76
 4080 0223 F303     		.uleb128 .L193-.LFB1228
 4081 0225 01       		.uleb128 0x1
 4082 0226 B102     		.uleb128 .LEHB77-.LFB1228
 4083 0228 3A       		.uleb128 .LEHE77-.LEHB77
 4084 0229 F502     		.uleb128 .L190-.LFB1228
 4085 022b 00       		.uleb128 0
 4086 022c EB02     		.uleb128 .LEHB78-.LFB1228
 4087 022e 05       		.uleb128 .LEHE78-.LEHB78
 4088 022f 00       		.uleb128 0
 4089 0230 00       		.uleb128 0
 4090 0231 8703     		.uleb128 .LEHB79-.LFB1228
 4091 0233 05       		.uleb128 .LEHE79-.LEHB79
 4092 0234 00       		.uleb128 0
 4093 0235 00       		.uleb128 0
 4094 0236 9803     		.uleb128 .LEHB80-.LFB1228
 4095 0238 3A       		.uleb128 .LEHE80-.LEHB80
 4096 0239 DC03     		.uleb128 .L192-.LFB1228
 4097 023b 00       		.uleb128 0
 4098 023c D203     		.uleb128 .LEHB81-.LFB1228
 4099 023e 05       		.uleb128 .LEHE81-.LEHB81
 4100 023f 00       		.uleb128 0
 4101 0240 00       		.uleb128 0
 4102 0241 EE03     		.uleb128 .LEHB82-.LFB1228
 4103 0243 05       		.uleb128 .LEHE82-.LEHB82
 4104 0244 00       		.uleb128 0
 4105 0245 00       		.uleb128 0
 4106 0246 FF03     		.uleb128 .LEHB83-.LFB1228
 4107 0248 3A       		.uleb128 .LEHE83-.LEHB83
 4108 0249 C004     		.uleb128 .L194-.LFB1228
 4109 024b 00       		.uleb128 0
 4110 024c B904     		.uleb128 .LEHB84-.LFB1228
 4111 024e 05       		.uleb128 .LEHE84-.LEHB84
 4112 024f 00       		.uleb128 0
 4113 0250 00       		.uleb128 0
 4114 0251 D204     		.uleb128 .LEHB85-.LFB1228
 4115 0253 05       		.uleb128 .LEHE85-.LEHB85
 4116 0254 00       		.uleb128 0
 4117 0255 00       		.uleb128 0
 4118              	.LLSDACSE1228:
 4119 0256 01       		.byte	0x1
 4120 0257 00       		.byte	0
 4121              		.align 4
 4122 0258 00000000 		.long	0
 4123              	
 4124              	.LLSDATT1228:
 4125              		.text
 4127              		.section	.rodata
 4128              	.LC42:
 4129 0772 65786365 		.string	"exception"
 4129      7074696F 
 4129      6E00
 4130              		.text
 4131 1b49 90       		.align 2
 4133              	_ZN12_GLOBAL__N_117FixtureCtorThrowsC2Ev:
 4134              	.LFB1230:
 106:TestTestMacros.cpp **** 
 107:TestTestMacros.cpp **** struct FixtureCtorThrows
 108:TestTestMacros.cpp **** {
 109:TestTestMacros.cpp **** 	FixtureCtorThrows()	{ throw "exception"; }
 4135              		.loc 6 109 2
 4136              		.cfi_startproc
 4137 1b4a 55       		pushq	%rbp
 4138              		.cfi_def_cfa_offset 16
 4139              		.cfi_offset 6, -16
 4140 1b4b 4889E5   		movq	%rsp, %rbp
 4141              		.cfi_def_cfa_register 6
 4142 1b4e 4883EC10 		subq	$16, %rsp
 4143 1b52 48897DF8 		movq	%rdi, -8(%rbp)
 4144              	.LBB55:
 4145              		.loc 6 109 30
 4146 1b56 BF080000 		movl	$8, %edi
 4146      00
 4147 1b5b E8000000 		call	__cxa_allocate_exception@PLT
 4147      00
 4148              		.loc 6 109 24
 4149 1b60 488D1500 		leaq	.LC42(%rip), %rdx
 4149      000000
 4150 1b67 488910   		movq	%rdx, (%rax)
 4151              		.loc 6 109 30
 4152 1b6a BA000000 		movl	$0, %edx
 4152      00
 4153 1b6f 488D0D00 		leaq	_ZTIPKc(%rip), %rcx
 4153      000000
 4154 1b76 4889CE   		movq	%rcx, %rsi
 4155 1b79 4889C7   		movq	%rax, %rdi
 4156 1b7c E8000000 		call	__cxa_throw@PLT
 4156      00
 4157              	.LBE55:
 4158              		.cfi_endproc
 4159              	.LFE1230:
 4161              		.local	_ZN12_GLOBAL__N_124throwingFixtureTestList1E
 4162              		.comm	_ZN12_GLOBAL__N_124throwingFixtureTestList1E,16,16
 4163 1b81 90       		.align 2
 4165              	_ZN12_GLOBAL__N_148FixtureCtorThrowsFixtureCtorThrowsTestNameHelperC2ERKN8UnitTest11TestDetailsE:
 4166              	.LFB1233:
 110:TestTestMacros.cpp **** };
 111:TestTestMacros.cpp **** 
 112:TestTestMacros.cpp **** TestList throwingFixtureTestList1;
 113:TestTestMacros.cpp **** TEST_FIXTURE_EX(FixtureCtorThrows, FixtureCtorThrowsTestName, throwingFixtureTestList1)
 4167              		.loc 6 113 1
 4168              		.cfi_startproc
 4169 1b82 55       		pushq	%rbp
 4170              		.cfi_def_cfa_offset 16
 4171              		.cfi_offset 6, -16
 4172 1b83 4889E5   		movq	%rsp, %rbp
 4173              		.cfi_def_cfa_register 6
 4174 1b86 4883EC10 		subq	$16, %rsp
 4175 1b8a 48897DF8 		movq	%rdi, -8(%rbp)
 4176 1b8e 488975F0 		movq	%rsi, -16(%rbp)
 4177              	.LBB56:
 4178              		.loc 6 113 1
 4179 1b92 488B45F8 		movq	-8(%rbp), %rax
 4180 1b96 4889C7   		movq	%rax, %rdi
 4181 1b99 E8ACFFFF 		call	_ZN12_GLOBAL__N_117FixtureCtorThrowsC2Ev
 4181      FF
 4182 1b9e 488B45F8 		movq	-8(%rbp), %rax
 4183 1ba2 488B55F0 		movq	-16(%rbp), %rdx
 4184 1ba6 488910   		movq	%rdx, (%rax)
 4185              	.LBE56:
 4186 1ba9 90       		nop
 4187 1baa C9       		leave
 4188              		.cfi_def_cfa 7, 8
 4189 1bab C3       		ret
 4190              		.cfi_endproc
 4191              	.LFE1233:
 4193              		.set	_ZN12_GLOBAL__N_148FixtureCtorThrowsFixtureCtorThrowsTestNameHelperC1ERKN8UnitTest11TestDetai
 4194              		.section	.rodata
 4195              	.LC43:
 4196 077c 46697874 		.string	"FixtureCtorThrowsTestName"
 4196      75726543 
 4196      746F7254 
 4196      68726F77 
 4196      73546573 
 4197              		.text
 4198              		.align 2
 4200              	_ZN12_GLOBAL__N_146TestFixtureCtorThrowsFixtureCtorThrowsTestNameC2Ev:
 4201              	.LFB1236:
 4202              		.loc 6 113 1
 4203              		.cfi_startproc
 4204 1bac 55       		pushq	%rbp
 4205              		.cfi_def_cfa_offset 16
 4206              		.cfi_offset 6, -16
 4207 1bad 4889E5   		movq	%rsp, %rbp
 4208              		.cfi_def_cfa_register 6
 4209 1bb0 53       		pushq	%rbx
 4210 1bb1 4883EC18 		subq	$24, %rsp
 4211              		.cfi_offset 3, -24
 4212 1bb5 48897DE8 		movq	%rdi, -24(%rbp)
 4213              	.LBB57:
 4214              		.loc 6 113 1
 4215 1bb9 488B5DE8 		movq	-24(%rbp), %rbx
 4216 1bbd E8000000 		call	_ZN13UnitTestSuite12GetSuiteNameEv
 4216      00
 4217 1bc2 4889C2   		movq	%rax, %rdx
 4218 1bc5 41B87100 		movl	$113, %r8d
 4218      0000
 4219 1bcb 488D0500 		leaq	.LC2(%rip), %rax
 4219      000000
 4220 1bd2 4889C1   		movq	%rax, %rcx
 4221 1bd5 488D0500 		leaq	.LC43(%rip), %rax
 4221      000000
 4222 1bdc 4889C6   		movq	%rax, %rsi
 4223 1bdf 4889DF   		movq	%rbx, %rdi
 4224 1be2 E8000000 		call	_ZN8UnitTest4TestC2EPKcS2_S2_i@PLT
 4224      00
 4225 1be7 488D1500 		leaq	16+_ZTVN12_GLOBAL__N_146TestFixtureCtorThrowsFixtureCtorThrowsTestNameE(%rip), %rdx
 4225      000000
 4226 1bee 488B45E8 		movq	-24(%rbp), %rax
 4227 1bf2 488910   		movq	%rdx, (%rax)
 4228              	.LBE57:
 4229 1bf5 90       		nop
 4230 1bf6 488B5DF8 		movq	-8(%rbp), %rbx
 4231 1bfa C9       		leave
 4232              		.cfi_def_cfa 7, 8
 4233 1bfb C3       		ret
 4234              		.cfi_endproc
 4235              	.LFE1236:
 4237              		.set	_ZN12_GLOBAL__N_146TestFixtureCtorThrowsFixtureCtorThrowsTestNameC1Ev,_ZN12_GLOBAL__N_146Test
 4238              		.local	_ZN12_GLOBAL__N_154testFixtureCtorThrowsFixtureCtorThrowsTestNameInstanceE
 4239              		.comm	_ZN12_GLOBAL__N_154testFixtureCtorThrowsFixtureCtorThrowsTestNameInstanceE,56,32
 4240              		.local	_ZN12_GLOBAL__N_147adderFixtureCtorThrowsFixtureCtorThrowsTestNameE
 4241              		.comm	_ZN12_GLOBAL__N_147adderFixtureCtorThrowsFixtureCtorThrowsTestNameE,1,1
 4242              		.section	.rodata
 4243 0796 0000     		.align 8
 4244              	.LC44:
 4245 0798 556E6861 		.string	"Unhandled exception while destroying fixture FixtureCtorThrows"
 4245      6E646C65 
 4245      64206578 
 4245      63657074 
 4245      696F6E20 
 4246 07d7 00       		.align 8
 4247              	.LC45:
 4248 07d8 556E6861 		.string	"Unhandled exception while constructing fixture FixtureCtorThrows"
 4248      6E646C65 
 4248      64206578 
 4248      63657074 
 4248      696F6E20 
 4249              		.text
 4250              		.align 2
 4252              	_ZNK12_GLOBAL__N_146TestFixtureCtorThrowsFixtureCtorThrowsTestName7RunImplEv:
 4253              	.LFB1238:
 4254              		.loc 6 113 1
 4255              		.cfi_startproc
 4256              		.cfi_personality 0x9b,DW.ref.__gxx_personality_v0
 4257              		.cfi_lsda 0x1b,.LLSDA1238
 4258 1bfc F30F1EFA 		endbr64
 4259 1c00 55       		pushq	%rbp
 4260              		.cfi_def_cfa_offset 16
 4261              		.cfi_offset 6, -16
 4262 1c01 4889E5   		movq	%rsp, %rbp
 4263              		.cfi_def_cfa_register 6
 4264 1c04 4155     		pushq	%r13
 4265 1c06 4154     		pushq	%r12
 4266 1c08 53       		pushq	%rbx
 4267 1c09 4881ECF8 		subq	$504, %rsp
 4267      010000
 4268              		.cfi_offset 13, -24
 4269              		.cfi_offset 12, -32
 4270              		.cfi_offset 3, -40
 4271 1c10 4889BDF8 		movq	%rdi, -520(%rbp)
 4271      FDFFFF
 4272              		.loc 6 113 1
 4273 1c17 64488B04 		movq	%fs:40, %rax
 4273      25280000 
 4273      00
 4274 1c20 488945D8 		movq	%rax, -40(%rbp)
 4275 1c24 31C0     		xorl	%eax, %eax
 4276 1c26 C6850FFE 		movb	$0, -497(%rbp)
 4276      FFFF00
 4277              	.LBB58:
 4278 1c2d 488B85F8 		movq	-520(%rbp), %rax
 4278      FDFFFF
 4279 1c34 488D5008 		leaq	8(%rax), %rdx
 4280 1c38 488D8520 		leaq	-480(%rbp), %rax
 4280      FEFFFF
 4281 1c3f 4889D6   		movq	%rdx, %rsi
 4282 1c42 4889C7   		movq	%rax, %rdi
 4283              	.LEHB86:
 4284 1c45 E838FFFF 		call	_ZN12_GLOBAL__N_148FixtureCtorThrowsFixtureCtorThrowsTestNameHelperC1ERKN8UnitTest11TestDetai
 4284      FF
 4285              		.loc 6 113 1 is_stmt 0 discriminator 1
 4286 1c4a C6850FFE 		movb	$1, -497(%rbp)
 4286      FFFF01
 4287 1c51 488B85F8 		movq	-520(%rbp), %rax
 4287      FDFFFF
 4288 1c58 488D5008 		leaq	8(%rax), %rdx
 4289 1c5c 488D8520 		leaq	-480(%rbp), %rax
 4289      FEFFFF
 4290 1c63 4889D6   		movq	%rdx, %rsi
 4291 1c66 4889C7   		movq	%rax, %rdi
 4292 1c69 E81F2200 		call	_ZN8UnitTest11ExecuteTestIN12_GLOBAL__N_148FixtureCtorThrowsFixtureCtorThrowsTestNameHelperEE
 4292      00
 4293              	.LEHE86:
 4294              	.LBE58:
 4295              		.loc 6 113 1
 4296 1c6e E9630200 		jmp	.L198
 4296      00
 4297              	.L211:
 4298 1c73 F30F1EFA 		endbr64
 4299 1c77 4883FA01 		cmpq	$1, %rdx
 4300 1c7b 740F     		je	.L200
 4301 1c7d 4883FA02 		cmpq	$2, %rdx
 4302 1c81 0F84A700 		je	.L201
 4302      0000
 4303 1c87 E94D0100 		jmp	.L216
 4303      00
 4304              	.L200:
 4305              	.LBB59:
 4306              		.loc 6 113 1 discriminator 2
 4307 1c8c 4889C7   		movq	%rax, %rdi
 4308 1c8f E8000000 		call	__cxa_begin_catch@PLT
 4308      00
 4309 1c94 48898518 		movq	%rax, -488(%rbp)
 4309      FEFFFF
 4310              	.LEHB87:
 4311 1c9b E8000000 		call	_ZN8UnitTest11CurrentTest7ResultsEv@PLT
 4311      00
 4312 1ca0 488B18   		movq	(%rax), %rbx
 4313 1ca3 488B8518 		movq	-488(%rbp), %rax
 4313      FEFFFF
 4314 1caa 488B00   		movq	(%rax), %rax
 4315 1cad 4883C010 		addq	$16, %rax
 4316 1cb1 488B10   		movq	(%rax), %rdx
 4317 1cb4 488B8518 		movq	-488(%rbp), %rax
 4317      FEFFFF
 4318 1cbb 4889C7   		movq	%rax, %rdi
 4319 1cbe FFD2     		call	*%rdx
 4320              	.LVL8:
 4321 1cc0 4989C4   		movq	%rax, %r12
 4322 1cc3 488B8518 		movq	-488(%rbp), %rax
 4322      FEFFFF
 4323 1cca 4889C7   		movq	%rax, %rdi
 4324 1ccd E8000000 		call	_ZNK8UnitTest15AssertException10LineNumberEv@PLT
 4324      00
 4325              		.loc 6 113 1 discriminator 6
 4326 1cd2 4189C5   		movl	%eax, %r13d
 4327 1cd5 488B8518 		movq	-488(%rbp), %rax
 4327      FEFFFF
 4328 1cdc 4889C7   		movq	%rax, %rdi
 4329 1cdf E8000000 		call	_ZNK8UnitTest15AssertException8FilenameEv@PLT
 4329      00
 4330              		.loc 6 113 1 discriminator 8
 4331 1ce4 4889C1   		movq	%rax, %rcx
 4332 1ce7 488B85F8 		movq	-520(%rbp), %rax
 4332      FDFFFF
 4333 1cee 488B5008 		movq	8(%rax), %rdx
 4334 1cf2 488B85F8 		movq	-520(%rbp), %rax
 4334      FDFFFF
 4335 1cf9 488B7010 		movq	16(%rax), %rsi
 4336 1cfd 488D8520 		leaq	-480(%rbp), %rax
 4336      FEFFFF
 4337 1d04 4589E8   		movl	%r13d, %r8d
 4338 1d07 4889C7   		movq	%rax, %rdi
 4339 1d0a E8000000 		call	_ZN8UnitTest11TestDetailsC1EPKcS2_S2_i@PLT
 4339      00
 4340              		.loc 6 113 1 discriminator 12
 4341 1d0f 488D8520 		leaq	-480(%rbp), %rax
 4341      FEFFFF
 4342 1d16 4C89E2   		movq	%r12, %rdx
 4343 1d19 4889C6   		movq	%rax, %rsi
 4344 1d1c 4889DF   		movq	%rbx, %rdi
 4345 1d1f E8000000 		call	_ZN8UnitTest11TestResults13OnTestFailureERKNS_11TestDetailsEPKc@PLT
 4345      00
 4346              	.LEHE87:
 4347              		.loc 6 113 1 discriminator 14
 4348 1d24 E8000000 		call	__cxa_end_catch@PLT
 4348      00
 4349              	.LBE59:
 4350 1d29 E9A80100 		jmp	.L198
 4350      00
 4351              	.L201:
 4352              	.LBB60:
 4353              		.loc 6 113 1 discriminator 3
 4354 1d2e 4889C7   		movq	%rax, %rdi
 4355 1d31 E8000000 		call	__cxa_begin_catch@PLT
 4355      00
 4356 1d36 48898510 		movq	%rax, -496(%rbp)
 4356      FEFFFF
 4357              	.LBB61:
 4358 1d3d 488D8540 		leaq	-448(%rbp), %rax
 4358      FEFFFF
 4359 1d44 4889C7   		movq	%rax, %rdi
 4360              	.LEHB88:
 4361 1d47 E8000000 		call	_ZN8UnitTest15MemoryOutStreamC1Ev
 4361      00
 4362              	.LEHE88:
 4363              		.loc 6 113 1 discriminator 16
 4364 1d4c 488D8540 		leaq	-448(%rbp), %rax
 4364      FEFFFF
 4365 1d53 488D1500 		leaq	.LC11(%rip), %rdx
 4365      000000
 4366 1d5a 4889D6   		movq	%rdx, %rsi
 4367 1d5d 4889C7   		movq	%rax, %rdi
 4368              	.LEHB89:
 4369 1d60 E8000000 		call	_ZStlsISt11char_traitsIcEERSt13basic_ostreamIcT_ES5_PKc@PLT
 4369      00
 4370 1d65 4889C3   		movq	%rax, %rbx
 4371 1d68 488B8510 		movq	-496(%rbp), %rax
 4371      FEFFFF
 4372 1d6f 488B00   		movq	(%rax), %rax
 4373 1d72 4883C010 		addq	$16, %rax
 4374 1d76 488B10   		movq	(%rax), %rdx
 4375 1d79 488B8510 		movq	-496(%rbp), %rax
 4375      FEFFFF
 4376 1d80 4889C7   		movq	%rax, %rdi
 4377 1d83 FFD2     		call	*%rdx
 4378              	.LVL9:
 4379 1d85 4889C6   		movq	%rax, %rsi
 4380 1d88 4889DF   		movq	%rbx, %rdi
 4381 1d8b E8000000 		call	_ZStlsISt11char_traitsIcEERSt13basic_ostreamIcT_ES5_PKc@PLT
 4381      00
 4382              		.loc 6 113 1 discriminator 20
 4383 1d90 E8000000 		call	_ZN8UnitTest11CurrentTest7ResultsEv@PLT
 4383      00
 4384 1d95 488B18   		movq	(%rax), %rbx
 4385 1d98 488D8540 		leaq	-448(%rbp), %rax
 4385      FEFFFF
 4386 1d9f 4889C7   		movq	%rax, %rdi
 4387 1da2 E8000000 		call	_ZNK8UnitTest15MemoryOutStream7GetTextEv@PLT
 4387      00
 4388              		.loc 6 113 1 discriminator 22
 4389 1da7 4889C2   		movq	%rax, %rdx
 4390 1daa 488B85F8 		movq	-520(%rbp), %rax
 4390      FDFFFF
 4391 1db1 4883C008 		addq	$8, %rax
 4392 1db5 4889C6   		movq	%rax, %rsi
 4393 1db8 4889DF   		movq	%rbx, %rdi
 4394 1dbb E8000000 		call	_ZN8UnitTest11TestResults13OnTestFailureERKNS_11TestDetailsEPKc@PLT
 4394      00
 4395              	.LEHE89:
 4396              		.loc 6 113 1 discriminator 26
 4397 1dc0 488D8540 		leaq	-448(%rbp), %rax
 4397      FEFFFF
 4398 1dc7 4889C7   		movq	%rax, %rdi
 4399              	.LEHB90:
 4400 1dca E8000000 		call	_ZN8UnitTest15MemoryOutStreamD1Ev
 4400      00
 4401              	.LEHE90:
 4402              	.LBE61:
 4403              		.loc 6 113 1 discriminator 27
 4404 1dcf E8000000 		call	__cxa_end_catch@PLT
 4404      00
 4405              	.LBE60:
 4406 1dd4 E9FD0000 		jmp	.L198
 4406      00
 4407              	.L216:
 4408              		.loc 6 113 1 discriminator 4
 4409 1dd9 4889C7   		movq	%rax, %rdi
 4410 1ddc E8000000 		call	__cxa_begin_catch@PLT
 4410      00
 4411 1de1 80BD0FFE 		cmpb	$0, -497(%rbp)
 4411      FFFF00
 4412 1de8 7445     		je	.L204
 4413              	.LEHB91:
 4414              		.loc 6 113 1 discriminator 29
 4415 1dea E8000000 		call	_ZN8UnitTest11CurrentTest7ResultsEv@PLT
 4415      00
 4416 1def 488B18   		movq	(%rax), %rbx
 4417 1df2 488B85F8 		movq	-520(%rbp), %rax
 4417      FDFFFF
 4418 1df9 488D4808 		leaq	8(%rax), %rcx
 4419 1dfd 488D8520 		leaq	-480(%rbp), %rax
 4419      FEFFFF
 4420 1e04 BA710000 		movl	$113, %edx
 4420      00
 4421 1e09 4889CE   		movq	%rcx, %rsi
 4422 1e0c 4889C7   		movq	%rax, %rdi
 4423 1e0f E8000000 		call	_ZN8UnitTest11TestDetailsC1ERKS0_i@PLT
 4423      00
 4424              		.loc 6 113 1 discriminator 34
 4425 1e14 488D8520 		leaq	-480(%rbp), %rax
 4425      FEFFFF
 4426 1e1b 488D1500 		leaq	.LC44(%rip), %rdx
 4426      000000
 4427 1e22 4889C6   		movq	%rax, %rsi
 4428 1e25 4889DF   		movq	%rbx, %rdi
 4429 1e28 E8000000 		call	_ZN8UnitTest11TestResults13OnTestFailureERKNS_11TestDetailsEPKc@PLT
 4429      00
 4430 1e2d EB43     		jmp	.L205
 4431              	.L204:
 4432              		.loc 6 113 1 discriminator 30
 4433 1e2f E8000000 		call	_ZN8UnitTest11CurrentTest7ResultsEv@PLT
 4433      00
 4434 1e34 488B18   		movq	(%rax), %rbx
 4435 1e37 488B85F8 		movq	-520(%rbp), %rax
 4435      FDFFFF
 4436 1e3e 488D4808 		leaq	8(%rax), %rcx
 4437 1e42 488D8520 		leaq	-480(%rbp), %rax
 4437      FEFFFF
 4438 1e49 BA710000 		movl	$113, %edx
 4438      00
 4439 1e4e 4889CE   		movq	%rcx, %rsi
 4440 1e51 4889C7   		movq	%rax, %rdi
 4441 1e54 E8000000 		call	_ZN8UnitTest11TestDetailsC1ERKS0_i@PLT
 4441      00
 4442              		.loc 6 113 1 discriminator 41
 4443 1e59 488D8520 		leaq	-480(%rbp), %rax
 4443      FEFFFF
 4444 1e60 488D1500 		leaq	.LC45(%rip), %rdx
 4444      000000
 4445 1e67 4889C6   		movq	%rax, %rsi
 4446 1e6a 4889DF   		movq	%rbx, %rdi
 4447 1e6d E8000000 		call	_ZN8UnitTest11TestResults13OnTestFailureERKNS_11TestDetailsEPKc@PLT
 4447      00
 4448              	.LEHE91:
 4449              	.L205:
 4450              	.LEHB92:
 4451              		.loc 6 113 1 discriminator 44
 4452 1e72 E8000000 		call	__cxa_end_catch@PLT
 4452      00
 4453 1e77 EB5D     		jmp	.L198
 4454              	.L212:
 4455 1e79 F30F1EFA 		endbr64
 4456              	.LBB63:
 4457              		.loc 6 113 1
 4458 1e7d 4889C3   		movq	%rax, %rbx
 4459 1e80 E8000000 		call	__cxa_end_catch@PLT
 4459      00
 4460 1e85 4889D8   		movq	%rbx, %rax
 4461 1e88 4889C7   		movq	%rax, %rdi
 4462 1e8b E8000000 		call	_Unwind_Resume@PLT
 4462      00
 4463              	.LEHE92:
 4464              	.L214:
 4465 1e90 F30F1EFA 		endbr64
 4466              	.LBE63:
 4467              	.LBB64:
 4468              	.LBB62:
 4469 1e94 4889C3   		movq	%rax, %rbx
 4470 1e97 488D8540 		leaq	-448(%rbp), %rax
 4470      FEFFFF
 4471 1e9e 4889C7   		movq	%rax, %rdi
 4472 1ea1 E8000000 		call	_ZN8UnitTest15MemoryOutStreamD1Ev
 4472      00
 4473 1ea6 EB07     		jmp	.L208
 4474              	.L213:
 4475 1ea8 F30F1EFA 		endbr64
 4476              	.LBE62:
 4477 1eac 4889C3   		movq	%rax, %rbx
 4478              	.L208:
 4479 1eaf E8000000 		call	__cxa_end_catch@PLT
 4479      00
 4480 1eb4 4889D8   		movq	%rbx, %rax
 4481 1eb7 4889C7   		movq	%rax, %rdi
 4482              	.LEHB93:
 4483 1eba E8000000 		call	_Unwind_Resume@PLT
 4483      00
 4484              	.LEHE93:
 4485              	.L215:
 4486 1ebf F30F1EFA 		endbr64
 4487              	.LBE64:
 4488 1ec3 4889C3   		movq	%rax, %rbx
 4489 1ec6 E8000000 		call	__cxa_end_catch@PLT
 4489      00
 4490 1ecb 4889D8   		movq	%rbx, %rax
 4491 1ece 4889C7   		movq	%rax, %rdi
 4492              	.LEHB94:
 4493 1ed1 E8000000 		call	_Unwind_Resume@PLT
 4493      00
 4494              	.LEHE94:
 4495              	.L198:
 4496 1ed6 488B45D8 		movq	-40(%rbp), %rax
 4497 1eda 64482B04 		subq	%fs:40, %rax
 4497      25280000 
 4497      00
 4498 1ee3 7405     		je	.L210
 4499 1ee5 E8000000 		call	__stack_chk_fail@PLT
 4499      00
 4500              	.L210:
 4501 1eea 4881C4F8 		addq	$504, %rsp
 4501      010000
 4502 1ef1 5B       		popq	%rbx
 4503 1ef2 415C     		popq	%r12
 4504 1ef4 415D     		popq	%r13
 4505 1ef6 5D       		popq	%rbp
 4506              		.cfi_def_cfa 7, 8
 4507 1ef7 C3       		ret
 4508              		.cfi_endproc
 4509              	.LFE1238:
 4510              		.section	.gcc_except_table
 4511              		.align 4
 4512              	.LLSDA1238:
 4513 025c FF       		.byte	0xff
 4514 025d 9B       		.byte	0x9b
 4515 025e 49       		.uleb128 .LLSDATT1238-.LLSDATTD1238
 4516              	.LLSDATTD1238:
 4517 025f 01       		.byte	0x1
 4518 0260 33       		.uleb128 .LLSDACSE1238-.LLSDACSB1238
 4519              	.LLSDACSB1238:
 4520 0261 49       		.uleb128 .LEHB86-.LFB1238
 4521 0262 29       		.uleb128 .LEHE86-.LEHB86
 4522 0263 77       		.uleb128 .L211-.LFB1238
 4523 0264 05       		.uleb128 0x5
 4524 0265 9F01     		.uleb128 .LEHB87-.LFB1238
 4525 0267 8901     		.uleb128 .LEHE87-.LEHB87
 4526 0269 FD04     		.uleb128 .L212-.LFB1238
 4527 026b 00       		.uleb128 0
 4528 026c CB02     		.uleb128 .LEHB88-.LFB1238
 4529 026e 05       		.uleb128 .LEHE88-.LEHB88
 4530 026f AC05     		.uleb128 .L213-.LFB1238
 4531 0271 00       		.uleb128 0
 4532 0272 E402     		.uleb128 .LEHB89-.LFB1238
 4533 0274 60       		.uleb128 .LEHE89-.LEHB89
 4534 0275 9405     		.uleb128 .L214-.LFB1238
 4535 0277 00       		.uleb128 0
 4536 0278 CE03     		.uleb128 .LEHB90-.LFB1238
 4537 027a 05       		.uleb128 .LEHE90-.LEHB90
 4538 027b AC05     		.uleb128 .L213-.LFB1238
 4539 027d 00       		.uleb128 0
 4540 027e EE03     		.uleb128 .LEHB91-.LFB1238
 4541 0280 8801     		.uleb128 .LEHE91-.LEHB91
 4542 0282 C305     		.uleb128 .L215-.LFB1238
 4543 0284 00       		.uleb128 0
 4544 0285 F604     		.uleb128 .LEHB92-.LFB1238
 4545 0287 1E       		.uleb128 .LEHE92-.LEHB92
 4546 0288 00       		.uleb128 0
 4547 0289 00       		.uleb128 0
 4548 028a BE05     		.uleb128 .LEHB93-.LFB1238
 4549 028c 05       		.uleb128 .LEHE93-.LEHB93
 4550 028d 00       		.uleb128 0
 4551 028e 00       		.uleb128 0
 4552 028f D505     		.uleb128 .LEHB94-.LFB1238
 4553 0291 05       		.uleb128 .LEHE94-.LEHB94
 4554 0292 00       		.uleb128 0
 4555 0293 00       		.uleb128 0
 4556              	.LLSDACSE1238:
 4557 0294 03       		.byte	0x3
 4558 0295 00       		.byte	0
 4559 0296 02       		.byte	0x2
 4560 0297 7D       		.byte	0x7d
 4561 0298 01       		.byte	0x1
 4562 0299 7D       		.byte	0x7d
 4563 029a 0000     		.align 4
 4564 029c 00000000 		.long	0
 4565              	
 4566 02a0 00000000 		.long	DW.ref._ZTISt9exception-.
 4567 02a4 00000000 		.long	DW.ref._ZTIN8UnitTest15AssertExceptionE-.
 4568              	.LLSDATT1238:
 4569              		.text
 4571              		.align 2
 4573              	_ZN12_GLOBAL__N_148FixtureCtorThrowsFixtureCtorThrowsTestNameHelper7RunImplEv:
 4574              	.LFB1239:
 114:TestTestMacros.cpp **** {
 4575              		.loc 6 114 1 is_stmt 1
 4576              		.cfi_startproc
 4577 1ef8 F30F1EFA 		endbr64
 4578 1efc 55       		pushq	%rbp
 4579              		.cfi_def_cfa_offset 16
 4580              		.cfi_offset 6, -16
 4581 1efd 4889E5   		movq	%rsp, %rbp
 4582              		.cfi_def_cfa_register 6
 4583 1f00 48897DF8 		movq	%rdi, -8(%rbp)
 115:TestTestMacros.cpp **** }
 4584              		.loc 6 115 1
 4585 1f04 90       		nop
 4586 1f05 5D       		popq	%rbp
 4587              		.cfi_def_cfa 7, 8
 4588 1f06 C3       		ret
 4589              		.cfi_endproc
 4590              	.LFE1239:
 4592              		.section	.rodata
 4593 0819 00000000 		.align 8
 4593      000000
 4594              	.LC46:
 4595 0820 46697874 		.string	"FixturesWithThrowingCtorsAreFailures"
 4595      75726573 
 4595      57697468 
 4595      5468726F 
 4595      77696E67 
 4596              		.text
 4597 1f07 90       		.align 2
 4599              	_ZN12_GLOBAL__N_140TestFixturesWithThrowingCtorsAreFailuresC2Ev:
 4600              	.LFB1241:
 116:TestTestMacros.cpp **** 
 117:TestTestMacros.cpp **** TEST(FixturesWithThrowingCtorsAreFailures)
 4601              		.loc 6 117 1
 4602              		.cfi_startproc
 4603 1f08 55       		pushq	%rbp
 4604              		.cfi_def_cfa_offset 16
 4605              		.cfi_offset 6, -16
 4606 1f09 4889E5   		movq	%rsp, %rbp
 4607              		.cfi_def_cfa_register 6
 4608 1f0c 53       		pushq	%rbx
 4609 1f0d 4883EC18 		subq	$24, %rsp
 4610              		.cfi_offset 3, -24
 4611 1f11 48897DE8 		movq	%rdi, -24(%rbp)
 4612              	.LBB65:
 4613              		.loc 6 117 1
 4614 1f15 488B5DE8 		movq	-24(%rbp), %rbx
 4615 1f19 E8000000 		call	_ZN13UnitTestSuite12GetSuiteNameEv
 4615      00
 4616 1f1e 4889C2   		movq	%rax, %rdx
 4617 1f21 41B87500 		movl	$117, %r8d
 4617      0000
 4618 1f27 488D0500 		leaq	.LC2(%rip), %rax
 4618      000000
 4619 1f2e 4889C1   		movq	%rax, %rcx
 4620 1f31 488D0500 		leaq	.LC46(%rip), %rax
 4620      000000
 4621 1f38 4889C6   		movq	%rax, %rsi
 4622 1f3b 4889DF   		movq	%rbx, %rdi
 4623 1f3e E8000000 		call	_ZN8UnitTest4TestC2EPKcS2_S2_i@PLT
 4623      00
 4624 1f43 488D1500 		leaq	16+_ZTVN12_GLOBAL__N_140TestFixturesWithThrowingCtorsAreFailuresE(%rip), %rdx
 4624      000000
 4625 1f4a 488B45E8 		movq	-24(%rbp), %rax
 4626 1f4e 488910   		movq	%rdx, (%rax)
 4627              	.LBE65:
 4628 1f51 90       		nop
 4629 1f52 488B5DF8 		movq	-8(%rbp), %rbx
 4630 1f56 C9       		leave
 4631              		.cfi_def_cfa 7, 8
 4632 1f57 C3       		ret
 4633              		.cfi_endproc
 4634              	.LFE1241:
 4636              		.set	_ZN12_GLOBAL__N_140TestFixturesWithThrowingCtorsAreFailuresC1Ev,_ZN12_GLOBAL__N_140TestFixtur
 4637              		.local	_ZN12_GLOBAL__N_148testFixturesWithThrowingCtorsAreFailuresInstanceE
 4638              		.comm	_ZN12_GLOBAL__N_148testFixturesWithThrowingCtorsAreFailuresInstanceE,56,32
 4639              		.local	_ZN12_GLOBAL__N_141adderFixturesWithThrowingCtorsAreFailuresE
 4640              		.comm	_ZN12_GLOBAL__N_141adderFixturesWithThrowingCtorsAreFailuresE,1,1
 4641              		.section	.rodata
 4642 0845 000000   		.align 8
 4643              	.LC47:
 4644 0848 7468726F 		.string	"throwingFixtureTestList1.GetHead() != NULL"
 4644      77696E67 
 4644      46697874 
 4644      75726554 
 4644      6573744C 
 4645              	.LC48:
 4646 0873 7768696C 		.string	"while constructing fixture"
 4646      6520636F 
 4646      6E737472 
 4646      75637469 
 4646      6E672066 
 4647 088e 0000     		.align 8
 4648              	.LC49:
 4649 0890 73747273 		.string	"strstr(reporter.lastFailedMessage, \"while constructing fixture\")"
 4649      74722872 
 4649      65706F72 
 4649      7465722E 
 4649      6C617374 
 4650 08d1 00000000 		.align 8
 4650      000000
 4651              	.LC50:
 4652 08d8 556E6861 		.string	"Unhandled exception in CHECK(throwingFixtureTestList1.GetHead() != NULL)"
 4652      6E646C65 
 4652      64206578 
 4652      63657074 
 4652      696F6E20 
 4653 0921 00000000 		.align 8
 4653      000000
 4654              	.LC51:
 4655 0928 556E6861 		.string	"Unhandled exception in CHECK_EQUAL(1, failureCount)"
 4655      6E646C65 
 4655      64206578 
 4655      63657074 
 4655      696F6E20 
 4656 095c 00000000 		.align 8
 4657              	.LC52:
 4658 0960 556E6861 		.string	"Unhandled exception in CHECK(strstr(reporter.lastFailedMessage, \"while constructing fixt
 4658      6E646C65 
 4658      64206578 
 4658      63657074 
 4658      696F6E20 
 4659              		.text
 4660              		.align 2
 4662              	_ZNK12_GLOBAL__N_140TestFixturesWithThrowingCtorsAreFailures7RunImplEv:
 4663              	.LFB1243:
 118:TestTestMacros.cpp **** {
 4664              		.loc 6 118 1
 4665              		.cfi_startproc
 4666              		.cfi_personality 0x9b,DW.ref.__gxx_personality_v0
 4667              		.cfi_lsda 0x1b,.LLSDA1243
 4668 1f58 F30F1EFA 		endbr64
 4669 1f5c 55       		pushq	%rbp
 4670              		.cfi_def_cfa_offset 16
 4671              		.cfi_offset 6, -16
 4672 1f5d 4889E5   		movq	%rsp, %rbp
 4673              		.cfi_def_cfa_register 6
 4674 1f60 53       		pushq	%rbx
 4675 1f61 4881ECA8 		subq	$2216, %rsp
 4675      080000
 4676              		.cfi_offset 3, -24
 4677 1f68 4889BD58 		movq	%rdi, -2216(%rbp)
 4677      F7FFFF
 4678              		.loc 6 118 1
 4679 1f6f 64488B04 		movq	%fs:40, %rax
 4679      25280000 
 4679      00
 4680 1f78 488945E8 		movq	%rax, -24(%rbp)
 4681 1f7c 31C0     		xorl	%eax, %eax
 119:TestTestMacros.cpp **** 	CHECK(throwingFixtureTestList1.GetHead() != NULL);
 4682              		.loc 6 119 2
 4683 1f7e 488D0500 		leaq	_ZN12_GLOBAL__N_124throwingFixtureTestList1E(%rip), %rax
 4683      000000
 4684 1f85 4889C7   		movq	%rax, %rdi
 4685              	.LEHB95:
 4686 1f88 E8000000 		call	_ZNK8UnitTest8TestList7GetHeadEv@PLT
 4686      00
 4687 1f8d 4885C0   		testq	%rax, %rax
 4688 1f90 0F95C0   		setne	%al
 4689 1f93 0FB6C0   		movzbl	%al, %eax
 4690 1f96 89C7     		movl	%eax, %edi
 4691 1f98 E8000000 		call	_ZN8UnitTest5CheckIbEEbT_
 4691      00
 4692 1f9d 83F001   		xorl	$1, %eax
 4693 1fa0 84C0     		testb	%al, %al
 4694 1fa2 7440     		je	.L220
 4695              		.loc 6 119 2 is_stmt 0 discriminator 3
 4696 1fa4 E8000000 		call	_ZN8UnitTest11CurrentTest7ResultsEv@PLT
 4696      00
 4697 1fa9 488B18   		movq	(%rax), %rbx
 4698 1fac E8000000 		call	_ZN8UnitTest11CurrentTest7DetailsEv@PLT
 4698      00
 4699              		.loc 6 119 2 discriminator 5
 4700 1fb1 488B08   		movq	(%rax), %rcx
 4701 1fb4 488D8590 		leaq	-2160(%rbp), %rax
 4701      F7FFFF
 4702 1fbb BA770000 		movl	$119, %edx
 4702      00
 4703 1fc0 4889CE   		movq	%rcx, %rsi
 4704 1fc3 4889C7   		movq	%rax, %rdi
 4705 1fc6 E8000000 		call	_ZN8UnitTest11TestDetailsC1ERKS0_i@PLT
 4705      00
 4706              		.loc 6 119 2 discriminator 9
 4707 1fcb 488D8590 		leaq	-2160(%rbp), %rax
 4707      F7FFFF
 4708 1fd2 488D1500 		leaq	.LC47(%rip), %rdx
 4708      000000
 4709 1fd9 4889C6   		movq	%rax, %rsi
 4710 1fdc 4889DF   		movq	%rbx, %rdi
 4711 1fdf E8000000 		call	_ZN8UnitTest11TestResults13OnTestFailureERKNS_11TestDetailsEPKc@PLT
 4711      00
 4712              	.LEHE95:
 4713              	.L220:
 120:TestTestMacros.cpp **** 	RecordingReporter reporter;
 4714              		.loc 6 120 20 is_stmt 1
 4715 1fe4 488D85B0 		leaq	-2128(%rbp), %rax
 4715      F7FFFF
 4716 1feb 4889C7   		movq	%rax, %rdi
 4717 1fee E8000000 		call	_ZN17RecordingReporterC1Ev
 4717      00
 121:TestTestMacros.cpp **** 	TestResults result(&reporter);
 4718              		.loc 6 121 30
 4719 1ff3 488D95B0 		leaq	-2128(%rbp), %rdx
 4719      F7FFFF
 4720 1ffa 488D8570 		leaq	-2192(%rbp), %rax
 4720      F7FFFF
 4721 2001 4889D6   		movq	%rdx, %rsi
 4722 2004 4889C7   		movq	%rax, %rdi
 4723              	.LEHB96:
 4724 2007 E8000000 		call	_ZN8UnitTest11TestResultsC1EPNS_12TestReporterE@PLT
 4724      00
 4725              	.LBB66:
 122:TestTestMacros.cpp **** 	{
 123:TestTestMacros.cpp **** 		ScopedCurrentTest scopedResult(result);
 4726              		.loc 6 123 40
 4727 200c 488D8D70 		leaq	-2192(%rbp), %rcx
 4727      F7FFFF
 4728 2013 488D8590 		leaq	-2160(%rbp), %rax
 4728      F7FFFF
 4729 201a BA000000 		movl	$0, %edx
 4729      00
 4730 201f 4889CE   		movq	%rcx, %rsi
 4731 2022 4889C7   		movq	%rax, %rdi
 4732 2025 E8000000 		call	_ZN17ScopedCurrentTestC1ERN8UnitTest11TestResultsEPKNS0_11TestDetailsE
 4732      00
 4733              	.LEHE96:
 124:TestTestMacros.cpp **** 		throwingFixtureTestList1.GetHead()->Run();
 4734              		.loc 6 124 42
 4735 202a 488D0500 		leaq	_ZN12_GLOBAL__N_124throwingFixtureTestList1E(%rip), %rax
 4735      000000
 4736 2031 4889C7   		movq	%rax, %rdi
 4737              	.LEHB97:
 4738 2034 E8000000 		call	_ZNK8UnitTest8TestList7GetHeadEv@PLT
 4738      00
 4739 2039 4889C7   		movq	%rax, %rdi
 4740 203c E8000000 		call	_ZN8UnitTest4Test3RunEv@PLT
 4740      00
 4741              	.LEHE97:
 125:TestTestMacros.cpp **** 	}
 4742              		.loc 6 125 2
 4743 2041 488D8590 		leaq	-2160(%rbp), %rax
 4743      F7FFFF
 4744 2048 4889C7   		movq	%rax, %rdi
 4745              	.LEHB98:
 4746 204b E8000000 		call	_ZN17ScopedCurrentTestD1Ev
 4746      00
 4747              	.LBE66:
 126:TestTestMacros.cpp **** 
 127:TestTestMacros.cpp **** 	int const failureCount = result.GetFailedTestCount();
 4748              		.loc 6 127 52
 4749 2050 488D8570 		leaq	-2192(%rbp), %rax
 4749      F7FFFF
 4750 2057 4889C7   		movq	%rax, %rdi
 4751 205a E8000000 		call	_ZNK8UnitTest11TestResults18GetFailedTestCountEv@PLT
 4751      00
 4752              	.LEHE98:
 4753              		.loc 6 127 53
 4754 205f 898568F7 		movl	%eax, -2200(%rbp)
 4754      FFFF
 4755              	.LEHB99:
 128:TestTestMacros.cpp **** 	CHECK_EQUAL(1, failureCount);
 4756              		.loc 6 128 2
 4757 2065 E8000000 		call	_ZN8UnitTest11CurrentTest7DetailsEv@PLT
 4757      00
 4758              		.loc 6 128 2 is_stmt 0 discriminator 1
 4759 206a 488B08   		movq	(%rax), %rcx
 4760 206d 488D8590 		leaq	-2160(%rbp), %rax
 4760      F7FFFF
 4761 2074 BA800000 		movl	$128, %edx
 4761      00
 4762 2079 4889CE   		movq	%rcx, %rsi
 4763 207c 4889C7   		movq	%rax, %rdi
 4764 207f E8000000 		call	_ZN8UnitTest11TestDetailsC1ERKS0_i@PLT
 4764      00
 4765              		.loc 6 128 2 discriminator 4
 4766 2084 C7856CF7 		movl	$1, -2196(%rbp)
 4766      FFFF0100 
 4766      0000
 4767 208e E8000000 		call	_ZN8UnitTest11CurrentTest7ResultsEv@PLT
 4767      00
 4768 2093 488B00   		movq	(%rax), %rax
 4769 2096 488D8D90 		leaq	-2160(%rbp), %rcx
 4769      F7FFFF
 4770 209d 488D9568 		leaq	-2200(%rbp), %rdx
 4770      F7FFFF
 4771 20a4 488DB56C 		leaq	-2196(%rbp), %rsi
 4771      F7FFFF
 4772 20ab 4889C7   		movq	%rax, %rdi
 4773 20ae E8000000 		call	_ZN8UnitTest10CheckEqualIiiEEvRNS_11TestResultsERKT_RKT0_RKNS_11TestDetailsE
 4773      00
 4774              	.LEHE99:
 4775              	.L227:
 129:TestTestMacros.cpp **** 	CHECK(strstr(reporter.lastFailedMessage, "while constructing fixture"));
 4776              		.loc 6 129 2 is_stmt 1
 4777 20b3 488D85B0 		leaq	-2128(%rbp), %rax
 4777      F7FFFF
 4778 20ba 48051405 		addq	$1300, %rax
 4778      0000
 4779 20c0 488D1500 		leaq	.LC48(%rip), %rdx
 4779      000000
 4780 20c7 4889D6   		movq	%rdx, %rsi
 4781 20ca 4889C7   		movq	%rax, %rdi
 4782 20cd E8000000 		call	strstr@PLT
 4782      00
 4783 20d2 4889C7   		movq	%rax, %rdi
 4784 20d5 E8000000 		call	_ZN8UnitTest5CheckIPcEEbT_
 4784      00
 4785 20da 83F001   		xorl	$1, %eax
 4786 20dd 84C0     		testb	%al, %al
 4787 20df 7440     		je	.L221
 4788              	.LEHB100:
 4789              		.loc 6 129 2 is_stmt 0 discriminator 1
 4790 20e1 E8000000 		call	_ZN8UnitTest11CurrentTest7ResultsEv@PLT
 4790      00
 4791 20e6 488B18   		movq	(%rax), %rbx
 4792 20e9 E8000000 		call	_ZN8UnitTest11CurrentTest7DetailsEv@PLT
 4792      00
 4793              		.loc 6 129 2 discriminator 3
 4794 20ee 488B08   		movq	(%rax), %rcx
 4795 20f1 488D8590 		leaq	-2160(%rbp), %rax
 4795      F7FFFF
 4796 20f8 BA810000 		movl	$129, %edx
 4796      00
 4797 20fd 4889CE   		movq	%rcx, %rsi
 4798 2100 4889C7   		movq	%rax, %rdi
 4799 2103 E8000000 		call	_ZN8UnitTest11TestDetailsC1ERKS0_i@PLT
 4799      00
 4800              		.loc 6 129 2 discriminator 7
 4801 2108 488D8590 		leaq	-2160(%rbp), %rax
 4801      F7FFFF
 4802 210f 488D1500 		leaq	.LC49(%rip), %rdx
 4802      000000
 4803 2116 4889C6   		movq	%rax, %rsi
 4804 2119 4889DF   		movq	%rbx, %rdi
 4805 211c E8000000 		call	_ZN8UnitTest11TestResults13OnTestFailureERKNS_11TestDetailsEPKc@PLT
 4805      00
 4806              	.LEHE100:
 4807              	.L221:
 130:TestTestMacros.cpp **** }
 4808              		.loc 6 130 1 is_stmt 1
 4809 2121 488D85B0 		leaq	-2128(%rbp), %rax
 4809      F7FFFF
 4810 2128 4889C7   		movq	%rax, %rdi
 4811              	.LEHB101:
 4812 212b E8000000 		call	_ZN17RecordingReporterD1Ev
 4812      00
 4813              	.LEHE101:
 4814 2130 488B45E8 		movq	-24(%rbp), %rax
 4815 2134 64482B04 		subq	%fs:40, %rax
 4815      25280000 
 4815      00
 4816 213d 0F847B01 		je	.L231
 4816      0000
 4817 2143 E9710100 		jmp	.L240
 4817      00
 4818              	.L232:
 4819 2148 F30F1EFA 		endbr64
 119:TestTestMacros.cpp **** 	RecordingReporter reporter;
 4820              		.loc 6 119 2
 4821 214c 4889C7   		movq	%rax, %rdi
 4822 214f E8000000 		call	__cxa_begin_catch@PLT
 4822      00
 4823              	.LEHB102:
 4824 2154 E8000000 		call	_ZN8UnitTest11CurrentTest7ResultsEv@PLT
 4824      00
 119:TestTestMacros.cpp **** 	RecordingReporter reporter;
 4825              		.loc 6 119 2 is_stmt 0 discriminator 8
 4826 2159 488B18   		movq	(%rax), %rbx
 4827 215c E8000000 		call	_ZN8UnitTest11CurrentTest7DetailsEv@PLT
 4827      00
 119:TestTestMacros.cpp **** 	RecordingReporter reporter;
 4828              		.loc 6 119 2 discriminator 14
 4829 2161 488B08   		movq	(%rax), %rcx
 4830 2164 488D8590 		leaq	-2160(%rbp), %rax
 4830      F7FFFF
 4831 216b BA770000 		movl	$119, %edx
 4831      00
 4832 2170 4889CE   		movq	%rcx, %rsi
 4833 2173 4889C7   		movq	%rax, %rdi
 4834 2176 E8000000 		call	_ZN8UnitTest11TestDetailsC1ERKS0_i@PLT
 4834      00
 119:TestTestMacros.cpp **** 	RecordingReporter reporter;
 4835              		.loc 6 119 2 discriminator 18
 4836 217b 488D8590 		leaq	-2160(%rbp), %rax
 4836      F7FFFF
 4837 2182 488D1500 		leaq	.LC50(%rip), %rdx
 4837      000000
 4838 2189 4889C6   		movq	%rax, %rsi
 4839 218c 4889DF   		movq	%rbx, %rdi
 4840 218f E8000000 		call	_ZN8UnitTest11TestResults13OnTestFailureERKNS_11TestDetailsEPKc@PLT
 4840      00
 4841              	.LEHE102:
 4842              	.LEHB103:
 119:TestTestMacros.cpp **** 	RecordingReporter reporter;
 4843              		.loc 6 119 2 discriminator 20
 4844 2194 E8000000 		call	__cxa_end_catch@PLT
 4844      00
 4845              	.LEHE103:
 4846 2199 E946FEFF 		jmp	.L220
 4846      FF
 4847              	.L233:
 4848 219e F30F1EFA 		endbr64
 119:TestTestMacros.cpp **** 	RecordingReporter reporter;
 4849              		.loc 6 119 2
 4850 21a2 4889C3   		movq	%rax, %rbx
 4851 21a5 E8000000 		call	__cxa_end_catch@PLT
 4851      00
 4852 21aa 4889D8   		movq	%rbx, %rax
 4853 21ad 4889C7   		movq	%rax, %rdi
 4854              	.LEHB104:
 4855 21b0 E8000000 		call	_Unwind_Resume@PLT
 4855      00
 4856              	.LEHE104:
 4857              	.L235:
 4858 21b5 F30F1EFA 		endbr64
 4859              	.LBB67:
 125:TestTestMacros.cpp **** 
 4860              		.loc 6 125 2 is_stmt 1
 4861 21b9 4889C3   		movq	%rax, %rbx
 4862 21bc 488D8590 		leaq	-2160(%rbp), %rax
 4862      F7FFFF
 4863 21c3 4889C7   		movq	%rax, %rdi
 4864 21c6 E8000000 		call	_ZN17ScopedCurrentTestD1Ev
 4864      00
 4865 21cb E9CF0000 		jmp	.L225
 4865      00
 4866              	.L236:
 4867 21d0 F30F1EFA 		endbr64
 4868              	.LBE67:
 128:TestTestMacros.cpp **** 	CHECK(strstr(reporter.lastFailedMessage, "while constructing fixture"));
 4869              		.loc 6 128 2
 4870 21d4 4889C7   		movq	%rax, %rdi
 4871 21d7 E8000000 		call	__cxa_begin_catch@PLT
 4871      00
 4872              	.LEHB105:
 4873 21dc E8000000 		call	_ZN8UnitTest11CurrentTest7ResultsEv@PLT
 4873      00
 128:TestTestMacros.cpp **** 	CHECK(strstr(reporter.lastFailedMessage, "while constructing fixture"));
 4874              		.loc 6 128 2 is_stmt 0 discriminator 3
 4875 21e1 488B18   		movq	(%rax), %rbx
 4876 21e4 E8000000 		call	_ZN8UnitTest11CurrentTest7DetailsEv@PLT
 4876      00
 128:TestTestMacros.cpp **** 	CHECK(strstr(reporter.lastFailedMessage, "while constructing fixture"));
 4877              		.loc 6 128 2 discriminator 11
 4878 21e9 488B08   		movq	(%rax), %rcx
 4879 21ec 488D8590 		leaq	-2160(%rbp), %rax
 4879      F7FFFF
 4880 21f3 BA800000 		movl	$128, %edx
 4880      00
 4881 21f8 4889CE   		movq	%rcx, %rsi
 4882 21fb 4889C7   		movq	%rax, %rdi
 4883 21fe E8000000 		call	_ZN8UnitTest11TestDetailsC1ERKS0_i@PLT
 4883      00
 128:TestTestMacros.cpp **** 	CHECK(strstr(reporter.lastFailedMessage, "while constructing fixture"));
 4884              		.loc 6 128 2 discriminator 15
 4885 2203 488D8590 		leaq	-2160(%rbp), %rax
 4885      F7FFFF
 4886 220a 488D1500 		leaq	.LC51(%rip), %rdx
 4886      000000
 4887 2211 4889C6   		movq	%rax, %rsi
 4888 2214 4889DF   		movq	%rbx, %rdi
 4889 2217 E8000000 		call	_ZN8UnitTest11TestResults13OnTestFailureERKNS_11TestDetailsEPKc@PLT
 4889      00
 4890              	.LEHE105:
 4891              	.LEHB106:
 128:TestTestMacros.cpp **** 	CHECK(strstr(reporter.lastFailedMessage, "while constructing fixture"));
 4892              		.loc 6 128 2 discriminator 17
 4893 221c E8000000 		call	__cxa_end_catch@PLT
 4893      00
 4894              	.LEHE106:
 128:TestTestMacros.cpp **** 	CHECK(strstr(reporter.lastFailedMessage, "while constructing fixture"));
 4895              		.loc 6 128 2
 4896 2221 E98DFEFF 		jmp	.L227
 4896      FF
 4897              	.L237:
 4898 2226 F30F1EFA 		endbr64
 4899 222a 4889C3   		movq	%rax, %rbx
 4900 222d E8000000 		call	__cxa_end_catch@PLT
 4900      00
 4901 2232 EB6B     		jmp	.L225
 4902              	.L238:
 4903 2234 F30F1EFA 		endbr64
 129:TestTestMacros.cpp **** }
 4904              		.loc 6 129 2 is_stmt 1
 4905 2238 4889C7   		movq	%rax, %rdi
 4906 223b E8000000 		call	__cxa_begin_catch@PLT
 4906      00
 4907              	.LEHB107:
 4908 2240 E8000000 		call	_ZN8UnitTest11CurrentTest7ResultsEv@PLT
 4908      00
 129:TestTestMacros.cpp **** }
 4909              		.loc 6 129 2 is_stmt 0 discriminator 6
 4910 2245 488B18   		movq	(%rax), %rbx
 4911 2248 E8000000 		call	_ZN8UnitTest11CurrentTest7DetailsEv@PLT
 4911      00
 129:TestTestMacros.cpp **** }
 4912              		.loc 6 129 2 discriminator 12
 4913 224d 488B08   		movq	(%rax), %rcx
 4914 2250 488D8590 		leaq	-2160(%rbp), %rax
 4914      F7FFFF
 4915 2257 BA810000 		movl	$129, %edx
 4915      00
 4916 225c 4889CE   		movq	%rcx, %rsi
 4917 225f 4889C7   		movq	%rax, %rdi
 4918 2262 E8000000 		call	_ZN8UnitTest11TestDetailsC1ERKS0_i@PLT
 4918      00
 129:TestTestMacros.cpp **** }
 4919              		.loc 6 129 2 discriminator 16
 4920 2267 488D8590 		leaq	-2160(%rbp), %rax
 4920      F7FFFF
 4921 226e 488D1500 		leaq	.LC52(%rip), %rdx
 4921      000000
 4922 2275 4889C6   		movq	%rax, %rsi
 4923 2278 4889DF   		movq	%rbx, %rdi
 4924 227b E8000000 		call	_ZN8UnitTest11TestResults13OnTestFailureERKNS_11TestDetailsEPKc@PLT
 4924      00
 4925              	.LEHE107:
 4926              	.LEHB108:
 129:TestTestMacros.cpp **** }
 4927              		.loc 6 129 2 discriminator 18
 4928 2280 E8000000 		call	__cxa_end_catch@PLT
 4928      00
 4929              	.LEHE108:
 129:TestTestMacros.cpp **** }
 4930              		.loc 6 129 2
 4931 2285 E997FEFF 		jmp	.L221
 4931      FF
 4932              	.L239:
 4933 228a F30F1EFA 		endbr64
 4934 228e 4889C3   		movq	%rax, %rbx
 4935 2291 E8000000 		call	__cxa_end_catch@PLT
 4935      00
 4936 2296 EB07     		jmp	.L225
 4937              	.L234:
 4938 2298 F30F1EFA 		endbr64
 4939              		.loc 6 130 1 is_stmt 1
 4940 229c 4889C3   		movq	%rax, %rbx
 4941              	.L225:
 4942 229f 488D85B0 		leaq	-2128(%rbp), %rax
 4942      F7FFFF
 4943 22a6 4889C7   		movq	%rax, %rdi
 4944 22a9 E8000000 		call	_ZN17RecordingReporterD1Ev
 4944      00
 4945 22ae 4889D8   		movq	%rbx, %rax
 4946 22b1 4889C7   		movq	%rax, %rdi
 4947              	.LEHB109:
 4948 22b4 E8000000 		call	_Unwind_Resume@PLT
 4948      00
 4949              	.LEHE109:
 4950              	.L240:
 4951 22b9 E8000000 		call	__stack_chk_fail@PLT
 4951      00
 4952              	.L231:
 4953 22be 488B5DF8 		movq	-8(%rbp), %rbx
 4954 22c2 C9       		leave
 4955              		.cfi_def_cfa 7, 8
 4956 22c3 C3       		ret
 4957              		.cfi_endproc
 4958              	.LFE1243:
 4959              		.section	.gcc_except_table
 4960              		.align 4
 4961              	.LLSDA1243:
 4962 02a8 FF       		.byte	0xff
 4963 02a9 9B       		.byte	0x9b
 4964 02aa 5D       		.uleb128 .LLSDATT1243-.LLSDATTD1243
 4965              	.LLSDATTD1243:
 4966 02ab 01       		.byte	0x1
 4967 02ac 55       		.uleb128 .LLSDACSE1243-.LLSDACSB1243
 4968              	.LLSDACSB1243:
 4969 02ad 30       		.uleb128 .LEHB95-.LFB1243
 4970 02ae 5C       		.uleb128 .LEHE95-.LEHB95
 4971 02af F003     		.uleb128 .L232-.LFB1243
 4972 02b1 01       		.uleb128 0x1
 4973 02b2 AF01     		.uleb128 .LEHB96-.LFB1243
 4974 02b4 23       		.uleb128 .LEHE96-.LEHB96
 4975 02b5 C006     		.uleb128 .L234-.LFB1243
 4976 02b7 00       		.uleb128 0
 4977 02b8 DC01     		.uleb128 .LEHB97-.LFB1243
 4978 02ba 0D       		.uleb128 .LEHE97-.LEHB97
 4979 02bb DD04     		.uleb128 .L235-.LFB1243
 4980 02bd 00       		.uleb128 0
 4981 02be F301     		.uleb128 .LEHB98-.LFB1243
 4982 02c0 14       		.uleb128 .LEHE98-.LEHB98
 4983 02c1 C006     		.uleb128 .L234-.LFB1243
 4984 02c3 00       		.uleb128 0
 4985 02c4 8D02     		.uleb128 .LEHB99-.LFB1243
 4986 02c6 4E       		.uleb128 .LEHE99-.LEHB99
 4987 02c7 F804     		.uleb128 .L236-.LFB1243
 4988 02c9 01       		.uleb128 0x1
 4989 02ca 8903     		.uleb128 .LEHB100-.LFB1243
 4990 02cc 40       		.uleb128 .LEHE100-.LEHB100
 4991 02cd DC05     		.uleb128 .L238-.LFB1243
 4992 02cf 01       		.uleb128 0x1
 4993 02d0 D303     		.uleb128 .LEHB101-.LFB1243
 4994 02d2 05       		.uleb128 .LEHE101-.LEHB101
 4995 02d3 00       		.uleb128 0
 4996 02d4 00       		.uleb128 0
 4997 02d5 FC03     		.uleb128 .LEHB102-.LFB1243
 4998 02d7 40       		.uleb128 .LEHE102-.LEHB102
 4999 02d8 C604     		.uleb128 .L233-.LFB1243
 5000 02da 00       		.uleb128 0
 5001 02db BC04     		.uleb128 .LEHB103-.LFB1243
 5002 02dd 05       		.uleb128 .LEHE103-.LEHB103
 5003 02de 00       		.uleb128 0
 5004 02df 00       		.uleb128 0
 5005 02e0 D804     		.uleb128 .LEHB104-.LFB1243
 5006 02e2 05       		.uleb128 .LEHE104-.LEHB104
 5007 02e3 00       		.uleb128 0
 5008 02e4 00       		.uleb128 0
 5009 02e5 8405     		.uleb128 .LEHB105-.LFB1243
 5010 02e7 40       		.uleb128 .LEHE105-.LEHB105
 5011 02e8 CE05     		.uleb128 .L237-.LFB1243
 5012 02ea 00       		.uleb128 0
 5013 02eb C405     		.uleb128 .LEHB106-.LFB1243
 5014 02ed 05       		.uleb128 .LEHE106-.LEHB106
 5015 02ee C006     		.uleb128 .L234-.LFB1243
 5016 02f0 00       		.uleb128 0
 5017 02f1 E805     		.uleb128 .LEHB107-.LFB1243
 5018 02f3 40       		.uleb128 .LEHE107-.LEHB107
 5019 02f4 B206     		.uleb128 .L239-.LFB1243
 5020 02f6 00       		.uleb128 0
 5021 02f7 A806     		.uleb128 .LEHB108-.LFB1243
 5022 02f9 05       		.uleb128 .LEHE108-.LEHB108
 5023 02fa C006     		.uleb128 .L234-.LFB1243
 5024 02fc 00       		.uleb128 0
 5025 02fd DC06     		.uleb128 .LEHB109-.LFB1243
 5026 02ff 05       		.uleb128 .LEHE109-.LEHB109
 5027 0300 00       		.uleb128 0
 5028 0301 00       		.uleb128 0
 5029              	.LLSDACSE1243:
 5030 0302 01       		.byte	0x1
 5031 0303 00       		.byte	0
 5032              		.align 4
 5033 0304 00000000 		.long	0
 5034              	
 5035              	.LLSDATT1243:
 5036              		.text
 5038              		.align 2
 5040              	_ZN12_GLOBAL__N_117FixtureDtorThrowsD2Ev:
 5041              	.LFB1245:
 131:TestTestMacros.cpp **** 
 132:TestTestMacros.cpp **** struct FixtureDtorThrows
 133:TestTestMacros.cpp **** {
 134:TestTestMacros.cpp **** 	~FixtureDtorThrows() { throw "exception"; }
 5042              		.loc 6 134 2
 5043              		.cfi_startproc
 5044 22c4 55       		pushq	%rbp
 5045              		.cfi_def_cfa_offset 16
 5046              		.cfi_offset 6, -16
 5047 22c5 4889E5   		movq	%rsp, %rbp
 5048              		.cfi_def_cfa_register 6
 5049 22c8 4883EC10 		subq	$16, %rsp
 5050 22cc 48897DF8 		movq	%rdi, -8(%rbp)
 5051              	.LBB68:
 5052              		.loc 6 134 31
 5053 22d0 BF080000 		movl	$8, %edi
 5053      00
 5054 22d5 E8000000 		call	__cxa_allocate_exception@PLT
 5054      00
 5055              		.loc 6 134 25
 5056 22da 488D1500 		leaq	.LC42(%rip), %rdx
 5056      000000
 5057 22e1 488910   		movq	%rdx, (%rax)
 5058              		.loc 6 134 31
 5059 22e4 BA000000 		movl	$0, %edx
 5059      00
 5060 22e9 488D0D00 		leaq	_ZTIPKc(%rip), %rcx
 5060      000000
 5061 22f0 4889CE   		movq	%rcx, %rsi
 5062 22f3 4889C7   		movq	%rax, %rdi
 5063 22f6 E8000000 		call	__cxa_throw@PLT
 5063      00
 5064              	.LBE68:
 5065              		.cfi_endproc
 5066              	.LFE1245:
 5068              		.local	_ZN12_GLOBAL__N_124throwingFixtureTestList2E
 5069              		.comm	_ZN12_GLOBAL__N_124throwingFixtureTestList2E,16,16
 5070 22fb 90       		.align 2
 5072              	_ZN12_GLOBAL__N_148FixtureDtorThrowsFixtureDtorThrowsTestNameHelperC2ERKN8UnitTest11TestDetailsE:
 5073              	.LFB1248:
 135:TestTestMacros.cpp **** };
 136:TestTestMacros.cpp **** 
 137:TestTestMacros.cpp **** TestList throwingFixtureTestList2;
 138:TestTestMacros.cpp **** TEST_FIXTURE_EX(FixtureDtorThrows, FixtureDtorThrowsTestName, throwingFixtureTestList2)
 5074              		.loc 6 138 1
 5075              		.cfi_startproc
 5076 22fc 55       		pushq	%rbp
 5077              		.cfi_def_cfa_offset 16
 5078              		.cfi_offset 6, -16
 5079 22fd 4889E5   		movq	%rsp, %rbp
 5080              		.cfi_def_cfa_register 6
 5081 2300 48897DF8 		movq	%rdi, -8(%rbp)
 5082 2304 488975F0 		movq	%rsi, -16(%rbp)
 5083              	.LBB69:
 5084              		.loc 6 138 1
 5085 2308 488B45F8 		movq	-8(%rbp), %rax
 5086 230c 488B55F0 		movq	-16(%rbp), %rdx
 5087 2310 488910   		movq	%rdx, (%rax)
 5088              	.LBE69:
 5089 2313 90       		nop
 5090 2314 5D       		popq	%rbp
 5091              		.cfi_def_cfa 7, 8
 5092 2315 C3       		ret
 5093              		.cfi_endproc
 5094              	.LFE1248:
 5096              		.set	_ZN12_GLOBAL__N_148FixtureDtorThrowsFixtureDtorThrowsTestNameHelperC1ERKN8UnitTest11TestDetai
 5097              		.section	.rodata
 5098              	.LC53:
 5099 09bf 46697874 		.string	"FixtureDtorThrowsTestName"
 5099      75726544 
 5099      746F7254 
 5099      68726F77 
 5099      73546573 
 5100              		.text
 5101              		.align 2
 5103              	_ZN12_GLOBAL__N_146TestFixtureDtorThrowsFixtureDtorThrowsTestNameC2Ev:
 5104              	.LFB1251:
 5105              		.loc 6 138 1
 5106              		.cfi_startproc
 5107 2316 55       		pushq	%rbp
 5108              		.cfi_def_cfa_offset 16
 5109              		.cfi_offset 6, -16
 5110 2317 4889E5   		movq	%rsp, %rbp
 5111              		.cfi_def_cfa_register 6
 5112 231a 53       		pushq	%rbx
 5113 231b 4883EC18 		subq	$24, %rsp
 5114              		.cfi_offset 3, -24
 5115 231f 48897DE8 		movq	%rdi, -24(%rbp)
 5116              	.LBB70:
 5117              		.loc 6 138 1
 5118 2323 488B5DE8 		movq	-24(%rbp), %rbx
 5119 2327 E8000000 		call	_ZN13UnitTestSuite12GetSuiteNameEv
 5119      00
 5120 232c 4889C2   		movq	%rax, %rdx
 5121 232f 41B88A00 		movl	$138, %r8d
 5121      0000
 5122 2335 488D0500 		leaq	.LC2(%rip), %rax
 5122      000000
 5123 233c 4889C1   		movq	%rax, %rcx
 5124 233f 488D0500 		leaq	.LC53(%rip), %rax
 5124      000000
 5125 2346 4889C6   		movq	%rax, %rsi
 5126 2349 4889DF   		movq	%rbx, %rdi
 5127 234c E8000000 		call	_ZN8UnitTest4TestC2EPKcS2_S2_i@PLT
 5127      00
 5128 2351 488D1500 		leaq	16+_ZTVN12_GLOBAL__N_146TestFixtureDtorThrowsFixtureDtorThrowsTestNameE(%rip), %rdx
 5128      000000
 5129 2358 488B45E8 		movq	-24(%rbp), %rax
 5130 235c 488910   		movq	%rdx, (%rax)
 5131              	.LBE70:
 5132 235f 90       		nop
 5133 2360 488B5DF8 		movq	-8(%rbp), %rbx
 5134 2364 C9       		leave
 5135              		.cfi_def_cfa 7, 8
 5136 2365 C3       		ret
 5137              		.cfi_endproc
 5138              	.LFE1251:
 5140              		.set	_ZN12_GLOBAL__N_146TestFixtureDtorThrowsFixtureDtorThrowsTestNameC1Ev,_ZN12_GLOBAL__N_146Test
 5141              		.local	_ZN12_GLOBAL__N_154testFixtureDtorThrowsFixtureDtorThrowsTestNameInstanceE
 5142              		.comm	_ZN12_GLOBAL__N_154testFixtureDtorThrowsFixtureDtorThrowsTestNameInstanceE,56,32
 5143              		.local	_ZN12_GLOBAL__N_147adderFixtureDtorThrowsFixtureDtorThrowsTestNameE
 5144              		.comm	_ZN12_GLOBAL__N_147adderFixtureDtorThrowsFixtureDtorThrowsTestNameE,1,1
 5145              		.align 2
 5147              	_ZN12_GLOBAL__N_148FixtureDtorThrowsFixtureDtorThrowsTestNameHelperD2Ev:
 5148              	.LFB1255:
 5149              		.loc 6 138 1
 5150              		.cfi_startproc
 5151 2366 55       		pushq	%rbp
 5152              		.cfi_def_cfa_offset 16
 5153              		.cfi_offset 6, -16
 5154 2367 4889E5   		movq	%rsp, %rbp
 5155              		.cfi_def_cfa_register 6
 5156 236a 4883EC10 		subq	$16, %rsp
 5157 236e 48897DF8 		movq	%rdi, -8(%rbp)
 5158              	.LBB71:
 5159              		.loc 6 138 1
 5160 2372 488B45F8 		movq	-8(%rbp), %rax
 5161 2376 4889C7   		movq	%rax, %rdi
 5162 2379 E846FFFF 		call	_ZN12_GLOBAL__N_117FixtureDtorThrowsD2Ev
 5162      FF
 5163              	.LBE71:
 5164 237e 90       		nop
 5165 237f C9       		leave
 5166              		.cfi_def_cfa 7, 8
 5167 2380 C3       		ret
 5168              		.cfi_endproc
 5169              	.LFE1255:
 5171              		.set	_ZN12_GLOBAL__N_148FixtureDtorThrowsFixtureDtorThrowsTestNameHelperD1Ev,_ZN12_GLOBAL__N_148Fi
 5172              		.section	.rodata
 5173 09d9 00000000 		.align 8
 5173      000000
 5174              	.LC54:
 5175 09e0 556E6861 		.string	"Unhandled exception while destroying fixture FixtureDtorThrows"
 5175      6E646C65 
 5175      64206578 
 5175      63657074 
 5175      696F6E20 
 5176 0a1f 00       		.align 8
 5177              	.LC55:
 5178 0a20 556E6861 		.string	"Unhandled exception while constructing fixture FixtureDtorThrows"
 5178      6E646C65 
 5178      64206578 
 5178      63657074 
 5178      696F6E20 
 5179              		.text
 5180 2381 90       		.align 2
 5182              	_ZNK12_GLOBAL__N_146TestFixtureDtorThrowsFixtureDtorThrowsTestName7RunImplEv:
 5183              	.LFB1253:
 5184              		.loc 6 138 1
 5185              		.cfi_startproc
 5186              		.cfi_personality 0x9b,DW.ref.__gxx_personality_v0
 5187              		.cfi_lsda 0x1b,.LLSDA1253
 5188 2382 F30F1EFA 		endbr64
 5189 2386 55       		pushq	%rbp
 5190              		.cfi_def_cfa_offset 16
 5191              		.cfi_offset 6, -16
 5192 2387 4889E5   		movq	%rsp, %rbp
 5193              		.cfi_def_cfa_register 6
 5194 238a 4155     		pushq	%r13
 5195 238c 4154     		pushq	%r12
 5196 238e 53       		pushq	%rbx
 5197 238f 4881ECF8 		subq	$504, %rsp
 5197      010000
 5198              		.cfi_offset 13, -24
 5199              		.cfi_offset 12, -32
 5200              		.cfi_offset 3, -40
 5201 2396 4889BDF8 		movq	%rdi, -520(%rbp)
 5201      FDFFFF
 5202              		.loc 6 138 1
 5203 239d 64488B04 		movq	%fs:40, %rax
 5203      25280000 
 5203      00
 5204 23a6 488945D8 		movq	%rax, -40(%rbp)
 5205 23aa 31C0     		xorl	%eax, %eax
 5206 23ac C6850FFE 		movb	$0, -497(%rbp)
 5206      FFFF00
 5207              	.LBB72:
 5208 23b3 488B85F8 		movq	-520(%rbp), %rax
 5208      FDFFFF
 5209 23ba 488D5008 		leaq	8(%rax), %rdx
 5210 23be 488D8520 		leaq	-480(%rbp), %rax
 5210      FEFFFF
 5211 23c5 4889D6   		movq	%rdx, %rsi
 5212 23c8 4889C7   		movq	%rax, %rdi
 5213 23cb E82CFFFF 		call	_ZN12_GLOBAL__N_148FixtureDtorThrowsFixtureDtorThrowsTestNameHelperC1ERKN8UnitTest11TestDetai
 5213      FF
 5214 23d0 C6850FFE 		movb	$1, -497(%rbp)
 5214      FFFF01
 5215 23d7 488B85F8 		movq	-520(%rbp), %rax
 5215      FDFFFF
 5216 23de 488D5008 		leaq	8(%rax), %rdx
 5217 23e2 488D8520 		leaq	-480(%rbp), %rax
 5217      FEFFFF
 5218 23e9 4889D6   		movq	%rdx, %rsi
 5219 23ec 4889C7   		movq	%rax, %rdi
 5220              	.LEHB110:
 5221 23ef E8881D00 		call	_ZN8UnitTest11ExecuteTestIN12_GLOBAL__N_148FixtureDtorThrowsFixtureDtorThrowsTestNameHelperEE
 5221      00
 5222              	.LEHE110:
 5223              		.loc 6 138 1 is_stmt 0 discriminator 3
 5224 23f4 488D8520 		leaq	-480(%rbp), %rax
 5224      FEFFFF
 5225 23fb 4889C7   		movq	%rax, %rdi
 5226              	.LEHB111:
 5227 23fe E863FFFF 		call	_ZN12_GLOBAL__N_148FixtureDtorThrowsFixtureDtorThrowsTestNameHelperD1Ev
 5227      FF
 5228              	.LEHE111:
 5229              	.LBE72:
 5230              		.loc 6 138 1
 5231 2403 E9840200 		jmp	.L245
 5231      00
 5232              	.L260:
 5233 2408 F30F1EFA 		endbr64
 5234              	.LBB73:
 5235 240c 4989C4   		movq	%rax, %r12
 5236 240f 4889D3   		movq	%rdx, %rbx
 5237 2412 488D8520 		leaq	-480(%rbp), %rax
 5237      FEFFFF
 5238 2419 4889C7   		movq	%rax, %rdi
 5239 241c E845FFFF 		call	_ZN12_GLOBAL__N_148FixtureDtorThrowsFixtureDtorThrowsTestNameHelperD1Ev
 5239      FF
 5240 2421 4C89E0   		movq	%r12, %rax
 5241 2424 4889DA   		movq	%rbx, %rdx
 5242 2427 EB04     		jmp	.L247
 5243              	.L259:
 5244 2429 F30F1EFA 		endbr64
 5245              	.L247:
 5246              	.LBE73:
 5247 242d 4883FA01 		cmpq	$1, %rdx
 5248 2431 740F     		je	.L248
 5249 2433 4883FA02 		cmpq	$2, %rdx
 5250 2437 0F84A700 		je	.L249
 5250      0000
 5251 243d E94D0100 		jmp	.L265
 5251      00
 5252              	.L248:
 5253              	.LBB74:
 5254              		.loc 6 138 1 discriminator 4
 5255 2442 4889C7   		movq	%rax, %rdi
 5256 2445 E8000000 		call	__cxa_begin_catch@PLT
 5256      00
 5257 244a 48898518 		movq	%rax, -488(%rbp)
 5257      FEFFFF
 5258              	.LEHB112:
 5259 2451 E8000000 		call	_ZN8UnitTest11CurrentTest7ResultsEv@PLT
 5259      00
 5260 2456 488B18   		movq	(%rax), %rbx
 5261 2459 488B8518 		movq	-488(%rbp), %rax
 5261      FEFFFF
 5262 2460 488B00   		movq	(%rax), %rax
 5263 2463 4883C010 		addq	$16, %rax
 5264 2467 488B10   		movq	(%rax), %rdx
 5265 246a 488B8518 		movq	-488(%rbp), %rax
 5265      FEFFFF
 5266 2471 4889C7   		movq	%rax, %rdi
 5267 2474 FFD2     		call	*%rdx
 5268              	.LVL10:
 5269 2476 4989C4   		movq	%rax, %r12
 5270 2479 488B8518 		movq	-488(%rbp), %rax
 5270      FEFFFF
 5271 2480 4889C7   		movq	%rax, %rdi
 5272 2483 E8000000 		call	_ZNK8UnitTest15AssertException10LineNumberEv@PLT
 5272      00
 5273              		.loc 6 138 1 discriminator 8
 5274 2488 4189C5   		movl	%eax, %r13d
 5275 248b 488B8518 		movq	-488(%rbp), %rax
 5275      FEFFFF
 5276 2492 4889C7   		movq	%rax, %rdi
 5277 2495 E8000000 		call	_ZNK8UnitTest15AssertException8FilenameEv@PLT
 5277      00
 5278              		.loc 6 138 1 discriminator 10
 5279 249a 4889C1   		movq	%rax, %rcx
 5280 249d 488B85F8 		movq	-520(%rbp), %rax
 5280      FDFFFF
 5281 24a4 488B5008 		movq	8(%rax), %rdx
 5282 24a8 488B85F8 		movq	-520(%rbp), %rax
 5282      FDFFFF
 5283 24af 488B7010 		movq	16(%rax), %rsi
 5284 24b3 488D8520 		leaq	-480(%rbp), %rax
 5284      FEFFFF
 5285 24ba 4589E8   		movl	%r13d, %r8d
 5286 24bd 4889C7   		movq	%rax, %rdi
 5287 24c0 E8000000 		call	_ZN8UnitTest11TestDetailsC1EPKcS2_S2_i@PLT
 5287      00
 5288              		.loc 6 138 1 discriminator 14
 5289 24c5 488D8520 		leaq	-480(%rbp), %rax
 5289      FEFFFF
 5290 24cc 4C89E2   		movq	%r12, %rdx
 5291 24cf 4889C6   		movq	%rax, %rsi
 5292 24d2 4889DF   		movq	%rbx, %rdi
 5293 24d5 E8000000 		call	_ZN8UnitTest11TestResults13OnTestFailureERKNS_11TestDetailsEPKc@PLT
 5293      00
 5294              	.LEHE112:
 5295              		.loc 6 138 1 discriminator 16
 5296 24da E8000000 		call	__cxa_end_catch@PLT
 5296      00
 5297              	.LBE74:
 5298 24df E9A80100 		jmp	.L245
 5298      00
 5299              	.L249:
 5300              	.LBB75:
 5301              		.loc 6 138 1 discriminator 5
 5302 24e4 4889C7   		movq	%rax, %rdi
 5303 24e7 E8000000 		call	__cxa_begin_catch@PLT
 5303      00
 5304 24ec 48898510 		movq	%rax, -496(%rbp)
 5304      FEFFFF
 5305              	.LBB76:
 5306 24f3 488D8540 		leaq	-448(%rbp), %rax
 5306      FEFFFF
 5307 24fa 4889C7   		movq	%rax, %rdi
 5308              	.LEHB113:
 5309 24fd E8000000 		call	_ZN8UnitTest15MemoryOutStreamC1Ev
 5309      00
 5310              	.LEHE113:
 5311              		.loc 6 138 1 discriminator 18
 5312 2502 488D8540 		leaq	-448(%rbp), %rax
 5312      FEFFFF
 5313 2509 488D1500 		leaq	.LC11(%rip), %rdx
 5313      000000
 5314 2510 4889D6   		movq	%rdx, %rsi
 5315 2513 4889C7   		movq	%rax, %rdi
 5316              	.LEHB114:
 5317 2516 E8000000 		call	_ZStlsISt11char_traitsIcEERSt13basic_ostreamIcT_ES5_PKc@PLT
 5317      00
 5318 251b 4889C3   		movq	%rax, %rbx
 5319 251e 488B8510 		movq	-496(%rbp), %rax
 5319      FEFFFF
 5320 2525 488B00   		movq	(%rax), %rax
 5321 2528 4883C010 		addq	$16, %rax
 5322 252c 488B10   		movq	(%rax), %rdx
 5323 252f 488B8510 		movq	-496(%rbp), %rax
 5323      FEFFFF
 5324 2536 4889C7   		movq	%rax, %rdi
 5325 2539 FFD2     		call	*%rdx
 5326              	.LVL11:
 5327 253b 4889C6   		movq	%rax, %rsi
 5328 253e 4889DF   		movq	%rbx, %rdi
 5329 2541 E8000000 		call	_ZStlsISt11char_traitsIcEERSt13basic_ostreamIcT_ES5_PKc@PLT
 5329      00
 5330              		.loc 6 138 1 discriminator 22
 5331 2546 E8000000 		call	_ZN8UnitTest11CurrentTest7ResultsEv@PLT
 5331      00
 5332 254b 488B18   		movq	(%rax), %rbx
 5333 254e 488D8540 		leaq	-448(%rbp), %rax
 5333      FEFFFF
 5334 2555 4889C7   		movq	%rax, %rdi
 5335 2558 E8000000 		call	_ZNK8UnitTest15MemoryOutStream7GetTextEv@PLT
 5335      00
 5336              		.loc 6 138 1 discriminator 24
 5337 255d 4889C2   		movq	%rax, %rdx
 5338 2560 488B85F8 		movq	-520(%rbp), %rax
 5338      FDFFFF
 5339 2567 4883C008 		addq	$8, %rax
 5340 256b 4889C6   		movq	%rax, %rsi
 5341 256e 4889DF   		movq	%rbx, %rdi
 5342 2571 E8000000 		call	_ZN8UnitTest11TestResults13OnTestFailureERKNS_11TestDetailsEPKc@PLT
 5342      00
 5343              	.LEHE114:
 5344              		.loc 6 138 1 discriminator 28
 5345 2576 488D8540 		leaq	-448(%rbp), %rax
 5345      FEFFFF
 5346 257d 4889C7   		movq	%rax, %rdi
 5347              	.LEHB115:
 5348 2580 E8000000 		call	_ZN8UnitTest15MemoryOutStreamD1Ev
 5348      00
 5349              	.LEHE115:
 5350              	.LBE76:
 5351              		.loc 6 138 1 discriminator 29
 5352 2585 E8000000 		call	__cxa_end_catch@PLT
 5352      00
 5353              	.LBE75:
 5354 258a E9FD0000 		jmp	.L245
 5354      00
 5355              	.L265:
 5356              		.loc 6 138 1 discriminator 6
 5357 258f 4889C7   		movq	%rax, %rdi
 5358 2592 E8000000 		call	__cxa_begin_catch@PLT
 5358      00
 5359 2597 80BD0FFE 		cmpb	$0, -497(%rbp)
 5359      FFFF00
 5360 259e 7445     		je	.L252
 5361              	.LEHB116:
 5362              		.loc 6 138 1 discriminator 31
 5363 25a0 E8000000 		call	_ZN8UnitTest11CurrentTest7ResultsEv@PLT
 5363      00
 5364 25a5 488B18   		movq	(%rax), %rbx
 5365 25a8 488B85F8 		movq	-520(%rbp), %rax
 5365      FDFFFF
 5366 25af 488D4808 		leaq	8(%rax), %rcx
 5367 25b3 488D8520 		leaq	-480(%rbp), %rax
 5367      FEFFFF
 5368 25ba BA8A0000 		movl	$138, %edx
 5368      00
 5369 25bf 4889CE   		movq	%rcx, %rsi
 5370 25c2 4889C7   		movq	%rax, %rdi
 5371 25c5 E8000000 		call	_ZN8UnitTest11TestDetailsC1ERKS0_i@PLT
 5371      00
 5372              		.loc 6 138 1 discriminator 36
 5373 25ca 488D8520 		leaq	-480(%rbp), %rax
 5373      FEFFFF
 5374 25d1 488D1500 		leaq	.LC54(%rip), %rdx
 5374      000000
 5375 25d8 4889C6   		movq	%rax, %rsi
 5376 25db 4889DF   		movq	%rbx, %rdi
 5377 25de E8000000 		call	_ZN8UnitTest11TestResults13OnTestFailureERKNS_11TestDetailsEPKc@PLT
 5377      00
 5378 25e3 EB43     		jmp	.L253
 5379              	.L252:
 5380              		.loc 6 138 1 discriminator 32
 5381 25e5 E8000000 		call	_ZN8UnitTest11CurrentTest7ResultsEv@PLT
 5381      00
 5382 25ea 488B18   		movq	(%rax), %rbx
 5383 25ed 488B85F8 		movq	-520(%rbp), %rax
 5383      FDFFFF
 5384 25f4 488D4808 		leaq	8(%rax), %rcx
 5385 25f8 488D8520 		leaq	-480(%rbp), %rax
 5385      FEFFFF
 5386 25ff BA8A0000 		movl	$138, %edx
 5386      00
 5387 2604 4889CE   		movq	%rcx, %rsi
 5388 2607 4889C7   		movq	%rax, %rdi
 5389 260a E8000000 		call	_ZN8UnitTest11TestDetailsC1ERKS0_i@PLT
 5389      00
 5390              		.loc 6 138 1 discriminator 43
 5391 260f 488D8520 		leaq	-480(%rbp), %rax
 5391      FEFFFF
 5392 2616 488D1500 		leaq	.LC55(%rip), %rdx
 5392      000000
 5393 261d 4889C6   		movq	%rax, %rsi
 5394 2620 4889DF   		movq	%rbx, %rdi
 5395 2623 E8000000 		call	_ZN8UnitTest11TestResults13OnTestFailureERKNS_11TestDetailsEPKc@PLT
 5395      00
 5396              	.LEHE116:
 5397              	.L253:
 5398              	.LEHB117:
 5399              		.loc 6 138 1 discriminator 46
 5400 2628 E8000000 		call	__cxa_end_catch@PLT
 5400      00
 5401 262d EB5D     		jmp	.L245
 5402              	.L261:
 5403 262f F30F1EFA 		endbr64
 5404              	.LBB78:
 5405              		.loc 6 138 1
 5406 2633 4889C3   		movq	%rax, %rbx
 5407 2636 E8000000 		call	__cxa_end_catch@PLT
 5407      00
 5408 263b 4889D8   		movq	%rbx, %rax
 5409 263e 4889C7   		movq	%rax, %rdi
 5410 2641 E8000000 		call	_Unwind_Resume@PLT
 5410      00
 5411              	.LEHE117:
 5412              	.L263:
 5413 2646 F30F1EFA 		endbr64
 5414              	.LBE78:
 5415              	.LBB79:
 5416              	.LBB77:
 5417 264a 4889C3   		movq	%rax, %rbx
 5418 264d 488D8540 		leaq	-448(%rbp), %rax
 5418      FEFFFF
 5419 2654 4889C7   		movq	%rax, %rdi
 5420 2657 E8000000 		call	_ZN8UnitTest15MemoryOutStreamD1Ev
 5420      00
 5421 265c EB07     		jmp	.L256
 5422              	.L262:
 5423 265e F30F1EFA 		endbr64
 5424              	.LBE77:
 5425 2662 4889C3   		movq	%rax, %rbx
 5426              	.L256:
 5427 2665 E8000000 		call	__cxa_end_catch@PLT
 5427      00
 5428 266a 4889D8   		movq	%rbx, %rax
 5429 266d 4889C7   		movq	%rax, %rdi
 5430              	.LEHB118:
 5431 2670 E8000000 		call	_Unwind_Resume@PLT
 5431      00
 5432              	.LEHE118:
 5433              	.L264:
 5434 2675 F30F1EFA 		endbr64
 5435              	.LBE79:
 5436 2679 4889C3   		movq	%rax, %rbx
 5437 267c E8000000 		call	__cxa_end_catch@PLT
 5437      00
 5438 2681 4889D8   		movq	%rbx, %rax
 5439 2684 4889C7   		movq	%rax, %rdi
 5440              	.LEHB119:
 5441 2687 E8000000 		call	_Unwind_Resume@PLT
 5441      00
 5442              	.LEHE119:
 5443              	.L245:
 5444 268c 488B45D8 		movq	-40(%rbp), %rax
 5445 2690 64482B04 		subq	%fs:40, %rax
 5445      25280000 
 5445      00
 5446 2699 7405     		je	.L258
 5447 269b E8000000 		call	__stack_chk_fail@PLT
 5447      00
 5448              	.L258:
 5449 26a0 4881C4F8 		addq	$504, %rsp
 5449      010000
 5450 26a7 5B       		popq	%rbx
 5451 26a8 415C     		popq	%r12
 5452 26aa 415D     		popq	%r13
 5453 26ac 5D       		popq	%rbp
 5454              		.cfi_def_cfa 7, 8
 5455 26ad C3       		ret
 5456              		.cfi_endproc
 5457              	.LFE1253:
 5458              		.section	.gcc_except_table
 5459              		.align 4
 5460              	.LLSDA1253:
 5461 0308 FF       		.byte	0xff
 5462 0309 9B       		.byte	0x9b
 5463 030a 51       		.uleb128 .LLSDATT1253-.LLSDATTD1253
 5464              	.LLSDATTD1253:
 5465 030b 01       		.byte	0x1
 5466 030c 39       		.uleb128 .LLSDACSE1253-.LLSDACSB1253
 5467              	.LLSDACSB1253:
 5468 030d 6D       		.uleb128 .LEHB110-.LFB1253
 5469 030e 05       		.uleb128 .LEHE110-.LEHB110
 5470 030f 8601     		.uleb128 .L260-.LFB1253
 5471 0311 07       		.uleb128 0x7
 5472 0312 7C       		.uleb128 .LEHB111-.LFB1253
 5473 0313 05       		.uleb128 .LEHE111-.LEHB111
 5474 0314 A701     		.uleb128 .L259-.LFB1253
 5475 0316 05       		.uleb128 0x5
 5476 0317 CF01     		.uleb128 .LEHB112-.LFB1253
 5477 0319 8901     		.uleb128 .LEHE112-.LEHB112
 5478 031b AD05     		.uleb128 .L261-.LFB1253
 5479 031d 00       		.uleb128 0
 5480 031e FB02     		.uleb128 .LEHB113-.LFB1253
 5481 0320 05       		.uleb128 .LEHE113-.LEHB113
 5482 0321 DC05     		.uleb128 .L262-.LFB1253
 5483 0323 00       		.uleb128 0
 5484 0324 9403     		.uleb128 .LEHB114-.LFB1253
 5485 0326 60       		.uleb128 .LEHE114-.LEHB114
 5486 0327 C405     		.uleb128 .L263-.LFB1253
 5487 0329 00       		.uleb128 0
 5488 032a FE03     		.uleb128 .LEHB115-.LFB1253
 5489 032c 05       		.uleb128 .LEHE115-.LEHB115
 5490 032d DC05     		.uleb128 .L262-.LFB1253
 5491 032f 00       		.uleb128 0
 5492 0330 9E04     		.uleb128 .LEHB116-.LFB1253
 5493 0332 8801     		.uleb128 .LEHE116-.LEHB116
 5494 0334 F305     		.uleb128 .L264-.LFB1253
 5495 0336 00       		.uleb128 0
 5496 0337 A605     		.uleb128 .LEHB117-.LFB1253
 5497 0339 1E       		.uleb128 .LEHE117-.LEHB117
 5498 033a 00       		.uleb128 0
 5499 033b 00       		.uleb128 0
 5500 033c EE05     		.uleb128 .LEHB118-.LFB1253
 5501 033e 05       		.uleb128 .LEHE118-.LEHB118
 5502 033f 00       		.uleb128 0
 5503 0340 00       		.uleb128 0
 5504 0341 8506     		.uleb128 .LEHB119-.LFB1253
 5505 0343 05       		.uleb128 .LEHE119-.LEHB119
 5506 0344 00       		.uleb128 0
 5507 0345 00       		.uleb128 0
 5508              	.LLSDACSE1253:
 5509 0346 03       		.byte	0x3
 5510 0347 00       		.byte	0
 5511 0348 02       		.byte	0x2
 5512 0349 7D       		.byte	0x7d
 5513 034a 01       		.byte	0x1
 5514 034b 7D       		.byte	0x7d
 5515 034c 00       		.byte	0
 5516 034d 7D       		.byte	0x7d
 5517 034e 0000     		.align 4
 5518 0350 00000000 		.long	0
 5519              	
 5520 0354 00000000 		.long	DW.ref._ZTISt9exception-.
 5521 0358 00000000 		.long	DW.ref._ZTIN8UnitTest15AssertExceptionE-.
 5522              	.LLSDATT1253:
 5523              		.text
 5525              		.align 2
 5527              	_ZN12_GLOBAL__N_148FixtureDtorThrowsFixtureDtorThrowsTestNameHelper7RunImplEv:
 5528              	.LFB1257:
 139:TestTestMacros.cpp **** {
 5529              		.loc 6 139 1 is_stmt 1
 5530              		.cfi_startproc
 5531 26ae F30F1EFA 		endbr64
 5532 26b2 55       		pushq	%rbp
 5533              		.cfi_def_cfa_offset 16
 5534              		.cfi_offset 6, -16
 5535 26b3 4889E5   		movq	%rsp, %rbp
 5536              		.cfi_def_cfa_register 6
 5537 26b6 48897DF8 		movq	%rdi, -8(%rbp)
 140:TestTestMacros.cpp **** }
 5538              		.loc 6 140 1
 5539 26ba 90       		nop
 5540 26bb 5D       		popq	%rbp
 5541              		.cfi_def_cfa 7, 8
 5542 26bc C3       		ret
 5543              		.cfi_endproc
 5544              	.LFE1257:
 5546              		.section	.rodata
 5547 0a61 00000000 		.align 8
 5547      000000
 5548              	.LC56:
 5549 0a68 46697874 		.string	"FixturesWithThrowingDtorsAreFailures"
 5549      75726573 
 5549      57697468 
 5549      5468726F 
 5549      77696E67 
 5550              		.text
 5551 26bd 90       		.align 2
 5553              	_ZN12_GLOBAL__N_140TestFixturesWithThrowingDtorsAreFailuresC2Ev:
 5554              	.LFB1259:
 141:TestTestMacros.cpp **** 
 142:TestTestMacros.cpp **** #ifndef WIN32
 143:TestTestMacros.cpp **** TEST(FixturesWithThrowingDtorsAreFailures)
 5555              		.loc 6 143 1
 5556              		.cfi_startproc
 5557 26be 55       		pushq	%rbp
 5558              		.cfi_def_cfa_offset 16
 5559              		.cfi_offset 6, -16
 5560 26bf 4889E5   		movq	%rsp, %rbp
 5561              		.cfi_def_cfa_register 6
 5562 26c2 53       		pushq	%rbx
 5563 26c3 4883EC18 		subq	$24, %rsp
 5564              		.cfi_offset 3, -24
 5565 26c7 48897DE8 		movq	%rdi, -24(%rbp)
 5566              	.LBB80:
 5567              		.loc 6 143 1
 5568 26cb 488B5DE8 		movq	-24(%rbp), %rbx
 5569 26cf E8000000 		call	_ZN13UnitTestSuite12GetSuiteNameEv
 5569      00
 5570 26d4 4889C2   		movq	%rax, %rdx
 5571 26d7 41B88F00 		movl	$143, %r8d
 5571      0000
 5572 26dd 488D0500 		leaq	.LC2(%rip), %rax
 5572      000000
 5573 26e4 4889C1   		movq	%rax, %rcx
 5574 26e7 488D0500 		leaq	.LC56(%rip), %rax
 5574      000000
 5575 26ee 4889C6   		movq	%rax, %rsi
 5576 26f1 4889DF   		movq	%rbx, %rdi
 5577 26f4 E8000000 		call	_ZN8UnitTest4TestC2EPKcS2_S2_i@PLT
 5577      00
 5578 26f9 488D1500 		leaq	16+_ZTVN12_GLOBAL__N_140TestFixturesWithThrowingDtorsAreFailuresE(%rip), %rdx
 5578      000000
 5579 2700 488B45E8 		movq	-24(%rbp), %rax
 5580 2704 488910   		movq	%rdx, (%rax)
 5581              	.LBE80:
 5582 2707 90       		nop
 5583 2708 488B5DF8 		movq	-8(%rbp), %rbx
 5584 270c C9       		leave
 5585              		.cfi_def_cfa 7, 8
 5586 270d C3       		ret
 5587              		.cfi_endproc
 5588              	.LFE1259:
 5590              		.set	_ZN12_GLOBAL__N_140TestFixturesWithThrowingDtorsAreFailuresC1Ev,_ZN12_GLOBAL__N_140TestFixtur
 5591              		.local	_ZN12_GLOBAL__N_148testFixturesWithThrowingDtorsAreFailuresInstanceE
 5592              		.comm	_ZN12_GLOBAL__N_148testFixturesWithThrowingDtorsAreFailuresInstanceE,56,32
 5593              		.local	_ZN12_GLOBAL__N_141adderFixturesWithThrowingDtorsAreFailuresE
 5594              		.comm	_ZN12_GLOBAL__N_141adderFixturesWithThrowingDtorsAreFailuresE,1,1
 5595              		.section	.rodata
 5596 0a8d 000000   		.align 8
 5597              	.LC57:
 5598 0a90 7468726F 		.string	"throwingFixtureTestList2.GetHead() != NULL"
 5598      77696E67 
 5598      46697874 
 5598      75726554 
 5598      6573744C 
 5599              	.LC58:
 5600 0abb 7768696C 		.string	"while destroying fixture"
 5600      65206465 
 5600      7374726F 
 5600      79696E67 
 5600      20666978 
 5601 0ad4 00000000 		.align 8
 5602              	.LC59:
 5603 0ad8 73747273 		.string	"strstr(reporter.lastFailedMessage, \"while destroying fixture\")"
 5603      74722872 
 5603      65706F72 
 5603      7465722E 
 5603      6C617374 
 5604 0b17 00       		.align 8
 5605              	.LC60:
 5606 0b18 556E6861 		.string	"Unhandled exception in CHECK(throwingFixtureTestList2.GetHead() != NULL)"
 5606      6E646C65 
 5606      64206578 
 5606      63657074 
 5606      696F6E20 
 5607 0b61 00000000 		.align 8
 5607      000000
 5608              	.LC61:
 5609 0b68 556E6861 		.string	"Unhandled exception in CHECK(strstr(reporter.lastFailedMessage, \"while destroying fixtur
 5609      6E646C65 
 5609      64206578 
 5609      63657074 
 5609      696F6E20 
 5610              		.text
 5611              		.align 2
 5613              	_ZNK12_GLOBAL__N_140TestFixturesWithThrowingDtorsAreFailures7RunImplEv:
 5614              	.LFB1261:
 144:TestTestMacros.cpp **** {
 5615              		.loc 6 144 1
 5616              		.cfi_startproc
 5617              		.cfi_personality 0x9b,DW.ref.__gxx_personality_v0
 5618              		.cfi_lsda 0x1b,.LLSDA1261
 5619 270e F30F1EFA 		endbr64
 5620 2712 55       		pushq	%rbp
 5621              		.cfi_def_cfa_offset 16
 5622              		.cfi_offset 6, -16
 5623 2713 4889E5   		movq	%rsp, %rbp
 5624              		.cfi_def_cfa_register 6
 5625 2716 53       		pushq	%rbx
 5626 2717 4881ECA8 		subq	$2216, %rsp
 5626      080000
 5627              		.cfi_offset 3, -24
 5628 271e 4889BD58 		movq	%rdi, -2216(%rbp)
 5628      F7FFFF
 5629              		.loc 6 144 1
 5630 2725 64488B04 		movq	%fs:40, %rax
 5630      25280000 
 5630      00
 5631 272e 488945E8 		movq	%rax, -24(%rbp)
 5632 2732 31C0     		xorl	%eax, %eax
 145:TestTestMacros.cpp **** 	CHECK(throwingFixtureTestList2.GetHead() != NULL);
 5633              		.loc 6 145 2
 5634 2734 488D0500 		leaq	_ZN12_GLOBAL__N_124throwingFixtureTestList2E(%rip), %rax
 5634      000000
 5635 273b 4889C7   		movq	%rax, %rdi
 5636              	.LEHB120:
 5637 273e E8000000 		call	_ZNK8UnitTest8TestList7GetHeadEv@PLT
 5637      00
 5638 2743 4885C0   		testq	%rax, %rax
 5639 2746 0F95C0   		setne	%al
 5640 2749 0FB6C0   		movzbl	%al, %eax
 5641 274c 89C7     		movl	%eax, %edi
 5642 274e E8000000 		call	_ZN8UnitTest5CheckIbEEbT_
 5642      00
 5643 2753 83F001   		xorl	$1, %eax
 5644 2756 84C0     		testb	%al, %al
 5645 2758 7440     		je	.L269
 5646              		.loc 6 145 2 is_stmt 0 discriminator 3
 5647 275a E8000000 		call	_ZN8UnitTest11CurrentTest7ResultsEv@PLT
 5647      00
 5648 275f 488B18   		movq	(%rax), %rbx
 5649 2762 E8000000 		call	_ZN8UnitTest11CurrentTest7DetailsEv@PLT
 5649      00
 5650              		.loc 6 145 2 discriminator 5
 5651 2767 488B08   		movq	(%rax), %rcx
 5652 276a 488D8590 		leaq	-2160(%rbp), %rax
 5652      F7FFFF
 5653 2771 BA910000 		movl	$145, %edx
 5653      00
 5654 2776 4889CE   		movq	%rcx, %rsi
 5655 2779 4889C7   		movq	%rax, %rdi
 5656 277c E8000000 		call	_ZN8UnitTest11TestDetailsC1ERKS0_i@PLT
 5656      00
 5657              		.loc 6 145 2 discriminator 9
 5658 2781 488D8590 		leaq	-2160(%rbp), %rax
 5658      F7FFFF
 5659 2788 488D1500 		leaq	.LC57(%rip), %rdx
 5659      000000
 5660 278f 4889C6   		movq	%rax, %rsi
 5661 2792 4889DF   		movq	%rbx, %rdi
 5662 2795 E8000000 		call	_ZN8UnitTest11TestResults13OnTestFailureERKNS_11TestDetailsEPKc@PLT
 5662      00
 5663              	.LEHE120:
 5664              	.L269:
 146:TestTestMacros.cpp **** 
 147:TestTestMacros.cpp **** 	RecordingReporter reporter;
 5665              		.loc 6 147 20 is_stmt 1
 5666 279a 488D85B0 		leaq	-2128(%rbp), %rax
 5666      F7FFFF
 5667 27a1 4889C7   		movq	%rax, %rdi
 5668 27a4 E8000000 		call	_ZN17RecordingReporterC1Ev
 5668      00
 148:TestTestMacros.cpp **** 	TestResults result(&reporter);
 5669              		.loc 6 148 30
 5670 27a9 488D95B0 		leaq	-2128(%rbp), %rdx
 5670      F7FFFF
 5671 27b0 488D8570 		leaq	-2192(%rbp), %rax
 5671      F7FFFF
 5672 27b7 4889D6   		movq	%rdx, %rsi
 5673 27ba 4889C7   		movq	%rax, %rdi
 5674              	.LEHB121:
 5675 27bd E8000000 		call	_ZN8UnitTest11TestResultsC1EPNS_12TestReporterE@PLT
 5675      00
 5676              	.LBB81:
 149:TestTestMacros.cpp **** 	{
 150:TestTestMacros.cpp **** 		ScopedCurrentTest scopedResult(result);
 5677              		.loc 6 150 40
 5678 27c2 488D8D70 		leaq	-2192(%rbp), %rcx
 5678      F7FFFF
 5679 27c9 488D8590 		leaq	-2160(%rbp), %rax
 5679      F7FFFF
 5680 27d0 BA000000 		movl	$0, %edx
 5680      00
 5681 27d5 4889CE   		movq	%rcx, %rsi
 5682 27d8 4889C7   		movq	%rax, %rdi
 5683 27db E8000000 		call	_ZN17ScopedCurrentTestC1ERN8UnitTest11TestResultsEPKNS0_11TestDetailsE
 5683      00
 5684              	.LEHE121:
 151:TestTestMacros.cpp **** 		throwingFixtureTestList2.GetHead()->Run();
 5685              		.loc 6 151 42
 5686 27e0 488D0500 		leaq	_ZN12_GLOBAL__N_124throwingFixtureTestList2E(%rip), %rax
 5686      000000
 5687 27e7 4889C7   		movq	%rax, %rdi
 5688              	.LEHB122:
 5689 27ea E8000000 		call	_ZNK8UnitTest8TestList7GetHeadEv@PLT
 5689      00
 5690 27ef 4889C7   		movq	%rax, %rdi
 5691 27f2 E8000000 		call	_ZN8UnitTest4Test3RunEv@PLT
 5691      00
 5692              	.LEHE122:
 152:TestTestMacros.cpp **** 	}
 5693              		.loc 6 152 2
 5694 27f7 488D8590 		leaq	-2160(%rbp), %rax
 5694      F7FFFF
 5695 27fe 4889C7   		movq	%rax, %rdi
 5696              	.LEHB123:
 5697 2801 E8000000 		call	_ZN17ScopedCurrentTestD1Ev
 5697      00
 5698              	.LBE81:
 153:TestTestMacros.cpp **** 
 154:TestTestMacros.cpp **** 	int const failureCount = result.GetFailedTestCount();
 5699              		.loc 6 154 52
 5700 2806 488D8570 		leaq	-2192(%rbp), %rax
 5700      F7FFFF
 5701 280d 4889C7   		movq	%rax, %rdi
 5702 2810 E8000000 		call	_ZNK8UnitTest11TestResults18GetFailedTestCountEv@PLT
 5702      00
 5703              	.LEHE123:
 5704              		.loc 6 154 53
 5705 2815 898568F7 		movl	%eax, -2200(%rbp)
 5705      FFFF
 5706              	.LEHB124:
 155:TestTestMacros.cpp **** 	CHECK_EQUAL(1, failureCount);
 5707              		.loc 6 155 2
 5708 281b E8000000 		call	_ZN8UnitTest11CurrentTest7DetailsEv@PLT
 5708      00
 5709              		.loc 6 155 2 is_stmt 0 discriminator 1
 5710 2820 488B08   		movq	(%rax), %rcx
 5711 2823 488D8590 		leaq	-2160(%rbp), %rax
 5711      F7FFFF
 5712 282a BA9B0000 		movl	$155, %edx
 5712      00
 5713 282f 4889CE   		movq	%rcx, %rsi
 5714 2832 4889C7   		movq	%rax, %rdi
 5715 2835 E8000000 		call	_ZN8UnitTest11TestDetailsC1ERKS0_i@PLT
 5715      00
 5716              		.loc 6 155 2 discriminator 4
 5717 283a C7856CF7 		movl	$1, -2196(%rbp)
 5717      FFFF0100 
 5717      0000
 5718 2844 E8000000 		call	_ZN8UnitTest11CurrentTest7ResultsEv@PLT
 5718      00
 5719 2849 488B00   		movq	(%rax), %rax
 5720 284c 488D8D90 		leaq	-2160(%rbp), %rcx
 5720      F7FFFF
 5721 2853 488D9568 		leaq	-2200(%rbp), %rdx
 5721      F7FFFF
 5722 285a 488DB56C 		leaq	-2196(%rbp), %rsi
 5722      F7FFFF
 5723 2861 4889C7   		movq	%rax, %rdi
 5724 2864 E8000000 		call	_ZN8UnitTest10CheckEqualIiiEEvRNS_11TestResultsERKT_RKT0_RKNS_11TestDetailsE
 5724      00
 5725              	.LEHE124:
 5726              	.L276:
 156:TestTestMacros.cpp **** 	CHECK(strstr(reporter.lastFailedMessage, "while destroying fixture"));
 5727              		.loc 6 156 2 is_stmt 1
 5728 2869 488D85B0 		leaq	-2128(%rbp), %rax
 5728      F7FFFF
 5729 2870 48051405 		addq	$1300, %rax
 5729      0000
 5730 2876 488D1500 		leaq	.LC58(%rip), %rdx
 5730      000000
 5731 287d 4889D6   		movq	%rdx, %rsi
 5732 2880 4889C7   		movq	%rax, %rdi
 5733 2883 E8000000 		call	strstr@PLT
 5733      00
 5734 2888 4889C7   		movq	%rax, %rdi
 5735 288b E8000000 		call	_ZN8UnitTest5CheckIPcEEbT_
 5735      00
 5736 2890 83F001   		xorl	$1, %eax
 5737 2893 84C0     		testb	%al, %al
 5738 2895 7440     		je	.L270
 5739              	.LEHB125:
 5740              		.loc 6 156 2 is_stmt 0 discriminator 1
 5741 2897 E8000000 		call	_ZN8UnitTest11CurrentTest7ResultsEv@PLT
 5741      00
 5742 289c 488B18   		movq	(%rax), %rbx
 5743 289f E8000000 		call	_ZN8UnitTest11CurrentTest7DetailsEv@PLT
 5743      00
 5744              		.loc 6 156 2 discriminator 3
 5745 28a4 488B08   		movq	(%rax), %rcx
 5746 28a7 488D8590 		leaq	-2160(%rbp), %rax
 5746      F7FFFF
 5747 28ae BA9C0000 		movl	$156, %edx
 5747      00
 5748 28b3 4889CE   		movq	%rcx, %rsi
 5749 28b6 4889C7   		movq	%rax, %rdi
 5750 28b9 E8000000 		call	_ZN8UnitTest11TestDetailsC1ERKS0_i@PLT
 5750      00
 5751              		.loc 6 156 2 discriminator 7
 5752 28be 488D8590 		leaq	-2160(%rbp), %rax
 5752      F7FFFF
 5753 28c5 488D1500 		leaq	.LC59(%rip), %rdx
 5753      000000
 5754 28cc 4889C6   		movq	%rax, %rsi
 5755 28cf 4889DF   		movq	%rbx, %rdi
 5756 28d2 E8000000 		call	_ZN8UnitTest11TestResults13OnTestFailureERKNS_11TestDetailsEPKc@PLT
 5756      00
 5757              	.LEHE125:
 5758              	.L270:
 157:TestTestMacros.cpp **** }
 5759              		.loc 6 157 1 is_stmt 1
 5760 28d7 488D85B0 		leaq	-2128(%rbp), %rax
 5760      F7FFFF
 5761 28de 4889C7   		movq	%rax, %rdi
 5762              	.LEHB126:
 5763 28e1 E8000000 		call	_ZN17RecordingReporterD1Ev
 5763      00
 5764              	.LEHE126:
 5765 28e6 488B45E8 		movq	-24(%rbp), %rax
 5766 28ea 64482B04 		subq	%fs:40, %rax
 5766      25280000 
 5766      00
 5767 28f3 0F847B01 		je	.L280
 5767      0000
 5768 28f9 E9710100 		jmp	.L289
 5768      00
 5769              	.L281:
 5770 28fe F30F1EFA 		endbr64
 145:TestTestMacros.cpp **** 
 5771              		.loc 6 145 2
 5772 2902 4889C7   		movq	%rax, %rdi
 5773 2905 E8000000 		call	__cxa_begin_catch@PLT
 5773      00
 5774              	.LEHB127:
 5775 290a E8000000 		call	_ZN8UnitTest11CurrentTest7ResultsEv@PLT
 5775      00
 145:TestTestMacros.cpp **** 
 5776              		.loc 6 145 2 is_stmt 0 discriminator 8
 5777 290f 488B18   		movq	(%rax), %rbx
 5778 2912 E8000000 		call	_ZN8UnitTest11CurrentTest7DetailsEv@PLT
 5778      00
 145:TestTestMacros.cpp **** 
 5779              		.loc 6 145 2 discriminator 14
 5780 2917 488B08   		movq	(%rax), %rcx
 5781 291a 488D8590 		leaq	-2160(%rbp), %rax
 5781      F7FFFF
 5782 2921 BA910000 		movl	$145, %edx
 5782      00
 5783 2926 4889CE   		movq	%rcx, %rsi
 5784 2929 4889C7   		movq	%rax, %rdi
 5785 292c E8000000 		call	_ZN8UnitTest11TestDetailsC1ERKS0_i@PLT
 5785      00
 145:TestTestMacros.cpp **** 
 5786              		.loc 6 145 2 discriminator 18
 5787 2931 488D8590 		leaq	-2160(%rbp), %rax
 5787      F7FFFF
 5788 2938 488D1500 		leaq	.LC60(%rip), %rdx
 5788      000000
 5789 293f 4889C6   		movq	%rax, %rsi
 5790 2942 4889DF   		movq	%rbx, %rdi
 5791 2945 E8000000 		call	_ZN8UnitTest11TestResults13OnTestFailureERKNS_11TestDetailsEPKc@PLT
 5791      00
 5792              	.LEHE127:
 5793              	.LEHB128:
 145:TestTestMacros.cpp **** 
 5794              		.loc 6 145 2 discriminator 20
 5795 294a E8000000 		call	__cxa_end_catch@PLT
 5795      00
 5796              	.LEHE128:
 5797 294f E946FEFF 		jmp	.L269
 5797      FF
 5798              	.L282:
 5799 2954 F30F1EFA 		endbr64
 145:TestTestMacros.cpp **** 
 5800              		.loc 6 145 2
 5801 2958 4889C3   		movq	%rax, %rbx
 5802 295b E8000000 		call	__cxa_end_catch@PLT
 5802      00
 5803 2960 4889D8   		movq	%rbx, %rax
 5804 2963 4889C7   		movq	%rax, %rdi
 5805              	.LEHB129:
 5806 2966 E8000000 		call	_Unwind_Resume@PLT
 5806      00
 5807              	.LEHE129:
 5808              	.L284:
 5809 296b F30F1EFA 		endbr64
 5810              	.LBB82:
 152:TestTestMacros.cpp **** 
 5811              		.loc 6 152 2 is_stmt 1
 5812 296f 4889C3   		movq	%rax, %rbx
 5813 2972 488D8590 		leaq	-2160(%rbp), %rax
 5813      F7FFFF
 5814 2979 4889C7   		movq	%rax, %rdi
 5815 297c E8000000 		call	_ZN17ScopedCurrentTestD1Ev
 5815      00
 5816 2981 E9CF0000 		jmp	.L274
 5816      00
 5817              	.L285:
 5818 2986 F30F1EFA 		endbr64
 5819              	.LBE82:
 155:TestTestMacros.cpp **** 	CHECK(strstr(reporter.lastFailedMessage, "while destroying fixture"));
 5820              		.loc 6 155 2
 5821 298a 4889C7   		movq	%rax, %rdi
 5822 298d E8000000 		call	__cxa_begin_catch@PLT
 5822      00
 5823              	.LEHB130:
 5824 2992 E8000000 		call	_ZN8UnitTest11CurrentTest7ResultsEv@PLT
 5824      00
 155:TestTestMacros.cpp **** 	CHECK(strstr(reporter.lastFailedMessage, "while destroying fixture"));
 5825              		.loc 6 155 2 is_stmt 0 discriminator 3
 5826 2997 488B18   		movq	(%rax), %rbx
 5827 299a E8000000 		call	_ZN8UnitTest11CurrentTest7DetailsEv@PLT
 5827      00
 155:TestTestMacros.cpp **** 	CHECK(strstr(reporter.lastFailedMessage, "while destroying fixture"));
 5828              		.loc 6 155 2 discriminator 11
 5829 299f 488B08   		movq	(%rax), %rcx
 5830 29a2 488D8590 		leaq	-2160(%rbp), %rax
 5830      F7FFFF
 5831 29a9 BA9B0000 		movl	$155, %edx
 5831      00
 5832 29ae 4889CE   		movq	%rcx, %rsi
 5833 29b1 4889C7   		movq	%rax, %rdi
 5834 29b4 E8000000 		call	_ZN8UnitTest11TestDetailsC1ERKS0_i@PLT
 5834      00
 155:TestTestMacros.cpp **** 	CHECK(strstr(reporter.lastFailedMessage, "while destroying fixture"));
 5835              		.loc 6 155 2 discriminator 15
 5836 29b9 488D8590 		leaq	-2160(%rbp), %rax
 5836      F7FFFF
 5837 29c0 488D1500 		leaq	.LC51(%rip), %rdx
 5837      000000
 5838 29c7 4889C6   		movq	%rax, %rsi
 5839 29ca 4889DF   		movq	%rbx, %rdi
 5840 29cd E8000000 		call	_ZN8UnitTest11TestResults13OnTestFailureERKNS_11TestDetailsEPKc@PLT
 5840      00
 5841              	.LEHE130:
 5842              	.LEHB131:
 155:TestTestMacros.cpp **** 	CHECK(strstr(reporter.lastFailedMessage, "while destroying fixture"));
 5843              		.loc 6 155 2 discriminator 17
 5844 29d2 E8000000 		call	__cxa_end_catch@PLT
 5844      00
 5845              	.LEHE131:
 155:TestTestMacros.cpp **** 	CHECK(strstr(reporter.lastFailedMessage, "while destroying fixture"));
 5846              		.loc 6 155 2
 5847 29d7 E98DFEFF 		jmp	.L276
 5847      FF
 5848              	.L286:
 5849 29dc F30F1EFA 		endbr64
 5850 29e0 4889C3   		movq	%rax, %rbx
 5851 29e3 E8000000 		call	__cxa_end_catch@PLT
 5851      00
 5852 29e8 EB6B     		jmp	.L274
 5853              	.L287:
 5854 29ea F30F1EFA 		endbr64
 156:TestTestMacros.cpp **** }
 5855              		.loc 6 156 2 is_stmt 1
 5856 29ee 4889C7   		movq	%rax, %rdi
 5857 29f1 E8000000 		call	__cxa_begin_catch@PLT
 5857      00
 5858              	.LEHB132:
 5859 29f6 E8000000 		call	_ZN8UnitTest11CurrentTest7ResultsEv@PLT
 5859      00
 156:TestTestMacros.cpp **** }
 5860              		.loc 6 156 2 is_stmt 0 discriminator 6
 5861 29fb 488B18   		movq	(%rax), %rbx
 5862 29fe E8000000 		call	_ZN8UnitTest11CurrentTest7DetailsEv@PLT
 5862      00
 156:TestTestMacros.cpp **** }
 5863              		.loc 6 156 2 discriminator 12
 5864 2a03 488B08   		movq	(%rax), %rcx
 5865 2a06 488D8590 		leaq	-2160(%rbp), %rax
 5865      F7FFFF
 5866 2a0d BA9C0000 		movl	$156, %edx
 5866      00
 5867 2a12 4889CE   		movq	%rcx, %rsi
 5868 2a15 4889C7   		movq	%rax, %rdi
 5869 2a18 E8000000 		call	_ZN8UnitTest11TestDetailsC1ERKS0_i@PLT
 5869      00
 156:TestTestMacros.cpp **** }
 5870              		.loc 6 156 2 discriminator 16
 5871 2a1d 488D8590 		leaq	-2160(%rbp), %rax
 5871      F7FFFF
 5872 2a24 488D1500 		leaq	.LC61(%rip), %rdx
 5872      000000
 5873 2a2b 4889C6   		movq	%rax, %rsi
 5874 2a2e 4889DF   		movq	%rbx, %rdi
 5875 2a31 E8000000 		call	_ZN8UnitTest11TestResults13OnTestFailureERKNS_11TestDetailsEPKc@PLT
 5875      00
 5876              	.LEHE132:
 5877              	.LEHB133:
 156:TestTestMacros.cpp **** }
 5878              		.loc 6 156 2 discriminator 18
 5879 2a36 E8000000 		call	__cxa_end_catch@PLT
 5879      00
 5880              	.LEHE133:
 156:TestTestMacros.cpp **** }
 5881              		.loc 6 156 2
 5882 2a3b E997FEFF 		jmp	.L270
 5882      FF
 5883              	.L288:
 5884 2a40 F30F1EFA 		endbr64
 5885 2a44 4889C3   		movq	%rax, %rbx
 5886 2a47 E8000000 		call	__cxa_end_catch@PLT
 5886      00
 5887 2a4c EB07     		jmp	.L274
 5888              	.L283:
 5889 2a4e F30F1EFA 		endbr64
 5890              		.loc 6 157 1 is_stmt 1
 5891 2a52 4889C3   		movq	%rax, %rbx
 5892              	.L274:
 5893 2a55 488D85B0 		leaq	-2128(%rbp), %rax
 5893      F7FFFF
 5894 2a5c 4889C7   		movq	%rax, %rdi
 5895 2a5f E8000000 		call	_ZN17RecordingReporterD1Ev
 5895      00
 5896 2a64 4889D8   		movq	%rbx, %rax
 5897 2a67 4889C7   		movq	%rax, %rdi
 5898              	.LEHB134:
 5899 2a6a E8000000 		call	_Unwind_Resume@PLT
 5899      00
 5900              	.LEHE134:
 5901              	.L289:
 5902 2a6f E8000000 		call	__stack_chk_fail@PLT
 5902      00
 5903              	.L280:
 5904 2a74 488B5DF8 		movq	-8(%rbp), %rbx
 5905 2a78 C9       		leave
 5906              		.cfi_def_cfa 7, 8
 5907 2a79 C3       		ret
 5908              		.cfi_endproc
 5909              	.LFE1261:
 5910              		.section	.gcc_except_table
 5911              		.align 4
 5912              	.LLSDA1261:
 5913 035c FF       		.byte	0xff
 5914 035d 9B       		.byte	0x9b
 5915 035e 5D       		.uleb128 .LLSDATT1261-.LLSDATTD1261
 5916              	.LLSDATTD1261:
 5917 035f 01       		.byte	0x1
 5918 0360 55       		.uleb128 .LLSDACSE1261-.LLSDACSB1261
 5919              	.LLSDACSB1261:
 5920 0361 30       		.uleb128 .LEHB120-.LFB1261
 5921 0362 5C       		.uleb128 .LEHE120-.LEHB120
 5922 0363 F003     		.uleb128 .L281-.LFB1261
 5923 0365 01       		.uleb128 0x1
 5924 0366 AF01     		.uleb128 .LEHB121-.LFB1261
 5925 0368 23       		.uleb128 .LEHE121-.LEHB121
 5926 0369 C006     		.uleb128 .L283-.LFB1261
 5927 036b 00       		.uleb128 0
 5928 036c DC01     		.uleb128 .LEHB122-.LFB1261
 5929 036e 0D       		.uleb128 .LEHE122-.LEHB122
 5930 036f DD04     		.uleb128 .L284-.LFB1261
 5931 0371 00       		.uleb128 0
 5932 0372 F301     		.uleb128 .LEHB123-.LFB1261
 5933 0374 14       		.uleb128 .LEHE123-.LEHB123
 5934 0375 C006     		.uleb128 .L283-.LFB1261
 5935 0377 00       		.uleb128 0
 5936 0378 8D02     		.uleb128 .LEHB124-.LFB1261
 5937 037a 4E       		.uleb128 .LEHE124-.LEHB124
 5938 037b F804     		.uleb128 .L285-.LFB1261
 5939 037d 01       		.uleb128 0x1
 5940 037e 8903     		.uleb128 .LEHB125-.LFB1261
 5941 0380 40       		.uleb128 .LEHE125-.LEHB125
 5942 0381 DC05     		.uleb128 .L287-.LFB1261
 5943 0383 01       		.uleb128 0x1
 5944 0384 D303     		.uleb128 .LEHB126-.LFB1261
 5945 0386 05       		.uleb128 .LEHE126-.LEHB126
 5946 0387 00       		.uleb128 0
 5947 0388 00       		.uleb128 0
 5948 0389 FC03     		.uleb128 .LEHB127-.LFB1261
 5949 038b 40       		.uleb128 .LEHE127-.LEHB127
 5950 038c C604     		.uleb128 .L282-.LFB1261
 5951 038e 00       		.uleb128 0
 5952 038f BC04     		.uleb128 .LEHB128-.LFB1261
 5953 0391 05       		.uleb128 .LEHE128-.LEHB128
 5954 0392 00       		.uleb128 0
 5955 0393 00       		.uleb128 0
 5956 0394 D804     		.uleb128 .LEHB129-.LFB1261
 5957 0396 05       		.uleb128 .LEHE129-.LEHB129
 5958 0397 00       		.uleb128 0
 5959 0398 00       		.uleb128 0
 5960 0399 8405     		.uleb128 .LEHB130-.LFB1261
 5961 039b 40       		.uleb128 .LEHE130-.LEHB130
 5962 039c CE05     		.uleb128 .L286-.LFB1261
 5963 039e 00       		.uleb128 0
 5964 039f C405     		.uleb128 .LEHB131-.LFB1261
 5965 03a1 05       		.uleb128 .LEHE131-.LEHB131
 5966 03a2 C006     		.uleb128 .L283-.LFB1261
 5967 03a4 00       		.uleb128 0
 5968 03a5 E805     		.uleb128 .LEHB132-.LFB1261
 5969 03a7 40       		.uleb128 .LEHE132-.LEHB132
 5970 03a8 B206     		.uleb128 .L288-.LFB1261
 5971 03aa 00       		.uleb128 0
 5972 03ab A806     		.uleb128 .LEHB133-.LFB1261
 5973 03ad 05       		.uleb128 .LEHE133-.LEHB133
 5974 03ae C006     		.uleb128 .L283-.LFB1261
 5975 03b0 00       		.uleb128 0
 5976 03b1 DC06     		.uleb128 .LEHB134-.LFB1261
 5977 03b3 05       		.uleb128 .LEHE134-.LEHB134
 5978 03b4 00       		.uleb128 0
 5979 03b5 00       		.uleb128 0
 5980              	.LLSDACSE1261:
 5981 03b6 01       		.byte	0x1
 5982 03b7 00       		.byte	0
 5983              		.align 4
 5984 03b8 00000000 		.long	0
 5985              	
 5986              	.LLSDATT1261:
 5987              		.text
 5989              		.section	.rodata
 5990 0bc5 000000   		.align 4
 5993              	_ZN12_GLOBAL__N_1L11FailingLineE:
 5994 0bc8 7B000000 		.long	123
 5995              	.LC62:
 5996 0bcc 66696C65 		.string	"file"
 5996      00
 5997              	.LC63:
 5998 0bd1 61737365 		.string	"assert failure"
 5998      72742066 
 5998      61696C75 
 5998      726500
 5999              		.text
 6000              		.align 2
 6002              	_ZN12_GLOBAL__N_118FixtureCtorAssertsC2Ev:
 6003              	.LFB1263:
 158:TestTestMacros.cpp **** #endif
 159:TestTestMacros.cpp **** 
 160:TestTestMacros.cpp **** const int FailingLine = 123;
 161:TestTestMacros.cpp **** 
 162:TestTestMacros.cpp **** struct FixtureCtorAsserts
 163:TestTestMacros.cpp **** {
 164:TestTestMacros.cpp **** 	FixtureCtorAsserts()
 6004              		.loc 6 164 2
 6005              		.cfi_startproc
 6006 2a7a 55       		pushq	%rbp
 6007              		.cfi_def_cfa_offset 16
 6008              		.cfi_offset 6, -16
 6009 2a7b 4889E5   		movq	%rsp, %rbp
 6010              		.cfi_def_cfa_register 6
 6011 2a7e 4883EC10 		subq	$16, %rsp
 6012 2a82 48897DF8 		movq	%rdi, -8(%rbp)
 6013              	.LBB83:
 165:TestTestMacros.cpp **** 	{
 166:TestTestMacros.cpp **** 		UnitTest::ReportAssert("assert failure", "file", FailingLine);
 6014              		.loc 6 166 25
 6015 2a86 BA7B0000 		movl	$123, %edx
 6015      00
 6016 2a8b 488D0500 		leaq	.LC62(%rip), %rax
 6016      000000
 6017 2a92 4889C6   		movq	%rax, %rsi
 6018 2a95 488D0500 		leaq	.LC63(%rip), %rax
 6018      000000
 6019 2a9c 4889C7   		movq	%rax, %rdi
 6020 2a9f E8000000 		call	_ZN8UnitTest12ReportAssertEPKcS1_i@PLT
 6020      00
 6021              	.LBE83:
 167:TestTestMacros.cpp **** 	}
 6022              		.loc 6 167 2
 6023 2aa4 90       		nop
 6024 2aa5 C9       		leave
 6025              		.cfi_def_cfa 7, 8
 6026 2aa6 C3       		ret
 6027              		.cfi_endproc
 6028              	.LFE1263:
 6030              		.local	_ZN12_GLOBAL__N_125ctorAssertFixtureTestListE
 6031              		.comm	_ZN12_GLOBAL__N_125ctorAssertFixtureTestListE,16,16
 6032 2aa7 90       		.align 2
 6034              	_ZN12_GLOBAL__N_159FixtureCtorAssertsCorrectlyReportsAssertFailureInCtorHelperC2ERKN8UnitTest11Test
 6035              	.LFB1266:
 168:TestTestMacros.cpp **** };
 169:TestTestMacros.cpp **** 
 170:TestTestMacros.cpp **** TestList ctorAssertFixtureTestList;
 171:TestTestMacros.cpp **** TEST_FIXTURE_EX(FixtureCtorAsserts, CorrectlyReportsAssertFailureInCtor, ctorAssertFixtureTestList)
 6036              		.loc 6 171 1
 6037              		.cfi_startproc
 6038 2aa8 55       		pushq	%rbp
 6039              		.cfi_def_cfa_offset 16
 6040              		.cfi_offset 6, -16
 6041 2aa9 4889E5   		movq	%rsp, %rbp
 6042              		.cfi_def_cfa_register 6
 6043 2aac 4883EC10 		subq	$16, %rsp
 6044 2ab0 48897DF8 		movq	%rdi, -8(%rbp)
 6045 2ab4 488975F0 		movq	%rsi, -16(%rbp)
 6046              	.LBB84:
 6047              		.loc 6 171 1
 6048 2ab8 488B45F8 		movq	-8(%rbp), %rax
 6049 2abc 4889C7   		movq	%rax, %rdi
 6050 2abf E8B6FFFF 		call	_ZN12_GLOBAL__N_118FixtureCtorAssertsC2Ev
 6050      FF
 6051 2ac4 488B45F8 		movq	-8(%rbp), %rax
 6052 2ac8 488B55F0 		movq	-16(%rbp), %rdx
 6053 2acc 488910   		movq	%rdx, (%rax)
 6054              	.LBE84:
 6055 2acf 90       		nop
 6056 2ad0 C9       		leave
 6057              		.cfi_def_cfa 7, 8
 6058 2ad1 C3       		ret
 6059              		.cfi_endproc
 6060              	.LFE1266:
 6062              		.set	_ZN12_GLOBAL__N_159FixtureCtorAssertsCorrectlyReportsAssertFailureInCtorHelperC1ERKN8UnitTest
 6063              		.section	.rodata
 6064              		.align 8
 6065              	.LC64:
 6066 0be0 436F7272 		.string	"CorrectlyReportsAssertFailureInCtor"
 6066      6563746C 
 6066      79526570 
 6066      6F727473 
 6066      41737365 
 6067              		.text
 6068              		.align 2
 6070              	_ZN12_GLOBAL__N_157TestFixtureCtorAssertsCorrectlyReportsAssertFailureInCtorC2Ev:
 6071              	.LFB1269:
 6072              		.loc 6 171 1
 6073              		.cfi_startproc
 6074 2ad2 55       		pushq	%rbp
 6075              		.cfi_def_cfa_offset 16
 6076              		.cfi_offset 6, -16
 6077 2ad3 4889E5   		movq	%rsp, %rbp
 6078              		.cfi_def_cfa_register 6
 6079 2ad6 53       		pushq	%rbx
 6080 2ad7 4883EC18 		subq	$24, %rsp
 6081              		.cfi_offset 3, -24
 6082 2adb 48897DE8 		movq	%rdi, -24(%rbp)
 6083              	.LBB85:
 6084              		.loc 6 171 1
 6085 2adf 488B5DE8 		movq	-24(%rbp), %rbx
 6086 2ae3 E8000000 		call	_ZN13UnitTestSuite12GetSuiteNameEv
 6086      00
 6087 2ae8 4889C2   		movq	%rax, %rdx
 6088 2aeb 41B8AB00 		movl	$171, %r8d
 6088      0000
 6089 2af1 488D0500 		leaq	.LC2(%rip), %rax
 6089      000000
 6090 2af8 4889C1   		movq	%rax, %rcx
 6091 2afb 488D0500 		leaq	.LC64(%rip), %rax
 6091      000000
 6092 2b02 4889C6   		movq	%rax, %rsi
 6093 2b05 4889DF   		movq	%rbx, %rdi
 6094 2b08 E8000000 		call	_ZN8UnitTest4TestC2EPKcS2_S2_i@PLT
 6094      00
 6095 2b0d 488D1500 		leaq	16+_ZTVN12_GLOBAL__N_157TestFixtureCtorAssertsCorrectlyReportsAssertFailureInCtorE(%rip), %rd
 6095      000000
 6096 2b14 488B45E8 		movq	-24(%rbp), %rax
 6097 2b18 488910   		movq	%rdx, (%rax)
 6098              	.LBE85:
 6099 2b1b 90       		nop
 6100 2b1c 488B5DF8 		movq	-8(%rbp), %rbx
 6101 2b20 C9       		leave
 6102              		.cfi_def_cfa 7, 8
 6103 2b21 C3       		ret
 6104              		.cfi_endproc
 6105              	.LFE1269:
 6107              		.set	_ZN12_GLOBAL__N_157TestFixtureCtorAssertsCorrectlyReportsAssertFailureInCtorC1Ev,_ZN12_GLOBAL
 6108              		.local	_ZN12_GLOBAL__N_165testFixtureCtorAssertsCorrectlyReportsAssertFailureInCtorInstanceE
 6109              		.comm	_ZN12_GLOBAL__N_165testFixtureCtorAssertsCorrectlyReportsAssertFailureInCtorInstanceE,56,32
 6110              		.local	_ZN12_GLOBAL__N_158adderFixtureCtorAssertsCorrectlyReportsAssertFailureInCtorE
 6111              		.comm	_ZN12_GLOBAL__N_158adderFixtureCtorAssertsCorrectlyReportsAssertFailureInCtorE,1,1
 6112              		.section	.rodata
 6113 0c04 00000000 		.align 8
 6114              	.LC65:
 6115 0c08 556E6861 		.string	"Unhandled exception while destroying fixture FixtureCtorAsserts"
 6115      6E646C65 
 6115      64206578 
 6115      63657074 
 6115      696F6E20 
 6116              		.align 8
 6117              	.LC66:
 6118 0c48 556E6861 		.string	"Unhandled exception while constructing fixture FixtureCtorAsserts"
 6118      6E646C65 
 6118      64206578 
 6118      63657074 
 6118      696F6E20 
 6119              		.text
 6120              		.align 2
 6122              	_ZNK12_GLOBAL__N_157TestFixtureCtorAssertsCorrectlyReportsAssertFailureInCtor7RunImplEv:
 6123              	.LFB1271:
 6124              		.loc 6 171 1
 6125              		.cfi_startproc
 6126              		.cfi_personality 0x9b,DW.ref.__gxx_personality_v0
 6127              		.cfi_lsda 0x1b,.LLSDA1271
 6128 2b22 F30F1EFA 		endbr64
 6129 2b26 55       		pushq	%rbp
 6130              		.cfi_def_cfa_offset 16
 6131              		.cfi_offset 6, -16
 6132 2b27 4889E5   		movq	%rsp, %rbp
 6133              		.cfi_def_cfa_register 6
 6134 2b2a 4155     		pushq	%r13
 6135 2b2c 4154     		pushq	%r12
 6136 2b2e 53       		pushq	%rbx
 6137 2b2f 4881ECF8 		subq	$504, %rsp
 6137      010000
 6138              		.cfi_offset 13, -24
 6139              		.cfi_offset 12, -32
 6140              		.cfi_offset 3, -40
 6141 2b36 4889BDF8 		movq	%rdi, -520(%rbp)
 6141      FDFFFF
 6142              		.loc 6 171 1
 6143 2b3d 64488B04 		movq	%fs:40, %rax
 6143      25280000 
 6143      00
 6144 2b46 488945D8 		movq	%rax, -40(%rbp)
 6145 2b4a 31C0     		xorl	%eax, %eax
 6146 2b4c C6850FFE 		movb	$0, -497(%rbp)
 6146      FFFF00
 6147              	.LBB86:
 6148 2b53 488B85F8 		movq	-520(%rbp), %rax
 6148      FDFFFF
 6149 2b5a 488D5008 		leaq	8(%rax), %rdx
 6150 2b5e 488D8520 		leaq	-480(%rbp), %rax
 6150      FEFFFF
 6151 2b65 4889D6   		movq	%rdx, %rsi
 6152 2b68 4889C7   		movq	%rax, %rdi
 6153              	.LEHB135:
 6154 2b6b E838FFFF 		call	_ZN12_GLOBAL__N_159FixtureCtorAssertsCorrectlyReportsAssertFailureInCtorHelperC1ERKN8UnitTest
 6154      FF
 6155              		.loc 6 171 1 is_stmt 0 discriminator 1
 6156 2b70 C6850FFE 		movb	$1, -497(%rbp)
 6156      FFFF01
 6157 2b77 488B85F8 		movq	-520(%rbp), %rax
 6157      FDFFFF
 6158 2b7e 488D5008 		leaq	8(%rax), %rdx
 6159 2b82 488D8520 		leaq	-480(%rbp), %rax
 6159      FEFFFF
 6160 2b89 4889D6   		movq	%rdx, %rsi
 6161 2b8c 4889C7   		movq	%rax, %rdi
 6162 2b8f E8D71800 		call	_ZN8UnitTest11ExecuteTestIN12_GLOBAL__N_159FixtureCtorAssertsCorrectlyReportsAssertFailureInC
 6162      00
 6163              	.LEHE135:
 6164              	.LBE86:
 6165              		.loc 6 171 1
 6166 2b94 E9630200 		jmp	.L293
 6166      00
 6167              	.L306:
 6168 2b99 F30F1EFA 		endbr64
 6169 2b9d 4883FA01 		cmpq	$1, %rdx
 6170 2ba1 740F     		je	.L295
 6171 2ba3 4883FA02 		cmpq	$2, %rdx
 6172 2ba7 0F84A700 		je	.L296
 6172      0000
 6173 2bad E94D0100 		jmp	.L311
 6173      00
 6174              	.L295:
 6175              	.LBB87:
 6176              		.loc 6 171 1 discriminator 2
 6177 2bb2 4889C7   		movq	%rax, %rdi
 6178 2bb5 E8000000 		call	__cxa_begin_catch@PLT
 6178      00
 6179 2bba 48898518 		movq	%rax, -488(%rbp)
 6179      FEFFFF
 6180              	.LEHB136:
 6181 2bc1 E8000000 		call	_ZN8UnitTest11CurrentTest7ResultsEv@PLT
 6181      00
 6182 2bc6 488B18   		movq	(%rax), %rbx
 6183 2bc9 488B8518 		movq	-488(%rbp), %rax
 6183      FEFFFF
 6184 2bd0 488B00   		movq	(%rax), %rax
 6185 2bd3 4883C010 		addq	$16, %rax
 6186 2bd7 488B10   		movq	(%rax), %rdx
 6187 2bda 488B8518 		movq	-488(%rbp), %rax
 6187      FEFFFF
 6188 2be1 4889C7   		movq	%rax, %rdi
 6189 2be4 FFD2     		call	*%rdx
 6190              	.LVL12:
 6191 2be6 4989C4   		movq	%rax, %r12
 6192 2be9 488B8518 		movq	-488(%rbp), %rax
 6192      FEFFFF
 6193 2bf0 4889C7   		movq	%rax, %rdi
 6194 2bf3 E8000000 		call	_ZNK8UnitTest15AssertException10LineNumberEv@PLT
 6194      00
 6195              		.loc 6 171 1 discriminator 6
 6196 2bf8 4189C5   		movl	%eax, %r13d
 6197 2bfb 488B8518 		movq	-488(%rbp), %rax
 6197      FEFFFF
 6198 2c02 4889C7   		movq	%rax, %rdi
 6199 2c05 E8000000 		call	_ZNK8UnitTest15AssertException8FilenameEv@PLT
 6199      00
 6200              		.loc 6 171 1 discriminator 8
 6201 2c0a 4889C1   		movq	%rax, %rcx
 6202 2c0d 488B85F8 		movq	-520(%rbp), %rax
 6202      FDFFFF
 6203 2c14 488B5008 		movq	8(%rax), %rdx
 6204 2c18 488B85F8 		movq	-520(%rbp), %rax
 6204      FDFFFF
 6205 2c1f 488B7010 		movq	16(%rax), %rsi
 6206 2c23 488D8520 		leaq	-480(%rbp), %rax
 6206      FEFFFF
 6207 2c2a 4589E8   		movl	%r13d, %r8d
 6208 2c2d 4889C7   		movq	%rax, %rdi
 6209 2c30 E8000000 		call	_ZN8UnitTest11TestDetailsC1EPKcS2_S2_i@PLT
 6209      00
 6210              		.loc 6 171 1 discriminator 12
 6211 2c35 488D8520 		leaq	-480(%rbp), %rax
 6211      FEFFFF
 6212 2c3c 4C89E2   		movq	%r12, %rdx
 6213 2c3f 4889C6   		movq	%rax, %rsi
 6214 2c42 4889DF   		movq	%rbx, %rdi
 6215 2c45 E8000000 		call	_ZN8UnitTest11TestResults13OnTestFailureERKNS_11TestDetailsEPKc@PLT
 6215      00
 6216              	.LEHE136:
 6217              		.loc 6 171 1 discriminator 14
 6218 2c4a E8000000 		call	__cxa_end_catch@PLT
 6218      00
 6219              	.LBE87:
 6220 2c4f E9A80100 		jmp	.L293
 6220      00
 6221              	.L296:
 6222              	.LBB88:
 6223              		.loc 6 171 1 discriminator 3
 6224 2c54 4889C7   		movq	%rax, %rdi
 6225 2c57 E8000000 		call	__cxa_begin_catch@PLT
 6225      00
 6226 2c5c 48898510 		movq	%rax, -496(%rbp)
 6226      FEFFFF
 6227              	.LBB89:
 6228 2c63 488D8540 		leaq	-448(%rbp), %rax
 6228      FEFFFF
 6229 2c6a 4889C7   		movq	%rax, %rdi
 6230              	.LEHB137:
 6231 2c6d E8000000 		call	_ZN8UnitTest15MemoryOutStreamC1Ev
 6231      00
 6232              	.LEHE137:
 6233              		.loc 6 171 1 discriminator 16
 6234 2c72 488D8540 		leaq	-448(%rbp), %rax
 6234      FEFFFF
 6235 2c79 488D1500 		leaq	.LC11(%rip), %rdx
 6235      000000
 6236 2c80 4889D6   		movq	%rdx, %rsi
 6237 2c83 4889C7   		movq	%rax, %rdi
 6238              	.LEHB138:
 6239 2c86 E8000000 		call	_ZStlsISt11char_traitsIcEERSt13basic_ostreamIcT_ES5_PKc@PLT
 6239      00
 6240 2c8b 4889C3   		movq	%rax, %rbx
 6241 2c8e 488B8510 		movq	-496(%rbp), %rax
 6241      FEFFFF
 6242 2c95 488B00   		movq	(%rax), %rax
 6243 2c98 4883C010 		addq	$16, %rax
 6244 2c9c 488B10   		movq	(%rax), %rdx
 6245 2c9f 488B8510 		movq	-496(%rbp), %rax
 6245      FEFFFF
 6246 2ca6 4889C7   		movq	%rax, %rdi
 6247 2ca9 FFD2     		call	*%rdx
 6248              	.LVL13:
 6249 2cab 4889C6   		movq	%rax, %rsi
 6250 2cae 4889DF   		movq	%rbx, %rdi
 6251 2cb1 E8000000 		call	_ZStlsISt11char_traitsIcEERSt13basic_ostreamIcT_ES5_PKc@PLT
 6251      00
 6252              		.loc 6 171 1 discriminator 20
 6253 2cb6 E8000000 		call	_ZN8UnitTest11CurrentTest7ResultsEv@PLT
 6253      00
 6254 2cbb 488B18   		movq	(%rax), %rbx
 6255 2cbe 488D8540 		leaq	-448(%rbp), %rax
 6255      FEFFFF
 6256 2cc5 4889C7   		movq	%rax, %rdi
 6257 2cc8 E8000000 		call	_ZNK8UnitTest15MemoryOutStream7GetTextEv@PLT
 6257      00
 6258              		.loc 6 171 1 discriminator 22
 6259 2ccd 4889C2   		movq	%rax, %rdx
 6260 2cd0 488B85F8 		movq	-520(%rbp), %rax
 6260      FDFFFF
 6261 2cd7 4883C008 		addq	$8, %rax
 6262 2cdb 4889C6   		movq	%rax, %rsi
 6263 2cde 4889DF   		movq	%rbx, %rdi
 6264 2ce1 E8000000 		call	_ZN8UnitTest11TestResults13OnTestFailureERKNS_11TestDetailsEPKc@PLT
 6264      00
 6265              	.LEHE138:
 6266              		.loc 6 171 1 discriminator 26
 6267 2ce6 488D8540 		leaq	-448(%rbp), %rax
 6267      FEFFFF
 6268 2ced 4889C7   		movq	%rax, %rdi
 6269              	.LEHB139:
 6270 2cf0 E8000000 		call	_ZN8UnitTest15MemoryOutStreamD1Ev
 6270      00
 6271              	.LEHE139:
 6272              	.LBE89:
 6273              		.loc 6 171 1 discriminator 27
 6274 2cf5 E8000000 		call	__cxa_end_catch@PLT
 6274      00
 6275              	.LBE88:
 6276 2cfa E9FD0000 		jmp	.L293
 6276      00
 6277              	.L311:
 6278              		.loc 6 171 1 discriminator 4
 6279 2cff 4889C7   		movq	%rax, %rdi
 6280 2d02 E8000000 		call	__cxa_begin_catch@PLT
 6280      00
 6281 2d07 80BD0FFE 		cmpb	$0, -497(%rbp)
 6281      FFFF00
 6282 2d0e 7445     		je	.L299
 6283              	.LEHB140:
 6284              		.loc 6 171 1 discriminator 29
 6285 2d10 E8000000 		call	_ZN8UnitTest11CurrentTest7ResultsEv@PLT
 6285      00
 6286 2d15 488B18   		movq	(%rax), %rbx
 6287 2d18 488B85F8 		movq	-520(%rbp), %rax
 6287      FDFFFF
 6288 2d1f 488D4808 		leaq	8(%rax), %rcx
 6289 2d23 488D8520 		leaq	-480(%rbp), %rax
 6289      FEFFFF
 6290 2d2a BAAB0000 		movl	$171, %edx
 6290      00
 6291 2d2f 4889CE   		movq	%rcx, %rsi
 6292 2d32 4889C7   		movq	%rax, %rdi
 6293 2d35 E8000000 		call	_ZN8UnitTest11TestDetailsC1ERKS0_i@PLT
 6293      00
 6294              		.loc 6 171 1 discriminator 34
 6295 2d3a 488D8520 		leaq	-480(%rbp), %rax
 6295      FEFFFF
 6296 2d41 488D1500 		leaq	.LC65(%rip), %rdx
 6296      000000
 6297 2d48 4889C6   		movq	%rax, %rsi
 6298 2d4b 4889DF   		movq	%rbx, %rdi
 6299 2d4e E8000000 		call	_ZN8UnitTest11TestResults13OnTestFailureERKNS_11TestDetailsEPKc@PLT
 6299      00
 6300 2d53 EB43     		jmp	.L300
 6301              	.L299:
 6302              		.loc 6 171 1 discriminator 30
 6303 2d55 E8000000 		call	_ZN8UnitTest11CurrentTest7ResultsEv@PLT
 6303      00
 6304 2d5a 488B18   		movq	(%rax), %rbx
 6305 2d5d 488B85F8 		movq	-520(%rbp), %rax
 6305      FDFFFF
 6306 2d64 488D4808 		leaq	8(%rax), %rcx
 6307 2d68 488D8520 		leaq	-480(%rbp), %rax
 6307      FEFFFF
 6308 2d6f BAAB0000 		movl	$171, %edx
 6308      00
 6309 2d74 4889CE   		movq	%rcx, %rsi
 6310 2d77 4889C7   		movq	%rax, %rdi
 6311 2d7a E8000000 		call	_ZN8UnitTest11TestDetailsC1ERKS0_i@PLT
 6311      00
 6312              		.loc 6 171 1 discriminator 41
 6313 2d7f 488D8520 		leaq	-480(%rbp), %rax
 6313      FEFFFF
 6314 2d86 488D1500 		leaq	.LC66(%rip), %rdx
 6314      000000
 6315 2d8d 4889C6   		movq	%rax, %rsi
 6316 2d90 4889DF   		movq	%rbx, %rdi
 6317 2d93 E8000000 		call	_ZN8UnitTest11TestResults13OnTestFailureERKNS_11TestDetailsEPKc@PLT
 6317      00
 6318              	.LEHE140:
 6319              	.L300:
 6320              	.LEHB141:
 6321              		.loc 6 171 1 discriminator 44
 6322 2d98 E8000000 		call	__cxa_end_catch@PLT
 6322      00
 6323 2d9d EB5D     		jmp	.L293
 6324              	.L307:
 6325 2d9f F30F1EFA 		endbr64
 6326              	.LBB91:
 6327              		.loc 6 171 1
 6328 2da3 4889C3   		movq	%rax, %rbx
 6329 2da6 E8000000 		call	__cxa_end_catch@PLT
 6329      00
 6330 2dab 4889D8   		movq	%rbx, %rax
 6331 2dae 4889C7   		movq	%rax, %rdi
 6332 2db1 E8000000 		call	_Unwind_Resume@PLT
 6332      00
 6333              	.LEHE141:
 6334              	.L309:
 6335 2db6 F30F1EFA 		endbr64
 6336              	.LBE91:
 6337              	.LBB92:
 6338              	.LBB90:
 6339 2dba 4889C3   		movq	%rax, %rbx
 6340 2dbd 488D8540 		leaq	-448(%rbp), %rax
 6340      FEFFFF
 6341 2dc4 4889C7   		movq	%rax, %rdi
 6342 2dc7 E8000000 		call	_ZN8UnitTest15MemoryOutStreamD1Ev
 6342      00
 6343 2dcc EB07     		jmp	.L303
 6344              	.L308:
 6345 2dce F30F1EFA 		endbr64
 6346              	.LBE90:
 6347 2dd2 4889C3   		movq	%rax, %rbx
 6348              	.L303:
 6349 2dd5 E8000000 		call	__cxa_end_catch@PLT
 6349      00
 6350 2dda 4889D8   		movq	%rbx, %rax
 6351 2ddd 4889C7   		movq	%rax, %rdi
 6352              	.LEHB142:
 6353 2de0 E8000000 		call	_Unwind_Resume@PLT
 6353      00
 6354              	.LEHE142:
 6355              	.L310:
 6356 2de5 F30F1EFA 		endbr64
 6357              	.LBE92:
 6358 2de9 4889C3   		movq	%rax, %rbx
 6359 2dec E8000000 		call	__cxa_end_catch@PLT
 6359      00
 6360 2df1 4889D8   		movq	%rbx, %rax
 6361 2df4 4889C7   		movq	%rax, %rdi
 6362              	.LEHB143:
 6363 2df7 E8000000 		call	_Unwind_Resume@PLT
 6363      00
 6364              	.LEHE143:
 6365              	.L293:
 6366 2dfc 488B45D8 		movq	-40(%rbp), %rax
 6367 2e00 64482B04 		subq	%fs:40, %rax
 6367      25280000 
 6367      00
 6368 2e09 7405     		je	.L305
 6369 2e0b E8000000 		call	__stack_chk_fail@PLT
 6369      00
 6370              	.L305:
 6371 2e10 4881C4F8 		addq	$504, %rsp
 6371      010000
 6372 2e17 5B       		popq	%rbx
 6373 2e18 415C     		popq	%r12
 6374 2e1a 415D     		popq	%r13
 6375 2e1c 5D       		popq	%rbp
 6376              		.cfi_def_cfa 7, 8
 6377 2e1d C3       		ret
 6378              		.cfi_endproc
 6379              	.LFE1271:
 6380              		.section	.gcc_except_table
 6381              		.align 4
 6382              	.LLSDA1271:
 6383 03bc FF       		.byte	0xff
 6384 03bd 9B       		.byte	0x9b
 6385 03be 49       		.uleb128 .LLSDATT1271-.LLSDATTD1271
 6386              	.LLSDATTD1271:
 6387 03bf 01       		.byte	0x1
 6388 03c0 33       		.uleb128 .LLSDACSE1271-.LLSDACSB1271
 6389              	.LLSDACSB1271:
 6390 03c1 49       		.uleb128 .LEHB135-.LFB1271
 6391 03c2 29       		.uleb128 .LEHE135-.LEHB135
 6392 03c3 77       		.uleb128 .L306-.LFB1271
 6393 03c4 05       		.uleb128 0x5
 6394 03c5 9F01     		.uleb128 .LEHB136-.LFB1271
 6395 03c7 8901     		.uleb128 .LEHE136-.LEHB136
 6396 03c9 FD04     		.uleb128 .L307-.LFB1271
 6397 03cb 00       		.uleb128 0
 6398 03cc CB02     		.uleb128 .LEHB137-.LFB1271
 6399 03ce 05       		.uleb128 .LEHE137-.LEHB137
 6400 03cf AC05     		.uleb128 .L308-.LFB1271
 6401 03d1 00       		.uleb128 0
 6402 03d2 E402     		.uleb128 .LEHB138-.LFB1271
 6403 03d4 60       		.uleb128 .LEHE138-.LEHB138
 6404 03d5 9405     		.uleb128 .L309-.LFB1271
 6405 03d7 00       		.uleb128 0
 6406 03d8 CE03     		.uleb128 .LEHB139-.LFB1271
 6407 03da 05       		.uleb128 .LEHE139-.LEHB139
 6408 03db AC05     		.uleb128 .L308-.LFB1271
 6409 03dd 00       		.uleb128 0
 6410 03de EE03     		.uleb128 .LEHB140-.LFB1271
 6411 03e0 8801     		.uleb128 .LEHE140-.LEHB140
 6412 03e2 C305     		.uleb128 .L310-.LFB1271
 6413 03e4 00       		.uleb128 0
 6414 03e5 F604     		.uleb128 .LEHB141-.LFB1271
 6415 03e7 1E       		.uleb128 .LEHE141-.LEHB141
 6416 03e8 00       		.uleb128 0
 6417 03e9 00       		.uleb128 0
 6418 03ea BE05     		.uleb128 .LEHB142-.LFB1271
 6419 03ec 05       		.uleb128 .LEHE142-.LEHB142
 6420 03ed 00       		.uleb128 0
 6421 03ee 00       		.uleb128 0
 6422 03ef D505     		.uleb128 .LEHB143-.LFB1271
 6423 03f1 05       		.uleb128 .LEHE143-.LEHB143
 6424 03f2 00       		.uleb128 0
 6425 03f3 00       		.uleb128 0
 6426              	.LLSDACSE1271:
 6427 03f4 03       		.byte	0x3
 6428 03f5 00       		.byte	0
 6429 03f6 02       		.byte	0x2
 6430 03f7 7D       		.byte	0x7d
 6431 03f8 01       		.byte	0x1
 6432 03f9 7D       		.byte	0x7d
 6433 03fa 0000     		.align 4
 6434 03fc 00000000 		.long	0
 6435              	
 6436 0400 00000000 		.long	DW.ref._ZTISt9exception-.
 6437 0404 00000000 		.long	DW.ref._ZTIN8UnitTest15AssertExceptionE-.
 6438              	.LLSDATT1271:
 6439              		.text
 6441              		.align 2
 6443              	_ZN12_GLOBAL__N_159FixtureCtorAssertsCorrectlyReportsAssertFailureInCtorHelper7RunImplEv:
 6444              	.LFB1272:
 172:TestTestMacros.cpp **** {
 6445              		.loc 6 172 1 is_stmt 1
 6446              		.cfi_startproc
 6447 2e1e F30F1EFA 		endbr64
 6448 2e22 55       		pushq	%rbp
 6449              		.cfi_def_cfa_offset 16
 6450              		.cfi_offset 6, -16
 6451 2e23 4889E5   		movq	%rsp, %rbp
 6452              		.cfi_def_cfa_register 6
 6453 2e26 48897DF8 		movq	%rdi, -8(%rbp)
 173:TestTestMacros.cpp **** }
 6454              		.loc 6 173 1
 6455 2e2a 90       		nop
 6456 2e2b 5D       		popq	%rbp
 6457              		.cfi_def_cfa 7, 8
 6458 2e2c C3       		ret
 6459              		.cfi_endproc
 6460              	.LFE1272:
 6462              		.section	.rodata
 6463 0c8a 00000000 		.align 8
 6463      0000
 6464              	.LC67:
 6465 0c90 436F7272 		.string	"CorrectlyReportsFixturesWithCtorsThatAssert"
 6465      6563746C 
 6465      79526570 
 6465      6F727473 
 6465      46697874 
 6466              		.text
 6467 2e2d 90       		.align 2
 6469              	_ZN12_GLOBAL__N_147TestCorrectlyReportsFixturesWithCtorsThatAssertC2Ev:
 6470              	.LFB1274:
 174:TestTestMacros.cpp **** 
 175:TestTestMacros.cpp **** TEST(CorrectlyReportsFixturesWithCtorsThatAssert)
 6471              		.loc 6 175 1
 6472              		.cfi_startproc
 6473 2e2e 55       		pushq	%rbp
 6474              		.cfi_def_cfa_offset 16
 6475              		.cfi_offset 6, -16
 6476 2e2f 4889E5   		movq	%rsp, %rbp
 6477              		.cfi_def_cfa_register 6
 6478 2e32 53       		pushq	%rbx
 6479 2e33 4883EC18 		subq	$24, %rsp
 6480              		.cfi_offset 3, -24
 6481 2e37 48897DE8 		movq	%rdi, -24(%rbp)
 6482              	.LBB93:
 6483              		.loc 6 175 1
 6484 2e3b 488B5DE8 		movq	-24(%rbp), %rbx
 6485 2e3f E8000000 		call	_ZN13UnitTestSuite12GetSuiteNameEv
 6485      00
 6486 2e44 4889C2   		movq	%rax, %rdx
 6487 2e47 41B8AF00 		movl	$175, %r8d
 6487      0000
 6488 2e4d 488D0500 		leaq	.LC2(%rip), %rax
 6488      000000
 6489 2e54 4889C1   		movq	%rax, %rcx
 6490 2e57 488D0500 		leaq	.LC67(%rip), %rax
 6490      000000
 6491 2e5e 4889C6   		movq	%rax, %rsi
 6492 2e61 4889DF   		movq	%rbx, %rdi
 6493 2e64 E8000000 		call	_ZN8UnitTest4TestC2EPKcS2_S2_i@PLT
 6493      00
 6494 2e69 488D1500 		leaq	16+_ZTVN12_GLOBAL__N_147TestCorrectlyReportsFixturesWithCtorsThatAssertE(%rip), %rdx
 6494      000000
 6495 2e70 488B45E8 		movq	-24(%rbp), %rax
 6496 2e74 488910   		movq	%rdx, (%rax)
 6497              	.LBE93:
 6498 2e77 90       		nop
 6499 2e78 488B5DF8 		movq	-8(%rbp), %rbx
 6500 2e7c C9       		leave
 6501              		.cfi_def_cfa 7, 8
 6502 2e7d C3       		ret
 6503              		.cfi_endproc
 6504              	.LFE1274:
 6506              		.set	_ZN12_GLOBAL__N_147TestCorrectlyReportsFixturesWithCtorsThatAssertC1Ev,_ZN12_GLOBAL__N_147Tes
 6507              		.local	_ZN12_GLOBAL__N_155testCorrectlyReportsFixturesWithCtorsThatAssertInstanceE
 6508              		.comm	_ZN12_GLOBAL__N_155testCorrectlyReportsFixturesWithCtorsThatAssertInstanceE,56,32
 6509              		.local	_ZN12_GLOBAL__N_148adderCorrectlyReportsFixturesWithCtorsThatAssertE
 6510              		.comm	_ZN12_GLOBAL__N_148adderCorrectlyReportsFixturesWithCtorsThatAssertE,1,1
 6511              		.section	.rodata
 6512 0cbc 00000000 		.align 8
 6513              	.LC68:
 6514 0cc0 73747273 		.string	"strstr(reporter.lastFailedMessage, \"assert failure\")"
 6514      74722872 
 6514      65706F72 
 6514      7465722E 
 6514      6C617374 
 6515 0cf5 000000   		.align 8
 6516              	.LC69:
 6517 0cf8 556E6861 		.string	"Unhandled exception in CHECK_EQUAL(FailingLine, reporter.lastFailedLine)"
 6517      6E646C65 
 6517      64206578 
 6517      63657074 
 6517      696F6E20 
 6518 0d41 00000000 		.align 8
 6518      000000
 6519              	.LC70:
 6520 0d48 556E6861 		.string	"Unhandled exception in CHECK(strstr(reporter.lastFailedMessage, \"assert failure\"))"
 6520      6E646C65 
 6520      64206578 
 6520      63657074 
 6520      696F6E20 
 6521              		.text
 6522              		.align 2
 6524              	_ZNK12_GLOBAL__N_147TestCorrectlyReportsFixturesWithCtorsThatAssert7RunImplEv:
 6525              	.LFB1276:
 176:TestTestMacros.cpp **** {
 6526              		.loc 6 176 1
 6527              		.cfi_startproc
 6528              		.cfi_personality 0x9b,DW.ref.__gxx_personality_v0
 6529              		.cfi_lsda 0x1b,.LLSDA1276
 6530 2e7e F30F1EFA 		endbr64
 6531 2e82 55       		pushq	%rbp
 6532              		.cfi_def_cfa_offset 16
 6533              		.cfi_offset 6, -16
 6534 2e83 4889E5   		movq	%rsp, %rbp
 6535              		.cfi_def_cfa_register 6
 6536 2e86 53       		pushq	%rbx
 6537 2e87 4881ECA8 		subq	$2216, %rsp
 6537      080000
 6538              		.cfi_offset 3, -24
 6539 2e8e 4889BD58 		movq	%rdi, -2216(%rbp)
 6539      F7FFFF
 6540              		.loc 6 176 1
 6541 2e95 64488B04 		movq	%fs:40, %rax
 6541      25280000 
 6541      00
 6542 2e9e 488945E8 		movq	%rax, -24(%rbp)
 6543 2ea2 31C0     		xorl	%eax, %eax
 177:TestTestMacros.cpp **** 	RecordingReporter reporter;
 6544              		.loc 6 177 20
 6545 2ea4 488D85B0 		leaq	-2128(%rbp), %rax
 6545      F7FFFF
 6546 2eab 4889C7   		movq	%rax, %rdi
 6547 2eae E8000000 		call	_ZN17RecordingReporterC1Ev
 6547      00
 178:TestTestMacros.cpp **** 	TestResults result(&reporter);
 6548              		.loc 6 178 30
 6549 2eb3 488D95B0 		leaq	-2128(%rbp), %rdx
 6549      F7FFFF
 6550 2eba 488D8570 		leaq	-2192(%rbp), %rax
 6550      F7FFFF
 6551 2ec1 4889D6   		movq	%rdx, %rsi
 6552 2ec4 4889C7   		movq	%rax, %rdi
 6553              	.LEHB144:
 6554 2ec7 E8000000 		call	_ZN8UnitTest11TestResultsC1EPNS_12TestReporterE@PLT
 6554      00
 6555              	.LBB94:
 179:TestTestMacros.cpp **** 	{
 180:TestTestMacros.cpp **** 		ScopedCurrentTest scopedResults(result);
 6556              		.loc 6 180 41
 6557 2ecc 488D8D70 		leaq	-2192(%rbp), %rcx
 6557      F7FFFF
 6558 2ed3 488D8590 		leaq	-2160(%rbp), %rax
 6558      F7FFFF
 6559 2eda BA000000 		movl	$0, %edx
 6559      00
 6560 2edf 4889CE   		movq	%rcx, %rsi
 6561 2ee2 4889C7   		movq	%rax, %rdi
 6562 2ee5 E8000000 		call	_ZN17ScopedCurrentTestC1ERN8UnitTest11TestResultsEPKNS0_11TestDetailsE
 6562      00
 6563              	.LEHE144:
 181:TestTestMacros.cpp **** 		ctorAssertFixtureTestList.GetHead()->Run();
 6564              		.loc 6 181 43
 6565 2eea 488D0500 		leaq	_ZN12_GLOBAL__N_125ctorAssertFixtureTestListE(%rip), %rax
 6565      000000
 6566 2ef1 4889C7   		movq	%rax, %rdi
 6567              	.LEHB145:
 6568 2ef4 E8000000 		call	_ZNK8UnitTest8TestList7GetHeadEv@PLT
 6568      00
 6569 2ef9 4889C7   		movq	%rax, %rdi
 6570 2efc E8000000 		call	_ZN8UnitTest4Test3RunEv@PLT
 6570      00
 6571              	.LEHE145:
 182:TestTestMacros.cpp **** 	}
 6572              		.loc 6 182 2
 6573 2f01 488D8590 		leaq	-2160(%rbp), %rax
 6573      F7FFFF
 6574 2f08 4889C7   		movq	%rax, %rdi
 6575              	.LEHB146:
 6576 2f0b E8000000 		call	_ZN17ScopedCurrentTestD1Ev
 6576      00
 6577              	.LBE94:
 183:TestTestMacros.cpp **** 
 184:TestTestMacros.cpp **** 	const int failureCount = result.GetFailedTestCount();
 6578              		.loc 6 184 52
 6579 2f10 488D8570 		leaq	-2192(%rbp), %rax
 6579      F7FFFF
 6580 2f17 4889C7   		movq	%rax, %rdi
 6581 2f1a E8000000 		call	_ZNK8UnitTest11TestResults18GetFailedTestCountEv@PLT
 6581      00
 6582              	.LEHE146:
 6583              		.loc 6 184 53
 6584 2f1f 898568F7 		movl	%eax, -2200(%rbp)
 6584      FFFF
 6585              	.LEHB147:
 185:TestTestMacros.cpp **** 	CHECK_EQUAL(1, failureCount);
 6586              		.loc 6 185 2
 6587 2f25 E8000000 		call	_ZN8UnitTest11CurrentTest7DetailsEv@PLT
 6587      00
 6588              		.loc 6 185 2 is_stmt 0 discriminator 1
 6589 2f2a 488B08   		movq	(%rax), %rcx
 6590 2f2d 488D8590 		leaq	-2160(%rbp), %rax
 6590      F7FFFF
 6591 2f34 BAB90000 		movl	$185, %edx
 6591      00
 6592 2f39 4889CE   		movq	%rcx, %rsi
 6593 2f3c 4889C7   		movq	%rax, %rdi
 6594 2f3f E8000000 		call	_ZN8UnitTest11TestDetailsC1ERKS0_i@PLT
 6594      00
 6595              		.loc 6 185 2 discriminator 4
 6596 2f44 C7856CF7 		movl	$1, -2196(%rbp)
 6596      FFFF0100 
 6596      0000
 6597 2f4e E8000000 		call	_ZN8UnitTest11CurrentTest7ResultsEv@PLT
 6597      00
 6598 2f53 488B00   		movq	(%rax), %rax
 6599 2f56 488D8D90 		leaq	-2160(%rbp), %rcx
 6599      F7FFFF
 6600 2f5d 488D9568 		leaq	-2200(%rbp), %rdx
 6600      F7FFFF
 6601 2f64 488DB56C 		leaq	-2196(%rbp), %rsi
 6601      F7FFFF
 6602 2f6b 4889C7   		movq	%rax, %rdi
 6603 2f6e E8000000 		call	_ZN8UnitTest10CheckEqualIiiEEvRNS_11TestResultsERKT_RKT0_RKNS_11TestDetailsE
 6603      00
 6604              	.LEHE147:
 6605              	.L319:
 6606              	.LEHB148:
 186:TestTestMacros.cpp **** 	CHECK_EQUAL(FailingLine, reporter.lastFailedLine);
 6607              		.loc 6 186 2 is_stmt 1
 6608 2f73 E8000000 		call	_ZN8UnitTest11CurrentTest7DetailsEv@PLT
 6608      00
 6609 2f78 488B08   		movq	(%rax), %rcx
 6610 2f7b 488D8590 		leaq	-2160(%rbp), %rax
 6610      F7FFFF
 6611 2f82 BABA0000 		movl	$186, %edx
 6611      00
 6612 2f87 4889CE   		movq	%rcx, %rsi
 6613 2f8a 4889C7   		movq	%rax, %rdi
 6614 2f8d E8000000 		call	_ZN8UnitTest11TestDetailsC1ERKS0_i@PLT
 6614      00
 6615              		.loc 6 186 2 is_stmt 0 discriminator 4
 6616 2f92 E8000000 		call	_ZN8UnitTest11CurrentTest7ResultsEv@PLT
 6616      00
 6617 2f97 488B00   		movq	(%rax), %rax
 6618 2f9a 488D9590 		leaq	-2160(%rbp), %rdx
 6618      F7FFFF
 6619 2fa1 488D8DB0 		leaq	-2128(%rbp), %rcx
 6619      F7FFFF
 6620 2fa8 488DB110 		leaq	784(%rcx), %rsi
 6620      030000
 6621 2faf 4889D1   		movq	%rdx, %rcx
 6622 2fb2 4889F2   		movq	%rsi, %rdx
 6623 2fb5 488D3500 		leaq	_ZN12_GLOBAL__N_1L11FailingLineE(%rip), %rsi
 6623      000000
 6624 2fbc 4889C7   		movq	%rax, %rdi
 6625 2fbf E8000000 		call	_ZN8UnitTest10CheckEqualIiiEEvRNS_11TestResultsERKT_RKT0_RKNS_11TestDetailsE
 6625      00
 6626              	.LEHE148:
 6627              	.L322:
 187:TestTestMacros.cpp **** 	CHECK(strstr(reporter.lastFailedMessage, "assert failure"));
 6628              		.loc 6 187 2 is_stmt 1
 6629 2fc4 488D85B0 		leaq	-2128(%rbp), %rax
 6629      F7FFFF
 6630 2fcb 48051405 		addq	$1300, %rax
 6630      0000
 6631 2fd1 488D1500 		leaq	.LC63(%rip), %rdx
 6631      000000
 6632 2fd8 4889D6   		movq	%rdx, %rsi
 6633 2fdb 4889C7   		movq	%rax, %rdi
 6634 2fde E8000000 		call	strstr@PLT
 6634      00
 6635 2fe3 4889C7   		movq	%rax, %rdi
 6636 2fe6 E8000000 		call	_ZN8UnitTest5CheckIPcEEbT_
 6636      00
 6637 2feb 83F001   		xorl	$1, %eax
 6638 2fee 84C0     		testb	%al, %al
 6639 2ff0 7440     		je	.L315
 6640              	.LEHB149:
 6641              		.loc 6 187 2 is_stmt 0 discriminator 1
 6642 2ff2 E8000000 		call	_ZN8UnitTest11CurrentTest7ResultsEv@PLT
 6642      00
 6643 2ff7 488B18   		movq	(%rax), %rbx
 6644 2ffa E8000000 		call	_ZN8UnitTest11CurrentTest7DetailsEv@PLT
 6644      00
 6645              		.loc 6 187 2 discriminator 3
 6646 2fff 488B08   		movq	(%rax), %rcx
 6647 3002 488D8590 		leaq	-2160(%rbp), %rax
 6647      F7FFFF
 6648 3009 BABB0000 		movl	$187, %edx
 6648      00
 6649 300e 4889CE   		movq	%rcx, %rsi
 6650 3011 4889C7   		movq	%rax, %rdi
 6651 3014 E8000000 		call	_ZN8UnitTest11TestDetailsC1ERKS0_i@PLT
 6651      00
 6652              		.loc 6 187 2 discriminator 7
 6653 3019 488D8590 		leaq	-2160(%rbp), %rax
 6653      F7FFFF
 6654 3020 488D1500 		leaq	.LC68(%rip), %rdx
 6654      000000
 6655 3027 4889C6   		movq	%rax, %rsi
 6656 302a 4889DF   		movq	%rbx, %rdi
 6657 302d E8000000 		call	_ZN8UnitTest11TestResults13OnTestFailureERKNS_11TestDetailsEPKc@PLT
 6657      00
 6658              	.LEHE149:
 6659              	.L315:
 188:TestTestMacros.cpp **** }
 6660              		.loc 6 188 1 is_stmt 1
 6661 3032 488D85B0 		leaq	-2128(%rbp), %rax
 6661      F7FFFF
 6662 3039 4889C7   		movq	%rax, %rdi
 6663              	.LEHB150:
 6664 303c E8000000 		call	_ZN17RecordingReporterD1Ev
 6664      00
 6665              	.LEHE150:
 6666 3041 488B45E8 		movq	-24(%rbp), %rax
 6667 3045 64482B04 		subq	%fs:40, %rax
 6667      25280000 
 6667      00
 6668 304e 0F847501 		je	.L326
 6668      0000
 6669 3054 E96B0100 		jmp	.L335
 6669      00
 6670              	.L328:
 6671 3059 F30F1EFA 		endbr64
 6672              	.LBB95:
 182:TestTestMacros.cpp **** 
 6673              		.loc 6 182 2
 6674 305d 4889C3   		movq	%rax, %rbx
 6675 3060 488D8590 		leaq	-2160(%rbp), %rax
 6675      F7FFFF
 6676 3067 4889C7   		movq	%rax, %rdi
 6677 306a E8000000 		call	_ZN17ScopedCurrentTestD1Ev
 6677      00
 6678 306f E9360100 		jmp	.L317
 6678      00
 6679              	.L329:
 6680 3074 F30F1EFA 		endbr64
 6681              	.LBE95:
 185:TestTestMacros.cpp **** 	CHECK_EQUAL(FailingLine, reporter.lastFailedLine);
 6682              		.loc 6 185 2
 6683 3078 4889C7   		movq	%rax, %rdi
 6684 307b E8000000 		call	__cxa_begin_catch@PLT
 6684      00
 6685              	.LEHB151:
 6686 3080 E8000000 		call	_ZN8UnitTest11CurrentTest7ResultsEv@PLT
 6686      00
 185:TestTestMacros.cpp **** 	CHECK_EQUAL(FailingLine, reporter.lastFailedLine);
 6687              		.loc 6 185 2 is_stmt 0 discriminator 3
 6688 3085 488B18   		movq	(%rax), %rbx
 6689 3088 E8000000 		call	_ZN8UnitTest11CurrentTest7DetailsEv@PLT
 6689      00
 185:TestTestMacros.cpp **** 	CHECK_EQUAL(FailingLine, reporter.lastFailedLine);
 6690              		.loc 6 185 2 discriminator 11
 6691 308d 488B08   		movq	(%rax), %rcx
 6692 3090 488D8590 		leaq	-2160(%rbp), %rax
 6692      F7FFFF
 6693 3097 BAB90000 		movl	$185, %edx
 6693      00
 6694 309c 4889CE   		movq	%rcx, %rsi
 6695 309f 4889C7   		movq	%rax, %rdi
 6696 30a2 E8000000 		call	_ZN8UnitTest11TestDetailsC1ERKS0_i@PLT
 6696      00
 185:TestTestMacros.cpp **** 	CHECK_EQUAL(FailingLine, reporter.lastFailedLine);
 6697              		.loc 6 185 2 discriminator 15
 6698 30a7 488D8590 		leaq	-2160(%rbp), %rax
 6698      F7FFFF
 6699 30ae 488D1500 		leaq	.LC51(%rip), %rdx
 6699      000000
 6700 30b5 4889C6   		movq	%rax, %rsi
 6701 30b8 4889DF   		movq	%rbx, %rdi
 6702 30bb E8000000 		call	_ZN8UnitTest11TestResults13OnTestFailureERKNS_11TestDetailsEPKc@PLT
 6702      00
 6703              	.LEHE151:
 6704              	.LEHB152:
 185:TestTestMacros.cpp **** 	CHECK_EQUAL(FailingLine, reporter.lastFailedLine);
 6705              		.loc 6 185 2 discriminator 17
 6706 30c0 E8000000 		call	__cxa_end_catch@PLT
 6706      00
 6707              	.LEHE152:
 185:TestTestMacros.cpp **** 	CHECK_EQUAL(FailingLine, reporter.lastFailedLine);
 6708              		.loc 6 185 2
 6709 30c5 E9A9FEFF 		jmp	.L319
 6709      FF
 6710              	.L330:
 6711 30ca F30F1EFA 		endbr64
 6712 30ce 4889C3   		movq	%rax, %rbx
 6713 30d1 E8000000 		call	__cxa_end_catch@PLT
 6713      00
 6714 30d6 E9CF0000 		jmp	.L317
 6714      00
 6715              	.L331:
 6716 30db F30F1EFA 		endbr64
 186:TestTestMacros.cpp **** 	CHECK(strstr(reporter.lastFailedMessage, "assert failure"));
 6717              		.loc 6 186 2 is_stmt 1
 6718 30df 4889C7   		movq	%rax, %rdi
 6719 30e2 E8000000 		call	__cxa_begin_catch@PLT
 6719      00
 6720              	.LEHB153:
 6721 30e7 E8000000 		call	_ZN8UnitTest11CurrentTest7ResultsEv@PLT
 6721      00
 186:TestTestMacros.cpp **** 	CHECK(strstr(reporter.lastFailedMessage, "assert failure"));
 6722              		.loc 6 186 2 is_stmt 0 discriminator 3
 6723 30ec 488B18   		movq	(%rax), %rbx
 6724 30ef E8000000 		call	_ZN8UnitTest11CurrentTest7DetailsEv@PLT
 6724      00
 186:TestTestMacros.cpp **** 	CHECK(strstr(reporter.lastFailedMessage, "assert failure"));
 6725              		.loc 6 186 2 discriminator 11
 6726 30f4 488B08   		movq	(%rax), %rcx
 6727 30f7 488D8590 		leaq	-2160(%rbp), %rax
 6727      F7FFFF
 6728 30fe BABA0000 		movl	$186, %edx
 6728      00
 6729 3103 4889CE   		movq	%rcx, %rsi
 6730 3106 4889C7   		movq	%rax, %rdi
 6731 3109 E8000000 		call	_ZN8UnitTest11TestDetailsC1ERKS0_i@PLT
 6731      00
 186:TestTestMacros.cpp **** 	CHECK(strstr(reporter.lastFailedMessage, "assert failure"));
 6732              		.loc 6 186 2 discriminator 15
 6733 310e 488D8590 		leaq	-2160(%rbp), %rax
 6733      F7FFFF
 6734 3115 488D1500 		leaq	.LC69(%rip), %rdx
 6734      000000
 6735 311c 4889C6   		movq	%rax, %rsi
 6736 311f 4889DF   		movq	%rbx, %rdi
 6737 3122 E8000000 		call	_ZN8UnitTest11TestResults13OnTestFailureERKNS_11TestDetailsEPKc@PLT
 6737      00
 6738              	.LEHE153:
 6739              	.LEHB154:
 186:TestTestMacros.cpp **** 	CHECK(strstr(reporter.lastFailedMessage, "assert failure"));
 6740              		.loc 6 186 2 discriminator 17
 6741 3127 E8000000 		call	__cxa_end_catch@PLT
 6741      00
 6742              	.LEHE154:
 186:TestTestMacros.cpp **** 	CHECK(strstr(reporter.lastFailedMessage, "assert failure"));
 6743              		.loc 6 186 2
 6744 312c E993FEFF 		jmp	.L322
 6744      FF
 6745              	.L332:
 6746 3131 F30F1EFA 		endbr64
 6747 3135 4889C3   		movq	%rax, %rbx
 6748 3138 E8000000 		call	__cxa_end_catch@PLT
 6748      00
 6749 313d EB6B     		jmp	.L317
 6750              	.L333:
 6751 313f F30F1EFA 		endbr64
 187:TestTestMacros.cpp **** }
 6752              		.loc 6 187 2 is_stmt 1
 6753 3143 4889C7   		movq	%rax, %rdi
 6754 3146 E8000000 		call	__cxa_begin_catch@PLT
 6754      00
 6755              	.LEHB155:
 6756 314b E8000000 		call	_ZN8UnitTest11CurrentTest7ResultsEv@PLT
 6756      00
 187:TestTestMacros.cpp **** }
 6757              		.loc 6 187 2 is_stmt 0 discriminator 6
 6758 3150 488B18   		movq	(%rax), %rbx
 6759 3153 E8000000 		call	_ZN8UnitTest11CurrentTest7DetailsEv@PLT
 6759      00
 187:TestTestMacros.cpp **** }
 6760              		.loc 6 187 2 discriminator 12
 6761 3158 488B08   		movq	(%rax), %rcx
 6762 315b 488D8590 		leaq	-2160(%rbp), %rax
 6762      F7FFFF
 6763 3162 BABB0000 		movl	$187, %edx
 6763      00
 6764 3167 4889CE   		movq	%rcx, %rsi
 6765 316a 4889C7   		movq	%rax, %rdi
 6766 316d E8000000 		call	_ZN8UnitTest11TestDetailsC1ERKS0_i@PLT
 6766      00
 187:TestTestMacros.cpp **** }
 6767              		.loc 6 187 2 discriminator 16
 6768 3172 488D8590 		leaq	-2160(%rbp), %rax
 6768      F7FFFF
 6769 3179 488D1500 		leaq	.LC70(%rip), %rdx
 6769      000000
 6770 3180 4889C6   		movq	%rax, %rsi
 6771 3183 4889DF   		movq	%rbx, %rdi
 6772 3186 E8000000 		call	_ZN8UnitTest11TestResults13OnTestFailureERKNS_11TestDetailsEPKc@PLT
 6772      00
 6773              	.LEHE155:
 6774              	.LEHB156:
 187:TestTestMacros.cpp **** }
 6775              		.loc 6 187 2 discriminator 18
 6776 318b E8000000 		call	__cxa_end_catch@PLT
 6776      00
 6777              	.LEHE156:
 187:TestTestMacros.cpp **** }
 6778              		.loc 6 187 2
 6779 3190 E99DFEFF 		jmp	.L315
 6779      FF
 6780              	.L334:
 6781 3195 F30F1EFA 		endbr64
 6782 3199 4889C3   		movq	%rax, %rbx
 6783 319c E8000000 		call	__cxa_end_catch@PLT
 6783      00
 6784 31a1 EB07     		jmp	.L317
 6785              	.L327:
 6786 31a3 F30F1EFA 		endbr64
 6787              		.loc 6 188 1 is_stmt 1
 6788 31a7 4889C3   		movq	%rax, %rbx
 6789              	.L317:
 6790 31aa 488D85B0 		leaq	-2128(%rbp), %rax
 6790      F7FFFF
 6791 31b1 4889C7   		movq	%rax, %rdi
 6792 31b4 E8000000 		call	_ZN17RecordingReporterD1Ev
 6792      00
 6793 31b9 4889D8   		movq	%rbx, %rax
 6794 31bc 4889C7   		movq	%rax, %rdi
 6795              	.LEHB157:
 6796 31bf E8000000 		call	_Unwind_Resume@PLT
 6796      00
 6797              	.LEHE157:
 6798              	.L335:
 6799 31c4 E8000000 		call	__stack_chk_fail@PLT
 6799      00
 6800              	.L326:
 6801 31c9 488B5DF8 		movq	-8(%rbp), %rbx
 6802 31cd C9       		leave
 6803              		.cfi_def_cfa 7, 8
 6804 31ce C3       		ret
 6805              		.cfi_endproc
 6806              	.LFE1276:
 6807              		.section	.gcc_except_table
 6808              		.align 4
 6809              	.LLSDA1276:
 6810 0408 FF       		.byte	0xff
 6811 0409 9B       		.byte	0x9b
 6812 040a 59       		.uleb128 .LLSDATT1276-.LLSDATTD1276
 6813              	.LLSDATTD1276:
 6814 040b 01       		.byte	0x1
 6815 040c 50       		.uleb128 .LLSDACSE1276-.LLSDACSB1276
 6816              	.LLSDACSB1276:
 6817 040d 49       		.uleb128 .LEHB144-.LFB1276
 6818 040e 23       		.uleb128 .LEHE144-.LEHB144
 6819 040f A506     		.uleb128 .L327-.LFB1276
 6820 0411 00       		.uleb128 0
 6821 0412 76       		.uleb128 .LEHB145-.LFB1276
 6822 0413 0D       		.uleb128 .LEHE145-.LEHB145
 6823 0414 DB03     		.uleb128 .L328-.LFB1276
 6824 0416 00       		.uleb128 0
 6825 0417 8D01     		.uleb128 .LEHB146-.LFB1276
 6826 0419 14       		.uleb128 .LEHE146-.LEHB146
 6827 041a A506     		.uleb128 .L327-.LFB1276
 6828 041c 00       		.uleb128 0
 6829 041d A701     		.uleb128 .LEHB147-.LFB1276
 6830 041f 4E       		.uleb128 .LEHE147-.LEHB147
 6831 0420 F603     		.uleb128 .L329-.LFB1276
 6832 0422 01       		.uleb128 0x1
 6833 0423 F501     		.uleb128 .LEHB148-.LFB1276
 6834 0425 51       		.uleb128 .LEHE148-.LEHB148
 6835 0426 DD04     		.uleb128 .L331-.LFB1276
 6836 0428 01       		.uleb128 0x1
 6837 0429 F402     		.uleb128 .LEHB149-.LFB1276
 6838 042b 40       		.uleb128 .LEHE149-.LEHB149
 6839 042c C105     		.uleb128 .L333-.LFB1276
 6840 042e 01       		.uleb128 0x1
 6841 042f BE03     		.uleb128 .LEHB150-.LFB1276
 6842 0431 05       		.uleb128 .LEHE150-.LEHB150
 6843 0432 00       		.uleb128 0
 6844 0433 00       		.uleb128 0
 6845 0434 8204     		.uleb128 .LEHB151-.LFB1276
 6846 0436 40       		.uleb128 .LEHE151-.LEHB151
 6847 0437 CC04     		.uleb128 .L330-.LFB1276
 6848 0439 00       		.uleb128 0
 6849 043a C204     		.uleb128 .LEHB152-.LFB1276
 6850 043c 05       		.uleb128 .LEHE152-.LEHB152
 6851 043d A506     		.uleb128 .L327-.LFB1276
 6852 043f 00       		.uleb128 0
 6853 0440 E904     		.uleb128 .LEHB153-.LFB1276
 6854 0442 40       		.uleb128 .LEHE153-.LEHB153
 6855 0443 B305     		.uleb128 .L332-.LFB1276
 6856 0445 00       		.uleb128 0
 6857 0446 A905     		.uleb128 .LEHB154-.LFB1276
 6858 0448 05       		.uleb128 .LEHE154-.LEHB154
 6859 0449 A506     		.uleb128 .L327-.LFB1276
 6860 044b 00       		.uleb128 0
 6861 044c CD05     		.uleb128 .LEHB155-.LFB1276
 6862 044e 40       		.uleb128 .LEHE155-.LEHB155
 6863 044f 9706     		.uleb128 .L334-.LFB1276
 6864 0451 00       		.uleb128 0
 6865 0452 8D06     		.uleb128 .LEHB156-.LFB1276
 6866 0454 05       		.uleb128 .LEHE156-.LEHB156
 6867 0455 A506     		.uleb128 .L327-.LFB1276
 6868 0457 00       		.uleb128 0
 6869 0458 C106     		.uleb128 .LEHB157-.LFB1276
 6870 045a 05       		.uleb128 .LEHE157-.LEHB157
 6871 045b 00       		.uleb128 0
 6872 045c 00       		.uleb128 0
 6873              	.LLSDACSE1276:
 6874 045d 01       		.byte	0x1
 6875 045e 00       		.byte	0
 6876 045f 00       		.align 4
 6877 0460 00000000 		.long	0
 6878              	
 6879              	.LLSDATT1276:
 6880              		.text
 6882              		.section	.rodata
 6883              	.LC71:
 6884 0d9b 53616D65 		.string	"SameTestSuite"
 6884      54657374 
 6884      53756974 
 6884      6500
 6885              		.section	.text._ZN18SuiteSameTestSuite13UnitTestSuite12GetSuiteNameEv,"axG",@progbits,_ZN18SuiteSa
 6886              		.weak	_ZN18SuiteSameTestSuite13UnitTestSuite12GetSuiteNameEv
 6888              	_ZN18SuiteSameTestSuite13UnitTestSuite12GetSuiteNameEv:
 6889              	.LFB1277:
 189:TestTestMacros.cpp **** 
 190:TestTestMacros.cpp **** }
 191:TestTestMacros.cpp **** 
 192:TestTestMacros.cpp **** // We're really testing if it's possible to use the same suite in two files
 193:TestTestMacros.cpp **** // to compile and link successfuly (TestTestSuite.cpp has suite with the same name)
 194:TestTestMacros.cpp **** // Note: we are outside of the anonymous namespace
 195:TestTestMacros.cpp **** SUITE(SameTestSuite)
 6890              		.loc 6 195 1
 6891              		.cfi_startproc
 6892 0000 F30F1EFA 		endbr64
 6893 0004 55       		pushq	%rbp
 6894              		.cfi_def_cfa_offset 16
 6895              		.cfi_offset 6, -16
 6896 0005 4889E5   		movq	%rsp, %rbp
 6897              		.cfi_def_cfa_register 6
 6898              		.loc 6 195 1
 6899 0008 488D0500 		leaq	.LC71(%rip), %rax
 6899      000000
 6900 000f 5D       		popq	%rbp
 6901              		.cfi_def_cfa 7, 8
 6902 0010 C3       		ret
 6903              		.cfi_endproc
 6904              	.LFE1277:
 6906              		.section	.rodata
 6907              	.LC72:
 6908 0da9 44756D6D 		.string	"DummyTest1"
 6908      79546573 
 6908      743100
 6909              		.section	.text._ZN18SuiteSameTestSuite14TestDummyTest1C2Ev,"axG",@progbits,_ZN18SuiteSameTestSuite
 6910              		.align 2
 6911              		.weak	_ZN18SuiteSameTestSuite14TestDummyTest1C2Ev
 6913              	_ZN18SuiteSameTestSuite14TestDummyTest1C2Ev:
 6914              	.LFB1279:
 196:TestTestMacros.cpp **** {
 197:TestTestMacros.cpp **** 	TEST(DummyTest1)
 6915              		.loc 6 197 2
 6916              		.cfi_startproc
 6917 0000 F30F1EFA 		endbr64
 6918 0004 55       		pushq	%rbp
 6919              		.cfi_def_cfa_offset 16
 6920              		.cfi_offset 6, -16
 6921 0005 4889E5   		movq	%rsp, %rbp
 6922              		.cfi_def_cfa_register 6
 6923 0008 53       		pushq	%rbx
 6924 0009 4883EC18 		subq	$24, %rsp
 6925              		.cfi_offset 3, -24
 6926 000d 48897DE8 		movq	%rdi, -24(%rbp)
 6927              	.LBB96:
 6928              		.loc 6 197 2
 6929 0011 488B5DE8 		movq	-24(%rbp), %rbx
 6930 0015 E8000000 		call	_ZN18SuiteSameTestSuite13UnitTestSuite12GetSuiteNameEv
 6930      00
 6931 001a 4889C2   		movq	%rax, %rdx
 6932 001d 41B8C500 		movl	$197, %r8d
 6932      0000
 6933 0023 488D0500 		leaq	.LC2(%rip), %rax
 6933      000000
 6934 002a 4889C1   		movq	%rax, %rcx
 6935 002d 488D0500 		leaq	.LC72(%rip), %rax
 6935      000000
 6936 0034 4889C6   		movq	%rax, %rsi
 6937 0037 4889DF   		movq	%rbx, %rdi
 6938 003a E8000000 		call	_ZN8UnitTest4TestC2EPKcS2_S2_i@PLT
 6938      00
 6939 003f 488D1500 		leaq	16+_ZTVN18SuiteSameTestSuite14TestDummyTest1E(%rip), %rdx
 6939      000000
 6940 0046 488B45E8 		movq	-24(%rbp), %rax
 6941 004a 488910   		movq	%rdx, (%rax)
 6942              	.LBE96:
 6943 004d 90       		nop
 6944 004e 488B5DF8 		movq	-8(%rbp), %rbx
 6945 0052 C9       		leave
 6946              		.cfi_def_cfa 7, 8
 6947 0053 C3       		ret
 6948              		.cfi_endproc
 6949              	.LFE1279:
 6951              		.weak	_ZN18SuiteSameTestSuite14TestDummyTest1C1Ev
 6952              		.set	_ZN18SuiteSameTestSuite14TestDummyTest1C1Ev,_ZN18SuiteSameTestSuite14TestDummyTest1C2Ev
 6953              		.globl	_ZN18SuiteSameTestSuite22testDummyTest1InstanceE
 6954              		.bss
 6955              		.align 32
 6958              	_ZN18SuiteSameTestSuite22testDummyTest1InstanceE:
 6959 0000 00000000 		.zero	56
 6959      00000000 
 6959      00000000 
 6959      00000000 
 6959      00000000 
 6960              		.globl	_ZN18SuiteSameTestSuite15adderDummyTest1E
 6963              	_ZN18SuiteSameTestSuite15adderDummyTest1E:
 6964 0038 00       		.zero	1
 6965              		.text
 6966 31cf 90       		.align 2
 6967              		.globl	_ZNK18SuiteSameTestSuite14TestDummyTest17RunImplEv
 6969              	_ZNK18SuiteSameTestSuite14TestDummyTest17RunImplEv:
 6970              	.LFB1281:
 198:TestTestMacros.cpp **** 	{
 6971              		.loc 6 198 2
 6972              		.cfi_startproc
 6973 31d0 F30F1EFA 		endbr64
 6974 31d4 55       		pushq	%rbp
 6975              		.cfi_def_cfa_offset 16
 6976              		.cfi_offset 6, -16
 6977 31d5 4889E5   		movq	%rsp, %rbp
 6978              		.cfi_def_cfa_register 6
 6979 31d8 48897DF8 		movq	%rdi, -8(%rbp)
 199:TestTestMacros.cpp **** 	}
 6980              		.loc 6 199 2
 6981 31dc 90       		nop
 6982 31dd 5D       		popq	%rbp
 6983              		.cfi_def_cfa 7, 8
 6984 31de C3       		ret
 6985              		.cfi_endproc
 6986              	.LFE1281:
 6988              		.section	.rodata
 6989 0db4 00000000 		.align 8
 6990              	.LC73:
 6991 0db8 43757272 		.string	"CurrentTestDetailsContainCurrentTestInfo"
 6991      656E7454 
 6991      65737444 
 6991      65746169 
 6991      6C73436F 
 6992              		.section	.text._ZN44TestCurrentTestDetailsContainCurrentTestInfoC2Ev,"axG",@progbits,_ZN44TestCurr
 6993              		.align 2
 6994              		.weak	_ZN44TestCurrentTestDetailsContainCurrentTestInfoC2Ev
 6996              	_ZN44TestCurrentTestDetailsContainCurrentTestInfoC2Ev:
 6997              	.LFB1283:
 200:TestTestMacros.cpp **** }
 201:TestTestMacros.cpp **** 
 202:TestTestMacros.cpp **** #define CUR_TEST_NAME CurrentTestDetailsContainCurrentTestInfo
 203:TestTestMacros.cpp **** #define INNER_STRINGIFY(X) #X
 204:TestTestMacros.cpp **** #define STRINGIFY(X) INNER_STRINGIFY(X)
 205:TestTestMacros.cpp **** 
 206:TestTestMacros.cpp **** TEST(CUR_TEST_NAME)
 6998              		.loc 6 206 1
 6999              		.cfi_startproc
 7000 0000 F30F1EFA 		endbr64
 7001 0004 55       		pushq	%rbp
 7002              		.cfi_def_cfa_offset 16
 7003              		.cfi_offset 6, -16
 7004 0005 4889E5   		movq	%rsp, %rbp
 7005              		.cfi_def_cfa_register 6
 7006 0008 53       		pushq	%rbx
 7007 0009 4883EC18 		subq	$24, %rsp
 7008              		.cfi_offset 3, -24
 7009 000d 48897DE8 		movq	%rdi, -24(%rbp)
 7010              	.LBB97:
 7011              		.loc 6 206 1
 7012 0011 488B5DE8 		movq	-24(%rbp), %rbx
 7013 0015 E8000000 		call	_ZN13UnitTestSuite12GetSuiteNameEv
 7013      00
 7014 001a 4889C2   		movq	%rax, %rdx
 7015 001d 41B8CE00 		movl	$206, %r8d
 7015      0000
 7016 0023 488D0500 		leaq	.LC2(%rip), %rax
 7016      000000
 7017 002a 4889C1   		movq	%rax, %rcx
 7018 002d 488D0500 		leaq	.LC73(%rip), %rax
 7018      000000
 7019 0034 4889C6   		movq	%rax, %rsi
 7020 0037 4889DF   		movq	%rbx, %rdi
 7021 003a E8000000 		call	_ZN8UnitTest4TestC2EPKcS2_S2_i@PLT
 7021      00
 7022 003f 488D1500 		leaq	16+_ZTV44TestCurrentTestDetailsContainCurrentTestInfo(%rip), %rdx
 7022      000000
 7023 0046 488B45E8 		movq	-24(%rbp), %rax
 7024 004a 488910   		movq	%rdx, (%rax)
 7025              	.LBE97:
 7026 004d 90       		nop
 7027 004e 488B5DF8 		movq	-8(%rbp), %rbx
 7028 0052 C9       		leave
 7029              		.cfi_def_cfa 7, 8
 7030 0053 C3       		ret
 7031              		.cfi_endproc
 7032              	.LFE1283:
 7034              		.weak	_ZN44TestCurrentTestDetailsContainCurrentTestInfoC1Ev
 7035              		.set	_ZN44TestCurrentTestDetailsContainCurrentTestInfoC1Ev,_ZN44TestCurrentTestDetailsContainCurre
 7036              		.globl	testCurrentTestDetailsContainCurrentTestInfoInstance
 7037              		.bss
 7038 0039 00000000 		.align 32
 7038      000000
 7041              	testCurrentTestDetailsContainCurrentTestInfoInstance:
 7042 0040 00000000 		.zero	56
 7042      00000000 
 7042      00000000 
 7042      00000000 
 7042      00000000 
 7043              		.globl	adderCurrentTestDetailsContainCurrentTestInfo
 7046              	adderCurrentTestDetailsContainCurrentTestInfo:
 7047 0078 00       		.zero	1
 7048              		.section	.rodata
 7049 0de1 00000000 		.align 8
 7049      000000
 7050              	.LC74:
 7051 0de8 556E6861 		.string	"Unhandled exception in CHECK_EQUAL(STRINGIFY(CUR_TEST_NAME), details->testName)"
 7051      6E646C65 
 7051      64206578 
 7051      63657074 
 7051      696F6E20 
 7052              		.text
 7053 31df 90       		.align 2
 7054              		.globl	_ZNK44TestCurrentTestDetailsContainCurrentTestInfo7RunImplEv
 7056              	_ZNK44TestCurrentTestDetailsContainCurrentTestInfo7RunImplEv:
 7057              	.LFB1285:
 207:TestTestMacros.cpp **** {
 7058              		.loc 6 207 1
 7059              		.cfi_startproc
 7060              		.cfi_personality 0x9b,DW.ref.__gxx_personality_v0
 7061              		.cfi_lsda 0x1b,.LLSDA1285
 7062 31e0 F30F1EFA 		endbr64
 7063 31e4 55       		pushq	%rbp
 7064              		.cfi_def_cfa_offset 16
 7065              		.cfi_offset 6, -16
 7066 31e5 4889E5   		movq	%rsp, %rbp
 7067              		.cfi_def_cfa_register 6
 7068 31e8 53       		pushq	%rbx
 7069 31e9 4883EC58 		subq	$88, %rsp
 7070              		.cfi_offset 3, -24
 7071 31ed 48897DA8 		movq	%rdi, -88(%rbp)
 7072              		.loc 6 207 1
 7073 31f1 64488B04 		movq	%fs:40, %rax
 7073      25280000 
 7073      00
 7074 31fa 488945E8 		movq	%rax, -24(%rbp)
 7075 31fe 31C0     		xorl	%eax, %eax
 7076              	.LEHB158:
 208:TestTestMacros.cpp **** 	const UnitTest::TestDetails* details = CurrentTest::Details();
 7077              		.loc 6 208 61
 7078 3200 E8000000 		call	_ZN8UnitTest11CurrentTest7DetailsEv@PLT
 7078      00
 7079              	.LEHE158:
 7080              		.loc 6 208 62
 7081 3205 488B00   		movq	(%rax), %rax
 7082 3208 488945B8 		movq	%rax, -72(%rbp)
 7083              	.LEHB159:
 209:TestTestMacros.cpp **** 	CHECK_EQUAL(STRINGIFY(CUR_TEST_NAME), details->testName);
 7084              		.loc 6 209 2
 7085 320c E8000000 		call	_ZN8UnitTest11CurrentTest7DetailsEv@PLT
 7085      00
 7086 3211 488B08   		movq	(%rax), %rcx
 7087 3214 488D45C0 		leaq	-64(%rbp), %rax
 7088 3218 BAD10000 		movl	$209, %edx
 7088      00
 7089 321d 4889CE   		movq	%rcx, %rsi
 7090 3220 4889C7   		movq	%rax, %rdi
 7091 3223 E8000000 		call	_ZN8UnitTest11TestDetailsC1ERKS0_i@PLT
 7091      00
 7092              		.loc 6 209 2 is_stmt 0 discriminator 4
 7093 3228 488B45B8 		movq	-72(%rbp), %rax
 7094 322c 488B5808 		movq	8(%rax), %rbx
 7095 3230 E8000000 		call	_ZN8UnitTest11CurrentTest7ResultsEv@PLT
 7095      00
 7096 3235 488B00   		movq	(%rax), %rax
 7097 3238 488D55C0 		leaq	-64(%rbp), %rdx
 7098 323c 4889D1   		movq	%rdx, %rcx
 7099 323f 4889DA   		movq	%rbx, %rdx
 7100 3242 488D3500 		leaq	.LC73(%rip), %rsi
 7100      000000
 7101 3249 4889C7   		movq	%rax, %rdi
 7102 324c E8000000 		call	_ZN8UnitTest10CheckEqualERNS_11TestResultsEPKcS3_RKNS_11TestDetailsE@PLT
 7102      00
 7103              	.LEHE159:
 210:TestTestMacros.cpp **** }
 7104              		.loc 6 210 1 is_stmt 1
 7105 3251 EB64     		jmp	.L341
 7106              	.L346:
 7107 3253 F30F1EFA 		endbr64
 209:TestTestMacros.cpp **** 	CHECK_EQUAL(STRINGIFY(CUR_TEST_NAME), details->testName);
 7108              		.loc 6 209 2
 7109 3257 4889C7   		movq	%rax, %rdi
 7110 325a E8000000 		call	__cxa_begin_catch@PLT
 7110      00
 7111              	.LEHB160:
 7112 325f E8000000 		call	_ZN8UnitTest11CurrentTest7ResultsEv@PLT
 7112      00
 209:TestTestMacros.cpp **** 	CHECK_EQUAL(STRINGIFY(CUR_TEST_NAME), details->testName);
 7113              		.loc 6 209 2 is_stmt 0 discriminator 3
 7114 3264 488B18   		movq	(%rax), %rbx
 7115 3267 E8000000 		call	_ZN8UnitTest11CurrentTest7DetailsEv@PLT
 7115      00
 209:TestTestMacros.cpp **** 	CHECK_EQUAL(STRINGIFY(CUR_TEST_NAME), details->testName);
 7116              		.loc 6 209 2 discriminator 11
 7117 326c 488B08   		movq	(%rax), %rcx
 7118 326f 488D45C0 		leaq	-64(%rbp), %rax
 7119 3273 BAD10000 		movl	$209, %edx
 7119      00
 7120 3278 4889CE   		movq	%rcx, %rsi
 7121 327b 4889C7   		movq	%rax, %rdi
 7122 327e E8000000 		call	_ZN8UnitTest11TestDetailsC1ERKS0_i@PLT
 7122      00
 209:TestTestMacros.cpp **** 	CHECK_EQUAL(STRINGIFY(CUR_TEST_NAME), details->testName);
 7123              		.loc 6 209 2 discriminator 15
 7124 3283 488D45C0 		leaq	-64(%rbp), %rax
 7125 3287 488D1500 		leaq	.LC74(%rip), %rdx
 7125      000000
 7126 328e 4889C6   		movq	%rax, %rsi
 7127 3291 4889DF   		movq	%rbx, %rdi
 7128 3294 E8000000 		call	_ZN8UnitTest11TestResults13OnTestFailureERKNS_11TestDetailsEPKc@PLT
 7128      00
 7129              	.LEHE160:
 7130              	.LEHB161:
 209:TestTestMacros.cpp **** 	CHECK_EQUAL(STRINGIFY(CUR_TEST_NAME), details->testName);
 7131              		.loc 6 209 2 discriminator 17
 7132 3299 E8000000 		call	__cxa_end_catch@PLT
 7132      00
 7133              	.LEHE161:
 7134              		.loc 6 210 1 is_stmt 1 discriminator 17
 7135 329e EB17     		jmp	.L341
 7136              	.L347:
 7137 32a0 F30F1EFA 		endbr64
 209:TestTestMacros.cpp **** 	CHECK_EQUAL(STRINGIFY(CUR_TEST_NAME), details->testName);
 7138              		.loc 6 209 2
 7139 32a4 4889C3   		movq	%rax, %rbx
 7140 32a7 E8000000 		call	__cxa_end_catch@PLT
 7140      00
 7141 32ac 4889D8   		movq	%rbx, %rax
 7142 32af 4889C7   		movq	%rax, %rdi
 7143              	.LEHB162:
 7144 32b2 E8000000 		call	_Unwind_Resume@PLT
 7144      00
 7145              	.LEHE162:
 7146              	.L341:
 7147              		.loc 6 210 1
 7148 32b7 488B45E8 		movq	-24(%rbp), %rax
 7149 32bb 64482B04 		subq	%fs:40, %rax
 7149      25280000 
 7149      00
 7150 32c4 7405     		je	.L345
 7151 32c6 E8000000 		call	__stack_chk_fail@PLT
 7151      00
 7152              	.L345:
 7153 32cb 488B5DF8 		movq	-8(%rbp), %rbx
 7154 32cf C9       		leave
 7155              		.cfi_def_cfa 7, 8
 7156 32d0 C3       		ret
 7157              		.cfi_endproc
 7158              	.LFE1285:
 7159              		.section	.gcc_except_table
 7160              		.align 4
 7161              	.LLSDA1285:
 7162 0464 FF       		.byte	0xff
 7163 0465 9B       		.byte	0x9b
 7164 0466 21       		.uleb128 .LLSDATT1285-.LLSDATTD1285
 7165              	.LLSDATTD1285:
 7166 0467 01       		.byte	0x1
 7167 0468 17       		.uleb128 .LLSDACSE1285-.LLSDACSB1285
 7168              	.LLSDACSB1285:
 7169 0469 20       		.uleb128 .LEHB158-.LFB1285
 7170 046a 05       		.uleb128 .LEHE158-.LEHB158
 7171 046b 00       		.uleb128 0
 7172 046c 00       		.uleb128 0
 7173 046d 2C       		.uleb128 .LEHB159-.LFB1285
 7174 046e 45       		.uleb128 .LEHE159-.LEHB159
 7175 046f 73       		.uleb128 .L346-.LFB1285
 7176 0470 01       		.uleb128 0x1
 7177 0471 7F       		.uleb128 .LEHB160-.LFB1285
 7178 0472 3A       		.uleb128 .LEHE160-.LEHB160
 7179 0473 C001     		.uleb128 .L347-.LFB1285
 7180 0475 00       		.uleb128 0
 7181 0476 B901     		.uleb128 .LEHB161-.LFB1285
 7182 0478 05       		.uleb128 .LEHE161-.LEHB161
 7183 0479 00       		.uleb128 0
 7184 047a 00       		.uleb128 0
 7185 047b D201     		.uleb128 .LEHB162-.LFB1285
 7186 047d 05       		.uleb128 .LEHE162-.LEHB162
 7187 047e 00       		.uleb128 0
 7188 047f 00       		.uleb128 0
 7189              	.LLSDACSE1285:
 7190 0480 01       		.byte	0x1
 7191 0481 00       		.byte	0
 7192 0482 0000     		.align 4
 7193 0484 00000000 		.long	0
 7194              	
 7195              	.LLSDATT1285:
 7196              		.text
 7198              		.section	.text._ZN8UnitTest5CheckIbEEbT_,"axG",@progbits,_ZN8UnitTest5CheckIbEEbT_,comdat
 7199              		.weak	_ZN8UnitTest5CheckIbEEbT_
 7201              	_ZN8UnitTest5CheckIbEEbT_:
 7202              	.LFB1313:
 7203              		.file 7 "../Checks.h"
   1:../Checks.h   **** #ifndef UNITTEST_CHECKS_H
   2:../Checks.h   **** #define UNITTEST_CHECKS_H
   3:../Checks.h   **** 
   4:../Checks.h   **** #include "Config.h"
   5:../Checks.h   **** #include "TestResults.h"
   6:../Checks.h   **** #include "MemoryOutStream.h"
   7:../Checks.h   **** 
   8:../Checks.h   **** namespace UnitTest {
   9:../Checks.h   **** 
  10:../Checks.h   **** 
  11:../Checks.h   **** template< typename Value >
  12:../Checks.h   **** bool Check(Value const value)
 7204              		.loc 7 12 6
 7205              		.cfi_startproc
 7206 0000 F30F1EFA 		endbr64
 7207 0004 55       		pushq	%rbp
 7208              		.cfi_def_cfa_offset 16
 7209              		.cfi_offset 6, -16
 7210 0005 4889E5   		movq	%rsp, %rbp
 7211              		.cfi_def_cfa_register 6
 7212 0008 89F8     		movl	%edi, %eax
 7213 000a 8845FC   		movb	%al, -4(%rbp)
  13:../Checks.h   **** {
  14:../Checks.h   ****     return !!value; // doing double negative to avoid silly VS warnings
 7214              		.loc 7 14 14
 7215 000d 0FB645FC 		movzbl	-4(%rbp), %eax
  15:../Checks.h   **** }
 7216              		.loc 7 15 1
 7217 0011 5D       		popq	%rbp
 7218              		.cfi_def_cfa 7, 8
 7219 0012 C3       		ret
 7220              		.cfi_endproc
 7221              	.LFE1313:
 7223              		.section	.rodata
 7224              	.LC75:
 7225 0e38 556E6861 		.string	"Unhandled system exception"
 7225      6E646C65 
 7225      64207379 
 7225      7374656D 
 7225      20657863 
 7226              	.LC76:
 7227 0e53 556E6861 		.string	"Unhandled exception: Crash!"
 7227      6E646C65 
 7227      64206578 
 7227      63657074 
 7227      696F6E3A 
 7228              		.text
 7230              	_ZN8UnitTest11ExecuteTestIN12_GLOBAL__N_134ThrowingThingieDummyTestNameHelperEEEvRT_RKNS_11TestDeta
 7231              	.LFB1314:
 7232              		.file 8 "../ExecuteTest.h"
   1:../ExecuteTest.h **** #ifndef UNITTEST_EXECUTE_TEST_H
   2:../ExecuteTest.h **** #define UNITTEST_EXECUTE_TEST_H
   3:../ExecuteTest.h **** 
   4:../ExecuteTest.h **** #include "TestDetails.h"
   5:../ExecuteTest.h **** #include "MemoryOutStream.h"
   6:../ExecuteTest.h **** #include "AssertException.h"
   7:../ExecuteTest.h **** #include "CurrentTest.h"
   8:../ExecuteTest.h **** 
   9:../ExecuteTest.h **** #ifdef UNITTEST_POSIX
  10:../ExecuteTest.h **** 	#include "PosixUtils/SignalTranslator.h"
  11:../ExecuteTest.h **** #endif
  12:../ExecuteTest.h **** 
  13:../ExecuteTest.h **** namespace UnitTest {
  14:../ExecuteTest.h **** 
  15:../ExecuteTest.h **** template< typename T >
  16:../ExecuteTest.h **** void ExecuteTest(T& testObject, TestDetails const& details)
 7233              		.loc 8 16 6
 7234              		.cfi_startproc
 7235              		.cfi_personality 0x9b,DW.ref.__gxx_personality_v0
 7236              		.cfi_lsda 0x1b,.LLSDA1314
 7237 32d1 F30F1EFA 		endbr64
 7238 32d5 55       		pushq	%rbp
 7239              		.cfi_def_cfa_offset 16
 7240              		.cfi_offset 6, -16
 7241 32d6 4889E5   		movq	%rsp, %rbp
 7242              		.cfi_def_cfa_register 6
 7243 32d9 4155     		pushq	%r13
 7244 32db 4154     		pushq	%r12
 7245 32dd 53       		pushq	%rbx
 7246 32de 4881EC58 		subq	$1624, %rsp
 7246      060000
 7247              		.cfi_offset 13, -24
 7248              		.cfi_offset 12, -32
 7249              		.cfi_offset 3, -40
 7250 32e5 4889BD98 		movq	%rdi, -1640(%rbp)
 7250      F9FFFF
 7251 32ec 4889B590 		movq	%rsi, -1648(%rbp)
 7251      F9FFFF
 7252              		.loc 8 16 6
 7253 32f3 64488B04 		movq	%fs:40, %rax
 7253      25280000 
 7253      00
 7254 32fc 488945D8 		movq	%rax, -40(%rbp)
 7255 3300 31C0     		xorl	%eax, %eax
 7256              	.LEHB163:
  17:../ExecuteTest.h **** {
  18:../ExecuteTest.h **** 	CurrentTest::Details() = &details;
 7257              		.loc 8 18 22
 7258 3302 E8000000 		call	_ZN8UnitTest11CurrentTest7DetailsEv@PLT
 7258      00
 7259              	.LEHE163:
 7260              		.loc 8 18 25
 7261 3307 488B9590 		movq	-1648(%rbp), %rdx
 7261      F9FFFF
 7262 330e 488910   		movq	%rdx, (%rax)
 7263              	.LBB98:
  19:../ExecuteTest.h **** 
  20:../ExecuteTest.h **** 	try
  21:../ExecuteTest.h **** 	{
  22:../ExecuteTest.h **** #ifdef UNITTEST_POSIX
  23:../ExecuteTest.h **** 		UNITTEST_THROW_SIGNALS
 7264              		.loc 8 23 3
 7265 3311 488D8570 		leaq	-1168(%rbp), %rax
 7265      FBFFFF
 7266 3318 4889C7   		movq	%rax, %rdi
 7267              	.LEHB164:
 7268 331b E8000000 		call	_ZN8UnitTest16SignalTranslatorC1Ev@PLT
 7268      00
 7269              	.LEHE164:
 7270              		.loc 8 23 3 is_stmt 0 discriminator 1
 7271 3320 488B0500 		movq	_ZN8UnitTest16SignalTranslator12s_jumpTargetE(%rip), %rax
 7271      000000
 7272 3327 BE010000 		movl	$1, %esi
 7272      00
 7273 332c 4889C7   		movq	%rax, %rdi
 7274 332f E8000000 		call	__sigsetjmp@PLT
 7274      00
 7275 3334 F30F1EFA 		endbr64
 7276 3338 85C0     		testl	%eax, %eax
 7277 333a 0F95C0   		setne	%al
 7278 333d 84C0     		testb	%al, %al
 7279 333f 742B     		je	.L352
 7280              		.loc 8 23 3 discriminator 4
 7281 3341 BF080000 		movl	$8, %edi
 7281      00
 7282 3346 E8000000 		call	__cxa_allocate_exception@PLT
 7282      00
 7283 334b 488D1500 		leaq	.LC75(%rip), %rdx
 7283      000000
 7284 3352 488910   		movq	%rdx, (%rax)
 7285 3355 BA000000 		movl	$0, %edx
 7285      00
 7286 335a 488D0D00 		leaq	_ZTIPKc(%rip), %rcx
 7286      000000
 7287 3361 4889CE   		movq	%rcx, %rsi
 7288 3364 4889C7   		movq	%rax, %rdi
 7289              	.LEHB165:
 7290 3367 E8000000 		call	__cxa_throw@PLT
 7290      00
 7291              	.LEHE165:
 7292              	.L352:
  24:../ExecuteTest.h **** #endif
  25:../ExecuteTest.h **** 		testObject.RunImpl();
 7293              		.loc 8 25 21 is_stmt 1
 7294 336c 488B8598 		movq	-1640(%rbp), %rax
 7294      F9FFFF
 7295 3373 4889C7   		movq	%rax, %rdi
 7296 3376 E8D1D2FF 		call	_ZN12_GLOBAL__N_134ThrowingThingieDummyTestNameHelper7RunImplEv
 7296      FF
  26:../ExecuteTest.h **** 	}
 7297              		.loc 8 26 2
 7298 337b 488D8570 		leaq	-1168(%rbp), %rax
 7298      FBFFFF
 7299 3382 4889C7   		movq	%rax, %rdi
 7300              	.LEHB166:
 7301 3385 E8000000 		call	_ZN8UnitTest16SignalTranslatorD1Ev@PLT
 7301      00
 7302              	.LEHE166:
 7303              	.LBE98:
  27:../ExecuteTest.h **** 	catch (AssertException const& e)
  28:../ExecuteTest.h **** 	{
  29:../ExecuteTest.h **** 		CurrentTest::Results()->OnTestFailure(
  30:../ExecuteTest.h **** 			TestDetails(details.testName, details.suiteName, e.Filename(), e.LineNumber()), e.what());
  31:../ExecuteTest.h **** 	}
  32:../ExecuteTest.h **** 	catch (std::exception const& e)
  33:../ExecuteTest.h **** 	{
  34:../ExecuteTest.h **** 		MemoryOutStream stream;
  35:../ExecuteTest.h **** 		stream << "Unhandled exception: " << e.what();
  36:../ExecuteTest.h **** 		CurrentTest::Results()->OnTestFailure(details, stream.GetText());
  37:../ExecuteTest.h **** 	}
  38:../ExecuteTest.h **** 	catch (...)
  39:../ExecuteTest.h **** 	{
  40:../ExecuteTest.h **** 		CurrentTest::Results()->OnTestFailure(details, "Unhandled exception: Crash!");
  41:../ExecuteTest.h **** 	}
  42:../ExecuteTest.h **** }
 7304              		.loc 8 42 1
 7305 338a E90F0200 		jmp	.L350
 7305      00
 7306              	.L365:
 7307 338f F30F1EFA 		endbr64
 7308              	.LBB99:
  26:../ExecuteTest.h **** 	}
 7309              		.loc 8 26 2
 7310 3393 4989C4   		movq	%rax, %r12
 7311 3396 4889D3   		movq	%rdx, %rbx
 7312 3399 488D8570 		leaq	-1168(%rbp), %rax
 7312      FBFFFF
 7313 33a0 4889C7   		movq	%rax, %rdi
 7314 33a3 E8000000 		call	_ZN8UnitTest16SignalTranslatorD1Ev@PLT
 7314      00
 7315 33a8 4C89E0   		movq	%r12, %rax
 7316 33ab 4889DA   		movq	%rbx, %rdx
 7317 33ae EB04     		jmp	.L354
 7318              	.L364:
 7319 33b0 F30F1EFA 		endbr64
 7320              	.L354:
 7321              	.LBE99:
  27:../ExecuteTest.h **** 	catch (AssertException const& e)
 7322              		.loc 8 27 2
 7323 33b4 4883FA01 		cmpq	$1, %rdx
 7324 33b8 740F     		je	.L355
 7325 33ba 4883FA02 		cmpq	$2, %rdx
 7326 33be 0F84A600 		je	.L356
 7326      0000
 7327 33c4 E9480100 		jmp	.L370
 7327      00
 7328              	.L355:
 7329              	.LBB100:
  27:../ExecuteTest.h **** 	catch (AssertException const& e)
 7330              		.loc 8 27 2 is_stmt 0 discriminator 1
 7331 33c9 4889C7   		movq	%rax, %rdi
 7332 33cc E8000000 		call	__cxa_begin_catch@PLT
 7332      00
  27:../ExecuteTest.h **** 	catch (AssertException const& e)
 7333              		.loc 8 27 32 is_stmt 1 discriminator 1
 7334 33d1 488985A8 		movq	%rax, -1624(%rbp)
 7334      F9FFFF
 7335              	.LEHB167:
  29:../ExecuteTest.h **** 			TestDetails(details.testName, details.suiteName, e.Filename(), e.LineNumber()), e.what());
 7336              		.loc 8 29 23 discriminator 1
 7337 33d8 E8000000 		call	_ZN8UnitTest11CurrentTest7ResultsEv@PLT
 7337      00
  29:../ExecuteTest.h **** 			TestDetails(details.testName, details.suiteName, e.Filename(), e.LineNumber()), e.what());
 7338              		.loc 8 29 40 discriminator 2
 7339 33dd 488B18   		movq	(%rax), %rbx
  30:../ExecuteTest.h **** 	}
 7340              		.loc 8 30 90 discriminator 2
 7341 33e0 488B85A8 		movq	-1624(%rbp), %rax
 7341      F9FFFF
 7342 33e7 488B00   		movq	(%rax), %rax
 7343 33ea 4883C010 		addq	$16, %rax
 7344 33ee 488B10   		movq	(%rax), %rdx
  29:../ExecuteTest.h **** 			TestDetails(details.testName, details.suiteName, e.Filename(), e.LineNumber()), e.what());
 7345              		.loc 8 29 40 discriminator 2
 7346 33f1 488B85A8 		movq	-1624(%rbp), %rax
 7346      F9FFFF
 7347 33f8 4889C7   		movq	%rax, %rdi
 7348 33fb FFD2     		call	*%rdx
 7349              	.LVL14:
 7350 33fd 4989C4   		movq	%rax, %r12
  30:../ExecuteTest.h **** 	}
 7351              		.loc 8 30 4 discriminator 2
 7352 3400 488B85A8 		movq	-1624(%rbp), %rax
 7352      F9FFFF
 7353 3407 4889C7   		movq	%rax, %rdi
 7354 340a E8000000 		call	_ZNK8UnitTest15AssertException10LineNumberEv@PLT
 7354      00
 7355 340f 4189C5   		movl	%eax, %r13d
 7356 3412 488B85A8 		movq	-1624(%rbp), %rax
 7356      F9FFFF
 7357 3419 4889C7   		movq	%rax, %rdi
 7358 341c E8000000 		call	_ZNK8UnitTest15AssertException8FilenameEv@PLT
 7358      00
  30:../ExecuteTest.h **** 	}
 7359              		.loc 8 30 4 is_stmt 0 discriminator 1
 7360 3421 4889C1   		movq	%rax, %rcx
  30:../ExecuteTest.h **** 	}
 7361              		.loc 8 30 42 is_stmt 1 discriminator 1
 7362 3424 488B8590 		movq	-1648(%rbp), %rax
 7362      F9FFFF
 7363 342b 488B10   		movq	(%rax), %rdx
  30:../ExecuteTest.h **** 	}
 7364              		.loc 8 30 24 discriminator 1
 7365 342e 488B8590 		movq	-1648(%rbp), %rax
 7365      F9FFFF
 7366 3435 488B7008 		movq	8(%rax), %rsi
  30:../ExecuteTest.h **** 	}
 7367              		.loc 8 30 4 discriminator 1
 7368 3439 488D85B0 		leaq	-1616(%rbp), %rax
 7368      F9FFFF
 7369 3440 4589E8   		movl	%r13d, %r8d
 7370 3443 4889C7   		movq	%rax, %rdi
 7371 3446 E8000000 		call	_ZN8UnitTest11TestDetailsC1EPKcS2_S2_i@PLT
 7371      00
  29:../ExecuteTest.h **** 			TestDetails(details.testName, details.suiteName, e.Filename(), e.LineNumber()), e.what());
 7372              		.loc 8 29 40
 7373 344b 488D85B0 		leaq	-1616(%rbp), %rax
 7373      F9FFFF
 7374 3452 4C89E2   		movq	%r12, %rdx
 7375 3455 4889C6   		movq	%rax, %rsi
 7376 3458 4889DF   		movq	%rbx, %rdi
 7377 345b E8000000 		call	_ZN8UnitTest11TestResults13OnTestFailureERKNS_11TestDetailsEPKc@PLT
 7377      00
 7378              	.LEHE167:
  27:../ExecuteTest.h **** 	catch (AssertException const& e)
 7379              		.loc 8 27 2
 7380 3460 E8000000 		call	__cxa_end_catch@PLT
 7380      00
 7381              	.LBE100:
 7382              		.loc 8 42 1
 7383 3465 E9340100 		jmp	.L350
 7383      00
 7384              	.L356:
 7385              	.LBB101:
  32:../ExecuteTest.h **** 	{
 7386              		.loc 8 32 2
 7387 346a 4889C7   		movq	%rax, %rdi
 7388 346d E8000000 		call	__cxa_begin_catch@PLT
 7388      00
  32:../ExecuteTest.h **** 	{
 7389              		.loc 8 32 31
 7390 3472 488985A0 		movq	%rax, -1632(%rbp)
 7390      F9FFFF
 7391              	.LBB102:
  34:../ExecuteTest.h **** 		stream << "Unhandled exception: " << e.what();
 7392              		.loc 8 34 19
 7393 3479 488D85D0 		leaq	-1584(%rbp), %rax
 7393      F9FFFF
 7394 3480 4889C7   		movq	%rax, %rdi
 7395              	.LEHB168:
 7396 3483 E8000000 		call	_ZN8UnitTest15MemoryOutStreamC1Ev
 7396      00
 7397              	.LEHE168:
  35:../ExecuteTest.h **** 		CurrentTest::Results()->OnTestFailure(details, stream.GetText());
 7398              		.loc 8 35 37
 7399 3488 488D85D0 		leaq	-1584(%rbp), %rax
 7399      F9FFFF
 7400 348f 488D1500 		leaq	.LC11(%rip), %rdx
 7400      000000
 7401 3496 4889D6   		movq	%rdx, %rsi
 7402 3499 4889C7   		movq	%rax, %rdi
 7403              	.LEHB169:
 7404 349c E8000000 		call	_ZStlsISt11char_traitsIcEERSt13basic_ostreamIcT_ES5_PKc@PLT
 7404      00
 7405 34a1 4889C3   		movq	%rax, %rbx
  35:../ExecuteTest.h **** 		CurrentTest::Results()->OnTestFailure(details, stream.GetText());
 7406              		.loc 8 35 46
 7407 34a4 488B85A0 		movq	-1632(%rbp), %rax
 7407      F9FFFF
 7408 34ab 488B00   		movq	(%rax), %rax
 7409 34ae 4883C010 		addq	$16, %rax
 7410 34b2 488B10   		movq	(%rax), %rdx
  35:../ExecuteTest.h **** 		CurrentTest::Results()->OnTestFailure(details, stream.GetText());
 7411              		.loc 8 35 37
 7412 34b5 488B85A0 		movq	-1632(%rbp), %rax
 7412      F9FFFF
 7413 34bc 4889C7   		movq	%rax, %rdi
 7414 34bf FFD2     		call	*%rdx
 7415              	.LVL15:
 7416 34c1 4889C6   		movq	%rax, %rsi
 7417 34c4 4889DF   		movq	%rbx, %rdi
 7418 34c7 E8000000 		call	_ZStlsISt11char_traitsIcEERSt13basic_ostreamIcT_ES5_PKc@PLT
 7418      00
  36:../ExecuteTest.h **** 	}
 7419              		.loc 8 36 23
 7420 34cc E8000000 		call	_ZN8UnitTest11CurrentTest7ResultsEv@PLT
 7420      00
  36:../ExecuteTest.h **** 	}
 7421              		.loc 8 36 40
 7422 34d1 488B18   		movq	(%rax), %rbx
 7423 34d4 488D85D0 		leaq	-1584(%rbp), %rax
 7423      F9FFFF
 7424 34db 4889C7   		movq	%rax, %rdi
 7425 34de E8000000 		call	_ZNK8UnitTest15MemoryOutStream7GetTextEv@PLT
 7425      00
  36:../ExecuteTest.h **** 	}
 7426              		.loc 8 36 40 is_stmt 0 discriminator 1
 7427 34e3 4889C2   		movq	%rax, %rdx
 7428 34e6 488B8590 		movq	-1648(%rbp), %rax
 7428      F9FFFF
 7429 34ed 4889C6   		movq	%rax, %rsi
 7430 34f0 4889DF   		movq	%rbx, %rdi
 7431 34f3 E8000000 		call	_ZN8UnitTest11TestResults13OnTestFailureERKNS_11TestDetailsEPKc@PLT
 7431      00
 7432              	.LEHE169:
  37:../ExecuteTest.h **** 	catch (...)
 7433              		.loc 8 37 2 is_stmt 1
 7434 34f8 488D85D0 		leaq	-1584(%rbp), %rax
 7434      F9FFFF
 7435 34ff 4889C7   		movq	%rax, %rdi
 7436              	.LEHB170:
 7437 3502 E8000000 		call	_ZN8UnitTest15MemoryOutStreamD1Ev
 7437      00
 7438              	.LEHE170:
 7439              	.LBE102:
  32:../ExecuteTest.h **** 	{
 7440              		.loc 8 32 2
 7441 3507 E8000000 		call	__cxa_end_catch@PLT
 7441      00
 7442              	.LBE101:
 7443              		.loc 8 42 1
 7444 350c E98D0000 		jmp	.L350
 7444      00
 7445              	.L370:
  38:../ExecuteTest.h **** 	{
 7446              		.loc 8 38 2
 7447 3511 4889C7   		movq	%rax, %rdi
 7448 3514 E8000000 		call	__cxa_begin_catch@PLT
 7448      00
 7449              	.LEHB171:
  40:../ExecuteTest.h **** 	}
 7450              		.loc 8 40 23
 7451 3519 E8000000 		call	_ZN8UnitTest11CurrentTest7ResultsEv@PLT
 7451      00
  40:../ExecuteTest.h **** 	}
 7452              		.loc 8 40 40
 7453 351e 488B00   		movq	(%rax), %rax
 7454 3521 488B8D90 		movq	-1648(%rbp), %rcx
 7454      F9FFFF
 7455 3528 488D1500 		leaq	.LC76(%rip), %rdx
 7455      000000
 7456 352f 4889CE   		movq	%rcx, %rsi
 7457 3532 4889C7   		movq	%rax, %rdi
 7458 3535 E8000000 		call	_ZN8UnitTest11TestResults13OnTestFailureERKNS_11TestDetailsEPKc@PLT
 7458      00
 7459              	.LEHE171:
 7460              	.LEHB172:
  38:../ExecuteTest.h **** 	{
 7461              		.loc 8 38 2
 7462 353a E8000000 		call	__cxa_end_catch@PLT
 7462      00
 7463              		.loc 8 42 1
 7464 353f EB5D     		jmp	.L350
 7465              	.L366:
 7466 3541 F30F1EFA 		endbr64
 7467              	.LBB104:
  27:../ExecuteTest.h **** 	{
 7468              		.loc 8 27 2
 7469 3545 4889C3   		movq	%rax, %rbx
 7470 3548 E8000000 		call	__cxa_end_catch@PLT
 7470      00
 7471 354d 4889D8   		movq	%rbx, %rax
 7472 3550 4889C7   		movq	%rax, %rdi
 7473 3553 E8000000 		call	_Unwind_Resume@PLT
 7473      00
 7474              	.LEHE172:
 7475              	.L368:
 7476 3558 F30F1EFA 		endbr64
 7477              	.LBE104:
 7478              	.LBB105:
 7479              	.LBB103:
  37:../ExecuteTest.h **** 	catch (...)
 7480              		.loc 8 37 2
 7481 355c 4889C3   		movq	%rax, %rbx
 7482 355f 488D85D0 		leaq	-1584(%rbp), %rax
 7482      F9FFFF
 7483 3566 4889C7   		movq	%rax, %rdi
 7484 3569 E8000000 		call	_ZN8UnitTest15MemoryOutStreamD1Ev
 7484      00
 7485 356e EB07     		jmp	.L361
 7486              	.L367:
 7487 3570 F30F1EFA 		endbr64
 7488              	.LBE103:
  32:../ExecuteTest.h **** 	{
 7489              		.loc 8 32 2
 7490 3574 4889C3   		movq	%rax, %rbx
 7491              	.L361:
 7492 3577 E8000000 		call	__cxa_end_catch@PLT
 7492      00
 7493 357c 4889D8   		movq	%rbx, %rax
 7494 357f 4889C7   		movq	%rax, %rdi
 7495              	.LEHB173:
 7496 3582 E8000000 		call	_Unwind_Resume@PLT
 7496      00
 7497              	.LEHE173:
 7498              	.L369:
 7499 3587 F30F1EFA 		endbr64
 7500              	.LBE105:
  38:../ExecuteTest.h **** 	{
 7501              		.loc 8 38 2
 7502 358b 4889C3   		movq	%rax, %rbx
 7503 358e E8000000 		call	__cxa_end_catch@PLT
 7503      00
 7504 3593 4889D8   		movq	%rbx, %rax
 7505 3596 4889C7   		movq	%rax, %rdi
 7506              	.LEHB174:
 7507 3599 E8000000 		call	_Unwind_Resume@PLT
 7507      00
 7508              	.LEHE174:
 7509              	.L350:
 7510              		.loc 8 42 1
 7511 359e 488B45D8 		movq	-40(%rbp), %rax
 7512 35a2 64482B04 		subq	%fs:40, %rax
 7512      25280000 
 7512      00
 7513 35ab 7405     		je	.L363
 7514 35ad E8000000 		call	__stack_chk_fail@PLT
 7514      00
 7515              	.L363:
 7516 35b2 4881C458 		addq	$1624, %rsp
 7516      060000
 7517 35b9 5B       		popq	%rbx
 7518 35ba 415C     		popq	%r12
 7519 35bc 415D     		popq	%r13
 7520 35be 5D       		popq	%rbp
 7521              		.cfi_def_cfa 7, 8
 7522 35bf C3       		ret
 7523              		.cfi_endproc
 7524              	.LFE1314:
 7525              		.section	.gcc_except_table
 7526              		.align 4
 7527              	.LLSDA1314:
 7528 0488 FF       		.byte	0xff
 7529 0489 9B       		.byte	0x9b
 7530 048a 59       		.uleb128 .LLSDATT1314-.LLSDATTD1314
 7531              	.LLSDATTD1314:
 7532 048b 01       		.byte	0x1
 7533 048c 43       		.uleb128 .LLSDACSE1314-.LLSDACSB1314
 7534              	.LLSDACSB1314:
 7535 048d 31       		.uleb128 .LEHB163-.LFB1314
 7536 048e 05       		.uleb128 .LEHE163-.LEHB163
 7537 048f 00       		.uleb128 0
 7538 0490 00       		.uleb128 0
 7539 0491 4A       		.uleb128 .LEHB164-.LFB1314
 7540 0492 05       		.uleb128 .LEHE164-.LEHB164
 7541 0493 DF01     		.uleb128 .L364-.LFB1314
 7542 0495 05       		.uleb128 0x5
 7543 0496 9601     		.uleb128 .LEHB165-.LFB1314
 7544 0498 05       		.uleb128 .LEHE165-.LEHB165
 7545 0499 BE01     		.uleb128 .L365-.LFB1314
 7546 049b 07       		.uleb128 0x7
 7547 049c B401     		.uleb128 .LEHB166-.LFB1314
 7548 049e 05       		.uleb128 .LEHE166-.LEHB166
 7549 049f DF01     		.uleb128 .L364-.LFB1314
 7550 04a1 05       		.uleb128 0x5
 7551 04a2 8702     		.uleb128 .LEHB167-.LFB1314
 7552 04a4 8801     		.uleb128 .LEHE167-.LEHB167
 7553 04a6 F004     		.uleb128 .L366-.LFB1314
 7554 04a8 00       		.uleb128 0
 7555 04a9 B203     		.uleb128 .LEHB168-.LFB1314
 7556 04ab 05       		.uleb128 .LEHE168-.LEHB168
 7557 04ac 9F05     		.uleb128 .L367-.LFB1314
 7558 04ae 00       		.uleb128 0
 7559 04af CB03     		.uleb128 .LEHB169-.LFB1314
 7560 04b1 5C       		.uleb128 .LEHE169-.LEHB169
 7561 04b2 8705     		.uleb128 .L368-.LFB1314
 7562 04b4 00       		.uleb128 0
 7563 04b5 B104     		.uleb128 .LEHB170-.LFB1314
 7564 04b7 05       		.uleb128 .LEHE170-.LEHB170
 7565 04b8 9F05     		.uleb128 .L367-.LFB1314
 7566 04ba 00       		.uleb128 0
 7567 04bb C804     		.uleb128 .LEHB171-.LFB1314
 7568 04bd 21       		.uleb128 .LEHE171-.LEHB171
 7569 04be B605     		.uleb128 .L369-.LFB1314
 7570 04c0 00       		.uleb128 0
 7571 04c1 E904     		.uleb128 .LEHB172-.LFB1314
 7572 04c3 1E       		.uleb128 .LEHE172-.LEHB172
 7573 04c4 00       		.uleb128 0
 7574 04c5 00       		.uleb128 0
 7575 04c6 B105     		.uleb128 .LEHB173-.LFB1314
 7576 04c8 05       		.uleb128 .LEHE173-.LEHB173
 7577 04c9 00       		.uleb128 0
 7578 04ca 00       		.uleb128 0
 7579 04cb C805     		.uleb128 .LEHB174-.LFB1314
 7580 04cd 05       		.uleb128 .LEHE174-.LEHB174
 7581 04ce 00       		.uleb128 0
 7582 04cf 00       		.uleb128 0
 7583              	.LLSDACSE1314:
 7584 04d0 03       		.byte	0x3
 7585 04d1 00       		.byte	0
 7586 04d2 02       		.byte	0x2
 7587 04d3 7D       		.byte	0x7d
 7588 04d4 01       		.byte	0x1
 7589 04d5 7D       		.byte	0x7d
 7590 04d6 00       		.byte	0
 7591 04d7 7D       		.byte	0x7d
 7592              		.align 4
 7593 04d8 00000000 		.long	0
 7594              	
 7595 04dc 00000000 		.long	DW.ref._ZTISt9exception-.
 7596 04e0 00000000 		.long	DW.ref._ZTIN8UnitTest15AssertExceptionE-.
 7597              	.LLSDATT1314:
 7598              		.text
 7600              		.section	.text._ZN8UnitTest5CheckIPcEEbT_,"axG",@progbits,_ZN8UnitTest5CheckIPcEEbT_,comdat
 7601              		.weak	_ZN8UnitTest5CheckIPcEEbT_
 7603              	_ZN8UnitTest5CheckIPcEEbT_:
 7604              	.LFB1316:
  12:../Checks.h   **** {
 7605              		.loc 7 12 6
 7606              		.cfi_startproc
 7607 0000 F30F1EFA 		endbr64
 7608 0004 55       		pushq	%rbp
 7609              		.cfi_def_cfa_offset 16
 7610              		.cfi_offset 6, -16
 7611 0005 4889E5   		movq	%rsp, %rbp
 7612              		.cfi_def_cfa_register 6
 7613 0008 48897DF8 		movq	%rdi, -8(%rbp)
  14:../Checks.h   **** }
 7614              		.loc 7 14 14
 7615 000c 48837DF8 		cmpq	$0, -8(%rbp)
 7615      00
 7616 0011 0F95C0   		setne	%al
 7617              		.loc 7 15 1
 7618 0014 5D       		popq	%rbp
 7619              		.cfi_def_cfa 7, 8
 7620 0015 C3       		ret
 7621              		.cfi_endproc
 7622              	.LFE1316:
 7624              		.text
 7626              	_ZN8UnitTest11ExecuteTestIN12_GLOBAL__N_115SuiteTestSuite165DummyFixtureSimilarlyNamedFixtureTestsI
 7627              	.LFB1317:
  16:../ExecuteTest.h **** {
 7628              		.loc 8 16 6
 7629              		.cfi_startproc
 7630              		.cfi_personality 0x9b,DW.ref.__gxx_personality_v0
 7631              		.cfi_lsda 0x1b,.LLSDA1317
 7632 35c0 F30F1EFA 		endbr64
 7633 35c4 55       		pushq	%rbp
 7634              		.cfi_def_cfa_offset 16
 7635              		.cfi_offset 6, -16
 7636 35c5 4889E5   		movq	%rsp, %rbp
 7637              		.cfi_def_cfa_register 6
 7638 35c8 4155     		pushq	%r13
 7639 35ca 4154     		pushq	%r12
 7640 35cc 53       		pushq	%rbx
 7641 35cd 4881EC58 		subq	$1624, %rsp
 7641      060000
 7642              		.cfi_offset 13, -24
 7643              		.cfi_offset 12, -32
 7644              		.cfi_offset 3, -40
 7645 35d4 4889BD98 		movq	%rdi, -1640(%rbp)
 7645      F9FFFF
 7646 35db 4889B590 		movq	%rsi, -1648(%rbp)
 7646      F9FFFF
  16:../ExecuteTest.h **** {
 7647              		.loc 8 16 6
 7648 35e2 64488B04 		movq	%fs:40, %rax
 7648      25280000 
 7648      00
 7649 35eb 488945D8 		movq	%rax, -40(%rbp)
 7650 35ef 31C0     		xorl	%eax, %eax
 7651              	.LEHB175:
  18:../ExecuteTest.h **** 
 7652              		.loc 8 18 22
 7653 35f1 E8000000 		call	_ZN8UnitTest11CurrentTest7DetailsEv@PLT
 7653      00
 7654              	.LEHE175:
  18:../ExecuteTest.h **** 
 7655              		.loc 8 18 25
 7656 35f6 488B9590 		movq	-1648(%rbp), %rdx
 7656      F9FFFF
 7657 35fd 488910   		movq	%rdx, (%rax)
 7658              	.LBB106:
  23:../ExecuteTest.h **** #endif
 7659              		.loc 8 23 3
 7660 3600 488D8570 		leaq	-1168(%rbp), %rax
 7660      FBFFFF
 7661 3607 4889C7   		movq	%rax, %rdi
 7662              	.LEHB176:
 7663 360a E8000000 		call	_ZN8UnitTest16SignalTranslatorC1Ev@PLT
 7663      00
 7664              	.LEHE176:
  23:../ExecuteTest.h **** #endif
 7665              		.loc 8 23 3 is_stmt 0 discriminator 1
 7666 360f 488B0500 		movq	_ZN8UnitTest16SignalTranslator12s_jumpTargetE(%rip), %rax
 7666      000000
 7667 3616 BE010000 		movl	$1, %esi
 7667      00
 7668 361b 4889C7   		movq	%rax, %rdi
 7669 361e E8000000 		call	__sigsetjmp@PLT
 7669      00
 7670 3623 F30F1EFA 		endbr64
 7671 3627 85C0     		testl	%eax, %eax
 7672 3629 0F95C0   		setne	%al
 7673 362c 84C0     		testb	%al, %al
 7674 362e 742B     		je	.L375
  23:../ExecuteTest.h **** #endif
 7675              		.loc 8 23 3 discriminator 4
 7676 3630 BF080000 		movl	$8, %edi
 7676      00
 7677 3635 E8000000 		call	__cxa_allocate_exception@PLT
 7677      00
 7678 363a 488D1500 		leaq	.LC75(%rip), %rdx
 7678      000000
 7679 3641 488910   		movq	%rdx, (%rax)
 7680 3644 BA000000 		movl	$0, %edx
 7680      00
 7681 3649 488D0D00 		leaq	_ZTIPKc(%rip), %rcx
 7681      000000
 7682 3650 4889CE   		movq	%rcx, %rsi
 7683 3653 4889C7   		movq	%rax, %rdi
 7684              	.LEHB177:
 7685 3656 E8000000 		call	__cxa_throw@PLT
 7685      00
 7686              	.LEHE177:
 7687              	.L375:
  25:../ExecuteTest.h **** 	}
 7688              		.loc 8 25 21 is_stmt 1
 7689 365b 488B8598 		movq	-1640(%rbp), %rax
 7689      F9FFFF
 7690 3662 4889C7   		movq	%rax, %rdi
 7691 3665 E890D7FF 		call	_ZN12_GLOBAL__N_115SuiteTestSuite165DummyFixtureSimilarlyNamedFixtureTestsInDifferentSuitesWo
 7691      FF
  26:../ExecuteTest.h **** 	catch (AssertException const& e)
 7692              		.loc 8 26 2
 7693 366a 488D8570 		leaq	-1168(%rbp), %rax
 7693      FBFFFF
 7694 3671 4889C7   		movq	%rax, %rdi
 7695              	.LEHB178:
 7696 3674 E8000000 		call	_ZN8UnitTest16SignalTranslatorD1Ev@PLT
 7696      00
 7697              	.LEHE178:
 7698              	.LBE106:
 7699              		.loc 8 42 1
 7700 3679 E90F0200 		jmp	.L373
 7700      00
 7701              	.L388:
 7702 367e F30F1EFA 		endbr64
 7703              	.LBB107:
  26:../ExecuteTest.h **** 	catch (AssertException const& e)
 7704              		.loc 8 26 2
 7705 3682 4989C4   		movq	%rax, %r12
 7706 3685 4889D3   		movq	%rdx, %rbx
 7707 3688 488D8570 		leaq	-1168(%rbp), %rax
 7707      FBFFFF
 7708 368f 4889C7   		movq	%rax, %rdi
 7709 3692 E8000000 		call	_ZN8UnitTest16SignalTranslatorD1Ev@PLT
 7709      00
 7710 3697 4C89E0   		movq	%r12, %rax
 7711 369a 4889DA   		movq	%rbx, %rdx
 7712 369d EB04     		jmp	.L377
 7713              	.L387:
 7714 369f F30F1EFA 		endbr64
 7715              	.L377:
 7716              	.LBE107:
  27:../ExecuteTest.h **** 	{
 7717              		.loc 8 27 2
 7718 36a3 4883FA01 		cmpq	$1, %rdx
 7719 36a7 740F     		je	.L378
 7720 36a9 4883FA02 		cmpq	$2, %rdx
 7721 36ad 0F84A600 		je	.L379
 7721      0000
 7722 36b3 E9480100 		jmp	.L393
 7722      00
 7723              	.L378:
 7724              	.LBB108:
  27:../ExecuteTest.h **** 	{
 7725              		.loc 8 27 2 is_stmt 0 discriminator 1
 7726 36b8 4889C7   		movq	%rax, %rdi
 7727 36bb E8000000 		call	__cxa_begin_catch@PLT
 7727      00
  27:../ExecuteTest.h **** 	{
 7728              		.loc 8 27 32 is_stmt 1 discriminator 1
 7729 36c0 488985A8 		movq	%rax, -1624(%rbp)
 7729      F9FFFF
 7730              	.LEHB179:
  29:../ExecuteTest.h **** 			TestDetails(details.testName, details.suiteName, e.Filename(), e.LineNumber()), e.what());
 7731              		.loc 8 29 23 discriminator 1
 7732 36c7 E8000000 		call	_ZN8UnitTest11CurrentTest7ResultsEv@PLT
 7732      00
  29:../ExecuteTest.h **** 			TestDetails(details.testName, details.suiteName, e.Filename(), e.LineNumber()), e.what());
 7733              		.loc 8 29 40 discriminator 2
 7734 36cc 488B18   		movq	(%rax), %rbx
  30:../ExecuteTest.h **** 	}
 7735              		.loc 8 30 90 discriminator 2
 7736 36cf 488B85A8 		movq	-1624(%rbp), %rax
 7736      F9FFFF
 7737 36d6 488B00   		movq	(%rax), %rax
 7738 36d9 4883C010 		addq	$16, %rax
 7739 36dd 488B10   		movq	(%rax), %rdx
  29:../ExecuteTest.h **** 			TestDetails(details.testName, details.suiteName, e.Filename(), e.LineNumber()), e.what());
 7740              		.loc 8 29 40 discriminator 2
 7741 36e0 488B85A8 		movq	-1624(%rbp), %rax
 7741      F9FFFF
 7742 36e7 4889C7   		movq	%rax, %rdi
 7743 36ea FFD2     		call	*%rdx
 7744              	.LVL16:
 7745 36ec 4989C4   		movq	%rax, %r12
  30:../ExecuteTest.h **** 	}
 7746              		.loc 8 30 4 discriminator 2
 7747 36ef 488B85A8 		movq	-1624(%rbp), %rax
 7747      F9FFFF
 7748 36f6 4889C7   		movq	%rax, %rdi
 7749 36f9 E8000000 		call	_ZNK8UnitTest15AssertException10LineNumberEv@PLT
 7749      00
 7750 36fe 4189C5   		movl	%eax, %r13d
 7751 3701 488B85A8 		movq	-1624(%rbp), %rax
 7751      F9FFFF
 7752 3708 4889C7   		movq	%rax, %rdi
 7753 370b E8000000 		call	_ZNK8UnitTest15AssertException8FilenameEv@PLT
 7753      00
  30:../ExecuteTest.h **** 	}
 7754              		.loc 8 30 4 is_stmt 0 discriminator 1
 7755 3710 4889C1   		movq	%rax, %rcx
  30:../ExecuteTest.h **** 	}
 7756              		.loc 8 30 42 is_stmt 1 discriminator 1
 7757 3713 488B8590 		movq	-1648(%rbp), %rax
 7757      F9FFFF
 7758 371a 488B10   		movq	(%rax), %rdx
  30:../ExecuteTest.h **** 	}
 7759              		.loc 8 30 24 discriminator 1
 7760 371d 488B8590 		movq	-1648(%rbp), %rax
 7760      F9FFFF
 7761 3724 488B7008 		movq	8(%rax), %rsi
  30:../ExecuteTest.h **** 	}
 7762              		.loc 8 30 4 discriminator 1
 7763 3728 488D85B0 		leaq	-1616(%rbp), %rax
 7763      F9FFFF
 7764 372f 4589E8   		movl	%r13d, %r8d
 7765 3732 4889C7   		movq	%rax, %rdi
 7766 3735 E8000000 		call	_ZN8UnitTest11TestDetailsC1EPKcS2_S2_i@PLT
 7766      00
  29:../ExecuteTest.h **** 			TestDetails(details.testName, details.suiteName, e.Filename(), e.LineNumber()), e.what());
 7767              		.loc 8 29 40
 7768 373a 488D85B0 		leaq	-1616(%rbp), %rax
 7768      F9FFFF
 7769 3741 4C89E2   		movq	%r12, %rdx
 7770 3744 4889C6   		movq	%rax, %rsi
 7771 3747 4889DF   		movq	%rbx, %rdi
 7772 374a E8000000 		call	_ZN8UnitTest11TestResults13OnTestFailureERKNS_11TestDetailsEPKc@PLT
 7772      00
 7773              	.LEHE179:
  27:../ExecuteTest.h **** 	{
 7774              		.loc 8 27 2
 7775 374f E8000000 		call	__cxa_end_catch@PLT
 7775      00
 7776              	.LBE108:
 7777              		.loc 8 42 1
 7778 3754 E9340100 		jmp	.L373
 7778      00
 7779              	.L379:
 7780              	.LBB109:
  32:../ExecuteTest.h **** 	{
 7781              		.loc 8 32 2
 7782 3759 4889C7   		movq	%rax, %rdi
 7783 375c E8000000 		call	__cxa_begin_catch@PLT
 7783      00
  32:../ExecuteTest.h **** 	{
 7784              		.loc 8 32 31
 7785 3761 488985A0 		movq	%rax, -1632(%rbp)
 7785      F9FFFF
 7786              	.LBB110:
  34:../ExecuteTest.h **** 		stream << "Unhandled exception: " << e.what();
 7787              		.loc 8 34 19
 7788 3768 488D85D0 		leaq	-1584(%rbp), %rax
 7788      F9FFFF
 7789 376f 4889C7   		movq	%rax, %rdi
 7790              	.LEHB180:
 7791 3772 E8000000 		call	_ZN8UnitTest15MemoryOutStreamC1Ev
 7791      00
 7792              	.LEHE180:
  35:../ExecuteTest.h **** 		CurrentTest::Results()->OnTestFailure(details, stream.GetText());
 7793              		.loc 8 35 37
 7794 3777 488D85D0 		leaq	-1584(%rbp), %rax
 7794      F9FFFF
 7795 377e 488D1500 		leaq	.LC11(%rip), %rdx
 7795      000000
 7796 3785 4889D6   		movq	%rdx, %rsi
 7797 3788 4889C7   		movq	%rax, %rdi
 7798              	.LEHB181:
 7799 378b E8000000 		call	_ZStlsISt11char_traitsIcEERSt13basic_ostreamIcT_ES5_PKc@PLT
 7799      00
 7800 3790 4889C3   		movq	%rax, %rbx
  35:../ExecuteTest.h **** 		CurrentTest::Results()->OnTestFailure(details, stream.GetText());
 7801              		.loc 8 35 46
 7802 3793 488B85A0 		movq	-1632(%rbp), %rax
 7802      F9FFFF
 7803 379a 488B00   		movq	(%rax), %rax
 7804 379d 4883C010 		addq	$16, %rax
 7805 37a1 488B10   		movq	(%rax), %rdx
  35:../ExecuteTest.h **** 		CurrentTest::Results()->OnTestFailure(details, stream.GetText());
 7806              		.loc 8 35 37
 7807 37a4 488B85A0 		movq	-1632(%rbp), %rax
 7807      F9FFFF
 7808 37ab 4889C7   		movq	%rax, %rdi
 7809 37ae FFD2     		call	*%rdx
 7810              	.LVL17:
 7811 37b0 4889C6   		movq	%rax, %rsi
 7812 37b3 4889DF   		movq	%rbx, %rdi
 7813 37b6 E8000000 		call	_ZStlsISt11char_traitsIcEERSt13basic_ostreamIcT_ES5_PKc@PLT
 7813      00
  36:../ExecuteTest.h **** 	}
 7814              		.loc 8 36 23
 7815 37bb E8000000 		call	_ZN8UnitTest11CurrentTest7ResultsEv@PLT
 7815      00
  36:../ExecuteTest.h **** 	}
 7816              		.loc 8 36 40
 7817 37c0 488B18   		movq	(%rax), %rbx
 7818 37c3 488D85D0 		leaq	-1584(%rbp), %rax
 7818      F9FFFF
 7819 37ca 4889C7   		movq	%rax, %rdi
 7820 37cd E8000000 		call	_ZNK8UnitTest15MemoryOutStream7GetTextEv@PLT
 7820      00
  36:../ExecuteTest.h **** 	}
 7821              		.loc 8 36 40 is_stmt 0 discriminator 1
 7822 37d2 4889C2   		movq	%rax, %rdx
 7823 37d5 488B8590 		movq	-1648(%rbp), %rax
 7823      F9FFFF
 7824 37dc 4889C6   		movq	%rax, %rsi
 7825 37df 4889DF   		movq	%rbx, %rdi
 7826 37e2 E8000000 		call	_ZN8UnitTest11TestResults13OnTestFailureERKNS_11TestDetailsEPKc@PLT
 7826      00
 7827              	.LEHE181:
  37:../ExecuteTest.h **** 	catch (...)
 7828              		.loc 8 37 2 is_stmt 1
 7829 37e7 488D85D0 		leaq	-1584(%rbp), %rax
 7829      F9FFFF
 7830 37ee 4889C7   		movq	%rax, %rdi
 7831              	.LEHB182:
 7832 37f1 E8000000 		call	_ZN8UnitTest15MemoryOutStreamD1Ev
 7832      00
 7833              	.LEHE182:
 7834              	.LBE110:
  32:../ExecuteTest.h **** 	{
 7835              		.loc 8 32 2
 7836 37f6 E8000000 		call	__cxa_end_catch@PLT
 7836      00
 7837              	.LBE109:
 7838              		.loc 8 42 1
 7839 37fb E98D0000 		jmp	.L373
 7839      00
 7840              	.L393:
  38:../ExecuteTest.h **** 	{
 7841              		.loc 8 38 2
 7842 3800 4889C7   		movq	%rax, %rdi
 7843 3803 E8000000 		call	__cxa_begin_catch@PLT
 7843      00
 7844              	.LEHB183:
  40:../ExecuteTest.h **** 	}
 7845              		.loc 8 40 23
 7846 3808 E8000000 		call	_ZN8UnitTest11CurrentTest7ResultsEv@PLT
 7846      00
  40:../ExecuteTest.h **** 	}
 7847              		.loc 8 40 40
 7848 380d 488B00   		movq	(%rax), %rax
 7849 3810 488B8D90 		movq	-1648(%rbp), %rcx
 7849      F9FFFF
 7850 3817 488D1500 		leaq	.LC76(%rip), %rdx
 7850      000000
 7851 381e 4889CE   		movq	%rcx, %rsi
 7852 3821 4889C7   		movq	%rax, %rdi
 7853 3824 E8000000 		call	_ZN8UnitTest11TestResults13OnTestFailureERKNS_11TestDetailsEPKc@PLT
 7853      00
 7854              	.LEHE183:
 7855              	.LEHB184:
  38:../ExecuteTest.h **** 	{
 7856              		.loc 8 38 2
 7857 3829 E8000000 		call	__cxa_end_catch@PLT
 7857      00
 7858              		.loc 8 42 1
 7859 382e EB5D     		jmp	.L373
 7860              	.L389:
 7861 3830 F30F1EFA 		endbr64
 7862              	.LBB112:
  27:../ExecuteTest.h **** 	{
 7863              		.loc 8 27 2
 7864 3834 4889C3   		movq	%rax, %rbx
 7865 3837 E8000000 		call	__cxa_end_catch@PLT
 7865      00
 7866 383c 4889D8   		movq	%rbx, %rax
 7867 383f 4889C7   		movq	%rax, %rdi
 7868 3842 E8000000 		call	_Unwind_Resume@PLT
 7868      00
 7869              	.LEHE184:
 7870              	.L391:
 7871 3847 F30F1EFA 		endbr64
 7872              	.LBE112:
 7873              	.LBB113:
 7874              	.LBB111:
  37:../ExecuteTest.h **** 	catch (...)
 7875              		.loc 8 37 2
 7876 384b 4889C3   		movq	%rax, %rbx
 7877 384e 488D85D0 		leaq	-1584(%rbp), %rax
 7877      F9FFFF
 7878 3855 4889C7   		movq	%rax, %rdi
 7879 3858 E8000000 		call	_ZN8UnitTest15MemoryOutStreamD1Ev
 7879      00
 7880 385d EB07     		jmp	.L384
 7881              	.L390:
 7882 385f F30F1EFA 		endbr64
 7883              	.LBE111:
  32:../ExecuteTest.h **** 	{
 7884              		.loc 8 32 2
 7885 3863 4889C3   		movq	%rax, %rbx
 7886              	.L384:
 7887 3866 E8000000 		call	__cxa_end_catch@PLT
 7887      00
 7888 386b 4889D8   		movq	%rbx, %rax
 7889 386e 4889C7   		movq	%rax, %rdi
 7890              	.LEHB185:
 7891 3871 E8000000 		call	_Unwind_Resume@PLT
 7891      00
 7892              	.LEHE185:
 7893              	.L392:
 7894 3876 F30F1EFA 		endbr64
 7895              	.LBE113:
  38:../ExecuteTest.h **** 	{
 7896              		.loc 8 38 2
 7897 387a 4889C3   		movq	%rax, %rbx
 7898 387d E8000000 		call	__cxa_end_catch@PLT
 7898      00
 7899 3882 4889D8   		movq	%rbx, %rax
 7900 3885 4889C7   		movq	%rax, %rdi
 7901              	.LEHB186:
 7902 3888 E8000000 		call	_Unwind_Resume@PLT
 7902      00
 7903              	.LEHE186:
 7904              	.L373:
 7905              		.loc 8 42 1
 7906 388d 488B45D8 		movq	-40(%rbp), %rax
 7907 3891 64482B04 		subq	%fs:40, %rax
 7907      25280000 
 7907      00
 7908 389a 7405     		je	.L386
 7909 389c E8000000 		call	__stack_chk_fail@PLT
 7909      00
 7910              	.L386:
 7911 38a1 4881C458 		addq	$1624, %rsp
 7911      060000
 7912 38a8 5B       		popq	%rbx
 7913 38a9 415C     		popq	%r12
 7914 38ab 415D     		popq	%r13
 7915 38ad 5D       		popq	%rbp
 7916              		.cfi_def_cfa 7, 8
 7917 38ae C3       		ret
 7918              		.cfi_endproc
 7919              	.LFE1317:
 7920              		.section	.gcc_except_table
 7921              		.align 4
 7922              	.LLSDA1317:
 7923 04e4 FF       		.byte	0xff
 7924 04e5 9B       		.byte	0x9b
 7925 04e6 59       		.uleb128 .LLSDATT1317-.LLSDATTD1317
 7926              	.LLSDATTD1317:
 7927 04e7 01       		.byte	0x1
 7928 04e8 43       		.uleb128 .LLSDACSE1317-.LLSDACSB1317
 7929              	.LLSDACSB1317:
 7930 04e9 31       		.uleb128 .LEHB175-.LFB1317
 7931 04ea 05       		.uleb128 .LEHE175-.LEHB175
 7932 04eb 00       		.uleb128 0
 7933 04ec 00       		.uleb128 0
 7934 04ed 4A       		.uleb128 .LEHB176-.LFB1317
 7935 04ee 05       		.uleb128 .LEHE176-.LEHB176
 7936 04ef DF01     		.uleb128 .L387-.LFB1317
 7937 04f1 05       		.uleb128 0x5
 7938 04f2 9601     		.uleb128 .LEHB177-.LFB1317
 7939 04f4 05       		.uleb128 .LEHE177-.LEHB177
 7940 04f5 BE01     		.uleb128 .L388-.LFB1317
 7941 04f7 07       		.uleb128 0x7
 7942 04f8 B401     		.uleb128 .LEHB178-.LFB1317
 7943 04fa 05       		.uleb128 .LEHE178-.LEHB178
 7944 04fb DF01     		.uleb128 .L387-.LFB1317
 7945 04fd 05       		.uleb128 0x5
 7946 04fe 8702     		.uleb128 .LEHB179-.LFB1317
 7947 0500 8801     		.uleb128 .LEHE179-.LEHB179
 7948 0502 F004     		.uleb128 .L389-.LFB1317
 7949 0504 00       		.uleb128 0
 7950 0505 B203     		.uleb128 .LEHB180-.LFB1317
 7951 0507 05       		.uleb128 .LEHE180-.LEHB180
 7952 0508 9F05     		.uleb128 .L390-.LFB1317
 7953 050a 00       		.uleb128 0
 7954 050b CB03     		.uleb128 .LEHB181-.LFB1317
 7955 050d 5C       		.uleb128 .LEHE181-.LEHB181
 7956 050e 8705     		.uleb128 .L391-.LFB1317
 7957 0510 00       		.uleb128 0
 7958 0511 B104     		.uleb128 .LEHB182-.LFB1317
 7959 0513 05       		.uleb128 .LEHE182-.LEHB182
 7960 0514 9F05     		.uleb128 .L390-.LFB1317
 7961 0516 00       		.uleb128 0
 7962 0517 C804     		.uleb128 .LEHB183-.LFB1317
 7963 0519 21       		.uleb128 .LEHE183-.LEHB183
 7964 051a B605     		.uleb128 .L392-.LFB1317
 7965 051c 00       		.uleb128 0
 7966 051d E904     		.uleb128 .LEHB184-.LFB1317
 7967 051f 1E       		.uleb128 .LEHE184-.LEHB184
 7968 0520 00       		.uleb128 0
 7969 0521 00       		.uleb128 0
 7970 0522 B105     		.uleb128 .LEHB185-.LFB1317
 7971 0524 05       		.uleb128 .LEHE185-.LEHB185
 7972 0525 00       		.uleb128 0
 7973 0526 00       		.uleb128 0
 7974 0527 C805     		.uleb128 .LEHB186-.LFB1317
 7975 0529 05       		.uleb128 .LEHE186-.LEHB186
 7976 052a 00       		.uleb128 0
 7977 052b 00       		.uleb128 0
 7978              	.LLSDACSE1317:
 7979 052c 03       		.byte	0x3
 7980 052d 00       		.byte	0
 7981 052e 02       		.byte	0x2
 7982 052f 7D       		.byte	0x7d
 7983 0530 01       		.byte	0x1
 7984 0531 7D       		.byte	0x7d
 7985 0532 00       		.byte	0
 7986 0533 7D       		.byte	0x7d
 7987              		.align 4
 7988 0534 00000000 		.long	0
 7989              	
 7990 0538 00000000 		.long	DW.ref._ZTISt9exception-.
 7991 053c 00000000 		.long	DW.ref._ZTIN8UnitTest15AssertExceptionE-.
 7992              	.LLSDATT1317:
 7993              		.text
 7996              	_ZN8UnitTest11ExecuteTestIN12_GLOBAL__N_115SuiteTestSuite265DummyFixtureSimilarlyNamedFixtureTestsI
 7997              	.LFB1318:
  16:../ExecuteTest.h **** {
 7998              		.loc 8 16 6
 7999              		.cfi_startproc
 8000              		.cfi_personality 0x9b,DW.ref.__gxx_personality_v0
 8001              		.cfi_lsda 0x1b,.LLSDA1318
 8002 38af F30F1EFA 		endbr64
 8003 38b3 55       		pushq	%rbp
 8004              		.cfi_def_cfa_offset 16
 8005              		.cfi_offset 6, -16
 8006 38b4 4889E5   		movq	%rsp, %rbp
 8007              		.cfi_def_cfa_register 6
 8008 38b7 4155     		pushq	%r13
 8009 38b9 4154     		pushq	%r12
 8010 38bb 53       		pushq	%rbx
 8011 38bc 4881EC58 		subq	$1624, %rsp
 8011      060000
 8012              		.cfi_offset 13, -24
 8013              		.cfi_offset 12, -32
 8014              		.cfi_offset 3, -40
 8015 38c3 4889BD98 		movq	%rdi, -1640(%rbp)
 8015      F9FFFF
 8016 38ca 4889B590 		movq	%rsi, -1648(%rbp)
 8016      F9FFFF
  16:../ExecuteTest.h **** {
 8017              		.loc 8 16 6
 8018 38d1 64488B04 		movq	%fs:40, %rax
 8018      25280000 
 8018      00
 8019 38da 488945D8 		movq	%rax, -40(%rbp)
 8020 38de 31C0     		xorl	%eax, %eax
 8021              	.LEHB187:
  18:../ExecuteTest.h **** 
 8022              		.loc 8 18 22
 8023 38e0 E8000000 		call	_ZN8UnitTest11CurrentTest7DetailsEv@PLT
 8023      00
 8024              	.LEHE187:
  18:../ExecuteTest.h **** 
 8025              		.loc 8 18 25
 8026 38e5 488B9590 		movq	-1648(%rbp), %rdx
 8026      F9FFFF
 8027 38ec 488910   		movq	%rdx, (%rax)
 8028              	.LBB114:
  23:../ExecuteTest.h **** #endif
 8029              		.loc 8 23 3
 8030 38ef 488D8570 		leaq	-1168(%rbp), %rax
 8030      FBFFFF
 8031 38f6 4889C7   		movq	%rax, %rdi
 8032              	.LEHB188:
 8033 38f9 E8000000 		call	_ZN8UnitTest16SignalTranslatorC1Ev@PLT
 8033      00
 8034              	.LEHE188:
  23:../ExecuteTest.h **** #endif
 8035              		.loc 8 23 3 is_stmt 0 discriminator 1
 8036 38fe 488B0500 		movq	_ZN8UnitTest16SignalTranslator12s_jumpTargetE(%rip), %rax
 8036      000000
 8037 3905 BE010000 		movl	$1, %esi
 8037      00
 8038 390a 4889C7   		movq	%rax, %rdi
 8039 390d E8000000 		call	__sigsetjmp@PLT
 8039      00
 8040 3912 F30F1EFA 		endbr64
 8041 3916 85C0     		testl	%eax, %eax
 8042 3918 0F95C0   		setne	%al
 8043 391b 84C0     		testb	%al, %al
 8044 391d 742B     		je	.L396
  23:../ExecuteTest.h **** #endif
 8045              		.loc 8 23 3 discriminator 4
 8046 391f BF080000 		movl	$8, %edi
 8046      00
 8047 3924 E8000000 		call	__cxa_allocate_exception@PLT
 8047      00
 8048 3929 488D1500 		leaq	.LC75(%rip), %rdx
 8048      000000
 8049 3930 488910   		movq	%rdx, (%rax)
 8050 3933 BA000000 		movl	$0, %edx
 8050      00
 8051 3938 488D0D00 		leaq	_ZTIPKc(%rip), %rcx
 8051      000000
 8052 393f 4889CE   		movq	%rcx, %rsi
 8053 3942 4889C7   		movq	%rax, %rdi
 8054              	.LEHB189:
 8055 3945 E8000000 		call	__cxa_throw@PLT
 8055      00
 8056              	.LEHE189:
 8057              	.L396:
  25:../ExecuteTest.h **** 	}
 8058              		.loc 8 25 21 is_stmt 1
 8059 394a 488B8598 		movq	-1640(%rbp), %rax
 8059      F9FFFF
 8060 3951 4889C7   		movq	%rax, %rdi
 8061 3954 E885D8FF 		call	_ZN12_GLOBAL__N_115SuiteTestSuite265DummyFixtureSimilarlyNamedFixtureTestsInDifferentSuitesWo
 8061      FF
  26:../ExecuteTest.h **** 	catch (AssertException const& e)
 8062              		.loc 8 26 2
 8063 3959 488D8570 		leaq	-1168(%rbp), %rax
 8063      FBFFFF
 8064 3960 4889C7   		movq	%rax, %rdi
 8065              	.LEHB190:
 8066 3963 E8000000 		call	_ZN8UnitTest16SignalTranslatorD1Ev@PLT
 8066      00
 8067              	.LEHE190:
 8068              	.LBE114:
 8069              		.loc 8 42 1
 8070 3968 E90F0200 		jmp	.L394
 8070      00
 8071              	.L409:
 8072 396d F30F1EFA 		endbr64
 8073              	.LBB115:
  26:../ExecuteTest.h **** 	catch (AssertException const& e)
 8074              		.loc 8 26 2
 8075 3971 4989C4   		movq	%rax, %r12
 8076 3974 4889D3   		movq	%rdx, %rbx
 8077 3977 488D8570 		leaq	-1168(%rbp), %rax
 8077      FBFFFF
 8078 397e 4889C7   		movq	%rax, %rdi
 8079 3981 E8000000 		call	_ZN8UnitTest16SignalTranslatorD1Ev@PLT
 8079      00
 8080 3986 4C89E0   		movq	%r12, %rax
 8081 3989 4889DA   		movq	%rbx, %rdx
 8082 398c EB04     		jmp	.L398
 8083              	.L408:
 8084 398e F30F1EFA 		endbr64
 8085              	.L398:
 8086              	.LBE115:
  27:../ExecuteTest.h **** 	{
 8087              		.loc 8 27 2
 8088 3992 4883FA01 		cmpq	$1, %rdx
 8089 3996 740F     		je	.L399
 8090 3998 4883FA02 		cmpq	$2, %rdx
 8091 399c 0F84A600 		je	.L400
 8091      0000
 8092 39a2 E9480100 		jmp	.L414
 8092      00
 8093              	.L399:
 8094              	.LBB116:
  27:../ExecuteTest.h **** 	{
 8095              		.loc 8 27 2 is_stmt 0 discriminator 1
 8096 39a7 4889C7   		movq	%rax, %rdi
 8097 39aa E8000000 		call	__cxa_begin_catch@PLT
 8097      00
  27:../ExecuteTest.h **** 	{
 8098              		.loc 8 27 32 is_stmt 1 discriminator 1
 8099 39af 488985A8 		movq	%rax, -1624(%rbp)
 8099      F9FFFF
 8100              	.LEHB191:
  29:../ExecuteTest.h **** 			TestDetails(details.testName, details.suiteName, e.Filename(), e.LineNumber()), e.what());
 8101              		.loc 8 29 23 discriminator 1
 8102 39b6 E8000000 		call	_ZN8UnitTest11CurrentTest7ResultsEv@PLT
 8102      00
  29:../ExecuteTest.h **** 			TestDetails(details.testName, details.suiteName, e.Filename(), e.LineNumber()), e.what());
 8103              		.loc 8 29 40 discriminator 2
 8104 39bb 488B18   		movq	(%rax), %rbx
  30:../ExecuteTest.h **** 	}
 8105              		.loc 8 30 90 discriminator 2
 8106 39be 488B85A8 		movq	-1624(%rbp), %rax
 8106      F9FFFF
 8107 39c5 488B00   		movq	(%rax), %rax
 8108 39c8 4883C010 		addq	$16, %rax
 8109 39cc 488B10   		movq	(%rax), %rdx
  29:../ExecuteTest.h **** 			TestDetails(details.testName, details.suiteName, e.Filename(), e.LineNumber()), e.what());
 8110              		.loc 8 29 40 discriminator 2
 8111 39cf 488B85A8 		movq	-1624(%rbp), %rax
 8111      F9FFFF
 8112 39d6 4889C7   		movq	%rax, %rdi
 8113 39d9 FFD2     		call	*%rdx
 8114              	.LVL18:
 8115 39db 4989C4   		movq	%rax, %r12
  30:../ExecuteTest.h **** 	}
 8116              		.loc 8 30 4 discriminator 2
 8117 39de 488B85A8 		movq	-1624(%rbp), %rax
 8117      F9FFFF
 8118 39e5 4889C7   		movq	%rax, %rdi
 8119 39e8 E8000000 		call	_ZNK8UnitTest15AssertException10LineNumberEv@PLT
 8119      00
 8120 39ed 4189C5   		movl	%eax, %r13d
 8121 39f0 488B85A8 		movq	-1624(%rbp), %rax
 8121      F9FFFF
 8122 39f7 4889C7   		movq	%rax, %rdi
 8123 39fa E8000000 		call	_ZNK8UnitTest15AssertException8FilenameEv@PLT
 8123      00
  30:../ExecuteTest.h **** 	}
 8124              		.loc 8 30 4 is_stmt 0 discriminator 1
 8125 39ff 4889C1   		movq	%rax, %rcx
  30:../ExecuteTest.h **** 	}
 8126              		.loc 8 30 42 is_stmt 1 discriminator 1
 8127 3a02 488B8590 		movq	-1648(%rbp), %rax
 8127      F9FFFF
 8128 3a09 488B10   		movq	(%rax), %rdx
  30:../ExecuteTest.h **** 	}
 8129              		.loc 8 30 24 discriminator 1
 8130 3a0c 488B8590 		movq	-1648(%rbp), %rax
 8130      F9FFFF
 8131 3a13 488B7008 		movq	8(%rax), %rsi
  30:../ExecuteTest.h **** 	}
 8132              		.loc 8 30 4 discriminator 1
 8133 3a17 488D85B0 		leaq	-1616(%rbp), %rax
 8133      F9FFFF
 8134 3a1e 4589E8   		movl	%r13d, %r8d
 8135 3a21 4889C7   		movq	%rax, %rdi
 8136 3a24 E8000000 		call	_ZN8UnitTest11TestDetailsC1EPKcS2_S2_i@PLT
 8136      00
  29:../ExecuteTest.h **** 			TestDetails(details.testName, details.suiteName, e.Filename(), e.LineNumber()), e.what());
 8137              		.loc 8 29 40
 8138 3a29 488D85B0 		leaq	-1616(%rbp), %rax
 8138      F9FFFF
 8139 3a30 4C89E2   		movq	%r12, %rdx
 8140 3a33 4889C6   		movq	%rax, %rsi
 8141 3a36 4889DF   		movq	%rbx, %rdi
 8142 3a39 E8000000 		call	_ZN8UnitTest11TestResults13OnTestFailureERKNS_11TestDetailsEPKc@PLT
 8142      00
 8143              	.LEHE191:
  27:../ExecuteTest.h **** 	{
 8144              		.loc 8 27 2
 8145 3a3e E8000000 		call	__cxa_end_catch@PLT
 8145      00
 8146              	.LBE116:
 8147              		.loc 8 42 1
 8148 3a43 E9340100 		jmp	.L394
 8148      00
 8149              	.L400:
 8150              	.LBB117:
  32:../ExecuteTest.h **** 	{
 8151              		.loc 8 32 2
 8152 3a48 4889C7   		movq	%rax, %rdi
 8153 3a4b E8000000 		call	__cxa_begin_catch@PLT
 8153      00
  32:../ExecuteTest.h **** 	{
 8154              		.loc 8 32 31
 8155 3a50 488985A0 		movq	%rax, -1632(%rbp)
 8155      F9FFFF
 8156              	.LBB118:
  34:../ExecuteTest.h **** 		stream << "Unhandled exception: " << e.what();
 8157              		.loc 8 34 19
 8158 3a57 488D85D0 		leaq	-1584(%rbp), %rax
 8158      F9FFFF
 8159 3a5e 4889C7   		movq	%rax, %rdi
 8160              	.LEHB192:
 8161 3a61 E8000000 		call	_ZN8UnitTest15MemoryOutStreamC1Ev
 8161      00
 8162              	.LEHE192:
  35:../ExecuteTest.h **** 		CurrentTest::Results()->OnTestFailure(details, stream.GetText());
 8163              		.loc 8 35 37
 8164 3a66 488D85D0 		leaq	-1584(%rbp), %rax
 8164      F9FFFF
 8165 3a6d 488D1500 		leaq	.LC11(%rip), %rdx
 8165      000000
 8166 3a74 4889D6   		movq	%rdx, %rsi
 8167 3a77 4889C7   		movq	%rax, %rdi
 8168              	.LEHB193:
 8169 3a7a E8000000 		call	_ZStlsISt11char_traitsIcEERSt13basic_ostreamIcT_ES5_PKc@PLT
 8169      00
 8170 3a7f 4889C3   		movq	%rax, %rbx
  35:../ExecuteTest.h **** 		CurrentTest::Results()->OnTestFailure(details, stream.GetText());
 8171              		.loc 8 35 46
 8172 3a82 488B85A0 		movq	-1632(%rbp), %rax
 8172      F9FFFF
 8173 3a89 488B00   		movq	(%rax), %rax
 8174 3a8c 4883C010 		addq	$16, %rax
 8175 3a90 488B10   		movq	(%rax), %rdx
  35:../ExecuteTest.h **** 		CurrentTest::Results()->OnTestFailure(details, stream.GetText());
 8176              		.loc 8 35 37
 8177 3a93 488B85A0 		movq	-1632(%rbp), %rax
 8177      F9FFFF
 8178 3a9a 4889C7   		movq	%rax, %rdi
 8179 3a9d FFD2     		call	*%rdx
 8180              	.LVL19:
 8181 3a9f 4889C6   		movq	%rax, %rsi
 8182 3aa2 4889DF   		movq	%rbx, %rdi
 8183 3aa5 E8000000 		call	_ZStlsISt11char_traitsIcEERSt13basic_ostreamIcT_ES5_PKc@PLT
 8183      00
  36:../ExecuteTest.h **** 	}
 8184              		.loc 8 36 23
 8185 3aaa E8000000 		call	_ZN8UnitTest11CurrentTest7ResultsEv@PLT
 8185      00
  36:../ExecuteTest.h **** 	}
 8186              		.loc 8 36 40
 8187 3aaf 488B18   		movq	(%rax), %rbx
 8188 3ab2 488D85D0 		leaq	-1584(%rbp), %rax
 8188      F9FFFF
 8189 3ab9 4889C7   		movq	%rax, %rdi
 8190 3abc E8000000 		call	_ZNK8UnitTest15MemoryOutStream7GetTextEv@PLT
 8190      00
  36:../ExecuteTest.h **** 	}
 8191              		.loc 8 36 40 is_stmt 0 discriminator 1
 8192 3ac1 4889C2   		movq	%rax, %rdx
 8193 3ac4 488B8590 		movq	-1648(%rbp), %rax
 8193      F9FFFF
 8194 3acb 4889C6   		movq	%rax, %rsi
 8195 3ace 4889DF   		movq	%rbx, %rdi
 8196 3ad1 E8000000 		call	_ZN8UnitTest11TestResults13OnTestFailureERKNS_11TestDetailsEPKc@PLT
 8196      00
 8197              	.LEHE193:
  37:../ExecuteTest.h **** 	catch (...)
 8198              		.loc 8 37 2 is_stmt 1
 8199 3ad6 488D85D0 		leaq	-1584(%rbp), %rax
 8199      F9FFFF
 8200 3add 4889C7   		movq	%rax, %rdi
 8201              	.LEHB194:
 8202 3ae0 E8000000 		call	_ZN8UnitTest15MemoryOutStreamD1Ev
 8202      00
 8203              	.LEHE194:
 8204              	.LBE118:
  32:../ExecuteTest.h **** 	{
 8205              		.loc 8 32 2
 8206 3ae5 E8000000 		call	__cxa_end_catch@PLT
 8206      00
 8207              	.LBE117:
 8208              		.loc 8 42 1
 8209 3aea E98D0000 		jmp	.L394
 8209      00
 8210              	.L414:
  38:../ExecuteTest.h **** 	{
 8211              		.loc 8 38 2
 8212 3aef 4889C7   		movq	%rax, %rdi
 8213 3af2 E8000000 		call	__cxa_begin_catch@PLT
 8213      00
 8214              	.LEHB195:
  40:../ExecuteTest.h **** 	}
 8215              		.loc 8 40 23
 8216 3af7 E8000000 		call	_ZN8UnitTest11CurrentTest7ResultsEv@PLT
 8216      00
  40:../ExecuteTest.h **** 	}
 8217              		.loc 8 40 40
 8218 3afc 488B00   		movq	(%rax), %rax
 8219 3aff 488B8D90 		movq	-1648(%rbp), %rcx
 8219      F9FFFF
 8220 3b06 488D1500 		leaq	.LC76(%rip), %rdx
 8220      000000
 8221 3b0d 4889CE   		movq	%rcx, %rsi
 8222 3b10 4889C7   		movq	%rax, %rdi
 8223 3b13 E8000000 		call	_ZN8UnitTest11TestResults13OnTestFailureERKNS_11TestDetailsEPKc@PLT
 8223      00
 8224              	.LEHE195:
 8225              	.LEHB196:
  38:../ExecuteTest.h **** 	{
 8226              		.loc 8 38 2
 8227 3b18 E8000000 		call	__cxa_end_catch@PLT
 8227      00
 8228              		.loc 8 42 1
 8229 3b1d EB5D     		jmp	.L394
 8230              	.L410:
 8231 3b1f F30F1EFA 		endbr64
 8232              	.LBB120:
  27:../ExecuteTest.h **** 	{
 8233              		.loc 8 27 2
 8234 3b23 4889C3   		movq	%rax, %rbx
 8235 3b26 E8000000 		call	__cxa_end_catch@PLT
 8235      00
 8236 3b2b 4889D8   		movq	%rbx, %rax
 8237 3b2e 4889C7   		movq	%rax, %rdi
 8238 3b31 E8000000 		call	_Unwind_Resume@PLT
 8238      00
 8239              	.LEHE196:
 8240              	.L412:
 8241 3b36 F30F1EFA 		endbr64
 8242              	.LBE120:
 8243              	.LBB121:
 8244              	.LBB119:
  37:../ExecuteTest.h **** 	catch (...)
 8245              		.loc 8 37 2
 8246 3b3a 4889C3   		movq	%rax, %rbx
 8247 3b3d 488D85D0 		leaq	-1584(%rbp), %rax
 8247      F9FFFF
 8248 3b44 4889C7   		movq	%rax, %rdi
 8249 3b47 E8000000 		call	_ZN8UnitTest15MemoryOutStreamD1Ev
 8249      00
 8250 3b4c EB07     		jmp	.L405
 8251              	.L411:
 8252 3b4e F30F1EFA 		endbr64
 8253              	.LBE119:
  32:../ExecuteTest.h **** 	{
 8254              		.loc 8 32 2
 8255 3b52 4889C3   		movq	%rax, %rbx
 8256              	.L405:
 8257 3b55 E8000000 		call	__cxa_end_catch@PLT
 8257      00
 8258 3b5a 4889D8   		movq	%rbx, %rax
 8259 3b5d 4889C7   		movq	%rax, %rdi
 8260              	.LEHB197:
 8261 3b60 E8000000 		call	_Unwind_Resume@PLT
 8261      00
 8262              	.LEHE197:
 8263              	.L413:
 8264 3b65 F30F1EFA 		endbr64
 8265              	.LBE121:
  38:../ExecuteTest.h **** 	{
 8266              		.loc 8 38 2
 8267 3b69 4889C3   		movq	%rax, %rbx
 8268 3b6c E8000000 		call	__cxa_end_catch@PLT
 8268      00
 8269 3b71 4889D8   		movq	%rbx, %rax
 8270 3b74 4889C7   		movq	%rax, %rdi
 8271              	.LEHB198:
 8272 3b77 E8000000 		call	_Unwind_Resume@PLT
 8272      00
 8273              	.LEHE198:
 8274              	.L394:
 8275              		.loc 8 42 1
 8276 3b7c 488B45D8 		movq	-40(%rbp), %rax
 8277 3b80 64482B04 		subq	%fs:40, %rax
 8277      25280000 
 8277      00
 8278 3b89 7405     		je	.L407
 8279 3b8b E8000000 		call	__stack_chk_fail@PLT
 8279      00
 8280              	.L407:
 8281 3b90 4881C458 		addq	$1624, %rsp
 8281      060000
 8282 3b97 5B       		popq	%rbx
 8283 3b98 415C     		popq	%r12
 8284 3b9a 415D     		popq	%r13
 8285 3b9c 5D       		popq	%rbp
 8286              		.cfi_def_cfa 7, 8
 8287 3b9d C3       		ret
 8288              		.cfi_endproc
 8289              	.LFE1318:
 8290              		.section	.gcc_except_table
 8291              		.align 4
 8292              	.LLSDA1318:
 8293 0540 FF       		.byte	0xff
 8294 0541 9B       		.byte	0x9b
 8295 0542 59       		.uleb128 .LLSDATT1318-.LLSDATTD1318
 8296              	.LLSDATTD1318:
 8297 0543 01       		.byte	0x1
 8298 0544 43       		.uleb128 .LLSDACSE1318-.LLSDACSB1318
 8299              	.LLSDACSB1318:
 8300 0545 31       		.uleb128 .LEHB187-.LFB1318
 8301 0546 05       		.uleb128 .LEHE187-.LEHB187
 8302 0547 00       		.uleb128 0
 8303 0548 00       		.uleb128 0
 8304 0549 4A       		.uleb128 .LEHB188-.LFB1318
 8305 054a 05       		.uleb128 .LEHE188-.LEHB188
 8306 054b DF01     		.uleb128 .L408-.LFB1318
 8307 054d 05       		.uleb128 0x5
 8308 054e 9601     		.uleb128 .LEHB189-.LFB1318
 8309 0550 05       		.uleb128 .LEHE189-.LEHB189
 8310 0551 BE01     		.uleb128 .L409-.LFB1318
 8311 0553 07       		.uleb128 0x7
 8312 0554 B401     		.uleb128 .LEHB190-.LFB1318
 8313 0556 05       		.uleb128 .LEHE190-.LEHB190
 8314 0557 DF01     		.uleb128 .L408-.LFB1318
 8315 0559 05       		.uleb128 0x5
 8316 055a 8702     		.uleb128 .LEHB191-.LFB1318
 8317 055c 8801     		.uleb128 .LEHE191-.LEHB191
 8318 055e F004     		.uleb128 .L410-.LFB1318
 8319 0560 00       		.uleb128 0
 8320 0561 B203     		.uleb128 .LEHB192-.LFB1318
 8321 0563 05       		.uleb128 .LEHE192-.LEHB192
 8322 0564 9F05     		.uleb128 .L411-.LFB1318
 8323 0566 00       		.uleb128 0
 8324 0567 CB03     		.uleb128 .LEHB193-.LFB1318
 8325 0569 5C       		.uleb128 .LEHE193-.LEHB193
 8326 056a 8705     		.uleb128 .L412-.LFB1318
 8327 056c 00       		.uleb128 0
 8328 056d B104     		.uleb128 .LEHB194-.LFB1318
 8329 056f 05       		.uleb128 .LEHE194-.LEHB194
 8330 0570 9F05     		.uleb128 .L411-.LFB1318
 8331 0572 00       		.uleb128 0
 8332 0573 C804     		.uleb128 .LEHB195-.LFB1318
 8333 0575 21       		.uleb128 .LEHE195-.LEHB195
 8334 0576 B605     		.uleb128 .L413-.LFB1318
 8335 0578 00       		.uleb128 0
 8336 0579 E904     		.uleb128 .LEHB196-.LFB1318
 8337 057b 1E       		.uleb128 .LEHE196-.LEHB196
 8338 057c 00       		.uleb128 0
 8339 057d 00       		.uleb128 0
 8340 057e B105     		.uleb128 .LEHB197-.LFB1318
 8341 0580 05       		.uleb128 .LEHE197-.LEHB197
 8342 0581 00       		.uleb128 0
 8343 0582 00       		.uleb128 0
 8344 0583 C805     		.uleb128 .LEHB198-.LFB1318
 8345 0585 05       		.uleb128 .LEHE198-.LEHB198
 8346 0586 00       		.uleb128 0
 8347 0587 00       		.uleb128 0
 8348              	.LLSDACSE1318:
 8349 0588 03       		.byte	0x3
 8350 0589 00       		.byte	0
 8351 058a 02       		.byte	0x2
 8352 058b 7D       		.byte	0x7d
 8353 058c 01       		.byte	0x1
 8354 058d 7D       		.byte	0x7d
 8355 058e 00       		.byte	0
 8356 058f 7D       		.byte	0x7d
 8357              		.align 4
 8358 0590 00000000 		.long	0
 8359              	
 8360 0594 00000000 		.long	DW.ref._ZTISt9exception-.
 8361 0598 00000000 		.long	DW.ref._ZTIN8UnitTest15AssertExceptionE-.
 8362              	.LLSDATT1318:
 8363              		.text
 8366              	_ZN8UnitTest11ExecuteTestIN12_GLOBAL__N_134DummyFixtureMacroTestHelper2HelperEEEvRT_RKNS_11TestDeta
 8367              	.LFB1319:
  16:../ExecuteTest.h **** {
 8368              		.loc 8 16 6
 8369              		.cfi_startproc
 8370              		.cfi_personality 0x9b,DW.ref.__gxx_personality_v0
 8371              		.cfi_lsda 0x1b,.LLSDA1319
 8372 3b9e F30F1EFA 		endbr64
 8373 3ba2 55       		pushq	%rbp
 8374              		.cfi_def_cfa_offset 16
 8375              		.cfi_offset 6, -16
 8376 3ba3 4889E5   		movq	%rsp, %rbp
 8377              		.cfi_def_cfa_register 6
 8378 3ba6 4155     		pushq	%r13
 8379 3ba8 4154     		pushq	%r12
 8380 3baa 53       		pushq	%rbx
 8381 3bab 4881EC58 		subq	$1624, %rsp
 8381      060000
 8382              		.cfi_offset 13, -24
 8383              		.cfi_offset 12, -32
 8384              		.cfi_offset 3, -40
 8385 3bb2 4889BD98 		movq	%rdi, -1640(%rbp)
 8385      F9FFFF
 8386 3bb9 4889B590 		movq	%rsi, -1648(%rbp)
 8386      F9FFFF
  16:../ExecuteTest.h **** {
 8387              		.loc 8 16 6
 8388 3bc0 64488B04 		movq	%fs:40, %rax
 8388      25280000 
 8388      00
 8389 3bc9 488945D8 		movq	%rax, -40(%rbp)
 8390 3bcd 31C0     		xorl	%eax, %eax
 8391              	.LEHB199:
  18:../ExecuteTest.h **** 
 8392              		.loc 8 18 22
 8393 3bcf E8000000 		call	_ZN8UnitTest11CurrentTest7DetailsEv@PLT
 8393      00
 8394              	.LEHE199:
  18:../ExecuteTest.h **** 
 8395              		.loc 8 18 25
 8396 3bd4 488B9590 		movq	-1648(%rbp), %rdx
 8396      F9FFFF
 8397 3bdb 488910   		movq	%rdx, (%rax)
 8398              	.LBB122:
  23:../ExecuteTest.h **** #endif
 8399              		.loc 8 23 3
 8400 3bde 488D8570 		leaq	-1168(%rbp), %rax
 8400      FBFFFF
 8401 3be5 4889C7   		movq	%rax, %rdi
 8402              	.LEHB200:
 8403 3be8 E8000000 		call	_ZN8UnitTest16SignalTranslatorC1Ev@PLT
 8403      00
 8404              	.LEHE200:
  23:../ExecuteTest.h **** #endif
 8405              		.loc 8 23 3 is_stmt 0 discriminator 1
 8406 3bed 488B0500 		movq	_ZN8UnitTest16SignalTranslator12s_jumpTargetE(%rip), %rax
 8406      000000
 8407 3bf4 BE010000 		movl	$1, %esi
 8407      00
 8408 3bf9 4889C7   		movq	%rax, %rdi
 8409 3bfc E8000000 		call	__sigsetjmp@PLT
 8409      00
 8410 3c01 F30F1EFA 		endbr64
 8411 3c05 85C0     		testl	%eax, %eax
 8412 3c07 0F95C0   		setne	%al
 8413 3c0a 84C0     		testb	%al, %al
 8414 3c0c 742B     		je	.L417
  23:../ExecuteTest.h **** #endif
 8415              		.loc 8 23 3 discriminator 4
 8416 3c0e BF080000 		movl	$8, %edi
 8416      00
 8417 3c13 E8000000 		call	__cxa_allocate_exception@PLT
 8417      00
 8418 3c18 488D1500 		leaq	.LC75(%rip), %rdx
 8418      000000
 8419 3c1f 488910   		movq	%rdx, (%rax)
 8420 3c22 BA000000 		movl	$0, %edx
 8420      00
 8421 3c27 488D0D00 		leaq	_ZTIPKc(%rip), %rcx
 8421      000000
 8422 3c2e 4889CE   		movq	%rcx, %rsi
 8423 3c31 4889C7   		movq	%rax, %rdi
 8424              	.LEHB201:
 8425 3c34 E8000000 		call	__cxa_throw@PLT
 8425      00
 8426              	.LEHE201:
 8427              	.L417:
  25:../ExecuteTest.h **** 	}
 8428              		.loc 8 25 21 is_stmt 1
 8429 3c39 488B8598 		movq	-1640(%rbp), %rax
 8429      F9FFFF
 8430 3c40 4889C7   		movq	%rax, %rdi
 8431 3c43 E830DCFF 		call	_ZN12_GLOBAL__N_134DummyFixtureMacroTestHelper2Helper7RunImplEv
 8431      FF
  26:../ExecuteTest.h **** 	catch (AssertException const& e)
 8432              		.loc 8 26 2
 8433 3c48 488D8570 		leaq	-1168(%rbp), %rax
 8433      FBFFFF
 8434 3c4f 4889C7   		movq	%rax, %rdi
 8435              	.LEHB202:
 8436 3c52 E8000000 		call	_ZN8UnitTest16SignalTranslatorD1Ev@PLT
 8436      00
 8437              	.LEHE202:
 8438              	.LBE122:
 8439              		.loc 8 42 1
 8440 3c57 E90F0200 		jmp	.L415
 8440      00
 8441              	.L430:
 8442 3c5c F30F1EFA 		endbr64
 8443              	.LBB123:
  26:../ExecuteTest.h **** 	catch (AssertException const& e)
 8444              		.loc 8 26 2
 8445 3c60 4989C4   		movq	%rax, %r12
 8446 3c63 4889D3   		movq	%rdx, %rbx
 8447 3c66 488D8570 		leaq	-1168(%rbp), %rax
 8447      FBFFFF
 8448 3c6d 4889C7   		movq	%rax, %rdi
 8449 3c70 E8000000 		call	_ZN8UnitTest16SignalTranslatorD1Ev@PLT
 8449      00
 8450 3c75 4C89E0   		movq	%r12, %rax
 8451 3c78 4889DA   		movq	%rbx, %rdx
 8452 3c7b EB04     		jmp	.L419
 8453              	.L429:
 8454 3c7d F30F1EFA 		endbr64
 8455              	.L419:
 8456              	.LBE123:
  27:../ExecuteTest.h **** 	{
 8457              		.loc 8 27 2
 8458 3c81 4883FA01 		cmpq	$1, %rdx
 8459 3c85 740F     		je	.L420
 8460 3c87 4883FA02 		cmpq	$2, %rdx
 8461 3c8b 0F84A600 		je	.L421
 8461      0000
 8462 3c91 E9480100 		jmp	.L435
 8462      00
 8463              	.L420:
 8464              	.LBB124:
  27:../ExecuteTest.h **** 	{
 8465              		.loc 8 27 2 is_stmt 0 discriminator 1
 8466 3c96 4889C7   		movq	%rax, %rdi
 8467 3c99 E8000000 		call	__cxa_begin_catch@PLT
 8467      00
  27:../ExecuteTest.h **** 	{
 8468              		.loc 8 27 32 is_stmt 1 discriminator 1
 8469 3c9e 488985A8 		movq	%rax, -1624(%rbp)
 8469      F9FFFF
 8470              	.LEHB203:
  29:../ExecuteTest.h **** 			TestDetails(details.testName, details.suiteName, e.Filename(), e.LineNumber()), e.what());
 8471              		.loc 8 29 23 discriminator 1
 8472 3ca5 E8000000 		call	_ZN8UnitTest11CurrentTest7ResultsEv@PLT
 8472      00
  29:../ExecuteTest.h **** 			TestDetails(details.testName, details.suiteName, e.Filename(), e.LineNumber()), e.what());
 8473              		.loc 8 29 40 discriminator 2
 8474 3caa 488B18   		movq	(%rax), %rbx
  30:../ExecuteTest.h **** 	}
 8475              		.loc 8 30 90 discriminator 2
 8476 3cad 488B85A8 		movq	-1624(%rbp), %rax
 8476      F9FFFF
 8477 3cb4 488B00   		movq	(%rax), %rax
 8478 3cb7 4883C010 		addq	$16, %rax
 8479 3cbb 488B10   		movq	(%rax), %rdx
  29:../ExecuteTest.h **** 			TestDetails(details.testName, details.suiteName, e.Filename(), e.LineNumber()), e.what());
 8480              		.loc 8 29 40 discriminator 2
 8481 3cbe 488B85A8 		movq	-1624(%rbp), %rax
 8481      F9FFFF
 8482 3cc5 4889C7   		movq	%rax, %rdi
 8483 3cc8 FFD2     		call	*%rdx
 8484              	.LVL20:
 8485 3cca 4989C4   		movq	%rax, %r12
  30:../ExecuteTest.h **** 	}
 8486              		.loc 8 30 4 discriminator 2
 8487 3ccd 488B85A8 		movq	-1624(%rbp), %rax
 8487      F9FFFF
 8488 3cd4 4889C7   		movq	%rax, %rdi
 8489 3cd7 E8000000 		call	_ZNK8UnitTest15AssertException10LineNumberEv@PLT
 8489      00
 8490 3cdc 4189C5   		movl	%eax, %r13d
 8491 3cdf 488B85A8 		movq	-1624(%rbp), %rax
 8491      F9FFFF
 8492 3ce6 4889C7   		movq	%rax, %rdi
 8493 3ce9 E8000000 		call	_ZNK8UnitTest15AssertException8FilenameEv@PLT
 8493      00
  30:../ExecuteTest.h **** 	}
 8494              		.loc 8 30 4 is_stmt 0 discriminator 1
 8495 3cee 4889C1   		movq	%rax, %rcx
  30:../ExecuteTest.h **** 	}
 8496              		.loc 8 30 42 is_stmt 1 discriminator 1
 8497 3cf1 488B8590 		movq	-1648(%rbp), %rax
 8497      F9FFFF
 8498 3cf8 488B10   		movq	(%rax), %rdx
  30:../ExecuteTest.h **** 	}
 8499              		.loc 8 30 24 discriminator 1
 8500 3cfb 488B8590 		movq	-1648(%rbp), %rax
 8500      F9FFFF
 8501 3d02 488B7008 		movq	8(%rax), %rsi
  30:../ExecuteTest.h **** 	}
 8502              		.loc 8 30 4 discriminator 1
 8503 3d06 488D85B0 		leaq	-1616(%rbp), %rax
 8503      F9FFFF
 8504 3d0d 4589E8   		movl	%r13d, %r8d
 8505 3d10 4889C7   		movq	%rax, %rdi
 8506 3d13 E8000000 		call	_ZN8UnitTest11TestDetailsC1EPKcS2_S2_i@PLT
 8506      00
  29:../ExecuteTest.h **** 			TestDetails(details.testName, details.suiteName, e.Filename(), e.LineNumber()), e.what());
 8507              		.loc 8 29 40
 8508 3d18 488D85B0 		leaq	-1616(%rbp), %rax
 8508      F9FFFF
 8509 3d1f 4C89E2   		movq	%r12, %rdx
 8510 3d22 4889C6   		movq	%rax, %rsi
 8511 3d25 4889DF   		movq	%rbx, %rdi
 8512 3d28 E8000000 		call	_ZN8UnitTest11TestResults13OnTestFailureERKNS_11TestDetailsEPKc@PLT
 8512      00
 8513              	.LEHE203:
  27:../ExecuteTest.h **** 	{
 8514              		.loc 8 27 2
 8515 3d2d E8000000 		call	__cxa_end_catch@PLT
 8515      00
 8516              	.LBE124:
 8517              		.loc 8 42 1
 8518 3d32 E9340100 		jmp	.L415
 8518      00
 8519              	.L421:
 8520              	.LBB125:
  32:../ExecuteTest.h **** 	{
 8521              		.loc 8 32 2
 8522 3d37 4889C7   		movq	%rax, %rdi
 8523 3d3a E8000000 		call	__cxa_begin_catch@PLT
 8523      00
  32:../ExecuteTest.h **** 	{
 8524              		.loc 8 32 31
 8525 3d3f 488985A0 		movq	%rax, -1632(%rbp)
 8525      F9FFFF
 8526              	.LBB126:
  34:../ExecuteTest.h **** 		stream << "Unhandled exception: " << e.what();
 8527              		.loc 8 34 19
 8528 3d46 488D85D0 		leaq	-1584(%rbp), %rax
 8528      F9FFFF
 8529 3d4d 4889C7   		movq	%rax, %rdi
 8530              	.LEHB204:
 8531 3d50 E8000000 		call	_ZN8UnitTest15MemoryOutStreamC1Ev
 8531      00
 8532              	.LEHE204:
  35:../ExecuteTest.h **** 		CurrentTest::Results()->OnTestFailure(details, stream.GetText());
 8533              		.loc 8 35 37
 8534 3d55 488D85D0 		leaq	-1584(%rbp), %rax
 8534      F9FFFF
 8535 3d5c 488D1500 		leaq	.LC11(%rip), %rdx
 8535      000000
 8536 3d63 4889D6   		movq	%rdx, %rsi
 8537 3d66 4889C7   		movq	%rax, %rdi
 8538              	.LEHB205:
 8539 3d69 E8000000 		call	_ZStlsISt11char_traitsIcEERSt13basic_ostreamIcT_ES5_PKc@PLT
 8539      00
 8540 3d6e 4889C3   		movq	%rax, %rbx
  35:../ExecuteTest.h **** 		CurrentTest::Results()->OnTestFailure(details, stream.GetText());
 8541              		.loc 8 35 46
 8542 3d71 488B85A0 		movq	-1632(%rbp), %rax
 8542      F9FFFF
 8543 3d78 488B00   		movq	(%rax), %rax
 8544 3d7b 4883C010 		addq	$16, %rax
 8545 3d7f 488B10   		movq	(%rax), %rdx
  35:../ExecuteTest.h **** 		CurrentTest::Results()->OnTestFailure(details, stream.GetText());
 8546              		.loc 8 35 37
 8547 3d82 488B85A0 		movq	-1632(%rbp), %rax
 8547      F9FFFF
 8548 3d89 4889C7   		movq	%rax, %rdi
 8549 3d8c FFD2     		call	*%rdx
 8550              	.LVL21:
 8551 3d8e 4889C6   		movq	%rax, %rsi
 8552 3d91 4889DF   		movq	%rbx, %rdi
 8553 3d94 E8000000 		call	_ZStlsISt11char_traitsIcEERSt13basic_ostreamIcT_ES5_PKc@PLT
 8553      00
  36:../ExecuteTest.h **** 	}
 8554              		.loc 8 36 23
 8555 3d99 E8000000 		call	_ZN8UnitTest11CurrentTest7ResultsEv@PLT
 8555      00
  36:../ExecuteTest.h **** 	}
 8556              		.loc 8 36 40
 8557 3d9e 488B18   		movq	(%rax), %rbx
 8558 3da1 488D85D0 		leaq	-1584(%rbp), %rax
 8558      F9FFFF
 8559 3da8 4889C7   		movq	%rax, %rdi
 8560 3dab E8000000 		call	_ZNK8UnitTest15MemoryOutStream7GetTextEv@PLT
 8560      00
  36:../ExecuteTest.h **** 	}
 8561              		.loc 8 36 40 is_stmt 0 discriminator 1
 8562 3db0 4889C2   		movq	%rax, %rdx
 8563 3db3 488B8590 		movq	-1648(%rbp), %rax
 8563      F9FFFF
 8564 3dba 4889C6   		movq	%rax, %rsi
 8565 3dbd 4889DF   		movq	%rbx, %rdi
 8566 3dc0 E8000000 		call	_ZN8UnitTest11TestResults13OnTestFailureERKNS_11TestDetailsEPKc@PLT
 8566      00
 8567              	.LEHE205:
  37:../ExecuteTest.h **** 	catch (...)
 8568              		.loc 8 37 2 is_stmt 1
 8569 3dc5 488D85D0 		leaq	-1584(%rbp), %rax
 8569      F9FFFF
 8570 3dcc 4889C7   		movq	%rax, %rdi
 8571              	.LEHB206:
 8572 3dcf E8000000 		call	_ZN8UnitTest15MemoryOutStreamD1Ev
 8572      00
 8573              	.LEHE206:
 8574              	.LBE126:
  32:../ExecuteTest.h **** 	{
 8575              		.loc 8 32 2
 8576 3dd4 E8000000 		call	__cxa_end_catch@PLT
 8576      00
 8577              	.LBE125:
 8578              		.loc 8 42 1
 8579 3dd9 E98D0000 		jmp	.L415
 8579      00
 8580              	.L435:
  38:../ExecuteTest.h **** 	{
 8581              		.loc 8 38 2
 8582 3dde 4889C7   		movq	%rax, %rdi
 8583 3de1 E8000000 		call	__cxa_begin_catch@PLT
 8583      00
 8584              	.LEHB207:
  40:../ExecuteTest.h **** 	}
 8585              		.loc 8 40 23
 8586 3de6 E8000000 		call	_ZN8UnitTest11CurrentTest7ResultsEv@PLT
 8586      00
  40:../ExecuteTest.h **** 	}
 8587              		.loc 8 40 40
 8588 3deb 488B00   		movq	(%rax), %rax
 8589 3dee 488B8D90 		movq	-1648(%rbp), %rcx
 8589      F9FFFF
 8590 3df5 488D1500 		leaq	.LC76(%rip), %rdx
 8590      000000
 8591 3dfc 4889CE   		movq	%rcx, %rsi
 8592 3dff 4889C7   		movq	%rax, %rdi
 8593 3e02 E8000000 		call	_ZN8UnitTest11TestResults13OnTestFailureERKNS_11TestDetailsEPKc@PLT
 8593      00
 8594              	.LEHE207:
 8595              	.LEHB208:
  38:../ExecuteTest.h **** 	{
 8596              		.loc 8 38 2
 8597 3e07 E8000000 		call	__cxa_end_catch@PLT
 8597      00
 8598              		.loc 8 42 1
 8599 3e0c EB5D     		jmp	.L415
 8600              	.L431:
 8601 3e0e F30F1EFA 		endbr64
 8602              	.LBB128:
  27:../ExecuteTest.h **** 	{
 8603              		.loc 8 27 2
 8604 3e12 4889C3   		movq	%rax, %rbx
 8605 3e15 E8000000 		call	__cxa_end_catch@PLT
 8605      00
 8606 3e1a 4889D8   		movq	%rbx, %rax
 8607 3e1d 4889C7   		movq	%rax, %rdi
 8608 3e20 E8000000 		call	_Unwind_Resume@PLT
 8608      00
 8609              	.LEHE208:
 8610              	.L433:
 8611 3e25 F30F1EFA 		endbr64
 8612              	.LBE128:
 8613              	.LBB129:
 8614              	.LBB127:
  37:../ExecuteTest.h **** 	catch (...)
 8615              		.loc 8 37 2
 8616 3e29 4889C3   		movq	%rax, %rbx
 8617 3e2c 488D85D0 		leaq	-1584(%rbp), %rax
 8617      F9FFFF
 8618 3e33 4889C7   		movq	%rax, %rdi
 8619 3e36 E8000000 		call	_ZN8UnitTest15MemoryOutStreamD1Ev
 8619      00
 8620 3e3b EB07     		jmp	.L426
 8621              	.L432:
 8622 3e3d F30F1EFA 		endbr64
 8623              	.LBE127:
  32:../ExecuteTest.h **** 	{
 8624              		.loc 8 32 2
 8625 3e41 4889C3   		movq	%rax, %rbx
 8626              	.L426:
 8627 3e44 E8000000 		call	__cxa_end_catch@PLT
 8627      00
 8628 3e49 4889D8   		movq	%rbx, %rax
 8629 3e4c 4889C7   		movq	%rax, %rdi
 8630              	.LEHB209:
 8631 3e4f E8000000 		call	_Unwind_Resume@PLT
 8631      00
 8632              	.LEHE209:
 8633              	.L434:
 8634 3e54 F30F1EFA 		endbr64
 8635              	.LBE129:
  38:../ExecuteTest.h **** 	{
 8636              		.loc 8 38 2
 8637 3e58 4889C3   		movq	%rax, %rbx
 8638 3e5b E8000000 		call	__cxa_end_catch@PLT
 8638      00
 8639 3e60 4889D8   		movq	%rbx, %rax
 8640 3e63 4889C7   		movq	%rax, %rdi
 8641              	.LEHB210:
 8642 3e66 E8000000 		call	_Unwind_Resume@PLT
 8642      00
 8643              	.LEHE210:
 8644              	.L415:
 8645              		.loc 8 42 1
 8646 3e6b 488B45D8 		movq	-40(%rbp), %rax
 8647 3e6f 64482B04 		subq	%fs:40, %rax
 8647      25280000 
 8647      00
 8648 3e78 7405     		je	.L428
 8649 3e7a E8000000 		call	__stack_chk_fail@PLT
 8649      00
 8650              	.L428:
 8651 3e7f 4881C458 		addq	$1624, %rsp
 8651      060000
 8652 3e86 5B       		popq	%rbx
 8653 3e87 415C     		popq	%r12
 8654 3e89 415D     		popq	%r13
 8655 3e8b 5D       		popq	%rbp
 8656              		.cfi_def_cfa 7, 8
 8657 3e8c C3       		ret
 8658              		.cfi_endproc
 8659              	.LFE1319:
 8660              		.section	.gcc_except_table
 8661              		.align 4
 8662              	.LLSDA1319:
 8663 059c FF       		.byte	0xff
 8664 059d 9B       		.byte	0x9b
 8665 059e 59       		.uleb128 .LLSDATT1319-.LLSDATTD1319
 8666              	.LLSDATTD1319:
 8667 059f 01       		.byte	0x1
 8668 05a0 43       		.uleb128 .LLSDACSE1319-.LLSDACSB1319
 8669              	.LLSDACSB1319:
 8670 05a1 31       		.uleb128 .LEHB199-.LFB1319
 8671 05a2 05       		.uleb128 .LEHE199-.LEHB199
 8672 05a3 00       		.uleb128 0
 8673 05a4 00       		.uleb128 0
 8674 05a5 4A       		.uleb128 .LEHB200-.LFB1319
 8675 05a6 05       		.uleb128 .LEHE200-.LEHB200
 8676 05a7 DF01     		.uleb128 .L429-.LFB1319
 8677 05a9 05       		.uleb128 0x5
 8678 05aa 9601     		.uleb128 .LEHB201-.LFB1319
 8679 05ac 05       		.uleb128 .LEHE201-.LEHB201
 8680 05ad BE01     		.uleb128 .L430-.LFB1319
 8681 05af 07       		.uleb128 0x7
 8682 05b0 B401     		.uleb128 .LEHB202-.LFB1319
 8683 05b2 05       		.uleb128 .LEHE202-.LEHB202
 8684 05b3 DF01     		.uleb128 .L429-.LFB1319
 8685 05b5 05       		.uleb128 0x5
 8686 05b6 8702     		.uleb128 .LEHB203-.LFB1319
 8687 05b8 8801     		.uleb128 .LEHE203-.LEHB203
 8688 05ba F004     		.uleb128 .L431-.LFB1319
 8689 05bc 00       		.uleb128 0
 8690 05bd B203     		.uleb128 .LEHB204-.LFB1319
 8691 05bf 05       		.uleb128 .LEHE204-.LEHB204
 8692 05c0 9F05     		.uleb128 .L432-.LFB1319
 8693 05c2 00       		.uleb128 0
 8694 05c3 CB03     		.uleb128 .LEHB205-.LFB1319
 8695 05c5 5C       		.uleb128 .LEHE205-.LEHB205
 8696 05c6 8705     		.uleb128 .L433-.LFB1319
 8697 05c8 00       		.uleb128 0
 8698 05c9 B104     		.uleb128 .LEHB206-.LFB1319
 8699 05cb 05       		.uleb128 .LEHE206-.LEHB206
 8700 05cc 9F05     		.uleb128 .L432-.LFB1319
 8701 05ce 00       		.uleb128 0
 8702 05cf C804     		.uleb128 .LEHB207-.LFB1319
 8703 05d1 21       		.uleb128 .LEHE207-.LEHB207
 8704 05d2 B605     		.uleb128 .L434-.LFB1319
 8705 05d4 00       		.uleb128 0
 8706 05d5 E904     		.uleb128 .LEHB208-.LFB1319
 8707 05d7 1E       		.uleb128 .LEHE208-.LEHB208
 8708 05d8 00       		.uleb128 0
 8709 05d9 00       		.uleb128 0
 8710 05da B105     		.uleb128 .LEHB209-.LFB1319
 8711 05dc 05       		.uleb128 .LEHE209-.LEHB209
 8712 05dd 00       		.uleb128 0
 8713 05de 00       		.uleb128 0
 8714 05df C805     		.uleb128 .LEHB210-.LFB1319
 8715 05e1 05       		.uleb128 .LEHE210-.LEHB210
 8716 05e2 00       		.uleb128 0
 8717 05e3 00       		.uleb128 0
 8718              	.LLSDACSE1319:
 8719 05e4 03       		.byte	0x3
 8720 05e5 00       		.byte	0
 8721 05e6 02       		.byte	0x2
 8722 05e7 7D       		.byte	0x7d
 8723 05e8 01       		.byte	0x1
 8724 05e9 7D       		.byte	0x7d
 8725 05ea 00       		.byte	0
 8726 05eb 7D       		.byte	0x7d
 8727              		.align 4
 8728 05ec 00000000 		.long	0
 8729              	
 8730 05f0 00000000 		.long	DW.ref._ZTISt9exception-.
 8731 05f4 00000000 		.long	DW.ref._ZTIN8UnitTest15AssertExceptionE-.
 8732              	.LLSDATT1319:
 8733              		.text
 8736              	_ZN8UnitTest11ExecuteTestIN12_GLOBAL__N_148FixtureCtorThrowsFixtureCtorThrowsTestNameHelperEEEvRT_R
 8737              	.LFB1320:
  16:../ExecuteTest.h **** {
 8738              		.loc 8 16 6
 8739              		.cfi_startproc
 8740              		.cfi_personality 0x9b,DW.ref.__gxx_personality_v0
 8741              		.cfi_lsda 0x1b,.LLSDA1320
 8742 3e8d F30F1EFA 		endbr64
 8743 3e91 55       		pushq	%rbp
 8744              		.cfi_def_cfa_offset 16
 8745              		.cfi_offset 6, -16
 8746 3e92 4889E5   		movq	%rsp, %rbp
 8747              		.cfi_def_cfa_register 6
 8748 3e95 4155     		pushq	%r13
 8749 3e97 4154     		pushq	%r12
 8750 3e99 53       		pushq	%rbx
 8751 3e9a 4881EC58 		subq	$1624, %rsp
 8751      060000
 8752              		.cfi_offset 13, -24
 8753              		.cfi_offset 12, -32
 8754              		.cfi_offset 3, -40
 8755 3ea1 4889BD98 		movq	%rdi, -1640(%rbp)
 8755      F9FFFF
 8756 3ea8 4889B590 		movq	%rsi, -1648(%rbp)
 8756      F9FFFF
  16:../ExecuteTest.h **** {
 8757              		.loc 8 16 6
 8758 3eaf 64488B04 		movq	%fs:40, %rax
 8758      25280000 
 8758      00
 8759 3eb8 488945D8 		movq	%rax, -40(%rbp)
 8760 3ebc 31C0     		xorl	%eax, %eax
 8761              	.LEHB211:
  18:../ExecuteTest.h **** 
 8762              		.loc 8 18 22
 8763 3ebe E8000000 		call	_ZN8UnitTest11CurrentTest7DetailsEv@PLT
 8763      00
 8764              	.LEHE211:
  18:../ExecuteTest.h **** 
 8765              		.loc 8 18 25
 8766 3ec3 488B9590 		movq	-1648(%rbp), %rdx
 8766      F9FFFF
 8767 3eca 488910   		movq	%rdx, (%rax)
 8768              	.LBB130:
  23:../ExecuteTest.h **** #endif
 8769              		.loc 8 23 3
 8770 3ecd 488D8570 		leaq	-1168(%rbp), %rax
 8770      FBFFFF
 8771 3ed4 4889C7   		movq	%rax, %rdi
 8772              	.LEHB212:
 8773 3ed7 E8000000 		call	_ZN8UnitTest16SignalTranslatorC1Ev@PLT
 8773      00
 8774              	.LEHE212:
  23:../ExecuteTest.h **** #endif
 8775              		.loc 8 23 3 is_stmt 0 discriminator 1
 8776 3edc 488B0500 		movq	_ZN8UnitTest16SignalTranslator12s_jumpTargetE(%rip), %rax
 8776      000000
 8777 3ee3 BE010000 		movl	$1, %esi
 8777      00
 8778 3ee8 4889C7   		movq	%rax, %rdi
 8779 3eeb E8000000 		call	__sigsetjmp@PLT
 8779      00
 8780 3ef0 F30F1EFA 		endbr64
 8781 3ef4 85C0     		testl	%eax, %eax
 8782 3ef6 0F95C0   		setne	%al
 8783 3ef9 84C0     		testb	%al, %al
 8784 3efb 742B     		je	.L438
  23:../ExecuteTest.h **** #endif
 8785              		.loc 8 23 3 discriminator 4
 8786 3efd BF080000 		movl	$8, %edi
 8786      00
 8787 3f02 E8000000 		call	__cxa_allocate_exception@PLT
 8787      00
 8788 3f07 488D1500 		leaq	.LC75(%rip), %rdx
 8788      000000
 8789 3f0e 488910   		movq	%rdx, (%rax)
 8790 3f11 BA000000 		movl	$0, %edx
 8790      00
 8791 3f16 488D0D00 		leaq	_ZTIPKc(%rip), %rcx
 8791      000000
 8792 3f1d 4889CE   		movq	%rcx, %rsi
 8793 3f20 4889C7   		movq	%rax, %rdi
 8794              	.LEHB213:
 8795 3f23 E8000000 		call	__cxa_throw@PLT
 8795      00
 8796              	.LEHE213:
 8797              	.L438:
  25:../ExecuteTest.h **** 	}
 8798              		.loc 8 25 21 is_stmt 1
 8799 3f28 488B8598 		movq	-1640(%rbp), %rax
 8799      F9FFFF
 8800 3f2f 4889C7   		movq	%rax, %rdi
 8801 3f32 E8C1DFFF 		call	_ZN12_GLOBAL__N_148FixtureCtorThrowsFixtureCtorThrowsTestNameHelper7RunImplEv
 8801      FF
  26:../ExecuteTest.h **** 	catch (AssertException const& e)
 8802              		.loc 8 26 2
 8803 3f37 488D8570 		leaq	-1168(%rbp), %rax
 8803      FBFFFF
 8804 3f3e 4889C7   		movq	%rax, %rdi
 8805              	.LEHB214:
 8806 3f41 E8000000 		call	_ZN8UnitTest16SignalTranslatorD1Ev@PLT
 8806      00
 8807              	.LEHE214:
 8808              	.LBE130:
 8809              		.loc 8 42 1
 8810 3f46 E90F0200 		jmp	.L436
 8810      00
 8811              	.L451:
 8812 3f4b F30F1EFA 		endbr64
 8813              	.LBB131:
  26:../ExecuteTest.h **** 	catch (AssertException const& e)
 8814              		.loc 8 26 2
 8815 3f4f 4989C4   		movq	%rax, %r12
 8816 3f52 4889D3   		movq	%rdx, %rbx
 8817 3f55 488D8570 		leaq	-1168(%rbp), %rax
 8817      FBFFFF
 8818 3f5c 4889C7   		movq	%rax, %rdi
 8819 3f5f E8000000 		call	_ZN8UnitTest16SignalTranslatorD1Ev@PLT
 8819      00
 8820 3f64 4C89E0   		movq	%r12, %rax
 8821 3f67 4889DA   		movq	%rbx, %rdx
 8822 3f6a EB04     		jmp	.L440
 8823              	.L450:
 8824 3f6c F30F1EFA 		endbr64
 8825              	.L440:
 8826              	.LBE131:
  27:../ExecuteTest.h **** 	{
 8827              		.loc 8 27 2
 8828 3f70 4883FA01 		cmpq	$1, %rdx
 8829 3f74 740F     		je	.L441
 8830 3f76 4883FA02 		cmpq	$2, %rdx
 8831 3f7a 0F84A600 		je	.L442
 8831      0000
 8832 3f80 E9480100 		jmp	.L456
 8832      00
 8833              	.L441:
 8834              	.LBB132:
  27:../ExecuteTest.h **** 	{
 8835              		.loc 8 27 2 is_stmt 0 discriminator 1
 8836 3f85 4889C7   		movq	%rax, %rdi
 8837 3f88 E8000000 		call	__cxa_begin_catch@PLT
 8837      00
  27:../ExecuteTest.h **** 	{
 8838              		.loc 8 27 32 is_stmt 1 discriminator 1
 8839 3f8d 488985A8 		movq	%rax, -1624(%rbp)
 8839      F9FFFF
 8840              	.LEHB215:
  29:../ExecuteTest.h **** 			TestDetails(details.testName, details.suiteName, e.Filename(), e.LineNumber()), e.what());
 8841              		.loc 8 29 23 discriminator 1
 8842 3f94 E8000000 		call	_ZN8UnitTest11CurrentTest7ResultsEv@PLT
 8842      00
  29:../ExecuteTest.h **** 			TestDetails(details.testName, details.suiteName, e.Filename(), e.LineNumber()), e.what());
 8843              		.loc 8 29 40 discriminator 2
 8844 3f99 488B18   		movq	(%rax), %rbx
  30:../ExecuteTest.h **** 	}
 8845              		.loc 8 30 90 discriminator 2
 8846 3f9c 488B85A8 		movq	-1624(%rbp), %rax
 8846      F9FFFF
 8847 3fa3 488B00   		movq	(%rax), %rax
 8848 3fa6 4883C010 		addq	$16, %rax
 8849 3faa 488B10   		movq	(%rax), %rdx
  29:../ExecuteTest.h **** 			TestDetails(details.testName, details.suiteName, e.Filename(), e.LineNumber()), e.what());
 8850              		.loc 8 29 40 discriminator 2
 8851 3fad 488B85A8 		movq	-1624(%rbp), %rax
 8851      F9FFFF
 8852 3fb4 4889C7   		movq	%rax, %rdi
 8853 3fb7 FFD2     		call	*%rdx
 8854              	.LVL22:
 8855 3fb9 4989C4   		movq	%rax, %r12
  30:../ExecuteTest.h **** 	}
 8856              		.loc 8 30 4 discriminator 2
 8857 3fbc 488B85A8 		movq	-1624(%rbp), %rax
 8857      F9FFFF
 8858 3fc3 4889C7   		movq	%rax, %rdi
 8859 3fc6 E8000000 		call	_ZNK8UnitTest15AssertException10LineNumberEv@PLT
 8859      00
 8860 3fcb 4189C5   		movl	%eax, %r13d
 8861 3fce 488B85A8 		movq	-1624(%rbp), %rax
 8861      F9FFFF
 8862 3fd5 4889C7   		movq	%rax, %rdi
 8863 3fd8 E8000000 		call	_ZNK8UnitTest15AssertException8FilenameEv@PLT
 8863      00
  30:../ExecuteTest.h **** 	}
 8864              		.loc 8 30 4 is_stmt 0 discriminator 1
 8865 3fdd 4889C1   		movq	%rax, %rcx
  30:../ExecuteTest.h **** 	}
 8866              		.loc 8 30 42 is_stmt 1 discriminator 1
 8867 3fe0 488B8590 		movq	-1648(%rbp), %rax
 8867      F9FFFF
 8868 3fe7 488B10   		movq	(%rax), %rdx
  30:../ExecuteTest.h **** 	}
 8869              		.loc 8 30 24 discriminator 1
 8870 3fea 488B8590 		movq	-1648(%rbp), %rax
 8870      F9FFFF
 8871 3ff1 488B7008 		movq	8(%rax), %rsi
  30:../ExecuteTest.h **** 	}
 8872              		.loc 8 30 4 discriminator 1
 8873 3ff5 488D85B0 		leaq	-1616(%rbp), %rax
 8873      F9FFFF
 8874 3ffc 4589E8   		movl	%r13d, %r8d
 8875 3fff 4889C7   		movq	%rax, %rdi
 8876 4002 E8000000 		call	_ZN8UnitTest11TestDetailsC1EPKcS2_S2_i@PLT
 8876      00
  29:../ExecuteTest.h **** 			TestDetails(details.testName, details.suiteName, e.Filename(), e.LineNumber()), e.what());
 8877              		.loc 8 29 40
 8878 4007 488D85B0 		leaq	-1616(%rbp), %rax
 8878      F9FFFF
 8879 400e 4C89E2   		movq	%r12, %rdx
 8880 4011 4889C6   		movq	%rax, %rsi
 8881 4014 4889DF   		movq	%rbx, %rdi
 8882 4017 E8000000 		call	_ZN8UnitTest11TestResults13OnTestFailureERKNS_11TestDetailsEPKc@PLT
 8882      00
 8883              	.LEHE215:
  27:../ExecuteTest.h **** 	{
 8884              		.loc 8 27 2
 8885 401c E8000000 		call	__cxa_end_catch@PLT
 8885      00
 8886              	.LBE132:
 8887              		.loc 8 42 1
 8888 4021 E9340100 		jmp	.L436
 8888      00
 8889              	.L442:
 8890              	.LBB133:
  32:../ExecuteTest.h **** 	{
 8891              		.loc 8 32 2
 8892 4026 4889C7   		movq	%rax, %rdi
 8893 4029 E8000000 		call	__cxa_begin_catch@PLT
 8893      00
  32:../ExecuteTest.h **** 	{
 8894              		.loc 8 32 31
 8895 402e 488985A0 		movq	%rax, -1632(%rbp)
 8895      F9FFFF
 8896              	.LBB134:
  34:../ExecuteTest.h **** 		stream << "Unhandled exception: " << e.what();
 8897              		.loc 8 34 19
 8898 4035 488D85D0 		leaq	-1584(%rbp), %rax
 8898      F9FFFF
 8899 403c 4889C7   		movq	%rax, %rdi
 8900              	.LEHB216:
 8901 403f E8000000 		call	_ZN8UnitTest15MemoryOutStreamC1Ev
 8901      00
 8902              	.LEHE216:
  35:../ExecuteTest.h **** 		CurrentTest::Results()->OnTestFailure(details, stream.GetText());
 8903              		.loc 8 35 37
 8904 4044 488D85D0 		leaq	-1584(%rbp), %rax
 8904      F9FFFF
 8905 404b 488D1500 		leaq	.LC11(%rip), %rdx
 8905      000000
 8906 4052 4889D6   		movq	%rdx, %rsi
 8907 4055 4889C7   		movq	%rax, %rdi
 8908              	.LEHB217:
 8909 4058 E8000000 		call	_ZStlsISt11char_traitsIcEERSt13basic_ostreamIcT_ES5_PKc@PLT
 8909      00
 8910 405d 4889C3   		movq	%rax, %rbx
  35:../ExecuteTest.h **** 		CurrentTest::Results()->OnTestFailure(details, stream.GetText());
 8911              		.loc 8 35 46
 8912 4060 488B85A0 		movq	-1632(%rbp), %rax
 8912      F9FFFF
 8913 4067 488B00   		movq	(%rax), %rax
 8914 406a 4883C010 		addq	$16, %rax
 8915 406e 488B10   		movq	(%rax), %rdx
  35:../ExecuteTest.h **** 		CurrentTest::Results()->OnTestFailure(details, stream.GetText());
 8916              		.loc 8 35 37
 8917 4071 488B85A0 		movq	-1632(%rbp), %rax
 8917      F9FFFF
 8918 4078 4889C7   		movq	%rax, %rdi
 8919 407b FFD2     		call	*%rdx
 8920              	.LVL23:
 8921 407d 4889C6   		movq	%rax, %rsi
 8922 4080 4889DF   		movq	%rbx, %rdi
 8923 4083 E8000000 		call	_ZStlsISt11char_traitsIcEERSt13basic_ostreamIcT_ES5_PKc@PLT
 8923      00
  36:../ExecuteTest.h **** 	}
 8924              		.loc 8 36 23
 8925 4088 E8000000 		call	_ZN8UnitTest11CurrentTest7ResultsEv@PLT
 8925      00
  36:../ExecuteTest.h **** 	}
 8926              		.loc 8 36 40
 8927 408d 488B18   		movq	(%rax), %rbx
 8928 4090 488D85D0 		leaq	-1584(%rbp), %rax
 8928      F9FFFF
 8929 4097 4889C7   		movq	%rax, %rdi
 8930 409a E8000000 		call	_ZNK8UnitTest15MemoryOutStream7GetTextEv@PLT
 8930      00
  36:../ExecuteTest.h **** 	}
 8931              		.loc 8 36 40 is_stmt 0 discriminator 1
 8932 409f 4889C2   		movq	%rax, %rdx
 8933 40a2 488B8590 		movq	-1648(%rbp), %rax
 8933      F9FFFF
 8934 40a9 4889C6   		movq	%rax, %rsi
 8935 40ac 4889DF   		movq	%rbx, %rdi
 8936 40af E8000000 		call	_ZN8UnitTest11TestResults13OnTestFailureERKNS_11TestDetailsEPKc@PLT
 8936      00
 8937              	.LEHE217:
  37:../ExecuteTest.h **** 	catch (...)
 8938              		.loc 8 37 2 is_stmt 1
 8939 40b4 488D85D0 		leaq	-1584(%rbp), %rax
 8939      F9FFFF
 8940 40bb 4889C7   		movq	%rax, %rdi
 8941              	.LEHB218:
 8942 40be E8000000 		call	_ZN8UnitTest15MemoryOutStreamD1Ev
 8942      00
 8943              	.LEHE218:
 8944              	.LBE134:
  32:../ExecuteTest.h **** 	{
 8945              		.loc 8 32 2
 8946 40c3 E8000000 		call	__cxa_end_catch@PLT
 8946      00
 8947              	.LBE133:
 8948              		.loc 8 42 1
 8949 40c8 E98D0000 		jmp	.L436
 8949      00
 8950              	.L456:
  38:../ExecuteTest.h **** 	{
 8951              		.loc 8 38 2
 8952 40cd 4889C7   		movq	%rax, %rdi
 8953 40d0 E8000000 		call	__cxa_begin_catch@PLT
 8953      00
 8954              	.LEHB219:
  40:../ExecuteTest.h **** 	}
 8955              		.loc 8 40 23
 8956 40d5 E8000000 		call	_ZN8UnitTest11CurrentTest7ResultsEv@PLT
 8956      00
  40:../ExecuteTest.h **** 	}
 8957              		.loc 8 40 40
 8958 40da 488B00   		movq	(%rax), %rax
 8959 40dd 488B8D90 		movq	-1648(%rbp), %rcx
 8959      F9FFFF
 8960 40e4 488D1500 		leaq	.LC76(%rip), %rdx
 8960      000000
 8961 40eb 4889CE   		movq	%rcx, %rsi
 8962 40ee 4889C7   		movq	%rax, %rdi
 8963 40f1 E8000000 		call	_ZN8UnitTest11TestResults13OnTestFailureERKNS_11TestDetailsEPKc@PLT
 8963      00
 8964              	.LEHE219:
 8965              	.LEHB220:
  38:../ExecuteTest.h **** 	{
 8966              		.loc 8 38 2
 8967 40f6 E8000000 		call	__cxa_end_catch@PLT
 8967      00
 8968              		.loc 8 42 1
 8969 40fb EB5D     		jmp	.L436
 8970              	.L452:
 8971 40fd F30F1EFA 		endbr64
 8972              	.LBB136:
  27:../ExecuteTest.h **** 	{
 8973              		.loc 8 27 2
 8974 4101 4889C3   		movq	%rax, %rbx
 8975 4104 E8000000 		call	__cxa_end_catch@PLT
 8975      00
 8976 4109 4889D8   		movq	%rbx, %rax
 8977 410c 4889C7   		movq	%rax, %rdi
 8978 410f E8000000 		call	_Unwind_Resume@PLT
 8978      00
 8979              	.LEHE220:
 8980              	.L454:
 8981 4114 F30F1EFA 		endbr64
 8982              	.LBE136:
 8983              	.LBB137:
 8984              	.LBB135:
  37:../ExecuteTest.h **** 	catch (...)
 8985              		.loc 8 37 2
 8986 4118 4889C3   		movq	%rax, %rbx
 8987 411b 488D85D0 		leaq	-1584(%rbp), %rax
 8987      F9FFFF
 8988 4122 4889C7   		movq	%rax, %rdi
 8989 4125 E8000000 		call	_ZN8UnitTest15MemoryOutStreamD1Ev
 8989      00
 8990 412a EB07     		jmp	.L447
 8991              	.L453:
 8992 412c F30F1EFA 		endbr64
 8993              	.LBE135:
  32:../ExecuteTest.h **** 	{
 8994              		.loc 8 32 2
 8995 4130 4889C3   		movq	%rax, %rbx
 8996              	.L447:
 8997 4133 E8000000 		call	__cxa_end_catch@PLT
 8997      00
 8998 4138 4889D8   		movq	%rbx, %rax
 8999 413b 4889C7   		movq	%rax, %rdi
 9000              	.LEHB221:
 9001 413e E8000000 		call	_Unwind_Resume@PLT
 9001      00
 9002              	.LEHE221:
 9003              	.L455:
 9004 4143 F30F1EFA 		endbr64
 9005              	.LBE137:
  38:../ExecuteTest.h **** 	{
 9006              		.loc 8 38 2
 9007 4147 4889C3   		movq	%rax, %rbx
 9008 414a E8000000 		call	__cxa_end_catch@PLT
 9008      00
 9009 414f 4889D8   		movq	%rbx, %rax
 9010 4152 4889C7   		movq	%rax, %rdi
 9011              	.LEHB222:
 9012 4155 E8000000 		call	_Unwind_Resume@PLT
 9012      00
 9013              	.LEHE222:
 9014              	.L436:
 9015              		.loc 8 42 1
 9016 415a 488B45D8 		movq	-40(%rbp), %rax
 9017 415e 64482B04 		subq	%fs:40, %rax
 9017      25280000 
 9017      00
 9018 4167 7405     		je	.L449
 9019 4169 E8000000 		call	__stack_chk_fail@PLT
 9019      00
 9020              	.L449:
 9021 416e 4881C458 		addq	$1624, %rsp
 9021      060000
 9022 4175 5B       		popq	%rbx
 9023 4176 415C     		popq	%r12
 9024 4178 415D     		popq	%r13
 9025 417a 5D       		popq	%rbp
 9026              		.cfi_def_cfa 7, 8
 9027 417b C3       		ret
 9028              		.cfi_endproc
 9029              	.LFE1320:
 9030              		.section	.gcc_except_table
 9031              		.align 4
 9032              	.LLSDA1320:
 9033 05f8 FF       		.byte	0xff
 9034 05f9 9B       		.byte	0x9b
 9035 05fa 59       		.uleb128 .LLSDATT1320-.LLSDATTD1320
 9036              	.LLSDATTD1320:
 9037 05fb 01       		.byte	0x1
 9038 05fc 43       		.uleb128 .LLSDACSE1320-.LLSDACSB1320
 9039              	.LLSDACSB1320:
 9040 05fd 31       		.uleb128 .LEHB211-.LFB1320
 9041 05fe 05       		.uleb128 .LEHE211-.LEHB211
 9042 05ff 00       		.uleb128 0
 9043 0600 00       		.uleb128 0
 9044 0601 4A       		.uleb128 .LEHB212-.LFB1320
 9045 0602 05       		.uleb128 .LEHE212-.LEHB212
 9046 0603 DF01     		.uleb128 .L450-.LFB1320
 9047 0605 05       		.uleb128 0x5
 9048 0606 9601     		.uleb128 .LEHB213-.LFB1320
 9049 0608 05       		.uleb128 .LEHE213-.LEHB213
 9050 0609 BE01     		.uleb128 .L451-.LFB1320
 9051 060b 07       		.uleb128 0x7
 9052 060c B401     		.uleb128 .LEHB214-.LFB1320
 9053 060e 05       		.uleb128 .LEHE214-.LEHB214
 9054 060f DF01     		.uleb128 .L450-.LFB1320
 9055 0611 05       		.uleb128 0x5
 9056 0612 8702     		.uleb128 .LEHB215-.LFB1320
 9057 0614 8801     		.uleb128 .LEHE215-.LEHB215
 9058 0616 F004     		.uleb128 .L452-.LFB1320
 9059 0618 00       		.uleb128 0
 9060 0619 B203     		.uleb128 .LEHB216-.LFB1320
 9061 061b 05       		.uleb128 .LEHE216-.LEHB216
 9062 061c 9F05     		.uleb128 .L453-.LFB1320
 9063 061e 00       		.uleb128 0
 9064 061f CB03     		.uleb128 .LEHB217-.LFB1320
 9065 0621 5C       		.uleb128 .LEHE217-.LEHB217
 9066 0622 8705     		.uleb128 .L454-.LFB1320
 9067 0624 00       		.uleb128 0
 9068 0625 B104     		.uleb128 .LEHB218-.LFB1320
 9069 0627 05       		.uleb128 .LEHE218-.LEHB218
 9070 0628 9F05     		.uleb128 .L453-.LFB1320
 9071 062a 00       		.uleb128 0
 9072 062b C804     		.uleb128 .LEHB219-.LFB1320
 9073 062d 21       		.uleb128 .LEHE219-.LEHB219
 9074 062e B605     		.uleb128 .L455-.LFB1320
 9075 0630 00       		.uleb128 0
 9076 0631 E904     		.uleb128 .LEHB220-.LFB1320
 9077 0633 1E       		.uleb128 .LEHE220-.LEHB220
 9078 0634 00       		.uleb128 0
 9079 0635 00       		.uleb128 0
 9080 0636 B105     		.uleb128 .LEHB221-.LFB1320
 9081 0638 05       		.uleb128 .LEHE221-.LEHB221
 9082 0639 00       		.uleb128 0
 9083 063a 00       		.uleb128 0
 9084 063b C805     		.uleb128 .LEHB222-.LFB1320
 9085 063d 05       		.uleb128 .LEHE222-.LEHB222
 9086 063e 00       		.uleb128 0
 9087 063f 00       		.uleb128 0
 9088              	.LLSDACSE1320:
 9089 0640 03       		.byte	0x3
 9090 0641 00       		.byte	0
 9091 0642 02       		.byte	0x2
 9092 0643 7D       		.byte	0x7d
 9093 0644 01       		.byte	0x1
 9094 0645 7D       		.byte	0x7d
 9095 0646 00       		.byte	0
 9096 0647 7D       		.byte	0x7d
 9097              		.align 4
 9098 0648 00000000 		.long	0
 9099              	
 9100 064c 00000000 		.long	DW.ref._ZTISt9exception-.
 9101 0650 00000000 		.long	DW.ref._ZTIN8UnitTest15AssertExceptionE-.
 9102              	.LLSDATT1320:
 9103              		.text
 9105              		.section	.rodata
 9106              	.LC77:
 9107 0e6f 45787065 		.string	"Expected "
 9107      63746564 
 9107      2000
 9108              	.LC78:
 9109 0e79 20627574 		.string	" but was "
 9109      20776173 
 9109      2000
 9110              		.section	.text._ZN8UnitTest10CheckEqualIiiEEvRNS_11TestResultsERKT_RKT0_RKNS_11TestDetailsE,"axG",
 9111              		.weak	_ZN8UnitTest10CheckEqualIiiEEvRNS_11TestResultsERKT_RKT0_RKNS_11TestDetailsE
 9113              	_ZN8UnitTest10CheckEqualIiiEEvRNS_11TestResultsERKT_RKT0_RKNS_11TestDetailsE:
 9114              	.LFB1321:
  16:../Checks.h   **** 
  17:../Checks.h   **** 
  18:../Checks.h   **** template< typename Expected, typename Actual >
  19:../Checks.h   **** void CheckEqual(TestResults& results, Expected const& expected, Actual const& actual, TestDetails c
 9115              		.loc 7 19 6
 9116              		.cfi_startproc
 9117              		.cfi_personality 0x9b,DW.ref.__gxx_personality_v0
 9118              		.cfi_lsda 0x1b,.LLSDA1321
 9119 0000 F30F1EFA 		endbr64
 9120 0004 55       		pushq	%rbp
 9121              		.cfi_def_cfa_offset 16
 9122              		.cfi_offset 6, -16
 9123 0005 4889E5   		movq	%rsp, %rbp
 9124              		.cfi_def_cfa_register 6
 9125 0008 53       		pushq	%rbx
 9126 0009 4881ECC8 		subq	$456, %rsp
 9126      010000
 9127              		.cfi_offset 3, -24
 9128 0010 4889BD48 		movq	%rdi, -440(%rbp)
 9128      FEFFFF
 9129 0017 4889B540 		movq	%rsi, -448(%rbp)
 9129      FEFFFF
 9130 001e 48899538 		movq	%rdx, -456(%rbp)
 9130      FEFFFF
 9131 0025 48898D30 		movq	%rcx, -464(%rbp)
 9131      FEFFFF
 9132              		.loc 7 19 6
 9133 002c 64488B04 		movq	%fs:40, %rax
 9133      25280000 
 9133      00
 9134 0035 488945E8 		movq	%rax, -24(%rbp)
 9135 0039 31C0     		xorl	%eax, %eax
 9136              	.LBB138:
  20:../Checks.h   **** {
  21:../Checks.h   ****     if (!(expected == actual))
 9137              		.loc 7 21 20
 9138 003b 488B8540 		movq	-448(%rbp), %rax
 9138      FEFFFF
 9139 0042 8B10     		movl	(%rax), %edx
 9140 0044 488B8538 		movq	-456(%rbp), %rax
 9140      FEFFFF
 9141 004b 8B00     		movl	(%rax), %eax
 9142              		.loc 7 21 5
 9143 004d 39C2     		cmpl	%eax, %edx
 9144 004f 0F84C600 		je	.L462
 9144      0000
 9145              	.LBB139:
  22:../Checks.h   ****     {
  23:../Checks.h   ****         UnitTest::MemoryOutStream stream;
 9146              		.loc 7 23 35
 9147 0055 488D8550 		leaq	-432(%rbp), %rax
 9147      FEFFFF
 9148 005c 4889C7   		movq	%rax, %rdi
 9149              	.LEHB223:
 9150 005f E8000000 		call	_ZN8UnitTest15MemoryOutStreamC1Ev
 9150      00
 9151              	.LEHE223:
  24:../Checks.h   ****         stream << "Expected " << expected << " but was " << actual;
 9152              		.loc 7 24 16
 9153 0064 488D8550 		leaq	-432(%rbp), %rax
 9153      FEFFFF
 9154 006b 488D1500 		leaq	.LC77(%rip), %rdx
 9154      000000
 9155 0072 4889D6   		movq	%rdx, %rsi
 9156 0075 4889C7   		movq	%rax, %rdi
 9157              	.LEHB224:
 9158 0078 E8000000 		call	_ZStlsISt11char_traitsIcEERSt13basic_ostreamIcT_ES5_PKc@PLT
 9158      00
 9159 007d 4889C2   		movq	%rax, %rdx
 9160              		.loc 7 24 43
 9161 0080 488B8540 		movq	-448(%rbp), %rax
 9161      FEFFFF
 9162 0087 8B00     		movl	(%rax), %eax
 9163 0089 89C6     		movl	%eax, %esi
 9164 008b 4889D7   		movq	%rdx, %rdi
 9165 008e E8000000 		call	_ZNSolsEi@PLT
 9165      00
 9166              		.loc 7 24 43 is_stmt 0 discriminator 1
 9167 0093 4889C2   		movq	%rax, %rdx
 9168 0096 488D0500 		leaq	.LC78(%rip), %rax
 9168      000000
 9169 009d 4889C6   		movq	%rax, %rsi
 9170 00a0 4889D7   		movq	%rdx, %rdi
 9171 00a3 E8000000 		call	_ZStlsISt11char_traitsIcEERSt13basic_ostreamIcT_ES5_PKc@PLT
 9171      00
 9172              		.loc 7 24 43 discriminator 2
 9173 00a8 4889C2   		movq	%rax, %rdx
 9174              		.loc 7 24 58 is_stmt 1 discriminator 2
 9175 00ab 488B8538 		movq	-456(%rbp), %rax
 9175      FEFFFF
 9176 00b2 8B00     		movl	(%rax), %eax
 9177 00b4 89C6     		movl	%eax, %esi
 9178 00b6 4889D7   		movq	%rdx, %rdi
 9179 00b9 E8000000 		call	_ZNSolsEi@PLT
 9179      00
  25:../Checks.h   **** 
  26:../Checks.h   ****         results.OnTestFailure(details, stream.GetText());
 9180              		.loc 7 26 30
 9181 00be 488D8550 		leaq	-432(%rbp), %rax
 9181      FEFFFF
 9182 00c5 4889C7   		movq	%rax, %rdi
 9183 00c8 E8000000 		call	_ZNK8UnitTest15MemoryOutStream7GetTextEv@PLT
 9183      00
 9184 00cd 4889C2   		movq	%rax, %rdx
 9185 00d0 488B8D30 		movq	-464(%rbp), %rcx
 9185      FEFFFF
 9186 00d7 488B8548 		movq	-440(%rbp), %rax
 9186      FEFFFF
 9187 00de 4889CE   		movq	%rcx, %rsi
 9188 00e1 4889C7   		movq	%rax, %rdi
 9189 00e4 E8000000 		call	_ZN8UnitTest11TestResults13OnTestFailureERKNS_11TestDetailsEPKc@PLT
 9189      00
 9190              	.LEHE224:
  27:../Checks.h   ****     }
 9191              		.loc 7 27 5
 9192 00e9 488D8550 		leaq	-432(%rbp), %rax
 9192      FEFFFF
 9193 00f0 4889C7   		movq	%rax, %rdi
 9194              	.LEHB225:
 9195 00f3 E8000000 		call	_ZN8UnitTest15MemoryOutStreamD1Ev
 9195      00
 9196              	.LEHE225:
 9197              	.LBE139:
 9198              	.LBE138:
  28:../Checks.h   **** }
 9199              		.loc 7 28 1
 9200 00f8 EB21     		jmp	.L462
 9201              	.L461:
 9202 00fa F30F1EFA 		endbr64
 9203              	.LBB141:
 9204              	.LBB140:
  27:../Checks.h   ****     }
 9205              		.loc 7 27 5
 9206 00fe 4889C3   		movq	%rax, %rbx
 9207 0101 488D8550 		leaq	-432(%rbp), %rax
 9207      FEFFFF
 9208 0108 4889C7   		movq	%rax, %rdi
 9209 010b E8000000 		call	_ZN8UnitTest15MemoryOutStreamD1Ev
 9209      00
 9210 0110 4889D8   		movq	%rbx, %rax
 9211 0113 4889C7   		movq	%rax, %rdi
 9212              	.LEHB226:
 9213 0116 E8000000 		call	_Unwind_Resume@PLT
 9213      00
 9214              	.LEHE226:
 9215              	.L462:
 9216              	.LBE140:
 9217              	.LBE141:
 9218              		.loc 7 28 1
 9219 011b 90       		nop
 9220 011c 488B45E8 		movq	-24(%rbp), %rax
 9221 0120 64482B04 		subq	%fs:40, %rax
 9221      25280000 
 9221      00
 9222 0129 7405     		je	.L460
 9223 012b E8000000 		call	__stack_chk_fail@PLT
 9223      00
 9224              	.L460:
 9225 0130 488B5DF8 		movq	-8(%rbp), %rbx
 9226 0134 C9       		leave
 9227              		.cfi_def_cfa 7, 8
 9228 0135 C3       		ret
 9229              		.cfi_endproc
 9230              	.LFE1321:
 9231              		.section	.gcc_except_table
 9232              	.LLSDA1321:
 9233 0654 FF       		.byte	0xff
 9234 0655 FF       		.byte	0xff
 9235 0656 01       		.byte	0x1
 9236 0657 13       		.uleb128 .LLSDACSE1321-.LLSDACSB1321
 9237              	.LLSDACSB1321:
 9238 0658 5F       		.uleb128 .LEHB223-.LFB1321
 9239 0659 05       		.uleb128 .LEHE223-.LEHB223
 9240 065a 00       		.uleb128 0
 9241 065b 00       		.uleb128 0
 9242 065c 78       		.uleb128 .LEHB224-.LFB1321
 9243 065d 71       		.uleb128 .LEHE224-.LEHB224
 9244 065e FA01     		.uleb128 .L461-.LFB1321
 9245 0660 00       		.uleb128 0
 9246 0661 F301     		.uleb128 .LEHB225-.LFB1321
 9247 0663 05       		.uleb128 .LEHE225-.LEHB225
 9248 0664 00       		.uleb128 0
 9249 0665 00       		.uleb128 0
 9250 0666 9602     		.uleb128 .LEHB226-.LFB1321
 9251 0668 05       		.uleb128 .LEHE226-.LEHB226
 9252 0669 00       		.uleb128 0
 9253 066a 00       		.uleb128 0
 9254              	.LLSDACSE1321:
 9255              		.section	.text._ZN8UnitTest10CheckEqualIiiEEvRNS_11TestResultsERKT_RKT0_RKNS_11TestDetailsE,"axG",
 9257              		.text
 9259              	_ZN8UnitTest11ExecuteTestIN12_GLOBAL__N_148FixtureDtorThrowsFixtureDtorThrowsTestNameHelperEEEvRT_R
 9260              	.LFB1322:
  16:../ExecuteTest.h **** {
 9261              		.loc 8 16 6
 9262              		.cfi_startproc
 9263              		.cfi_personality 0x9b,DW.ref.__gxx_personality_v0
 9264              		.cfi_lsda 0x1b,.LLSDA1322
 9265 417c F30F1EFA 		endbr64
 9266 4180 55       		pushq	%rbp
 9267              		.cfi_def_cfa_offset 16
 9268              		.cfi_offset 6, -16
 9269 4181 4889E5   		movq	%rsp, %rbp
 9270              		.cfi_def_cfa_register 6
 9271 4184 4155     		pushq	%r13
 9272 4186 4154     		pushq	%r12
 9273 4188 53       		pushq	%rbx
 9274 4189 4881EC58 		subq	$1624, %rsp
 9274      060000
 9275              		.cfi_offset 13, -24
 9276              		.cfi_offset 12, -32
 9277              		.cfi_offset 3, -40
 9278 4190 4889BD98 		movq	%rdi, -1640(%rbp)
 9278      F9FFFF
 9279 4197 4889B590 		movq	%rsi, -1648(%rbp)
 9279      F9FFFF
  16:../ExecuteTest.h **** {
 9280              		.loc 8 16 6
 9281 419e 64488B04 		movq	%fs:40, %rax
 9281      25280000 
 9281      00
 9282 41a7 488945D8 		movq	%rax, -40(%rbp)
 9283 41ab 31C0     		xorl	%eax, %eax
 9284              	.LEHB227:
  18:../ExecuteTest.h **** 
 9285              		.loc 8 18 22
 9286 41ad E8000000 		call	_ZN8UnitTest11CurrentTest7DetailsEv@PLT
 9286      00
 9287              	.LEHE227:
  18:../ExecuteTest.h **** 
 9288              		.loc 8 18 25
 9289 41b2 488B9590 		movq	-1648(%rbp), %rdx
 9289      F9FFFF
 9290 41b9 488910   		movq	%rdx, (%rax)
 9291              	.LBB142:
  23:../ExecuteTest.h **** #endif
 9292              		.loc 8 23 3
 9293 41bc 488D8570 		leaq	-1168(%rbp), %rax
 9293      FBFFFF
 9294 41c3 4889C7   		movq	%rax, %rdi
 9295              	.LEHB228:
 9296 41c6 E8000000 		call	_ZN8UnitTest16SignalTranslatorC1Ev@PLT
 9296      00
 9297              	.LEHE228:
  23:../ExecuteTest.h **** #endif
 9298              		.loc 8 23 3 is_stmt 0 discriminator 1
 9299 41cb 488B0500 		movq	_ZN8UnitTest16SignalTranslator12s_jumpTargetE(%rip), %rax
 9299      000000
 9300 41d2 BE010000 		movl	$1, %esi
 9300      00
 9301 41d7 4889C7   		movq	%rax, %rdi
 9302 41da E8000000 		call	__sigsetjmp@PLT
 9302      00
 9303 41df F30F1EFA 		endbr64
 9304 41e3 85C0     		testl	%eax, %eax
 9305 41e5 0F95C0   		setne	%al
 9306 41e8 84C0     		testb	%al, %al
 9307 41ea 742B     		je	.L465
  23:../ExecuteTest.h **** #endif
 9308              		.loc 8 23 3 discriminator 4
 9309 41ec BF080000 		movl	$8, %edi
 9309      00
 9310 41f1 E8000000 		call	__cxa_allocate_exception@PLT
 9310      00
 9311 41f6 488D1500 		leaq	.LC75(%rip), %rdx
 9311      000000
 9312 41fd 488910   		movq	%rdx, (%rax)
 9313 4200 BA000000 		movl	$0, %edx
 9313      00
 9314 4205 488D0D00 		leaq	_ZTIPKc(%rip), %rcx
 9314      000000
 9315 420c 4889CE   		movq	%rcx, %rsi
 9316 420f 4889C7   		movq	%rax, %rdi
 9317              	.LEHB229:
 9318 4212 E8000000 		call	__cxa_throw@PLT
 9318      00
 9319              	.LEHE229:
 9320              	.L465:
  25:../ExecuteTest.h **** 	}
 9321              		.loc 8 25 21 is_stmt 1
 9322 4217 488B8598 		movq	-1640(%rbp), %rax
 9322      F9FFFF
 9323 421e 4889C7   		movq	%rax, %rdi
 9324 4221 E888E4FF 		call	_ZN12_GLOBAL__N_148FixtureDtorThrowsFixtureDtorThrowsTestNameHelper7RunImplEv
 9324      FF
  26:../ExecuteTest.h **** 	catch (AssertException const& e)
 9325              		.loc 8 26 2
 9326 4226 488D8570 		leaq	-1168(%rbp), %rax
 9326      FBFFFF
 9327 422d 4889C7   		movq	%rax, %rdi
 9328              	.LEHB230:
 9329 4230 E8000000 		call	_ZN8UnitTest16SignalTranslatorD1Ev@PLT
 9329      00
 9330              	.LEHE230:
 9331              	.LBE142:
 9332              		.loc 8 42 1
 9333 4235 E90F0200 		jmp	.L463
 9333      00
 9334              	.L478:
 9335 423a F30F1EFA 		endbr64
 9336              	.LBB143:
  26:../ExecuteTest.h **** 	catch (AssertException const& e)
 9337              		.loc 8 26 2
 9338 423e 4989C4   		movq	%rax, %r12
 9339 4241 4889D3   		movq	%rdx, %rbx
 9340 4244 488D8570 		leaq	-1168(%rbp), %rax
 9340      FBFFFF
 9341 424b 4889C7   		movq	%rax, %rdi
 9342 424e E8000000 		call	_ZN8UnitTest16SignalTranslatorD1Ev@PLT
 9342      00
 9343 4253 4C89E0   		movq	%r12, %rax
 9344 4256 4889DA   		movq	%rbx, %rdx
 9345 4259 EB04     		jmp	.L467
 9346              	.L477:
 9347 425b F30F1EFA 		endbr64
 9348              	.L467:
 9349              	.LBE143:
  27:../ExecuteTest.h **** 	{
 9350              		.loc 8 27 2
 9351 425f 4883FA01 		cmpq	$1, %rdx
 9352 4263 740F     		je	.L468
 9353 4265 4883FA02 		cmpq	$2, %rdx
 9354 4269 0F84A600 		je	.L469
 9354      0000
 9355 426f E9480100 		jmp	.L483
 9355      00
 9356              	.L468:
 9357              	.LBB144:
  27:../ExecuteTest.h **** 	{
 9358              		.loc 8 27 2 is_stmt 0 discriminator 1
 9359 4274 4889C7   		movq	%rax, %rdi
 9360 4277 E8000000 		call	__cxa_begin_catch@PLT
 9360      00
  27:../ExecuteTest.h **** 	{
 9361              		.loc 8 27 32 is_stmt 1 discriminator 1
 9362 427c 488985A8 		movq	%rax, -1624(%rbp)
 9362      F9FFFF
 9363              	.LEHB231:
  29:../ExecuteTest.h **** 			TestDetails(details.testName, details.suiteName, e.Filename(), e.LineNumber()), e.what());
 9364              		.loc 8 29 23 discriminator 1
 9365 4283 E8000000 		call	_ZN8UnitTest11CurrentTest7ResultsEv@PLT
 9365      00
  29:../ExecuteTest.h **** 			TestDetails(details.testName, details.suiteName, e.Filename(), e.LineNumber()), e.what());
 9366              		.loc 8 29 40 discriminator 2
 9367 4288 488B18   		movq	(%rax), %rbx
  30:../ExecuteTest.h **** 	}
 9368              		.loc 8 30 90 discriminator 2
 9369 428b 488B85A8 		movq	-1624(%rbp), %rax
 9369      F9FFFF
 9370 4292 488B00   		movq	(%rax), %rax
 9371 4295 4883C010 		addq	$16, %rax
 9372 4299 488B10   		movq	(%rax), %rdx
  29:../ExecuteTest.h **** 			TestDetails(details.testName, details.suiteName, e.Filename(), e.LineNumber()), e.what());
 9373              		.loc 8 29 40 discriminator 2
 9374 429c 488B85A8 		movq	-1624(%rbp), %rax
 9374      F9FFFF
 9375 42a3 4889C7   		movq	%rax, %rdi
 9376 42a6 FFD2     		call	*%rdx
 9377              	.LVL24:
 9378 42a8 4989C4   		movq	%rax, %r12
  30:../ExecuteTest.h **** 	}
 9379              		.loc 8 30 4 discriminator 2
 9380 42ab 488B85A8 		movq	-1624(%rbp), %rax
 9380      F9FFFF
 9381 42b2 4889C7   		movq	%rax, %rdi
 9382 42b5 E8000000 		call	_ZNK8UnitTest15AssertException10LineNumberEv@PLT
 9382      00
 9383 42ba 4189C5   		movl	%eax, %r13d
 9384 42bd 488B85A8 		movq	-1624(%rbp), %rax
 9384      F9FFFF
 9385 42c4 4889C7   		movq	%rax, %rdi
 9386 42c7 E8000000 		call	_ZNK8UnitTest15AssertException8FilenameEv@PLT
 9386      00
  30:../ExecuteTest.h **** 	}
 9387              		.loc 8 30 4 is_stmt 0 discriminator 1
 9388 42cc 4889C1   		movq	%rax, %rcx
  30:../ExecuteTest.h **** 	}
 9389              		.loc 8 30 42 is_stmt 1 discriminator 1
 9390 42cf 488B8590 		movq	-1648(%rbp), %rax
 9390      F9FFFF
 9391 42d6 488B10   		movq	(%rax), %rdx
  30:../ExecuteTest.h **** 	}
 9392              		.loc 8 30 24 discriminator 1
 9393 42d9 488B8590 		movq	-1648(%rbp), %rax
 9393      F9FFFF
 9394 42e0 488B7008 		movq	8(%rax), %rsi
  30:../ExecuteTest.h **** 	}
 9395              		.loc 8 30 4 discriminator 1
 9396 42e4 488D85B0 		leaq	-1616(%rbp), %rax
 9396      F9FFFF
 9397 42eb 4589E8   		movl	%r13d, %r8d
 9398 42ee 4889C7   		movq	%rax, %rdi
 9399 42f1 E8000000 		call	_ZN8UnitTest11TestDetailsC1EPKcS2_S2_i@PLT
 9399      00
  29:../ExecuteTest.h **** 			TestDetails(details.testName, details.suiteName, e.Filename(), e.LineNumber()), e.what());
 9400              		.loc 8 29 40
 9401 42f6 488D85B0 		leaq	-1616(%rbp), %rax
 9401      F9FFFF
 9402 42fd 4C89E2   		movq	%r12, %rdx
 9403 4300 4889C6   		movq	%rax, %rsi
 9404 4303 4889DF   		movq	%rbx, %rdi
 9405 4306 E8000000 		call	_ZN8UnitTest11TestResults13OnTestFailureERKNS_11TestDetailsEPKc@PLT
 9405      00
 9406              	.LEHE231:
  27:../ExecuteTest.h **** 	{
 9407              		.loc 8 27 2
 9408 430b E8000000 		call	__cxa_end_catch@PLT
 9408      00
 9409              	.LBE144:
 9410              		.loc 8 42 1
 9411 4310 E9340100 		jmp	.L463
 9411      00
 9412              	.L469:
 9413              	.LBB145:
  32:../ExecuteTest.h **** 	{
 9414              		.loc 8 32 2
 9415 4315 4889C7   		movq	%rax, %rdi
 9416 4318 E8000000 		call	__cxa_begin_catch@PLT
 9416      00
  32:../ExecuteTest.h **** 	{
 9417              		.loc 8 32 31
 9418 431d 488985A0 		movq	%rax, -1632(%rbp)
 9418      F9FFFF
 9419              	.LBB146:
  34:../ExecuteTest.h **** 		stream << "Unhandled exception: " << e.what();
 9420              		.loc 8 34 19
 9421 4324 488D85D0 		leaq	-1584(%rbp), %rax
 9421      F9FFFF
 9422 432b 4889C7   		movq	%rax, %rdi
 9423              	.LEHB232:
 9424 432e E8000000 		call	_ZN8UnitTest15MemoryOutStreamC1Ev
 9424      00
 9425              	.LEHE232:
  35:../ExecuteTest.h **** 		CurrentTest::Results()->OnTestFailure(details, stream.GetText());
 9426              		.loc 8 35 37
 9427 4333 488D85D0 		leaq	-1584(%rbp), %rax
 9427      F9FFFF
 9428 433a 488D1500 		leaq	.LC11(%rip), %rdx
 9428      000000
 9429 4341 4889D6   		movq	%rdx, %rsi
 9430 4344 4889C7   		movq	%rax, %rdi
 9431              	.LEHB233:
 9432 4347 E8000000 		call	_ZStlsISt11char_traitsIcEERSt13basic_ostreamIcT_ES5_PKc@PLT
 9432      00
 9433 434c 4889C3   		movq	%rax, %rbx
  35:../ExecuteTest.h **** 		CurrentTest::Results()->OnTestFailure(details, stream.GetText());
 9434              		.loc 8 35 46
 9435 434f 488B85A0 		movq	-1632(%rbp), %rax
 9435      F9FFFF
 9436 4356 488B00   		movq	(%rax), %rax
 9437 4359 4883C010 		addq	$16, %rax
 9438 435d 488B10   		movq	(%rax), %rdx
  35:../ExecuteTest.h **** 		CurrentTest::Results()->OnTestFailure(details, stream.GetText());
 9439              		.loc 8 35 37
 9440 4360 488B85A0 		movq	-1632(%rbp), %rax
 9440      F9FFFF
 9441 4367 4889C7   		movq	%rax, %rdi
 9442 436a FFD2     		call	*%rdx
 9443              	.LVL25:
 9444 436c 4889C6   		movq	%rax, %rsi
 9445 436f 4889DF   		movq	%rbx, %rdi
 9446 4372 E8000000 		call	_ZStlsISt11char_traitsIcEERSt13basic_ostreamIcT_ES5_PKc@PLT
 9446      00
  36:../ExecuteTest.h **** 	}
 9447              		.loc 8 36 23
 9448 4377 E8000000 		call	_ZN8UnitTest11CurrentTest7ResultsEv@PLT
 9448      00
  36:../ExecuteTest.h **** 	}
 9449              		.loc 8 36 40
 9450 437c 488B18   		movq	(%rax), %rbx
 9451 437f 488D85D0 		leaq	-1584(%rbp), %rax
 9451      F9FFFF
 9452 4386 4889C7   		movq	%rax, %rdi
 9453 4389 E8000000 		call	_ZNK8UnitTest15MemoryOutStream7GetTextEv@PLT
 9453      00
  36:../ExecuteTest.h **** 	}
 9454              		.loc 8 36 40 is_stmt 0 discriminator 1
 9455 438e 4889C2   		movq	%rax, %rdx
 9456 4391 488B8590 		movq	-1648(%rbp), %rax
 9456      F9FFFF
 9457 4398 4889C6   		movq	%rax, %rsi
 9458 439b 4889DF   		movq	%rbx, %rdi
 9459 439e E8000000 		call	_ZN8UnitTest11TestResults13OnTestFailureERKNS_11TestDetailsEPKc@PLT
 9459      00
 9460              	.LEHE233:
  37:../ExecuteTest.h **** 	catch (...)
 9461              		.loc 8 37 2 is_stmt 1
 9462 43a3 488D85D0 		leaq	-1584(%rbp), %rax
 9462      F9FFFF
 9463 43aa 4889C7   		movq	%rax, %rdi
 9464              	.LEHB234:
 9465 43ad E8000000 		call	_ZN8UnitTest15MemoryOutStreamD1Ev
 9465      00
 9466              	.LEHE234:
 9467              	.LBE146:
  32:../ExecuteTest.h **** 	{
 9468              		.loc 8 32 2
 9469 43b2 E8000000 		call	__cxa_end_catch@PLT
 9469      00
 9470              	.LBE145:
 9471              		.loc 8 42 1
 9472 43b7 E98D0000 		jmp	.L463
 9472      00
 9473              	.L483:
  38:../ExecuteTest.h **** 	{
 9474              		.loc 8 38 2
 9475 43bc 4889C7   		movq	%rax, %rdi
 9476 43bf E8000000 		call	__cxa_begin_catch@PLT
 9476      00
 9477              	.LEHB235:
  40:../ExecuteTest.h **** 	}
 9478              		.loc 8 40 23
 9479 43c4 E8000000 		call	_ZN8UnitTest11CurrentTest7ResultsEv@PLT
 9479      00
  40:../ExecuteTest.h **** 	}
 9480              		.loc 8 40 40
 9481 43c9 488B00   		movq	(%rax), %rax
 9482 43cc 488B8D90 		movq	-1648(%rbp), %rcx
 9482      F9FFFF
 9483 43d3 488D1500 		leaq	.LC76(%rip), %rdx
 9483      000000
 9484 43da 4889CE   		movq	%rcx, %rsi
 9485 43dd 4889C7   		movq	%rax, %rdi
 9486 43e0 E8000000 		call	_ZN8UnitTest11TestResults13OnTestFailureERKNS_11TestDetailsEPKc@PLT
 9486      00
 9487              	.LEHE235:
 9488              	.LEHB236:
  38:../ExecuteTest.h **** 	{
 9489              		.loc 8 38 2
 9490 43e5 E8000000 		call	__cxa_end_catch@PLT
 9490      00
 9491              		.loc 8 42 1
 9492 43ea EB5D     		jmp	.L463
 9493              	.L479:
 9494 43ec F30F1EFA 		endbr64
 9495              	.LBB148:
  27:../ExecuteTest.h **** 	{
 9496              		.loc 8 27 2
 9497 43f0 4889C3   		movq	%rax, %rbx
 9498 43f3 E8000000 		call	__cxa_end_catch@PLT
 9498      00
 9499 43f8 4889D8   		movq	%rbx, %rax
 9500 43fb 4889C7   		movq	%rax, %rdi
 9501 43fe E8000000 		call	_Unwind_Resume@PLT
 9501      00
 9502              	.LEHE236:
 9503              	.L481:
 9504 4403 F30F1EFA 		endbr64
 9505              	.LBE148:
 9506              	.LBB149:
 9507              	.LBB147:
  37:../ExecuteTest.h **** 	catch (...)
 9508              		.loc 8 37 2
 9509 4407 4889C3   		movq	%rax, %rbx
 9510 440a 488D85D0 		leaq	-1584(%rbp), %rax
 9510      F9FFFF
 9511 4411 4889C7   		movq	%rax, %rdi
 9512 4414 E8000000 		call	_ZN8UnitTest15MemoryOutStreamD1Ev
 9512      00
 9513 4419 EB07     		jmp	.L474
 9514              	.L480:
 9515 441b F30F1EFA 		endbr64
 9516              	.LBE147:
  32:../ExecuteTest.h **** 	{
 9517              		.loc 8 32 2
 9518 441f 4889C3   		movq	%rax, %rbx
 9519              	.L474:
 9520 4422 E8000000 		call	__cxa_end_catch@PLT
 9520      00
 9521 4427 4889D8   		movq	%rbx, %rax
 9522 442a 4889C7   		movq	%rax, %rdi
 9523              	.LEHB237:
 9524 442d E8000000 		call	_Unwind_Resume@PLT
 9524      00
 9525              	.LEHE237:
 9526              	.L482:
 9527 4432 F30F1EFA 		endbr64
 9528              	.LBE149:
  38:../ExecuteTest.h **** 	{
 9529              		.loc 8 38 2
 9530 4436 4889C3   		movq	%rax, %rbx
 9531 4439 E8000000 		call	__cxa_end_catch@PLT
 9531      00
 9532 443e 4889D8   		movq	%rbx, %rax
 9533 4441 4889C7   		movq	%rax, %rdi
 9534              	.LEHB238:
 9535 4444 E8000000 		call	_Unwind_Resume@PLT
 9535      00
 9536              	.LEHE238:
 9537              	.L463:
 9538              		.loc 8 42 1
 9539 4449 488B45D8 		movq	-40(%rbp), %rax
 9540 444d 64482B04 		subq	%fs:40, %rax
 9540      25280000 
 9540      00
 9541 4456 7405     		je	.L476
 9542 4458 E8000000 		call	__stack_chk_fail@PLT
 9542      00
 9543              	.L476:
 9544 445d 4881C458 		addq	$1624, %rsp
 9544      060000
 9545 4464 5B       		popq	%rbx
 9546 4465 415C     		popq	%r12
 9547 4467 415D     		popq	%r13
 9548 4469 5D       		popq	%rbp
 9549              		.cfi_def_cfa 7, 8
 9550 446a C3       		ret
 9551              		.cfi_endproc
 9552              	.LFE1322:
 9553              		.section	.gcc_except_table
 9554 066b 00       		.align 4
 9555              	.LLSDA1322:
 9556 066c FF       		.byte	0xff
 9557 066d 9B       		.byte	0x9b
 9558 066e 59       		.uleb128 .LLSDATT1322-.LLSDATTD1322
 9559              	.LLSDATTD1322:
 9560 066f 01       		.byte	0x1
 9561 0670 43       		.uleb128 .LLSDACSE1322-.LLSDACSB1322
 9562              	.LLSDACSB1322:
 9563 0671 31       		.uleb128 .LEHB227-.LFB1322
 9564 0672 05       		.uleb128 .LEHE227-.LEHB227
 9565 0673 00       		.uleb128 0
 9566 0674 00       		.uleb128 0
 9567 0675 4A       		.uleb128 .LEHB228-.LFB1322
 9568 0676 05       		.uleb128 .LEHE228-.LEHB228
 9569 0677 DF01     		.uleb128 .L477-.LFB1322
 9570 0679 05       		.uleb128 0x5
 9571 067a 9601     		.uleb128 .LEHB229-.LFB1322
 9572 067c 05       		.uleb128 .LEHE229-.LEHB229
 9573 067d BE01     		.uleb128 .L478-.LFB1322
 9574 067f 07       		.uleb128 0x7
 9575 0680 B401     		.uleb128 .LEHB230-.LFB1322
 9576 0682 05       		.uleb128 .LEHE230-.LEHB230
 9577 0683 DF01     		.uleb128 .L477-.LFB1322
 9578 0685 05       		.uleb128 0x5
 9579 0686 8702     		.uleb128 .LEHB231-.LFB1322
 9580 0688 8801     		.uleb128 .LEHE231-.LEHB231
 9581 068a F004     		.uleb128 .L479-.LFB1322
 9582 068c 00       		.uleb128 0
 9583 068d B203     		.uleb128 .LEHB232-.LFB1322
 9584 068f 05       		.uleb128 .LEHE232-.LEHB232
 9585 0690 9F05     		.uleb128 .L480-.LFB1322
 9586 0692 00       		.uleb128 0
 9587 0693 CB03     		.uleb128 .LEHB233-.LFB1322
 9588 0695 5C       		.uleb128 .LEHE233-.LEHB233
 9589 0696 8705     		.uleb128 .L481-.LFB1322
 9590 0698 00       		.uleb128 0
 9591 0699 B104     		.uleb128 .LEHB234-.LFB1322
 9592 069b 05       		.uleb128 .LEHE234-.LEHB234
 9593 069c 9F05     		.uleb128 .L480-.LFB1322
 9594 069e 00       		.uleb128 0
 9595 069f C804     		.uleb128 .LEHB235-.LFB1322
 9596 06a1 21       		.uleb128 .LEHE235-.LEHB235
 9597 06a2 B605     		.uleb128 .L482-.LFB1322
 9598 06a4 00       		.uleb128 0
 9599 06a5 E904     		.uleb128 .LEHB236-.LFB1322
 9600 06a7 1E       		.uleb128 .LEHE236-.LEHB236
 9601 06a8 00       		.uleb128 0
 9602 06a9 00       		.uleb128 0
 9603 06aa B105     		.uleb128 .LEHB237-.LFB1322
 9604 06ac 05       		.uleb128 .LEHE237-.LEHB237
 9605 06ad 00       		.uleb128 0
 9606 06ae 00       		.uleb128 0
 9607 06af C805     		.uleb128 .LEHB238-.LFB1322
 9608 06b1 05       		.uleb128 .LEHE238-.LEHB238
 9609 06b2 00       		.uleb128 0
 9610 06b3 00       		.uleb128 0
 9611              	.LLSDACSE1322:
 9612 06b4 03       		.byte	0x3
 9613 06b5 00       		.byte	0
 9614 06b6 02       		.byte	0x2
 9615 06b7 7D       		.byte	0x7d
 9616 06b8 01       		.byte	0x1
 9617 06b9 7D       		.byte	0x7d
 9618 06ba 00       		.byte	0
 9619 06bb 7D       		.byte	0x7d
 9620              		.align 4
 9621 06bc 00000000 		.long	0
 9622              	
 9623 06c0 00000000 		.long	DW.ref._ZTISt9exception-.
 9624 06c4 00000000 		.long	DW.ref._ZTIN8UnitTest15AssertExceptionE-.
 9625              	.LLSDATT1322:
 9626              		.text
 9629              	_ZN8UnitTest11ExecuteTestIN12_GLOBAL__N_159FixtureCtorAssertsCorrectlyReportsAssertFailureInCtorHel
 9630              	.LFB1323:
  16:../ExecuteTest.h **** {
 9631              		.loc 8 16 6
 9632              		.cfi_startproc
 9633              		.cfi_personality 0x9b,DW.ref.__gxx_personality_v0
 9634              		.cfi_lsda 0x1b,.LLSDA1323
 9635 446b F30F1EFA 		endbr64
 9636 446f 55       		pushq	%rbp
 9637              		.cfi_def_cfa_offset 16
 9638              		.cfi_offset 6, -16
 9639 4470 4889E5   		movq	%rsp, %rbp
 9640              		.cfi_def_cfa_register 6
 9641 4473 4155     		pushq	%r13
 9642 4475 4154     		pushq	%r12
 9643 4477 53       		pushq	%rbx
 9644 4478 4881EC58 		subq	$1624, %rsp
 9644      060000
 9645              		.cfi_offset 13, -24
 9646              		.cfi_offset 12, -32
 9647              		.cfi_offset 3, -40
 9648 447f 4889BD98 		movq	%rdi, -1640(%rbp)
 9648      F9FFFF
 9649 4486 4889B590 		movq	%rsi, -1648(%rbp)
 9649      F9FFFF
  16:../ExecuteTest.h **** {
 9650              		.loc 8 16 6
 9651 448d 64488B04 		movq	%fs:40, %rax
 9651      25280000 
 9651      00
 9652 4496 488945D8 		movq	%rax, -40(%rbp)
 9653 449a 31C0     		xorl	%eax, %eax
 9654              	.LEHB239:
  18:../ExecuteTest.h **** 
 9655              		.loc 8 18 22
 9656 449c E8000000 		call	_ZN8UnitTest11CurrentTest7DetailsEv@PLT
 9656      00
 9657              	.LEHE239:
  18:../ExecuteTest.h **** 
 9658              		.loc 8 18 25
 9659 44a1 488B9590 		movq	-1648(%rbp), %rdx
 9659      F9FFFF
 9660 44a8 488910   		movq	%rdx, (%rax)
 9661              	.LBB150:
  23:../ExecuteTest.h **** #endif
 9662              		.loc 8 23 3
 9663 44ab 488D8570 		leaq	-1168(%rbp), %rax
 9663      FBFFFF
 9664 44b2 4889C7   		movq	%rax, %rdi
 9665              	.LEHB240:
 9666 44b5 E8000000 		call	_ZN8UnitTest16SignalTranslatorC1Ev@PLT
 9666      00
 9667              	.LEHE240:
  23:../ExecuteTest.h **** #endif
 9668              		.loc 8 23 3 is_stmt 0 discriminator 1
 9669 44ba 488B0500 		movq	_ZN8UnitTest16SignalTranslator12s_jumpTargetE(%rip), %rax
 9669      000000
 9670 44c1 BE010000 		movl	$1, %esi
 9670      00
 9671 44c6 4889C7   		movq	%rax, %rdi
 9672 44c9 E8000000 		call	__sigsetjmp@PLT
 9672      00
 9673 44ce F30F1EFA 		endbr64
 9674 44d2 85C0     		testl	%eax, %eax
 9675 44d4 0F95C0   		setne	%al
 9676 44d7 84C0     		testb	%al, %al
 9677 44d9 742B     		je	.L486
  23:../ExecuteTest.h **** #endif
 9678              		.loc 8 23 3 discriminator 4
 9679 44db BF080000 		movl	$8, %edi
 9679      00
 9680 44e0 E8000000 		call	__cxa_allocate_exception@PLT
 9680      00
 9681 44e5 488D1500 		leaq	.LC75(%rip), %rdx
 9681      000000
 9682 44ec 488910   		movq	%rdx, (%rax)
 9683 44ef BA000000 		movl	$0, %edx
 9683      00
 9684 44f4 488D0D00 		leaq	_ZTIPKc(%rip), %rcx
 9684      000000
 9685 44fb 4889CE   		movq	%rcx, %rsi
 9686 44fe 4889C7   		movq	%rax, %rdi
 9687              	.LEHB241:
 9688 4501 E8000000 		call	__cxa_throw@PLT
 9688      00
 9689              	.LEHE241:
 9690              	.L486:
  25:../ExecuteTest.h **** 	}
 9691              		.loc 8 25 21 is_stmt 1
 9692 4506 488B8598 		movq	-1640(%rbp), %rax
 9692      F9FFFF
 9693 450d 4889C7   		movq	%rax, %rdi
 9694 4510 E809E9FF 		call	_ZN12_GLOBAL__N_159FixtureCtorAssertsCorrectlyReportsAssertFailureInCtorHelper7RunImplEv
 9694      FF
  26:../ExecuteTest.h **** 	catch (AssertException const& e)
 9695              		.loc 8 26 2
 9696 4515 488D8570 		leaq	-1168(%rbp), %rax
 9696      FBFFFF
 9697 451c 4889C7   		movq	%rax, %rdi
 9698              	.LEHB242:
 9699 451f E8000000 		call	_ZN8UnitTest16SignalTranslatorD1Ev@PLT
 9699      00
 9700              	.LEHE242:
 9701              	.LBE150:
 9702              		.loc 8 42 1
 9703 4524 E90F0200 		jmp	.L484
 9703      00
 9704              	.L499:
 9705 4529 F30F1EFA 		endbr64
 9706              	.LBB151:
  26:../ExecuteTest.h **** 	catch (AssertException const& e)
 9707              		.loc 8 26 2
 9708 452d 4989C4   		movq	%rax, %r12
 9709 4530 4889D3   		movq	%rdx, %rbx
 9710 4533 488D8570 		leaq	-1168(%rbp), %rax
 9710      FBFFFF
 9711 453a 4889C7   		movq	%rax, %rdi
 9712 453d E8000000 		call	_ZN8UnitTest16SignalTranslatorD1Ev@PLT
 9712      00
 9713 4542 4C89E0   		movq	%r12, %rax
 9714 4545 4889DA   		movq	%rbx, %rdx
 9715 4548 EB04     		jmp	.L488
 9716              	.L498:
 9717 454a F30F1EFA 		endbr64
 9718              	.L488:
 9719              	.LBE151:
  27:../ExecuteTest.h **** 	{
 9720              		.loc 8 27 2
 9721 454e 4883FA01 		cmpq	$1, %rdx
 9722 4552 740F     		je	.L489
 9723 4554 4883FA02 		cmpq	$2, %rdx
 9724 4558 0F84A600 		je	.L490
 9724      0000
 9725 455e E9480100 		jmp	.L504
 9725      00
 9726              	.L489:
 9727              	.LBB152:
  27:../ExecuteTest.h **** 	{
 9728              		.loc 8 27 2 is_stmt 0 discriminator 1
 9729 4563 4889C7   		movq	%rax, %rdi
 9730 4566 E8000000 		call	__cxa_begin_catch@PLT
 9730      00
  27:../ExecuteTest.h **** 	{
 9731              		.loc 8 27 32 is_stmt 1 discriminator 1
 9732 456b 488985A8 		movq	%rax, -1624(%rbp)
 9732      F9FFFF
 9733              	.LEHB243:
  29:../ExecuteTest.h **** 			TestDetails(details.testName, details.suiteName, e.Filename(), e.LineNumber()), e.what());
 9734              		.loc 8 29 23 discriminator 1
 9735 4572 E8000000 		call	_ZN8UnitTest11CurrentTest7ResultsEv@PLT
 9735      00
  29:../ExecuteTest.h **** 			TestDetails(details.testName, details.suiteName, e.Filename(), e.LineNumber()), e.what());
 9736              		.loc 8 29 40 discriminator 2
 9737 4577 488B18   		movq	(%rax), %rbx
  30:../ExecuteTest.h **** 	}
 9738              		.loc 8 30 90 discriminator 2
 9739 457a 488B85A8 		movq	-1624(%rbp), %rax
 9739      F9FFFF
 9740 4581 488B00   		movq	(%rax), %rax
 9741 4584 4883C010 		addq	$16, %rax
 9742 4588 488B10   		movq	(%rax), %rdx
  29:../ExecuteTest.h **** 			TestDetails(details.testName, details.suiteName, e.Filename(), e.LineNumber()), e.what());
 9743              		.loc 8 29 40 discriminator 2
 9744 458b 488B85A8 		movq	-1624(%rbp), %rax
 9744      F9FFFF
 9745 4592 4889C7   		movq	%rax, %rdi
 9746 4595 FFD2     		call	*%rdx
 9747              	.LVL26:
 9748 4597 4989C4   		movq	%rax, %r12
  30:../ExecuteTest.h **** 	}
 9749              		.loc 8 30 4 discriminator 2
 9750 459a 488B85A8 		movq	-1624(%rbp), %rax
 9750      F9FFFF
 9751 45a1 4889C7   		movq	%rax, %rdi
 9752 45a4 E8000000 		call	_ZNK8UnitTest15AssertException10LineNumberEv@PLT
 9752      00
 9753 45a9 4189C5   		movl	%eax, %r13d
 9754 45ac 488B85A8 		movq	-1624(%rbp), %rax
 9754      F9FFFF
 9755 45b3 4889C7   		movq	%rax, %rdi
 9756 45b6 E8000000 		call	_ZNK8UnitTest15AssertException8FilenameEv@PLT
 9756      00
  30:../ExecuteTest.h **** 	}
 9757              		.loc 8 30 4 is_stmt 0 discriminator 1
 9758 45bb 4889C1   		movq	%rax, %rcx
  30:../ExecuteTest.h **** 	}
 9759              		.loc 8 30 42 is_stmt 1 discriminator 1
 9760 45be 488B8590 		movq	-1648(%rbp), %rax
 9760      F9FFFF
 9761 45c5 488B10   		movq	(%rax), %rdx
  30:../ExecuteTest.h **** 	}
 9762              		.loc 8 30 24 discriminator 1
 9763 45c8 488B8590 		movq	-1648(%rbp), %rax
 9763      F9FFFF
 9764 45cf 488B7008 		movq	8(%rax), %rsi
  30:../ExecuteTest.h **** 	}
 9765              		.loc 8 30 4 discriminator 1
 9766 45d3 488D85B0 		leaq	-1616(%rbp), %rax
 9766      F9FFFF
 9767 45da 4589E8   		movl	%r13d, %r8d
 9768 45dd 4889C7   		movq	%rax, %rdi
 9769 45e0 E8000000 		call	_ZN8UnitTest11TestDetailsC1EPKcS2_S2_i@PLT
 9769      00
  29:../ExecuteTest.h **** 			TestDetails(details.testName, details.suiteName, e.Filename(), e.LineNumber()), e.what());
 9770              		.loc 8 29 40
 9771 45e5 488D85B0 		leaq	-1616(%rbp), %rax
 9771      F9FFFF
 9772 45ec 4C89E2   		movq	%r12, %rdx
 9773 45ef 4889C6   		movq	%rax, %rsi
 9774 45f2 4889DF   		movq	%rbx, %rdi
 9775 45f5 E8000000 		call	_ZN8UnitTest11TestResults13OnTestFailureERKNS_11TestDetailsEPKc@PLT
 9775      00
 9776              	.LEHE243:
  27:../ExecuteTest.h **** 	{
 9777              		.loc 8 27 2
 9778 45fa E8000000 		call	__cxa_end_catch@PLT
 9778      00
 9779              	.LBE152:
 9780              		.loc 8 42 1
 9781 45ff E9340100 		jmp	.L484
 9781      00
 9782              	.L490:
 9783              	.LBB153:
  32:../ExecuteTest.h **** 	{
 9784              		.loc 8 32 2
 9785 4604 4889C7   		movq	%rax, %rdi
 9786 4607 E8000000 		call	__cxa_begin_catch@PLT
 9786      00
  32:../ExecuteTest.h **** 	{
 9787              		.loc 8 32 31
 9788 460c 488985A0 		movq	%rax, -1632(%rbp)
 9788      F9FFFF
 9789              	.LBB154:
  34:../ExecuteTest.h **** 		stream << "Unhandled exception: " << e.what();
 9790              		.loc 8 34 19
 9791 4613 488D85D0 		leaq	-1584(%rbp), %rax
 9791      F9FFFF
 9792 461a 4889C7   		movq	%rax, %rdi
 9793              	.LEHB244:
 9794 461d E8000000 		call	_ZN8UnitTest15MemoryOutStreamC1Ev
 9794      00
 9795              	.LEHE244:
  35:../ExecuteTest.h **** 		CurrentTest::Results()->OnTestFailure(details, stream.GetText());
 9796              		.loc 8 35 37
 9797 4622 488D85D0 		leaq	-1584(%rbp), %rax
 9797      F9FFFF
 9798 4629 488D1500 		leaq	.LC11(%rip), %rdx
 9798      000000
 9799 4630 4889D6   		movq	%rdx, %rsi
 9800 4633 4889C7   		movq	%rax, %rdi
 9801              	.LEHB245:
 9802 4636 E8000000 		call	_ZStlsISt11char_traitsIcEERSt13basic_ostreamIcT_ES5_PKc@PLT
 9802      00
 9803 463b 4889C3   		movq	%rax, %rbx
  35:../ExecuteTest.h **** 		CurrentTest::Results()->OnTestFailure(details, stream.GetText());
 9804              		.loc 8 35 46
 9805 463e 488B85A0 		movq	-1632(%rbp), %rax
 9805      F9FFFF
 9806 4645 488B00   		movq	(%rax), %rax
 9807 4648 4883C010 		addq	$16, %rax
 9808 464c 488B10   		movq	(%rax), %rdx
  35:../ExecuteTest.h **** 		CurrentTest::Results()->OnTestFailure(details, stream.GetText());
 9809              		.loc 8 35 37
 9810 464f 488B85A0 		movq	-1632(%rbp), %rax
 9810      F9FFFF
 9811 4656 4889C7   		movq	%rax, %rdi
 9812 4659 FFD2     		call	*%rdx
 9813              	.LVL27:
 9814 465b 4889C6   		movq	%rax, %rsi
 9815 465e 4889DF   		movq	%rbx, %rdi
 9816 4661 E8000000 		call	_ZStlsISt11char_traitsIcEERSt13basic_ostreamIcT_ES5_PKc@PLT
 9816      00
  36:../ExecuteTest.h **** 	}
 9817              		.loc 8 36 23
 9818 4666 E8000000 		call	_ZN8UnitTest11CurrentTest7ResultsEv@PLT
 9818      00
  36:../ExecuteTest.h **** 	}
 9819              		.loc 8 36 40
 9820 466b 488B18   		movq	(%rax), %rbx
 9821 466e 488D85D0 		leaq	-1584(%rbp), %rax
 9821      F9FFFF
 9822 4675 4889C7   		movq	%rax, %rdi
 9823 4678 E8000000 		call	_ZNK8UnitTest15MemoryOutStream7GetTextEv@PLT
 9823      00
  36:../ExecuteTest.h **** 	}
 9824              		.loc 8 36 40 is_stmt 0 discriminator 1
 9825 467d 4889C2   		movq	%rax, %rdx
 9826 4680 488B8590 		movq	-1648(%rbp), %rax
 9826      F9FFFF
 9827 4687 4889C6   		movq	%rax, %rsi
 9828 468a 4889DF   		movq	%rbx, %rdi
 9829 468d E8000000 		call	_ZN8UnitTest11TestResults13OnTestFailureERKNS_11TestDetailsEPKc@PLT
 9829      00
 9830              	.LEHE245:
  37:../ExecuteTest.h **** 	catch (...)
 9831              		.loc 8 37 2 is_stmt 1
 9832 4692 488D85D0 		leaq	-1584(%rbp), %rax
 9832      F9FFFF
 9833 4699 4889C7   		movq	%rax, %rdi
 9834              	.LEHB246:
 9835 469c E8000000 		call	_ZN8UnitTest15MemoryOutStreamD1Ev
 9835      00
 9836              	.LEHE246:
 9837              	.LBE154:
  32:../ExecuteTest.h **** 	{
 9838              		.loc 8 32 2
 9839 46a1 E8000000 		call	__cxa_end_catch@PLT
 9839      00
 9840              	.LBE153:
 9841              		.loc 8 42 1
 9842 46a6 E98D0000 		jmp	.L484
 9842      00
 9843              	.L504:
  38:../ExecuteTest.h **** 	{
 9844              		.loc 8 38 2
 9845 46ab 4889C7   		movq	%rax, %rdi
 9846 46ae E8000000 		call	__cxa_begin_catch@PLT
 9846      00
 9847              	.LEHB247:
  40:../ExecuteTest.h **** 	}
 9848              		.loc 8 40 23
 9849 46b3 E8000000 		call	_ZN8UnitTest11CurrentTest7ResultsEv@PLT
 9849      00
  40:../ExecuteTest.h **** 	}
 9850              		.loc 8 40 40
 9851 46b8 488B00   		movq	(%rax), %rax
 9852 46bb 488B8D90 		movq	-1648(%rbp), %rcx
 9852      F9FFFF
 9853 46c2 488D1500 		leaq	.LC76(%rip), %rdx
 9853      000000
 9854 46c9 4889CE   		movq	%rcx, %rsi
 9855 46cc 4889C7   		movq	%rax, %rdi
 9856 46cf E8000000 		call	_ZN8UnitTest11TestResults13OnTestFailureERKNS_11TestDetailsEPKc@PLT
 9856      00
 9857              	.LEHE247:
 9858              	.LEHB248:
  38:../ExecuteTest.h **** 	{
 9859              		.loc 8 38 2
 9860 46d4 E8000000 		call	__cxa_end_catch@PLT
 9860      00
 9861              		.loc 8 42 1
 9862 46d9 EB5D     		jmp	.L484
 9863              	.L500:
 9864 46db F30F1EFA 		endbr64
 9865              	.LBB156:
  27:../ExecuteTest.h **** 	{
 9866              		.loc 8 27 2
 9867 46df 4889C3   		movq	%rax, %rbx
 9868 46e2 E8000000 		call	__cxa_end_catch@PLT
 9868      00
 9869 46e7 4889D8   		movq	%rbx, %rax
 9870 46ea 4889C7   		movq	%rax, %rdi
 9871 46ed E8000000 		call	_Unwind_Resume@PLT
 9871      00
 9872              	.LEHE248:
 9873              	.L502:
 9874 46f2 F30F1EFA 		endbr64
 9875              	.LBE156:
 9876              	.LBB157:
 9877              	.LBB155:
  37:../ExecuteTest.h **** 	catch (...)
 9878              		.loc 8 37 2
 9879 46f6 4889C3   		movq	%rax, %rbx
 9880 46f9 488D85D0 		leaq	-1584(%rbp), %rax
 9880      F9FFFF
 9881 4700 4889C7   		movq	%rax, %rdi
 9882 4703 E8000000 		call	_ZN8UnitTest15MemoryOutStreamD1Ev
 9882      00
 9883 4708 EB07     		jmp	.L495
 9884              	.L501:
 9885 470a F30F1EFA 		endbr64
 9886              	.LBE155:
  32:../ExecuteTest.h **** 	{
 9887              		.loc 8 32 2
 9888 470e 4889C3   		movq	%rax, %rbx
 9889              	.L495:
 9890 4711 E8000000 		call	__cxa_end_catch@PLT
 9890      00
 9891 4716 4889D8   		movq	%rbx, %rax
 9892 4719 4889C7   		movq	%rax, %rdi
 9893              	.LEHB249:
 9894 471c E8000000 		call	_Unwind_Resume@PLT
 9894      00
 9895              	.LEHE249:
 9896              	.L503:
 9897 4721 F30F1EFA 		endbr64
 9898              	.LBE157:
  38:../ExecuteTest.h **** 	{
 9899              		.loc 8 38 2
 9900 4725 4889C3   		movq	%rax, %rbx
 9901 4728 E8000000 		call	__cxa_end_catch@PLT
 9901      00
 9902 472d 4889D8   		movq	%rbx, %rax
 9903 4730 4889C7   		movq	%rax, %rdi
 9904              	.LEHB250:
 9905 4733 E8000000 		call	_Unwind_Resume@PLT
 9905      00
 9906              	.LEHE250:
 9907              	.L484:
 9908              		.loc 8 42 1
 9909 4738 488B45D8 		movq	-40(%rbp), %rax
 9910 473c 64482B04 		subq	%fs:40, %rax
 9910      25280000 
 9910      00
 9911 4745 7405     		je	.L497
 9912 4747 E8000000 		call	__stack_chk_fail@PLT
 9912      00
 9913              	.L497:
 9914 474c 4881C458 		addq	$1624, %rsp
 9914      060000
 9915 4753 5B       		popq	%rbx
 9916 4754 415C     		popq	%r12
 9917 4756 415D     		popq	%r13
 9918 4758 5D       		popq	%rbp
 9919              		.cfi_def_cfa 7, 8
 9920 4759 C3       		ret
 9921              		.cfi_endproc
 9922              	.LFE1323:
 9923              		.section	.gcc_except_table
 9924              		.align 4
 9925              	.LLSDA1323:
 9926 06c8 FF       		.byte	0xff
 9927 06c9 9B       		.byte	0x9b
 9928 06ca 59       		.uleb128 .LLSDATT1323-.LLSDATTD1323
 9929              	.LLSDATTD1323:
 9930 06cb 01       		.byte	0x1
 9931 06cc 43       		.uleb128 .LLSDACSE1323-.LLSDACSB1323
 9932              	.LLSDACSB1323:
 9933 06cd 31       		.uleb128 .LEHB239-.LFB1323
 9934 06ce 05       		.uleb128 .LEHE239-.LEHB239
 9935 06cf 00       		.uleb128 0
 9936 06d0 00       		.uleb128 0
 9937 06d1 4A       		.uleb128 .LEHB240-.LFB1323
 9938 06d2 05       		.uleb128 .LEHE240-.LEHB240
 9939 06d3 DF01     		.uleb128 .L498-.LFB1323
 9940 06d5 05       		.uleb128 0x5
 9941 06d6 9601     		.uleb128 .LEHB241-.LFB1323
 9942 06d8 05       		.uleb128 .LEHE241-.LEHB241
 9943 06d9 BE01     		.uleb128 .L499-.LFB1323
 9944 06db 07       		.uleb128 0x7
 9945 06dc B401     		.uleb128 .LEHB242-.LFB1323
 9946 06de 05       		.uleb128 .LEHE242-.LEHB242
 9947 06df DF01     		.uleb128 .L498-.LFB1323
 9948 06e1 05       		.uleb128 0x5
 9949 06e2 8702     		.uleb128 .LEHB243-.LFB1323
 9950 06e4 8801     		.uleb128 .LEHE243-.LEHB243
 9951 06e6 F004     		.uleb128 .L500-.LFB1323
 9952 06e8 00       		.uleb128 0
 9953 06e9 B203     		.uleb128 .LEHB244-.LFB1323
 9954 06eb 05       		.uleb128 .LEHE244-.LEHB244
 9955 06ec 9F05     		.uleb128 .L501-.LFB1323
 9956 06ee 00       		.uleb128 0
 9957 06ef CB03     		.uleb128 .LEHB245-.LFB1323
 9958 06f1 5C       		.uleb128 .LEHE245-.LEHB245
 9959 06f2 8705     		.uleb128 .L502-.LFB1323
 9960 06f4 00       		.uleb128 0
 9961 06f5 B104     		.uleb128 .LEHB246-.LFB1323
 9962 06f7 05       		.uleb128 .LEHE246-.LEHB246
 9963 06f8 9F05     		.uleb128 .L501-.LFB1323
 9964 06fa 00       		.uleb128 0
 9965 06fb C804     		.uleb128 .LEHB247-.LFB1323
 9966 06fd 21       		.uleb128 .LEHE247-.LEHB247
 9967 06fe B605     		.uleb128 .L503-.LFB1323
 9968 0700 00       		.uleb128 0
 9969 0701 E904     		.uleb128 .LEHB248-.LFB1323
 9970 0703 1E       		.uleb128 .LEHE248-.LEHB248
 9971 0704 00       		.uleb128 0
 9972 0705 00       		.uleb128 0
 9973 0706 B105     		.uleb128 .LEHB249-.LFB1323
 9974 0708 05       		.uleb128 .LEHE249-.LEHB249
 9975 0709 00       		.uleb128 0
 9976 070a 00       		.uleb128 0
 9977 070b C805     		.uleb128 .LEHB250-.LFB1323
 9978 070d 05       		.uleb128 .LEHE250-.LEHB250
 9979 070e 00       		.uleb128 0
 9980 070f 00       		.uleb128 0
 9981              	.LLSDACSE1323:
 9982 0710 03       		.byte	0x3
 9983 0711 00       		.byte	0
 9984 0712 02       		.byte	0x2
 9985 0713 7D       		.byte	0x7d
 9986 0714 01       		.byte	0x1
 9987 0715 7D       		.byte	0x7d
 9988 0716 00       		.byte	0
 9989 0717 7D       		.byte	0x7d
 9990              		.align 4
 9991 0718 00000000 		.long	0
 9992              	
 9993 071c 00000000 		.long	DW.ref._ZTISt9exception-.
 9994 0720 00000000 		.long	DW.ref._ZTIN8UnitTest15AssertExceptionE-.
 9995              	.LLSDATT1323:
 9996              		.text
 9998              		.weak	_ZTV44TestCurrentTestDetailsContainCurrentTestInfo
 9999              		.section	.data.rel.ro.local._ZTV44TestCurrentTestDetailsContainCurrentTestInfo,"awG",@progbits,_ZT
 10000              		.align 8
 10003              	_ZTV44TestCurrentTestDetailsContainCurrentTestInfo:
 10004 0000 00000000 		.quad	0
 10004      00000000 
 10005 0008 00000000 		.quad	_ZTI44TestCurrentTestDetailsContainCurrentTestInfo
 10005      00000000 
 10006 0010 00000000 		.quad	_ZN44TestCurrentTestDetailsContainCurrentTestInfoD1Ev
 10006      00000000 
 10007 0018 00000000 		.quad	_ZN44TestCurrentTestDetailsContainCurrentTestInfoD0Ev
 10007      00000000 
 10008 0020 00000000 		.quad	_ZNK44TestCurrentTestDetailsContainCurrentTestInfo7RunImplEv
 10008      00000000 
 10009              		.section	.text._ZN44TestCurrentTestDetailsContainCurrentTestInfoD2Ev,"axG",@progbits,_ZN44TestCurr
 10010              		.align 2
 10011              		.weak	_ZN44TestCurrentTestDetailsContainCurrentTestInfoD2Ev
 10013              	_ZN44TestCurrentTestDetailsContainCurrentTestInfoD2Ev:
 10014              	.LFB1376:
 206:TestTestMacros.cpp **** {
 10015              		.loc 6 206 1
 10016              		.cfi_startproc
 10017 0000 F30F1EFA 		endbr64
 10018 0004 55       		pushq	%rbp
 10019              		.cfi_def_cfa_offset 16
 10020              		.cfi_offset 6, -16
 10021 0005 4889E5   		movq	%rsp, %rbp
 10022              		.cfi_def_cfa_register 6
 10023 0008 4883EC10 		subq	$16, %rsp
 10024 000c 48897DF8 		movq	%rdi, -8(%rbp)
 10025              	.LBB158:
 206:TestTestMacros.cpp **** {
 10026              		.loc 6 206 1
 10027 0010 488D1500 		leaq	16+_ZTV44TestCurrentTestDetailsContainCurrentTestInfo(%rip), %rdx
 10027      000000
 10028 0017 488B45F8 		movq	-8(%rbp), %rax
 10029 001b 488910   		movq	%rdx, (%rax)
 10030 001e 488B45F8 		movq	-8(%rbp), %rax
 10031 0022 4889C7   		movq	%rax, %rdi
 10032 0025 E8000000 		call	_ZN8UnitTest4TestD2Ev@PLT
 10032      00
 10033              	.LBE158:
 10034 002a 90       		nop
 10035 002b C9       		leave
 10036              		.cfi_def_cfa 7, 8
 10037 002c C3       		ret
 10038              		.cfi_endproc
 10039              	.LFE1376:
 10041              		.weak	_ZN44TestCurrentTestDetailsContainCurrentTestInfoD1Ev
 10042              		.set	_ZN44TestCurrentTestDetailsContainCurrentTestInfoD1Ev,_ZN44TestCurrentTestDetailsContainCurre
 10043              		.section	.text._ZN44TestCurrentTestDetailsContainCurrentTestInfoD0Ev,"axG",@progbits,_ZN44TestCurr
 10044              		.align 2
 10045              		.weak	_ZN44TestCurrentTestDetailsContainCurrentTestInfoD0Ev
 10047              	_ZN44TestCurrentTestDetailsContainCurrentTestInfoD0Ev:
 10048              	.LFB1378:
 206:TestTestMacros.cpp **** {
 10049              		.loc 6 206 1
 10050              		.cfi_startproc
 10051              		.cfi_personality 0x9b,DW.ref.__gxx_personality_v0
 10052              		.cfi_lsda 0x1b,.LLSDA1378
 10053 0000 F30F1EFA 		endbr64
 10054 0004 55       		pushq	%rbp
 10055              		.cfi_def_cfa_offset 16
 10056              		.cfi_offset 6, -16
 10057 0005 4889E5   		movq	%rsp, %rbp
 10058              		.cfi_def_cfa_register 6
 10059 0008 53       		pushq	%rbx
 10060 0009 4883EC18 		subq	$24, %rsp
 10061              		.cfi_offset 3, -24
 10062 000d 48897DE8 		movq	%rdi, -24(%rbp)
 206:TestTestMacros.cpp **** {
 10063              		.loc 6 206 1
 10064 0011 488B45E8 		movq	-24(%rbp), %rax
 10065 0015 4889C7   		movq	%rax, %rdi
 10066              	.LEHB251:
 10067 0018 E8000000 		call	_ZN44TestCurrentTestDetailsContainCurrentTestInfoD1Ev
 10067      00
 10068              	.LEHE251:
 206:TestTestMacros.cpp **** {
 10069              		.loc 6 206 1 is_stmt 0 discriminator 2
 10070 001d 488B45E8 		movq	-24(%rbp), %rax
 10071 0021 4889C7   		movq	%rax, %rdi
 10072 0024 E8000000 		call	_ZdlPv@PLT
 10072      00
 10073 0029 EB1E     		jmp	.L509
 10074              	.L508:
 10075 002b F30F1EFA 		endbr64
 206:TestTestMacros.cpp **** {
 10076              		.loc 6 206 1
 10077 002f 4889C3   		movq	%rax, %rbx
 10078 0032 488B45E8 		movq	-24(%rbp), %rax
 10079 0036 4889C7   		movq	%rax, %rdi
 10080 0039 E8000000 		call	_ZdlPv@PLT
 10080      00
 10081 003e 4889D8   		movq	%rbx, %rax
 10082 0041 4889C7   		movq	%rax, %rdi
 10083              	.LEHB252:
 10084 0044 E8000000 		call	_Unwind_Resume@PLT
 10084      00
 10085              	.LEHE252:
 10086              	.L509:
 10087 0049 488B5DF8 		movq	-8(%rbp), %rbx
 10088 004d C9       		leave
 10089              		.cfi_def_cfa 7, 8
 10090 004e C3       		ret
 10091              		.cfi_endproc
 10092              	.LFE1378:
 10093              		.section	.gcc_except_table
 10094              	.LLSDA1378:
 10095 0724 FF       		.byte	0xff
 10096 0725 FF       		.byte	0xff
 10097 0726 01       		.byte	0x1
 10098 0727 08       		.uleb128 .LLSDACSE1378-.LLSDACSB1378
 10099              	.LLSDACSB1378:
 10100 0728 18       		.uleb128 .LEHB251-.LFB1378
 10101 0729 05       		.uleb128 .LEHE251-.LEHB251
 10102 072a 2B       		.uleb128 .L508-.LFB1378
 10103 072b 00       		.uleb128 0
 10104 072c 44       		.uleb128 .LEHB252-.LFB1378
 10105 072d 05       		.uleb128 .LEHE252-.LEHB252
 10106 072e 00       		.uleb128 0
 10107 072f 00       		.uleb128 0
 10108              	.LLSDACSE1378:
 10109              		.section	.text._ZN44TestCurrentTestDetailsContainCurrentTestInfoD0Ev,"axG",@progbits,_ZN44TestCurr
 10111              		.weak	_ZTVN18SuiteSameTestSuite14TestDummyTest1E
 10112              		.section	.data.rel.ro.local._ZTVN18SuiteSameTestSuite14TestDummyTest1E,"awG",@progbits,_ZTVN18Suit
 10113              		.align 8
 10116              	_ZTVN18SuiteSameTestSuite14TestDummyTest1E:
 10117 0000 00000000 		.quad	0
 10117      00000000 
 10118 0008 00000000 		.quad	_ZTIN18SuiteSameTestSuite14TestDummyTest1E
 10118      00000000 
 10119 0010 00000000 		.quad	_ZN18SuiteSameTestSuite14TestDummyTest1D1Ev
 10119      00000000 
 10120 0018 00000000 		.quad	_ZN18SuiteSameTestSuite14TestDummyTest1D0Ev
 10120      00000000 
 10121 0020 00000000 		.quad	_ZNK18SuiteSameTestSuite14TestDummyTest17RunImplEv
 10121      00000000 
 10122              		.section	.text._ZN18SuiteSameTestSuite14TestDummyTest1D2Ev,"axG",@progbits,_ZN18SuiteSameTestSuite
 10123              		.align 2
 10124              		.weak	_ZN18SuiteSameTestSuite14TestDummyTest1D2Ev
 10126              	_ZN18SuiteSameTestSuite14TestDummyTest1D2Ev:
 10127              	.LFB1380:
 197:TestTestMacros.cpp **** 	{
 10128              		.loc 6 197 2 is_stmt 1
 10129              		.cfi_startproc
 10130 0000 F30F1EFA 		endbr64
 10131 0004 55       		pushq	%rbp
 10132              		.cfi_def_cfa_offset 16
 10133              		.cfi_offset 6, -16
 10134 0005 4889E5   		movq	%rsp, %rbp
 10135              		.cfi_def_cfa_register 6
 10136 0008 4883EC10 		subq	$16, %rsp
 10137 000c 48897DF8 		movq	%rdi, -8(%rbp)
 10138              	.LBB159:
 197:TestTestMacros.cpp **** 	{
 10139              		.loc 6 197 2
 10140 0010 488D1500 		leaq	16+_ZTVN18SuiteSameTestSuite14TestDummyTest1E(%rip), %rdx
 10140      000000
 10141 0017 488B45F8 		movq	-8(%rbp), %rax
 10142 001b 488910   		movq	%rdx, (%rax)
 10143 001e 488B45F8 		movq	-8(%rbp), %rax
 10144 0022 4889C7   		movq	%rax, %rdi
 10145 0025 E8000000 		call	_ZN8UnitTest4TestD2Ev@PLT
 10145      00
 10146              	.LBE159:
 10147 002a 90       		nop
 10148 002b C9       		leave
 10149              		.cfi_def_cfa 7, 8
 10150 002c C3       		ret
 10151              		.cfi_endproc
 10152              	.LFE1380:
 10154              		.weak	_ZN18SuiteSameTestSuite14TestDummyTest1D1Ev
 10155              		.set	_ZN18SuiteSameTestSuite14TestDummyTest1D1Ev,_ZN18SuiteSameTestSuite14TestDummyTest1D2Ev
 10156              		.section	.text._ZN18SuiteSameTestSuite14TestDummyTest1D0Ev,"axG",@progbits,_ZN18SuiteSameTestSuite
 10157              		.align 2
 10158              		.weak	_ZN18SuiteSameTestSuite14TestDummyTest1D0Ev
 10160              	_ZN18SuiteSameTestSuite14TestDummyTest1D0Ev:
 10161              	.LFB1382:
 197:TestTestMacros.cpp **** 	{
 10162              		.loc 6 197 2
 10163              		.cfi_startproc
 10164              		.cfi_personality 0x9b,DW.ref.__gxx_personality_v0
 10165              		.cfi_lsda 0x1b,.LLSDA1382
 10166 0000 F30F1EFA 		endbr64
 10167 0004 55       		pushq	%rbp
 10168              		.cfi_def_cfa_offset 16
 10169              		.cfi_offset 6, -16
 10170 0005 4889E5   		movq	%rsp, %rbp
 10171              		.cfi_def_cfa_register 6
 10172 0008 53       		pushq	%rbx
 10173 0009 4883EC18 		subq	$24, %rsp
 10174              		.cfi_offset 3, -24
 10175 000d 48897DE8 		movq	%rdi, -24(%rbp)
 197:TestTestMacros.cpp **** 	{
 10176              		.loc 6 197 2
 10177 0011 488B45E8 		movq	-24(%rbp), %rax
 10178 0015 4889C7   		movq	%rax, %rdi
 10179              	.LEHB253:
 10180 0018 E8000000 		call	_ZN18SuiteSameTestSuite14TestDummyTest1D1Ev
 10180      00
 10181              	.LEHE253:
 197:TestTestMacros.cpp **** 	{
 10182              		.loc 6 197 2 is_stmt 0 discriminator 2
 10183 001d 488B45E8 		movq	-24(%rbp), %rax
 10184 0021 4889C7   		movq	%rax, %rdi
 10185 0024 E8000000 		call	_ZdlPv@PLT
 10185      00
 10186 0029 EB1E     		jmp	.L514
 10187              	.L513:
 10188 002b F30F1EFA 		endbr64
 197:TestTestMacros.cpp **** 	{
 10189              		.loc 6 197 2
 10190 002f 4889C3   		movq	%rax, %rbx
 10191 0032 488B45E8 		movq	-24(%rbp), %rax
 10192 0036 4889C7   		movq	%rax, %rdi
 10193 0039 E8000000 		call	_ZdlPv@PLT
 10193      00
 10194 003e 4889D8   		movq	%rbx, %rax
 10195 0041 4889C7   		movq	%rax, %rdi
 10196              	.LEHB254:
 10197 0044 E8000000 		call	_Unwind_Resume@PLT
 10197      00
 10198              	.LEHE254:
 10199              	.L514:
 10200 0049 488B5DF8 		movq	-8(%rbp), %rbx
 10201 004d C9       		leave
 10202              		.cfi_def_cfa 7, 8
 10203 004e C3       		ret
 10204              		.cfi_endproc
 10205              	.LFE1382:
 10206              		.section	.gcc_except_table
 10207              	.LLSDA1382:
 10208 0730 FF       		.byte	0xff
 10209 0731 FF       		.byte	0xff
 10210 0732 01       		.byte	0x1
 10211 0733 08       		.uleb128 .LLSDACSE1382-.LLSDACSB1382
 10212              	.LLSDACSB1382:
 10213 0734 18       		.uleb128 .LEHB253-.LFB1382
 10214 0735 05       		.uleb128 .LEHE253-.LEHB253
 10215 0736 2B       		.uleb128 .L513-.LFB1382
 10216 0737 00       		.uleb128 0
 10217 0738 44       		.uleb128 .LEHB254-.LFB1382
 10218 0739 05       		.uleb128 .LEHE254-.LEHB254
 10219 073a 00       		.uleb128 0
 10220 073b 00       		.uleb128 0
 10221              	.LLSDACSE1382:
 10222              		.section	.text._ZN18SuiteSameTestSuite14TestDummyTest1D0Ev,"axG",@progbits,_ZN18SuiteSameTestSuite
 10224              		.section	.data.rel.ro.local,"aw"
 10225              		.align 8
 10228              	_ZTVN12_GLOBAL__N_147TestCorrectlyReportsFixturesWithCtorsThatAssertE:
 10229 0000 00000000 		.quad	0
 10229      00000000 
 10230 0008 00000000 		.quad	_ZTIN12_GLOBAL__N_147TestCorrectlyReportsFixturesWithCtorsThatAssertE
 10230      00000000 
 10231 0010 00000000 		.quad	_ZN12_GLOBAL__N_147TestCorrectlyReportsFixturesWithCtorsThatAssertD1Ev
 10231      00000000 
 10232 0018 00000000 		.quad	_ZN12_GLOBAL__N_147TestCorrectlyReportsFixturesWithCtorsThatAssertD0Ev
 10232      00000000 
 10233 0020 00000000 		.quad	_ZNK12_GLOBAL__N_147TestCorrectlyReportsFixturesWithCtorsThatAssert7RunImplEv
 10233      00000000 
 10234              		.text
 10235              		.align 2
 10237              	_ZN12_GLOBAL__N_147TestCorrectlyReportsFixturesWithCtorsThatAssertD2Ev:
 10238              	.LFB1384:
 175:TestTestMacros.cpp **** {
 10239              		.loc 6 175 1 is_stmt 1
 10240              		.cfi_startproc
 10241 475a F30F1EFA 		endbr64
 10242 475e 55       		pushq	%rbp
 10243              		.cfi_def_cfa_offset 16
 10244              		.cfi_offset 6, -16
 10245 475f 4889E5   		movq	%rsp, %rbp
 10246              		.cfi_def_cfa_register 6
 10247 4762 4883EC10 		subq	$16, %rsp
 10248 4766 48897DF8 		movq	%rdi, -8(%rbp)
 10249              	.LBB160:
 175:TestTestMacros.cpp **** {
 10250              		.loc 6 175 1
 10251 476a 488D1500 		leaq	16+_ZTVN12_GLOBAL__N_147TestCorrectlyReportsFixturesWithCtorsThatAssertE(%rip), %rdx
 10251      000000
 10252 4771 488B45F8 		movq	-8(%rbp), %rax
 10253 4775 488910   		movq	%rdx, (%rax)
 10254 4778 488B45F8 		movq	-8(%rbp), %rax
 10255 477c 4889C7   		movq	%rax, %rdi
 10256 477f E8000000 		call	_ZN8UnitTest4TestD2Ev@PLT
 10256      00
 10257              	.LBE160:
 10258 4784 90       		nop
 10259 4785 C9       		leave
 10260              		.cfi_def_cfa 7, 8
 10261 4786 C3       		ret
 10262              		.cfi_endproc
 10263              	.LFE1384:
 10265              		.set	_ZN12_GLOBAL__N_147TestCorrectlyReportsFixturesWithCtorsThatAssertD1Ev,_ZN12_GLOBAL__N_147Tes
 10266 4787 90       		.align 2
 10268              	_ZN12_GLOBAL__N_147TestCorrectlyReportsFixturesWithCtorsThatAssertD0Ev:
 10269              	.LFB1386:
 175:TestTestMacros.cpp **** {
 10270              		.loc 6 175 1
 10271              		.cfi_startproc
 10272              		.cfi_personality 0x9b,DW.ref.__gxx_personality_v0
 10273              		.cfi_lsda 0x1b,.LLSDA1386
 10274 4788 F30F1EFA 		endbr64
 10275 478c 55       		pushq	%rbp
 10276              		.cfi_def_cfa_offset 16
 10277              		.cfi_offset 6, -16
 10278 478d 4889E5   		movq	%rsp, %rbp
 10279              		.cfi_def_cfa_register 6
 10280 4790 53       		pushq	%rbx
 10281 4791 4883EC18 		subq	$24, %rsp
 10282              		.cfi_offset 3, -24
 10283 4795 48897DE8 		movq	%rdi, -24(%rbp)
 175:TestTestMacros.cpp **** {
 10284              		.loc 6 175 1
 10285 4799 488B45E8 		movq	-24(%rbp), %rax
 10286 479d 4889C7   		movq	%rax, %rdi
 10287              	.LEHB255:
 10288 47a0 E8B5FFFF 		call	_ZN12_GLOBAL__N_147TestCorrectlyReportsFixturesWithCtorsThatAssertD1Ev
 10288      FF
 10289              	.LEHE255:
 175:TestTestMacros.cpp **** {
 10290              		.loc 6 175 1 is_stmt 0 discriminator 2
 10291 47a5 488B45E8 		movq	-24(%rbp), %rax
 10292 47a9 4889C7   		movq	%rax, %rdi
 10293 47ac E8000000 		call	_ZdlPv@PLT
 10293      00
 10294 47b1 EB1E     		jmp	.L519
 10295              	.L518:
 10296 47b3 F30F1EFA 		endbr64
 175:TestTestMacros.cpp **** {
 10297              		.loc 6 175 1
 10298 47b7 4889C3   		movq	%rax, %rbx
 10299 47ba 488B45E8 		movq	-24(%rbp), %rax
 10300 47be 4889C7   		movq	%rax, %rdi
 10301 47c1 E8000000 		call	_ZdlPv@PLT
 10301      00
 10302 47c6 4889D8   		movq	%rbx, %rax
 10303 47c9 4889C7   		movq	%rax, %rdi
 10304              	.LEHB256:
 10305 47cc E8000000 		call	_Unwind_Resume@PLT
 10305      00
 10306              	.LEHE256:
 10307              	.L519:
 10308 47d1 488B5DF8 		movq	-8(%rbp), %rbx
 10309 47d5 C9       		leave
 10310              		.cfi_def_cfa 7, 8
 10311 47d6 C3       		ret
 10312              		.cfi_endproc
 10313              	.LFE1386:
 10314              		.section	.gcc_except_table
 10315              	.LLSDA1386:
 10316 073c FF       		.byte	0xff
 10317 073d FF       		.byte	0xff
 10318 073e 01       		.byte	0x1
 10319 073f 08       		.uleb128 .LLSDACSE1386-.LLSDACSB1386
 10320              	.LLSDACSB1386:
 10321 0740 18       		.uleb128 .LEHB255-.LFB1386
 10322 0741 05       		.uleb128 .LEHE255-.LEHB255
 10323 0742 2B       		.uleb128 .L518-.LFB1386
 10324 0743 00       		.uleb128 0
 10325 0744 44       		.uleb128 .LEHB256-.LFB1386
 10326 0745 05       		.uleb128 .LEHE256-.LEHB256
 10327 0746 00       		.uleb128 0
 10328 0747 00       		.uleb128 0
 10329              	.LLSDACSE1386:
 10330              		.text
 10332              		.section	.data.rel.ro.local
 10333              		.align 8
 10336              	_ZTVN12_GLOBAL__N_157TestFixtureCtorAssertsCorrectlyReportsAssertFailureInCtorE:
 10337 0028 00000000 		.quad	0
 10337      00000000 
 10338 0030 00000000 		.quad	_ZTIN12_GLOBAL__N_157TestFixtureCtorAssertsCorrectlyReportsAssertFailureInCtorE
 10338      00000000 
 10339 0038 00000000 		.quad	_ZN12_GLOBAL__N_157TestFixtureCtorAssertsCorrectlyReportsAssertFailureInCtorD1Ev
 10339      00000000 
 10340 0040 00000000 		.quad	_ZN12_GLOBAL__N_157TestFixtureCtorAssertsCorrectlyReportsAssertFailureInCtorD0Ev
 10340      00000000 
 10341 0048 00000000 		.quad	_ZNK12_GLOBAL__N_157TestFixtureCtorAssertsCorrectlyReportsAssertFailureInCtor7RunImplEv
 10341      00000000 
 10342              		.text
 10343 47d7 90       		.align 2
 10345              	_ZN12_GLOBAL__N_157TestFixtureCtorAssertsCorrectlyReportsAssertFailureInCtorD2Ev:
 10346              	.LFB1388:
 171:TestTestMacros.cpp **** {
 10347              		.loc 6 171 1 is_stmt 1
 10348              		.cfi_startproc
 10349 47d8 F30F1EFA 		endbr64
 10350 47dc 55       		pushq	%rbp
 10351              		.cfi_def_cfa_offset 16
 10352              		.cfi_offset 6, -16
 10353 47dd 4889E5   		movq	%rsp, %rbp
 10354              		.cfi_def_cfa_register 6
 10355 47e0 4883EC10 		subq	$16, %rsp
 10356 47e4 48897DF8 		movq	%rdi, -8(%rbp)
 10357              	.LBB161:
 171:TestTestMacros.cpp **** {
 10358              		.loc 6 171 1
 10359 47e8 488D1500 		leaq	16+_ZTVN12_GLOBAL__N_157TestFixtureCtorAssertsCorrectlyReportsAssertFailureInCtorE(%rip), %rd
 10359      000000
 10360 47ef 488B45F8 		movq	-8(%rbp), %rax
 10361 47f3 488910   		movq	%rdx, (%rax)
 10362 47f6 488B45F8 		movq	-8(%rbp), %rax
 10363 47fa 4889C7   		movq	%rax, %rdi
 10364 47fd E8000000 		call	_ZN8UnitTest4TestD2Ev@PLT
 10364      00
 10365              	.LBE161:
 10366 4802 90       		nop
 10367 4803 C9       		leave
 10368              		.cfi_def_cfa 7, 8
 10369 4804 C3       		ret
 10370              		.cfi_endproc
 10371              	.LFE1388:
 10373              		.set	_ZN12_GLOBAL__N_157TestFixtureCtorAssertsCorrectlyReportsAssertFailureInCtorD1Ev,_ZN12_GLOBAL
 10374 4805 90       		.align 2
 10376              	_ZN12_GLOBAL__N_157TestFixtureCtorAssertsCorrectlyReportsAssertFailureInCtorD0Ev:
 10377              	.LFB1390:
 171:TestTestMacros.cpp **** {
 10378              		.loc 6 171 1
 10379              		.cfi_startproc
 10380              		.cfi_personality 0x9b,DW.ref.__gxx_personality_v0
 10381              		.cfi_lsda 0x1b,.LLSDA1390
 10382 4806 F30F1EFA 		endbr64
 10383 480a 55       		pushq	%rbp
 10384              		.cfi_def_cfa_offset 16
 10385              		.cfi_offset 6, -16
 10386 480b 4889E5   		movq	%rsp, %rbp
 10387              		.cfi_def_cfa_register 6
 10388 480e 53       		pushq	%rbx
 10389 480f 4883EC18 		subq	$24, %rsp
 10390              		.cfi_offset 3, -24
 10391 4813 48897DE8 		movq	%rdi, -24(%rbp)
 171:TestTestMacros.cpp **** {
 10392              		.loc 6 171 1
 10393 4817 488B45E8 		movq	-24(%rbp), %rax
 10394 481b 4889C7   		movq	%rax, %rdi
 10395              	.LEHB257:
 10396 481e E8B5FFFF 		call	_ZN12_GLOBAL__N_157TestFixtureCtorAssertsCorrectlyReportsAssertFailureInCtorD1Ev
 10396      FF
 10397              	.LEHE257:
 171:TestTestMacros.cpp **** {
 10398              		.loc 6 171 1 is_stmt 0 discriminator 2
 10399 4823 488B45E8 		movq	-24(%rbp), %rax
 10400 4827 4889C7   		movq	%rax, %rdi
 10401 482a E8000000 		call	_ZdlPv@PLT
 10401      00
 10402 482f EB1E     		jmp	.L524
 10403              	.L523:
 10404 4831 F30F1EFA 		endbr64
 171:TestTestMacros.cpp **** {
 10405              		.loc 6 171 1
 10406 4835 4889C3   		movq	%rax, %rbx
 10407 4838 488B45E8 		movq	-24(%rbp), %rax
 10408 483c 4889C7   		movq	%rax, %rdi
 10409 483f E8000000 		call	_ZdlPv@PLT
 10409      00
 10410 4844 4889D8   		movq	%rbx, %rax
 10411 4847 4889C7   		movq	%rax, %rdi
 10412              	.LEHB258:
 10413 484a E8000000 		call	_Unwind_Resume@PLT
 10413      00
 10414              	.LEHE258:
 10415              	.L524:
 10416 484f 488B5DF8 		movq	-8(%rbp), %rbx
 10417 4853 C9       		leave
 10418              		.cfi_def_cfa 7, 8
 10419 4854 C3       		ret
 10420              		.cfi_endproc
 10421              	.LFE1390:
 10422              		.section	.gcc_except_table
 10423              	.LLSDA1390:
 10424 0748 FF       		.byte	0xff
 10425 0749 FF       		.byte	0xff
 10426 074a 01       		.byte	0x1
 10427 074b 08       		.uleb128 .LLSDACSE1390-.LLSDACSB1390
 10428              	.LLSDACSB1390:
 10429 074c 18       		.uleb128 .LEHB257-.LFB1390
 10430 074d 05       		.uleb128 .LEHE257-.LEHB257
 10431 074e 2B       		.uleb128 .L523-.LFB1390
 10432 074f 00       		.uleb128 0
 10433 0750 44       		.uleb128 .LEHB258-.LFB1390
 10434 0751 05       		.uleb128 .LEHE258-.LEHB258
 10435 0752 00       		.uleb128 0
 10436 0753 00       		.uleb128 0
 10437              	.LLSDACSE1390:
 10438              		.text
 10440              		.section	.data.rel.ro.local
 10441              		.align 8
 10444              	_ZTVN12_GLOBAL__N_140TestFixturesWithThrowingDtorsAreFailuresE:
 10445 0050 00000000 		.quad	0
 10445      00000000 
 10446 0058 00000000 		.quad	_ZTIN12_GLOBAL__N_140TestFixturesWithThrowingDtorsAreFailuresE
 10446      00000000 
 10447 0060 00000000 		.quad	_ZN12_GLOBAL__N_140TestFixturesWithThrowingDtorsAreFailuresD1Ev
 10447      00000000 
 10448 0068 00000000 		.quad	_ZN12_GLOBAL__N_140TestFixturesWithThrowingDtorsAreFailuresD0Ev
 10448      00000000 
 10449 0070 00000000 		.quad	_ZNK12_GLOBAL__N_140TestFixturesWithThrowingDtorsAreFailures7RunImplEv
 10449      00000000 
 10450              		.text
 10451 4855 90       		.align 2
 10453              	_ZN12_GLOBAL__N_140TestFixturesWithThrowingDtorsAreFailuresD2Ev:
 10454              	.LFB1392:
 143:TestTestMacros.cpp **** {
 10455              		.loc 6 143 1 is_stmt 1
 10456              		.cfi_startproc
 10457 4856 F30F1EFA 		endbr64
 10458 485a 55       		pushq	%rbp
 10459              		.cfi_def_cfa_offset 16
 10460              		.cfi_offset 6, -16
 10461 485b 4889E5   		movq	%rsp, %rbp
 10462              		.cfi_def_cfa_register 6
 10463 485e 4883EC10 		subq	$16, %rsp
 10464 4862 48897DF8 		movq	%rdi, -8(%rbp)
 10465              	.LBB162:
 143:TestTestMacros.cpp **** {
 10466              		.loc 6 143 1
 10467 4866 488D1500 		leaq	16+_ZTVN12_GLOBAL__N_140TestFixturesWithThrowingDtorsAreFailuresE(%rip), %rdx
 10467      000000
 10468 486d 488B45F8 		movq	-8(%rbp), %rax
 10469 4871 488910   		movq	%rdx, (%rax)
 10470 4874 488B45F8 		movq	-8(%rbp), %rax
 10471 4878 4889C7   		movq	%rax, %rdi
 10472 487b E8000000 		call	_ZN8UnitTest4TestD2Ev@PLT
 10472      00
 10473              	.LBE162:
 10474 4880 90       		nop
 10475 4881 C9       		leave
 10476              		.cfi_def_cfa 7, 8
 10477 4882 C3       		ret
 10478              		.cfi_endproc
 10479              	.LFE1392:
 10481              		.set	_ZN12_GLOBAL__N_140TestFixturesWithThrowingDtorsAreFailuresD1Ev,_ZN12_GLOBAL__N_140TestFixtur
 10482 4883 90       		.align 2
 10484              	_ZN12_GLOBAL__N_140TestFixturesWithThrowingDtorsAreFailuresD0Ev:
 10485              	.LFB1394:
 143:TestTestMacros.cpp **** {
 10486              		.loc 6 143 1
 10487              		.cfi_startproc
 10488              		.cfi_personality 0x9b,DW.ref.__gxx_personality_v0
 10489              		.cfi_lsda 0x1b,.LLSDA1394
 10490 4884 F30F1EFA 		endbr64
 10491 4888 55       		pushq	%rbp
 10492              		.cfi_def_cfa_offset 16
 10493              		.cfi_offset 6, -16
 10494 4889 4889E5   		movq	%rsp, %rbp
 10495              		.cfi_def_cfa_register 6
 10496 488c 53       		pushq	%rbx
 10497 488d 4883EC18 		subq	$24, %rsp
 10498              		.cfi_offset 3, -24
 10499 4891 48897DE8 		movq	%rdi, -24(%rbp)
 143:TestTestMacros.cpp **** {
 10500              		.loc 6 143 1
 10501 4895 488B45E8 		movq	-24(%rbp), %rax
 10502 4899 4889C7   		movq	%rax, %rdi
 10503              	.LEHB259:
 10504 489c E8B5FFFF 		call	_ZN12_GLOBAL__N_140TestFixturesWithThrowingDtorsAreFailuresD1Ev
 10504      FF
 10505              	.LEHE259:
 143:TestTestMacros.cpp **** {
 10506              		.loc 6 143 1 is_stmt 0 discriminator 2
 10507 48a1 488B45E8 		movq	-24(%rbp), %rax
 10508 48a5 4889C7   		movq	%rax, %rdi
 10509 48a8 E8000000 		call	_ZdlPv@PLT
 10509      00
 10510 48ad EB1E     		jmp	.L529
 10511              	.L528:
 10512 48af F30F1EFA 		endbr64
 143:TestTestMacros.cpp **** {
 10513              		.loc 6 143 1
 10514 48b3 4889C3   		movq	%rax, %rbx
 10515 48b6 488B45E8 		movq	-24(%rbp), %rax
 10516 48ba 4889C7   		movq	%rax, %rdi
 10517 48bd E8000000 		call	_ZdlPv@PLT
 10517      00
 10518 48c2 4889D8   		movq	%rbx, %rax
 10519 48c5 4889C7   		movq	%rax, %rdi
 10520              	.LEHB260:
 10521 48c8 E8000000 		call	_Unwind_Resume@PLT
 10521      00
 10522              	.LEHE260:
 10523              	.L529:
 10524 48cd 488B5DF8 		movq	-8(%rbp), %rbx
 10525 48d1 C9       		leave
 10526              		.cfi_def_cfa 7, 8
 10527 48d2 C3       		ret
 10528              		.cfi_endproc
 10529              	.LFE1394:
 10530              		.section	.gcc_except_table
 10531              	.LLSDA1394:
 10532 0754 FF       		.byte	0xff
 10533 0755 FF       		.byte	0xff
 10534 0756 01       		.byte	0x1
 10535 0757 08       		.uleb128 .LLSDACSE1394-.LLSDACSB1394
 10536              	.LLSDACSB1394:
 10537 0758 18       		.uleb128 .LEHB259-.LFB1394
 10538 0759 05       		.uleb128 .LEHE259-.LEHB259
 10539 075a 2B       		.uleb128 .L528-.LFB1394
 10540 075b 00       		.uleb128 0
 10541 075c 44       		.uleb128 .LEHB260-.LFB1394
 10542 075d 05       		.uleb128 .LEHE260-.LEHB260
 10543 075e 00       		.uleb128 0
 10544 075f 00       		.uleb128 0
 10545              	.LLSDACSE1394:
 10546              		.text
 10548              		.section	.data.rel.ro.local
 10549              		.align 8
 10552              	_ZTVN12_GLOBAL__N_146TestFixtureDtorThrowsFixtureDtorThrowsTestNameE:
 10553 0078 00000000 		.quad	0
 10553      00000000 
 10554 0080 00000000 		.quad	_ZTIN12_GLOBAL__N_146TestFixtureDtorThrowsFixtureDtorThrowsTestNameE
 10554      00000000 
 10555 0088 00000000 		.quad	_ZN12_GLOBAL__N_146TestFixtureDtorThrowsFixtureDtorThrowsTestNameD1Ev
 10555      00000000 
 10556 0090 00000000 		.quad	_ZN12_GLOBAL__N_146TestFixtureDtorThrowsFixtureDtorThrowsTestNameD0Ev
 10556      00000000 
 10557 0098 00000000 		.quad	_ZNK12_GLOBAL__N_146TestFixtureDtorThrowsFixtureDtorThrowsTestName7RunImplEv
 10557      00000000 
 10558              		.text
 10559 48d3 90       		.align 2
 10561              	_ZN12_GLOBAL__N_146TestFixtureDtorThrowsFixtureDtorThrowsTestNameD2Ev:
 10562              	.LFB1396:
 138:TestTestMacros.cpp **** {
 10563              		.loc 6 138 1 is_stmt 1
 10564              		.cfi_startproc
 10565 48d4 F30F1EFA 		endbr64
 10566 48d8 55       		pushq	%rbp
 10567              		.cfi_def_cfa_offset 16
 10568              		.cfi_offset 6, -16
 10569 48d9 4889E5   		movq	%rsp, %rbp
 10570              		.cfi_def_cfa_register 6
 10571 48dc 4883EC10 		subq	$16, %rsp
 10572 48e0 48897DF8 		movq	%rdi, -8(%rbp)
 10573              	.LBB163:
 138:TestTestMacros.cpp **** {
 10574              		.loc 6 138 1
 10575 48e4 488D1500 		leaq	16+_ZTVN12_GLOBAL__N_146TestFixtureDtorThrowsFixtureDtorThrowsTestNameE(%rip), %rdx
 10575      000000
 10576 48eb 488B45F8 		movq	-8(%rbp), %rax
 10577 48ef 488910   		movq	%rdx, (%rax)
 10578 48f2 488B45F8 		movq	-8(%rbp), %rax
 10579 48f6 4889C7   		movq	%rax, %rdi
 10580 48f9 E8000000 		call	_ZN8UnitTest4TestD2Ev@PLT
 10580      00
 10581              	.LBE163:
 10582 48fe 90       		nop
 10583 48ff C9       		leave
 10584              		.cfi_def_cfa 7, 8
 10585 4900 C3       		ret
 10586              		.cfi_endproc
 10587              	.LFE1396:
 10589              		.set	_ZN12_GLOBAL__N_146TestFixtureDtorThrowsFixtureDtorThrowsTestNameD1Ev,_ZN12_GLOBAL__N_146Test
 10590 4901 90       		.align 2
 10592              	_ZN12_GLOBAL__N_146TestFixtureDtorThrowsFixtureDtorThrowsTestNameD0Ev:
 10593              	.LFB1398:
 138:TestTestMacros.cpp **** {
 10594              		.loc 6 138 1
 10595              		.cfi_startproc
 10596              		.cfi_personality 0x9b,DW.ref.__gxx_personality_v0
 10597              		.cfi_lsda 0x1b,.LLSDA1398
 10598 4902 F30F1EFA 		endbr64
 10599 4906 55       		pushq	%rbp
 10600              		.cfi_def_cfa_offset 16
 10601              		.cfi_offset 6, -16
 10602 4907 4889E5   		movq	%rsp, %rbp
 10603              		.cfi_def_cfa_register 6
 10604 490a 53       		pushq	%rbx
 10605 490b 4883EC18 		subq	$24, %rsp
 10606              		.cfi_offset 3, -24
 10607 490f 48897DE8 		movq	%rdi, -24(%rbp)
 138:TestTestMacros.cpp **** {
 10608              		.loc 6 138 1
 10609 4913 488B45E8 		movq	-24(%rbp), %rax
 10610 4917 4889C7   		movq	%rax, %rdi
 10611              	.LEHB261:
 10612 491a E8B5FFFF 		call	_ZN12_GLOBAL__N_146TestFixtureDtorThrowsFixtureDtorThrowsTestNameD1Ev
 10612      FF
 10613              	.LEHE261:
 138:TestTestMacros.cpp **** {
 10614              		.loc 6 138 1 is_stmt 0 discriminator 2
 10615 491f 488B45E8 		movq	-24(%rbp), %rax
 10616 4923 4889C7   		movq	%rax, %rdi
 10617 4926 E8000000 		call	_ZdlPv@PLT
 10617      00
 10618 492b EB1E     		jmp	.L534
 10619              	.L533:
 10620 492d F30F1EFA 		endbr64
 138:TestTestMacros.cpp **** {
 10621              		.loc 6 138 1
 10622 4931 4889C3   		movq	%rax, %rbx
 10623 4934 488B45E8 		movq	-24(%rbp), %rax
 10624 4938 4889C7   		movq	%rax, %rdi
 10625 493b E8000000 		call	_ZdlPv@PLT
 10625      00
 10626 4940 4889D8   		movq	%rbx, %rax
 10627 4943 4889C7   		movq	%rax, %rdi
 10628              	.LEHB262:
 10629 4946 E8000000 		call	_Unwind_Resume@PLT
 10629      00
 10630              	.LEHE262:
 10631              	.L534:
 10632 494b 488B5DF8 		movq	-8(%rbp), %rbx
 10633 494f C9       		leave
 10634              		.cfi_def_cfa 7, 8
 10635 4950 C3       		ret
 10636              		.cfi_endproc
 10637              	.LFE1398:
 10638              		.section	.gcc_except_table
 10639              	.LLSDA1398:
 10640 0760 FF       		.byte	0xff
 10641 0761 FF       		.byte	0xff
 10642 0762 01       		.byte	0x1
 10643 0763 08       		.uleb128 .LLSDACSE1398-.LLSDACSB1398
 10644              	.LLSDACSB1398:
 10645 0764 18       		.uleb128 .LEHB261-.LFB1398
 10646 0765 05       		.uleb128 .LEHE261-.LEHB261
 10647 0766 2B       		.uleb128 .L533-.LFB1398
 10648 0767 00       		.uleb128 0
 10649 0768 44       		.uleb128 .LEHB262-.LFB1398
 10650 0769 05       		.uleb128 .LEHE262-.LEHB262
 10651 076a 00       		.uleb128 0
 10652 076b 00       		.uleb128 0
 10653              	.LLSDACSE1398:
 10654              		.text
 10656              		.section	.data.rel.ro.local
 10657              		.align 8
 10660              	_ZTVN12_GLOBAL__N_140TestFixturesWithThrowingCtorsAreFailuresE:
 10661 00a0 00000000 		.quad	0
 10661      00000000 
 10662 00a8 00000000 		.quad	_ZTIN12_GLOBAL__N_140TestFixturesWithThrowingCtorsAreFailuresE
 10662      00000000 
 10663 00b0 00000000 		.quad	_ZN12_GLOBAL__N_140TestFixturesWithThrowingCtorsAreFailuresD1Ev
 10663      00000000 
 10664 00b8 00000000 		.quad	_ZN12_GLOBAL__N_140TestFixturesWithThrowingCtorsAreFailuresD0Ev
 10664      00000000 
 10665 00c0 00000000 		.quad	_ZNK12_GLOBAL__N_140TestFixturesWithThrowingCtorsAreFailures7RunImplEv
 10665      00000000 
 10666              		.text
 10667 4951 90       		.align 2
 10669              	_ZN12_GLOBAL__N_140TestFixturesWithThrowingCtorsAreFailuresD2Ev:
 10670              	.LFB1400:
 117:TestTestMacros.cpp **** {
 10671              		.loc 6 117 1 is_stmt 1
 10672              		.cfi_startproc
 10673 4952 F30F1EFA 		endbr64
 10674 4956 55       		pushq	%rbp
 10675              		.cfi_def_cfa_offset 16
 10676              		.cfi_offset 6, -16
 10677 4957 4889E5   		movq	%rsp, %rbp
 10678              		.cfi_def_cfa_register 6
 10679 495a 4883EC10 		subq	$16, %rsp
 10680 495e 48897DF8 		movq	%rdi, -8(%rbp)
 10681              	.LBB164:
 117:TestTestMacros.cpp **** {
 10682              		.loc 6 117 1
 10683 4962 488D1500 		leaq	16+_ZTVN12_GLOBAL__N_140TestFixturesWithThrowingCtorsAreFailuresE(%rip), %rdx
 10683      000000
 10684 4969 488B45F8 		movq	-8(%rbp), %rax
 10685 496d 488910   		movq	%rdx, (%rax)
 10686 4970 488B45F8 		movq	-8(%rbp), %rax
 10687 4974 4889C7   		movq	%rax, %rdi
 10688 4977 E8000000 		call	_ZN8UnitTest4TestD2Ev@PLT
 10688      00
 10689              	.LBE164:
 10690 497c 90       		nop
 10691 497d C9       		leave
 10692              		.cfi_def_cfa 7, 8
 10693 497e C3       		ret
 10694              		.cfi_endproc
 10695              	.LFE1400:
 10697              		.set	_ZN12_GLOBAL__N_140TestFixturesWithThrowingCtorsAreFailuresD1Ev,_ZN12_GLOBAL__N_140TestFixtur
 10698 497f 90       		.align 2
 10700              	_ZN12_GLOBAL__N_140TestFixturesWithThrowingCtorsAreFailuresD0Ev:
 10701              	.LFB1402:
 117:TestTestMacros.cpp **** {
 10702              		.loc 6 117 1
 10703              		.cfi_startproc
 10704              		.cfi_personality 0x9b,DW.ref.__gxx_personality_v0
 10705              		.cfi_lsda 0x1b,.LLSDA1402
 10706 4980 F30F1EFA 		endbr64
 10707 4984 55       		pushq	%rbp
 10708              		.cfi_def_cfa_offset 16
 10709              		.cfi_offset 6, -16
 10710 4985 4889E5   		movq	%rsp, %rbp
 10711              		.cfi_def_cfa_register 6
 10712 4988 53       		pushq	%rbx
 10713 4989 4883EC18 		subq	$24, %rsp
 10714              		.cfi_offset 3, -24
 10715 498d 48897DE8 		movq	%rdi, -24(%rbp)
 117:TestTestMacros.cpp **** {
 10716              		.loc 6 117 1
 10717 4991 488B45E8 		movq	-24(%rbp), %rax
 10718 4995 4889C7   		movq	%rax, %rdi
 10719              	.LEHB263:
 10720 4998 E8B5FFFF 		call	_ZN12_GLOBAL__N_140TestFixturesWithThrowingCtorsAreFailuresD1Ev
 10720      FF
 10721              	.LEHE263:
 117:TestTestMacros.cpp **** {
 10722              		.loc 6 117 1 is_stmt 0 discriminator 2
 10723 499d 488B45E8 		movq	-24(%rbp), %rax
 10724 49a1 4889C7   		movq	%rax, %rdi
 10725 49a4 E8000000 		call	_ZdlPv@PLT
 10725      00
 10726 49a9 EB1E     		jmp	.L539
 10727              	.L538:
 10728 49ab F30F1EFA 		endbr64
 117:TestTestMacros.cpp **** {
 10729              		.loc 6 117 1
 10730 49af 4889C3   		movq	%rax, %rbx
 10731 49b2 488B45E8 		movq	-24(%rbp), %rax
 10732 49b6 4889C7   		movq	%rax, %rdi
 10733 49b9 E8000000 		call	_ZdlPv@PLT
 10733      00
 10734 49be 4889D8   		movq	%rbx, %rax
 10735 49c1 4889C7   		movq	%rax, %rdi
 10736              	.LEHB264:
 10737 49c4 E8000000 		call	_Unwind_Resume@PLT
 10737      00
 10738              	.LEHE264:
 10739              	.L539:
 10740 49c9 488B5DF8 		movq	-8(%rbp), %rbx
 10741 49cd C9       		leave
 10742              		.cfi_def_cfa 7, 8
 10743 49ce C3       		ret
 10744              		.cfi_endproc
 10745              	.LFE1402:
 10746              		.section	.gcc_except_table
 10747              	.LLSDA1402:
 10748 076c FF       		.byte	0xff
 10749 076d FF       		.byte	0xff
 10750 076e 01       		.byte	0x1
 10751 076f 08       		.uleb128 .LLSDACSE1402-.LLSDACSB1402
 10752              	.LLSDACSB1402:
 10753 0770 18       		.uleb128 .LEHB263-.LFB1402
 10754 0771 05       		.uleb128 .LEHE263-.LEHB263
 10755 0772 2B       		.uleb128 .L538-.LFB1402
 10756 0773 00       		.uleb128 0
 10757 0774 44       		.uleb128 .LEHB264-.LFB1402
 10758 0775 05       		.uleb128 .LEHE264-.LEHB264
 10759 0776 00       		.uleb128 0
 10760 0777 00       		.uleb128 0
 10761              	.LLSDACSE1402:
 10762              		.text
 10764              		.section	.data.rel.ro.local
 10765              		.align 8
 10768              	_ZTVN12_GLOBAL__N_146TestFixtureCtorThrowsFixtureCtorThrowsTestNameE:
 10769 00c8 00000000 		.quad	0
 10769      00000000 
 10770 00d0 00000000 		.quad	_ZTIN12_GLOBAL__N_146TestFixtureCtorThrowsFixtureCtorThrowsTestNameE
 10770      00000000 
 10771 00d8 00000000 		.quad	_ZN12_GLOBAL__N_146TestFixtureCtorThrowsFixtureCtorThrowsTestNameD1Ev
 10771      00000000 
 10772 00e0 00000000 		.quad	_ZN12_GLOBAL__N_146TestFixtureCtorThrowsFixtureCtorThrowsTestNameD0Ev
 10772      00000000 
 10773 00e8 00000000 		.quad	_ZNK12_GLOBAL__N_146TestFixtureCtorThrowsFixtureCtorThrowsTestName7RunImplEv
 10773      00000000 
 10774              		.text
 10775 49cf 90       		.align 2
 10777              	_ZN12_GLOBAL__N_146TestFixtureCtorThrowsFixtureCtorThrowsTestNameD2Ev:
 10778              	.LFB1404:
 113:TestTestMacros.cpp **** {
 10779              		.loc 6 113 1 is_stmt 1
 10780              		.cfi_startproc
 10781 49d0 F30F1EFA 		endbr64
 10782 49d4 55       		pushq	%rbp
 10783              		.cfi_def_cfa_offset 16
 10784              		.cfi_offset 6, -16
 10785 49d5 4889E5   		movq	%rsp, %rbp
 10786              		.cfi_def_cfa_register 6
 10787 49d8 4883EC10 		subq	$16, %rsp
 10788 49dc 48897DF8 		movq	%rdi, -8(%rbp)
 10789              	.LBB165:
 113:TestTestMacros.cpp **** {
 10790              		.loc 6 113 1
 10791 49e0 488D1500 		leaq	16+_ZTVN12_GLOBAL__N_146TestFixtureCtorThrowsFixtureCtorThrowsTestNameE(%rip), %rdx
 10791      000000
 10792 49e7 488B45F8 		movq	-8(%rbp), %rax
 10793 49eb 488910   		movq	%rdx, (%rax)
 10794 49ee 488B45F8 		movq	-8(%rbp), %rax
 10795 49f2 4889C7   		movq	%rax, %rdi
 10796 49f5 E8000000 		call	_ZN8UnitTest4TestD2Ev@PLT
 10796      00
 10797              	.LBE165:
 10798 49fa 90       		nop
 10799 49fb C9       		leave
 10800              		.cfi_def_cfa 7, 8
 10801 49fc C3       		ret
 10802              		.cfi_endproc
 10803              	.LFE1404:
 10805              		.set	_ZN12_GLOBAL__N_146TestFixtureCtorThrowsFixtureCtorThrowsTestNameD1Ev,_ZN12_GLOBAL__N_146Test
 10806 49fd 90       		.align 2
 10808              	_ZN12_GLOBAL__N_146TestFixtureCtorThrowsFixtureCtorThrowsTestNameD0Ev:
 10809              	.LFB1406:
 113:TestTestMacros.cpp **** {
 10810              		.loc 6 113 1
 10811              		.cfi_startproc
 10812              		.cfi_personality 0x9b,DW.ref.__gxx_personality_v0
 10813              		.cfi_lsda 0x1b,.LLSDA1406
 10814 49fe F30F1EFA 		endbr64
 10815 4a02 55       		pushq	%rbp
 10816              		.cfi_def_cfa_offset 16
 10817              		.cfi_offset 6, -16
 10818 4a03 4889E5   		movq	%rsp, %rbp
 10819              		.cfi_def_cfa_register 6
 10820 4a06 53       		pushq	%rbx
 10821 4a07 4883EC18 		subq	$24, %rsp
 10822              		.cfi_offset 3, -24
 10823 4a0b 48897DE8 		movq	%rdi, -24(%rbp)
 113:TestTestMacros.cpp **** {
 10824              		.loc 6 113 1
 10825 4a0f 488B45E8 		movq	-24(%rbp), %rax
 10826 4a13 4889C7   		movq	%rax, %rdi
 10827              	.LEHB265:
 10828 4a16 E8B5FFFF 		call	_ZN12_GLOBAL__N_146TestFixtureCtorThrowsFixtureCtorThrowsTestNameD1Ev
 10828      FF
 10829              	.LEHE265:
 113:TestTestMacros.cpp **** {
 10830              		.loc 6 113 1 is_stmt 0 discriminator 2
 10831 4a1b 488B45E8 		movq	-24(%rbp), %rax
 10832 4a1f 4889C7   		movq	%rax, %rdi
 10833 4a22 E8000000 		call	_ZdlPv@PLT
 10833      00
 10834 4a27 EB1E     		jmp	.L544
 10835              	.L543:
 10836 4a29 F30F1EFA 		endbr64
 113:TestTestMacros.cpp **** {
 10837              		.loc 6 113 1
 10838 4a2d 4889C3   		movq	%rax, %rbx
 10839 4a30 488B45E8 		movq	-24(%rbp), %rax
 10840 4a34 4889C7   		movq	%rax, %rdi
 10841 4a37 E8000000 		call	_ZdlPv@PLT
 10841      00
 10842 4a3c 4889D8   		movq	%rbx, %rax
 10843 4a3f 4889C7   		movq	%rax, %rdi
 10844              	.LEHB266:
 10845 4a42 E8000000 		call	_Unwind_Resume@PLT
 10845      00
 10846              	.LEHE266:
 10847              	.L544:
 10848 4a47 488B5DF8 		movq	-8(%rbp), %rbx
 10849 4a4b C9       		leave
 10850              		.cfi_def_cfa 7, 8
 10851 4a4c C3       		ret
 10852              		.cfi_endproc
 10853              	.LFE1406:
 10854              		.section	.gcc_except_table
 10855              	.LLSDA1406:
 10856 0778 FF       		.byte	0xff
 10857 0779 FF       		.byte	0xff
 10858 077a 01       		.byte	0x1
 10859 077b 08       		.uleb128 .LLSDACSE1406-.LLSDACSB1406
 10860              	.LLSDACSB1406:
 10861 077c 18       		.uleb128 .LEHB265-.LFB1406
 10862 077d 05       		.uleb128 .LEHE265-.LEHB265
 10863 077e 2B       		.uleb128 .L543-.LFB1406
 10864 077f 00       		.uleb128 0
 10865 0780 44       		.uleb128 .LEHB266-.LFB1406
 10866 0781 05       		.uleb128 .LEHE266-.LEHB266
 10867 0782 00       		.uleb128 0
 10868 0783 00       		.uleb128 0
 10869              	.LLSDACSE1406:
 10870              		.text
 10872              		.section	.data.rel.ro.local
 10873              		.align 8
 10876              	_ZTVN12_GLOBAL__N_153TestTestAddedWithTEST_FIXTURE_EXMacroGetsDefaultSuiteE:
 10877 00f0 00000000 		.quad	0
 10877      00000000 
 10878 00f8 00000000 		.quad	_ZTIN12_GLOBAL__N_153TestTestAddedWithTEST_FIXTURE_EXMacroGetsDefaultSuiteE
 10878      00000000 
 10879 0100 00000000 		.quad	_ZN12_GLOBAL__N_153TestTestAddedWithTEST_FIXTURE_EXMacroGetsDefaultSuiteD1Ev
 10879      00000000 
 10880 0108 00000000 		.quad	_ZN12_GLOBAL__N_153TestTestAddedWithTEST_FIXTURE_EXMacroGetsDefaultSuiteD0Ev
 10880      00000000 
 10881 0110 00000000 		.quad	_ZNK12_GLOBAL__N_153TestTestAddedWithTEST_FIXTURE_EXMacroGetsDefaultSuite7RunImplEv
 10881      00000000 
 10882              		.text
 10883 4a4d 90       		.align 2
 10885              	_ZN12_GLOBAL__N_153TestTestAddedWithTEST_FIXTURE_EXMacroGetsDefaultSuiteD2Ev:
 10886              	.LFB1408:
 100:TestTestMacros.cpp **** {
 10887              		.loc 6 100 1 is_stmt 1
 10888              		.cfi_startproc
 10889 4a4e F30F1EFA 		endbr64
 10890 4a52 55       		pushq	%rbp
 10891              		.cfi_def_cfa_offset 16
 10892              		.cfi_offset 6, -16
 10893 4a53 4889E5   		movq	%rsp, %rbp
 10894              		.cfi_def_cfa_register 6
 10895 4a56 4883EC10 		subq	$16, %rsp
 10896 4a5a 48897DF8 		movq	%rdi, -8(%rbp)
 10897              	.LBB166:
 100:TestTestMacros.cpp **** {
 10898              		.loc 6 100 1
 10899 4a5e 488D1500 		leaq	16+_ZTVN12_GLOBAL__N_153TestTestAddedWithTEST_FIXTURE_EXMacroGetsDefaultSuiteE(%rip), %rdx
 10899      000000
 10900 4a65 488B45F8 		movq	-8(%rbp), %rax
 10901 4a69 488910   		movq	%rdx, (%rax)
 10902 4a6c 488B45F8 		movq	-8(%rbp), %rax
 10903 4a70 4889C7   		movq	%rax, %rdi
 10904 4a73 E8000000 		call	_ZN8UnitTest4TestD2Ev@PLT
 10904      00
 10905              	.LBE166:
 10906 4a78 90       		nop
 10907 4a79 C9       		leave
 10908              		.cfi_def_cfa 7, 8
 10909 4a7a C3       		ret
 10910              		.cfi_endproc
 10911              	.LFE1408:
 10913              		.set	_ZN12_GLOBAL__N_153TestTestAddedWithTEST_FIXTURE_EXMacroGetsDefaultSuiteD1Ev,_ZN12_GLOBAL__N_
 10914 4a7b 90       		.align 2
 10916              	_ZN12_GLOBAL__N_153TestTestAddedWithTEST_FIXTURE_EXMacroGetsDefaultSuiteD0Ev:
 10917              	.LFB1410:
 100:TestTestMacros.cpp **** {
 10918              		.loc 6 100 1
 10919              		.cfi_startproc
 10920              		.cfi_personality 0x9b,DW.ref.__gxx_personality_v0
 10921              		.cfi_lsda 0x1b,.LLSDA1410
 10922 4a7c F30F1EFA 		endbr64
 10923 4a80 55       		pushq	%rbp
 10924              		.cfi_def_cfa_offset 16
 10925              		.cfi_offset 6, -16
 10926 4a81 4889E5   		movq	%rsp, %rbp
 10927              		.cfi_def_cfa_register 6
 10928 4a84 53       		pushq	%rbx
 10929 4a85 4883EC18 		subq	$24, %rsp
 10930              		.cfi_offset 3, -24
 10931 4a89 48897DE8 		movq	%rdi, -24(%rbp)
 100:TestTestMacros.cpp **** {
 10932              		.loc 6 100 1
 10933 4a8d 488B45E8 		movq	-24(%rbp), %rax
 10934 4a91 4889C7   		movq	%rax, %rdi
 10935              	.LEHB267:
 10936 4a94 E8B5FFFF 		call	_ZN12_GLOBAL__N_153TestTestAddedWithTEST_FIXTURE_EXMacroGetsDefaultSuiteD1Ev
 10936      FF
 10937              	.LEHE267:
 100:TestTestMacros.cpp **** {
 10938              		.loc 6 100 1 is_stmt 0 discriminator 2
 10939 4a99 488B45E8 		movq	-24(%rbp), %rax
 10940 4a9d 4889C7   		movq	%rax, %rdi
 10941 4aa0 E8000000 		call	_ZdlPv@PLT
 10941      00
 10942 4aa5 EB1E     		jmp	.L549
 10943              	.L548:
 10944 4aa7 F30F1EFA 		endbr64
 100:TestTestMacros.cpp **** {
 10945              		.loc 6 100 1
 10946 4aab 4889C3   		movq	%rax, %rbx
 10947 4aae 488B45E8 		movq	-24(%rbp), %rax
 10948 4ab2 4889C7   		movq	%rax, %rdi
 10949 4ab5 E8000000 		call	_ZdlPv@PLT
 10949      00
 10950 4aba 4889D8   		movq	%rbx, %rax
 10951 4abd 4889C7   		movq	%rax, %rdi
 10952              	.LEHB268:
 10953 4ac0 E8000000 		call	_Unwind_Resume@PLT
 10953      00
 10954              	.LEHE268:
 10955              	.L549:
 10956 4ac5 488B5DF8 		movq	-8(%rbp), %rbx
 10957 4ac9 C9       		leave
 10958              		.cfi_def_cfa 7, 8
 10959 4aca C3       		ret
 10960              		.cfi_endproc
 10961              	.LFE1410:
 10962              		.section	.gcc_except_table
 10963              	.LLSDA1410:
 10964 0784 FF       		.byte	0xff
 10965 0785 FF       		.byte	0xff
 10966 0786 01       		.byte	0x1
 10967 0787 08       		.uleb128 .LLSDACSE1410-.LLSDACSB1410
 10968              	.LLSDACSB1410:
 10969 0788 18       		.uleb128 .LEHB267-.LFB1410
 10970 0789 05       		.uleb128 .LEHE267-.LEHB267
 10971 078a 2B       		.uleb128 .L548-.LFB1410
 10972 078b 00       		.uleb128 0
 10973 078c 44       		.uleb128 .LEHB268-.LFB1410
 10974 078d 05       		.uleb128 .LEHE268-.LEHB268
 10975 078e 00       		.uleb128 0
 10976 078f 00       		.uleb128 0
 10977              	.LLSDACSE1410:
 10978              		.text
 10980              		.section	.data.rel.ro.local
 10981              		.align 8
 10984              	_ZTVN12_GLOBAL__N_132TestDummyFixtureMacroTestHelper2E:
 10985 0118 00000000 		.quad	0
 10985      00000000 
 10986 0120 00000000 		.quad	_ZTIN12_GLOBAL__N_132TestDummyFixtureMacroTestHelper2E
 10986      00000000 
 10987 0128 00000000 		.quad	_ZN12_GLOBAL__N_132TestDummyFixtureMacroTestHelper2D1Ev
 10987      00000000 
 10988 0130 00000000 		.quad	_ZN12_GLOBAL__N_132TestDummyFixtureMacroTestHelper2D0Ev
 10988      00000000 
 10989 0138 00000000 		.quad	_ZNK12_GLOBAL__N_132TestDummyFixtureMacroTestHelper27RunImplEv
 10989      00000000 
 10990              		.text
 10991 4acb 90       		.align 2
 10993              	_ZN12_GLOBAL__N_132TestDummyFixtureMacroTestHelper2D2Ev:
 10994              	.LFB1412:
  96:TestTestMacros.cpp **** {
 10995              		.loc 6 96 1 is_stmt 1
 10996              		.cfi_startproc
 10997 4acc F30F1EFA 		endbr64
 10998 4ad0 55       		pushq	%rbp
 10999              		.cfi_def_cfa_offset 16
 11000              		.cfi_offset 6, -16
 11001 4ad1 4889E5   		movq	%rsp, %rbp
 11002              		.cfi_def_cfa_register 6
 11003 4ad4 4883EC10 		subq	$16, %rsp
 11004 4ad8 48897DF8 		movq	%rdi, -8(%rbp)
 11005              	.LBB167:
  96:TestTestMacros.cpp **** {
 11006              		.loc 6 96 1
 11007 4adc 488D1500 		leaq	16+_ZTVN12_GLOBAL__N_132TestDummyFixtureMacroTestHelper2E(%rip), %rdx
 11007      000000
 11008 4ae3 488B45F8 		movq	-8(%rbp), %rax
 11009 4ae7 488910   		movq	%rdx, (%rax)
 11010 4aea 488B45F8 		movq	-8(%rbp), %rax
 11011 4aee 4889C7   		movq	%rax, %rdi
 11012 4af1 E8000000 		call	_ZN8UnitTest4TestD2Ev@PLT
 11012      00
 11013              	.LBE167:
 11014 4af6 90       		nop
 11015 4af7 C9       		leave
 11016              		.cfi_def_cfa 7, 8
 11017 4af8 C3       		ret
 11018              		.cfi_endproc
 11019              	.LFE1412:
 11021              		.set	_ZN12_GLOBAL__N_132TestDummyFixtureMacroTestHelper2D1Ev,_ZN12_GLOBAL__N_132TestDummyFixtureMa
 11022 4af9 90       		.align 2
 11024              	_ZN12_GLOBAL__N_132TestDummyFixtureMacroTestHelper2D0Ev:
 11025              	.LFB1414:
  96:TestTestMacros.cpp **** {
 11026              		.loc 6 96 1
 11027              		.cfi_startproc
 11028              		.cfi_personality 0x9b,DW.ref.__gxx_personality_v0
 11029              		.cfi_lsda 0x1b,.LLSDA1414
 11030 4afa F30F1EFA 		endbr64
 11031 4afe 55       		pushq	%rbp
 11032              		.cfi_def_cfa_offset 16
 11033              		.cfi_offset 6, -16
 11034 4aff 4889E5   		movq	%rsp, %rbp
 11035              		.cfi_def_cfa_register 6
 11036 4b02 53       		pushq	%rbx
 11037 4b03 4883EC18 		subq	$24, %rsp
 11038              		.cfi_offset 3, -24
 11039 4b07 48897DE8 		movq	%rdi, -24(%rbp)
  96:TestTestMacros.cpp **** {
 11040              		.loc 6 96 1
 11041 4b0b 488B45E8 		movq	-24(%rbp), %rax
 11042 4b0f 4889C7   		movq	%rax, %rdi
 11043              	.LEHB269:
 11044 4b12 E8B5FFFF 		call	_ZN12_GLOBAL__N_132TestDummyFixtureMacroTestHelper2D1Ev
 11044      FF
 11045              	.LEHE269:
  96:TestTestMacros.cpp **** {
 11046              		.loc 6 96 1 is_stmt 0 discriminator 2
 11047 4b17 488B45E8 		movq	-24(%rbp), %rax
 11048 4b1b 4889C7   		movq	%rax, %rdi
 11049 4b1e E8000000 		call	_ZdlPv@PLT
 11049      00
 11050 4b23 EB1E     		jmp	.L554
 11051              	.L553:
 11052 4b25 F30F1EFA 		endbr64
  96:TestTestMacros.cpp **** {
 11053              		.loc 6 96 1
 11054 4b29 4889C3   		movq	%rax, %rbx
 11055 4b2c 488B45E8 		movq	-24(%rbp), %rax
 11056 4b30 4889C7   		movq	%rax, %rdi
 11057 4b33 E8000000 		call	_ZdlPv@PLT
 11057      00
 11058 4b38 4889D8   		movq	%rbx, %rax
 11059 4b3b 4889C7   		movq	%rax, %rdi
 11060              	.LEHB270:
 11061 4b3e E8000000 		call	_Unwind_Resume@PLT
 11061      00
 11062              	.LEHE270:
 11063              	.L554:
 11064 4b43 488B5DF8 		movq	-8(%rbp), %rbx
 11065 4b47 C9       		leave
 11066              		.cfi_def_cfa 7, 8
 11067 4b48 C3       		ret
 11068              		.cfi_endproc
 11069              	.LFE1414:
 11070              		.section	.gcc_except_table
 11071              	.LLSDA1414:
 11072 0790 FF       		.byte	0xff
 11073 0791 FF       		.byte	0xff
 11074 0792 01       		.byte	0x1
 11075 0793 08       		.uleb128 .LLSDACSE1414-.LLSDACSB1414
 11076              	.LLSDACSB1414:
 11077 0794 18       		.uleb128 .LEHB269-.LFB1414
 11078 0795 05       		.uleb128 .LEHE269-.LEHB269
 11079 0796 2B       		.uleb128 .L553-.LFB1414
 11080 0797 00       		.uleb128 0
 11081 0798 44       		.uleb128 .LEHB270-.LFB1414
 11082 0799 05       		.uleb128 .LEHE270-.LEHB270
 11083 079a 00       		.uleb128 0
 11084 079b 00       		.uleb128 0
 11085              	.LLSDACSE1414:
 11086              		.text
 11088              		.section	.data.rel.ro.local
 11089              		.align 8
 11092              	_ZTVN12_GLOBAL__N_145TestTestAddedWithTEST_EXMacroGetsDefaultSuiteE:
 11093 0140 00000000 		.quad	0
 11093      00000000 
 11094 0148 00000000 		.quad	_ZTIN12_GLOBAL__N_145TestTestAddedWithTEST_EXMacroGetsDefaultSuiteE
 11094      00000000 
 11095 0150 00000000 		.quad	_ZN12_GLOBAL__N_145TestTestAddedWithTEST_EXMacroGetsDefaultSuiteD1Ev
 11095      00000000 
 11096 0158 00000000 		.quad	_ZN12_GLOBAL__N_145TestTestAddedWithTEST_EXMacroGetsDefaultSuiteD0Ev
 11096      00000000 
 11097 0160 00000000 		.quad	_ZNK12_GLOBAL__N_145TestTestAddedWithTEST_EXMacroGetsDefaultSuite7RunImplEv
 11097      00000000 
 11098              		.text
 11099 4b49 90       		.align 2
 11101              	_ZN12_GLOBAL__N_145TestTestAddedWithTEST_EXMacroGetsDefaultSuiteD2Ev:
 11102              	.LFB1416:
  88:TestTestMacros.cpp **** {
 11103              		.loc 6 88 1 is_stmt 1
 11104              		.cfi_startproc
 11105 4b4a F30F1EFA 		endbr64
 11106 4b4e 55       		pushq	%rbp
 11107              		.cfi_def_cfa_offset 16
 11108              		.cfi_offset 6, -16
 11109 4b4f 4889E5   		movq	%rsp, %rbp
 11110              		.cfi_def_cfa_register 6
 11111 4b52 4883EC10 		subq	$16, %rsp
 11112 4b56 48897DF8 		movq	%rdi, -8(%rbp)
 11113              	.LBB168:
  88:TestTestMacros.cpp **** {
 11114              		.loc 6 88 1
 11115 4b5a 488D1500 		leaq	16+_ZTVN12_GLOBAL__N_145TestTestAddedWithTEST_EXMacroGetsDefaultSuiteE(%rip), %rdx
 11115      000000
 11116 4b61 488B45F8 		movq	-8(%rbp), %rax
 11117 4b65 488910   		movq	%rdx, (%rax)
 11118 4b68 488B45F8 		movq	-8(%rbp), %rax
 11119 4b6c 4889C7   		movq	%rax, %rdi
 11120 4b6f E8000000 		call	_ZN8UnitTest4TestD2Ev@PLT
 11120      00
 11121              	.LBE168:
 11122 4b74 90       		nop
 11123 4b75 C9       		leave
 11124              		.cfi_def_cfa 7, 8
 11125 4b76 C3       		ret
 11126              		.cfi_endproc
 11127              	.LFE1416:
 11129              		.set	_ZN12_GLOBAL__N_145TestTestAddedWithTEST_EXMacroGetsDefaultSuiteD1Ev,_ZN12_GLOBAL__N_145TestT
 11130 4b77 90       		.align 2
 11132              	_ZN12_GLOBAL__N_145TestTestAddedWithTEST_EXMacroGetsDefaultSuiteD0Ev:
 11133              	.LFB1418:
  88:TestTestMacros.cpp **** {
 11134              		.loc 6 88 1
 11135              		.cfi_startproc
 11136              		.cfi_personality 0x9b,DW.ref.__gxx_personality_v0
 11137              		.cfi_lsda 0x1b,.LLSDA1418
 11138 4b78 F30F1EFA 		endbr64
 11139 4b7c 55       		pushq	%rbp
 11140              		.cfi_def_cfa_offset 16
 11141              		.cfi_offset 6, -16
 11142 4b7d 4889E5   		movq	%rsp, %rbp
 11143              		.cfi_def_cfa_register 6
 11144 4b80 53       		pushq	%rbx
 11145 4b81 4883EC18 		subq	$24, %rsp
 11146              		.cfi_offset 3, -24
 11147 4b85 48897DE8 		movq	%rdi, -24(%rbp)
  88:TestTestMacros.cpp **** {
 11148              		.loc 6 88 1
 11149 4b89 488B45E8 		movq	-24(%rbp), %rax
 11150 4b8d 4889C7   		movq	%rax, %rdi
 11151              	.LEHB271:
 11152 4b90 E8B5FFFF 		call	_ZN12_GLOBAL__N_145TestTestAddedWithTEST_EXMacroGetsDefaultSuiteD1Ev
 11152      FF
 11153              	.LEHE271:
  88:TestTestMacros.cpp **** {
 11154              		.loc 6 88 1 is_stmt 0 discriminator 2
 11155 4b95 488B45E8 		movq	-24(%rbp), %rax
 11156 4b99 4889C7   		movq	%rax, %rdi
 11157 4b9c E8000000 		call	_ZdlPv@PLT
 11157      00
 11158 4ba1 EB1E     		jmp	.L559
 11159              	.L558:
 11160 4ba3 F30F1EFA 		endbr64
  88:TestTestMacros.cpp **** {
 11161              		.loc 6 88 1
 11162 4ba7 4889C3   		movq	%rax, %rbx
 11163 4baa 488B45E8 		movq	-24(%rbp), %rax
 11164 4bae 4889C7   		movq	%rax, %rdi
 11165 4bb1 E8000000 		call	_ZdlPv@PLT
 11165      00
 11166 4bb6 4889D8   		movq	%rbx, %rax
 11167 4bb9 4889C7   		movq	%rax, %rdi
 11168              	.LEHB272:
 11169 4bbc E8000000 		call	_Unwind_Resume@PLT
 11169      00
 11170              	.LEHE272:
 11171              	.L559:
 11172 4bc1 488B5DF8 		movq	-8(%rbp), %rbx
 11173 4bc5 C9       		leave
 11174              		.cfi_def_cfa 7, 8
 11175 4bc6 C3       		ret
 11176              		.cfi_endproc
 11177              	.LFE1418:
 11178              		.section	.gcc_except_table
 11179              	.LLSDA1418:
 11180 079c FF       		.byte	0xff
 11181 079d FF       		.byte	0xff
 11182 079e 01       		.byte	0x1
 11183 079f 08       		.uleb128 .LLSDACSE1418-.LLSDACSB1418
 11184              	.LLSDACSB1418:
 11185 07a0 18       		.uleb128 .LEHB271-.LFB1418
 11186 07a1 05       		.uleb128 .LEHE271-.LEHB271
 11187 07a2 2B       		.uleb128 .L558-.LFB1418
 11188 07a3 00       		.uleb128 0
 11189 07a4 44       		.uleb128 .LEHB272-.LFB1418
 11190 07a5 05       		.uleb128 .LEHE272-.LEHB272
 11191 07a6 00       		.uleb128 0
 11192 07a7 00       		.uleb128 0
 11193              	.LLSDACSE1418:
 11194              		.text
 11196              		.section	.data.rel.ro.local
 11197              		.align 8
 11200              	_ZTVN12_GLOBAL__N_120TestMacroTestHelper1E:
 11201 0168 00000000 		.quad	0
 11201      00000000 
 11202 0170 00000000 		.quad	_ZTIN12_GLOBAL__N_120TestMacroTestHelper1E
 11202      00000000 
 11203 0178 00000000 		.quad	_ZN12_GLOBAL__N_120TestMacroTestHelper1D1Ev
 11203      00000000 
 11204 0180 00000000 		.quad	_ZN12_GLOBAL__N_120TestMacroTestHelper1D0Ev
 11204      00000000 
 11205 0188 00000000 		.quad	_ZNK12_GLOBAL__N_120TestMacroTestHelper17RunImplEv
 11205      00000000 
 11206              		.text
 11207 4bc7 90       		.align 2
 11209              	_ZN12_GLOBAL__N_120TestMacroTestHelper1D2Ev:
 11210              	.LFB1420:
  84:TestTestMacros.cpp **** {
 11211              		.loc 6 84 1 is_stmt 1
 11212              		.cfi_startproc
 11213 4bc8 F30F1EFA 		endbr64
 11214 4bcc 55       		pushq	%rbp
 11215              		.cfi_def_cfa_offset 16
 11216              		.cfi_offset 6, -16
 11217 4bcd 4889E5   		movq	%rsp, %rbp
 11218              		.cfi_def_cfa_register 6
 11219 4bd0 4883EC10 		subq	$16, %rsp
 11220 4bd4 48897DF8 		movq	%rdi, -8(%rbp)
 11221              	.LBB169:
  84:TestTestMacros.cpp **** {
 11222              		.loc 6 84 1
 11223 4bd8 488D1500 		leaq	16+_ZTVN12_GLOBAL__N_120TestMacroTestHelper1E(%rip), %rdx
 11223      000000
 11224 4bdf 488B45F8 		movq	-8(%rbp), %rax
 11225 4be3 488910   		movq	%rdx, (%rax)
 11226 4be6 488B45F8 		movq	-8(%rbp), %rax
 11227 4bea 4889C7   		movq	%rax, %rdi
 11228 4bed E8000000 		call	_ZN8UnitTest4TestD2Ev@PLT
 11228      00
 11229              	.LBE169:
 11230 4bf2 90       		nop
 11231 4bf3 C9       		leave
 11232              		.cfi_def_cfa 7, 8
 11233 4bf4 C3       		ret
 11234              		.cfi_endproc
 11235              	.LFE1420:
 11237              		.set	_ZN12_GLOBAL__N_120TestMacroTestHelper1D1Ev,_ZN12_GLOBAL__N_120TestMacroTestHelper1D2Ev
 11238 4bf5 90       		.align 2
 11240              	_ZN12_GLOBAL__N_120TestMacroTestHelper1D0Ev:
 11241              	.LFB1422:
  84:TestTestMacros.cpp **** {
 11242              		.loc 6 84 1
 11243              		.cfi_startproc
 11244              		.cfi_personality 0x9b,DW.ref.__gxx_personality_v0
 11245              		.cfi_lsda 0x1b,.LLSDA1422
 11246 4bf6 F30F1EFA 		endbr64
 11247 4bfa 55       		pushq	%rbp
 11248              		.cfi_def_cfa_offset 16
 11249              		.cfi_offset 6, -16
 11250 4bfb 4889E5   		movq	%rsp, %rbp
 11251              		.cfi_def_cfa_register 6
 11252 4bfe 53       		pushq	%rbx
 11253 4bff 4883EC18 		subq	$24, %rsp
 11254              		.cfi_offset 3, -24
 11255 4c03 48897DE8 		movq	%rdi, -24(%rbp)
  84:TestTestMacros.cpp **** {
 11256              		.loc 6 84 1
 11257 4c07 488B45E8 		movq	-24(%rbp), %rax
 11258 4c0b 4889C7   		movq	%rax, %rdi
 11259              	.LEHB273:
 11260 4c0e E8B5FFFF 		call	_ZN12_GLOBAL__N_120TestMacroTestHelper1D1Ev
 11260      FF
 11261              	.LEHE273:
  84:TestTestMacros.cpp **** {
 11262              		.loc 6 84 1 is_stmt 0 discriminator 2
 11263 4c13 488B45E8 		movq	-24(%rbp), %rax
 11264 4c17 4889C7   		movq	%rax, %rdi
 11265 4c1a E8000000 		call	_ZdlPv@PLT
 11265      00
 11266 4c1f EB1E     		jmp	.L564
 11267              	.L563:
 11268 4c21 F30F1EFA 		endbr64
  84:TestTestMacros.cpp **** {
 11269              		.loc 6 84 1
 11270 4c25 4889C3   		movq	%rax, %rbx
 11271 4c28 488B45E8 		movq	-24(%rbp), %rax
 11272 4c2c 4889C7   		movq	%rax, %rdi
 11273 4c2f E8000000 		call	_ZdlPv@PLT
 11273      00
 11274 4c34 4889D8   		movq	%rbx, %rax
 11275 4c37 4889C7   		movq	%rax, %rdi
 11276              	.LEHB274:
 11277 4c3a E8000000 		call	_Unwind_Resume@PLT
 11277      00
 11278              	.LEHE274:
 11279              	.L564:
 11280 4c3f 488B5DF8 		movq	-8(%rbp), %rbx
 11281 4c43 C9       		leave
 11282              		.cfi_def_cfa 7, 8
 11283 4c44 C3       		ret
 11284              		.cfi_endproc
 11285              	.LFE1422:
 11286              		.section	.gcc_except_table
 11287              	.LLSDA1422:
 11288 07a8 FF       		.byte	0xff
 11289 07a9 FF       		.byte	0xff
 11290 07aa 01       		.byte	0x1
 11291 07ab 08       		.uleb128 .LLSDACSE1422-.LLSDACSB1422
 11292              	.LLSDACSB1422:
 11293 07ac 18       		.uleb128 .LEHB273-.LFB1422
 11294 07ad 05       		.uleb128 .LEHE273-.LEHB273
 11295 07ae 2B       		.uleb128 .L563-.LFB1422
 11296 07af 00       		.uleb128 0
 11297 07b0 44       		.uleb128 .LEHB274-.LFB1422
 11298 07b1 05       		.uleb128 .LEHE274-.LEHB274
 11299 07b2 00       		.uleb128 0
 11300 07b3 00       		.uleb128 0
 11301              	.LLSDACSE1422:
 11302              		.text
 11304              		.section	.data.rel.ro.local
 11305              		.align 8
 11308              	_ZTVN12_GLOBAL__N_115SuiteTestSuite263TestDummyFixtureSimilarlyNamedFixtureTestsInDifferentSuitesWo
 11309 0190 00000000 		.quad	0
 11309      00000000 
 11310 0198 00000000 		.quad	_ZTIN12_GLOBAL__N_115SuiteTestSuite263TestDummyFixtureSimilarlyNamedFixtureTestsInDifferentS
 11310      00000000 
 11311 01a0 00000000 		.quad	_ZN12_GLOBAL__N_115SuiteTestSuite263TestDummyFixtureSimilarlyNamedFixtureTestsInDifferentSui
 11311      00000000 
 11312 01a8 00000000 		.quad	_ZN12_GLOBAL__N_115SuiteTestSuite263TestDummyFixtureSimilarlyNamedFixtureTestsInDifferentSui
 11312      00000000 
 11313 01b0 00000000 		.quad	_ZNK12_GLOBAL__N_115SuiteTestSuite263TestDummyFixtureSimilarlyNamedFixtureTestsInDifferentSu
 11313      00000000 
 11314              		.text
 11315 4c45 90       		.align 2
 11317              	_ZN12_GLOBAL__N_115SuiteTestSuite263TestDummyFixtureSimilarlyNamedFixtureTestsInDifferentSuitesWork
 11318              	.LFB1424:
  78:TestTestMacros.cpp **** 	{
 11319              		.loc 6 78 2 is_stmt 1
 11320              		.cfi_startproc
 11321 4c46 F30F1EFA 		endbr64
 11322 4c4a 55       		pushq	%rbp
 11323              		.cfi_def_cfa_offset 16
 11324              		.cfi_offset 6, -16
 11325 4c4b 4889E5   		movq	%rsp, %rbp
 11326              		.cfi_def_cfa_register 6
 11327 4c4e 4883EC10 		subq	$16, %rsp
 11328 4c52 48897DF8 		movq	%rdi, -8(%rbp)
 11329              	.LBB170:
  78:TestTestMacros.cpp **** 	{
 11330              		.loc 6 78 2
 11331 4c56 488D1500 		leaq	16+_ZTVN12_GLOBAL__N_115SuiteTestSuite263TestDummyFixtureSimilarlyNamedFixtureTestsInDifferen
 11331      000000
 11332 4c5d 488B45F8 		movq	-8(%rbp), %rax
 11333 4c61 488910   		movq	%rdx, (%rax)
 11334 4c64 488B45F8 		movq	-8(%rbp), %rax
 11335 4c68 4889C7   		movq	%rax, %rdi
 11336 4c6b E8000000 		call	_ZN8UnitTest4TestD2Ev@PLT
 11336      00
 11337              	.LBE170:
 11338 4c70 90       		nop
 11339 4c71 C9       		leave
 11340              		.cfi_def_cfa 7, 8
 11341 4c72 C3       		ret
 11342              		.cfi_endproc
 11343              	.LFE1424:
 11345              		.set	_ZN12_GLOBAL__N_115SuiteTestSuite263TestDummyFixtureSimilarlyNamedFixtureTestsInDifferentSuit
 11346 4c73 90       		.align 2
 11348              	_ZN12_GLOBAL__N_115SuiteTestSuite263TestDummyFixtureSimilarlyNamedFixtureTestsInDifferentSuitesWork
 11349              	.LFB1426:
  78:TestTestMacros.cpp **** 	{
 11350              		.loc 6 78 2
 11351              		.cfi_startproc
 11352              		.cfi_personality 0x9b,DW.ref.__gxx_personality_v0
 11353              		.cfi_lsda 0x1b,.LLSDA1426
 11354 4c74 F30F1EFA 		endbr64
 11355 4c78 55       		pushq	%rbp
 11356              		.cfi_def_cfa_offset 16
 11357              		.cfi_offset 6, -16
 11358 4c79 4889E5   		movq	%rsp, %rbp
 11359              		.cfi_def_cfa_register 6
 11360 4c7c 53       		pushq	%rbx
 11361 4c7d 4883EC18 		subq	$24, %rsp
 11362              		.cfi_offset 3, -24
 11363 4c81 48897DE8 		movq	%rdi, -24(%rbp)
  78:TestTestMacros.cpp **** 	{
 11364              		.loc 6 78 2
 11365 4c85 488B45E8 		movq	-24(%rbp), %rax
 11366 4c89 4889C7   		movq	%rax, %rdi
 11367              	.LEHB275:
 11368 4c8c E8B5FFFF 		call	_ZN12_GLOBAL__N_115SuiteTestSuite263TestDummyFixtureSimilarlyNamedFixtureTestsInDifferentSuit
 11368      FF
 11369              	.LEHE275:
  78:TestTestMacros.cpp **** 	{
 11370              		.loc 6 78 2 is_stmt 0 discriminator 2
 11371 4c91 488B45E8 		movq	-24(%rbp), %rax
 11372 4c95 4889C7   		movq	%rax, %rdi
 11373 4c98 E8000000 		call	_ZdlPv@PLT
 11373      00
 11374 4c9d EB1E     		jmp	.L569
 11375              	.L568:
 11376 4c9f F30F1EFA 		endbr64
  78:TestTestMacros.cpp **** 	{
 11377              		.loc 6 78 2
 11378 4ca3 4889C3   		movq	%rax, %rbx
 11379 4ca6 488B45E8 		movq	-24(%rbp), %rax
 11380 4caa 4889C7   		movq	%rax, %rdi
 11381 4cad E8000000 		call	_ZdlPv@PLT
 11381      00
 11382 4cb2 4889D8   		movq	%rbx, %rax
 11383 4cb5 4889C7   		movq	%rax, %rdi
 11384              	.LEHB276:
 11385 4cb8 E8000000 		call	_Unwind_Resume@PLT
 11385      00
 11386              	.LEHE276:
 11387              	.L569:
 11388 4cbd 488B5DF8 		movq	-8(%rbp), %rbx
 11389 4cc1 C9       		leave
 11390              		.cfi_def_cfa 7, 8
 11391 4cc2 C3       		ret
 11392              		.cfi_endproc
 11393              	.LFE1426:
 11394              		.section	.gcc_except_table
 11395              	.LLSDA1426:
 11396 07b4 FF       		.byte	0xff
 11397 07b5 FF       		.byte	0xff
 11398 07b6 01       		.byte	0x1
 11399 07b7 08       		.uleb128 .LLSDACSE1426-.LLSDACSB1426
 11400              	.LLSDACSB1426:
 11401 07b8 18       		.uleb128 .LEHB275-.LFB1426
 11402 07b9 05       		.uleb128 .LEHE275-.LEHB275
 11403 07ba 2B       		.uleb128 .L568-.LFB1426
 11404 07bb 00       		.uleb128 0
 11405 07bc 44       		.uleb128 .LEHB276-.LFB1426
 11406 07bd 05       		.uleb128 .LEHE276-.LEHB276
 11407 07be 00       		.uleb128 0
 11408 07bf 00       		.uleb128 0
 11409              	.LLSDACSE1426:
 11410              		.text
 11412              		.section	.data.rel.ro.local
 11413              		.align 8
 11416              	_ZTVN12_GLOBAL__N_115SuiteTestSuite244TestSimilarlyNamedTestsInDifferentSuitesWorkE:
 11417 01b8 00000000 		.quad	0
 11417      00000000 
 11418 01c0 00000000 		.quad	_ZTIN12_GLOBAL__N_115SuiteTestSuite244TestSimilarlyNamedTestsInDifferentSuitesWorkE
 11418      00000000 
 11419 01c8 00000000 		.quad	_ZN12_GLOBAL__N_115SuiteTestSuite244TestSimilarlyNamedTestsInDifferentSuitesWorkD1Ev
 11419      00000000 
 11420 01d0 00000000 		.quad	_ZN12_GLOBAL__N_115SuiteTestSuite244TestSimilarlyNamedTestsInDifferentSuitesWorkD0Ev
 11420      00000000 
 11421 01d8 00000000 		.quad	_ZNK12_GLOBAL__N_115SuiteTestSuite244TestSimilarlyNamedTestsInDifferentSuitesWork7RunImplEv
 11421      00000000 
 11422              		.text
 11423 4cc3 90       		.align 2
 11425              	_ZN12_GLOBAL__N_115SuiteTestSuite244TestSimilarlyNamedTestsInDifferentSuitesWorkD2Ev:
 11426              	.LFB1428:
  74:TestTestMacros.cpp **** 	{
 11427              		.loc 6 74 2 is_stmt 1
 11428              		.cfi_startproc
 11429 4cc4 F30F1EFA 		endbr64
 11430 4cc8 55       		pushq	%rbp
 11431              		.cfi_def_cfa_offset 16
 11432              		.cfi_offset 6, -16
 11433 4cc9 4889E5   		movq	%rsp, %rbp
 11434              		.cfi_def_cfa_register 6
 11435 4ccc 4883EC10 		subq	$16, %rsp
 11436 4cd0 48897DF8 		movq	%rdi, -8(%rbp)
 11437              	.LBB171:
  74:TestTestMacros.cpp **** 	{
 11438              		.loc 6 74 2
 11439 4cd4 488D1500 		leaq	16+_ZTVN12_GLOBAL__N_115SuiteTestSuite244TestSimilarlyNamedTestsInDifferentSuitesWorkE(%rip),
 11439      000000
 11440 4cdb 488B45F8 		movq	-8(%rbp), %rax
 11441 4cdf 488910   		movq	%rdx, (%rax)
 11442 4ce2 488B45F8 		movq	-8(%rbp), %rax
 11443 4ce6 4889C7   		movq	%rax, %rdi
 11444 4ce9 E8000000 		call	_ZN8UnitTest4TestD2Ev@PLT
 11444      00
 11445              	.LBE171:
 11446 4cee 90       		nop
 11447 4cef C9       		leave
 11448              		.cfi_def_cfa 7, 8
 11449 4cf0 C3       		ret
 11450              		.cfi_endproc
 11451              	.LFE1428:
 11453              		.set	_ZN12_GLOBAL__N_115SuiteTestSuite244TestSimilarlyNamedTestsInDifferentSuitesWorkD1Ev,_ZN12_GL
 11454 4cf1 90       		.align 2
 11456              	_ZN12_GLOBAL__N_115SuiteTestSuite244TestSimilarlyNamedTestsInDifferentSuitesWorkD0Ev:
 11457              	.LFB1430:
  74:TestTestMacros.cpp **** 	{
 11458              		.loc 6 74 2
 11459              		.cfi_startproc
 11460              		.cfi_personality 0x9b,DW.ref.__gxx_personality_v0
 11461              		.cfi_lsda 0x1b,.LLSDA1430
 11462 4cf2 F30F1EFA 		endbr64
 11463 4cf6 55       		pushq	%rbp
 11464              		.cfi_def_cfa_offset 16
 11465              		.cfi_offset 6, -16
 11466 4cf7 4889E5   		movq	%rsp, %rbp
 11467              		.cfi_def_cfa_register 6
 11468 4cfa 53       		pushq	%rbx
 11469 4cfb 4883EC18 		subq	$24, %rsp
 11470              		.cfi_offset 3, -24
 11471 4cff 48897DE8 		movq	%rdi, -24(%rbp)
  74:TestTestMacros.cpp **** 	{
 11472              		.loc 6 74 2
 11473 4d03 488B45E8 		movq	-24(%rbp), %rax
 11474 4d07 4889C7   		movq	%rax, %rdi
 11475              	.LEHB277:
 11476 4d0a E8B5FFFF 		call	_ZN12_GLOBAL__N_115SuiteTestSuite244TestSimilarlyNamedTestsInDifferentSuitesWorkD1Ev
 11476      FF
 11477              	.LEHE277:
  74:TestTestMacros.cpp **** 	{
 11478              		.loc 6 74 2 is_stmt 0 discriminator 2
 11479 4d0f 488B45E8 		movq	-24(%rbp), %rax
 11480 4d13 4889C7   		movq	%rax, %rdi
 11481 4d16 E8000000 		call	_ZdlPv@PLT
 11481      00
 11482 4d1b EB1E     		jmp	.L574
 11483              	.L573:
 11484 4d1d F30F1EFA 		endbr64
  74:TestTestMacros.cpp **** 	{
 11485              		.loc 6 74 2
 11486 4d21 4889C3   		movq	%rax, %rbx
 11487 4d24 488B45E8 		movq	-24(%rbp), %rax
 11488 4d28 4889C7   		movq	%rax, %rdi
 11489 4d2b E8000000 		call	_ZdlPv@PLT
 11489      00
 11490 4d30 4889D8   		movq	%rbx, %rax
 11491 4d33 4889C7   		movq	%rax, %rdi
 11492              	.LEHB278:
 11493 4d36 E8000000 		call	_Unwind_Resume@PLT
 11493      00
 11494              	.LEHE278:
 11495              	.L574:
 11496 4d3b 488B5DF8 		movq	-8(%rbp), %rbx
 11497 4d3f C9       		leave
 11498              		.cfi_def_cfa 7, 8
 11499 4d40 C3       		ret
 11500              		.cfi_endproc
 11501              	.LFE1430:
 11502              		.section	.gcc_except_table
 11503              	.LLSDA1430:
 11504 07c0 FF       		.byte	0xff
 11505 07c1 FF       		.byte	0xff
 11506 07c2 01       		.byte	0x1
 11507 07c3 08       		.uleb128 .LLSDACSE1430-.LLSDACSB1430
 11508              	.LLSDACSB1430:
 11509 07c4 18       		.uleb128 .LEHB277-.LFB1430
 11510 07c5 05       		.uleb128 .LEHE277-.LEHB277
 11511 07c6 2B       		.uleb128 .L573-.LFB1430
 11512 07c7 00       		.uleb128 0
 11513 07c8 44       		.uleb128 .LEHB278-.LFB1430
 11514 07c9 05       		.uleb128 .LEHE278-.LEHB278
 11515 07ca 00       		.uleb128 0
 11516 07cb 00       		.uleb128 0
 11517              	.LLSDACSE1430:
 11518              		.text
 11520              		.section	.data.rel.ro.local
 11521              		.align 8
 11524              	_ZTVN12_GLOBAL__N_115SuiteTestSuite163TestDummyFixtureSimilarlyNamedFixtureTestsInDifferentSuitesWo
 11525 01e0 00000000 		.quad	0
 11525      00000000 
 11526 01e8 00000000 		.quad	_ZTIN12_GLOBAL__N_115SuiteTestSuite163TestDummyFixtureSimilarlyNamedFixtureTestsInDifferentS
 11526      00000000 
 11527 01f0 00000000 		.quad	_ZN12_GLOBAL__N_115SuiteTestSuite163TestDummyFixtureSimilarlyNamedFixtureTestsInDifferentSui
 11527      00000000 
 11528 01f8 00000000 		.quad	_ZN12_GLOBAL__N_115SuiteTestSuite163TestDummyFixtureSimilarlyNamedFixtureTestsInDifferentSui
 11528      00000000 
 11529 0200 00000000 		.quad	_ZNK12_GLOBAL__N_115SuiteTestSuite163TestDummyFixtureSimilarlyNamedFixtureTestsInDifferentSu
 11529      00000000 
 11530              		.text
 11531 4d41 90       		.align 2
 11533              	_ZN12_GLOBAL__N_115SuiteTestSuite163TestDummyFixtureSimilarlyNamedFixtureTestsInDifferentSuitesWork
 11534              	.LFB1432:
  67:TestTestMacros.cpp **** 	{
 11535              		.loc 6 67 2 is_stmt 1
 11536              		.cfi_startproc
 11537 4d42 F30F1EFA 		endbr64
 11538 4d46 55       		pushq	%rbp
 11539              		.cfi_def_cfa_offset 16
 11540              		.cfi_offset 6, -16
 11541 4d47 4889E5   		movq	%rsp, %rbp
 11542              		.cfi_def_cfa_register 6
 11543 4d4a 4883EC10 		subq	$16, %rsp
 11544 4d4e 48897DF8 		movq	%rdi, -8(%rbp)
 11545              	.LBB172:
  67:TestTestMacros.cpp **** 	{
 11546              		.loc 6 67 2
 11547 4d52 488D1500 		leaq	16+_ZTVN12_GLOBAL__N_115SuiteTestSuite163TestDummyFixtureSimilarlyNamedFixtureTestsInDifferen
 11547      000000
 11548 4d59 488B45F8 		movq	-8(%rbp), %rax
 11549 4d5d 488910   		movq	%rdx, (%rax)
 11550 4d60 488B45F8 		movq	-8(%rbp), %rax
 11551 4d64 4889C7   		movq	%rax, %rdi
 11552 4d67 E8000000 		call	_ZN8UnitTest4TestD2Ev@PLT
 11552      00
 11553              	.LBE172:
 11554 4d6c 90       		nop
 11555 4d6d C9       		leave
 11556              		.cfi_def_cfa 7, 8
 11557 4d6e C3       		ret
 11558              		.cfi_endproc
 11559              	.LFE1432:
 11561              		.set	_ZN12_GLOBAL__N_115SuiteTestSuite163TestDummyFixtureSimilarlyNamedFixtureTestsInDifferentSuit
 11562 4d6f 90       		.align 2
 11564              	_ZN12_GLOBAL__N_115SuiteTestSuite163TestDummyFixtureSimilarlyNamedFixtureTestsInDifferentSuitesWork
 11565              	.LFB1434:
  67:TestTestMacros.cpp **** 	{
 11566              		.loc 6 67 2
 11567              		.cfi_startproc
 11568              		.cfi_personality 0x9b,DW.ref.__gxx_personality_v0
 11569              		.cfi_lsda 0x1b,.LLSDA1434
 11570 4d70 F30F1EFA 		endbr64
 11571 4d74 55       		pushq	%rbp
 11572              		.cfi_def_cfa_offset 16
 11573              		.cfi_offset 6, -16
 11574 4d75 4889E5   		movq	%rsp, %rbp
 11575              		.cfi_def_cfa_register 6
 11576 4d78 53       		pushq	%rbx
 11577 4d79 4883EC18 		subq	$24, %rsp
 11578              		.cfi_offset 3, -24
 11579 4d7d 48897DE8 		movq	%rdi, -24(%rbp)
  67:TestTestMacros.cpp **** 	{
 11580              		.loc 6 67 2
 11581 4d81 488B45E8 		movq	-24(%rbp), %rax
 11582 4d85 4889C7   		movq	%rax, %rdi
 11583              	.LEHB279:
 11584 4d88 E8B5FFFF 		call	_ZN12_GLOBAL__N_115SuiteTestSuite163TestDummyFixtureSimilarlyNamedFixtureTestsInDifferentSuit
 11584      FF
 11585              	.LEHE279:
  67:TestTestMacros.cpp **** 	{
 11586              		.loc 6 67 2 is_stmt 0 discriminator 2
 11587 4d8d 488B45E8 		movq	-24(%rbp), %rax
 11588 4d91 4889C7   		movq	%rax, %rdi
 11589 4d94 E8000000 		call	_ZdlPv@PLT
 11589      00
 11590 4d99 EB1E     		jmp	.L579
 11591              	.L578:
 11592 4d9b F30F1EFA 		endbr64
  67:TestTestMacros.cpp **** 	{
 11593              		.loc 6 67 2
 11594 4d9f 4889C3   		movq	%rax, %rbx
 11595 4da2 488B45E8 		movq	-24(%rbp), %rax
 11596 4da6 4889C7   		movq	%rax, %rdi
 11597 4da9 E8000000 		call	_ZdlPv@PLT
 11597      00
 11598 4dae 4889D8   		movq	%rbx, %rax
 11599 4db1 4889C7   		movq	%rax, %rdi
 11600              	.LEHB280:
 11601 4db4 E8000000 		call	_Unwind_Resume@PLT
 11601      00
 11602              	.LEHE280:
 11603              	.L579:
 11604 4db9 488B5DF8 		movq	-8(%rbp), %rbx
 11605 4dbd C9       		leave
 11606              		.cfi_def_cfa 7, 8
 11607 4dbe C3       		ret
 11608              		.cfi_endproc
 11609              	.LFE1434:
 11610              		.section	.gcc_except_table
 11611              	.LLSDA1434:
 11612 07cc FF       		.byte	0xff
 11613 07cd FF       		.byte	0xff
 11614 07ce 01       		.byte	0x1
 11615 07cf 08       		.uleb128 .LLSDACSE1434-.LLSDACSB1434
 11616              	.LLSDACSB1434:
 11617 07d0 18       		.uleb128 .LEHB279-.LFB1434
 11618 07d1 05       		.uleb128 .LEHE279-.LEHB279
 11619 07d2 2B       		.uleb128 .L578-.LFB1434
 11620 07d3 00       		.uleb128 0
 11621 07d4 44       		.uleb128 .LEHB280-.LFB1434
 11622 07d5 05       		.uleb128 .LEHE280-.LEHB280
 11623 07d6 00       		.uleb128 0
 11624 07d7 00       		.uleb128 0
 11625              	.LLSDACSE1434:
 11626              		.text
 11628              		.section	.data.rel.ro.local
 11629              		.align 8
 11632              	_ZTVN12_GLOBAL__N_115SuiteTestSuite144TestSimilarlyNamedTestsInDifferentSuitesWorkE:
 11633 0208 00000000 		.quad	0
 11633      00000000 
 11634 0210 00000000 		.quad	_ZTIN12_GLOBAL__N_115SuiteTestSuite144TestSimilarlyNamedTestsInDifferentSuitesWorkE
 11634      00000000 
 11635 0218 00000000 		.quad	_ZN12_GLOBAL__N_115SuiteTestSuite144TestSimilarlyNamedTestsInDifferentSuitesWorkD1Ev
 11635      00000000 
 11636 0220 00000000 		.quad	_ZN12_GLOBAL__N_115SuiteTestSuite144TestSimilarlyNamedTestsInDifferentSuitesWorkD0Ev
 11636      00000000 
 11637 0228 00000000 		.quad	_ZNK12_GLOBAL__N_115SuiteTestSuite144TestSimilarlyNamedTestsInDifferentSuitesWork7RunImplEv
 11637      00000000 
 11638              		.text
 11639 4dbf 90       		.align 2
 11641              	_ZN12_GLOBAL__N_115SuiteTestSuite144TestSimilarlyNamedTestsInDifferentSuitesWorkD2Ev:
 11642              	.LFB1436:
  63:TestTestMacros.cpp **** 	{
 11643              		.loc 6 63 2 is_stmt 1
 11644              		.cfi_startproc
 11645 4dc0 F30F1EFA 		endbr64
 11646 4dc4 55       		pushq	%rbp
 11647              		.cfi_def_cfa_offset 16
 11648              		.cfi_offset 6, -16
 11649 4dc5 4889E5   		movq	%rsp, %rbp
 11650              		.cfi_def_cfa_register 6
 11651 4dc8 4883EC10 		subq	$16, %rsp
 11652 4dcc 48897DF8 		movq	%rdi, -8(%rbp)
 11653              	.LBB173:
  63:TestTestMacros.cpp **** 	{
 11654              		.loc 6 63 2
 11655 4dd0 488D1500 		leaq	16+_ZTVN12_GLOBAL__N_115SuiteTestSuite144TestSimilarlyNamedTestsInDifferentSuitesWorkE(%rip),
 11655      000000
 11656 4dd7 488B45F8 		movq	-8(%rbp), %rax
 11657 4ddb 488910   		movq	%rdx, (%rax)
 11658 4dde 488B45F8 		movq	-8(%rbp), %rax
 11659 4de2 4889C7   		movq	%rax, %rdi
 11660 4de5 E8000000 		call	_ZN8UnitTest4TestD2Ev@PLT
 11660      00
 11661              	.LBE173:
 11662 4dea 90       		nop
 11663 4deb C9       		leave
 11664              		.cfi_def_cfa 7, 8
 11665 4dec C3       		ret
 11666              		.cfi_endproc
 11667              	.LFE1436:
 11669              		.set	_ZN12_GLOBAL__N_115SuiteTestSuite144TestSimilarlyNamedTestsInDifferentSuitesWorkD1Ev,_ZN12_GL
 11670 4ded 90       		.align 2
 11672              	_ZN12_GLOBAL__N_115SuiteTestSuite144TestSimilarlyNamedTestsInDifferentSuitesWorkD0Ev:
 11673              	.LFB1438:
  63:TestTestMacros.cpp **** 	{
 11674              		.loc 6 63 2
 11675              		.cfi_startproc
 11676              		.cfi_personality 0x9b,DW.ref.__gxx_personality_v0
 11677              		.cfi_lsda 0x1b,.LLSDA1438
 11678 4dee F30F1EFA 		endbr64
 11679 4df2 55       		pushq	%rbp
 11680              		.cfi_def_cfa_offset 16
 11681              		.cfi_offset 6, -16
 11682 4df3 4889E5   		movq	%rsp, %rbp
 11683              		.cfi_def_cfa_register 6
 11684 4df6 53       		pushq	%rbx
 11685 4df7 4883EC18 		subq	$24, %rsp
 11686              		.cfi_offset 3, -24
 11687 4dfb 48897DE8 		movq	%rdi, -24(%rbp)
  63:TestTestMacros.cpp **** 	{
 11688              		.loc 6 63 2
 11689 4dff 488B45E8 		movq	-24(%rbp), %rax
 11690 4e03 4889C7   		movq	%rax, %rdi
 11691              	.LEHB281:
 11692 4e06 E8B5FFFF 		call	_ZN12_GLOBAL__N_115SuiteTestSuite144TestSimilarlyNamedTestsInDifferentSuitesWorkD1Ev
 11692      FF
 11693              	.LEHE281:
  63:TestTestMacros.cpp **** 	{
 11694              		.loc 6 63 2 is_stmt 0 discriminator 2
 11695 4e0b 488B45E8 		movq	-24(%rbp), %rax
 11696 4e0f 4889C7   		movq	%rax, %rdi
 11697 4e12 E8000000 		call	_ZdlPv@PLT
 11697      00
 11698 4e17 EB1E     		jmp	.L584
 11699              	.L583:
 11700 4e19 F30F1EFA 		endbr64
  63:TestTestMacros.cpp **** 	{
 11701              		.loc 6 63 2
 11702 4e1d 4889C3   		movq	%rax, %rbx
 11703 4e20 488B45E8 		movq	-24(%rbp), %rax
 11704 4e24 4889C7   		movq	%rax, %rdi
 11705 4e27 E8000000 		call	_ZdlPv@PLT
 11705      00
 11706 4e2c 4889D8   		movq	%rbx, %rax
 11707 4e2f 4889C7   		movq	%rax, %rdi
 11708              	.LEHB282:
 11709 4e32 E8000000 		call	_Unwind_Resume@PLT
 11709      00
 11710              	.LEHE282:
 11711              	.L584:
 11712 4e37 488B5DF8 		movq	-8(%rbp), %rbx
 11713 4e3b C9       		leave
 11714              		.cfi_def_cfa 7, 8
 11715 4e3c C3       		ret
 11716              		.cfi_endproc
 11717              	.LFE1438:
 11718              		.section	.gcc_except_table
 11719              	.LLSDA1438:
 11720 07d8 FF       		.byte	0xff
 11721 07d9 FF       		.byte	0xff
 11722 07da 01       		.byte	0x1
 11723 07db 08       		.uleb128 .LLSDACSE1438-.LLSDACSB1438
 11724              	.LLSDACSB1438:
 11725 07dc 18       		.uleb128 .LEHB281-.LFB1438
 11726 07dd 05       		.uleb128 .LEHE281-.LEHB281
 11727 07de 2B       		.uleb128 .L583-.LFB1438
 11728 07df 00       		.uleb128 0
 11729 07e0 44       		.uleb128 .LEHB282-.LFB1438
 11730 07e1 05       		.uleb128 .LEHE282-.LEHB282
 11731 07e2 00       		.uleb128 0
 11732 07e3 00       		.uleb128 0
 11733              	.LLSDACSE1438:
 11734              		.text
 11736              		.section	.data.rel.ro.local
 11737              		.align 8
 11740              	_ZTVN12_GLOBAL__N_157TestExceptionsInFixtureAreReportedAsHappeningInTheFixtureE:
 11741 0230 00000000 		.quad	0
 11741      00000000 
 11742 0238 00000000 		.quad	_ZTIN12_GLOBAL__N_157TestExceptionsInFixtureAreReportedAsHappeningInTheFixtureE
 11742      00000000 
 11743 0240 00000000 		.quad	_ZN12_GLOBAL__N_157TestExceptionsInFixtureAreReportedAsHappeningInTheFixtureD1Ev
 11743      00000000 
 11744 0248 00000000 		.quad	_ZN12_GLOBAL__N_157TestExceptionsInFixtureAreReportedAsHappeningInTheFixtureD0Ev
 11744      00000000 
 11745 0250 00000000 		.quad	_ZNK12_GLOBAL__N_157TestExceptionsInFixtureAreReportedAsHappeningInTheFixture7RunImplEv
 11745      00000000 
 11746              		.text
 11747 4e3d 90       		.align 2
 11749              	_ZN12_GLOBAL__N_157TestExceptionsInFixtureAreReportedAsHappeningInTheFixtureD2Ev:
 11750              	.LFB1440:
  41:TestTestMacros.cpp **** {
 11751              		.loc 6 41 1 is_stmt 1
 11752              		.cfi_startproc
 11753 4e3e F30F1EFA 		endbr64
 11754 4e42 55       		pushq	%rbp
 11755              		.cfi_def_cfa_offset 16
 11756              		.cfi_offset 6, -16
 11757 4e43 4889E5   		movq	%rsp, %rbp
 11758              		.cfi_def_cfa_register 6
 11759 4e46 4883EC10 		subq	$16, %rsp
 11760 4e4a 48897DF8 		movq	%rdi, -8(%rbp)
 11761              	.LBB174:
  41:TestTestMacros.cpp **** {
 11762              		.loc 6 41 1
 11763 4e4e 488D1500 		leaq	16+_ZTVN12_GLOBAL__N_157TestExceptionsInFixtureAreReportedAsHappeningInTheFixtureE(%rip), %rd
 11763      000000
 11764 4e55 488B45F8 		movq	-8(%rbp), %rax
 11765 4e59 488910   		movq	%rdx, (%rax)
 11766 4e5c 488B45F8 		movq	-8(%rbp), %rax
 11767 4e60 4889C7   		movq	%rax, %rdi
 11768 4e63 E8000000 		call	_ZN8UnitTest4TestD2Ev@PLT
 11768      00
 11769              	.LBE174:
 11770 4e68 90       		nop
 11771 4e69 C9       		leave
 11772              		.cfi_def_cfa 7, 8
 11773 4e6a C3       		ret
 11774              		.cfi_endproc
 11775              	.LFE1440:
 11777              		.set	_ZN12_GLOBAL__N_157TestExceptionsInFixtureAreReportedAsHappeningInTheFixtureD1Ev,_ZN12_GLOBAL
 11778 4e6b 90       		.align 2
 11780              	_ZN12_GLOBAL__N_157TestExceptionsInFixtureAreReportedAsHappeningInTheFixtureD0Ev:
 11781              	.LFB1442:
  41:TestTestMacros.cpp **** {
 11782              		.loc 6 41 1
 11783              		.cfi_startproc
 11784              		.cfi_personality 0x9b,DW.ref.__gxx_personality_v0
 11785              		.cfi_lsda 0x1b,.LLSDA1442
 11786 4e6c F30F1EFA 		endbr64
 11787 4e70 55       		pushq	%rbp
 11788              		.cfi_def_cfa_offset 16
 11789              		.cfi_offset 6, -16
 11790 4e71 4889E5   		movq	%rsp, %rbp
 11791              		.cfi_def_cfa_register 6
 11792 4e74 53       		pushq	%rbx
 11793 4e75 4883EC18 		subq	$24, %rsp
 11794              		.cfi_offset 3, -24
 11795 4e79 48897DE8 		movq	%rdi, -24(%rbp)
  41:TestTestMacros.cpp **** {
 11796              		.loc 6 41 1
 11797 4e7d 488B45E8 		movq	-24(%rbp), %rax
 11798 4e81 4889C7   		movq	%rax, %rdi
 11799              	.LEHB283:
 11800 4e84 E8B5FFFF 		call	_ZN12_GLOBAL__N_157TestExceptionsInFixtureAreReportedAsHappeningInTheFixtureD1Ev
 11800      FF
 11801              	.LEHE283:
  41:TestTestMacros.cpp **** {
 11802              		.loc 6 41 1 is_stmt 0 discriminator 2
 11803 4e89 488B45E8 		movq	-24(%rbp), %rax
 11804 4e8d 4889C7   		movq	%rax, %rdi
 11805 4e90 E8000000 		call	_ZdlPv@PLT
 11805      00
 11806 4e95 EB1E     		jmp	.L589
 11807              	.L588:
 11808 4e97 F30F1EFA 		endbr64
  41:TestTestMacros.cpp **** {
 11809              		.loc 6 41 1
 11810 4e9b 4889C3   		movq	%rax, %rbx
 11811 4e9e 488B45E8 		movq	-24(%rbp), %rax
 11812 4ea2 4889C7   		movq	%rax, %rdi
 11813 4ea5 E8000000 		call	_ZdlPv@PLT
 11813      00
 11814 4eaa 4889D8   		movq	%rbx, %rax
 11815 4ead 4889C7   		movq	%rax, %rdi
 11816              	.LEHB284:
 11817 4eb0 E8000000 		call	_Unwind_Resume@PLT
 11817      00
 11818              	.LEHE284:
 11819              	.L589:
 11820 4eb5 488B5DF8 		movq	-8(%rbp), %rbx
 11821 4eb9 C9       		leave
 11822              		.cfi_def_cfa 7, 8
 11823 4eba C3       		ret
 11824              		.cfi_endproc
 11825              	.LFE1442:
 11826              		.section	.gcc_except_table
 11827              	.LLSDA1442:
 11828 07e4 FF       		.byte	0xff
 11829 07e5 FF       		.byte	0xff
 11830 07e6 01       		.byte	0x1
 11831 07e7 08       		.uleb128 .LLSDACSE1442-.LLSDACSB1442
 11832              	.LLSDACSB1442:
 11833 07e8 18       		.uleb128 .LEHB283-.LFB1442
 11834 07e9 05       		.uleb128 .LEHE283-.LEHB283
 11835 07ea 2B       		.uleb128 .L588-.LFB1442
 11836 07eb 00       		.uleb128 0
 11837 07ec 44       		.uleb128 .LEHB284-.LFB1442
 11838 07ed 05       		.uleb128 .LEHE284-.LEHB284
 11839 07ee 00       		.uleb128 0
 11840 07ef 00       		.uleb128 0
 11841              	.LLSDACSE1442:
 11842              		.text
 11844              		.section	.data.rel.ro.local
 11845              		.align 8
 11848              	_ZTVN12_GLOBAL__N_132TestThrowingThingieDummyTestNameE:
 11849 0258 00000000 		.quad	0
 11849      00000000 
 11850 0260 00000000 		.quad	_ZTIN12_GLOBAL__N_132TestThrowingThingieDummyTestNameE
 11850      00000000 
 11851 0268 00000000 		.quad	_ZN12_GLOBAL__N_132TestThrowingThingieDummyTestNameD1Ev
 11851      00000000 
 11852 0270 00000000 		.quad	_ZN12_GLOBAL__N_132TestThrowingThingieDummyTestNameD0Ev
 11852      00000000 
 11853 0278 00000000 		.quad	_ZNK12_GLOBAL__N_132TestThrowingThingieDummyTestName7RunImplEv
 11853      00000000 
 11854              		.text
 11855 4ebb 90       		.align 2
 11857              	_ZN12_GLOBAL__N_132TestThrowingThingieDummyTestNameD2Ev:
 11858              	.LFB1444:
  37:TestTestMacros.cpp **** {
 11859              		.loc 6 37 1 is_stmt 1
 11860              		.cfi_startproc
 11861 4ebc F30F1EFA 		endbr64
 11862 4ec0 55       		pushq	%rbp
 11863              		.cfi_def_cfa_offset 16
 11864              		.cfi_offset 6, -16
 11865 4ec1 4889E5   		movq	%rsp, %rbp
 11866              		.cfi_def_cfa_register 6
 11867 4ec4 4883EC10 		subq	$16, %rsp
 11868 4ec8 48897DF8 		movq	%rdi, -8(%rbp)
 11869              	.LBB175:
  37:TestTestMacros.cpp **** {
 11870              		.loc 6 37 1
 11871 4ecc 488D1500 		leaq	16+_ZTVN12_GLOBAL__N_132TestThrowingThingieDummyTestNameE(%rip), %rdx
 11871      000000
 11872 4ed3 488B45F8 		movq	-8(%rbp), %rax
 11873 4ed7 488910   		movq	%rdx, (%rax)
 11874 4eda 488B45F8 		movq	-8(%rbp), %rax
 11875 4ede 4889C7   		movq	%rax, %rdi
 11876 4ee1 E8000000 		call	_ZN8UnitTest4TestD2Ev@PLT
 11876      00
 11877              	.LBE175:
 11878 4ee6 90       		nop
 11879 4ee7 C9       		leave
 11880              		.cfi_def_cfa 7, 8
 11881 4ee8 C3       		ret
 11882              		.cfi_endproc
 11883              	.LFE1444:
 11885              		.set	_ZN12_GLOBAL__N_132TestThrowingThingieDummyTestNameD1Ev,_ZN12_GLOBAL__N_132TestThrowingThingi
 11886 4ee9 90       		.align 2
 11888              	_ZN12_GLOBAL__N_132TestThrowingThingieDummyTestNameD0Ev:
 11889              	.LFB1446:
  37:TestTestMacros.cpp **** {
 11890              		.loc 6 37 1
 11891              		.cfi_startproc
 11892              		.cfi_personality 0x9b,DW.ref.__gxx_personality_v0
 11893              		.cfi_lsda 0x1b,.LLSDA1446
 11894 4eea F30F1EFA 		endbr64
 11895 4eee 55       		pushq	%rbp
 11896              		.cfi_def_cfa_offset 16
 11897              		.cfi_offset 6, -16
 11898 4eef 4889E5   		movq	%rsp, %rbp
 11899              		.cfi_def_cfa_register 6
 11900 4ef2 53       		pushq	%rbx
 11901 4ef3 4883EC18 		subq	$24, %rsp
 11902              		.cfi_offset 3, -24
 11903 4ef7 48897DE8 		movq	%rdi, -24(%rbp)
  37:TestTestMacros.cpp **** {
 11904              		.loc 6 37 1
 11905 4efb 488B45E8 		movq	-24(%rbp), %rax
 11906 4eff 4889C7   		movq	%rax, %rdi
 11907              	.LEHB285:
 11908 4f02 E8B5FFFF 		call	_ZN12_GLOBAL__N_132TestThrowingThingieDummyTestNameD1Ev
 11908      FF
 11909              	.LEHE285:
  37:TestTestMacros.cpp **** {
 11910              		.loc 6 37 1 is_stmt 0 discriminator 2
 11911 4f07 488B45E8 		movq	-24(%rbp), %rax
 11912 4f0b 4889C7   		movq	%rax, %rdi
 11913 4f0e E8000000 		call	_ZdlPv@PLT
 11913      00
 11914 4f13 EB1E     		jmp	.L594
 11915              	.L593:
 11916 4f15 F30F1EFA 		endbr64
  37:TestTestMacros.cpp **** {
 11917              		.loc 6 37 1
 11918 4f19 4889C3   		movq	%rax, %rbx
 11919 4f1c 488B45E8 		movq	-24(%rbp), %rax
 11920 4f20 4889C7   		movq	%rax, %rdi
 11921 4f23 E8000000 		call	_ZdlPv@PLT
 11921      00
 11922 4f28 4889D8   		movq	%rbx, %rax
 11923 4f2b 4889C7   		movq	%rax, %rdi
 11924              	.LEHB286:
 11925 4f2e E8000000 		call	_Unwind_Resume@PLT
 11925      00
 11926              	.LEHE286:
 11927              	.L594:
 11928 4f33 488B5DF8 		movq	-8(%rbp), %rbx
 11929 4f37 C9       		leave
 11930              		.cfi_def_cfa 7, 8
 11931 4f38 C3       		ret
 11932              		.cfi_endproc
 11933              	.LFE1446:
 11934              		.section	.gcc_except_table
 11935              	.LLSDA1446:
 11936 07f0 FF       		.byte	0xff
 11937 07f1 FF       		.byte	0xff
 11938 07f2 01       		.byte	0x1
 11939 07f3 08       		.uleb128 .LLSDACSE1446-.LLSDACSB1446
 11940              	.LLSDACSB1446:
 11941 07f4 18       		.uleb128 .LEHB285-.LFB1446
 11942 07f5 05       		.uleb128 .LEHE285-.LEHB285
 11943 07f6 2B       		.uleb128 .L593-.LFB1446
 11944 07f7 00       		.uleb128 0
 11945 07f8 44       		.uleb128 .LEHB286-.LFB1446
 11946 07f9 05       		.uleb128 .LEHE286-.LEHB286
 11947 07fa 00       		.uleb128 0
 11948 07fb 00       		.uleb128 0
 11949              	.LLSDACSE1446:
 11950              		.text
 11952              		.section	.data.rel.ro.local
 11953              		.align 8
 11956              	_ZTVN12_GLOBAL__N_138TestTestsAreAddedToTheListThroughMacroE:
 11957 0280 00000000 		.quad	0
 11957      00000000 
 11958 0288 00000000 		.quad	_ZTIN12_GLOBAL__N_138TestTestsAreAddedToTheListThroughMacroE
 11958      00000000 
 11959 0290 00000000 		.quad	_ZN12_GLOBAL__N_138TestTestsAreAddedToTheListThroughMacroD1Ev
 11959      00000000 
 11960 0298 00000000 		.quad	_ZN12_GLOBAL__N_138TestTestsAreAddedToTheListThroughMacroD0Ev
 11960      00000000 
 11961 02a0 00000000 		.quad	_ZNK12_GLOBAL__N_138TestTestsAreAddedToTheListThroughMacro7RunImplEv
 11961      00000000 
 11962              		.text
 11963 4f39 90       		.align 2
 11965              	_ZN12_GLOBAL__N_138TestTestsAreAddedToTheListThroughMacroD2Ev:
 11966              	.LFB1448:
  19:TestTestMacros.cpp **** {
 11967              		.loc 6 19 1 is_stmt 1
 11968              		.cfi_startproc
 11969 4f3a F30F1EFA 		endbr64
 11970 4f3e 55       		pushq	%rbp
 11971              		.cfi_def_cfa_offset 16
 11972              		.cfi_offset 6, -16
 11973 4f3f 4889E5   		movq	%rsp, %rbp
 11974              		.cfi_def_cfa_register 6
 11975 4f42 4883EC10 		subq	$16, %rsp
 11976 4f46 48897DF8 		movq	%rdi, -8(%rbp)
 11977              	.LBB176:
  19:TestTestMacros.cpp **** {
 11978              		.loc 6 19 1
 11979 4f4a 488D1500 		leaq	16+_ZTVN12_GLOBAL__N_138TestTestsAreAddedToTheListThroughMacroE(%rip), %rdx
 11979      000000
 11980 4f51 488B45F8 		movq	-8(%rbp), %rax
 11981 4f55 488910   		movq	%rdx, (%rax)
 11982 4f58 488B45F8 		movq	-8(%rbp), %rax
 11983 4f5c 4889C7   		movq	%rax, %rdi
 11984 4f5f E8000000 		call	_ZN8UnitTest4TestD2Ev@PLT
 11984      00
 11985              	.LBE176:
 11986 4f64 90       		nop
 11987 4f65 C9       		leave
 11988              		.cfi_def_cfa 7, 8
 11989 4f66 C3       		ret
 11990              		.cfi_endproc
 11991              	.LFE1448:
 11993              		.set	_ZN12_GLOBAL__N_138TestTestsAreAddedToTheListThroughMacroD1Ev,_ZN12_GLOBAL__N_138TestTestsAre
 11994 4f67 90       		.align 2
 11996              	_ZN12_GLOBAL__N_138TestTestsAreAddedToTheListThroughMacroD0Ev:
 11997              	.LFB1450:
  19:TestTestMacros.cpp **** {
 11998              		.loc 6 19 1
 11999              		.cfi_startproc
 12000              		.cfi_personality 0x9b,DW.ref.__gxx_personality_v0
 12001              		.cfi_lsda 0x1b,.LLSDA1450
 12002 4f68 F30F1EFA 		endbr64
 12003 4f6c 55       		pushq	%rbp
 12004              		.cfi_def_cfa_offset 16
 12005              		.cfi_offset 6, -16
 12006 4f6d 4889E5   		movq	%rsp, %rbp
 12007              		.cfi_def_cfa_register 6
 12008 4f70 53       		pushq	%rbx
 12009 4f71 4883EC18 		subq	$24, %rsp
 12010              		.cfi_offset 3, -24
 12011 4f75 48897DE8 		movq	%rdi, -24(%rbp)
  19:TestTestMacros.cpp **** {
 12012              		.loc 6 19 1
 12013 4f79 488B45E8 		movq	-24(%rbp), %rax
 12014 4f7d 4889C7   		movq	%rax, %rdi
 12015              	.LEHB287:
 12016 4f80 E8B5FFFF 		call	_ZN12_GLOBAL__N_138TestTestsAreAddedToTheListThroughMacroD1Ev
 12016      FF
 12017              	.LEHE287:
  19:TestTestMacros.cpp **** {
 12018              		.loc 6 19 1 is_stmt 0 discriminator 2
 12019 4f85 488B45E8 		movq	-24(%rbp), %rax
 12020 4f89 4889C7   		movq	%rax, %rdi
 12021 4f8c E8000000 		call	_ZdlPv@PLT
 12021      00
 12022 4f91 EB1E     		jmp	.L599
 12023              	.L598:
 12024 4f93 F30F1EFA 		endbr64
  19:TestTestMacros.cpp **** {
 12025              		.loc 6 19 1
 12026 4f97 4889C3   		movq	%rax, %rbx
 12027 4f9a 488B45E8 		movq	-24(%rbp), %rax
 12028 4f9e 4889C7   		movq	%rax, %rdi
 12029 4fa1 E8000000 		call	_ZdlPv@PLT
 12029      00
 12030 4fa6 4889D8   		movq	%rbx, %rax
 12031 4fa9 4889C7   		movq	%rax, %rdi
 12032              	.LEHB288:
 12033 4fac E8000000 		call	_Unwind_Resume@PLT
 12033      00
 12034              	.LEHE288:
 12035              	.L599:
 12036 4fb1 488B5DF8 		movq	-8(%rbp), %rbx
 12037 4fb5 C9       		leave
 12038              		.cfi_def_cfa 7, 8
 12039 4fb6 C3       		ret
 12040              		.cfi_endproc
 12041              	.LFE1450:
 12042              		.section	.gcc_except_table
 12043              	.LLSDA1450:
 12044 07fc FF       		.byte	0xff
 12045 07fd FF       		.byte	0xff
 12046 07fe 01       		.byte	0x1
 12047 07ff 08       		.uleb128 .LLSDACSE1450-.LLSDACSB1450
 12048              	.LLSDACSB1450:
 12049 0800 18       		.uleb128 .LEHB287-.LFB1450
 12050 0801 05       		.uleb128 .LEHE287-.LEHB287
 12051 0802 2B       		.uleb128 .L598-.LFB1450
 12052 0803 00       		.uleb128 0
 12053 0804 44       		.uleb128 .LEHB288-.LFB1450
 12054 0805 05       		.uleb128 .LEHE288-.LEHB288
 12055 0806 00       		.uleb128 0
 12056 0807 00       		.uleb128 0
 12057              	.LLSDACSE1450:
 12058              		.text
 12060              		.section	.data.rel.ro.local
 12061              		.align 8
 12064              	_ZTVN12_GLOBAL__N_113TestDummyTestE:
 12065 02a8 00000000 		.quad	0
 12065      00000000 
 12066 02b0 00000000 		.quad	_ZTIN12_GLOBAL__N_113TestDummyTestE
 12066      00000000 
 12067 02b8 00000000 		.quad	_ZN12_GLOBAL__N_113TestDummyTestD1Ev
 12067      00000000 
 12068 02c0 00000000 		.quad	_ZN12_GLOBAL__N_113TestDummyTestD0Ev
 12068      00000000 
 12069 02c8 00000000 		.quad	_ZNK12_GLOBAL__N_113TestDummyTest7RunImplEv
 12069      00000000 
 12070              		.text
 12071 4fb7 90       		.align 2
 12073              	_ZN12_GLOBAL__N_113TestDummyTestD2Ev:
 12074              	.LFB1452:
  15:TestTestMacros.cpp **** {
 12075              		.loc 6 15 1 is_stmt 1
 12076              		.cfi_startproc
 12077 4fb8 F30F1EFA 		endbr64
 12078 4fbc 55       		pushq	%rbp
 12079              		.cfi_def_cfa_offset 16
 12080              		.cfi_offset 6, -16
 12081 4fbd 4889E5   		movq	%rsp, %rbp
 12082              		.cfi_def_cfa_register 6
 12083 4fc0 4883EC10 		subq	$16, %rsp
 12084 4fc4 48897DF8 		movq	%rdi, -8(%rbp)
 12085              	.LBB177:
  15:TestTestMacros.cpp **** {
 12086              		.loc 6 15 1
 12087 4fc8 488D1500 		leaq	16+_ZTVN12_GLOBAL__N_113TestDummyTestE(%rip), %rdx
 12087      000000
 12088 4fcf 488B45F8 		movq	-8(%rbp), %rax
 12089 4fd3 488910   		movq	%rdx, (%rax)
 12090 4fd6 488B45F8 		movq	-8(%rbp), %rax
 12091 4fda 4889C7   		movq	%rax, %rdi
 12092 4fdd E8000000 		call	_ZN8UnitTest4TestD2Ev@PLT
 12092      00
 12093              	.LBE177:
 12094 4fe2 90       		nop
 12095 4fe3 C9       		leave
 12096              		.cfi_def_cfa 7, 8
 12097 4fe4 C3       		ret
 12098              		.cfi_endproc
 12099              	.LFE1452:
 12101              		.set	_ZN12_GLOBAL__N_113TestDummyTestD1Ev,_ZN12_GLOBAL__N_113TestDummyTestD2Ev
 12102 4fe5 90       		.align 2
 12104              	_ZN12_GLOBAL__N_113TestDummyTestD0Ev:
 12105              	.LFB1454:
  15:TestTestMacros.cpp **** {
 12106              		.loc 6 15 1
 12107              		.cfi_startproc
 12108              		.cfi_personality 0x9b,DW.ref.__gxx_personality_v0
 12109              		.cfi_lsda 0x1b,.LLSDA1454
 12110 4fe6 F30F1EFA 		endbr64
 12111 4fea 55       		pushq	%rbp
 12112              		.cfi_def_cfa_offset 16
 12113              		.cfi_offset 6, -16
 12114 4feb 4889E5   		movq	%rsp, %rbp
 12115              		.cfi_def_cfa_register 6
 12116 4fee 53       		pushq	%rbx
 12117 4fef 4883EC18 		subq	$24, %rsp
 12118              		.cfi_offset 3, -24
 12119 4ff3 48897DE8 		movq	%rdi, -24(%rbp)
  15:TestTestMacros.cpp **** {
 12120              		.loc 6 15 1
 12121 4ff7 488B45E8 		movq	-24(%rbp), %rax
 12122 4ffb 4889C7   		movq	%rax, %rdi
 12123              	.LEHB289:
 12124 4ffe E8B5FFFF 		call	_ZN12_GLOBAL__N_113TestDummyTestD1Ev
 12124      FF
 12125              	.LEHE289:
  15:TestTestMacros.cpp **** {
 12126              		.loc 6 15 1 is_stmt 0 discriminator 2
 12127 5003 488B45E8 		movq	-24(%rbp), %rax
 12128 5007 4889C7   		movq	%rax, %rdi
 12129 500a E8000000 		call	_ZdlPv@PLT
 12129      00
 12130 500f EB1E     		jmp	.L604
 12131              	.L603:
 12132 5011 F30F1EFA 		endbr64
  15:TestTestMacros.cpp **** {
 12133              		.loc 6 15 1
 12134 5015 4889C3   		movq	%rax, %rbx
 12135 5018 488B45E8 		movq	-24(%rbp), %rax
 12136 501c 4889C7   		movq	%rax, %rdi
 12137 501f E8000000 		call	_ZdlPv@PLT
 12137      00
 12138 5024 4889D8   		movq	%rbx, %rax
 12139 5027 4889C7   		movq	%rax, %rdi
 12140              	.LEHB290:
 12141 502a E8000000 		call	_Unwind_Resume@PLT
 12141      00
 12142              	.LEHE290:
 12143              	.L604:
 12144 502f 488B5DF8 		movq	-8(%rbp), %rbx
 12145 5033 C9       		leave
 12146              		.cfi_def_cfa 7, 8
 12147 5034 C3       		ret
 12148              		.cfi_endproc
 12149              	.LFE1454:
 12150              		.section	.gcc_except_table
 12151              	.LLSDA1454:
 12152 0808 FF       		.byte	0xff
 12153 0809 FF       		.byte	0xff
 12154 080a 01       		.byte	0x1
 12155 080b 08       		.uleb128 .LLSDACSE1454-.LLSDACSB1454
 12156              	.LLSDACSB1454:
 12157 080c 18       		.uleb128 .LEHB289-.LFB1454
 12158 080d 05       		.uleb128 .LEHE289-.LEHB289
 12159 080e 2B       		.uleb128 .L603-.LFB1454
 12160 080f 00       		.uleb128 0
 12161 0810 44       		.uleb128 .LEHB290-.LFB1454
 12162 0811 05       		.uleb128 .LEHE290-.LEHB290
 12163 0812 00       		.uleb128 0
 12164 0813 00       		.uleb128 0
 12165              	.LLSDACSE1454:
 12166              		.text
 12168              		.weak	_ZTV17RecordingReporter
 12169              		.section	.data.rel.ro.local._ZTV17RecordingReporter,"awG",@progbits,_ZTV17RecordingReporter,comdat
 12170              		.align 8
 12173              	_ZTV17RecordingReporter:
 12174 0000 00000000 		.quad	0
 12174      00000000 
 12175 0008 00000000 		.quad	_ZTI17RecordingReporter
 12175      00000000 
 12176 0010 00000000 		.quad	_ZN17RecordingReporterD1Ev
 12176      00000000 
 12177 0018 00000000 		.quad	_ZN17RecordingReporterD0Ev
 12177      00000000 
 12178 0020 00000000 		.quad	_ZN17RecordingReporter15ReportTestStartERKN8UnitTest11TestDetailsE
 12178      00000000 
 12179 0028 00000000 		.quad	_ZN17RecordingReporter13ReportFailureERKN8UnitTest11TestDetailsEPKc
 12179      00000000 
 12180 0030 00000000 		.quad	_ZN17RecordingReporter16ReportTestFinishERKN8UnitTest11TestDetailsEf
 12180      00000000 
 12181 0038 00000000 		.quad	_ZN17RecordingReporter13ReportSummaryEiiif
 12181      00000000 
 12182              		.section	.text._ZN17RecordingReporterD2Ev,"axG",@progbits,_ZN17RecordingReporterD5Ev,comdat
 12183              		.align 2
 12184              		.weak	_ZN17RecordingReporterD2Ev
 12186              	_ZN17RecordingReporterD2Ev:
 12187              	.LFB1456:
   9:RecordingReporter.h **** {
 12188              		.loc 4 9 8 is_stmt 1
 12189              		.cfi_startproc
 12190 0000 F30F1EFA 		endbr64
 12191 0004 55       		pushq	%rbp
 12192              		.cfi_def_cfa_offset 16
 12193              		.cfi_offset 6, -16
 12194 0005 4889E5   		movq	%rsp, %rbp
 12195              		.cfi_def_cfa_register 6
 12196 0008 4883EC10 		subq	$16, %rsp
 12197 000c 48897DF8 		movq	%rdi, -8(%rbp)
 12198              	.LBB178:
   9:RecordingReporter.h **** {
 12199              		.loc 4 9 8
 12200 0010 488D1500 		leaq	16+_ZTV17RecordingReporter(%rip), %rdx
 12200      000000
 12201 0017 488B45F8 		movq	-8(%rbp), %rax
 12202 001b 488910   		movq	%rdx, (%rax)
 12203 001e 488B45F8 		movq	-8(%rbp), %rax
 12204 0022 4889C7   		movq	%rax, %rdi
 12205 0025 E8000000 		call	_ZN8UnitTest12TestReporterD2Ev@PLT
 12205      00
 12206              	.LBE178:
 12207 002a 90       		nop
 12208 002b C9       		leave
 12209              		.cfi_def_cfa 7, 8
 12210 002c C3       		ret
 12211              		.cfi_endproc
 12212              	.LFE1456:
 12214              		.weak	_ZN17RecordingReporterD1Ev
 12215              		.set	_ZN17RecordingReporterD1Ev,_ZN17RecordingReporterD2Ev
 12216              		.section	.text._ZN17RecordingReporterD0Ev,"axG",@progbits,_ZN17RecordingReporterD5Ev,comdat
 12217              		.align 2
 12218              		.weak	_ZN17RecordingReporterD0Ev
 12220              	_ZN17RecordingReporterD0Ev:
 12221              	.LFB1458:
   9:RecordingReporter.h **** {
 12222              		.loc 4 9 8
 12223              		.cfi_startproc
 12224              		.cfi_personality 0x9b,DW.ref.__gxx_personality_v0
 12225              		.cfi_lsda 0x1b,.LLSDA1458
 12226 0000 F30F1EFA 		endbr64
 12227 0004 55       		pushq	%rbp
 12228              		.cfi_def_cfa_offset 16
 12229              		.cfi_offset 6, -16
 12230 0005 4889E5   		movq	%rsp, %rbp
 12231              		.cfi_def_cfa_register 6
 12232 0008 53       		pushq	%rbx
 12233 0009 4883EC18 		subq	$24, %rsp
 12234              		.cfi_offset 3, -24
 12235 000d 48897DE8 		movq	%rdi, -24(%rbp)
   9:RecordingReporter.h **** {
 12236              		.loc 4 9 8
 12237 0011 488B45E8 		movq	-24(%rbp), %rax
 12238 0015 4889C7   		movq	%rax, %rdi
 12239              	.LEHB291:
 12240 0018 E8000000 		call	_ZN17RecordingReporterD1Ev
 12240      00
 12241              	.LEHE291:
   9:RecordingReporter.h **** {
 12242              		.loc 4 9 8 is_stmt 0 discriminator 2
 12243 001d 488B45E8 		movq	-24(%rbp), %rax
 12244 0021 4889C7   		movq	%rax, %rdi
 12245 0024 E8000000 		call	_ZdlPv@PLT
 12245      00
 12246 0029 EB1E     		jmp	.L609
 12247              	.L608:
 12248 002b F30F1EFA 		endbr64
   9:RecordingReporter.h **** {
 12249              		.loc 4 9 8
 12250 002f 4889C3   		movq	%rax, %rbx
 12251 0032 488B45E8 		movq	-24(%rbp), %rax
 12252 0036 4889C7   		movq	%rax, %rdi
 12253 0039 E8000000 		call	_ZdlPv@PLT
 12253      00
 12254 003e 4889D8   		movq	%rbx, %rax
 12255 0041 4889C7   		movq	%rax, %rdi
 12256              	.LEHB292:
 12257 0044 E8000000 		call	_Unwind_Resume@PLT
 12257      00
 12258              	.LEHE292:
 12259              	.L609:
 12260 0049 488B5DF8 		movq	-8(%rbp), %rbx
 12261 004d C9       		leave
 12262              		.cfi_def_cfa 7, 8
 12263 004e C3       		ret
 12264              		.cfi_endproc
 12265              	.LFE1458:
 12266              		.section	.gcc_except_table
 12267              	.LLSDA1458:
 12268 0814 FF       		.byte	0xff
 12269 0815 FF       		.byte	0xff
 12270 0816 01       		.byte	0x1
 12271 0817 08       		.uleb128 .LLSDACSE1458-.LLSDACSB1458
 12272              	.LLSDACSB1458:
 12273 0818 18       		.uleb128 .LEHB291-.LFB1458
 12274 0819 05       		.uleb128 .LEHE291-.LEHB291
 12275 081a 2B       		.uleb128 .L608-.LFB1458
 12276 081b 00       		.uleb128 0
 12277 081c 44       		.uleb128 .LEHB292-.LFB1458
 12278 081d 05       		.uleb128 .LEHE292-.LEHB292
 12279 081e 00       		.uleb128 0
 12280 081f 00       		.uleb128 0
 12281              	.LLSDACSE1458:
 12282              		.section	.text._ZN17RecordingReporterD0Ev,"axG",@progbits,_ZN17RecordingReporterD5Ev,comdat
 12284              		.weak	_ZTVN8UnitTest15MemoryOutStreamE
 12285              		.section	.data.rel.ro.local._ZTVN8UnitTest15MemoryOutStreamE,"awG",@progbits,_ZTVN8UnitTest15Memor
 12286              		.align 8
 12289              	_ZTVN8UnitTest15MemoryOutStreamE:
 12290 0000 90000000 		.quad	144
 12290      00000000 
 12291 0008 00000000 		.quad	0
 12291      00000000 
 12292 0010 00000000 		.quad	_ZTIN8UnitTest15MemoryOutStreamE
 12292      00000000 
 12293 0018 00000000 		.quad	_ZN8UnitTest15MemoryOutStreamD1Ev
 12293      00000000 
 12294 0020 00000000 		.quad	_ZN8UnitTest15MemoryOutStreamD0Ev
 12294      00000000 
 12295 0028 70FFFFFF 		.quad	-144
 12295      FFFFFFFF 
 12296 0030 70FFFFFF 		.quad	-144
 12296      FFFFFFFF 
 12297 0038 00000000 		.quad	_ZTIN8UnitTest15MemoryOutStreamE
 12297      00000000 
 12298 0040 00000000 		.quad	_ZTv0_n24_N8UnitTest15MemoryOutStreamD1Ev
 12298      00000000 
 12299 0048 00000000 		.quad	_ZTv0_n24_N8UnitTest15MemoryOutStreamD0Ev
 12299      00000000 
 12300              		.weak	_ZTTN8UnitTest15MemoryOutStreamE
 12301              		.section	.data.rel.ro.local._ZTTN8UnitTest15MemoryOutStreamE,"awG",@progbits,_ZTVN8UnitTest15Memor
 12302              		.align 8
 12305              	_ZTTN8UnitTest15MemoryOutStreamE:
 12306 0000 00000000 		.quad	_ZTVN8UnitTest15MemoryOutStreamE+24
 12306      00000000 
 12307 0008 00000000 		.quad	_ZTCN8UnitTest15MemoryOutStreamE0_NSt7__cxx1119basic_ostringstreamIcSt11char_traitsIcESaIcEE
 12307      00000000 
 12308 0010 00000000 		.quad	_ZTCN8UnitTest15MemoryOutStreamE0_So+24
 12308      00000000 
 12309 0018 00000000 		.quad	_ZTCN8UnitTest15MemoryOutStreamE0_So+64
 12309      00000000 
 12310 0020 00000000 		.quad	_ZTCN8UnitTest15MemoryOutStreamE0_NSt7__cxx1119basic_ostringstreamIcSt11char_traitsIcESaIcEE
 12310      00000000 
 12311 0028 00000000 		.quad	_ZTVN8UnitTest15MemoryOutStreamE+64
 12311      00000000 
 12312              		.hidden	_ZTCN8UnitTest15MemoryOutStreamE0_NSt7__cxx1119basic_ostringstreamIcSt11char_traitsIcESaIc
 12313              		.weak	_ZTCN8UnitTest15MemoryOutStreamE0_NSt7__cxx1119basic_ostringstreamIcSt11char_traitsIcESaIcEE
 12314              		.section	.data.rel.ro._ZTCN8UnitTest15MemoryOutStreamE0_NSt7__cxx1119basic_ostringstreamIcSt11char
 12315              		.align 8
 12318              	_ZTCN8UnitTest15MemoryOutStreamE0_NSt7__cxx1119basic_ostringstreamIcSt11char_traitsIcESaIcEEE:
 12319 0000 90000000 		.quad	144
 12319      00000000 
 12320 0008 00000000 		.quad	0
 12320      00000000 
 12321 0010 00000000 		.quad	_ZTINSt7__cxx1119basic_ostringstreamIcSt11char_traitsIcESaIcEEE
 12321      00000000 
 12322 0018 00000000 		.quad	0
 12322      00000000 
 12323 0020 00000000 		.quad	0
 12323      00000000 
 12324 0028 70FFFFFF 		.quad	-144
 12324      FFFFFFFF 
 12325 0030 70FFFFFF 		.quad	-144
 12325      FFFFFFFF 
 12326 0038 00000000 		.quad	_ZTINSt7__cxx1119basic_ostringstreamIcSt11char_traitsIcESaIcEEE
 12326      00000000 
 12327 0040 00000000 		.quad	0
 12327      00000000 
 12328 0048 00000000 		.quad	0
 12328      00000000 
 12329              		.hidden	_ZTCN8UnitTest15MemoryOutStreamE0_So
 12330              		.weak	_ZTCN8UnitTest15MemoryOutStreamE0_So
 12331              		.section	.data.rel.ro._ZTCN8UnitTest15MemoryOutStreamE0_So,"awG",@progbits,_ZTVN8UnitTest15MemoryO
 12332              		.align 8
 12335              	_ZTCN8UnitTest15MemoryOutStreamE0_So:
 12336 0000 90000000 		.quad	144
 12336      00000000 
 12337 0008 00000000 		.quad	0
 12337      00000000 
 12338 0010 00000000 		.quad	_ZTISo
 12338      00000000 
 12339 0018 00000000 		.quad	0
 12339      00000000 
 12340 0020 00000000 		.quad	0
 12340      00000000 
 12341 0028 70FFFFFF 		.quad	-144
 12341      FFFFFFFF 
 12342 0030 70FFFFFF 		.quad	-144
 12342      FFFFFFFF 
 12343 0038 00000000 		.quad	_ZTISo
 12343      00000000 
 12344 0040 00000000 		.quad	0
 12344      00000000 
 12345 0048 00000000 		.quad	0
 12345      00000000 
 12346              		.section	.text._ZN8UnitTest15MemoryOutStreamD1Ev,"axG",@progbits,_ZN8UnitTest15MemoryOutStreamD1Ev
 12347              		.align 2
 12348              		.weak	_ZN8UnitTest15MemoryOutStreamD1Ev
 12350              	_ZN8UnitTest15MemoryOutStreamD1Ev:
 12351              	.LFB1461:
  13:../MemoryOutStream.h **** {
 12352              		.loc 2 13 7 is_stmt 1
 12353              		.cfi_startproc
 12354              		.cfi_personality 0x9b,DW.ref.__gxx_personality_v0
 12355              		.cfi_lsda 0x1b,.LLSDA1461
 12356 0000 F30F1EFA 		endbr64
 12357 0004 55       		pushq	%rbp
 12358              		.cfi_def_cfa_offset 16
 12359              		.cfi_offset 6, -16
 12360 0005 4889E5   		movq	%rsp, %rbp
 12361              		.cfi_def_cfa_register 6
 12362 0008 53       		pushq	%rbx
 12363 0009 4883EC18 		subq	$24, %rsp
 12364              		.cfi_offset 3, -24
 12365 000d 48897DE8 		movq	%rdi, -24(%rbp)
 12366              	.LBB179:
  13:../MemoryOutStream.h **** {
 12367              		.loc 2 13 7
 12368 0011 488D1500 		leaq	24+_ZTVN8UnitTest15MemoryOutStreamE(%rip), %rdx
 12368      000000
 12369 0018 488B45E8 		movq	-24(%rbp), %rax
 12370 001c 488910   		movq	%rdx, (%rax)
 12371 001f 488B45E8 		movq	-24(%rbp), %rax
 12372 0023 48059000 		addq	$144, %rax
 12372      0000
 12373 0029 488D1500 		leaq	64+_ZTVN8UnitTest15MemoryOutStreamE(%rip), %rdx
 12373      000000
 12374 0030 488910   		movq	%rdx, (%rax)
 12375 0033 488B45E8 		movq	-24(%rbp), %rax
 12376 0037 4883C070 		addq	$112, %rax
 12377 003b 4889C7   		movq	%rax, %rdi
 12378              	.LEHB293:
 12379 003e E8000000 		call	_ZNSt7__cxx1112basic_stringIcSt11char_traitsIcESaIcEED1Ev@PLT
 12379      00
 12380              	.LEHE293:
  13:../MemoryOutStream.h **** {
 12381              		.loc 2 13 7 is_stmt 0 discriminator 2
 12382 0043 488B45E8 		movq	-24(%rbp), %rax
 12383 0047 488D1500 		leaq	8+_ZTTN8UnitTest15MemoryOutStreamE(%rip), %rdx
 12383      000000
 12384 004e 4889D6   		movq	%rdx, %rsi
 12385 0051 4889C7   		movq	%rax, %rdi
 12386              	.LEHB294:
 12387 0054 E8000000 		call	_ZNSt7__cxx1119basic_ostringstreamIcSt11char_traitsIcESaIcEED2Ev@PLT
 12387      00
 12388              	.LEHE294:
  13:../MemoryOutStream.h **** {
 12389              		.loc 2 13 7 discriminator 4
 12390 0059 488B45E8 		movq	-24(%rbp), %rax
 12391 005d 48059000 		addq	$144, %rax
 12391      0000
 12392 0063 4889C7   		movq	%rax, %rdi
 12393              	.LEHB295:
 12394 0066 E8000000 		call	_ZNSt9basic_iosIcSt11char_traitsIcEED2Ev@PLT
 12394      00
 12395              	.LEHE295:
 12396              	.LBE179:
 12397 006b EB43     		jmp	.L615
 12398              	.L613:
 12399 006d F30F1EFA 		endbr64
 12400              	.LBB180:
  13:../MemoryOutStream.h **** {
 12401              		.loc 2 13 7
 12402 0071 4889C3   		movq	%rax, %rbx
 12403 0074 488B45E8 		movq	-24(%rbp), %rax
 12404 0078 488D1500 		leaq	8+_ZTTN8UnitTest15MemoryOutStreamE(%rip), %rdx
 12404      000000
 12405 007f 4889D6   		movq	%rdx, %rsi
 12406 0082 4889C7   		movq	%rax, %rdi
 12407 0085 E8000000 		call	_ZNSt7__cxx1119basic_ostringstreamIcSt11char_traitsIcESaIcEED2Ev@PLT
 12407      00
 12408 008a EB07     		jmp	.L612
 12409              	.L614:
 12410 008c F30F1EFA 		endbr64
 12411 0090 4889C3   		movq	%rax, %rbx
 12412              	.L612:
  13:../MemoryOutStream.h **** {
 12413              		.loc 2 13 7 discriminator 3
 12414 0093 488B45E8 		movq	-24(%rbp), %rax
 12415 0097 48059000 		addq	$144, %rax
 12415      0000
 12416 009d 4889C7   		movq	%rax, %rdi
 12417 00a0 E8000000 		call	_ZNSt9basic_iosIcSt11char_traitsIcEED2Ev@PLT
 12417      00
 12418 00a5 4889D8   		movq	%rbx, %rax
 12419 00a8 4889C7   		movq	%rax, %rdi
 12420              	.LEHB296:
 12421 00ab E8000000 		call	_Unwind_Resume@PLT
 12421      00
 12422              	.LEHE296:
 12423              	.L615:
 12424              	.LBE180:
  13:../MemoryOutStream.h **** {
 12425              		.loc 2 13 7
 12426 00b0 488B5DF8 		movq	-8(%rbp), %rbx
 12427 00b4 C9       		leave
 12428              		.cfi_def_cfa 7, 8
 12429 00b5 C3       		ret
 12430              		.cfi_endproc
 12431              	.LFE1461:
 12432              		.section	.gcc_except_table
 12433              	.LLSDA1461:
 12434 0820 FF       		.byte	0xff
 12435 0821 FF       		.byte	0xff
 12436 0822 01       		.byte	0x1
 12437 0823 12       		.uleb128 .LLSDACSE1461-.LLSDACSB1461
 12438              	.LLSDACSB1461:
 12439 0824 3E       		.uleb128 .LEHB293-.LFB1461
 12440 0825 05       		.uleb128 .LEHE293-.LEHB293
 12441 0826 6D       		.uleb128 .L613-.LFB1461
 12442 0827 00       		.uleb128 0
 12443 0828 54       		.uleb128 .LEHB294-.LFB1461
 12444 0829 05       		.uleb128 .LEHE294-.LEHB294
 12445 082a 8C01     		.uleb128 .L614-.LFB1461
 12446 082c 00       		.uleb128 0
 12447 082d 66       		.uleb128 .LEHB295-.LFB1461
 12448 082e 05       		.uleb128 .LEHE295-.LEHB295
 12449 082f 00       		.uleb128 0
 12450 0830 00       		.uleb128 0
 12451 0831 AB01     		.uleb128 .LEHB296-.LFB1461
 12452 0833 05       		.uleb128 .LEHE296-.LEHB296
 12453 0834 00       		.uleb128 0
 12454 0835 00       		.uleb128 0
 12455              	.LLSDACSE1461:
 12456              		.section	.text._ZN8UnitTest15MemoryOutStreamD1Ev,"axG",@progbits,_ZN8UnitTest15MemoryOutStreamD1Ev
 12458              		.set	.LTHUNK0,_ZN8UnitTest15MemoryOutStreamD1Ev
 12459              		.weak	_ZTv0_n24_N8UnitTest15MemoryOutStreamD1Ev
 12461              	_ZTv0_n24_N8UnitTest15MemoryOutStreamD1Ev:
 12462              	.LFB1465:
  13:../MemoryOutStream.h **** {
 12463              		.loc 2 13 7 is_stmt 1
 12464              		.cfi_startproc
 12465 00b6 F30F1EFA 		endbr64
 12466 00ba 4C8B17   		movq	(%rdi), %r10
 12467 00bd 49037AE8 		addq	-24(%r10), %rdi
 12468 00c1 E93AFFFF 		jmp	.LTHUNK0
 12468      FF
 12469              		.cfi_endproc
 12470              	.LFE1465:
 12472              		.section	.text._ZN8UnitTest15MemoryOutStreamD0Ev,"axG",@progbits,_ZN8UnitTest15MemoryOutStreamD0Ev
 12473              		.align 2
 12474              		.weak	_ZN8UnitTest15MemoryOutStreamD0Ev
 12476              	_ZN8UnitTest15MemoryOutStreamD0Ev:
 12477              	.LFB1462:
  13:../MemoryOutStream.h **** {
 12478              		.loc 2 13 7
 12479              		.cfi_startproc
 12480              		.cfi_personality 0x9b,DW.ref.__gxx_personality_v0
 12481              		.cfi_lsda 0x1b,.LLSDA1462
 12482 0000 F30F1EFA 		endbr64
 12483 0004 55       		pushq	%rbp
 12484              		.cfi_def_cfa_offset 16
 12485              		.cfi_offset 6, -16
 12486 0005 4889E5   		movq	%rsp, %rbp
 12487              		.cfi_def_cfa_register 6
 12488 0008 53       		pushq	%rbx
 12489 0009 4883EC18 		subq	$24, %rsp
 12490              		.cfi_offset 3, -24
 12491 000d 48897DE8 		movq	%rdi, -24(%rbp)
  13:../MemoryOutStream.h **** {
 12492              		.loc 2 13 7
 12493 0011 488B45E8 		movq	-24(%rbp), %rax
 12494 0015 4889C7   		movq	%rax, %rdi
 12495              	.LEHB297:
 12496 0018 E8000000 		call	_ZN8UnitTest15MemoryOutStreamD1Ev
 12496      00
 12497              	.LEHE297:
  13:../MemoryOutStream.h **** {
 12498              		.loc 2 13 7 is_stmt 0 discriminator 2
 12499 001d 488B45E8 		movq	-24(%rbp), %rax
 12500 0021 4889C7   		movq	%rax, %rdi
 12501 0024 E8000000 		call	_ZdlPv@PLT
 12501      00
 12502 0029 EB1E     		jmp	.L619
 12503              	.L618:
 12504 002b F30F1EFA 		endbr64
  13:../MemoryOutStream.h **** {
 12505              		.loc 2 13 7
 12506 002f 4889C3   		movq	%rax, %rbx
 12507 0032 488B45E8 		movq	-24(%rbp), %rax
 12508 0036 4889C7   		movq	%rax, %rdi
 12509 0039 E8000000 		call	_ZdlPv@PLT
 12509      00
 12510 003e 4889D8   		movq	%rbx, %rax
 12511 0041 4889C7   		movq	%rax, %rdi
 12512              	.LEHB298:
 12513 0044 E8000000 		call	_Unwind_Resume@PLT
 12513      00
 12514              	.LEHE298:
 12515              	.L619:
 12516 0049 488B5DF8 		movq	-8(%rbp), %rbx
 12517 004d C9       		leave
 12518              		.cfi_def_cfa 7, 8
 12519 004e C3       		ret
 12520              		.cfi_endproc
 12521              	.LFE1462:
 12522              		.section	.gcc_except_table
 12523              	.LLSDA1462:
 12524 0836 FF       		.byte	0xff
 12525 0837 FF       		.byte	0xff
 12526 0838 01       		.byte	0x1
 12527 0839 08       		.uleb128 .LLSDACSE1462-.LLSDACSB1462
 12528              	.LLSDACSB1462:
 12529 083a 18       		.uleb128 .LEHB297-.LFB1462
 12530 083b 05       		.uleb128 .LEHE297-.LEHB297
 12531 083c 2B       		.uleb128 .L618-.LFB1462
 12532 083d 00       		.uleb128 0
 12533 083e 44       		.uleb128 .LEHB298-.LFB1462
 12534 083f 05       		.uleb128 .LEHE298-.LEHB298
 12535 0840 00       		.uleb128 0
 12536 0841 00       		.uleb128 0
 12537              	.LLSDACSE1462:
 12538              		.section	.text._ZN8UnitTest15MemoryOutStreamD0Ev,"axG",@progbits,_ZN8UnitTest15MemoryOutStreamD0Ev
 12540              		.set	.LTHUNK1,_ZN8UnitTest15MemoryOutStreamD0Ev
 12541              		.weak	_ZTv0_n24_N8UnitTest15MemoryOutStreamD0Ev
 12543              	_ZTv0_n24_N8UnitTest15MemoryOutStreamD0Ev:
 12544              	.LFB1466:
  13:../MemoryOutStream.h **** {
 12545              		.loc 2 13 7 is_stmt 1
 12546              		.cfi_startproc
 12547 004f F30F1EFA 		endbr64
 12548 0053 4C8B17   		movq	(%rdi), %r10
 12549 0056 49037AE8 		addq	-24(%r10), %rdi
 12550 005a EBA4     		jmp	.LTHUNK1
 12551              		.cfi_endproc
 12552              	.LFE1466:
 12554              		.weak	_ZTI44TestCurrentTestDetailsContainCurrentTestInfo
 12555              		.section	.data.rel.ro._ZTI44TestCurrentTestDetailsContainCurrentTestInfo,"awG",@progbits,_ZTI44Tes
 12556              		.align 8
 12559              	_ZTI44TestCurrentTestDetailsContainCurrentTestInfo:
 12560 0000 00000000 		.quad	_ZTVN10__cxxabiv120__si_class_type_infoE+16
 12560      00000000 
 12561 0008 00000000 		.quad	_ZTS44TestCurrentTestDetailsContainCurrentTestInfo
 12561      00000000 
 12562 0010 00000000 		.quad	_ZTIN8UnitTest4TestE
 12562      00000000 
 12563              		.weak	_ZTS44TestCurrentTestDetailsContainCurrentTestInfo
 12564              		.section	.rodata._ZTS44TestCurrentTestDetailsContainCurrentTestInfo,"aG",@progbits,_ZTS44TestCurre
 12565              		.align 32
 12568              	_ZTS44TestCurrentTestDetailsContainCurrentTestInfo:
 12569 0000 34345465 		.string	"44TestCurrentTestDetailsContainCurrentTestInfo"
 12569      73744375 
 12569      7272656E 
 12569      74546573 
 12569      74446574 
 12570              		.weak	_ZTIN18SuiteSameTestSuite14TestDummyTest1E
 12571              		.section	.data.rel.ro._ZTIN18SuiteSameTestSuite14TestDummyTest1E,"awG",@progbits,_ZTIN18SuiteSameT
 12572              		.align 8
 12575              	_ZTIN18SuiteSameTestSuite14TestDummyTest1E:
 12576 0000 00000000 		.quad	_ZTVN10__cxxabiv120__si_class_type_infoE+16
 12576      00000000 
 12577 0008 00000000 		.quad	_ZTSN18SuiteSameTestSuite14TestDummyTest1E
 12577      00000000 
 12578 0010 00000000 		.quad	_ZTIN8UnitTest4TestE
 12578      00000000 
 12579              		.weak	_ZTSN18SuiteSameTestSuite14TestDummyTest1E
 12580              		.section	.rodata._ZTSN18SuiteSameTestSuite14TestDummyTest1E,"aG",@progbits,_ZTSN18SuiteSameTestSui
 12581              		.align 32
 12584              	_ZTSN18SuiteSameTestSuite14TestDummyTest1E:
 12585 0000 4E313853 		.string	"N18SuiteSameTestSuite14TestDummyTest1E"
 12585      75697465 
 12585      53616D65 
 12585      54657374 
 12585      53756974 
 12586              		.section	.rodata
 12587 0e83 00000000 		.align 32
 12587      00000000 
 12587      00000000 
 12587      00000000 
 12587      00000000 
 12590              	_ZTSN12_GLOBAL__N_147TestCorrectlyReportsFixturesWithCtorsThatAssertE:
 12591 0ea0 2A4E3132 		.string	"*N12_GLOBAL__N_147TestCorrectlyReportsFixturesWithCtorsThatAssertE"
 12591      5F474C4F 
 12591      42414C5F 
 12591      5F4E5F31 
 12591      34375465 
 12592              		.section	.data.rel.ro,"aw"
 12593              		.align 8
 12596              	_ZTIN12_GLOBAL__N_147TestCorrectlyReportsFixturesWithCtorsThatAssertE:
 12597 0000 00000000 		.quad	_ZTVN10__cxxabiv120__si_class_type_infoE+16
 12597      00000000 
 12598 0008 00000000 		.quad	_ZTSN12_GLOBAL__N_147TestCorrectlyReportsFixturesWithCtorsThatAssertE
 12598      00000000 
 12599 0010 00000000 		.quad	_ZTIN8UnitTest4TestE
 12599      00000000 
 12600              		.section	.rodata
 12601 0ee3 00000000 		.align 32
 12601      00000000 
 12601      00000000 
 12601      00000000 
 12601      00000000 
 12604              	_ZTSN12_GLOBAL__N_157TestFixtureCtorAssertsCorrectlyReportsAssertFailureInCtorE:
 12605 0f00 2A4E3132 		.string	"*N12_GLOBAL__N_157TestFixtureCtorAssertsCorrectlyReportsAssertFailureInCtorE"
 12605      5F474C4F 
 12605      42414C5F 
 12605      5F4E5F31 
 12605      35375465 
 12606              		.section	.data.rel.ro
 12607              		.align 8
 12610              	_ZTIN12_GLOBAL__N_157TestFixtureCtorAssertsCorrectlyReportsAssertFailureInCtorE:
 12611 0018 00000000 		.quad	_ZTVN10__cxxabiv120__si_class_type_infoE+16
 12611      00000000 
 12612 0020 00000000 		.quad	_ZTSN12_GLOBAL__N_157TestFixtureCtorAssertsCorrectlyReportsAssertFailureInCtorE
 12612      00000000 
 12613 0028 00000000 		.quad	_ZTIN8UnitTest4TestE
 12613      00000000 
 12614              		.section	.rodata
 12615 0f4d 00000000 		.align 32
 12615      00000000 
 12615      00000000 
 12615      00000000 
 12615      000000
 12618              	_ZTSN12_GLOBAL__N_140TestFixturesWithThrowingDtorsAreFailuresE:
 12619 0f60 2A4E3132 		.string	"*N12_GLOBAL__N_140TestFixturesWithThrowingDtorsAreFailuresE"
 12619      5F474C4F 
 12619      42414C5F 
 12619      5F4E5F31 
 12619      34305465 
 12620              		.section	.data.rel.ro
 12621              		.align 8
 12624              	_ZTIN12_GLOBAL__N_140TestFixturesWithThrowingDtorsAreFailuresE:
 12625 0030 00000000 		.quad	_ZTVN10__cxxabiv120__si_class_type_infoE+16
 12625      00000000 
 12626 0038 00000000 		.quad	_ZTSN12_GLOBAL__N_140TestFixturesWithThrowingDtorsAreFailuresE
 12626      00000000 
 12627 0040 00000000 		.quad	_ZTIN8UnitTest4TestE
 12627      00000000 
 12628              		.section	.rodata
 12629 0f9c 00000000 		.align 32
 12632              	_ZTSN12_GLOBAL__N_146TestFixtureDtorThrowsFixtureDtorThrowsTestNameE:
 12633 0fa0 2A4E3132 		.string	"*N12_GLOBAL__N_146TestFixtureDtorThrowsFixtureDtorThrowsTestNameE"
 12633      5F474C4F 
 12633      42414C5F 
 12633      5F4E5F31 
 12633      34365465 
 12634              		.section	.data.rel.ro
 12635              		.align 8
 12638              	_ZTIN12_GLOBAL__N_146TestFixtureDtorThrowsFixtureDtorThrowsTestNameE:
 12639 0048 00000000 		.quad	_ZTVN10__cxxabiv120__si_class_type_infoE+16
 12639      00000000 
 12640 0050 00000000 		.quad	_ZTSN12_GLOBAL__N_146TestFixtureDtorThrowsFixtureDtorThrowsTestNameE
 12640      00000000 
 12641 0058 00000000 		.quad	_ZTIN8UnitTest4TestE
 12641      00000000 
 12642              		.section	.rodata
 12643 0fe2 00000000 		.align 32
 12643      00000000 
 12643      00000000 
 12643      00000000 
 12643      00000000 
 12646              	_ZTSN12_GLOBAL__N_140TestFixturesWithThrowingCtorsAreFailuresE:
 12647 1000 2A4E3132 		.string	"*N12_GLOBAL__N_140TestFixturesWithThrowingCtorsAreFailuresE"
 12647      5F474C4F 
 12647      42414C5F 
 12647      5F4E5F31 
 12647      34305465 
 12648              		.section	.data.rel.ro
 12649              		.align 8
 12652              	_ZTIN12_GLOBAL__N_140TestFixturesWithThrowingCtorsAreFailuresE:
 12653 0060 00000000 		.quad	_ZTVN10__cxxabiv120__si_class_type_infoE+16
 12653      00000000 
 12654 0068 00000000 		.quad	_ZTSN12_GLOBAL__N_140TestFixturesWithThrowingCtorsAreFailuresE
 12654      00000000 
 12655 0070 00000000 		.quad	_ZTIN8UnitTest4TestE
 12655      00000000 
 12656              		.section	.rodata
 12657 103c 00000000 		.align 32
 12660              	_ZTSN12_GLOBAL__N_146TestFixtureCtorThrowsFixtureCtorThrowsTestNameE:
 12661 1040 2A4E3132 		.string	"*N12_GLOBAL__N_146TestFixtureCtorThrowsFixtureCtorThrowsTestNameE"
 12661      5F474C4F 
 12661      42414C5F 
 12661      5F4E5F31 
 12661      34365465 
 12662              		.section	.data.rel.ro
 12663              		.align 8
 12666              	_ZTIN12_GLOBAL__N_146TestFixtureCtorThrowsFixtureCtorThrowsTestNameE:
 12667 0078 00000000 		.quad	_ZTVN10__cxxabiv120__si_class_type_infoE+16
 12667      00000000 
 12668 0080 00000000 		.quad	_ZTSN12_GLOBAL__N_146TestFixtureCtorThrowsFixtureCtorThrowsTestNameE
 12668      00000000 
 12669 0088 00000000 		.quad	_ZTIN8UnitTest4TestE
 12669      00000000 
 12670              		.section	.rodata
 12671 1082 00000000 		.align 32
 12671      00000000 
 12671      00000000 
 12671      00000000 
 12671      00000000 
 12674              	_ZTSN12_GLOBAL__N_153TestTestAddedWithTEST_FIXTURE_EXMacroGetsDefaultSuiteE:
 12675 10a0 2A4E3132 		.string	"*N12_GLOBAL__N_153TestTestAddedWithTEST_FIXTURE_EXMacroGetsDefaultSuiteE"
 12675      5F474C4F 
 12675      42414C5F 
 12675      5F4E5F31 
 12675      35335465 
 12676              		.section	.data.rel.ro
 12677              		.align 8
 12680              	_ZTIN12_GLOBAL__N_153TestTestAddedWithTEST_FIXTURE_EXMacroGetsDefaultSuiteE:
 12681 0090 00000000 		.quad	_ZTVN10__cxxabiv120__si_class_type_infoE+16
 12681      00000000 
 12682 0098 00000000 		.quad	_ZTSN12_GLOBAL__N_153TestTestAddedWithTEST_FIXTURE_EXMacroGetsDefaultSuiteE
 12682      00000000 
 12683 00a0 00000000 		.quad	_ZTIN8UnitTest4TestE
 12683      00000000 
 12684              		.section	.rodata
 12685 10e9 00000000 		.align 32
 12685      00000000 
 12685      00000000 
 12685      00000000 
 12685      00000000 
 12688              	_ZTSN12_GLOBAL__N_132TestDummyFixtureMacroTestHelper2E:
 12689 1100 2A4E3132 		.string	"*N12_GLOBAL__N_132TestDummyFixtureMacroTestHelper2E"
 12689      5F474C4F 
 12689      42414C5F 
 12689      5F4E5F31 
 12689      33325465 
 12690              		.section	.data.rel.ro
 12691              		.align 8
 12694              	_ZTIN12_GLOBAL__N_132TestDummyFixtureMacroTestHelper2E:
 12695 00a8 00000000 		.quad	_ZTVN10__cxxabiv120__si_class_type_infoE+16
 12695      00000000 
 12696 00b0 00000000 		.quad	_ZTSN12_GLOBAL__N_132TestDummyFixtureMacroTestHelper2E
 12696      00000000 
 12697 00b8 00000000 		.quad	_ZTIN8UnitTest4TestE
 12697      00000000 
 12698              		.section	.rodata
 12699 1134 00000000 		.align 32
 12699      00000000 
 12699      00000000 
 12702              	_ZTSN12_GLOBAL__N_145TestTestAddedWithTEST_EXMacroGetsDefaultSuiteE:
 12703 1140 2A4E3132 		.string	"*N12_GLOBAL__N_145TestTestAddedWithTEST_EXMacroGetsDefaultSuiteE"
 12703      5F474C4F 
 12703      42414C5F 
 12703      5F4E5F31 
 12703      34355465 
 12704              		.section	.data.rel.ro
 12705              		.align 8
 12708              	_ZTIN12_GLOBAL__N_145TestTestAddedWithTEST_EXMacroGetsDefaultSuiteE:
 12709 00c0 00000000 		.quad	_ZTVN10__cxxabiv120__si_class_type_infoE+16
 12709      00000000 
 12710 00c8 00000000 		.quad	_ZTSN12_GLOBAL__N_145TestTestAddedWithTEST_EXMacroGetsDefaultSuiteE
 12710      00000000 
 12711 00d0 00000000 		.quad	_ZTIN8UnitTest4TestE
 12711      00000000 
 12712              		.section	.rodata
 12713 1181 00000000 		.align 32
 12713      00000000 
 12713      00000000 
 12713      00000000 
 12713      00000000 
 12716              	_ZTSN12_GLOBAL__N_120TestMacroTestHelper1E:
 12717 11a0 2A4E3132 		.string	"*N12_GLOBAL__N_120TestMacroTestHelper1E"
 12717      5F474C4F 
 12717      42414C5F 
 12717      5F4E5F31 
 12717      32305465 
 12718              		.section	.data.rel.ro
 12719              		.align 8
 12722              	_ZTIN12_GLOBAL__N_120TestMacroTestHelper1E:
 12723 00d8 00000000 		.quad	_ZTVN10__cxxabiv120__si_class_type_infoE+16
 12723      00000000 
 12724 00e0 00000000 		.quad	_ZTSN12_GLOBAL__N_120TestMacroTestHelper1E
 12724      00000000 
 12725 00e8 00000000 		.quad	_ZTIN8UnitTest4TestE
 12725      00000000 
 12726              		.section	.rodata
 12727 11c8 00000000 		.align 32
 12727      00000000 
 12727      00000000 
 12727      00000000 
 12727      00000000 
 12730              	_ZTSN12_GLOBAL__N_115SuiteTestSuite263TestDummyFixtureSimilarlyNamedFixtureTestsInDifferentSuitesWo
 12731 11e0 2A4E3132 		.string	"*N12_GLOBAL__N_115SuiteTestSuite263TestDummyFixtureSimilarlyNamedFixtureTestsInDifferentS
 12731      5F474C4F 
 12731      42414C5F 
 12731      5F4E5F31 
 12731      31355375 
 12732              		.section	.data.rel.ro
 12733              		.align 8
 12736              	_ZTIN12_GLOBAL__N_115SuiteTestSuite263TestDummyFixtureSimilarlyNamedFixtureTestsInDifferentSuitesWo
 12737 00f0 00000000 		.quad	_ZTVN10__cxxabiv120__si_class_type_infoE+16
 12737      00000000 
 12738 00f8 00000000 		.quad	_ZTSN12_GLOBAL__N_115SuiteTestSuite263TestDummyFixtureSimilarlyNamedFixtureTestsInDifferentS
 12738      00000000 
 12739 0100 00000000 		.quad	_ZTIN8UnitTest4TestE
 12739      00000000 
 12740              		.section	.rodata
 12741 1244 00000000 		.align 32
 12741      00000000 
 12741      00000000 
 12741      00000000 
 12741      00000000 
 12744              	_ZTSN12_GLOBAL__N_115SuiteTestSuite244TestSimilarlyNamedTestsInDifferentSuitesWorkE:
 12745 1260 2A4E3132 		.string	"*N12_GLOBAL__N_115SuiteTestSuite244TestSimilarlyNamedTestsInDifferentSuitesWorkE"
 12745      5F474C4F 
 12745      42414C5F 
 12745      5F4E5F31 
 12745      31355375 
 12746              		.section	.data.rel.ro
 12747              		.align 8
 12750              	_ZTIN12_GLOBAL__N_115SuiteTestSuite244TestSimilarlyNamedTestsInDifferentSuitesWorkE:
 12751 0108 00000000 		.quad	_ZTVN10__cxxabiv120__si_class_type_infoE+16
 12751      00000000 
 12752 0110 00000000 		.quad	_ZTSN12_GLOBAL__N_115SuiteTestSuite244TestSimilarlyNamedTestsInDifferentSuitesWorkE
 12752      00000000 
 12753 0118 00000000 		.quad	_ZTIN8UnitTest4TestE
 12753      00000000 
 12754              		.section	.rodata
 12755 12b1 00000000 		.align 32
 12755      00000000 
 12755      00000000 
 12755      000000
 12758              	_ZTSN12_GLOBAL__N_115SuiteTestSuite163TestDummyFixtureSimilarlyNamedFixtureTestsInDifferentSuitesWo
 12759 12c0 2A4E3132 		.string	"*N12_GLOBAL__N_115SuiteTestSuite163TestDummyFixtureSimilarlyNamedFixtureTestsInDifferentS
 12759      5F474C4F 
 12759      42414C5F 
 12759      5F4E5F31 
 12759      31355375 
 12760              		.section	.data.rel.ro
 12761              		.align 8
 12764              	_ZTIN12_GLOBAL__N_115SuiteTestSuite163TestDummyFixtureSimilarlyNamedFixtureTestsInDifferentSuitesWo
 12765 0120 00000000 		.quad	_ZTVN10__cxxabiv120__si_class_type_infoE+16
 12765      00000000 
 12766 0128 00000000 		.quad	_ZTSN12_GLOBAL__N_115SuiteTestSuite163TestDummyFixtureSimilarlyNamedFixtureTestsInDifferentS
 12766      00000000 
 12767 0130 00000000 		.quad	_ZTIN8UnitTest4TestE
 12767      00000000 
 12768              		.section	.rodata
 12769 1324 00000000 		.align 32
 12769      00000000 
 12769      00000000 
 12769      00000000 
 12769      00000000 
 12772              	_ZTSN12_GLOBAL__N_115SuiteTestSuite144TestSimilarlyNamedTestsInDifferentSuitesWorkE:
 12773 1340 2A4E3132 		.string	"*N12_GLOBAL__N_115SuiteTestSuite144TestSimilarlyNamedTestsInDifferentSuitesWorkE"
 12773      5F474C4F 
 12773      42414C5F 
 12773      5F4E5F31 
 12773      31355375 
 12774              		.section	.data.rel.ro
 12775              		.align 8
 12778              	_ZTIN12_GLOBAL__N_115SuiteTestSuite144TestSimilarlyNamedTestsInDifferentSuitesWorkE:
 12779 0138 00000000 		.quad	_ZTVN10__cxxabiv120__si_class_type_infoE+16
 12779      00000000 
 12780 0140 00000000 		.quad	_ZTSN12_GLOBAL__N_115SuiteTestSuite144TestSimilarlyNamedTestsInDifferentSuitesWorkE
 12780      00000000 
 12781 0148 00000000 		.quad	_ZTIN8UnitTest4TestE
 12781      00000000 
 12782              		.section	.rodata
 12783 1391 00000000 		.align 32
 12783      00000000 
 12783      00000000 
 12783      000000
 12786              	_ZTSN12_GLOBAL__N_157TestExceptionsInFixtureAreReportedAsHappeningInTheFixtureE:
 12787 13a0 2A4E3132 		.string	"*N12_GLOBAL__N_157TestExceptionsInFixtureAreReportedAsHappeningInTheFixtureE"
 12787      5F474C4F 
 12787      42414C5F 
 12787      5F4E5F31 
 12787      35375465 
 12788              		.section	.data.rel.ro
 12789              		.align 8
 12792              	_ZTIN12_GLOBAL__N_157TestExceptionsInFixtureAreReportedAsHappeningInTheFixtureE:
 12793 0150 00000000 		.quad	_ZTVN10__cxxabiv120__si_class_type_infoE+16
 12793      00000000 
 12794 0158 00000000 		.quad	_ZTSN12_GLOBAL__N_157TestExceptionsInFixtureAreReportedAsHappeningInTheFixtureE
 12794      00000000 
 12795 0160 00000000 		.quad	_ZTIN8UnitTest4TestE
 12795      00000000 
 12796              		.section	.rodata
 12797 13ed 00000000 		.align 32
 12797      00000000 
 12797      00000000 
 12797      00000000 
 12797      000000
 12800              	_ZTSN12_GLOBAL__N_132TestThrowingThingieDummyTestNameE:
 12801 1400 2A4E3132 		.string	"*N12_GLOBAL__N_132TestThrowingThingieDummyTestNameE"
 12801      5F474C4F 
 12801      42414C5F 
 12801      5F4E5F31 
 12801      33325465 
 12802              		.section	.data.rel.ro
 12803              		.align 8
 12806              	_ZTIN12_GLOBAL__N_132TestThrowingThingieDummyTestNameE:
 12807 0168 00000000 		.quad	_ZTVN10__cxxabiv120__si_class_type_infoE+16
 12807      00000000 
 12808 0170 00000000 		.quad	_ZTSN12_GLOBAL__N_132TestThrowingThingieDummyTestNameE
 12808      00000000 
 12809 0178 00000000 		.quad	_ZTIN8UnitTest4TestE
 12809      00000000 
 12810              		.section	.rodata
 12811 1434 00000000 		.align 32
 12811      00000000 
 12811      00000000 
 12814              	_ZTSN12_GLOBAL__N_138TestTestsAreAddedToTheListThroughMacroE:
 12815 1440 2A4E3132 		.string	"*N12_GLOBAL__N_138TestTestsAreAddedToTheListThroughMacroE"
 12815      5F474C4F 
 12815      42414C5F 
 12815      5F4E5F31 
 12815      33385465 
 12816              		.section	.data.rel.ro
 12817              		.align 8
 12820              	_ZTIN12_GLOBAL__N_138TestTestsAreAddedToTheListThroughMacroE:
 12821 0180 00000000 		.quad	_ZTVN10__cxxabiv120__si_class_type_infoE+16
 12821      00000000 
 12822 0188 00000000 		.quad	_ZTSN12_GLOBAL__N_138TestTestsAreAddedToTheListThroughMacroE
 12822      00000000 
 12823 0190 00000000 		.quad	_ZTIN8UnitTest4TestE
 12823      00000000 
 12824              		.section	.rodata
 12825 147a 00000000 		.align 32
 12825      0000
 12828              	_ZTSN12_GLOBAL__N_113TestDummyTestE:
 12829 1480 2A4E3132 		.string	"*N12_GLOBAL__N_113TestDummyTestE"
 12829      5F474C4F 
 12829      42414C5F 
 12829      5F4E5F31 
 12829      31335465 
 12830              		.section	.data.rel.ro
 12831              		.align 8
 12834              	_ZTIN12_GLOBAL__N_113TestDummyTestE:
 12835 0198 00000000 		.quad	_ZTVN10__cxxabiv120__si_class_type_infoE+16
 12835      00000000 
 12836 01a0 00000000 		.quad	_ZTSN12_GLOBAL__N_113TestDummyTestE
 12836      00000000 
 12837 01a8 00000000 		.quad	_ZTIN8UnitTest4TestE
 12837      00000000 
 12838              		.weak	_ZTI17RecordingReporter
 12839              		.section	.data.rel.ro._ZTI17RecordingReporter,"awG",@progbits,_ZTI17RecordingReporter,comdat
 12840              		.align 8
 12843              	_ZTI17RecordingReporter:
 12844 0000 00000000 		.quad	_ZTVN10__cxxabiv120__si_class_type_infoE+16
 12844      00000000 
 12845 0008 00000000 		.quad	_ZTS17RecordingReporter
 12845      00000000 
 12846 0010 00000000 		.quad	_ZTIN8UnitTest12TestReporterE
 12846      00000000 
 12847              		.weak	_ZTS17RecordingReporter
 12848              		.section	.rodata._ZTS17RecordingReporter,"aG",@progbits,_ZTS17RecordingReporter,comdat
 12849              		.align 16
 12852              	_ZTS17RecordingReporter:
 12853 0000 31375265 		.string	"17RecordingReporter"
 12853      636F7264 
 12853      696E6752 
 12853      65706F72 
 12853      74657200 
 12854              		.weak	_ZTIN8UnitTest15MemoryOutStreamE
 12855              		.section	.data.rel.ro._ZTIN8UnitTest15MemoryOutStreamE,"awG",@progbits,_ZTIN8UnitTest15MemoryOutSt
 12856              		.align 8
 12859              	_ZTIN8UnitTest15MemoryOutStreamE:
 12860 0000 00000000 		.quad	_ZTVN10__cxxabiv120__si_class_type_infoE+16
 12860      00000000 
 12861 0008 00000000 		.quad	_ZTSN8UnitTest15MemoryOutStreamE
 12861      00000000 
 12862 0010 00000000 		.quad	_ZTINSt7__cxx1119basic_ostringstreamIcSt11char_traitsIcESaIcEEE
 12862      00000000 
 12863              		.weak	_ZTSN8UnitTest15MemoryOutStreamE
 12864              		.section	.rodata._ZTSN8UnitTest15MemoryOutStreamE,"aG",@progbits,_ZTSN8UnitTest15MemoryOutStreamE,
 12865              		.align 16
 12868              	_ZTSN8UnitTest15MemoryOutStreamE:
 12869 0000 4E38556E 		.string	"N8UnitTest15MemoryOutStreamE"
 12869      69745465 
 12869      73743135 
 12869      4D656D6F 
 12869      72794F75 
 12870              		.text
 12872              	_Z41__static_initialization_and_destruction_0ii:
 12873              	.LFB1463:
 12874              		.loc 6 210 1
 12875              		.cfi_startproc
 12876 5035 F30F1EFA 		endbr64
 12877 5039 55       		pushq	%rbp
 12878              		.cfi_def_cfa_offset 16
 12879              		.cfi_offset 6, -16
 12880 503a 4889E5   		movq	%rsp, %rbp
 12881              		.cfi_def_cfa_register 6
 12882 503d 4883EC10 		subq	$16, %rsp
 12883 5041 897DFC   		movl	%edi, -4(%rbp)
 12884 5044 8975F8   		movl	%esi, -8(%rbp)
 12885              		.loc 6 210 1
 12886 5047 837DFC01 		cmpl	$1, -4(%rbp)
 12887 504b 0F852707 		jne	.L622
 12887      0000
 12888              		.loc 6 210 1 is_stmt 0 discriminator 1
 12889 5051 817DF8FF 		cmpl	$65535, -8(%rbp)
 12889      FF0000
 12890 5058 0F851A07 		jne	.L622
 12890      0000
  14:TestTestMacros.cpp **** TEST_EX(DummyTest, list1)
 12891              		.loc 6 14 10 is_stmt 1
 12892 505e 488D0500 		leaq	_ZN12_GLOBAL__N_15list1E(%rip), %rax
 12892      000000
 12893 5065 4889C7   		movq	%rax, %rdi
 12894 5068 E8000000 		call	_ZN8UnitTest8TestListC1Ev@PLT
 12894      00
  15:TestTestMacros.cpp **** {
 12895              		.loc 6 15 1
 12896 506d 488D0500 		leaq	_ZN12_GLOBAL__N_121testDummyTestInstanceE(%rip), %rax
 12896      000000
 12897 5074 4889C7   		movq	%rax, %rdi
 12898 5077 E884AFFF 		call	_ZN12_GLOBAL__N_113TestDummyTestC1Ev
 12898      FF
 12899 507c 488D0500 		leaq	__dso_handle(%rip), %rax
 12899      000000
 12900 5083 4889C2   		movq	%rax, %rdx
 12901 5086 488D0500 		leaq	_ZN12_GLOBAL__N_121testDummyTestInstanceE(%rip), %rax
 12901      000000
 12902 508d 4889C6   		movq	%rax, %rsi
 12903 5090 488D0521 		leaq	_ZN12_GLOBAL__N_113TestDummyTestD1Ev(%rip), %rax
 12903      FFFFFF
 12904 5097 4889C7   		movq	%rax, %rdi
 12905 509a E8000000 		call	__cxa_atexit@PLT
 12905      00
 12906 509f 488D0500 		leaq	_ZN12_GLOBAL__N_121testDummyTestInstanceE(%rip), %rax
 12906      000000
 12907 50a6 4889C2   		movq	%rax, %rdx
 12908 50a9 488D0500 		leaq	_ZN12_GLOBAL__N_15list1E(%rip), %rax
 12908      000000
 12909 50b0 4889C6   		movq	%rax, %rsi
 12910 50b3 488D0500 		leaq	_ZN12_GLOBAL__N_114adderDummyTestE(%rip), %rax
 12910      000000
 12911 50ba 4889C7   		movq	%rax, %rdi
 12912 50bd E8000000 		call	_ZN8UnitTest9ListAdderC1ERNS_8TestListEPNS_4TestE@PLT
 12912      00
  19:TestTestMacros.cpp **** {
 12913              		.loc 6 19 1
 12914 50c2 488D0500 		leaq	_ZN12_GLOBAL__N_146testTestsAreAddedToTheListThroughMacroInstanceE(%rip), %rax
 12914      000000
 12915 50c9 4889C7   		movq	%rax, %rdi
 12916 50cc E88FAFFF 		call	_ZN12_GLOBAL__N_138TestTestsAreAddedToTheListThroughMacroC1Ev
 12916      FF
 12917 50d1 488D0500 		leaq	__dso_handle(%rip), %rax
 12917      000000
 12918 50d8 4889C2   		movq	%rax, %rdx
 12919 50db 488D0500 		leaq	_ZN12_GLOBAL__N_146testTestsAreAddedToTheListThroughMacroInstanceE(%rip), %rax
 12919      000000
 12920 50e2 4889C6   		movq	%rax, %rsi
 12921 50e5 488D054E 		leaq	_ZN12_GLOBAL__N_138TestTestsAreAddedToTheListThroughMacroD1Ev(%rip), %rax
 12921      FEFFFF
 12922 50ec 4889C7   		movq	%rax, %rdi
 12923 50ef E8000000 		call	__cxa_atexit@PLT
 12923      00
 12924 50f4 E8000000 		call	_ZN8UnitTest4Test11GetTestListEv@PLT
 12924      00
 12925 50f9 4889C1   		movq	%rax, %rcx
 12926 50fc 488D0500 		leaq	_ZN12_GLOBAL__N_146testTestsAreAddedToTheListThroughMacroInstanceE(%rip), %rax
 12926      000000
 12927 5103 4889C2   		movq	%rax, %rdx
 12928 5106 4889CE   		movq	%rcx, %rsi
 12929 5109 488D0500 		leaq	_ZN12_GLOBAL__N_139adderTestsAreAddedToTheListThroughMacroE(%rip), %rax
 12929      000000
 12930 5110 4889C7   		movq	%rax, %rdi
 12931 5113 E8000000 		call	_ZN8UnitTest9ListAdderC1ERNS_8TestListEPNS_4TestE@PLT
 12931      00
  36:TestTestMacros.cpp **** TEST_FIXTURE_EX(ThrowingThingie, DummyTestName, list2)
 12932              		.loc 6 36 10
 12933 5118 488D0500 		leaq	_ZN12_GLOBAL__N_15list2E(%rip), %rax
 12933      000000
 12934 511f 4889C7   		movq	%rax, %rdi
 12935 5122 E8000000 		call	_ZN8UnitTest8TestListC1Ev@PLT
 12935      00
  37:TestTestMacros.cpp **** {
 12936              		.loc 6 37 1
 12937 5127 488D0500 		leaq	_ZN12_GLOBAL__N_140testThrowingThingieDummyTestNameInstanceE(%rip), %rax
 12937      000000
 12938 512e 4889C7   		movq	%rax, %rdi
 12939 5131 E8CAB1FF 		call	_ZN12_GLOBAL__N_132TestThrowingThingieDummyTestNameC1Ev
 12939      FF
 12940 5136 488D0500 		leaq	__dso_handle(%rip), %rax
 12940      000000
 12941 513d 4889C2   		movq	%rax, %rdx
 12942 5140 488D0500 		leaq	_ZN12_GLOBAL__N_140testThrowingThingieDummyTestNameInstanceE(%rip), %rax
 12942      000000
 12943 5147 4889C6   		movq	%rax, %rsi
 12944 514a 488D056B 		leaq	_ZN12_GLOBAL__N_132TestThrowingThingieDummyTestNameD1Ev(%rip), %rax
 12944      FDFFFF
 12945 5151 4889C7   		movq	%rax, %rdi
 12946 5154 E8000000 		call	__cxa_atexit@PLT
 12946      00
 12947 5159 488D0500 		leaq	_ZN12_GLOBAL__N_140testThrowingThingieDummyTestNameInstanceE(%rip), %rax
 12947      000000
 12948 5160 4889C2   		movq	%rax, %rdx
 12949 5163 488D0500 		leaq	_ZN12_GLOBAL__N_15list2E(%rip), %rax
 12949      000000
 12950 516a 4889C6   		movq	%rax, %rsi
 12951 516d 488D0500 		leaq	_ZN12_GLOBAL__N_133adderThrowingThingieDummyTestNameE(%rip), %rax
 12951      000000
 12952 5174 4889C7   		movq	%rax, %rdi
 12953 5177 E8000000 		call	_ZN8UnitTest9ListAdderC1ERNS_8TestListEPNS_4TestE@PLT
 12953      00
  41:TestTestMacros.cpp **** {
 12954              		.loc 6 41 1
 12955 517c 488D0500 		leaq	_ZN12_GLOBAL__N_165testExceptionsInFixtureAreReportedAsHappeningInTheFixtureInstanceE(%rip), 
 12955      000000
 12956 5183 4889C7   		movq	%rax, %rdi
 12957 5186 E8D1B4FF 		call	_ZN12_GLOBAL__N_157TestExceptionsInFixtureAreReportedAsHappeningInTheFixtureC1Ev
 12957      FF
 12958 518b 488D0500 		leaq	__dso_handle(%rip), %rax
 12958      000000
 12959 5192 4889C2   		movq	%rax, %rdx
 12960 5195 488D0500 		leaq	_ZN12_GLOBAL__N_165testExceptionsInFixtureAreReportedAsHappeningInTheFixtureInstanceE(%rip), 
 12960      000000
 12961 519c 4889C6   		movq	%rax, %rsi
 12962 519f 488D0598 		leaq	_ZN12_GLOBAL__N_157TestExceptionsInFixtureAreReportedAsHappeningInTheFixtureD1Ev(%rip), %rax
 12962      FCFFFF
 12963 51a6 4889C7   		movq	%rax, %rdi
 12964 51a9 E8000000 		call	__cxa_atexit@PLT
 12964      00
 12965 51ae E8000000 		call	_ZN8UnitTest4Test11GetTestListEv@PLT
 12965      00
 12966 51b3 4889C1   		movq	%rax, %rcx
 12967 51b6 488D0500 		leaq	_ZN12_GLOBAL__N_165testExceptionsInFixtureAreReportedAsHappeningInTheFixtureInstanceE(%rip), 
 12967      000000
 12968 51bd 4889C2   		movq	%rax, %rdx
 12969 51c0 4889CE   		movq	%rcx, %rsi
 12970 51c3 488D0500 		leaq	_ZN12_GLOBAL__N_158adderExceptionsInFixtureAreReportedAsHappeningInTheFixtureE(%rip), %rax
 12970      000000
 12971 51ca 4889C7   		movq	%rax, %rdi
 12972 51cd E8000000 		call	_ZN8UnitTest9ListAdderC1ERNS_8TestListEPNS_4TestE@PLT
 12972      00
  63:TestTestMacros.cpp **** 	{
 12973              		.loc 6 63 2
 12974 51d2 488D0500 		leaq	_ZN12_GLOBAL__N_115SuiteTestSuite152testSimilarlyNamedTestsInDifferentSuitesWorkInstanceE(%ri
 12974      000000
 12975 51d9 4889C7   		movq	%rax, %rdi
 12976 51dc E851B8FF 		call	_ZN12_GLOBAL__N_115SuiteTestSuite144TestSimilarlyNamedTestsInDifferentSuitesWorkC1Ev
 12976      FF
 12977 51e1 488D0500 		leaq	__dso_handle(%rip), %rax
 12977      000000
 12978 51e8 4889C2   		movq	%rax, %rdx
 12979 51eb 488D0500 		leaq	_ZN12_GLOBAL__N_115SuiteTestSuite152testSimilarlyNamedTestsInDifferentSuitesWorkInstanceE(%ri
 12979      000000
 12980 51f2 4889C6   		movq	%rax, %rsi
 12981 51f5 488D05C4 		leaq	_ZN12_GLOBAL__N_115SuiteTestSuite144TestSimilarlyNamedTestsInDifferentSuitesWorkD1Ev(%rip), %
 12981      FBFFFF
 12982 51fc 4889C7   		movq	%rax, %rdi
 12983 51ff E8000000 		call	__cxa_atexit@PLT
 12983      00
 12984 5204 E8000000 		call	_ZN8UnitTest4Test11GetTestListEv@PLT
 12984      00
 12985 5209 4889C1   		movq	%rax, %rcx
 12986 520c 488D0500 		leaq	_ZN12_GLOBAL__N_115SuiteTestSuite152testSimilarlyNamedTestsInDifferentSuitesWorkInstanceE(%ri
 12986      000000
 12987 5213 4889C2   		movq	%rax, %rdx
 12988 5216 4889CE   		movq	%rcx, %rsi
 12989 5219 488D0500 		leaq	_ZN12_GLOBAL__N_115SuiteTestSuite145adderSimilarlyNamedTestsInDifferentSuitesWorkE(%rip), %ra
 12989      000000
 12990 5220 4889C7   		movq	%rax, %rdi
 12991 5223 E8000000 		call	_ZN8UnitTest9ListAdderC1ERNS_8TestListEPNS_4TestE@PLT
 12991      00
  67:TestTestMacros.cpp **** 	{
 12992              		.loc 6 67 2
 12993 5228 488D0500 		leaq	_ZN12_GLOBAL__N_115SuiteTestSuite171testDummyFixtureSimilarlyNamedFixtureTestsInDifferentSuit
 12993      000000
 12994 522f 4889C7   		movq	%rax, %rdi
 12995 5232 E877B8FF 		call	_ZN12_GLOBAL__N_115SuiteTestSuite163TestDummyFixtureSimilarlyNamedFixtureTestsInDifferentSuit
 12995      FF
 12996 5237 488D0500 		leaq	__dso_handle(%rip), %rax
 12996      000000
 12997 523e 4889C2   		movq	%rax, %rdx
 12998 5241 488D0500 		leaq	_ZN12_GLOBAL__N_115SuiteTestSuite171testDummyFixtureSimilarlyNamedFixtureTestsInDifferentSuit
 12998      000000
 12999 5248 4889C6   		movq	%rax, %rsi
 13000 524b 488D05F0 		leaq	_ZN12_GLOBAL__N_115SuiteTestSuite163TestDummyFixtureSimilarlyNamedFixtureTestsInDifferentSuit
 13000      FAFFFF
 13001 5252 4889C7   		movq	%rax, %rdi
 13002 5255 E8000000 		call	__cxa_atexit@PLT
 13002      00
 13003 525a E8000000 		call	_ZN8UnitTest4Test11GetTestListEv@PLT
 13003      00
 13004 525f 4889C1   		movq	%rax, %rcx
 13005 5262 488D0500 		leaq	_ZN12_GLOBAL__N_115SuiteTestSuite171testDummyFixtureSimilarlyNamedFixtureTestsInDifferentSuit
 13005      000000
 13006 5269 4889C2   		movq	%rax, %rdx
 13007 526c 4889CE   		movq	%rcx, %rsi
 13008 526f 488D0500 		leaq	_ZN12_GLOBAL__N_115SuiteTestSuite164adderDummyFixtureSimilarlyNamedFixtureTestsInDifferentSui
 13008      000000
 13009 5276 4889C7   		movq	%rax, %rdi
 13010 5279 E8000000 		call	_ZN8UnitTest9ListAdderC1ERNS_8TestListEPNS_4TestE@PLT
 13010      00
  74:TestTestMacros.cpp **** 	{
 13011              		.loc 6 74 2
 13012 527e 488D0500 		leaq	_ZN12_GLOBAL__N_115SuiteTestSuite252testSimilarlyNamedTestsInDifferentSuitesWorkInstanceE(%ri
 13012      000000
 13013 5285 4889C7   		movq	%rax, %rdi
 13014 5288 E889BBFF 		call	_ZN12_GLOBAL__N_115SuiteTestSuite244TestSimilarlyNamedTestsInDifferentSuitesWorkC1Ev
 13014      FF
 13015 528d 488D0500 		leaq	__dso_handle(%rip), %rax
 13015      000000
 13016 5294 4889C2   		movq	%rax, %rdx
 13017 5297 488D0500 		leaq	_ZN12_GLOBAL__N_115SuiteTestSuite252testSimilarlyNamedTestsInDifferentSuitesWorkInstanceE(%ri
 13017      000000
 13018 529e 4889C6   		movq	%rax, %rsi
 13019 52a1 488D051C 		leaq	_ZN12_GLOBAL__N_115SuiteTestSuite244TestSimilarlyNamedTestsInDifferentSuitesWorkD1Ev(%rip), %
 13019      FAFFFF
 13020 52a8 4889C7   		movq	%rax, %rdi
 13021 52ab E8000000 		call	__cxa_atexit@PLT
 13021      00
 13022 52b0 E8000000 		call	_ZN8UnitTest4Test11GetTestListEv@PLT
 13022      00
 13023 52b5 4889C1   		movq	%rax, %rcx
 13024 52b8 488D0500 		leaq	_ZN12_GLOBAL__N_115SuiteTestSuite252testSimilarlyNamedTestsInDifferentSuitesWorkInstanceE(%ri
 13024      000000
 13025 52bf 4889C2   		movq	%rax, %rdx
 13026 52c2 4889CE   		movq	%rcx, %rsi
 13027 52c5 488D0500 		leaq	_ZN12_GLOBAL__N_115SuiteTestSuite245adderSimilarlyNamedTestsInDifferentSuitesWorkE(%rip), %ra
 13027      000000
 13028 52cc 4889C7   		movq	%rax, %rdi
 13029 52cf E8000000 		call	_ZN8UnitTest9ListAdderC1ERNS_8TestListEPNS_4TestE@PLT
 13029      00
  78:TestTestMacros.cpp **** 	{
 13030              		.loc 6 78 2
 13031 52d4 488D0500 		leaq	_ZN12_GLOBAL__N_115SuiteTestSuite271testDummyFixtureSimilarlyNamedFixtureTestsInDifferentSuit
 13031      000000
 13032 52db 4889C7   		movq	%rax, %rdi
 13033 52de E8AFBBFF 		call	_ZN12_GLOBAL__N_115SuiteTestSuite263TestDummyFixtureSimilarlyNamedFixtureTestsInDifferentSuit
 13033      FF
 13034 52e3 488D0500 		leaq	__dso_handle(%rip), %rax
 13034      000000
 13035 52ea 4889C2   		movq	%rax, %rdx
 13036 52ed 488D0500 		leaq	_ZN12_GLOBAL__N_115SuiteTestSuite271testDummyFixtureSimilarlyNamedFixtureTestsInDifferentSuit
 13036      000000
 13037 52f4 4889C6   		movq	%rax, %rsi
 13038 52f7 488D0548 		leaq	_ZN12_GLOBAL__N_115SuiteTestSuite263TestDummyFixtureSimilarlyNamedFixtureTestsInDifferentSuit
 13038      F9FFFF
 13039 52fe 4889C7   		movq	%rax, %rdi
 13040 5301 E8000000 		call	__cxa_atexit@PLT
 13040      00
 13041 5306 E8000000 		call	_ZN8UnitTest4Test11GetTestListEv@PLT
 13041      00
 13042 530b 4889C1   		movq	%rax, %rcx
 13043 530e 488D0500 		leaq	_ZN12_GLOBAL__N_115SuiteTestSuite271testDummyFixtureSimilarlyNamedFixtureTestsInDifferentSuit
 13043      000000
 13044 5315 4889C2   		movq	%rax, %rdx
 13045 5318 4889CE   		movq	%rcx, %rsi
 13046 531b 488D0500 		leaq	_ZN12_GLOBAL__N_115SuiteTestSuite264adderDummyFixtureSimilarlyNamedFixtureTestsInDifferentSui
 13046      000000
 13047 5322 4889C7   		movq	%rax, %rdi
 13048 5325 E8000000 		call	_ZN8UnitTest9ListAdderC1ERNS_8TestListEPNS_4TestE@PLT
 13048      00
  83:TestTestMacros.cpp **** TEST_EX(MacroTestHelper1, macroTestList1)
 13049              		.loc 6 83 10
 13050 532a 488D0500 		leaq	_ZN12_GLOBAL__N_114macroTestList1E(%rip), %rax
 13050      000000
 13051 5331 4889C7   		movq	%rax, %rdi
 13052 5334 E8000000 		call	_ZN8UnitTest8TestListC1Ev@PLT
 13052      00
  84:TestTestMacros.cpp **** {
 13053              		.loc 6 84 1
 13054 5339 488D0500 		leaq	_ZN12_GLOBAL__N_128testMacroTestHelper1InstanceE(%rip), %rax
 13054      000000
 13055 5340 4889C7   		movq	%rax, %rdi
 13056 5343 E8A6BEFF 		call	_ZN12_GLOBAL__N_120TestMacroTestHelper1C1Ev
 13056      FF
 13057 5348 488D0500 		leaq	__dso_handle(%rip), %rax
 13057      000000
 13058 534f 4889C2   		movq	%rax, %rdx
 13059 5352 488D0500 		leaq	_ZN12_GLOBAL__N_128testMacroTestHelper1InstanceE(%rip), %rax
 13059      000000
 13060 5359 4889C6   		movq	%rax, %rsi
 13061 535c 488D0565 		leaq	_ZN12_GLOBAL__N_120TestMacroTestHelper1D1Ev(%rip), %rax
 13061      F8FFFF
 13062 5363 4889C7   		movq	%rax, %rdi
 13063 5366 E8000000 		call	__cxa_atexit@PLT
 13063      00
 13064 536b 488D0500 		leaq	_ZN12_GLOBAL__N_128testMacroTestHelper1InstanceE(%rip), %rax
 13064      000000
 13065 5372 4889C2   		movq	%rax, %rdx
 13066 5375 488D0500 		leaq	_ZN12_GLOBAL__N_114macroTestList1E(%rip), %rax
 13066      000000
 13067 537c 4889C6   		movq	%rax, %rsi
 13068 537f 488D0500 		leaq	_ZN12_GLOBAL__N_121adderMacroTestHelper1E(%rip), %rax
 13068      000000
 13069 5386 4889C7   		movq	%rax, %rdi
 13070 5389 E8000000 		call	_ZN8UnitTest9ListAdderC1ERNS_8TestListEPNS_4TestE@PLT
 13070      00
  88:TestTestMacros.cpp **** {
 13071              		.loc 6 88 1
 13072 538e 488D0500 		leaq	_ZN12_GLOBAL__N_153testTestAddedWithTEST_EXMacroGetsDefaultSuiteInstanceE(%rip), %rax
 13072      000000
 13073 5395 4889C7   		movq	%rax, %rdi
 13074 5398 E8B1BEFF 		call	_ZN12_GLOBAL__N_145TestTestAddedWithTEST_EXMacroGetsDefaultSuiteC1Ev
 13074      FF
 13075 539d 488D0500 		leaq	__dso_handle(%rip), %rax
 13075      000000
 13076 53a4 4889C2   		movq	%rax, %rdx
 13077 53a7 488D0500 		leaq	_ZN12_GLOBAL__N_153testTestAddedWithTEST_EXMacroGetsDefaultSuiteInstanceE(%rip), %rax
 13077      000000
 13078 53ae 4889C6   		movq	%rax, %rsi
 13079 53b1 488D0592 		leaq	_ZN12_GLOBAL__N_145TestTestAddedWithTEST_EXMacroGetsDefaultSuiteD1Ev(%rip), %rax
 13079      F7FFFF
 13080 53b8 4889C7   		movq	%rax, %rdi
 13081 53bb E8000000 		call	__cxa_atexit@PLT
 13081      00
 13082 53c0 E8000000 		call	_ZN8UnitTest4Test11GetTestListEv@PLT
 13082      00
 13083 53c5 4889C1   		movq	%rax, %rcx
 13084 53c8 488D0500 		leaq	_ZN12_GLOBAL__N_153testTestAddedWithTEST_EXMacroGetsDefaultSuiteInstanceE(%rip), %rax
 13084      000000
 13085 53cf 4889C2   		movq	%rax, %rdx
 13086 53d2 4889CE   		movq	%rcx, %rsi
 13087 53d5 488D0500 		leaq	_ZN12_GLOBAL__N_146adderTestAddedWithTEST_EXMacroGetsDefaultSuiteE(%rip), %rax
 13087      000000
 13088 53dc 4889C7   		movq	%rax, %rdi
 13089 53df E8000000 		call	_ZN8UnitTest9ListAdderC1ERNS_8TestListEPNS_4TestE@PLT
 13089      00
  95:TestTestMacros.cpp **** TEST_FIXTURE_EX(DummyFixture, MacroTestHelper2, macroTestList2)
 13090              		.loc 6 95 10
 13091 53e4 488D0500 		leaq	_ZN12_GLOBAL__N_114macroTestList2E(%rip), %rax
 13091      000000
 13092 53eb 4889C7   		movq	%rax, %rdi
 13093 53ee E8000000 		call	_ZN8UnitTest8TestListC1Ev@PLT
 13093      00
  96:TestTestMacros.cpp **** {
 13094              		.loc 6 96 1
 13095 53f3 488D0500 		leaq	_ZN12_GLOBAL__N_140testDummyFixtureMacroTestHelper2InstanceE(%rip), %rax
 13095      000000
 13096 53fa 4889C7   		movq	%rax, %rdi
 13097 53fd E82AC1FF 		call	_ZN12_GLOBAL__N_132TestDummyFixtureMacroTestHelper2C1Ev
 13097      FF
 13098 5402 488D0500 		leaq	__dso_handle(%rip), %rax
 13098      000000
 13099 5409 4889C2   		movq	%rax, %rdx
 13100 540c 488D0500 		leaq	_ZN12_GLOBAL__N_140testDummyFixtureMacroTestHelper2InstanceE(%rip), %rax
 13100      000000
 13101 5413 4889C6   		movq	%rax, %rsi
 13102 5416 488D05AF 		leaq	_ZN12_GLOBAL__N_132TestDummyFixtureMacroTestHelper2D1Ev(%rip), %rax
 13102      F6FFFF
 13103 541d 4889C7   		movq	%rax, %rdi
 13104 5420 E8000000 		call	__cxa_atexit@PLT
 13104      00
 13105 5425 488D0500 		leaq	_ZN12_GLOBAL__N_140testDummyFixtureMacroTestHelper2InstanceE(%rip), %rax
 13105      000000
 13106 542c 4889C2   		movq	%rax, %rdx
 13107 542f 488D0500 		leaq	_ZN12_GLOBAL__N_114macroTestList2E(%rip), %rax
 13107      000000
 13108 5436 4889C6   		movq	%rax, %rsi
 13109 5439 488D0500 		leaq	_ZN12_GLOBAL__N_133adderDummyFixtureMacroTestHelper2E(%rip), %rax
 13109      000000
 13110 5440 4889C7   		movq	%rax, %rdi
 13111 5443 E8000000 		call	_ZN8UnitTest9ListAdderC1ERNS_8TestListEPNS_4TestE@PLT
 13111      00
 100:TestTestMacros.cpp **** {
 13112              		.loc 6 100 1
 13113 5448 488D0500 		leaq	_ZN12_GLOBAL__N_161testTestAddedWithTEST_FIXTURE_EXMacroGetsDefaultSuiteInstanceE(%rip), %rax
 13113      000000
 13114 544f 4889C7   		movq	%rax, %rdi
 13115 5452 E831C4FF 		call	_ZN12_GLOBAL__N_153TestTestAddedWithTEST_FIXTURE_EXMacroGetsDefaultSuiteC1Ev
 13115      FF
 13116 5457 488D0500 		leaq	__dso_handle(%rip), %rax
 13116      000000
 13117 545e 4889C2   		movq	%rax, %rdx
 13118 5461 488D0500 		leaq	_ZN12_GLOBAL__N_161testTestAddedWithTEST_FIXTURE_EXMacroGetsDefaultSuiteInstanceE(%rip), %rax
 13118      000000
 13119 5468 4889C6   		movq	%rax, %rsi
 13120 546b 488D05DC 		leaq	_ZN12_GLOBAL__N_153TestTestAddedWithTEST_FIXTURE_EXMacroGetsDefaultSuiteD1Ev(%rip), %rax
 13120      F5FFFF
 13121 5472 4889C7   		movq	%rax, %rdi
 13122 5475 E8000000 		call	__cxa_atexit@PLT
 13122      00
 13123 547a E8000000 		call	_ZN8UnitTest4Test11GetTestListEv@PLT
 13123      00
 13124 547f 4889C1   		movq	%rax, %rcx
 13125 5482 488D0500 		leaq	_ZN12_GLOBAL__N_161testTestAddedWithTEST_FIXTURE_EXMacroGetsDefaultSuiteInstanceE(%rip), %rax
 13125      000000
 13126 5489 4889C2   		movq	%rax, %rdx
 13127 548c 4889CE   		movq	%rcx, %rsi
 13128 548f 488D0500 		leaq	_ZN12_GLOBAL__N_154adderTestAddedWithTEST_FIXTURE_EXMacroGetsDefaultSuiteE(%rip), %rax
 13128      000000
 13129 5496 4889C7   		movq	%rax, %rdi
 13130 5499 E8000000 		call	_ZN8UnitTest9ListAdderC1ERNS_8TestListEPNS_4TestE@PLT
 13130      00
 112:TestTestMacros.cpp **** TEST_FIXTURE_EX(FixtureCtorThrows, FixtureCtorThrowsTestName, throwingFixtureTestList1)
 13131              		.loc 6 112 10
 13132 549e 488D0500 		leaq	_ZN12_GLOBAL__N_124throwingFixtureTestList1E(%rip), %rax
 13132      000000
 13133 54a5 4889C7   		movq	%rax, %rdi
 13134 54a8 E8000000 		call	_ZN8UnitTest8TestListC1Ev@PLT
 13134      00
 113:TestTestMacros.cpp **** {
 13135              		.loc 6 113 1
 13136 54ad 488D0500 		leaq	_ZN12_GLOBAL__N_154testFixtureCtorThrowsFixtureCtorThrowsTestNameInstanceE(%rip), %rax
 13136      000000
 13137 54b4 4889C7   		movq	%rax, %rdi
 13138 54b7 E8F0C6FF 		call	_ZN12_GLOBAL__N_146TestFixtureCtorThrowsFixtureCtorThrowsTestNameC1Ev
 13138      FF
 13139 54bc 488D0500 		leaq	__dso_handle(%rip), %rax
 13139      000000
 13140 54c3 4889C2   		movq	%rax, %rdx
 13141 54c6 488D0500 		leaq	_ZN12_GLOBAL__N_154testFixtureCtorThrowsFixtureCtorThrowsTestNameInstanceE(%rip), %rax
 13141      000000
 13142 54cd 4889C6   		movq	%rax, %rsi
 13143 54d0 488D05F9 		leaq	_ZN12_GLOBAL__N_146TestFixtureCtorThrowsFixtureCtorThrowsTestNameD1Ev(%rip), %rax
 13143      F4FFFF
 13144 54d7 4889C7   		movq	%rax, %rdi
 13145 54da E8000000 		call	__cxa_atexit@PLT
 13145      00
 13146 54df 488D0500 		leaq	_ZN12_GLOBAL__N_154testFixtureCtorThrowsFixtureCtorThrowsTestNameInstanceE(%rip), %rax
 13146      000000
 13147 54e6 4889C2   		movq	%rax, %rdx
 13148 54e9 488D0500 		leaq	_ZN12_GLOBAL__N_124throwingFixtureTestList1E(%rip), %rax
 13148      000000
 13149 54f0 4889C6   		movq	%rax, %rsi
 13150 54f3 488D0500 		leaq	_ZN12_GLOBAL__N_147adderFixtureCtorThrowsFixtureCtorThrowsTestNameE(%rip), %rax
 13150      000000
 13151 54fa 4889C7   		movq	%rax, %rdi
 13152 54fd E8000000 		call	_ZN8UnitTest9ListAdderC1ERNS_8TestListEPNS_4TestE@PLT
 13152      00
 117:TestTestMacros.cpp **** {
 13153              		.loc 6 117 1
 13154 5502 488D0500 		leaq	_ZN12_GLOBAL__N_148testFixturesWithThrowingCtorsAreFailuresInstanceE(%rip), %rax
 13154      000000
 13155 5509 4889C7   		movq	%rax, %rdi
 13156 550c E8F7C9FF 		call	_ZN12_GLOBAL__N_140TestFixturesWithThrowingCtorsAreFailuresC1Ev
 13156      FF
 13157 5511 488D0500 		leaq	__dso_handle(%rip), %rax
 13157      000000
 13158 5518 4889C2   		movq	%rax, %rdx
 13159 551b 488D0500 		leaq	_ZN12_GLOBAL__N_148testFixturesWithThrowingCtorsAreFailuresInstanceE(%rip), %rax
 13159      000000
 13160 5522 4889C6   		movq	%rax, %rsi
 13161 5525 488D0526 		leaq	_ZN12_GLOBAL__N_140TestFixturesWithThrowingCtorsAreFailuresD1Ev(%rip), %rax
 13161      F4FFFF
 13162 552c 4889C7   		movq	%rax, %rdi
 13163 552f E8000000 		call	__cxa_atexit@PLT
 13163      00
 13164 5534 E8000000 		call	_ZN8UnitTest4Test11GetTestListEv@PLT
 13164      00
 13165 5539 4889C1   		movq	%rax, %rcx
 13166 553c 488D0500 		leaq	_ZN12_GLOBAL__N_148testFixturesWithThrowingCtorsAreFailuresInstanceE(%rip), %rax
 13166      000000
 13167 5543 4889C2   		movq	%rax, %rdx
 13168 5546 4889CE   		movq	%rcx, %rsi
 13169 5549 488D0500 		leaq	_ZN12_GLOBAL__N_141adderFixturesWithThrowingCtorsAreFailuresE(%rip), %rax
 13169      000000
 13170 5550 4889C7   		movq	%rax, %rdi
 13171 5553 E8000000 		call	_ZN8UnitTest9ListAdderC1ERNS_8TestListEPNS_4TestE@PLT
 13171      00
 137:TestTestMacros.cpp **** TEST_FIXTURE_EX(FixtureDtorThrows, FixtureDtorThrowsTestName, throwingFixtureTestList2)
 13172              		.loc 6 137 10
 13173 5558 488D0500 		leaq	_ZN12_GLOBAL__N_124throwingFixtureTestList2E(%rip), %rax
 13173      000000
 13174 555f 4889C7   		movq	%rax, %rdi
 13175 5562 E8000000 		call	_ZN8UnitTest8TestListC1Ev@PLT
 13175      00
 138:TestTestMacros.cpp **** {
 13176              		.loc 6 138 1
 13177 5567 488D0500 		leaq	_ZN12_GLOBAL__N_154testFixtureDtorThrowsFixtureDtorThrowsTestNameInstanceE(%rip), %rax
 13177      000000
 13178 556e 4889C7   		movq	%rax, %rdi
 13179 5571 E8A0CDFF 		call	_ZN12_GLOBAL__N_146TestFixtureDtorThrowsFixtureDtorThrowsTestNameC1Ev
 13179      FF
 13180 5576 488D0500 		leaq	__dso_handle(%rip), %rax
 13180      000000
 13181 557d 4889C2   		movq	%rax, %rdx
 13182 5580 488D0500 		leaq	_ZN12_GLOBAL__N_154testFixtureDtorThrowsFixtureDtorThrowsTestNameInstanceE(%rip), %rax
 13182      000000
 13183 5587 4889C6   		movq	%rax, %rsi
 13184 558a 488D0543 		leaq	_ZN12_GLOBAL__N_146TestFixtureDtorThrowsFixtureDtorThrowsTestNameD1Ev(%rip), %rax
 13184      F3FFFF
 13185 5591 4889C7   		movq	%rax, %rdi
 13186 5594 E8000000 		call	__cxa_atexit@PLT
 13186      00
 13187 5599 488D0500 		leaq	_ZN12_GLOBAL__N_154testFixtureDtorThrowsFixtureDtorThrowsTestNameInstanceE(%rip), %rax
 13187      000000
 13188 55a0 4889C2   		movq	%rax, %rdx
 13189 55a3 488D0500 		leaq	_ZN12_GLOBAL__N_124throwingFixtureTestList2E(%rip), %rax
 13189      000000
 13190 55aa 4889C6   		movq	%rax, %rsi
 13191 55ad 488D0500 		leaq	_ZN12_GLOBAL__N_147adderFixtureDtorThrowsFixtureDtorThrowsTestNameE(%rip), %rax
 13191      000000
 13192 55b4 4889C7   		movq	%rax, %rdi
 13193 55b7 E8000000 		call	_ZN8UnitTest9ListAdderC1ERNS_8TestListEPNS_4TestE@PLT
 13193      00
 143:TestTestMacros.cpp **** {
 13194              		.loc 6 143 1
 13195 55bc 488D0500 		leaq	_ZN12_GLOBAL__N_148testFixturesWithThrowingDtorsAreFailuresInstanceE(%rip), %rax
 13195      000000
 13196 55c3 4889C7   		movq	%rax, %rdi
 13197 55c6 E8F3D0FF 		call	_ZN12_GLOBAL__N_140TestFixturesWithThrowingDtorsAreFailuresC1Ev
 13197      FF
 13198 55cb 488D0500 		leaq	__dso_handle(%rip), %rax
 13198      000000
 13199 55d2 4889C2   		movq	%rax, %rdx
 13200 55d5 488D0500 		leaq	_ZN12_GLOBAL__N_148testFixturesWithThrowingDtorsAreFailuresInstanceE(%rip), %rax
 13200      000000
 13201 55dc 4889C6   		movq	%rax, %rsi
 13202 55df 488D0570 		leaq	_ZN12_GLOBAL__N_140TestFixturesWithThrowingDtorsAreFailuresD1Ev(%rip), %rax
 13202      F2FFFF
 13203 55e6 4889C7   		movq	%rax, %rdi
 13204 55e9 E8000000 		call	__cxa_atexit@PLT
 13204      00
 13205 55ee E8000000 		call	_ZN8UnitTest4Test11GetTestListEv@PLT
 13205      00
 13206 55f3 4889C1   		movq	%rax, %rcx
 13207 55f6 488D0500 		leaq	_ZN12_GLOBAL__N_148testFixturesWithThrowingDtorsAreFailuresInstanceE(%rip), %rax
 13207      000000
 13208 55fd 4889C2   		movq	%rax, %rdx
 13209 5600 4889CE   		movq	%rcx, %rsi
 13210 5603 488D0500 		leaq	_ZN12_GLOBAL__N_141adderFixturesWithThrowingDtorsAreFailuresE(%rip), %rax
 13210      000000
 13211 560a 4889C7   		movq	%rax, %rdi
 13212 560d E8000000 		call	_ZN8UnitTest9ListAdderC1ERNS_8TestListEPNS_4TestE@PLT
 13212      00
 170:TestTestMacros.cpp **** TEST_FIXTURE_EX(FixtureCtorAsserts, CorrectlyReportsAssertFailureInCtor, ctorAssertFixtureTestList)
 13213              		.loc 6 170 10
 13214 5612 488D0500 		leaq	_ZN12_GLOBAL__N_125ctorAssertFixtureTestListE(%rip), %rax
 13214      000000
 13215 5619 4889C7   		movq	%rax, %rdi
 13216 561c E8000000 		call	_ZN8UnitTest8TestListC1Ev@PLT
 13216      00
 171:TestTestMacros.cpp **** {
 13217              		.loc 6 171 1
 13218 5621 488D0500 		leaq	_ZN12_GLOBAL__N_165testFixtureCtorAssertsCorrectlyReportsAssertFailureInCtorInstanceE(%rip), 
 13218      000000
 13219 5628 4889C7   		movq	%rax, %rdi
 13220 562b E8A2D4FF 		call	_ZN12_GLOBAL__N_157TestFixtureCtorAssertsCorrectlyReportsAssertFailureInCtorC1Ev
 13220      FF
 13221 5630 488D0500 		leaq	__dso_handle(%rip), %rax
 13221      000000
 13222 5637 4889C2   		movq	%rax, %rdx
 13223 563a 488D0500 		leaq	_ZN12_GLOBAL__N_165testFixtureCtorAssertsCorrectlyReportsAssertFailureInCtorInstanceE(%rip), 
 13223      000000
 13224 5641 4889C6   		movq	%rax, %rsi
 13225 5644 488D058D 		leaq	_ZN12_GLOBAL__N_157TestFixtureCtorAssertsCorrectlyReportsAssertFailureInCtorD1Ev(%rip), %rax
 13225      F1FFFF
 13226 564b 4889C7   		movq	%rax, %rdi
 13227 564e E8000000 		call	__cxa_atexit@PLT
 13227      00
 13228 5653 488D0500 		leaq	_ZN12_GLOBAL__N_165testFixtureCtorAssertsCorrectlyReportsAssertFailureInCtorInstanceE(%rip), 
 13228      000000
 13229 565a 4889C2   		movq	%rax, %rdx
 13230 565d 488D0500 		leaq	_ZN12_GLOBAL__N_125ctorAssertFixtureTestListE(%rip), %rax
 13230      000000
 13231 5664 4889C6   		movq	%rax, %rsi
 13232 5667 488D0500 		leaq	_ZN12_GLOBAL__N_158adderFixtureCtorAssertsCorrectlyReportsAssertFailureInCtorE(%rip), %rax
 13232      000000
 13233 566e 4889C7   		movq	%rax, %rdi
 13234 5671 E8000000 		call	_ZN8UnitTest9ListAdderC1ERNS_8TestListEPNS_4TestE@PLT
 13234      00
 175:TestTestMacros.cpp **** {
 13235              		.loc 6 175 1
 13236 5676 488D0500 		leaq	_ZN12_GLOBAL__N_155testCorrectlyReportsFixturesWithCtorsThatAssertInstanceE(%rip), %rax
 13236      000000
 13237 567d 4889C7   		movq	%rax, %rdi
 13238 5680 E8A9D7FF 		call	_ZN12_GLOBAL__N_147TestCorrectlyReportsFixturesWithCtorsThatAssertC1Ev
 13238      FF
 13239 5685 488D0500 		leaq	__dso_handle(%rip), %rax
 13239      000000
 13240 568c 4889C2   		movq	%rax, %rdx
 13241 568f 488D0500 		leaq	_ZN12_GLOBAL__N_155testCorrectlyReportsFixturesWithCtorsThatAssertInstanceE(%rip), %rax
 13241      000000
 13242 5696 4889C6   		movq	%rax, %rsi
 13243 5699 488D05BA 		leaq	_ZN12_GLOBAL__N_147TestCorrectlyReportsFixturesWithCtorsThatAssertD1Ev(%rip), %rax
 13243      F0FFFF
 13244 56a0 4889C7   		movq	%rax, %rdi
 13245 56a3 E8000000 		call	__cxa_atexit@PLT
 13245      00
 13246 56a8 E8000000 		call	_ZN8UnitTest4Test11GetTestListEv@PLT
 13246      00
 13247 56ad 4889C1   		movq	%rax, %rcx
 13248 56b0 488D0500 		leaq	_ZN12_GLOBAL__N_155testCorrectlyReportsFixturesWithCtorsThatAssertInstanceE(%rip), %rax
 13248      000000
 13249 56b7 4889C2   		movq	%rax, %rdx
 13250 56ba 4889CE   		movq	%rcx, %rsi
 13251 56bd 488D0500 		leaq	_ZN12_GLOBAL__N_148adderCorrectlyReportsFixturesWithCtorsThatAssertE(%rip), %rax
 13251      000000
 13252 56c4 4889C7   		movq	%rax, %rdi
 13253 56c7 E8000000 		call	_ZN8UnitTest9ListAdderC1ERNS_8TestListEPNS_4TestE@PLT
 13253      00
 197:TestTestMacros.cpp **** 	{
 13254              		.loc 6 197 2
 13255 56cc 488D0500 		leaq	_ZN18SuiteSameTestSuite22testDummyTest1InstanceE(%rip), %rax
 13255      000000
 13256 56d3 4889C7   		movq	%rax, %rdi
 13257 56d6 E8000000 		call	_ZN18SuiteSameTestSuite14TestDummyTest1C1Ev
 13257      00
 13258 56db 488D0500 		leaq	__dso_handle(%rip), %rax
 13258      000000
 13259 56e2 4889C2   		movq	%rax, %rdx
 13260 56e5 488D0500 		leaq	_ZN18SuiteSameTestSuite22testDummyTest1InstanceE(%rip), %rax
 13260      000000
 13261 56ec 4889C6   		movq	%rax, %rsi
 13262 56ef 488D0500 		leaq	_ZN18SuiteSameTestSuite14TestDummyTest1D1Ev(%rip), %rax
 13262      000000
 13263 56f6 4889C7   		movq	%rax, %rdi
 13264 56f9 E8000000 		call	__cxa_atexit@PLT
 13264      00
 13265 56fe E8000000 		call	_ZN8UnitTest4Test11GetTestListEv@PLT
 13265      00
 13266 5703 4889C1   		movq	%rax, %rcx
 13267 5706 488D0500 		leaq	_ZN18SuiteSameTestSuite22testDummyTest1InstanceE(%rip), %rax
 13267      000000
 13268 570d 4889C2   		movq	%rax, %rdx
 13269 5710 4889CE   		movq	%rcx, %rsi
 13270 5713 488D0500 		leaq	_ZN18SuiteSameTestSuite15adderDummyTest1E(%rip), %rax
 13270      000000
 13271 571a 4889C7   		movq	%rax, %rdi
 13272 571d E8000000 		call	_ZN8UnitTest9ListAdderC1ERNS_8TestListEPNS_4TestE@PLT
 13272      00
 206:TestTestMacros.cpp **** {
 13273              		.loc 6 206 1
 13274 5722 488D0500 		leaq	testCurrentTestDetailsContainCurrentTestInfoInstance(%rip), %rax
 13274      000000
 13275 5729 4889C7   		movq	%rax, %rdi
 13276 572c E8000000 		call	_ZN44TestCurrentTestDetailsContainCurrentTestInfoC1Ev
 13276      00
 13277 5731 488D0500 		leaq	__dso_handle(%rip), %rax
 13277      000000
 13278 5738 4889C2   		movq	%rax, %rdx
 13279 573b 488D0500 		leaq	testCurrentTestDetailsContainCurrentTestInfoInstance(%rip), %rax
 13279      000000
 13280 5742 4889C6   		movq	%rax, %rsi
 13281 5745 488D0500 		leaq	_ZN44TestCurrentTestDetailsContainCurrentTestInfoD1Ev(%rip), %rax
 13281      000000
 13282 574c 4889C7   		movq	%rax, %rdi
 13283 574f E8000000 		call	__cxa_atexit@PLT
 13283      00
 13284 5754 E8000000 		call	_ZN8UnitTest4Test11GetTestListEv@PLT
 13284      00
 13285 5759 4889C1   		movq	%rax, %rcx
 13286 575c 488D0500 		leaq	testCurrentTestDetailsContainCurrentTestInfoInstance(%rip), %rax
 13286      000000
 13287 5763 4889C2   		movq	%rax, %rdx
 13288 5766 4889CE   		movq	%rcx, %rsi
 13289 5769 488D0500 		leaq	adderCurrentTestDetailsContainCurrentTestInfo(%rip), %rax
 13289      000000
 13290 5770 4889C7   		movq	%rax, %rdi
 13291 5773 E8000000 		call	_ZN8UnitTest9ListAdderC1ERNS_8TestListEPNS_4TestE@PLT
 13291      00
 13292              	.L622:
 13293              		.loc 6 210 1
 13294 5778 90       		nop
 13295 5779 C9       		leave
 13296              		.cfi_def_cfa 7, 8
 13297 577a C3       		ret
 13298              		.cfi_endproc
 13299              	.LFE1463:
 13302              	_GLOBAL__sub_I__ZN18SuiteSameTestSuite22testDummyTest1InstanceE:
 13303              	.LFB1464:
 13304              		.loc 6 210 1
 13305              		.cfi_startproc
 13306 577b F30F1EFA 		endbr64
 13307 577f 55       		pushq	%rbp
 13308              		.cfi_def_cfa_offset 16
 13309              		.cfi_offset 6, -16
 13310 5780 4889E5   		movq	%rsp, %rbp
 13311              		.cfi_def_cfa_register 6
 13312              		.loc 6 210 1
 13313 5783 BEFFFF00 		movl	$65535, %esi
 13313      00
 13314 5788 BF010000 		movl	$1, %edi
 13314      00
 13315 578d E8A3F8FF 		call	_Z41__static_initialization_and_destruction_0ii
 13315      FF
 13316 5792 5D       		popq	%rbp
 13317              		.cfi_def_cfa 7, 8
 13318 5793 C3       		ret
 13319              		.cfi_endproc
 13320              	.LFE1464:
 13322              		.section	.init_array,"aw"
 13323              		.align 8
 13324 0000 00000000 		.quad	_GLOBAL__sub_I__ZN18SuiteSameTestSuite22testDummyTest1InstanceE
 13324      00000000 
 13325              		.text
 13326              	.Letext0:
 13327              		.file 9 "../TestDetails.h"
 13328              		.file 10 "../TestList.h"
 13329              		.file 11 "../TestResults.h"
 13330              		.file 12 "../Test.h"
 13331              		.file 13 "../PosixUtils/SignalTranslator.h"
 13332              		.file 14 "../ReportAssert.h"
 13333              		.file 15 "../AssertException.h"
 13334              		.file 16 "../CurrentTest.h"
 13335              		.file 17 "<built-in>"
 13336              		.file 18 "/usr/lib/gcc/x86_64-linux-gnu/11/include/stddef.h"
 13337              		.file 19 "/usr/include/x86_64-linux-gnu/bits/types/wint_t.h"
 13338              		.file 20 "/usr/include/x86_64-linux-gnu/bits/types/__mbstate_t.h"
 13339              		.file 21 "/usr/include/x86_64-linux-gnu/bits/types/mbstate_t.h"
 13340              		.file 22 "/usr/include/x86_64-linux-gnu/bits/types/__FILE.h"
 13341              		.file 23 "/usr/include/c++/11/cwchar"
 13342              		.file 24 "/usr/include/c++/11/bits/char_traits.h"
 13343              		.file 25 "/usr/include/x86_64-linux-gnu/c++/11/bits/c++config.h"
 13344              		.file 26 "/usr/include/c++/11/clocale"
 13345              		.file 27 "/usr/include/c++/11/bits/allocator.h"
 13346              		.file 28 "/usr/include/c++/11/bits/basic_string.h"
 13347              		.file 29 "/usr/include/c++/11/bits/basic_string.tcc"
 13348              		.file 30 "/usr/include/c++/11/sstream"
 13349              		.file 31 "/usr/include/c++/11/bits/stringfwd.h"
 13350              		.file 32 "/usr/include/c++/11/cwctype"
 13351              		.file 33 "/usr/include/c++/11/bits/ostream.tcc"
 13352              		.file 34 "/usr/include/c++/11/cstring"
 13353              		.file 35 "/usr/include/c++/11/ostream"
 13354              		.file 36 "/usr/include/c++/11/bits/basic_ios.h"
 13355              		.file 37 "/usr/include/wchar.h"
 13356              		.file 38 "/usr/include/x86_64-linux-gnu/bits/types/struct_tm.h"
 13357              		.file 39 "/usr/include/c++/11/debug/debug.h"
 13358              		.file 40 "/usr/include/c++/11/bits/predefined_ops.h"
 13359              		.file 41 "/usr/include/c++/11/ext/new_allocator.h"
 13360              		.file 42 "/usr/include/c++/11/ext/alloc_traits.h"
 13361              		.file 43 "/usr/include/locale.h"
 13362              		.file 44 "/usr/include/x86_64-linux-gnu/bits/types.h"
 13363              		.file 45 "/usr/include/x86_64-linux-gnu/bits/setjmp.h"
 13364              		.file 46 "/usr/include/x86_64-linux-gnu/bits/types/__sigset_t.h"
 13365              		.file 47 "/usr/include/x86_64-linux-gnu/bits/types/struct___jmp_buf_tag.h"
 13366              		.file 48 "/usr/include/x86_64-linux-gnu/bits/wctype-wchar.h"
 13367              		.file 49 "/usr/include/wctype.h"
 13368              		.file 50 "/usr/include/setjmp.h"
 13369              		.file 51 "/usr/include/x86_64-linux-gnu/bits/types/__sigval_t.h"
 13370              		.file 52 "/usr/include/x86_64-linux-gnu/bits/types/siginfo_t.h"
 13371              		.file 53 "/usr/include/signal.h"
 13372              		.file 54 "/usr/include/x86_64-linux-gnu/bits/sigaction.h"
 13373              		.file 55 "/usr/include/string.h"
 13374              		.file 56 "/usr/include/c++/11/new"
 32251              		.align 8
 32254              	DW.ref._ZTIN8UnitTest15AssertExceptionE:
 32255 0000 00000000 		.quad	_ZTIN8UnitTest15AssertExceptionE
 32255      00000000 
 32256              		.hidden	DW.ref._ZTISt9exception
 32257              		.weak	DW.ref._ZTISt9exception
 32258              		.section	.data.rel.local.DW.ref._ZTISt9exception,"awG",@progbits,DW.ref._ZTISt9exception,comdat
 32259              		.align 8
 32262              	DW.ref._ZTISt9exception:
 32263 0000 00000000 		.quad	_ZTISt9exception
 32263      00000000 
 32264              		.hidden	DW.ref.__gxx_personality_v0
 32265              		.weak	DW.ref.__gxx_personality_v0
 32266              		.section	.data.rel.local.DW.ref.__gxx_personality_v0,"awG",@progbits,DW.ref.__gxx_personality_v0,c
 32267              		.align 8
 32270              	DW.ref.__gxx_personality_v0:
 32271 0000 00000000 		.quad	__gxx_personality_v0
 32271      00000000 
 32272              		.hidden	__dso_handle
 32273              		.ident	"GCC: (Ubuntu 11.3.0-1ubuntu1~22.04) 11.3.0"
 32274              		.section	.note.GNU-stack,"",@progbits
 32275              		.section	.note.gnu.property,"a"
 32276              		.align 8
 32277 0000 04000000 		.long	1f - 0f
 32278 0004 10000000 		.long	4f - 1f
 32279 0008 05000000 		.long	5
 32280              	0:
 32281 000c 474E5500 		.string	"GNU"
 32282              	1:
 32283              		.align 8
 32284 0010 020000C0 		.long	0xc0000002
 32285 0014 04000000 		.long	3f - 2f
 32286              	2:
 32287 0018 03000000 		.long	0x3
 32288              	3:
 32289 001c 00000000 		.align 8
 32290              	4:
DEFINED SYMBOLS
                            *ABS*:0000000000000000 TestTestMacros.cpp
     /tmp/cc7IsPaf.s:11     .text._ZN13UnitTestSuite12GetSuiteNameEv:0000000000000000 _ZN13UnitTestSuite12GetSuiteNameEv
     /tmp/cc7IsPaf.s:35     .text._ZN8UnitTest15MemoryOutStreamC1Ev:0000000000000000 _ZN8UnitTest15MemoryOutStreamC1Ev
     /tmp/cc7IsPaf.s:32270  .data.rel.local.DW.ref.__gxx_personality_v0:0000000000000000 DW.ref.__gxx_personality_v0
     /tmp/cc7IsPaf.s:12305  .data.rel.ro.local._ZTTN8UnitTest15MemoryOutStreamE:0000000000000000 _ZTTN8UnitTest15MemoryOutStreamE
     /tmp/cc7IsPaf.s:12289  .data.rel.ro.local._ZTVN8UnitTest15MemoryOutStreamE:0000000000000000 _ZTVN8UnitTest15MemoryOutStreamE
     /tmp/cc7IsPaf.s:148    .text._ZN8UnitTest12TestReporterC2Ev:0000000000000000 _ZN8UnitTest12TestReporterC2Ev
     /tmp/cc7IsPaf.s:148    .text._ZN8UnitTest12TestReporterC2Ev:0000000000000000 _ZN8UnitTest12TestReporterC1Ev
     /tmp/cc7IsPaf.s:179    .text._ZN17RecordingReporterC2Ev:0000000000000000 _ZN17RecordingReporterC2Ev
     /tmp/cc7IsPaf.s:12173  .data.rel.ro.local._ZTV17RecordingReporter:0000000000000000 _ZTV17RecordingReporter
     /tmp/cc7IsPaf.s:179    .text._ZN17RecordingReporterC2Ev:0000000000000000 _ZN17RecordingReporterC1Ev
     /tmp/cc7IsPaf.s:268    .text._ZN17RecordingReporter15ReportTestStartERKN8UnitTest11TestDetailsE:0000000000000000 _ZN17RecordingReporter15ReportTestStartERKN8UnitTest11TestDetailsE
     /tmp/cc7IsPaf.s:320    .text._ZN17RecordingReporter13ReportFailureERKN8UnitTest11TestDetailsEPKc:0000000000000000 _ZN17RecordingReporter13ReportFailureERKN8UnitTest11TestDetailsEPKc
     /tmp/cc7IsPaf.s:397    .text._ZN17RecordingReporter16ReportTestFinishERKN8UnitTest11TestDetailsEf:0000000000000000 _ZN17RecordingReporter16ReportTestFinishERKN8UnitTest11TestDetailsEf
     /tmp/cc7IsPaf.s:454    .text._ZN17RecordingReporter13ReportSummaryEiiif:0000000000000000 _ZN17RecordingReporter13ReportSummaryEiiif
     /tmp/cc7IsPaf.s:497    .text._ZN17ScopedCurrentTestC2ERN8UnitTest11TestResultsEPKNS0_11TestDetailsE:0000000000000000 _ZN17ScopedCurrentTestC2ERN8UnitTest11TestResultsEPKNS0_11TestDetailsE
     /tmp/cc7IsPaf.s:497    .text._ZN17ScopedCurrentTestC2ERN8UnitTest11TestResultsEPKNS0_11TestDetailsE:0000000000000000 _ZN17ScopedCurrentTestC1ERN8UnitTest11TestResultsEPKNS0_11TestDetailsE
     /tmp/cc7IsPaf.s:554    .text._ZN17ScopedCurrentTestD2Ev:0000000000000000 _ZN17ScopedCurrentTestD2Ev
     /tmp/cc7IsPaf.s:554    .text._ZN17ScopedCurrentTestD2Ev:0000000000000000 _ZN17ScopedCurrentTestD1Ev
     /tmp/cc7IsPaf.s:593    .bss:0000000000000080 _ZN12_GLOBAL__N_15list1E
     /tmp/cc7IsPaf.s:602    .text:0000000000000000 _ZN12_GLOBAL__N_113TestDummyTestC2Ev
     /tmp/cc7IsPaf.s:12064  .data.rel.ro.local:00000000000002a8 _ZTVN12_GLOBAL__N_113TestDummyTestE
     /tmp/cc7IsPaf.s:602    .text:0000000000000000 _ZN12_GLOBAL__N_113TestDummyTestC1Ev
     /tmp/cc7IsPaf.s:642    .bss:00000000000000a0 _ZN12_GLOBAL__N_121testDummyTestInstanceE
     /tmp/cc7IsPaf.s:642    .bss:00000000000000d8 _ZN12_GLOBAL__N_114adderDummyTestE
     /tmp/cc7IsPaf.s:647    .text:0000000000000050 _ZNK12_GLOBAL__N_113TestDummyTest7RunImplEv
     /tmp/cc7IsPaf.s:673    .text:0000000000000060 _ZN12_GLOBAL__N_138TestTestsAreAddedToTheListThroughMacroC2Ev
     /tmp/cc7IsPaf.s:11956  .data.rel.ro.local:0000000000000280 _ZTVN12_GLOBAL__N_138TestTestsAreAddedToTheListThroughMacroE
     /tmp/cc7IsPaf.s:673    .text:0000000000000060 _ZN12_GLOBAL__N_138TestTestsAreAddedToTheListThroughMacroC1Ev
     /tmp/cc7IsPaf.s:712    .bss:00000000000000e0 _ZN12_GLOBAL__N_146testTestsAreAddedToTheListThroughMacroInstanceE
     /tmp/cc7IsPaf.s:712    .bss:0000000000000118 _ZN12_GLOBAL__N_139adderTestsAreAddedToTheListThroughMacroE
     /tmp/cc7IsPaf.s:729    .text:00000000000000b0 _ZNK12_GLOBAL__N_138TestTestsAreAddedToTheListThroughMacro7RunImplEv
     /tmp/cc7IsPaf.s:7201   .text._ZN8UnitTest5CheckIbEEbT_:0000000000000000 _ZN8UnitTest5CheckIbEEbT_
     /tmp/cc7IsPaf.s:965    .text:0000000000000284 _ZN12_GLOBAL__N_115ThrowingThingieC2Ev
     /tmp/cc7IsPaf.s:1011   .bss:0000000000000120 _ZN12_GLOBAL__N_15list2E
     /tmp/cc7IsPaf.s:1014   .text:00000000000002d4 _ZN12_GLOBAL__N_134ThrowingThingieDummyTestNameHelperC2ERKN8UnitTest11TestDetailsE
     /tmp/cc7IsPaf.s:1014   .text:00000000000002d4 _ZN12_GLOBAL__N_134ThrowingThingieDummyTestNameHelperC1ERKN8UnitTest11TestDetailsE
     /tmp/cc7IsPaf.s:1049   .text:0000000000000300 _ZN12_GLOBAL__N_132TestThrowingThingieDummyTestNameC2Ev
     /tmp/cc7IsPaf.s:11848  .data.rel.ro.local:0000000000000258 _ZTVN12_GLOBAL__N_132TestThrowingThingieDummyTestNameE
     /tmp/cc7IsPaf.s:1049   .text:0000000000000300 _ZN12_GLOBAL__N_132TestThrowingThingieDummyTestNameC1Ev
     /tmp/cc7IsPaf.s:1088   .bss:0000000000000140 _ZN12_GLOBAL__N_140testThrowingThingieDummyTestNameInstanceE
     /tmp/cc7IsPaf.s:1088   .bss:0000000000000178 _ZN12_GLOBAL__N_133adderThrowingThingieDummyTestNameE
     /tmp/cc7IsPaf.s:1103   .text:0000000000000350 _ZNK12_GLOBAL__N_132TestThrowingThingieDummyTestName7RunImplEv
     /tmp/cc7IsPaf.s:7230   .text:00000000000032d1 _ZN8UnitTest11ExecuteTestIN12_GLOBAL__N_134ThrowingThingieDummyTestNameHelperEEEvRT_RKNS_11TestDetailsE
     /tmp/cc7IsPaf.s:12350  .text._ZN8UnitTest15MemoryOutStreamD1Ev:0000000000000000 _ZN8UnitTest15MemoryOutStreamD1Ev
     /tmp/cc7IsPaf.s:32262  .data.rel.local.DW.ref._ZTISt9exception:0000000000000000 DW.ref._ZTISt9exception
     /tmp/cc7IsPaf.s:32254  .data.rel.local.DW.ref._ZTIN8UnitTest15AssertExceptionE:0000000000000000 DW.ref._ZTIN8UnitTest15AssertExceptionE
     /tmp/cc7IsPaf.s:1424   .text:000000000000064c _ZN12_GLOBAL__N_134ThrowingThingieDummyTestNameHelper7RunImplEv
     /tmp/cc7IsPaf.s:1450   .text:000000000000065c _ZN12_GLOBAL__N_157TestExceptionsInFixtureAreReportedAsHappeningInTheFixtureC2Ev
     /tmp/cc7IsPaf.s:11740  .data.rel.ro.local:0000000000000230 _ZTVN12_GLOBAL__N_157TestExceptionsInFixtureAreReportedAsHappeningInTheFixtureE
     /tmp/cc7IsPaf.s:1450   .text:000000000000065c _ZN12_GLOBAL__N_157TestExceptionsInFixtureAreReportedAsHappeningInTheFixtureC1Ev
     /tmp/cc7IsPaf.s:1489   .bss:0000000000000180 _ZN12_GLOBAL__N_165testExceptionsInFixtureAreReportedAsHappeningInTheFixtureInstanceE
     /tmp/cc7IsPaf.s:1489   .bss:00000000000001b8 _ZN12_GLOBAL__N_158adderExceptionsInFixtureAreReportedAsHappeningInTheFixtureE
     /tmp/cc7IsPaf.s:1520   .text:00000000000006ac _ZNK12_GLOBAL__N_157TestExceptionsInFixtureAreReportedAsHappeningInTheFixture7RunImplEv
     /tmp/cc7IsPaf.s:7603   .text._ZN8UnitTest5CheckIPcEEbT_:0000000000000000 _ZN8UnitTest5CheckIPcEEbT_
     /tmp/cc7IsPaf.s:12186  .text._ZN17RecordingReporterD2Ev:0000000000000000 _ZN17RecordingReporterD1Ev
     /tmp/cc7IsPaf.s:1898   .text:0000000000000a25 _ZN12_GLOBAL__N_115SuiteTestSuite113UnitTestSuite12GetSuiteNameEv
     /tmp/cc7IsPaf.s:1922   .text:0000000000000a32 _ZN12_GLOBAL__N_115SuiteTestSuite144TestSimilarlyNamedTestsInDifferentSuitesWorkC2Ev
     /tmp/cc7IsPaf.s:11632  .data.rel.ro.local:0000000000000208 _ZTVN12_GLOBAL__N_115SuiteTestSuite144TestSimilarlyNamedTestsInDifferentSuitesWorkE
     /tmp/cc7IsPaf.s:1922   .text:0000000000000a32 _ZN12_GLOBAL__N_115SuiteTestSuite144TestSimilarlyNamedTestsInDifferentSuitesWorkC1Ev
     /tmp/cc7IsPaf.s:1961   .bss:00000000000001c0 _ZN12_GLOBAL__N_115SuiteTestSuite152testSimilarlyNamedTestsInDifferentSuitesWorkInstanceE
     /tmp/cc7IsPaf.s:1961   .bss:00000000000001f8 _ZN12_GLOBAL__N_115SuiteTestSuite145adderSimilarlyNamedTestsInDifferentSuitesWorkE
     /tmp/cc7IsPaf.s:1966   .text:0000000000000a82 _ZNK12_GLOBAL__N_115SuiteTestSuite144TestSimilarlyNamedTestsInDifferentSuitesWork7RunImplEv
     /tmp/cc7IsPaf.s:1987   .text:0000000000000a92 _ZN12_GLOBAL__N_115SuiteTestSuite165DummyFixtureSimilarlyNamedFixtureTestsInDifferentSuitesWorkHelperC2ERKN8UnitTest11TestDetailsE
     /tmp/cc7IsPaf.s:1987   .text:0000000000000a92 _ZN12_GLOBAL__N_115SuiteTestSuite165DummyFixtureSimilarlyNamedFixtureTestsInDifferentSuitesWorkHelperC1ERKN8UnitTest11TestDetailsE
     /tmp/cc7IsPaf.s:2019   .text:0000000000000aae _ZN12_GLOBAL__N_115SuiteTestSuite163TestDummyFixtureSimilarlyNamedFixtureTestsInDifferentSuitesWorkC2Ev
     /tmp/cc7IsPaf.s:11524  .data.rel.ro.local:00000000000001e0 _ZTVN12_GLOBAL__N_115SuiteTestSuite163TestDummyFixtureSimilarlyNamedFixtureTestsInDifferentSuitesWorkE
     /tmp/cc7IsPaf.s:2019   .text:0000000000000aae _ZN12_GLOBAL__N_115SuiteTestSuite163TestDummyFixtureSimilarlyNamedFixtureTestsInDifferentSuitesWorkC1Ev
     /tmp/cc7IsPaf.s:2058   .bss:0000000000000200 _ZN12_GLOBAL__N_115SuiteTestSuite171testDummyFixtureSimilarlyNamedFixtureTestsInDifferentSuitesWorkInstanceE
     /tmp/cc7IsPaf.s:2058   .bss:0000000000000238 _ZN12_GLOBAL__N_115SuiteTestSuite164adderDummyFixtureSimilarlyNamedFixtureTestsInDifferentSuitesWorkE
     /tmp/cc7IsPaf.s:2071   .text:0000000000000afe _ZNK12_GLOBAL__N_115SuiteTestSuite163TestDummyFixtureSimilarlyNamedFixtureTestsInDifferentSuitesWork7RunImplEv
     /tmp/cc7IsPaf.s:7626   .text:00000000000035c0 _ZN8UnitTest11ExecuteTestIN12_GLOBAL__N_115SuiteTestSuite165DummyFixtureSimilarlyNamedFixtureTestsInDifferentSuitesWorkHelperEEEvRT_RKNS_11TestDetailsE
     /tmp/cc7IsPaf.s:2390   .text:0000000000000dfa _ZN12_GLOBAL__N_115SuiteTestSuite165DummyFixtureSimilarlyNamedFixtureTestsInDifferentSuitesWorkHelper7RunImplEv
     /tmp/cc7IsPaf.s:2414   .text:0000000000000e09 _ZN12_GLOBAL__N_115SuiteTestSuite213UnitTestSuite12GetSuiteNameEv
     /tmp/cc7IsPaf.s:2433   .text:0000000000000e16 _ZN12_GLOBAL__N_115SuiteTestSuite244TestSimilarlyNamedTestsInDifferentSuitesWorkC2Ev
     /tmp/cc7IsPaf.s:11416  .data.rel.ro.local:00000000000001b8 _ZTVN12_GLOBAL__N_115SuiteTestSuite244TestSimilarlyNamedTestsInDifferentSuitesWorkE
     /tmp/cc7IsPaf.s:2433   .text:0000000000000e16 _ZN12_GLOBAL__N_115SuiteTestSuite244TestSimilarlyNamedTestsInDifferentSuitesWorkC1Ev
     /tmp/cc7IsPaf.s:2472   .bss:0000000000000240 _ZN12_GLOBAL__N_115SuiteTestSuite252testSimilarlyNamedTestsInDifferentSuitesWorkInstanceE
     /tmp/cc7IsPaf.s:2472   .bss:0000000000000278 _ZN12_GLOBAL__N_115SuiteTestSuite245adderSimilarlyNamedTestsInDifferentSuitesWorkE
     /tmp/cc7IsPaf.s:2477   .text:0000000000000e66 _ZNK12_GLOBAL__N_115SuiteTestSuite244TestSimilarlyNamedTestsInDifferentSuitesWork7RunImplEv
     /tmp/cc7IsPaf.s:2498   .text:0000000000000e76 _ZN12_GLOBAL__N_115SuiteTestSuite265DummyFixtureSimilarlyNamedFixtureTestsInDifferentSuitesWorkHelperC2ERKN8UnitTest11TestDetailsE
     /tmp/cc7IsPaf.s:2498   .text:0000000000000e76 _ZN12_GLOBAL__N_115SuiteTestSuite265DummyFixtureSimilarlyNamedFixtureTestsInDifferentSuitesWorkHelperC1ERKN8UnitTest11TestDetailsE
     /tmp/cc7IsPaf.s:2525   .text:0000000000000e92 _ZN12_GLOBAL__N_115SuiteTestSuite263TestDummyFixtureSimilarlyNamedFixtureTestsInDifferentSuitesWorkC2Ev
     /tmp/cc7IsPaf.s:11308  .data.rel.ro.local:0000000000000190 _ZTVN12_GLOBAL__N_115SuiteTestSuite263TestDummyFixtureSimilarlyNamedFixtureTestsInDifferentSuitesWorkE
     /tmp/cc7IsPaf.s:2525   .text:0000000000000e92 _ZN12_GLOBAL__N_115SuiteTestSuite263TestDummyFixtureSimilarlyNamedFixtureTestsInDifferentSuitesWorkC1Ev
     /tmp/cc7IsPaf.s:2564   .bss:0000000000000280 _ZN12_GLOBAL__N_115SuiteTestSuite271testDummyFixtureSimilarlyNamedFixtureTestsInDifferentSuitesWorkInstanceE
     /tmp/cc7IsPaf.s:2564   .bss:00000000000002b8 _ZN12_GLOBAL__N_115SuiteTestSuite264adderDummyFixtureSimilarlyNamedFixtureTestsInDifferentSuitesWorkE
     /tmp/cc7IsPaf.s:2569   .text:0000000000000ee2 _ZNK12_GLOBAL__N_115SuiteTestSuite263TestDummyFixtureSimilarlyNamedFixtureTestsInDifferentSuitesWork7RunImplEv
     /tmp/cc7IsPaf.s:7996   .text:00000000000038af _ZN8UnitTest11ExecuteTestIN12_GLOBAL__N_115SuiteTestSuite265DummyFixtureSimilarlyNamedFixtureTestsInDifferentSuitesWorkHelperEEEvRT_RKNS_11TestDetailsE
     /tmp/cc7IsPaf.s:2888   .text:00000000000011de _ZN12_GLOBAL__N_115SuiteTestSuite265DummyFixtureSimilarlyNamedFixtureTestsInDifferentSuitesWorkHelper7RunImplEv
     /tmp/cc7IsPaf.s:2908   .bss:00000000000002c0 _ZN12_GLOBAL__N_114macroTestList1E
     /tmp/cc7IsPaf.s:2915   .text:00000000000011ee _ZN12_GLOBAL__N_120TestMacroTestHelper1C2Ev
     /tmp/cc7IsPaf.s:11200  .data.rel.ro.local:0000000000000168 _ZTVN12_GLOBAL__N_120TestMacroTestHelper1E
     /tmp/cc7IsPaf.s:2915   .text:00000000000011ee _ZN12_GLOBAL__N_120TestMacroTestHelper1C1Ev
     /tmp/cc7IsPaf.s:2954   .bss:00000000000002e0 _ZN12_GLOBAL__N_128testMacroTestHelper1InstanceE
     /tmp/cc7IsPaf.s:2954   .bss:0000000000000318 _ZN12_GLOBAL__N_121adderMacroTestHelper1E
     /tmp/cc7IsPaf.s:2959   .text:000000000000123e _ZNK12_GLOBAL__N_120TestMacroTestHelper17RunImplEv
     /tmp/cc7IsPaf.s:2985   .text:000000000000124e _ZN12_GLOBAL__N_145TestTestAddedWithTEST_EXMacroGetsDefaultSuiteC2Ev
     /tmp/cc7IsPaf.s:11092  .data.rel.ro.local:0000000000000140 _ZTVN12_GLOBAL__N_145TestTestAddedWithTEST_EXMacroGetsDefaultSuiteE
     /tmp/cc7IsPaf.s:2985   .text:000000000000124e _ZN12_GLOBAL__N_145TestTestAddedWithTEST_EXMacroGetsDefaultSuiteC1Ev
     /tmp/cc7IsPaf.s:3024   .bss:0000000000000320 _ZN12_GLOBAL__N_153testTestAddedWithTEST_EXMacroGetsDefaultSuiteInstanceE
     /tmp/cc7IsPaf.s:3024   .bss:0000000000000358 _ZN12_GLOBAL__N_146adderTestAddedWithTEST_EXMacroGetsDefaultSuiteE
     /tmp/cc7IsPaf.s:3043   .text:000000000000129e _ZNK12_GLOBAL__N_145TestTestAddedWithTEST_EXMacroGetsDefaultSuite7RunImplEv
     /tmp/cc7IsPaf.s:3345   .bss:0000000000000360 _ZN12_GLOBAL__N_114macroTestList2E
     /tmp/cc7IsPaf.s:3348   .text:0000000000001510 _ZN12_GLOBAL__N_134DummyFixtureMacroTestHelper2HelperC2ERKN8UnitTest11TestDetailsE
     /tmp/cc7IsPaf.s:3348   .text:0000000000001510 _ZN12_GLOBAL__N_134DummyFixtureMacroTestHelper2HelperC1ERKN8UnitTest11TestDetailsE
     /tmp/cc7IsPaf.s:3379   .text:000000000000152c _ZN12_GLOBAL__N_132TestDummyFixtureMacroTestHelper2C2Ev
     /tmp/cc7IsPaf.s:10984  .data.rel.ro.local:0000000000000118 _ZTVN12_GLOBAL__N_132TestDummyFixtureMacroTestHelper2E
     /tmp/cc7IsPaf.s:3379   .text:000000000000152c _ZN12_GLOBAL__N_132TestDummyFixtureMacroTestHelper2C1Ev
     /tmp/cc7IsPaf.s:3418   .bss:0000000000000380 _ZN12_GLOBAL__N_140testDummyFixtureMacroTestHelper2InstanceE
     /tmp/cc7IsPaf.s:3418   .bss:00000000000003b8 _ZN12_GLOBAL__N_133adderDummyFixtureMacroTestHelper2E
     /tmp/cc7IsPaf.s:3423   .text:000000000000157c _ZNK12_GLOBAL__N_132TestDummyFixtureMacroTestHelper27RunImplEv
     /tmp/cc7IsPaf.s:8366   .text:0000000000003b9e _ZN8UnitTest11ExecuteTestIN12_GLOBAL__N_134DummyFixtureMacroTestHelper2HelperEEEvRT_RKNS_11TestDetailsE
     /tmp/cc7IsPaf.s:3742   .text:0000000000001878 _ZN12_GLOBAL__N_134DummyFixtureMacroTestHelper2Helper7RunImplEv
     /tmp/cc7IsPaf.s:3768   .text:0000000000001888 _ZN12_GLOBAL__N_153TestTestAddedWithTEST_FIXTURE_EXMacroGetsDefaultSuiteC2Ev
     /tmp/cc7IsPaf.s:10876  .data.rel.ro.local:00000000000000f0 _ZTVN12_GLOBAL__N_153TestTestAddedWithTEST_FIXTURE_EXMacroGetsDefaultSuiteE
     /tmp/cc7IsPaf.s:3768   .text:0000000000001888 _ZN12_GLOBAL__N_153TestTestAddedWithTEST_FIXTURE_EXMacroGetsDefaultSuiteC1Ev
     /tmp/cc7IsPaf.s:3807   .bss:00000000000003c0 _ZN12_GLOBAL__N_161testTestAddedWithTEST_FIXTURE_EXMacroGetsDefaultSuiteInstanceE
     /tmp/cc7IsPaf.s:3807   .bss:00000000000003f8 _ZN12_GLOBAL__N_154adderTestAddedWithTEST_FIXTURE_EXMacroGetsDefaultSuiteE
     /tmp/cc7IsPaf.s:3826   .text:00000000000018d8 _ZNK12_GLOBAL__N_153TestTestAddedWithTEST_FIXTURE_EXMacroGetsDefaultSuite7RunImplEv
     /tmp/cc7IsPaf.s:4133   .text:0000000000001b4a _ZN12_GLOBAL__N_117FixtureCtorThrowsC2Ev
     /tmp/cc7IsPaf.s:4162   .bss:0000000000000400 _ZN12_GLOBAL__N_124throwingFixtureTestList1E
     /tmp/cc7IsPaf.s:4165   .text:0000000000001b82 _ZN12_GLOBAL__N_148FixtureCtorThrowsFixtureCtorThrowsTestNameHelperC2ERKN8UnitTest11TestDetailsE
     /tmp/cc7IsPaf.s:4165   .text:0000000000001b82 _ZN12_GLOBAL__N_148FixtureCtorThrowsFixtureCtorThrowsTestNameHelperC1ERKN8UnitTest11TestDetailsE
     /tmp/cc7IsPaf.s:4200   .text:0000000000001bac _ZN12_GLOBAL__N_146TestFixtureCtorThrowsFixtureCtorThrowsTestNameC2Ev
     /tmp/cc7IsPaf.s:10768  .data.rel.ro.local:00000000000000c8 _ZTVN12_GLOBAL__N_146TestFixtureCtorThrowsFixtureCtorThrowsTestNameE
     /tmp/cc7IsPaf.s:4200   .text:0000000000001bac _ZN12_GLOBAL__N_146TestFixtureCtorThrowsFixtureCtorThrowsTestNameC1Ev
     /tmp/cc7IsPaf.s:4239   .bss:0000000000000420 _ZN12_GLOBAL__N_154testFixtureCtorThrowsFixtureCtorThrowsTestNameInstanceE
     /tmp/cc7IsPaf.s:4239   .bss:0000000000000458 _ZN12_GLOBAL__N_147adderFixtureCtorThrowsFixtureCtorThrowsTestNameE
     /tmp/cc7IsPaf.s:4252   .text:0000000000001bfc _ZNK12_GLOBAL__N_146TestFixtureCtorThrowsFixtureCtorThrowsTestName7RunImplEv
     /tmp/cc7IsPaf.s:8736   .text:0000000000003e8d _ZN8UnitTest11ExecuteTestIN12_GLOBAL__N_148FixtureCtorThrowsFixtureCtorThrowsTestNameHelperEEEvRT_RKNS_11TestDetailsE
     /tmp/cc7IsPaf.s:4573   .text:0000000000001ef8 _ZN12_GLOBAL__N_148FixtureCtorThrowsFixtureCtorThrowsTestNameHelper7RunImplEv
     /tmp/cc7IsPaf.s:4599   .text:0000000000001f08 _ZN12_GLOBAL__N_140TestFixturesWithThrowingCtorsAreFailuresC2Ev
     /tmp/cc7IsPaf.s:10660  .data.rel.ro.local:00000000000000a0 _ZTVN12_GLOBAL__N_140TestFixturesWithThrowingCtorsAreFailuresE
     /tmp/cc7IsPaf.s:4599   .text:0000000000001f08 _ZN12_GLOBAL__N_140TestFixturesWithThrowingCtorsAreFailuresC1Ev
     /tmp/cc7IsPaf.s:4638   .bss:0000000000000460 _ZN12_GLOBAL__N_148testFixturesWithThrowingCtorsAreFailuresInstanceE
     /tmp/cc7IsPaf.s:4638   .bss:0000000000000498 _ZN12_GLOBAL__N_141adderFixturesWithThrowingCtorsAreFailuresE
     /tmp/cc7IsPaf.s:4662   .text:0000000000001f58 _ZNK12_GLOBAL__N_140TestFixturesWithThrowingCtorsAreFailures7RunImplEv
     /tmp/cc7IsPaf.s:9113   .text._ZN8UnitTest10CheckEqualIiiEEvRNS_11TestResultsERKT_RKT0_RKNS_11TestDetailsE:0000000000000000 _ZN8UnitTest10CheckEqualIiiEEvRNS_11TestResultsERKT_RKT0_RKNS_11TestDetailsE
     /tmp/cc7IsPaf.s:5040   .text:00000000000022c4 _ZN12_GLOBAL__N_117FixtureDtorThrowsD2Ev
     /tmp/cc7IsPaf.s:5069   .bss:00000000000004a0 _ZN12_GLOBAL__N_124throwingFixtureTestList2E
     /tmp/cc7IsPaf.s:5072   .text:00000000000022fc _ZN12_GLOBAL__N_148FixtureDtorThrowsFixtureDtorThrowsTestNameHelperC2ERKN8UnitTest11TestDetailsE
     /tmp/cc7IsPaf.s:5072   .text:00000000000022fc _ZN12_GLOBAL__N_148FixtureDtorThrowsFixtureDtorThrowsTestNameHelperC1ERKN8UnitTest11TestDetailsE
     /tmp/cc7IsPaf.s:5103   .text:0000000000002316 _ZN12_GLOBAL__N_146TestFixtureDtorThrowsFixtureDtorThrowsTestNameC2Ev
     /tmp/cc7IsPaf.s:10552  .data.rel.ro.local:0000000000000078 _ZTVN12_GLOBAL__N_146TestFixtureDtorThrowsFixtureDtorThrowsTestNameE
     /tmp/cc7IsPaf.s:5103   .text:0000000000002316 _ZN12_GLOBAL__N_146TestFixtureDtorThrowsFixtureDtorThrowsTestNameC1Ev
     /tmp/cc7IsPaf.s:5142   .bss:00000000000004c0 _ZN12_GLOBAL__N_154testFixtureDtorThrowsFixtureDtorThrowsTestNameInstanceE
     /tmp/cc7IsPaf.s:5142   .bss:00000000000004f8 _ZN12_GLOBAL__N_147adderFixtureDtorThrowsFixtureDtorThrowsTestNameE
     /tmp/cc7IsPaf.s:5147   .text:0000000000002366 _ZN12_GLOBAL__N_148FixtureDtorThrowsFixtureDtorThrowsTestNameHelperD2Ev
     /tmp/cc7IsPaf.s:5147   .text:0000000000002366 _ZN12_GLOBAL__N_148FixtureDtorThrowsFixtureDtorThrowsTestNameHelperD1Ev
     /tmp/cc7IsPaf.s:5182   .text:0000000000002382 _ZNK12_GLOBAL__N_146TestFixtureDtorThrowsFixtureDtorThrowsTestName7RunImplEv
     /tmp/cc7IsPaf.s:9259   .text:000000000000417c _ZN8UnitTest11ExecuteTestIN12_GLOBAL__N_148FixtureDtorThrowsFixtureDtorThrowsTestNameHelperEEEvRT_RKNS_11TestDetailsE
     /tmp/cc7IsPaf.s:5527   .text:00000000000026ae _ZN12_GLOBAL__N_148FixtureDtorThrowsFixtureDtorThrowsTestNameHelper7RunImplEv
     /tmp/cc7IsPaf.s:5553   .text:00000000000026be _ZN12_GLOBAL__N_140TestFixturesWithThrowingDtorsAreFailuresC2Ev
     /tmp/cc7IsPaf.s:10444  .data.rel.ro.local:0000000000000050 _ZTVN12_GLOBAL__N_140TestFixturesWithThrowingDtorsAreFailuresE
     /tmp/cc7IsPaf.s:5553   .text:00000000000026be _ZN12_GLOBAL__N_140TestFixturesWithThrowingDtorsAreFailuresC1Ev
     /tmp/cc7IsPaf.s:5592   .bss:0000000000000500 _ZN12_GLOBAL__N_148testFixturesWithThrowingDtorsAreFailuresInstanceE
     /tmp/cc7IsPaf.s:5592   .bss:0000000000000538 _ZN12_GLOBAL__N_141adderFixturesWithThrowingDtorsAreFailuresE
     /tmp/cc7IsPaf.s:5613   .text:000000000000270e _ZNK12_GLOBAL__N_140TestFixturesWithThrowingDtorsAreFailures7RunImplEv
     /tmp/cc7IsPaf.s:5993   .rodata:0000000000000bc8 _ZN12_GLOBAL__N_1L11FailingLineE
     /tmp/cc7IsPaf.s:6002   .text:0000000000002a7a _ZN12_GLOBAL__N_118FixtureCtorAssertsC2Ev
     /tmp/cc7IsPaf.s:6031   .bss:0000000000000540 _ZN12_GLOBAL__N_125ctorAssertFixtureTestListE
     /tmp/cc7IsPaf.s:6034   .text:0000000000002aa8 _ZN12_GLOBAL__N_159FixtureCtorAssertsCorrectlyReportsAssertFailureInCtorHelperC2ERKN8UnitTest11TestDetailsE
     /tmp/cc7IsPaf.s:6034   .text:0000000000002aa8 _ZN12_GLOBAL__N_159FixtureCtorAssertsCorrectlyReportsAssertFailureInCtorHelperC1ERKN8UnitTest11TestDetailsE
     /tmp/cc7IsPaf.s:6070   .text:0000000000002ad2 _ZN12_GLOBAL__N_157TestFixtureCtorAssertsCorrectlyReportsAssertFailureInCtorC2Ev
     /tmp/cc7IsPaf.s:10336  .data.rel.ro.local:0000000000000028 _ZTVN12_GLOBAL__N_157TestFixtureCtorAssertsCorrectlyReportsAssertFailureInCtorE
     /tmp/cc7IsPaf.s:6070   .text:0000000000002ad2 _ZN12_GLOBAL__N_157TestFixtureCtorAssertsCorrectlyReportsAssertFailureInCtorC1Ev
     /tmp/cc7IsPaf.s:6109   .bss:0000000000000560 _ZN12_GLOBAL__N_165testFixtureCtorAssertsCorrectlyReportsAssertFailureInCtorInstanceE
     /tmp/cc7IsPaf.s:6109   .bss:0000000000000598 _ZN12_GLOBAL__N_158adderFixtureCtorAssertsCorrectlyReportsAssertFailureInCtorE
     /tmp/cc7IsPaf.s:6122   .text:0000000000002b22 _ZNK12_GLOBAL__N_157TestFixtureCtorAssertsCorrectlyReportsAssertFailureInCtor7RunImplEv
     /tmp/cc7IsPaf.s:9629   .text:000000000000446b _ZN8UnitTest11ExecuteTestIN12_GLOBAL__N_159FixtureCtorAssertsCorrectlyReportsAssertFailureInCtorHelperEEEvRT_RKNS_11TestDetailsE
     /tmp/cc7IsPaf.s:6443   .text:0000000000002e1e _ZN12_GLOBAL__N_159FixtureCtorAssertsCorrectlyReportsAssertFailureInCtorHelper7RunImplEv
     /tmp/cc7IsPaf.s:6469   .text:0000000000002e2e _ZN12_GLOBAL__N_147TestCorrectlyReportsFixturesWithCtorsThatAssertC2Ev
     /tmp/cc7IsPaf.s:10228  .data.rel.ro.local:0000000000000000 _ZTVN12_GLOBAL__N_147TestCorrectlyReportsFixturesWithCtorsThatAssertE
     /tmp/cc7IsPaf.s:6469   .text:0000000000002e2e _ZN12_GLOBAL__N_147TestCorrectlyReportsFixturesWithCtorsThatAssertC1Ev
     /tmp/cc7IsPaf.s:6508   .bss:00000000000005a0 _ZN12_GLOBAL__N_155testCorrectlyReportsFixturesWithCtorsThatAssertInstanceE
     /tmp/cc7IsPaf.s:6508   .bss:00000000000005d8 _ZN12_GLOBAL__N_148adderCorrectlyReportsFixturesWithCtorsThatAssertE
     /tmp/cc7IsPaf.s:6524   .text:0000000000002e7e _ZNK12_GLOBAL__N_147TestCorrectlyReportsFixturesWithCtorsThatAssert7RunImplEv
     /tmp/cc7IsPaf.s:6888   .text._ZN18SuiteSameTestSuite13UnitTestSuite12GetSuiteNameEv:0000000000000000 _ZN18SuiteSameTestSuite13UnitTestSuite12GetSuiteNameEv
     /tmp/cc7IsPaf.s:6913   .text._ZN18SuiteSameTestSuite14TestDummyTest1C2Ev:0000000000000000 _ZN18SuiteSameTestSuite14TestDummyTest1C2Ev
     /tmp/cc7IsPaf.s:10116  .data.rel.ro.local._ZTVN18SuiteSameTestSuite14TestDummyTest1E:0000000000000000 _ZTVN18SuiteSameTestSuite14TestDummyTest1E
     /tmp/cc7IsPaf.s:6913   .text._ZN18SuiteSameTestSuite14TestDummyTest1C2Ev:0000000000000000 _ZN18SuiteSameTestSuite14TestDummyTest1C1Ev
     /tmp/cc7IsPaf.s:6958   .bss:0000000000000000 _ZN18SuiteSameTestSuite22testDummyTest1InstanceE
     /tmp/cc7IsPaf.s:6963   .bss:0000000000000038 _ZN18SuiteSameTestSuite15adderDummyTest1E
     /tmp/cc7IsPaf.s:6969   .text:00000000000031d0 _ZNK18SuiteSameTestSuite14TestDummyTest17RunImplEv
     /tmp/cc7IsPaf.s:6996   .text._ZN44TestCurrentTestDetailsContainCurrentTestInfoC2Ev:0000000000000000 _ZN44TestCurrentTestDetailsContainCurrentTestInfoC2Ev
     /tmp/cc7IsPaf.s:10003  .data.rel.ro.local._ZTV44TestCurrentTestDetailsContainCurrentTestInfo:0000000000000000 _ZTV44TestCurrentTestDetailsContainCurrentTestInfo
     /tmp/cc7IsPaf.s:6996   .text._ZN44TestCurrentTestDetailsContainCurrentTestInfoC2Ev:0000000000000000 _ZN44TestCurrentTestDetailsContainCurrentTestInfoC1Ev
     /tmp/cc7IsPaf.s:7041   .bss:0000000000000040 testCurrentTestDetailsContainCurrentTestInfoInstance
     /tmp/cc7IsPaf.s:7046   .bss:0000000000000078 adderCurrentTestDetailsContainCurrentTestInfo
     /tmp/cc7IsPaf.s:7056   .text:00000000000031e0 _ZNK44TestCurrentTestDetailsContainCurrentTestInfo7RunImplEv
     /tmp/cc7IsPaf.s:12559  .data.rel.ro._ZTI44TestCurrentTestDetailsContainCurrentTestInfo:0000000000000000 _ZTI44TestCurrentTestDetailsContainCurrentTestInfo
     /tmp/cc7IsPaf.s:10013  .text._ZN44TestCurrentTestDetailsContainCurrentTestInfoD2Ev:0000000000000000 _ZN44TestCurrentTestDetailsContainCurrentTestInfoD1Ev
     /tmp/cc7IsPaf.s:10047  .text._ZN44TestCurrentTestDetailsContainCurrentTestInfoD0Ev:0000000000000000 _ZN44TestCurrentTestDetailsContainCurrentTestInfoD0Ev
     /tmp/cc7IsPaf.s:10013  .text._ZN44TestCurrentTestDetailsContainCurrentTestInfoD2Ev:0000000000000000 _ZN44TestCurrentTestDetailsContainCurrentTestInfoD2Ev
     /tmp/cc7IsPaf.s:12575  .data.rel.ro._ZTIN18SuiteSameTestSuite14TestDummyTest1E:0000000000000000 _ZTIN18SuiteSameTestSuite14TestDummyTest1E
     /tmp/cc7IsPaf.s:10126  .text._ZN18SuiteSameTestSuite14TestDummyTest1D2Ev:0000000000000000 _ZN18SuiteSameTestSuite14TestDummyTest1D1Ev
     /tmp/cc7IsPaf.s:10160  .text._ZN18SuiteSameTestSuite14TestDummyTest1D0Ev:0000000000000000 _ZN18SuiteSameTestSuite14TestDummyTest1D0Ev
     /tmp/cc7IsPaf.s:10126  .text._ZN18SuiteSameTestSuite14TestDummyTest1D2Ev:0000000000000000 _ZN18SuiteSameTestSuite14TestDummyTest1D2Ev
     /tmp/cc7IsPaf.s:12596  .data.rel.ro:0000000000000000 _ZTIN12_GLOBAL__N_147TestCorrectlyReportsFixturesWithCtorsThatAssertE
     /tmp/cc7IsPaf.s:10237  .text:000000000000475a _ZN12_GLOBAL__N_147TestCorrectlyReportsFixturesWithCtorsThatAssertD1Ev
     /tmp/cc7IsPaf.s:10268  .text:0000000000004788 _ZN12_GLOBAL__N_147TestCorrectlyReportsFixturesWithCtorsThatAssertD0Ev
     /tmp/cc7IsPaf.s:10237  .text:000000000000475a _ZN12_GLOBAL__N_147TestCorrectlyReportsFixturesWithCtorsThatAssertD2Ev
     /tmp/cc7IsPaf.s:12610  .data.rel.ro:0000000000000018 _ZTIN12_GLOBAL__N_157TestFixtureCtorAssertsCorrectlyReportsAssertFailureInCtorE
     /tmp/cc7IsPaf.s:10345  .text:00000000000047d8 _ZN12_GLOBAL__N_157TestFixtureCtorAssertsCorrectlyReportsAssertFailureInCtorD1Ev
     /tmp/cc7IsPaf.s:10376  .text:0000000000004806 _ZN12_GLOBAL__N_157TestFixtureCtorAssertsCorrectlyReportsAssertFailureInCtorD0Ev
     /tmp/cc7IsPaf.s:10345  .text:00000000000047d8 _ZN12_GLOBAL__N_157TestFixtureCtorAssertsCorrectlyReportsAssertFailureInCtorD2Ev
     /tmp/cc7IsPaf.s:12624  .data.rel.ro:0000000000000030 _ZTIN12_GLOBAL__N_140TestFixturesWithThrowingDtorsAreFailuresE
     /tmp/cc7IsPaf.s:10453  .text:0000000000004856 _ZN12_GLOBAL__N_140TestFixturesWithThrowingDtorsAreFailuresD1Ev
     /tmp/cc7IsPaf.s:10484  .text:0000000000004884 _ZN12_GLOBAL__N_140TestFixturesWithThrowingDtorsAreFailuresD0Ev
     /tmp/cc7IsPaf.s:10453  .text:0000000000004856 _ZN12_GLOBAL__N_140TestFixturesWithThrowingDtorsAreFailuresD2Ev
     /tmp/cc7IsPaf.s:12638  .data.rel.ro:0000000000000048 _ZTIN12_GLOBAL__N_146TestFixtureDtorThrowsFixtureDtorThrowsTestNameE
     /tmp/cc7IsPaf.s:10561  .text:00000000000048d4 _ZN12_GLOBAL__N_146TestFixtureDtorThrowsFixtureDtorThrowsTestNameD1Ev
     /tmp/cc7IsPaf.s:10592  .text:0000000000004902 _ZN12_GLOBAL__N_146TestFixtureDtorThrowsFixtureDtorThrowsTestNameD0Ev
     /tmp/cc7IsPaf.s:10561  .text:00000000000048d4 _ZN12_GLOBAL__N_146TestFixtureDtorThrowsFixtureDtorThrowsTestNameD2Ev
     /tmp/cc7IsPaf.s:12652  .data.rel.ro:0000000000000060 _ZTIN12_GLOBAL__N_140TestFixturesWithThrowingCtorsAreFailuresE
     /tmp/cc7IsPaf.s:10669  .text:0000000000004952 _ZN12_GLOBAL__N_140TestFixturesWithThrowingCtorsAreFailuresD1Ev
     /tmp/cc7IsPaf.s:10700  .text:0000000000004980 _ZN12_GLOBAL__N_140TestFixturesWithThrowingCtorsAreFailuresD0Ev
     /tmp/cc7IsPaf.s:10669  .text:0000000000004952 _ZN12_GLOBAL__N_140TestFixturesWithThrowingCtorsAreFailuresD2Ev
     /tmp/cc7IsPaf.s:12666  .data.rel.ro:0000000000000078 _ZTIN12_GLOBAL__N_146TestFixtureCtorThrowsFixtureCtorThrowsTestNameE
     /tmp/cc7IsPaf.s:10777  .text:00000000000049d0 _ZN12_GLOBAL__N_146TestFixtureCtorThrowsFixtureCtorThrowsTestNameD1Ev
     /tmp/cc7IsPaf.s:10808  .text:00000000000049fe _ZN12_GLOBAL__N_146TestFixtureCtorThrowsFixtureCtorThrowsTestNameD0Ev
     /tmp/cc7IsPaf.s:10777  .text:00000000000049d0 _ZN12_GLOBAL__N_146TestFixtureCtorThrowsFixtureCtorThrowsTestNameD2Ev
     /tmp/cc7IsPaf.s:12680  .data.rel.ro:0000000000000090 _ZTIN12_GLOBAL__N_153TestTestAddedWithTEST_FIXTURE_EXMacroGetsDefaultSuiteE
     /tmp/cc7IsPaf.s:10885  .text:0000000000004a4e _ZN12_GLOBAL__N_153TestTestAddedWithTEST_FIXTURE_EXMacroGetsDefaultSuiteD1Ev
     /tmp/cc7IsPaf.s:10916  .text:0000000000004a7c _ZN12_GLOBAL__N_153TestTestAddedWithTEST_FIXTURE_EXMacroGetsDefaultSuiteD0Ev
     /tmp/cc7IsPaf.s:10885  .text:0000000000004a4e _ZN12_GLOBAL__N_153TestTestAddedWithTEST_FIXTURE_EXMacroGetsDefaultSuiteD2Ev
     /tmp/cc7IsPaf.s:12694  .data.rel.ro:00000000000000a8 _ZTIN12_GLOBAL__N_132TestDummyFixtureMacroTestHelper2E
     /tmp/cc7IsPaf.s:10993  .text:0000000000004acc _ZN12_GLOBAL__N_132TestDummyFixtureMacroTestHelper2D1Ev
     /tmp/cc7IsPaf.s:11024  .text:0000000000004afa _ZN12_GLOBAL__N_132TestDummyFixtureMacroTestHelper2D0Ev
     /tmp/cc7IsPaf.s:10993  .text:0000000000004acc _ZN12_GLOBAL__N_132TestDummyFixtureMacroTestHelper2D2Ev
     /tmp/cc7IsPaf.s:12708  .data.rel.ro:00000000000000c0 _ZTIN12_GLOBAL__N_145TestTestAddedWithTEST_EXMacroGetsDefaultSuiteE
     /tmp/cc7IsPaf.s:11101  .text:0000000000004b4a _ZN12_GLOBAL__N_145TestTestAddedWithTEST_EXMacroGetsDefaultSuiteD1Ev
     /tmp/cc7IsPaf.s:11132  .text:0000000000004b78 _ZN12_GLOBAL__N_145TestTestAddedWithTEST_EXMacroGetsDefaultSuiteD0Ev
     /tmp/cc7IsPaf.s:11101  .text:0000000000004b4a _ZN12_GLOBAL__N_145TestTestAddedWithTEST_EXMacroGetsDefaultSuiteD2Ev
     /tmp/cc7IsPaf.s:12722  .data.rel.ro:00000000000000d8 _ZTIN12_GLOBAL__N_120TestMacroTestHelper1E
     /tmp/cc7IsPaf.s:11209  .text:0000000000004bc8 _ZN12_GLOBAL__N_120TestMacroTestHelper1D1Ev
     /tmp/cc7IsPaf.s:11240  .text:0000000000004bf6 _ZN12_GLOBAL__N_120TestMacroTestHelper1D0Ev
     /tmp/cc7IsPaf.s:11209  .text:0000000000004bc8 _ZN12_GLOBAL__N_120TestMacroTestHelper1D2Ev
     /tmp/cc7IsPaf.s:12736  .data.rel.ro:00000000000000f0 _ZTIN12_GLOBAL__N_115SuiteTestSuite263TestDummyFixtureSimilarlyNamedFixtureTestsInDifferentSuitesWorkE
     /tmp/cc7IsPaf.s:11317  .text:0000000000004c46 _ZN12_GLOBAL__N_115SuiteTestSuite263TestDummyFixtureSimilarlyNamedFixtureTestsInDifferentSuitesWorkD1Ev
     /tmp/cc7IsPaf.s:11348  .text:0000000000004c74 _ZN12_GLOBAL__N_115SuiteTestSuite263TestDummyFixtureSimilarlyNamedFixtureTestsInDifferentSuitesWorkD0Ev
     /tmp/cc7IsPaf.s:11317  .text:0000000000004c46 _ZN12_GLOBAL__N_115SuiteTestSuite263TestDummyFixtureSimilarlyNamedFixtureTestsInDifferentSuitesWorkD2Ev
     /tmp/cc7IsPaf.s:12750  .data.rel.ro:0000000000000108 _ZTIN12_GLOBAL__N_115SuiteTestSuite244TestSimilarlyNamedTestsInDifferentSuitesWorkE
     /tmp/cc7IsPaf.s:11425  .text:0000000000004cc4 _ZN12_GLOBAL__N_115SuiteTestSuite244TestSimilarlyNamedTestsInDifferentSuitesWorkD1Ev
     /tmp/cc7IsPaf.s:11456  .text:0000000000004cf2 _ZN12_GLOBAL__N_115SuiteTestSuite244TestSimilarlyNamedTestsInDifferentSuitesWorkD0Ev
     /tmp/cc7IsPaf.s:11425  .text:0000000000004cc4 _ZN12_GLOBAL__N_115SuiteTestSuite244TestSimilarlyNamedTestsInDifferentSuitesWorkD2Ev
     /tmp/cc7IsPaf.s:12764  .data.rel.ro:0000000000000120 _ZTIN12_GLOBAL__N_115SuiteTestSuite163TestDummyFixtureSimilarlyNamedFixtureTestsInDifferentSuitesWorkE
     /tmp/cc7IsPaf.s:11533  .text:0000000000004d42 _ZN12_GLOBAL__N_115SuiteTestSuite163TestDummyFixtureSimilarlyNamedFixtureTestsInDifferentSuitesWorkD1Ev
     /tmp/cc7IsPaf.s:11564  .text:0000000000004d70 _ZN12_GLOBAL__N_115SuiteTestSuite163TestDummyFixtureSimilarlyNamedFixtureTestsInDifferentSuitesWorkD0Ev
     /tmp/cc7IsPaf.s:11533  .text:0000000000004d42 _ZN12_GLOBAL__N_115SuiteTestSuite163TestDummyFixtureSimilarlyNamedFixtureTestsInDifferentSuitesWorkD2Ev
     /tmp/cc7IsPaf.s:12778  .data.rel.ro:0000000000000138 _ZTIN12_GLOBAL__N_115SuiteTestSuite144TestSimilarlyNamedTestsInDifferentSuitesWorkE
     /tmp/cc7IsPaf.s:11641  .text:0000000000004dc0 _ZN12_GLOBAL__N_115SuiteTestSuite144TestSimilarlyNamedTestsInDifferentSuitesWorkD1Ev
     /tmp/cc7IsPaf.s:11672  .text:0000000000004dee _ZN12_GLOBAL__N_115SuiteTestSuite144TestSimilarlyNamedTestsInDifferentSuitesWorkD0Ev
     /tmp/cc7IsPaf.s:11641  .text:0000000000004dc0 _ZN12_GLOBAL__N_115SuiteTestSuite144TestSimilarlyNamedTestsInDifferentSuitesWorkD2Ev
     /tmp/cc7IsPaf.s:12792  .data.rel.ro:0000000000000150 _ZTIN12_GLOBAL__N_157TestExceptionsInFixtureAreReportedAsHappeningInTheFixtureE
     /tmp/cc7IsPaf.s:11749  .text:0000000000004e3e _ZN12_GLOBAL__N_157TestExceptionsInFixtureAreReportedAsHappeningInTheFixtureD1Ev
     /tmp/cc7IsPaf.s:11780  .text:0000000000004e6c _ZN12_GLOBAL__N_157TestExceptionsInFixtureAreReportedAsHappeningInTheFixtureD0Ev
     /tmp/cc7IsPaf.s:11749  .text:0000000000004e3e _ZN12_GLOBAL__N_157TestExceptionsInFixtureAreReportedAsHappeningInTheFixtureD2Ev
     /tmp/cc7IsPaf.s:12806  .data.rel.ro:0000000000000168 _ZTIN12_GLOBAL__N_132TestThrowingThingieDummyTestNameE
     /tmp/cc7IsPaf.s:11857  .text:0000000000004ebc _ZN12_GLOBAL__N_132TestThrowingThingieDummyTestNameD1Ev
     /tmp/cc7IsPaf.s:11888  .text:0000000000004eea _ZN12_GLOBAL__N_132TestThrowingThingieDummyTestNameD0Ev
     /tmp/cc7IsPaf.s:11857  .text:0000000000004ebc _ZN12_GLOBAL__N_132TestThrowingThingieDummyTestNameD2Ev
     /tmp/cc7IsPaf.s:12820  .data.rel.ro:0000000000000180 _ZTIN12_GLOBAL__N_138TestTestsAreAddedToTheListThroughMacroE
     /tmp/cc7IsPaf.s:11965  .text:0000000000004f3a _ZN12_GLOBAL__N_138TestTestsAreAddedToTheListThroughMacroD1Ev
     /tmp/cc7IsPaf.s:11996  .text:0000000000004f68 _ZN12_GLOBAL__N_138TestTestsAreAddedToTheListThroughMacroD0Ev
     /tmp/cc7IsPaf.s:11965  .text:0000000000004f3a _ZN12_GLOBAL__N_138TestTestsAreAddedToTheListThroughMacroD2Ev
     /tmp/cc7IsPaf.s:12834  .data.rel.ro:0000000000000198 _ZTIN12_GLOBAL__N_113TestDummyTestE
     /tmp/cc7IsPaf.s:12073  .text:0000000000004fb8 _ZN12_GLOBAL__N_113TestDummyTestD1Ev
     /tmp/cc7IsPaf.s:12104  .text:0000000000004fe6 _ZN12_GLOBAL__N_113TestDummyTestD0Ev
     /tmp/cc7IsPaf.s:12073  .text:0000000000004fb8 _ZN12_GLOBAL__N_113TestDummyTestD2Ev
     /tmp/cc7IsPaf.s:12843  .data.rel.ro._ZTI17RecordingReporter:0000000000000000 _ZTI17RecordingReporter
     /tmp/cc7IsPaf.s:12220  .text._ZN17RecordingReporterD0Ev:0000000000000000 _ZN17RecordingReporterD0Ev
     /tmp/cc7IsPaf.s:12186  .text._ZN17RecordingReporterD2Ev:0000000000000000 _ZN17RecordingReporterD2Ev
     /tmp/cc7IsPaf.s:12859  .data.rel.ro._ZTIN8UnitTest15MemoryOutStreamE:0000000000000000 _ZTIN8UnitTest15MemoryOutStreamE
     /tmp/cc7IsPaf.s:12476  .text._ZN8UnitTest15MemoryOutStreamD0Ev:0000000000000000 _ZN8UnitTest15MemoryOutStreamD0Ev
     /tmp/cc7IsPaf.s:12461  .text._ZN8UnitTest15MemoryOutStreamD1Ev:00000000000000b6 _ZTv0_n24_N8UnitTest15MemoryOutStreamD1Ev
     /tmp/cc7IsPaf.s:12543  .text._ZN8UnitTest15MemoryOutStreamD0Ev:000000000000004f _ZTv0_n24_N8UnitTest15MemoryOutStreamD0Ev
     /tmp/cc7IsPaf.s:12318  .data.rel.ro._ZTCN8UnitTest15MemoryOutStreamE0_NSt7__cxx1119basic_ostringstreamIcSt11char_traitsIcESaIcEEE:0000000000000000 _ZTCN8UnitTest15MemoryOutStreamE0_NSt7__cxx1119basic_ostringstreamIcSt11char_traitsIcESaIcEEE
     /tmp/cc7IsPaf.s:12335  .data.rel.ro._ZTCN8UnitTest15MemoryOutStreamE0_So:0000000000000000 _ZTCN8UnitTest15MemoryOutStreamE0_So
     /tmp/cc7IsPaf.s:12568  .rodata._ZTS44TestCurrentTestDetailsContainCurrentTestInfo:0000000000000000 _ZTS44TestCurrentTestDetailsContainCurrentTestInfo
     /tmp/cc7IsPaf.s:12584  .rodata._ZTSN18SuiteSameTestSuite14TestDummyTest1E:0000000000000000 _ZTSN18SuiteSameTestSuite14TestDummyTest1E
     /tmp/cc7IsPaf.s:12590  .rodata:0000000000000ea0 _ZTSN12_GLOBAL__N_147TestCorrectlyReportsFixturesWithCtorsThatAssertE
     /tmp/cc7IsPaf.s:12604  .rodata:0000000000000f00 _ZTSN12_GLOBAL__N_157TestFixtureCtorAssertsCorrectlyReportsAssertFailureInCtorE
     /tmp/cc7IsPaf.s:12618  .rodata:0000000000000f60 _ZTSN12_GLOBAL__N_140TestFixturesWithThrowingDtorsAreFailuresE
     /tmp/cc7IsPaf.s:12632  .rodata:0000000000000fa0 _ZTSN12_GLOBAL__N_146TestFixtureDtorThrowsFixtureDtorThrowsTestNameE
     /tmp/cc7IsPaf.s:12646  .rodata:0000000000001000 _ZTSN12_GLOBAL__N_140TestFixturesWithThrowingCtorsAreFailuresE
     /tmp/cc7IsPaf.s:12660  .rodata:0000000000001040 _ZTSN12_GLOBAL__N_146TestFixtureCtorThrowsFixtureCtorThrowsTestNameE
     /tmp/cc7IsPaf.s:12674  .rodata:00000000000010a0 _ZTSN12_GLOBAL__N_153TestTestAddedWithTEST_FIXTURE_EXMacroGetsDefaultSuiteE
     /tmp/cc7IsPaf.s:12688  .rodata:0000000000001100 _ZTSN12_GLOBAL__N_132TestDummyFixtureMacroTestHelper2E
     /tmp/cc7IsPaf.s:12702  .rodata:0000000000001140 _ZTSN12_GLOBAL__N_145TestTestAddedWithTEST_EXMacroGetsDefaultSuiteE
     /tmp/cc7IsPaf.s:12716  .rodata:00000000000011a0 _ZTSN12_GLOBAL__N_120TestMacroTestHelper1E
     /tmp/cc7IsPaf.s:12730  .rodata:00000000000011e0 _ZTSN12_GLOBAL__N_115SuiteTestSuite263TestDummyFixtureSimilarlyNamedFixtureTestsInDifferentSuitesWorkE
     /tmp/cc7IsPaf.s:12744  .rodata:0000000000001260 _ZTSN12_GLOBAL__N_115SuiteTestSuite244TestSimilarlyNamedTestsInDifferentSuitesWorkE
     /tmp/cc7IsPaf.s:12758  .rodata:00000000000012c0 _ZTSN12_GLOBAL__N_115SuiteTestSuite163TestDummyFixtureSimilarlyNamedFixtureTestsInDifferentSuitesWorkE
     /tmp/cc7IsPaf.s:12772  .rodata:0000000000001340 _ZTSN12_GLOBAL__N_115SuiteTestSuite144TestSimilarlyNamedTestsInDifferentSuitesWorkE
     /tmp/cc7IsPaf.s:12786  .rodata:00000000000013a0 _ZTSN12_GLOBAL__N_157TestExceptionsInFixtureAreReportedAsHappeningInTheFixtureE
     /tmp/cc7IsPaf.s:12800  .rodata:0000000000001400 _ZTSN12_GLOBAL__N_132TestThrowingThingieDummyTestNameE
     /tmp/cc7IsPaf.s:12814  .rodata:0000000000001440 _ZTSN12_GLOBAL__N_138TestTestsAreAddedToTheListThroughMacroE
     /tmp/cc7IsPaf.s:12828  .rodata:0000000000001480 _ZTSN12_GLOBAL__N_113TestDummyTestE
     /tmp/cc7IsPaf.s:12852  .rodata._ZTS17RecordingReporter:0000000000000000 _ZTS17RecordingReporter
     /tmp/cc7IsPaf.s:12868  .rodata._ZTSN8UnitTest15MemoryOutStreamE:0000000000000000 _ZTSN8UnitTest15MemoryOutStreamE
     /tmp/cc7IsPaf.s:12872  .text:0000000000005035 _Z41__static_initialization_and_destruction_0ii
     /tmp/cc7IsPaf.s:13302  .text:000000000000577b _GLOBAL__sub_I__ZN18SuiteSameTestSuite22testDummyTest1InstanceE
                           .group:0000000000000000 _ZN8UnitTest12TestReporterC5Ev
                           .group:0000000000000000 _ZN17RecordingReporterC5Ev
                           .group:0000000000000000 _ZN17ScopedCurrentTestC5ERN8UnitTest11TestResultsEPKNS0_11TestDetailsE
                           .group:0000000000000000 _ZN17ScopedCurrentTestD5Ev
                           .group:0000000000000000 _ZN18SuiteSameTestSuite14TestDummyTest1C5Ev
                           .group:0000000000000000 _ZN44TestCurrentTestDetailsContainCurrentTestInfoC5Ev
                           .group:0000000000000000 _ZN44TestCurrentTestDetailsContainCurrentTestInfoD5Ev
                           .group:0000000000000000 _ZN18SuiteSameTestSuite14TestDummyTest1D5Ev
                           .group:0000000000000000 _ZN17RecordingReporterD5Ev

UNDEFINED SYMBOLS
_ZNSt9basic_iosIcSt11char_traitsIcEEC2Ev
_ZNSt7__cxx1119basic_ostringstreamIcSt11char_traitsIcESaIcEEC2Ev
_ZNSt7__cxx1112basic_stringIcSt11char_traitsIcESaIcEEC1Ev
_ZNSt7__cxx1119basic_ostringstreamIcSt11char_traitsIcESaIcEED2Ev
_ZNSt9basic_iosIcSt11char_traitsIcEED2Ev
_Unwind_Resume
__gxx_personality_v0
_ZTVN8UnitTest12TestReporterE
strcpy
_ZN8UnitTest11CurrentTest7ResultsEv
_ZN8UnitTest11CurrentTest7DetailsEv
_ZN8UnitTest4TestC2EPKcS2_S2_i
_ZNK8UnitTest8TestList7GetHeadEv
_ZN8UnitTest11TestDetailsC1ERKS0_i
_ZN8UnitTest11TestResults13OnTestFailureERKNS_11TestDetailsEPKc
__cxa_begin_catch
__cxa_end_catch
__stack_chk_fail
__cxa_allocate_exception
_ZTIPKc
__cxa_throw
_ZNK8UnitTest15AssertException10LineNumberEv
_ZNK8UnitTest15AssertException8FilenameEv
_ZN8UnitTest11TestDetailsC1EPKcS2_S2_i
_ZStlsISt11char_traitsIcEERSt13basic_ostreamIcT_ES5_PKc
_ZNK8UnitTest15MemoryOutStream7GetTextEv
_ZN8UnitTest11TestResultsC1EPNS_12TestReporterE
_ZN8UnitTest4Test3RunEv
strstr
_ZN8UnitTest10CheckEqualERNS_11TestResultsEPKcS3_RKNS_11TestDetailsE
_ZNK8UnitTest11TestResults18GetFailedTestCountEv
_ZN8UnitTest12ReportAssertEPKcS1_i
_ZN8UnitTest16SignalTranslatorC1Ev
_ZN8UnitTest16SignalTranslator12s_jumpTargetE
__sigsetjmp
_ZN8UnitTest16SignalTranslatorD1Ev
_ZNSolsEi
_ZN8UnitTest4TestD2Ev
_ZdlPv
_ZN8UnitTest12TestReporterD2Ev
_ZTINSt7__cxx1119basic_ostringstreamIcSt11char_traitsIcESaIcEEE
_ZTISo
_ZNSt7__cxx1112basic_stringIcSt11char_traitsIcESaIcEED1Ev
_ZTVN10__cxxabiv120__si_class_type_infoE
_ZTIN8UnitTest4TestE
_ZTIN8UnitTest12TestReporterE
_ZN8UnitTest8TestListC1Ev
__dso_handle
__cxa_atexit
_ZN8UnitTest9ListAdderC1ERNS_8TestListEPNS_4TestE
_ZN8UnitTest4Test11GetTestListEv
_ZTIN8UnitTest15AssertExceptionE
_ZTISt9exception
