   1              		.file	"TestDeferredTestReporter.cpp"
   2              		.text
   3              	.Ltext0:
   4              		.file 0 "/home/pong/FPGALink/makestuff/libs/libutpp/tests" "TestDeferredTestReporter.cpp"
   5              		.section	.rodata
   6              	.LC0:
   7 0000 44656661 		.string	"DefaultSuite"
   7      756C7453 
   7      75697465 
   7      00
   8              		.section	.text._ZN13UnitTestSuite12GetSuiteNameEv,"axG",@progbits,_ZN13UnitTestSuite12GetSuiteName
   9              		.weak	_ZN13UnitTestSuite12GetSuiteNameEv
  11              	_ZN13UnitTestSuite12GetSuiteNameEv:
  12              	.LFB0:
  13              		.file 1 "../TestSuite.h"
   1:../TestSuite.h **** #ifndef UNITTEST_TESTSUITE_H
   2:../TestSuite.h **** #define UNITTEST_TESTSUITE_H
   3:../TestSuite.h **** 
   4:../TestSuite.h **** namespace UnitTestSuite {
   5:../TestSuite.h **** 
   6:../TestSuite.h ****     inline char const* GetSuiteName ()
   7:../TestSuite.h ****     {
  14              		.loc 1 7 5
  15              		.cfi_startproc
  16 0000 F30F1EFA 		endbr64
  17 0004 55       		pushq	%rbp
  18              		.cfi_def_cfa_offset 16
  19              		.cfi_offset 6, -16
  20 0005 4889E5   		movq	%rsp, %rbp
  21              		.cfi_def_cfa_register 6
   8:../TestSuite.h ****         return "DefaultSuite";
  22              		.loc 1 8 16
  23 0008 488D0500 		leaq	.LC0(%rip), %rax
  23      000000
   9:../TestSuite.h ****     }
  24              		.loc 1 9 5
  25 000f 5D       		popq	%rbp
  26              		.cfi_def_cfa 7, 8
  27 0010 C3       		ret
  28              		.cfi_endproc
  29              	.LFE0:
  31              		.section	.text._ZN8UnitTest15MemoryOutStreamC1Ev,"axG",@progbits,_ZN8UnitTest15MemoryOutStreamC1Ev
  32              		.align 2
  33              		.weak	_ZN8UnitTest15MemoryOutStreamC1Ev
  35              	_ZN8UnitTest15MemoryOutStreamC1Ev:
  36              	.LFB1129:
  37              		.file 2 "../MemoryOutStream.h"
   1:../MemoryOutStream.h **** #ifndef UNITTEST_MEMORYOUTSTREAM_H
   2:../MemoryOutStream.h **** #define UNITTEST_MEMORYOUTSTREAM_H
   3:../MemoryOutStream.h **** 
   4:../MemoryOutStream.h **** #include "Config.h"
   5:../MemoryOutStream.h **** 
   6:../MemoryOutStream.h **** #ifndef UNITTEST_USE_CUSTOM_STREAMS
   7:../MemoryOutStream.h **** 
   8:../MemoryOutStream.h **** #include <sstream>
   9:../MemoryOutStream.h **** 
  10:../MemoryOutStream.h **** namespace UnitTest
  11:../MemoryOutStream.h **** {
  12:../MemoryOutStream.h **** 
  13:../MemoryOutStream.h **** class MemoryOutStream : public std::ostringstream
  14:../MemoryOutStream.h **** {
  15:../MemoryOutStream.h **** public:
  16:../MemoryOutStream.h ****     MemoryOutStream() {}
  38              		.loc 2 16 5
  39              		.cfi_startproc
  40              		.cfi_personality 0x9b,DW.ref.__gxx_personality_v0
  41              		.cfi_lsda 0x1b,.LLSDA1129
  42 0000 F30F1EFA 		endbr64
  43 0004 55       		pushq	%rbp
  44              		.cfi_def_cfa_offset 16
  45              		.cfi_offset 6, -16
  46 0005 4889E5   		movq	%rsp, %rbp
  47              		.cfi_def_cfa_register 6
  48 0008 53       		pushq	%rbx
  49 0009 4883EC18 		subq	$24, %rsp
  50              		.cfi_offset 3, -24
  51 000d 48897DE8 		movq	%rdi, -24(%rbp)
  52              	.LBB2:
  53              		.loc 2 16 23
  54 0011 488B45E8 		movq	-24(%rbp), %rax
  55 0015 48059000 		addq	$144, %rax
  55      0000
  56 001b 4889C7   		movq	%rax, %rdi
  57              	.LEHB0:
  58 001e E8000000 		call	_ZNSt9basic_iosIcSt11char_traitsIcEEC2Ev@PLT
  58      00
  59              	.LEHE0:
  60 0023 488B45E8 		movq	-24(%rbp), %rax
  61 0027 488D1500 		leaq	8+_ZTTN8UnitTest15MemoryOutStreamE(%rip), %rdx
  61      000000
  62 002e 4889D6   		movq	%rdx, %rsi
  63 0031 4889C7   		movq	%rax, %rdi
  64              	.LEHB1:
  65 0034 E8000000 		call	_ZNSt7__cxx1119basic_ostringstreamIcSt11char_traitsIcESaIcEEC2Ev@PLT
  65      00
  66              	.LEHE1:
  67              		.loc 2 16 23 is_stmt 0 discriminator 2
  68 0039 488D1500 		leaq	24+_ZTVN8UnitTest15MemoryOutStreamE(%rip), %rdx
  68      000000
  69 0040 488B45E8 		movq	-24(%rbp), %rax
  70 0044 488910   		movq	%rdx, (%rax)
  71 0047 488B45E8 		movq	-24(%rbp), %rax
  72 004b 48059000 		addq	$144, %rax
  72      0000
  73 0051 488D1500 		leaq	64+_ZTVN8UnitTest15MemoryOutStreamE(%rip), %rdx
  73      000000
  74 0058 488910   		movq	%rdx, (%rax)
  75 005b 488B45E8 		movq	-24(%rbp), %rax
  76 005f 4883C070 		addq	$112, %rax
  77 0063 4889C7   		movq	%rax, %rdi
  78              	.LEHB2:
  79 0066 E8000000 		call	_ZNSt7__cxx1112basic_stringIcSt11char_traitsIcESaIcEEC1Ev@PLT
  79      00
  80              	.LEHE2:
  81              	.LBE2:
  82              		.loc 2 16 24 is_stmt 1
  83 006b EB43     		jmp	.L8
  84              	.L7:
  85 006d F30F1EFA 		endbr64
  86              	.LBB3:
  87 0071 4889C3   		movq	%rax, %rbx
  88 0074 488B45E8 		movq	-24(%rbp), %rax
  89 0078 488D1500 		leaq	8+_ZTTN8UnitTest15MemoryOutStreamE(%rip), %rdx
  89      000000
  90 007f 4889D6   		movq	%rdx, %rsi
  91 0082 4889C7   		movq	%rax, %rdi
  92 0085 E8000000 		call	_ZNSt7__cxx1119basic_ostringstreamIcSt11char_traitsIcESaIcEED2Ev@PLT
  92      00
  93 008a EB07     		jmp	.L5
  94              	.L6:
  95 008c F30F1EFA 		endbr64
  96 0090 4889C3   		movq	%rax, %rbx
  97              	.L5:
  98              		.loc 2 16 24 is_stmt 0 discriminator 1
  99 0093 488B45E8 		movq	-24(%rbp), %rax
 100 0097 48059000 		addq	$144, %rax
 100      0000
 101 009d 4889C7   		movq	%rax, %rdi
 102 00a0 E8000000 		call	_ZNSt9basic_iosIcSt11char_traitsIcEED2Ev@PLT
 102      00
 103 00a5 4889D8   		movq	%rbx, %rax
 104 00a8 4889C7   		movq	%rax, %rdi
 105              	.LEHB3:
 106 00ab E8000000 		call	_Unwind_Resume@PLT
 106      00
 107              	.LEHE3:
 108              	.L8:
 109              	.LBE3:
 110              		.loc 2 16 24
 111 00b0 488B5DF8 		movq	-8(%rbp), %rbx
 112 00b4 C9       		leave
 113              		.cfi_def_cfa 7, 8
 114 00b5 C3       		ret
 115              		.cfi_endproc
 116              	.LFE1129:
 117              		.globl	__gxx_personality_v0
 118              		.section	.gcc_except_table._ZN8UnitTest15MemoryOutStreamC1Ev,"aG",@progbits,_ZN8UnitTest15MemoryOu
 119              	.LLSDA1129:
 120 0000 FF       		.byte	0xff
 121 0001 FF       		.byte	0xff
 122 0002 01       		.byte	0x1
 123 0003 12       		.uleb128 .LLSDACSE1129-.LLSDACSB1129
 124              	.LLSDACSB1129:
 125 0004 1E       		.uleb128 .LEHB0-.LFB1129
 126 0005 05       		.uleb128 .LEHE0-.LEHB0
 127 0006 00       		.uleb128 0
 128 0007 00       		.uleb128 0
 129 0008 34       		.uleb128 .LEHB1-.LFB1129
 130 0009 05       		.uleb128 .LEHE1-.LEHB1
 131 000a 8C01     		.uleb128 .L6-.LFB1129
 132 000c 00       		.uleb128 0
 133 000d 66       		.uleb128 .LEHB2-.LFB1129
 134 000e 05       		.uleb128 .LEHE2-.LEHB2
 135 000f 6D       		.uleb128 .L7-.LFB1129
 136 0010 00       		.uleb128 0
 137 0011 AB01     		.uleb128 .LEHB3-.LFB1129
 138 0013 05       		.uleb128 .LEHE3-.LEHB3
 139 0014 00       		.uleb128 0
 140 0015 00       		.uleb128 0
 141              	.LLSDACSE1129:
 142              		.section	.text._ZN8UnitTest15MemoryOutStreamC1Ev,"axG",@progbits,_ZN8UnitTest15MemoryOutStreamC1Ev
 144              		.text
 145              		.align 2
 147              	_ZN8UnitTest12_GLOBAL__N_124MockDeferredTestReporter13ReportSummaryEiiif:
 148              	.LFB1405:
 149              		.file 3 "TestDeferredTestReporter.cpp"
   1:TestDeferredTestReporter.cpp **** #include "../UnitTest++.h"
   2:TestDeferredTestReporter.cpp **** #include "../DeferredTestReporter.h"
   3:TestDeferredTestReporter.cpp **** #include "../Config.h"
   4:TestDeferredTestReporter.cpp **** #include <cstring>
   5:TestDeferredTestReporter.cpp **** 
   6:TestDeferredTestReporter.cpp **** namespace UnitTest
   7:TestDeferredTestReporter.cpp **** {
   8:TestDeferredTestReporter.cpp **** 
   9:TestDeferredTestReporter.cpp **** namespace 
  10:TestDeferredTestReporter.cpp **** {
  11:TestDeferredTestReporter.cpp **** 
  12:TestDeferredTestReporter.cpp **** #ifdef UNITTEST_USE_CUSTOM_STREAMS
  13:TestDeferredTestReporter.cpp **** 	MemoryOutStream& operator <<(MemoryOutStream& lhs, const std::string& rhs)
  14:TestDeferredTestReporter.cpp **** 	{
  15:TestDeferredTestReporter.cpp **** 		lhs << rhs.c_str();
  16:TestDeferredTestReporter.cpp **** 		return lhs;
  17:TestDeferredTestReporter.cpp **** 	}
  18:TestDeferredTestReporter.cpp **** #endif
  19:TestDeferredTestReporter.cpp **** 
  20:TestDeferredTestReporter.cpp **** struct MockDeferredTestReporter : public DeferredTestReporter
  21:TestDeferredTestReporter.cpp **** {
  22:TestDeferredTestReporter.cpp ****     virtual void ReportSummary(int, int, int, float) 
 150              		.loc 3 22 18 is_stmt 1
 151              		.cfi_startproc
 152 0000 F30F1EFA 		endbr64
 153 0004 55       		pushq	%rbp
 154              		.cfi_def_cfa_offset 16
 155              		.cfi_offset 6, -16
 156 0005 4889E5   		movq	%rsp, %rbp
 157              		.cfi_def_cfa_register 6
 158 0008 48897DF8 		movq	%rdi, -8(%rbp)
 159 000c 8975F4   		movl	%esi, -12(%rbp)
 160 000f 8955F0   		movl	%edx, -16(%rbp)
 161 0012 894DEC   		movl	%ecx, -20(%rbp)
 162 0015 F30F1145 		movss	%xmm0, -24(%rbp)
 162      E8
  23:TestDeferredTestReporter.cpp ****     {
  24:TestDeferredTestReporter.cpp ****     }
 163              		.loc 3 24 5
 164 001a 90       		nop
 165 001b 5D       		popq	%rbp
 166              		.cfi_def_cfa 7, 8
 167 001c C3       		ret
 168              		.cfi_endproc
 169              	.LFE1405:
 171              		.section	.text._ZN8UnitTest12TestReporterC2Ev,"axG",@progbits,_ZN8UnitTest12TestReporterC5Ev,comda
 172              		.align 2
 173              		.weak	_ZN8UnitTest12TestReporterC2Ev
 175              	_ZN8UnitTest12TestReporterC2Ev:
 176              	.LFB1410:
 177              		.file 4 "../TestReporter.h"
   1:../TestReporter.h **** #ifndef UNITTEST_TESTREPORTER_H
   2:../TestReporter.h **** #define UNITTEST_TESTREPORTER_H
   3:../TestReporter.h **** 
   4:../TestReporter.h **** namespace UnitTest {
   5:../TestReporter.h **** 
   6:../TestReporter.h **** class TestDetails;
   7:../TestReporter.h **** 
   8:../TestReporter.h **** class TestReporter
 178              		.loc 4 8 7
 179              		.cfi_startproc
 180 0000 F30F1EFA 		endbr64
 181 0004 55       		pushq	%rbp
 182              		.cfi_def_cfa_offset 16
 183              		.cfi_offset 6, -16
 184 0005 4889E5   		movq	%rsp, %rbp
 185              		.cfi_def_cfa_register 6
 186 0008 48897DF8 		movq	%rdi, -8(%rbp)
 187              	.LBB4:
 188              		.loc 4 8 7
 189 000c 488D1500 		leaq	16+_ZTVN8UnitTest12TestReporterE(%rip), %rdx
 189      000000
 190 0013 488B45F8 		movq	-8(%rbp), %rax
 191 0017 488910   		movq	%rdx, (%rax)
 192              	.LBE4:
 193 001a 90       		nop
 194 001b 5D       		popq	%rbp
 195              		.cfi_def_cfa 7, 8
 196 001c C3       		ret
 197              		.cfi_endproc
 198              	.LFE1410:
 200              		.weak	_ZN8UnitTest12TestReporterC1Ev
 201              		.set	_ZN8UnitTest12TestReporterC1Ev,_ZN8UnitTest12TestReporterC2Ev
 202              		.section	.text._ZN8UnitTest20DeferredTestReporterC2Ev,"axG",@progbits,_ZN8UnitTest20DeferredTestRe
 203              		.align 2
 204              		.weak	_ZN8UnitTest20DeferredTestReporterC2Ev
 206              	_ZN8UnitTest20DeferredTestReporterC2Ev:
 207              	.LFB1412:
 208              		.file 5 "../DeferredTestReporter.h"
   1:../DeferredTestReporter.h **** #ifndef UNITTEST_DEFERREDTESTREPORTER_H
   2:../DeferredTestReporter.h **** #define UNITTEST_DEFERREDTESTREPORTER_H
   3:../DeferredTestReporter.h **** 
   4:../DeferredTestReporter.h **** #include "TestReporter.h"
   5:../DeferredTestReporter.h **** #include "DeferredTestResult.h"
   6:../DeferredTestReporter.h **** 
   7:../DeferredTestReporter.h **** #include <vector>
   8:../DeferredTestReporter.h **** 
   9:../DeferredTestReporter.h **** namespace UnitTest
  10:../DeferredTestReporter.h **** {
  11:../DeferredTestReporter.h **** 
  12:../DeferredTestReporter.h **** class DeferredTestReporter : public TestReporter
 209              		.loc 5 12 7
 210              		.cfi_startproc
 211              		.cfi_personality 0x9b,DW.ref.__gxx_personality_v0
 212              		.cfi_lsda 0x1b,.LLSDA1412
 213 0000 F30F1EFA 		endbr64
 214 0004 55       		pushq	%rbp
 215              		.cfi_def_cfa_offset 16
 216              		.cfi_offset 6, -16
 217 0005 4889E5   		movq	%rsp, %rbp
 218              		.cfi_def_cfa_register 6
 219 0008 53       		pushq	%rbx
 220 0009 4883EC18 		subq	$24, %rsp
 221              		.cfi_offset 3, -24
 222 000d 48897DE8 		movq	%rdi, -24(%rbp)
 223              	.LBB5:
 224              		.loc 5 12 7
 225 0011 488B45E8 		movq	-24(%rbp), %rax
 226 0015 4889C7   		movq	%rax, %rdi
 227 0018 E8000000 		call	_ZN8UnitTest12TestReporterC2Ev
 227      00
 228 001d 488D1500 		leaq	16+_ZTVN8UnitTest20DeferredTestReporterE(%rip), %rdx
 228      000000
 229 0024 488B45E8 		movq	-24(%rbp), %rax
 230 0028 488910   		movq	%rdx, (%rax)
 231 002b 488B45E8 		movq	-24(%rbp), %rax
 232 002f 4883C008 		addq	$8, %rax
 233 0033 4889C7   		movq	%rax, %rdi
 234              	.LEHB4:
 235 0036 E8000000 		call	_ZNSt6vectorIN8UnitTest18DeferredTestResultESaIS1_EEC1Ev
 235      00
 236              	.LEHE4:
 237              	.LBE5:
 238 003b EB1E     		jmp	.L14
 239              	.L13:
 240 003d F30F1EFA 		endbr64
 241              	.LBB6:
 242 0041 4889C3   		movq	%rax, %rbx
 243 0044 488B45E8 		movq	-24(%rbp), %rax
 244 0048 4889C7   		movq	%rax, %rdi
 245 004b E8000000 		call	_ZN8UnitTest12TestReporterD2Ev@PLT
 245      00
 246 0050 4889D8   		movq	%rbx, %rax
 247 0053 4889C7   		movq	%rax, %rdi
 248              	.LEHB5:
 249 0056 E8000000 		call	_Unwind_Resume@PLT
 249      00
 250              	.LEHE5:
 251              	.L14:
 252              	.LBE6:
 253 005b 488B5DF8 		movq	-8(%rbp), %rbx
 254 005f C9       		leave
 255              		.cfi_def_cfa 7, 8
 256 0060 C3       		ret
 257              		.cfi_endproc
 258              	.LFE1412:
 259              		.section	.gcc_except_table._ZN8UnitTest20DeferredTestReporterC2Ev,"aG",@progbits,_ZN8UnitTest20Def
 260              	.LLSDA1412:
 261 0000 FF       		.byte	0xff
 262 0001 FF       		.byte	0xff
 263 0002 01       		.byte	0x1
 264 0003 08       		.uleb128 .LLSDACSE1412-.LLSDACSB1412
 265              	.LLSDACSB1412:
 266 0004 36       		.uleb128 .LEHB4-.LFB1412
 267 0005 05       		.uleb128 .LEHE4-.LEHB4
 268 0006 3D       		.uleb128 .L13-.LFB1412
 269 0007 00       		.uleb128 0
 270 0008 56       		.uleb128 .LEHB5-.LFB1412
 271 0009 05       		.uleb128 .LEHE5-.LEHB5
 272 000a 00       		.uleb128 0
 273 000b 00       		.uleb128 0
 274              	.LLSDACSE1412:
 275              		.section	.text._ZN8UnitTest20DeferredTestReporterC2Ev,"axG",@progbits,_ZN8UnitTest20DeferredTestRe
 277              		.weak	_ZN8UnitTest20DeferredTestReporterC1Ev
 278              		.set	_ZN8UnitTest20DeferredTestReporterC1Ev,_ZN8UnitTest20DeferredTestReporterC2Ev
 279              		.section	.text._ZN8UnitTest20DeferredTestReporterD2Ev,"axG",@progbits,_ZN8UnitTest20DeferredTestRe
 280              		.align 2
 281              		.weak	_ZN8UnitTest20DeferredTestReporterD2Ev
 283              	_ZN8UnitTest20DeferredTestReporterD2Ev:
 284              	.LFB1415:
 285              		.loc 5 12 7
 286              		.cfi_startproc
 287              		.cfi_personality 0x9b,DW.ref.__gxx_personality_v0
 288              		.cfi_lsda 0x1b,.LLSDA1415
 289 0000 F30F1EFA 		endbr64
 290 0004 55       		pushq	%rbp
 291              		.cfi_def_cfa_offset 16
 292              		.cfi_offset 6, -16
 293 0005 4889E5   		movq	%rsp, %rbp
 294              		.cfi_def_cfa_register 6
 295 0008 53       		pushq	%rbx
 296 0009 4883EC18 		subq	$24, %rsp
 297              		.cfi_offset 3, -24
 298 000d 48897DE8 		movq	%rdi, -24(%rbp)
 299              	.LBB7:
 300              		.loc 5 12 7
 301 0011 488D1500 		leaq	16+_ZTVN8UnitTest20DeferredTestReporterE(%rip), %rdx
 301      000000
 302 0018 488B45E8 		movq	-24(%rbp), %rax
 303 001c 488910   		movq	%rdx, (%rax)
 304 001f 488B45E8 		movq	-24(%rbp), %rax
 305 0023 4883C008 		addq	$8, %rax
 306 0027 4889C7   		movq	%rax, %rdi
 307              	.LEHB6:
 308 002a E8000000 		call	_ZNSt6vectorIN8UnitTest18DeferredTestResultESaIS1_EED1Ev
 308      00
 309              	.LEHE6:
 310              		.loc 5 12 7 is_stmt 0 discriminator 2
 311 002f 488B45E8 		movq	-24(%rbp), %rax
 312 0033 4889C7   		movq	%rax, %rdi
 313              	.LEHB7:
 314 0036 E8000000 		call	_ZN8UnitTest12TestReporterD2Ev@PLT
 314      00
 315              	.LEHE7:
 316              	.LBE7:
 317 003b EB1E     		jmp	.L18
 318              	.L17:
 319 003d F30F1EFA 		endbr64
 320              	.LBB8:
 321              		.loc 5 12 7
 322 0041 4889C3   		movq	%rax, %rbx
 323 0044 488B45E8 		movq	-24(%rbp), %rax
 324 0048 4889C7   		movq	%rax, %rdi
 325 004b E8000000 		call	_ZN8UnitTest12TestReporterD2Ev@PLT
 325      00
 326 0050 4889D8   		movq	%rbx, %rax
 327 0053 4889C7   		movq	%rax, %rdi
 328              	.LEHB8:
 329 0056 E8000000 		call	_Unwind_Resume@PLT
 329      00
 330              	.LEHE8:
 331              	.L18:
 332              	.LBE8:
 333 005b 488B5DF8 		movq	-8(%rbp), %rbx
 334 005f C9       		leave
 335              		.cfi_def_cfa 7, 8
 336 0060 C3       		ret
 337              		.cfi_endproc
 338              	.LFE1415:
 339              		.section	.gcc_except_table._ZN8UnitTest20DeferredTestReporterD2Ev,"aG",@progbits,_ZN8UnitTest20Def
 340              	.LLSDA1415:
 341 0000 FF       		.byte	0xff
 342 0001 FF       		.byte	0xff
 343 0002 01       		.byte	0x1
 344 0003 0C       		.uleb128 .LLSDACSE1415-.LLSDACSB1415
 345              	.LLSDACSB1415:
 346 0004 2A       		.uleb128 .LEHB6-.LFB1415
 347 0005 05       		.uleb128 .LEHE6-.LEHB6
 348 0006 3D       		.uleb128 .L17-.LFB1415
 349 0007 00       		.uleb128 0
 350 0008 36       		.uleb128 .LEHB7-.LFB1415
 351 0009 05       		.uleb128 .LEHE7-.LEHB7
 352 000a 00       		.uleb128 0
 353 000b 00       		.uleb128 0
 354 000c 56       		.uleb128 .LEHB8-.LFB1415
 355 000d 05       		.uleb128 .LEHE8-.LEHB8
 356 000e 00       		.uleb128 0
 357 000f 00       		.uleb128 0
 358              	.LLSDACSE1415:
 359              		.section	.text._ZN8UnitTest20DeferredTestReporterD2Ev,"axG",@progbits,_ZN8UnitTest20DeferredTestRe
 361              		.weak	_ZN8UnitTest20DeferredTestReporterD1Ev
 362              		.set	_ZN8UnitTest20DeferredTestReporterD1Ev,_ZN8UnitTest20DeferredTestReporterD2Ev
 363              		.section	.text._ZN8UnitTest20DeferredTestReporterD0Ev,"axG",@progbits,_ZN8UnitTest20DeferredTestRe
 364              		.align 2
 365              		.weak	_ZN8UnitTest20DeferredTestReporterD0Ev
 367              	_ZN8UnitTest20DeferredTestReporterD0Ev:
 368              	.LFB1417:
 369              		.loc 5 12 7 is_stmt 1
 370              		.cfi_startproc
 371              		.cfi_personality 0x9b,DW.ref.__gxx_personality_v0
 372              		.cfi_lsda 0x1b,.LLSDA1417
 373 0000 F30F1EFA 		endbr64
 374 0004 55       		pushq	%rbp
 375              		.cfi_def_cfa_offset 16
 376              		.cfi_offset 6, -16
 377 0005 4889E5   		movq	%rsp, %rbp
 378              		.cfi_def_cfa_register 6
 379 0008 53       		pushq	%rbx
 380 0009 4883EC18 		subq	$24, %rsp
 381              		.cfi_offset 3, -24
 382 000d 48897DE8 		movq	%rdi, -24(%rbp)
 383              		.loc 5 12 7
 384 0011 488B45E8 		movq	-24(%rbp), %rax
 385 0015 4889C7   		movq	%rax, %rdi
 386              	.LEHB9:
 387 0018 E8000000 		call	_ZN8UnitTest20DeferredTestReporterD1Ev
 387      00
 388              	.LEHE9:
 389              		.loc 5 12 7 is_stmt 0 discriminator 2
 390 001d 488B45E8 		movq	-24(%rbp), %rax
 391 0021 4889C7   		movq	%rax, %rdi
 392 0024 E8000000 		call	_ZdlPv@PLT
 392      00
 393 0029 EB1E     		jmp	.L22
 394              	.L21:
 395 002b F30F1EFA 		endbr64
 396              		.loc 5 12 7
 397 002f 4889C3   		movq	%rax, %rbx
 398 0032 488B45E8 		movq	-24(%rbp), %rax
 399 0036 4889C7   		movq	%rax, %rdi
 400 0039 E8000000 		call	_ZdlPv@PLT
 400      00
 401 003e 4889D8   		movq	%rbx, %rax
 402 0041 4889C7   		movq	%rax, %rdi
 403              	.LEHB10:
 404 0044 E8000000 		call	_Unwind_Resume@PLT
 404      00
 405              	.LEHE10:
 406              	.L22:
 407 0049 488B5DF8 		movq	-8(%rbp), %rbx
 408 004d C9       		leave
 409              		.cfi_def_cfa 7, 8
 410 004e C3       		ret
 411              		.cfi_endproc
 412              	.LFE1417:
 413              		.section	.gcc_except_table._ZN8UnitTest20DeferredTestReporterD0Ev,"aG",@progbits,_ZN8UnitTest20Def
 414              	.LLSDA1417:
 415 0000 FF       		.byte	0xff
 416 0001 FF       		.byte	0xff
 417 0002 01       		.byte	0x1
 418 0003 08       		.uleb128 .LLSDACSE1417-.LLSDACSB1417
 419              	.LLSDACSB1417:
 420 0004 18       		.uleb128 .LEHB9-.LFB1417
 421 0005 05       		.uleb128 .LEHE9-.LEHB9
 422 0006 2B       		.uleb128 .L21-.LFB1417
 423 0007 00       		.uleb128 0
 424 0008 44       		.uleb128 .LEHB10-.LFB1417
 425 0009 05       		.uleb128 .LEHE10-.LEHB10
 426 000a 00       		.uleb128 0
 427 000b 00       		.uleb128 0
 428              	.LLSDACSE1417:
 429              		.section	.text._ZN8UnitTest20DeferredTestReporterD0Ev,"axG",@progbits,_ZN8UnitTest20DeferredTestRe
 431              		.text
 432 001d 90       		.align 2
 434              	_ZN8UnitTest12_GLOBAL__N_124MockDeferredTestReporterC2Ev:
 435              	.LFB1418:
  20:TestDeferredTestReporter.cpp **** {
 436              		.loc 3 20 8 is_stmt 1
 437              		.cfi_startproc
 438 001e 55       		pushq	%rbp
 439              		.cfi_def_cfa_offset 16
 440              		.cfi_offset 6, -16
 441 001f 4889E5   		movq	%rsp, %rbp
 442              		.cfi_def_cfa_register 6
 443 0022 4883EC10 		subq	$16, %rsp
 444 0026 48897DF8 		movq	%rdi, -8(%rbp)
 445              	.LBB9:
  20:TestDeferredTestReporter.cpp **** {
 446              		.loc 3 20 8
 447 002a 488B45F8 		movq	-8(%rbp), %rax
 448 002e 4889C7   		movq	%rax, %rdi
 449 0031 E8000000 		call	_ZN8UnitTest20DeferredTestReporterC2Ev
 449      00
 450 0036 488D1500 		leaq	16+_ZTVN8UnitTest12_GLOBAL__N_124MockDeferredTestReporterE(%rip), %rdx
 450      000000
 451 003d 488B45F8 		movq	-8(%rbp), %rax
 452 0041 488910   		movq	%rdx, (%rax)
 453              	.LBE9:
 454 0044 90       		nop
 455 0045 C9       		leave
 456              		.cfi_def_cfa 7, 8
 457 0046 C3       		ret
 458              		.cfi_endproc
 459              	.LFE1418:
 461              		.set	_ZN8UnitTest12_GLOBAL__N_124MockDeferredTestReporterC1Ev,_ZN8UnitTest12_GLOBAL__N_124MockDefe
 462              		.section	.rodata
 463              	.LC1:
 464 000d 556E6971 		.string	"UniqueTestName"
 464      75655465 
 464      73744E61 
 464      6D6500
 465              	.LC2:
 466 001c 556E6971 		.string	"UniqueTestSuite"
 466      75655465 
 466      73745375 
 466      69746500 
 467              	.LC3:
 468 002c 66696C65 		.string	"filename.h"
 468      6E616D65 
 468      2E6800
 469              		.text
 470 0047 90       		.align 2
 472              	_ZN8UnitTest12_GLOBAL__N_127DeferredTestReporterFixtureC2Ev:
 473              	.LFB1420:
  25:TestDeferredTestReporter.cpp **** };
  26:TestDeferredTestReporter.cpp **** 
  27:TestDeferredTestReporter.cpp **** struct DeferredTestReporterFixture
  28:TestDeferredTestReporter.cpp **** {
  29:TestDeferredTestReporter.cpp ****     DeferredTestReporterFixture()
 474              		.loc 3 29 5
 475              		.cfi_startproc
 476              		.cfi_personality 0x9b,DW.ref.__gxx_personality_v0
 477              		.cfi_lsda 0x1b,.LLSDA1420
 478 0048 55       		pushq	%rbp
 479              		.cfi_def_cfa_offset 16
 480              		.cfi_offset 6, -16
 481 0049 4889E5   		movq	%rsp, %rbp
 482              		.cfi_def_cfa_register 6
 483 004c 4156     		pushq	%r14
 484 004e 4155     		pushq	%r13
 485 0050 4154     		pushq	%r12
 486 0052 53       		pushq	%rbx
 487 0053 4883EC20 		subq	$32, %rsp
 488              		.cfi_offset 14, -24
 489              		.cfi_offset 13, -32
 490              		.cfi_offset 12, -40
 491              		.cfi_offset 3, -48
 492 0057 48897DC8 		movq	%rdi, -56(%rbp)
 493              		.loc 3 29 5
 494 005b 64488B04 		movq	%fs:40, %rax
 494      25280000 
 494      00
 495 0064 488945D8 		movq	%rax, -40(%rbp)
 496 0068 31C0     		xorl	%eax, %eax
 497              	.LBB10:
  30:TestDeferredTestReporter.cpp ****         : testName("UniqueTestName")
  31:TestDeferredTestReporter.cpp ****         , testSuite("UniqueTestSuite")
  32:TestDeferredTestReporter.cpp ****         , fileName("filename.h")
  33:TestDeferredTestReporter.cpp ****         , lineNumber(12)
  34:TestDeferredTestReporter.cpp ****         , details(testName.c_str(), testSuite.c_str(), fileName.c_str(), lineNumber)
 498              		.loc 3 34 84
 499 006a 488B45C8 		movq	-56(%rbp), %rax
 500 006e 4889C7   		movq	%rax, %rdi
 501              	.LEHB11:
 502 0071 E8A8FFFF 		call	_ZN8UnitTest12_GLOBAL__N_124MockDeferredTestReporterC1Ev
 502      FF
 503              	.LEHE11:
  30:TestDeferredTestReporter.cpp ****         : testName("UniqueTestName")
 504              		.loc 3 30 11
 505 0076 488B45C8 		movq	-56(%rbp), %rax
 506 007a 488D5820 		leaq	32(%rax), %rbx
 507 007e 488D45D7 		leaq	-41(%rbp), %rax
 508 0082 4889C7   		movq	%rax, %rdi
 509 0085 E8000000 		call	_ZNSaIcEC1Ev@PLT
 509      00
 510 008a 488D45D7 		leaq	-41(%rbp), %rax
 511 008e 4889C2   		movq	%rax, %rdx
 512 0091 488D0500 		leaq	.LC1(%rip), %rax
 512      000000
 513 0098 4889C6   		movq	%rax, %rsi
 514 009b 4889DF   		movq	%rbx, %rdi
 515              	.LEHB12:
 516 009e E8000000 		call	_ZNSt7__cxx1112basic_stringIcSt11char_traitsIcESaIcEEC1EPKcRKS3_@PLT
 516      00
 517              	.LEHE12:
  30:TestDeferredTestReporter.cpp ****         : testName("UniqueTestName")
 518              		.loc 3 30 11 is_stmt 0 discriminator 2
 519 00a3 488D45D7 		leaq	-41(%rbp), %rax
 520 00a7 4889C7   		movq	%rax, %rdi
 521 00aa E8000000 		call	_ZNSaIcED1Ev@PLT
 521      00
  31:TestDeferredTestReporter.cpp ****         , fileName("filename.h")
 522              		.loc 3 31 11 is_stmt 1 discriminator 2
 523 00af 488B45C8 		movq	-56(%rbp), %rax
 524 00b3 488D5840 		leaq	64(%rax), %rbx
 525 00b7 488D45D7 		leaq	-41(%rbp), %rax
 526 00bb 4889C7   		movq	%rax, %rdi
 527 00be E8000000 		call	_ZNSaIcEC1Ev@PLT
 527      00
 528 00c3 488D45D7 		leaq	-41(%rbp), %rax
 529 00c7 4889C2   		movq	%rax, %rdx
 530 00ca 488D0500 		leaq	.LC2(%rip), %rax
 530      000000
 531 00d1 4889C6   		movq	%rax, %rsi
 532 00d4 4889DF   		movq	%rbx, %rdi
 533              	.LEHB13:
 534 00d7 E8000000 		call	_ZNSt7__cxx1112basic_stringIcSt11char_traitsIcESaIcEEC1EPKcRKS3_@PLT
 534      00
 535              	.LEHE13:
 536 00dc 488D45D7 		leaq	-41(%rbp), %rax
 537 00e0 4889C7   		movq	%rax, %rdi
 538 00e3 E8000000 		call	_ZNSaIcED1Ev@PLT
 538      00
  32:TestDeferredTestReporter.cpp ****         , lineNumber(12)
 539              		.loc 3 32 11 discriminator 2
 540 00e8 488B45C8 		movq	-56(%rbp), %rax
 541 00ec 488D5860 		leaq	96(%rax), %rbx
 542 00f0 488D45D7 		leaq	-41(%rbp), %rax
 543 00f4 4889C7   		movq	%rax, %rdi
 544 00f7 E8000000 		call	_ZNSaIcEC1Ev@PLT
 544      00
 545 00fc 488D45D7 		leaq	-41(%rbp), %rax
 546 0100 4889C2   		movq	%rax, %rdx
 547 0103 488D0500 		leaq	.LC3(%rip), %rax
 547      000000
 548 010a 4889C6   		movq	%rax, %rsi
 549 010d 4889DF   		movq	%rbx, %rdi
 550              	.LEHB14:
 551 0110 E8000000 		call	_ZNSt7__cxx1112basic_stringIcSt11char_traitsIcESaIcEEC1EPKcRKS3_@PLT
 551      00
 552              	.LEHE14:
 553 0115 488D45D7 		leaq	-41(%rbp), %rax
 554 0119 4889C7   		movq	%rax, %rdi
 555 011c E8000000 		call	_ZNSaIcED1Ev@PLT
 555      00
  33:TestDeferredTestReporter.cpp ****         , details(testName.c_str(), testSuite.c_str(), fileName.c_str(), lineNumber)
 556              		.loc 3 33 11 discriminator 2
 557 0121 488B45C8 		movq	-56(%rbp), %rax
 558 0125 C7808000 		movl	$12, 128(%rax)
 558      00000C00 
 558      0000
 559              		.loc 3 34 11 discriminator 2
 560 012f 488B45C8 		movq	-56(%rbp), %rax
 561 0133 488D9888 		leaq	136(%rax), %rbx
 561      000000
 562              		.loc 3 34 74 discriminator 2
 563 013a 488B45C8 		movq	-56(%rbp), %rax
 564 013e 448BB080 		movl	128(%rax), %r14d
 564      000000
 565              		.loc 3 34 11 discriminator 2
 566 0145 488B45C8 		movq	-56(%rbp), %rax
 567 0149 4883C060 		addq	$96, %rax
 568 014d 4889C7   		movq	%rax, %rdi
 569              	.LEHB15:
 570 0150 E8000000 		call	_ZNKSt7__cxx1112basic_stringIcSt11char_traitsIcESaIcEE5c_strEv@PLT
 570      00
 571 0155 4989C5   		movq	%rax, %r13
 572 0158 488B45C8 		movq	-56(%rbp), %rax
 573 015c 4883C040 		addq	$64, %rax
 574 0160 4889C7   		movq	%rax, %rdi
 575 0163 E8000000 		call	_ZNKSt7__cxx1112basic_stringIcSt11char_traitsIcESaIcEE5c_strEv@PLT
 575      00
 576              		.loc 3 34 11 is_stmt 0 discriminator 1
 577 0168 4989C4   		movq	%rax, %r12
 578 016b 488B45C8 		movq	-56(%rbp), %rax
 579 016f 4883C020 		addq	$32, %rax
 580 0173 4889C7   		movq	%rax, %rdi
 581 0176 E8000000 		call	_ZNKSt7__cxx1112basic_stringIcSt11char_traitsIcESaIcEE5c_strEv@PLT
 581      00
 582              		.loc 3 34 11 discriminator 2
 583 017b 4589F0   		movl	%r14d, %r8d
 584 017e 4C89E9   		movq	%r13, %rcx
 585 0181 4C89E2   		movq	%r12, %rdx
 586 0184 4889C6   		movq	%rax, %rsi
 587 0187 4889DF   		movq	%rbx, %rdi
 588 018a E8000000 		call	_ZN8UnitTest11TestDetailsC1EPKcS2_S2_i@PLT
 588      00
 589              	.LEHE15:
 590              	.LBE10:
  35:TestDeferredTestReporter.cpp ****     {
  36:TestDeferredTestReporter.cpp ****     }
 591              		.loc 3 36 5 is_stmt 1
 592 018f E98D0000 		jmp	.L37
 592      00
 593              	.L33:
 594 0194 F30F1EFA 		endbr64
 595              	.LBB11:
  30:TestDeferredTestReporter.cpp ****         , testSuite("UniqueTestSuite")
 596              		.loc 3 30 11
 597 0198 4889C3   		movq	%rax, %rbx
 598 019b 488D45D7 		leaq	-41(%rbp), %rax
 599 019f 4889C7   		movq	%rax, %rdi
 600 01a2 E8000000 		call	_ZNSaIcED1Ev@PLT
 600      00
 601 01a7 EB61     		jmp	.L26
 602              	.L34:
 603 01a9 F30F1EFA 		endbr64
  31:TestDeferredTestReporter.cpp ****         , fileName("filename.h")
 604              		.loc 3 31 11
 605 01ad 4889C3   		movq	%rax, %rbx
 606 01b0 488D45D7 		leaq	-41(%rbp), %rax
 607 01b4 4889C7   		movq	%rax, %rdi
 608 01b7 E8000000 		call	_ZNSaIcED1Ev@PLT
 608      00
 609 01bc EB3C     		jmp	.L28
 610              	.L35:
 611 01be F30F1EFA 		endbr64
  32:TestDeferredTestReporter.cpp ****         , lineNumber(12)
 612              		.loc 3 32 11
 613 01c2 4889C3   		movq	%rax, %rbx
 614 01c5 488D45D7 		leaq	-41(%rbp), %rax
 615 01c9 4889C7   		movq	%rax, %rdi
 616 01cc E8000000 		call	_ZNSaIcED1Ev@PLT
 616      00
 617 01d1 EB17     		jmp	.L30
 618              	.L36:
 619 01d3 F30F1EFA 		endbr64
 620 01d7 4889C3   		movq	%rax, %rbx
 621 01da 488B45C8 		movq	-56(%rbp), %rax
 622 01de 4883C060 		addq	$96, %rax
 623              		.loc 3 36 5
 624 01e2 4889C7   		movq	%rax, %rdi
 625 01e5 E8000000 		call	_ZNSt7__cxx1112basic_stringIcSt11char_traitsIcESaIcEED1Ev@PLT
 625      00
 626              	.L30:
  31:TestDeferredTestReporter.cpp ****         , fileName("filename.h")
 627              		.loc 3 31 11
 628 01ea 488B45C8 		movq	-56(%rbp), %rax
 629 01ee 4883C040 		addq	$64, %rax
 630              		.loc 3 36 5
 631 01f2 4889C7   		movq	%rax, %rdi
 632 01f5 E8000000 		call	_ZNSt7__cxx1112basic_stringIcSt11char_traitsIcESaIcEED1Ev@PLT
 632      00
 633              	.L28:
  30:TestDeferredTestReporter.cpp ****         , testSuite("UniqueTestSuite")
 634              		.loc 3 30 11
 635 01fa 488B45C8 		movq	-56(%rbp), %rax
 636 01fe 4883C020 		addq	$32, %rax
 637              		.loc 3 36 5
 638 0202 4889C7   		movq	%rax, %rdi
 639 0205 E8000000 		call	_ZNSt7__cxx1112basic_stringIcSt11char_traitsIcESaIcEED1Ev@PLT
 639      00
 640              	.L26:
 641 020a 488B45C8 		movq	-56(%rbp), %rax
 642 020e 4889C7   		movq	%rax, %rdi
 643 0211 E8303700 		call	_ZN8UnitTest12_GLOBAL__N_124MockDeferredTestReporterD1Ev
 643      00
 644 0216 4889D8   		movq	%rbx, %rax
 645 0219 4889C7   		movq	%rax, %rdi
 646              	.LEHB16:
 647 021c E8000000 		call	_Unwind_Resume@PLT
 647      00
 648              	.LEHE16:
 649              	.L37:
 650              	.LBE11:
 651 0221 488B45D8 		movq	-40(%rbp), %rax
 652 0225 64482B04 		subq	%fs:40, %rax
 652      25280000 
 652      00
 653 022e 7405     		je	.L32
 654 0230 E8000000 		call	__stack_chk_fail@PLT
 654      00
 655              	.L32:
 656 0235 4883C420 		addq	$32, %rsp
 657 0239 5B       		popq	%rbx
 658 023a 415C     		popq	%r12
 659 023c 415D     		popq	%r13
 660 023e 415E     		popq	%r14
 661 0240 5D       		popq	%rbp
 662              		.cfi_def_cfa 7, 8
 663 0241 C3       		ret
 664              		.cfi_endproc
 665              	.LFE1420:
 666              		.section	.gcc_except_table,"a",@progbits
 667              	.LLSDA1420:
 668 0000 FF       		.byte	0xff
 669 0001 FF       		.byte	0xff
 670 0002 01       		.byte	0x1
 671 0003 20       		.uleb128 .LLSDACSE1420-.LLSDACSB1420
 672              	.LLSDACSB1420:
 673 0004 29       		.uleb128 .LEHB11-.LFB1420
 674 0005 05       		.uleb128 .LEHE11-.LEHB11
 675 0006 00       		.uleb128 0
 676 0007 00       		.uleb128 0
 677 0008 56       		.uleb128 .LEHB12-.LFB1420
 678 0009 05       		.uleb128 .LEHE12-.LEHB12
 679 000a CC02     		.uleb128 .L33-.LFB1420
 680 000c 00       		.uleb128 0
 681 000d 8F01     		.uleb128 .LEHB13-.LFB1420
 682 000f 05       		.uleb128 .LEHE13-.LEHB13
 683 0010 E102     		.uleb128 .L34-.LFB1420
 684 0012 00       		.uleb128 0
 685 0013 C801     		.uleb128 .LEHB14-.LFB1420
 686 0015 05       		.uleb128 .LEHE14-.LEHB14
 687 0016 F602     		.uleb128 .L35-.LFB1420
 688 0018 00       		.uleb128 0
 689 0019 8802     		.uleb128 .LEHB15-.LFB1420
 690 001b 3F       		.uleb128 .LEHE15-.LEHB15
 691 001c 8B03     		.uleb128 .L36-.LFB1420
 692 001e 00       		.uleb128 0
 693 001f D403     		.uleb128 .LEHB16-.LFB1420
 694 0021 05       		.uleb128 .LEHE16-.LEHB16
 695 0022 00       		.uleb128 0
 696 0023 00       		.uleb128 0
 697              	.LLSDACSE1420:
 698              		.text
 700              		.align 2
 702              	_ZN8UnitTest12_GLOBAL__N_127DeferredTestReporterFixtureD2Ev:
 703              	.LFB1424:
  27:TestDeferredTestReporter.cpp **** {
 704              		.loc 3 27 8
 705              		.cfi_startproc
 706              		.cfi_personality 0x9b,DW.ref.__gxx_personality_v0
 707              		.cfi_lsda 0x1b,.LLSDA1424
 708 0242 55       		pushq	%rbp
 709              		.cfi_def_cfa_offset 16
 710              		.cfi_offset 6, -16
 711 0243 4889E5   		movq	%rsp, %rbp
 712              		.cfi_def_cfa_register 6
 713 0246 53       		pushq	%rbx
 714 0247 4883EC18 		subq	$24, %rsp
 715              		.cfi_offset 3, -24
 716 024b 48897DE8 		movq	%rdi, -24(%rbp)
 717              	.LBB12:
  27:TestDeferredTestReporter.cpp **** {
 718              		.loc 3 27 8
 719 024f 488B45E8 		movq	-24(%rbp), %rax
 720 0253 4883C060 		addq	$96, %rax
 721 0257 4889C7   		movq	%rax, %rdi
 722              	.LEHB17:
 723 025a E8000000 		call	_ZNSt7__cxx1112basic_stringIcSt11char_traitsIcESaIcEED1Ev@PLT
 723      00
 724              	.LEHE17:
  27:TestDeferredTestReporter.cpp **** {
 725              		.loc 3 27 8 is_stmt 0 discriminator 2
 726 025f 488B45E8 		movq	-24(%rbp), %rax
 727 0263 4883C040 		addq	$64, %rax
 728 0267 4889C7   		movq	%rax, %rdi
 729              	.LEHB18:
 730 026a E8000000 		call	_ZNSt7__cxx1112basic_stringIcSt11char_traitsIcESaIcEED1Ev@PLT
 730      00
 731              	.LEHE18:
  27:TestDeferredTestReporter.cpp **** {
 732              		.loc 3 27 8 discriminator 4
 733 026f 488B45E8 		movq	-24(%rbp), %rax
 734 0273 4883C020 		addq	$32, %rax
 735 0277 4889C7   		movq	%rax, %rdi
 736              	.LEHB19:
 737 027a E8000000 		call	_ZNSt7__cxx1112basic_stringIcSt11char_traitsIcESaIcEED1Ev@PLT
 737      00
 738              	.LEHE19:
  27:TestDeferredTestReporter.cpp **** {
 739              		.loc 3 27 8 discriminator 6
 740 027f 488B45E8 		movq	-24(%rbp), %rax
 741 0283 4889C7   		movq	%rax, %rdi
 742              	.LEHB20:
 743 0286 E8BB3600 		call	_ZN8UnitTest12_GLOBAL__N_124MockDeferredTestReporterD1Ev
 743      00
 744              	.LEHE20:
 745              	.LBE12:
 746 028b EB50     		jmp	.L45
 747              	.L42:
 748 028d F30F1EFA 		endbr64
 749              	.LBB13:
  27:TestDeferredTestReporter.cpp **** {
 750              		.loc 3 27 8
 751 0291 4889C3   		movq	%rax, %rbx
 752 0294 488B45E8 		movq	-24(%rbp), %rax
 753 0298 4883C040 		addq	$64, %rax
 754 029c 4889C7   		movq	%rax, %rdi
 755 029f E8000000 		call	_ZNSt7__cxx1112basic_stringIcSt11char_traitsIcESaIcEED1Ev@PLT
 755      00
 756 02a4 EB07     		jmp	.L40
 757              	.L43:
 758 02a6 F30F1EFA 		endbr64
 759 02aa 4889C3   		movq	%rax, %rbx
 760              	.L40:
  27:TestDeferredTestReporter.cpp **** {
 761              		.loc 3 27 8 discriminator 3
 762 02ad 488B45E8 		movq	-24(%rbp), %rax
 763 02b1 4883C020 		addq	$32, %rax
 764 02b5 4889C7   		movq	%rax, %rdi
 765 02b8 E8000000 		call	_ZNSt7__cxx1112basic_stringIcSt11char_traitsIcESaIcEED1Ev@PLT
 765      00
 766 02bd EB07     		jmp	.L41
 767              	.L44:
 768 02bf F30F1EFA 		endbr64
  27:TestDeferredTestReporter.cpp **** {
 769              		.loc 3 27 8
 770 02c3 4889C3   		movq	%rax, %rbx
 771              	.L41:
  27:TestDeferredTestReporter.cpp **** {
 772              		.loc 3 27 8 discriminator 5
 773 02c6 488B45E8 		movq	-24(%rbp), %rax
 774 02ca 4889C7   		movq	%rax, %rdi
 775 02cd E8743600 		call	_ZN8UnitTest12_GLOBAL__N_124MockDeferredTestReporterD1Ev
 775      00
 776 02d2 4889D8   		movq	%rbx, %rax
 777 02d5 4889C7   		movq	%rax, %rdi
 778              	.LEHB21:
 779 02d8 E8000000 		call	_Unwind_Resume@PLT
 779      00
 780              	.LEHE21:
 781              	.L45:
 782              	.LBE13:
  27:TestDeferredTestReporter.cpp **** {
 783              		.loc 3 27 8
 784 02dd 488B5DF8 		movq	-8(%rbp), %rbx
 785 02e1 C9       		leave
 786              		.cfi_def_cfa 7, 8
 787 02e2 C3       		ret
 788              		.cfi_endproc
 789              	.LFE1424:
 790              		.section	.gcc_except_table
 791              	.LLSDA1424:
 792 0024 FF       		.byte	0xff
 793 0025 FF       		.byte	0xff
 794 0026 01       		.byte	0x1
 795 0027 15       		.uleb128 .LLSDACSE1424-.LLSDACSB1424
 796              	.LLSDACSB1424:
 797 0028 18       		.uleb128 .LEHB17-.LFB1424
 798 0029 05       		.uleb128 .LEHE17-.LEHB17
 799 002a 4B       		.uleb128 .L42-.LFB1424
 800 002b 00       		.uleb128 0
 801 002c 28       		.uleb128 .LEHB18-.LFB1424
 802 002d 05       		.uleb128 .LEHE18-.LEHB18
 803 002e 64       		.uleb128 .L43-.LFB1424
 804 002f 00       		.uleb128 0
 805 0030 38       		.uleb128 .LEHB19-.LFB1424
 806 0031 05       		.uleb128 .LEHE19-.LEHB19
 807 0032 7D       		.uleb128 .L44-.LFB1424
 808 0033 00       		.uleb128 0
 809 0034 44       		.uleb128 .LEHB20-.LFB1424
 810 0035 05       		.uleb128 .LEHE20-.LEHB20
 811 0036 00       		.uleb128 0
 812 0037 00       		.uleb128 0
 813 0038 9601     		.uleb128 .LEHB21-.LFB1424
 814 003a 05       		.uleb128 .LEHE21-.LEHB21
 815 003b 00       		.uleb128 0
 816 003c 00       		.uleb128 0
 817              	.LLSDACSE1424:
 818              		.text
 820 02e3 90       		.align 2
 822              	_ZN8UnitTest12_GLOBAL__N_171DeferredTestReporterFixtureReportTestStartCreatesANewDeferredTestHelper
 823              	.LFB1426:
  37:TestDeferredTestReporter.cpp **** 
  38:TestDeferredTestReporter.cpp ****     MockDeferredTestReporter reporter;
  39:TestDeferredTestReporter.cpp ****     std::string const testName;
  40:TestDeferredTestReporter.cpp ****     std::string const testSuite;
  41:TestDeferredTestReporter.cpp ****     std::string const fileName;
  42:TestDeferredTestReporter.cpp ****     int const lineNumber;
  43:TestDeferredTestReporter.cpp ****     TestDetails const details;
  44:TestDeferredTestReporter.cpp **** };
  45:TestDeferredTestReporter.cpp **** 
  46:TestDeferredTestReporter.cpp **** TEST_FIXTURE(DeferredTestReporterFixture, ReportTestStartCreatesANewDeferredTest)
 824              		.loc 3 46 1 is_stmt 1
 825              		.cfi_startproc
 826 02e4 55       		pushq	%rbp
 827              		.cfi_def_cfa_offset 16
 828              		.cfi_offset 6, -16
 829 02e5 4889E5   		movq	%rsp, %rbp
 830              		.cfi_def_cfa_register 6
 831 02e8 4883EC10 		subq	$16, %rsp
 832 02ec 48897DF8 		movq	%rdi, -8(%rbp)
 833 02f0 488975F0 		movq	%rsi, -16(%rbp)
 834              	.LBB14:
 835              		.loc 3 46 1
 836 02f4 488B45F8 		movq	-8(%rbp), %rax
 837 02f8 4889C7   		movq	%rax, %rdi
 838 02fb E848FDFF 		call	_ZN8UnitTest12_GLOBAL__N_127DeferredTestReporterFixtureC2Ev
 838      FF
 839 0300 488B45F8 		movq	-8(%rbp), %rax
 840 0304 488B55F0 		movq	-16(%rbp), %rdx
 841 0308 488990A8 		movq	%rdx, 168(%rax)
 841      000000
 842              	.LBE14:
 843 030f 90       		nop
 844 0310 C9       		leave
 845              		.cfi_def_cfa 7, 8
 846 0311 C3       		ret
 847              		.cfi_endproc
 848              	.LFE1426:
 850              		.set	_ZN8UnitTest12_GLOBAL__N_171DeferredTestReporterFixtureReportTestStartCreatesANewDeferredTest
 851              		.section	.rodata
 852              	.LC4:
 853 0037 54657374 		.string	"TestDeferredTestReporter.cpp"
 853      44656665 
 853      72726564 
 853      54657374 
 853      5265706F 
 854 0054 00000000 		.align 8
 855              	.LC5:
 856 0058 5265706F 		.string	"ReportTestStartCreatesANewDeferredTest"
 856      72745465 
 856      73745374 
 856      61727443 
 856      72656174 
 857              		.text
 858              		.align 2
 860              	_ZN8UnitTest12_GLOBAL__N_169TestDeferredTestReporterFixtureReportTestStartCreatesANewDeferredTestC2
 861              	.LFB1429:
 862              		.loc 3 46 1
 863              		.cfi_startproc
 864 0312 55       		pushq	%rbp
 865              		.cfi_def_cfa_offset 16
 866              		.cfi_offset 6, -16
 867 0313 4889E5   		movq	%rsp, %rbp
 868              		.cfi_def_cfa_register 6
 869 0316 53       		pushq	%rbx
 870 0317 4883EC18 		subq	$24, %rsp
 871              		.cfi_offset 3, -24
 872 031b 48897DE8 		movq	%rdi, -24(%rbp)
 873              	.LBB15:
 874              		.loc 3 46 1
 875 031f 488B5DE8 		movq	-24(%rbp), %rbx
 876 0323 E8000000 		call	_ZN13UnitTestSuite12GetSuiteNameEv
 876      00
 877 0328 4889C2   		movq	%rax, %rdx
 878 032b 41B82E00 		movl	$46, %r8d
 878      0000
 879 0331 488D0500 		leaq	.LC4(%rip), %rax
 879      000000
 880 0338 4889C1   		movq	%rax, %rcx
 881 033b 488D0500 		leaq	.LC5(%rip), %rax
 881      000000
 882 0342 4889C6   		movq	%rax, %rsi
 883 0345 4889DF   		movq	%rbx, %rdi
 884 0348 E8000000 		call	_ZN8UnitTest4TestC2EPKcS2_S2_i@PLT
 884      00
 885 034d 488D1500 		leaq	16+_ZTVN8UnitTest12_GLOBAL__N_169TestDeferredTestReporterFixtureReportTestStartCreatesANewDef
 885      000000
 886 0354 488B45E8 		movq	-24(%rbp), %rax
 887 0358 488910   		movq	%rdx, (%rax)
 888              	.LBE15:
 889 035b 90       		nop
 890 035c 488B5DF8 		movq	-8(%rbp), %rbx
 891 0360 C9       		leave
 892              		.cfi_def_cfa 7, 8
 893 0361 C3       		ret
 894              		.cfi_endproc
 895              	.LFE1429:
 897              		.set	_ZN8UnitTest12_GLOBAL__N_169TestDeferredTestReporterFixtureReportTestStartCreatesANewDeferred
 898              		.local	_ZN8UnitTest12_GLOBAL__N_177testDeferredTestReporterFixtureReportTestStartCreatesANewDeferr
 899              		.comm	_ZN8UnitTest12_GLOBAL__N_177testDeferredTestReporterFixtureReportTestStartCreatesANewDeferre
 900              		.local	_ZN8UnitTest12_GLOBAL__N_170adderDeferredTestReporterFixtureReportTestStartCreatesANewDefer
 901              		.comm	_ZN8UnitTest12_GLOBAL__N_170adderDeferredTestReporterFixtureReportTestStartCreatesANewDeferr
 902              		.align 2
 904              	_ZN8UnitTest12_GLOBAL__N_171DeferredTestReporterFixtureReportTestStartCreatesANewDeferredTestHelper
 905              	.LFB1433:
 906              		.loc 3 46 1
 907              		.cfi_startproc
 908 0362 55       		pushq	%rbp
 909              		.cfi_def_cfa_offset 16
 910              		.cfi_offset 6, -16
 911 0363 4889E5   		movq	%rsp, %rbp
 912              		.cfi_def_cfa_register 6
 913 0366 4883EC10 		subq	$16, %rsp
 914 036a 48897DF8 		movq	%rdi, -8(%rbp)
 915              	.LBB16:
 916              		.loc 3 46 1
 917 036e 488B45F8 		movq	-8(%rbp), %rax
 918 0372 4889C7   		movq	%rax, %rdi
 919 0375 E8C8FEFF 		call	_ZN8UnitTest12_GLOBAL__N_127DeferredTestReporterFixtureD2Ev
 919      FF
 920              	.LBE16:
 921 037a 90       		nop
 922 037b C9       		leave
 923              		.cfi_def_cfa 7, 8
 924 037c C3       		ret
 925              		.cfi_endproc
 926              	.LFE1433:
 928              		.set	_ZN8UnitTest12_GLOBAL__N_171DeferredTestReporterFixtureReportTestStartCreatesANewDeferredTest
 929              		.section	.rodata
 930              	.LC6:
 931 007f 556E6861 		.string	"Unhandled exception: "
 931      6E646C65 
 931      64206578 
 931      63657074 
 931      696F6E3A 
 932 0095 000000   		.align 8
 933              	.LC7:
 934 0098 556E6861 		.string	"Unhandled exception while destroying fixture DeferredTestReporterFixture"
 934      6E646C65 
 934      64206578 
 934      63657074 
 934      696F6E20 
 935 00e1 00000000 		.align 8
 935      000000
 936              	.LC8:
 937 00e8 556E6861 		.string	"Unhandled exception while constructing fixture DeferredTestReporterFixture"
 937      6E646C65 
 937      64206578 
 937      63657074 
 937      696F6E20 
 938              		.text
 939 037d 90       		.align 2
 941              	_ZNK8UnitTest12_GLOBAL__N_169TestDeferredTestReporterFixtureReportTestStartCreatesANewDeferredTest7
 942              	.LFB1431:
 943              		.loc 3 46 1
 944              		.cfi_startproc
 945              		.cfi_personality 0x9b,DW.ref.__gxx_personality_v0
 946              		.cfi_lsda 0x1b,.LLSDA1431
 947 037e F30F1EFA 		endbr64
 948 0382 55       		pushq	%rbp
 949              		.cfi_def_cfa_offset 16
 950              		.cfi_offset 6, -16
 951 0383 4889E5   		movq	%rsp, %rbp
 952              		.cfi_def_cfa_register 6
 953 0386 4155     		pushq	%r13
 954 0388 4154     		pushq	%r12
 955 038a 53       		pushq	%rbx
 956 038b 4881ECF8 		subq	$504, %rsp
 956      010000
 957              		.cfi_offset 13, -24
 958              		.cfi_offset 12, -32
 959              		.cfi_offset 3, -40
 960 0392 4889BDF8 		movq	%rdi, -520(%rbp)
 960      FDFFFF
 961              		.loc 3 46 1
 962 0399 64488B04 		movq	%fs:40, %rax
 962      25280000 
 962      00
 963 03a2 488945D8 		movq	%rax, -40(%rbp)
 964 03a6 31C0     		xorl	%eax, %eax
 965 03a8 C6850FFE 		movb	$0, -497(%rbp)
 965      FFFF00
 966              	.LBB17:
 967 03af 488B85F8 		movq	-520(%rbp), %rax
 967      FDFFFF
 968 03b6 488D5008 		leaq	8(%rax), %rdx
 969 03ba 488D8540 		leaq	-448(%rbp), %rax
 969      FEFFFF
 970 03c1 4889D6   		movq	%rdx, %rsi
 971 03c4 4889C7   		movq	%rax, %rdi
 972              	.LEHB22:
 973 03c7 E818FFFF 		call	_ZN8UnitTest12_GLOBAL__N_171DeferredTestReporterFixtureReportTestStartCreatesANewDeferredTest
 973      FF
 974              	.LEHE22:
 975              		.loc 3 46 1 is_stmt 0 discriminator 1
 976 03cc C6850FFE 		movb	$1, -497(%rbp)
 976      FFFF01
 977 03d3 488B85F8 		movq	-520(%rbp), %rax
 977      FDFFFF
 978 03da 488D5008 		leaq	8(%rax), %rdx
 979 03de 488D8540 		leaq	-448(%rbp), %rax
 979      FEFFFF
 980 03e5 4889D6   		movq	%rdx, %rsi
 981 03e8 4889C7   		movq	%rax, %rdi
 982              	.LEHB23:
 983 03eb E8C72000 		call	_ZN8UnitTest11ExecuteTestINS_12_GLOBAL__N_171DeferredTestReporterFixtureReportTestStartCreate
 983      00
 984              	.LEHE23:
 985              		.loc 3 46 1 discriminator 3
 986 03f0 488D8540 		leaq	-448(%rbp), %rax
 986      FEFFFF
 987 03f7 4889C7   		movq	%rax, %rdi
 988              	.LEHB24:
 989 03fa E863FFFF 		call	_ZN8UnitTest12_GLOBAL__N_171DeferredTestReporterFixtureReportTestStartCreatesANewDeferredTest
 989      FF
 990              	.LEHE24:
 991              	.LBE17:
 992              		.loc 3 46 1
 993 03ff E9840200 		jmp	.L49
 993      00
 994              	.L64:
 995 0404 F30F1EFA 		endbr64
 996              	.LBB18:
 997 0408 4989C4   		movq	%rax, %r12
 998 040b 4889D3   		movq	%rdx, %rbx
 999 040e 488D8540 		leaq	-448(%rbp), %rax
 999      FEFFFF
 1000 0415 4889C7   		movq	%rax, %rdi
 1001 0418 E845FFFF 		call	_ZN8UnitTest12_GLOBAL__N_171DeferredTestReporterFixtureReportTestStartCreatesANewDeferredTest
 1001      FF
 1002 041d 4C89E0   		movq	%r12, %rax
 1003 0420 4889DA   		movq	%rbx, %rdx
 1004 0423 EB04     		jmp	.L51
 1005              	.L63:
 1006 0425 F30F1EFA 		endbr64
 1007              	.L51:
 1008              	.LBE18:
 1009 0429 4883FA01 		cmpq	$1, %rdx
 1010 042d 740F     		je	.L52
 1011 042f 4883FA02 		cmpq	$2, %rdx
 1012 0433 0F84A700 		je	.L53
 1012      0000
 1013 0439 E94D0100 		jmp	.L69
 1013      00
 1014              	.L52:
 1015              	.LBB19:
 1016              		.loc 3 46 1 discriminator 4
 1017 043e 4889C7   		movq	%rax, %rdi
 1018 0441 E8000000 		call	__cxa_begin_catch@PLT
 1018      00
 1019 0446 48898518 		movq	%rax, -488(%rbp)
 1019      FEFFFF
 1020              	.LEHB25:
 1021 044d E8000000 		call	_ZN8UnitTest11CurrentTest7ResultsEv@PLT
 1021      00
 1022 0452 488B18   		movq	(%rax), %rbx
 1023 0455 488B8518 		movq	-488(%rbp), %rax
 1023      FEFFFF
 1024 045c 488B00   		movq	(%rax), %rax
 1025 045f 4883C010 		addq	$16, %rax
 1026 0463 488B10   		movq	(%rax), %rdx
 1027 0466 488B8518 		movq	-488(%rbp), %rax
 1027      FEFFFF
 1028 046d 4889C7   		movq	%rax, %rdi
 1029 0470 FFD2     		call	*%rdx
 1030              	.LVL0:
 1031 0472 4989C4   		movq	%rax, %r12
 1032 0475 488B8518 		movq	-488(%rbp), %rax
 1032      FEFFFF
 1033 047c 4889C7   		movq	%rax, %rdi
 1034 047f E8000000 		call	_ZNK8UnitTest15AssertException10LineNumberEv@PLT
 1034      00
 1035              		.loc 3 46 1 discriminator 8
 1036 0484 4189C5   		movl	%eax, %r13d
 1037 0487 488B8518 		movq	-488(%rbp), %rax
 1037      FEFFFF
 1038 048e 4889C7   		movq	%rax, %rdi
 1039 0491 E8000000 		call	_ZNK8UnitTest15AssertException8FilenameEv@PLT
 1039      00
 1040              		.loc 3 46 1 discriminator 10
 1041 0496 4889C1   		movq	%rax, %rcx
 1042 0499 488B85F8 		movq	-520(%rbp), %rax
 1042      FDFFFF
 1043 04a0 488B5008 		movq	8(%rax), %rdx
 1044 04a4 488B85F8 		movq	-520(%rbp), %rax
 1044      FDFFFF
 1045 04ab 488B7010 		movq	16(%rax), %rsi
 1046 04af 488D8520 		leaq	-480(%rbp), %rax
 1046      FEFFFF
 1047 04b6 4589E8   		movl	%r13d, %r8d
 1048 04b9 4889C7   		movq	%rax, %rdi
 1049 04bc E8000000 		call	_ZN8UnitTest11TestDetailsC1EPKcS2_S2_i@PLT
 1049      00
 1050              		.loc 3 46 1 discriminator 14
 1051 04c1 488D8520 		leaq	-480(%rbp), %rax
 1051      FEFFFF
 1052 04c8 4C89E2   		movq	%r12, %rdx
 1053 04cb 4889C6   		movq	%rax, %rsi
 1054 04ce 4889DF   		movq	%rbx, %rdi
 1055 04d1 E8000000 		call	_ZN8UnitTest11TestResults13OnTestFailureERKNS_11TestDetailsEPKc@PLT
 1055      00
 1056              	.LEHE25:
 1057              		.loc 3 46 1 discriminator 16
 1058 04d6 E8000000 		call	__cxa_end_catch@PLT
 1058      00
 1059              	.LBE19:
 1060 04db E9A80100 		jmp	.L49
 1060      00
 1061              	.L53:
 1062              	.LBB20:
 1063              		.loc 3 46 1 discriminator 5
 1064 04e0 4889C7   		movq	%rax, %rdi
 1065 04e3 E8000000 		call	__cxa_begin_catch@PLT
 1065      00
 1066 04e8 48898510 		movq	%rax, -496(%rbp)
 1066      FEFFFF
 1067              	.LBB21:
 1068 04ef 488D8540 		leaq	-448(%rbp), %rax
 1068      FEFFFF
 1069 04f6 4889C7   		movq	%rax, %rdi
 1070              	.LEHB26:
 1071 04f9 E8000000 		call	_ZN8UnitTest15MemoryOutStreamC1Ev
 1071      00
 1072              	.LEHE26:
 1073              		.loc 3 46 1 discriminator 18
 1074 04fe 488D8540 		leaq	-448(%rbp), %rax
 1074      FEFFFF
 1075 0505 488D1500 		leaq	.LC6(%rip), %rdx
 1075      000000
 1076 050c 4889D6   		movq	%rdx, %rsi
 1077 050f 4889C7   		movq	%rax, %rdi
 1078              	.LEHB27:
 1079 0512 E8000000 		call	_ZStlsISt11char_traitsIcEERSt13basic_ostreamIcT_ES5_PKc@PLT
 1079      00
 1080 0517 4889C3   		movq	%rax, %rbx
 1081 051a 488B8510 		movq	-496(%rbp), %rax
 1081      FEFFFF
 1082 0521 488B00   		movq	(%rax), %rax
 1083 0524 4883C010 		addq	$16, %rax
 1084 0528 488B10   		movq	(%rax), %rdx
 1085 052b 488B8510 		movq	-496(%rbp), %rax
 1085      FEFFFF
 1086 0532 4889C7   		movq	%rax, %rdi
 1087 0535 FFD2     		call	*%rdx
 1088              	.LVL1:
 1089 0537 4889C6   		movq	%rax, %rsi
 1090 053a 4889DF   		movq	%rbx, %rdi
 1091 053d E8000000 		call	_ZStlsISt11char_traitsIcEERSt13basic_ostreamIcT_ES5_PKc@PLT
 1091      00
 1092              		.loc 3 46 1 discriminator 22
 1093 0542 E8000000 		call	_ZN8UnitTest11CurrentTest7ResultsEv@PLT
 1093      00
 1094 0547 488B18   		movq	(%rax), %rbx
 1095 054a 488D8540 		leaq	-448(%rbp), %rax
 1095      FEFFFF
 1096 0551 4889C7   		movq	%rax, %rdi
 1097 0554 E8000000 		call	_ZNK8UnitTest15MemoryOutStream7GetTextEv@PLT
 1097      00
 1098              		.loc 3 46 1 discriminator 24
 1099 0559 4889C2   		movq	%rax, %rdx
 1100 055c 488B85F8 		movq	-520(%rbp), %rax
 1100      FDFFFF
 1101 0563 4883C008 		addq	$8, %rax
 1102 0567 4889C6   		movq	%rax, %rsi
 1103 056a 4889DF   		movq	%rbx, %rdi
 1104 056d E8000000 		call	_ZN8UnitTest11TestResults13OnTestFailureERKNS_11TestDetailsEPKc@PLT
 1104      00
 1105              	.LEHE27:
 1106              		.loc 3 46 1 discriminator 28
 1107 0572 488D8540 		leaq	-448(%rbp), %rax
 1107      FEFFFF
 1108 0579 4889C7   		movq	%rax, %rdi
 1109              	.LEHB28:
 1110 057c E8000000 		call	_ZN8UnitTest15MemoryOutStreamD1Ev
 1110      00
 1111              	.LEHE28:
 1112              	.LBE21:
 1113              		.loc 3 46 1 discriminator 29
 1114 0581 E8000000 		call	__cxa_end_catch@PLT
 1114      00
 1115              	.LBE20:
 1116 0586 E9FD0000 		jmp	.L49
 1116      00
 1117              	.L69:
 1118              		.loc 3 46 1 discriminator 6
 1119 058b 4889C7   		movq	%rax, %rdi
 1120 058e E8000000 		call	__cxa_begin_catch@PLT
 1120      00
 1121 0593 80BD0FFE 		cmpb	$0, -497(%rbp)
 1121      FFFF00
 1122 059a 7445     		je	.L56
 1123              	.LEHB29:
 1124              		.loc 3 46 1 discriminator 31
 1125 059c E8000000 		call	_ZN8UnitTest11CurrentTest7ResultsEv@PLT
 1125      00
 1126 05a1 488B18   		movq	(%rax), %rbx
 1127 05a4 488B85F8 		movq	-520(%rbp), %rax
 1127      FDFFFF
 1128 05ab 488D4808 		leaq	8(%rax), %rcx
 1129 05af 488D8520 		leaq	-480(%rbp), %rax
 1129      FEFFFF
 1130 05b6 BA2E0000 		movl	$46, %edx
 1130      00
 1131 05bb 4889CE   		movq	%rcx, %rsi
 1132 05be 4889C7   		movq	%rax, %rdi
 1133 05c1 E8000000 		call	_ZN8UnitTest11TestDetailsC1ERKS0_i@PLT
 1133      00
 1134              		.loc 3 46 1 discriminator 36
 1135 05c6 488D8520 		leaq	-480(%rbp), %rax
 1135      FEFFFF
 1136 05cd 488D1500 		leaq	.LC7(%rip), %rdx
 1136      000000
 1137 05d4 4889C6   		movq	%rax, %rsi
 1138 05d7 4889DF   		movq	%rbx, %rdi
 1139 05da E8000000 		call	_ZN8UnitTest11TestResults13OnTestFailureERKNS_11TestDetailsEPKc@PLT
 1139      00
 1140 05df EB43     		jmp	.L57
 1141              	.L56:
 1142              		.loc 3 46 1 discriminator 32
 1143 05e1 E8000000 		call	_ZN8UnitTest11CurrentTest7ResultsEv@PLT
 1143      00
 1144 05e6 488B18   		movq	(%rax), %rbx
 1145 05e9 488B85F8 		movq	-520(%rbp), %rax
 1145      FDFFFF
 1146 05f0 488D4808 		leaq	8(%rax), %rcx
 1147 05f4 488D8520 		leaq	-480(%rbp), %rax
 1147      FEFFFF
 1148 05fb BA2E0000 		movl	$46, %edx
 1148      00
 1149 0600 4889CE   		movq	%rcx, %rsi
 1150 0603 4889C7   		movq	%rax, %rdi
 1151 0606 E8000000 		call	_ZN8UnitTest11TestDetailsC1ERKS0_i@PLT
 1151      00
 1152              		.loc 3 46 1 discriminator 43
 1153 060b 488D8520 		leaq	-480(%rbp), %rax
 1153      FEFFFF
 1154 0612 488D1500 		leaq	.LC8(%rip), %rdx
 1154      000000
 1155 0619 4889C6   		movq	%rax, %rsi
 1156 061c 4889DF   		movq	%rbx, %rdi
 1157 061f E8000000 		call	_ZN8UnitTest11TestResults13OnTestFailureERKNS_11TestDetailsEPKc@PLT
 1157      00
 1158              	.LEHE29:
 1159              	.L57:
 1160              	.LEHB30:
 1161              		.loc 3 46 1 discriminator 46
 1162 0624 E8000000 		call	__cxa_end_catch@PLT
 1162      00
 1163 0629 EB5D     		jmp	.L49
 1164              	.L65:
 1165 062b F30F1EFA 		endbr64
 1166              	.LBB23:
 1167              		.loc 3 46 1
 1168 062f 4889C3   		movq	%rax, %rbx
 1169 0632 E8000000 		call	__cxa_end_catch@PLT
 1169      00
 1170 0637 4889D8   		movq	%rbx, %rax
 1171 063a 4889C7   		movq	%rax, %rdi
 1172 063d E8000000 		call	_Unwind_Resume@PLT
 1172      00
 1173              	.LEHE30:
 1174              	.L67:
 1175 0642 F30F1EFA 		endbr64
 1176              	.LBE23:
 1177              	.LBB24:
 1178              	.LBB22:
 1179 0646 4889C3   		movq	%rax, %rbx
 1180 0649 488D8540 		leaq	-448(%rbp), %rax
 1180      FEFFFF
 1181 0650 4889C7   		movq	%rax, %rdi
 1182 0653 E8000000 		call	_ZN8UnitTest15MemoryOutStreamD1Ev
 1182      00
 1183 0658 EB07     		jmp	.L60
 1184              	.L66:
 1185 065a F30F1EFA 		endbr64
 1186              	.LBE22:
 1187 065e 4889C3   		movq	%rax, %rbx
 1188              	.L60:
 1189 0661 E8000000 		call	__cxa_end_catch@PLT
 1189      00
 1190 0666 4889D8   		movq	%rbx, %rax
 1191 0669 4889C7   		movq	%rax, %rdi
 1192              	.LEHB31:
 1193 066c E8000000 		call	_Unwind_Resume@PLT
 1193      00
 1194              	.LEHE31:
 1195              	.L68:
 1196 0671 F30F1EFA 		endbr64
 1197              	.LBE24:
 1198 0675 4889C3   		movq	%rax, %rbx
 1199 0678 E8000000 		call	__cxa_end_catch@PLT
 1199      00
 1200 067d 4889D8   		movq	%rbx, %rax
 1201 0680 4889C7   		movq	%rax, %rdi
 1202              	.LEHB32:
 1203 0683 E8000000 		call	_Unwind_Resume@PLT
 1203      00
 1204              	.LEHE32:
 1205              	.L49:
 1206 0688 488B45D8 		movq	-40(%rbp), %rax
 1207 068c 64482B04 		subq	%fs:40, %rax
 1207      25280000 
 1207      00
 1208 0695 7405     		je	.L62
 1209 0697 E8000000 		call	__stack_chk_fail@PLT
 1209      00
 1210              	.L62:
 1211 069c 4881C4F8 		addq	$504, %rsp
 1211      010000
 1212 06a3 5B       		popq	%rbx
 1213 06a4 415C     		popq	%r12
 1214 06a6 415D     		popq	%r13
 1215 06a8 5D       		popq	%rbp
 1216              		.cfi_def_cfa 7, 8
 1217 06a9 C3       		ret
 1218              		.cfi_endproc
 1219              	.LFE1431:
 1220              		.section	.gcc_except_table
 1221 003d 000000   		.align 4
 1222              	.LLSDA1431:
 1223 0040 FF       		.byte	0xff
 1224 0041 9B       		.byte	0x9b
 1225 0042 55       		.uleb128 .LLSDATT1431-.LLSDATTD1431
 1226              	.LLSDATTD1431:
 1227 0043 01       		.byte	0x1
 1228 0044 3E       		.uleb128 .LLSDACSE1431-.LLSDACSB1431
 1229              	.LLSDACSB1431:
 1230 0045 49       		.uleb128 .LEHB22-.LFB1431
 1231 0046 05       		.uleb128 .LEHE22-.LEHB22
 1232 0047 A701     		.uleb128 .L63-.LFB1431
 1233 0049 05       		.uleb128 0x5
 1234 004a 6D       		.uleb128 .LEHB23-.LFB1431
 1235 004b 05       		.uleb128 .LEHE23-.LEHB23
 1236 004c 8601     		.uleb128 .L64-.LFB1431
 1237 004e 07       		.uleb128 0x7
 1238 004f 7C       		.uleb128 .LEHB24-.LFB1431
 1239 0050 05       		.uleb128 .LEHE24-.LEHB24
 1240 0051 A701     		.uleb128 .L63-.LFB1431
 1241 0053 05       		.uleb128 0x5
 1242 0054 CF01     		.uleb128 .LEHB25-.LFB1431
 1243 0056 8901     		.uleb128 .LEHE25-.LEHB25
 1244 0058 AD05     		.uleb128 .L65-.LFB1431
 1245 005a 00       		.uleb128 0
 1246 005b FB02     		.uleb128 .LEHB26-.LFB1431
 1247 005d 05       		.uleb128 .LEHE26-.LEHB26
 1248 005e DC05     		.uleb128 .L66-.LFB1431
 1249 0060 00       		.uleb128 0
 1250 0061 9403     		.uleb128 .LEHB27-.LFB1431
 1251 0063 60       		.uleb128 .LEHE27-.LEHB27
 1252 0064 C405     		.uleb128 .L67-.LFB1431
 1253 0066 00       		.uleb128 0
 1254 0067 FE03     		.uleb128 .LEHB28-.LFB1431
 1255 0069 05       		.uleb128 .LEHE28-.LEHB28
 1256 006a DC05     		.uleb128 .L66-.LFB1431
 1257 006c 00       		.uleb128 0
 1258 006d 9E04     		.uleb128 .LEHB29-.LFB1431
 1259 006f 8801     		.uleb128 .LEHE29-.LEHB29
 1260 0071 F305     		.uleb128 .L68-.LFB1431
 1261 0073 00       		.uleb128 0
 1262 0074 A605     		.uleb128 .LEHB30-.LFB1431
 1263 0076 1E       		.uleb128 .LEHE30-.LEHB30
 1264 0077 00       		.uleb128 0
 1265 0078 00       		.uleb128 0
 1266 0079 EE05     		.uleb128 .LEHB31-.LFB1431
 1267 007b 05       		.uleb128 .LEHE31-.LEHB31
 1268 007c 00       		.uleb128 0
 1269 007d 00       		.uleb128 0
 1270 007e 8506     		.uleb128 .LEHB32-.LFB1431
 1271 0080 05       		.uleb128 .LEHE32-.LEHB32
 1272 0081 00       		.uleb128 0
 1273 0082 00       		.uleb128 0
 1274              	.LLSDACSE1431:
 1275 0083 03       		.byte	0x3
 1276 0084 00       		.byte	0
 1277 0085 02       		.byte	0x2
 1278 0086 7D       		.byte	0x7d
 1279 0087 01       		.byte	0x1
 1280 0088 7D       		.byte	0x7d
 1281 0089 00       		.byte	0
 1282 008a 7D       		.byte	0x7d
 1283 008b 00       		.align 4
 1284 008c 00000000 		.long	0
 1285              	
 1286 0090 00000000 		.long	DW.ref._ZTISt9exception-.
 1287 0094 00000000 		.long	DW.ref._ZTIN8UnitTest15AssertExceptionE-.
 1288              	.LLSDATT1431:
 1289              		.text
 1291              		.section	.rodata
 1292 0133 00000000 		.align 8
 1292      00
 1293              	.LC9:
 1294 0138 556E6861 		.string	"Unhandled exception in CHECK_EQUAL(1, (int)reporter.GetResults().size())"
 1294      6E646C65 
 1294      64206578 
 1294      63657074 
 1294      696F6E20 
 1295              		.text
 1296              		.align 2
 1298              	_ZN8UnitTest12_GLOBAL__N_171DeferredTestReporterFixtureReportTestStartCreatesANewDeferredTestHelper
 1299              	.LFB1435:
  47:TestDeferredTestReporter.cpp **** {
 1300              		.loc 3 47 1 is_stmt 1
 1301              		.cfi_startproc
 1302              		.cfi_personality 0x9b,DW.ref.__gxx_personality_v0
 1303              		.cfi_lsda 0x1b,.LLSDA1435
 1304 06aa F30F1EFA 		endbr64
 1305 06ae 55       		pushq	%rbp
 1306              		.cfi_def_cfa_offset 16
 1307              		.cfi_offset 6, -16
 1308 06af 4889E5   		movq	%rsp, %rbp
 1309              		.cfi_def_cfa_register 6
 1310 06b2 53       		pushq	%rbx
 1311 06b3 4883EC58 		subq	$88, %rsp
 1312              		.cfi_offset 3, -24
 1313 06b7 48897DA8 		movq	%rdi, -88(%rbp)
 1314              		.loc 3 47 1
 1315 06bb 64488B04 		movq	%fs:40, %rax
 1315      25280000 
 1315      00
 1316 06c4 488945E8 		movq	%rax, -24(%rbp)
 1317 06c8 31C0     		xorl	%eax, %eax
  48:TestDeferredTestReporter.cpp ****     reporter.ReportTestStart(details);
 1318              		.loc 3 48 29
 1319 06ca 488B45A8 		movq	-88(%rbp), %rax
 1320              		.loc 3 48 30
 1321 06ce 488B55A8 		movq	-88(%rbp), %rdx
 1322 06d2 4881C288 		addq	$136, %rdx
 1322      000000
 1323              		.loc 3 48 29
 1324 06d9 4889D6   		movq	%rdx, %rsi
 1325 06dc 4889C7   		movq	%rax, %rdi
 1326              	.LEHB33:
 1327 06df E8000000 		call	_ZN8UnitTest20DeferredTestReporter15ReportTestStartERKNS_11TestDetailsE@PLT
 1327      00
 1328              	.LEHE33:
 1329              	.LEHB34:
  49:TestDeferredTestReporter.cpp ****     CHECK_EQUAL(1, (int)reporter.GetResults().size());
 1330              		.loc 3 49 5
 1331 06e4 E8000000 		call	_ZN8UnitTest11CurrentTest7DetailsEv@PLT
 1331      00
 1332 06e9 488B08   		movq	(%rax), %rcx
 1333 06ec 488D45C0 		leaq	-64(%rbp), %rax
 1334 06f0 BA310000 		movl	$49, %edx
 1334      00
 1335 06f5 4889CE   		movq	%rcx, %rsi
 1336 06f8 4889C7   		movq	%rax, %rdi
 1337 06fb E8000000 		call	_ZN8UnitTest11TestDetailsC1ERKS0_i@PLT
 1337      00
 1338              		.loc 3 49 5 is_stmt 0 discriminator 4
 1339 0700 488B45A8 		movq	-88(%rbp), %rax
 1340 0704 4889C7   		movq	%rax, %rdi
 1341 0707 E8000000 		call	_ZN8UnitTest20DeferredTestReporter10GetResultsEv@PLT
 1341      00
 1342 070c 4889C7   		movq	%rax, %rdi
 1343 070f E8000000 		call	_ZNKSt6vectorIN8UnitTest18DeferredTestResultESaIS1_EE4sizeEv
 1343      00
 1344 0714 8945BC   		movl	%eax, -68(%rbp)
 1345 0717 C745B801 		movl	$1, -72(%rbp)
 1345      000000
 1346 071e E8000000 		call	_ZN8UnitTest11CurrentTest7ResultsEv@PLT
 1346      00
 1347              		.loc 3 49 5 discriminator 6
 1348 0723 488B00   		movq	(%rax), %rax
 1349 0726 488D4DC0 		leaq	-64(%rbp), %rcx
 1350 072a 488D55BC 		leaq	-68(%rbp), %rdx
 1351 072e 488D75B8 		leaq	-72(%rbp), %rsi
 1352 0732 4889C7   		movq	%rax, %rdi
 1353 0735 E8000000 		call	_ZN8UnitTest10CheckEqualIiiEEvRNS_11TestResultsERKT_RKT0_RKNS_11TestDetailsE
 1353      00
 1354              	.LEHE34:
  50:TestDeferredTestReporter.cpp **** }
 1355              		.loc 3 50 1 is_stmt 1
 1356 073a EB64     		jmp	.L70
 1357              	.L75:
 1358 073c F30F1EFA 		endbr64
  49:TestDeferredTestReporter.cpp ****     CHECK_EQUAL(1, (int)reporter.GetResults().size());
 1359              		.loc 3 49 5
 1360 0740 4889C7   		movq	%rax, %rdi
 1361 0743 E8000000 		call	__cxa_begin_catch@PLT
 1361      00
 1362              	.LEHB35:
 1363 0748 E8000000 		call	_ZN8UnitTest11CurrentTest7ResultsEv@PLT
 1363      00
  49:TestDeferredTestReporter.cpp ****     CHECK_EQUAL(1, (int)reporter.GetResults().size());
 1364              		.loc 3 49 5 is_stmt 0 discriminator 3
 1365 074d 488B18   		movq	(%rax), %rbx
 1366 0750 E8000000 		call	_ZN8UnitTest11CurrentTest7DetailsEv@PLT
 1366      00
  49:TestDeferredTestReporter.cpp ****     CHECK_EQUAL(1, (int)reporter.GetResults().size());
 1367              		.loc 3 49 5 discriminator 13
 1368 0755 488B08   		movq	(%rax), %rcx
 1369 0758 488D45C0 		leaq	-64(%rbp), %rax
 1370 075c BA310000 		movl	$49, %edx
 1370      00
 1371 0761 4889CE   		movq	%rcx, %rsi
 1372 0764 4889C7   		movq	%rax, %rdi
 1373 0767 E8000000 		call	_ZN8UnitTest11TestDetailsC1ERKS0_i@PLT
 1373      00
  49:TestDeferredTestReporter.cpp ****     CHECK_EQUAL(1, (int)reporter.GetResults().size());
 1374              		.loc 3 49 5 discriminator 17
 1375 076c 488D45C0 		leaq	-64(%rbp), %rax
 1376 0770 488D1500 		leaq	.LC9(%rip), %rdx
 1376      000000
 1377 0777 4889C6   		movq	%rax, %rsi
 1378 077a 4889DF   		movq	%rbx, %rdi
 1379 077d E8000000 		call	_ZN8UnitTest11TestResults13OnTestFailureERKNS_11TestDetailsEPKc@PLT
 1379      00
 1380              	.LEHE35:
 1381              	.LEHB36:
  49:TestDeferredTestReporter.cpp ****     CHECK_EQUAL(1, (int)reporter.GetResults().size());
 1382              		.loc 3 49 5 discriminator 19
 1383 0782 E8000000 		call	__cxa_end_catch@PLT
 1383      00
 1384              	.LEHE36:
 1385              		.loc 3 50 1 is_stmt 1 discriminator 19
 1386 0787 EB17     		jmp	.L70
 1387              	.L76:
 1388 0789 F30F1EFA 		endbr64
  49:TestDeferredTestReporter.cpp ****     CHECK_EQUAL(1, (int)reporter.GetResults().size());
 1389              		.loc 3 49 5
 1390 078d 4889C3   		movq	%rax, %rbx
 1391 0790 E8000000 		call	__cxa_end_catch@PLT
 1391      00
 1392 0795 4889D8   		movq	%rbx, %rax
 1393 0798 4889C7   		movq	%rax, %rdi
 1394              	.LEHB37:
 1395 079b E8000000 		call	_Unwind_Resume@PLT
 1395      00
 1396              	.LEHE37:
 1397              	.L70:
 1398              		.loc 3 50 1
 1399 07a0 488B45E8 		movq	-24(%rbp), %rax
 1400 07a4 64482B04 		subq	%fs:40, %rax
 1400      25280000 
 1400      00
 1401 07ad 7405     		je	.L74
 1402 07af E8000000 		call	__stack_chk_fail@PLT
 1402      00
 1403              	.L74:
 1404 07b4 488B5DF8 		movq	-8(%rbp), %rbx
 1405 07b8 C9       		leave
 1406              		.cfi_def_cfa 7, 8
 1407 07b9 C3       		ret
 1408              		.cfi_endproc
 1409              	.LFE1435:
 1410              		.section	.gcc_except_table
 1411              		.align 4
 1412              	.LLSDA1435:
 1413 0098 FF       		.byte	0xff
 1414 0099 9B       		.byte	0x9b
 1415 009a 21       		.uleb128 .LLSDATT1435-.LLSDATTD1435
 1416              	.LLSDATTD1435:
 1417 009b 01       		.byte	0x1
 1418 009c 19       		.uleb128 .LLSDACSE1435-.LLSDACSB1435
 1419              	.LLSDACSB1435:
 1420 009d 35       		.uleb128 .LEHB33-.LFB1435
 1421 009e 05       		.uleb128 .LEHE33-.LEHB33
 1422 009f 00       		.uleb128 0
 1423 00a0 00       		.uleb128 0
 1424 00a1 3A       		.uleb128 .LEHB34-.LFB1435
 1425 00a2 56       		.uleb128 .LEHE34-.LEHB34
 1426 00a3 9201     		.uleb128 .L75-.LFB1435
 1427 00a5 01       		.uleb128 0x1
 1428 00a6 9E01     		.uleb128 .LEHB35-.LFB1435
 1429 00a8 3A       		.uleb128 .LEHE35-.LEHB35
 1430 00a9 DF01     		.uleb128 .L76-.LFB1435
 1431 00ab 00       		.uleb128 0
 1432 00ac D801     		.uleb128 .LEHB36-.LFB1435
 1433 00ae 05       		.uleb128 .LEHE36-.LEHB36
 1434 00af 00       		.uleb128 0
 1435 00b0 00       		.uleb128 0
 1436 00b1 F101     		.uleb128 .LEHB37-.LFB1435
 1437 00b3 05       		.uleb128 .LEHE37-.LEHB37
 1438 00b4 00       		.uleb128 0
 1439 00b5 00       		.uleb128 0
 1440              	.LLSDACSE1435:
 1441 00b6 01       		.byte	0x1
 1442 00b7 00       		.byte	0
 1443              		.align 4
 1444 00b8 00000000 		.long	0
 1445              	
 1446              	.LLSDATT1435:
 1447              		.text
 1449              		.align 2
 1451              	_ZN8UnitTest12_GLOBAL__N_172DeferredTestReporterFixtureReportTestStartCapturesTestNameAndSuiteHelpe
 1452              	.LFB1437:
  51:TestDeferredTestReporter.cpp **** 
  52:TestDeferredTestReporter.cpp **** TEST_FIXTURE(DeferredTestReporterFixture, ReportTestStartCapturesTestNameAndSuite)
 1453              		.loc 3 52 1
 1454              		.cfi_startproc
 1455 07ba 55       		pushq	%rbp
 1456              		.cfi_def_cfa_offset 16
 1457              		.cfi_offset 6, -16
 1458 07bb 4889E5   		movq	%rsp, %rbp
 1459              		.cfi_def_cfa_register 6
 1460 07be 4883EC10 		subq	$16, %rsp
 1461 07c2 48897DF8 		movq	%rdi, -8(%rbp)
 1462 07c6 488975F0 		movq	%rsi, -16(%rbp)
 1463              	.LBB25:
 1464              		.loc 3 52 1
 1465 07ca 488B45F8 		movq	-8(%rbp), %rax
 1466 07ce 4889C7   		movq	%rax, %rdi
 1467 07d1 E872F8FF 		call	_ZN8UnitTest12_GLOBAL__N_127DeferredTestReporterFixtureC2Ev
 1467      FF
 1468 07d6 488B45F8 		movq	-8(%rbp), %rax
 1469 07da 488B55F0 		movq	-16(%rbp), %rdx
 1470 07de 488990A8 		movq	%rdx, 168(%rax)
 1470      000000
 1471              	.LBE25:
 1472 07e5 90       		nop
 1473 07e6 C9       		leave
 1474              		.cfi_def_cfa 7, 8
 1475 07e7 C3       		ret
 1476              		.cfi_endproc
 1477              	.LFE1437:
 1479              		.set	_ZN8UnitTest12_GLOBAL__N_172DeferredTestReporterFixtureReportTestStartCapturesTestNameAndSuit
 1480              		.section	.rodata
 1481 0181 00000000 		.align 8
 1481      000000
 1482              	.LC10:
 1483 0188 5265706F 		.string	"ReportTestStartCapturesTestNameAndSuite"
 1483      72745465 
 1483      73745374 
 1483      61727443 
 1483      61707475 
 1484              		.text
 1485              		.align 2
 1487              	_ZN8UnitTest12_GLOBAL__N_170TestDeferredTestReporterFixtureReportTestStartCapturesTestNameAndSuiteC
 1488              	.LFB1440:
 1489              		.loc 3 52 1
 1490              		.cfi_startproc
 1491 07e8 55       		pushq	%rbp
 1492              		.cfi_def_cfa_offset 16
 1493              		.cfi_offset 6, -16
 1494 07e9 4889E5   		movq	%rsp, %rbp
 1495              		.cfi_def_cfa_register 6
 1496 07ec 53       		pushq	%rbx
 1497 07ed 4883EC18 		subq	$24, %rsp
 1498              		.cfi_offset 3, -24
 1499 07f1 48897DE8 		movq	%rdi, -24(%rbp)
 1500              	.LBB26:
 1501              		.loc 3 52 1
 1502 07f5 488B5DE8 		movq	-24(%rbp), %rbx
 1503 07f9 E8000000 		call	_ZN13UnitTestSuite12GetSuiteNameEv
 1503      00
 1504 07fe 4889C2   		movq	%rax, %rdx
 1505 0801 41B83400 		movl	$52, %r8d
 1505      0000
 1506 0807 488D0500 		leaq	.LC4(%rip), %rax
 1506      000000
 1507 080e 4889C1   		movq	%rax, %rcx
 1508 0811 488D0500 		leaq	.LC10(%rip), %rax
 1508      000000
 1509 0818 4889C6   		movq	%rax, %rsi
 1510 081b 4889DF   		movq	%rbx, %rdi
 1511 081e E8000000 		call	_ZN8UnitTest4TestC2EPKcS2_S2_i@PLT
 1511      00
 1512 0823 488D1500 		leaq	16+_ZTVN8UnitTest12_GLOBAL__N_170TestDeferredTestReporterFixtureReportTestStartCapturesTestNa
 1512      000000
 1513 082a 488B45E8 		movq	-24(%rbp), %rax
 1514 082e 488910   		movq	%rdx, (%rax)
 1515              	.LBE26:
 1516 0831 90       		nop
 1517 0832 488B5DF8 		movq	-8(%rbp), %rbx
 1518 0836 C9       		leave
 1519              		.cfi_def_cfa 7, 8
 1520 0837 C3       		ret
 1521              		.cfi_endproc
 1522              	.LFE1440:
 1524              		.set	_ZN8UnitTest12_GLOBAL__N_170TestDeferredTestReporterFixtureReportTestStartCapturesTestNameAnd
 1525              		.local	_ZN8UnitTest12_GLOBAL__N_178testDeferredTestReporterFixtureReportTestStartCapturesTestNameA
 1526              		.comm	_ZN8UnitTest12_GLOBAL__N_178testDeferredTestReporterFixtureReportTestStartCapturesTestNameAn
 1527              		.local	_ZN8UnitTest12_GLOBAL__N_171adderDeferredTestReporterFixtureReportTestStartCapturesTestName
 1528              		.comm	_ZN8UnitTest12_GLOBAL__N_171adderDeferredTestReporterFixtureReportTestStartCapturesTestNameA
 1529              		.align 2
 1531              	_ZN8UnitTest12_GLOBAL__N_172DeferredTestReporterFixtureReportTestStartCapturesTestNameAndSuiteHelpe
 1532              	.LFB1444:
 1533              		.loc 3 52 1
 1534              		.cfi_startproc
 1535 0838 55       		pushq	%rbp
 1536              		.cfi_def_cfa_offset 16
 1537              		.cfi_offset 6, -16
 1538 0839 4889E5   		movq	%rsp, %rbp
 1539              		.cfi_def_cfa_register 6
 1540 083c 4883EC10 		subq	$16, %rsp
 1541 0840 48897DF8 		movq	%rdi, -8(%rbp)
 1542              	.LBB27:
 1543              		.loc 3 52 1
 1544 0844 488B45F8 		movq	-8(%rbp), %rax
 1545 0848 4889C7   		movq	%rax, %rdi
 1546 084b E8F2F9FF 		call	_ZN8UnitTest12_GLOBAL__N_127DeferredTestReporterFixtureD2Ev
 1546      FF
 1547              	.LBE27:
 1548 0850 90       		nop
 1549 0851 C9       		leave
 1550              		.cfi_def_cfa 7, 8
 1551 0852 C3       		ret
 1552              		.cfi_endproc
 1553              	.LFE1444:
 1555              		.set	_ZN8UnitTest12_GLOBAL__N_172DeferredTestReporterFixtureReportTestStartCapturesTestNameAndSuit
 1556 0853 90       		.align 2
 1558              	_ZNK8UnitTest12_GLOBAL__N_170TestDeferredTestReporterFixtureReportTestStartCapturesTestNameAndSuite
 1559              	.LFB1442:
 1560              		.loc 3 52 1
 1561              		.cfi_startproc
 1562              		.cfi_personality 0x9b,DW.ref.__gxx_personality_v0
 1563              		.cfi_lsda 0x1b,.LLSDA1442
 1564 0854 F30F1EFA 		endbr64
 1565 0858 55       		pushq	%rbp
 1566              		.cfi_def_cfa_offset 16
 1567              		.cfi_offset 6, -16
 1568 0859 4889E5   		movq	%rsp, %rbp
 1569              		.cfi_def_cfa_register 6
 1570 085c 4155     		pushq	%r13
 1571 085e 4154     		pushq	%r12
 1572 0860 53       		pushq	%rbx
 1573 0861 4881ECF8 		subq	$504, %rsp
 1573      010000
 1574              		.cfi_offset 13, -24
 1575              		.cfi_offset 12, -32
 1576              		.cfi_offset 3, -40
 1577 0868 4889BDF8 		movq	%rdi, -520(%rbp)
 1577      FDFFFF
 1578              		.loc 3 52 1
 1579 086f 64488B04 		movq	%fs:40, %rax
 1579      25280000 
 1579      00
 1580 0878 488945D8 		movq	%rax, -40(%rbp)
 1581 087c 31C0     		xorl	%eax, %eax
 1582 087e C6850FFE 		movb	$0, -497(%rbp)
 1582      FFFF00
 1583              	.LBB28:
 1584 0885 488B85F8 		movq	-520(%rbp), %rax
 1584      FDFFFF
 1585 088c 488D5008 		leaq	8(%rax), %rdx
 1586 0890 488D8540 		leaq	-448(%rbp), %rax
 1586      FEFFFF
 1587 0897 4889D6   		movq	%rdx, %rsi
 1588 089a 4889C7   		movq	%rax, %rdi
 1589              	.LEHB38:
 1590 089d E818FFFF 		call	_ZN8UnitTest12_GLOBAL__N_172DeferredTestReporterFixtureReportTestStartCapturesTestNameAndSuit
 1590      FF
 1591              	.LEHE38:
 1592              		.loc 3 52 1 is_stmt 0 discriminator 1
 1593 08a2 C6850FFE 		movb	$1, -497(%rbp)
 1593      FFFF01
 1594 08a9 488B85F8 		movq	-520(%rbp), %rax
 1594      FDFFFF
 1595 08b0 488D5008 		leaq	8(%rax), %rdx
 1596 08b4 488D8540 		leaq	-448(%rbp), %rax
 1596      FEFFFF
 1597 08bb 4889D6   		movq	%rdx, %rsi
 1598 08be 4889C7   		movq	%rax, %rdi
 1599              	.LEHB39:
 1600 08c1 E8E01E00 		call	_ZN8UnitTest11ExecuteTestINS_12_GLOBAL__N_172DeferredTestReporterFixtureReportTestStartCaptur
 1600      00
 1601              	.LEHE39:
 1602              		.loc 3 52 1 discriminator 3
 1603 08c6 488D8540 		leaq	-448(%rbp), %rax
 1603      FEFFFF
 1604 08cd 4889C7   		movq	%rax, %rdi
 1605              	.LEHB40:
 1606 08d0 E863FFFF 		call	_ZN8UnitTest12_GLOBAL__N_172DeferredTestReporterFixtureReportTestStartCapturesTestNameAndSuit
 1606      FF
 1607              	.LEHE40:
 1608              	.LBE28:
 1609              		.loc 3 52 1
 1610 08d5 E9840200 		jmp	.L80
 1610      00
 1611              	.L95:
 1612 08da F30F1EFA 		endbr64
 1613              	.LBB29:
 1614 08de 4989C4   		movq	%rax, %r12
 1615 08e1 4889D3   		movq	%rdx, %rbx
 1616 08e4 488D8540 		leaq	-448(%rbp), %rax
 1616      FEFFFF
 1617 08eb 4889C7   		movq	%rax, %rdi
 1618 08ee E845FFFF 		call	_ZN8UnitTest12_GLOBAL__N_172DeferredTestReporterFixtureReportTestStartCapturesTestNameAndSuit
 1618      FF
 1619 08f3 4C89E0   		movq	%r12, %rax
 1620 08f6 4889DA   		movq	%rbx, %rdx
 1621 08f9 EB04     		jmp	.L82
 1622              	.L94:
 1623 08fb F30F1EFA 		endbr64
 1624              	.L82:
 1625              	.LBE29:
 1626 08ff 4883FA01 		cmpq	$1, %rdx
 1627 0903 740F     		je	.L83
 1628 0905 4883FA02 		cmpq	$2, %rdx
 1629 0909 0F84A700 		je	.L84
 1629      0000
 1630 090f E94D0100 		jmp	.L100
 1630      00
 1631              	.L83:
 1632              	.LBB30:
 1633              		.loc 3 52 1 discriminator 4
 1634 0914 4889C7   		movq	%rax, %rdi
 1635 0917 E8000000 		call	__cxa_begin_catch@PLT
 1635      00
 1636 091c 48898518 		movq	%rax, -488(%rbp)
 1636      FEFFFF
 1637              	.LEHB41:
 1638 0923 E8000000 		call	_ZN8UnitTest11CurrentTest7ResultsEv@PLT
 1638      00
 1639 0928 488B18   		movq	(%rax), %rbx
 1640 092b 488B8518 		movq	-488(%rbp), %rax
 1640      FEFFFF
 1641 0932 488B00   		movq	(%rax), %rax
 1642 0935 4883C010 		addq	$16, %rax
 1643 0939 488B10   		movq	(%rax), %rdx
 1644 093c 488B8518 		movq	-488(%rbp), %rax
 1644      FEFFFF
 1645 0943 4889C7   		movq	%rax, %rdi
 1646 0946 FFD2     		call	*%rdx
 1647              	.LVL2:
 1648 0948 4989C4   		movq	%rax, %r12
 1649 094b 488B8518 		movq	-488(%rbp), %rax
 1649      FEFFFF
 1650 0952 4889C7   		movq	%rax, %rdi
 1651 0955 E8000000 		call	_ZNK8UnitTest15AssertException10LineNumberEv@PLT
 1651      00
 1652              		.loc 3 52 1 discriminator 8
 1653 095a 4189C5   		movl	%eax, %r13d
 1654 095d 488B8518 		movq	-488(%rbp), %rax
 1654      FEFFFF
 1655 0964 4889C7   		movq	%rax, %rdi
 1656 0967 E8000000 		call	_ZNK8UnitTest15AssertException8FilenameEv@PLT
 1656      00
 1657              		.loc 3 52 1 discriminator 10
 1658 096c 4889C1   		movq	%rax, %rcx
 1659 096f 488B85F8 		movq	-520(%rbp), %rax
 1659      FDFFFF
 1660 0976 488B5008 		movq	8(%rax), %rdx
 1661 097a 488B85F8 		movq	-520(%rbp), %rax
 1661      FDFFFF
 1662 0981 488B7010 		movq	16(%rax), %rsi
 1663 0985 488D8520 		leaq	-480(%rbp), %rax
 1663      FEFFFF
 1664 098c 4589E8   		movl	%r13d, %r8d
 1665 098f 4889C7   		movq	%rax, %rdi
 1666 0992 E8000000 		call	_ZN8UnitTest11TestDetailsC1EPKcS2_S2_i@PLT
 1666      00
 1667              		.loc 3 52 1 discriminator 14
 1668 0997 488D8520 		leaq	-480(%rbp), %rax
 1668      FEFFFF
 1669 099e 4C89E2   		movq	%r12, %rdx
 1670 09a1 4889C6   		movq	%rax, %rsi
 1671 09a4 4889DF   		movq	%rbx, %rdi
 1672 09a7 E8000000 		call	_ZN8UnitTest11TestResults13OnTestFailureERKNS_11TestDetailsEPKc@PLT
 1672      00
 1673              	.LEHE41:
 1674              		.loc 3 52 1 discriminator 16
 1675 09ac E8000000 		call	__cxa_end_catch@PLT
 1675      00
 1676              	.LBE30:
 1677 09b1 E9A80100 		jmp	.L80
 1677      00
 1678              	.L84:
 1679              	.LBB31:
 1680              		.loc 3 52 1 discriminator 5
 1681 09b6 4889C7   		movq	%rax, %rdi
 1682 09b9 E8000000 		call	__cxa_begin_catch@PLT
 1682      00
 1683 09be 48898510 		movq	%rax, -496(%rbp)
 1683      FEFFFF
 1684              	.LBB32:
 1685 09c5 488D8540 		leaq	-448(%rbp), %rax
 1685      FEFFFF
 1686 09cc 4889C7   		movq	%rax, %rdi
 1687              	.LEHB42:
 1688 09cf E8000000 		call	_ZN8UnitTest15MemoryOutStreamC1Ev
 1688      00
 1689              	.LEHE42:
 1690              		.loc 3 52 1 discriminator 18
 1691 09d4 488D8540 		leaq	-448(%rbp), %rax
 1691      FEFFFF
 1692 09db 488D1500 		leaq	.LC6(%rip), %rdx
 1692      000000
 1693 09e2 4889D6   		movq	%rdx, %rsi
 1694 09e5 4889C7   		movq	%rax, %rdi
 1695              	.LEHB43:
 1696 09e8 E8000000 		call	_ZStlsISt11char_traitsIcEERSt13basic_ostreamIcT_ES5_PKc@PLT
 1696      00
 1697 09ed 4889C3   		movq	%rax, %rbx
 1698 09f0 488B8510 		movq	-496(%rbp), %rax
 1698      FEFFFF
 1699 09f7 488B00   		movq	(%rax), %rax
 1700 09fa 4883C010 		addq	$16, %rax
 1701 09fe 488B10   		movq	(%rax), %rdx
 1702 0a01 488B8510 		movq	-496(%rbp), %rax
 1702      FEFFFF
 1703 0a08 4889C7   		movq	%rax, %rdi
 1704 0a0b FFD2     		call	*%rdx
 1705              	.LVL3:
 1706 0a0d 4889C6   		movq	%rax, %rsi
 1707 0a10 4889DF   		movq	%rbx, %rdi
 1708 0a13 E8000000 		call	_ZStlsISt11char_traitsIcEERSt13basic_ostreamIcT_ES5_PKc@PLT
 1708      00
 1709              		.loc 3 52 1 discriminator 22
 1710 0a18 E8000000 		call	_ZN8UnitTest11CurrentTest7ResultsEv@PLT
 1710      00
 1711 0a1d 488B18   		movq	(%rax), %rbx
 1712 0a20 488D8540 		leaq	-448(%rbp), %rax
 1712      FEFFFF
 1713 0a27 4889C7   		movq	%rax, %rdi
 1714 0a2a E8000000 		call	_ZNK8UnitTest15MemoryOutStream7GetTextEv@PLT
 1714      00
 1715              		.loc 3 52 1 discriminator 24
 1716 0a2f 4889C2   		movq	%rax, %rdx
 1717 0a32 488B85F8 		movq	-520(%rbp), %rax
 1717      FDFFFF
 1718 0a39 4883C008 		addq	$8, %rax
 1719 0a3d 4889C6   		movq	%rax, %rsi
 1720 0a40 4889DF   		movq	%rbx, %rdi
 1721 0a43 E8000000 		call	_ZN8UnitTest11TestResults13OnTestFailureERKNS_11TestDetailsEPKc@PLT
 1721      00
 1722              	.LEHE43:
 1723              		.loc 3 52 1 discriminator 28
 1724 0a48 488D8540 		leaq	-448(%rbp), %rax
 1724      FEFFFF
 1725 0a4f 4889C7   		movq	%rax, %rdi
 1726              	.LEHB44:
 1727 0a52 E8000000 		call	_ZN8UnitTest15MemoryOutStreamD1Ev
 1727      00
 1728              	.LEHE44:
 1729              	.LBE32:
 1730              		.loc 3 52 1 discriminator 29
 1731 0a57 E8000000 		call	__cxa_end_catch@PLT
 1731      00
 1732              	.LBE31:
 1733 0a5c E9FD0000 		jmp	.L80
 1733      00
 1734              	.L100:
 1735              		.loc 3 52 1 discriminator 6
 1736 0a61 4889C7   		movq	%rax, %rdi
 1737 0a64 E8000000 		call	__cxa_begin_catch@PLT
 1737      00
 1738 0a69 80BD0FFE 		cmpb	$0, -497(%rbp)
 1738      FFFF00
 1739 0a70 7445     		je	.L87
 1740              	.LEHB45:
 1741              		.loc 3 52 1 discriminator 31
 1742 0a72 E8000000 		call	_ZN8UnitTest11CurrentTest7ResultsEv@PLT
 1742      00
 1743 0a77 488B18   		movq	(%rax), %rbx
 1744 0a7a 488B85F8 		movq	-520(%rbp), %rax
 1744      FDFFFF
 1745 0a81 488D4808 		leaq	8(%rax), %rcx
 1746 0a85 488D8520 		leaq	-480(%rbp), %rax
 1746      FEFFFF
 1747 0a8c BA340000 		movl	$52, %edx
 1747      00
 1748 0a91 4889CE   		movq	%rcx, %rsi
 1749 0a94 4889C7   		movq	%rax, %rdi
 1750 0a97 E8000000 		call	_ZN8UnitTest11TestDetailsC1ERKS0_i@PLT
 1750      00
 1751              		.loc 3 52 1 discriminator 36
 1752 0a9c 488D8520 		leaq	-480(%rbp), %rax
 1752      FEFFFF
 1753 0aa3 488D1500 		leaq	.LC7(%rip), %rdx
 1753      000000
 1754 0aaa 4889C6   		movq	%rax, %rsi
 1755 0aad 4889DF   		movq	%rbx, %rdi
 1756 0ab0 E8000000 		call	_ZN8UnitTest11TestResults13OnTestFailureERKNS_11TestDetailsEPKc@PLT
 1756      00
 1757 0ab5 EB43     		jmp	.L88
 1758              	.L87:
 1759              		.loc 3 52 1 discriminator 32
 1760 0ab7 E8000000 		call	_ZN8UnitTest11CurrentTest7ResultsEv@PLT
 1760      00
 1761 0abc 488B18   		movq	(%rax), %rbx
 1762 0abf 488B85F8 		movq	-520(%rbp), %rax
 1762      FDFFFF
 1763 0ac6 488D4808 		leaq	8(%rax), %rcx
 1764 0aca 488D8520 		leaq	-480(%rbp), %rax
 1764      FEFFFF
 1765 0ad1 BA340000 		movl	$52, %edx
 1765      00
 1766 0ad6 4889CE   		movq	%rcx, %rsi
 1767 0ad9 4889C7   		movq	%rax, %rdi
 1768 0adc E8000000 		call	_ZN8UnitTest11TestDetailsC1ERKS0_i@PLT
 1768      00
 1769              		.loc 3 52 1 discriminator 43
 1770 0ae1 488D8520 		leaq	-480(%rbp), %rax
 1770      FEFFFF
 1771 0ae8 488D1500 		leaq	.LC8(%rip), %rdx
 1771      000000
 1772 0aef 4889C6   		movq	%rax, %rsi
 1773 0af2 4889DF   		movq	%rbx, %rdi
 1774 0af5 E8000000 		call	_ZN8UnitTest11TestResults13OnTestFailureERKNS_11TestDetailsEPKc@PLT
 1774      00
 1775              	.LEHE45:
 1776              	.L88:
 1777              	.LEHB46:
 1778              		.loc 3 52 1 discriminator 46
 1779 0afa E8000000 		call	__cxa_end_catch@PLT
 1779      00
 1780 0aff EB5D     		jmp	.L80
 1781              	.L96:
 1782 0b01 F30F1EFA 		endbr64
 1783              	.LBB34:
 1784              		.loc 3 52 1
 1785 0b05 4889C3   		movq	%rax, %rbx
 1786 0b08 E8000000 		call	__cxa_end_catch@PLT
 1786      00
 1787 0b0d 4889D8   		movq	%rbx, %rax
 1788 0b10 4889C7   		movq	%rax, %rdi
 1789 0b13 E8000000 		call	_Unwind_Resume@PLT
 1789      00
 1790              	.LEHE46:
 1791              	.L98:
 1792 0b18 F30F1EFA 		endbr64
 1793              	.LBE34:
 1794              	.LBB35:
 1795              	.LBB33:
 1796 0b1c 4889C3   		movq	%rax, %rbx
 1797 0b1f 488D8540 		leaq	-448(%rbp), %rax
 1797      FEFFFF
 1798 0b26 4889C7   		movq	%rax, %rdi
 1799 0b29 E8000000 		call	_ZN8UnitTest15MemoryOutStreamD1Ev
 1799      00
 1800 0b2e EB07     		jmp	.L91
 1801              	.L97:
 1802 0b30 F30F1EFA 		endbr64
 1803              	.LBE33:
 1804 0b34 4889C3   		movq	%rax, %rbx
 1805              	.L91:
 1806 0b37 E8000000 		call	__cxa_end_catch@PLT
 1806      00
 1807 0b3c 4889D8   		movq	%rbx, %rax
 1808 0b3f 4889C7   		movq	%rax, %rdi
 1809              	.LEHB47:
 1810 0b42 E8000000 		call	_Unwind_Resume@PLT
 1810      00
 1811              	.LEHE47:
 1812              	.L99:
 1813 0b47 F30F1EFA 		endbr64
 1814              	.LBE35:
 1815 0b4b 4889C3   		movq	%rax, %rbx
 1816 0b4e E8000000 		call	__cxa_end_catch@PLT
 1816      00
 1817 0b53 4889D8   		movq	%rbx, %rax
 1818 0b56 4889C7   		movq	%rax, %rdi
 1819              	.LEHB48:
 1820 0b59 E8000000 		call	_Unwind_Resume@PLT
 1820      00
 1821              	.LEHE48:
 1822              	.L80:
 1823 0b5e 488B45D8 		movq	-40(%rbp), %rax
 1824 0b62 64482B04 		subq	%fs:40, %rax
 1824      25280000 
 1824      00
 1825 0b6b 7405     		je	.L93
 1826 0b6d E8000000 		call	__stack_chk_fail@PLT
 1826      00
 1827              	.L93:
 1828 0b72 4881C4F8 		addq	$504, %rsp
 1828      010000
 1829 0b79 5B       		popq	%rbx
 1830 0b7a 415C     		popq	%r12
 1831 0b7c 415D     		popq	%r13
 1832 0b7e 5D       		popq	%rbp
 1833              		.cfi_def_cfa 7, 8
 1834 0b7f C3       		ret
 1835              		.cfi_endproc
 1836              	.LFE1442:
 1837              		.section	.gcc_except_table
 1838              		.align 4
 1839              	.LLSDA1442:
 1840 00bc FF       		.byte	0xff
 1841 00bd 9B       		.byte	0x9b
 1842 00be 55       		.uleb128 .LLSDATT1442-.LLSDATTD1442
 1843              	.LLSDATTD1442:
 1844 00bf 01       		.byte	0x1
 1845 00c0 3E       		.uleb128 .LLSDACSE1442-.LLSDACSB1442
 1846              	.LLSDACSB1442:
 1847 00c1 49       		.uleb128 .LEHB38-.LFB1442
 1848 00c2 05       		.uleb128 .LEHE38-.LEHB38
 1849 00c3 A701     		.uleb128 .L94-.LFB1442
 1850 00c5 05       		.uleb128 0x5
 1851 00c6 6D       		.uleb128 .LEHB39-.LFB1442
 1852 00c7 05       		.uleb128 .LEHE39-.LEHB39
 1853 00c8 8601     		.uleb128 .L95-.LFB1442
 1854 00ca 07       		.uleb128 0x7
 1855 00cb 7C       		.uleb128 .LEHB40-.LFB1442
 1856 00cc 05       		.uleb128 .LEHE40-.LEHB40
 1857 00cd A701     		.uleb128 .L94-.LFB1442
 1858 00cf 05       		.uleb128 0x5
 1859 00d0 CF01     		.uleb128 .LEHB41-.LFB1442
 1860 00d2 8901     		.uleb128 .LEHE41-.LEHB41
 1861 00d4 AD05     		.uleb128 .L96-.LFB1442
 1862 00d6 00       		.uleb128 0
 1863 00d7 FB02     		.uleb128 .LEHB42-.LFB1442
 1864 00d9 05       		.uleb128 .LEHE42-.LEHB42
 1865 00da DC05     		.uleb128 .L97-.LFB1442
 1866 00dc 00       		.uleb128 0
 1867 00dd 9403     		.uleb128 .LEHB43-.LFB1442
 1868 00df 60       		.uleb128 .LEHE43-.LEHB43
 1869 00e0 C405     		.uleb128 .L98-.LFB1442
 1870 00e2 00       		.uleb128 0
 1871 00e3 FE03     		.uleb128 .LEHB44-.LFB1442
 1872 00e5 05       		.uleb128 .LEHE44-.LEHB44
 1873 00e6 DC05     		.uleb128 .L97-.LFB1442
 1874 00e8 00       		.uleb128 0
 1875 00e9 9E04     		.uleb128 .LEHB45-.LFB1442
 1876 00eb 8801     		.uleb128 .LEHE45-.LEHB45
 1877 00ed F305     		.uleb128 .L99-.LFB1442
 1878 00ef 00       		.uleb128 0
 1879 00f0 A605     		.uleb128 .LEHB46-.LFB1442
 1880 00f2 1E       		.uleb128 .LEHE46-.LEHB46
 1881 00f3 00       		.uleb128 0
 1882 00f4 00       		.uleb128 0
 1883 00f5 EE05     		.uleb128 .LEHB47-.LFB1442
 1884 00f7 05       		.uleb128 .LEHE47-.LEHB47
 1885 00f8 00       		.uleb128 0
 1886 00f9 00       		.uleb128 0
 1887 00fa 8506     		.uleb128 .LEHB48-.LFB1442
 1888 00fc 05       		.uleb128 .LEHE48-.LEHB48
 1889 00fd 00       		.uleb128 0
 1890 00fe 00       		.uleb128 0
 1891              	.LLSDACSE1442:
 1892 00ff 03       		.byte	0x3
 1893 0100 00       		.byte	0
 1894 0101 02       		.byte	0x2
 1895 0102 7D       		.byte	0x7d
 1896 0103 01       		.byte	0x1
 1897 0104 7D       		.byte	0x7d
 1898 0105 00       		.byte	0
 1899 0106 7D       		.byte	0x7d
 1900 0107 00       		.align 4
 1901 0108 00000000 		.long	0
 1902              	
 1903 010c 00000000 		.long	DW.ref._ZTISt9exception-.
 1904 0110 00000000 		.long	DW.ref._ZTIN8UnitTest15AssertExceptionE-.
 1905              	.LLSDATT1442:
 1906              		.text
 1908              		.section	.rodata
 1909              		.align 8
 1910              	.LC11:
 1911 01b0 556E6861 		.string	"Unhandled exception in CHECK_EQUAL(testName.c_str(), result.testName)"
 1911      6E646C65 
 1911      64206578 
 1911      63657074 
 1911      696F6E20 
 1912 01f6 0000     		.align 8
 1913              	.LC12:
 1914 01f8 556E6861 		.string	"Unhandled exception in CHECK_EQUAL(testSuite.c_str(), result.suiteName)"
 1914      6E646C65 
 1914      64206578 
 1914      63657074 
 1914      696F6E20 
 1915              		.text
 1916              		.align 2
 1918              	_ZN8UnitTest12_GLOBAL__N_172DeferredTestReporterFixtureReportTestStartCapturesTestNameAndSuiteHelpe
 1919              	.LFB1446:
  53:TestDeferredTestReporter.cpp **** {
 1920              		.loc 3 53 1 is_stmt 1
 1921              		.cfi_startproc
 1922              		.cfi_personality 0x9b,DW.ref.__gxx_personality_v0
 1923              		.cfi_lsda 0x1b,.LLSDA1446
 1924 0b80 F30F1EFA 		endbr64
 1925 0b84 55       		pushq	%rbp
 1926              		.cfi_def_cfa_offset 16
 1927              		.cfi_offset 6, -16
 1928 0b85 4889E5   		movq	%rsp, %rbp
 1929              		.cfi_def_cfa_register 6
 1930 0b88 53       		pushq	%rbx
 1931 0b89 4883EC58 		subq	$88, %rsp
 1932              		.cfi_offset 3, -24
 1933 0b8d 48897DA8 		movq	%rdi, -88(%rbp)
 1934              		.loc 3 53 1
 1935 0b91 64488B04 		movq	%fs:40, %rax
 1935      25280000 
 1935      00
 1936 0b9a 488945E8 		movq	%rax, -24(%rbp)
 1937 0b9e 31C0     		xorl	%eax, %eax
  54:TestDeferredTestReporter.cpp ****     reporter.ReportTestStart(details);
 1938              		.loc 3 54 29
 1939 0ba0 488B45A8 		movq	-88(%rbp), %rax
 1940              		.loc 3 54 30
 1941 0ba4 488B55A8 		movq	-88(%rbp), %rdx
 1942 0ba8 4881C288 		addq	$136, %rdx
 1942      000000
 1943              		.loc 3 54 29
 1944 0baf 4889D6   		movq	%rdx, %rsi
 1945 0bb2 4889C7   		movq	%rax, %rdi
 1946              	.LEHB49:
 1947 0bb5 E8000000 		call	_ZN8UnitTest20DeferredTestReporter15ReportTestStartERKNS_11TestDetailsE@PLT
 1947      00
  55:TestDeferredTestReporter.cpp **** 
  56:TestDeferredTestReporter.cpp ****     DeferredTestResult const& result = reporter.GetResults().at(0);
 1948              		.loc 3 56 59
 1949 0bba 488B45A8 		movq	-88(%rbp), %rax
 1950 0bbe 4889C7   		movq	%rax, %rdi
 1951 0bc1 E8000000 		call	_ZN8UnitTest20DeferredTestReporter10GetResultsEv@PLT
 1951      00
 1952              		.loc 3 56 64
 1953 0bc6 BE000000 		movl	$0, %esi
 1953      00
 1954 0bcb 4889C7   		movq	%rax, %rdi
 1955 0bce E8000000 		call	_ZNSt6vectorIN8UnitTest18DeferredTestResultESaIS1_EE2atEm
 1955      00
 1956              	.LEHE49:
 1957 0bd3 488945B8 		movq	%rax, -72(%rbp)
 1958              	.LEHB50:
  57:TestDeferredTestReporter.cpp ****     CHECK_EQUAL(testName.c_str(), result.testName);
 1959              		.loc 3 57 5
 1960 0bd7 E8000000 		call	_ZN8UnitTest11CurrentTest7DetailsEv@PLT
 1960      00
 1961 0bdc 488B08   		movq	(%rax), %rcx
 1962 0bdf 488D45C0 		leaq	-64(%rbp), %rax
 1963 0be3 BA390000 		movl	$57, %edx
 1963      00
 1964 0be8 4889CE   		movq	%rcx, %rsi
 1965 0beb 4889C7   		movq	%rax, %rdi
 1966 0bee E8000000 		call	_ZN8UnitTest11TestDetailsC1ERKS0_i@PLT
 1966      00
 1967              		.loc 3 57 5 is_stmt 0 discriminator 4
 1968 0bf3 488B45B8 		movq	-72(%rbp), %rax
 1969 0bf7 488D5820 		leaq	32(%rax), %rbx
 1970 0bfb 488B45A8 		movq	-88(%rbp), %rax
 1971 0bff 4883C020 		addq	$32, %rax
 1972 0c03 4889C7   		movq	%rax, %rdi
 1973 0c06 E8000000 		call	_ZNKSt7__cxx1112basic_stringIcSt11char_traitsIcESaIcEE5c_strEv@PLT
 1973      00
 1974 0c0b 488945B0 		movq	%rax, -80(%rbp)
 1975 0c0f E8000000 		call	_ZN8UnitTest11CurrentTest7ResultsEv@PLT
 1975      00
 1976              		.loc 3 57 5 discriminator 6
 1977 0c14 488B00   		movq	(%rax), %rax
 1978 0c17 488D55C0 		leaq	-64(%rbp), %rdx
 1979 0c1b 488D75B0 		leaq	-80(%rbp), %rsi
 1980 0c1f 4889D1   		movq	%rdx, %rcx
 1981 0c22 4889DA   		movq	%rbx, %rdx
 1982 0c25 4889C7   		movq	%rax, %rdi
 1983 0c28 E8000000 		call	_ZN8UnitTest10CheckEqualIPKcNSt7__cxx1112basic_stringIcSt11char_traitsIcESaIcEEEEEvRNS_11Test
 1983      00
 1984              	.LEHE50:
 1985              	.L103:
 1986              	.LEHB51:
  58:TestDeferredTestReporter.cpp ****     CHECK_EQUAL(testSuite.c_str(), result.suiteName);
 1987              		.loc 3 58 5 is_stmt 1
 1988 0c2d E8000000 		call	_ZN8UnitTest11CurrentTest7DetailsEv@PLT
 1988      00
 1989 0c32 488B08   		movq	(%rax), %rcx
 1990 0c35 488D45C0 		leaq	-64(%rbp), %rax
 1991 0c39 BA3A0000 		movl	$58, %edx
 1991      00
 1992 0c3e 4889CE   		movq	%rcx, %rsi
 1993 0c41 4889C7   		movq	%rax, %rdi
 1994 0c44 E8000000 		call	_ZN8UnitTest11TestDetailsC1ERKS0_i@PLT
 1994      00
 1995              		.loc 3 58 5 is_stmt 0 discriminator 4
 1996 0c49 488B5DB8 		movq	-72(%rbp), %rbx
 1997 0c4d 488B45A8 		movq	-88(%rbp), %rax
 1998 0c51 4883C040 		addq	$64, %rax
 1999 0c55 4889C7   		movq	%rax, %rdi
 2000 0c58 E8000000 		call	_ZNKSt7__cxx1112basic_stringIcSt11char_traitsIcESaIcEE5c_strEv@PLT
 2000      00
 2001 0c5d 488945B0 		movq	%rax, -80(%rbp)
 2002 0c61 E8000000 		call	_ZN8UnitTest11CurrentTest7ResultsEv@PLT
 2002      00
 2003              		.loc 3 58 5 discriminator 6
 2004 0c66 488B00   		movq	(%rax), %rax
 2005 0c69 488D55C0 		leaq	-64(%rbp), %rdx
 2006 0c6d 488D75B0 		leaq	-80(%rbp), %rsi
 2007 0c71 4889D1   		movq	%rdx, %rcx
 2008 0c74 4889DA   		movq	%rbx, %rdx
 2009 0c77 4889C7   		movq	%rax, %rdi
 2010 0c7a E8000000 		call	_ZN8UnitTest10CheckEqualIPKcNSt7__cxx1112basic_stringIcSt11char_traitsIcESaIcEEEEEvRNS_11Test
 2010      00
 2011              	.LEHE51:
  59:TestDeferredTestReporter.cpp **** }
 2012              		.loc 3 59 1 is_stmt 1
 2013 0c7f E9CB0000 		jmp	.L101
 2013      00
 2014              	.L109:
 2015 0c84 F30F1EFA 		endbr64
  57:TestDeferredTestReporter.cpp ****     CHECK_EQUAL(testName.c_str(), result.testName);
 2016              		.loc 3 57 5
 2017 0c88 4889C7   		movq	%rax, %rdi
 2018 0c8b E8000000 		call	__cxa_begin_catch@PLT
 2018      00
 2019              	.LEHB52:
 2020 0c90 E8000000 		call	_ZN8UnitTest11CurrentTest7ResultsEv@PLT
 2020      00
  57:TestDeferredTestReporter.cpp ****     CHECK_EQUAL(testName.c_str(), result.testName);
 2021              		.loc 3 57 5 is_stmt 0 discriminator 3
 2022 0c95 488B18   		movq	(%rax), %rbx
 2023 0c98 E8000000 		call	_ZN8UnitTest11CurrentTest7DetailsEv@PLT
 2023      00
  57:TestDeferredTestReporter.cpp ****     CHECK_EQUAL(testName.c_str(), result.testName);
 2024              		.loc 3 57 5 discriminator 13
 2025 0c9d 488B08   		movq	(%rax), %rcx
 2026 0ca0 488D45C0 		leaq	-64(%rbp), %rax
 2027 0ca4 BA390000 		movl	$57, %edx
 2027      00
 2028 0ca9 4889CE   		movq	%rcx, %rsi
 2029 0cac 4889C7   		movq	%rax, %rdi
 2030 0caf E8000000 		call	_ZN8UnitTest11TestDetailsC1ERKS0_i@PLT
 2030      00
  57:TestDeferredTestReporter.cpp ****     CHECK_EQUAL(testName.c_str(), result.testName);
 2031              		.loc 3 57 5 discriminator 17
 2032 0cb4 488D45C0 		leaq	-64(%rbp), %rax
 2033 0cb8 488D1500 		leaq	.LC11(%rip), %rdx
 2033      000000
 2034 0cbf 4889C6   		movq	%rax, %rsi
 2035 0cc2 4889DF   		movq	%rbx, %rdi
 2036 0cc5 E8000000 		call	_ZN8UnitTest11TestResults13OnTestFailureERKNS_11TestDetailsEPKc@PLT
 2036      00
 2037              	.LEHE52:
 2038              	.LEHB53:
  57:TestDeferredTestReporter.cpp ****     CHECK_EQUAL(testName.c_str(), result.testName);
 2039              		.loc 3 57 5 discriminator 19
 2040 0cca E8000000 		call	__cxa_end_catch@PLT
 2040      00
 2041              	.LEHE53:
 2042 0ccf E959FFFF 		jmp	.L103
 2042      FF
 2043              	.L110:
 2044 0cd4 F30F1EFA 		endbr64
  57:TestDeferredTestReporter.cpp ****     CHECK_EQUAL(testName.c_str(), result.testName);
 2045              		.loc 3 57 5
 2046 0cd8 4889C3   		movq	%rax, %rbx
 2047 0cdb E8000000 		call	__cxa_end_catch@PLT
 2047      00
 2048 0ce0 4889D8   		movq	%rbx, %rax
 2049 0ce3 4889C7   		movq	%rax, %rdi
 2050              	.LEHB54:
 2051 0ce6 E8000000 		call	_Unwind_Resume@PLT
 2051      00
 2052              	.LEHE54:
 2053              	.L111:
 2054 0ceb F30F1EFA 		endbr64
  58:TestDeferredTestReporter.cpp ****     CHECK_EQUAL(testSuite.c_str(), result.suiteName);
 2055              		.loc 3 58 5 is_stmt 1
 2056 0cef 4889C7   		movq	%rax, %rdi
 2057 0cf2 E8000000 		call	__cxa_begin_catch@PLT
 2057      00
 2058              	.LEHB55:
 2059 0cf7 E8000000 		call	_ZN8UnitTest11CurrentTest7ResultsEv@PLT
 2059      00
  58:TestDeferredTestReporter.cpp ****     CHECK_EQUAL(testSuite.c_str(), result.suiteName);
 2060              		.loc 3 58 5 is_stmt 0 discriminator 3
 2061 0cfc 488B18   		movq	(%rax), %rbx
 2062 0cff E8000000 		call	_ZN8UnitTest11CurrentTest7DetailsEv@PLT
 2062      00
  58:TestDeferredTestReporter.cpp ****     CHECK_EQUAL(testSuite.c_str(), result.suiteName);
 2063              		.loc 3 58 5 discriminator 13
 2064 0d04 488B08   		movq	(%rax), %rcx
 2065 0d07 488D45C0 		leaq	-64(%rbp), %rax
 2066 0d0b BA3A0000 		movl	$58, %edx
 2066      00
 2067 0d10 4889CE   		movq	%rcx, %rsi
 2068 0d13 4889C7   		movq	%rax, %rdi
 2069 0d16 E8000000 		call	_ZN8UnitTest11TestDetailsC1ERKS0_i@PLT
 2069      00
  58:TestDeferredTestReporter.cpp ****     CHECK_EQUAL(testSuite.c_str(), result.suiteName);
 2070              		.loc 3 58 5 discriminator 17
 2071 0d1b 488D45C0 		leaq	-64(%rbp), %rax
 2072 0d1f 488D1500 		leaq	.LC12(%rip), %rdx
 2072      000000
 2073 0d26 4889C6   		movq	%rax, %rsi
 2074 0d29 4889DF   		movq	%rbx, %rdi
 2075 0d2c E8000000 		call	_ZN8UnitTest11TestResults13OnTestFailureERKNS_11TestDetailsEPKc@PLT
 2075      00
 2076              	.LEHE55:
 2077              	.LEHB56:
  58:TestDeferredTestReporter.cpp ****     CHECK_EQUAL(testSuite.c_str(), result.suiteName);
 2078              		.loc 3 58 5 discriminator 19
 2079 0d31 E8000000 		call	__cxa_end_catch@PLT
 2079      00
 2080              	.LEHE56:
 2081              		.loc 3 59 1 is_stmt 1 discriminator 19
 2082 0d36 EB17     		jmp	.L101
 2083              	.L112:
 2084 0d38 F30F1EFA 		endbr64
  58:TestDeferredTestReporter.cpp ****     CHECK_EQUAL(testSuite.c_str(), result.suiteName);
 2085              		.loc 3 58 5
 2086 0d3c 4889C3   		movq	%rax, %rbx
 2087 0d3f E8000000 		call	__cxa_end_catch@PLT
 2087      00
 2088 0d44 4889D8   		movq	%rbx, %rax
 2089 0d47 4889C7   		movq	%rax, %rdi
 2090              	.LEHB57:
 2091 0d4a E8000000 		call	_Unwind_Resume@PLT
 2091      00
 2092              	.LEHE57:
 2093              	.L101:
 2094              		.loc 3 59 1
 2095 0d4f 488B45E8 		movq	-24(%rbp), %rax
 2096 0d53 64482B04 		subq	%fs:40, %rax
 2096      25280000 
 2096      00
 2097 0d5c 7405     		je	.L108
 2098 0d5e E8000000 		call	__stack_chk_fail@PLT
 2098      00
 2099              	.L108:
 2100 0d63 488B5DF8 		movq	-8(%rbp), %rbx
 2101 0d67 C9       		leave
 2102              		.cfi_def_cfa 7, 8
 2103 0d68 C3       		ret
 2104              		.cfi_endproc
 2105              	.LFE1446:
 2106              		.section	.gcc_except_table
 2107              		.align 4
 2108              	.LLSDA1446:
 2109 0114 FF       		.byte	0xff
 2110 0115 9B       		.byte	0x9b
 2111 0116 39       		.uleb128 .LLSDATT1446-.LLSDATTD1446
 2112              	.LLSDATTD1446:
 2113 0117 01       		.byte	0x1
 2114 0118 2F       		.uleb128 .LLSDACSE1446-.LLSDACSB1446
 2115              	.LLSDACSB1446:
 2116 0119 35       		.uleb128 .LEHB49-.LFB1446
 2117 011a 1E       		.uleb128 .LEHE49-.LEHB49
 2118 011b 00       		.uleb128 0
 2119 011c 00       		.uleb128 0
 2120 011d 57       		.uleb128 .LEHB50-.LFB1446
 2121 011e 56       		.uleb128 .LEHE50-.LEHB50
 2122 011f 8402     		.uleb128 .L109-.LFB1446
 2123 0121 01       		.uleb128 0x1
 2124 0122 AD01     		.uleb128 .LEHB51-.LFB1446
 2125 0124 52       		.uleb128 .LEHE51-.LEHB51
 2126 0125 EB02     		.uleb128 .L111-.LFB1446
 2127 0127 01       		.uleb128 0x1
 2128 0128 9002     		.uleb128 .LEHB52-.LFB1446
 2129 012a 3A       		.uleb128 .LEHE52-.LEHB52
 2130 012b D402     		.uleb128 .L110-.LFB1446
 2131 012d 00       		.uleb128 0
 2132 012e CA02     		.uleb128 .LEHB53-.LFB1446
 2133 0130 05       		.uleb128 .LEHE53-.LEHB53
 2134 0131 00       		.uleb128 0
 2135 0132 00       		.uleb128 0
 2136 0133 E602     		.uleb128 .LEHB54-.LFB1446
 2137 0135 05       		.uleb128 .LEHE54-.LEHB54
 2138 0136 00       		.uleb128 0
 2139 0137 00       		.uleb128 0
 2140 0138 F702     		.uleb128 .LEHB55-.LFB1446
 2141 013a 3A       		.uleb128 .LEHE55-.LEHB55
 2142 013b B803     		.uleb128 .L112-.LFB1446
 2143 013d 00       		.uleb128 0
 2144 013e B103     		.uleb128 .LEHB56-.LFB1446
 2145 0140 05       		.uleb128 .LEHE56-.LEHB56
 2146 0141 00       		.uleb128 0
 2147 0142 00       		.uleb128 0
 2148 0143 CA03     		.uleb128 .LEHB57-.LFB1446
 2149 0145 05       		.uleb128 .LEHE57-.LEHB57
 2150 0146 00       		.uleb128 0
 2151 0147 00       		.uleb128 0
 2152              	.LLSDACSE1446:
 2153 0148 01       		.byte	0x1
 2154 0149 00       		.byte	0
 2155 014a 0000     		.align 4
 2156 014c 00000000 		.long	0
 2157              	
 2158              	.LLSDATT1446:
 2159              		.text
 2161 0d69 90       		.align 2
 2163              	_ZN8UnitTest12_GLOBAL__N_162DeferredTestReporterFixtureReportTestEndCapturesTestTimeHelperC2ERKNS_1
 2164              	.LFB1448:
  60:TestDeferredTestReporter.cpp **** 
  61:TestDeferredTestReporter.cpp **** TEST_FIXTURE(DeferredTestReporterFixture, ReportTestEndCapturesTestTime)
 2165              		.loc 3 61 1
 2166              		.cfi_startproc
 2167 0d6a 55       		pushq	%rbp
 2168              		.cfi_def_cfa_offset 16
 2169              		.cfi_offset 6, -16
 2170 0d6b 4889E5   		movq	%rsp, %rbp
 2171              		.cfi_def_cfa_register 6
 2172 0d6e 4883EC10 		subq	$16, %rsp
 2173 0d72 48897DF8 		movq	%rdi, -8(%rbp)
 2174 0d76 488975F0 		movq	%rsi, -16(%rbp)
 2175              	.LBB36:
 2176              		.loc 3 61 1
 2177 0d7a 488B45F8 		movq	-8(%rbp), %rax
 2178 0d7e 4889C7   		movq	%rax, %rdi
 2179 0d81 E8C2F2FF 		call	_ZN8UnitTest12_GLOBAL__N_127DeferredTestReporterFixtureC2Ev
 2179      FF
 2180 0d86 488B45F8 		movq	-8(%rbp), %rax
 2181 0d8a 488B55F0 		movq	-16(%rbp), %rdx
 2182 0d8e 488990A8 		movq	%rdx, 168(%rax)
 2182      000000
 2183              	.LBE36:
 2184 0d95 90       		nop
 2185 0d96 C9       		leave
 2186              		.cfi_def_cfa 7, 8
 2187 0d97 C3       		ret
 2188              		.cfi_endproc
 2189              	.LFE1448:
 2191              		.set	_ZN8UnitTest12_GLOBAL__N_162DeferredTestReporterFixtureReportTestEndCapturesTestTimeHelperC1E
 2192              		.section	.rodata
 2193              	.LC13:
 2194 0240 5265706F 		.string	"ReportTestEndCapturesTestTime"
 2194      72745465 
 2194      7374456E 
 2194      64436170 
 2194      74757265 
 2195              		.text
 2196              		.align 2
 2198              	_ZN8UnitTest12_GLOBAL__N_160TestDeferredTestReporterFixtureReportTestEndCapturesTestTimeC2Ev:
 2199              	.LFB1451:
 2200              		.loc 3 61 1
 2201              		.cfi_startproc
 2202 0d98 55       		pushq	%rbp
 2203              		.cfi_def_cfa_offset 16
 2204              		.cfi_offset 6, -16
 2205 0d99 4889E5   		movq	%rsp, %rbp
 2206              		.cfi_def_cfa_register 6
 2207 0d9c 53       		pushq	%rbx
 2208 0d9d 4883EC18 		subq	$24, %rsp
 2209              		.cfi_offset 3, -24
 2210 0da1 48897DE8 		movq	%rdi, -24(%rbp)
 2211              	.LBB37:
 2212              		.loc 3 61 1
 2213 0da5 488B5DE8 		movq	-24(%rbp), %rbx
 2214 0da9 E8000000 		call	_ZN13UnitTestSuite12GetSuiteNameEv
 2214      00
 2215 0dae 4889C2   		movq	%rax, %rdx
 2216 0db1 41B83D00 		movl	$61, %r8d
 2216      0000
 2217 0db7 488D0500 		leaq	.LC4(%rip), %rax
 2217      000000
 2218 0dbe 4889C1   		movq	%rax, %rcx
 2219 0dc1 488D0500 		leaq	.LC13(%rip), %rax
 2219      000000
 2220 0dc8 4889C6   		movq	%rax, %rsi
 2221 0dcb 4889DF   		movq	%rbx, %rdi
 2222 0dce E8000000 		call	_ZN8UnitTest4TestC2EPKcS2_S2_i@PLT
 2222      00
 2223 0dd3 488D1500 		leaq	16+_ZTVN8UnitTest12_GLOBAL__N_160TestDeferredTestReporterFixtureReportTestEndCapturesTestTime
 2223      000000
 2224 0dda 488B45E8 		movq	-24(%rbp), %rax
 2225 0dde 488910   		movq	%rdx, (%rax)
 2226              	.LBE37:
 2227 0de1 90       		nop
 2228 0de2 488B5DF8 		movq	-8(%rbp), %rbx
 2229 0de6 C9       		leave
 2230              		.cfi_def_cfa 7, 8
 2231 0de7 C3       		ret
 2232              		.cfi_endproc
 2233              	.LFE1451:
 2235              		.set	_ZN8UnitTest12_GLOBAL__N_160TestDeferredTestReporterFixtureReportTestEndCapturesTestTimeC1Ev,
 2236              		.local	_ZN8UnitTest12_GLOBAL__N_168testDeferredTestReporterFixtureReportTestEndCapturesTestTimeIns
 2237              		.comm	_ZN8UnitTest12_GLOBAL__N_168testDeferredTestReporterFixtureReportTestEndCapturesTestTimeInst
 2238              		.local	_ZN8UnitTest12_GLOBAL__N_161adderDeferredTestReporterFixtureReportTestEndCapturesTestTimeE
 2239              		.comm	_ZN8UnitTest12_GLOBAL__N_161adderDeferredTestReporterFixtureReportTestEndCapturesTestTimeE,1
 2240              		.align 2
 2242              	_ZN8UnitTest12_GLOBAL__N_162DeferredTestReporterFixtureReportTestEndCapturesTestTimeHelperD2Ev:
 2243              	.LFB1455:
 2244              		.loc 3 61 1
 2245              		.cfi_startproc
 2246 0de8 55       		pushq	%rbp
 2247              		.cfi_def_cfa_offset 16
 2248              		.cfi_offset 6, -16
 2249 0de9 4889E5   		movq	%rsp, %rbp
 2250              		.cfi_def_cfa_register 6
 2251 0dec 4883EC10 		subq	$16, %rsp
 2252 0df0 48897DF8 		movq	%rdi, -8(%rbp)
 2253              	.LBB38:
 2254              		.loc 3 61 1
 2255 0df4 488B45F8 		movq	-8(%rbp), %rax
 2256 0df8 4889C7   		movq	%rax, %rdi
 2257 0dfb E842F4FF 		call	_ZN8UnitTest12_GLOBAL__N_127DeferredTestReporterFixtureD2Ev
 2257      FF
 2258              	.LBE38:
 2259 0e00 90       		nop
 2260 0e01 C9       		leave
 2261              		.cfi_def_cfa 7, 8
 2262 0e02 C3       		ret
 2263              		.cfi_endproc
 2264              	.LFE1455:
 2266              		.set	_ZN8UnitTest12_GLOBAL__N_162DeferredTestReporterFixtureReportTestEndCapturesTestTimeHelperD1E
 2267 0e03 90       		.align 2
 2269              	_ZNK8UnitTest12_GLOBAL__N_160TestDeferredTestReporterFixtureReportTestEndCapturesTestTime7RunImplEv
 2270              	.LFB1453:
 2271              		.loc 3 61 1
 2272              		.cfi_startproc
 2273              		.cfi_personality 0x9b,DW.ref.__gxx_personality_v0
 2274              		.cfi_lsda 0x1b,.LLSDA1453
 2275 0e04 F30F1EFA 		endbr64
 2276 0e08 55       		pushq	%rbp
 2277              		.cfi_def_cfa_offset 16
 2278              		.cfi_offset 6, -16
 2279 0e09 4889E5   		movq	%rsp, %rbp
 2280              		.cfi_def_cfa_register 6
 2281 0e0c 4155     		pushq	%r13
 2282 0e0e 4154     		pushq	%r12
 2283 0e10 53       		pushq	%rbx
 2284 0e11 4881ECF8 		subq	$504, %rsp
 2284      010000
 2285              		.cfi_offset 13, -24
 2286              		.cfi_offset 12, -32
 2287              		.cfi_offset 3, -40
 2288 0e18 4889BDF8 		movq	%rdi, -520(%rbp)
 2288      FDFFFF
 2289              		.loc 3 61 1
 2290 0e1f 64488B04 		movq	%fs:40, %rax
 2290      25280000 
 2290      00
 2291 0e28 488945D8 		movq	%rax, -40(%rbp)
 2292 0e2c 31C0     		xorl	%eax, %eax
 2293 0e2e C6850FFE 		movb	$0, -497(%rbp)
 2293      FFFF00
 2294              	.LBB39:
 2295 0e35 488B85F8 		movq	-520(%rbp), %rax
 2295      FDFFFF
 2296 0e3c 488D5008 		leaq	8(%rax), %rdx
 2297 0e40 488D8540 		leaq	-448(%rbp), %rax
 2297      FEFFFF
 2298 0e47 4889D6   		movq	%rdx, %rsi
 2299 0e4a 4889C7   		movq	%rax, %rdi
 2300              	.LEHB58:
 2301 0e4d E818FFFF 		call	_ZN8UnitTest12_GLOBAL__N_162DeferredTestReporterFixtureReportTestEndCapturesTestTimeHelperC1E
 2301      FF
 2302              	.LEHE58:
 2303              		.loc 3 61 1 is_stmt 0 discriminator 1
 2304 0e52 C6850FFE 		movb	$1, -497(%rbp)
 2304      FFFF01
 2305 0e59 488B85F8 		movq	-520(%rbp), %rax
 2305      FDFFFF
 2306 0e60 488D5008 		leaq	8(%rax), %rdx
 2307 0e64 488D8540 		leaq	-448(%rbp), %rax
 2307      FEFFFF
 2308 0e6b 4889D6   		movq	%rdx, %rsi
 2309 0e6e 4889C7   		movq	%rax, %rdi
 2310              	.LEHB59:
 2311 0e71 E81F1C00 		call	_ZN8UnitTest11ExecuteTestINS_12_GLOBAL__N_162DeferredTestReporterFixtureReportTestEndCaptures
 2311      00
 2312              	.LEHE59:
 2313              		.loc 3 61 1 discriminator 3
 2314 0e76 488D8540 		leaq	-448(%rbp), %rax
 2314      FEFFFF
 2315 0e7d 4889C7   		movq	%rax, %rdi
 2316              	.LEHB60:
 2317 0e80 E863FFFF 		call	_ZN8UnitTest12_GLOBAL__N_162DeferredTestReporterFixtureReportTestEndCapturesTestTimeHelperD1E
 2317      FF
 2318              	.LEHE60:
 2319              	.LBE39:
 2320              		.loc 3 61 1
 2321 0e85 E9840200 		jmp	.L116
 2321      00
 2322              	.L131:
 2323 0e8a F30F1EFA 		endbr64
 2324              	.LBB40:
 2325 0e8e 4989C4   		movq	%rax, %r12
 2326 0e91 4889D3   		movq	%rdx, %rbx
 2327 0e94 488D8540 		leaq	-448(%rbp), %rax
 2327      FEFFFF
 2328 0e9b 4889C7   		movq	%rax, %rdi
 2329 0e9e E845FFFF 		call	_ZN8UnitTest12_GLOBAL__N_162DeferredTestReporterFixtureReportTestEndCapturesTestTimeHelperD1E
 2329      FF
 2330 0ea3 4C89E0   		movq	%r12, %rax
 2331 0ea6 4889DA   		movq	%rbx, %rdx
 2332 0ea9 EB04     		jmp	.L118
 2333              	.L130:
 2334 0eab F30F1EFA 		endbr64
 2335              	.L118:
 2336              	.LBE40:
 2337 0eaf 4883FA01 		cmpq	$1, %rdx
 2338 0eb3 740F     		je	.L119
 2339 0eb5 4883FA02 		cmpq	$2, %rdx
 2340 0eb9 0F84A700 		je	.L120
 2340      0000
 2341 0ebf E94D0100 		jmp	.L136
 2341      00
 2342              	.L119:
 2343              	.LBB41:
 2344              		.loc 3 61 1 discriminator 4
 2345 0ec4 4889C7   		movq	%rax, %rdi
 2346 0ec7 E8000000 		call	__cxa_begin_catch@PLT
 2346      00
 2347 0ecc 48898518 		movq	%rax, -488(%rbp)
 2347      FEFFFF
 2348              	.LEHB61:
 2349 0ed3 E8000000 		call	_ZN8UnitTest11CurrentTest7ResultsEv@PLT
 2349      00
 2350 0ed8 488B18   		movq	(%rax), %rbx
 2351 0edb 488B8518 		movq	-488(%rbp), %rax
 2351      FEFFFF
 2352 0ee2 488B00   		movq	(%rax), %rax
 2353 0ee5 4883C010 		addq	$16, %rax
 2354 0ee9 488B10   		movq	(%rax), %rdx
 2355 0eec 488B8518 		movq	-488(%rbp), %rax
 2355      FEFFFF
 2356 0ef3 4889C7   		movq	%rax, %rdi
 2357 0ef6 FFD2     		call	*%rdx
 2358              	.LVL4:
 2359 0ef8 4989C4   		movq	%rax, %r12
 2360 0efb 488B8518 		movq	-488(%rbp), %rax
 2360      FEFFFF
 2361 0f02 4889C7   		movq	%rax, %rdi
 2362 0f05 E8000000 		call	_ZNK8UnitTest15AssertException10LineNumberEv@PLT
 2362      00
 2363              		.loc 3 61 1 discriminator 8
 2364 0f0a 4189C5   		movl	%eax, %r13d
 2365 0f0d 488B8518 		movq	-488(%rbp), %rax
 2365      FEFFFF
 2366 0f14 4889C7   		movq	%rax, %rdi
 2367 0f17 E8000000 		call	_ZNK8UnitTest15AssertException8FilenameEv@PLT
 2367      00
 2368              		.loc 3 61 1 discriminator 10
 2369 0f1c 4889C1   		movq	%rax, %rcx
 2370 0f1f 488B85F8 		movq	-520(%rbp), %rax
 2370      FDFFFF
 2371 0f26 488B5008 		movq	8(%rax), %rdx
 2372 0f2a 488B85F8 		movq	-520(%rbp), %rax
 2372      FDFFFF
 2373 0f31 488B7010 		movq	16(%rax), %rsi
 2374 0f35 488D8520 		leaq	-480(%rbp), %rax
 2374      FEFFFF
 2375 0f3c 4589E8   		movl	%r13d, %r8d
 2376 0f3f 4889C7   		movq	%rax, %rdi
 2377 0f42 E8000000 		call	_ZN8UnitTest11TestDetailsC1EPKcS2_S2_i@PLT
 2377      00
 2378              		.loc 3 61 1 discriminator 14
 2379 0f47 488D8520 		leaq	-480(%rbp), %rax
 2379      FEFFFF
 2380 0f4e 4C89E2   		movq	%r12, %rdx
 2381 0f51 4889C6   		movq	%rax, %rsi
 2382 0f54 4889DF   		movq	%rbx, %rdi
 2383 0f57 E8000000 		call	_ZN8UnitTest11TestResults13OnTestFailureERKNS_11TestDetailsEPKc@PLT
 2383      00
 2384              	.LEHE61:
 2385              		.loc 3 61 1 discriminator 16
 2386 0f5c E8000000 		call	__cxa_end_catch@PLT
 2386      00
 2387              	.LBE41:
 2388 0f61 E9A80100 		jmp	.L116
 2388      00
 2389              	.L120:
 2390              	.LBB42:
 2391              		.loc 3 61 1 discriminator 5
 2392 0f66 4889C7   		movq	%rax, %rdi
 2393 0f69 E8000000 		call	__cxa_begin_catch@PLT
 2393      00
 2394 0f6e 48898510 		movq	%rax, -496(%rbp)
 2394      FEFFFF
 2395              	.LBB43:
 2396 0f75 488D8540 		leaq	-448(%rbp), %rax
 2396      FEFFFF
 2397 0f7c 4889C7   		movq	%rax, %rdi
 2398              	.LEHB62:
 2399 0f7f E8000000 		call	_ZN8UnitTest15MemoryOutStreamC1Ev
 2399      00
 2400              	.LEHE62:
 2401              		.loc 3 61 1 discriminator 18
 2402 0f84 488D8540 		leaq	-448(%rbp), %rax
 2402      FEFFFF
 2403 0f8b 488D1500 		leaq	.LC6(%rip), %rdx
 2403      000000
 2404 0f92 4889D6   		movq	%rdx, %rsi
 2405 0f95 4889C7   		movq	%rax, %rdi
 2406              	.LEHB63:
 2407 0f98 E8000000 		call	_ZStlsISt11char_traitsIcEERSt13basic_ostreamIcT_ES5_PKc@PLT
 2407      00
 2408 0f9d 4889C3   		movq	%rax, %rbx
 2409 0fa0 488B8510 		movq	-496(%rbp), %rax
 2409      FEFFFF
 2410 0fa7 488B00   		movq	(%rax), %rax
 2411 0faa 4883C010 		addq	$16, %rax
 2412 0fae 488B10   		movq	(%rax), %rdx
 2413 0fb1 488B8510 		movq	-496(%rbp), %rax
 2413      FEFFFF
 2414 0fb8 4889C7   		movq	%rax, %rdi
 2415 0fbb FFD2     		call	*%rdx
 2416              	.LVL5:
 2417 0fbd 4889C6   		movq	%rax, %rsi
 2418 0fc0 4889DF   		movq	%rbx, %rdi
 2419 0fc3 E8000000 		call	_ZStlsISt11char_traitsIcEERSt13basic_ostreamIcT_ES5_PKc@PLT
 2419      00
 2420              		.loc 3 61 1 discriminator 22
 2421 0fc8 E8000000 		call	_ZN8UnitTest11CurrentTest7ResultsEv@PLT
 2421      00
 2422 0fcd 488B18   		movq	(%rax), %rbx
 2423 0fd0 488D8540 		leaq	-448(%rbp), %rax
 2423      FEFFFF
 2424 0fd7 4889C7   		movq	%rax, %rdi
 2425 0fda E8000000 		call	_ZNK8UnitTest15MemoryOutStream7GetTextEv@PLT
 2425      00
 2426              		.loc 3 61 1 discriminator 24
 2427 0fdf 4889C2   		movq	%rax, %rdx
 2428 0fe2 488B85F8 		movq	-520(%rbp), %rax
 2428      FDFFFF
 2429 0fe9 4883C008 		addq	$8, %rax
 2430 0fed 4889C6   		movq	%rax, %rsi
 2431 0ff0 4889DF   		movq	%rbx, %rdi
 2432 0ff3 E8000000 		call	_ZN8UnitTest11TestResults13OnTestFailureERKNS_11TestDetailsEPKc@PLT
 2432      00
 2433              	.LEHE63:
 2434              		.loc 3 61 1 discriminator 28
 2435 0ff8 488D8540 		leaq	-448(%rbp), %rax
 2435      FEFFFF
 2436 0fff 4889C7   		movq	%rax, %rdi
 2437              	.LEHB64:
 2438 1002 E8000000 		call	_ZN8UnitTest15MemoryOutStreamD1Ev
 2438      00
 2439              	.LEHE64:
 2440              	.LBE43:
 2441              		.loc 3 61 1 discriminator 29
 2442 1007 E8000000 		call	__cxa_end_catch@PLT
 2442      00
 2443              	.LBE42:
 2444 100c E9FD0000 		jmp	.L116
 2444      00
 2445              	.L136:
 2446              		.loc 3 61 1 discriminator 6
 2447 1011 4889C7   		movq	%rax, %rdi
 2448 1014 E8000000 		call	__cxa_begin_catch@PLT
 2448      00
 2449 1019 80BD0FFE 		cmpb	$0, -497(%rbp)
 2449      FFFF00
 2450 1020 7445     		je	.L123
 2451              	.LEHB65:
 2452              		.loc 3 61 1 discriminator 31
 2453 1022 E8000000 		call	_ZN8UnitTest11CurrentTest7ResultsEv@PLT
 2453      00
 2454 1027 488B18   		movq	(%rax), %rbx
 2455 102a 488B85F8 		movq	-520(%rbp), %rax
 2455      FDFFFF
 2456 1031 488D4808 		leaq	8(%rax), %rcx
 2457 1035 488D8520 		leaq	-480(%rbp), %rax
 2457      FEFFFF
 2458 103c BA3D0000 		movl	$61, %edx
 2458      00
 2459 1041 4889CE   		movq	%rcx, %rsi
 2460 1044 4889C7   		movq	%rax, %rdi
 2461 1047 E8000000 		call	_ZN8UnitTest11TestDetailsC1ERKS0_i@PLT
 2461      00
 2462              		.loc 3 61 1 discriminator 36
 2463 104c 488D8520 		leaq	-480(%rbp), %rax
 2463      FEFFFF
 2464 1053 488D1500 		leaq	.LC7(%rip), %rdx
 2464      000000
 2465 105a 4889C6   		movq	%rax, %rsi
 2466 105d 4889DF   		movq	%rbx, %rdi
 2467 1060 E8000000 		call	_ZN8UnitTest11TestResults13OnTestFailureERKNS_11TestDetailsEPKc@PLT
 2467      00
 2468 1065 EB43     		jmp	.L124
 2469              	.L123:
 2470              		.loc 3 61 1 discriminator 32
 2471 1067 E8000000 		call	_ZN8UnitTest11CurrentTest7ResultsEv@PLT
 2471      00
 2472 106c 488B18   		movq	(%rax), %rbx
 2473 106f 488B85F8 		movq	-520(%rbp), %rax
 2473      FDFFFF
 2474 1076 488D4808 		leaq	8(%rax), %rcx
 2475 107a 488D8520 		leaq	-480(%rbp), %rax
 2475      FEFFFF
 2476 1081 BA3D0000 		movl	$61, %edx
 2476      00
 2477 1086 4889CE   		movq	%rcx, %rsi
 2478 1089 4889C7   		movq	%rax, %rdi
 2479 108c E8000000 		call	_ZN8UnitTest11TestDetailsC1ERKS0_i@PLT
 2479      00
 2480              		.loc 3 61 1 discriminator 43
 2481 1091 488D8520 		leaq	-480(%rbp), %rax
 2481      FEFFFF
 2482 1098 488D1500 		leaq	.LC8(%rip), %rdx
 2482      000000
 2483 109f 4889C6   		movq	%rax, %rsi
 2484 10a2 4889DF   		movq	%rbx, %rdi
 2485 10a5 E8000000 		call	_ZN8UnitTest11TestResults13OnTestFailureERKNS_11TestDetailsEPKc@PLT
 2485      00
 2486              	.LEHE65:
 2487              	.L124:
 2488              	.LEHB66:
 2489              		.loc 3 61 1 discriminator 46
 2490 10aa E8000000 		call	__cxa_end_catch@PLT
 2490      00
 2491 10af EB5D     		jmp	.L116
 2492              	.L132:
 2493 10b1 F30F1EFA 		endbr64
 2494              	.LBB45:
 2495              		.loc 3 61 1
 2496 10b5 4889C3   		movq	%rax, %rbx
 2497 10b8 E8000000 		call	__cxa_end_catch@PLT
 2497      00
 2498 10bd 4889D8   		movq	%rbx, %rax
 2499 10c0 4889C7   		movq	%rax, %rdi
 2500 10c3 E8000000 		call	_Unwind_Resume@PLT
 2500      00
 2501              	.LEHE66:
 2502              	.L134:
 2503 10c8 F30F1EFA 		endbr64
 2504              	.LBE45:
 2505              	.LBB46:
 2506              	.LBB44:
 2507 10cc 4889C3   		movq	%rax, %rbx
 2508 10cf 488D8540 		leaq	-448(%rbp), %rax
 2508      FEFFFF
 2509 10d6 4889C7   		movq	%rax, %rdi
 2510 10d9 E8000000 		call	_ZN8UnitTest15MemoryOutStreamD1Ev
 2510      00
 2511 10de EB07     		jmp	.L127
 2512              	.L133:
 2513 10e0 F30F1EFA 		endbr64
 2514              	.LBE44:
 2515 10e4 4889C3   		movq	%rax, %rbx
 2516              	.L127:
 2517 10e7 E8000000 		call	__cxa_end_catch@PLT
 2517      00
 2518 10ec 4889D8   		movq	%rbx, %rax
 2519 10ef 4889C7   		movq	%rax, %rdi
 2520              	.LEHB67:
 2521 10f2 E8000000 		call	_Unwind_Resume@PLT
 2521      00
 2522              	.LEHE67:
 2523              	.L135:
 2524 10f7 F30F1EFA 		endbr64
 2525              	.LBE46:
 2526 10fb 4889C3   		movq	%rax, %rbx
 2527 10fe E8000000 		call	__cxa_end_catch@PLT
 2527      00
 2528 1103 4889D8   		movq	%rbx, %rax
 2529 1106 4889C7   		movq	%rax, %rdi
 2530              	.LEHB68:
 2531 1109 E8000000 		call	_Unwind_Resume@PLT
 2531      00
 2532              	.LEHE68:
 2533              	.L116:
 2534 110e 488B45D8 		movq	-40(%rbp), %rax
 2535 1112 64482B04 		subq	%fs:40, %rax
 2535      25280000 
 2535      00
 2536 111b 7405     		je	.L129
 2537 111d E8000000 		call	__stack_chk_fail@PLT
 2537      00
 2538              	.L129:
 2539 1122 4881C4F8 		addq	$504, %rsp
 2539      010000
 2540 1129 5B       		popq	%rbx
 2541 112a 415C     		popq	%r12
 2542 112c 415D     		popq	%r13
 2543 112e 5D       		popq	%rbp
 2544              		.cfi_def_cfa 7, 8
 2545 112f C3       		ret
 2546              		.cfi_endproc
 2547              	.LFE1453:
 2548              		.section	.gcc_except_table
 2549              		.align 4
 2550              	.LLSDA1453:
 2551 0150 FF       		.byte	0xff
 2552 0151 9B       		.byte	0x9b
 2553 0152 55       		.uleb128 .LLSDATT1453-.LLSDATTD1453
 2554              	.LLSDATTD1453:
 2555 0153 01       		.byte	0x1
 2556 0154 3E       		.uleb128 .LLSDACSE1453-.LLSDACSB1453
 2557              	.LLSDACSB1453:
 2558 0155 49       		.uleb128 .LEHB58-.LFB1453
 2559 0156 05       		.uleb128 .LEHE58-.LEHB58
 2560 0157 A701     		.uleb128 .L130-.LFB1453
 2561 0159 05       		.uleb128 0x5
 2562 015a 6D       		.uleb128 .LEHB59-.LFB1453
 2563 015b 05       		.uleb128 .LEHE59-.LEHB59
 2564 015c 8601     		.uleb128 .L131-.LFB1453
 2565 015e 07       		.uleb128 0x7
 2566 015f 7C       		.uleb128 .LEHB60-.LFB1453
 2567 0160 05       		.uleb128 .LEHE60-.LEHB60
 2568 0161 A701     		.uleb128 .L130-.LFB1453
 2569 0163 05       		.uleb128 0x5
 2570 0164 CF01     		.uleb128 .LEHB61-.LFB1453
 2571 0166 8901     		.uleb128 .LEHE61-.LEHB61
 2572 0168 AD05     		.uleb128 .L132-.LFB1453
 2573 016a 00       		.uleb128 0
 2574 016b FB02     		.uleb128 .LEHB62-.LFB1453
 2575 016d 05       		.uleb128 .LEHE62-.LEHB62
 2576 016e DC05     		.uleb128 .L133-.LFB1453
 2577 0170 00       		.uleb128 0
 2578 0171 9403     		.uleb128 .LEHB63-.LFB1453
 2579 0173 60       		.uleb128 .LEHE63-.LEHB63
 2580 0174 C405     		.uleb128 .L134-.LFB1453
 2581 0176 00       		.uleb128 0
 2582 0177 FE03     		.uleb128 .LEHB64-.LFB1453
 2583 0179 05       		.uleb128 .LEHE64-.LEHB64
 2584 017a DC05     		.uleb128 .L133-.LFB1453
 2585 017c 00       		.uleb128 0
 2586 017d 9E04     		.uleb128 .LEHB65-.LFB1453
 2587 017f 8801     		.uleb128 .LEHE65-.LEHB65
 2588 0181 F305     		.uleb128 .L135-.LFB1453
 2589 0183 00       		.uleb128 0
 2590 0184 A605     		.uleb128 .LEHB66-.LFB1453
 2591 0186 1E       		.uleb128 .LEHE66-.LEHB66
 2592 0187 00       		.uleb128 0
 2593 0188 00       		.uleb128 0
 2594 0189 EE05     		.uleb128 .LEHB67-.LFB1453
 2595 018b 05       		.uleb128 .LEHE67-.LEHB67
 2596 018c 00       		.uleb128 0
 2597 018d 00       		.uleb128 0
 2598 018e 8506     		.uleb128 .LEHB68-.LFB1453
 2599 0190 05       		.uleb128 .LEHE68-.LEHB68
 2600 0191 00       		.uleb128 0
 2601 0192 00       		.uleb128 0
 2602              	.LLSDACSE1453:
 2603 0193 03       		.byte	0x3
 2604 0194 00       		.byte	0
 2605 0195 02       		.byte	0x2
 2606 0196 7D       		.byte	0x7d
 2607 0197 01       		.byte	0x1
 2608 0198 7D       		.byte	0x7d
 2609 0199 00       		.byte	0
 2610 019a 7D       		.byte	0x7d
 2611 019b 00       		.align 4
 2612 019c 00000000 		.long	0
 2613              	
 2614 01a0 00000000 		.long	DW.ref._ZTISt9exception-.
 2615 01a4 00000000 		.long	DW.ref._ZTIN8UnitTest15AssertExceptionE-.
 2616              	.LLSDATT1453:
 2617              		.text
 2619              		.section	.rodata
 2620 025e 0000     		.align 8
 2621              	.LC16:
 2622 0260 556E6861 		.string	"Unhandled exception in CHECK_CLOSE(elapsed, result.timeElapsed)"
 2622      6E646C65 
 2622      64206578 
 2622      63657074 
 2622      696F6E20 
 2623              		.text
 2624              		.align 2
 2626              	_ZN8UnitTest12_GLOBAL__N_162DeferredTestReporterFixtureReportTestEndCapturesTestTimeHelper7RunImplE
 2627              	.LFB1457:
  62:TestDeferredTestReporter.cpp **** {
 2628              		.loc 3 62 1 is_stmt 1
 2629              		.cfi_startproc
 2630              		.cfi_personality 0x9b,DW.ref.__gxx_personality_v0
 2631              		.cfi_lsda 0x1b,.LLSDA1457
 2632 1130 F30F1EFA 		endbr64
 2633 1134 55       		pushq	%rbp
 2634              		.cfi_def_cfa_offset 16
 2635              		.cfi_offset 6, -16
 2636 1135 4889E5   		movq	%rsp, %rbp
 2637              		.cfi_def_cfa_register 6
 2638 1138 53       		pushq	%rbx
 2639 1139 4883EC58 		subq	$88, %rsp
 2640              		.cfi_offset 3, -24
 2641 113d 48897DA8 		movq	%rdi, -88(%rbp)
 2642              		.loc 3 62 1
 2643 1141 64488B04 		movq	%fs:40, %rax
 2643      25280000 
 2643      00
 2644 114a 488945E8 		movq	%rax, -24(%rbp)
 2645 114e 31C0     		xorl	%eax, %eax
  63:TestDeferredTestReporter.cpp ****     float const elapsed = 123.45f;
 2646              		.loc 3 63 17
 2647 1150 F30F1005 		movss	.LC14(%rip), %xmm0
 2647      00000000 
 2648 1158 F30F1145 		movss	%xmm0, -80(%rbp)
 2648      B0
  64:TestDeferredTestReporter.cpp ****     reporter.ReportTestStart(details);
 2649              		.loc 3 64 29
 2650 115d 488B45A8 		movq	-88(%rbp), %rax
 2651              		.loc 3 64 30
 2652 1161 488B55A8 		movq	-88(%rbp), %rdx
 2653 1165 4881C288 		addq	$136, %rdx
 2653      000000
 2654              		.loc 3 64 29
 2655 116c 4889D6   		movq	%rdx, %rsi
 2656 116f 4889C7   		movq	%rax, %rdi
 2657              	.LEHB69:
 2658 1172 E8000000 		call	_ZN8UnitTest20DeferredTestReporter15ReportTestStartERKNS_11TestDetailsE@PLT
 2658      00
  65:TestDeferredTestReporter.cpp ****     reporter.ReportTestFinish(details, elapsed);
 2659              		.loc 3 65 30
 2660 1177 488B45A8 		movq	-88(%rbp), %rax
 2661              		.loc 3 65 31
 2662 117b 488B55A8 		movq	-88(%rbp), %rdx
 2663 117f 488D8A88 		leaq	136(%rdx), %rcx
 2663      000000
 2664              		.loc 3 65 30
 2665 1186 8B150000 		movl	.LC14(%rip), %edx
 2665      0000
 2666 118c 660F6EC2 		movd	%edx, %xmm0
 2667 1190 4889CE   		movq	%rcx, %rsi
 2668 1193 4889C7   		movq	%rax, %rdi
 2669 1196 E8000000 		call	_ZN8UnitTest20DeferredTestReporter16ReportTestFinishERKNS_11TestDetailsEf@PLT
 2669      00
  66:TestDeferredTestReporter.cpp **** 
  67:TestDeferredTestReporter.cpp ****     DeferredTestResult const& result = reporter.GetResults().at(0);
 2670              		.loc 3 67 59
 2671 119b 488B45A8 		movq	-88(%rbp), %rax
 2672 119f 4889C7   		movq	%rax, %rdi
 2673 11a2 E8000000 		call	_ZN8UnitTest20DeferredTestReporter10GetResultsEv@PLT
 2673      00
 2674              		.loc 3 67 64
 2675 11a7 BE000000 		movl	$0, %esi
 2675      00
 2676 11ac 4889C7   		movq	%rax, %rdi
 2677 11af E8000000 		call	_ZNSt6vectorIN8UnitTest18DeferredTestResultESaIS1_EE2atEm
 2677      00
 2678              	.LEHE69:
 2679 11b4 488945B8 		movq	%rax, -72(%rbp)
 2680              	.LEHB70:
  68:TestDeferredTestReporter.cpp ****     CHECK_CLOSE(elapsed, result.timeElapsed, 0.0001f);
 2681              		.loc 3 68 5
 2682 11b8 E8000000 		call	_ZN8UnitTest11CurrentTest7DetailsEv@PLT
 2682      00
 2683 11bd 488B08   		movq	(%rax), %rcx
 2684 11c0 488D45C0 		leaq	-64(%rbp), %rax
 2685 11c4 BA440000 		movl	$68, %edx
 2685      00
 2686 11c9 4889CE   		movq	%rcx, %rsi
 2687 11cc 4889C7   		movq	%rax, %rdi
 2688 11cf E8000000 		call	_ZN8UnitTest11TestDetailsC1ERKS0_i@PLT
 2688      00
 2689              		.loc 3 68 5 is_stmt 0 discriminator 4
 2690 11d4 F30F1005 		movss	.LC15(%rip), %xmm0
 2690      00000000 
 2691 11dc F30F1145 		movss	%xmm0, -76(%rbp)
 2691      B4
 2692 11e1 488B45B8 		movq	-72(%rbp), %rax
 2693 11e5 488D5878 		leaq	120(%rax), %rbx
 2694 11e9 E8000000 		call	_ZN8UnitTest11CurrentTest7ResultsEv@PLT
 2694      00
 2695 11ee 488B00   		movq	(%rax), %rax
 2696 11f1 488D4DC0 		leaq	-64(%rbp), %rcx
 2697 11f5 488D55B4 		leaq	-76(%rbp), %rdx
 2698 11f9 488D75B0 		leaq	-80(%rbp), %rsi
 2699 11fd 4989C8   		movq	%rcx, %r8
 2700 1200 4889D1   		movq	%rdx, %rcx
 2701 1203 4889DA   		movq	%rbx, %rdx
 2702 1206 4889C7   		movq	%rax, %rdi
 2703 1209 E8000000 		call	_ZN8UnitTest10CheckCloseIfffEEvRNS_11TestResultsERKT_RKT0_RKT1_RKNS_11TestDetailsE
 2703      00
 2704              	.LEHE70:
  69:TestDeferredTestReporter.cpp **** }
 2705              		.loc 3 69 1 is_stmt 1
 2706 120e EB64     		jmp	.L137
 2707              	.L142:
 2708 1210 F30F1EFA 		endbr64
  68:TestDeferredTestReporter.cpp ****     CHECK_CLOSE(elapsed, result.timeElapsed, 0.0001f);
 2709              		.loc 3 68 5
 2710 1214 4889C7   		movq	%rax, %rdi
 2711 1217 E8000000 		call	__cxa_begin_catch@PLT
 2711      00
 2712              	.LEHB71:
 2713 121c E8000000 		call	_ZN8UnitTest11CurrentTest7ResultsEv@PLT
 2713      00
  68:TestDeferredTestReporter.cpp ****     CHECK_CLOSE(elapsed, result.timeElapsed, 0.0001f);
 2714              		.loc 3 68 5 is_stmt 0 discriminator 3
 2715 1221 488B18   		movq	(%rax), %rbx
 2716 1224 E8000000 		call	_ZN8UnitTest11CurrentTest7DetailsEv@PLT
 2716      00
  68:TestDeferredTestReporter.cpp ****     CHECK_CLOSE(elapsed, result.timeElapsed, 0.0001f);
 2717              		.loc 3 68 5 discriminator 11
 2718 1229 488B08   		movq	(%rax), %rcx
 2719 122c 488D45C0 		leaq	-64(%rbp), %rax
 2720 1230 BA440000 		movl	$68, %edx
 2720      00
 2721 1235 4889CE   		movq	%rcx, %rsi
 2722 1238 4889C7   		movq	%rax, %rdi
 2723 123b E8000000 		call	_ZN8UnitTest11TestDetailsC1ERKS0_i@PLT
 2723      00
  68:TestDeferredTestReporter.cpp ****     CHECK_CLOSE(elapsed, result.timeElapsed, 0.0001f);
 2724              		.loc 3 68 5 discriminator 15
 2725 1240 488D45C0 		leaq	-64(%rbp), %rax
 2726 1244 488D1500 		leaq	.LC16(%rip), %rdx
 2726      000000
 2727 124b 4889C6   		movq	%rax, %rsi
 2728 124e 4889DF   		movq	%rbx, %rdi
 2729 1251 E8000000 		call	_ZN8UnitTest11TestResults13OnTestFailureERKNS_11TestDetailsEPKc@PLT
 2729      00
 2730              	.LEHE71:
 2731              	.LEHB72:
  68:TestDeferredTestReporter.cpp ****     CHECK_CLOSE(elapsed, result.timeElapsed, 0.0001f);
 2732              		.loc 3 68 5 discriminator 17
 2733 1256 E8000000 		call	__cxa_end_catch@PLT
 2733      00
 2734              	.LEHE72:
 2735              		.loc 3 69 1 is_stmt 1 discriminator 17
 2736 125b EB17     		jmp	.L137
 2737              	.L143:
 2738 125d F30F1EFA 		endbr64
  68:TestDeferredTestReporter.cpp ****     CHECK_CLOSE(elapsed, result.timeElapsed, 0.0001f);
 2739              		.loc 3 68 5
 2740 1261 4889C3   		movq	%rax, %rbx
 2741 1264 E8000000 		call	__cxa_end_catch@PLT
 2741      00
 2742 1269 4889D8   		movq	%rbx, %rax
 2743 126c 4889C7   		movq	%rax, %rdi
 2744              	.LEHB73:
 2745 126f E8000000 		call	_Unwind_Resume@PLT
 2745      00
 2746              	.LEHE73:
 2747              	.L137:
 2748              		.loc 3 69 1
 2749 1274 488B45E8 		movq	-24(%rbp), %rax
 2750 1278 64482B04 		subq	%fs:40, %rax
 2750      25280000 
 2750      00
 2751 1281 7405     		je	.L141
 2752 1283 E8000000 		call	__stack_chk_fail@PLT
 2752      00
 2753              	.L141:
 2754 1288 488B5DF8 		movq	-8(%rbp), %rbx
 2755 128c C9       		leave
 2756              		.cfi_def_cfa 7, 8
 2757 128d C3       		ret
 2758              		.cfi_endproc
 2759              	.LFE1457:
 2760              		.section	.gcc_except_table
 2761              		.align 4
 2762              	.LLSDA1457:
 2763 01a8 FF       		.byte	0xff
 2764 01a9 9B       		.byte	0x9b
 2765 01aa 25       		.uleb128 .LLSDATT1457-.LLSDATTD1457
 2766              	.LLSDATTD1457:
 2767 01ab 01       		.byte	0x1
 2768 01ac 1A       		.uleb128 .LLSDACSE1457-.LLSDACSB1457
 2769              	.LLSDACSB1457:
 2770 01ad 42       		.uleb128 .LEHB69-.LFB1457
 2771 01ae 42       		.uleb128 .LEHE69-.LEHB69
 2772 01af 00       		.uleb128 0
 2773 01b0 00       		.uleb128 0
 2774 01b1 8801     		.uleb128 .LEHB70-.LFB1457
 2775 01b3 56       		.uleb128 .LEHE70-.LEHB70
 2776 01b4 E001     		.uleb128 .L142-.LFB1457
 2777 01b6 01       		.uleb128 0x1
 2778 01b7 EC01     		.uleb128 .LEHB71-.LFB1457
 2779 01b9 3A       		.uleb128 .LEHE71-.LEHB71
 2780 01ba AD02     		.uleb128 .L143-.LFB1457
 2781 01bc 00       		.uleb128 0
 2782 01bd A602     		.uleb128 .LEHB72-.LFB1457
 2783 01bf 05       		.uleb128 .LEHE72-.LEHB72
 2784 01c0 00       		.uleb128 0
 2785 01c1 00       		.uleb128 0
 2786 01c2 BF02     		.uleb128 .LEHB73-.LFB1457
 2787 01c4 05       		.uleb128 .LEHE73-.LEHB73
 2788 01c5 00       		.uleb128 0
 2789 01c6 00       		.uleb128 0
 2790              	.LLSDACSE1457:
 2791 01c7 01       		.byte	0x1
 2792 01c8 00       		.byte	0
 2793 01c9 000000   		.align 4
 2794 01cc 00000000 		.long	0
 2795              	
 2796              	.LLSDATT1457:
 2797              		.text
 2799              		.align 2
 2801              	_ZN8UnitTest12_GLOBAL__N_165DeferredTestReporterFixtureReportFailureSavesFailureDetailsHelperC2ERKN
 2802              	.LFB1459:
  70:TestDeferredTestReporter.cpp **** 
  71:TestDeferredTestReporter.cpp **** TEST_FIXTURE(DeferredTestReporterFixture, ReportFailureSavesFailureDetails)
 2803              		.loc 3 71 1
 2804              		.cfi_startproc
 2805 128e 55       		pushq	%rbp
 2806              		.cfi_def_cfa_offset 16
 2807              		.cfi_offset 6, -16
 2808 128f 4889E5   		movq	%rsp, %rbp
 2809              		.cfi_def_cfa_register 6
 2810 1292 4883EC10 		subq	$16, %rsp
 2811 1296 48897DF8 		movq	%rdi, -8(%rbp)
 2812 129a 488975F0 		movq	%rsi, -16(%rbp)
 2813              	.LBB47:
 2814              		.loc 3 71 1
 2815 129e 488B45F8 		movq	-8(%rbp), %rax
 2816 12a2 4889C7   		movq	%rax, %rdi
 2817 12a5 E89EEDFF 		call	_ZN8UnitTest12_GLOBAL__N_127DeferredTestReporterFixtureC2Ev
 2817      FF
 2818 12aa 488B45F8 		movq	-8(%rbp), %rax
 2819 12ae 488B55F0 		movq	-16(%rbp), %rdx
 2820 12b2 488990A8 		movq	%rdx, 168(%rax)
 2820      000000
 2821              	.LBE47:
 2822 12b9 90       		nop
 2823 12ba C9       		leave
 2824              		.cfi_def_cfa 7, 8
 2825 12bb C3       		ret
 2826              		.cfi_endproc
 2827              	.LFE1459:
 2829              		.set	_ZN8UnitTest12_GLOBAL__N_165DeferredTestReporterFixtureReportFailureSavesFailureDetailsHelper
 2830              		.section	.rodata
 2831              		.align 8
 2832              	.LC17:
 2833 02a0 5265706F 		.string	"ReportFailureSavesFailureDetails"
 2833      72744661 
 2833      696C7572 
 2833      65536176 
 2833      65734661 
 2834              		.text
 2835              		.align 2
 2837              	_ZN8UnitTest12_GLOBAL__N_163TestDeferredTestReporterFixtureReportFailureSavesFailureDetailsC2Ev:
 2838              	.LFB1462:
 2839              		.loc 3 71 1
 2840              		.cfi_startproc
 2841 12bc 55       		pushq	%rbp
 2842              		.cfi_def_cfa_offset 16
 2843              		.cfi_offset 6, -16
 2844 12bd 4889E5   		movq	%rsp, %rbp
 2845              		.cfi_def_cfa_register 6
 2846 12c0 53       		pushq	%rbx
 2847 12c1 4883EC18 		subq	$24, %rsp
 2848              		.cfi_offset 3, -24
 2849 12c5 48897DE8 		movq	%rdi, -24(%rbp)
 2850              	.LBB48:
 2851              		.loc 3 71 1
 2852 12c9 488B5DE8 		movq	-24(%rbp), %rbx
 2853 12cd E8000000 		call	_ZN13UnitTestSuite12GetSuiteNameEv
 2853      00
 2854 12d2 4889C2   		movq	%rax, %rdx
 2855 12d5 41B84700 		movl	$71, %r8d
 2855      0000
 2856 12db 488D0500 		leaq	.LC4(%rip), %rax
 2856      000000
 2857 12e2 4889C1   		movq	%rax, %rcx
 2858 12e5 488D0500 		leaq	.LC17(%rip), %rax
 2858      000000
 2859 12ec 4889C6   		movq	%rax, %rsi
 2860 12ef 4889DF   		movq	%rbx, %rdi
 2861 12f2 E8000000 		call	_ZN8UnitTest4TestC2EPKcS2_S2_i@PLT
 2861      00
 2862 12f7 488D1500 		leaq	16+_ZTVN8UnitTest12_GLOBAL__N_163TestDeferredTestReporterFixtureReportFailureSavesFailureDeta
 2862      000000
 2863 12fe 488B45E8 		movq	-24(%rbp), %rax
 2864 1302 488910   		movq	%rdx, (%rax)
 2865              	.LBE48:
 2866 1305 90       		nop
 2867 1306 488B5DF8 		movq	-8(%rbp), %rbx
 2868 130a C9       		leave
 2869              		.cfi_def_cfa 7, 8
 2870 130b C3       		ret
 2871              		.cfi_endproc
 2872              	.LFE1462:
 2874              		.set	_ZN8UnitTest12_GLOBAL__N_163TestDeferredTestReporterFixtureReportFailureSavesFailureDetailsC1
 2875              		.local	_ZN8UnitTest12_GLOBAL__N_171testDeferredTestReporterFixtureReportFailureSavesFailureDetails
 2876              		.comm	_ZN8UnitTest12_GLOBAL__N_171testDeferredTestReporterFixtureReportFailureSavesFailureDetailsI
 2877              		.local	_ZN8UnitTest12_GLOBAL__N_164adderDeferredTestReporterFixtureReportFailureSavesFailureDetail
 2878              		.comm	_ZN8UnitTest12_GLOBAL__N_164adderDeferredTestReporterFixtureReportFailureSavesFailureDetails
 2879              		.align 2
 2881              	_ZN8UnitTest12_GLOBAL__N_165DeferredTestReporterFixtureReportFailureSavesFailureDetailsHelperD2Ev:
 2882              	.LFB1466:
 2883              		.loc 3 71 1
 2884              		.cfi_startproc
 2885 130c 55       		pushq	%rbp
 2886              		.cfi_def_cfa_offset 16
 2887              		.cfi_offset 6, -16
 2888 130d 4889E5   		movq	%rsp, %rbp
 2889              		.cfi_def_cfa_register 6
 2890 1310 4883EC10 		subq	$16, %rsp
 2891 1314 48897DF8 		movq	%rdi, -8(%rbp)
 2892              	.LBB49:
 2893              		.loc 3 71 1
 2894 1318 488B45F8 		movq	-8(%rbp), %rax
 2895 131c 4889C7   		movq	%rax, %rdi
 2896 131f E81EEFFF 		call	_ZN8UnitTest12_GLOBAL__N_127DeferredTestReporterFixtureD2Ev
 2896      FF
 2897              	.LBE49:
 2898 1324 90       		nop
 2899 1325 C9       		leave
 2900              		.cfi_def_cfa 7, 8
 2901 1326 C3       		ret
 2902              		.cfi_endproc
 2903              	.LFE1466:
 2905              		.set	_ZN8UnitTest12_GLOBAL__N_165DeferredTestReporterFixtureReportFailureSavesFailureDetailsHelper
 2906 1327 90       		.align 2
 2908              	_ZNK8UnitTest12_GLOBAL__N_163TestDeferredTestReporterFixtureReportFailureSavesFailureDetails7RunImp
 2909              	.LFB1464:
 2910              		.loc 3 71 1
 2911              		.cfi_startproc
 2912              		.cfi_personality 0x9b,DW.ref.__gxx_personality_v0
 2913              		.cfi_lsda 0x1b,.LLSDA1464
 2914 1328 F30F1EFA 		endbr64
 2915 132c 55       		pushq	%rbp
 2916              		.cfi_def_cfa_offset 16
 2917              		.cfi_offset 6, -16
 2918 132d 4889E5   		movq	%rsp, %rbp
 2919              		.cfi_def_cfa_register 6
 2920 1330 4155     		pushq	%r13
 2921 1332 4154     		pushq	%r12
 2922 1334 53       		pushq	%rbx
 2923 1335 4881ECF8 		subq	$504, %rsp
 2923      010000
 2924              		.cfi_offset 13, -24
 2925              		.cfi_offset 12, -32
 2926              		.cfi_offset 3, -40
 2927 133c 4889BDF8 		movq	%rdi, -520(%rbp)
 2927      FDFFFF
 2928              		.loc 3 71 1
 2929 1343 64488B04 		movq	%fs:40, %rax
 2929      25280000 
 2929      00
 2930 134c 488945D8 		movq	%rax, -40(%rbp)
 2931 1350 31C0     		xorl	%eax, %eax
 2932 1352 C6850FFE 		movb	$0, -497(%rbp)
 2932      FFFF00
 2933              	.LBB50:
 2934 1359 488B85F8 		movq	-520(%rbp), %rax
 2934      FDFFFF
 2935 1360 488D5008 		leaq	8(%rax), %rdx
 2936 1364 488D8540 		leaq	-448(%rbp), %rax
 2936      FEFFFF
 2937 136b 4889D6   		movq	%rdx, %rsi
 2938 136e 4889C7   		movq	%rax, %rdi
 2939              	.LEHB74:
 2940 1371 E818FFFF 		call	_ZN8UnitTest12_GLOBAL__N_165DeferredTestReporterFixtureReportFailureSavesFailureDetailsHelper
 2940      FF
 2941              	.LEHE74:
 2942              		.loc 3 71 1 is_stmt 0 discriminator 1
 2943 1376 C6850FFE 		movb	$1, -497(%rbp)
 2943      FFFF01
 2944 137d 488B85F8 		movq	-520(%rbp), %rax
 2944      FDFFFF
 2945 1384 488D5008 		leaq	8(%rax), %rdx
 2946 1388 488D8540 		leaq	-448(%rbp), %rax
 2946      FEFFFF
 2947 138f 4889D6   		movq	%rdx, %rsi
 2948 1392 4889C7   		movq	%rax, %rdi
 2949              	.LEHB75:
 2950 1395 E8EA1900 		call	_ZN8UnitTest11ExecuteTestINS_12_GLOBAL__N_165DeferredTestReporterFixtureReportFailureSavesFai
 2950      00
 2951              	.LEHE75:
 2952              		.loc 3 71 1 discriminator 3
 2953 139a 488D8540 		leaq	-448(%rbp), %rax
 2953      FEFFFF
 2954 13a1 4889C7   		movq	%rax, %rdi
 2955              	.LEHB76:
 2956 13a4 E863FFFF 		call	_ZN8UnitTest12_GLOBAL__N_165DeferredTestReporterFixtureReportFailureSavesFailureDetailsHelper
 2956      FF
 2957              	.LEHE76:
 2958              	.LBE50:
 2959              		.loc 3 71 1
 2960 13a9 E9840200 		jmp	.L147
 2960      00
 2961              	.L162:
 2962 13ae F30F1EFA 		endbr64
 2963              	.LBB51:
 2964 13b2 4989C4   		movq	%rax, %r12
 2965 13b5 4889D3   		movq	%rdx, %rbx
 2966 13b8 488D8540 		leaq	-448(%rbp), %rax
 2966      FEFFFF
 2967 13bf 4889C7   		movq	%rax, %rdi
 2968 13c2 E845FFFF 		call	_ZN8UnitTest12_GLOBAL__N_165DeferredTestReporterFixtureReportFailureSavesFailureDetailsHelper
 2968      FF
 2969 13c7 4C89E0   		movq	%r12, %rax
 2970 13ca 4889DA   		movq	%rbx, %rdx
 2971 13cd EB04     		jmp	.L149
 2972              	.L161:
 2973 13cf F30F1EFA 		endbr64
 2974              	.L149:
 2975              	.LBE51:
 2976 13d3 4883FA01 		cmpq	$1, %rdx
 2977 13d7 740F     		je	.L150
 2978 13d9 4883FA02 		cmpq	$2, %rdx
 2979 13dd 0F84A700 		je	.L151
 2979      0000
 2980 13e3 E94D0100 		jmp	.L167
 2980      00
 2981              	.L150:
 2982              	.LBB52:
 2983              		.loc 3 71 1 discriminator 4
 2984 13e8 4889C7   		movq	%rax, %rdi
 2985 13eb E8000000 		call	__cxa_begin_catch@PLT
 2985      00
 2986 13f0 48898518 		movq	%rax, -488(%rbp)
 2986      FEFFFF
 2987              	.LEHB77:
 2988 13f7 E8000000 		call	_ZN8UnitTest11CurrentTest7ResultsEv@PLT
 2988      00
 2989 13fc 488B18   		movq	(%rax), %rbx
 2990 13ff 488B8518 		movq	-488(%rbp), %rax
 2990      FEFFFF
 2991 1406 488B00   		movq	(%rax), %rax
 2992 1409 4883C010 		addq	$16, %rax
 2993 140d 488B10   		movq	(%rax), %rdx
 2994 1410 488B8518 		movq	-488(%rbp), %rax
 2994      FEFFFF
 2995 1417 4889C7   		movq	%rax, %rdi
 2996 141a FFD2     		call	*%rdx
 2997              	.LVL6:
 2998 141c 4989C4   		movq	%rax, %r12
 2999 141f 488B8518 		movq	-488(%rbp), %rax
 2999      FEFFFF
 3000 1426 4889C7   		movq	%rax, %rdi
 3001 1429 E8000000 		call	_ZNK8UnitTest15AssertException10LineNumberEv@PLT
 3001      00
 3002              		.loc 3 71 1 discriminator 8
 3003 142e 4189C5   		movl	%eax, %r13d
 3004 1431 488B8518 		movq	-488(%rbp), %rax
 3004      FEFFFF
 3005 1438 4889C7   		movq	%rax, %rdi
 3006 143b E8000000 		call	_ZNK8UnitTest15AssertException8FilenameEv@PLT
 3006      00
 3007              		.loc 3 71 1 discriminator 10
 3008 1440 4889C1   		movq	%rax, %rcx
 3009 1443 488B85F8 		movq	-520(%rbp), %rax
 3009      FDFFFF
 3010 144a 488B5008 		movq	8(%rax), %rdx
 3011 144e 488B85F8 		movq	-520(%rbp), %rax
 3011      FDFFFF
 3012 1455 488B7010 		movq	16(%rax), %rsi
 3013 1459 488D8520 		leaq	-480(%rbp), %rax
 3013      FEFFFF
 3014 1460 4589E8   		movl	%r13d, %r8d
 3015 1463 4889C7   		movq	%rax, %rdi
 3016 1466 E8000000 		call	_ZN8UnitTest11TestDetailsC1EPKcS2_S2_i@PLT
 3016      00
 3017              		.loc 3 71 1 discriminator 14
 3018 146b 488D8520 		leaq	-480(%rbp), %rax
 3018      FEFFFF
 3019 1472 4C89E2   		movq	%r12, %rdx
 3020 1475 4889C6   		movq	%rax, %rsi
 3021 1478 4889DF   		movq	%rbx, %rdi
 3022 147b E8000000 		call	_ZN8UnitTest11TestResults13OnTestFailureERKNS_11TestDetailsEPKc@PLT
 3022      00
 3023              	.LEHE77:
 3024              		.loc 3 71 1 discriminator 16
 3025 1480 E8000000 		call	__cxa_end_catch@PLT
 3025      00
 3026              	.LBE52:
 3027 1485 E9A80100 		jmp	.L147
 3027      00
 3028              	.L151:
 3029              	.LBB53:
 3030              		.loc 3 71 1 discriminator 5
 3031 148a 4889C7   		movq	%rax, %rdi
 3032 148d E8000000 		call	__cxa_begin_catch@PLT
 3032      00
 3033 1492 48898510 		movq	%rax, -496(%rbp)
 3033      FEFFFF
 3034              	.LBB54:
 3035 1499 488D8540 		leaq	-448(%rbp), %rax
 3035      FEFFFF
 3036 14a0 4889C7   		movq	%rax, %rdi
 3037              	.LEHB78:
 3038 14a3 E8000000 		call	_ZN8UnitTest15MemoryOutStreamC1Ev
 3038      00
 3039              	.LEHE78:
 3040              		.loc 3 71 1 discriminator 18
 3041 14a8 488D8540 		leaq	-448(%rbp), %rax
 3041      FEFFFF
 3042 14af 488D1500 		leaq	.LC6(%rip), %rdx
 3042      000000
 3043 14b6 4889D6   		movq	%rdx, %rsi
 3044 14b9 4889C7   		movq	%rax, %rdi
 3045              	.LEHB79:
 3046 14bc E8000000 		call	_ZStlsISt11char_traitsIcEERSt13basic_ostreamIcT_ES5_PKc@PLT
 3046      00
 3047 14c1 4889C3   		movq	%rax, %rbx
 3048 14c4 488B8510 		movq	-496(%rbp), %rax
 3048      FEFFFF
 3049 14cb 488B00   		movq	(%rax), %rax
 3050 14ce 4883C010 		addq	$16, %rax
 3051 14d2 488B10   		movq	(%rax), %rdx
 3052 14d5 488B8510 		movq	-496(%rbp), %rax
 3052      FEFFFF
 3053 14dc 4889C7   		movq	%rax, %rdi
 3054 14df FFD2     		call	*%rdx
 3055              	.LVL7:
 3056 14e1 4889C6   		movq	%rax, %rsi
 3057 14e4 4889DF   		movq	%rbx, %rdi
 3058 14e7 E8000000 		call	_ZStlsISt11char_traitsIcEERSt13basic_ostreamIcT_ES5_PKc@PLT
 3058      00
 3059              		.loc 3 71 1 discriminator 22
 3060 14ec E8000000 		call	_ZN8UnitTest11CurrentTest7ResultsEv@PLT
 3060      00
 3061 14f1 488B18   		movq	(%rax), %rbx
 3062 14f4 488D8540 		leaq	-448(%rbp), %rax
 3062      FEFFFF
 3063 14fb 4889C7   		movq	%rax, %rdi
 3064 14fe E8000000 		call	_ZNK8UnitTest15MemoryOutStream7GetTextEv@PLT
 3064      00
 3065              		.loc 3 71 1 discriminator 24
 3066 1503 4889C2   		movq	%rax, %rdx
 3067 1506 488B85F8 		movq	-520(%rbp), %rax
 3067      FDFFFF
 3068 150d 4883C008 		addq	$8, %rax
 3069 1511 4889C6   		movq	%rax, %rsi
 3070 1514 4889DF   		movq	%rbx, %rdi
 3071 1517 E8000000 		call	_ZN8UnitTest11TestResults13OnTestFailureERKNS_11TestDetailsEPKc@PLT
 3071      00
 3072              	.LEHE79:
 3073              		.loc 3 71 1 discriminator 28
 3074 151c 488D8540 		leaq	-448(%rbp), %rax
 3074      FEFFFF
 3075 1523 4889C7   		movq	%rax, %rdi
 3076              	.LEHB80:
 3077 1526 E8000000 		call	_ZN8UnitTest15MemoryOutStreamD1Ev
 3077      00
 3078              	.LEHE80:
 3079              	.LBE54:
 3080              		.loc 3 71 1 discriminator 29
 3081 152b E8000000 		call	__cxa_end_catch@PLT
 3081      00
 3082              	.LBE53:
 3083 1530 E9FD0000 		jmp	.L147
 3083      00
 3084              	.L167:
 3085              		.loc 3 71 1 discriminator 6
 3086 1535 4889C7   		movq	%rax, %rdi
 3087 1538 E8000000 		call	__cxa_begin_catch@PLT
 3087      00
 3088 153d 80BD0FFE 		cmpb	$0, -497(%rbp)
 3088      FFFF00
 3089 1544 7445     		je	.L154
 3090              	.LEHB81:
 3091              		.loc 3 71 1 discriminator 31
 3092 1546 E8000000 		call	_ZN8UnitTest11CurrentTest7ResultsEv@PLT
 3092      00
 3093 154b 488B18   		movq	(%rax), %rbx
 3094 154e 488B85F8 		movq	-520(%rbp), %rax
 3094      FDFFFF
 3095 1555 488D4808 		leaq	8(%rax), %rcx
 3096 1559 488D8520 		leaq	-480(%rbp), %rax
 3096      FEFFFF
 3097 1560 BA470000 		movl	$71, %edx
 3097      00
 3098 1565 4889CE   		movq	%rcx, %rsi
 3099 1568 4889C7   		movq	%rax, %rdi
 3100 156b E8000000 		call	_ZN8UnitTest11TestDetailsC1ERKS0_i@PLT
 3100      00
 3101              		.loc 3 71 1 discriminator 36
 3102 1570 488D8520 		leaq	-480(%rbp), %rax
 3102      FEFFFF
 3103 1577 488D1500 		leaq	.LC7(%rip), %rdx
 3103      000000
 3104 157e 4889C6   		movq	%rax, %rsi
 3105 1581 4889DF   		movq	%rbx, %rdi
 3106 1584 E8000000 		call	_ZN8UnitTest11TestResults13OnTestFailureERKNS_11TestDetailsEPKc@PLT
 3106      00
 3107 1589 EB43     		jmp	.L155
 3108              	.L154:
 3109              		.loc 3 71 1 discriminator 32
 3110 158b E8000000 		call	_ZN8UnitTest11CurrentTest7ResultsEv@PLT
 3110      00
 3111 1590 488B18   		movq	(%rax), %rbx
 3112 1593 488B85F8 		movq	-520(%rbp), %rax
 3112      FDFFFF
 3113 159a 488D4808 		leaq	8(%rax), %rcx
 3114 159e 488D8520 		leaq	-480(%rbp), %rax
 3114      FEFFFF
 3115 15a5 BA470000 		movl	$71, %edx
 3115      00
 3116 15aa 4889CE   		movq	%rcx, %rsi
 3117 15ad 4889C7   		movq	%rax, %rdi
 3118 15b0 E8000000 		call	_ZN8UnitTest11TestDetailsC1ERKS0_i@PLT
 3118      00
 3119              		.loc 3 71 1 discriminator 43
 3120 15b5 488D8520 		leaq	-480(%rbp), %rax
 3120      FEFFFF
 3121 15bc 488D1500 		leaq	.LC8(%rip), %rdx
 3121      000000
 3122 15c3 4889C6   		movq	%rax, %rsi
 3123 15c6 4889DF   		movq	%rbx, %rdi
 3124 15c9 E8000000 		call	_ZN8UnitTest11TestResults13OnTestFailureERKNS_11TestDetailsEPKc@PLT
 3124      00
 3125              	.LEHE81:
 3126              	.L155:
 3127              	.LEHB82:
 3128              		.loc 3 71 1 discriminator 46
 3129 15ce E8000000 		call	__cxa_end_catch@PLT
 3129      00
 3130 15d3 EB5D     		jmp	.L147
 3131              	.L163:
 3132 15d5 F30F1EFA 		endbr64
 3133              	.LBB56:
 3134              		.loc 3 71 1
 3135 15d9 4889C3   		movq	%rax, %rbx
 3136 15dc E8000000 		call	__cxa_end_catch@PLT
 3136      00
 3137 15e1 4889D8   		movq	%rbx, %rax
 3138 15e4 4889C7   		movq	%rax, %rdi
 3139 15e7 E8000000 		call	_Unwind_Resume@PLT
 3139      00
 3140              	.LEHE82:
 3141              	.L165:
 3142 15ec F30F1EFA 		endbr64
 3143              	.LBE56:
 3144              	.LBB57:
 3145              	.LBB55:
 3146 15f0 4889C3   		movq	%rax, %rbx
 3147 15f3 488D8540 		leaq	-448(%rbp), %rax
 3147      FEFFFF
 3148 15fa 4889C7   		movq	%rax, %rdi
 3149 15fd E8000000 		call	_ZN8UnitTest15MemoryOutStreamD1Ev
 3149      00
 3150 1602 EB07     		jmp	.L158
 3151              	.L164:
 3152 1604 F30F1EFA 		endbr64
 3153              	.LBE55:
 3154 1608 4889C3   		movq	%rax, %rbx
 3155              	.L158:
 3156 160b E8000000 		call	__cxa_end_catch@PLT
 3156      00
 3157 1610 4889D8   		movq	%rbx, %rax
 3158 1613 4889C7   		movq	%rax, %rdi
 3159              	.LEHB83:
 3160 1616 E8000000 		call	_Unwind_Resume@PLT
 3160      00
 3161              	.LEHE83:
 3162              	.L166:
 3163 161b F30F1EFA 		endbr64
 3164              	.LBE57:
 3165 161f 4889C3   		movq	%rax, %rbx
 3166 1622 E8000000 		call	__cxa_end_catch@PLT
 3166      00
 3167 1627 4889D8   		movq	%rbx, %rax
 3168 162a 4889C7   		movq	%rax, %rdi
 3169              	.LEHB84:
 3170 162d E8000000 		call	_Unwind_Resume@PLT
 3170      00
 3171              	.LEHE84:
 3172              	.L147:
 3173 1632 488B45D8 		movq	-40(%rbp), %rax
 3174 1636 64482B04 		subq	%fs:40, %rax
 3174      25280000 
 3174      00
 3175 163f 7405     		je	.L160
 3176 1641 E8000000 		call	__stack_chk_fail@PLT
 3176      00
 3177              	.L160:
 3178 1646 4881C4F8 		addq	$504, %rsp
 3178      010000
 3179 164d 5B       		popq	%rbx
 3180 164e 415C     		popq	%r12
 3181 1650 415D     		popq	%r13
 3182 1652 5D       		popq	%rbp
 3183              		.cfi_def_cfa 7, 8
 3184 1653 C3       		ret
 3185              		.cfi_endproc
 3186              	.LFE1464:
 3187              		.section	.gcc_except_table
 3188              		.align 4
 3189              	.LLSDA1464:
 3190 01d0 FF       		.byte	0xff
 3191 01d1 9B       		.byte	0x9b
 3192 01d2 55       		.uleb128 .LLSDATT1464-.LLSDATTD1464
 3193              	.LLSDATTD1464:
 3194 01d3 01       		.byte	0x1
 3195 01d4 3E       		.uleb128 .LLSDACSE1464-.LLSDACSB1464
 3196              	.LLSDACSB1464:
 3197 01d5 49       		.uleb128 .LEHB74-.LFB1464
 3198 01d6 05       		.uleb128 .LEHE74-.LEHB74
 3199 01d7 A701     		.uleb128 .L161-.LFB1464
 3200 01d9 05       		.uleb128 0x5
 3201 01da 6D       		.uleb128 .LEHB75-.LFB1464
 3202 01db 05       		.uleb128 .LEHE75-.LEHB75
 3203 01dc 8601     		.uleb128 .L162-.LFB1464
 3204 01de 07       		.uleb128 0x7
 3205 01df 7C       		.uleb128 .LEHB76-.LFB1464
 3206 01e0 05       		.uleb128 .LEHE76-.LEHB76
 3207 01e1 A701     		.uleb128 .L161-.LFB1464
 3208 01e3 05       		.uleb128 0x5
 3209 01e4 CF01     		.uleb128 .LEHB77-.LFB1464
 3210 01e6 8901     		.uleb128 .LEHE77-.LEHB77
 3211 01e8 AD05     		.uleb128 .L163-.LFB1464
 3212 01ea 00       		.uleb128 0
 3213 01eb FB02     		.uleb128 .LEHB78-.LFB1464
 3214 01ed 05       		.uleb128 .LEHE78-.LEHB78
 3215 01ee DC05     		.uleb128 .L164-.LFB1464
 3216 01f0 00       		.uleb128 0
 3217 01f1 9403     		.uleb128 .LEHB79-.LFB1464
 3218 01f3 60       		.uleb128 .LEHE79-.LEHB79
 3219 01f4 C405     		.uleb128 .L165-.LFB1464
 3220 01f6 00       		.uleb128 0
 3221 01f7 FE03     		.uleb128 .LEHB80-.LFB1464
 3222 01f9 05       		.uleb128 .LEHE80-.LEHB80
 3223 01fa DC05     		.uleb128 .L164-.LFB1464
 3224 01fc 00       		.uleb128 0
 3225 01fd 9E04     		.uleb128 .LEHB81-.LFB1464
 3226 01ff 8801     		.uleb128 .LEHE81-.LEHB81
 3227 0201 F305     		.uleb128 .L166-.LFB1464
 3228 0203 00       		.uleb128 0
 3229 0204 A605     		.uleb128 .LEHB82-.LFB1464
 3230 0206 1E       		.uleb128 .LEHE82-.LEHB82
 3231 0207 00       		.uleb128 0
 3232 0208 00       		.uleb128 0
 3233 0209 EE05     		.uleb128 .LEHB83-.LFB1464
 3234 020b 05       		.uleb128 .LEHE83-.LEHB83
 3235 020c 00       		.uleb128 0
 3236 020d 00       		.uleb128 0
 3237 020e 8506     		.uleb128 .LEHB84-.LFB1464
 3238 0210 05       		.uleb128 .LEHE84-.LEHB84
 3239 0211 00       		.uleb128 0
 3240 0212 00       		.uleb128 0
 3241              	.LLSDACSE1464:
 3242 0213 03       		.byte	0x3
 3243 0214 00       		.byte	0
 3244 0215 02       		.byte	0x2
 3245 0216 7D       		.byte	0x7d
 3246 0217 01       		.byte	0x1
 3247 0218 7D       		.byte	0x7d
 3248 0219 00       		.byte	0
 3249 021a 7D       		.byte	0x7d
 3250 021b 00       		.align 4
 3251 021c 00000000 		.long	0
 3252              	
 3253 0220 00000000 		.long	DW.ref._ZTISt9exception-.
 3254 0224 00000000 		.long	DW.ref._ZTIN8UnitTest15AssertExceptionE-.
 3255              	.LLSDATT1464:
 3256              		.text
 3258              		.section	.rodata
 3259              	.LC18:
 3260 02c1 6661696C 		.string	"failure"
 3260      75726500 
 3261              	.LC19:
 3262 02c9 72657375 		.string	"result.failed == true"
 3262      6C742E66 
 3262      61696C65 
 3262      64203D3D 
 3262      20747275 
 3263 02df 00       		.align 8
 3264              	.LC20:
 3265 02e0 556E6861 		.string	"Unhandled exception in CHECK(result.failed == true)"
 3265      6E646C65 
 3265      64206578 
 3265      63657074 
 3265      696F6E20 
 3266 0314 00000000 		.align 8
 3267              	.LC21:
 3268 0318 556E6861 		.string	"Unhandled exception in CHECK_EQUAL(fileName.c_str(), result.failureFile)"
 3268      6E646C65 
 3268      64206578 
 3268      63657074 
 3268      696F6E20 
 3269              		.text
 3270              		.align 2
 3272              	_ZN8UnitTest12_GLOBAL__N_165DeferredTestReporterFixtureReportFailureSavesFailureDetailsHelper7RunIm
 3273              	.LFB1468:
  72:TestDeferredTestReporter.cpp **** {
 3274              		.loc 3 72 1 is_stmt 1
 3275              		.cfi_startproc
 3276              		.cfi_personality 0x9b,DW.ref.__gxx_personality_v0
 3277              		.cfi_lsda 0x1b,.LLSDA1468
 3278 1654 F30F1EFA 		endbr64
 3279 1658 55       		pushq	%rbp
 3280              		.cfi_def_cfa_offset 16
 3281              		.cfi_offset 6, -16
 3282 1659 4889E5   		movq	%rsp, %rbp
 3283              		.cfi_def_cfa_register 6
 3284 165c 53       		pushq	%rbx
 3285 165d 4883EC68 		subq	$104, %rsp
 3286              		.cfi_offset 3, -24
 3287 1661 48897D98 		movq	%rdi, -104(%rbp)
 3288              		.loc 3 72 1
 3289 1665 64488B04 		movq	%fs:40, %rax
 3289      25280000 
 3289      00
 3290 166e 488945E8 		movq	%rax, -24(%rbp)
 3291 1672 31C0     		xorl	%eax, %eax
  73:TestDeferredTestReporter.cpp ****     char const* failure = "failure";
 3292              		.loc 3 73 17
 3293 1674 488D0500 		leaq	.LC18(%rip), %rax
 3293      000000
 3294 167b 488945B0 		movq	%rax, -80(%rbp)
  74:TestDeferredTestReporter.cpp **** 
  75:TestDeferredTestReporter.cpp ****     reporter.ReportTestStart(details);
 3295              		.loc 3 75 29
 3296 167f 488B4598 		movq	-104(%rbp), %rax
 3297              		.loc 3 75 30
 3298 1683 488B5598 		movq	-104(%rbp), %rdx
 3299 1687 4881C288 		addq	$136, %rdx
 3299      000000
 3300              		.loc 3 75 29
 3301 168e 4889D6   		movq	%rdx, %rsi
 3302 1691 4889C7   		movq	%rax, %rdi
 3303              	.LEHB85:
 3304 1694 E8000000 		call	_ZN8UnitTest20DeferredTestReporter15ReportTestStartERKNS_11TestDetailsE@PLT
 3304      00
  76:TestDeferredTestReporter.cpp ****     reporter.ReportFailure(details, failure);
 3305              		.loc 3 76 27
 3306 1699 488B4598 		movq	-104(%rbp), %rax
 3307              		.loc 3 76 28
 3308 169d 488B5598 		movq	-104(%rbp), %rdx
 3309 16a1 488D8A88 		leaq	136(%rdx), %rcx
 3309      000000
 3310              		.loc 3 76 27
 3311 16a8 488B55B0 		movq	-80(%rbp), %rdx
 3312 16ac 4889CE   		movq	%rcx, %rsi
 3313 16af 4889C7   		movq	%rax, %rdi
 3314 16b2 E8000000 		call	_ZN8UnitTest20DeferredTestReporter13ReportFailureERKNS_11TestDetailsEPKc@PLT
 3314      00
  77:TestDeferredTestReporter.cpp **** 
  78:TestDeferredTestReporter.cpp ****     DeferredTestResult const& result = reporter.GetResults().at(0);
 3315              		.loc 3 78 59
 3316 16b7 488B4598 		movq	-104(%rbp), %rax
 3317 16bb 4889C7   		movq	%rax, %rdi
 3318 16be E8000000 		call	_ZN8UnitTest20DeferredTestReporter10GetResultsEv@PLT
 3318      00
 3319              		.loc 3 78 64
 3320 16c3 BE000000 		movl	$0, %esi
 3320      00
 3321 16c8 4889C7   		movq	%rax, %rdi
 3322 16cb E8000000 		call	_ZNSt6vectorIN8UnitTest18DeferredTestResultESaIS1_EE2atEm
 3322      00
 3323              	.LEHE85:
 3324 16d0 488945B8 		movq	%rax, -72(%rbp)
  79:TestDeferredTestReporter.cpp ****     CHECK(result.failed == true);
 3325              		.loc 3 79 5
 3326 16d4 488B45B8 		movq	-72(%rbp), %rax
 3327 16d8 0FB6407C 		movzbl	124(%rax), %eax
 3328 16dc 0FB6C0   		movzbl	%al, %eax
 3329 16df 89C7     		movl	%eax, %edi
 3330 16e1 E8000000 		call	_ZN8UnitTest5CheckIbEEbT_
 3330      00
 3331 16e6 83F001   		xorl	$1, %eax
 3332 16e9 84C0     		testb	%al, %al
 3333 16eb 743A     		je	.L169
 3334              	.LEHB86:
 3335              		.loc 3 79 5 is_stmt 0 discriminator 1
 3336 16ed E8000000 		call	_ZN8UnitTest11CurrentTest7ResultsEv@PLT
 3336      00
 3337 16f2 488B18   		movq	(%rax), %rbx
 3338 16f5 E8000000 		call	_ZN8UnitTest11CurrentTest7DetailsEv@PLT
 3338      00
 3339              		.loc 3 79 5 discriminator 3
 3340 16fa 488B08   		movq	(%rax), %rcx
 3341 16fd 488D45C0 		leaq	-64(%rbp), %rax
 3342 1701 BA4F0000 		movl	$79, %edx
 3342      00
 3343 1706 4889CE   		movq	%rcx, %rsi
 3344 1709 4889C7   		movq	%rax, %rdi
 3345 170c E8000000 		call	_ZN8UnitTest11TestDetailsC1ERKS0_i@PLT
 3345      00
 3346              		.loc 3 79 5 discriminator 7
 3347 1711 488D45C0 		leaq	-64(%rbp), %rax
 3348 1715 488D1500 		leaq	.LC19(%rip), %rdx
 3348      000000
 3349 171c 4889C6   		movq	%rax, %rsi
 3350 171f 4889DF   		movq	%rbx, %rdi
 3351 1722 E8000000 		call	_ZN8UnitTest11TestResults13OnTestFailureERKNS_11TestDetailsEPKc@PLT
 3351      00
 3352              	.LEHE86:
 3353              	.L169:
 3354              	.LEHB87:
  80:TestDeferredTestReporter.cpp ****     CHECK_EQUAL(fileName.c_str(), result.failureFile);
 3355              		.loc 3 80 5 is_stmt 1
 3356 1727 E8000000 		call	_ZN8UnitTest11CurrentTest7DetailsEv@PLT
 3356      00
 3357 172c 488B08   		movq	(%rax), %rcx
 3358 172f 488D45C0 		leaq	-64(%rbp), %rax
 3359 1733 BA500000 		movl	$80, %edx
 3359      00
 3360 1738 4889CE   		movq	%rcx, %rsi
 3361 173b 4889C7   		movq	%rax, %rdi
 3362 173e E8000000 		call	_ZN8UnitTest11TestDetailsC1ERKS0_i@PLT
 3362      00
 3363              		.loc 3 80 5 is_stmt 0 discriminator 4
 3364 1743 488B45B8 		movq	-72(%rbp), %rax
 3365 1747 488D5840 		leaq	64(%rax), %rbx
 3366 174b 488B4598 		movq	-104(%rbp), %rax
 3367 174f 4883C060 		addq	$96, %rax
 3368 1753 4889C7   		movq	%rax, %rdi
 3369 1756 E8000000 		call	_ZNKSt7__cxx1112basic_stringIcSt11char_traitsIcESaIcEE5c_strEv@PLT
 3369      00
 3370 175b 488945A8 		movq	%rax, -88(%rbp)
 3371 175f E8000000 		call	_ZN8UnitTest11CurrentTest7ResultsEv@PLT
 3371      00
 3372              		.loc 3 80 5 discriminator 6
 3373 1764 488B00   		movq	(%rax), %rax
 3374 1767 488D55C0 		leaq	-64(%rbp), %rdx
 3375 176b 488D75A8 		leaq	-88(%rbp), %rsi
 3376 176f 4889D1   		movq	%rdx, %rcx
 3377 1772 4889DA   		movq	%rbx, %rdx
 3378 1775 4889C7   		movq	%rax, %rdi
 3379 1778 E8000000 		call	_ZN8UnitTest10CheckEqualIPKcNSt7__cxx1112basic_stringIcSt11char_traitsIcESaIcEEEEEvRNS_11Test
 3379      00
 3380              	.LEHE87:
  81:TestDeferredTestReporter.cpp **** }
 3381              		.loc 3 81 1 is_stmt 1
 3382 177d E9CB0000 		jmp	.L168
 3382      00
 3383              	.L176:
 3384 1782 F30F1EFA 		endbr64
  79:TestDeferredTestReporter.cpp ****     CHECK(result.failed == true);
 3385              		.loc 3 79 5
 3386 1786 4889C7   		movq	%rax, %rdi
 3387 1789 E8000000 		call	__cxa_begin_catch@PLT
 3387      00
 3388              	.LEHB88:
 3389 178e E8000000 		call	_ZN8UnitTest11CurrentTest7ResultsEv@PLT
 3389      00
  79:TestDeferredTestReporter.cpp ****     CHECK(result.failed == true);
 3390              		.loc 3 79 5 is_stmt 0 discriminator 6
 3391 1793 488B18   		movq	(%rax), %rbx
 3392 1796 E8000000 		call	_ZN8UnitTest11CurrentTest7DetailsEv@PLT
 3392      00
  79:TestDeferredTestReporter.cpp ****     CHECK(result.failed == true);
 3393              		.loc 3 79 5 discriminator 12
 3394 179b 488B08   		movq	(%rax), %rcx
 3395 179e 488D45C0 		leaq	-64(%rbp), %rax
 3396 17a2 BA4F0000 		movl	$79, %edx
 3396      00
 3397 17a7 4889CE   		movq	%rcx, %rsi
 3398 17aa 4889C7   		movq	%rax, %rdi
 3399 17ad E8000000 		call	_ZN8UnitTest11TestDetailsC1ERKS0_i@PLT
 3399      00
  79:TestDeferredTestReporter.cpp ****     CHECK(result.failed == true);
 3400              		.loc 3 79 5 discriminator 16
 3401 17b2 488D45C0 		leaq	-64(%rbp), %rax
 3402 17b6 488D1500 		leaq	.LC20(%rip), %rdx
 3402      000000
 3403 17bd 4889C6   		movq	%rax, %rsi
 3404 17c0 4889DF   		movq	%rbx, %rdi
 3405 17c3 E8000000 		call	_ZN8UnitTest11TestResults13OnTestFailureERKNS_11TestDetailsEPKc@PLT
 3405      00
 3406              	.LEHE88:
 3407              	.LEHB89:
  79:TestDeferredTestReporter.cpp ****     CHECK(result.failed == true);
 3408              		.loc 3 79 5 discriminator 18
 3409 17c8 E8000000 		call	__cxa_end_catch@PLT
 3409      00
 3410              	.LEHE89:
 3411 17cd E955FFFF 		jmp	.L169
 3411      FF
 3412              	.L177:
 3413 17d2 F30F1EFA 		endbr64
  79:TestDeferredTestReporter.cpp ****     CHECK(result.failed == true);
 3414              		.loc 3 79 5
 3415 17d6 4889C3   		movq	%rax, %rbx
 3416 17d9 E8000000 		call	__cxa_end_catch@PLT
 3416      00
 3417 17de 4889D8   		movq	%rbx, %rax
 3418 17e1 4889C7   		movq	%rax, %rdi
 3419              	.LEHB90:
 3420 17e4 E8000000 		call	_Unwind_Resume@PLT
 3420      00
 3421              	.LEHE90:
 3422              	.L178:
 3423 17e9 F30F1EFA 		endbr64
  80:TestDeferredTestReporter.cpp ****     CHECK_EQUAL(fileName.c_str(), result.failureFile);
 3424              		.loc 3 80 5 is_stmt 1
 3425 17ed 4889C7   		movq	%rax, %rdi
 3426 17f0 E8000000 		call	__cxa_begin_catch@PLT
 3426      00
 3427              	.LEHB91:
 3428 17f5 E8000000 		call	_ZN8UnitTest11CurrentTest7ResultsEv@PLT
 3428      00
  80:TestDeferredTestReporter.cpp ****     CHECK_EQUAL(fileName.c_str(), result.failureFile);
 3429              		.loc 3 80 5 is_stmt 0 discriminator 3
 3430 17fa 488B18   		movq	(%rax), %rbx
 3431 17fd E8000000 		call	_ZN8UnitTest11CurrentTest7DetailsEv@PLT
 3431      00
  80:TestDeferredTestReporter.cpp ****     CHECK_EQUAL(fileName.c_str(), result.failureFile);
 3432              		.loc 3 80 5 discriminator 13
 3433 1802 488B08   		movq	(%rax), %rcx
 3434 1805 488D45C0 		leaq	-64(%rbp), %rax
 3435 1809 BA500000 		movl	$80, %edx
 3435      00
 3436 180e 4889CE   		movq	%rcx, %rsi
 3437 1811 4889C7   		movq	%rax, %rdi
 3438 1814 E8000000 		call	_ZN8UnitTest11TestDetailsC1ERKS0_i@PLT
 3438      00
  80:TestDeferredTestReporter.cpp ****     CHECK_EQUAL(fileName.c_str(), result.failureFile);
 3439              		.loc 3 80 5 discriminator 17
 3440 1819 488D45C0 		leaq	-64(%rbp), %rax
 3441 181d 488D1500 		leaq	.LC21(%rip), %rdx
 3441      000000
 3442 1824 4889C6   		movq	%rax, %rsi
 3443 1827 4889DF   		movq	%rbx, %rdi
 3444 182a E8000000 		call	_ZN8UnitTest11TestResults13OnTestFailureERKNS_11TestDetailsEPKc@PLT
 3444      00
 3445              	.LEHE91:
 3446              	.LEHB92:
  80:TestDeferredTestReporter.cpp ****     CHECK_EQUAL(fileName.c_str(), result.failureFile);
 3447              		.loc 3 80 5 discriminator 19
 3448 182f E8000000 		call	__cxa_end_catch@PLT
 3448      00
 3449              	.LEHE92:
 3450              		.loc 3 81 1 is_stmt 1 discriminator 19
 3451 1834 EB17     		jmp	.L168
 3452              	.L179:
 3453 1836 F30F1EFA 		endbr64
  80:TestDeferredTestReporter.cpp ****     CHECK_EQUAL(fileName.c_str(), result.failureFile);
 3454              		.loc 3 80 5
 3455 183a 4889C3   		movq	%rax, %rbx
 3456 183d E8000000 		call	__cxa_end_catch@PLT
 3456      00
 3457 1842 4889D8   		movq	%rbx, %rax
 3458 1845 4889C7   		movq	%rax, %rdi
 3459              	.LEHB93:
 3460 1848 E8000000 		call	_Unwind_Resume@PLT
 3460      00
 3461              	.LEHE93:
 3462              	.L168:
 3463              		.loc 3 81 1
 3464 184d 488B45E8 		movq	-24(%rbp), %rax
 3465 1851 64482B04 		subq	%fs:40, %rax
 3465      25280000 
 3465      00
 3466 185a 7405     		je	.L175
 3467 185c E8000000 		call	__stack_chk_fail@PLT
 3467      00
 3468              	.L175:
 3469 1861 488B5DF8 		movq	-8(%rbp), %rbx
 3470 1865 C9       		leave
 3471              		.cfi_def_cfa 7, 8
 3472 1866 C3       		ret
 3473              		.cfi_endproc
 3474              	.LFE1468:
 3475              		.section	.gcc_except_table
 3476              		.align 4
 3477              	.LLSDA1468:
 3478 0228 FF       		.byte	0xff
 3479 0229 9B       		.byte	0x9b
 3480 022a 39       		.uleb128 .LLSDATT1468-.LLSDATTD1468
 3481              	.LLSDATTD1468:
 3482 022b 01       		.byte	0x1
 3483 022c 30       		.uleb128 .LLSDACSE1468-.LLSDACSB1468
 3484              	.LLSDACSB1468:
 3485 022d 40       		.uleb128 .LEHB85-.LFB1468
 3486 022e 3C       		.uleb128 .LEHE85-.LEHB85
 3487 022f 00       		.uleb128 0
 3488 0230 00       		.uleb128 0
 3489 0231 9901     		.uleb128 .LEHB86-.LFB1468
 3490 0233 3A       		.uleb128 .LEHE86-.LEHB86
 3491 0234 AE02     		.uleb128 .L176-.LFB1468
 3492 0236 01       		.uleb128 0x1
 3493 0237 D301     		.uleb128 .LEHB87-.LFB1468
 3494 0239 56       		.uleb128 .LEHE87-.LEHB87
 3495 023a 9503     		.uleb128 .L178-.LFB1468
 3496 023c 01       		.uleb128 0x1
 3497 023d BA02     		.uleb128 .LEHB88-.LFB1468
 3498 023f 3A       		.uleb128 .LEHE88-.LEHB88
 3499 0240 FE02     		.uleb128 .L177-.LFB1468
 3500 0242 00       		.uleb128 0
 3501 0243 F402     		.uleb128 .LEHB89-.LFB1468
 3502 0245 05       		.uleb128 .LEHE89-.LEHB89
 3503 0246 00       		.uleb128 0
 3504 0247 00       		.uleb128 0
 3505 0248 9003     		.uleb128 .LEHB90-.LFB1468
 3506 024a 05       		.uleb128 .LEHE90-.LEHB90
 3507 024b 00       		.uleb128 0
 3508 024c 00       		.uleb128 0
 3509 024d A103     		.uleb128 .LEHB91-.LFB1468
 3510 024f 3A       		.uleb128 .LEHE91-.LEHB91
 3511 0250 E203     		.uleb128 .L179-.LFB1468
 3512 0252 00       		.uleb128 0
 3513 0253 DB03     		.uleb128 .LEHB92-.LFB1468
 3514 0255 05       		.uleb128 .LEHE92-.LEHB92
 3515 0256 00       		.uleb128 0
 3516 0257 00       		.uleb128 0
 3517 0258 F403     		.uleb128 .LEHB93-.LFB1468
 3518 025a 05       		.uleb128 .LEHE93-.LEHB93
 3519 025b 00       		.uleb128 0
 3520 025c 00       		.uleb128 0
 3521              	.LLSDACSE1468:
 3522 025d 01       		.byte	0x1
 3523 025e 00       		.byte	0
 3524 025f 00       		.align 4
 3525 0260 00000000 		.long	0
 3526              	
 3527              	.LLSDATT1468:
 3528              		.text
 3530 1867 90       		.align 2
 3532              	_ZN8UnitTest12_GLOBAL__N_184DeferredTestReporterFixtureReportFailureSavesFailureDetailsForMultipleF
 3533              	.LFB1470:
  82:TestDeferredTestReporter.cpp **** 
  83:TestDeferredTestReporter.cpp **** TEST_FIXTURE(DeferredTestReporterFixture, ReportFailureSavesFailureDetailsForMultipleFailures)
 3534              		.loc 3 83 1
 3535              		.cfi_startproc
 3536 1868 55       		pushq	%rbp
 3537              		.cfi_def_cfa_offset 16
 3538              		.cfi_offset 6, -16
 3539 1869 4889E5   		movq	%rsp, %rbp
 3540              		.cfi_def_cfa_register 6
 3541 186c 4883EC10 		subq	$16, %rsp
 3542 1870 48897DF8 		movq	%rdi, -8(%rbp)
 3543 1874 488975F0 		movq	%rsi, -16(%rbp)
 3544              	.LBB58:
 3545              		.loc 3 83 1
 3546 1878 488B45F8 		movq	-8(%rbp), %rax
 3547 187c 4889C7   		movq	%rax, %rdi
 3548 187f E8C4E7FF 		call	_ZN8UnitTest12_GLOBAL__N_127DeferredTestReporterFixtureC2Ev
 3548      FF
 3549 1884 488B45F8 		movq	-8(%rbp), %rax
 3550 1888 488B55F0 		movq	-16(%rbp), %rdx
 3551 188c 488990A8 		movq	%rdx, 168(%rax)
 3551      000000
 3552              	.LBE58:
 3553 1893 90       		nop
 3554 1894 C9       		leave
 3555              		.cfi_def_cfa 7, 8
 3556 1895 C3       		ret
 3557              		.cfi_endproc
 3558              	.LFE1470:
 3560              		.set	_ZN8UnitTest12_GLOBAL__N_184DeferredTestReporterFixtureReportFailureSavesFailureDetailsForMul
 3561              		.section	.rodata
 3562 0361 00000000 		.align 8
 3562      000000
 3563              	.LC22:
 3564 0368 5265706F 		.string	"ReportFailureSavesFailureDetailsForMultipleFailures"
 3564      72744661 
 3564      696C7572 
 3564      65536176 
 3564      65734661 
 3565              		.text
 3566              		.align 2
 3568              	_ZN8UnitTest12_GLOBAL__N_182TestDeferredTestReporterFixtureReportFailureSavesFailureDetailsForMulti
 3569              	.LFB1473:
 3570              		.loc 3 83 1
 3571              		.cfi_startproc
 3572 1896 55       		pushq	%rbp
 3573              		.cfi_def_cfa_offset 16
 3574              		.cfi_offset 6, -16
 3575 1897 4889E5   		movq	%rsp, %rbp
 3576              		.cfi_def_cfa_register 6
 3577 189a 53       		pushq	%rbx
 3578 189b 4883EC18 		subq	$24, %rsp
 3579              		.cfi_offset 3, -24
 3580 189f 48897DE8 		movq	%rdi, -24(%rbp)
 3581              	.LBB59:
 3582              		.loc 3 83 1
 3583 18a3 488B5DE8 		movq	-24(%rbp), %rbx
 3584 18a7 E8000000 		call	_ZN13UnitTestSuite12GetSuiteNameEv
 3584      00
 3585 18ac 4889C2   		movq	%rax, %rdx
 3586 18af 41B85300 		movl	$83, %r8d
 3586      0000
 3587 18b5 488D0500 		leaq	.LC4(%rip), %rax
 3587      000000
 3588 18bc 4889C1   		movq	%rax, %rcx
 3589 18bf 488D0500 		leaq	.LC22(%rip), %rax
 3589      000000
 3590 18c6 4889C6   		movq	%rax, %rsi
 3591 18c9 4889DF   		movq	%rbx, %rdi
 3592 18cc E8000000 		call	_ZN8UnitTest4TestC2EPKcS2_S2_i@PLT
 3592      00
 3593 18d1 488D1500 		leaq	16+_ZTVN8UnitTest12_GLOBAL__N_182TestDeferredTestReporterFixtureReportFailureSavesFailureDeta
 3593      000000
 3594 18d8 488B45E8 		movq	-24(%rbp), %rax
 3595 18dc 488910   		movq	%rdx, (%rax)
 3596              	.LBE59:
 3597 18df 90       		nop
 3598 18e0 488B5DF8 		movq	-8(%rbp), %rbx
 3599 18e4 C9       		leave
 3600              		.cfi_def_cfa 7, 8
 3601 18e5 C3       		ret
 3602              		.cfi_endproc
 3603              	.LFE1473:
 3605              		.set	_ZN8UnitTest12_GLOBAL__N_182TestDeferredTestReporterFixtureReportFailureSavesFailureDetailsFo
 3606              		.local	_ZN8UnitTest12_GLOBAL__N_190testDeferredTestReporterFixtureReportFailureSavesFailureDetails
 3607              		.comm	_ZN8UnitTest12_GLOBAL__N_190testDeferredTestReporterFixtureReportFailureSavesFailureDetailsF
 3608              		.local	_ZN8UnitTest12_GLOBAL__N_183adderDeferredTestReporterFixtureReportFailureSavesFailureDetail
 3609              		.comm	_ZN8UnitTest12_GLOBAL__N_183adderDeferredTestReporterFixtureReportFailureSavesFailureDetails
 3610              		.align 2
 3612              	_ZN8UnitTest12_GLOBAL__N_184DeferredTestReporterFixtureReportFailureSavesFailureDetailsForMultipleF
 3613              	.LFB1477:
 3614              		.loc 3 83 1
 3615              		.cfi_startproc
 3616 18e6 55       		pushq	%rbp
 3617              		.cfi_def_cfa_offset 16
 3618              		.cfi_offset 6, -16
 3619 18e7 4889E5   		movq	%rsp, %rbp
 3620              		.cfi_def_cfa_register 6
 3621 18ea 4883EC10 		subq	$16, %rsp
 3622 18ee 48897DF8 		movq	%rdi, -8(%rbp)
 3623              	.LBB60:
 3624              		.loc 3 83 1
 3625 18f2 488B45F8 		movq	-8(%rbp), %rax
 3626 18f6 4889C7   		movq	%rax, %rdi
 3627 18f9 E844E9FF 		call	_ZN8UnitTest12_GLOBAL__N_127DeferredTestReporterFixtureD2Ev
 3627      FF
 3628              	.LBE60:
 3629 18fe 90       		nop
 3630 18ff C9       		leave
 3631              		.cfi_def_cfa 7, 8
 3632 1900 C3       		ret
 3633              		.cfi_endproc
 3634              	.LFE1477:
 3636              		.set	_ZN8UnitTest12_GLOBAL__N_184DeferredTestReporterFixtureReportFailureSavesFailureDetailsForMul
 3637 1901 90       		.align 2
 3639              	_ZNK8UnitTest12_GLOBAL__N_182TestDeferredTestReporterFixtureReportFailureSavesFailureDetailsForMult
 3640              	.LFB1475:
 3641              		.loc 3 83 1
 3642              		.cfi_startproc
 3643              		.cfi_personality 0x9b,DW.ref.__gxx_personality_v0
 3644              		.cfi_lsda 0x1b,.LLSDA1475
 3645 1902 F30F1EFA 		endbr64
 3646 1906 55       		pushq	%rbp
 3647              		.cfi_def_cfa_offset 16
 3648              		.cfi_offset 6, -16
 3649 1907 4889E5   		movq	%rsp, %rbp
 3650              		.cfi_def_cfa_register 6
 3651 190a 4155     		pushq	%r13
 3652 190c 4154     		pushq	%r12
 3653 190e 53       		pushq	%rbx
 3654 190f 4881ECF8 		subq	$504, %rsp
 3654      010000
 3655              		.cfi_offset 13, -24
 3656              		.cfi_offset 12, -32
 3657              		.cfi_offset 3, -40
 3658 1916 4889BDF8 		movq	%rdi, -520(%rbp)
 3658      FDFFFF
 3659              		.loc 3 83 1
 3660 191d 64488B04 		movq	%fs:40, %rax
 3660      25280000 
 3660      00
 3661 1926 488945D8 		movq	%rax, -40(%rbp)
 3662 192a 31C0     		xorl	%eax, %eax
 3663 192c C6850FFE 		movb	$0, -497(%rbp)
 3663      FFFF00
 3664              	.LBB61:
 3665 1933 488B85F8 		movq	-520(%rbp), %rax
 3665      FDFFFF
 3666 193a 488D5008 		leaq	8(%rax), %rdx
 3667 193e 488D8540 		leaq	-448(%rbp), %rax
 3667      FEFFFF
 3668 1945 4889D6   		movq	%rdx, %rsi
 3669 1948 4889C7   		movq	%rax, %rdi
 3670              	.LEHB94:
 3671 194b E818FFFF 		call	_ZN8UnitTest12_GLOBAL__N_184DeferredTestReporterFixtureReportFailureSavesFailureDetailsForMul
 3671      FF
 3672              	.LEHE94:
 3673              		.loc 3 83 1 is_stmt 0 discriminator 1
 3674 1950 C6850FFE 		movb	$1, -497(%rbp)
 3674      FFFF01
 3675 1957 488B85F8 		movq	-520(%rbp), %rax
 3675      FDFFFF
 3676 195e 488D5008 		leaq	8(%rax), %rdx
 3677 1962 488D8540 		leaq	-448(%rbp), %rax
 3677      FEFFFF
 3678 1969 4889D6   		movq	%rdx, %rsi
 3679 196c 4889C7   		movq	%rax, %rdi
 3680              	.LEHB95:
 3681 196f E8FF1600 		call	_ZN8UnitTest11ExecuteTestINS_12_GLOBAL__N_184DeferredTestReporterFixtureReportFailureSavesFai
 3681      00
 3682              	.LEHE95:
 3683              		.loc 3 83 1 discriminator 3
 3684 1974 488D8540 		leaq	-448(%rbp), %rax
 3684      FEFFFF
 3685 197b 4889C7   		movq	%rax, %rdi
 3686              	.LEHB96:
 3687 197e E863FFFF 		call	_ZN8UnitTest12_GLOBAL__N_184DeferredTestReporterFixtureReportFailureSavesFailureDetailsForMul
 3687      FF
 3688              	.LEHE96:
 3689              	.LBE61:
 3690              		.loc 3 83 1
 3691 1983 E9840200 		jmp	.L183
 3691      00
 3692              	.L198:
 3693 1988 F30F1EFA 		endbr64
 3694              	.LBB62:
 3695 198c 4989C4   		movq	%rax, %r12
 3696 198f 4889D3   		movq	%rdx, %rbx
 3697 1992 488D8540 		leaq	-448(%rbp), %rax
 3697      FEFFFF
 3698 1999 4889C7   		movq	%rax, %rdi
 3699 199c E845FFFF 		call	_ZN8UnitTest12_GLOBAL__N_184DeferredTestReporterFixtureReportFailureSavesFailureDetailsForMul
 3699      FF
 3700 19a1 4C89E0   		movq	%r12, %rax
 3701 19a4 4889DA   		movq	%rbx, %rdx
 3702 19a7 EB04     		jmp	.L185
 3703              	.L197:
 3704 19a9 F30F1EFA 		endbr64
 3705              	.L185:
 3706              	.LBE62:
 3707 19ad 4883FA01 		cmpq	$1, %rdx
 3708 19b1 740F     		je	.L186
 3709 19b3 4883FA02 		cmpq	$2, %rdx
 3710 19b7 0F84A700 		je	.L187
 3710      0000
 3711 19bd E94D0100 		jmp	.L203
 3711      00
 3712              	.L186:
 3713              	.LBB63:
 3714              		.loc 3 83 1 discriminator 4
 3715 19c2 4889C7   		movq	%rax, %rdi
 3716 19c5 E8000000 		call	__cxa_begin_catch@PLT
 3716      00
 3717 19ca 48898518 		movq	%rax, -488(%rbp)
 3717      FEFFFF
 3718              	.LEHB97:
 3719 19d1 E8000000 		call	_ZN8UnitTest11CurrentTest7ResultsEv@PLT
 3719      00
 3720 19d6 488B18   		movq	(%rax), %rbx
 3721 19d9 488B8518 		movq	-488(%rbp), %rax
 3721      FEFFFF
 3722 19e0 488B00   		movq	(%rax), %rax
 3723 19e3 4883C010 		addq	$16, %rax
 3724 19e7 488B10   		movq	(%rax), %rdx
 3725 19ea 488B8518 		movq	-488(%rbp), %rax
 3725      FEFFFF
 3726 19f1 4889C7   		movq	%rax, %rdi
 3727 19f4 FFD2     		call	*%rdx
 3728              	.LVL8:
 3729 19f6 4989C4   		movq	%rax, %r12
 3730 19f9 488B8518 		movq	-488(%rbp), %rax
 3730      FEFFFF
 3731 1a00 4889C7   		movq	%rax, %rdi
 3732 1a03 E8000000 		call	_ZNK8UnitTest15AssertException10LineNumberEv@PLT
 3732      00
 3733              		.loc 3 83 1 discriminator 8
 3734 1a08 4189C5   		movl	%eax, %r13d
 3735 1a0b 488B8518 		movq	-488(%rbp), %rax
 3735      FEFFFF
 3736 1a12 4889C7   		movq	%rax, %rdi
 3737 1a15 E8000000 		call	_ZNK8UnitTest15AssertException8FilenameEv@PLT
 3737      00
 3738              		.loc 3 83 1 discriminator 10
 3739 1a1a 4889C1   		movq	%rax, %rcx
 3740 1a1d 488B85F8 		movq	-520(%rbp), %rax
 3740      FDFFFF
 3741 1a24 488B5008 		movq	8(%rax), %rdx
 3742 1a28 488B85F8 		movq	-520(%rbp), %rax
 3742      FDFFFF
 3743 1a2f 488B7010 		movq	16(%rax), %rsi
 3744 1a33 488D8520 		leaq	-480(%rbp), %rax
 3744      FEFFFF
 3745 1a3a 4589E8   		movl	%r13d, %r8d
 3746 1a3d 4889C7   		movq	%rax, %rdi
 3747 1a40 E8000000 		call	_ZN8UnitTest11TestDetailsC1EPKcS2_S2_i@PLT
 3747      00
 3748              		.loc 3 83 1 discriminator 14
 3749 1a45 488D8520 		leaq	-480(%rbp), %rax
 3749      FEFFFF
 3750 1a4c 4C89E2   		movq	%r12, %rdx
 3751 1a4f 4889C6   		movq	%rax, %rsi
 3752 1a52 4889DF   		movq	%rbx, %rdi
 3753 1a55 E8000000 		call	_ZN8UnitTest11TestResults13OnTestFailureERKNS_11TestDetailsEPKc@PLT
 3753      00
 3754              	.LEHE97:
 3755              		.loc 3 83 1 discriminator 16
 3756 1a5a E8000000 		call	__cxa_end_catch@PLT
 3756      00
 3757              	.LBE63:
 3758 1a5f E9A80100 		jmp	.L183
 3758      00
 3759              	.L187:
 3760              	.LBB64:
 3761              		.loc 3 83 1 discriminator 5
 3762 1a64 4889C7   		movq	%rax, %rdi
 3763 1a67 E8000000 		call	__cxa_begin_catch@PLT
 3763      00
 3764 1a6c 48898510 		movq	%rax, -496(%rbp)
 3764      FEFFFF
 3765              	.LBB65:
 3766 1a73 488D8540 		leaq	-448(%rbp), %rax
 3766      FEFFFF
 3767 1a7a 4889C7   		movq	%rax, %rdi
 3768              	.LEHB98:
 3769 1a7d E8000000 		call	_ZN8UnitTest15MemoryOutStreamC1Ev
 3769      00
 3770              	.LEHE98:
 3771              		.loc 3 83 1 discriminator 18
 3772 1a82 488D8540 		leaq	-448(%rbp), %rax
 3772      FEFFFF
 3773 1a89 488D1500 		leaq	.LC6(%rip), %rdx
 3773      000000
 3774 1a90 4889D6   		movq	%rdx, %rsi
 3775 1a93 4889C7   		movq	%rax, %rdi
 3776              	.LEHB99:
 3777 1a96 E8000000 		call	_ZStlsISt11char_traitsIcEERSt13basic_ostreamIcT_ES5_PKc@PLT
 3777      00
 3778 1a9b 4889C3   		movq	%rax, %rbx
 3779 1a9e 488B8510 		movq	-496(%rbp), %rax
 3779      FEFFFF
 3780 1aa5 488B00   		movq	(%rax), %rax
 3781 1aa8 4883C010 		addq	$16, %rax
 3782 1aac 488B10   		movq	(%rax), %rdx
 3783 1aaf 488B8510 		movq	-496(%rbp), %rax
 3783      FEFFFF
 3784 1ab6 4889C7   		movq	%rax, %rdi
 3785 1ab9 FFD2     		call	*%rdx
 3786              	.LVL9:
 3787 1abb 4889C6   		movq	%rax, %rsi
 3788 1abe 4889DF   		movq	%rbx, %rdi
 3789 1ac1 E8000000 		call	_ZStlsISt11char_traitsIcEERSt13basic_ostreamIcT_ES5_PKc@PLT
 3789      00
 3790              		.loc 3 83 1 discriminator 22
 3791 1ac6 E8000000 		call	_ZN8UnitTest11CurrentTest7ResultsEv@PLT
 3791      00
 3792 1acb 488B18   		movq	(%rax), %rbx
 3793 1ace 488D8540 		leaq	-448(%rbp), %rax
 3793      FEFFFF
 3794 1ad5 4889C7   		movq	%rax, %rdi
 3795 1ad8 E8000000 		call	_ZNK8UnitTest15MemoryOutStream7GetTextEv@PLT
 3795      00
 3796              		.loc 3 83 1 discriminator 24
 3797 1add 4889C2   		movq	%rax, %rdx
 3798 1ae0 488B85F8 		movq	-520(%rbp), %rax
 3798      FDFFFF
 3799 1ae7 4883C008 		addq	$8, %rax
 3800 1aeb 4889C6   		movq	%rax, %rsi
 3801 1aee 4889DF   		movq	%rbx, %rdi
 3802 1af1 E8000000 		call	_ZN8UnitTest11TestResults13OnTestFailureERKNS_11TestDetailsEPKc@PLT
 3802      00
 3803              	.LEHE99:
 3804              		.loc 3 83 1 discriminator 28
 3805 1af6 488D8540 		leaq	-448(%rbp), %rax
 3805      FEFFFF
 3806 1afd 4889C7   		movq	%rax, %rdi
 3807              	.LEHB100:
 3808 1b00 E8000000 		call	_ZN8UnitTest15MemoryOutStreamD1Ev
 3808      00
 3809              	.LEHE100:
 3810              	.LBE65:
 3811              		.loc 3 83 1 discriminator 29
 3812 1b05 E8000000 		call	__cxa_end_catch@PLT
 3812      00
 3813              	.LBE64:
 3814 1b0a E9FD0000 		jmp	.L183
 3814      00
 3815              	.L203:
 3816              		.loc 3 83 1 discriminator 6
 3817 1b0f 4889C7   		movq	%rax, %rdi
 3818 1b12 E8000000 		call	__cxa_begin_catch@PLT
 3818      00
 3819 1b17 80BD0FFE 		cmpb	$0, -497(%rbp)
 3819      FFFF00
 3820 1b1e 7445     		je	.L190
 3821              	.LEHB101:
 3822              		.loc 3 83 1 discriminator 31
 3823 1b20 E8000000 		call	_ZN8UnitTest11CurrentTest7ResultsEv@PLT
 3823      00
 3824 1b25 488B18   		movq	(%rax), %rbx
 3825 1b28 488B85F8 		movq	-520(%rbp), %rax
 3825      FDFFFF
 3826 1b2f 488D4808 		leaq	8(%rax), %rcx
 3827 1b33 488D8520 		leaq	-480(%rbp), %rax
 3827      FEFFFF
 3828 1b3a BA530000 		movl	$83, %edx
 3828      00
 3829 1b3f 4889CE   		movq	%rcx, %rsi
 3830 1b42 4889C7   		movq	%rax, %rdi
 3831 1b45 E8000000 		call	_ZN8UnitTest11TestDetailsC1ERKS0_i@PLT
 3831      00
 3832              		.loc 3 83 1 discriminator 36
 3833 1b4a 488D8520 		leaq	-480(%rbp), %rax
 3833      FEFFFF
 3834 1b51 488D1500 		leaq	.LC7(%rip), %rdx
 3834      000000
 3835 1b58 4889C6   		movq	%rax, %rsi
 3836 1b5b 4889DF   		movq	%rbx, %rdi
 3837 1b5e E8000000 		call	_ZN8UnitTest11TestResults13OnTestFailureERKNS_11TestDetailsEPKc@PLT
 3837      00
 3838 1b63 EB43     		jmp	.L191
 3839              	.L190:
 3840              		.loc 3 83 1 discriminator 32
 3841 1b65 E8000000 		call	_ZN8UnitTest11CurrentTest7ResultsEv@PLT
 3841      00
 3842 1b6a 488B18   		movq	(%rax), %rbx
 3843 1b6d 488B85F8 		movq	-520(%rbp), %rax
 3843      FDFFFF
 3844 1b74 488D4808 		leaq	8(%rax), %rcx
 3845 1b78 488D8520 		leaq	-480(%rbp), %rax
 3845      FEFFFF
 3846 1b7f BA530000 		movl	$83, %edx
 3846      00
 3847 1b84 4889CE   		movq	%rcx, %rsi
 3848 1b87 4889C7   		movq	%rax, %rdi
 3849 1b8a E8000000 		call	_ZN8UnitTest11TestDetailsC1ERKS0_i@PLT
 3849      00
 3850              		.loc 3 83 1 discriminator 43
 3851 1b8f 488D8520 		leaq	-480(%rbp), %rax
 3851      FEFFFF
 3852 1b96 488D1500 		leaq	.LC8(%rip), %rdx
 3852      000000
 3853 1b9d 4889C6   		movq	%rax, %rsi
 3854 1ba0 4889DF   		movq	%rbx, %rdi
 3855 1ba3 E8000000 		call	_ZN8UnitTest11TestResults13OnTestFailureERKNS_11TestDetailsEPKc@PLT
 3855      00
 3856              	.LEHE101:
 3857              	.L191:
 3858              	.LEHB102:
 3859              		.loc 3 83 1 discriminator 46
 3860 1ba8 E8000000 		call	__cxa_end_catch@PLT
 3860      00
 3861 1bad EB5D     		jmp	.L183
 3862              	.L199:
 3863 1baf F30F1EFA 		endbr64
 3864              	.LBB67:
 3865              		.loc 3 83 1
 3866 1bb3 4889C3   		movq	%rax, %rbx
 3867 1bb6 E8000000 		call	__cxa_end_catch@PLT
 3867      00
 3868 1bbb 4889D8   		movq	%rbx, %rax
 3869 1bbe 4889C7   		movq	%rax, %rdi
 3870 1bc1 E8000000 		call	_Unwind_Resume@PLT
 3870      00
 3871              	.LEHE102:
 3872              	.L201:
 3873 1bc6 F30F1EFA 		endbr64
 3874              	.LBE67:
 3875              	.LBB68:
 3876              	.LBB66:
 3877 1bca 4889C3   		movq	%rax, %rbx
 3878 1bcd 488D8540 		leaq	-448(%rbp), %rax
 3878      FEFFFF
 3879 1bd4 4889C7   		movq	%rax, %rdi
 3880 1bd7 E8000000 		call	_ZN8UnitTest15MemoryOutStreamD1Ev
 3880      00
 3881 1bdc EB07     		jmp	.L194
 3882              	.L200:
 3883 1bde F30F1EFA 		endbr64
 3884              	.LBE66:
 3885 1be2 4889C3   		movq	%rax, %rbx
 3886              	.L194:
 3887 1be5 E8000000 		call	__cxa_end_catch@PLT
 3887      00
 3888 1bea 4889D8   		movq	%rbx, %rax
 3889 1bed 4889C7   		movq	%rax, %rdi
 3890              	.LEHB103:
 3891 1bf0 E8000000 		call	_Unwind_Resume@PLT
 3891      00
 3892              	.LEHE103:
 3893              	.L202:
 3894 1bf5 F30F1EFA 		endbr64
 3895              	.LBE68:
 3896 1bf9 4889C3   		movq	%rax, %rbx
 3897 1bfc E8000000 		call	__cxa_end_catch@PLT
 3897      00
 3898 1c01 4889D8   		movq	%rbx, %rax
 3899 1c04 4889C7   		movq	%rax, %rdi
 3900              	.LEHB104:
 3901 1c07 E8000000 		call	_Unwind_Resume@PLT
 3901      00
 3902              	.LEHE104:
 3903              	.L183:
 3904 1c0c 488B45D8 		movq	-40(%rbp), %rax
 3905 1c10 64482B04 		subq	%fs:40, %rax
 3905      25280000 
 3905      00
 3906 1c19 7405     		je	.L196
 3907 1c1b E8000000 		call	__stack_chk_fail@PLT
 3907      00
 3908              	.L196:
 3909 1c20 4881C4F8 		addq	$504, %rsp
 3909      010000
 3910 1c27 5B       		popq	%rbx
 3911 1c28 415C     		popq	%r12
 3912 1c2a 415D     		popq	%r13
 3913 1c2c 5D       		popq	%rbp
 3914              		.cfi_def_cfa 7, 8
 3915 1c2d C3       		ret
 3916              		.cfi_endproc
 3917              	.LFE1475:
 3918              		.section	.gcc_except_table
 3919              		.align 4
 3920              	.LLSDA1475:
 3921 0264 FF       		.byte	0xff
 3922 0265 9B       		.byte	0x9b
 3923 0266 55       		.uleb128 .LLSDATT1475-.LLSDATTD1475
 3924              	.LLSDATTD1475:
 3925 0267 01       		.byte	0x1
 3926 0268 3E       		.uleb128 .LLSDACSE1475-.LLSDACSB1475
 3927              	.LLSDACSB1475:
 3928 0269 49       		.uleb128 .LEHB94-.LFB1475
 3929 026a 05       		.uleb128 .LEHE94-.LEHB94
 3930 026b A701     		.uleb128 .L197-.LFB1475
 3931 026d 05       		.uleb128 0x5
 3932 026e 6D       		.uleb128 .LEHB95-.LFB1475
 3933 026f 05       		.uleb128 .LEHE95-.LEHB95
 3934 0270 8601     		.uleb128 .L198-.LFB1475
 3935 0272 07       		.uleb128 0x7
 3936 0273 7C       		.uleb128 .LEHB96-.LFB1475
 3937 0274 05       		.uleb128 .LEHE96-.LEHB96
 3938 0275 A701     		.uleb128 .L197-.LFB1475
 3939 0277 05       		.uleb128 0x5
 3940 0278 CF01     		.uleb128 .LEHB97-.LFB1475
 3941 027a 8901     		.uleb128 .LEHE97-.LEHB97
 3942 027c AD05     		.uleb128 .L199-.LFB1475
 3943 027e 00       		.uleb128 0
 3944 027f FB02     		.uleb128 .LEHB98-.LFB1475
 3945 0281 05       		.uleb128 .LEHE98-.LEHB98
 3946 0282 DC05     		.uleb128 .L200-.LFB1475
 3947 0284 00       		.uleb128 0
 3948 0285 9403     		.uleb128 .LEHB99-.LFB1475
 3949 0287 60       		.uleb128 .LEHE99-.LEHB99
 3950 0288 C405     		.uleb128 .L201-.LFB1475
 3951 028a 00       		.uleb128 0
 3952 028b FE03     		.uleb128 .LEHB100-.LFB1475
 3953 028d 05       		.uleb128 .LEHE100-.LEHB100
 3954 028e DC05     		.uleb128 .L200-.LFB1475
 3955 0290 00       		.uleb128 0
 3956 0291 9E04     		.uleb128 .LEHB101-.LFB1475
 3957 0293 8801     		.uleb128 .LEHE101-.LEHB101
 3958 0295 F305     		.uleb128 .L202-.LFB1475
 3959 0297 00       		.uleb128 0
 3960 0298 A605     		.uleb128 .LEHB102-.LFB1475
 3961 029a 1E       		.uleb128 .LEHE102-.LEHB102
 3962 029b 00       		.uleb128 0
 3963 029c 00       		.uleb128 0
 3964 029d EE05     		.uleb128 .LEHB103-.LFB1475
 3965 029f 05       		.uleb128 .LEHE103-.LEHB103
 3966 02a0 00       		.uleb128 0
 3967 02a1 00       		.uleb128 0
 3968 02a2 8506     		.uleb128 .LEHB104-.LFB1475
 3969 02a4 05       		.uleb128 .LEHE104-.LEHB104
 3970 02a5 00       		.uleb128 0
 3971 02a6 00       		.uleb128 0
 3972              	.LLSDACSE1475:
 3973 02a7 03       		.byte	0x3
 3974 02a8 00       		.byte	0
 3975 02a9 02       		.byte	0x2
 3976 02aa 7D       		.byte	0x7d
 3977 02ab 01       		.byte	0x1
 3978 02ac 7D       		.byte	0x7d
 3979 02ad 00       		.byte	0
 3980 02ae 7D       		.byte	0x7d
 3981 02af 00       		.align 4
 3982 02b0 00000000 		.long	0
 3983              	
 3984 02b4 00000000 		.long	DW.ref._ZTISt9exception-.
 3985 02b8 00000000 		.long	DW.ref._ZTIN8UnitTest15AssertExceptionE-.
 3986              	.LLSDATT1475:
 3987              		.text
 3989              		.section	.rodata
 3990              	.LC23:
 3991 039c 6661696C 		.string	"failure 1"
 3991      75726520 
 3991      3100
 3992              	.LC24:
 3993 03a6 6661696C 		.string	"failure 2"
 3993      75726520 
 3993      3200
 3994              		.align 8
 3995              	.LC25:
 3996 03b0 556E6861 		.string	"Unhandled exception in CHECK_EQUAL(2, (int)result.failures.size())"
 3996      6E646C65 
 3996      64206578 
 3996      63657074 
 3996      696F6E20 
 3997 03f3 00000000 		.align 8
 3997      00
 3998              	.LC26:
 3999 03f8 556E6861 		.string	"Unhandled exception in CHECK_EQUAL(failure1, result.failures[0].second)"
 3999      6E646C65 
 3999      64206578 
 3999      63657074 
 3999      696F6E20 
 4000              		.align 8
 4001              	.LC27:
 4002 0440 556E6861 		.string	"Unhandled exception in CHECK_EQUAL(failure2, result.failures[1].second)"
 4002      6E646C65 
 4002      64206578 
 4002      63657074 
 4002      696F6E20 
 4003              		.text
 4004              		.align 2
 4006              	_ZN8UnitTest12_GLOBAL__N_184DeferredTestReporterFixtureReportFailureSavesFailureDetailsForMultipleF
 4007              	.LFB1479:
  84:TestDeferredTestReporter.cpp **** {
 4008              		.loc 3 84 1 is_stmt 1
 4009              		.cfi_startproc
 4010              		.cfi_personality 0x9b,DW.ref.__gxx_personality_v0
 4011              		.cfi_lsda 0x1b,.LLSDA1479
 4012 1c2e F30F1EFA 		endbr64
 4013 1c32 55       		pushq	%rbp
 4014              		.cfi_def_cfa_offset 16
 4015              		.cfi_offset 6, -16
 4016 1c33 4889E5   		movq	%rsp, %rbp
 4017              		.cfi_def_cfa_register 6
 4018 1c36 53       		pushq	%rbx
 4019 1c37 4883EC68 		subq	$104, %rsp
 4020              		.cfi_offset 3, -24
 4021 1c3b 48897D98 		movq	%rdi, -104(%rbp)
 4022              		.loc 3 84 1
 4023 1c3f 64488B04 		movq	%fs:40, %rax
 4023      25280000 
 4023      00
 4024 1c48 488945E8 		movq	%rax, -24(%rbp)
 4025 1c4c 31C0     		xorl	%eax, %eax
  85:TestDeferredTestReporter.cpp ****     char const* failure1 = "failure 1";
 4026              		.loc 3 85 17
 4027 1c4e 488D0500 		leaq	.LC23(%rip), %rax
 4027      000000
 4028 1c55 488945A8 		movq	%rax, -88(%rbp)
  86:TestDeferredTestReporter.cpp ****     char const* failure2 = "failure 2";
 4029              		.loc 3 86 17
 4030 1c59 488D0500 		leaq	.LC24(%rip), %rax
 4030      000000
 4031 1c60 488945B0 		movq	%rax, -80(%rbp)
  87:TestDeferredTestReporter.cpp **** 
  88:TestDeferredTestReporter.cpp ****     reporter.ReportTestStart(details);
 4032              		.loc 3 88 29
 4033 1c64 488B4598 		movq	-104(%rbp), %rax
 4034              		.loc 3 88 30
 4035 1c68 488B5598 		movq	-104(%rbp), %rdx
 4036 1c6c 4881C288 		addq	$136, %rdx
 4036      000000
 4037              		.loc 3 88 29
 4038 1c73 4889D6   		movq	%rdx, %rsi
 4039 1c76 4889C7   		movq	%rax, %rdi
 4040              	.LEHB105:
 4041 1c79 E8000000 		call	_ZN8UnitTest20DeferredTestReporter15ReportTestStartERKNS_11TestDetailsE@PLT
 4041      00
  89:TestDeferredTestReporter.cpp ****     reporter.ReportFailure(details, failure1);
 4042              		.loc 3 89 27
 4043 1c7e 488B4598 		movq	-104(%rbp), %rax
 4044 1c82 488B55A8 		movq	-88(%rbp), %rdx
 4045              		.loc 3 89 28
 4046 1c86 488B4D98 		movq	-104(%rbp), %rcx
 4047 1c8a 4881C188 		addq	$136, %rcx
 4047      000000
 4048              		.loc 3 89 27
 4049 1c91 4889CE   		movq	%rcx, %rsi
 4050 1c94 4889C7   		movq	%rax, %rdi
 4051 1c97 E8000000 		call	_ZN8UnitTest20DeferredTestReporter13ReportFailureERKNS_11TestDetailsEPKc@PLT
 4051      00
  90:TestDeferredTestReporter.cpp ****     reporter.ReportFailure(details, failure2);
 4052              		.loc 3 90 27
 4053 1c9c 488B4598 		movq	-104(%rbp), %rax
 4054 1ca0 488B55B0 		movq	-80(%rbp), %rdx
 4055              		.loc 3 90 28
 4056 1ca4 488B4D98 		movq	-104(%rbp), %rcx
 4057 1ca8 4881C188 		addq	$136, %rcx
 4057      000000
 4058              		.loc 3 90 27
 4059 1caf 4889CE   		movq	%rcx, %rsi
 4060 1cb2 4889C7   		movq	%rax, %rdi
 4061 1cb5 E8000000 		call	_ZN8UnitTest20DeferredTestReporter13ReportFailureERKNS_11TestDetailsEPKc@PLT
 4061      00
  91:TestDeferredTestReporter.cpp **** 
  92:TestDeferredTestReporter.cpp ****     DeferredTestResult const& result = reporter.GetResults().at(0);
 4062              		.loc 3 92 59
 4063 1cba 488B4598 		movq	-104(%rbp), %rax
 4064 1cbe 4889C7   		movq	%rax, %rdi
 4065 1cc1 E8000000 		call	_ZN8UnitTest20DeferredTestReporter10GetResultsEv@PLT
 4065      00
 4066              		.loc 3 92 64
 4067 1cc6 BE000000 		movl	$0, %esi
 4067      00
 4068 1ccb 4889C7   		movq	%rax, %rdi
 4069 1cce E8000000 		call	_ZNSt6vectorIN8UnitTest18DeferredTestResultESaIS1_EE2atEm
 4069      00
 4070              	.LEHE105:
 4071 1cd3 488945B8 		movq	%rax, -72(%rbp)
 4072              	.LEHB106:
  93:TestDeferredTestReporter.cpp ****     CHECK_EQUAL(2, (int)result.failures.size());
 4073              		.loc 3 93 5
 4074 1cd7 E8000000 		call	_ZN8UnitTest11CurrentTest7DetailsEv@PLT
 4074      00
 4075 1cdc 488B08   		movq	(%rax), %rcx
 4076 1cdf 488D45C0 		leaq	-64(%rbp), %rax
 4077 1ce3 BA5D0000 		movl	$93, %edx
 4077      00
 4078 1ce8 4889CE   		movq	%rcx, %rsi
 4079 1ceb 4889C7   		movq	%rax, %rdi
 4080 1cee E8000000 		call	_ZN8UnitTest11TestDetailsC1ERKS0_i@PLT
 4080      00
 4081              		.loc 3 93 5 is_stmt 0 discriminator 4
 4082 1cf3 488B45B8 		movq	-72(%rbp), %rax
 4083 1cf7 4883C060 		addq	$96, %rax
 4084 1cfb 4889C7   		movq	%rax, %rdi
 4085 1cfe E8000000 		call	_ZNKSt6vectorISt4pairIiNSt7__cxx1112basic_stringIcSt11char_traitsIcESaIcEEEESaIS7_EE4sizeEv
 4085      00
 4086 1d03 8945A4   		movl	%eax, -92(%rbp)
 4087 1d06 C745A002 		movl	$2, -96(%rbp)
 4087      000000
 4088 1d0d E8000000 		call	_ZN8UnitTest11CurrentTest7ResultsEv@PLT
 4088      00
 4089 1d12 488B00   		movq	(%rax), %rax
 4090 1d15 488D4DC0 		leaq	-64(%rbp), %rcx
 4091 1d19 488D55A4 		leaq	-92(%rbp), %rdx
 4092 1d1d 488D75A0 		leaq	-96(%rbp), %rsi
 4093 1d21 4889C7   		movq	%rax, %rdi
 4094 1d24 E8000000 		call	_ZN8UnitTest10CheckEqualIiiEEvRNS_11TestResultsERKT_RKT0_RKNS_11TestDetailsE
 4094      00
 4095              	.LEHE106:
 4096              	.L206:
 4097              	.LEHB107:
  94:TestDeferredTestReporter.cpp ****     CHECK_EQUAL(failure1, result.failures[0].second);
 4098              		.loc 3 94 5 is_stmt 1
 4099 1d29 E8000000 		call	_ZN8UnitTest11CurrentTest7DetailsEv@PLT
 4099      00
 4100 1d2e 488B08   		movq	(%rax), %rcx
 4101 1d31 488D45C0 		leaq	-64(%rbp), %rax
 4102 1d35 BA5E0000 		movl	$94, %edx
 4102      00
 4103 1d3a 4889CE   		movq	%rcx, %rsi
 4104 1d3d 4889C7   		movq	%rax, %rdi
 4105 1d40 E8000000 		call	_ZN8UnitTest11TestDetailsC1ERKS0_i@PLT
 4105      00
 4106              		.loc 3 94 5 is_stmt 0 discriminator 4
 4107 1d45 488B45B8 		movq	-72(%rbp), %rax
 4108 1d49 4883C060 		addq	$96, %rax
 4109 1d4d BE000000 		movl	$0, %esi
 4109      00
 4110 1d52 4889C7   		movq	%rax, %rdi
 4111 1d55 E8000000 		call	_ZNKSt6vectorISt4pairIiNSt7__cxx1112basic_stringIcSt11char_traitsIcESaIcEEEESaIS7_EEixEm
 4111      00
 4112 1d5a 488D5808 		leaq	8(%rax), %rbx
 4113 1d5e E8000000 		call	_ZN8UnitTest11CurrentTest7ResultsEv@PLT
 4113      00
 4114 1d63 488B00   		movq	(%rax), %rax
 4115 1d66 488D55C0 		leaq	-64(%rbp), %rdx
 4116 1d6a 488D75A8 		leaq	-88(%rbp), %rsi
 4117 1d6e 4889D1   		movq	%rdx, %rcx
 4118 1d71 4889DA   		movq	%rbx, %rdx
 4119 1d74 4889C7   		movq	%rax, %rdi
 4120 1d77 E8000000 		call	_ZN8UnitTest10CheckEqualIPKcNSt7__cxx1112basic_stringIcSt11char_traitsIcESaIcEEEEEvRNS_11Test
 4120      00
 4121              	.LEHE107:
 4122              	.L209:
 4123              	.LEHB108:
  95:TestDeferredTestReporter.cpp ****     CHECK_EQUAL(failure2, result.failures[1].second);
 4124              		.loc 3 95 5 is_stmt 1
 4125 1d7c E8000000 		call	_ZN8UnitTest11CurrentTest7DetailsEv@PLT
 4125      00
 4126 1d81 488B08   		movq	(%rax), %rcx
 4127 1d84 488D45C0 		leaq	-64(%rbp), %rax
 4128 1d88 BA5F0000 		movl	$95, %edx
 4128      00
 4129 1d8d 4889CE   		movq	%rcx, %rsi
 4130 1d90 4889C7   		movq	%rax, %rdi
 4131 1d93 E8000000 		call	_ZN8UnitTest11TestDetailsC1ERKS0_i@PLT
 4131      00
 4132              		.loc 3 95 5 is_stmt 0 discriminator 4
 4133 1d98 488B45B8 		movq	-72(%rbp), %rax
 4134 1d9c 4883C060 		addq	$96, %rax
 4135 1da0 BE010000 		movl	$1, %esi
 4135      00
 4136 1da5 4889C7   		movq	%rax, %rdi
 4137 1da8 E8000000 		call	_ZNKSt6vectorISt4pairIiNSt7__cxx1112basic_stringIcSt11char_traitsIcESaIcEEEESaIS7_EEixEm
 4137      00
 4138 1dad 488D5808 		leaq	8(%rax), %rbx
 4139 1db1 E8000000 		call	_ZN8UnitTest11CurrentTest7ResultsEv@PLT
 4139      00
 4140 1db6 488B00   		movq	(%rax), %rax
 4141 1db9 488D55C0 		leaq	-64(%rbp), %rdx
 4142 1dbd 488D75B0 		leaq	-80(%rbp), %rsi
 4143 1dc1 4889D1   		movq	%rdx, %rcx
 4144 1dc4 4889DA   		movq	%rbx, %rdx
 4145 1dc7 4889C7   		movq	%rax, %rdi
 4146 1dca E8000000 		call	_ZN8UnitTest10CheckEqualIPKcNSt7__cxx1112basic_stringIcSt11char_traitsIcESaIcEEEEEvRNS_11Test
 4146      00
 4147              	.LEHE108:
  96:TestDeferredTestReporter.cpp **** }
 4148              		.loc 3 96 1 is_stmt 1
 4149 1dcf E9320100 		jmp	.L204
 4149      00
 4150              	.L215:
 4151 1dd4 F30F1EFA 		endbr64
  93:TestDeferredTestReporter.cpp ****     CHECK_EQUAL(failure1, result.failures[0].second);
 4152              		.loc 3 93 5
 4153 1dd8 4889C7   		movq	%rax, %rdi
 4154 1ddb E8000000 		call	__cxa_begin_catch@PLT
 4154      00
 4155              	.LEHB109:
 4156 1de0 E8000000 		call	_ZN8UnitTest11CurrentTest7ResultsEv@PLT
 4156      00
  93:TestDeferredTestReporter.cpp ****     CHECK_EQUAL(failure1, result.failures[0].second);
 4157              		.loc 3 93 5 is_stmt 0 discriminator 3
 4158 1de5 488B18   		movq	(%rax), %rbx
 4159 1de8 E8000000 		call	_ZN8UnitTest11CurrentTest7DetailsEv@PLT
 4159      00
  93:TestDeferredTestReporter.cpp ****     CHECK_EQUAL(failure1, result.failures[0].second);
 4160              		.loc 3 93 5 discriminator 11
 4161 1ded 488B08   		movq	(%rax), %rcx
 4162 1df0 488D45C0 		leaq	-64(%rbp), %rax
 4163 1df4 BA5D0000 		movl	$93, %edx
 4163      00
 4164 1df9 4889CE   		movq	%rcx, %rsi
 4165 1dfc 4889C7   		movq	%rax, %rdi
 4166 1dff E8000000 		call	_ZN8UnitTest11TestDetailsC1ERKS0_i@PLT
 4166      00
  93:TestDeferredTestReporter.cpp ****     CHECK_EQUAL(failure1, result.failures[0].second);
 4167              		.loc 3 93 5 discriminator 15
 4168 1e04 488D45C0 		leaq	-64(%rbp), %rax
 4169 1e08 488D1500 		leaq	.LC25(%rip), %rdx
 4169      000000
 4170 1e0f 4889C6   		movq	%rax, %rsi
 4171 1e12 4889DF   		movq	%rbx, %rdi
 4172 1e15 E8000000 		call	_ZN8UnitTest11TestResults13OnTestFailureERKNS_11TestDetailsEPKc@PLT
 4172      00
 4173              	.LEHE109:
 4174              	.LEHB110:
  93:TestDeferredTestReporter.cpp ****     CHECK_EQUAL(failure1, result.failures[0].second);
 4175              		.loc 3 93 5 discriminator 17
 4176 1e1a E8000000 		call	__cxa_end_catch@PLT
 4176      00
 4177              	.LEHE110:
 4178 1e1f E905FFFF 		jmp	.L206
 4178      FF
 4179              	.L216:
 4180 1e24 F30F1EFA 		endbr64
  93:TestDeferredTestReporter.cpp ****     CHECK_EQUAL(failure1, result.failures[0].second);
 4181              		.loc 3 93 5
 4182 1e28 4889C3   		movq	%rax, %rbx
 4183 1e2b E8000000 		call	__cxa_end_catch@PLT
 4183      00
 4184 1e30 4889D8   		movq	%rbx, %rax
 4185 1e33 4889C7   		movq	%rax, %rdi
 4186              	.LEHB111:
 4187 1e36 E8000000 		call	_Unwind_Resume@PLT
 4187      00
 4188              	.LEHE111:
 4189              	.L217:
 4190 1e3b F30F1EFA 		endbr64
  94:TestDeferredTestReporter.cpp ****     CHECK_EQUAL(failure2, result.failures[1].second);
 4191              		.loc 3 94 5 is_stmt 1
 4192 1e3f 4889C7   		movq	%rax, %rdi
 4193 1e42 E8000000 		call	__cxa_begin_catch@PLT
 4193      00
 4194              	.LEHB112:
 4195 1e47 E8000000 		call	_ZN8UnitTest11CurrentTest7ResultsEv@PLT
 4195      00
  94:TestDeferredTestReporter.cpp ****     CHECK_EQUAL(failure2, result.failures[1].second);
 4196              		.loc 3 94 5 is_stmt 0 discriminator 3
 4197 1e4c 488B18   		movq	(%rax), %rbx
 4198 1e4f E8000000 		call	_ZN8UnitTest11CurrentTest7DetailsEv@PLT
 4198      00
  94:TestDeferredTestReporter.cpp ****     CHECK_EQUAL(failure2, result.failures[1].second);
 4199              		.loc 3 94 5 discriminator 11
 4200 1e54 488B08   		movq	(%rax), %rcx
 4201 1e57 488D45C0 		leaq	-64(%rbp), %rax
 4202 1e5b BA5E0000 		movl	$94, %edx
 4202      00
 4203 1e60 4889CE   		movq	%rcx, %rsi
 4204 1e63 4889C7   		movq	%rax, %rdi
 4205 1e66 E8000000 		call	_ZN8UnitTest11TestDetailsC1ERKS0_i@PLT
 4205      00
  94:TestDeferredTestReporter.cpp ****     CHECK_EQUAL(failure2, result.failures[1].second);
 4206              		.loc 3 94 5 discriminator 15
 4207 1e6b 488D45C0 		leaq	-64(%rbp), %rax
 4208 1e6f 488D1500 		leaq	.LC26(%rip), %rdx
 4208      000000
 4209 1e76 4889C6   		movq	%rax, %rsi
 4210 1e79 4889DF   		movq	%rbx, %rdi
 4211 1e7c E8000000 		call	_ZN8UnitTest11TestResults13OnTestFailureERKNS_11TestDetailsEPKc@PLT
 4211      00
 4212              	.LEHE112:
 4213              	.LEHB113:
  94:TestDeferredTestReporter.cpp ****     CHECK_EQUAL(failure2, result.failures[1].second);
 4214              		.loc 3 94 5 discriminator 17
 4215 1e81 E8000000 		call	__cxa_end_catch@PLT
 4215      00
 4216              	.LEHE113:
 4217 1e86 E9F1FEFF 		jmp	.L209
 4217      FF
 4218              	.L218:
 4219 1e8b F30F1EFA 		endbr64
  94:TestDeferredTestReporter.cpp ****     CHECK_EQUAL(failure2, result.failures[1].second);
 4220              		.loc 3 94 5
 4221 1e8f 4889C3   		movq	%rax, %rbx
 4222 1e92 E8000000 		call	__cxa_end_catch@PLT
 4222      00
 4223 1e97 4889D8   		movq	%rbx, %rax
 4224 1e9a 4889C7   		movq	%rax, %rdi
 4225              	.LEHB114:
 4226 1e9d E8000000 		call	_Unwind_Resume@PLT
 4226      00
 4227              	.LEHE114:
 4228              	.L219:
 4229 1ea2 F30F1EFA 		endbr64
  95:TestDeferredTestReporter.cpp **** }
 4230              		.loc 3 95 5 is_stmt 1
 4231 1ea6 4889C7   		movq	%rax, %rdi
 4232 1ea9 E8000000 		call	__cxa_begin_catch@PLT
 4232      00
 4233              	.LEHB115:
 4234 1eae E8000000 		call	_ZN8UnitTest11CurrentTest7ResultsEv@PLT
 4234      00
  95:TestDeferredTestReporter.cpp **** }
 4235              		.loc 3 95 5 is_stmt 0 discriminator 3
 4236 1eb3 488B18   		movq	(%rax), %rbx
 4237 1eb6 E8000000 		call	_ZN8UnitTest11CurrentTest7DetailsEv@PLT
 4237      00
  95:TestDeferredTestReporter.cpp **** }
 4238              		.loc 3 95 5 discriminator 11
 4239 1ebb 488B08   		movq	(%rax), %rcx
 4240 1ebe 488D45C0 		leaq	-64(%rbp), %rax
 4241 1ec2 BA5F0000 		movl	$95, %edx
 4241      00
 4242 1ec7 4889CE   		movq	%rcx, %rsi
 4243 1eca 4889C7   		movq	%rax, %rdi
 4244 1ecd E8000000 		call	_ZN8UnitTest11TestDetailsC1ERKS0_i@PLT
 4244      00
  95:TestDeferredTestReporter.cpp **** }
 4245              		.loc 3 95 5 discriminator 15
 4246 1ed2 488D45C0 		leaq	-64(%rbp), %rax
 4247 1ed6 488D1500 		leaq	.LC27(%rip), %rdx
 4247      000000
 4248 1edd 4889C6   		movq	%rax, %rsi
 4249 1ee0 4889DF   		movq	%rbx, %rdi
 4250 1ee3 E8000000 		call	_ZN8UnitTest11TestResults13OnTestFailureERKNS_11TestDetailsEPKc@PLT
 4250      00
 4251              	.LEHE115:
 4252              	.LEHB116:
  95:TestDeferredTestReporter.cpp **** }
 4253              		.loc 3 95 5 discriminator 17
 4254 1ee8 E8000000 		call	__cxa_end_catch@PLT
 4254      00
 4255              	.LEHE116:
 4256              		.loc 3 96 1 is_stmt 1 discriminator 17
 4257 1eed EB17     		jmp	.L204
 4258              	.L220:
 4259 1eef F30F1EFA 		endbr64
  95:TestDeferredTestReporter.cpp **** }
 4260              		.loc 3 95 5
 4261 1ef3 4889C3   		movq	%rax, %rbx
 4262 1ef6 E8000000 		call	__cxa_end_catch@PLT
 4262      00
 4263 1efb 4889D8   		movq	%rbx, %rax
 4264 1efe 4889C7   		movq	%rax, %rdi
 4265              	.LEHB117:
 4266 1f01 E8000000 		call	_Unwind_Resume@PLT
 4266      00
 4267              	.LEHE117:
 4268              	.L204:
 4269              		.loc 3 96 1
 4270 1f06 488B45E8 		movq	-24(%rbp), %rax
 4271 1f0a 64482B04 		subq	%fs:40, %rax
 4271      25280000 
 4271      00
 4272 1f13 7405     		je	.L214
 4273 1f15 E8000000 		call	__stack_chk_fail@PLT
 4273      00
 4274              	.L214:
 4275 1f1a 488B5DF8 		movq	-8(%rbp), %rbx
 4276 1f1e C9       		leave
 4277              		.cfi_def_cfa 7, 8
 4278 1f1f C3       		ret
 4279              		.cfi_endproc
 4280              	.LFE1479:
 4281              		.section	.gcc_except_table
 4282              		.align 4
 4283              	.LLSDA1479:
 4284 02bc FF       		.byte	0xff
 4285 02bd 9B       		.byte	0x9b
 4286 02be 51       		.uleb128 .LLSDATT1479-.LLSDATTD1479
 4287              	.LLSDATTD1479:
 4288 02bf 01       		.byte	0x1
 4289 02c0 46       		.uleb128 .LLSDACSE1479-.LLSDACSB1479
 4290              	.LLSDACSB1479:
 4291 02c1 4B       		.uleb128 .LEHB105-.LFB1479
 4292 02c2 5A       		.uleb128 .LEHE105-.LEHB105
 4293 02c3 00       		.uleb128 0
 4294 02c4 00       		.uleb128 0
 4295 02c5 A901     		.uleb128 .LEHB106-.LFB1479
 4296 02c7 52       		.uleb128 .LEHE106-.LEHB106
 4297 02c8 A603     		.uleb128 .L215-.LFB1479
 4298 02ca 01       		.uleb128 0x1
 4299 02cb FB01     		.uleb128 .LEHB107-.LFB1479
 4300 02cd 53       		.uleb128 .LEHE107-.LEHB107
 4301 02ce 8D04     		.uleb128 .L217-.LFB1479
 4302 02d0 01       		.uleb128 0x1
 4303 02d1 CE02     		.uleb128 .LEHB108-.LFB1479
 4304 02d3 53       		.uleb128 .LEHE108-.LEHB108
 4305 02d4 F404     		.uleb128 .L219-.LFB1479
 4306 02d6 01       		.uleb128 0x1
 4307 02d7 B203     		.uleb128 .LEHB109-.LFB1479
 4308 02d9 3A       		.uleb128 .LEHE109-.LEHB109
 4309 02da F603     		.uleb128 .L216-.LFB1479
 4310 02dc 00       		.uleb128 0
 4311 02dd EC03     		.uleb128 .LEHB110-.LFB1479
 4312 02df 05       		.uleb128 .LEHE110-.LEHB110
 4313 02e0 00       		.uleb128 0
 4314 02e1 00       		.uleb128 0
 4315 02e2 8804     		.uleb128 .LEHB111-.LFB1479
 4316 02e4 05       		.uleb128 .LEHE111-.LEHB111
 4317 02e5 00       		.uleb128 0
 4318 02e6 00       		.uleb128 0
 4319 02e7 9904     		.uleb128 .LEHB112-.LFB1479
 4320 02e9 3A       		.uleb128 .LEHE112-.LEHB112
 4321 02ea DD04     		.uleb128 .L218-.LFB1479
 4322 02ec 00       		.uleb128 0
 4323 02ed D304     		.uleb128 .LEHB113-.LFB1479
 4324 02ef 05       		.uleb128 .LEHE113-.LEHB113
 4325 02f0 00       		.uleb128 0
 4326 02f1 00       		.uleb128 0
 4327 02f2 EF04     		.uleb128 .LEHB114-.LFB1479
 4328 02f4 05       		.uleb128 .LEHE114-.LEHB114
 4329 02f5 00       		.uleb128 0
 4330 02f6 00       		.uleb128 0
 4331 02f7 8005     		.uleb128 .LEHB115-.LFB1479
 4332 02f9 3A       		.uleb128 .LEHE115-.LEHB115
 4333 02fa C105     		.uleb128 .L220-.LFB1479
 4334 02fc 00       		.uleb128 0
 4335 02fd BA05     		.uleb128 .LEHB116-.LFB1479
 4336 02ff 05       		.uleb128 .LEHE116-.LEHB116
 4337 0300 00       		.uleb128 0
 4338 0301 00       		.uleb128 0
 4339 0302 D305     		.uleb128 .LEHB117-.LFB1479
 4340 0304 05       		.uleb128 .LEHE117-.LEHB117
 4341 0305 00       		.uleb128 0
 4342 0306 00       		.uleb128 0
 4343              	.LLSDACSE1479:
 4344 0307 01       		.byte	0x1
 4345 0308 00       		.byte	0
 4346 0309 000000   		.align 4
 4347 030c 00000000 		.long	0
 4348              	
 4349              	.LLSDATT1479:
 4350              		.text
 4352              		.align 2
 4354              	_ZN8UnitTest12_GLOBAL__N_178DeferredTestReporterFixtureDeferredTestReporterTakesCopyOfFailureMessag
 4355              	.LFB1481:
  97:TestDeferredTestReporter.cpp **** 
  98:TestDeferredTestReporter.cpp **** TEST_FIXTURE(DeferredTestReporterFixture, DeferredTestReporterTakesCopyOfFailureMessage)
 4356              		.loc 3 98 1
 4357              		.cfi_startproc
 4358 1f20 55       		pushq	%rbp
 4359              		.cfi_def_cfa_offset 16
 4360              		.cfi_offset 6, -16
 4361 1f21 4889E5   		movq	%rsp, %rbp
 4362              		.cfi_def_cfa_register 6
 4363 1f24 4883EC10 		subq	$16, %rsp
 4364 1f28 48897DF8 		movq	%rdi, -8(%rbp)
 4365 1f2c 488975F0 		movq	%rsi, -16(%rbp)
 4366              	.LBB69:
 4367              		.loc 3 98 1
 4368 1f30 488B45F8 		movq	-8(%rbp), %rax
 4369 1f34 4889C7   		movq	%rax, %rdi
 4370 1f37 E80CE1FF 		call	_ZN8UnitTest12_GLOBAL__N_127DeferredTestReporterFixtureC2Ev
 4370      FF
 4371 1f3c 488B45F8 		movq	-8(%rbp), %rax
 4372 1f40 488B55F0 		movq	-16(%rbp), %rdx
 4373 1f44 488990A8 		movq	%rdx, 168(%rax)
 4373      000000
 4374              	.LBE69:
 4375 1f4b 90       		nop
 4376 1f4c C9       		leave
 4377              		.cfi_def_cfa 7, 8
 4378 1f4d C3       		ret
 4379              		.cfi_endproc
 4380              	.LFE1481:
 4382              		.set	_ZN8UnitTest12_GLOBAL__N_178DeferredTestReporterFixtureDeferredTestReporterTakesCopyOfFailure
 4383              		.section	.rodata
 4384              		.align 8
 4385              	.LC28:
 4386 0488 44656665 		.string	"DeferredTestReporterTakesCopyOfFailureMessage"
 4386      72726564 
 4386      54657374 
 4386      5265706F 
 4386      72746572 
 4387              		.text
 4388              		.align 2
 4390              	_ZN8UnitTest12_GLOBAL__N_176TestDeferredTestReporterFixtureDeferredTestReporterTakesCopyOfFailureMe
 4391              	.LFB1484:
 4392              		.loc 3 98 1
 4393              		.cfi_startproc
 4394 1f4e 55       		pushq	%rbp
 4395              		.cfi_def_cfa_offset 16
 4396              		.cfi_offset 6, -16
 4397 1f4f 4889E5   		movq	%rsp, %rbp
 4398              		.cfi_def_cfa_register 6
 4399 1f52 53       		pushq	%rbx
 4400 1f53 4883EC18 		subq	$24, %rsp
 4401              		.cfi_offset 3, -24
 4402 1f57 48897DE8 		movq	%rdi, -24(%rbp)
 4403              	.LBB70:
 4404              		.loc 3 98 1
 4405 1f5b 488B5DE8 		movq	-24(%rbp), %rbx
 4406 1f5f E8000000 		call	_ZN13UnitTestSuite12GetSuiteNameEv
 4406      00
 4407 1f64 4889C2   		movq	%rax, %rdx
 4408 1f67 41B86200 		movl	$98, %r8d
 4408      0000
 4409 1f6d 488D0500 		leaq	.LC4(%rip), %rax
 4409      000000
 4410 1f74 4889C1   		movq	%rax, %rcx
 4411 1f77 488D0500 		leaq	.LC28(%rip), %rax
 4411      000000
 4412 1f7e 4889C6   		movq	%rax, %rsi
 4413 1f81 4889DF   		movq	%rbx, %rdi
 4414 1f84 E8000000 		call	_ZN8UnitTest4TestC2EPKcS2_S2_i@PLT
 4414      00
 4415 1f89 488D1500 		leaq	16+_ZTVN8UnitTest12_GLOBAL__N_176TestDeferredTestReporterFixtureDeferredTestReporterTakesCopy
 4415      000000
 4416 1f90 488B45E8 		movq	-24(%rbp), %rax
 4417 1f94 488910   		movq	%rdx, (%rax)
 4418              	.LBE70:
 4419 1f97 90       		nop
 4420 1f98 488B5DF8 		movq	-8(%rbp), %rbx
 4421 1f9c C9       		leave
 4422              		.cfi_def_cfa 7, 8
 4423 1f9d C3       		ret
 4424              		.cfi_endproc
 4425              	.LFE1484:
 4427              		.set	_ZN8UnitTest12_GLOBAL__N_176TestDeferredTestReporterFixtureDeferredTestReporterTakesCopyOfFai
 4428              		.local	_ZN8UnitTest12_GLOBAL__N_184testDeferredTestReporterFixtureDeferredTestReporterTakesCopyOfF
 4429              		.comm	_ZN8UnitTest12_GLOBAL__N_184testDeferredTestReporterFixtureDeferredTestReporterTakesCopyOfFa
 4430              		.local	_ZN8UnitTest12_GLOBAL__N_177adderDeferredTestReporterFixtureDeferredTestReporterTakesCopyOf
 4431              		.comm	_ZN8UnitTest12_GLOBAL__N_177adderDeferredTestReporterFixtureDeferredTestReporterTakesCopyOfF
 4432              		.align 2
 4434              	_ZN8UnitTest12_GLOBAL__N_178DeferredTestReporterFixtureDeferredTestReporterTakesCopyOfFailureMessag
 4435              	.LFB1488:
 4436              		.loc 3 98 1
 4437              		.cfi_startproc
 4438 1f9e 55       		pushq	%rbp
 4439              		.cfi_def_cfa_offset 16
 4440              		.cfi_offset 6, -16
 4441 1f9f 4889E5   		movq	%rsp, %rbp
 4442              		.cfi_def_cfa_register 6
 4443 1fa2 4883EC10 		subq	$16, %rsp
 4444 1fa6 48897DF8 		movq	%rdi, -8(%rbp)
 4445              	.LBB71:
 4446              		.loc 3 98 1
 4447 1faa 488B45F8 		movq	-8(%rbp), %rax
 4448 1fae 4889C7   		movq	%rax, %rdi
 4449 1fb1 E88CE2FF 		call	_ZN8UnitTest12_GLOBAL__N_127DeferredTestReporterFixtureD2Ev
 4449      FF
 4450              	.LBE71:
 4451 1fb6 90       		nop
 4452 1fb7 C9       		leave
 4453              		.cfi_def_cfa 7, 8
 4454 1fb8 C3       		ret
 4455              		.cfi_endproc
 4456              	.LFE1488:
 4458              		.set	_ZN8UnitTest12_GLOBAL__N_178DeferredTestReporterFixtureDeferredTestReporterTakesCopyOfFailure
 4459 1fb9 90       		.align 2
 4461              	_ZNK8UnitTest12_GLOBAL__N_176TestDeferredTestReporterFixtureDeferredTestReporterTakesCopyOfFailureM
 4462              	.LFB1486:
 4463              		.loc 3 98 1
 4464              		.cfi_startproc
 4465              		.cfi_personality 0x9b,DW.ref.__gxx_personality_v0
 4466              		.cfi_lsda 0x1b,.LLSDA1486
 4467 1fba F30F1EFA 		endbr64
 4468 1fbe 55       		pushq	%rbp
 4469              		.cfi_def_cfa_offset 16
 4470              		.cfi_offset 6, -16
 4471 1fbf 4889E5   		movq	%rsp, %rbp
 4472              		.cfi_def_cfa_register 6
 4473 1fc2 4155     		pushq	%r13
 4474 1fc4 4154     		pushq	%r12
 4475 1fc6 53       		pushq	%rbx
 4476 1fc7 4881ECF8 		subq	$504, %rsp
 4476      010000
 4477              		.cfi_offset 13, -24
 4478              		.cfi_offset 12, -32
 4479              		.cfi_offset 3, -40
 4480 1fce 4889BDF8 		movq	%rdi, -520(%rbp)
 4480      FDFFFF
 4481              		.loc 3 98 1
 4482 1fd5 64488B04 		movq	%fs:40, %rax
 4482      25280000 
 4482      00
 4483 1fde 488945D8 		movq	%rax, -40(%rbp)
 4484 1fe2 31C0     		xorl	%eax, %eax
 4485 1fe4 C6850FFE 		movb	$0, -497(%rbp)
 4485      FFFF00
 4486              	.LBB72:
 4487 1feb 488B85F8 		movq	-520(%rbp), %rax
 4487      FDFFFF
 4488 1ff2 488D5008 		leaq	8(%rax), %rdx
 4489 1ff6 488D8540 		leaq	-448(%rbp), %rax
 4489      FEFFFF
 4490 1ffd 4889D6   		movq	%rdx, %rsi
 4491 2000 4889C7   		movq	%rax, %rdi
 4492              	.LEHB118:
 4493 2003 E818FFFF 		call	_ZN8UnitTest12_GLOBAL__N_178DeferredTestReporterFixtureDeferredTestReporterTakesCopyOfFailure
 4493      FF
 4494              	.LEHE118:
 4495              		.loc 3 98 1 is_stmt 0 discriminator 1
 4496 2008 C6850FFE 		movb	$1, -497(%rbp)
 4496      FFFF01
 4497 200f 488B85F8 		movq	-520(%rbp), %rax
 4497      FDFFFF
 4498 2016 488D5008 		leaq	8(%rax), %rdx
 4499 201a 488D8540 		leaq	-448(%rbp), %rax
 4499      FEFFFF
 4500 2021 4889D6   		movq	%rdx, %rsi
 4501 2024 4889C7   		movq	%rax, %rdi
 4502              	.LEHB119:
 4503 2027 E8361300 		call	_ZN8UnitTest11ExecuteTestINS_12_GLOBAL__N_178DeferredTestReporterFixtureDeferredTestReporterT
 4503      00
 4504              	.LEHE119:
 4505              		.loc 3 98 1 discriminator 3
 4506 202c 488D8540 		leaq	-448(%rbp), %rax
 4506      FEFFFF
 4507 2033 4889C7   		movq	%rax, %rdi
 4508              	.LEHB120:
 4509 2036 E863FFFF 		call	_ZN8UnitTest12_GLOBAL__N_178DeferredTestReporterFixtureDeferredTestReporterTakesCopyOfFailure
 4509      FF
 4510              	.LEHE120:
 4511              	.LBE72:
 4512              		.loc 3 98 1
 4513 203b E9840200 		jmp	.L224
 4513      00
 4514              	.L239:
 4515 2040 F30F1EFA 		endbr64
 4516              	.LBB73:
 4517 2044 4989C4   		movq	%rax, %r12
 4518 2047 4889D3   		movq	%rdx, %rbx
 4519 204a 488D8540 		leaq	-448(%rbp), %rax
 4519      FEFFFF
 4520 2051 4889C7   		movq	%rax, %rdi
 4521 2054 E845FFFF 		call	_ZN8UnitTest12_GLOBAL__N_178DeferredTestReporterFixtureDeferredTestReporterTakesCopyOfFailure
 4521      FF
 4522 2059 4C89E0   		movq	%r12, %rax
 4523 205c 4889DA   		movq	%rbx, %rdx
 4524 205f EB04     		jmp	.L226
 4525              	.L238:
 4526 2061 F30F1EFA 		endbr64
 4527              	.L226:
 4528              	.LBE73:
 4529 2065 4883FA01 		cmpq	$1, %rdx
 4530 2069 740F     		je	.L227
 4531 206b 4883FA02 		cmpq	$2, %rdx
 4532 206f 0F84A700 		je	.L228
 4532      0000
 4533 2075 E94D0100 		jmp	.L244
 4533      00
 4534              	.L227:
 4535              	.LBB74:
 4536              		.loc 3 98 1 discriminator 4
 4537 207a 4889C7   		movq	%rax, %rdi
 4538 207d E8000000 		call	__cxa_begin_catch@PLT
 4538      00
 4539 2082 48898518 		movq	%rax, -488(%rbp)
 4539      FEFFFF
 4540              	.LEHB121:
 4541 2089 E8000000 		call	_ZN8UnitTest11CurrentTest7ResultsEv@PLT
 4541      00
 4542 208e 488B18   		movq	(%rax), %rbx
 4543 2091 488B8518 		movq	-488(%rbp), %rax
 4543      FEFFFF
 4544 2098 488B00   		movq	(%rax), %rax
 4545 209b 4883C010 		addq	$16, %rax
 4546 209f 488B10   		movq	(%rax), %rdx
 4547 20a2 488B8518 		movq	-488(%rbp), %rax
 4547      FEFFFF
 4548 20a9 4889C7   		movq	%rax, %rdi
 4549 20ac FFD2     		call	*%rdx
 4550              	.LVL10:
 4551 20ae 4989C4   		movq	%rax, %r12
 4552 20b1 488B8518 		movq	-488(%rbp), %rax
 4552      FEFFFF
 4553 20b8 4889C7   		movq	%rax, %rdi
 4554 20bb E8000000 		call	_ZNK8UnitTest15AssertException10LineNumberEv@PLT
 4554      00
 4555              		.loc 3 98 1 discriminator 8
 4556 20c0 4189C5   		movl	%eax, %r13d
 4557 20c3 488B8518 		movq	-488(%rbp), %rax
 4557      FEFFFF
 4558 20ca 4889C7   		movq	%rax, %rdi
 4559 20cd E8000000 		call	_ZNK8UnitTest15AssertException8FilenameEv@PLT
 4559      00
 4560              		.loc 3 98 1 discriminator 10
 4561 20d2 4889C1   		movq	%rax, %rcx
 4562 20d5 488B85F8 		movq	-520(%rbp), %rax
 4562      FDFFFF
 4563 20dc 488B5008 		movq	8(%rax), %rdx
 4564 20e0 488B85F8 		movq	-520(%rbp), %rax
 4564      FDFFFF
 4565 20e7 488B7010 		movq	16(%rax), %rsi
 4566 20eb 488D8520 		leaq	-480(%rbp), %rax
 4566      FEFFFF
 4567 20f2 4589E8   		movl	%r13d, %r8d
 4568 20f5 4889C7   		movq	%rax, %rdi
 4569 20f8 E8000000 		call	_ZN8UnitTest11TestDetailsC1EPKcS2_S2_i@PLT
 4569      00
 4570              		.loc 3 98 1 discriminator 14
 4571 20fd 488D8520 		leaq	-480(%rbp), %rax
 4571      FEFFFF
 4572 2104 4C89E2   		movq	%r12, %rdx
 4573 2107 4889C6   		movq	%rax, %rsi
 4574 210a 4889DF   		movq	%rbx, %rdi
 4575 210d E8000000 		call	_ZN8UnitTest11TestResults13OnTestFailureERKNS_11TestDetailsEPKc@PLT
 4575      00
 4576              	.LEHE121:
 4577              		.loc 3 98 1 discriminator 16
 4578 2112 E8000000 		call	__cxa_end_catch@PLT
 4578      00
 4579              	.LBE74:
 4580 2117 E9A80100 		jmp	.L224
 4580      00
 4581              	.L228:
 4582              	.LBB75:
 4583              		.loc 3 98 1 discriminator 5
 4584 211c 4889C7   		movq	%rax, %rdi
 4585 211f E8000000 		call	__cxa_begin_catch@PLT
 4585      00
 4586 2124 48898510 		movq	%rax, -496(%rbp)
 4586      FEFFFF
 4587              	.LBB76:
 4588 212b 488D8540 		leaq	-448(%rbp), %rax
 4588      FEFFFF
 4589 2132 4889C7   		movq	%rax, %rdi
 4590              	.LEHB122:
 4591 2135 E8000000 		call	_ZN8UnitTest15MemoryOutStreamC1Ev
 4591      00
 4592              	.LEHE122:
 4593              		.loc 3 98 1 discriminator 18
 4594 213a 488D8540 		leaq	-448(%rbp), %rax
 4594      FEFFFF
 4595 2141 488D1500 		leaq	.LC6(%rip), %rdx
 4595      000000
 4596 2148 4889D6   		movq	%rdx, %rsi
 4597 214b 4889C7   		movq	%rax, %rdi
 4598              	.LEHB123:
 4599 214e E8000000 		call	_ZStlsISt11char_traitsIcEERSt13basic_ostreamIcT_ES5_PKc@PLT
 4599      00
 4600 2153 4889C3   		movq	%rax, %rbx
 4601 2156 488B8510 		movq	-496(%rbp), %rax
 4601      FEFFFF
 4602 215d 488B00   		movq	(%rax), %rax
 4603 2160 4883C010 		addq	$16, %rax
 4604 2164 488B10   		movq	(%rax), %rdx
 4605 2167 488B8510 		movq	-496(%rbp), %rax
 4605      FEFFFF
 4606 216e 4889C7   		movq	%rax, %rdi
 4607 2171 FFD2     		call	*%rdx
 4608              	.LVL11:
 4609 2173 4889C6   		movq	%rax, %rsi
 4610 2176 4889DF   		movq	%rbx, %rdi
 4611 2179 E8000000 		call	_ZStlsISt11char_traitsIcEERSt13basic_ostreamIcT_ES5_PKc@PLT
 4611      00
 4612              		.loc 3 98 1 discriminator 22
 4613 217e E8000000 		call	_ZN8UnitTest11CurrentTest7ResultsEv@PLT
 4613      00
 4614 2183 488B18   		movq	(%rax), %rbx
 4615 2186 488D8540 		leaq	-448(%rbp), %rax
 4615      FEFFFF
 4616 218d 4889C7   		movq	%rax, %rdi
 4617 2190 E8000000 		call	_ZNK8UnitTest15MemoryOutStream7GetTextEv@PLT
 4617      00
 4618              		.loc 3 98 1 discriminator 24
 4619 2195 4889C2   		movq	%rax, %rdx
 4620 2198 488B85F8 		movq	-520(%rbp), %rax
 4620      FDFFFF
 4621 219f 4883C008 		addq	$8, %rax
 4622 21a3 4889C6   		movq	%rax, %rsi
 4623 21a6 4889DF   		movq	%rbx, %rdi
 4624 21a9 E8000000 		call	_ZN8UnitTest11TestResults13OnTestFailureERKNS_11TestDetailsEPKc@PLT
 4624      00
 4625              	.LEHE123:
 4626              		.loc 3 98 1 discriminator 28
 4627 21ae 488D8540 		leaq	-448(%rbp), %rax
 4627      FEFFFF
 4628 21b5 4889C7   		movq	%rax, %rdi
 4629              	.LEHB124:
 4630 21b8 E8000000 		call	_ZN8UnitTest15MemoryOutStreamD1Ev
 4630      00
 4631              	.LEHE124:
 4632              	.LBE76:
 4633              		.loc 3 98 1 discriminator 29
 4634 21bd E8000000 		call	__cxa_end_catch@PLT
 4634      00
 4635              	.LBE75:
 4636 21c2 E9FD0000 		jmp	.L224
 4636      00
 4637              	.L244:
 4638              		.loc 3 98 1 discriminator 6
 4639 21c7 4889C7   		movq	%rax, %rdi
 4640 21ca E8000000 		call	__cxa_begin_catch@PLT
 4640      00
 4641 21cf 80BD0FFE 		cmpb	$0, -497(%rbp)
 4641      FFFF00
 4642 21d6 7445     		je	.L231
 4643              	.LEHB125:
 4644              		.loc 3 98 1 discriminator 31
 4645 21d8 E8000000 		call	_ZN8UnitTest11CurrentTest7ResultsEv@PLT
 4645      00
 4646 21dd 488B18   		movq	(%rax), %rbx
 4647 21e0 488B85F8 		movq	-520(%rbp), %rax
 4647      FDFFFF
 4648 21e7 488D4808 		leaq	8(%rax), %rcx
 4649 21eb 488D8520 		leaq	-480(%rbp), %rax
 4649      FEFFFF
 4650 21f2 BA620000 		movl	$98, %edx
 4650      00
 4651 21f7 4889CE   		movq	%rcx, %rsi
 4652 21fa 4889C7   		movq	%rax, %rdi
 4653 21fd E8000000 		call	_ZN8UnitTest11TestDetailsC1ERKS0_i@PLT
 4653      00
 4654              		.loc 3 98 1 discriminator 36
 4655 2202 488D8520 		leaq	-480(%rbp), %rax
 4655      FEFFFF
 4656 2209 488D1500 		leaq	.LC7(%rip), %rdx
 4656      000000
 4657 2210 4889C6   		movq	%rax, %rsi
 4658 2213 4889DF   		movq	%rbx, %rdi
 4659 2216 E8000000 		call	_ZN8UnitTest11TestResults13OnTestFailureERKNS_11TestDetailsEPKc@PLT
 4659      00
 4660 221b EB43     		jmp	.L232
 4661              	.L231:
 4662              		.loc 3 98 1 discriminator 32
 4663 221d E8000000 		call	_ZN8UnitTest11CurrentTest7ResultsEv@PLT
 4663      00
 4664 2222 488B18   		movq	(%rax), %rbx
 4665 2225 488B85F8 		movq	-520(%rbp), %rax
 4665      FDFFFF
 4666 222c 488D4808 		leaq	8(%rax), %rcx
 4667 2230 488D8520 		leaq	-480(%rbp), %rax
 4667      FEFFFF
 4668 2237 BA620000 		movl	$98, %edx
 4668      00
 4669 223c 4889CE   		movq	%rcx, %rsi
 4670 223f 4889C7   		movq	%rax, %rdi
 4671 2242 E8000000 		call	_ZN8UnitTest11TestDetailsC1ERKS0_i@PLT
 4671      00
 4672              		.loc 3 98 1 discriminator 43
 4673 2247 488D8520 		leaq	-480(%rbp), %rax
 4673      FEFFFF
 4674 224e 488D1500 		leaq	.LC8(%rip), %rdx
 4674      000000
 4675 2255 4889C6   		movq	%rax, %rsi
 4676 2258 4889DF   		movq	%rbx, %rdi
 4677 225b E8000000 		call	_ZN8UnitTest11TestResults13OnTestFailureERKNS_11TestDetailsEPKc@PLT
 4677      00
 4678              	.LEHE125:
 4679              	.L232:
 4680              	.LEHB126:
 4681              		.loc 3 98 1 discriminator 46
 4682 2260 E8000000 		call	__cxa_end_catch@PLT
 4682      00
 4683 2265 EB5D     		jmp	.L224
 4684              	.L240:
 4685 2267 F30F1EFA 		endbr64
 4686              	.LBB78:
 4687              		.loc 3 98 1
 4688 226b 4889C3   		movq	%rax, %rbx
 4689 226e E8000000 		call	__cxa_end_catch@PLT
 4689      00
 4690 2273 4889D8   		movq	%rbx, %rax
 4691 2276 4889C7   		movq	%rax, %rdi
 4692 2279 E8000000 		call	_Unwind_Resume@PLT
 4692      00
 4693              	.LEHE126:
 4694              	.L242:
 4695 227e F30F1EFA 		endbr64
 4696              	.LBE78:
 4697              	.LBB79:
 4698              	.LBB77:
 4699 2282 4889C3   		movq	%rax, %rbx
 4700 2285 488D8540 		leaq	-448(%rbp), %rax
 4700      FEFFFF
 4701 228c 4889C7   		movq	%rax, %rdi
 4702 228f E8000000 		call	_ZN8UnitTest15MemoryOutStreamD1Ev
 4702      00
 4703 2294 EB07     		jmp	.L235
 4704              	.L241:
 4705 2296 F30F1EFA 		endbr64
 4706              	.LBE77:
 4707 229a 4889C3   		movq	%rax, %rbx
 4708              	.L235:
 4709 229d E8000000 		call	__cxa_end_catch@PLT
 4709      00
 4710 22a2 4889D8   		movq	%rbx, %rax
 4711 22a5 4889C7   		movq	%rax, %rdi
 4712              	.LEHB127:
 4713 22a8 E8000000 		call	_Unwind_Resume@PLT
 4713      00
 4714              	.LEHE127:
 4715              	.L243:
 4716 22ad F30F1EFA 		endbr64
 4717              	.LBE79:
 4718 22b1 4889C3   		movq	%rax, %rbx
 4719 22b4 E8000000 		call	__cxa_end_catch@PLT
 4719      00
 4720 22b9 4889D8   		movq	%rbx, %rax
 4721 22bc 4889C7   		movq	%rax, %rdi
 4722              	.LEHB128:
 4723 22bf E8000000 		call	_Unwind_Resume@PLT
 4723      00
 4724              	.LEHE128:
 4725              	.L224:
 4726 22c4 488B45D8 		movq	-40(%rbp), %rax
 4727 22c8 64482B04 		subq	%fs:40, %rax
 4727      25280000 
 4727      00
 4728 22d1 7405     		je	.L237
 4729 22d3 E8000000 		call	__stack_chk_fail@PLT
 4729      00
 4730              	.L237:
 4731 22d8 4881C4F8 		addq	$504, %rsp
 4731      010000
 4732 22df 5B       		popq	%rbx
 4733 22e0 415C     		popq	%r12
 4734 22e2 415D     		popq	%r13
 4735 22e4 5D       		popq	%rbp
 4736              		.cfi_def_cfa 7, 8
 4737 22e5 C3       		ret
 4738              		.cfi_endproc
 4739              	.LFE1486:
 4740              		.section	.gcc_except_table
 4741              		.align 4
 4742              	.LLSDA1486:
 4743 0310 FF       		.byte	0xff
 4744 0311 9B       		.byte	0x9b
 4745 0312 55       		.uleb128 .LLSDATT1486-.LLSDATTD1486
 4746              	.LLSDATTD1486:
 4747 0313 01       		.byte	0x1
 4748 0314 3E       		.uleb128 .LLSDACSE1486-.LLSDACSB1486
 4749              	.LLSDACSB1486:
 4750 0315 49       		.uleb128 .LEHB118-.LFB1486
 4751 0316 05       		.uleb128 .LEHE118-.LEHB118
 4752 0317 A701     		.uleb128 .L238-.LFB1486
 4753 0319 05       		.uleb128 0x5
 4754 031a 6D       		.uleb128 .LEHB119-.LFB1486
 4755 031b 05       		.uleb128 .LEHE119-.LEHB119
 4756 031c 8601     		.uleb128 .L239-.LFB1486
 4757 031e 07       		.uleb128 0x7
 4758 031f 7C       		.uleb128 .LEHB120-.LFB1486
 4759 0320 05       		.uleb128 .LEHE120-.LEHB120
 4760 0321 A701     		.uleb128 .L238-.LFB1486
 4761 0323 05       		.uleb128 0x5
 4762 0324 CF01     		.uleb128 .LEHB121-.LFB1486
 4763 0326 8901     		.uleb128 .LEHE121-.LEHB121
 4764 0328 AD05     		.uleb128 .L240-.LFB1486
 4765 032a 00       		.uleb128 0
 4766 032b FB02     		.uleb128 .LEHB122-.LFB1486
 4767 032d 05       		.uleb128 .LEHE122-.LEHB122
 4768 032e DC05     		.uleb128 .L241-.LFB1486
 4769 0330 00       		.uleb128 0
 4770 0331 9403     		.uleb128 .LEHB123-.LFB1486
 4771 0333 60       		.uleb128 .LEHE123-.LEHB123
 4772 0334 C405     		.uleb128 .L242-.LFB1486
 4773 0336 00       		.uleb128 0
 4774 0337 FE03     		.uleb128 .LEHB124-.LFB1486
 4775 0339 05       		.uleb128 .LEHE124-.LEHB124
 4776 033a DC05     		.uleb128 .L241-.LFB1486
 4777 033c 00       		.uleb128 0
 4778 033d 9E04     		.uleb128 .LEHB125-.LFB1486
 4779 033f 8801     		.uleb128 .LEHE125-.LEHB125
 4780 0341 F305     		.uleb128 .L243-.LFB1486
 4781 0343 00       		.uleb128 0
 4782 0344 A605     		.uleb128 .LEHB126-.LFB1486
 4783 0346 1E       		.uleb128 .LEHE126-.LEHB126
 4784 0347 00       		.uleb128 0
 4785 0348 00       		.uleb128 0
 4786 0349 EE05     		.uleb128 .LEHB127-.LFB1486
 4787 034b 05       		.uleb128 .LEHE127-.LEHB127
 4788 034c 00       		.uleb128 0
 4789 034d 00       		.uleb128 0
 4790 034e 8506     		.uleb128 .LEHB128-.LFB1486
 4791 0350 05       		.uleb128 .LEHE128-.LEHB128
 4792 0351 00       		.uleb128 0
 4793 0352 00       		.uleb128 0
 4794              	.LLSDACSE1486:
 4795 0353 03       		.byte	0x3
 4796 0354 00       		.byte	0
 4797 0355 02       		.byte	0x2
 4798 0356 7D       		.byte	0x7d
 4799 0357 01       		.byte	0x1
 4800 0358 7D       		.byte	0x7d
 4801 0359 00       		.byte	0
 4802 035a 7D       		.byte	0x7d
 4803 035b 00       		.align 4
 4804 035c 00000000 		.long	0
 4805              	
 4806 0360 00000000 		.long	DW.ref._ZTISt9exception-.
 4807 0364 00000000 		.long	DW.ref._ZTIN8UnitTest15AssertExceptionE-.
 4808              	.LLSDATT1486:
 4809              		.text
 4811              		.section	.rodata
 4812              	.LC29:
 4813 04b6 5265616C 		.string	"Real failure message"
 4813      20666169 
 4813      6C757265 
 4813      206D6573 
 4813      73616765 
 4814              	.LC30:
 4815 04cb 426F6775 		.string	"Bogus failure message"
 4815      73206661 
 4815      696C7572 
 4815      65206D65 
 4815      73736167 
 4816 04e1 00000000 		.align 8
 4816      000000
 4817              	.LC31:
 4818 04e8 556E6861 		.string	"Unhandled exception in CHECK_EQUAL(goodStr, failure.second)"
 4818      6E646C65 
 4818      64206578 
 4818      63657074 
 4818      696F6E20 
 4819              		.text
 4820              		.align 2
 4822              	_ZN8UnitTest12_GLOBAL__N_178DeferredTestReporterFixtureDeferredTestReporterTakesCopyOfFailureMessag
 4823              	.LFB1490:
  99:TestDeferredTestReporter.cpp **** {
 4824              		.loc 3 99 1 is_stmt 1
 4825              		.cfi_startproc
 4826              		.cfi_personality 0x9b,DW.ref.__gxx_personality_v0
 4827              		.cfi_lsda 0x1b,.LLSDA1490
 4828 22e6 F30F1EFA 		endbr64
 4829 22ea 55       		pushq	%rbp
 4830              		.cfi_def_cfa_offset 16
 4831              		.cfi_offset 6, -16
 4832 22eb 4889E5   		movq	%rsp, %rbp
 4833              		.cfi_def_cfa_register 6
 4834 22ee 53       		pushq	%rbx
 4835 22ef 4881ECE8 		subq	$232, %rsp
 4835      000000
 4836              		.cfi_offset 3, -24
 4837 22f6 4889BD18 		movq	%rdi, -232(%rbp)
 4837      FFFFFF
 4838              		.loc 3 99 1
 4839 22fd 64488B04 		movq	%fs:40, %rax
 4839      25280000 
 4839      00
 4840 2306 488945E8 		movq	%rax, -24(%rbp)
 4841 230a 31C0     		xorl	%eax, %eax
 100:TestDeferredTestReporter.cpp ****     reporter.ReportTestStart(details);
 4842              		.loc 3 100 29
 4843 230c 488B8518 		movq	-232(%rbp), %rax
 4843      FFFFFF
 4844              		.loc 3 100 30
 4845 2313 488B9518 		movq	-232(%rbp), %rdx
 4845      FFFFFF
 4846 231a 4881C288 		addq	$136, %rdx
 4846      000000
 4847              		.loc 3 100 29
 4848 2321 4889D6   		movq	%rdx, %rsi
 4849 2324 4889C7   		movq	%rax, %rdi
 4850              	.LEHB129:
 4851 2327 E8000000 		call	_ZN8UnitTest20DeferredTestReporter15ReportTestStartERKNS_11TestDetailsE@PLT
 4851      00
 101:TestDeferredTestReporter.cpp **** 
 102:TestDeferredTestReporter.cpp ****     char failureMessage[128];
 103:TestDeferredTestReporter.cpp ****     char const* goodStr = "Real failure message";
 4852              		.loc 3 103 17
 4853 232c 488D0500 		leaq	.LC29(%rip), %rax
 4853      000000
 4854 2333 48898520 		movq	%rax, -224(%rbp)
 4854      FFFFFF
 104:TestDeferredTestReporter.cpp ****     char const* badStr = "Bogus failure message";
 4855              		.loc 3 104 17
 4856 233a 488D0500 		leaq	.LC30(%rip), %rax
 4856      000000
 4857 2341 48898528 		movq	%rax, -216(%rbp)
 4857      FFFFFF
 105:TestDeferredTestReporter.cpp ****     
 106:TestDeferredTestReporter.cpp **** 	using namespace std;
 107:TestDeferredTestReporter.cpp **** 
 108:TestDeferredTestReporter.cpp ****     strcpy(failureMessage, goodStr);
 4858              		.loc 3 108 11
 4859 2348 488B9520 		movq	-224(%rbp), %rdx
 4859      FFFFFF
 4860 234f 488D8560 		leaq	-160(%rbp), %rax
 4860      FFFFFF
 4861 2356 4889D6   		movq	%rdx, %rsi
 4862 2359 4889C7   		movq	%rax, %rdi
 4863 235c E8000000 		call	strcpy@PLT
 4863      00
 109:TestDeferredTestReporter.cpp ****     reporter.ReportFailure(details, failureMessage);
 4864              		.loc 3 109 27
 4865 2361 488B8518 		movq	-232(%rbp), %rax
 4865      FFFFFF
 4866              		.loc 3 109 28
 4867 2368 488B9518 		movq	-232(%rbp), %rdx
 4867      FFFFFF
 4868 236f 488D8A88 		leaq	136(%rdx), %rcx
 4868      000000
 4869              		.loc 3 109 27
 4870 2376 488D9560 		leaq	-160(%rbp), %rdx
 4870      FFFFFF
 4871 237d 4889CE   		movq	%rcx, %rsi
 4872 2380 4889C7   		movq	%rax, %rdi
 4873 2383 E8000000 		call	_ZN8UnitTest20DeferredTestReporter13ReportFailureERKNS_11TestDetailsEPKc@PLT
 4873      00
 110:TestDeferredTestReporter.cpp ****     strcpy(failureMessage, badStr);
 4874              		.loc 3 110 11
 4875 2388 488B9528 		movq	-216(%rbp), %rdx
 4875      FFFFFF
 4876 238f 488D8560 		leaq	-160(%rbp), %rax
 4876      FFFFFF
 4877 2396 4889D6   		movq	%rdx, %rsi
 4878 2399 4889C7   		movq	%rax, %rdi
 4879 239c E8000000 		call	strcpy@PLT
 4879      00
 111:TestDeferredTestReporter.cpp **** 
 112:TestDeferredTestReporter.cpp ****     DeferredTestResult const& result = reporter.GetResults().at(0);
 4880              		.loc 3 112 59
 4881 23a1 488B8518 		movq	-232(%rbp), %rax
 4881      FFFFFF
 4882 23a8 4889C7   		movq	%rax, %rdi
 4883 23ab E8000000 		call	_ZN8UnitTest20DeferredTestReporter10GetResultsEv@PLT
 4883      00
 4884              		.loc 3 112 64
 4885 23b0 BE000000 		movl	$0, %esi
 4885      00
 4886 23b5 4889C7   		movq	%rax, %rdi
 4887 23b8 E8000000 		call	_ZNSt6vectorIN8UnitTest18DeferredTestResultESaIS1_EE2atEm
 4887      00
 4888 23bd 48898530 		movq	%rax, -208(%rbp)
 4888      FFFFFF
 113:TestDeferredTestReporter.cpp ****     DeferredTestResult::Failure const& failure = result.failures.at(0);
 4889              		.loc 3 113 68
 4890 23c4 488B8530 		movq	-208(%rbp), %rax
 4890      FFFFFF
 4891 23cb 4883C060 		addq	$96, %rax
 4892 23cf BE000000 		movl	$0, %esi
 4892      00
 4893 23d4 4889C7   		movq	%rax, %rdi
 4894 23d7 E8000000 		call	_ZNKSt6vectorISt4pairIiNSt7__cxx1112basic_stringIcSt11char_traitsIcESaIcEEEESaIS7_EE2atEm
 4894      00
 4895              	.LEHE129:
 4896 23dc 48898538 		movq	%rax, -200(%rbp)
 4896      FFFFFF
 4897              	.LEHB130:
 114:TestDeferredTestReporter.cpp ****     CHECK_EQUAL(goodStr, failure.second);
 4898              		.loc 3 114 5
 4899 23e3 E8000000 		call	_ZN8UnitTest11CurrentTest7DetailsEv@PLT
 4899      00
 4900 23e8 488B08   		movq	(%rax), %rcx
 4901 23eb 488D8540 		leaq	-192(%rbp), %rax
 4901      FFFFFF
 4902 23f2 BA720000 		movl	$114, %edx
 4902      00
 4903 23f7 4889CE   		movq	%rcx, %rsi
 4904 23fa 4889C7   		movq	%rax, %rdi
 4905 23fd E8000000 		call	_ZN8UnitTest11TestDetailsC1ERKS0_i@PLT
 4905      00
 4906              		.loc 3 114 5 is_stmt 0 discriminator 4
 4907 2402 488B8538 		movq	-200(%rbp), %rax
 4907      FFFFFF
 4908 2409 488D5808 		leaq	8(%rax), %rbx
 4909 240d E8000000 		call	_ZN8UnitTest11CurrentTest7ResultsEv@PLT
 4909      00
 4910 2412 488B00   		movq	(%rax), %rax
 4911 2415 488D9540 		leaq	-192(%rbp), %rdx
 4911      FFFFFF
 4912 241c 488DB520 		leaq	-224(%rbp), %rsi
 4912      FFFFFF
 4913 2423 4889D1   		movq	%rdx, %rcx
 4914 2426 4889DA   		movq	%rbx, %rdx
 4915 2429 4889C7   		movq	%rax, %rdi
 4916 242c E8000000 		call	_ZN8UnitTest10CheckEqualIPKcNSt7__cxx1112basic_stringIcSt11char_traitsIcESaIcEEEEEvRNS_11Test
 4916      00
 4917              	.LEHE130:
 115:TestDeferredTestReporter.cpp **** }
 4918              		.loc 3 115 1 is_stmt 1
 4919 2431 EB6A     		jmp	.L245
 4920              	.L250:
 4921 2433 F30F1EFA 		endbr64
 114:TestDeferredTestReporter.cpp ****     CHECK_EQUAL(goodStr, failure.second);
 4922              		.loc 3 114 5
 4923 2437 4889C7   		movq	%rax, %rdi
 4924 243a E8000000 		call	__cxa_begin_catch@PLT
 4924      00
 4925              	.LEHB131:
 4926 243f E8000000 		call	_ZN8UnitTest11CurrentTest7ResultsEv@PLT
 4926      00
 114:TestDeferredTestReporter.cpp ****     CHECK_EQUAL(goodStr, failure.second);
 4927              		.loc 3 114 5 is_stmt 0 discriminator 3
 4928 2444 488B18   		movq	(%rax), %rbx
 4929 2447 E8000000 		call	_ZN8UnitTest11CurrentTest7DetailsEv@PLT
 4929      00
 114:TestDeferredTestReporter.cpp ****     CHECK_EQUAL(goodStr, failure.second);
 4930              		.loc 3 114 5 discriminator 11
 4931 244c 488B08   		movq	(%rax), %rcx
 4932 244f 488D8540 		leaq	-192(%rbp), %rax
 4932      FFFFFF
 4933 2456 BA720000 		movl	$114, %edx
 4933      00
 4934 245b 4889CE   		movq	%rcx, %rsi
 4935 245e 4889C7   		movq	%rax, %rdi
 4936 2461 E8000000 		call	_ZN8UnitTest11TestDetailsC1ERKS0_i@PLT
 4936      00
 114:TestDeferredTestReporter.cpp ****     CHECK_EQUAL(goodStr, failure.second);
 4937              		.loc 3 114 5 discriminator 15
 4938 2466 488D8540 		leaq	-192(%rbp), %rax
 4938      FFFFFF
 4939 246d 488D1500 		leaq	.LC31(%rip), %rdx
 4939      000000
 4940 2474 4889C6   		movq	%rax, %rsi
 4941 2477 4889DF   		movq	%rbx, %rdi
 4942 247a E8000000 		call	_ZN8UnitTest11TestResults13OnTestFailureERKNS_11TestDetailsEPKc@PLT
 4942      00
 4943              	.LEHE131:
 4944              	.LEHB132:
 114:TestDeferredTestReporter.cpp ****     CHECK_EQUAL(goodStr, failure.second);
 4945              		.loc 3 114 5 discriminator 17
 4946 247f E8000000 		call	__cxa_end_catch@PLT
 4946      00
 4947              	.LEHE132:
 4948              		.loc 3 115 1 is_stmt 1 discriminator 17
 4949 2484 EB17     		jmp	.L245
 4950              	.L251:
 4951 2486 F30F1EFA 		endbr64
 114:TestDeferredTestReporter.cpp ****     CHECK_EQUAL(goodStr, failure.second);
 4952              		.loc 3 114 5
 4953 248a 4889C3   		movq	%rax, %rbx
 4954 248d E8000000 		call	__cxa_end_catch@PLT
 4954      00
 4955 2492 4889D8   		movq	%rbx, %rax
 4956 2495 4889C7   		movq	%rax, %rdi
 4957              	.LEHB133:
 4958 2498 E8000000 		call	_Unwind_Resume@PLT
 4958      00
 4959              	.LEHE133:
 4960              	.L245:
 4961              		.loc 3 115 1
 4962 249d 488B45E8 		movq	-24(%rbp), %rax
 4963 24a1 64482B04 		subq	%fs:40, %rax
 4963      25280000 
 4963      00
 4964 24aa 7405     		je	.L249
 4965 24ac E8000000 		call	__stack_chk_fail@PLT
 4965      00
 4966              	.L249:
 4967 24b1 488B5DF8 		movq	-8(%rbp), %rbx
 4968 24b5 C9       		leave
 4969              		.cfi_def_cfa 7, 8
 4970 24b6 C3       		ret
 4971              		.cfi_endproc
 4972              	.LFE1490:
 4973              		.section	.gcc_except_table
 4974              		.align 4
 4975              	.LLSDA1490:
 4976 0368 FF       		.byte	0xff
 4977 0369 9B       		.byte	0x9b
 4978 036a 25       		.uleb128 .LLSDATT1490-.LLSDATTD1490
 4979              	.LLSDATTD1490:
 4980 036b 01       		.byte	0x1
 4981 036c 1B       		.uleb128 .LLSDACSE1490-.LLSDACSB1490
 4982              	.LLSDACSB1490:
 4983 036d 41       		.uleb128 .LEHB129-.LFB1490
 4984 036e B501     		.uleb128 .LEHE129-.LEHB129
 4985 0370 00       		.uleb128 0
 4986 0371 00       		.uleb128 0
 4987 0372 FD01     		.uleb128 .LEHB130-.LFB1490
 4988 0374 4E       		.uleb128 .LEHE130-.LEHB130
 4989 0375 CD02     		.uleb128 .L250-.LFB1490
 4990 0377 01       		.uleb128 0x1
 4991 0378 D902     		.uleb128 .LEHB131-.LFB1490
 4992 037a 40       		.uleb128 .LEHE131-.LEHB131
 4993 037b A003     		.uleb128 .L251-.LFB1490
 4994 037d 00       		.uleb128 0
 4995 037e 9903     		.uleb128 .LEHB132-.LFB1490
 4996 0380 05       		.uleb128 .LEHE132-.LEHB132
 4997 0381 00       		.uleb128 0
 4998 0382 00       		.uleb128 0
 4999 0383 B203     		.uleb128 .LEHB133-.LFB1490
 5000 0385 05       		.uleb128 .LEHE133-.LEHB133
 5001 0386 00       		.uleb128 0
 5002 0387 00       		.uleb128 0
 5003              	.LLSDACSE1490:
 5004 0388 01       		.byte	0x1
 5005 0389 00       		.byte	0
 5006 038a 0000     		.align 4
 5007 038c 00000000 		.long	0
 5008              	
 5009              	.LLSDATT1490:
 5010              		.text
 5012              		.section	.text._ZNSt6vectorIN8UnitTest18DeferredTestResultESaIS1_EEC2Ev,"axG",@progbits,_ZNSt6vect
 5013              		.align 2
 5014              		.weak	_ZNSt6vectorIN8UnitTest18DeferredTestResultESaIS1_EEC2Ev
 5016              	_ZNSt6vectorIN8UnitTest18DeferredTestResultESaIS1_EEC2Ev:
 5017              	.LFB1520:
 5018              		.file 6 "/usr/include/c++/11/bits/stl_vector.h"
   1:/usr/include/c++/11/bits/stl_vector.h **** // Vector implementation -*- C++ -*-
   2:/usr/include/c++/11/bits/stl_vector.h **** 
   3:/usr/include/c++/11/bits/stl_vector.h **** // Copyright (C) 2001-2021 Free Software Foundation, Inc.
   4:/usr/include/c++/11/bits/stl_vector.h **** //
   5:/usr/include/c++/11/bits/stl_vector.h **** // This file is part of the GNU ISO C++ Library.  This library is free
   6:/usr/include/c++/11/bits/stl_vector.h **** // software; you can redistribute it and/or modify it under the
   7:/usr/include/c++/11/bits/stl_vector.h **** // terms of the GNU General Public License as published by the
   8:/usr/include/c++/11/bits/stl_vector.h **** // Free Software Foundation; either version 3, or (at your option)
   9:/usr/include/c++/11/bits/stl_vector.h **** // any later version.
  10:/usr/include/c++/11/bits/stl_vector.h **** 
  11:/usr/include/c++/11/bits/stl_vector.h **** // This library is distributed in the hope that it will be useful,
  12:/usr/include/c++/11/bits/stl_vector.h **** // but WITHOUT ANY WARRANTY; without even the implied warranty of
  13:/usr/include/c++/11/bits/stl_vector.h **** // MERCHANTABILITY or FITNESS FOR A PARTICULAR PURPOSE.  See the
  14:/usr/include/c++/11/bits/stl_vector.h **** // GNU General Public License for more details.
  15:/usr/include/c++/11/bits/stl_vector.h **** 
  16:/usr/include/c++/11/bits/stl_vector.h **** // Under Section 7 of GPL version 3, you are granted additional
  17:/usr/include/c++/11/bits/stl_vector.h **** // permissions described in the GCC Runtime Library Exception, version
  18:/usr/include/c++/11/bits/stl_vector.h **** // 3.1, as published by the Free Software Foundation.
  19:/usr/include/c++/11/bits/stl_vector.h **** 
  20:/usr/include/c++/11/bits/stl_vector.h **** // You should have received a copy of the GNU General Public License and
  21:/usr/include/c++/11/bits/stl_vector.h **** // a copy of the GCC Runtime Library Exception along with this program;
  22:/usr/include/c++/11/bits/stl_vector.h **** // see the files COPYING3 and COPYING.RUNTIME respectively.  If not, see
  23:/usr/include/c++/11/bits/stl_vector.h **** // <http://www.gnu.org/licenses/>.
  24:/usr/include/c++/11/bits/stl_vector.h **** 
  25:/usr/include/c++/11/bits/stl_vector.h **** /*
  26:/usr/include/c++/11/bits/stl_vector.h ****  *
  27:/usr/include/c++/11/bits/stl_vector.h ****  * Copyright (c) 1994
  28:/usr/include/c++/11/bits/stl_vector.h ****  * Hewlett-Packard Company
  29:/usr/include/c++/11/bits/stl_vector.h ****  *
  30:/usr/include/c++/11/bits/stl_vector.h ****  * Permission to use, copy, modify, distribute and sell this software
  31:/usr/include/c++/11/bits/stl_vector.h ****  * and its documentation for any purpose is hereby granted without fee,
  32:/usr/include/c++/11/bits/stl_vector.h ****  * provided that the above copyright notice appear in all copies and
  33:/usr/include/c++/11/bits/stl_vector.h ****  * that both that copyright notice and this permission notice appear
  34:/usr/include/c++/11/bits/stl_vector.h ****  * in supporting documentation.  Hewlett-Packard Company makes no
  35:/usr/include/c++/11/bits/stl_vector.h ****  * representations about the suitability of this software for any
  36:/usr/include/c++/11/bits/stl_vector.h ****  * purpose.  It is provided "as is" without express or implied warranty.
  37:/usr/include/c++/11/bits/stl_vector.h ****  *
  38:/usr/include/c++/11/bits/stl_vector.h ****  *
  39:/usr/include/c++/11/bits/stl_vector.h ****  * Copyright (c) 1996
  40:/usr/include/c++/11/bits/stl_vector.h ****  * Silicon Graphics Computer Systems, Inc.
  41:/usr/include/c++/11/bits/stl_vector.h ****  *
  42:/usr/include/c++/11/bits/stl_vector.h ****  * Permission to use, copy, modify, distribute and sell this software
  43:/usr/include/c++/11/bits/stl_vector.h ****  * and its documentation for any purpose is hereby granted without fee,
  44:/usr/include/c++/11/bits/stl_vector.h ****  * provided that the above copyright notice appear in all copies and
  45:/usr/include/c++/11/bits/stl_vector.h ****  * that both that copyright notice and this permission notice appear
  46:/usr/include/c++/11/bits/stl_vector.h ****  * in supporting documentation.  Silicon Graphics makes no
  47:/usr/include/c++/11/bits/stl_vector.h ****  * representations about the suitability of this  software for any
  48:/usr/include/c++/11/bits/stl_vector.h ****  * purpose.  It is provided "as is" without express or implied warranty.
  49:/usr/include/c++/11/bits/stl_vector.h ****  */
  50:/usr/include/c++/11/bits/stl_vector.h **** 
  51:/usr/include/c++/11/bits/stl_vector.h **** /** @file bits/stl_vector.h
  52:/usr/include/c++/11/bits/stl_vector.h ****  *  This is an internal header file, included by other library headers.
  53:/usr/include/c++/11/bits/stl_vector.h ****  *  Do not attempt to use it directly. @headername{vector}
  54:/usr/include/c++/11/bits/stl_vector.h ****  */
  55:/usr/include/c++/11/bits/stl_vector.h **** 
  56:/usr/include/c++/11/bits/stl_vector.h **** #ifndef _STL_VECTOR_H
  57:/usr/include/c++/11/bits/stl_vector.h **** #define _STL_VECTOR_H 1
  58:/usr/include/c++/11/bits/stl_vector.h **** 
  59:/usr/include/c++/11/bits/stl_vector.h **** #include <bits/stl_iterator_base_funcs.h>
  60:/usr/include/c++/11/bits/stl_vector.h **** #include <bits/functexcept.h>
  61:/usr/include/c++/11/bits/stl_vector.h **** #include <bits/concept_check.h>
  62:/usr/include/c++/11/bits/stl_vector.h **** #if __cplusplus >= 201103L
  63:/usr/include/c++/11/bits/stl_vector.h **** #include <initializer_list>
  64:/usr/include/c++/11/bits/stl_vector.h **** #endif
  65:/usr/include/c++/11/bits/stl_vector.h **** #if __cplusplus > 201703L
  66:/usr/include/c++/11/bits/stl_vector.h **** # include <compare>
  67:/usr/include/c++/11/bits/stl_vector.h **** #endif
  68:/usr/include/c++/11/bits/stl_vector.h **** 
  69:/usr/include/c++/11/bits/stl_vector.h **** #include <debug/assertions.h>
  70:/usr/include/c++/11/bits/stl_vector.h **** 
  71:/usr/include/c++/11/bits/stl_vector.h **** #if _GLIBCXX_SANITIZE_STD_ALLOCATOR && _GLIBCXX_SANITIZE_VECTOR
  72:/usr/include/c++/11/bits/stl_vector.h **** extern "C" void
  73:/usr/include/c++/11/bits/stl_vector.h **** __sanitizer_annotate_contiguous_container(const void*, const void*,
  74:/usr/include/c++/11/bits/stl_vector.h **** 					  const void*, const void*);
  75:/usr/include/c++/11/bits/stl_vector.h **** #endif
  76:/usr/include/c++/11/bits/stl_vector.h **** 
  77:/usr/include/c++/11/bits/stl_vector.h **** namespace std _GLIBCXX_VISIBILITY(default)
  78:/usr/include/c++/11/bits/stl_vector.h **** {
  79:/usr/include/c++/11/bits/stl_vector.h **** _GLIBCXX_BEGIN_NAMESPACE_VERSION
  80:/usr/include/c++/11/bits/stl_vector.h **** _GLIBCXX_BEGIN_NAMESPACE_CONTAINER
  81:/usr/include/c++/11/bits/stl_vector.h **** 
  82:/usr/include/c++/11/bits/stl_vector.h ****   /// See bits/stl_deque.h's _Deque_base for an explanation.
  83:/usr/include/c++/11/bits/stl_vector.h ****   template<typename _Tp, typename _Alloc>
  84:/usr/include/c++/11/bits/stl_vector.h ****     struct _Vector_base
  85:/usr/include/c++/11/bits/stl_vector.h ****     {
  86:/usr/include/c++/11/bits/stl_vector.h ****       typedef typename __gnu_cxx::__alloc_traits<_Alloc>::template
  87:/usr/include/c++/11/bits/stl_vector.h **** 	rebind<_Tp>::other _Tp_alloc_type;
  88:/usr/include/c++/11/bits/stl_vector.h ****       typedef typename __gnu_cxx::__alloc_traits<_Tp_alloc_type>::pointer
  89:/usr/include/c++/11/bits/stl_vector.h ****        	pointer;
  90:/usr/include/c++/11/bits/stl_vector.h **** 
  91:/usr/include/c++/11/bits/stl_vector.h ****       struct _Vector_impl_data
  92:/usr/include/c++/11/bits/stl_vector.h ****       {
  93:/usr/include/c++/11/bits/stl_vector.h **** 	pointer _M_start;
  94:/usr/include/c++/11/bits/stl_vector.h **** 	pointer _M_finish;
