   1              		.file	"TestTestResults.cpp"
   2              		.text
   3              	.Ltext0:
   4              		.file 0 "/home/pong/FPGALink/makestuff/libs/libutpp/tests" "TestTestResults.cpp"
   5              		.section	.rodata
   6              	.LC0:
   7 0000 44656661 		.string	"DefaultSuite"
   7      756C7453 
   7      75697465 
   7      00
   8              		.section	.text._ZN13UnitTestSuite12GetSuiteNameEv,"axG",@progbits,_ZN13UnitTestSuite12GetSuiteName
   9              		.weak	_ZN13UnitTestSuite12GetSuiteNameEv
  11              	_ZN13UnitTestSuite12GetSuiteNameEv:
  12              	.LFB0:
  13              		.file 1 "../TestSuite.h"
   1:../TestSuite.h **** #ifndef UNITTEST_TESTSUITE_H
   2:../TestSuite.h **** #define UNITTEST_TESTSUITE_H
   3:../TestSuite.h **** 
   4:../TestSuite.h **** namespace UnitTestSuite {
   5:../TestSuite.h **** 
   6:../TestSuite.h ****     inline char const* GetSuiteName ()
   7:../TestSuite.h ****     {
  14              		.loc 1 7 5
  15              		.cfi_startproc
  16 0000 F30F1EFA 		endbr64
  17 0004 55       		pushq	%rbp
  18              		.cfi_def_cfa_offset 16
  19              		.cfi_offset 6, -16
  20 0005 4889E5   		movq	%rsp, %rbp
  21              		.cfi_def_cfa_register 6
   8:../TestSuite.h ****         return "DefaultSuite";
  22              		.loc 1 8 16
  23 0008 488D0500 		leaq	.LC0(%rip), %rax
  23      000000
   9:../TestSuite.h ****     }
  24              		.loc 1 9 5
  25 000f 5D       		popq	%rbp
  26              		.cfi_def_cfa 7, 8
  27 0010 C3       		ret
  28              		.cfi_endproc
  29              	.LFE0:
  31              		.section	.text._ZN8UnitTest15MemoryOutStreamC1Ev,"axG",@progbits,_ZN8UnitTest15MemoryOutStreamC1Ev
  32              		.align 2
  33              		.weak	_ZN8UnitTest15MemoryOutStreamC1Ev
  35              	_ZN8UnitTest15MemoryOutStreamC1Ev:
  36              	.LFB1129:
  37              		.file 2 "../MemoryOutStream.h"
   1:../MemoryOutStream.h **** #ifndef UNITTEST_MEMORYOUTSTREAM_H
   2:../MemoryOutStream.h **** #define UNITTEST_MEMORYOUTSTREAM_H
   3:../MemoryOutStream.h **** 
   4:../MemoryOutStream.h **** #include "Config.h"
   5:../MemoryOutStream.h **** 
   6:../MemoryOutStream.h **** #ifndef UNITTEST_USE_CUSTOM_STREAMS
   7:../MemoryOutStream.h **** 
   8:../MemoryOutStream.h **** #include <sstream>
   9:../MemoryOutStream.h **** 
  10:../MemoryOutStream.h **** namespace UnitTest
  11:../MemoryOutStream.h **** {
  12:../MemoryOutStream.h **** 
  13:../MemoryOutStream.h **** class MemoryOutStream : public std::ostringstream
  14:../MemoryOutStream.h **** {
  15:../MemoryOutStream.h **** public:
  16:../MemoryOutStream.h ****     MemoryOutStream() {}
  38              		.loc 2 16 5
  39              		.cfi_startproc
  40              		.cfi_personality 0x9b,DW.ref.__gxx_personality_v0
  41              		.cfi_lsda 0x1b,.LLSDA1129
  42 0000 F30F1EFA 		endbr64
  43 0004 55       		pushq	%rbp
  44              		.cfi_def_cfa_offset 16
  45              		.cfi_offset 6, -16
  46 0005 4889E5   		movq	%rsp, %rbp
  47              		.cfi_def_cfa_register 6
  48 0008 53       		pushq	%rbx
  49 0009 4883EC18 		subq	$24, %rsp
  50              		.cfi_offset 3, -24
  51 000d 48897DE8 		movq	%rdi, -24(%rbp)
  52              	.LBB2:
  53              		.loc 2 16 23
  54 0011 488B45E8 		movq	-24(%rbp), %rax
  55 0015 48059000 		addq	$144, %rax
  55      0000
  56 001b 4889C7   		movq	%rax, %rdi
  57              	.LEHB0:
  58 001e E8000000 		call	_ZNSt9basic_iosIcSt11char_traitsIcEEC2Ev@PLT
  58      00
  59              	.LEHE0:
  60 0023 488B45E8 		movq	-24(%rbp), %rax
  61 0027 488D1500 		leaq	8+_ZTTN8UnitTest15MemoryOutStreamE(%rip), %rdx
  61      000000
  62 002e 4889D6   		movq	%rdx, %rsi
  63 0031 4889C7   		movq	%rax, %rdi
  64              	.LEHB1:
  65 0034 E8000000 		call	_ZNSt7__cxx1119basic_ostringstreamIcSt11char_traitsIcESaIcEEC2Ev@PLT
  65      00
  66              	.LEHE1:
  67              		.loc 2 16 23 is_stmt 0 discriminator 2
  68 0039 488D1500 		leaq	24+_ZTVN8UnitTest15MemoryOutStreamE(%rip), %rdx
  68      000000
  69 0040 488B45E8 		movq	-24(%rbp), %rax
  70 0044 488910   		movq	%rdx, (%rax)
  71 0047 488B45E8 		movq	-24(%rbp), %rax
  72 004b 48059000 		addq	$144, %rax
  72      0000
  73 0051 488D1500 		leaq	64+_ZTVN8UnitTest15MemoryOutStreamE(%rip), %rdx
  73      000000
  74 0058 488910   		movq	%rdx, (%rax)
  75 005b 488B45E8 		movq	-24(%rbp), %rax
  76 005f 4883C070 		addq	$112, %rax
  77 0063 4889C7   		movq	%rax, %rdi
  78              	.LEHB2:
  79 0066 E8000000 		call	_ZNSt7__cxx1112basic_stringIcSt11char_traitsIcESaIcEEC1Ev@PLT
  79      00
  80              	.LEHE2:
  81              	.LBE2:
  82              		.loc 2 16 24 is_stmt 1
  83 006b EB43     		jmp	.L8
  84              	.L7:
  85 006d F30F1EFA 		endbr64
  86              	.LBB3:
  87 0071 4889C3   		movq	%rax, %rbx
  88 0074 488B45E8 		movq	-24(%rbp), %rax
  89 0078 488D1500 		leaq	8+_ZTTN8UnitTest15MemoryOutStreamE(%rip), %rdx
  89      000000
  90 007f 4889D6   		movq	%rdx, %rsi
  91 0082 4889C7   		movq	%rax, %rdi
  92 0085 E8000000 		call	_ZNSt7__cxx1119basic_ostringstreamIcSt11char_traitsIcESaIcEED2Ev@PLT
  92      00
  93 008a EB07     		jmp	.L5
  94              	.L6:
  95 008c F30F1EFA 		endbr64
  96 0090 4889C3   		movq	%rax, %rbx
  97              	.L5:
  98              		.loc 2 16 24 is_stmt 0 discriminator 1
  99 0093 488B45E8 		movq	-24(%rbp), %rax
 100 0097 48059000 		addq	$144, %rax
 100      0000
 101 009d 4889C7   		movq	%rax, %rdi
 102 00a0 E8000000 		call	_ZNSt9basic_iosIcSt11char_traitsIcEED2Ev@PLT
 102      00
 103 00a5 4889D8   		movq	%rbx, %rax
 104 00a8 4889C7   		movq	%rax, %rdi
 105              	.LEHB3:
 106 00ab E8000000 		call	_Unwind_Resume@PLT
 106      00
 107              	.LEHE3:
 108              	.L8:
 109              	.LBE3:
 110              		.loc 2 16 24
 111 00b0 488B5DF8 		movq	-8(%rbp), %rbx
 112 00b4 C9       		leave
 113              		.cfi_def_cfa 7, 8
 114 00b5 C3       		ret
 115              		.cfi_endproc
 116              	.LFE1129:
 117              		.globl	__gxx_personality_v0
 118              		.section	.gcc_except_table._ZN8UnitTest15MemoryOutStreamC1Ev,"aG",@progbits,_ZN8UnitTest15MemoryOu
 119              	.LLSDA1129:
 120 0000 FF       		.byte	0xff
 121 0001 FF       		.byte	0xff
 122 0002 01       		.byte	0x1
 123 0003 12       		.uleb128 .LLSDACSE1129-.LLSDACSB1129
 124              	.LLSDACSB1129:
 125 0004 1E       		.uleb128 .LEHB0-.LFB1129
 126 0005 05       		.uleb128 .LEHE0-.LEHB0
 127 0006 00       		.uleb128 0
 128 0007 00       		.uleb128 0
 129 0008 34       		.uleb128 .LEHB1-.LFB1129
 130 0009 05       		.uleb128 .LEHE1-.LEHB1
 131 000a 8C01     		.uleb128 .L6-.LFB1129
 132 000c 00       		.uleb128 0
 133 000d 66       		.uleb128 .LEHB2-.LFB1129
 134 000e 05       		.uleb128 .LEHE2-.LEHB2
 135 000f 6D       		.uleb128 .L7-.LFB1129
 136 0010 00       		.uleb128 0
 137 0011 AB01     		.uleb128 .LEHB3-.LFB1129
 138 0013 05       		.uleb128 .LEHE3-.LEHB3
 139 0014 00       		.uleb128 0
 140 0015 00       		.uleb128 0
 141              	.LLSDACSE1129:
 142              		.section	.text._ZN8UnitTest15MemoryOutStreamC1Ev,"axG",@progbits,_ZN8UnitTest15MemoryOutStreamC1Ev
 144              		.section	.text._ZN8UnitTest12TestReporterC2Ev,"axG",@progbits,_ZN8UnitTest12TestReporterC5Ev,comda
 145              		.align 2
 146              		.weak	_ZN8UnitTest12TestReporterC2Ev
 148              	_ZN8UnitTest12TestReporterC2Ev:
 149              	.LFB1143:
 150              		.file 3 "../TestReporter.h"
   1:../TestReporter.h **** #ifndef UNITTEST_TESTREPORTER_H
   2:../TestReporter.h **** #define UNITTEST_TESTREPORTER_H
   3:../TestReporter.h **** 
   4:../TestReporter.h **** namespace UnitTest {
   5:../TestReporter.h **** 
   6:../TestReporter.h **** class TestDetails;
   7:../TestReporter.h **** 
   8:../TestReporter.h **** class TestReporter
 151              		.loc 3 8 7 is_stmt 1
 152              		.cfi_startproc
 153 0000 F30F1EFA 		endbr64
 154 0004 55       		pushq	%rbp
 155              		.cfi_def_cfa_offset 16
 156              		.cfi_offset 6, -16
 157 0005 4889E5   		movq	%rsp, %rbp
 158              		.cfi_def_cfa_register 6
 159 0008 48897DF8 		movq	%rdi, -8(%rbp)
 160              	.LBB4:
 161              		.loc 3 8 7
 162 000c 488D1500 		leaq	16+_ZTVN8UnitTest12TestReporterE(%rip), %rdx
 162      000000
 163 0013 488B45F8 		movq	-8(%rbp), %rax
 164 0017 488910   		movq	%rdx, (%rax)
 165              	.LBE4:
 166 001a 90       		nop
 167 001b 5D       		popq	%rbp
 168              		.cfi_def_cfa 7, 8
 169 001c C3       		ret
 170              		.cfi_endproc
 171              	.LFE1143:
 173              		.weak	_ZN8UnitTest12TestReporterC1Ev
 174              		.set	_ZN8UnitTest12TestReporterC1Ev,_ZN8UnitTest12TestReporterC2Ev
 175              		.section	.text._ZN17RecordingReporterC2Ev,"axG",@progbits,_ZN17RecordingReporterC5Ev,comdat
 176              		.align 2
 177              		.weak	_ZN17RecordingReporterC2Ev
 179              	_ZN17RecordingReporterC2Ev:
 180              	.LFB1145:
 181              		.file 4 "RecordingReporter.h"
   1:RecordingReporter.h **** #ifndef UNITTEST_RECORDINGREPORTER_H
   2:RecordingReporter.h **** #define UNITTEST_RECORDINGREPORTER_H
   3:RecordingReporter.h **** 
   4:RecordingReporter.h **** #include "../TestReporter.h"
   5:RecordingReporter.h **** #include <cstring>
   6:RecordingReporter.h **** 
   7:RecordingReporter.h **** #include "../TestDetails.h"
   8:RecordingReporter.h **** 
   9:RecordingReporter.h **** struct RecordingReporter : public UnitTest::TestReporter
  10:RecordingReporter.h **** {
  11:RecordingReporter.h **** private:
  12:RecordingReporter.h ****     enum { kMaxStringLength = 256 };
  13:RecordingReporter.h **** 
  14:RecordingReporter.h **** public:
  15:RecordingReporter.h ****     RecordingReporter()
 182              		.loc 4 15 5
 183              		.cfi_startproc
 184 0000 F30F1EFA 		endbr64
 185 0004 55       		pushq	%rbp
 186              		.cfi_def_cfa_offset 16
 187              		.cfi_offset 6, -16
 188 0005 4889E5   		movq	%rsp, %rbp
 189              		.cfi_def_cfa_register 6
 190 0008 4883EC10 		subq	$16, %rsp
 191 000c 48897DF8 		movq	%rdi, -8(%rbp)
 192              	.LBB5:
  16:RecordingReporter.h ****         : testRunCount(0)
  17:RecordingReporter.h ****         , testFailedCount(0)
  18:RecordingReporter.h ****         , lastFailedLine(0)
  19:RecordingReporter.h ****         , testFinishedCount(0)
  20:RecordingReporter.h ****         , lastFinishedTestTime(0)
  21:RecordingReporter.h ****         , summaryTotalTestCount(0)
  22:RecordingReporter.h ****         , summaryFailedTestCount(0)
  23:RecordingReporter.h ****         , summaryFailureCount(0)
  24:RecordingReporter.h ****         , summarySecondsElapsed(0)
 193              		.loc 4 24 34
 194 0010 488B45F8 		movq	-8(%rbp), %rax
 195 0014 4889C7   		movq	%rax, %rdi
 196 0017 E8000000 		call	_ZN8UnitTest12TestReporterC2Ev
 196      00
 197 001c 488D1500 		leaq	16+_ZTV17RecordingReporter(%rip), %rdx
 197      000000
 198 0023 488B45F8 		movq	-8(%rbp), %rax
 199 0027 488910   		movq	%rdx, (%rax)
  16:RecordingReporter.h ****         : testRunCount(0)
 200              		.loc 4 16 11
 201 002a 488B45F8 		movq	-8(%rbp), %rax
 202 002e C7400800 		movl	$0, 8(%rax)
 202      000000
  17:RecordingReporter.h ****         , lastFailedLine(0)
 203              		.loc 4 17 11
 204 0035 488B45F8 		movq	-8(%rbp), %rax
 205 0039 C7800C02 		movl	$0, 524(%rax)
 205      00000000 
 205      0000
  18:RecordingReporter.h ****         , testFinishedCount(0)
 206              		.loc 4 18 11
 207 0043 488B45F8 		movq	-8(%rbp), %rax
 208 0047 C7801003 		movl	$0, 784(%rax)
 208      00000000 
 208      0000
  19:RecordingReporter.h ****         , lastFinishedTestTime(0)
 209              		.loc 4 19 11
 210 0051 488B45F8 		movq	-8(%rbp), %rax
 211 0055 C7801406 		movl	$0, 1556(%rax)
 211      00000000 
 211      0000
  20:RecordingReporter.h ****         , summaryTotalTestCount(0)
 212              		.loc 4 20 11
 213 005f 488B45F8 		movq	-8(%rbp), %rax
 214 0063 660FEFC0 		pxor	%xmm0, %xmm0
 215 0067 F30F1180 		movss	%xmm0, 2072(%rax)
 215      18080000 
  21:RecordingReporter.h ****         , summaryFailedTestCount(0)
 216              		.loc 4 21 11
 217 006f 488B45F8 		movq	-8(%rbp), %rax
 218 0073 C7801C08 		movl	$0, 2076(%rax)
 218      00000000 
 218      0000
  22:RecordingReporter.h ****         , summaryFailureCount(0)
 219              		.loc 4 22 11
 220 007d 488B45F8 		movq	-8(%rbp), %rax
 221 0081 C7802008 		movl	$0, 2080(%rax)
 221      00000000 
 221      0000
  23:RecordingReporter.h ****         , summarySecondsElapsed(0)
 222              		.loc 4 23 11
 223 008b 488B45F8 		movq	-8(%rbp), %rax
 224 008f C7802408 		movl	$0, 2084(%rax)
 224      00000000 
 224      0000
 225              		.loc 4 24 11
 226 0099 488B45F8 		movq	-8(%rbp), %rax
 227 009d 660FEFC0 		pxor	%xmm0, %xmm0
 228 00a1 F30F1180 		movss	%xmm0, 2088(%rax)
 228      28080000 
  25:RecordingReporter.h ****     {
  26:RecordingReporter.h ****         lastStartedSuite[0] = '\0';
 229              		.loc 4 26 29
 230 00a9 488B45F8 		movq	-8(%rbp), %rax
 231 00ad C6400C00 		movb	$0, 12(%rax)
  27:RecordingReporter.h ****         lastStartedTest[0] = '\0';
 232              		.loc 4 27 28
 233 00b1 488B45F8 		movq	-8(%rbp), %rax
 234 00b5 C6800C01 		movb	$0, 268(%rax)
 234      000000
  28:RecordingReporter.h ****         lastFailedFile[0] = '\0';
 235              		.loc 4 28 27
 236 00bc 488B45F8 		movq	-8(%rbp), %rax
 237 00c0 C6801002 		movb	$0, 528(%rax)
 237      000000
  29:RecordingReporter.h ****         lastFailedSuite[0] = '\0';
 238              		.loc 4 29 28
 239 00c7 488B45F8 		movq	-8(%rbp), %rax
 240 00cb C6801403 		movb	$0, 788(%rax)
 240      000000
  30:RecordingReporter.h ****         lastFailedTest[0] = '\0';
 241              		.loc 4 30 27
 242 00d2 488B45F8 		movq	-8(%rbp), %rax
 243 00d6 C6801404 		movb	$0, 1044(%rax)
 243      000000
  31:RecordingReporter.h ****         lastFailedMessage[0] = '\0';
 244              		.loc 4 31 30
 245 00dd 488B45F8 		movq	-8(%rbp), %rax
 246 00e1 C6801405 		movb	$0, 1300(%rax)
 246      000000
  32:RecordingReporter.h ****         lastFinishedSuite[0] = '\0';
 247              		.loc 4 32 30
 248 00e8 488B45F8 		movq	-8(%rbp), %rax
 249 00ec C6801806 		movb	$0, 1560(%rax)
 249      000000
  33:RecordingReporter.h ****         lastFinishedTest[0] = '\0';
 250              		.loc 4 33 29
 251 00f3 488B45F8 		movq	-8(%rbp), %rax
 252 00f7 C6801807 		movb	$0, 1816(%rax)
 252      000000
 253              	.LBE5:
  34:RecordingReporter.h ****     }
 254              		.loc 4 34 5
 255 00fe 90       		nop
 256 00ff C9       		leave
 257              		.cfi_def_cfa 7, 8
 258 0100 C3       		ret
 259              		.cfi_endproc
 260              	.LFE1145:
 262              		.weak	_ZN17RecordingReporterC1Ev
 263              		.set	_ZN17RecordingReporterC1Ev,_ZN17RecordingReporterC2Ev
 264              		.section	.text._ZN17RecordingReporter15ReportTestStartERKN8UnitTest11TestDetailsE,"axG",@progbits,
 265              		.align 2
 266              		.weak	_ZN17RecordingReporter15ReportTestStartERKN8UnitTest11TestDetailsE
 268              	_ZN17RecordingReporter15ReportTestStartERKN8UnitTest11TestDetailsE:
 269              	.LFB1147:
  35:RecordingReporter.h **** 
  36:RecordingReporter.h ****     virtual void ReportTestStart(UnitTest::TestDetails const& test)
 270              		.loc 4 36 18
 271              		.cfi_startproc
 272 0000 F30F1EFA 		endbr64
 273 0004 55       		pushq	%rbp
 274              		.cfi_def_cfa_offset 16
 275              		.cfi_offset 6, -16
 276 0005 4889E5   		movq	%rsp, %rbp
 277              		.cfi_def_cfa_register 6
 278 0008 4883EC10 		subq	$16, %rsp
 279 000c 48897DF8 		movq	%rdi, -8(%rbp)
 280 0010 488975F0 		movq	%rsi, -16(%rbp)
  37:RecordingReporter.h ****     {
  38:RecordingReporter.h **** 		using namespace std;
  39:RecordingReporter.h **** 
  40:RecordingReporter.h ****         ++testRunCount;
 281              		.loc 4 40 11
 282 0014 488B45F8 		movq	-8(%rbp), %rax
 283 0018 8B4008   		movl	8(%rax), %eax
 284              		.loc 4 40 9
 285 001b 8D5001   		leal	1(%rax), %edx
 286 001e 488B45F8 		movq	-8(%rbp), %rax
 287 0022 895008   		movl	%edx, 8(%rax)
  41:RecordingReporter.h ****         strcpy(lastStartedSuite, test.suiteName);
 288              		.loc 4 41 39
 289 0025 488B45F0 		movq	-16(%rbp), %rax
 290 0029 488B00   		movq	(%rax), %rax
 291              		.loc 4 41 16
 292 002c 488B55F8 		movq	-8(%rbp), %rdx
 293 0030 4883C20C 		addq	$12, %rdx
 294              		.loc 4 41 15
 295 0034 4889C6   		movq	%rax, %rsi
 296 0037 4889D7   		movq	%rdx, %rdi
 297 003a E8000000 		call	strcpy@PLT
 297      00
  42:RecordingReporter.h ****         strcpy(lastStartedTest, test.testName);
 298              		.loc 4 42 38
 299 003f 488B45F0 		movq	-16(%rbp), %rax
 300 0043 488B4008 		movq	8(%rax), %rax
 301              		.loc 4 42 16
 302 0047 488B55F8 		movq	-8(%rbp), %rdx
 303 004b 4881C20C 		addq	$268, %rdx
 303      010000
 304              		.loc 4 42 15
 305 0052 4889C6   		movq	%rax, %rsi
 306 0055 4889D7   		movq	%rdx, %rdi
 307 0058 E8000000 		call	strcpy@PLT
 307      00
  43:RecordingReporter.h ****     }
 308              		.loc 4 43 5
 309 005d 90       		nop
 310 005e C9       		leave
 311              		.cfi_def_cfa 7, 8
 312 005f C3       		ret
 313              		.cfi_endproc
 314              	.LFE1147:
 316              		.section	.text._ZN17RecordingReporter13ReportFailureERKN8UnitTest11TestDetailsEPKc,"axG",@progbits
 317              		.align 2
 318              		.weak	_ZN17RecordingReporter13ReportFailureERKN8UnitTest11TestDetailsEPKc
 320              	_ZN17RecordingReporter13ReportFailureERKN8UnitTest11TestDetailsEPKc:
 321              	.LFB1148:
  44:RecordingReporter.h **** 
  45:RecordingReporter.h ****     virtual void ReportFailure(UnitTest::TestDetails const& test, char const* failure)
 322              		.loc 4 45 18
 323              		.cfi_startproc
 324 0000 F30F1EFA 		endbr64
 325 0004 55       		pushq	%rbp
 326              		.cfi_def_cfa_offset 16
 327              		.cfi_offset 6, -16
 328 0005 4889E5   		movq	%rsp, %rbp
 329              		.cfi_def_cfa_register 6
 330 0008 4883EC20 		subq	$32, %rsp
 331 000c 48897DF8 		movq	%rdi, -8(%rbp)
 332 0010 488975F0 		movq	%rsi, -16(%rbp)
 333 0014 488955E8 		movq	%rdx, -24(%rbp)
  46:RecordingReporter.h ****     {
  47:RecordingReporter.h **** 		using namespace std;
  48:RecordingReporter.h **** 
  49:RecordingReporter.h **** 		++testFailedCount;
 334              		.loc 4 49 5
 335 0018 488B45F8 		movq	-8(%rbp), %rax
 336 001c 8B800C02 		movl	524(%rax), %eax
 336      0000
 337              		.loc 4 49 3
 338 0022 8D5001   		leal	1(%rax), %edx
 339 0025 488B45F8 		movq	-8(%rbp), %rax
 340 0029 89900C02 		movl	%edx, 524(%rax)
 340      0000
  50:RecordingReporter.h ****         strcpy(lastFailedFile, test.filename);
 341              		.loc 4 50 37
 342 002f 488B45F0 		movq	-16(%rbp), %rax
 343 0033 488B4010 		movq	16(%rax), %rax
 344              		.loc 4 50 16
 345 0037 488B55F8 		movq	-8(%rbp), %rdx
 346 003b 4881C210 		addq	$528, %rdx
 346      020000
 347              		.loc 4 50 15
 348 0042 4889C6   		movq	%rax, %rsi
 349 0045 4889D7   		movq	%rdx, %rdi
 350 0048 E8000000 		call	strcpy@PLT
 350      00
  51:RecordingReporter.h ****         lastFailedLine = test.lineNumber;
 351              		.loc 4 51 31
 352 004d 488B45F0 		movq	-16(%rbp), %rax
 353 0051 8B5018   		movl	24(%rax), %edx
 354              		.loc 4 51 24
 355 0054 488B45F8 		movq	-8(%rbp), %rax
 356 0058 89901003 		movl	%edx, 784(%rax)
 356      0000
  52:RecordingReporter.h ****         strcpy(lastFailedSuite, test.suiteName);
 357              		.loc 4 52 38
 358 005e 488B45F0 		movq	-16(%rbp), %rax
 359 0062 488B00   		movq	(%rax), %rax
 360              		.loc 4 52 16
 361 0065 488B55F8 		movq	-8(%rbp), %rdx
 362 0069 4881C214 		addq	$788, %rdx
 362      030000
 363              		.loc 4 52 15
 364 0070 4889C6   		movq	%rax, %rsi
 365 0073 4889D7   		movq	%rdx, %rdi
 366 0076 E8000000 		call	strcpy@PLT
 366      00
  53:RecordingReporter.h ****         strcpy(lastFailedTest, test.testName);
 367              		.loc 4 53 37
 368 007b 488B45F0 		movq	-16(%rbp), %rax
 369 007f 488B4008 		movq	8(%rax), %rax
 370              		.loc 4 53 16
 371 0083 488B55F8 		movq	-8(%rbp), %rdx
 372 0087 4881C214 		addq	$1044, %rdx
 372      040000
 373              		.loc 4 53 15
 374 008e 4889C6   		movq	%rax, %rsi
 375 0091 4889D7   		movq	%rdx, %rdi
 376 0094 E8000000 		call	strcpy@PLT
 376      00
  54:RecordingReporter.h ****         strcpy(lastFailedMessage, failure);
 377              		.loc 4 54 16
 378 0099 488B45F8 		movq	-8(%rbp), %rax
 379 009d 488D9014 		leaq	1300(%rax), %rdx
 379      050000
 380              		.loc 4 54 15
 381 00a4 488B45E8 		movq	-24(%rbp), %rax
 382 00a8 4889C6   		movq	%rax, %rsi
 383 00ab 4889D7   		movq	%rdx, %rdi
 384 00ae E8000000 		call	strcpy@PLT
 384      00
  55:RecordingReporter.h ****     }
 385              		.loc 4 55 5
 386 00b3 90       		nop
 387 00b4 C9       		leave
 388              		.cfi_def_cfa 7, 8
 389 00b5 C3       		ret
 390              		.cfi_endproc
 391              	.LFE1148:
 393              		.section	.text._ZN17RecordingReporter16ReportTestFinishERKN8UnitTest11TestDetailsEf,"axG",@progbit
 394              		.align 2
 395              		.weak	_ZN17RecordingReporter16ReportTestFinishERKN8UnitTest11TestDetailsEf
 397              	_ZN17RecordingReporter16ReportTestFinishERKN8UnitTest11TestDetailsEf:
 398              	.LFB1149:
  56:RecordingReporter.h **** 
  57:RecordingReporter.h ****     virtual void ReportTestFinish(UnitTest::TestDetails const& test, float testDuration)
 399              		.loc 4 57 18
 400              		.cfi_startproc
 401 0000 F30F1EFA 		endbr64
 402 0004 55       		pushq	%rbp
 403              		.cfi_def_cfa_offset 16
 404              		.cfi_offset 6, -16
 405 0005 4889E5   		movq	%rsp, %rbp
 406              		.cfi_def_cfa_register 6
 407 0008 4883EC20 		subq	$32, %rsp
 408 000c 48897DF8 		movq	%rdi, -8(%rbp)
 409 0010 488975F0 		movq	%rsi, -16(%rbp)
 410 0014 F30F1145 		movss	%xmm0, -20(%rbp)
 410      EC
  58:RecordingReporter.h ****     {
  59:RecordingReporter.h **** 		using namespace std;
  60:RecordingReporter.h **** 
  61:RecordingReporter.h **** 		++testFinishedCount;
 411              		.loc 4 61 5
 412 0019 488B45F8 		movq	-8(%rbp), %rax
 413 001d 8B801406 		movl	1556(%rax), %eax
 413      0000
 414              		.loc 4 61 3
 415 0023 8D5001   		leal	1(%rax), %edx
 416 0026 488B45F8 		movq	-8(%rbp), %rax
 417 002a 89901406 		movl	%edx, 1556(%rax)
 417      0000
  62:RecordingReporter.h ****         strcpy(lastFinishedSuite, test.suiteName);
 418              		.loc 4 62 40
 419 0030 488B45F0 		movq	-16(%rbp), %rax
 420 0034 488B00   		movq	(%rax), %rax
 421              		.loc 4 62 16
 422 0037 488B55F8 		movq	-8(%rbp), %rdx
 423 003b 4881C218 		addq	$1560, %rdx
 423      060000
 424              		.loc 4 62 15
 425 0042 4889C6   		movq	%rax, %rsi
 426 0045 4889D7   		movq	%rdx, %rdi
 427 0048 E8000000 		call	strcpy@PLT
 427      00
  63:RecordingReporter.h ****         strcpy(lastFinishedTest, test.testName);
 428              		.loc 4 63 39
 429 004d 488B45F0 		movq	-16(%rbp), %rax
 430 0051 488B4008 		movq	8(%rax), %rax
 431              		.loc 4 63 16
 432 0055 488B55F8 		movq	-8(%rbp), %rdx
 433 0059 4881C218 		addq	$1816, %rdx
 433      070000
 434              		.loc 4 63 15
 435 0060 4889C6   		movq	%rax, %rsi
 436 0063 4889D7   		movq	%rdx, %rdi
 437 0066 E8000000 		call	strcpy@PLT
 437      00
  64:RecordingReporter.h ****         lastFinishedTestTime = testDuration;
 438              		.loc 4 64 30
 439 006b 488B45F8 		movq	-8(%rbp), %rax
 440 006f F30F1045 		movss	-20(%rbp), %xmm0
 440      EC
 441 0074 F30F1180 		movss	%xmm0, 2072(%rax)
 441      18080000 
  65:RecordingReporter.h ****     }
 442              		.loc 4 65 5
 443 007c 90       		nop
 444 007d C9       		leave
 445              		.cfi_def_cfa 7, 8
 446 007e C3       		ret
 447              		.cfi_endproc
 448              	.LFE1149:
 450              		.section	.text._ZN17RecordingReporter13ReportSummaryEiiif,"axG",@progbits,_ZN17RecordingReporter13
 451              		.align 2
 452              		.weak	_ZN17RecordingReporter13ReportSummaryEiiif
 454              	_ZN17RecordingReporter13ReportSummaryEiiif:
 455              	.LFB1150:
  66:RecordingReporter.h **** 
  67:RecordingReporter.h ****     virtual void ReportSummary(int totalTestCount, int failedTestCount, int failureCount, float sec
 456              		.loc 4 67 18
 457              		.cfi_startproc
 458 0000 F30F1EFA 		endbr64
 459 0004 55       		pushq	%rbp
 460              		.cfi_def_cfa_offset 16
 461              		.cfi_offset 6, -16
 462 0005 4889E5   		movq	%rsp, %rbp
 463              		.cfi_def_cfa_register 6
 464 0008 48897DF8 		movq	%rdi, -8(%rbp)
 465 000c 8975F4   		movl	%esi, -12(%rbp)
 466 000f 8955F0   		movl	%edx, -16(%rbp)
 467 0012 894DEC   		movl	%ecx, -20(%rbp)
 468 0015 F30F1145 		movss	%xmm0, -24(%rbp)
 468      E8
  68:RecordingReporter.h ****     {
  69:RecordingReporter.h ****         summaryTotalTestCount = totalTestCount;
 469              		.loc 4 69 31
 470 001a 488B45F8 		movq	-8(%rbp), %rax
 471 001e 8B55F4   		movl	-12(%rbp), %edx
 472 0021 89901C08 		movl	%edx, 2076(%rax)
 472      0000
  70:RecordingReporter.h ****         summaryFailedTestCount = failedTestCount;
 473              		.loc 4 70 32
 474 0027 488B45F8 		movq	-8(%rbp), %rax
 475 002b 8B55F0   		movl	-16(%rbp), %edx
 476 002e 89902008 		movl	%edx, 2080(%rax)
 476      0000
  71:RecordingReporter.h ****         summaryFailureCount = failureCount;
 477              		.loc 4 71 29
 478 0034 488B45F8 		movq	-8(%rbp), %rax
 479 0038 8B55EC   		movl	-20(%rbp), %edx
 480 003b 89902408 		movl	%edx, 2084(%rax)
 480      0000
  72:RecordingReporter.h ****         summarySecondsElapsed = secondsElapsed;
 481              		.loc 4 72 31
 482 0041 488B45F8 		movq	-8(%rbp), %rax
 483 0045 F30F1045 		movss	-24(%rbp), %xmm0
 483      E8
 484 004a F30F1180 		movss	%xmm0, 2088(%rax)
 484      28080000 
  73:RecordingReporter.h ****     }
 485              		.loc 4 73 5
 486 0052 90       		nop
 487 0053 5D       		popq	%rbp
 488              		.cfi_def_cfa 7, 8
 489 0054 C3       		ret
 490              		.cfi_endproc
 491              	.LFE1150:
 493              		.local	_ZN12_GLOBAL__N_1L7detailsE
 494              		.comm	_ZN12_GLOBAL__N_1L7detailsE,32,32
 495              		.section	.rodata
 496              	.LC2:
 497 000d 54657374 		.string	"TestTestResults.cpp"
 497      54657374 
 497      52657375 
 497      6C74732E 
 497      63707000 
 498              	.LC3:
 499 0021 53746172 		.string	"StartsWithNoTestsRun"
 499      74735769 
 499      74684E6F 
 499      54657374 
 499      7352756E 
 500              		.text
 501              		.align 2
 503              	_ZN12_GLOBAL__N_124TestStartsWithNoTestsRunC2Ev:
 504              	.LFB1152:
 505              		.file 5 "TestTestResults.cpp"
   1:TestTestResults.cpp **** #include "../UnitTest++.h"
   2:TestTestResults.cpp **** #include "../TestResults.h"
   3:TestTestResults.cpp **** #include "RecordingReporter.h"
   4:TestTestResults.cpp **** 
   5:TestTestResults.cpp **** using namespace UnitTest;
   6:TestTestResults.cpp **** 
   7:TestTestResults.cpp **** namespace {
   8:TestTestResults.cpp **** 
   9:TestTestResults.cpp **** TestDetails const details("testname", "suitename", "filename", 123);
  10:TestTestResults.cpp **** 
  11:TestTestResults.cpp **** 
  12:TestTestResults.cpp **** TEST(StartsWithNoTestsRun)
 506              		.loc 5 12 1
 507              		.cfi_startproc
 508 0000 55       		pushq	%rbp
 509              		.cfi_def_cfa_offset 16
 510              		.cfi_offset 6, -16
 511 0001 4889E5   		movq	%rsp, %rbp
 512              		.cfi_def_cfa_register 6
 513 0004 53       		pushq	%rbx
 514 0005 4883EC18 		subq	$24, %rsp
 515              		.cfi_offset 3, -24
 516 0009 48897DE8 		movq	%rdi, -24(%rbp)
 517              	.LBB6:
 518              		.loc 5 12 1
 519 000d 488B5DE8 		movq	-24(%rbp), %rbx
 520 0011 E8000000 		call	_ZN13UnitTestSuite12GetSuiteNameEv
 520      00
 521 0016 4889C2   		movq	%rax, %rdx
 522 0019 41B80C00 		movl	$12, %r8d
 522      0000
 523 001f 488D0500 		leaq	.LC2(%rip), %rax
 523      000000
 524 0026 4889C1   		movq	%rax, %rcx
 525 0029 488D0500 		leaq	.LC3(%rip), %rax
 525      000000
 526 0030 4889C6   		movq	%rax, %rsi
 527 0033 4889DF   		movq	%rbx, %rdi
 528 0036 E8000000 		call	_ZN8UnitTest4TestC2EPKcS2_S2_i@PLT
 528      00
 529 003b 488D1500 		leaq	16+_ZTVN12_GLOBAL__N_124TestStartsWithNoTestsRunE(%rip), %rdx
 529      000000
 530 0042 488B45E8 		movq	-24(%rbp), %rax
 531 0046 488910   		movq	%rdx, (%rax)
 532              	.LBE6:
 533 0049 90       		nop
 534 004a 488B5DF8 		movq	-8(%rbp), %rbx
 535 004e C9       		leave
 536              		.cfi_def_cfa 7, 8
 537 004f C3       		ret
 538              		.cfi_endproc
 539              	.LFE1152:
 541              		.set	_ZN12_GLOBAL__N_124TestStartsWithNoTestsRunC1Ev,_ZN12_GLOBAL__N_124TestStartsWithNoTestsRunC2
 542              		.local	_ZN12_GLOBAL__N_132testStartsWithNoTestsRunInstanceE
 543              		.comm	_ZN12_GLOBAL__N_132testStartsWithNoTestsRunInstanceE,56,32
 544              		.local	_ZN12_GLOBAL__N_125adderStartsWithNoTestsRunE
 545              		.comm	_ZN12_GLOBAL__N_125adderStartsWithNoTestsRunE,1,1
 546              		.section	.rodata
 547 0036 0000     		.align 8
 548              	.LC4:
 549 0038 556E6861 		.string	"Unhandled exception in CHECK_EQUAL(0, results.GetTotalTestCount())"
 549      6E646C65 
 549      64206578 
 549      63657074 
 549      696F6E20 
 550              		.text
 551              		.align 2
 553              	_ZNK12_GLOBAL__N_124TestStartsWithNoTestsRun7RunImplEv:
 554              	.LFB1154:
  13:TestTestResults.cpp **** {
 555              		.loc 5 13 1
 556              		.cfi_startproc
 557              		.cfi_personality 0x9b,DW.ref.__gxx_personality_v0
 558              		.cfi_lsda 0x1b,.LLSDA1154
 559 0050 F30F1EFA 		endbr64
 560 0054 55       		pushq	%rbp
 561              		.cfi_def_cfa_offset 16
 562              		.cfi_offset 6, -16
 563 0055 4889E5   		movq	%rsp, %rbp
 564              		.cfi_def_cfa_register 6
 565 0058 53       		pushq	%rbx
 566 0059 4883EC78 		subq	$120, %rsp
 567              		.cfi_offset 3, -24
 568 005d 48897D88 		movq	%rdi, -120(%rbp)
 569              		.loc 5 13 1
 570 0061 64488B04 		movq	%fs:40, %rax
 570      25280000 
 570      00
 571 006a 488945E8 		movq	%rax, -24(%rbp)
 572 006e 31C0     		xorl	%eax, %eax
  14:TestTestResults.cpp ****     TestResults results;
 573              		.loc 5 14 17
 574 0070 488D45A0 		leaq	-96(%rbp), %rax
 575 0074 BE000000 		movl	$0, %esi
 575      00
 576 0079 4889C7   		movq	%rax, %rdi
 577              	.LEHB4:
 578 007c E8000000 		call	_ZN8UnitTest11TestResultsC1EPNS_12TestReporterE@PLT
 578      00
 579              	.LEHE4:
 580              	.LEHB5:
  15:TestTestResults.cpp ****     CHECK_EQUAL (0, results.GetTotalTestCount());
 581              		.loc 5 15 5
 582 0081 E8000000 		call	_ZN8UnitTest11CurrentTest7DetailsEv@PLT
 582      00
 583 0086 488B08   		movq	(%rax), %rcx
 584 0089 488D45C0 		leaq	-64(%rbp), %rax
 585 008d BA0F0000 		movl	$15, %edx
 585      00
 586 0092 4889CE   		movq	%rcx, %rsi
 587 0095 4889C7   		movq	%rax, %rdi
 588 0098 E8000000 		call	_ZN8UnitTest11TestDetailsC1ERKS0_i@PLT
 588      00
 589              		.loc 5 15 5 is_stmt 0 discriminator 4
 590 009d 488D45A0 		leaq	-96(%rbp), %rax
 591 00a1 4889C7   		movq	%rax, %rdi
 592 00a4 E8000000 		call	_ZNK8UnitTest11TestResults17GetTotalTestCountEv@PLT
 592      00
 593 00a9 89459C   		movl	%eax, -100(%rbp)
 594 00ac C7459800 		movl	$0, -104(%rbp)
 594      000000
 595 00b3 E8000000 		call	_ZN8UnitTest11CurrentTest7ResultsEv@PLT
 595      00
 596              		.loc 5 15 5 discriminator 6
 597 00b8 488B00   		movq	(%rax), %rax
 598 00bb 488D4DC0 		leaq	-64(%rbp), %rcx
 599 00bf 488D559C 		leaq	-100(%rbp), %rdx
 600 00c3 488D7598 		leaq	-104(%rbp), %rsi
 601 00c7 4889C7   		movq	%rax, %rdi
 602 00ca E8000000 		call	_ZN8UnitTest10CheckEqualIiiEEvRNS_11TestResultsERKT_RKT0_RKNS_11TestDetailsE
 602      00
 603              	.LEHE5:
  16:TestTestResults.cpp **** }
 604              		.loc 5 16 1 is_stmt 1
 605 00cf EB64     		jmp	.L16
 606              	.L21:
 607 00d1 F30F1EFA 		endbr64
  15:TestTestResults.cpp ****     CHECK_EQUAL (0, results.GetTotalTestCount());
 608              		.loc 5 15 5
 609 00d5 4889C7   		movq	%rax, %rdi
 610 00d8 E8000000 		call	__cxa_begin_catch@PLT
 610      00
 611              	.LEHB6:
 612 00dd E8000000 		call	_ZN8UnitTest11CurrentTest7ResultsEv@PLT
 612      00
  15:TestTestResults.cpp ****     CHECK_EQUAL (0, results.GetTotalTestCount());
 613              		.loc 5 15 5 is_stmt 0 discriminator 3
 614 00e2 488B18   		movq	(%rax), %rbx
 615 00e5 E8000000 		call	_ZN8UnitTest11CurrentTest7DetailsEv@PLT
 615      00
  15:TestTestResults.cpp ****     CHECK_EQUAL (0, results.GetTotalTestCount());
 616              		.loc 5 15 5 discriminator 13
 617 00ea 488B08   		movq	(%rax), %rcx
 618 00ed 488D45C0 		leaq	-64(%rbp), %rax
 619 00f1 BA0F0000 		movl	$15, %edx
 619      00
 620 00f6 4889CE   		movq	%rcx, %rsi
 621 00f9 4889C7   		movq	%rax, %rdi
 622 00fc E8000000 		call	_ZN8UnitTest11TestDetailsC1ERKS0_i@PLT
 622      00
  15:TestTestResults.cpp ****     CHECK_EQUAL (0, results.GetTotalTestCount());
 623              		.loc 5 15 5 discriminator 17
 624 0101 488D45C0 		leaq	-64(%rbp), %rax
 625 0105 488D1500 		leaq	.LC4(%rip), %rdx
 625      000000
 626 010c 4889C6   		movq	%rax, %rsi
 627 010f 4889DF   		movq	%rbx, %rdi
 628 0112 E8000000 		call	_ZN8UnitTest11TestResults13OnTestFailureERKNS_11TestDetailsEPKc@PLT
 628      00
 629              	.LEHE6:
 630              	.LEHB7:
  15:TestTestResults.cpp ****     CHECK_EQUAL (0, results.GetTotalTestCount());
 631              		.loc 5 15 5 discriminator 19
 632 0117 E8000000 		call	__cxa_end_catch@PLT
 632      00
 633              	.LEHE7:
 634              		.loc 5 16 1 is_stmt 1 discriminator 19
 635 011c EB17     		jmp	.L16
 636              	.L22:
 637 011e F30F1EFA 		endbr64
  15:TestTestResults.cpp ****     CHECK_EQUAL (0, results.GetTotalTestCount());
 638              		.loc 5 15 5
 639 0122 4889C3   		movq	%rax, %rbx
 640 0125 E8000000 		call	__cxa_end_catch@PLT
 640      00
 641 012a 4889D8   		movq	%rbx, %rax
 642 012d 4889C7   		movq	%rax, %rdi
 643              	.LEHB8:
 644 0130 E8000000 		call	_Unwind_Resume@PLT
 644      00
 645              	.LEHE8:
 646              	.L16:
 647              		.loc 5 16 1
 648 0135 488B45E8 		movq	-24(%rbp), %rax
 649 0139 64482B04 		subq	%fs:40, %rax
 649      25280000 
 649      00
 650 0142 7405     		je	.L20
 651 0144 E8000000 		call	__stack_chk_fail@PLT
 651      00
 652              	.L20:
 653 0149 488B5DF8 		movq	-8(%rbp), %rbx
 654 014d C9       		leave
 655              		.cfi_def_cfa 7, 8
 656 014e C3       		ret
 657              		.cfi_endproc
 658              	.LFE1154:
 659              		.section	.gcc_except_table,"a",@progbits
 660              		.align 4
 661              	.LLSDA1154:
 662 0000 FF       		.byte	0xff
 663 0001 9B       		.byte	0x9b
 664 0002 21       		.uleb128 .LLSDATT1154-.LLSDATTD1154
 665              	.LLSDATTD1154:
 666 0003 01       		.byte	0x1
 667 0004 19       		.uleb128 .LLSDACSE1154-.LLSDACSB1154
 668              	.LLSDACSB1154:
 669 0005 2C       		.uleb128 .LEHB4-.LFB1154
 670 0006 05       		.uleb128 .LEHE4-.LEHB4
 671 0007 00       		.uleb128 0
 672 0008 00       		.uleb128 0
 673 0009 31       		.uleb128 .LEHB5-.LFB1154
 674 000a 4E       		.uleb128 .LEHE5-.LEHB5
 675 000b 8101     		.uleb128 .L21-.LFB1154
 676 000d 01       		.uleb128 0x1
 677 000e 8D01     		.uleb128 .LEHB6-.LFB1154
 678 0010 3A       		.uleb128 .LEHE6-.LEHB6
 679 0011 CE01     		.uleb128 .L22-.LFB1154
 680 0013 00       		.uleb128 0
 681 0014 C701     		.uleb128 .LEHB7-.LFB1154
 682 0016 05       		.uleb128 .LEHE7-.LEHB7
 683 0017 00       		.uleb128 0
 684 0018 00       		.uleb128 0
 685 0019 E001     		.uleb128 .LEHB8-.LFB1154
 686 001b 05       		.uleb128 .LEHE8-.LEHB8
 687 001c 00       		.uleb128 0
 688 001d 00       		.uleb128 0
 689              	.LLSDACSE1154:
 690 001e 01       		.byte	0x1
 691 001f 00       		.byte	0
 692              		.align 4
 693 0020 00000000 		.long	0
 694              	
 695              	.LLSDATT1154:
 696              		.text
 698              		.section	.rodata
 699              	.LC5:
 700 007b 5265636F 		.string	"RecordsNumbersOfTests"
 700      7264734E 
 700      756D6265 
 700      72734F66 
 700      54657374 
 701              		.text
 702 014f 90       		.align 2
 704              	_ZN12_GLOBAL__N_125TestRecordsNumbersOfTestsC2Ev:
 705              	.LFB1156:
  17:TestTestResults.cpp **** 
  18:TestTestResults.cpp **** TEST(RecordsNumbersOfTests)
 706              		.loc 5 18 1
 707              		.cfi_startproc
 708 0150 55       		pushq	%rbp
 709              		.cfi_def_cfa_offset 16
 710              		.cfi_offset 6, -16
 711 0151 4889E5   		movq	%rsp, %rbp
 712              		.cfi_def_cfa_register 6
 713 0154 53       		pushq	%rbx
 714 0155 4883EC18 		subq	$24, %rsp
 715              		.cfi_offset 3, -24
 716 0159 48897DE8 		movq	%rdi, -24(%rbp)
 717              	.LBB7:
 718              		.loc 5 18 1
 719 015d 488B5DE8 		movq	-24(%rbp), %rbx
 720 0161 E8000000 		call	_ZN13UnitTestSuite12GetSuiteNameEv
 720      00
 721 0166 4889C2   		movq	%rax, %rdx
 722 0169 41B81200 		movl	$18, %r8d
 722      0000
 723 016f 488D0500 		leaq	.LC2(%rip), %rax
 723      000000
 724 0176 4889C1   		movq	%rax, %rcx
 725 0179 488D0500 		leaq	.LC5(%rip), %rax
 725      000000
 726 0180 4889C6   		movq	%rax, %rsi
 727 0183 4889DF   		movq	%rbx, %rdi
 728 0186 E8000000 		call	_ZN8UnitTest4TestC2EPKcS2_S2_i@PLT
 728      00
 729 018b 488D1500 		leaq	16+_ZTVN12_GLOBAL__N_125TestRecordsNumbersOfTestsE(%rip), %rdx
 729      000000
 730 0192 488B45E8 		movq	-24(%rbp), %rax
 731 0196 488910   		movq	%rdx, (%rax)
 732              	.LBE7:
 733 0199 90       		nop
 734 019a 488B5DF8 		movq	-8(%rbp), %rbx
 735 019e C9       		leave
 736              		.cfi_def_cfa 7, 8
 737 019f C3       		ret
 738              		.cfi_endproc
 739              	.LFE1156:
 741              		.set	_ZN12_GLOBAL__N_125TestRecordsNumbersOfTestsC1Ev,_ZN12_GLOBAL__N_125TestRecordsNumbersOfTests
 742              		.local	_ZN12_GLOBAL__N_133testRecordsNumbersOfTestsInstanceE
 743              		.comm	_ZN12_GLOBAL__N_133testRecordsNumbersOfTestsInstanceE,56,32
 744              		.local	_ZN12_GLOBAL__N_126adderRecordsNumbersOfTestsE
 745              		.comm	_ZN12_GLOBAL__N_126adderRecordsNumbersOfTestsE,1,1
 746              		.section	.rodata
 747 0091 00000000 		.align 8
 747      000000
 748              	.LC6:
 749 0098 556E6861 		.string	"Unhandled exception in CHECK_EQUAL(3, results.GetTotalTestCount())"
 749      6E646C65 
 749      64206578 
 749      63657074 
 749      696F6E20 
 750              		.text
 751              		.align 2
 753              	_ZNK12_GLOBAL__N_125TestRecordsNumbersOfTests7RunImplEv:
 754              	.LFB1158:
  19:TestTestResults.cpp **** {
 755              		.loc 5 19 1
 756              		.cfi_startproc
 757              		.cfi_personality 0x9b,DW.ref.__gxx_personality_v0
 758              		.cfi_lsda 0x1b,.LLSDA1158
 759 01a0 F30F1EFA 		endbr64
 760 01a4 55       		pushq	%rbp
 761              		.cfi_def_cfa_offset 16
 762              		.cfi_offset 6, -16
 763 01a5 4889E5   		movq	%rsp, %rbp
 764              		.cfi_def_cfa_register 6
 765 01a8 53       		pushq	%rbx
 766 01a9 4883EC78 		subq	$120, %rsp
 767              		.cfi_offset 3, -24
 768 01ad 48897D88 		movq	%rdi, -120(%rbp)
 769              		.loc 5 19 1
 770 01b1 64488B04 		movq	%fs:40, %rax
 770      25280000 
 770      00
 771 01ba 488945E8 		movq	%rax, -24(%rbp)
 772 01be 31C0     		xorl	%eax, %eax
  20:TestTestResults.cpp ****     TestResults results;
 773              		.loc 5 20 17
 774 01c0 488D45A0 		leaq	-96(%rbp), %rax
 775 01c4 BE000000 		movl	$0, %esi
 775      00
 776 01c9 4889C7   		movq	%rax, %rdi
 777              	.LEHB9:
 778 01cc E8000000 		call	_ZN8UnitTest11TestResultsC1EPNS_12TestReporterE@PLT
 778      00
  21:TestTestResults.cpp ****     results.OnTestStart(details);
 779              		.loc 5 21 24
 780 01d1 488D45A0 		leaq	-96(%rbp), %rax
 781 01d5 488D1500 		leaq	_ZN12_GLOBAL__N_1L7detailsE(%rip), %rdx
 781      000000
 782 01dc 4889D6   		movq	%rdx, %rsi
 783 01df 4889C7   		movq	%rax, %rdi
 784 01e2 E8000000 		call	_ZN8UnitTest11TestResults11OnTestStartERKNS_11TestDetailsE@PLT
 784      00
  22:TestTestResults.cpp ****     results.OnTestStart(details);
 785              		.loc 5 22 24
 786 01e7 488D45A0 		leaq	-96(%rbp), %rax
 787 01eb 488D1500 		leaq	_ZN12_GLOBAL__N_1L7detailsE(%rip), %rdx
 787      000000
 788 01f2 4889D6   		movq	%rdx, %rsi
 789 01f5 4889C7   		movq	%rax, %rdi
 790 01f8 E8000000 		call	_ZN8UnitTest11TestResults11OnTestStartERKNS_11TestDetailsE@PLT
 790      00
  23:TestTestResults.cpp ****     results.OnTestStart(details);
 791              		.loc 5 23 24
 792 01fd 488D45A0 		leaq	-96(%rbp), %rax
 793 0201 488D1500 		leaq	_ZN12_GLOBAL__N_1L7detailsE(%rip), %rdx
 793      000000
 794 0208 4889D6   		movq	%rdx, %rsi
 795 020b 4889C7   		movq	%rax, %rdi
 796 020e E8000000 		call	_ZN8UnitTest11TestResults11OnTestStartERKNS_11TestDetailsE@PLT
 796      00
 797              	.LEHE9:
 798              	.LEHB10:
  24:TestTestResults.cpp ****     CHECK_EQUAL(3, results.GetTotalTestCount());
 799              		.loc 5 24 5
 800 0213 E8000000 		call	_ZN8UnitTest11CurrentTest7DetailsEv@PLT
 800      00
 801 0218 488B08   		movq	(%rax), %rcx
 802 021b 488D45C0 		leaq	-64(%rbp), %rax
 803 021f BA180000 		movl	$24, %edx
 803      00
 804 0224 4889CE   		movq	%rcx, %rsi
 805 0227 4889C7   		movq	%rax, %rdi
 806 022a E8000000 		call	_ZN8UnitTest11TestDetailsC1ERKS0_i@PLT
 806      00
 807              		.loc 5 24 5 is_stmt 0 discriminator 4
 808 022f 488D45A0 		leaq	-96(%rbp), %rax
 809 0233 4889C7   		movq	%rax, %rdi
 810 0236 E8000000 		call	_ZNK8UnitTest11TestResults17GetTotalTestCountEv@PLT
 810      00
 811 023b 89459C   		movl	%eax, -100(%rbp)
 812 023e C7459803 		movl	$3, -104(%rbp)
 812      000000
 813 0245 E8000000 		call	_ZN8UnitTest11CurrentTest7ResultsEv@PLT
 813      00
 814              		.loc 5 24 5 discriminator 6
 815 024a 488B00   		movq	(%rax), %rax
 816 024d 488D4DC0 		leaq	-64(%rbp), %rcx
 817 0251 488D559C 		leaq	-100(%rbp), %rdx
 818 0255 488D7598 		leaq	-104(%rbp), %rsi
 819 0259 4889C7   		movq	%rax, %rdi
 820 025c E8000000 		call	_ZN8UnitTest10CheckEqualIiiEEvRNS_11TestResultsERKT_RKT0_RKNS_11TestDetailsE
 820      00
 821              	.LEHE10:
  25:TestTestResults.cpp **** }
 822              		.loc 5 25 1 is_stmt 1
 823 0261 EB64     		jmp	.L24
 824              	.L29:
 825 0263 F30F1EFA 		endbr64
  24:TestTestResults.cpp ****     CHECK_EQUAL(3, results.GetTotalTestCount());
 826              		.loc 5 24 5
 827 0267 4889C7   		movq	%rax, %rdi
 828 026a E8000000 		call	__cxa_begin_catch@PLT
 828      00
 829              	.LEHB11:
 830 026f E8000000 		call	_ZN8UnitTest11CurrentTest7ResultsEv@PLT
 830      00
  24:TestTestResults.cpp ****     CHECK_EQUAL(3, results.GetTotalTestCount());
 831              		.loc 5 24 5 is_stmt 0 discriminator 3
 832 0274 488B18   		movq	(%rax), %rbx
 833 0277 E8000000 		call	_ZN8UnitTest11CurrentTest7DetailsEv@PLT
 833      00
  24:TestTestResults.cpp ****     CHECK_EQUAL(3, results.GetTotalTestCount());
 834              		.loc 5 24 5 discriminator 13
 835 027c 488B08   		movq	(%rax), %rcx
 836 027f 488D45C0 		leaq	-64(%rbp), %rax
 837 0283 BA180000 		movl	$24, %edx
 837      00
 838 0288 4889CE   		movq	%rcx, %rsi
 839 028b 4889C7   		movq	%rax, %rdi
 840 028e E8000000 		call	_ZN8UnitTest11TestDetailsC1ERKS0_i@PLT
 840      00
  24:TestTestResults.cpp ****     CHECK_EQUAL(3, results.GetTotalTestCount());
 841              		.loc 5 24 5 discriminator 17
 842 0293 488D45C0 		leaq	-64(%rbp), %rax
 843 0297 488D1500 		leaq	.LC6(%rip), %rdx
 843      000000
 844 029e 4889C6   		movq	%rax, %rsi
 845 02a1 4889DF   		movq	%rbx, %rdi
 846 02a4 E8000000 		call	_ZN8UnitTest11TestResults13OnTestFailureERKNS_11TestDetailsEPKc@PLT
 846      00
 847              	.LEHE11:
 848              	.LEHB12:
  24:TestTestResults.cpp ****     CHECK_EQUAL(3, results.GetTotalTestCount());
 849              		.loc 5 24 5 discriminator 19
 850 02a9 E8000000 		call	__cxa_end_catch@PLT
 850      00
 851              	.LEHE12:
 852              		.loc 5 25 1 is_stmt 1 discriminator 19
 853 02ae EB17     		jmp	.L24
 854              	.L30:
 855 02b0 F30F1EFA 		endbr64
  24:TestTestResults.cpp ****     CHECK_EQUAL(3, results.GetTotalTestCount());
 856              		.loc 5 24 5
 857 02b4 4889C3   		movq	%rax, %rbx
 858 02b7 E8000000 		call	__cxa_end_catch@PLT
 858      00
 859 02bc 4889D8   		movq	%rbx, %rax
 860 02bf 4889C7   		movq	%rax, %rdi
 861              	.LEHB13:
 862 02c2 E8000000 		call	_Unwind_Resume@PLT
 862      00
 863              	.LEHE13:
 864              	.L24:
 865              		.loc 5 25 1
 866 02c7 488B45E8 		movq	-24(%rbp), %rax
 867 02cb 64482B04 		subq	%fs:40, %rax
 867      25280000 
 867      00
 868 02d4 7405     		je	.L28
 869 02d6 E8000000 		call	__stack_chk_fail@PLT
 869      00
 870              	.L28:
 871 02db 488B5DF8 		movq	-8(%rbp), %rbx
 872 02df C9       		leave
 873              		.cfi_def_cfa 7, 8
 874 02e0 C3       		ret
 875              		.cfi_endproc
 876              	.LFE1158:
 877              		.section	.gcc_except_table
 878              		.align 4
 879              	.LLSDA1158:
 880 0024 FF       		.byte	0xff
 881 0025 9B       		.byte	0x9b
 882 0026 21       		.uleb128 .LLSDATT1158-.LLSDATTD1158
 883              	.LLSDATTD1158:
 884 0027 01       		.byte	0x1
 885 0028 19       		.uleb128 .LLSDACSE1158-.LLSDACSB1158
 886              	.LLSDACSB1158:
 887 0029 2C       		.uleb128 .LEHB9-.LFB1158
 888 002a 47       		.uleb128 .LEHE9-.LEHB9
 889 002b 00       		.uleb128 0
 890 002c 00       		.uleb128 0
 891 002d 73       		.uleb128 .LEHB10-.LFB1158
 892 002e 4E       		.uleb128 .LEHE10-.LEHB10
 893 002f C301     		.uleb128 .L29-.LFB1158
 894 0031 01       		.uleb128 0x1
 895 0032 CF01     		.uleb128 .LEHB11-.LFB1158
 896 0034 3A       		.uleb128 .LEHE11-.LEHB11
 897 0035 9002     		.uleb128 .L30-.LFB1158
 898 0037 00       		.uleb128 0
 899 0038 8902     		.uleb128 .LEHB12-.LFB1158
 900 003a 05       		.uleb128 .LEHE12-.LEHB12
 901 003b 00       		.uleb128 0
 902 003c 00       		.uleb128 0
 903 003d A202     		.uleb128 .LEHB13-.LFB1158
 904 003f 05       		.uleb128 .LEHE13-.LEHB13
 905 0040 00       		.uleb128 0
 906 0041 00       		.uleb128 0
 907              	.LLSDACSE1158:
 908 0042 01       		.byte	0x1
 909 0043 00       		.byte	0
 910              		.align 4
 911 0044 00000000 		.long	0
 912              	
 913              	.LLSDATT1158:
 914              		.text
 916              		.section	.rodata
 917              	.LC7:
 918 00db 53746172 		.string	"StartsWithNoTestsFailing"
 918      74735769 
 918      74684E6F 
 918      54657374 
 918      73466169 
 919              		.text
 920 02e1 90       		.align 2
 922              	_ZN12_GLOBAL__N_128TestStartsWithNoTestsFailingC2Ev:
 923              	.LFB1160:
  26:TestTestResults.cpp **** 
  27:TestTestResults.cpp **** TEST(StartsWithNoTestsFailing)
 924              		.loc 5 27 1
 925              		.cfi_startproc
 926 02e2 55       		pushq	%rbp
 927              		.cfi_def_cfa_offset 16
 928              		.cfi_offset 6, -16
 929 02e3 4889E5   		movq	%rsp, %rbp
 930              		.cfi_def_cfa_register 6
 931 02e6 53       		pushq	%rbx
 932 02e7 4883EC18 		subq	$24, %rsp
 933              		.cfi_offset 3, -24
 934 02eb 48897DE8 		movq	%rdi, -24(%rbp)
 935              	.LBB8:
 936              		.loc 5 27 1
 937 02ef 488B5DE8 		movq	-24(%rbp), %rbx
 938 02f3 E8000000 		call	_ZN13UnitTestSuite12GetSuiteNameEv
 938      00
 939 02f8 4889C2   		movq	%rax, %rdx
 940 02fb 41B81B00 		movl	$27, %r8d
 940      0000
 941 0301 488D0500 		leaq	.LC2(%rip), %rax
 941      000000
 942 0308 4889C1   		movq	%rax, %rcx
 943 030b 488D0500 		leaq	.LC7(%rip), %rax
 943      000000
 944 0312 4889C6   		movq	%rax, %rsi
 945 0315 4889DF   		movq	%rbx, %rdi
 946 0318 E8000000 		call	_ZN8UnitTest4TestC2EPKcS2_S2_i@PLT
 946      00
 947 031d 488D1500 		leaq	16+_ZTVN12_GLOBAL__N_128TestStartsWithNoTestsFailingE(%rip), %rdx
 947      000000
 948 0324 488B45E8 		movq	-24(%rbp), %rax
 949 0328 488910   		movq	%rdx, (%rax)
 950              	.LBE8:
 951 032b 90       		nop
 952 032c 488B5DF8 		movq	-8(%rbp), %rbx
 953 0330 C9       		leave
 954              		.cfi_def_cfa 7, 8
 955 0331 C3       		ret
 956              		.cfi_endproc
 957              	.LFE1160:
 959              		.set	_ZN12_GLOBAL__N_128TestStartsWithNoTestsFailingC1Ev,_ZN12_GLOBAL__N_128TestStartsWithNoTestsF
 960              		.local	_ZN12_GLOBAL__N_136testStartsWithNoTestsFailingInstanceE
 961              		.comm	_ZN12_GLOBAL__N_136testStartsWithNoTestsFailingInstanceE,56,32
 962              		.local	_ZN12_GLOBAL__N_129adderStartsWithNoTestsFailingE
 963              		.comm	_ZN12_GLOBAL__N_129adderStartsWithNoTestsFailingE,1,1
 964              		.section	.rodata
 965 00f4 00000000 		.align 8
 966              	.LC8:
 967 00f8 556E6861 		.string	"Unhandled exception in CHECK_EQUAL(0, results.GetFailureCount())"
 967      6E646C65 
 967      64206578 
 967      63657074 
 967      696F6E20 
 968              		.text
 969              		.align 2
 971              	_ZNK12_GLOBAL__N_128TestStartsWithNoTestsFailing7RunImplEv:
 972              	.LFB1162:
  28:TestTestResults.cpp **** {
 973              		.loc 5 28 1
 974              		.cfi_startproc
 975              		.cfi_personality 0x9b,DW.ref.__gxx_personality_v0
 976              		.cfi_lsda 0x1b,.LLSDA1162
 977 0332 F30F1EFA 		endbr64
 978 0336 55       		pushq	%rbp
 979              		.cfi_def_cfa_offset 16
 980              		.cfi_offset 6, -16
 981 0337 4889E5   		movq	%rsp, %rbp
 982              		.cfi_def_cfa_register 6
 983 033a 53       		pushq	%rbx
 984 033b 4883EC78 		subq	$120, %rsp
 985              		.cfi_offset 3, -24
 986 033f 48897D88 		movq	%rdi, -120(%rbp)
 987              		.loc 5 28 1
 988 0343 64488B04 		movq	%fs:40, %rax
 988      25280000 
 988      00
 989 034c 488945E8 		movq	%rax, -24(%rbp)
 990 0350 31C0     		xorl	%eax, %eax
  29:TestTestResults.cpp ****     TestResults results;
 991              		.loc 5 29 17
 992 0352 488D45A0 		leaq	-96(%rbp), %rax
 993 0356 BE000000 		movl	$0, %esi
 993      00
 994 035b 4889C7   		movq	%rax, %rdi
 995              	.LEHB14:
 996 035e E8000000 		call	_ZN8UnitTest11TestResultsC1EPNS_12TestReporterE@PLT
 996      00
 997              	.LEHE14:
 998              	.LEHB15:
  30:TestTestResults.cpp ****     CHECK_EQUAL (0, results.GetFailureCount());
 999              		.loc 5 30 5
 1000 0363 E8000000 		call	_ZN8UnitTest11CurrentTest7DetailsEv@PLT
 1000      00
 1001 0368 488B08   		movq	(%rax), %rcx
 1002 036b 488D45C0 		leaq	-64(%rbp), %rax
 1003 036f BA1E0000 		movl	$30, %edx
 1003      00
 1004 0374 4889CE   		movq	%rcx, %rsi
 1005 0377 4889C7   		movq	%rax, %rdi
 1006 037a E8000000 		call	_ZN8UnitTest11TestDetailsC1ERKS0_i@PLT
 1006      00
 1007              		.loc 5 30 5 is_stmt 0 discriminator 4
 1008 037f 488D45A0 		leaq	-96(%rbp), %rax
 1009 0383 4889C7   		movq	%rax, %rdi
 1010 0386 E8000000 		call	_ZNK8UnitTest11TestResults15GetFailureCountEv@PLT
 1010      00
 1011 038b 89459C   		movl	%eax, -100(%rbp)
 1012 038e C7459800 		movl	$0, -104(%rbp)
 1012      000000
 1013 0395 E8000000 		call	_ZN8UnitTest11CurrentTest7ResultsEv@PLT
 1013      00
 1014              		.loc 5 30 5 discriminator 6
 1015 039a 488B00   		movq	(%rax), %rax
 1016 039d 488D4DC0 		leaq	-64(%rbp), %rcx
 1017 03a1 488D559C 		leaq	-100(%rbp), %rdx
 1018 03a5 488D7598 		leaq	-104(%rbp), %rsi
 1019 03a9 4889C7   		movq	%rax, %rdi
 1020 03ac E8000000 		call	_ZN8UnitTest10CheckEqualIiiEEvRNS_11TestResultsERKT_RKT0_RKNS_11TestDetailsE
 1020      00
 1021              	.LEHE15:
  31:TestTestResults.cpp **** }
 1022              		.loc 5 31 1 is_stmt 1
 1023 03b1 EB64     		jmp	.L32
 1024              	.L37:
 1025 03b3 F30F1EFA 		endbr64
  30:TestTestResults.cpp ****     CHECK_EQUAL (0, results.GetFailureCount());
 1026              		.loc 5 30 5
 1027 03b7 4889C7   		movq	%rax, %rdi
 1028 03ba E8000000 		call	__cxa_begin_catch@PLT
 1028      00
 1029              	.LEHB16:
 1030 03bf E8000000 		call	_ZN8UnitTest11CurrentTest7ResultsEv@PLT
 1030      00
  30:TestTestResults.cpp ****     CHECK_EQUAL (0, results.GetFailureCount());
 1031              		.loc 5 30 5 is_stmt 0 discriminator 3
 1032 03c4 488B18   		movq	(%rax), %rbx
 1033 03c7 E8000000 		call	_ZN8UnitTest11CurrentTest7DetailsEv@PLT
 1033      00
  30:TestTestResults.cpp ****     CHECK_EQUAL (0, results.GetFailureCount());
 1034              		.loc 5 30 5 discriminator 13
 1035 03cc 488B08   		movq	(%rax), %rcx
 1036 03cf 488D45C0 		leaq	-64(%rbp), %rax
 1037 03d3 BA1E0000 		movl	$30, %edx
 1037      00
 1038 03d8 4889CE   		movq	%rcx, %rsi
 1039 03db 4889C7   		movq	%rax, %rdi
 1040 03de E8000000 		call	_ZN8UnitTest11TestDetailsC1ERKS0_i@PLT
 1040      00
  30:TestTestResults.cpp ****     CHECK_EQUAL (0, results.GetFailureCount());
 1041              		.loc 5 30 5 discriminator 17
 1042 03e3 488D45C0 		leaq	-64(%rbp), %rax
 1043 03e7 488D1500 		leaq	.LC8(%rip), %rdx
 1043      000000
 1044 03ee 4889C6   		movq	%rax, %rsi
 1045 03f1 4889DF   		movq	%rbx, %rdi
 1046 03f4 E8000000 		call	_ZN8UnitTest11TestResults13OnTestFailureERKNS_11TestDetailsEPKc@PLT
 1046      00
 1047              	.LEHE16:
 1048              	.LEHB17:
  30:TestTestResults.cpp ****     CHECK_EQUAL (0, results.GetFailureCount());
 1049              		.loc 5 30 5 discriminator 19
 1050 03f9 E8000000 		call	__cxa_end_catch@PLT
 1050      00
 1051              	.LEHE17:
 1052              		.loc 5 31 1 is_stmt 1 discriminator 19
 1053 03fe EB17     		jmp	.L32
 1054              	.L38:
 1055 0400 F30F1EFA 		endbr64
  30:TestTestResults.cpp ****     CHECK_EQUAL (0, results.GetFailureCount());
 1056              		.loc 5 30 5
 1057 0404 4889C3   		movq	%rax, %rbx
 1058 0407 E8000000 		call	__cxa_end_catch@PLT
 1058      00
 1059 040c 4889D8   		movq	%rbx, %rax
 1060 040f 4889C7   		movq	%rax, %rdi
 1061              	.LEHB18:
 1062 0412 E8000000 		call	_Unwind_Resume@PLT
 1062      00
 1063              	.LEHE18:
 1064              	.L32:
 1065              		.loc 5 31 1
 1066 0417 488B45E8 		movq	-24(%rbp), %rax
 1067 041b 64482B04 		subq	%fs:40, %rax
 1067      25280000 
 1067      00
 1068 0424 7405     		je	.L36
 1069 0426 E8000000 		call	__stack_chk_fail@PLT
 1069      00
 1070              	.L36:
 1071 042b 488B5DF8 		movq	-8(%rbp), %rbx
 1072 042f C9       		leave
 1073              		.cfi_def_cfa 7, 8
 1074 0430 C3       		ret
 1075              		.cfi_endproc
 1076              	.LFE1162:
 1077              		.section	.gcc_except_table
 1078              		.align 4
 1079              	.LLSDA1162:
 1080 0048 FF       		.byte	0xff
 1081 0049 9B       		.byte	0x9b
 1082 004a 21       		.uleb128 .LLSDATT1162-.LLSDATTD1162
 1083              	.LLSDATTD1162:
 1084 004b 01       		.byte	0x1
 1085 004c 19       		.uleb128 .LLSDACSE1162-.LLSDACSB1162
 1086              	.LLSDACSB1162:
 1087 004d 2C       		.uleb128 .LEHB14-.LFB1162
 1088 004e 05       		.uleb128 .LEHE14-.LEHB14
 1089 004f 00       		.uleb128 0
 1090 0050 00       		.uleb128 0
 1091 0051 31       		.uleb128 .LEHB15-.LFB1162
 1092 0052 4E       		.uleb128 .LEHE15-.LEHB15
 1093 0053 8101     		.uleb128 .L37-.LFB1162
 1094 0055 01       		.uleb128 0x1
 1095 0056 8D01     		.uleb128 .LEHB16-.LFB1162
 1096 0058 3A       		.uleb128 .LEHE16-.LEHB16
 1097 0059 CE01     		.uleb128 .L38-.LFB1162
 1098 005b 00       		.uleb128 0
 1099 005c C701     		.uleb128 .LEHB17-.LFB1162
 1100 005e 05       		.uleb128 .LEHE17-.LEHB17
 1101 005f 00       		.uleb128 0
 1102 0060 00       		.uleb128 0
 1103 0061 E001     		.uleb128 .LEHB18-.LFB1162
 1104 0063 05       		.uleb128 .LEHE18-.LEHB18
 1105 0064 00       		.uleb128 0
 1106 0065 00       		.uleb128 0
 1107              	.LLSDACSE1162:
 1108 0066 01       		.byte	0x1
 1109 0067 00       		.byte	0
 1110              		.align 4
 1111 0068 00000000 		.long	0
 1112              	
 1113              	.LLSDATT1162:
 1114              		.text
 1116              		.section	.rodata
 1117              	.LC9:
 1118 0139 5265636F 		.string	"RecordsNumberOfFailures"
 1118      7264734E 
 1118      756D6265 
 1118      724F6646 
 1118      61696C75 
 1119              		.text
 1120 0431 90       		.align 2
 1122              	_ZN12_GLOBAL__N_127TestRecordsNumberOfFailuresC2Ev:
 1123              	.LFB1164:
  32:TestTestResults.cpp **** 
  33:TestTestResults.cpp **** TEST(RecordsNumberOfFailures)
 1124              		.loc 5 33 1
 1125              		.cfi_startproc
 1126 0432 55       		pushq	%rbp
 1127              		.cfi_def_cfa_offset 16
 1128              		.cfi_offset 6, -16
 1129 0433 4889E5   		movq	%rsp, %rbp
 1130              		.cfi_def_cfa_register 6
 1131 0436 53       		pushq	%rbx
 1132 0437 4883EC18 		subq	$24, %rsp
 1133              		.cfi_offset 3, -24
 1134 043b 48897DE8 		movq	%rdi, -24(%rbp)
 1135              	.LBB9:
 1136              		.loc 5 33 1
 1137 043f 488B5DE8 		movq	-24(%rbp), %rbx
 1138 0443 E8000000 		call	_ZN13UnitTestSuite12GetSuiteNameEv
 1138      00
 1139 0448 4889C2   		movq	%rax, %rdx
 1140 044b 41B82100 		movl	$33, %r8d
 1140      0000
 1141 0451 488D0500 		leaq	.LC2(%rip), %rax
 1141      000000
 1142 0458 4889C1   		movq	%rax, %rcx
 1143 045b 488D0500 		leaq	.LC9(%rip), %rax
 1143      000000
 1144 0462 4889C6   		movq	%rax, %rsi
 1145 0465 4889DF   		movq	%rbx, %rdi
 1146 0468 E8000000 		call	_ZN8UnitTest4TestC2EPKcS2_S2_i@PLT
 1146      00
 1147 046d 488D1500 		leaq	16+_ZTVN12_GLOBAL__N_127TestRecordsNumberOfFailuresE(%rip), %rdx
 1147      000000
 1148 0474 488B45E8 		movq	-24(%rbp), %rax
 1149 0478 488910   		movq	%rdx, (%rax)
 1150              	.LBE9:
 1151 047b 90       		nop
 1152 047c 488B5DF8 		movq	-8(%rbp), %rbx
 1153 0480 C9       		leave
 1154              		.cfi_def_cfa 7, 8
 1155 0481 C3       		ret
 1156              		.cfi_endproc
 1157              	.LFE1164:
 1159              		.set	_ZN12_GLOBAL__N_127TestRecordsNumberOfFailuresC1Ev,_ZN12_GLOBAL__N_127TestRecordsNumberOfFail
 1160              		.local	_ZN12_GLOBAL__N_135testRecordsNumberOfFailuresInstanceE
 1161              		.comm	_ZN12_GLOBAL__N_135testRecordsNumberOfFailuresInstanceE,56,32
 1162              		.local	_ZN12_GLOBAL__N_128adderRecordsNumberOfFailuresE
 1163              		.comm	_ZN12_GLOBAL__N_128adderRecordsNumberOfFailuresE,1,1
 1164              		.section	.rodata
 1165              	.LC10:
 1166 0151 00       		.string	""
 1167 0152 00000000 		.align 8
 1167      0000
 1168              	.LC11:
 1169 0158 556E6861 		.string	"Unhandled exception in CHECK_EQUAL(2, results.GetFailureCount())"
 1169      6E646C65 
 1169      64206578 
 1169      63657074 
 1169      696F6E20 
 1170              		.text
 1171              		.align 2
 1173              	_ZNK12_GLOBAL__N_127TestRecordsNumberOfFailures7RunImplEv:
 1174              	.LFB1166:
  34:TestTestResults.cpp **** {
 1175              		.loc 5 34 1
 1176              		.cfi_startproc
 1177              		.cfi_personality 0x9b,DW.ref.__gxx_personality_v0
 1178              		.cfi_lsda 0x1b,.LLSDA1166
 1179 0482 F30F1EFA 		endbr64
 1180 0486 55       		pushq	%rbp
 1181              		.cfi_def_cfa_offset 16
 1182              		.cfi_offset 6, -16
 1183 0487 4889E5   		movq	%rsp, %rbp
 1184              		.cfi_def_cfa_register 6
 1185 048a 53       		pushq	%rbx
 1186 048b 4883EC78 		subq	$120, %rsp
 1187              		.cfi_offset 3, -24
 1188 048f 48897D88 		movq	%rdi, -120(%rbp)
 1189              		.loc 5 34 1
 1190 0493 64488B04 		movq	%fs:40, %rax
 1190      25280000 
 1190      00
 1191 049c 488945E8 		movq	%rax, -24(%rbp)
 1192 04a0 31C0     		xorl	%eax, %eax
  35:TestTestResults.cpp ****     TestResults results;
 1193              		.loc 5 35 17
 1194 04a2 488D45A0 		leaq	-96(%rbp), %rax
 1195 04a6 BE000000 		movl	$0, %esi
 1195      00
 1196 04ab 4889C7   		movq	%rax, %rdi
 1197              	.LEHB19:
 1198 04ae E8000000 		call	_ZN8UnitTest11TestResultsC1EPNS_12TestReporterE@PLT
 1198      00
  36:TestTestResults.cpp ****     results.OnTestFailure(details, "");
 1199              		.loc 5 36 26
 1200 04b3 488D45A0 		leaq	-96(%rbp), %rax
 1201 04b7 488D1500 		leaq	.LC10(%rip), %rdx
 1201      000000
 1202 04be 488D0D00 		leaq	_ZN12_GLOBAL__N_1L7detailsE(%rip), %rcx
 1202      000000
 1203 04c5 4889CE   		movq	%rcx, %rsi
 1204 04c8 4889C7   		movq	%rax, %rdi
 1205 04cb E8000000 		call	_ZN8UnitTest11TestResults13OnTestFailureERKNS_11TestDetailsEPKc@PLT
 1205      00
  37:TestTestResults.cpp ****     results.OnTestFailure(details, "");
 1206              		.loc 5 37 26
 1207 04d0 488D45A0 		leaq	-96(%rbp), %rax
 1208 04d4 488D1500 		leaq	.LC10(%rip), %rdx
 1208      000000
 1209 04db 488D0D00 		leaq	_ZN12_GLOBAL__N_1L7detailsE(%rip), %rcx
 1209      000000
 1210 04e2 4889CE   		movq	%rcx, %rsi
 1211 04e5 4889C7   		movq	%rax, %rdi
 1212 04e8 E8000000 		call	_ZN8UnitTest11TestResults13OnTestFailureERKNS_11TestDetailsEPKc@PLT
 1212      00
 1213              	.LEHE19:
 1214              	.LEHB20:
  38:TestTestResults.cpp ****     CHECK_EQUAL(2, results.GetFailureCount());
 1215              		.loc 5 38 5
 1216 04ed E8000000 		call	_ZN8UnitTest11CurrentTest7DetailsEv@PLT
 1216      00
 1217 04f2 488B08   		movq	(%rax), %rcx
 1218 04f5 488D45C0 		leaq	-64(%rbp), %rax
 1219 04f9 BA260000 		movl	$38, %edx
 1219      00
 1220 04fe 4889CE   		movq	%rcx, %rsi
 1221 0501 4889C7   		movq	%rax, %rdi
 1222 0504 E8000000 		call	_ZN8UnitTest11TestDetailsC1ERKS0_i@PLT
 1222      00
 1223              		.loc 5 38 5 is_stmt 0 discriminator 4
 1224 0509 488D45A0 		leaq	-96(%rbp), %rax
 1225 050d 4889C7   		movq	%rax, %rdi
 1226 0510 E8000000 		call	_ZNK8UnitTest11TestResults15GetFailureCountEv@PLT
 1226      00
 1227 0515 89459C   		movl	%eax, -100(%rbp)
 1228 0518 C7459802 		movl	$2, -104(%rbp)
 1228      000000
 1229 051f E8000000 		call	_ZN8UnitTest11CurrentTest7ResultsEv@PLT
 1229      00
 1230              		.loc 5 38 5 discriminator 6
 1231 0524 488B00   		movq	(%rax), %rax
 1232 0527 488D4DC0 		leaq	-64(%rbp), %rcx
 1233 052b 488D559C 		leaq	-100(%rbp), %rdx
 1234 052f 488D7598 		leaq	-104(%rbp), %rsi
 1235 0533 4889C7   		movq	%rax, %rdi
 1236 0536 E8000000 		call	_ZN8UnitTest10CheckEqualIiiEEvRNS_11TestResultsERKT_RKT0_RKNS_11TestDetailsE
 1236      00
 1237              	.LEHE20:
  39:TestTestResults.cpp **** }
 1238              		.loc 5 39 1 is_stmt 1
 1239 053b EB64     		jmp	.L40
 1240              	.L45:
 1241 053d F30F1EFA 		endbr64
  38:TestTestResults.cpp ****     CHECK_EQUAL(2, results.GetFailureCount());
 1242              		.loc 5 38 5
 1243 0541 4889C7   		movq	%rax, %rdi
 1244 0544 E8000000 		call	__cxa_begin_catch@PLT
 1244      00
 1245              	.LEHB21:
 1246 0549 E8000000 		call	_ZN8UnitTest11CurrentTest7ResultsEv@PLT
 1246      00
  38:TestTestResults.cpp ****     CHECK_EQUAL(2, results.GetFailureCount());
 1247              		.loc 5 38 5 is_stmt 0 discriminator 3
 1248 054e 488B18   		movq	(%rax), %rbx
 1249 0551 E8000000 		call	_ZN8UnitTest11CurrentTest7DetailsEv@PLT
 1249      00
  38:TestTestResults.cpp ****     CHECK_EQUAL(2, results.GetFailureCount());
 1250              		.loc 5 38 5 discriminator 13
 1251 0556 488B08   		movq	(%rax), %rcx
 1252 0559 488D45C0 		leaq	-64(%rbp), %rax
 1253 055d BA260000 		movl	$38, %edx
 1253      00
 1254 0562 4889CE   		movq	%rcx, %rsi
 1255 0565 4889C7   		movq	%rax, %rdi
 1256 0568 E8000000 		call	_ZN8UnitTest11TestDetailsC1ERKS0_i@PLT
 1256      00
  38:TestTestResults.cpp ****     CHECK_EQUAL(2, results.GetFailureCount());
 1257              		.loc 5 38 5 discriminator 17
 1258 056d 488D45C0 		leaq	-64(%rbp), %rax
 1259 0571 488D1500 		leaq	.LC11(%rip), %rdx
 1259      000000
 1260 0578 4889C6   		movq	%rax, %rsi
 1261 057b 4889DF   		movq	%rbx, %rdi
 1262 057e E8000000 		call	_ZN8UnitTest11TestResults13OnTestFailureERKNS_11TestDetailsEPKc@PLT
 1262      00
 1263              	.LEHE21:
 1264              	.LEHB22:
  38:TestTestResults.cpp ****     CHECK_EQUAL(2, results.GetFailureCount());
 1265              		.loc 5 38 5 discriminator 19
 1266 0583 E8000000 		call	__cxa_end_catch@PLT
 1266      00
 1267              	.LEHE22:
 1268              		.loc 5 39 1 is_stmt 1 discriminator 19
 1269 0588 EB17     		jmp	.L40
 1270              	.L46:
 1271 058a F30F1EFA 		endbr64
  38:TestTestResults.cpp ****     CHECK_EQUAL(2, results.GetFailureCount());
 1272              		.loc 5 38 5
 1273 058e 4889C3   		movq	%rax, %rbx
 1274 0591 E8000000 		call	__cxa_end_catch@PLT
 1274      00
 1275 0596 4889D8   		movq	%rbx, %rax
 1276 0599 4889C7   		movq	%rax, %rdi
 1277              	.LEHB23:
 1278 059c E8000000 		call	_Unwind_Resume@PLT
 1278      00
 1279              	.LEHE23:
 1280              	.L40:
 1281              		.loc 5 39 1
 1282 05a1 488B45E8 		movq	-24(%rbp), %rax
 1283 05a5 64482B04 		subq	%fs:40, %rax
 1283      25280000 
 1283      00
 1284 05ae 7405     		je	.L44
 1285 05b0 E8000000 		call	__stack_chk_fail@PLT
 1285      00
 1286              	.L44:
 1287 05b5 488B5DF8 		movq	-8(%rbp), %rbx
 1288 05b9 C9       		leave
 1289              		.cfi_def_cfa 7, 8
 1290 05ba C3       		ret
 1291              		.cfi_endproc
 1292              	.LFE1166:
 1293              		.section	.gcc_except_table
 1294              		.align 4
 1295              	.LLSDA1166:
 1296 006c FF       		.byte	0xff
 1297 006d 9B       		.byte	0x9b
 1298 006e 21       		.uleb128 .LLSDATT1166-.LLSDATTD1166
 1299              	.LLSDATTD1166:
 1300 006f 01       		.byte	0x1
 1301 0070 19       		.uleb128 .LLSDACSE1166-.LLSDACSB1166
 1302              	.LLSDACSB1166:
 1303 0071 2C       		.uleb128 .LEHB19-.LFB1166
 1304 0072 3F       		.uleb128 .LEHE19-.LEHB19
 1305 0073 00       		.uleb128 0
 1306 0074 00       		.uleb128 0
 1307 0075 6B       		.uleb128 .LEHB20-.LFB1166
 1308 0076 4E       		.uleb128 .LEHE20-.LEHB20
 1309 0077 BB01     		.uleb128 .L45-.LFB1166
 1310 0079 01       		.uleb128 0x1
 1311 007a C701     		.uleb128 .LEHB21-.LFB1166
 1312 007c 3A       		.uleb128 .LEHE21-.LEHB21
 1313 007d 8802     		.uleb128 .L46-.LFB1166
 1314 007f 00       		.uleb128 0
 1315 0080 8102     		.uleb128 .LEHB22-.LFB1166
 1316 0082 05       		.uleb128 .LEHE22-.LEHB22
 1317 0083 00       		.uleb128 0
 1318 0084 00       		.uleb128 0
 1319 0085 9A02     		.uleb128 .LEHB23-.LFB1166
 1320 0087 05       		.uleb128 .LEHE23-.LEHB23
 1321 0088 00       		.uleb128 0
 1322 0089 00       		.uleb128 0
 1323              	.LLSDACSE1166:
 1324 008a 01       		.byte	0x1
 1325 008b 00       		.byte	0
 1326              		.align 4
 1327 008c 00000000 		.long	0
 1328              	
 1329              	.LLSDATT1166:
 1330              		.text
 1332              		.section	.rodata
 1333              	.LC12:
 1334 0199 5265636F 		.string	"RecordsNumberOfFailedTests"
 1334      7264734E 
 1334      756D6265 
 1334      724F6646 
 1334      61696C65 
 1335              		.text
 1336 05bb 90       		.align 2
 1338              	_ZN12_GLOBAL__N_130TestRecordsNumberOfFailedTestsC2Ev:
 1339              	.LFB1168:
  40:TestTestResults.cpp **** 
  41:TestTestResults.cpp **** TEST(RecordsNumberOfFailedTests)
 1340              		.loc 5 41 1
 1341              		.cfi_startproc
 1342 05bc 55       		pushq	%rbp
 1343              		.cfi_def_cfa_offset 16
 1344              		.cfi_offset 6, -16
 1345 05bd 4889E5   		movq	%rsp, %rbp
 1346              		.cfi_def_cfa_register 6
 1347 05c0 53       		pushq	%rbx
 1348 05c1 4883EC18 		subq	$24, %rsp
 1349              		.cfi_offset 3, -24
 1350 05c5 48897DE8 		movq	%rdi, -24(%rbp)
 1351              	.LBB10:
 1352              		.loc 5 41 1
 1353 05c9 488B5DE8 		movq	-24(%rbp), %rbx
 1354 05cd E8000000 		call	_ZN13UnitTestSuite12GetSuiteNameEv
 1354      00
 1355 05d2 4889C2   		movq	%rax, %rdx
 1356 05d5 41B82900 		movl	$41, %r8d
 1356      0000
 1357 05db 488D0500 		leaq	.LC2(%rip), %rax
 1357      000000
 1358 05e2 4889C1   		movq	%rax, %rcx
 1359 05e5 488D0500 		leaq	.LC12(%rip), %rax
 1359      000000
 1360 05ec 4889C6   		movq	%rax, %rsi
 1361 05ef 4889DF   		movq	%rbx, %rdi
 1362 05f2 E8000000 		call	_ZN8UnitTest4TestC2EPKcS2_S2_i@PLT
 1362      00
 1363 05f7 488D1500 		leaq	16+_ZTVN12_GLOBAL__N_130TestRecordsNumberOfFailedTestsE(%rip), %rdx
 1363      000000
 1364 05fe 488B45E8 		movq	-24(%rbp), %rax
 1365 0602 488910   		movq	%rdx, (%rax)
 1366              	.LBE10:
 1367 0605 90       		nop
 1368 0606 488B5DF8 		movq	-8(%rbp), %rbx
 1369 060a C9       		leave
 1370              		.cfi_def_cfa 7, 8
 1371 060b C3       		ret
 1372              		.cfi_endproc
 1373              	.LFE1168:
 1375              		.set	_ZN12_GLOBAL__N_130TestRecordsNumberOfFailedTestsC1Ev,_ZN12_GLOBAL__N_130TestRecordsNumberOfF
 1376              		.local	_ZN12_GLOBAL__N_138testRecordsNumberOfFailedTestsInstanceE
 1377              		.comm	_ZN12_GLOBAL__N_138testRecordsNumberOfFailedTestsInstanceE,56,32
 1378              		.local	_ZN12_GLOBAL__N_131adderRecordsNumberOfFailedTestsE
 1379              		.comm	_ZN12_GLOBAL__N_131adderRecordsNumberOfFailedTestsE,1,1
 1380              		.section	.rodata
 1381 01b4 00000000 		.align 8
 1382              	.LC13:
 1383 01b8 556E6861 		.string	"Unhandled exception in CHECK_EQUAL(2, results.GetFailedTestCount())"
 1383      6E646C65 
 1383      64206578 
 1383      63657074 
 1383      696F6E20 
 1384              		.text
 1385              		.align 2
 1387              	_ZNK12_GLOBAL__N_130TestRecordsNumberOfFailedTests7RunImplEv:
 1388              	.LFB1170:
  42:TestTestResults.cpp **** {
 1389              		.loc 5 42 1
 1390              		.cfi_startproc
 1391              		.cfi_personality 0x9b,DW.ref.__gxx_personality_v0
 1392              		.cfi_lsda 0x1b,.LLSDA1170
 1393 060c F30F1EFA 		endbr64
 1394 0610 55       		pushq	%rbp
 1395              		.cfi_def_cfa_offset 16
 1396              		.cfi_offset 6, -16
 1397 0611 4889E5   		movq	%rsp, %rbp
 1398              		.cfi_def_cfa_register 6
 1399 0614 53       		pushq	%rbx
 1400 0615 4883EC78 		subq	$120, %rsp
 1401              		.cfi_offset 3, -24
 1402 0619 48897D88 		movq	%rdi, -120(%rbp)
 1403              		.loc 5 42 1
 1404 061d 64488B04 		movq	%fs:40, %rax
 1404      25280000 
 1404      00
 1405 0626 488945E8 		movq	%rax, -24(%rbp)
 1406 062a 31C0     		xorl	%eax, %eax
  43:TestTestResults.cpp ****     TestResults results;
 1407              		.loc 5 43 17
 1408 062c 488D45A0 		leaq	-96(%rbp), %rax
 1409 0630 BE000000 		movl	$0, %esi
 1409      00
 1410 0635 4889C7   		movq	%rax, %rdi
 1411              	.LEHB24:
 1412 0638 E8000000 		call	_ZN8UnitTest11TestResultsC1EPNS_12TestReporterE@PLT
 1412      00
  44:TestTestResults.cpp **** 
  45:TestTestResults.cpp ****     results.OnTestStart(details);
 1413              		.loc 5 45 24
 1414 063d 488D45A0 		leaq	-96(%rbp), %rax
 1415 0641 488D1500 		leaq	_ZN12_GLOBAL__N_1L7detailsE(%rip), %rdx
 1415      000000
 1416 0648 4889D6   		movq	%rdx, %rsi
 1417 064b 4889C7   		movq	%rax, %rdi
 1418 064e E8000000 		call	_ZN8UnitTest11TestResults11OnTestStartERKNS_11TestDetailsE@PLT
 1418      00
  46:TestTestResults.cpp ****     results.OnTestFailure(details, "");
 1419              		.loc 5 46 26
 1420 0653 488D45A0 		leaq	-96(%rbp), %rax
 1421 0657 488D1500 		leaq	.LC10(%rip), %rdx
 1421      000000
 1422 065e 488D0D00 		leaq	_ZN12_GLOBAL__N_1L7detailsE(%rip), %rcx
 1422      000000
 1423 0665 4889CE   		movq	%rcx, %rsi
 1424 0668 4889C7   		movq	%rax, %rdi
 1425 066b E8000000 		call	_ZN8UnitTest11TestResults13OnTestFailureERKNS_11TestDetailsEPKc@PLT
 1425      00
  47:TestTestResults.cpp ****     results.OnTestFinish(details, 0);
 1426              		.loc 5 47 25
 1427 0670 488D45A0 		leaq	-96(%rbp), %rax
 1428 0674 8B150000 		movl	.LC1(%rip), %edx
 1428      0000
 1429 067a 660F6EC2 		movd	%edx, %xmm0
 1430 067e 488D1500 		leaq	_ZN12_GLOBAL__N_1L7detailsE(%rip), %rdx
 1430      000000
 1431 0685 4889D6   		movq	%rdx, %rsi
 1432 0688 4889C7   		movq	%rax, %rdi
 1433 068b E8000000 		call	_ZN8UnitTest11TestResults12OnTestFinishERKNS_11TestDetailsEf@PLT
 1433      00
  48:TestTestResults.cpp **** 
  49:TestTestResults.cpp ****     results.OnTestStart(details);
 1434              		.loc 5 49 24
 1435 0690 488D45A0 		leaq	-96(%rbp), %rax
 1436 0694 488D1500 		leaq	_ZN12_GLOBAL__N_1L7detailsE(%rip), %rdx
 1436      000000
 1437 069b 4889D6   		movq	%rdx, %rsi
 1438 069e 4889C7   		movq	%rax, %rdi
 1439 06a1 E8000000 		call	_ZN8UnitTest11TestResults11OnTestStartERKNS_11TestDetailsE@PLT
 1439      00
  50:TestTestResults.cpp ****     results.OnTestFailure(details, "");
 1440              		.loc 5 50 26
 1441 06a6 488D45A0 		leaq	-96(%rbp), %rax
 1442 06aa 488D1500 		leaq	.LC10(%rip), %rdx
 1442      000000
 1443 06b1 488D0D00 		leaq	_ZN12_GLOBAL__N_1L7detailsE(%rip), %rcx
 1443      000000
 1444 06b8 4889CE   		movq	%rcx, %rsi
 1445 06bb 4889C7   		movq	%rax, %rdi
 1446 06be E8000000 		call	_ZN8UnitTest11TestResults13OnTestFailureERKNS_11TestDetailsEPKc@PLT
 1446      00
  51:TestTestResults.cpp ****     results.OnTestFailure(details, "");
 1447              		.loc 5 51 26
 1448 06c3 488D45A0 		leaq	-96(%rbp), %rax
 1449 06c7 488D1500 		leaq	.LC10(%rip), %rdx
 1449      000000
 1450 06ce 488D0D00 		leaq	_ZN12_GLOBAL__N_1L7detailsE(%rip), %rcx
 1450      000000
 1451 06d5 4889CE   		movq	%rcx, %rsi
 1452 06d8 4889C7   		movq	%rax, %rdi
 1453 06db E8000000 		call	_ZN8UnitTest11TestResults13OnTestFailureERKNS_11TestDetailsEPKc@PLT
 1453      00
  52:TestTestResults.cpp ****     results.OnTestFailure(details, "");
 1454              		.loc 5 52 26
 1455 06e0 488D45A0 		leaq	-96(%rbp), %rax
 1456 06e4 488D1500 		leaq	.LC10(%rip), %rdx
 1456      000000
 1457 06eb 488D0D00 		leaq	_ZN12_GLOBAL__N_1L7detailsE(%rip), %rcx
 1457      000000
 1458 06f2 4889CE   		movq	%rcx, %rsi
 1459 06f5 4889C7   		movq	%rax, %rdi
 1460 06f8 E8000000 		call	_ZN8UnitTest11TestResults13OnTestFailureERKNS_11TestDetailsEPKc@PLT
 1460      00
  53:TestTestResults.cpp ****     results.OnTestFinish(details, 0);
 1461              		.loc 5 53 25
 1462 06fd 488D45A0 		leaq	-96(%rbp), %rax
 1463 0701 8B150000 		movl	.LC1(%rip), %edx
 1463      0000
 1464 0707 660F6EC2 		movd	%edx, %xmm0
 1465 070b 488D1500 		leaq	_ZN12_GLOBAL__N_1L7detailsE(%rip), %rdx
 1465      000000
 1466 0712 4889D6   		movq	%rdx, %rsi
 1467 0715 4889C7   		movq	%rax, %rdi
 1468 0718 E8000000 		call	_ZN8UnitTest11TestResults12OnTestFinishERKNS_11TestDetailsEf@PLT
 1468      00
 1469              	.LEHE24:
 1470              	.LEHB25:
  54:TestTestResults.cpp **** 
  55:TestTestResults.cpp ****     CHECK_EQUAL (2, results.GetFailedTestCount());
 1471              		.loc 5 55 5
 1472 071d E8000000 		call	_ZN8UnitTest11CurrentTest7DetailsEv@PLT
 1472      00
 1473 0722 488B08   		movq	(%rax), %rcx
 1474 0725 488D45C0 		leaq	-64(%rbp), %rax
 1475 0729 BA370000 		movl	$55, %edx
 1475      00
 1476 072e 4889CE   		movq	%rcx, %rsi
 1477 0731 4889C7   		movq	%rax, %rdi
 1478 0734 E8000000 		call	_ZN8UnitTest11TestDetailsC1ERKS0_i@PLT
 1478      00
 1479              		.loc 5 55 5 is_stmt 0 discriminator 4
 1480 0739 488D45A0 		leaq	-96(%rbp), %rax
 1481 073d 4889C7   		movq	%rax, %rdi
 1482 0740 E8000000 		call	_ZNK8UnitTest11TestResults18GetFailedTestCountEv@PLT
 1482      00
 1483 0745 89459C   		movl	%eax, -100(%rbp)
 1484 0748 C7459802 		movl	$2, -104(%rbp)
 1484      000000
 1485 074f E8000000 		call	_ZN8UnitTest11CurrentTest7ResultsEv@PLT
 1485      00
 1486              		.loc 5 55 5 discriminator 6
 1487 0754 488B00   		movq	(%rax), %rax
 1488 0757 488D4DC0 		leaq	-64(%rbp), %rcx
 1489 075b 488D559C 		leaq	-100(%rbp), %rdx
 1490 075f 488D7598 		leaq	-104(%rbp), %rsi
 1491 0763 4889C7   		movq	%rax, %rdi
 1492 0766 E8000000 		call	_ZN8UnitTest10CheckEqualIiiEEvRNS_11TestResultsERKT_RKT0_RKNS_11TestDetailsE
 1492      00
 1493              	.LEHE25:
  56:TestTestResults.cpp **** }
 1494              		.loc 5 56 1 is_stmt 1
 1495 076b EB64     		jmp	.L48
 1496              	.L53:
 1497 076d F30F1EFA 		endbr64
  55:TestTestResults.cpp **** }
 1498              		.loc 5 55 5
 1499 0771 4889C7   		movq	%rax, %rdi
 1500 0774 E8000000 		call	__cxa_begin_catch@PLT
 1500      00
 1501              	.LEHB26:
 1502 0779 E8000000 		call	_ZN8UnitTest11CurrentTest7ResultsEv@PLT
 1502      00
  55:TestTestResults.cpp **** }
 1503              		.loc 5 55 5 is_stmt 0 discriminator 3
 1504 077e 488B18   		movq	(%rax), %rbx
 1505 0781 E8000000 		call	_ZN8UnitTest11CurrentTest7DetailsEv@PLT
 1505      00
  55:TestTestResults.cpp **** }
 1506              		.loc 5 55 5 discriminator 13
 1507 0786 488B08   		movq	(%rax), %rcx
 1508 0789 488D45C0 		leaq	-64(%rbp), %rax
 1509 078d BA370000 		movl	$55, %edx
 1509      00
 1510 0792 4889CE   		movq	%rcx, %rsi
 1511 0795 4889C7   		movq	%rax, %rdi
 1512 0798 E8000000 		call	_ZN8UnitTest11TestDetailsC1ERKS0_i@PLT
 1512      00
  55:TestTestResults.cpp **** }
 1513              		.loc 5 55 5 discriminator 17
 1514 079d 488D45C0 		leaq	-64(%rbp), %rax
 1515 07a1 488D1500 		leaq	.LC13(%rip), %rdx
 1515      000000
 1516 07a8 4889C6   		movq	%rax, %rsi
 1517 07ab 4889DF   		movq	%rbx, %rdi
 1518 07ae E8000000 		call	_ZN8UnitTest11TestResults13OnTestFailureERKNS_11TestDetailsEPKc@PLT
 1518      00
 1519              	.LEHE26:
 1520              	.LEHB27:
  55:TestTestResults.cpp **** }
 1521              		.loc 5 55 5 discriminator 19
 1522 07b3 E8000000 		call	__cxa_end_catch@PLT
 1522      00
 1523              	.LEHE27:
 1524              		.loc 5 56 1 is_stmt 1 discriminator 19
 1525 07b8 EB17     		jmp	.L48
 1526              	.L54:
 1527 07ba F30F1EFA 		endbr64
  55:TestTestResults.cpp **** }
 1528              		.loc 5 55 5
 1529 07be 4889C3   		movq	%rax, %rbx
 1530 07c1 E8000000 		call	__cxa_end_catch@PLT
 1530      00
 1531 07c6 4889D8   		movq	%rbx, %rax
 1532 07c9 4889C7   		movq	%rax, %rdi
 1533              	.LEHB28:
 1534 07cc E8000000 		call	_Unwind_Resume@PLT
 1534      00
 1535              	.LEHE28:
 1536              	.L48:
 1537              		.loc 5 56 1
 1538 07d1 488B45E8 		movq	-24(%rbp), %rax
 1539 07d5 64482B04 		subq	%fs:40, %rax
 1539      25280000 
 1539      00
 1540 07de 7405     		je	.L52
 1541 07e0 E8000000 		call	__stack_chk_fail@PLT
 1541      00
 1542              	.L52:
 1543 07e5 488B5DF8 		movq	-8(%rbp), %rbx
 1544 07e9 C9       		leave
 1545              		.cfi_def_cfa 7, 8
 1546 07ea C3       		ret
 1547              		.cfi_endproc
 1548              	.LFE1170:
 1549              		.section	.gcc_except_table
 1550              		.align 4
 1551              	.LLSDA1170:
 1552 0090 FF       		.byte	0xff
 1553 0091 9B       		.byte	0x9b
 1554 0092 25       		.uleb128 .LLSDATT1170-.LLSDATTD1170
 1555              	.LLSDATTD1170:
 1556 0093 01       		.byte	0x1
 1557 0094 1B       		.uleb128 .LLSDACSE1170-.LLSDACSB1170
 1558              	.LLSDACSB1170:
 1559 0095 2C       		.uleb128 .LEHB24-.LFB1170
 1560 0096 E501     		.uleb128 .LEHE24-.LEHB24
 1561 0098 00       		.uleb128 0
 1562 0099 00       		.uleb128 0
 1563 009a 9102     		.uleb128 .LEHB25-.LFB1170
 1564 009c 4E       		.uleb128 .LEHE25-.LEHB25
 1565 009d E102     		.uleb128 .L53-.LFB1170
 1566 009f 01       		.uleb128 0x1
 1567 00a0 ED02     		.uleb128 .LEHB26-.LFB1170
 1568 00a2 3A       		.uleb128 .LEHE26-.LEHB26
 1569 00a3 AE03     		.uleb128 .L54-.LFB1170
 1570 00a5 00       		.uleb128 0
 1571 00a6 A703     		.uleb128 .LEHB27-.LFB1170
 1572 00a8 05       		.uleb128 .LEHE27-.LEHB27
 1573 00a9 00       		.uleb128 0
 1574 00aa 00       		.uleb128 0
 1575 00ab C003     		.uleb128 .LEHB28-.LFB1170
 1576 00ad 05       		.uleb128 .LEHE28-.LEHB28
 1577 00ae 00       		.uleb128 0
 1578 00af 00       		.uleb128 0
 1579              	.LLSDACSE1170:
 1580 00b0 01       		.byte	0x1
 1581 00b1 00       		.byte	0
 1582 00b2 0000     		.align 4
 1583 00b4 00000000 		.long	0
 1584              	
 1585              	.LLSDATT1170:
 1586              		.text
 1588              		.section	.rodata
 1589 01fc 00000000 		.align 8
 1590              	.LC14:
 1591 0200 4E6F7469 		.string	"NotifiesReporterOfTestStartWithCorrectInfo"
 1591      66696573 
 1591      5265706F 
 1591      72746572 
 1591      4F665465 
 1592              		.text
 1593 07eb 90       		.align 2
 1595              	_ZN12_GLOBAL__N_146TestNotifiesReporterOfTestStartWithCorrectInfoC2Ev:
 1596              	.LFB1172:
  57:TestTestResults.cpp **** 
  58:TestTestResults.cpp **** TEST(NotifiesReporterOfTestStartWithCorrectInfo)
 1597              		.loc 5 58 1
 1598              		.cfi_startproc
 1599 07ec 55       		pushq	%rbp
 1600              		.cfi_def_cfa_offset 16
 1601              		.cfi_offset 6, -16
 1602 07ed 4889E5   		movq	%rsp, %rbp
 1603              		.cfi_def_cfa_register 6
 1604 07f0 53       		pushq	%rbx
 1605 07f1 4883EC18 		subq	$24, %rsp
 1606              		.cfi_offset 3, -24
 1607 07f5 48897DE8 		movq	%rdi, -24(%rbp)
 1608              	.LBB11:
 1609              		.loc 5 58 1
 1610 07f9 488B5DE8 		movq	-24(%rbp), %rbx
 1611 07fd E8000000 		call	_ZN13UnitTestSuite12GetSuiteNameEv
 1611      00
 1612 0802 4889C2   		movq	%rax, %rdx
 1613 0805 41B83A00 		movl	$58, %r8d
 1613      0000
 1614 080b 488D0500 		leaq	.LC2(%rip), %rax
 1614      000000
 1615 0812 4889C1   		movq	%rax, %rcx
 1616 0815 488D0500 		leaq	.LC14(%rip), %rax
 1616      000000
 1617 081c 4889C6   		movq	%rax, %rsi
 1618 081f 4889DF   		movq	%rbx, %rdi
 1619 0822 E8000000 		call	_ZN8UnitTest4TestC2EPKcS2_S2_i@PLT
 1619      00
 1620 0827 488D1500 		leaq	16+_ZTVN12_GLOBAL__N_146TestNotifiesReporterOfTestStartWithCorrectInfoE(%rip), %rdx
 1620      000000
 1621 082e 488B45E8 		movq	-24(%rbp), %rax
 1622 0832 488910   		movq	%rdx, (%rax)
 1623              	.LBE11:
 1624 0835 90       		nop
 1625 0836 488B5DF8 		movq	-8(%rbp), %rbx
 1626 083a C9       		leave
 1627              		.cfi_def_cfa 7, 8
 1628 083b C3       		ret
 1629              		.cfi_endproc
 1630              	.LFE1172:
 1632              		.set	_ZN12_GLOBAL__N_146TestNotifiesReporterOfTestStartWithCorrectInfoC1Ev,_ZN12_GLOBAL__N_146Test
 1633              		.local	_ZN12_GLOBAL__N_154testNotifiesReporterOfTestStartWithCorrectInfoInstanceE
 1634              		.comm	_ZN12_GLOBAL__N_154testNotifiesReporterOfTestStartWithCorrectInfoInstanceE,56,32
 1635              		.local	_ZN12_GLOBAL__N_147adderNotifiesReporterOfTestStartWithCorrectInfoE
 1636              		.comm	_ZN12_GLOBAL__N_147adderNotifiesReporterOfTestStartWithCorrectInfoE,1,1
 1637              		.section	.rodata
 1638              	.LC15:
 1639 022b 73756974 		.string	"suitename"
 1639      656E616D 
 1639      6500
 1640              	.LC16:
 1641 0235 74657374 		.string	"testname"
 1641      6E616D65 
 1641      00
 1642 023e 0000     		.align 8
 1643              	.LC17:
 1644 0240 556E6861 		.string	"Unhandled exception in CHECK_EQUAL(1, reporter.testRunCount)"
 1644      6E646C65 
 1644      64206578 
 1644      63657074 
 1644      696F6E20 
 1645 027d 000000   		.align 8
 1646              	.LC18:
 1647 0280 556E6861 		.string	"Unhandled exception in CHECK_EQUAL(\"suitename\", reporter.lastStartedSuite)"
 1647      6E646C65 
 1647      64206578 
 1647      63657074 
 1647      696F6E20 
 1648 02cb 00000000 		.align 8
 1648      00
 1649              	.LC19:
 1650 02d0 556E6861 		.string	"Unhandled exception in CHECK_EQUAL(\"testname\", reporter.lastStartedTest)"
 1650      6E646C65 
 1650      64206578 
 1650      63657074 
 1650      696F6E20 
 1651              		.text
 1652              		.align 2
 1654              	_ZNK12_GLOBAL__N_146TestNotifiesReporterOfTestStartWithCorrectInfo7RunImplEv:
 1655              	.LFB1174:
  59:TestTestResults.cpp **** {
 1656              		.loc 5 59 1
 1657              		.cfi_startproc
 1658              		.cfi_personality 0x9b,DW.ref.__gxx_personality_v0
 1659              		.cfi_lsda 0x1b,.LLSDA1174
 1660 083c F30F1EFA 		endbr64
 1661 0840 55       		pushq	%rbp
 1662              		.cfi_def_cfa_offset 16
 1663              		.cfi_offset 6, -16
 1664 0841 4889E5   		movq	%rsp, %rbp
 1665              		.cfi_def_cfa_register 6
 1666 0844 53       		pushq	%rbx
 1667 0845 4881ECA8 		subq	$2216, %rsp
 1667      080000
 1668              		.cfi_offset 3, -24
 1669 084c 4889BD58 		movq	%rdi, -2216(%rbp)
 1669      F7FFFF
 1670              		.loc 5 59 1
 1671 0853 64488B04 		movq	%fs:40, %rax
 1671      25280000 
 1671      00
 1672 085c 488945E8 		movq	%rax, -24(%rbp)
 1673 0860 31C0     		xorl	%eax, %eax
  60:TestTestResults.cpp ****     RecordingReporter reporter;
 1674              		.loc 5 60 23
 1675 0862 488D85B0 		leaq	-2128(%rbp), %rax
 1675      F7FFFF
 1676 0869 4889C7   		movq	%rax, %rdi
 1677 086c E8000000 		call	_ZN17RecordingReporterC1Ev
 1677      00
  61:TestTestResults.cpp ****     TestResults results(&reporter);
 1678              		.loc 5 61 34
 1679 0871 488D95B0 		leaq	-2128(%rbp), %rdx
 1679      F7FFFF
 1680 0878 488D8570 		leaq	-2192(%rbp), %rax
 1680      F7FFFF
 1681 087f 4889D6   		movq	%rdx, %rsi
 1682 0882 4889C7   		movq	%rax, %rdi
 1683              	.LEHB29:
 1684 0885 E8000000 		call	_ZN8UnitTest11TestResultsC1EPNS_12TestReporterE@PLT
 1684      00
  62:TestTestResults.cpp ****     results.OnTestStart(details);
 1685              		.loc 5 62 24
 1686 088a 488D8570 		leaq	-2192(%rbp), %rax
 1686      F7FFFF
 1687 0891 488D1500 		leaq	_ZN12_GLOBAL__N_1L7detailsE(%rip), %rdx
 1687      000000
 1688 0898 4889D6   		movq	%rdx, %rsi
 1689 089b 4889C7   		movq	%rax, %rdi
 1690 089e E8000000 		call	_ZN8UnitTest11TestResults11OnTestStartERKNS_11TestDetailsE@PLT
 1690      00
 1691              	.LEHE29:
 1692              	.LEHB30:
  63:TestTestResults.cpp **** 
  64:TestTestResults.cpp ****     CHECK_EQUAL (1, reporter.testRunCount);
 1693              		.loc 5 64 5
 1694 08a3 E8000000 		call	_ZN8UnitTest11CurrentTest7DetailsEv@PLT
 1694      00
 1695 08a8 488B08   		movq	(%rax), %rcx
 1696 08ab 488D8590 		leaq	-2160(%rbp), %rax
 1696      F7FFFF
 1697 08b2 BA400000 		movl	$64, %edx
 1697      00
 1698 08b7 4889CE   		movq	%rcx, %rsi
 1699 08ba 4889C7   		movq	%rax, %rdi
 1700 08bd E8000000 		call	_ZN8UnitTest11TestDetailsC1ERKS0_i@PLT
 1700      00
 1701              		.loc 5 64 5 is_stmt 0 discriminator 4
 1702 08c2 C7856CF7 		movl	$1, -2196(%rbp)
 1702      FFFF0100 
 1702      0000
 1703 08cc E8000000 		call	_ZN8UnitTest11CurrentTest7ResultsEv@PLT
 1703      00
 1704 08d1 488B00   		movq	(%rax), %rax
 1705 08d4 488D9590 		leaq	-2160(%rbp), %rdx
 1705      F7FFFF
 1706 08db 488D8DB0 		leaq	-2128(%rbp), %rcx
 1706      F7FFFF
 1707 08e2 488D7908 		leaq	8(%rcx), %rdi
 1708 08e6 488DB56C 		leaq	-2196(%rbp), %rsi
 1708      F7FFFF
 1709 08ed 4889D1   		movq	%rdx, %rcx
 1710 08f0 4889FA   		movq	%rdi, %rdx
 1711 08f3 4889C7   		movq	%rax, %rdi
 1712 08f6 E8000000 		call	_ZN8UnitTest10CheckEqualIiiEEvRNS_11TestResultsERKT_RKT0_RKNS_11TestDetailsE
 1712      00
 1713              	.LEHE30:
 1714              	.L58:
 1715              	.LEHB31:
  65:TestTestResults.cpp ****     CHECK_EQUAL ("suitename", reporter.lastStartedSuite);
 1716              		.loc 5 65 5 is_stmt 1
 1717 08fb E8000000 		call	_ZN8UnitTest11CurrentTest7DetailsEv@PLT
 1717      00
 1718 0900 488B08   		movq	(%rax), %rcx
 1719 0903 488D8590 		leaq	-2160(%rbp), %rax
 1719      F7FFFF
 1720 090a BA410000 		movl	$65, %edx
 1720      00
 1721 090f 4889CE   		movq	%rcx, %rsi
 1722 0912 4889C7   		movq	%rax, %rdi
 1723 0915 E8000000 		call	_ZN8UnitTest11TestDetailsC1ERKS0_i@PLT
 1723      00
 1724              		.loc 5 65 5 is_stmt 0 discriminator 4
 1725 091a E8000000 		call	_ZN8UnitTest11CurrentTest7ResultsEv@PLT
 1725      00
 1726 091f 488B00   		movq	(%rax), %rax
 1727 0922 488D9590 		leaq	-2160(%rbp), %rdx
 1727      F7FFFF
 1728 0929 488D8DB0 		leaq	-2128(%rbp), %rcx
 1728      F7FFFF
 1729 0930 488D710C 		leaq	12(%rcx), %rsi
 1730 0934 4889D1   		movq	%rdx, %rcx
 1731 0937 4889F2   		movq	%rsi, %rdx
 1732 093a 488D3500 		leaq	.LC15(%rip), %rsi
 1732      000000
 1733 0941 4889C7   		movq	%rax, %rdi
 1734 0944 E8000000 		call	_ZN8UnitTest10CheckEqualERNS_11TestResultsEPKcPcRKNS_11TestDetailsE@PLT
 1734      00
 1735              	.LEHE31:
 1736              	.L62:
 1737              	.LEHB32:
  66:TestTestResults.cpp ****     CHECK_EQUAL ("testname", reporter.lastStartedTest);
 1738              		.loc 5 66 5 is_stmt 1
 1739 0949 E8000000 		call	_ZN8UnitTest11CurrentTest7DetailsEv@PLT
 1739      00
 1740 094e 488B08   		movq	(%rax), %rcx
 1741 0951 488D8590 		leaq	-2160(%rbp), %rax
 1741      F7FFFF
 1742 0958 BA420000 		movl	$66, %edx
 1742      00
 1743 095d 4889CE   		movq	%rcx, %rsi
 1744 0960 4889C7   		movq	%rax, %rdi
 1745 0963 E8000000 		call	_ZN8UnitTest11TestDetailsC1ERKS0_i@PLT
 1745      00
 1746              		.loc 5 66 5 is_stmt 0 discriminator 4
 1747 0968 E8000000 		call	_ZN8UnitTest11CurrentTest7ResultsEv@PLT
 1747      00
 1748 096d 488B00   		movq	(%rax), %rax
 1749 0970 488D9590 		leaq	-2160(%rbp), %rdx
 1749      F7FFFF
 1750 0977 488D8DB0 		leaq	-2128(%rbp), %rcx
 1750      F7FFFF
 1751 097e 488DB10C 		leaq	268(%rcx), %rsi
 1751      010000
 1752 0985 4889D1   		movq	%rdx, %rcx
 1753 0988 4889F2   		movq	%rsi, %rdx
 1754 098b 488D3500 		leaq	.LC16(%rip), %rsi
 1754      000000
 1755 0992 4889C7   		movq	%rax, %rdi
 1756 0995 E8000000 		call	_ZN8UnitTest10CheckEqualERNS_11TestResultsEPKcPcRKNS_11TestDetailsE@PLT
 1756      00
 1757              	.LEHE32:
 1758              	.L65:
  67:TestTestResults.cpp **** }
 1759              		.loc 5 67 1 is_stmt 1
 1760 099a 488D85B0 		leaq	-2128(%rbp), %rax
 1760      F7FFFF
 1761 09a1 4889C7   		movq	%rax, %rdi
 1762              	.LEHB33:
 1763 09a4 E8000000 		call	_ZN17RecordingReporterD1Ev
 1763      00
 1764              	.LEHE33:
 1765 09a9 488B45E8 		movq	-24(%rbp), %rax
 1766 09ad 64482B04 		subq	%fs:40, %rax
 1766      25280000 
 1766      00
 1767 09b6 0F845A01 		je	.L67
 1767      0000
 1768 09bc E9500100 		jmp	.L75
 1768      00
 1769              	.L69:
 1770 09c1 F30F1EFA 		endbr64
  64:TestTestResults.cpp ****     CHECK_EQUAL ("suitename", reporter.lastStartedSuite);
 1771              		.loc 5 64 5
 1772 09c5 4889C7   		movq	%rax, %rdi
 1773 09c8 E8000000 		call	__cxa_begin_catch@PLT
 1773      00
 1774              	.LEHB34:
 1775 09cd E8000000 		call	_ZN8UnitTest11CurrentTest7ResultsEv@PLT
 1775      00
  64:TestTestResults.cpp ****     CHECK_EQUAL ("suitename", reporter.lastStartedSuite);
 1776              		.loc 5 64 5 is_stmt 0 discriminator 3
 1777 09d2 488B18   		movq	(%rax), %rbx
 1778 09d5 E8000000 		call	_ZN8UnitTest11CurrentTest7DetailsEv@PLT
 1778      00
  64:TestTestResults.cpp ****     CHECK_EQUAL ("suitename", reporter.lastStartedSuite);
 1779              		.loc 5 64 5 discriminator 11
 1780 09da 488B08   		movq	(%rax), %rcx
 1781 09dd 488D8590 		leaq	-2160(%rbp), %rax
 1781      F7FFFF
 1782 09e4 BA400000 		movl	$64, %edx
 1782      00
 1783 09e9 4889CE   		movq	%rcx, %rsi
 1784 09ec 4889C7   		movq	%rax, %rdi
 1785 09ef E8000000 		call	_ZN8UnitTest11TestDetailsC1ERKS0_i@PLT
 1785      00
  64:TestTestResults.cpp ****     CHECK_EQUAL ("suitename", reporter.lastStartedSuite);
 1786              		.loc 5 64 5 discriminator 15
 1787 09f4 488D8590 		leaq	-2160(%rbp), %rax
 1787      F7FFFF
 1788 09fb 488D1500 		leaq	.LC17(%rip), %rdx
 1788      000000
 1789 0a02 4889C6   		movq	%rax, %rsi
 1790 0a05 4889DF   		movq	%rbx, %rdi
 1791 0a08 E8000000 		call	_ZN8UnitTest11TestResults13OnTestFailureERKNS_11TestDetailsEPKc@PLT
 1791      00
 1792              	.LEHE34:
 1793              	.LEHB35:
  64:TestTestResults.cpp ****     CHECK_EQUAL ("suitename", reporter.lastStartedSuite);
 1794              		.loc 5 64 5 discriminator 17
 1795 0a0d E8000000 		call	__cxa_end_catch@PLT
 1795      00
 1796              	.LEHE35:
  64:TestTestResults.cpp ****     CHECK_EQUAL ("suitename", reporter.lastStartedSuite);
 1797              		.loc 5 64 5
 1798 0a12 E9E4FEFF 		jmp	.L58
 1798      FF
 1799              	.L70:
 1800 0a17 F30F1EFA 		endbr64
 1801 0a1b 4889C3   		movq	%rax, %rbx
 1802 0a1e E8000000 		call	__cxa_end_catch@PLT
 1802      00
 1803 0a23 E9CF0000 		jmp	.L60
 1803      00
 1804              	.L71:
 1805 0a28 F30F1EFA 		endbr64
  65:TestTestResults.cpp ****     CHECK_EQUAL ("testname", reporter.lastStartedTest);
 1806              		.loc 5 65 5 is_stmt 1
 1807 0a2c 4889C7   		movq	%rax, %rdi
 1808 0a2f E8000000 		call	__cxa_begin_catch@PLT
 1808      00
 1809              	.LEHB36:
 1810 0a34 E8000000 		call	_ZN8UnitTest11CurrentTest7ResultsEv@PLT
 1810      00
  65:TestTestResults.cpp ****     CHECK_EQUAL ("testname", reporter.lastStartedTest);
 1811              		.loc 5 65 5 is_stmt 0 discriminator 3
 1812 0a39 488B18   		movq	(%rax), %rbx
 1813 0a3c E8000000 		call	_ZN8UnitTest11CurrentTest7DetailsEv@PLT
 1813      00
  65:TestTestResults.cpp ****     CHECK_EQUAL ("testname", reporter.lastStartedTest);
 1814              		.loc 5 65 5 discriminator 11
 1815 0a41 488B08   		movq	(%rax), %rcx
 1816 0a44 488D8590 		leaq	-2160(%rbp), %rax
 1816      F7FFFF
 1817 0a4b BA410000 		movl	$65, %edx
 1817      00
 1818 0a50 4889CE   		movq	%rcx, %rsi
 1819 0a53 4889C7   		movq	%rax, %rdi
 1820 0a56 E8000000 		call	_ZN8UnitTest11TestDetailsC1ERKS0_i@PLT
 1820      00
  65:TestTestResults.cpp ****     CHECK_EQUAL ("testname", reporter.lastStartedTest);
 1821              		.loc 5 65 5 discriminator 15
 1822 0a5b 488D8590 		leaq	-2160(%rbp), %rax
 1822      F7FFFF
 1823 0a62 488D1500 		leaq	.LC18(%rip), %rdx
 1823      000000
 1824 0a69 4889C6   		movq	%rax, %rsi
 1825 0a6c 4889DF   		movq	%rbx, %rdi
 1826 0a6f E8000000 		call	_ZN8UnitTest11TestResults13OnTestFailureERKNS_11TestDetailsEPKc@PLT
 1826      00
 1827              	.LEHE36:
 1828              	.LEHB37:
  65:TestTestResults.cpp ****     CHECK_EQUAL ("testname", reporter.lastStartedTest);
 1829              		.loc 5 65 5 discriminator 17
 1830 0a74 E8000000 		call	__cxa_end_catch@PLT
 1830      00
 1831              	.LEHE37:
  65:TestTestResults.cpp ****     CHECK_EQUAL ("testname", reporter.lastStartedTest);
 1832              		.loc 5 65 5
 1833 0a79 E9CBFEFF 		jmp	.L62
 1833      FF
 1834              	.L72:
 1835 0a7e F30F1EFA 		endbr64
 1836 0a82 4889C3   		movq	%rax, %rbx
 1837 0a85 E8000000 		call	__cxa_end_catch@PLT
 1837      00
 1838 0a8a EB6B     		jmp	.L60
 1839              	.L73:
 1840 0a8c F30F1EFA 		endbr64
  66:TestTestResults.cpp **** }
 1841              		.loc 5 66 5 is_stmt 1
 1842 0a90 4889C7   		movq	%rax, %rdi
 1843 0a93 E8000000 		call	__cxa_begin_catch@PLT
 1843      00
 1844              	.LEHB38:
 1845 0a98 E8000000 		call	_ZN8UnitTest11CurrentTest7ResultsEv@PLT
 1845      00
  66:TestTestResults.cpp **** }
 1846              		.loc 5 66 5 is_stmt 0 discriminator 3
 1847 0a9d 488B18   		movq	(%rax), %rbx
 1848 0aa0 E8000000 		call	_ZN8UnitTest11CurrentTest7DetailsEv@PLT
 1848      00
  66:TestTestResults.cpp **** }
 1849              		.loc 5 66 5 discriminator 11
 1850 0aa5 488B08   		movq	(%rax), %rcx
 1851 0aa8 488D8590 		leaq	-2160(%rbp), %rax
 1851      F7FFFF
 1852 0aaf BA420000 		movl	$66, %edx
 1852      00
 1853 0ab4 4889CE   		movq	%rcx, %rsi
 1854 0ab7 4889C7   		movq	%rax, %rdi
 1855 0aba E8000000 		call	_ZN8UnitTest11TestDetailsC1ERKS0_i@PLT
 1855      00
  66:TestTestResults.cpp **** }
 1856              		.loc 5 66 5 discriminator 15
 1857 0abf 488D8590 		leaq	-2160(%rbp), %rax
 1857      F7FFFF
 1858 0ac6 488D1500 		leaq	.LC19(%rip), %rdx
 1858      000000
 1859 0acd 4889C6   		movq	%rax, %rsi
 1860 0ad0 4889DF   		movq	%rbx, %rdi
 1861 0ad3 E8000000 		call	_ZN8UnitTest11TestResults13OnTestFailureERKNS_11TestDetailsEPKc@PLT
 1861      00
 1862              	.LEHE38:
 1863              	.LEHB39:
  66:TestTestResults.cpp **** }
 1864              		.loc 5 66 5 discriminator 17
 1865 0ad8 E8000000 		call	__cxa_end_catch@PLT
 1865      00
 1866              	.LEHE39:
  66:TestTestResults.cpp **** }
 1867              		.loc 5 66 5
 1868 0add E9B8FEFF 		jmp	.L65
 1868      FF
 1869              	.L74:
 1870 0ae2 F30F1EFA 		endbr64
 1871 0ae6 4889C3   		movq	%rax, %rbx
 1872 0ae9 E8000000 		call	__cxa_end_catch@PLT
 1872      00
 1873 0aee EB07     		jmp	.L60
 1874              	.L68:
 1875 0af0 F30F1EFA 		endbr64
 1876              		.loc 5 67 1 is_stmt 1
 1877 0af4 4889C3   		movq	%rax, %rbx
 1878              	.L60:
 1879 0af7 488D85B0 		leaq	-2128(%rbp), %rax
 1879      F7FFFF
 1880 0afe 4889C7   		movq	%rax, %rdi
 1881 0b01 E8000000 		call	_ZN17RecordingReporterD1Ev
 1881      00
 1882 0b06 4889D8   		movq	%rbx, %rax
 1883 0b09 4889C7   		movq	%rax, %rdi
 1884              	.LEHB40:
 1885 0b0c E8000000 		call	_Unwind_Resume@PLT
 1885      00
 1886              	.LEHE40:
 1887              	.L75:
 1888 0b11 E8000000 		call	__stack_chk_fail@PLT
 1888      00
 1889              	.L67:
 1890 0b16 488B5DF8 		movq	-8(%rbp), %rbx
 1891 0b1a C9       		leave
 1892              		.cfi_def_cfa 7, 8
 1893 0b1b C3       		ret
 1894              		.cfi_endproc
 1895              	.LFE1174:
 1896              		.section	.gcc_except_table
 1897              		.align 4
 1898              	.LLSDA1174:
 1899 00b8 FF       		.byte	0xff
 1900 00b9 9B       		.byte	0x9b
 1901 00ba 4D       		.uleb128 .LLSDATT1174-.LLSDATTD1174
 1902              	.LLSDATTD1174:
 1903 00bb 01       		.byte	0x1
 1904 00bc 44       		.uleb128 .LLSDACSE1174-.LLSDACSB1174
 1905              	.LLSDACSB1174:
 1906 00bd 49       		.uleb128 .LEHB29-.LFB1174
 1907 00be 1E       		.uleb128 .LEHE29-.LEHB29
 1908 00bf B405     		.uleb128 .L68-.LFB1174
 1909 00c1 00       		.uleb128 0
 1910 00c2 67       		.uleb128 .LEHB30-.LFB1174
 1911 00c3 58       		.uleb128 .LEHE30-.LEHB30
 1912 00c4 8503     		.uleb128 .L69-.LFB1174
 1913 00c6 01       		.uleb128 0x1
 1914 00c7 BF01     		.uleb128 .LEHB31-.LFB1174
 1915 00c9 4E       		.uleb128 .LEHE31-.LEHB31
 1916 00ca EC03     		.uleb128 .L71-.LFB1174
 1917 00cc 01       		.uleb128 0x1
 1918 00cd 8D02     		.uleb128 .LEHB32-.LFB1174
 1919 00cf 51       		.uleb128 .LEHE32-.LEHB32
 1920 00d0 D004     		.uleb128 .L73-.LFB1174
 1921 00d2 01       		.uleb128 0x1
 1922 00d3 E802     		.uleb128 .LEHB33-.LFB1174
 1923 00d5 05       		.uleb128 .LEHE33-.LEHB33
 1924 00d6 00       		.uleb128 0
 1925 00d7 00       		.uleb128 0
 1926 00d8 9103     		.uleb128 .LEHB34-.LFB1174
 1927 00da 40       		.uleb128 .LEHE34-.LEHB34
 1928 00db DB03     		.uleb128 .L70-.LFB1174
 1929 00dd 00       		.uleb128 0
 1930 00de D103     		.uleb128 .LEHB35-.LFB1174
 1931 00e0 05       		.uleb128 .LEHE35-.LEHB35
 1932 00e1 B405     		.uleb128 .L68-.LFB1174
 1933 00e3 00       		.uleb128 0
 1934 00e4 F803     		.uleb128 .LEHB36-.LFB1174
 1935 00e6 40       		.uleb128 .LEHE36-.LEHB36
 1936 00e7 C204     		.uleb128 .L72-.LFB1174
 1937 00e9 00       		.uleb128 0
 1938 00ea B804     		.uleb128 .LEHB37-.LFB1174
 1939 00ec 05       		.uleb128 .LEHE37-.LEHB37
 1940 00ed B405     		.uleb128 .L68-.LFB1174
 1941 00ef 00       		.uleb128 0
 1942 00f0 DC04     		.uleb128 .LEHB38-.LFB1174
 1943 00f2 40       		.uleb128 .LEHE38-.LEHB38
 1944 00f3 A605     		.uleb128 .L74-.LFB1174
 1945 00f5 00       		.uleb128 0
 1946 00f6 9C05     		.uleb128 .LEHB39-.LFB1174
 1947 00f8 05       		.uleb128 .LEHE39-.LEHB39
 1948 00f9 B405     		.uleb128 .L68-.LFB1174
 1949 00fb 00       		.uleb128 0
 1950 00fc D005     		.uleb128 .LEHB40-.LFB1174
 1951 00fe 05       		.uleb128 .LEHE40-.LEHB40
 1952 00ff 00       		.uleb128 0
 1953 0100 00       		.uleb128 0
 1954              	.LLSDACSE1174:
 1955 0101 01       		.byte	0x1
 1956 0102 00       		.byte	0
 1957 0103 00       		.align 4
 1958 0104 00000000 		.long	0
 1959              	
 1960              	.LLSDATT1174:
 1961              		.text
 1963              		.section	.rodata
 1964 0319 00000000 		.align 8
 1964      000000
 1965              	.LC20:
 1966 0320 4E6F7469 		.string	"NotifiesReporterOfTestFailureWithCorrectInfo"
 1966      66696573 
 1966      5265706F 
 1966      72746572 
 1966      4F665465 
 1967              		.text
 1968              		.align 2
 1970              	_ZN12_GLOBAL__N_148TestNotifiesReporterOfTestFailureWithCorrectInfoC2Ev:
 1971              	.LFB1176:
  68:TestTestResults.cpp **** 
  69:TestTestResults.cpp **** TEST(NotifiesReporterOfTestFailureWithCorrectInfo)
 1972              		.loc 5 69 1
 1973              		.cfi_startproc
 1974 0b1c 55       		pushq	%rbp
 1975              		.cfi_def_cfa_offset 16
 1976              		.cfi_offset 6, -16
 1977 0b1d 4889E5   		movq	%rsp, %rbp
 1978              		.cfi_def_cfa_register 6
 1979 0b20 53       		pushq	%rbx
 1980 0b21 4883EC18 		subq	$24, %rsp
 1981              		.cfi_offset 3, -24
 1982 0b25 48897DE8 		movq	%rdi, -24(%rbp)
 1983              	.LBB12:
 1984              		.loc 5 69 1
 1985 0b29 488B5DE8 		movq	-24(%rbp), %rbx
 1986 0b2d E8000000 		call	_ZN13UnitTestSuite12GetSuiteNameEv
 1986      00
 1987 0b32 4889C2   		movq	%rax, %rdx
 1988 0b35 41B84500 		movl	$69, %r8d
 1988      0000
 1989 0b3b 488D0500 		leaq	.LC2(%rip), %rax
 1989      000000
 1990 0b42 4889C1   		movq	%rax, %rcx
 1991 0b45 488D0500 		leaq	.LC20(%rip), %rax
 1991      000000
 1992 0b4c 4889C6   		movq	%rax, %rsi
 1993 0b4f 4889DF   		movq	%rbx, %rdi
 1994 0b52 E8000000 		call	_ZN8UnitTest4TestC2EPKcS2_S2_i@PLT
 1994      00
 1995 0b57 488D1500 		leaq	16+_ZTVN12_GLOBAL__N_148TestNotifiesReporterOfTestFailureWithCorrectInfoE(%rip), %rdx
 1995      000000
 1996 0b5e 488B45E8 		movq	-24(%rbp), %rax
 1997 0b62 488910   		movq	%rdx, (%rax)
 1998              	.LBE12:
 1999 0b65 90       		nop
 2000 0b66 488B5DF8 		movq	-8(%rbp), %rbx
 2001 0b6a C9       		leave
 2002              		.cfi_def_cfa 7, 8
 2003 0b6b C3       		ret
 2004              		.cfi_endproc
 2005              	.LFE1176:
 2007              		.set	_ZN12_GLOBAL__N_148TestNotifiesReporterOfTestFailureWithCorrectInfoC1Ev,_ZN12_GLOBAL__N_148Te
 2008              		.local	_ZN12_GLOBAL__N_156testNotifiesReporterOfTestFailureWithCorrectInfoInstanceE
 2009              		.comm	_ZN12_GLOBAL__N_156testNotifiesReporterOfTestFailureWithCorrectInfoInstanceE,56,32
 2010              		.local	_ZN12_GLOBAL__N_149adderNotifiesReporterOfTestFailureWithCorrectInfoE
 2011              		.comm	_ZN12_GLOBAL__N_149adderNotifiesReporterOfTestFailureWithCorrectInfoE,1,1
 2012              		.section	.rodata
 2013              	.LC21:
 2014 034d 6661696C 		.string	"failurestring"
 2014      75726573 
 2014      7472696E 
 2014      6700
 2015              	.LC22:
 2016 035b 66696C65 		.string	"filename"
 2016      6E616D65 
 2016      00
 2017 0364 00000000 		.align 8
 2018              	.LC23:
 2019 0368 556E6861 		.string	"Unhandled exception in CHECK_EQUAL(1, reporter.testFailedCount)"
 2019      6E646C65 
 2019      64206578 
 2019      63657074 
 2019      696F6E20 
 2020              		.align 8
 2021              	.LC24:
 2022 03a8 556E6861 		.string	"Unhandled exception in CHECK_EQUAL(\"filename\", reporter.lastFailedFile)"
 2022      6E646C65 
 2022      64206578 
 2022      63657074 
 2022      696F6E20 
 2023              		.align 8
 2024              	.LC25:
 2025 03f0 556E6861 		.string	"Unhandled exception in CHECK_EQUAL(123, reporter.lastFailedLine)"
 2025      6E646C65 
 2025      64206578 
 2025      63657074 
 2025      696F6E20 
 2026 0431 00000000 		.align 8
 2026      000000
 2027              	.LC26:
 2028 0438 556E6861 		.string	"Unhandled exception in CHECK_EQUAL(\"suitename\", reporter.lastFailedSuite)"
 2028      6E646C65 
 2028      64206578 
 2028      63657074 
 2028      696F6E20 
 2029 0482 00000000 		.align 8
 2029      0000
 2030              	.LC27:
 2031 0488 556E6861 		.string	"Unhandled exception in CHECK_EQUAL(\"testname\", reporter.lastFailedTest)"
 2031      6E646C65 
 2031      64206578 
 2031      63657074 
 2031      696F6E20 
 2032              		.align 8
 2033              	.LC28:
 2034 04d0 556E6861 		.string	"Unhandled exception in CHECK_EQUAL(\"failurestring\", reporter.lastFailedMessage)"
 2034      6E646C65 
 2034      64206578 
 2034      63657074 
 2034      696F6E20 
 2035              		.text
 2036              		.align 2
 2038              	_ZNK12_GLOBAL__N_148TestNotifiesReporterOfTestFailureWithCorrectInfo7RunImplEv:
 2039              	.LFB1178:
  70:TestTestResults.cpp **** {
 2040              		.loc 5 70 1
 2041              		.cfi_startproc
 2042              		.cfi_personality 0x9b,DW.ref.__gxx_personality_v0
 2043              		.cfi_lsda 0x1b,.LLSDA1178
 2044 0b6c F30F1EFA 		endbr64
 2045 0b70 55       		pushq	%rbp
 2046              		.cfi_def_cfa_offset 16
 2047              		.cfi_offset 6, -16
 2048 0b71 4889E5   		movq	%rsp, %rbp
 2049              		.cfi_def_cfa_register 6
 2050 0b74 53       		pushq	%rbx
 2051 0b75 4881ECA8 		subq	$2216, %rsp
 2051      080000
 2052              		.cfi_offset 3, -24
 2053 0b7c 4889BD58 		movq	%rdi, -2216(%rbp)
 2053      F7FFFF
 2054              		.loc 5 70 1
 2055 0b83 64488B04 		movq	%fs:40, %rax
 2055      25280000 
 2055      00
 2056 0b8c 488945E8 		movq	%rax, -24(%rbp)
 2057 0b90 31C0     		xorl	%eax, %eax
  71:TestTestResults.cpp ****     RecordingReporter reporter;
 2058              		.loc 5 71 23
 2059 0b92 488D85B0 		leaq	-2128(%rbp), %rax
 2059      F7FFFF
 2060 0b99 4889C7   		movq	%rax, %rdi
 2061 0b9c E8000000 		call	_ZN17RecordingReporterC1Ev
 2061      00
  72:TestTestResults.cpp ****     TestResults results(&reporter);
 2062              		.loc 5 72 34
 2063 0ba1 488D95B0 		leaq	-2128(%rbp), %rdx
 2063      F7FFFF
 2064 0ba8 488D8570 		leaq	-2192(%rbp), %rax
 2064      F7FFFF
 2065 0baf 4889D6   		movq	%rdx, %rsi
 2066 0bb2 4889C7   		movq	%rax, %rdi
 2067              	.LEHB41:
 2068 0bb5 E8000000 		call	_ZN8UnitTest11TestResultsC1EPNS_12TestReporterE@PLT
 2068      00
  73:TestTestResults.cpp **** 
  74:TestTestResults.cpp ****     results.OnTestFailure(details, "failurestring");
 2069              		.loc 5 74 26
 2070 0bba 488D8570 		leaq	-2192(%rbp), %rax
 2070      F7FFFF
 2071 0bc1 488D1500 		leaq	.LC21(%rip), %rdx
 2071      000000
 2072 0bc8 488D0D00 		leaq	_ZN12_GLOBAL__N_1L7detailsE(%rip), %rcx
 2072      000000
 2073 0bcf 4889CE   		movq	%rcx, %rsi
 2074 0bd2 4889C7   		movq	%rax, %rdi
 2075 0bd5 E8000000 		call	_ZN8UnitTest11TestResults13OnTestFailureERKNS_11TestDetailsEPKc@PLT
 2075      00
 2076              	.LEHE41:
 2077              	.LEHB42:
  75:TestTestResults.cpp ****     CHECK_EQUAL (1, reporter.testFailedCount);
 2078              		.loc 5 75 5
 2079 0bda E8000000 		call	_ZN8UnitTest11CurrentTest7DetailsEv@PLT
 2079      00
 2080 0bdf 488B08   		movq	(%rax), %rcx
 2081 0be2 488D8590 		leaq	-2160(%rbp), %rax
 2081      F7FFFF
 2082 0be9 BA4B0000 		movl	$75, %edx
 2082      00
 2083 0bee 4889CE   		movq	%rcx, %rsi
 2084 0bf1 4889C7   		movq	%rax, %rdi
 2085 0bf4 E8000000 		call	_ZN8UnitTest11TestDetailsC1ERKS0_i@PLT
 2085      00
 2086              		.loc 5 75 5 is_stmt 0 discriminator 4
 2087 0bf9 C7856CF7 		movl	$1, -2196(%rbp)
 2087      FFFF0100 
 2087      0000
 2088 0c03 E8000000 		call	_ZN8UnitTest11CurrentTest7ResultsEv@PLT
 2088      00
 2089 0c08 488B00   		movq	(%rax), %rax
 2090 0c0b 488D9590 		leaq	-2160(%rbp), %rdx
 2090      F7FFFF
 2091 0c12 488D8DB0 		leaq	-2128(%rbp), %rcx
 2091      F7FFFF
 2092 0c19 488DB90C 		leaq	524(%rcx), %rdi
 2092      020000
 2093 0c20 488DB56C 		leaq	-2196(%rbp), %rsi
 2093      F7FFFF
 2094 0c27 4889D1   		movq	%rdx, %rcx
 2095 0c2a 4889FA   		movq	%rdi, %rdx
 2096 0c2d 4889C7   		movq	%rax, %rdi
 2097 0c30 E8000000 		call	_ZN8UnitTest10CheckEqualIiiEEvRNS_11TestResultsERKT_RKT0_RKNS_11TestDetailsE
 2097      00
 2098              	.LEHE42:
 2099              	.L79:
 2100              	.LEHB43:
  76:TestTestResults.cpp ****     CHECK_EQUAL ("filename", reporter.lastFailedFile);
 2101              		.loc 5 76 5 is_stmt 1
 2102 0c35 E8000000 		call	_ZN8UnitTest11CurrentTest7DetailsEv@PLT
 2102      00
 2103 0c3a 488B08   		movq	(%rax), %rcx
 2104 0c3d 488D8590 		leaq	-2160(%rbp), %rax
 2104      F7FFFF
 2105 0c44 BA4C0000 		movl	$76, %edx
 2105      00
 2106 0c49 4889CE   		movq	%rcx, %rsi
 2107 0c4c 4889C7   		movq	%rax, %rdi
 2108 0c4f E8000000 		call	_ZN8UnitTest11TestDetailsC1ERKS0_i@PLT
 2108      00
 2109              		.loc 5 76 5 is_stmt 0 discriminator 4
 2110 0c54 E8000000 		call	_ZN8UnitTest11CurrentTest7ResultsEv@PLT
 2110      00
 2111 0c59 488B00   		movq	(%rax), %rax
 2112 0c5c 488D9590 		leaq	-2160(%rbp), %rdx
 2112      F7FFFF
 2113 0c63 488D8DB0 		leaq	-2128(%rbp), %rcx
 2113      F7FFFF
 2114 0c6a 488DB110 		leaq	528(%rcx), %rsi
 2114      020000
 2115 0c71 4889D1   		movq	%rdx, %rcx
 2116 0c74 4889F2   		movq	%rsi, %rdx
 2117 0c77 488D3500 		leaq	.LC22(%rip), %rsi
 2117      000000
 2118 0c7e 4889C7   		movq	%rax, %rdi
 2119 0c81 E8000000 		call	_ZN8UnitTest10CheckEqualERNS_11TestResultsEPKcPcRKNS_11TestDetailsE@PLT
 2119      00
 2120              	.LEHE43:
 2121              	.L83:
 2122              	.LEHB44:
  77:TestTestResults.cpp ****     CHECK_EQUAL (123, reporter.lastFailedLine);
 2123              		.loc 5 77 5 is_stmt 1
 2124 0c86 E8000000 		call	_ZN8UnitTest11CurrentTest7DetailsEv@PLT
 2124      00
 2125 0c8b 488B08   		movq	(%rax), %rcx
 2126 0c8e 488D8590 		leaq	-2160(%rbp), %rax
 2126      F7FFFF
 2127 0c95 BA4D0000 		movl	$77, %edx
 2127      00
 2128 0c9a 4889CE   		movq	%rcx, %rsi
 2129 0c9d 4889C7   		movq	%rax, %rdi
 2130 0ca0 E8000000 		call	_ZN8UnitTest11TestDetailsC1ERKS0_i@PLT
 2130      00
 2131              		.loc 5 77 5 is_stmt 0 discriminator 4
 2132 0ca5 C7856CF7 		movl	$123, -2196(%rbp)
 2132      FFFF7B00 
 2132      0000
 2133 0caf E8000000 		call	_ZN8UnitTest11CurrentTest7ResultsEv@PLT
 2133      00
 2134 0cb4 488B00   		movq	(%rax), %rax
 2135 0cb7 488D9590 		leaq	-2160(%rbp), %rdx
 2135      F7FFFF
 2136 0cbe 488D8DB0 		leaq	-2128(%rbp), %rcx
 2136      F7FFFF
 2137 0cc5 488DB910 		leaq	784(%rcx), %rdi
 2137      030000
 2138 0ccc 488DB56C 		leaq	-2196(%rbp), %rsi
 2138      F7FFFF
 2139 0cd3 4889D1   		movq	%rdx, %rcx
 2140 0cd6 4889FA   		movq	%rdi, %rdx
 2141 0cd9 4889C7   		movq	%rax, %rdi
 2142 0cdc E8000000 		call	_ZN8UnitTest10CheckEqualIiiEEvRNS_11TestResultsERKT_RKT0_RKNS_11TestDetailsE
 2142      00
 2143              	.LEHE44:
 2144              	.L86:
 2145              	.LEHB45:
  78:TestTestResults.cpp ****     CHECK_EQUAL ("suitename", reporter.lastFailedSuite);
 2146              		.loc 5 78 5 is_stmt 1
 2147 0ce1 E8000000 		call	_ZN8UnitTest11CurrentTest7DetailsEv@PLT
 2147      00
 2148 0ce6 488B08   		movq	(%rax), %rcx
 2149 0ce9 488D8590 		leaq	-2160(%rbp), %rax
 2149      F7FFFF
 2150 0cf0 BA4E0000 		movl	$78, %edx
 2150      00
 2151 0cf5 4889CE   		movq	%rcx, %rsi
 2152 0cf8 4889C7   		movq	%rax, %rdi
 2153 0cfb E8000000 		call	_ZN8UnitTest11TestDetailsC1ERKS0_i@PLT
 2153      00
 2154              		.loc 5 78 5 is_stmt 0 discriminator 4
 2155 0d00 E8000000 		call	_ZN8UnitTest11CurrentTest7ResultsEv@PLT
 2155      00
 2156 0d05 488B00   		movq	(%rax), %rax
 2157 0d08 488D9590 		leaq	-2160(%rbp), %rdx
 2157      F7FFFF
 2158 0d0f 488D8DB0 		leaq	-2128(%rbp), %rcx
 2158      F7FFFF
 2159 0d16 488DB114 		leaq	788(%rcx), %rsi
 2159      030000
 2160 0d1d 4889D1   		movq	%rdx, %rcx
 2161 0d20 4889F2   		movq	%rsi, %rdx
 2162 0d23 488D3500 		leaq	.LC15(%rip), %rsi
 2162      000000
 2163 0d2a 4889C7   		movq	%rax, %rdi
 2164 0d2d E8000000 		call	_ZN8UnitTest10CheckEqualERNS_11TestResultsEPKcPcRKNS_11TestDetailsE@PLT
 2164      00
 2165              	.LEHE45:
 2166              	.L89:
 2167              	.LEHB46:
  79:TestTestResults.cpp ****     CHECK_EQUAL ("testname", reporter.lastFailedTest);
 2168              		.loc 5 79 5 is_stmt 1
 2169 0d32 E8000000 		call	_ZN8UnitTest11CurrentTest7DetailsEv@PLT
 2169      00
 2170 0d37 488B08   		movq	(%rax), %rcx
 2171 0d3a 488D8590 		leaq	-2160(%rbp), %rax
 2171      F7FFFF
 2172 0d41 BA4F0000 		movl	$79, %edx
 2172      00
 2173 0d46 4889CE   		movq	%rcx, %rsi
 2174 0d49 4889C7   		movq	%rax, %rdi
 2175 0d4c E8000000 		call	_ZN8UnitTest11TestDetailsC1ERKS0_i@PLT
 2175      00
 2176              		.loc 5 79 5 is_stmt 0 discriminator 4
 2177 0d51 E8000000 		call	_ZN8UnitTest11CurrentTest7ResultsEv@PLT
 2177      00
 2178 0d56 488B00   		movq	(%rax), %rax
 2179 0d59 488D9590 		leaq	-2160(%rbp), %rdx
 2179      F7FFFF
 2180 0d60 488D8DB0 		leaq	-2128(%rbp), %rcx
 2180      F7FFFF
 2181 0d67 488DB114 		leaq	1044(%rcx), %rsi
 2181      040000
 2182 0d6e 4889D1   		movq	%rdx, %rcx
 2183 0d71 4889F2   		movq	%rsi, %rdx
 2184 0d74 488D3500 		leaq	.LC16(%rip), %rsi
 2184      000000
 2185 0d7b 4889C7   		movq	%rax, %rdi
 2186 0d7e E8000000 		call	_ZN8UnitTest10CheckEqualERNS_11TestResultsEPKcPcRKNS_11TestDetailsE@PLT
 2186      00
 2187              	.LEHE46:
 2188              	.L92:
 2189              	.LEHB47:
  80:TestTestResults.cpp ****     CHECK_EQUAL ("failurestring", reporter.lastFailedMessage);
 2190              		.loc 5 80 5 is_stmt 1
 2191 0d83 E8000000 		call	_ZN8UnitTest11CurrentTest7DetailsEv@PLT
 2191      00
 2192 0d88 488B08   		movq	(%rax), %rcx
 2193 0d8b 488D8590 		leaq	-2160(%rbp), %rax
 2193      F7FFFF
 2194 0d92 BA500000 		movl	$80, %edx
 2194      00
 2195 0d97 4889CE   		movq	%rcx, %rsi
 2196 0d9a 4889C7   		movq	%rax, %rdi
 2197 0d9d E8000000 		call	_ZN8UnitTest11TestDetailsC1ERKS0_i@PLT
 2197      00
 2198              		.loc 5 80 5 is_stmt 0 discriminator 4
 2199 0da2 E8000000 		call	_ZN8UnitTest11CurrentTest7ResultsEv@PLT
 2199      00
 2200 0da7 488B00   		movq	(%rax), %rax
 2201 0daa 488D9590 		leaq	-2160(%rbp), %rdx
 2201      F7FFFF
 2202 0db1 488D8DB0 		leaq	-2128(%rbp), %rcx
 2202      F7FFFF
 2203 0db8 488DB114 		leaq	1300(%rcx), %rsi
 2203      050000
 2204 0dbf 4889D1   		movq	%rdx, %rcx
 2205 0dc2 4889F2   		movq	%rsi, %rdx
 2206 0dc5 488D3500 		leaq	.LC21(%rip), %rsi
 2206      000000
 2207 0dcc 4889C7   		movq	%rax, %rdi
 2208 0dcf E8000000 		call	_ZN8UnitTest10CheckEqualERNS_11TestResultsEPKcPcRKNS_11TestDetailsE@PLT
 2208      00
 2209              	.LEHE47:
 2210              	.L95:
  81:TestTestResults.cpp **** }
 2211              		.loc 5 81 1 is_stmt 1
 2212 0dd4 488D85B0 		leaq	-2128(%rbp), %rax
 2212      F7FFFF
 2213 0ddb 4889C7   		movq	%rax, %rdi
 2214              	.LEHB48:
 2215 0dde E8000000 		call	_ZN17RecordingReporterD1Ev
 2215      00
 2216              	.LEHE48:
 2217 0de3 488B45E8 		movq	-24(%rbp), %rax
 2218 0de7 64482B04 		subq	%fs:40, %rax
 2218      25280000 
 2218      00
 2219 0df0 0F848F02 		je	.L97
 2219      0000
 2220 0df6 E9850200 		jmp	.L111
 2220      00
 2221              	.L99:
 2222 0dfb F30F1EFA 		endbr64
  75:TestTestResults.cpp ****     CHECK_EQUAL ("filename", reporter.lastFailedFile);
 2223              		.loc 5 75 5
 2224 0dff 4889C7   		movq	%rax, %rdi
 2225 0e02 E8000000 		call	__cxa_begin_catch@PLT
 2225      00
 2226              	.LEHB49:
 2227 0e07 E8000000 		call	_ZN8UnitTest11CurrentTest7ResultsEv@PLT
 2227      00
  75:TestTestResults.cpp ****     CHECK_EQUAL ("filename", reporter.lastFailedFile);
 2228              		.loc 5 75 5 is_stmt 0 discriminator 3
 2229 0e0c 488B18   		movq	(%rax), %rbx
 2230 0e0f E8000000 		call	_ZN8UnitTest11CurrentTest7DetailsEv@PLT
 2230      00
  75:TestTestResults.cpp ****     CHECK_EQUAL ("filename", reporter.lastFailedFile);
 2231              		.loc 5 75 5 discriminator 11
 2232 0e14 488B08   		movq	(%rax), %rcx
 2233 0e17 488D8590 		leaq	-2160(%rbp), %rax
 2233      F7FFFF
 2234 0e1e BA4B0000 		movl	$75, %edx
 2234      00
 2235 0e23 4889CE   		movq	%rcx, %rsi
 2236 0e26 4889C7   		movq	%rax, %rdi
 2237 0e29 E8000000 		call	_ZN8UnitTest11TestDetailsC1ERKS0_i@PLT
 2237      00
  75:TestTestResults.cpp ****     CHECK_EQUAL ("filename", reporter.lastFailedFile);
 2238              		.loc 5 75 5 discriminator 15
 2239 0e2e 488D8590 		leaq	-2160(%rbp), %rax
 2239      F7FFFF
 2240 0e35 488D1500 		leaq	.LC23(%rip), %rdx
 2240      000000
 2241 0e3c 4889C6   		movq	%rax, %rsi
 2242 0e3f 4889DF   		movq	%rbx, %rdi
 2243 0e42 E8000000 		call	_ZN8UnitTest11TestResults13OnTestFailureERKNS_11TestDetailsEPKc@PLT
 2243      00
 2244              	.LEHE49:
 2245              	.LEHB50:
  75:TestTestResults.cpp ****     CHECK_EQUAL ("filename", reporter.lastFailedFile);
 2246              		.loc 5 75 5 discriminator 17
 2247 0e47 E8000000 		call	__cxa_end_catch@PLT
 2247      00
 2248              	.LEHE50:
  75:TestTestResults.cpp ****     CHECK_EQUAL ("filename", reporter.lastFailedFile);
 2249              		.loc 5 75 5
 2250 0e4c E9E4FDFF 		jmp	.L79
 2250      FF
 2251              	.L100:
 2252 0e51 F30F1EFA 		endbr64
 2253 0e55 4889C3   		movq	%rax, %rbx
 2254 0e58 E8000000 		call	__cxa_end_catch@PLT
 2254      00
 2255 0e5d E9040200 		jmp	.L81
 2255      00
 2256              	.L101:
 2257 0e62 F30F1EFA 		endbr64
  76:TestTestResults.cpp ****     CHECK_EQUAL (123, reporter.lastFailedLine);
 2258              		.loc 5 76 5 is_stmt 1
 2259 0e66 4889C7   		movq	%rax, %rdi
 2260 0e69 E8000000 		call	__cxa_begin_catch@PLT
 2260      00
 2261              	.LEHB51:
 2262 0e6e E8000000 		call	_ZN8UnitTest11CurrentTest7ResultsEv@PLT
 2262      00
  76:TestTestResults.cpp ****     CHECK_EQUAL (123, reporter.lastFailedLine);
 2263              		.loc 5 76 5 is_stmt 0 discriminator 3
 2264 0e73 488B18   		movq	(%rax), %rbx
 2265 0e76 E8000000 		call	_ZN8UnitTest11CurrentTest7DetailsEv@PLT
 2265      00
  76:TestTestResults.cpp ****     CHECK_EQUAL (123, reporter.lastFailedLine);
 2266              		.loc 5 76 5 discriminator 11
 2267 0e7b 488B08   		movq	(%rax), %rcx
 2268 0e7e 488D8590 		leaq	-2160(%rbp), %rax
 2268      F7FFFF
 2269 0e85 BA4C0000 		movl	$76, %edx
 2269      00
 2270 0e8a 4889CE   		movq	%rcx, %rsi
 2271 0e8d 4889C7   		movq	%rax, %rdi
 2272 0e90 E8000000 		call	_ZN8UnitTest11TestDetailsC1ERKS0_i@PLT
 2272      00
  76:TestTestResults.cpp ****     CHECK_EQUAL (123, reporter.lastFailedLine);
 2273              		.loc 5 76 5 discriminator 15
 2274 0e95 488D8590 		leaq	-2160(%rbp), %rax
 2274      F7FFFF
 2275 0e9c 488D1500 		leaq	.LC24(%rip), %rdx
 2275      000000
 2276 0ea3 4889C6   		movq	%rax, %rsi
 2277 0ea6 4889DF   		movq	%rbx, %rdi
 2278 0ea9 E8000000 		call	_ZN8UnitTest11TestResults13OnTestFailureERKNS_11TestDetailsEPKc@PLT
 2278      00
 2279              	.LEHE51:
 2280              	.LEHB52:
  76:TestTestResults.cpp ****     CHECK_EQUAL (123, reporter.lastFailedLine);
 2281              		.loc 5 76 5 discriminator 17
 2282 0eae E8000000 		call	__cxa_end_catch@PLT
 2282      00
 2283              	.LEHE52:
  76:TestTestResults.cpp ****     CHECK_EQUAL (123, reporter.lastFailedLine);
 2284              		.loc 5 76 5
 2285 0eb3 E9CEFDFF 		jmp	.L83
 2285      FF
 2286              	.L102:
 2287 0eb8 F30F1EFA 		endbr64
 2288 0ebc 4889C3   		movq	%rax, %rbx
 2289 0ebf E8000000 		call	__cxa_end_catch@PLT
 2289      00
 2290 0ec4 E99D0100 		jmp	.L81
 2290      00
 2291              	.L103:
 2292 0ec9 F30F1EFA 		endbr64
  77:TestTestResults.cpp ****     CHECK_EQUAL ("suitename", reporter.lastFailedSuite);
 2293              		.loc 5 77 5 is_stmt 1
 2294 0ecd 4889C7   		movq	%rax, %rdi
 2295 0ed0 E8000000 		call	__cxa_begin_catch@PLT
 2295      00
 2296              	.LEHB53:
 2297 0ed5 E8000000 		call	_ZN8UnitTest11CurrentTest7ResultsEv@PLT
 2297      00
  77:TestTestResults.cpp ****     CHECK_EQUAL ("suitename", reporter.lastFailedSuite);
 2298              		.loc 5 77 5 is_stmt 0 discriminator 3
 2299 0eda 488B18   		movq	(%rax), %rbx
 2300 0edd E8000000 		call	_ZN8UnitTest11CurrentTest7DetailsEv@PLT
 2300      00
  77:TestTestResults.cpp ****     CHECK_EQUAL ("suitename", reporter.lastFailedSuite);
 2301              		.loc 5 77 5 discriminator 11
 2302 0ee2 488B08   		movq	(%rax), %rcx
 2303 0ee5 488D8590 		leaq	-2160(%rbp), %rax
 2303      F7FFFF
 2304 0eec BA4D0000 		movl	$77, %edx
 2304      00
 2305 0ef1 4889CE   		movq	%rcx, %rsi
 2306 0ef4 4889C7   		movq	%rax, %rdi
 2307 0ef7 E8000000 		call	_ZN8UnitTest11TestDetailsC1ERKS0_i@PLT
 2307      00
  77:TestTestResults.cpp ****     CHECK_EQUAL ("suitename", reporter.lastFailedSuite);
 2308              		.loc 5 77 5 discriminator 15
 2309 0efc 488D8590 		leaq	-2160(%rbp), %rax
 2309      F7FFFF
 2310 0f03 488D1500 		leaq	.LC25(%rip), %rdx
 2310      000000
 2311 0f0a 4889C6   		movq	%rax, %rsi
 2312 0f0d 4889DF   		movq	%rbx, %rdi
 2313 0f10 E8000000 		call	_ZN8UnitTest11TestResults13OnTestFailureERKNS_11TestDetailsEPKc@PLT
 2313      00
 2314              	.LEHE53:
 2315              	.LEHB54:
  77:TestTestResults.cpp ****     CHECK_EQUAL ("suitename", reporter.lastFailedSuite);
 2316              		.loc 5 77 5 discriminator 17
 2317 0f15 E8000000 		call	__cxa_end_catch@PLT
 2317      00
 2318              	.LEHE54:
  77:TestTestResults.cpp ****     CHECK_EQUAL ("suitename", reporter.lastFailedSuite);
 2319              		.loc 5 77 5
 2320 0f1a E9C2FDFF 		jmp	.L86
 2320      FF
 2321              	.L104:
 2322 0f1f F30F1EFA 		endbr64
 2323 0f23 4889C3   		movq	%rax, %rbx
 2324 0f26 E8000000 		call	__cxa_end_catch@PLT
 2324      00
 2325 0f2b E9360100 		jmp	.L81
 2325      00
 2326              	.L105:
 2327 0f30 F30F1EFA 		endbr64
  78:TestTestResults.cpp ****     CHECK_EQUAL ("testname", reporter.lastFailedTest);
 2328              		.loc 5 78 5 is_stmt 1
 2329 0f34 4889C7   		movq	%rax, %rdi
 2330 0f37 E8000000 		call	__cxa_begin_catch@PLT
 2330      00
 2331              	.LEHB55:
 2332 0f3c E8000000 		call	_ZN8UnitTest11CurrentTest7ResultsEv@PLT
 2332      00
  78:TestTestResults.cpp ****     CHECK_EQUAL ("testname", reporter.lastFailedTest);
 2333              		.loc 5 78 5 is_stmt 0 discriminator 3
 2334 0f41 488B18   		movq	(%rax), %rbx
 2335 0f44 E8000000 		call	_ZN8UnitTest11CurrentTest7DetailsEv@PLT
 2335      00
  78:TestTestResults.cpp ****     CHECK_EQUAL ("testname", reporter.lastFailedTest);
 2336              		.loc 5 78 5 discriminator 11
 2337 0f49 488B08   		movq	(%rax), %rcx
 2338 0f4c 488D8590 		leaq	-2160(%rbp), %rax
 2338      F7FFFF
 2339 0f53 BA4E0000 		movl	$78, %edx
 2339      00
 2340 0f58 4889CE   		movq	%rcx, %rsi
 2341 0f5b 4889C7   		movq	%rax, %rdi
 2342 0f5e E8000000 		call	_ZN8UnitTest11TestDetailsC1ERKS0_i@PLT
 2342      00
  78:TestTestResults.cpp ****     CHECK_EQUAL ("testname", reporter.lastFailedTest);
 2343              		.loc 5 78 5 discriminator 15
 2344 0f63 488D8590 		leaq	-2160(%rbp), %rax
 2344      F7FFFF
 2345 0f6a 488D1500 		leaq	.LC26(%rip), %rdx
 2345      000000
 2346 0f71 4889C6   		movq	%rax, %rsi
 2347 0f74 4889DF   		movq	%rbx, %rdi
 2348 0f77 E8000000 		call	_ZN8UnitTest11TestResults13OnTestFailureERKNS_11TestDetailsEPKc@PLT
 2348      00
 2349              	.LEHE55:
 2350              	.LEHB56:
  78:TestTestResults.cpp ****     CHECK_EQUAL ("testname", reporter.lastFailedTest);
 2351              		.loc 5 78 5 discriminator 17
 2352 0f7c E8000000 		call	__cxa_end_catch@PLT
 2352      00
 2353              	.LEHE56:
  78:TestTestResults.cpp ****     CHECK_EQUAL ("testname", reporter.lastFailedTest);
 2354              		.loc 5 78 5
 2355 0f81 E9ACFDFF 		jmp	.L89
 2355      FF
 2356              	.L106:
 2357 0f86 F30F1EFA 		endbr64
 2358 0f8a 4889C3   		movq	%rax, %rbx
 2359 0f8d E8000000 		call	__cxa_end_catch@PLT
 2359      00
 2360 0f92 E9CF0000 		jmp	.L81
 2360      00
 2361              	.L107:
 2362 0f97 F30F1EFA 		endbr64
  79:TestTestResults.cpp ****     CHECK_EQUAL ("failurestring", reporter.lastFailedMessage);
 2363              		.loc 5 79 5 is_stmt 1
 2364 0f9b 4889C7   		movq	%rax, %rdi
 2365 0f9e E8000000 		call	__cxa_begin_catch@PLT
 2365      00
 2366              	.LEHB57:
 2367 0fa3 E8000000 		call	_ZN8UnitTest11CurrentTest7ResultsEv@PLT
 2367      00
  79:TestTestResults.cpp ****     CHECK_EQUAL ("failurestring", reporter.lastFailedMessage);
 2368              		.loc 5 79 5 is_stmt 0 discriminator 3
 2369 0fa8 488B18   		movq	(%rax), %rbx
 2370 0fab E8000000 		call	_ZN8UnitTest11CurrentTest7DetailsEv@PLT
 2370      00
  79:TestTestResults.cpp ****     CHECK_EQUAL ("failurestring", reporter.lastFailedMessage);
 2371              		.loc 5 79 5 discriminator 11
 2372 0fb0 488B08   		movq	(%rax), %rcx
 2373 0fb3 488D8590 		leaq	-2160(%rbp), %rax
 2373      F7FFFF
 2374 0fba BA4F0000 		movl	$79, %edx
 2374      00
 2375 0fbf 4889CE   		movq	%rcx, %rsi
 2376 0fc2 4889C7   		movq	%rax, %rdi
 2377 0fc5 E8000000 		call	_ZN8UnitTest11TestDetailsC1ERKS0_i@PLT
 2377      00
  79:TestTestResults.cpp ****     CHECK_EQUAL ("failurestring", reporter.lastFailedMessage);
 2378              		.loc 5 79 5 discriminator 15
 2379 0fca 488D8590 		leaq	-2160(%rbp), %rax
 2379      F7FFFF
 2380 0fd1 488D1500 		leaq	.LC27(%rip), %rdx
 2380      000000
 2381 0fd8 4889C6   		movq	%rax, %rsi
 2382 0fdb 4889DF   		movq	%rbx, %rdi
 2383 0fde E8000000 		call	_ZN8UnitTest11TestResults13OnTestFailureERKNS_11TestDetailsEPKc@PLT
 2383      00
 2384              	.LEHE57:
 2385              	.LEHB58:
  79:TestTestResults.cpp ****     CHECK_EQUAL ("failurestring", reporter.lastFailedMessage);
 2386              		.loc 5 79 5 discriminator 17
 2387 0fe3 E8000000 		call	__cxa_end_catch@PLT
 2387      00
 2388              	.LEHE58:
  79:TestTestResults.cpp ****     CHECK_EQUAL ("failurestring", reporter.lastFailedMessage);
 2389              		.loc 5 79 5
 2390 0fe8 E996FDFF 		jmp	.L92
 2390      FF
 2391              	.L108:
 2392 0fed F30F1EFA 		endbr64
 2393 0ff1 4889C3   		movq	%rax, %rbx
 2394 0ff4 E8000000 		call	__cxa_end_catch@PLT
 2394      00
 2395 0ff9 EB6B     		jmp	.L81
 2396              	.L109:
 2397 0ffb F30F1EFA 		endbr64
  80:TestTestResults.cpp **** }
 2398              		.loc 5 80 5 is_stmt 1
 2399 0fff 4889C7   		movq	%rax, %rdi
 2400 1002 E8000000 		call	__cxa_begin_catch@PLT
 2400      00
 2401              	.LEHB59:
 2402 1007 E8000000 		call	_ZN8UnitTest11CurrentTest7ResultsEv@PLT
 2402      00
  80:TestTestResults.cpp **** }
 2403              		.loc 5 80 5 is_stmt 0 discriminator 3
 2404 100c 488B18   		movq	(%rax), %rbx
 2405 100f E8000000 		call	_ZN8UnitTest11CurrentTest7DetailsEv@PLT
 2405      00
  80:TestTestResults.cpp **** }
 2406              		.loc 5 80 5 discriminator 11
 2407 1014 488B08   		movq	(%rax), %rcx
 2408 1017 488D8590 		leaq	-2160(%rbp), %rax
 2408      F7FFFF
 2409 101e BA500000 		movl	$80, %edx
 2409      00
 2410 1023 4889CE   		movq	%rcx, %rsi
 2411 1026 4889C7   		movq	%rax, %rdi
 2412 1029 E8000000 		call	_ZN8UnitTest11TestDetailsC1ERKS0_i@PLT
 2412      00
  80:TestTestResults.cpp **** }
 2413              		.loc 5 80 5 discriminator 15
 2414 102e 488D8590 		leaq	-2160(%rbp), %rax
 2414      F7FFFF
 2415 1035 488D1500 		leaq	.LC28(%rip), %rdx
 2415      000000
 2416 103c 4889C6   		movq	%rax, %rsi
 2417 103f 4889DF   		movq	%rbx, %rdi
 2418 1042 E8000000 		call	_ZN8UnitTest11TestResults13OnTestFailureERKNS_11TestDetailsEPKc@PLT
 2418      00
 2419              	.LEHE59:
 2420              	.LEHB60:
  80:TestTestResults.cpp **** }
 2421              		.loc 5 80 5 discriminator 17
 2422 1047 E8000000 		call	__cxa_end_catch@PLT
 2422      00
 2423              	.LEHE60:
  80:TestTestResults.cpp **** }
 2424              		.loc 5 80 5
 2425 104c E983FDFF 		jmp	.L95
 2425      FF
 2426              	.L110:
 2427 1051 F30F1EFA 		endbr64
 2428 1055 4889C3   		movq	%rax, %rbx
 2429 1058 E8000000 		call	__cxa_end_catch@PLT
 2429      00
 2430 105d EB07     		jmp	.L81
 2431              	.L98:
 2432 105f F30F1EFA 		endbr64
 2433              		.loc 5 81 1 is_stmt 1
 2434 1063 4889C3   		movq	%rax, %rbx
 2435              	.L81:
 2436 1066 488D85B0 		leaq	-2128(%rbp), %rax
 2436      F7FFFF
 2437 106d 4889C7   		movq	%rax, %rdi
 2438 1070 E8000000 		call	_ZN17RecordingReporterD1Ev
 2438      00
 2439 1075 4889D8   		movq	%rbx, %rax
 2440 1078 4889C7   		movq	%rax, %rdi
 2441              	.LEHB61:
 2442 107b E8000000 		call	_Unwind_Resume@PLT
 2442      00
 2443              	.LEHE61:
 2444              	.L111:
 2445 1080 E8000000 		call	__stack_chk_fail@PLT
 2445      00
 2446              	.L97:
 2447 1085 488B5DF8 		movq	-8(%rbp), %rbx
 2448 1089 C9       		leave
 2449              		.cfi_def_cfa 7, 8
 2450 108a C3       		ret
 2451              		.cfi_endproc
 2452              	.LFE1178:
 2453              		.section	.gcc_except_table
 2454              		.align 4
 2455              	.LLSDA1178:
 2456 0108 FF       		.byte	0xff
 2457 0109 9B       		.byte	0x9b
 2458 010a 8401     		.uleb128 .LLSDATT1178-.LLSDATTD1178
 2459              	.LLSDATTD1178:
 2460 010c 01       		.byte	0x1
 2461 010d 7A       		.uleb128 .LLSDACSE1178-.LLSDACSB1178
 2462              	.LLSDACSB1178:
 2463 010e 49       		.uleb128 .LEHB41-.LFB1178
 2464 010f 25       		.uleb128 .LEHE41-.LEHB41
 2465 0110 F309     		.uleb128 .L98-.LFB1178
 2466 0112 00       		.uleb128 0
 2467 0113 6E       		.uleb128 .LEHB42-.LFB1178
 2468 0114 5B       		.uleb128 .LEHE42-.LEHB42
 2469 0115 8F05     		.uleb128 .L99-.LFB1178
 2470 0117 01       		.uleb128 0x1
 2471 0118 C901     		.uleb128 .LEHB43-.LFB1178
 2472 011a 51       		.uleb128 .LEHE43-.LEHB43
 2473 011b F605     		.uleb128 .L101-.LFB1178
 2474 011d 01       		.uleb128 0x1
 2475 011e 9A02     		.uleb128 .LEHB44-.LFB1178
 2476 0120 5B       		.uleb128 .LEHE44-.LEHB44
 2477 0121 DD06     		.uleb128 .L103-.LFB1178
 2478 0123 01       		.uleb128 0x1
 2479 0124 F502     		.uleb128 .LEHB45-.LFB1178
 2480 0126 51       		.uleb128 .LEHE45-.LEHB45
 2481 0127 C407     		.uleb128 .L105-.LFB1178
 2482 0129 01       		.uleb128 0x1
 2483 012a C603     		.uleb128 .LEHB46-.LFB1178
 2484 012c 51       		.uleb128 .LEHE46-.LEHB46
 2485 012d AB08     		.uleb128 .L107-.LFB1178
 2486 012f 01       		.uleb128 0x1
 2487 0130 9704     		.uleb128 .LEHB47-.LFB1178
 2488 0132 51       		.uleb128 .LEHE47-.LEHB47
 2489 0133 8F09     		.uleb128 .L109-.LFB1178
 2490 0135 01       		.uleb128 0x1
 2491 0136 F204     		.uleb128 .LEHB48-.LFB1178
 2492 0138 05       		.uleb128 .LEHE48-.LEHB48
 2493 0139 00       		.uleb128 0
 2494 013a 00       		.uleb128 0
 2495 013b 9B05     		.uleb128 .LEHB49-.LFB1178
 2496 013d 40       		.uleb128 .LEHE49-.LEHB49
 2497 013e E505     		.uleb128 .L100-.LFB1178
 2498 0140 00       		.uleb128 0
 2499 0141 DB05     		.uleb128 .LEHB50-.LFB1178
 2500 0143 05       		.uleb128 .LEHE50-.LEHB50
 2501 0144 F309     		.uleb128 .L98-.LFB1178
 2502 0146 00       		.uleb128 0
 2503 0147 8206     		.uleb128 .LEHB51-.LFB1178
 2504 0149 40       		.uleb128 .LEHE51-.LEHB51
 2505 014a CC06     		.uleb128 .L102-.LFB1178
 2506 014c 00       		.uleb128 0
 2507 014d C206     		.uleb128 .LEHB52-.LFB1178
 2508 014f 05       		.uleb128 .LEHE52-.LEHB52
 2509 0150 F309     		.uleb128 .L98-.LFB1178
 2510 0152 00       		.uleb128 0
 2511 0153 E906     		.uleb128 .LEHB53-.LFB1178
 2512 0155 40       		.uleb128 .LEHE53-.LEHB53
 2513 0156 B307     		.uleb128 .L104-.LFB1178
 2514 0158 00       		.uleb128 0
 2515 0159 A907     		.uleb128 .LEHB54-.LFB1178
 2516 015b 05       		.uleb128 .LEHE54-.LEHB54
 2517 015c F309     		.uleb128 .L98-.LFB1178
 2518 015e 00       		.uleb128 0
 2519 015f D007     		.uleb128 .LEHB55-.LFB1178
 2520 0161 40       		.uleb128 .LEHE55-.LEHB55
 2521 0162 9A08     		.uleb128 .L106-.LFB1178
 2522 0164 00       		.uleb128 0
 2523 0165 9008     		.uleb128 .LEHB56-.LFB1178
 2524 0167 05       		.uleb128 .LEHE56-.LEHB56
 2525 0168 F309     		.uleb128 .L98-.LFB1178
 2526 016a 00       		.uleb128 0
 2527 016b B708     		.uleb128 .LEHB57-.LFB1178
 2528 016d 40       		.uleb128 .LEHE57-.LEHB57
 2529 016e 8109     		.uleb128 .L108-.LFB1178
 2530 0170 00       		.uleb128 0
 2531 0171 F708     		.uleb128 .LEHB58-.LFB1178
 2532 0173 05       		.uleb128 .LEHE58-.LEHB58
 2533 0174 F309     		.uleb128 .L98-.LFB1178
 2534 0176 00       		.uleb128 0
 2535 0177 9B09     		.uleb128 .LEHB59-.LFB1178
 2536 0179 40       		.uleb128 .LEHE59-.LEHB59
 2537 017a E509     		.uleb128 .L110-.LFB1178
 2538 017c 00       		.uleb128 0
 2539 017d DB09     		.uleb128 .LEHB60-.LFB1178
 2540 017f 05       		.uleb128 .LEHE60-.LEHB60
 2541 0180 F309     		.uleb128 .L98-.LFB1178
 2542 0182 00       		.uleb128 0
 2543 0183 8F0A     		.uleb128 .LEHB61-.LFB1178
 2544 0185 05       		.uleb128 .LEHE61-.LEHB61
 2545 0186 00       		.uleb128 0
 2546 0187 00       		.uleb128 0
 2547              	.LLSDACSE1178:
 2548 0188 01       		.byte	0x1
 2549 0189 00       		.byte	0
 2550 018a 0000     		.align 4
 2551 018c 00000000 		.long	0
 2552              	
 2553              	.LLSDATT1178:
 2554              		.text
 2556              		.section	.rodata
 2557              		.align 8
 2558              	.LC29:
 2559 0520 4E6F7469 		.string	"NotifiesReporterOfCheckFailureWithCorrectInfo"
 2559      66696573 
 2559      5265706F 
 2559      72746572 
 2559      4F664368 
 2560              		.text
 2561 108b 90       		.align 2
 2563              	_ZN12_GLOBAL__N_149TestNotifiesReporterOfCheckFailureWithCorrectInfoC2Ev:
 2564              	.LFB1180:
  82:TestTestResults.cpp **** 
  83:TestTestResults.cpp **** TEST(NotifiesReporterOfCheckFailureWithCorrectInfo)
 2565              		.loc 5 83 1
 2566              		.cfi_startproc
 2567 108c 55       		pushq	%rbp
 2568              		.cfi_def_cfa_offset 16
 2569              		.cfi_offset 6, -16
 2570 108d 4889E5   		movq	%rsp, %rbp
 2571              		.cfi_def_cfa_register 6
 2572 1090 53       		pushq	%rbx
 2573 1091 4883EC18 		subq	$24, %rsp
 2574              		.cfi_offset 3, -24
 2575 1095 48897DE8 		movq	%rdi, -24(%rbp)
 2576              	.LBB13:
 2577              		.loc 5 83 1
 2578 1099 488B5DE8 		movq	-24(%rbp), %rbx
 2579 109d E8000000 		call	_ZN13UnitTestSuite12GetSuiteNameEv
 2579      00
 2580 10a2 4889C2   		movq	%rax, %rdx
 2581 10a5 41B85300 		movl	$83, %r8d
 2581      0000
 2582 10ab 488D0500 		leaq	.LC2(%rip), %rax
 2582      000000
 2583 10b2 4889C1   		movq	%rax, %rcx
 2584 10b5 488D0500 		leaq	.LC29(%rip), %rax
 2584      000000
 2585 10bc 4889C6   		movq	%rax, %rsi
 2586 10bf 4889DF   		movq	%rbx, %rdi
 2587 10c2 E8000000 		call	_ZN8UnitTest4TestC2EPKcS2_S2_i@PLT
 2587      00
 2588 10c7 488D1500 		leaq	16+_ZTVN12_GLOBAL__N_149TestNotifiesReporterOfCheckFailureWithCorrectInfoE(%rip), %rdx
 2588      000000
 2589 10ce 488B45E8 		movq	-24(%rbp), %rax
 2590 10d2 488910   		movq	%rdx, (%rax)
 2591              	.LBE13:
 2592 10d5 90       		nop
 2593 10d6 488B5DF8 		movq	-8(%rbp), %rbx
 2594 10da C9       		leave
 2595              		.cfi_def_cfa 7, 8
 2596 10db C3       		ret
 2597              		.cfi_endproc
 2598              	.LFE1180:
 2600              		.set	_ZN12_GLOBAL__N_149TestNotifiesReporterOfCheckFailureWithCorrectInfoC1Ev,_ZN12_GLOBAL__N_149T
 2601              		.local	_ZN12_GLOBAL__N_157testNotifiesReporterOfCheckFailureWithCorrectInfoInstanceE
 2602              		.comm	_ZN12_GLOBAL__N_157testNotifiesReporterOfCheckFailureWithCorrectInfoInstanceE,56,32
 2603              		.local	_ZN12_GLOBAL__N_150adderNotifiesReporterOfCheckFailureWithCorrectInfoE
 2604              		.comm	_ZN12_GLOBAL__N_150adderNotifiesReporterOfCheckFailureWithCorrectInfoE,1,1
 2605              		.align 2
 2607              	_ZNK12_GLOBAL__N_149TestNotifiesReporterOfCheckFailureWithCorrectInfo7RunImplEv:
 2608              	.LFB1182:
  84:TestTestResults.cpp **** {
 2609              		.loc 5 84 1
 2610              		.cfi_startproc
 2611              		.cfi_personality 0x9b,DW.ref.__gxx_personality_v0
 2612              		.cfi_lsda 0x1b,.LLSDA1182
 2613 10dc F30F1EFA 		endbr64
 2614 10e0 55       		pushq	%rbp
 2615              		.cfi_def_cfa_offset 16
 2616              		.cfi_offset 6, -16
 2617 10e1 4889E5   		movq	%rsp, %rbp
 2618              		.cfi_def_cfa_register 6
 2619 10e4 53       		pushq	%rbx
 2620 10e5 4881ECA8 		subq	$2216, %rsp
 2620      080000
 2621              		.cfi_offset 3, -24
 2622 10ec 4889BD58 		movq	%rdi, -2216(%rbp)
 2622      F7FFFF
 2623              		.loc 5 84 1
 2624 10f3 64488B04 		movq	%fs:40, %rax
 2624      25280000 
 2624      00
 2625 10fc 488945E8 		movq	%rax, -24(%rbp)
 2626 1100 31C0     		xorl	%eax, %eax
  85:TestTestResults.cpp ****     RecordingReporter reporter;
 2627              		.loc 5 85 23
 2628 1102 488D85B0 		leaq	-2128(%rbp), %rax
 2628      F7FFFF
 2629 1109 4889C7   		movq	%rax, %rdi
 2630 110c E8000000 		call	_ZN17RecordingReporterC1Ev
 2630      00
  86:TestTestResults.cpp ****     TestResults results(&reporter);
 2631              		.loc 5 86 34
 2632 1111 488D95B0 		leaq	-2128(%rbp), %rdx
 2632      F7FFFF
 2633 1118 488D8570 		leaq	-2192(%rbp), %rax
 2633      F7FFFF
 2634 111f 4889D6   		movq	%rdx, %rsi
 2635 1122 4889C7   		movq	%rax, %rdi
 2636              	.LEHB62:
 2637 1125 E8000000 		call	_ZN8UnitTest11TestResultsC1EPNS_12TestReporterE@PLT
 2637      00
  87:TestTestResults.cpp **** 
  88:TestTestResults.cpp ****     results.OnTestFailure(details, "failurestring");
 2638              		.loc 5 88 26
 2639 112a 488D8570 		leaq	-2192(%rbp), %rax
 2639      F7FFFF
 2640 1131 488D1500 		leaq	.LC21(%rip), %rdx
 2640      000000
 2641 1138 488D0D00 		leaq	_ZN12_GLOBAL__N_1L7detailsE(%rip), %rcx
 2641      000000
 2642 113f 4889CE   		movq	%rcx, %rsi
 2643 1142 4889C7   		movq	%rax, %rdi
 2644 1145 E8000000 		call	_ZN8UnitTest11TestResults13OnTestFailureERKNS_11TestDetailsEPKc@PLT
 2644      00
 2645              	.LEHE62:
 2646              	.LEHB63:
  89:TestTestResults.cpp ****     CHECK_EQUAL (1, reporter.testFailedCount);
 2647              		.loc 5 89 5
 2648 114a E8000000 		call	_ZN8UnitTest11CurrentTest7DetailsEv@PLT
 2648      00
 2649 114f 488B08   		movq	(%rax), %rcx
 2650 1152 488D8590 		leaq	-2160(%rbp), %rax
 2650      F7FFFF
 2651 1159 BA590000 		movl	$89, %edx
 2651      00
 2652 115e 4889CE   		movq	%rcx, %rsi
 2653 1161 4889C7   		movq	%rax, %rdi
 2654 1164 E8000000 		call	_ZN8UnitTest11TestDetailsC1ERKS0_i@PLT
 2654      00
 2655              		.loc 5 89 5 is_stmt 0 discriminator 4
 2656 1169 C7856CF7 		movl	$1, -2196(%rbp)
 2656      FFFF0100 
 2656      0000
 2657 1173 E8000000 		call	_ZN8UnitTest11CurrentTest7ResultsEv@PLT
 2657      00
 2658 1178 488B00   		movq	(%rax), %rax
 2659 117b 488D9590 		leaq	-2160(%rbp), %rdx
 2659      F7FFFF
 2660 1182 488D8DB0 		leaq	-2128(%rbp), %rcx
 2660      F7FFFF
 2661 1189 488DB90C 		leaq	524(%rcx), %rdi
 2661      020000
 2662 1190 488DB56C 		leaq	-2196(%rbp), %rsi
 2662      F7FFFF
 2663 1197 4889D1   		movq	%rdx, %rcx
 2664 119a 4889FA   		movq	%rdi, %rdx
 2665 119d 4889C7   		movq	%rax, %rdi
 2666 11a0 E8000000 		call	_ZN8UnitTest10CheckEqualIiiEEvRNS_11TestResultsERKT_RKT0_RKNS_11TestDetailsE
 2666      00
 2667              	.LEHE63:
 2668              	.L115:
 2669              	.LEHB64:
  90:TestTestResults.cpp **** 
  91:TestTestResults.cpp ****     CHECK_EQUAL ("filename", reporter.lastFailedFile);
 2670              		.loc 5 91 5 is_stmt 1
 2671 11a5 E8000000 		call	_ZN8UnitTest11CurrentTest7DetailsEv@PLT
 2671      00
 2672 11aa 488B08   		movq	(%rax), %rcx
 2673 11ad 488D8590 		leaq	-2160(%rbp), %rax
 2673      F7FFFF
 2674 11b4 BA5B0000 		movl	$91, %edx
 2674      00
 2675 11b9 4889CE   		movq	%rcx, %rsi
 2676 11bc 4889C7   		movq	%rax, %rdi
 2677 11bf E8000000 		call	_ZN8UnitTest11TestDetailsC1ERKS0_i@PLT
 2677      00
 2678              		.loc 5 91 5 is_stmt 0 discriminator 4
 2679 11c4 E8000000 		call	_ZN8UnitTest11CurrentTest7ResultsEv@PLT
 2679      00
 2680 11c9 488B00   		movq	(%rax), %rax
 2681 11cc 488D9590 		leaq	-2160(%rbp), %rdx
 2681      F7FFFF
 2682 11d3 488D8DB0 		leaq	-2128(%rbp), %rcx
 2682      F7FFFF
 2683 11da 488DB110 		leaq	528(%rcx), %rsi
 2683      020000
 2684 11e1 4889D1   		movq	%rdx, %rcx
 2685 11e4 4889F2   		movq	%rsi, %rdx
 2686 11e7 488D3500 		leaq	.LC22(%rip), %rsi
 2686      000000
 2687 11ee 4889C7   		movq	%rax, %rdi
 2688 11f1 E8000000 		call	_ZN8UnitTest10CheckEqualERNS_11TestResultsEPKcPcRKNS_11TestDetailsE@PLT
 2688      00
 2689              	.LEHE64:
 2690              	.L119:
 2691              	.LEHB65:
  92:TestTestResults.cpp ****     CHECK_EQUAL (123, reporter.lastFailedLine);
 2692              		.loc 5 92 5 is_stmt 1
 2693 11f6 E8000000 		call	_ZN8UnitTest11CurrentTest7DetailsEv@PLT
 2693      00
 2694 11fb 488B08   		movq	(%rax), %rcx
 2695 11fe 488D8590 		leaq	-2160(%rbp), %rax
 2695      F7FFFF
 2696 1205 BA5C0000 		movl	$92, %edx
 2696      00
 2697 120a 4889CE   		movq	%rcx, %rsi
 2698 120d 4889C7   		movq	%rax, %rdi
 2699 1210 E8000000 		call	_ZN8UnitTest11TestDetailsC1ERKS0_i@PLT
 2699      00
 2700              		.loc 5 92 5 is_stmt 0 discriminator 4
 2701 1215 C7856CF7 		movl	$123, -2196(%rbp)
 2701      FFFF7B00 
 2701      0000
 2702 121f E8000000 		call	_ZN8UnitTest11CurrentTest7ResultsEv@PLT
 2702      00
 2703 1224 488B00   		movq	(%rax), %rax
 2704 1227 488D9590 		leaq	-2160(%rbp), %rdx
 2704      F7FFFF
 2705 122e 488D8DB0 		leaq	-2128(%rbp), %rcx
 2705      F7FFFF
 2706 1235 488DB910 		leaq	784(%rcx), %rdi
 2706      030000
 2707 123c 488DB56C 		leaq	-2196(%rbp), %rsi
 2707      F7FFFF
 2708 1243 4889D1   		movq	%rdx, %rcx
 2709 1246 4889FA   		movq	%rdi, %rdx
 2710 1249 4889C7   		movq	%rax, %rdi
 2711 124c E8000000 		call	_ZN8UnitTest10CheckEqualIiiEEvRNS_11TestResultsERKT_RKT0_RKNS_11TestDetailsE
 2711      00
 2712              	.LEHE65:
 2713              	.L122:
 2714              	.LEHB66:
  93:TestTestResults.cpp ****     CHECK_EQUAL ("testname", reporter.lastFailedTest);
 2715              		.loc 5 93 5 is_stmt 1
 2716 1251 E8000000 		call	_ZN8UnitTest11CurrentTest7DetailsEv@PLT
 2716      00
 2717 1256 488B08   		movq	(%rax), %rcx
 2718 1259 488D8590 		leaq	-2160(%rbp), %rax
 2718      F7FFFF
 2719 1260 BA5D0000 		movl	$93, %edx
 2719      00
 2720 1265 4889CE   		movq	%rcx, %rsi
 2721 1268 4889C7   		movq	%rax, %rdi
 2722 126b E8000000 		call	_ZN8UnitTest11TestDetailsC1ERKS0_i@PLT
 2722      00
 2723              		.loc 5 93 5 is_stmt 0 discriminator 4
 2724 1270 E8000000 		call	_ZN8UnitTest11CurrentTest7ResultsEv@PLT
 2724      00
 2725 1275 488B00   		movq	(%rax), %rax
 2726 1278 488D9590 		leaq	-2160(%rbp), %rdx
 2726      F7FFFF
 2727 127f 488D8DB0 		leaq	-2128(%rbp), %rcx
 2727      F7FFFF
 2728 1286 488DB114 		leaq	1044(%rcx), %rsi
 2728      040000
 2729 128d 4889D1   		movq	%rdx, %rcx
 2730 1290 4889F2   		movq	%rsi, %rdx
 2731 1293 488D3500 		leaq	.LC16(%rip), %rsi
 2731      000000
 2732 129a 4889C7   		movq	%rax, %rdi
 2733 129d E8000000 		call	_ZN8UnitTest10CheckEqualERNS_11TestResultsEPKcPcRKNS_11TestDetailsE@PLT
 2733      00
 2734              	.LEHE66:
 2735              	.L125:
 2736              	.LEHB67:
  94:TestTestResults.cpp ****     CHECK_EQUAL ("suitename", reporter.lastFailedSuite);
 2737              		.loc 5 94 5 is_stmt 1
 2738 12a2 E8000000 		call	_ZN8UnitTest11CurrentTest7DetailsEv@PLT
 2738      00
 2739 12a7 488B08   		movq	(%rax), %rcx
 2740 12aa 488D8590 		leaq	-2160(%rbp), %rax
 2740      F7FFFF
 2741 12b1 BA5E0000 		movl	$94, %edx
 2741      00
 2742 12b6 4889CE   		movq	%rcx, %rsi
 2743 12b9 4889C7   		movq	%rax, %rdi
 2744 12bc E8000000 		call	_ZN8UnitTest11TestDetailsC1ERKS0_i@PLT
 2744      00
 2745              		.loc 5 94 5 is_stmt 0 discriminator 4
 2746 12c1 E8000000 		call	_ZN8UnitTest11CurrentTest7ResultsEv@PLT
 2746      00
 2747 12c6 488B00   		movq	(%rax), %rax
 2748 12c9 488D9590 		leaq	-2160(%rbp), %rdx
 2748      F7FFFF
 2749 12d0 488D8DB0 		leaq	-2128(%rbp), %rcx
 2749      F7FFFF
 2750 12d7 488DB114 		leaq	788(%rcx), %rsi
 2750      030000
 2751 12de 4889D1   		movq	%rdx, %rcx
 2752 12e1 4889F2   		movq	%rsi, %rdx
 2753 12e4 488D3500 		leaq	.LC15(%rip), %rsi
 2753      000000
 2754 12eb 4889C7   		movq	%rax, %rdi
 2755 12ee E8000000 		call	_ZN8UnitTest10CheckEqualERNS_11TestResultsEPKcPcRKNS_11TestDetailsE@PLT
 2755      00
 2756              	.LEHE67:
 2757              	.L128:
 2758              	.LEHB68:
  95:TestTestResults.cpp ****     CHECK_EQUAL ("failurestring", reporter.lastFailedMessage);
 2759              		.loc 5 95 5 is_stmt 1
 2760 12f3 E8000000 		call	_ZN8UnitTest11CurrentTest7DetailsEv@PLT
 2760      00
 2761 12f8 488B08   		movq	(%rax), %rcx
 2762 12fb 488D8590 		leaq	-2160(%rbp), %rax
 2762      F7FFFF
 2763 1302 BA5F0000 		movl	$95, %edx
 2763      00
 2764 1307 4889CE   		movq	%rcx, %rsi
 2765 130a 4889C7   		movq	%rax, %rdi
 2766 130d E8000000 		call	_ZN8UnitTest11TestDetailsC1ERKS0_i@PLT
 2766      00
 2767              		.loc 5 95 5 is_stmt 0 discriminator 4
 2768 1312 E8000000 		call	_ZN8UnitTest11CurrentTest7ResultsEv@PLT
 2768      00
 2769 1317 488B00   		movq	(%rax), %rax
 2770 131a 488D9590 		leaq	-2160(%rbp), %rdx
 2770      F7FFFF
 2771 1321 488D8DB0 		leaq	-2128(%rbp), %rcx
 2771      F7FFFF
 2772 1328 488DB114 		leaq	1300(%rcx), %rsi
 2772      050000
 2773 132f 4889D1   		movq	%rdx, %rcx
 2774 1332 4889F2   		movq	%rsi, %rdx
 2775 1335 488D3500 		leaq	.LC21(%rip), %rsi
 2775      000000
 2776 133c 4889C7   		movq	%rax, %rdi
 2777 133f E8000000 		call	_ZN8UnitTest10CheckEqualERNS_11TestResultsEPKcPcRKNS_11TestDetailsE@PLT
 2777      00
 2778              	.LEHE68:
 2779              	.L131:
  96:TestTestResults.cpp **** }
 2780              		.loc 5 96 1 is_stmt 1
 2781 1344 488D85B0 		leaq	-2128(%rbp), %rax
 2781      F7FFFF
 2782 134b 4889C7   		movq	%rax, %rdi
 2783              	.LEHB69:
 2784 134e E8000000 		call	_ZN17RecordingReporterD1Ev
 2784      00
 2785              	.LEHE69:
 2786 1353 488B45E8 		movq	-24(%rbp), %rax
 2787 1357 64482B04 		subq	%fs:40, %rax
 2787      25280000 
 2787      00
 2788 1360 0F848F02 		je	.L133
 2788      0000
 2789 1366 E9850200 		jmp	.L147
 2789      00
 2790              	.L135:
 2791 136b F30F1EFA 		endbr64
  89:TestTestResults.cpp **** 
 2792              		.loc 5 89 5
 2793 136f 4889C7   		movq	%rax, %rdi
 2794 1372 E8000000 		call	__cxa_begin_catch@PLT
 2794      00
 2795              	.LEHB70:
 2796 1377 E8000000 		call	_ZN8UnitTest11CurrentTest7ResultsEv@PLT
 2796      00
  89:TestTestResults.cpp **** 
 2797              		.loc 5 89 5 is_stmt 0 discriminator 3
 2798 137c 488B18   		movq	(%rax), %rbx
 2799 137f E8000000 		call	_ZN8UnitTest11CurrentTest7DetailsEv@PLT
 2799      00
  89:TestTestResults.cpp **** 
 2800              		.loc 5 89 5 discriminator 11
 2801 1384 488B08   		movq	(%rax), %rcx
 2802 1387 488D8590 		leaq	-2160(%rbp), %rax
 2802      F7FFFF
 2803 138e BA590000 		movl	$89, %edx
 2803      00
 2804 1393 4889CE   		movq	%rcx, %rsi
 2805 1396 4889C7   		movq	%rax, %rdi
 2806 1399 E8000000 		call	_ZN8UnitTest11TestDetailsC1ERKS0_i@PLT
 2806      00
  89:TestTestResults.cpp **** 
 2807              		.loc 5 89 5 discriminator 15
 2808 139e 488D8590 		leaq	-2160(%rbp), %rax
 2808      F7FFFF
 2809 13a5 488D1500 		leaq	.LC23(%rip), %rdx
 2809      000000
 2810 13ac 4889C6   		movq	%rax, %rsi
 2811 13af 4889DF   		movq	%rbx, %rdi
 2812 13b2 E8000000 		call	_ZN8UnitTest11TestResults13OnTestFailureERKNS_11TestDetailsEPKc@PLT
 2812      00
 2813              	.LEHE70:
 2814              	.LEHB71:
  89:TestTestResults.cpp **** 
 2815              		.loc 5 89 5 discriminator 17
 2816 13b7 E8000000 		call	__cxa_end_catch@PLT
 2816      00
 2817              	.LEHE71:
  89:TestTestResults.cpp **** 
 2818              		.loc 5 89 5
 2819 13bc E9E4FDFF 		jmp	.L115
 2819      FF
 2820              	.L136:
 2821 13c1 F30F1EFA 		endbr64
 2822 13c5 4889C3   		movq	%rax, %rbx
 2823 13c8 E8000000 		call	__cxa_end_catch@PLT
 2823      00
 2824 13cd E9040200 		jmp	.L117
 2824      00
 2825              	.L137:
 2826 13d2 F30F1EFA 		endbr64
  91:TestTestResults.cpp ****     CHECK_EQUAL (123, reporter.lastFailedLine);
 2827              		.loc 5 91 5 is_stmt 1
 2828 13d6 4889C7   		movq	%rax, %rdi
 2829 13d9 E8000000 		call	__cxa_begin_catch@PLT
 2829      00
 2830              	.LEHB72:
 2831 13de E8000000 		call	_ZN8UnitTest11CurrentTest7ResultsEv@PLT
 2831      00
  91:TestTestResults.cpp ****     CHECK_EQUAL (123, reporter.lastFailedLine);
 2832              		.loc 5 91 5 is_stmt 0 discriminator 3
 2833 13e3 488B18   		movq	(%rax), %rbx
 2834 13e6 E8000000 		call	_ZN8UnitTest11CurrentTest7DetailsEv@PLT
 2834      00
  91:TestTestResults.cpp ****     CHECK_EQUAL (123, reporter.lastFailedLine);
 2835              		.loc 5 91 5 discriminator 11
 2836 13eb 488B08   		movq	(%rax), %rcx
 2837 13ee 488D8590 		leaq	-2160(%rbp), %rax
 2837      F7FFFF
 2838 13f5 BA5B0000 		movl	$91, %edx
 2838      00
 2839 13fa 4889CE   		movq	%rcx, %rsi
 2840 13fd 4889C7   		movq	%rax, %rdi
 2841 1400 E8000000 		call	_ZN8UnitTest11TestDetailsC1ERKS0_i@PLT
 2841      00
  91:TestTestResults.cpp ****     CHECK_EQUAL (123, reporter.lastFailedLine);
 2842              		.loc 5 91 5 discriminator 15
 2843 1405 488D8590 		leaq	-2160(%rbp), %rax
 2843      F7FFFF
 2844 140c 488D1500 		leaq	.LC24(%rip), %rdx
 2844      000000
 2845 1413 4889C6   		movq	%rax, %rsi
 2846 1416 4889DF   		movq	%rbx, %rdi
 2847 1419 E8000000 		call	_ZN8UnitTest11TestResults13OnTestFailureERKNS_11TestDetailsEPKc@PLT
 2847      00
 2848              	.LEHE72:
 2849              	.LEHB73:
  91:TestTestResults.cpp ****     CHECK_EQUAL (123, reporter.lastFailedLine);
 2850              		.loc 5 91 5 discriminator 17
 2851 141e E8000000 		call	__cxa_end_catch@PLT
 2851      00
 2852              	.LEHE73:
  91:TestTestResults.cpp ****     CHECK_EQUAL (123, reporter.lastFailedLine);
 2853              		.loc 5 91 5
 2854 1423 E9CEFDFF 		jmp	.L119
 2854      FF
 2855              	.L138:
 2856 1428 F30F1EFA 		endbr64
 2857 142c 4889C3   		movq	%rax, %rbx
 2858 142f E8000000 		call	__cxa_end_catch@PLT
 2858      00
 2859 1434 E99D0100 		jmp	.L117
 2859      00
 2860              	.L139:
 2861 1439 F30F1EFA 		endbr64
  92:TestTestResults.cpp ****     CHECK_EQUAL ("testname", reporter.lastFailedTest);
 2862              		.loc 5 92 5 is_stmt 1
 2863 143d 4889C7   		movq	%rax, %rdi
 2864 1440 E8000000 		call	__cxa_begin_catch@PLT
 2864      00
 2865              	.LEHB74:
 2866 1445 E8000000 		call	_ZN8UnitTest11CurrentTest7ResultsEv@PLT
 2866      00
  92:TestTestResults.cpp ****     CHECK_EQUAL ("testname", reporter.lastFailedTest);
 2867              		.loc 5 92 5 is_stmt 0 discriminator 3
 2868 144a 488B18   		movq	(%rax), %rbx
 2869 144d E8000000 		call	_ZN8UnitTest11CurrentTest7DetailsEv@PLT
 2869      00
  92:TestTestResults.cpp ****     CHECK_EQUAL ("testname", reporter.lastFailedTest);
 2870              		.loc 5 92 5 discriminator 11
 2871 1452 488B08   		movq	(%rax), %rcx
 2872 1455 488D8590 		leaq	-2160(%rbp), %rax
 2872      F7FFFF
 2873 145c BA5C0000 		movl	$92, %edx
 2873      00
 2874 1461 4889CE   		movq	%rcx, %rsi
 2875 1464 4889C7   		movq	%rax, %rdi
 2876 1467 E8000000 		call	_ZN8UnitTest11TestDetailsC1ERKS0_i@PLT
 2876      00
  92:TestTestResults.cpp ****     CHECK_EQUAL ("testname", reporter.lastFailedTest);
 2877              		.loc 5 92 5 discriminator 15
 2878 146c 488D8590 		leaq	-2160(%rbp), %rax
 2878      F7FFFF
 2879 1473 488D1500 		leaq	.LC25(%rip), %rdx
 2879      000000
 2880 147a 4889C6   		movq	%rax, %rsi
 2881 147d 4889DF   		movq	%rbx, %rdi
 2882 1480 E8000000 		call	_ZN8UnitTest11TestResults13OnTestFailureERKNS_11TestDetailsEPKc@PLT
 2882      00
 2883              	.LEHE74:
 2884              	.LEHB75:
  92:TestTestResults.cpp ****     CHECK_EQUAL ("testname", reporter.lastFailedTest);
 2885              		.loc 5 92 5 discriminator 17
 2886 1485 E8000000 		call	__cxa_end_catch@PLT
 2886      00
 2887              	.LEHE75:
  92:TestTestResults.cpp ****     CHECK_EQUAL ("testname", reporter.lastFailedTest);
 2888              		.loc 5 92 5
 2889 148a E9C2FDFF 		jmp	.L122
 2889      FF
 2890              	.L140:
 2891 148f F30F1EFA 		endbr64
 2892 1493 4889C3   		movq	%rax, %rbx
 2893 1496 E8000000 		call	__cxa_end_catch@PLT
 2893      00
 2894 149b E9360100 		jmp	.L117
 2894      00
 2895              	.L141:
 2896 14a0 F30F1EFA 		endbr64
  93:TestTestResults.cpp ****     CHECK_EQUAL ("suitename", reporter.lastFailedSuite);
 2897              		.loc 5 93 5 is_stmt 1
 2898 14a4 4889C7   		movq	%rax, %rdi
 2899 14a7 E8000000 		call	__cxa_begin_catch@PLT
 2899      00
 2900              	.LEHB76:
 2901 14ac E8000000 		call	_ZN8UnitTest11CurrentTest7ResultsEv@PLT
 2901      00
  93:TestTestResults.cpp ****     CHECK_EQUAL ("suitename", reporter.lastFailedSuite);
 2902              		.loc 5 93 5 is_stmt 0 discriminator 3
 2903 14b1 488B18   		movq	(%rax), %rbx
 2904 14b4 E8000000 		call	_ZN8UnitTest11CurrentTest7DetailsEv@PLT
 2904      00
  93:TestTestResults.cpp ****     CHECK_EQUAL ("suitename", reporter.lastFailedSuite);
 2905              		.loc 5 93 5 discriminator 11
 2906 14b9 488B08   		movq	(%rax), %rcx
 2907 14bc 488D8590 		leaq	-2160(%rbp), %rax
 2907      F7FFFF
 2908 14c3 BA5D0000 		movl	$93, %edx
 2908      00
 2909 14c8 4889CE   		movq	%rcx, %rsi
 2910 14cb 4889C7   		movq	%rax, %rdi
 2911 14ce E8000000 		call	_ZN8UnitTest11TestDetailsC1ERKS0_i@PLT
 2911      00
  93:TestTestResults.cpp ****     CHECK_EQUAL ("suitename", reporter.lastFailedSuite);
 2912              		.loc 5 93 5 discriminator 15
 2913 14d3 488D8590 		leaq	-2160(%rbp), %rax
 2913      F7FFFF
 2914 14da 488D1500 		leaq	.LC27(%rip), %rdx
 2914      000000
 2915 14e1 4889C6   		movq	%rax, %rsi
 2916 14e4 4889DF   		movq	%rbx, %rdi
 2917 14e7 E8000000 		call	_ZN8UnitTest11TestResults13OnTestFailureERKNS_11TestDetailsEPKc@PLT
 2917      00
 2918              	.LEHE76:
 2919              	.LEHB77:
  93:TestTestResults.cpp ****     CHECK_EQUAL ("suitename", reporter.lastFailedSuite);
 2920              		.loc 5 93 5 discriminator 17
 2921 14ec E8000000 		call	__cxa_end_catch@PLT
 2921      00
 2922              	.LEHE77:
  93:TestTestResults.cpp ****     CHECK_EQUAL ("suitename", reporter.lastFailedSuite);
 2923              		.loc 5 93 5
 2924 14f1 E9ACFDFF 		jmp	.L125
 2924      FF
 2925              	.L142:
 2926 14f6 F30F1EFA 		endbr64
 2927 14fa 4889C3   		movq	%rax, %rbx
 2928 14fd E8000000 		call	__cxa_end_catch@PLT
 2928      00
 2929 1502 E9CF0000 		jmp	.L117
 2929      00
 2930              	.L143:
 2931 1507 F30F1EFA 		endbr64
  94:TestTestResults.cpp ****     CHECK_EQUAL ("failurestring", reporter.lastFailedMessage);
 2932              		.loc 5 94 5 is_stmt 1
 2933 150b 4889C7   		movq	%rax, %rdi
 2934 150e E8000000 		call	__cxa_begin_catch@PLT
 2934      00
 2935              	.LEHB78:
 2936 1513 E8000000 		call	_ZN8UnitTest11CurrentTest7ResultsEv@PLT
 2936      00
  94:TestTestResults.cpp ****     CHECK_EQUAL ("failurestring", reporter.lastFailedMessage);
 2937              		.loc 5 94 5 is_stmt 0 discriminator 3
 2938 1518 488B18   		movq	(%rax), %rbx
 2939 151b E8000000 		call	_ZN8UnitTest11CurrentTest7DetailsEv@PLT
 2939      00
  94:TestTestResults.cpp ****     CHECK_EQUAL ("failurestring", reporter.lastFailedMessage);
 2940              		.loc 5 94 5 discriminator 11
 2941 1520 488B08   		movq	(%rax), %rcx
 2942 1523 488D8590 		leaq	-2160(%rbp), %rax
 2942      F7FFFF
 2943 152a BA5E0000 		movl	$94, %edx
 2943      00
 2944 152f 4889CE   		movq	%rcx, %rsi
 2945 1532 4889C7   		movq	%rax, %rdi
 2946 1535 E8000000 		call	_ZN8UnitTest11TestDetailsC1ERKS0_i@PLT
 2946      00
  94:TestTestResults.cpp ****     CHECK_EQUAL ("failurestring", reporter.lastFailedMessage);
 2947              		.loc 5 94 5 discriminator 15
 2948 153a 488D8590 		leaq	-2160(%rbp), %rax
 2948      F7FFFF
 2949 1541 488D1500 		leaq	.LC26(%rip), %rdx
 2949      000000
 2950 1548 4889C6   		movq	%rax, %rsi
 2951 154b 4889DF   		movq	%rbx, %rdi
 2952 154e E8000000 		call	_ZN8UnitTest11TestResults13OnTestFailureERKNS_11TestDetailsEPKc@PLT
 2952      00
 2953              	.LEHE78:
 2954              	.LEHB79:
  94:TestTestResults.cpp ****     CHECK_EQUAL ("failurestring", reporter.lastFailedMessage);
 2955              		.loc 5 94 5 discriminator 17
 2956 1553 E8000000 		call	__cxa_end_catch@PLT
 2956      00
 2957              	.LEHE79:
  94:TestTestResults.cpp ****     CHECK_EQUAL ("failurestring", reporter.lastFailedMessage);
 2958              		.loc 5 94 5
 2959 1558 E996FDFF 		jmp	.L128
 2959      FF
 2960              	.L144:
 2961 155d F30F1EFA 		endbr64
 2962 1561 4889C3   		movq	%rax, %rbx
 2963 1564 E8000000 		call	__cxa_end_catch@PLT
 2963      00
 2964 1569 EB6B     		jmp	.L117
 2965              	.L145:
 2966 156b F30F1EFA 		endbr64
  95:TestTestResults.cpp **** }
 2967              		.loc 5 95 5 is_stmt 1
 2968 156f 4889C7   		movq	%rax, %rdi
 2969 1572 E8000000 		call	__cxa_begin_catch@PLT
 2969      00
 2970              	.LEHB80:
 2971 1577 E8000000 		call	_ZN8UnitTest11CurrentTest7ResultsEv@PLT
 2971      00
  95:TestTestResults.cpp **** }
 2972              		.loc 5 95 5 is_stmt 0 discriminator 3
 2973 157c 488B18   		movq	(%rax), %rbx
 2974 157f E8000000 		call	_ZN8UnitTest11CurrentTest7DetailsEv@PLT
 2974      00
  95:TestTestResults.cpp **** }
 2975              		.loc 5 95 5 discriminator 11
 2976 1584 488B08   		movq	(%rax), %rcx
 2977 1587 488D8590 		leaq	-2160(%rbp), %rax
 2977      F7FFFF
 2978 158e BA5F0000 		movl	$95, %edx
 2978      00
 2979 1593 4889CE   		movq	%rcx, %rsi
 2980 1596 4889C7   		movq	%rax, %rdi
 2981 1599 E8000000 		call	_ZN8UnitTest11TestDetailsC1ERKS0_i@PLT
 2981      00
  95:TestTestResults.cpp **** }
 2982              		.loc 5 95 5 discriminator 15
 2983 159e 488D8590 		leaq	-2160(%rbp), %rax
 2983      F7FFFF
 2984 15a5 488D1500 		leaq	.LC28(%rip), %rdx
 2984      000000
 2985 15ac 4889C6   		movq	%rax, %rsi
 2986 15af 4889DF   		movq	%rbx, %rdi
 2987 15b2 E8000000 		call	_ZN8UnitTest11TestResults13OnTestFailureERKNS_11TestDetailsEPKc@PLT
 2987      00
 2988              	.LEHE80:
 2989              	.LEHB81:
  95:TestTestResults.cpp **** }
 2990              		.loc 5 95 5 discriminator 17
 2991 15b7 E8000000 		call	__cxa_end_catch@PLT
 2991      00
 2992              	.LEHE81:
  95:TestTestResults.cpp **** }
 2993              		.loc 5 95 5
 2994 15bc E983FDFF 		jmp	.L131
 2994      FF
 2995              	.L146:
 2996 15c1 F30F1EFA 		endbr64
 2997 15c5 4889C3   		movq	%rax, %rbx
 2998 15c8 E8000000 		call	__cxa_end_catch@PLT
 2998      00
 2999 15cd EB07     		jmp	.L117
 3000              	.L134:
 3001 15cf F30F1EFA 		endbr64
 3002              		.loc 5 96 1 is_stmt 1
 3003 15d3 4889C3   		movq	%rax, %rbx
 3004              	.L117:
 3005 15d6 488D85B0 		leaq	-2128(%rbp), %rax
 3005      F7FFFF
 3006 15dd 4889C7   		movq	%rax, %rdi
 3007 15e0 E8000000 		call	_ZN17RecordingReporterD1Ev
 3007      00
 3008 15e5 4889D8   		movq	%rbx, %rax
 3009 15e8 4889C7   		movq	%rax, %rdi
 3010              	.LEHB82:
 3011 15eb E8000000 		call	_Unwind_Resume@PLT
 3011      00
 3012              	.LEHE82:
 3013              	.L147:
 3014 15f0 E8000000 		call	__stack_chk_fail@PLT
 3014      00
 3015              	.L133:
 3016 15f5 488B5DF8 		movq	-8(%rbp), %rbx
 3017 15f9 C9       		leave
 3018              		.cfi_def_cfa 7, 8
 3019 15fa C3       		ret
 3020              		.cfi_endproc
 3021              	.LFE1182:
 3022              		.section	.gcc_except_table
 3023              		.align 4
 3024              	.LLSDA1182:
 3025 0190 FF       		.byte	0xff
 3026 0191 9B       		.byte	0x9b
 3027 0192 8401     		.uleb128 .LLSDATT1182-.LLSDATTD1182
 3028              	.LLSDATTD1182:
 3029 0194 01       		.byte	0x1
 3030 0195 7A       		.uleb128 .LLSDACSE1182-.LLSDACSB1182
 3031              	.LLSDACSB1182:
 3032 0196 49       		.uleb128 .LEHB62-.LFB1182
 3033 0197 25       		.uleb128 .LEHE62-.LEHB62
 3034 0198 F309     		.uleb128 .L134-.LFB1182
 3035 019a 00       		.uleb128 0
 3036 019b 6E       		.uleb128 .LEHB63-.LFB1182
 3037 019c 5B       		.uleb128 .LEHE63-.LEHB63
 3038 019d 8F05     		.uleb128 .L135-.LFB1182
 3039 019f 01       		.uleb128 0x1
 3040 01a0 C901     		.uleb128 .LEHB64-.LFB1182
 3041 01a2 51       		.uleb128 .LEHE64-.LEHB64
 3042 01a3 F605     		.uleb128 .L137-.LFB1182
 3043 01a5 01       		.uleb128 0x1
 3044 01a6 9A02     		.uleb128 .LEHB65-.LFB1182
 3045 01a8 5B       		.uleb128 .LEHE65-.LEHB65
 3046 01a9 DD06     		.uleb128 .L139-.LFB1182
 3047 01ab 01       		.uleb128 0x1
 3048 01ac F502     		.uleb128 .LEHB66-.LFB1182
 3049 01ae 51       		.uleb128 .LEHE66-.LEHB66
 3050 01af C407     		.uleb128 .L141-.LFB1182
 3051 01b1 01       		.uleb128 0x1
 3052 01b2 C603     		.uleb128 .LEHB67-.LFB1182
 3053 01b4 51       		.uleb128 .LEHE67-.LEHB67
 3054 01b5 AB08     		.uleb128 .L143-.LFB1182
 3055 01b7 01       		.uleb128 0x1
 3056 01b8 9704     		.uleb128 .LEHB68-.LFB1182
 3057 01ba 51       		.uleb128 .LEHE68-.LEHB68
 3058 01bb 8F09     		.uleb128 .L145-.LFB1182
 3059 01bd 01       		.uleb128 0x1
 3060 01be F204     		.uleb128 .LEHB69-.LFB1182
 3061 01c0 05       		.uleb128 .LEHE69-.LEHB69
 3062 01c1 00       		.uleb128 0
 3063 01c2 00       		.uleb128 0
 3064 01c3 9B05     		.uleb128 .LEHB70-.LFB1182
 3065 01c5 40       		.uleb128 .LEHE70-.LEHB70
 3066 01c6 E505     		.uleb128 .L136-.LFB1182
 3067 01c8 00       		.uleb128 0
 3068 01c9 DB05     		.uleb128 .LEHB71-.LFB1182
 3069 01cb 05       		.uleb128 .LEHE71-.LEHB71
 3070 01cc F309     		.uleb128 .L134-.LFB1182
 3071 01ce 00       		.uleb128 0
 3072 01cf 8206     		.uleb128 .LEHB72-.LFB1182
 3073 01d1 40       		.uleb128 .LEHE72-.LEHB72
 3074 01d2 CC06     		.uleb128 .L138-.LFB1182
 3075 01d4 00       		.uleb128 0
 3076 01d5 C206     		.uleb128 .LEHB73-.LFB1182
 3077 01d7 05       		.uleb128 .LEHE73-.LEHB73
 3078 01d8 F309     		.uleb128 .L134-.LFB1182
 3079 01da 00       		.uleb128 0
 3080 01db E906     		.uleb128 .LEHB74-.LFB1182
 3081 01dd 40       		.uleb128 .LEHE74-.LEHB74
 3082 01de B307     		.uleb128 .L140-.LFB1182
 3083 01e0 00       		.uleb128 0
 3084 01e1 A907     		.uleb128 .LEHB75-.LFB1182
 3085 01e3 05       		.uleb128 .LEHE75-.LEHB75
 3086 01e4 F309     		.uleb128 .L134-.LFB1182
 3087 01e6 00       		.uleb128 0
 3088 01e7 D007     		.uleb128 .LEHB76-.LFB1182
 3089 01e9 40       		.uleb128 .LEHE76-.LEHB76
 3090 01ea 9A08     		.uleb128 .L142-.LFB1182
 3091 01ec 00       		.uleb128 0
 3092 01ed 9008     		.uleb128 .LEHB77-.LFB1182
 3093 01ef 05       		.uleb128 .LEHE77-.LEHB77
 3094 01f0 F309     		.uleb128 .L134-.LFB1182
 3095 01f2 00       		.uleb128 0
 3096 01f3 B708     		.uleb128 .LEHB78-.LFB1182
 3097 01f5 40       		.uleb128 .LEHE78-.LEHB78
 3098 01f6 8109     		.uleb128 .L144-.LFB1182
 3099 01f8 00       		.uleb128 0
 3100 01f9 F708     		.uleb128 .LEHB79-.LFB1182
 3101 01fb 05       		.uleb128 .LEHE79-.LEHB79
 3102 01fc F309     		.uleb128 .L134-.LFB1182
 3103 01fe 00       		.uleb128 0
 3104 01ff 9B09     		.uleb128 .LEHB80-.LFB1182
 3105 0201 40       		.uleb128 .LEHE80-.LEHB80
 3106 0202 E509     		.uleb128 .L146-.LFB1182
 3107 0204 00       		.uleb128 0
 3108 0205 DB09     		.uleb128 .LEHB81-.LFB1182
 3109 0207 05       		.uleb128 .LEHE81-.LEHB81
 3110 0208 F309     		.uleb128 .L134-.LFB1182
 3111 020a 00       		.uleb128 0
 3112 020b 8F0A     		.uleb128 .LEHB82-.LFB1182
 3113 020d 05       		.uleb128 .LEHE82-.LEHB82
 3114 020e 00       		.uleb128 0
 3115 020f 00       		.uleb128 0
 3116              	.LLSDACSE1182:
 3117 0210 01       		.byte	0x1
 3118 0211 00       		.byte	0
 3119 0212 0000     		.align 4
 3120 0214 00000000 		.long	0
 3121              	
 3122              	.LLSDATT1182:
 3123              		.text
 3125              		.section	.rodata
 3126              	.LC30:
 3127 054e 4E6F7469 		.string	"NotifiesReporterOfTestEnd"
 3127      66696573 
 3127      5265706F 
 3127      72746572 
 3127      4F665465 
 3128              		.text
 3129 15fb 90       		.align 2
 3131              	_ZN12_GLOBAL__N_129TestNotifiesReporterOfTestEndC2Ev:
 3132              	.LFB1184:
  97:TestTestResults.cpp **** 
  98:TestTestResults.cpp **** TEST(NotifiesReporterOfTestEnd)
 3133              		.loc 5 98 1
 3134              		.cfi_startproc
 3135 15fc 55       		pushq	%rbp
 3136              		.cfi_def_cfa_offset 16
 3137              		.cfi_offset 6, -16
 3138 15fd 4889E5   		movq	%rsp, %rbp
 3139              		.cfi_def_cfa_register 6
 3140 1600 53       		pushq	%rbx
 3141 1601 4883EC18 		subq	$24, %rsp
 3142              		.cfi_offset 3, -24
 3143 1605 48897DE8 		movq	%rdi, -24(%rbp)
 3144              	.LBB14:
 3145              		.loc 5 98 1
 3146 1609 488B5DE8 		movq	-24(%rbp), %rbx
 3147 160d E8000000 		call	_ZN13UnitTestSuite12GetSuiteNameEv
 3147      00
 3148 1612 4889C2   		movq	%rax, %rdx
 3149 1615 41B86200 		movl	$98, %r8d
 3149      0000
 3150 161b 488D0500 		leaq	.LC2(%rip), %rax
 3150      000000
 3151 1622 4889C1   		movq	%rax, %rcx
 3152 1625 488D0500 		leaq	.LC30(%rip), %rax
 3152      000000
 3153 162c 4889C6   		movq	%rax, %rsi
 3154 162f 4889DF   		movq	%rbx, %rdi
 3155 1632 E8000000 		call	_ZN8UnitTest4TestC2EPKcS2_S2_i@PLT
 3155      00
 3156 1637 488D1500 		leaq	16+_ZTVN12_GLOBAL__N_129TestNotifiesReporterOfTestEndE(%rip), %rdx
 3156      000000
 3157 163e 488B45E8 		movq	-24(%rbp), %rax
 3158 1642 488910   		movq	%rdx, (%rax)
 3159              	.LBE14:
 3160 1645 90       		nop
 3161 1646 488B5DF8 		movq	-8(%rbp), %rbx
 3162 164a C9       		leave
 3163              		.cfi_def_cfa 7, 8
 3164 164b C3       		ret
 3165              		.cfi_endproc
 3166              	.LFE1184:
 3168              		.set	_ZN12_GLOBAL__N_129TestNotifiesReporterOfTestEndC1Ev,_ZN12_GLOBAL__N_129TestNotifiesReporterO
 3169              		.local	_ZN12_GLOBAL__N_137testNotifiesReporterOfTestEndInstanceE
 3170              		.comm	_ZN12_GLOBAL__N_137testNotifiesReporterOfTestEndInstanceE,56,32
 3171              		.local	_ZN12_GLOBAL__N_130adderNotifiesReporterOfTestEndE
 3172              		.comm	_ZN12_GLOBAL__N_130adderNotifiesReporterOfTestEndE,1,1
 3173              		.section	.rodata
 3174              		.align 8
 3175              	.LC33:
 3176 0568 556E6861 		.string	"Unhandled exception in CHECK_EQUAL(1, reporter.testFinishedCount)"
 3176      6E646C65 
 3176      64206578 
 3176      63657074 
 3176      696F6E20 
 3177 05aa 00000000 		.align 8
 3177      0000
 3178              	.LC34:
 3179 05b0 556E6861 		.string	"Unhandled exception in CHECK_EQUAL(\"testname\", reporter.lastFinishedTest)"
 3179      6E646C65 
 3179      64206578 
 3179      63657074 
 3179      696F6E20 
 3180 05fa 00000000 		.align 8
 3180      0000
 3181              	.LC35:
 3182 0600 556E6861 		.string	"Unhandled exception in CHECK_EQUAL(\"suitename\", reporter.lastFinishedSuite)"
 3182      6E646C65 
 3182      64206578 
 3182      63657074 
 3182      696F6E20 
 3183 064c 00000000 		.align 8
 3184              	.LC36:
 3185 0650 556E6861 		.string	"Unhandled exception in CHECK_CLOSE(0.1234f, reporter.lastFinishedTestTime)"
 3185      6E646C65 
 3185      64206578 
 3185      63657074 
 3185      696F6E20 
 3186              		.text
 3187              		.align 2
 3189              	_ZNK12_GLOBAL__N_129TestNotifiesReporterOfTestEnd7RunImplEv:
 3190              	.LFB1186:
  99:TestTestResults.cpp **** {
 3191              		.loc 5 99 1
 3192              		.cfi_startproc
 3193              		.cfi_personality 0x9b,DW.ref.__gxx_personality_v0
 3194              		.cfi_lsda 0x1b,.LLSDA1186
 3195 164c F30F1EFA 		endbr64
 3196 1650 55       		pushq	%rbp
 3197              		.cfi_def_cfa_offset 16
 3198              		.cfi_offset 6, -16
 3199 1651 4889E5   		movq	%rsp, %rbp
 3200              		.cfi_def_cfa_register 6
 3201 1654 53       		pushq	%rbx
 3202 1655 4881ECA8 		subq	$2216, %rsp
 3202      080000
 3203              		.cfi_offset 3, -24
 3204 165c 4889BD58 		movq	%rdi, -2216(%rbp)
 3204      F7FFFF
 3205              		.loc 5 99 1
 3206 1663 64488B04 		movq	%fs:40, %rax
 3206      25280000 
 3206      00
 3207 166c 488945E8 		movq	%rax, -24(%rbp)
 3208 1670 31C0     		xorl	%eax, %eax
 100:TestTestResults.cpp ****     RecordingReporter reporter;
 3209              		.loc 5 100 23
 3210 1672 488D85B0 		leaq	-2128(%rbp), %rax
 3210      F7FFFF
 3211 1679 4889C7   		movq	%rax, %rdi
 3212 167c E8000000 		call	_ZN17RecordingReporterC1Ev
 3212      00
 101:TestTestResults.cpp ****     TestResults results(&reporter);
 3213              		.loc 5 101 34
 3214 1681 488D95B0 		leaq	-2128(%rbp), %rdx
 3214      F7FFFF
 3215 1688 488D8570 		leaq	-2192(%rbp), %rax
 3215      F7FFFF
 3216 168f 4889D6   		movq	%rdx, %rsi
 3217 1692 4889C7   		movq	%rax, %rdi
 3218              	.LEHB83:
 3219 1695 E8000000 		call	_ZN8UnitTest11TestResultsC1EPNS_12TestReporterE@PLT
 3219      00
 102:TestTestResults.cpp **** 
 103:TestTestResults.cpp ****     results.OnTestFinish(details, 0.1234f);
 3220              		.loc 5 103 25
 3221 169a 488D8570 		leaq	-2192(%rbp), %rax
 3221      F7FFFF
 3222 16a1 8B150000 		movl	.LC31(%rip), %edx
 3222      0000
 3223 16a7 660F6EC2 		movd	%edx, %xmm0
 3224 16ab 488D1500 		leaq	_ZN12_GLOBAL__N_1L7detailsE(%rip), %rdx
 3224      000000
 3225 16b2 4889D6   		movq	%rdx, %rsi
 3226 16b5 4889C7   		movq	%rax, %rdi
 3227 16b8 E8000000 		call	_ZN8UnitTest11TestResults12OnTestFinishERKNS_11TestDetailsEf@PLT
 3227      00
 3228              	.LEHE83:
 3229              	.LEHB84:
 104:TestTestResults.cpp ****     CHECK_EQUAL (1, reporter.testFinishedCount);
 3230              		.loc 5 104 5
 3231 16bd E8000000 		call	_ZN8UnitTest11CurrentTest7DetailsEv@PLT
 3231      00
 3232 16c2 488B08   		movq	(%rax), %rcx
 3233 16c5 488D8590 		leaq	-2160(%rbp), %rax
 3233      F7FFFF
 3234 16cc BA680000 		movl	$104, %edx
 3234      00
 3235 16d1 4889CE   		movq	%rcx, %rsi
 3236 16d4 4889C7   		movq	%rax, %rdi
 3237 16d7 E8000000 		call	_ZN8UnitTest11TestDetailsC1ERKS0_i@PLT
 3237      00
 3238              		.loc 5 104 5 is_stmt 0 discriminator 4
 3239 16dc C7856CF7 		movl	$1, -2196(%rbp)
 3239      FFFF0100 
 3239      0000
 3240 16e6 E8000000 		call	_ZN8UnitTest11CurrentTest7ResultsEv@PLT
 3240      00
 3241 16eb 488B00   		movq	(%rax), %rax
 3242 16ee 488D9590 		leaq	-2160(%rbp), %rdx
 3242      F7FFFF
 3243 16f5 488D8DB0 		leaq	-2128(%rbp), %rcx
 3243      F7FFFF
 3244 16fc 488DB914 		leaq	1556(%rcx), %rdi
 3244      060000
 3245 1703 488DB56C 		leaq	-2196(%rbp), %rsi
 3245      F7FFFF
 3246 170a 4889D1   		movq	%rdx, %rcx
 3247 170d 4889FA   		movq	%rdi, %rdx
 3248 1710 4889C7   		movq	%rax, %rdi
 3249 1713 E8000000 		call	_ZN8UnitTest10CheckEqualIiiEEvRNS_11TestResultsERKT_RKT0_RKNS_11TestDetailsE
 3249      00
 3250              	.LEHE84:
 3251              	.L151:
 3252              	.LEHB85:
 105:TestTestResults.cpp ****     CHECK_EQUAL ("testname", reporter.lastFinishedTest);
 3253              		.loc 5 105 5 is_stmt 1
 3254 1718 E8000000 		call	_ZN8UnitTest11CurrentTest7DetailsEv@PLT
 3254      00
 3255 171d 488B08   		movq	(%rax), %rcx
 3256 1720 488D8590 		leaq	-2160(%rbp), %rax
 3256      F7FFFF
 3257 1727 BA690000 		movl	$105, %edx
 3257      00
 3258 172c 4889CE   		movq	%rcx, %rsi
 3259 172f 4889C7   		movq	%rax, %rdi
 3260 1732 E8000000 		call	_ZN8UnitTest11TestDetailsC1ERKS0_i@PLT
 3260      00
 3261              		.loc 5 105 5 is_stmt 0 discriminator 4
 3262 1737 E8000000 		call	_ZN8UnitTest11CurrentTest7ResultsEv@PLT
 3262      00
 3263 173c 488B00   		movq	(%rax), %rax
 3264 173f 488D9590 		leaq	-2160(%rbp), %rdx
 3264      F7FFFF
 3265 1746 488D8DB0 		leaq	-2128(%rbp), %rcx
 3265      F7FFFF
 3266 174d 488DB118 		leaq	1816(%rcx), %rsi
 3266      070000
 3267 1754 4889D1   		movq	%rdx, %rcx
 3268 1757 4889F2   		movq	%rsi, %rdx
 3269 175a 488D3500 		leaq	.LC16(%rip), %rsi
 3269      000000
 3270 1761 4889C7   		movq	%rax, %rdi
 3271 1764 E8000000 		call	_ZN8UnitTest10CheckEqualERNS_11TestResultsEPKcPcRKNS_11TestDetailsE@PLT
 3271      00
 3272              	.LEHE85:
 3273              	.L155:
 3274              	.LEHB86:
 106:TestTestResults.cpp ****     CHECK_EQUAL ("suitename", reporter.lastFinishedSuite);
 3275              		.loc 5 106 5 is_stmt 1
 3276 1769 E8000000 		call	_ZN8UnitTest11CurrentTest7DetailsEv@PLT
 3276      00
 3277 176e 488B08   		movq	(%rax), %rcx
 3278 1771 488D8590 		leaq	-2160(%rbp), %rax
 3278      F7FFFF
 3279 1778 BA6A0000 		movl	$106, %edx
 3279      00
 3280 177d 4889CE   		movq	%rcx, %rsi
 3281 1780 4889C7   		movq	%rax, %rdi
 3282 1783 E8000000 		call	_ZN8UnitTest11TestDetailsC1ERKS0_i@PLT
 3282      00
 3283              		.loc 5 106 5 is_stmt 0 discriminator 4
 3284 1788 E8000000 		call	_ZN8UnitTest11CurrentTest7ResultsEv@PLT
 3284      00
 3285 178d 488B00   		movq	(%rax), %rax
 3286 1790 488D9590 		leaq	-2160(%rbp), %rdx
 3286      F7FFFF
 3287 1797 488D8DB0 		leaq	-2128(%rbp), %rcx
 3287      F7FFFF
 3288 179e 488DB118 		leaq	1560(%rcx), %rsi
 3288      060000
 3289 17a5 4889D1   		movq	%rdx, %rcx
 3290 17a8 4889F2   		movq	%rsi, %rdx
 3291 17ab 488D3500 		leaq	.LC15(%rip), %rsi
 3291      000000
 3292 17b2 4889C7   		movq	%rax, %rdi
 3293 17b5 E8000000 		call	_ZN8UnitTest10CheckEqualERNS_11TestResultsEPKcPcRKNS_11TestDetailsE@PLT
 3293      00
 3294              	.LEHE86:
 3295              	.L158:
 3296              	.LEHB87:
 107:TestTestResults.cpp ****     CHECK_CLOSE (0.1234f, reporter.lastFinishedTestTime, 0.0001f);
 3297              		.loc 5 107 5 is_stmt 1
 3298 17ba E8000000 		call	_ZN8UnitTest11CurrentTest7DetailsEv@PLT
 3298      00
 3299 17bf 488B08   		movq	(%rax), %rcx
 3300 17c2 488D8590 		leaq	-2160(%rbp), %rax
 3300      F7FFFF
 3301 17c9 BA6B0000 		movl	$107, %edx
 3301      00
 3302 17ce 4889CE   		movq	%rcx, %rsi
 3303 17d1 4889C7   		movq	%rax, %rdi
 3304 17d4 E8000000 		call	_ZN8UnitTest11TestDetailsC1ERKS0_i@PLT
 3304      00
 3305              		.loc 5 107 5 is_stmt 0 discriminator 4
 3306 17d9 F30F1005 		movss	.LC32(%rip), %xmm0
 3306      00000000 
 3307 17e1 F30F1185 		movss	%xmm0, -2196(%rbp)
 3307      6CF7FFFF 
 3308 17e9 F30F1005 		movss	.LC31(%rip), %xmm0
 3308      00000000 
 3309 17f1 F30F1185 		movss	%xmm0, -2200(%rbp)
 3309      68F7FFFF 
 3310 17f9 E8000000 		call	_ZN8UnitTest11CurrentTest7ResultsEv@PLT
 3310      00
 3311 17fe 488B00   		movq	(%rax), %rax
 3312 1801 4C8D8590 		leaq	-2160(%rbp), %r8
 3312      F7FFFF
 3313 1808 488D956C 		leaq	-2196(%rbp), %rdx
 3313      F7FFFF
 3314 180f 488D8DB0 		leaq	-2128(%rbp), %rcx
 3314      F7FFFF
 3315 1816 488DB918 		leaq	2072(%rcx), %rdi
 3315      080000
 3316 181d 488DB568 		leaq	-2200(%rbp), %rsi
 3316      F7FFFF
 3317 1824 4889D1   		movq	%rdx, %rcx
 3318 1827 4889FA   		movq	%rdi, %rdx
 3319 182a 4889C7   		movq	%rax, %rdi
 3320 182d E8000000 		call	_ZN8UnitTest10CheckCloseIfffEEvRNS_11TestResultsERKT_RKT0_RKT1_RKNS_11TestDetailsE
 3320      00
 3321              	.LEHE87:
 3322              	.L161:
 108:TestTestResults.cpp **** }
 3323              		.loc 5 108 1 is_stmt 1
 3324 1832 488D85B0 		leaq	-2128(%rbp), %rax
 3324      F7FFFF
 3325 1839 4889C7   		movq	%rax, %rdi
 3326              	.LEHB88:
 3327 183c E8000000 		call	_ZN17RecordingReporterD1Ev
 3327      00
 3328              	.LEHE88:
 3329 1841 488B45E8 		movq	-24(%rbp), %rax
 3330 1845 64482B04 		subq	%fs:40, %rax
 3330      25280000 
 3330      00
 3331 184e 0F84C101 		je	.L163
 3331      0000
 3332 1854 E9B70100 		jmp	.L173
 3332      00
 3333              	.L165:
 3334 1859 F30F1EFA 		endbr64
 104:TestTestResults.cpp ****     CHECK_EQUAL ("testname", reporter.lastFinishedTest);
 3335              		.loc 5 104 5
 3336 185d 4889C7   		movq	%rax, %rdi
 3337 1860 E8000000 		call	__cxa_begin_catch@PLT
 3337      00
 3338              	.LEHB89:
 3339 1865 E8000000 		call	_ZN8UnitTest11CurrentTest7ResultsEv@PLT
 3339      00
 104:TestTestResults.cpp ****     CHECK_EQUAL ("testname", reporter.lastFinishedTest);
 3340              		.loc 5 104 5 is_stmt 0 discriminator 3
 3341 186a 488B18   		movq	(%rax), %rbx
 3342 186d E8000000 		call	_ZN8UnitTest11CurrentTest7DetailsEv@PLT
 3342      00
 104:TestTestResults.cpp ****     CHECK_EQUAL ("testname", reporter.lastFinishedTest);
 3343              		.loc 5 104 5 discriminator 11
 3344 1872 488B08   		movq	(%rax), %rcx
 3345 1875 488D8590 		leaq	-2160(%rbp), %rax
 3345      F7FFFF
 3346 187c BA680000 		movl	$104, %edx
 3346      00
 3347 1881 4889CE   		movq	%rcx, %rsi
 3348 1884 4889C7   		movq	%rax, %rdi
 3349 1887 E8000000 		call	_ZN8UnitTest11TestDetailsC1ERKS0_i@PLT
 3349      00
 104:TestTestResults.cpp ****     CHECK_EQUAL ("testname", reporter.lastFinishedTest);
 3350              		.loc 5 104 5 discriminator 15
 3351 188c 488D8590 		leaq	-2160(%rbp), %rax
 3351      F7FFFF
 3352 1893 488D1500 		leaq	.LC33(%rip), %rdx
 3352      000000
 3353 189a 4889C6   		movq	%rax, %rsi
 3354 189d 4889DF   		movq	%rbx, %rdi
 3355 18a0 E8000000 		call	_ZN8UnitTest11TestResults13OnTestFailureERKNS_11TestDetailsEPKc@PLT
 3355      00
 3356              	.LEHE89:
 3357              	.LEHB90:
 104:TestTestResults.cpp ****     CHECK_EQUAL ("testname", reporter.lastFinishedTest);
 3358              		.loc 5 104 5 discriminator 17
 3359 18a5 E8000000 		call	__cxa_end_catch@PLT
 3359      00
 3360              	.LEHE90:
 104:TestTestResults.cpp ****     CHECK_EQUAL ("testname", reporter.lastFinishedTest);
 3361              		.loc 5 104 5
 3362 18aa E969FEFF 		jmp	.L151
 3362      FF
 3363              	.L166:
 3364 18af F30F1EFA 		endbr64
 3365 18b3 4889C3   		movq	%rax, %rbx
 3366 18b6 E8000000 		call	__cxa_end_catch@PLT
 3366      00
 3367 18bb E9360100 		jmp	.L153
 3367      00
 3368              	.L167:
 3369 18c0 F30F1EFA 		endbr64
 105:TestTestResults.cpp ****     CHECK_EQUAL ("suitename", reporter.lastFinishedSuite);
 3370              		.loc 5 105 5 is_stmt 1
 3371 18c4 4889C7   		movq	%rax, %rdi
 3372 18c7 E8000000 		call	__cxa_begin_catch@PLT
 3372      00
 3373              	.LEHB91:
 3374 18cc E8000000 		call	_ZN8UnitTest11CurrentTest7ResultsEv@PLT
 3374      00
 105:TestTestResults.cpp ****     CHECK_EQUAL ("suitename", reporter.lastFinishedSuite);
 3375              		.loc 5 105 5 is_stmt 0 discriminator 3
 3376 18d1 488B18   		movq	(%rax), %rbx
 3377 18d4 E8000000 		call	_ZN8UnitTest11CurrentTest7DetailsEv@PLT
 3377      00
 105:TestTestResults.cpp ****     CHECK_EQUAL ("suitename", reporter.lastFinishedSuite);
 3378              		.loc 5 105 5 discriminator 11
 3379 18d9 488B08   		movq	(%rax), %rcx
 3380 18dc 488D8590 		leaq	-2160(%rbp), %rax
 3380      F7FFFF
 3381 18e3 BA690000 		movl	$105, %edx
 3381      00
 3382 18e8 4889CE   		movq	%rcx, %rsi
 3383 18eb 4889C7   		movq	%rax, %rdi
 3384 18ee E8000000 		call	_ZN8UnitTest11TestDetailsC1ERKS0_i@PLT
 3384      00
 105:TestTestResults.cpp ****     CHECK_EQUAL ("suitename", reporter.lastFinishedSuite);
 3385              		.loc 5 105 5 discriminator 15
 3386 18f3 488D8590 		leaq	-2160(%rbp), %rax
 3386      F7FFFF
 3387 18fa 488D1500 		leaq	.LC34(%rip), %rdx
 3387      000000
 3388 1901 4889C6   		movq	%rax, %rsi
 3389 1904 4889DF   		movq	%rbx, %rdi
 3390 1907 E8000000 		call	_ZN8UnitTest11TestResults13OnTestFailureERKNS_11TestDetailsEPKc@PLT
 3390      00
 3391              	.LEHE91:
 3392              	.LEHB92:
 105:TestTestResults.cpp ****     CHECK_EQUAL ("suitename", reporter.lastFinishedSuite);
 3393              		.loc 5 105 5 discriminator 17
 3394 190c E8000000 		call	__cxa_end_catch@PLT
 3394      00
 3395              	.LEHE92:
 105:TestTestResults.cpp ****     CHECK_EQUAL ("suitename", reporter.lastFinishedSuite);
 3396              		.loc 5 105 5
 3397 1911 E953FEFF 		jmp	.L155
 3397      FF
 3398              	.L168:
 3399 1916 F30F1EFA 		endbr64
 3400 191a 4889C3   		movq	%rax, %rbx
 3401 191d E8000000 		call	__cxa_end_catch@PLT
 3401      00
 3402 1922 E9CF0000 		jmp	.L153
 3402      00
 3403              	.L169:
 3404 1927 F30F1EFA 		endbr64
 106:TestTestResults.cpp ****     CHECK_CLOSE (0.1234f, reporter.lastFinishedTestTime, 0.0001f);
 3405              		.loc 5 106 5 is_stmt 1
 3406 192b 4889C7   		movq	%rax, %rdi
 3407 192e E8000000 		call	__cxa_begin_catch@PLT
 3407      00
 3408              	.LEHB93:
 3409 1933 E8000000 		call	_ZN8UnitTest11CurrentTest7ResultsEv@PLT
 3409      00
 106:TestTestResults.cpp ****     CHECK_CLOSE (0.1234f, reporter.lastFinishedTestTime, 0.0001f);
 3410              		.loc 5 106 5 is_stmt 0 discriminator 3
 3411 1938 488B18   		movq	(%rax), %rbx
 3412 193b E8000000 		call	_ZN8UnitTest11CurrentTest7DetailsEv@PLT
 3412      00
 106:TestTestResults.cpp ****     CHECK_CLOSE (0.1234f, reporter.lastFinishedTestTime, 0.0001f);
 3413              		.loc 5 106 5 discriminator 11
 3414 1940 488B08   		movq	(%rax), %rcx
 3415 1943 488D8590 		leaq	-2160(%rbp), %rax
 3415      F7FFFF
 3416 194a BA6A0000 		movl	$106, %edx
 3416      00
 3417 194f 4889CE   		movq	%rcx, %rsi
 3418 1952 4889C7   		movq	%rax, %rdi
 3419 1955 E8000000 		call	_ZN8UnitTest11TestDetailsC1ERKS0_i@PLT
 3419      00
 106:TestTestResults.cpp ****     CHECK_CLOSE (0.1234f, reporter.lastFinishedTestTime, 0.0001f);
 3420              		.loc 5 106 5 discriminator 15
 3421 195a 488D8590 		leaq	-2160(%rbp), %rax
 3421      F7FFFF
 3422 1961 488D1500 		leaq	.LC35(%rip), %rdx
 3422      000000
 3423 1968 4889C6   		movq	%rax, %rsi
 3424 196b 4889DF   		movq	%rbx, %rdi
 3425 196e E8000000 		call	_ZN8UnitTest11TestResults13OnTestFailureERKNS_11TestDetailsEPKc@PLT
 3425      00
 3426              	.LEHE93:
 3427              	.LEHB94:
 106:TestTestResults.cpp ****     CHECK_CLOSE (0.1234f, reporter.lastFinishedTestTime, 0.0001f);
 3428              		.loc 5 106 5 discriminator 17
 3429 1973 E8000000 		call	__cxa_end_catch@PLT
 3429      00
 3430              	.LEHE94:
 106:TestTestResults.cpp ****     CHECK_CLOSE (0.1234f, reporter.lastFinishedTestTime, 0.0001f);
 3431              		.loc 5 106 5
 3432 1978 E93DFEFF 		jmp	.L158
 3432      FF
 3433              	.L170:
 3434 197d F30F1EFA 		endbr64
 3435 1981 4889C3   		movq	%rax, %rbx
 3436 1984 E8000000 		call	__cxa_end_catch@PLT
 3436      00
 3437 1989 EB6B     		jmp	.L153
 3438              	.L171:
 3439 198b F30F1EFA 		endbr64
 107:TestTestResults.cpp **** }
 3440              		.loc 5 107 5 is_stmt 1
 3441 198f 4889C7   		movq	%rax, %rdi
 3442 1992 E8000000 		call	__cxa_begin_catch@PLT
 3442      00
 3443              	.LEHB95:
 3444 1997 E8000000 		call	_ZN8UnitTest11CurrentTest7ResultsEv@PLT
 3444      00
 107:TestTestResults.cpp **** }
 3445              		.loc 5 107 5 is_stmt 0 discriminator 3
 3446 199c 488B18   		movq	(%rax), %rbx
 3447 199f E8000000 		call	_ZN8UnitTest11CurrentTest7DetailsEv@PLT
 3447      00
 107:TestTestResults.cpp **** }
 3448              		.loc 5 107 5 discriminator 11
 3449 19a4 488B08   		movq	(%rax), %rcx
 3450 19a7 488D8590 		leaq	-2160(%rbp), %rax
 3450      F7FFFF
 3451 19ae BA6B0000 		movl	$107, %edx
 3451      00
 3452 19b3 4889CE   		movq	%rcx, %rsi
 3453 19b6 4889C7   		movq	%rax, %rdi
 3454 19b9 E8000000 		call	_ZN8UnitTest11TestDetailsC1ERKS0_i@PLT
 3454      00
 107:TestTestResults.cpp **** }
 3455              		.loc 5 107 5 discriminator 15
 3456 19be 488D8590 		leaq	-2160(%rbp), %rax
 3456      F7FFFF
 3457 19c5 488D1500 		leaq	.LC36(%rip), %rdx
 3457      000000
 3458 19cc 4889C6   		movq	%rax, %rsi
 3459 19cf 4889DF   		movq	%rbx, %rdi
 3460 19d2 E8000000 		call	_ZN8UnitTest11TestResults13OnTestFailureERKNS_11TestDetailsEPKc@PLT
 3460      00
 3461              	.LEHE95:
 3462              	.LEHB96:
 107:TestTestResults.cpp **** }
 3463              		.loc 5 107 5 discriminator 17
 3464 19d7 E8000000 		call	__cxa_end_catch@PLT
 3464      00
 3465              	.LEHE96:
 107:TestTestResults.cpp **** }
 3466              		.loc 5 107 5
 3467 19dc E951FEFF 		jmp	.L161
 3467      FF
 3468              	.L172:
 3469 19e1 F30F1EFA 		endbr64
 3470 19e5 4889C3   		movq	%rax, %rbx
 3471 19e8 E8000000 		call	__cxa_end_catch@PLT
 3471      00
 3472 19ed EB07     		jmp	.L153
 3473              	.L164:
 3474 19ef F30F1EFA 		endbr64
 3475              		.loc 5 108 1 is_stmt 1
 3476 19f3 4889C3   		movq	%rax, %rbx
 3477              	.L153:
 3478 19f6 488D85B0 		leaq	-2128(%rbp), %rax
 3478      F7FFFF
 3479 19fd 4889C7   		movq	%rax, %rdi
 3480 1a00 E8000000 		call	_ZN17RecordingReporterD1Ev
 3480      00
 3481 1a05 4889D8   		movq	%rbx, %rax
 3482 1a08 4889C7   		movq	%rax, %rdi
 3483              	.LEHB97:
 3484 1a0b E8000000 		call	_Unwind_Resume@PLT
 3484      00
 3485              	.LEHE97:
 3486              	.L173:
 3487 1a10 E8000000 		call	__stack_chk_fail@PLT
 3487      00
 3488              	.L163:
 3489 1a15 488B5DF8 		movq	-8(%rbp), %rbx
 3490 1a19 C9       		leave
 3491              		.cfi_def_cfa 7, 8
 3492 1a1a C3       		ret
 3493              		.cfi_endproc
 3494              	.LFE1186:
 3495              		.section	.gcc_except_table
 3496              		.align 4
 3497              	.LLSDA1186:
 3498 0218 FF       		.byte	0xff
 3499 0219 9B       		.byte	0x9b
 3500 021a 61       		.uleb128 .LLSDATT1186-.LLSDATTD1186
 3501              	.LLSDATTD1186:
 3502 021b 01       		.byte	0x1
 3503 021c 56       		.uleb128 .LLSDACSE1186-.LLSDACSB1186
 3504              	.LLSDACSB1186:
 3505 021d 49       		.uleb128 .LEHB83-.LFB1186
 3506 021e 28       		.uleb128 .LEHE83-.LEHB83
 3507 021f A307     		.uleb128 .L164-.LFB1186
 3508 0221 00       		.uleb128 0
 3509 0222 71       		.uleb128 .LEHB84-.LFB1186
 3510 0223 5B       		.uleb128 .LEHE84-.LEHB84
 3511 0224 8D04     		.uleb128 .L165-.LFB1186
 3512 0226 01       		.uleb128 0x1
 3513 0227 CC01     		.uleb128 .LEHB85-.LFB1186
 3514 0229 51       		.uleb128 .LEHE85-.LEHB85
 3515 022a F404     		.uleb128 .L167-.LFB1186
 3516 022c 01       		.uleb128 0x1
 3517 022d 9D02     		.uleb128 .LEHB86-.LFB1186
 3518 022f 51       		.uleb128 .LEHE86-.LEHB86
 3519 0230 DB05     		.uleb128 .L169-.LFB1186
 3520 0232 01       		.uleb128 0x1
 3521 0233 EE02     		.uleb128 .LEHB87-.LFB1186
 3522 0235 78       		.uleb128 .LEHE87-.LEHB87
 3523 0236 BF06     		.uleb128 .L171-.LFB1186
 3524 0238 01       		.uleb128 0x1
 3525 0239 F003     		.uleb128 .LEHB88-.LFB1186
 3526 023b 05       		.uleb128 .LEHE88-.LEHB88
 3527 023c 00       		.uleb128 0
 3528 023d 00       		.uleb128 0
 3529 023e 9904     		.uleb128 .LEHB89-.LFB1186
 3530 0240 40       		.uleb128 .LEHE89-.LEHB89
 3531 0241 E304     		.uleb128 .L166-.LFB1186
 3532 0243 00       		.uleb128 0
 3533 0244 D904     		.uleb128 .LEHB90-.LFB1186
 3534 0246 05       		.uleb128 .LEHE90-.LEHB90
 3535 0247 A307     		.uleb128 .L164-.LFB1186
 3536 0249 00       		.uleb128 0
 3537 024a 8005     		.uleb128 .LEHB91-.LFB1186
 3538 024c 40       		.uleb128 .LEHE91-.LEHB91
 3539 024d CA05     		.uleb128 .L168-.LFB1186
 3540 024f 00       		.uleb128 0
 3541 0250 C005     		.uleb128 .LEHB92-.LFB1186
 3542 0252 05       		.uleb128 .LEHE92-.LEHB92
 3543 0253 A307     		.uleb128 .L164-.LFB1186
 3544 0255 00       		.uleb128 0
 3545 0256 E705     		.uleb128 .LEHB93-.LFB1186
 3546 0258 40       		.uleb128 .LEHE93-.LEHB93
 3547 0259 B106     		.uleb128 .L170-.LFB1186
 3548 025b 00       		.uleb128 0
 3549 025c A706     		.uleb128 .LEHB94-.LFB1186
 3550 025e 05       		.uleb128 .LEHE94-.LEHB94
 3551 025f A307     		.uleb128 .L164-.LFB1186
 3552 0261 00       		.uleb128 0
 3553 0262 CB06     		.uleb128 .LEHB95-.LFB1186
 3554 0264 40       		.uleb128 .LEHE95-.LEHB95
 3555 0265 9507     		.uleb128 .L172-.LFB1186
 3556 0267 00       		.uleb128 0
 3557 0268 8B07     		.uleb128 .LEHB96-.LFB1186
 3558 026a 05       		.uleb128 .LEHE96-.LEHB96
 3559 026b A307     		.uleb128 .L164-.LFB1186
 3560 026d 00       		.uleb128 0
 3561 026e BF07     		.uleb128 .LEHB97-.LFB1186
 3562 0270 05       		.uleb128 .LEHE97-.LEHB97
 3563 0271 00       		.uleb128 0
 3564 0272 00       		.uleb128 0
 3565              	.LLSDACSE1186:
 3566 0273 01       		.byte	0x1
 3567 0274 00       		.byte	0
 3568 0275 000000   		.align 4
 3569 0278 00000000 		.long	0
 3570              	
 3571              	.LLSDATT1186:
 3572              		.text
 3574              		.section	.text._ZN8UnitTest15MemoryOutStreamD1Ev,"axG",@progbits,_ZN8UnitTest15MemoryOutStreamD1Ev
 3575              		.align 2
 3576              		.weak	_ZN8UnitTest15MemoryOutStreamD1Ev
 3578              	_ZN8UnitTest15MemoryOutStreamD1Ev:
 3579              	.LFB1217:
  13:../MemoryOutStream.h **** {
 3580              		.loc 2 13 7
 3581              		.cfi_startproc
 3582              		.cfi_personality 0x9b,DW.ref.__gxx_personality_v0
 3583              		.cfi_lsda 0x1b,.LLSDA1217
 3584 0000 F30F1EFA 		endbr64
 3585 0004 55       		pushq	%rbp
 3586              		.cfi_def_cfa_offset 16
 3587              		.cfi_offset 6, -16
 3588 0005 4889E5   		movq	%rsp, %rbp
 3589              		.cfi_def_cfa_register 6
 3590 0008 53       		pushq	%rbx
 3591 0009 4883EC18 		subq	$24, %rsp
 3592              		.cfi_offset 3, -24
 3593 000d 48897DE8 		movq	%rdi, -24(%rbp)
 3594              	.LBB15:
  13:../MemoryOutStream.h **** {
 3595              		.loc 2 13 7
 3596 0011 488D1500 		leaq	24+_ZTVN8UnitTest15MemoryOutStreamE(%rip), %rdx
 3596      000000
 3597 0018 488B45E8 		movq	-24(%rbp), %rax
 3598 001c 488910   		movq	%rdx, (%rax)
 3599 001f 488B45E8 		movq	-24(%rbp), %rax
 3600 0023 48059000 		addq	$144, %rax
 3600      0000
 3601 0029 488D1500 		leaq	64+_ZTVN8UnitTest15MemoryOutStreamE(%rip), %rdx
 3601      000000
 3602 0030 488910   		movq	%rdx, (%rax)
 3603 0033 488B45E8 		movq	-24(%rbp), %rax
 3604 0037 4883C070 		addq	$112, %rax
 3605 003b 4889C7   		movq	%rax, %rdi
 3606              	.LEHB98:
 3607 003e E8000000 		call	_ZNSt7__cxx1112basic_stringIcSt11char_traitsIcESaIcEED1Ev@PLT
 3607      00
 3608              	.LEHE98:
  13:../MemoryOutStream.h **** {
 3609              		.loc 2 13 7 is_stmt 0 discriminator 2
 3610 0043 488B45E8 		movq	-24(%rbp), %rax
 3611 0047 488D1500 		leaq	8+_ZTTN8UnitTest15MemoryOutStreamE(%rip), %rdx
 3611      000000
 3612 004e 4889D6   		movq	%rdx, %rsi
 3613 0051 4889C7   		movq	%rax, %rdi
 3614              	.LEHB99:
 3615 0054 E8000000 		call	_ZNSt7__cxx1119basic_ostringstreamIcSt11char_traitsIcESaIcEED2Ev@PLT
 3615      00
 3616              	.LEHE99:
  13:../MemoryOutStream.h **** {
 3617              		.loc 2 13 7 discriminator 4
 3618 0059 488B45E8 		movq	-24(%rbp), %rax
 3619 005d 48059000 		addq	$144, %rax
 3619      0000
 3620 0063 4889C7   		movq	%rax, %rdi
 3621              	.LEHB100:
 3622 0066 E8000000 		call	_ZNSt9basic_iosIcSt11char_traitsIcEED2Ev@PLT
 3622      00
 3623              	.LEHE100:
 3624              	.LBE15:
 3625 006b EB43     		jmp	.L179
 3626              	.L177:
 3627 006d F30F1EFA 		endbr64
 3628              	.LBB16:
  13:../MemoryOutStream.h **** {
 3629              		.loc 2 13 7
 3630 0071 4889C3   		movq	%rax, %rbx
 3631 0074 488B45E8 		movq	-24(%rbp), %rax
 3632 0078 488D1500 		leaq	8+_ZTTN8UnitTest15MemoryOutStreamE(%rip), %rdx
 3632      000000
 3633 007f 4889D6   		movq	%rdx, %rsi
 3634 0082 4889C7   		movq	%rax, %rdi
 3635 0085 E8000000 		call	_ZNSt7__cxx1119basic_ostringstreamIcSt11char_traitsIcESaIcEED2Ev@PLT
 3635      00
 3636 008a EB07     		jmp	.L176
 3637              	.L178:
 3638 008c F30F1EFA 		endbr64
 3639 0090 4889C3   		movq	%rax, %rbx
 3640              	.L176:
  13:../MemoryOutStream.h **** {
 3641              		.loc 2 13 7 discriminator 3
 3642 0093 488B45E8 		movq	-24(%rbp), %rax
 3643 0097 48059000 		addq	$144, %rax
 3643      0000
 3644 009d 4889C7   		movq	%rax, %rdi
 3645 00a0 E8000000 		call	_ZNSt9basic_iosIcSt11char_traitsIcEED2Ev@PLT
 3645      00
 3646 00a5 4889D8   		movq	%rbx, %rax
 3647 00a8 4889C7   		movq	%rax, %rdi
 3648              	.LEHB101:
 3649 00ab E8000000 		call	_Unwind_Resume@PLT
 3649      00
 3650              	.LEHE101:
 3651              	.L179:
 3652              	.LBE16:
  13:../MemoryOutStream.h **** {
 3653              		.loc 2 13 7
 3654 00b0 488B5DF8 		movq	-8(%rbp), %rbx
 3655 00b4 C9       		leave
 3656              		.cfi_def_cfa 7, 8
 3657 00b5 C3       		ret
 3658              		.cfi_endproc
 3659              	.LFE1217:
 3660              		.section	.gcc_except_table
 3661              	.LLSDA1217:
 3662 027c FF       		.byte	0xff
 3663 027d FF       		.byte	0xff
 3664 027e 01       		.byte	0x1
 3665 027f 12       		.uleb128 .LLSDACSE1217-.LLSDACSB1217
 3666              	.LLSDACSB1217:
 3667 0280 3E       		.uleb128 .LEHB98-.LFB1217
 3668 0281 05       		.uleb128 .LEHE98-.LEHB98
 3669 0282 6D       		.uleb128 .L177-.LFB1217
 3670 0283 00       		.uleb128 0
 3671 0284 54       		.uleb128 .LEHB99-.LFB1217
 3672 0285 05       		.uleb128 .LEHE99-.LEHB99
 3673 0286 8C01     		.uleb128 .L178-.LFB1217
 3674 0288 00       		.uleb128 0
 3675 0289 66       		.uleb128 .LEHB100-.LFB1217
 3676 028a 05       		.uleb128 .LEHE100-.LEHB100
 3677 028b 00       		.uleb128 0
 3678 028c 00       		.uleb128 0
 3679 028d AB01     		.uleb128 .LEHB101-.LFB1217
 3680 028f 05       		.uleb128 .LEHE101-.LEHB101
 3681 0290 00       		.uleb128 0
 3682 0291 00       		.uleb128 0
 3683              	.LLSDACSE1217:
 3684              		.section	.text._ZN8UnitTest15MemoryOutStreamD1Ev,"axG",@progbits,_ZN8UnitTest15MemoryOutStreamD1Ev
 3686              		.set	.LTHUNK0,_ZN8UnitTest15MemoryOutStreamD1Ev
 3687              		.weak	_ZTv0_n24_N8UnitTest15MemoryOutStreamD1Ev
 3689              	_ZTv0_n24_N8UnitTest15MemoryOutStreamD1Ev:
 3690              	.LFB1316:
  13:../MemoryOutStream.h **** {
 3691              		.loc 2 13 7 is_stmt 1
 3692              		.cfi_startproc
 3693 00b6 F30F1EFA 		endbr64
 3694 00ba 4C8B17   		movq	(%rdi), %r10
 3695 00bd 49037AE8 		addq	-24(%r10), %rdi
 3696 00c1 E93AFFFF 		jmp	.LTHUNK0
 3696      FF
 3697              		.cfi_endproc
 3698              	.LFE1316:
 3700              		.section	.text._ZN8UnitTest15MemoryOutStreamD0Ev,"axG",@progbits,_ZN8UnitTest15MemoryOutStreamD0Ev
 3701              		.align 2
 3702              		.weak	_ZN8UnitTest15MemoryOutStreamD0Ev
 3704              	_ZN8UnitTest15MemoryOutStreamD0Ev:
 3705              	.LFB1218:
  13:../MemoryOutStream.h **** {
 3706              		.loc 2 13 7
 3707              		.cfi_startproc
 3708              		.cfi_personality 0x9b,DW.ref.__gxx_personality_v0
 3709              		.cfi_lsda 0x1b,.LLSDA1218
 3710 0000 F30F1EFA 		endbr64
 3711 0004 55       		pushq	%rbp
 3712              		.cfi_def_cfa_offset 16
 3713              		.cfi_offset 6, -16
 3714 0005 4889E5   		movq	%rsp, %rbp
 3715              		.cfi_def_cfa_register 6
 3716 0008 53       		pushq	%rbx
 3717 0009 4883EC18 		subq	$24, %rsp
 3718              		.cfi_offset 3, -24
 3719 000d 48897DE8 		movq	%rdi, -24(%rbp)
  13:../MemoryOutStream.h **** {
 3720              		.loc 2 13 7
 3721 0011 488B45E8 		movq	-24(%rbp), %rax
 3722 0015 4889C7   		movq	%rax, %rdi
 3723              	.LEHB102:
 3724 0018 E8000000 		call	_ZN8UnitTest15MemoryOutStreamD1Ev
 3724      00
 3725              	.LEHE102:
  13:../MemoryOutStream.h **** {
 3726              		.loc 2 13 7 is_stmt 0 discriminator 2
 3727 001d 488B45E8 		movq	-24(%rbp), %rax
 3728 0021 4889C7   		movq	%rax, %rdi
 3729 0024 E8000000 		call	_ZdlPv@PLT
 3729      00
 3730 0029 EB1E     		jmp	.L183
 3731              	.L182:
 3732 002b F30F1EFA 		endbr64
  13:../MemoryOutStream.h **** {
 3733              		.loc 2 13 7
 3734 002f 4889C3   		movq	%rax, %rbx
 3735 0032 488B45E8 		movq	-24(%rbp), %rax
 3736 0036 4889C7   		movq	%rax, %rdi
 3737 0039 E8000000 		call	_ZdlPv@PLT
 3737      00
 3738 003e 4889D8   		movq	%rbx, %rax
 3739 0041 4889C7   		movq	%rax, %rdi
 3740              	.LEHB103:
 3741 0044 E8000000 		call	_Unwind_Resume@PLT
 3741      00
 3742              	.LEHE103:
 3743              	.L183:
 3744 0049 488B5DF8 		movq	-8(%rbp), %rbx
 3745 004d C9       		leave
 3746              		.cfi_def_cfa 7, 8
 3747 004e C3       		ret
 3748              		.cfi_endproc
 3749              	.LFE1218:
 3750              		.section	.gcc_except_table
 3751              	.LLSDA1218:
 3752 0292 FF       		.byte	0xff
 3753 0293 FF       		.byte	0xff
 3754 0294 01       		.byte	0x1
 3755 0295 08       		.uleb128 .LLSDACSE1218-.LLSDACSB1218
 3756              	.LLSDACSB1218:
 3757 0296 18       		.uleb128 .LEHB102-.LFB1218
 3758 0297 05       		.uleb128 .LEHE102-.LEHB102
 3759 0298 2B       		.uleb128 .L182-.LFB1218
 3760 0299 00       		.uleb128 0
 3761 029a 44       		.uleb128 .LEHB103-.LFB1218
 3762 029b 05       		.uleb128 .LEHE103-.LEHB103
 3763 029c 00       		.uleb128 0
 3764 029d 00       		.uleb128 0
 3765              	.LLSDACSE1218:
 3766              		.section	.text._ZN8UnitTest15MemoryOutStreamD0Ev,"axG",@progbits,_ZN8UnitTest15MemoryOutStreamD0Ev
 3768              		.set	.LTHUNK1,_ZN8UnitTest15MemoryOutStreamD0Ev
 3769              		.weak	_ZTv0_n24_N8UnitTest15MemoryOutStreamD0Ev
 3771              	_ZTv0_n24_N8UnitTest15MemoryOutStreamD0Ev:
 3772              	.LFB1317:
  13:../MemoryOutStream.h **** {
 3773              		.loc 2 13 7 is_stmt 1
 3774              		.cfi_startproc
 3775 004f F30F1EFA 		endbr64
 3776 0053 4C8B17   		movq	(%rdi), %r10
 3777 0056 49037AE8 		addq	-24(%r10), %rdi
 3778 005a EBA4     		jmp	.LTHUNK1
 3779              		.cfi_endproc
 3780              	.LFE1317:
 3782              		.section	.rodata
 3783              	.LC37:
 3784 069b 45787065 		.string	"Expected "
 3784      63746564 
 3784      2000
 3785              	.LC38:
 3786 06a5 20627574 		.string	" but was "
 3786      20776173 
 3786      2000
 3787              		.section	.text._ZN8UnitTest10CheckEqualIiiEEvRNS_11TestResultsERKT_RKT0_RKNS_11TestDetailsE,"axG",
 3788              		.weak	_ZN8UnitTest10CheckEqualIiiEEvRNS_11TestResultsERKT_RKT0_RKNS_11TestDetailsE
 3790              	_ZN8UnitTest10CheckEqualIiiEEvRNS_11TestResultsERKT_RKT0_RKNS_11TestDetailsE:
 3791              	.LFB1214:
 3792              		.file 6 "../Checks.h"
   1:../Checks.h   **** #ifndef UNITTEST_CHECKS_H
   2:../Checks.h   **** #define UNITTEST_CHECKS_H
   3:../Checks.h   **** 
   4:../Checks.h   **** #include "Config.h"
   5:../Checks.h   **** #include "TestResults.h"
   6:../Checks.h   **** #include "MemoryOutStream.h"
   7:../Checks.h   **** 
   8:../Checks.h   **** namespace UnitTest {
   9:../Checks.h   **** 
  10:../Checks.h   **** 
  11:../Checks.h   **** template< typename Value >
  12:../Checks.h   **** bool Check(Value const value)
  13:../Checks.h   **** {
  14:../Checks.h   ****     return !!value; // doing double negative to avoid silly VS warnings
  15:../Checks.h   **** }
  16:../Checks.h   **** 
  17:../Checks.h   **** 
  18:../Checks.h   **** template< typename Expected, typename Actual >
  19:../Checks.h   **** void CheckEqual(TestResults& results, Expected const& expected, Actual const& actual, TestDetails c
 3793              		.loc 6 19 6
 3794              		.cfi_startproc
 3795              		.cfi_personality 0x9b,DW.ref.__gxx_personality_v0
 3796              		.cfi_lsda 0x1b,.LLSDA1214
 3797 0000 F30F1EFA 		endbr64
 3798 0004 55       		pushq	%rbp
 3799              		.cfi_def_cfa_offset 16
 3800              		.cfi_offset 6, -16
 3801 0005 4889E5   		movq	%rsp, %rbp
 3802              		.cfi_def_cfa_register 6
 3803 0008 53       		pushq	%rbx
 3804 0009 4881ECC8 		subq	$456, %rsp
 3804      010000
 3805              		.cfi_offset 3, -24
 3806 0010 4889BD48 		movq	%rdi, -440(%rbp)
 3806      FEFFFF
 3807 0017 4889B540 		movq	%rsi, -448(%rbp)
 3807      FEFFFF
 3808 001e 48899538 		movq	%rdx, -456(%rbp)
 3808      FEFFFF
 3809 0025 48898D30 		movq	%rcx, -464(%rbp)
 3809      FEFFFF
 3810              		.loc 6 19 6
 3811 002c 64488B04 		movq	%fs:40, %rax
 3811      25280000 
 3811      00
 3812 0035 488945E8 		movq	%rax, -24(%rbp)
 3813 0039 31C0     		xorl	%eax, %eax
 3814              	.LBB17:
  20:../Checks.h   **** {
  21:../Checks.h   ****     if (!(expected == actual))
 3815              		.loc 6 21 20
 3816 003b 488B8540 		movq	-448(%rbp), %rax
 3816      FEFFFF
 3817 0042 8B10     		movl	(%rax), %edx
 3818 0044 488B8538 		movq	-456(%rbp), %rax
 3818      FEFFFF
 3819 004b 8B00     		movl	(%rax), %eax
 3820              		.loc 6 21 5
 3821 004d 39C2     		cmpl	%eax, %edx
 3822 004f 0F84C600 		je	.L189
 3822      0000
 3823              	.LBB18:
  22:../Checks.h   ****     {
  23:../Checks.h   ****         UnitTest::MemoryOutStream stream;
 3824              		.loc 6 23 35
 3825 0055 488D8550 		leaq	-432(%rbp), %rax
 3825      FEFFFF
 3826 005c 4889C7   		movq	%rax, %rdi
 3827              	.LEHB104:
 3828 005f E8000000 		call	_ZN8UnitTest15MemoryOutStreamC1Ev
 3828      00
 3829              	.LEHE104:
  24:../Checks.h   ****         stream << "Expected " << expected << " but was " << actual;
 3830              		.loc 6 24 16
 3831 0064 488D8550 		leaq	-432(%rbp), %rax
 3831      FEFFFF
 3832 006b 488D1500 		leaq	.LC37(%rip), %rdx
 3832      000000
 3833 0072 4889D6   		movq	%rdx, %rsi
 3834 0075 4889C7   		movq	%rax, %rdi
 3835              	.LEHB105:
 3836 0078 E8000000 		call	_ZStlsISt11char_traitsIcEERSt13basic_ostreamIcT_ES5_PKc@PLT
 3836      00
 3837 007d 4889C2   		movq	%rax, %rdx
 3838              		.loc 6 24 43
 3839 0080 488B8540 		movq	-448(%rbp), %rax
 3839      FEFFFF
 3840 0087 8B00     		movl	(%rax), %eax
 3841 0089 89C6     		movl	%eax, %esi
 3842 008b 4889D7   		movq	%rdx, %rdi
 3843 008e E8000000 		call	_ZNSolsEi@PLT
 3843      00
 3844              		.loc 6 24 43 is_stmt 0 discriminator 1
 3845 0093 4889C2   		movq	%rax, %rdx
 3846 0096 488D0500 		leaq	.LC38(%rip), %rax
 3846      000000
 3847 009d 4889C6   		movq	%rax, %rsi
 3848 00a0 4889D7   		movq	%rdx, %rdi
 3849 00a3 E8000000 		call	_ZStlsISt11char_traitsIcEERSt13basic_ostreamIcT_ES5_PKc@PLT
 3849      00
 3850              		.loc 6 24 43 discriminator 2
 3851 00a8 4889C2   		movq	%rax, %rdx
 3852              		.loc 6 24 58 is_stmt 1 discriminator 2
 3853 00ab 488B8538 		movq	-456(%rbp), %rax
 3853      FEFFFF
 3854 00b2 8B00     		movl	(%rax), %eax
 3855 00b4 89C6     		movl	%eax, %esi
 3856 00b6 4889D7   		movq	%rdx, %rdi
 3857 00b9 E8000000 		call	_ZNSolsEi@PLT
 3857      00
  25:../Checks.h   **** 
  26:../Checks.h   ****         results.OnTestFailure(details, stream.GetText());
 3858              		.loc 6 26 30
 3859 00be 488D8550 		leaq	-432(%rbp), %rax
 3859      FEFFFF
 3860 00c5 4889C7   		movq	%rax, %rdi
 3861 00c8 E8000000 		call	_ZNK8UnitTest15MemoryOutStream7GetTextEv@PLT
 3861      00
 3862 00cd 4889C2   		movq	%rax, %rdx
 3863 00d0 488B8D30 		movq	-464(%rbp), %rcx
 3863      FEFFFF
 3864 00d7 488B8548 		movq	-440(%rbp), %rax
 3864      FEFFFF
 3865 00de 4889CE   		movq	%rcx, %rsi
 3866 00e1 4889C7   		movq	%rax, %rdi
 3867 00e4 E8000000 		call	_ZN8UnitTest11TestResults13OnTestFailureERKNS_11TestDetailsEPKc@PLT
 3867      00
 3868              	.LEHE105:
  27:../Checks.h   ****     }
 3869              		.loc 6 27 5
 3870 00e9 488D8550 		leaq	-432(%rbp), %rax
 3870      FEFFFF
 3871 00f0 4889C7   		movq	%rax, %rdi
 3872              	.LEHB106:
 3873 00f3 E8000000 		call	_ZN8UnitTest15MemoryOutStreamD1Ev
 3873      00
 3874              	.LEHE106:
 3875              	.LBE18:
 3876              	.LBE17:
  28:../Checks.h   **** }
 3877              		.loc 6 28 1
 3878 00f8 EB21     		jmp	.L189
 3879              	.L188:
 3880 00fa F30F1EFA 		endbr64
 3881              	.LBB20:
 3882              	.LBB19:
  27:../Checks.h   ****     }
 3883              		.loc 6 27 5
 3884 00fe 4889C3   		movq	%rax, %rbx
 3885 0101 488D8550 		leaq	-432(%rbp), %rax
 3885      FEFFFF
 3886 0108 4889C7   		movq	%rax, %rdi
 3887 010b E8000000 		call	_ZN8UnitTest15MemoryOutStreamD1Ev
 3887      00
 3888 0110 4889D8   		movq	%rbx, %rax
 3889 0113 4889C7   		movq	%rax, %rdi
 3890              	.LEHB107:
 3891 0116 E8000000 		call	_Unwind_Resume@PLT
 3891      00
 3892              	.LEHE107:
 3893              	.L189:
 3894              	.LBE19:
 3895              	.LBE20:
 3896              		.loc 6 28 1
 3897 011b 90       		nop
 3898 011c 488B45E8 		movq	-24(%rbp), %rax
 3899 0120 64482B04 		subq	%fs:40, %rax
 3899      25280000 
 3899      00
 3900 0129 7405     		je	.L187
 3901 012b E8000000 		call	__stack_chk_fail@PLT
 3901      00
 3902              	.L187:
 3903 0130 488B5DF8 		movq	-8(%rbp), %rbx
 3904 0134 C9       		leave
 3905              		.cfi_def_cfa 7, 8
 3906 0135 C3       		ret
 3907              		.cfi_endproc
 3908              	.LFE1214:
 3909              		.section	.gcc_except_table
 3910              	.LLSDA1214:
 3911 029e FF       		.byte	0xff
 3912 029f FF       		.byte	0xff
 3913 02a0 01       		.byte	0x1
 3914 02a1 13       		.uleb128 .LLSDACSE1214-.LLSDACSB1214
 3915              	.LLSDACSB1214:
 3916 02a2 5F       		.uleb128 .LEHB104-.LFB1214
 3917 02a3 05       		.uleb128 .LEHE104-.LEHB104
 3918 02a4 00       		.uleb128 0
 3919 02a5 00       		.uleb128 0
 3920 02a6 78       		.uleb128 .LEHB105-.LFB1214
 3921 02a7 71       		.uleb128 .LEHE105-.LEHB105
 3922 02a8 FA01     		.uleb128 .L188-.LFB1214
 3923 02aa 00       		.uleb128 0
 3924 02ab F301     		.uleb128 .LEHB106-.LFB1214
 3925 02ad 05       		.uleb128 .LEHE106-.LEHB106
 3926 02ae 00       		.uleb128 0
 3927 02af 00       		.uleb128 0
 3928 02b0 9602     		.uleb128 .LEHB107-.LFB1214
 3929 02b2 05       		.uleb128 .LEHE107-.LEHB107
 3930 02b3 00       		.uleb128 0
 3931 02b4 00       		.uleb128 0
 3932              	.LLSDACSE1214:
 3933              		.section	.text._ZN8UnitTest10CheckEqualIiiEEvRNS_11TestResultsERKT_RKT0_RKNS_11TestDetailsE,"axG",
 3935              		.section	.rodata
 3936              	.LC39:
 3937 06af 202B2F2D 		.string	" +/- "
 3937      2000
 3938              		.section	.text._ZN8UnitTest10CheckCloseIfffEEvRNS_11TestResultsERKT_RKT0_RKT1_RKNS_11TestDetailsE,
 3939              		.weak	_ZN8UnitTest10CheckCloseIfffEEvRNS_11TestResultsERKT_RKT0_RKT1_RKNS_11TestDetailsE
 3941              	_ZN8UnitTest10CheckCloseIfffEEvRNS_11TestResultsERKT_RKT0_RKT1_RKNS_11TestDetailsE:
 3942              	.LFB1219:
  29:../Checks.h   **** 
  30:../Checks.h   **** void CheckEqual(TestResults& results, char const* expected, char const* actual, TestDetails const& 
  31:../Checks.h   **** 
  32:../Checks.h   **** void CheckEqual(TestResults& results, char* expected, char* actual, TestDetails const& details);
  33:../Checks.h   **** 
  34:../Checks.h   **** void CheckEqual(TestResults& results, char* expected, char const* actual, TestDetails const& detail
  35:../Checks.h   **** 
  36:../Checks.h   **** void CheckEqual(TestResults& results, char const* expected, char* actual, TestDetails const& detail
  37:../Checks.h   **** 
  38:../Checks.h   **** template< typename Expected, typename Actual, typename Tolerance >
  39:../Checks.h   **** bool AreClose(Expected const& expected, Actual const& actual, Tolerance const& tolerance)
  40:../Checks.h   **** {
  41:../Checks.h   ****     return (actual >= (expected - tolerance)) && (actual <= (expected + tolerance));
  42:../Checks.h   **** }
  43:../Checks.h   **** 
  44:../Checks.h   **** template< typename Expected, typename Actual, typename Tolerance >
  45:../Checks.h   **** void CheckClose(TestResults& results, Expected const& expected, Actual const& actual, Tolerance con
 3943              		.loc 6 45 6
 3944              		.cfi_startproc
 3945              		.cfi_personality 0x9b,DW.ref.__gxx_personality_v0
 3946              		.cfi_lsda 0x1b,.LLSDA1219
 3947 0000 F30F1EFA 		endbr64
 3948 0004 55       		pushq	%rbp
 3949              		.cfi_def_cfa_offset 16
 3950              		.cfi_offset 6, -16
 3951 0005 4889E5   		movq	%rsp, %rbp
 3952              		.cfi_def_cfa_register 6
 3953 0008 53       		pushq	%rbx
 3954 0009 4881ECD8 		subq	$472, %rsp
 3954      010000
 3955              		.cfi_offset 3, -24
 3956 0010 4889BD48 		movq	%rdi, -440(%rbp)
 3956      FEFFFF
 3957 0017 4889B540 		movq	%rsi, -448(%rbp)
 3957      FEFFFF
 3958 001e 48899538 		movq	%rdx, -456(%rbp)
 3958      FEFFFF
 3959 0025 48898D30 		movq	%rcx, -464(%rbp)
 3959      FEFFFF
 3960 002c 4C898528 		movq	%r8, -472(%rbp)
 3960      FEFFFF
 3961              		.loc 6 45 6
 3962 0033 64488B04 		movq	%fs:40, %rax
 3962      25280000 
 3962      00
 3963 003c 488945E8 		movq	%rax, -24(%rbp)
 3964 0040 31C0     		xorl	%eax, %eax
 3965              	.LBB21:
  46:../Checks.h   ****                 TestDetails const& details)
  47:../Checks.h   **** {
  48:../Checks.h   ****     if (!AreClose(expected, actual, tolerance))
 3966              		.loc 6 48 18
 3967 0042 488B9530 		movq	-464(%rbp), %rdx
 3967      FEFFFF
 3968 0049 488B8D38 		movq	-456(%rbp), %rcx
 3968      FEFFFF
 3969 0050 488B8540 		movq	-448(%rbp), %rax
 3969      FEFFFF
 3970 0057 4889CE   		movq	%rcx, %rsi
 3971 005a 4889C7   		movq	%rax, %rdi
 3972 005d E8000000 		call	_ZN8UnitTest8AreCloseIfffEEbRKT_RKT0_RKT1_
 3972      00
 3973 0062 83F001   		xorl	$1, %eax
 3974              		.loc 6 48 5
 3975 0065 84C0     		testb	%al, %al
 3976 0067 0F84F700 		je	.L195
 3976      0000
 3977              	.LBB22:
  49:../Checks.h   ****     { 
  50:../Checks.h   ****         UnitTest::MemoryOutStream stream;
 3978              		.loc 6 50 35
 3979 006d 488D8550 		leaq	-432(%rbp), %rax
 3979      FEFFFF
 3980 0074 4889C7   		movq	%rax, %rdi
 3981              	.LEHB108:
 3982 0077 E8000000 		call	_ZN8UnitTest15MemoryOutStreamC1Ev
 3982      00
 3983              	.LEHE108:
  51:../Checks.h   ****         stream << "Expected " << expected << " +/- " << tolerance << " but was " << actual;
 3984              		.loc 6 51 16
 3985 007c 488D8550 		leaq	-432(%rbp), %rax
 3985      FEFFFF
 3986 0083 488D1500 		leaq	.LC37(%rip), %rdx
 3986      000000
 3987 008a 4889D6   		movq	%rdx, %rsi
 3988 008d 4889C7   		movq	%rax, %rdi
 3989              	.LEHB109:
 3990 0090 E8000000 		call	_ZStlsISt11char_traitsIcEERSt13basic_ostreamIcT_ES5_PKc@PLT
 3990      00
 3991 0095 4889C2   		movq	%rax, %rdx
 3992              		.loc 6 51 31
 3993 0098 488B8540 		movq	-448(%rbp), %rax
 3993      FEFFFF
 3994 009f 8B00     		movl	(%rax), %eax
 3995 00a1 660F6EC0 		movd	%eax, %xmm0
 3996 00a5 4889D7   		movq	%rdx, %rdi
 3997 00a8 E8000000 		call	_ZNSolsEf@PLT
 3997      00
 3998              		.loc 6 51 31 is_stmt 0 discriminator 1
 3999 00ad 4889C2   		movq	%rax, %rdx
 4000              		.loc 6 51 43 is_stmt 1 discriminator 1
 4001 00b0 488D0500 		leaq	.LC39(%rip), %rax
 4001      000000
 4002 00b7 4889C6   		movq	%rax, %rsi
 4003 00ba 4889D7   		movq	%rdx, %rdi
 4004 00bd E8000000 		call	_ZStlsISt11char_traitsIcEERSt13basic_ostreamIcT_ES5_PKc@PLT
 4004      00
 4005              		.loc 6 51 43 is_stmt 0 discriminator 2
 4006 00c2 4889C2   		movq	%rax, %rdx
 4007              		.loc 6 51 54 is_stmt 1 discriminator 2
 4008 00c5 488B8530 		movq	-464(%rbp), %rax
 4008      FEFFFF
 4009 00cc 8B00     		movl	(%rax), %eax
 4010 00ce 660F6EC0 		movd	%eax, %xmm0
 4011 00d2 4889D7   		movq	%rdx, %rdi
 4012 00d5 E8000000 		call	_ZNSolsEf@PLT
 4012      00
 4013              		.loc 6 51 54 is_stmt 0 discriminator 3
 4014 00da 4889C2   		movq	%rax, %rdx
 4015              		.loc 6 51 67 is_stmt 1 discriminator 3
 4016 00dd 488D0500 		leaq	.LC38(%rip), %rax
 4016      000000
 4017 00e4 4889C6   		movq	%rax, %rsi
 4018 00e7 4889D7   		movq	%rdx, %rdi
 4019 00ea E8000000 		call	_ZStlsISt11char_traitsIcEERSt13basic_ostreamIcT_ES5_PKc@PLT
 4019      00
 4020              		.loc 6 51 67 is_stmt 0 discriminator 4
 4021 00ef 4889C2   		movq	%rax, %rdx
 4022              		.loc 6 51 82 is_stmt 1 discriminator 4
 4023 00f2 488B8538 		movq	-456(%rbp), %rax
 4023      FEFFFF
 4024 00f9 8B00     		movl	(%rax), %eax
 4025 00fb 660F6EC0 		movd	%eax, %xmm0
 4026 00ff 4889D7   		movq	%rdx, %rdi
 4027 0102 E8000000 		call	_ZNSolsEf@PLT
 4027      00
  52:../Checks.h   **** 
  53:../Checks.h   ****         results.OnTestFailure(details, stream.GetText());
 4028              		.loc 6 53 30
 4029 0107 488D8550 		leaq	-432(%rbp), %rax
 4029      FEFFFF
 4030 010e 4889C7   		movq	%rax, %rdi
 4031 0111 E8000000 		call	_ZNK8UnitTest15MemoryOutStream7GetTextEv@PLT
 4031      00
 4032 0116 4889C2   		movq	%rax, %rdx
 4033 0119 488B8D28 		movq	-472(%rbp), %rcx
 4033      FEFFFF
 4034 0120 488B8548 		movq	-440(%rbp), %rax
 4034      FEFFFF
 4035 0127 4889CE   		movq	%rcx, %rsi
 4036 012a 4889C7   		movq	%rax, %rdi
 4037 012d E8000000 		call	_ZN8UnitTest11TestResults13OnTestFailureERKNS_11TestDetailsEPKc@PLT
 4037      00
 4038              	.LEHE109:
  54:../Checks.h   ****     }
 4039              		.loc 6 54 5
 4040 0132 488D8550 		leaq	-432(%rbp), %rax
 4040      FEFFFF
 4041 0139 4889C7   		movq	%rax, %rdi
 4042              	.LEHB110:
 4043 013c E8000000 		call	_ZN8UnitTest15MemoryOutStreamD1Ev
 4043      00
 4044              	.LEHE110:
 4045              	.LBE22:
 4046              	.LBE21:
  55:../Checks.h   **** }
 4047              		.loc 6 55 1
 4048 0141 EB21     		jmp	.L195
 4049              	.L194:
 4050 0143 F30F1EFA 		endbr64
 4051              	.LBB24:
 4052              	.LBB23:
  54:../Checks.h   ****     }
 4053              		.loc 6 54 5
 4054 0147 4889C3   		movq	%rax, %rbx
 4055 014a 488D8550 		leaq	-432(%rbp), %rax
 4055      FEFFFF
 4056 0151 4889C7   		movq	%rax, %rdi
 4057 0154 E8000000 		call	_ZN8UnitTest15MemoryOutStreamD1Ev
 4057      00
 4058 0159 4889D8   		movq	%rbx, %rax
 4059 015c 4889C7   		movq	%rax, %rdi
 4060              	.LEHB111:
 4061 015f E8000000 		call	_Unwind_Resume@PLT
 4061      00
 4062              	.LEHE111:
 4063              	.L195:
 4064              	.LBE23:
 4065              	.LBE24:
 4066              		.loc 6 55 1
 4067 0164 90       		nop
 4068 0165 488B45E8 		movq	-24(%rbp), %rax
 4069 0169 64482B04 		subq	%fs:40, %rax
 4069      25280000 
 4069      00
 4070 0172 7405     		je	.L193
 4071 0174 E8000000 		call	__stack_chk_fail@PLT
 4071      00
 4072              	.L193:
 4073 0179 488B5DF8 		movq	-8(%rbp), %rbx
 4074 017d C9       		leave
 4075              		.cfi_def_cfa 7, 8
 4076 017e C3       		ret
 4077              		.cfi_endproc
 4078              	.LFE1219:
 4079              		.section	.gcc_except_table
 4080              	.LLSDA1219:
 4081 02b5 FF       		.byte	0xff
 4082 02b6 FF       		.byte	0xff
 4083 02b7 01       		.byte	0x1
 4084 02b8 15       		.uleb128 .LLSDACSE1219-.LLSDACSB1219
 4085              	.LLSDACSB1219:
 4086 02b9 77       		.uleb128 .LEHB108-.LFB1219
 4087 02ba 05       		.uleb128 .LEHE108-.LEHB108
 4088 02bb 00       		.uleb128 0
 4089 02bc 00       		.uleb128 0
 4090 02bd 9001     		.uleb128 .LEHB109-.LFB1219
 4091 02bf A201     		.uleb128 .LEHE109-.LEHB109
 4092 02c1 C302     		.uleb128 .L194-.LFB1219
 4093 02c3 00       		.uleb128 0
 4094 02c4 BC02     		.uleb128 .LEHB110-.LFB1219
 4095 02c6 05       		.uleb128 .LEHE110-.LEHB110
 4096 02c7 00       		.uleb128 0
 4097 02c8 00       		.uleb128 0
 4098 02c9 DF02     		.uleb128 .LEHB111-.LFB1219
 4099 02cb 05       		.uleb128 .LEHE111-.LEHB111
 4100 02cc 00       		.uleb128 0
 4101 02cd 00       		.uleb128 0
 4102              	.LLSDACSE1219:
 4103              		.section	.text._ZN8UnitTest10CheckCloseIfffEEvRNS_11TestResultsERKT_RKT0_RKT1_RKNS_11TestDetailsE,
 4105              		.section	.text._ZN8UnitTest8AreCloseIfffEEbRKT_RKT0_RKT1_,"axG",@progbits,_ZN8UnitTest8AreCloseIff
 4106              		.weak	_ZN8UnitTest8AreCloseIfffEEbRKT_RKT0_RKT1_
 4108              	_ZN8UnitTest8AreCloseIfffEEbRKT_RKT0_RKT1_:
 4109              	.LFB1247:
  39:../Checks.h   **** {
 4110              		.loc 6 39 6
 4111              		.cfi_startproc
 4112 0000 F30F1EFA 		endbr64
 4113 0004 55       		pushq	%rbp
 4114              		.cfi_def_cfa_offset 16
 4115              		.cfi_offset 6, -16
 4116 0005 4889E5   		movq	%rsp, %rbp
 4117              		.cfi_def_cfa_register 6
 4118 0008 48897DF8 		movq	%rdi, -8(%rbp)
 4119 000c 488975F0 		movq	%rsi, -16(%rbp)
 4120 0010 488955E8 		movq	%rdx, -24(%rbp)
  41:../Checks.h   **** }
 4121              		.loc 6 41 20
 4122 0014 488B45F0 		movq	-16(%rbp), %rax
 4123 0018 F30F1000 		movss	(%rax), %xmm0
  41:../Checks.h   **** }
 4124              		.loc 6 41 33
 4125 001c 488B45F8 		movq	-8(%rbp), %rax
 4126 0020 F30F1008 		movss	(%rax), %xmm1
 4127 0024 488B45E8 		movq	-24(%rbp), %rax
 4128 0028 F30F1010 		movss	(%rax), %xmm2
 4129 002c F30F5CCA 		subss	%xmm2, %xmm1
  41:../Checks.h   **** }
 4130              		.loc 6 41 47
 4131 0030 0F2FC1   		comiss	%xmm1, %xmm0
 4132 0033 7228     		jb	.L197
  41:../Checks.h   **** }
 4133              		.loc 6 41 58 discriminator 1
 4134 0035 488B45F0 		movq	-16(%rbp), %rax
 4135 0039 F30F1008 		movss	(%rax), %xmm1
  41:../Checks.h   **** }
 4136              		.loc 6 41 71 discriminator 1
 4137 003d 488B45F8 		movq	-8(%rbp), %rax
 4138 0041 F30F1010 		movss	(%rax), %xmm2
 4139 0045 488B45E8 		movq	-24(%rbp), %rax
 4140 0049 F30F1000 		movss	(%rax), %xmm0
 4141 004d F30F58C2 		addss	%xmm2, %xmm0
  41:../Checks.h   **** }
 4142              		.loc 6 41 47 discriminator 1
 4143 0051 0F2FC1   		comiss	%xmm1, %xmm0
 4144 0054 7207     		jb	.L197
  41:../Checks.h   **** }
 4145              		.loc 6 41 47 is_stmt 0 discriminator 3
 4146 0056 B8010000 		movl	$1, %eax
 4146      00
 4147 005b EB05     		jmp	.L200
 4148              	.L197:
  41:../Checks.h   **** }
 4149              		.loc 6 41 47 discriminator 4
 4150 005d B8000000 		movl	$0, %eax
 4150      00
 4151              	.L200:
  42:../Checks.h   **** 
 4152              		.loc 6 42 1 is_stmt 1 discriminator 6
 4153 0062 5D       		popq	%rbp
 4154              		.cfi_def_cfa 7, 8
 4155 0063 C3       		ret
 4156              		.cfi_endproc
 4157              	.LFE1247:
 4159              		.section	.data.rel.ro.local,"aw"
 4160              		.align 8
 4163              	_ZTVN12_GLOBAL__N_129TestNotifiesReporterOfTestEndE:
 4164 0000 00000000 		.quad	0
 4164      00000000 
 4165 0008 00000000 		.quad	_ZTIN12_GLOBAL__N_129TestNotifiesReporterOfTestEndE
 4165      00000000 
 4166 0010 00000000 		.quad	_ZN12_GLOBAL__N_129TestNotifiesReporterOfTestEndD1Ev
 4166      00000000 
 4167 0018 00000000 		.quad	_ZN12_GLOBAL__N_129TestNotifiesReporterOfTestEndD0Ev
 4167      00000000 
 4168 0020 00000000 		.quad	_ZNK12_GLOBAL__N_129TestNotifiesReporterOfTestEnd7RunImplEv
 4168      00000000 
 4169              		.text
 4170 1a1b 90       		.align 2
 4172              	_ZN12_GLOBAL__N_129TestNotifiesReporterOfTestEndD2Ev:
 4173              	.LFB1275:
  98:TestTestResults.cpp **** {
 4174              		.loc 5 98 1
 4175              		.cfi_startproc
 4176 1a1c F30F1EFA 		endbr64
 4177 1a20 55       		pushq	%rbp
 4178              		.cfi_def_cfa_offset 16
 4179              		.cfi_offset 6, -16
 4180 1a21 4889E5   		movq	%rsp, %rbp
 4181              		.cfi_def_cfa_register 6
 4182 1a24 4883EC10 		subq	$16, %rsp
 4183 1a28 48897DF8 		movq	%rdi, -8(%rbp)
 4184              	.LBB25:
  98:TestTestResults.cpp **** {
 4185              		.loc 5 98 1
 4186 1a2c 488D1500 		leaq	16+_ZTVN12_GLOBAL__N_129TestNotifiesReporterOfTestEndE(%rip), %rdx
 4186      000000
 4187 1a33 488B45F8 		movq	-8(%rbp), %rax
 4188 1a37 488910   		movq	%rdx, (%rax)
 4189 1a3a 488B45F8 		movq	-8(%rbp), %rax
 4190 1a3e 4889C7   		movq	%rax, %rdi
 4191 1a41 E8000000 		call	_ZN8UnitTest4TestD2Ev@PLT
 4191      00
 4192              	.LBE25:
 4193 1a46 90       		nop
 4194 1a47 C9       		leave
 4195              		.cfi_def_cfa 7, 8
 4196 1a48 C3       		ret
 4197              		.cfi_endproc
 4198              	.LFE1275:
 4200              		.set	_ZN12_GLOBAL__N_129TestNotifiesReporterOfTestEndD1Ev,_ZN12_GLOBAL__N_129TestNotifiesReporterO
 4201 1a49 90       		.align 2
 4203              	_ZN12_GLOBAL__N_129TestNotifiesReporterOfTestEndD0Ev:
 4204              	.LFB1277:
  98:TestTestResults.cpp **** {
 4205              		.loc 5 98 1
 4206              		.cfi_startproc
 4207              		.cfi_personality 0x9b,DW.ref.__gxx_personality_v0
 4208              		.cfi_lsda 0x1b,.LLSDA1277
 4209 1a4a F30F1EFA 		endbr64
 4210 1a4e 55       		pushq	%rbp
 4211              		.cfi_def_cfa_offset 16
 4212              		.cfi_offset 6, -16
 4213 1a4f 4889E5   		movq	%rsp, %rbp
 4214              		.cfi_def_cfa_register 6
 4215 1a52 53       		pushq	%rbx
 4216 1a53 4883EC18 		subq	$24, %rsp
 4217              		.cfi_offset 3, -24
 4218 1a57 48897DE8 		movq	%rdi, -24(%rbp)
  98:TestTestResults.cpp **** {
 4219              		.loc 5 98 1
 4220 1a5b 488B45E8 		movq	-24(%rbp), %rax
 4221 1a5f 4889C7   		movq	%rax, %rdi
 4222              	.LEHB112:
 4223 1a62 E8B5FFFF 		call	_ZN12_GLOBAL__N_129TestNotifiesReporterOfTestEndD1Ev
 4223      FF
 4224              	.LEHE112:
  98:TestTestResults.cpp **** {
 4225              		.loc 5 98 1 is_stmt 0 discriminator 2
 4226 1a67 488B45E8 		movq	-24(%rbp), %rax
 4227 1a6b 4889C7   		movq	%rax, %rdi
 4228 1a6e E8000000 		call	_ZdlPv@PLT
 4228      00
 4229 1a73 EB1E     		jmp	.L208
 4230              	.L207:
 4231 1a75 F30F1EFA 		endbr64
  98:TestTestResults.cpp **** {
 4232              		.loc 5 98 1
 4233 1a79 4889C3   		movq	%rax, %rbx
 4234 1a7c 488B45E8 		movq	-24(%rbp), %rax
 4235 1a80 4889C7   		movq	%rax, %rdi
 4236 1a83 E8000000 		call	_ZdlPv@PLT
 4236      00
 4237 1a88 4889D8   		movq	%rbx, %rax
 4238 1a8b 4889C7   		movq	%rax, %rdi
 4239              	.LEHB113:
 4240 1a8e E8000000 		call	_Unwind_Resume@PLT
 4240      00
 4241              	.LEHE113:
 4242              	.L208:
 4243 1a93 488B5DF8 		movq	-8(%rbp), %rbx
 4244 1a97 C9       		leave
 4245              		.cfi_def_cfa 7, 8
 4246 1a98 C3       		ret
 4247              		.cfi_endproc
 4248              	.LFE1277:
 4249              		.section	.gcc_except_table
 4250              	.LLSDA1277:
 4251 02ce FF       		.byte	0xff
 4252 02cf FF       		.byte	0xff
 4253 02d0 01       		.byte	0x1
 4254 02d1 08       		.uleb128 .LLSDACSE1277-.LLSDACSB1277
 4255              	.LLSDACSB1277:
 4256 02d2 18       		.uleb128 .LEHB112-.LFB1277
 4257 02d3 05       		.uleb128 .LEHE112-.LEHB112
 4258 02d4 2B       		.uleb128 .L207-.LFB1277
 4259 02d5 00       		.uleb128 0
 4260 02d6 44       		.uleb128 .LEHB113-.LFB1277
 4261 02d7 05       		.uleb128 .LEHE113-.LEHB113
 4262 02d8 00       		.uleb128 0
 4263 02d9 00       		.uleb128 0
 4264              	.LLSDACSE1277:
 4265              		.text
 4267              		.section	.data.rel.ro.local
 4268              		.align 8
 4271              	_ZTVN12_GLOBAL__N_149TestNotifiesReporterOfCheckFailureWithCorrectInfoE:
 4272 0028 00000000 		.quad	0
 4272      00000000 
 4273 0030 00000000 		.quad	_ZTIN12_GLOBAL__N_149TestNotifiesReporterOfCheckFailureWithCorrectInfoE
 4273      00000000 
 4274 0038 00000000 		.quad	_ZN12_GLOBAL__N_149TestNotifiesReporterOfCheckFailureWithCorrectInfoD1Ev
 4274      00000000 
 4275 0040 00000000 		.quad	_ZN12_GLOBAL__N_149TestNotifiesReporterOfCheckFailureWithCorrectInfoD0Ev
 4275      00000000 
 4276 0048 00000000 		.quad	_ZNK12_GLOBAL__N_149TestNotifiesReporterOfCheckFailureWithCorrectInfo7RunImplEv
 4276      00000000 
 4277              		.text
 4278 1a99 90       		.align 2
 4280              	_ZN12_GLOBAL__N_149TestNotifiesReporterOfCheckFailureWithCorrectInfoD2Ev:
 4281              	.LFB1279:
  83:TestTestResults.cpp **** {
 4282              		.loc 5 83 1 is_stmt 1
 4283              		.cfi_startproc
 4284 1a9a F30F1EFA 		endbr64
 4285 1a9e 55       		pushq	%rbp
 4286              		.cfi_def_cfa_offset 16
 4287              		.cfi_offset 6, -16
 4288 1a9f 4889E5   		movq	%rsp, %rbp
 4289              		.cfi_def_cfa_register 6
 4290 1aa2 4883EC10 		subq	$16, %rsp
 4291 1aa6 48897DF8 		movq	%rdi, -8(%rbp)
 4292              	.LBB26:
  83:TestTestResults.cpp **** {
 4293              		.loc 5 83 1
 4294 1aaa 488D1500 		leaq	16+_ZTVN12_GLOBAL__N_149TestNotifiesReporterOfCheckFailureWithCorrectInfoE(%rip), %rdx
 4294      000000
 4295 1ab1 488B45F8 		movq	-8(%rbp), %rax
 4296 1ab5 488910   		movq	%rdx, (%rax)
 4297 1ab8 488B45F8 		movq	-8(%rbp), %rax
 4298 1abc 4889C7   		movq	%rax, %rdi
 4299 1abf E8000000 		call	_ZN8UnitTest4TestD2Ev@PLT
 4299      00
 4300              	.LBE26:
 4301 1ac4 90       		nop
 4302 1ac5 C9       		leave
 4303              		.cfi_def_cfa 7, 8
 4304 1ac6 C3       		ret
 4305              		.cfi_endproc
 4306              	.LFE1279:
 4308              		.set	_ZN12_GLOBAL__N_149TestNotifiesReporterOfCheckFailureWithCorrectInfoD1Ev,_ZN12_GLOBAL__N_149T
 4309 1ac7 90       		.align 2
 4311              	_ZN12_GLOBAL__N_149TestNotifiesReporterOfCheckFailureWithCorrectInfoD0Ev:
 4312              	.LFB1281:
  83:TestTestResults.cpp **** {
 4313              		.loc 5 83 1
 4314              		.cfi_startproc
 4315              		.cfi_personality 0x9b,DW.ref.__gxx_personality_v0
 4316              		.cfi_lsda 0x1b,.LLSDA1281
 4317 1ac8 F30F1EFA 		endbr64
 4318 1acc 55       		pushq	%rbp
 4319              		.cfi_def_cfa_offset 16
 4320              		.cfi_offset 6, -16
 4321 1acd 4889E5   		movq	%rsp, %rbp
 4322              		.cfi_def_cfa_register 6
 4323 1ad0 53       		pushq	%rbx
 4324 1ad1 4883EC18 		subq	$24, %rsp
 4325              		.cfi_offset 3, -24
 4326 1ad5 48897DE8 		movq	%rdi, -24(%rbp)
  83:TestTestResults.cpp **** {
 4327              		.loc 5 83 1
 4328 1ad9 488B45E8 		movq	-24(%rbp), %rax
 4329 1add 4889C7   		movq	%rax, %rdi
 4330              	.LEHB114:
 4331 1ae0 E8B5FFFF 		call	_ZN12_GLOBAL__N_149TestNotifiesReporterOfCheckFailureWithCorrectInfoD1Ev
 4331      FF
 4332              	.LEHE114:
  83:TestTestResults.cpp **** {
 4333              		.loc 5 83 1 is_stmt 0 discriminator 2
 4334 1ae5 488B45E8 		movq	-24(%rbp), %rax
 4335 1ae9 4889C7   		movq	%rax, %rdi
 4336 1aec E8000000 		call	_ZdlPv@PLT
 4336      00
 4337 1af1 EB1E     		jmp	.L213
 4338              	.L212:
 4339 1af3 F30F1EFA 		endbr64
  83:TestTestResults.cpp **** {
 4340              		.loc 5 83 1
 4341 1af7 4889C3   		movq	%rax, %rbx
 4342 1afa 488B45E8 		movq	-24(%rbp), %rax
 4343 1afe 4889C7   		movq	%rax, %rdi
 4344 1b01 E8000000 		call	_ZdlPv@PLT
 4344      00
 4345 1b06 4889D8   		movq	%rbx, %rax
 4346 1b09 4889C7   		movq	%rax, %rdi
 4347              	.LEHB115:
 4348 1b0c E8000000 		call	_Unwind_Resume@PLT
 4348      00
 4349              	.LEHE115:
 4350              	.L213:
 4351 1b11 488B5DF8 		movq	-8(%rbp), %rbx
 4352 1b15 C9       		leave
 4353              		.cfi_def_cfa 7, 8
 4354 1b16 C3       		ret
 4355              		.cfi_endproc
 4356              	.LFE1281:
 4357              		.section	.gcc_except_table
 4358              	.LLSDA1281:
 4359 02da FF       		.byte	0xff
 4360 02db FF       		.byte	0xff
 4361 02dc 01       		.byte	0x1
 4362 02dd 08       		.uleb128 .LLSDACSE1281-.LLSDACSB1281
 4363              	.LLSDACSB1281:
 4364 02de 18       		.uleb128 .LEHB114-.LFB1281
 4365 02df 05       		.uleb128 .LEHE114-.LEHB114
 4366 02e0 2B       		.uleb128 .L212-.LFB1281
 4367 02e1 00       		.uleb128 0
 4368 02e2 44       		.uleb128 .LEHB115-.LFB1281
 4369 02e3 05       		.uleb128 .LEHE115-.LEHB115
 4370 02e4 00       		.uleb128 0
 4371 02e5 00       		.uleb128 0
 4372              	.LLSDACSE1281:
 4373              		.text
 4375              		.section	.data.rel.ro.local
 4376              		.align 8
 4379              	_ZTVN12_GLOBAL__N_148TestNotifiesReporterOfTestFailureWithCorrectInfoE:
 4380 0050 00000000 		.quad	0
 4380      00000000 
 4381 0058 00000000 		.quad	_ZTIN12_GLOBAL__N_148TestNotifiesReporterOfTestFailureWithCorrectInfoE
 4381      00000000 
 4382 0060 00000000 		.quad	_ZN12_GLOBAL__N_148TestNotifiesReporterOfTestFailureWithCorrectInfoD1Ev
 4382      00000000 
 4383 0068 00000000 		.quad	_ZN12_GLOBAL__N_148TestNotifiesReporterOfTestFailureWithCorrectInfoD0Ev
 4383      00000000 
 4384 0070 00000000 		.quad	_ZNK12_GLOBAL__N_148TestNotifiesReporterOfTestFailureWithCorrectInfo7RunImplEv
 4384      00000000 
 4385              		.text
 4386 1b17 90       		.align 2
 4388              	_ZN12_GLOBAL__N_148TestNotifiesReporterOfTestFailureWithCorrectInfoD2Ev:
 4389              	.LFB1283:
  69:TestTestResults.cpp **** {
 4390              		.loc 5 69 1 is_stmt 1
 4391              		.cfi_startproc
 4392 1b18 F30F1EFA 		endbr64
 4393 1b1c 55       		pushq	%rbp
 4394              		.cfi_def_cfa_offset 16
 4395              		.cfi_offset 6, -16
 4396 1b1d 4889E5   		movq	%rsp, %rbp
 4397              		.cfi_def_cfa_register 6
 4398 1b20 4883EC10 		subq	$16, %rsp
 4399 1b24 48897DF8 		movq	%rdi, -8(%rbp)
 4400              	.LBB27:
  69:TestTestResults.cpp **** {
 4401              		.loc 5 69 1
 4402 1b28 488D1500 		leaq	16+_ZTVN12_GLOBAL__N_148TestNotifiesReporterOfTestFailureWithCorrectInfoE(%rip), %rdx
 4402      000000
 4403 1b2f 488B45F8 		movq	-8(%rbp), %rax
 4404 1b33 488910   		movq	%rdx, (%rax)
 4405 1b36 488B45F8 		movq	-8(%rbp), %rax
 4406 1b3a 4889C7   		movq	%rax, %rdi
 4407 1b3d E8000000 		call	_ZN8UnitTest4TestD2Ev@PLT
 4407      00
 4408              	.LBE27:
 4409 1b42 90       		nop
 4410 1b43 C9       		leave
 4411              		.cfi_def_cfa 7, 8
 4412 1b44 C3       		ret
 4413              		.cfi_endproc
 4414              	.LFE1283:
 4416              		.set	_ZN12_GLOBAL__N_148TestNotifiesReporterOfTestFailureWithCorrectInfoD1Ev,_ZN12_GLOBAL__N_148Te
 4417 1b45 90       		.align 2
 4419              	_ZN12_GLOBAL__N_148TestNotifiesReporterOfTestFailureWithCorrectInfoD0Ev:
 4420              	.LFB1285:
  69:TestTestResults.cpp **** {
 4421              		.loc 5 69 1
 4422              		.cfi_startproc
 4423              		.cfi_personality 0x9b,DW.ref.__gxx_personality_v0
 4424              		.cfi_lsda 0x1b,.LLSDA1285
 4425 1b46 F30F1EFA 		endbr64
 4426 1b4a 55       		pushq	%rbp
 4427              		.cfi_def_cfa_offset 16
 4428              		.cfi_offset 6, -16
 4429 1b4b 4889E5   		movq	%rsp, %rbp
 4430              		.cfi_def_cfa_register 6
 4431 1b4e 53       		pushq	%rbx
 4432 1b4f 4883EC18 		subq	$24, %rsp
 4433              		.cfi_offset 3, -24
 4434 1b53 48897DE8 		movq	%rdi, -24(%rbp)
  69:TestTestResults.cpp **** {
 4435              		.loc 5 69 1
 4436 1b57 488B45E8 		movq	-24(%rbp), %rax
 4437 1b5b 4889C7   		movq	%rax, %rdi
 4438              	.LEHB116:
 4439 1b5e E8B5FFFF 		call	_ZN12_GLOBAL__N_148TestNotifiesReporterOfTestFailureWithCorrectInfoD1Ev
 4439      FF
 4440              	.LEHE116:
  69:TestTestResults.cpp **** {
 4441              		.loc 5 69 1 is_stmt 0 discriminator 2
 4442 1b63 488B45E8 		movq	-24(%rbp), %rax
 4443 1b67 4889C7   		movq	%rax, %rdi
 4444 1b6a E8000000 		call	_ZdlPv@PLT
 4444      00
 4445 1b6f EB1E     		jmp	.L218
 4446              	.L217:
 4447 1b71 F30F1EFA 		endbr64
  69:TestTestResults.cpp **** {
 4448              		.loc 5 69 1
 4449 1b75 4889C3   		movq	%rax, %rbx
 4450 1b78 488B45E8 		movq	-24(%rbp), %rax
 4451 1b7c 4889C7   		movq	%rax, %rdi
 4452 1b7f E8000000 		call	_ZdlPv@PLT
 4452      00
 4453 1b84 4889D8   		movq	%rbx, %rax
 4454 1b87 4889C7   		movq	%rax, %rdi
 4455              	.LEHB117:
 4456 1b8a E8000000 		call	_Unwind_Resume@PLT
 4456      00
 4457              	.LEHE117:
 4458              	.L218:
 4459 1b8f 488B5DF8 		movq	-8(%rbp), %rbx
 4460 1b93 C9       		leave
 4461              		.cfi_def_cfa 7, 8
 4462 1b94 C3       		ret
 4463              		.cfi_endproc
 4464              	.LFE1285:
 4465              		.section	.gcc_except_table
 4466              	.LLSDA1285:
 4467 02e6 FF       		.byte	0xff
 4468 02e7 FF       		.byte	0xff
 4469 02e8 01       		.byte	0x1
 4470 02e9 08       		.uleb128 .LLSDACSE1285-.LLSDACSB1285
 4471              	.LLSDACSB1285:
 4472 02ea 18       		.uleb128 .LEHB116-.LFB1285
 4473 02eb 05       		.uleb128 .LEHE116-.LEHB116
 4474 02ec 2B       		.uleb128 .L217-.LFB1285
 4475 02ed 00       		.uleb128 0
 4476 02ee 44       		.uleb128 .LEHB117-.LFB1285
 4477 02ef 05       		.uleb128 .LEHE117-.LEHB117
 4478 02f0 00       		.uleb128 0
 4479 02f1 00       		.uleb128 0
 4480              	.LLSDACSE1285:
 4481              		.text
 4483              		.section	.data.rel.ro.local
 4484              		.align 8
 4487              	_ZTVN12_GLOBAL__N_146TestNotifiesReporterOfTestStartWithCorrectInfoE:
 4488 0078 00000000 		.quad	0
 4488      00000000 
 4489 0080 00000000 		.quad	_ZTIN12_GLOBAL__N_146TestNotifiesReporterOfTestStartWithCorrectInfoE
 4489      00000000 
 4490 0088 00000000 		.quad	_ZN12_GLOBAL__N_146TestNotifiesReporterOfTestStartWithCorrectInfoD1Ev
 4490      00000000 
 4491 0090 00000000 		.quad	_ZN12_GLOBAL__N_146TestNotifiesReporterOfTestStartWithCorrectInfoD0Ev
 4491      00000000 
 4492 0098 00000000 		.quad	_ZNK12_GLOBAL__N_146TestNotifiesReporterOfTestStartWithCorrectInfo7RunImplEv
 4492      00000000 
 4493              		.text
 4494 1b95 90       		.align 2
 4496              	_ZN12_GLOBAL__N_146TestNotifiesReporterOfTestStartWithCorrectInfoD2Ev:
 4497              	.LFB1287:
  58:TestTestResults.cpp **** {
 4498              		.loc 5 58 1 is_stmt 1
 4499              		.cfi_startproc
 4500 1b96 F30F1EFA 		endbr64
 4501 1b9a 55       		pushq	%rbp
 4502              		.cfi_def_cfa_offset 16
 4503              		.cfi_offset 6, -16
 4504 1b9b 4889E5   		movq	%rsp, %rbp
 4505              		.cfi_def_cfa_register 6
 4506 1b9e 4883EC10 		subq	$16, %rsp
 4507 1ba2 48897DF8 		movq	%rdi, -8(%rbp)
 4508              	.LBB28:
  58:TestTestResults.cpp **** {
 4509              		.loc 5 58 1
 4510 1ba6 488D1500 		leaq	16+_ZTVN12_GLOBAL__N_146TestNotifiesReporterOfTestStartWithCorrectInfoE(%rip), %rdx
 4510      000000
 4511 1bad 488B45F8 		movq	-8(%rbp), %rax
 4512 1bb1 488910   		movq	%rdx, (%rax)
 4513 1bb4 488B45F8 		movq	-8(%rbp), %rax
 4514 1bb8 4889C7   		movq	%rax, %rdi
 4515 1bbb E8000000 		call	_ZN8UnitTest4TestD2Ev@PLT
 4515      00
 4516              	.LBE28:
 4517 1bc0 90       		nop
 4518 1bc1 C9       		leave
 4519              		.cfi_def_cfa 7, 8
 4520 1bc2 C3       		ret
 4521              		.cfi_endproc
 4522              	.LFE1287:
 4524              		.set	_ZN12_GLOBAL__N_146TestNotifiesReporterOfTestStartWithCorrectInfoD1Ev,_ZN12_GLOBAL__N_146Test
 4525 1bc3 90       		.align 2
 4527              	_ZN12_GLOBAL__N_146TestNotifiesReporterOfTestStartWithCorrectInfoD0Ev:
 4528              	.LFB1289:
  58:TestTestResults.cpp **** {
 4529              		.loc 5 58 1
 4530              		.cfi_startproc
 4531              		.cfi_personality 0x9b,DW.ref.__gxx_personality_v0
 4532              		.cfi_lsda 0x1b,.LLSDA1289
 4533 1bc4 F30F1EFA 		endbr64
 4534 1bc8 55       		pushq	%rbp
 4535              		.cfi_def_cfa_offset 16
 4536              		.cfi_offset 6, -16
 4537 1bc9 4889E5   		movq	%rsp, %rbp
 4538              		.cfi_def_cfa_register 6
 4539 1bcc 53       		pushq	%rbx
 4540 1bcd 4883EC18 		subq	$24, %rsp
 4541              		.cfi_offset 3, -24
 4542 1bd1 48897DE8 		movq	%rdi, -24(%rbp)
  58:TestTestResults.cpp **** {
 4543              		.loc 5 58 1
 4544 1bd5 488B45E8 		movq	-24(%rbp), %rax
 4545 1bd9 4889C7   		movq	%rax, %rdi
 4546              	.LEHB118:
 4547 1bdc E8B5FFFF 		call	_ZN12_GLOBAL__N_146TestNotifiesReporterOfTestStartWithCorrectInfoD1Ev
 4547      FF
 4548              	.LEHE118:
  58:TestTestResults.cpp **** {
 4549              		.loc 5 58 1 is_stmt 0 discriminator 2
 4550 1be1 488B45E8 		movq	-24(%rbp), %rax
 4551 1be5 4889C7   		movq	%rax, %rdi
 4552 1be8 E8000000 		call	_ZdlPv@PLT
 4552      00
 4553 1bed EB1E     		jmp	.L223
 4554              	.L222:
 4555 1bef F30F1EFA 		endbr64
  58:TestTestResults.cpp **** {
 4556              		.loc 5 58 1
 4557 1bf3 4889C3   		movq	%rax, %rbx
 4558 1bf6 488B45E8 		movq	-24(%rbp), %rax
 4559 1bfa 4889C7   		movq	%rax, %rdi
 4560 1bfd E8000000 		call	_ZdlPv@PLT
 4560      00
 4561 1c02 4889D8   		movq	%rbx, %rax
 4562 1c05 4889C7   		movq	%rax, %rdi
 4563              	.LEHB119:
 4564 1c08 E8000000 		call	_Unwind_Resume@PLT
 4564      00
 4565              	.LEHE119:
 4566              	.L223:
 4567 1c0d 488B5DF8 		movq	-8(%rbp), %rbx
 4568 1c11 C9       		leave
 4569              		.cfi_def_cfa 7, 8
 4570 1c12 C3       		ret
 4571              		.cfi_endproc
 4572              	.LFE1289:
 4573              		.section	.gcc_except_table
 4574              	.LLSDA1289:
 4575 02f2 FF       		.byte	0xff
 4576 02f3 FF       		.byte	0xff
 4577 02f4 01       		.byte	0x1
 4578 02f5 08       		.uleb128 .LLSDACSE1289-.LLSDACSB1289
 4579              	.LLSDACSB1289:
 4580 02f6 18       		.uleb128 .LEHB118-.LFB1289
 4581 02f7 05       		.uleb128 .LEHE118-.LEHB118
 4582 02f8 2B       		.uleb128 .L222-.LFB1289
 4583 02f9 00       		.uleb128 0
 4584 02fa 44       		.uleb128 .LEHB119-.LFB1289
 4585 02fb 05       		.uleb128 .LEHE119-.LEHB119
 4586 02fc 00       		.uleb128 0
 4587 02fd 00       		.uleb128 0
 4588              	.LLSDACSE1289:
 4589              		.text
 4591              		.section	.data.rel.ro.local
 4592              		.align 8
 4595              	_ZTVN12_GLOBAL__N_130TestRecordsNumberOfFailedTestsE:
 4596 00a0 00000000 		.quad	0
 4596      00000000 
 4597 00a8 00000000 		.quad	_ZTIN12_GLOBAL__N_130TestRecordsNumberOfFailedTestsE
 4597      00000000 
 4598 00b0 00000000 		.quad	_ZN12_GLOBAL__N_130TestRecordsNumberOfFailedTestsD1Ev
 4598      00000000 
 4599 00b8 00000000 		.quad	_ZN12_GLOBAL__N_130TestRecordsNumberOfFailedTestsD0Ev
 4599      00000000 
 4600 00c0 00000000 		.quad	_ZNK12_GLOBAL__N_130TestRecordsNumberOfFailedTests7RunImplEv
 4600      00000000 
 4601              		.text
 4602 1c13 90       		.align 2
 4604              	_ZN12_GLOBAL__N_130TestRecordsNumberOfFailedTestsD2Ev:
 4605              	.LFB1291:
  41:TestTestResults.cpp **** {
 4606              		.loc 5 41 1 is_stmt 1
 4607              		.cfi_startproc
 4608 1c14 F30F1EFA 		endbr64
 4609 1c18 55       		pushq	%rbp
 4610              		.cfi_def_cfa_offset 16
 4611              		.cfi_offset 6, -16
 4612 1c19 4889E5   		movq	%rsp, %rbp
 4613              		.cfi_def_cfa_register 6
 4614 1c1c 4883EC10 		subq	$16, %rsp
 4615 1c20 48897DF8 		movq	%rdi, -8(%rbp)
 4616              	.LBB29:
  41:TestTestResults.cpp **** {
 4617              		.loc 5 41 1
 4618 1c24 488D1500 		leaq	16+_ZTVN12_GLOBAL__N_130TestRecordsNumberOfFailedTestsE(%rip), %rdx
 4618      000000
 4619 1c2b 488B45F8 		movq	-8(%rbp), %rax
 4620 1c2f 488910   		movq	%rdx, (%rax)
 4621 1c32 488B45F8 		movq	-8(%rbp), %rax
 4622 1c36 4889C7   		movq	%rax, %rdi
 4623 1c39 E8000000 		call	_ZN8UnitTest4TestD2Ev@PLT
 4623      00
 4624              	.LBE29:
 4625 1c3e 90       		nop
 4626 1c3f C9       		leave
 4627              		.cfi_def_cfa 7, 8
 4628 1c40 C3       		ret
 4629              		.cfi_endproc
 4630              	.LFE1291:
 4632              		.set	_ZN12_GLOBAL__N_130TestRecordsNumberOfFailedTestsD1Ev,_ZN12_GLOBAL__N_130TestRecordsNumberOfF
 4633 1c41 90       		.align 2
 4635              	_ZN12_GLOBAL__N_130TestRecordsNumberOfFailedTestsD0Ev:
 4636              	.LFB1293:
  41:TestTestResults.cpp **** {
 4637              		.loc 5 41 1
 4638              		.cfi_startproc
 4639              		.cfi_personality 0x9b,DW.ref.__gxx_personality_v0
 4640              		.cfi_lsda 0x1b,.LLSDA1293
 4641 1c42 F30F1EFA 		endbr64
 4642 1c46 55       		pushq	%rbp
 4643              		.cfi_def_cfa_offset 16
 4644              		.cfi_offset 6, -16
 4645 1c47 4889E5   		movq	%rsp, %rbp
 4646              		.cfi_def_cfa_register 6
 4647 1c4a 53       		pushq	%rbx
 4648 1c4b 4883EC18 		subq	$24, %rsp
 4649              		.cfi_offset 3, -24
 4650 1c4f 48897DE8 		movq	%rdi, -24(%rbp)
  41:TestTestResults.cpp **** {
 4651              		.loc 5 41 1
 4652 1c53 488B45E8 		movq	-24(%rbp), %rax
 4653 1c57 4889C7   		movq	%rax, %rdi
 4654              	.LEHB120:
 4655 1c5a E8B5FFFF 		call	_ZN12_GLOBAL__N_130TestRecordsNumberOfFailedTestsD1Ev
 4655      FF
 4656              	.LEHE120:
  41:TestTestResults.cpp **** {
 4657              		.loc 5 41 1 is_stmt 0 discriminator 2
 4658 1c5f 488B45E8 		movq	-24(%rbp), %rax
 4659 1c63 4889C7   		movq	%rax, %rdi
 4660 1c66 E8000000 		call	_ZdlPv@PLT
 4660      00
 4661 1c6b EB1E     		jmp	.L228
 4662              	.L227:
 4663 1c6d F30F1EFA 		endbr64
  41:TestTestResults.cpp **** {
 4664              		.loc 5 41 1
 4665 1c71 4889C3   		movq	%rax, %rbx
 4666 1c74 488B45E8 		movq	-24(%rbp), %rax
 4667 1c78 4889C7   		movq	%rax, %rdi
 4668 1c7b E8000000 		call	_ZdlPv@PLT
 4668      00
 4669 1c80 4889D8   		movq	%rbx, %rax
 4670 1c83 4889C7   		movq	%rax, %rdi
 4671              	.LEHB121:
 4672 1c86 E8000000 		call	_Unwind_Resume@PLT
 4672      00
 4673              	.LEHE121:
 4674              	.L228:
 4675 1c8b 488B5DF8 		movq	-8(%rbp), %rbx
 4676 1c8f C9       		leave
 4677              		.cfi_def_cfa 7, 8
 4678 1c90 C3       		ret
 4679              		.cfi_endproc
 4680              	.LFE1293:
 4681              		.section	.gcc_except_table
 4682              	.LLSDA1293:
 4683 02fe FF       		.byte	0xff
 4684 02ff FF       		.byte	0xff
 4685 0300 01       		.byte	0x1
 4686 0301 08       		.uleb128 .LLSDACSE1293-.LLSDACSB1293
 4687              	.LLSDACSB1293:
 4688 0302 18       		.uleb128 .LEHB120-.LFB1293
 4689 0303 05       		.uleb128 .LEHE120-.LEHB120
 4690 0304 2B       		.uleb128 .L227-.LFB1293
 4691 0305 00       		.uleb128 0
 4692 0306 44       		.uleb128 .LEHB121-.LFB1293
 4693 0307 05       		.uleb128 .LEHE121-.LEHB121
 4694 0308 00       		.uleb128 0
 4695 0309 00       		.uleb128 0
 4696              	.LLSDACSE1293:
 4697              		.text
 4699              		.section	.data.rel.ro.local
 4700              		.align 8
 4703              	_ZTVN12_GLOBAL__N_127TestRecordsNumberOfFailuresE:
 4704 00c8 00000000 		.quad	0
 4704      00000000 
 4705 00d0 00000000 		.quad	_ZTIN12_GLOBAL__N_127TestRecordsNumberOfFailuresE
 4705      00000000 
 4706 00d8 00000000 		.quad	_ZN12_GLOBAL__N_127TestRecordsNumberOfFailuresD1Ev
 4706      00000000 
 4707 00e0 00000000 		.quad	_ZN12_GLOBAL__N_127TestRecordsNumberOfFailuresD0Ev
 4707      00000000 
 4708 00e8 00000000 		.quad	_ZNK12_GLOBAL__N_127TestRecordsNumberOfFailures7RunImplEv
 4708      00000000 
 4709              		.text
 4710 1c91 90       		.align 2
 4712              	_ZN12_GLOBAL__N_127TestRecordsNumberOfFailuresD2Ev:
 4713              	.LFB1295:
  33:TestTestResults.cpp **** {
 4714              		.loc 5 33 1 is_stmt 1
 4715              		.cfi_startproc
 4716 1c92 F30F1EFA 		endbr64
 4717 1c96 55       		pushq	%rbp
 4718              		.cfi_def_cfa_offset 16
 4719              		.cfi_offset 6, -16
 4720 1c97 4889E5   		movq	%rsp, %rbp
 4721              		.cfi_def_cfa_register 6
 4722 1c9a 4883EC10 		subq	$16, %rsp
 4723 1c9e 48897DF8 		movq	%rdi, -8(%rbp)
 4724              	.LBB30:
  33:TestTestResults.cpp **** {
 4725              		.loc 5 33 1
 4726 1ca2 488D1500 		leaq	16+_ZTVN12_GLOBAL__N_127TestRecordsNumberOfFailuresE(%rip), %rdx
 4726      000000
 4727 1ca9 488B45F8 		movq	-8(%rbp), %rax
 4728 1cad 488910   		movq	%rdx, (%rax)
 4729 1cb0 488B45F8 		movq	-8(%rbp), %rax
 4730 1cb4 4889C7   		movq	%rax, %rdi
 4731 1cb7 E8000000 		call	_ZN8UnitTest4TestD2Ev@PLT
 4731      00
 4732              	.LBE30:
 4733 1cbc 90       		nop
 4734 1cbd C9       		leave
 4735              		.cfi_def_cfa 7, 8
 4736 1cbe C3       		ret
 4737              		.cfi_endproc
 4738              	.LFE1295:
 4740              		.set	_ZN12_GLOBAL__N_127TestRecordsNumberOfFailuresD1Ev,_ZN12_GLOBAL__N_127TestRecordsNumberOfFail
 4741 1cbf 90       		.align 2
 4743              	_ZN12_GLOBAL__N_127TestRecordsNumberOfFailuresD0Ev:
 4744              	.LFB1297:
  33:TestTestResults.cpp **** {
 4745              		.loc 5 33 1
 4746              		.cfi_startproc
 4747              		.cfi_personality 0x9b,DW.ref.__gxx_personality_v0
 4748              		.cfi_lsda 0x1b,.LLSDA1297
 4749 1cc0 F30F1EFA 		endbr64
 4750 1cc4 55       		pushq	%rbp
 4751              		.cfi_def_cfa_offset 16
 4752              		.cfi_offset 6, -16
 4753 1cc5 4889E5   		movq	%rsp, %rbp
 4754              		.cfi_def_cfa_register 6
 4755 1cc8 53       		pushq	%rbx
 4756 1cc9 4883EC18 		subq	$24, %rsp
 4757              		.cfi_offset 3, -24
 4758 1ccd 48897DE8 		movq	%rdi, -24(%rbp)
  33:TestTestResults.cpp **** {
 4759              		.loc 5 33 1
 4760 1cd1 488B45E8 		movq	-24(%rbp), %rax
 4761 1cd5 4889C7   		movq	%rax, %rdi
 4762              	.LEHB122:
 4763 1cd8 E8B5FFFF 		call	_ZN12_GLOBAL__N_127TestRecordsNumberOfFailuresD1Ev
 4763      FF
 4764              	.LEHE122:
  33:TestTestResults.cpp **** {
 4765              		.loc 5 33 1 is_stmt 0 discriminator 2
 4766 1cdd 488B45E8 		movq	-24(%rbp), %rax
 4767 1ce1 4889C7   		movq	%rax, %rdi
 4768 1ce4 E8000000 		call	_ZdlPv@PLT
 4768      00
 4769 1ce9 EB1E     		jmp	.L233
 4770              	.L232:
 4771 1ceb F30F1EFA 		endbr64
  33:TestTestResults.cpp **** {
 4772              		.loc 5 33 1
 4773 1cef 4889C3   		movq	%rax, %rbx
 4774 1cf2 488B45E8 		movq	-24(%rbp), %rax
 4775 1cf6 4889C7   		movq	%rax, %rdi
 4776 1cf9 E8000000 		call	_ZdlPv@PLT
 4776      00
 4777 1cfe 4889D8   		movq	%rbx, %rax
 4778 1d01 4889C7   		movq	%rax, %rdi
 4779              	.LEHB123:
 4780 1d04 E8000000 		call	_Unwind_Resume@PLT
 4780      00
 4781              	.LEHE123:
 4782              	.L233:
 4783 1d09 488B5DF8 		movq	-8(%rbp), %rbx
 4784 1d0d C9       		leave
 4785              		.cfi_def_cfa 7, 8
 4786 1d0e C3       		ret
 4787              		.cfi_endproc
 4788              	.LFE1297:
 4789              		.section	.gcc_except_table
 4790              	.LLSDA1297:
 4791 030a FF       		.byte	0xff
 4792 030b FF       		.byte	0xff
 4793 030c 01       		.byte	0x1
 4794 030d 08       		.uleb128 .LLSDACSE1297-.LLSDACSB1297
 4795              	.LLSDACSB1297:
 4796 030e 18       		.uleb128 .LEHB122-.LFB1297
 4797 030f 05       		.uleb128 .LEHE122-.LEHB122
 4798 0310 2B       		.uleb128 .L232-.LFB1297
 4799 0311 00       		.uleb128 0
 4800 0312 44       		.uleb128 .LEHB123-.LFB1297
 4801 0313 05       		.uleb128 .LEHE123-.LEHB123
 4802 0314 00       		.uleb128 0
 4803 0315 00       		.uleb128 0
 4804              	.LLSDACSE1297:
 4805              		.text
 4807              		.section	.data.rel.ro.local
 4808              		.align 8
 4811              	_ZTVN12_GLOBAL__N_128TestStartsWithNoTestsFailingE:
 4812 00f0 00000000 		.quad	0
 4812      00000000 
 4813 00f8 00000000 		.quad	_ZTIN12_GLOBAL__N_128TestStartsWithNoTestsFailingE
 4813      00000000 
 4814 0100 00000000 		.quad	_ZN12_GLOBAL__N_128TestStartsWithNoTestsFailingD1Ev
 4814      00000000 
 4815 0108 00000000 		.quad	_ZN12_GLOBAL__N_128TestStartsWithNoTestsFailingD0Ev
 4815      00000000 
 4816 0110 00000000 		.quad	_ZNK12_GLOBAL__N_128TestStartsWithNoTestsFailing7RunImplEv
 4816      00000000 
 4817              		.text
 4818 1d0f 90       		.align 2
 4820              	_ZN12_GLOBAL__N_128TestStartsWithNoTestsFailingD2Ev:
 4821              	.LFB1299:
  27:TestTestResults.cpp **** {
 4822              		.loc 5 27 1 is_stmt 1
 4823              		.cfi_startproc
 4824 1d10 F30F1EFA 		endbr64
 4825 1d14 55       		pushq	%rbp
 4826              		.cfi_def_cfa_offset 16
 4827              		.cfi_offset 6, -16
 4828 1d15 4889E5   		movq	%rsp, %rbp
 4829              		.cfi_def_cfa_register 6
 4830 1d18 4883EC10 		subq	$16, %rsp
 4831 1d1c 48897DF8 		movq	%rdi, -8(%rbp)
 4832              	.LBB31:
  27:TestTestResults.cpp **** {
 4833              		.loc 5 27 1
 4834 1d20 488D1500 		leaq	16+_ZTVN12_GLOBAL__N_128TestStartsWithNoTestsFailingE(%rip), %rdx
 4834      000000
 4835 1d27 488B45F8 		movq	-8(%rbp), %rax
 4836 1d2b 488910   		movq	%rdx, (%rax)
 4837 1d2e 488B45F8 		movq	-8(%rbp), %rax
 4838 1d32 4889C7   		movq	%rax, %rdi
 4839 1d35 E8000000 		call	_ZN8UnitTest4TestD2Ev@PLT
 4839      00
 4840              	.LBE31:
 4841 1d3a 90       		nop
 4842 1d3b C9       		leave
 4843              		.cfi_def_cfa 7, 8
 4844 1d3c C3       		ret
 4845              		.cfi_endproc
 4846              	.LFE1299:
 4848              		.set	_ZN12_GLOBAL__N_128TestStartsWithNoTestsFailingD1Ev,_ZN12_GLOBAL__N_128TestStartsWithNoTestsF
 4849 1d3d 90       		.align 2
 4851              	_ZN12_GLOBAL__N_128TestStartsWithNoTestsFailingD0Ev:
 4852              	.LFB1301:
  27:TestTestResults.cpp **** {
 4853              		.loc 5 27 1
 4854              		.cfi_startproc
 4855              		.cfi_personality 0x9b,DW.ref.__gxx_personality_v0
 4856              		.cfi_lsda 0x1b,.LLSDA1301
 4857 1d3e F30F1EFA 		endbr64
 4858 1d42 55       		pushq	%rbp
 4859              		.cfi_def_cfa_offset 16
 4860              		.cfi_offset 6, -16
 4861 1d43 4889E5   		movq	%rsp, %rbp
 4862              		.cfi_def_cfa_register 6
 4863 1d46 53       		pushq	%rbx
 4864 1d47 4883EC18 		subq	$24, %rsp
 4865              		.cfi_offset 3, -24
 4866 1d4b 48897DE8 		movq	%rdi, -24(%rbp)
  27:TestTestResults.cpp **** {
 4867              		.loc 5 27 1
 4868 1d4f 488B45E8 		movq	-24(%rbp), %rax
 4869 1d53 4889C7   		movq	%rax, %rdi
 4870              	.LEHB124:
 4871 1d56 E8B5FFFF 		call	_ZN12_GLOBAL__N_128TestStartsWithNoTestsFailingD1Ev
 4871      FF
 4872              	.LEHE124:
  27:TestTestResults.cpp **** {
 4873              		.loc 5 27 1 is_stmt 0 discriminator 2
 4874 1d5b 488B45E8 		movq	-24(%rbp), %rax
