   1              		.file	"TestChecks.cpp"
   2              		.text
   3              	.Ltext0:
   4              		.file 0 "/home/pong/FPGALink/makestuff/libs/libutpp/tests" "TestChecks.cpp"
   5              		.section	.rodata
   6              	.LC0:
   7 0000 44656661 		.string	"DefaultSuite"
   7      756C7453 
   7      75697465 
   7      00
   8              		.section	.text._ZN13UnitTestSuite12GetSuiteNameEv,"axG",@progbits,_ZN13UnitTestSuite12GetSuiteName
   9              		.weak	_ZN13UnitTestSuite12GetSuiteNameEv
  11              	_ZN13UnitTestSuite12GetSuiteNameEv:
  12              	.LFB0:
  13              		.file 1 "../TestSuite.h"
   1:../TestSuite.h **** #ifndef UNITTEST_TESTSUITE_H
   2:../TestSuite.h **** #define UNITTEST_TESTSUITE_H
   3:../TestSuite.h **** 
   4:../TestSuite.h **** namespace UnitTestSuite {
   5:../TestSuite.h **** 
   6:../TestSuite.h ****     inline char const* GetSuiteName ()
   7:../TestSuite.h ****     {
  14              		.loc 1 7 5
  15              		.cfi_startproc
  16 0000 F30F1EFA 		endbr64
  17 0004 55       		pushq	%rbp
  18              		.cfi_def_cfa_offset 16
  19              		.cfi_offset 6, -16
  20 0005 4889E5   		movq	%rsp, %rbp
  21              		.cfi_def_cfa_register 6
   8:../TestSuite.h ****         return "DefaultSuite";
  22              		.loc 1 8 16
  23 0008 488D0500 		leaq	.LC0(%rip), %rax
  23      000000
   9:../TestSuite.h ****     }
  24              		.loc 1 9 5
  25 000f 5D       		popq	%rbp
  26              		.cfi_def_cfa 7, 8
  27 0010 C3       		ret
  28              		.cfi_endproc
  29              	.LFE0:
  31              		.section	.text._ZN8UnitTest15MemoryOutStreamC1Ev,"axG",@progbits,_ZN8UnitTest15MemoryOutStreamC1Ev
  32              		.align 2
  33              		.weak	_ZN8UnitTest15MemoryOutStreamC1Ev
  35              	_ZN8UnitTest15MemoryOutStreamC1Ev:
  36              	.LFB1129:
  37              		.file 2 "../MemoryOutStream.h"
   1:../MemoryOutStream.h **** #ifndef UNITTEST_MEMORYOUTSTREAM_H
   2:../MemoryOutStream.h **** #define UNITTEST_MEMORYOUTSTREAM_H
   3:../MemoryOutStream.h **** 
   4:../MemoryOutStream.h **** #include "Config.h"
   5:../MemoryOutStream.h **** 
   6:../MemoryOutStream.h **** #ifndef UNITTEST_USE_CUSTOM_STREAMS
   7:../MemoryOutStream.h **** 
   8:../MemoryOutStream.h **** #include <sstream>
   9:../MemoryOutStream.h **** 
  10:../MemoryOutStream.h **** namespace UnitTest
  11:../MemoryOutStream.h **** {
  12:../MemoryOutStream.h **** 
  13:../MemoryOutStream.h **** class MemoryOutStream : public std::ostringstream
  14:../MemoryOutStream.h **** {
  15:../MemoryOutStream.h **** public:
  16:../MemoryOutStream.h ****     MemoryOutStream() {}
  38              		.loc 2 16 5
  39              		.cfi_startproc
  40              		.cfi_personality 0x9b,DW.ref.__gxx_personality_v0
  41              		.cfi_lsda 0x1b,.LLSDA1129
  42 0000 F30F1EFA 		endbr64
  43 0004 55       		pushq	%rbp
  44              		.cfi_def_cfa_offset 16
  45              		.cfi_offset 6, -16
  46 0005 4889E5   		movq	%rsp, %rbp
  47              		.cfi_def_cfa_register 6
  48 0008 53       		pushq	%rbx
  49 0009 4883EC18 		subq	$24, %rsp
  50              		.cfi_offset 3, -24
  51 000d 48897DE8 		movq	%rdi, -24(%rbp)
  52              	.LBB2:
  53              		.loc 2 16 23
  54 0011 488B45E8 		movq	-24(%rbp), %rax
  55 0015 48059000 		addq	$144, %rax
  55      0000
  56 001b 4889C7   		movq	%rax, %rdi
  57              	.LEHB0:
  58 001e E8000000 		call	_ZNSt9basic_iosIcSt11char_traitsIcEEC2Ev@PLT
  58      00
  59              	.LEHE0:
  60 0023 488B45E8 		movq	-24(%rbp), %rax
  61 0027 488D1500 		leaq	8+_ZTTN8UnitTest15MemoryOutStreamE(%rip), %rdx
  61      000000
  62 002e 4889D6   		movq	%rdx, %rsi
  63 0031 4889C7   		movq	%rax, %rdi
  64              	.LEHB1:
  65 0034 E8000000 		call	_ZNSt7__cxx1119basic_ostringstreamIcSt11char_traitsIcESaIcEEC2Ev@PLT
  65      00
  66              	.LEHE1:
  67              		.loc 2 16 23 is_stmt 0 discriminator 2
  68 0039 488D1500 		leaq	24+_ZTVN8UnitTest15MemoryOutStreamE(%rip), %rdx
  68      000000
  69 0040 488B45E8 		movq	-24(%rbp), %rax
  70 0044 488910   		movq	%rdx, (%rax)
  71 0047 488B45E8 		movq	-24(%rbp), %rax
  72 004b 48059000 		addq	$144, %rax
  72      0000
  73 0051 488D1500 		leaq	64+_ZTVN8UnitTest15MemoryOutStreamE(%rip), %rdx
  73      000000
  74 0058 488910   		movq	%rdx, (%rax)
  75 005b 488B45E8 		movq	-24(%rbp), %rax
  76 005f 4883C070 		addq	$112, %rax
  77 0063 4889C7   		movq	%rax, %rdi
  78              	.LEHB2:
  79 0066 E8000000 		call	_ZNSt7__cxx1112basic_stringIcSt11char_traitsIcESaIcEEC1Ev@PLT
  79      00
  80              	.LEHE2:
  81              	.LBE2:
  82              		.loc 2 16 24 is_stmt 1
  83 006b EB43     		jmp	.L8
  84              	.L7:
  85 006d F30F1EFA 		endbr64
  86              	.LBB3:
  87 0071 4889C3   		movq	%rax, %rbx
  88 0074 488B45E8 		movq	-24(%rbp), %rax
  89 0078 488D1500 		leaq	8+_ZTTN8UnitTest15MemoryOutStreamE(%rip), %rdx
  89      000000
  90 007f 4889D6   		movq	%rdx, %rsi
  91 0082 4889C7   		movq	%rax, %rdi
  92 0085 E8000000 		call	_ZNSt7__cxx1119basic_ostringstreamIcSt11char_traitsIcESaIcEED2Ev@PLT
  92      00
  93 008a EB07     		jmp	.L5
  94              	.L6:
  95 008c F30F1EFA 		endbr64
  96 0090 4889C3   		movq	%rax, %rbx
  97              	.L5:
  98              		.loc 2 16 24 is_stmt 0 discriminator 1
  99 0093 488B45E8 		movq	-24(%rbp), %rax
 100 0097 48059000 		addq	$144, %rax
 100      0000
 101 009d 4889C7   		movq	%rax, %rdi
 102 00a0 E8000000 		call	_ZNSt9basic_iosIcSt11char_traitsIcEED2Ev@PLT
 102      00
 103 00a5 4889D8   		movq	%rbx, %rax
 104 00a8 4889C7   		movq	%rax, %rdi
 105              	.LEHB3:
 106 00ab E8000000 		call	_Unwind_Resume@PLT
 106      00
 107              	.LEHE3:
 108              	.L8:
 109              	.LBE3:
 110              		.loc 2 16 24
 111 00b0 488B5DF8 		movq	-8(%rbp), %rbx
 112 00b4 C9       		leave
 113              		.cfi_def_cfa 7, 8
 114 00b5 C3       		ret
 115              		.cfi_endproc
 116              	.LFE1129:
 117              		.globl	__gxx_personality_v0
 118              		.section	.gcc_except_table._ZN8UnitTest15MemoryOutStreamC1Ev,"aG",@progbits,_ZN8UnitTest15MemoryOu
 119              	.LLSDA1129:
 120 0000 FF       		.byte	0xff
 121 0001 FF       		.byte	0xff
 122 0002 01       		.byte	0x1
 123 0003 12       		.uleb128 .LLSDACSE1129-.LLSDACSB1129
 124              	.LLSDACSB1129:
 125 0004 1E       		.uleb128 .LEHB0-.LFB1129
 126 0005 05       		.uleb128 .LEHE0-.LEHB0
 127 0006 00       		.uleb128 0
 128 0007 00       		.uleb128 0
 129 0008 34       		.uleb128 .LEHB1-.LFB1129
 130 0009 05       		.uleb128 .LEHE1-.LEHB1
 131 000a 8C01     		.uleb128 .L6-.LFB1129
 132 000c 00       		.uleb128 0
 133 000d 66       		.uleb128 .LEHB2-.LFB1129
 134 000e 05       		.uleb128 .LEHE2-.LEHB2
 135 000f 6D       		.uleb128 .L7-.LFB1129
 136 0010 00       		.uleb128 0
 137 0011 AB01     		.uleb128 .LEHB3-.LFB1129
 138 0013 05       		.uleb128 .LEHE3-.LEHB3
 139 0014 00       		.uleb128 0
 140 0015 00       		.uleb128 0
 141              	.LLSDACSE1129:
 142              		.section	.text._ZN8UnitTest15MemoryOutStreamC1Ev,"axG",@progbits,_ZN8UnitTest15MemoryOutStreamC1Ev
 144              		.section	.text._ZN8UnitTest12TestReporterC2Ev,"axG",@progbits,_ZN8UnitTest12TestReporterC5Ev,comda
 145              		.align 2
 146              		.weak	_ZN8UnitTest12TestReporterC2Ev
 148              	_ZN8UnitTest12TestReporterC2Ev:
 149              	.LFB1143:
 150              		.file 3 "../TestReporter.h"
   1:../TestReporter.h **** #ifndef UNITTEST_TESTREPORTER_H
   2:../TestReporter.h **** #define UNITTEST_TESTREPORTER_H
   3:../TestReporter.h **** 
   4:../TestReporter.h **** namespace UnitTest {
   5:../TestReporter.h **** 
   6:../TestReporter.h **** class TestDetails;
   7:../TestReporter.h **** 
   8:../TestReporter.h **** class TestReporter
 151              		.loc 3 8 7 is_stmt 1
 152              		.cfi_startproc
 153 0000 F30F1EFA 		endbr64
 154 0004 55       		pushq	%rbp
 155              		.cfi_def_cfa_offset 16
 156              		.cfi_offset 6, -16
 157 0005 4889E5   		movq	%rsp, %rbp
 158              		.cfi_def_cfa_register 6
 159 0008 48897DF8 		movq	%rdi, -8(%rbp)
 160              	.LBB4:
 161              		.loc 3 8 7
 162 000c 488D1500 		leaq	16+_ZTVN8UnitTest12TestReporterE(%rip), %rdx
 162      000000
 163 0013 488B45F8 		movq	-8(%rbp), %rax
 164 0017 488910   		movq	%rdx, (%rax)
 165              	.LBE4:
 166 001a 90       		nop
 167 001b 5D       		popq	%rbp
 168              		.cfi_def_cfa 7, 8
 169 001c C3       		ret
 170              		.cfi_endproc
 171              	.LFE1143:
 173              		.weak	_ZN8UnitTest12TestReporterC1Ev
 174              		.set	_ZN8UnitTest12TestReporterC1Ev,_ZN8UnitTest12TestReporterC2Ev
 175              		.section	.text._ZN17RecordingReporterC2Ev,"axG",@progbits,_ZN17RecordingReporterC5Ev,comdat
 176              		.align 2
 177              		.weak	_ZN17RecordingReporterC2Ev
 179              	_ZN17RecordingReporterC2Ev:
 180              	.LFB1145:
 181              		.file 4 "RecordingReporter.h"
   1:RecordingReporter.h **** #ifndef UNITTEST_RECORDINGREPORTER_H
   2:RecordingReporter.h **** #define UNITTEST_RECORDINGREPORTER_H
   3:RecordingReporter.h **** 
   4:RecordingReporter.h **** #include "../TestReporter.h"
   5:RecordingReporter.h **** #include <cstring>
   6:RecordingReporter.h **** 
   7:RecordingReporter.h **** #include "../TestDetails.h"
   8:RecordingReporter.h **** 
   9:RecordingReporter.h **** struct RecordingReporter : public UnitTest::TestReporter
  10:RecordingReporter.h **** {
  11:RecordingReporter.h **** private:
  12:RecordingReporter.h ****     enum { kMaxStringLength = 256 };
  13:RecordingReporter.h **** 
  14:RecordingReporter.h **** public:
  15:RecordingReporter.h ****     RecordingReporter()
 182              		.loc 4 15 5
 183              		.cfi_startproc
 184 0000 F30F1EFA 		endbr64
 185 0004 55       		pushq	%rbp
 186              		.cfi_def_cfa_offset 16
 187              		.cfi_offset 6, -16
 188 0005 4889E5   		movq	%rsp, %rbp
 189              		.cfi_def_cfa_register 6
 190 0008 4883EC10 		subq	$16, %rsp
 191 000c 48897DF8 		movq	%rdi, -8(%rbp)
 192              	.LBB5:
  16:RecordingReporter.h ****         : testRunCount(0)
  17:RecordingReporter.h ****         , testFailedCount(0)
  18:RecordingReporter.h ****         , lastFailedLine(0)
  19:RecordingReporter.h ****         , testFinishedCount(0)
  20:RecordingReporter.h ****         , lastFinishedTestTime(0)
  21:RecordingReporter.h ****         , summaryTotalTestCount(0)
  22:RecordingReporter.h ****         , summaryFailedTestCount(0)
  23:RecordingReporter.h ****         , summaryFailureCount(0)
  24:RecordingReporter.h ****         , summarySecondsElapsed(0)
 193              		.loc 4 24 34
 194 0010 488B45F8 		movq	-8(%rbp), %rax
 195 0014 4889C7   		movq	%rax, %rdi
 196 0017 E8000000 		call	_ZN8UnitTest12TestReporterC2Ev
 196      00
 197 001c 488D1500 		leaq	16+_ZTV17RecordingReporter(%rip), %rdx
 197      000000
 198 0023 488B45F8 		movq	-8(%rbp), %rax
 199 0027 488910   		movq	%rdx, (%rax)
  16:RecordingReporter.h ****         : testRunCount(0)
 200              		.loc 4 16 11
 201 002a 488B45F8 		movq	-8(%rbp), %rax
 202 002e C7400800 		movl	$0, 8(%rax)
 202      000000
  17:RecordingReporter.h ****         , lastFailedLine(0)
 203              		.loc 4 17 11
 204 0035 488B45F8 		movq	-8(%rbp), %rax
 205 0039 C7800C02 		movl	$0, 524(%rax)
 205      00000000 
 205      0000
  18:RecordingReporter.h ****         , testFinishedCount(0)
 206              		.loc 4 18 11
 207 0043 488B45F8 		movq	-8(%rbp), %rax
 208 0047 C7801003 		movl	$0, 784(%rax)
 208      00000000 
 208      0000
  19:RecordingReporter.h ****         , lastFinishedTestTime(0)
 209              		.loc 4 19 11
 210 0051 488B45F8 		movq	-8(%rbp), %rax
 211 0055 C7801406 		movl	$0, 1556(%rax)
 211      00000000 
 211      0000
  20:RecordingReporter.h ****         , summaryTotalTestCount(0)
 212              		.loc 4 20 11
 213 005f 488B45F8 		movq	-8(%rbp), %rax
 214 0063 660FEFC0 		pxor	%xmm0, %xmm0
 215 0067 F30F1180 		movss	%xmm0, 2072(%rax)
 215      18080000 
  21:RecordingReporter.h ****         , summaryFailedTestCount(0)
 216              		.loc 4 21 11
 217 006f 488B45F8 		movq	-8(%rbp), %rax
 218 0073 C7801C08 		movl	$0, 2076(%rax)
 218      00000000 
 218      0000
  22:RecordingReporter.h ****         , summaryFailureCount(0)
 219              		.loc 4 22 11
 220 007d 488B45F8 		movq	-8(%rbp), %rax
 221 0081 C7802008 		movl	$0, 2080(%rax)
 221      00000000 
 221      0000
  23:RecordingReporter.h ****         , summarySecondsElapsed(0)
 222              		.loc 4 23 11
 223 008b 488B45F8 		movq	-8(%rbp), %rax
 224 008f C7802408 		movl	$0, 2084(%rax)
 224      00000000 
 224      0000
 225              		.loc 4 24 11
 226 0099 488B45F8 		movq	-8(%rbp), %rax
 227 009d 660FEFC0 		pxor	%xmm0, %xmm0
 228 00a1 F30F1180 		movss	%xmm0, 2088(%rax)
 228      28080000 
  25:RecordingReporter.h ****     {
  26:RecordingReporter.h ****         lastStartedSuite[0] = '\0';
 229              		.loc 4 26 29
 230 00a9 488B45F8 		movq	-8(%rbp), %rax
 231 00ad C6400C00 		movb	$0, 12(%rax)
  27:RecordingReporter.h ****         lastStartedTest[0] = '\0';
 232              		.loc 4 27 28
 233 00b1 488B45F8 		movq	-8(%rbp), %rax
 234 00b5 C6800C01 		movb	$0, 268(%rax)
 234      000000
  28:RecordingReporter.h ****         lastFailedFile[0] = '\0';
 235              		.loc 4 28 27
 236 00bc 488B45F8 		movq	-8(%rbp), %rax
 237 00c0 C6801002 		movb	$0, 528(%rax)
 237      000000
  29:RecordingReporter.h ****         lastFailedSuite[0] = '\0';
 238              		.loc 4 29 28
 239 00c7 488B45F8 		movq	-8(%rbp), %rax
 240 00cb C6801403 		movb	$0, 788(%rax)
 240      000000
  30:RecordingReporter.h ****         lastFailedTest[0] = '\0';
 241              		.loc 4 30 27
 242 00d2 488B45F8 		movq	-8(%rbp), %rax
 243 00d6 C6801404 		movb	$0, 1044(%rax)
 243      000000
  31:RecordingReporter.h ****         lastFailedMessage[0] = '\0';
 244              		.loc 4 31 30
 245 00dd 488B45F8 		movq	-8(%rbp), %rax
 246 00e1 C6801405 		movb	$0, 1300(%rax)
 246      000000
  32:RecordingReporter.h ****         lastFinishedSuite[0] = '\0';
 247              		.loc 4 32 30
 248 00e8 488B45F8 		movq	-8(%rbp), %rax
 249 00ec C6801806 		movb	$0, 1560(%rax)
 249      000000
  33:RecordingReporter.h ****         lastFinishedTest[0] = '\0';
 250              		.loc 4 33 29
 251 00f3 488B45F8 		movq	-8(%rbp), %rax
 252 00f7 C6801807 		movb	$0, 1816(%rax)
 252      000000
 253              	.LBE5:
  34:RecordingReporter.h ****     }
 254              		.loc 4 34 5
 255 00fe 90       		nop
 256 00ff C9       		leave
 257              		.cfi_def_cfa 7, 8
 258 0100 C3       		ret
 259              		.cfi_endproc
 260              	.LFE1145:
 262              		.weak	_ZN17RecordingReporterC1Ev
 263              		.set	_ZN17RecordingReporterC1Ev,_ZN17RecordingReporterC2Ev
 264              		.section	.text._ZN17RecordingReporter15ReportTestStartERKN8UnitTest11TestDetailsE,"axG",@progbits,
 265              		.align 2
 266              		.weak	_ZN17RecordingReporter15ReportTestStartERKN8UnitTest11TestDetailsE
 268              	_ZN17RecordingReporter15ReportTestStartERKN8UnitTest11TestDetailsE:
 269              	.LFB1147:
  35:RecordingReporter.h **** 
  36:RecordingReporter.h ****     virtual void ReportTestStart(UnitTest::TestDetails const& test)
 270              		.loc 4 36 18
 271              		.cfi_startproc
 272 0000 F30F1EFA 		endbr64
 273 0004 55       		pushq	%rbp
 274              		.cfi_def_cfa_offset 16
 275              		.cfi_offset 6, -16
 276 0005 4889E5   		movq	%rsp, %rbp
 277              		.cfi_def_cfa_register 6
 278 0008 4883EC10 		subq	$16, %rsp
 279 000c 48897DF8 		movq	%rdi, -8(%rbp)
 280 0010 488975F0 		movq	%rsi, -16(%rbp)
  37:RecordingReporter.h ****     {
  38:RecordingReporter.h **** 		using namespace std;
  39:RecordingReporter.h **** 
  40:RecordingReporter.h ****         ++testRunCount;
 281              		.loc 4 40 11
 282 0014 488B45F8 		movq	-8(%rbp), %rax
 283 0018 8B4008   		movl	8(%rax), %eax
 284              		.loc 4 40 9
 285 001b 8D5001   		leal	1(%rax), %edx
 286 001e 488B45F8 		movq	-8(%rbp), %rax
 287 0022 895008   		movl	%edx, 8(%rax)
  41:RecordingReporter.h ****         strcpy(lastStartedSuite, test.suiteName);
 288              		.loc 4 41 39
 289 0025 488B45F0 		movq	-16(%rbp), %rax
 290 0029 488B00   		movq	(%rax), %rax
 291              		.loc 4 41 16
 292 002c 488B55F8 		movq	-8(%rbp), %rdx
 293 0030 4883C20C 		addq	$12, %rdx
 294              		.loc 4 41 15
 295 0034 4889C6   		movq	%rax, %rsi
 296 0037 4889D7   		movq	%rdx, %rdi
 297 003a E8000000 		call	strcpy@PLT
 297      00
  42:RecordingReporter.h ****         strcpy(lastStartedTest, test.testName);
 298              		.loc 4 42 38
 299 003f 488B45F0 		movq	-16(%rbp), %rax
 300 0043 488B4008 		movq	8(%rax), %rax
 301              		.loc 4 42 16
 302 0047 488B55F8 		movq	-8(%rbp), %rdx
 303 004b 4881C20C 		addq	$268, %rdx
 303      010000
 304              		.loc 4 42 15
 305 0052 4889C6   		movq	%rax, %rsi
 306 0055 4889D7   		movq	%rdx, %rdi
 307 0058 E8000000 		call	strcpy@PLT
 307      00
  43:RecordingReporter.h ****     }
 308              		.loc 4 43 5
 309 005d 90       		nop
 310 005e C9       		leave
 311              		.cfi_def_cfa 7, 8
 312 005f C3       		ret
 313              		.cfi_endproc
 314              	.LFE1147:
 316              		.section	.text._ZN17RecordingReporter13ReportFailureERKN8UnitTest11TestDetailsEPKc,"axG",@progbits
 317              		.align 2
 318              		.weak	_ZN17RecordingReporter13ReportFailureERKN8UnitTest11TestDetailsEPKc
 320              	_ZN17RecordingReporter13ReportFailureERKN8UnitTest11TestDetailsEPKc:
 321              	.LFB1148:
  44:RecordingReporter.h **** 
  45:RecordingReporter.h ****     virtual void ReportFailure(UnitTest::TestDetails const& test, char const* failure)
 322              		.loc 4 45 18
 323              		.cfi_startproc
 324 0000 F30F1EFA 		endbr64
 325 0004 55       		pushq	%rbp
 326              		.cfi_def_cfa_offset 16
 327              		.cfi_offset 6, -16
 328 0005 4889E5   		movq	%rsp, %rbp
 329              		.cfi_def_cfa_register 6
 330 0008 4883EC20 		subq	$32, %rsp
 331 000c 48897DF8 		movq	%rdi, -8(%rbp)
 332 0010 488975F0 		movq	%rsi, -16(%rbp)
 333 0014 488955E8 		movq	%rdx, -24(%rbp)
  46:RecordingReporter.h ****     {
  47:RecordingReporter.h **** 		using namespace std;
  48:RecordingReporter.h **** 
  49:RecordingReporter.h **** 		++testFailedCount;
 334              		.loc 4 49 5
 335 0018 488B45F8 		movq	-8(%rbp), %rax
 336 001c 8B800C02 		movl	524(%rax), %eax
 336      0000
 337              		.loc 4 49 3
 338 0022 8D5001   		leal	1(%rax), %edx
 339 0025 488B45F8 		movq	-8(%rbp), %rax
 340 0029 89900C02 		movl	%edx, 524(%rax)
 340      0000
  50:RecordingReporter.h ****         strcpy(lastFailedFile, test.filename);
 341              		.loc 4 50 37
 342 002f 488B45F0 		movq	-16(%rbp), %rax
 343 0033 488B4010 		movq	16(%rax), %rax
 344              		.loc 4 50 16
 345 0037 488B55F8 		movq	-8(%rbp), %rdx
 346 003b 4881C210 		addq	$528, %rdx
 346      020000
 347              		.loc 4 50 15
 348 0042 4889C6   		movq	%rax, %rsi
 349 0045 4889D7   		movq	%rdx, %rdi
 350 0048 E8000000 		call	strcpy@PLT
 350      00
  51:RecordingReporter.h ****         lastFailedLine = test.lineNumber;
 351              		.loc 4 51 31
 352 004d 488B45F0 		movq	-16(%rbp), %rax
 353 0051 8B5018   		movl	24(%rax), %edx
 354              		.loc 4 51 24
 355 0054 488B45F8 		movq	-8(%rbp), %rax
 356 0058 89901003 		movl	%edx, 784(%rax)
 356      0000
  52:RecordingReporter.h ****         strcpy(lastFailedSuite, test.suiteName);
 357              		.loc 4 52 38
 358 005e 488B45F0 		movq	-16(%rbp), %rax
 359 0062 488B00   		movq	(%rax), %rax
 360              		.loc 4 52 16
 361 0065 488B55F8 		movq	-8(%rbp), %rdx
 362 0069 4881C214 		addq	$788, %rdx
 362      030000
 363              		.loc 4 52 15
 364 0070 4889C6   		movq	%rax, %rsi
 365 0073 4889D7   		movq	%rdx, %rdi
 366 0076 E8000000 		call	strcpy@PLT
 366      00
  53:RecordingReporter.h ****         strcpy(lastFailedTest, test.testName);
 367              		.loc 4 53 37
 368 007b 488B45F0 		movq	-16(%rbp), %rax
 369 007f 488B4008 		movq	8(%rax), %rax
 370              		.loc 4 53 16
 371 0083 488B55F8 		movq	-8(%rbp), %rdx
 372 0087 4881C214 		addq	$1044, %rdx
 372      040000
 373              		.loc 4 53 15
 374 008e 4889C6   		movq	%rax, %rsi
 375 0091 4889D7   		movq	%rdx, %rdi
 376 0094 E8000000 		call	strcpy@PLT
 376      00
  54:RecordingReporter.h ****         strcpy(lastFailedMessage, failure);
 377              		.loc 4 54 16
 378 0099 488B45F8 		movq	-8(%rbp), %rax
 379 009d 488D9014 		leaq	1300(%rax), %rdx
 379      050000
 380              		.loc 4 54 15
 381 00a4 488B45E8 		movq	-24(%rbp), %rax
 382 00a8 4889C6   		movq	%rax, %rsi
 383 00ab 4889D7   		movq	%rdx, %rdi
 384 00ae E8000000 		call	strcpy@PLT
 384      00
  55:RecordingReporter.h ****     }
 385              		.loc 4 55 5
 386 00b3 90       		nop
 387 00b4 C9       		leave
 388              		.cfi_def_cfa 7, 8
 389 00b5 C3       		ret
 390              		.cfi_endproc
 391              	.LFE1148:
 393              		.section	.text._ZN17RecordingReporter16ReportTestFinishERKN8UnitTest11TestDetailsEf,"axG",@progbit
 394              		.align 2
 395              		.weak	_ZN17RecordingReporter16ReportTestFinishERKN8UnitTest11TestDetailsEf
 397              	_ZN17RecordingReporter16ReportTestFinishERKN8UnitTest11TestDetailsEf:
 398              	.LFB1149:
  56:RecordingReporter.h **** 
  57:RecordingReporter.h ****     virtual void ReportTestFinish(UnitTest::TestDetails const& test, float testDuration)
 399              		.loc 4 57 18
 400              		.cfi_startproc
 401 0000 F30F1EFA 		endbr64
 402 0004 55       		pushq	%rbp
 403              		.cfi_def_cfa_offset 16
 404              		.cfi_offset 6, -16
 405 0005 4889E5   		movq	%rsp, %rbp
 406              		.cfi_def_cfa_register 6
 407 0008 4883EC20 		subq	$32, %rsp
 408 000c 48897DF8 		movq	%rdi, -8(%rbp)
 409 0010 488975F0 		movq	%rsi, -16(%rbp)
 410 0014 F30F1145 		movss	%xmm0, -20(%rbp)
 410      EC
  58:RecordingReporter.h ****     {
  59:RecordingReporter.h **** 		using namespace std;
  60:RecordingReporter.h **** 
  61:RecordingReporter.h **** 		++testFinishedCount;
 411              		.loc 4 61 5
 412 0019 488B45F8 		movq	-8(%rbp), %rax
 413 001d 8B801406 		movl	1556(%rax), %eax
 413      0000
 414              		.loc 4 61 3
 415 0023 8D5001   		leal	1(%rax), %edx
 416 0026 488B45F8 		movq	-8(%rbp), %rax
 417 002a 89901406 		movl	%edx, 1556(%rax)
 417      0000
  62:RecordingReporter.h ****         strcpy(lastFinishedSuite, test.suiteName);
 418              		.loc 4 62 40
 419 0030 488B45F0 		movq	-16(%rbp), %rax
 420 0034 488B00   		movq	(%rax), %rax
 421              		.loc 4 62 16
 422 0037 488B55F8 		movq	-8(%rbp), %rdx
 423 003b 4881C218 		addq	$1560, %rdx
 423      060000
 424              		.loc 4 62 15
 425 0042 4889C6   		movq	%rax, %rsi
 426 0045 4889D7   		movq	%rdx, %rdi
 427 0048 E8000000 		call	strcpy@PLT
 427      00
  63:RecordingReporter.h ****         strcpy(lastFinishedTest, test.testName);
 428              		.loc 4 63 39
 429 004d 488B45F0 		movq	-16(%rbp), %rax
 430 0051 488B4008 		movq	8(%rax), %rax
 431              		.loc 4 63 16
 432 0055 488B55F8 		movq	-8(%rbp), %rdx
 433 0059 4881C218 		addq	$1816, %rdx
 433      070000
 434              		.loc 4 63 15
 435 0060 4889C6   		movq	%rax, %rsi
 436 0063 4889D7   		movq	%rdx, %rdi
 437 0066 E8000000 		call	strcpy@PLT
 437      00
  64:RecordingReporter.h ****         lastFinishedTestTime = testDuration;
 438              		.loc 4 64 30
 439 006b 488B45F8 		movq	-8(%rbp), %rax
 440 006f F30F1045 		movss	-20(%rbp), %xmm0
 440      EC
 441 0074 F30F1180 		movss	%xmm0, 2072(%rax)
 441      18080000 
  65:RecordingReporter.h ****     }
 442              		.loc 4 65 5
 443 007c 90       		nop
 444 007d C9       		leave
 445              		.cfi_def_cfa 7, 8
 446 007e C3       		ret
 447              		.cfi_endproc
 448              	.LFE1149:
 450              		.section	.text._ZN17RecordingReporter13ReportSummaryEiiif,"axG",@progbits,_ZN17RecordingReporter13
 451              		.align 2
 452              		.weak	_ZN17RecordingReporter13ReportSummaryEiiif
 454              	_ZN17RecordingReporter13ReportSummaryEiiif:
 455              	.LFB1150:
  66:RecordingReporter.h **** 
  67:RecordingReporter.h ****     virtual void ReportSummary(int totalTestCount, int failedTestCount, int failureCount, float sec
 456              		.loc 4 67 18
 457              		.cfi_startproc
 458 0000 F30F1EFA 		endbr64
 459 0004 55       		pushq	%rbp
 460              		.cfi_def_cfa_offset 16
 461              		.cfi_offset 6, -16
 462 0005 4889E5   		movq	%rsp, %rbp
 463              		.cfi_def_cfa_register 6
 464 0008 48897DF8 		movq	%rdi, -8(%rbp)
 465 000c 8975F4   		movl	%esi, -12(%rbp)
 466 000f 8955F0   		movl	%edx, -16(%rbp)
 467 0012 894DEC   		movl	%ecx, -20(%rbp)
 468 0015 F30F1145 		movss	%xmm0, -24(%rbp)
 468      E8
  68:RecordingReporter.h ****     {
  69:RecordingReporter.h ****         summaryTotalTestCount = totalTestCount;
 469              		.loc 4 69 31
 470 001a 488B45F8 		movq	-8(%rbp), %rax
 471 001e 8B55F4   		movl	-12(%rbp), %edx
 472 0021 89901C08 		movl	%edx, 2076(%rax)
 472      0000
  70:RecordingReporter.h ****         summaryFailedTestCount = failedTestCount;
 473              		.loc 4 70 32
 474 0027 488B45F8 		movq	-8(%rbp), %rax
 475 002b 8B55F0   		movl	-16(%rbp), %edx
 476 002e 89902008 		movl	%edx, 2080(%rax)
 476      0000
  71:RecordingReporter.h ****         summaryFailureCount = failureCount;
 477              		.loc 4 71 29
 478 0034 488B45F8 		movq	-8(%rbp), %rax
 479 0038 8B55EC   		movl	-20(%rbp), %edx
 480 003b 89902408 		movl	%edx, 2084(%rax)
 480      0000
  72:RecordingReporter.h ****         summarySecondsElapsed = secondsElapsed;
 481              		.loc 4 72 31
 482 0041 488B45F8 		movq	-8(%rbp), %rax
 483 0045 F30F1045 		movss	-24(%rbp), %xmm0
 483      E8
 484 004a F30F1180 		movss	%xmm0, 2088(%rax)
 484      28080000 
  73:RecordingReporter.h ****     }
 485              		.loc 4 73 5
 486 0052 90       		nop
 487 0053 5D       		popq	%rbp
 488              		.cfi_def_cfa 7, 8
 489 0054 C3       		ret
 490              		.cfi_endproc
 491              	.LFE1150:
 493              		.section	.rodata
 494              	.LC2:
 495 000d 54657374 		.string	"TestChecks.cpp"
 495      43686563 
 495      6B732E63 
 495      707000
 496              	.LC3:
 497 001c 43686563 		.string	"CheckEqualWithUnsignedLong"
 497      6B457175 
 497      616C5769 
 497      7468556E 
 497      7369676E 
 498              		.text
 499              		.align 2
 501              	_ZN12_GLOBAL__N_130TestCheckEqualWithUnsignedLongC2Ev:
 502              	.LFB1152:
 503              		.file 5 "TestChecks.cpp"
   1:TestChecks.cpp **** #include "../UnitTest++.h"
   2:TestChecks.cpp **** #include "RecordingReporter.h"
   3:TestChecks.cpp **** 
   4:TestChecks.cpp **** using namespace UnitTest;
   5:TestChecks.cpp **** 
   6:TestChecks.cpp **** 
   7:TestChecks.cpp **** namespace {
   8:TestChecks.cpp **** 
   9:TestChecks.cpp **** 
  10:TestChecks.cpp **** TEST(CheckEqualWithUnsignedLong)
 504              		.loc 5 10 1
 505              		.cfi_startproc
 506 0000 55       		pushq	%rbp
 507              		.cfi_def_cfa_offset 16
 508              		.cfi_offset 6, -16
 509 0001 4889E5   		movq	%rsp, %rbp
 510              		.cfi_def_cfa_register 6
 511 0004 53       		pushq	%rbx
 512 0005 4883EC18 		subq	$24, %rsp
 513              		.cfi_offset 3, -24
 514 0009 48897DE8 		movq	%rdi, -24(%rbp)
 515              	.LBB6:
 516              		.loc 5 10 1
 517 000d 488B5DE8 		movq	-24(%rbp), %rbx
 518 0011 E8000000 		call	_ZN13UnitTestSuite12GetSuiteNameEv
 518      00
 519 0016 4889C2   		movq	%rax, %rdx
 520 0019 41B80A00 		movl	$10, %r8d
 520      0000
 521 001f 488D0500 		leaq	.LC2(%rip), %rax
 521      000000
 522 0026 4889C1   		movq	%rax, %rcx
 523 0029 488D0500 		leaq	.LC3(%rip), %rax
 523      000000
 524 0030 4889C6   		movq	%rax, %rsi
 525 0033 4889DF   		movq	%rbx, %rdi
 526 0036 E8000000 		call	_ZN8UnitTest4TestC2EPKcS2_S2_i@PLT
 526      00
 527 003b 488D1500 		leaq	16+_ZTVN12_GLOBAL__N_130TestCheckEqualWithUnsignedLongE(%rip), %rdx
 527      000000
 528 0042 488B45E8 		movq	-24(%rbp), %rax
 529 0046 488910   		movq	%rdx, (%rax)
 530              	.LBE6:
 531 0049 90       		nop
 532 004a 488B5DF8 		movq	-8(%rbp), %rbx
 533 004e C9       		leave
 534              		.cfi_def_cfa 7, 8
 535 004f C3       		ret
 536              		.cfi_endproc
 537              	.LFE1152:
 539              		.set	_ZN12_GLOBAL__N_130TestCheckEqualWithUnsignedLongC1Ev,_ZN12_GLOBAL__N_130TestCheckEqualWithUn
 540              		.local	_ZN12_GLOBAL__N_138testCheckEqualWithUnsignedLongInstanceE
 541              		.comm	_ZN12_GLOBAL__N_138testCheckEqualWithUnsignedLongInstanceE,56,32
 542              		.local	_ZN12_GLOBAL__N_131adderCheckEqualWithUnsignedLongE
 543              		.comm	_ZN12_GLOBAL__N_131adderCheckEqualWithUnsignedLongE,1,1
 544              		.section	.rodata
 545 0037 00       		.align 8
 546              	.LC4:
 547 0038 556E6861 		.string	"Unhandled exception in CHECK_EQUAL(something, something)"
 547      6E646C65 
 547      64206578 
 547      63657074 
 547      696F6E20 
 548              		.text
 549              		.align 2
 551              	_ZNK12_GLOBAL__N_130TestCheckEqualWithUnsignedLong7RunImplEv:
 552              	.LFB1154:
  11:TestChecks.cpp **** {
 553              		.loc 5 11 1
 554              		.cfi_startproc
 555              		.cfi_personality 0x9b,DW.ref.__gxx_personality_v0
 556              		.cfi_lsda 0x1b,.LLSDA1154
 557 0050 F30F1EFA 		endbr64
 558 0054 55       		pushq	%rbp
 559              		.cfi_def_cfa_offset 16
 560              		.cfi_offset 6, -16
 561 0055 4889E5   		movq	%rsp, %rbp
 562              		.cfi_def_cfa_register 6
 563 0058 53       		pushq	%rbx
 564 0059 4883EC78 		subq	$120, %rsp
 565              		.cfi_offset 3, -24
 566 005d 48897D88 		movq	%rdi, -120(%rbp)
 567              		.loc 5 11 1
 568 0061 64488B04 		movq	%fs:40, %rax
 568      25280000 
 568      00
 569 006a 488945E8 		movq	%rax, -24(%rbp)
 570 006e 31C0     		xorl	%eax, %eax
  12:TestChecks.cpp ****     TestResults results;
 571              		.loc 5 12 17
 572 0070 488D45A0 		leaq	-96(%rbp), %rax
 573 0074 BE000000 		movl	$0, %esi
 573      00
 574 0079 4889C7   		movq	%rax, %rdi
 575              	.LEHB4:
 576 007c E8000000 		call	_ZN8UnitTest11TestResultsC1EPNS_12TestReporterE@PLT
 576      00
 577              	.LEHE4:
  13:TestChecks.cpp ****     unsigned long something = 2;
 578              		.loc 5 13 19
 579 0081 48C74598 		movq	$2, -104(%rbp)
 579      02000000 
 580              	.LEHB5:
  14:TestChecks.cpp ****     CHECK_EQUAL(something, something);
 581              		.loc 5 14 5
 582 0089 E8000000 		call	_ZN8UnitTest11CurrentTest7DetailsEv@PLT
 582      00
 583 008e 488B08   		movq	(%rax), %rcx
 584 0091 488D45C0 		leaq	-64(%rbp), %rax
 585 0095 BA0E0000 		movl	$14, %edx
 585      00
 586 009a 4889CE   		movq	%rcx, %rsi
 587 009d 4889C7   		movq	%rax, %rdi
 588 00a0 E8000000 		call	_ZN8UnitTest11TestDetailsC1ERKS0_i@PLT
 588      00
 589              		.loc 5 14 5 is_stmt 0 discriminator 4
 590 00a5 E8000000 		call	_ZN8UnitTest11CurrentTest7ResultsEv@PLT
 590      00
 591 00aa 488B00   		movq	(%rax), %rax
 592 00ad 488D4DC0 		leaq	-64(%rbp), %rcx
 593 00b1 488D5598 		leaq	-104(%rbp), %rdx
 594 00b5 488D7598 		leaq	-104(%rbp), %rsi
 595 00b9 4889C7   		movq	%rax, %rdi
 596 00bc E8000000 		call	_ZN8UnitTest10CheckEqualImmEEvRNS_11TestResultsERKT_RKT0_RKNS_11TestDetailsE
 596      00
 597              	.LEHE5:
  15:TestChecks.cpp **** }
 598              		.loc 5 15 1 is_stmt 1
 599 00c1 EB64     		jmp	.L16
 600              	.L21:
 601 00c3 F30F1EFA 		endbr64
  14:TestChecks.cpp ****     CHECK_EQUAL(something, something);
 602              		.loc 5 14 5
 603 00c7 4889C7   		movq	%rax, %rdi
 604 00ca E8000000 		call	__cxa_begin_catch@PLT
 604      00
 605              	.LEHB6:
 606 00cf E8000000 		call	_ZN8UnitTest11CurrentTest7ResultsEv@PLT
 606      00
  14:TestChecks.cpp ****     CHECK_EQUAL(something, something);
 607              		.loc 5 14 5 is_stmt 0 discriminator 3
 608 00d4 488B18   		movq	(%rax), %rbx
 609 00d7 E8000000 		call	_ZN8UnitTest11CurrentTest7DetailsEv@PLT
 609      00
  14:TestChecks.cpp ****     CHECK_EQUAL(something, something);
 610              		.loc 5 14 5 discriminator 11
 611 00dc 488B08   		movq	(%rax), %rcx
 612 00df 488D45C0 		leaq	-64(%rbp), %rax
 613 00e3 BA0E0000 		movl	$14, %edx
 613      00
 614 00e8 4889CE   		movq	%rcx, %rsi
 615 00eb 4889C7   		movq	%rax, %rdi
 616 00ee E8000000 		call	_ZN8UnitTest11TestDetailsC1ERKS0_i@PLT
 616      00
  14:TestChecks.cpp ****     CHECK_EQUAL(something, something);
 617              		.loc 5 14 5 discriminator 15
 618 00f3 488D45C0 		leaq	-64(%rbp), %rax
 619 00f7 488D1500 		leaq	.LC4(%rip), %rdx
 619      000000
 620 00fe 4889C6   		movq	%rax, %rsi
 621 0101 4889DF   		movq	%rbx, %rdi
 622 0104 E8000000 		call	_ZN8UnitTest11TestResults13OnTestFailureERKNS_11TestDetailsEPKc@PLT
 622      00
 623              	.LEHE6:
 624              	.LEHB7:
  14:TestChecks.cpp ****     CHECK_EQUAL(something, something);
 625              		.loc 5 14 5 discriminator 17
 626 0109 E8000000 		call	__cxa_end_catch@PLT
 626      00
 627              	.LEHE7:
 628              		.loc 5 15 1 is_stmt 1 discriminator 17
 629 010e EB17     		jmp	.L16
 630              	.L22:
 631 0110 F30F1EFA 		endbr64
  14:TestChecks.cpp ****     CHECK_EQUAL(something, something);
 632              		.loc 5 14 5
 633 0114 4889C3   		movq	%rax, %rbx
 634 0117 E8000000 		call	__cxa_end_catch@PLT
 634      00
 635 011c 4889D8   		movq	%rbx, %rax
 636 011f 4889C7   		movq	%rax, %rdi
 637              	.LEHB8:
 638 0122 E8000000 		call	_Unwind_Resume@PLT
 638      00
 639              	.LEHE8:
 640              	.L16:
 641              		.loc 5 15 1
 642 0127 488B45E8 		movq	-24(%rbp), %rax
 643 012b 64482B04 		subq	%fs:40, %rax
 643      25280000 
 643      00
 644 0134 7405     		je	.L20
 645 0136 E8000000 		call	__stack_chk_fail@PLT
 645      00
 646              	.L20:
 647 013b 488B5DF8 		movq	-8(%rbp), %rbx
 648 013f C9       		leave
 649              		.cfi_def_cfa 7, 8
 650 0140 C3       		ret
 651              		.cfi_endproc
 652              	.LFE1154:
 653              		.section	.gcc_except_table,"a",@progbits
 654              		.align 4
 655              	.LLSDA1154:
 656 0000 FF       		.byte	0xff
 657 0001 9B       		.byte	0x9b
 658 0002 21       		.uleb128 .LLSDATT1154-.LLSDATTD1154
 659              	.LLSDATTD1154:
 660 0003 01       		.byte	0x1
 661 0004 17       		.uleb128 .LLSDACSE1154-.LLSDACSB1154
 662              	.LLSDACSB1154:
 663 0005 2C       		.uleb128 .LEHB4-.LFB1154
 664 0006 05       		.uleb128 .LEHE4-.LEHB4
 665 0007 00       		.uleb128 0
 666 0008 00       		.uleb128 0
 667 0009 39       		.uleb128 .LEHB5-.LFB1154
 668 000a 38       		.uleb128 .LEHE5-.LEHB5
 669 000b 73       		.uleb128 .L21-.LFB1154
 670 000c 01       		.uleb128 0x1
 671 000d 7F       		.uleb128 .LEHB6-.LFB1154
 672 000e 3A       		.uleb128 .LEHE6-.LEHB6
 673 000f C001     		.uleb128 .L22-.LFB1154
 674 0011 00       		.uleb128 0
 675 0012 B901     		.uleb128 .LEHB7-.LFB1154
 676 0014 05       		.uleb128 .LEHE7-.LEHB7
 677 0015 00       		.uleb128 0
 678 0016 00       		.uleb128 0
 679 0017 D201     		.uleb128 .LEHB8-.LFB1154
 680 0019 05       		.uleb128 .LEHE8-.LEHB8
 681 001a 00       		.uleb128 0
 682 001b 00       		.uleb128 0
 683              	.LLSDACSE1154:
 684 001c 01       		.byte	0x1
 685 001d 00       		.byte	0
 686 001e 0000     		.align 4
 687 0020 00000000 		.long	0
 688              	
 689              	.LLSDATT1154:
 690              		.text
 692              		.section	.rodata
 693 0071 00000000 		.align 8
 693      000000
 694              	.LC5:
 695 0078 43686563 		.string	"CheckEqualsWithStringsFailsOnDifferentStrings"
 695      6B457175 
 695      616C7357 
 695      69746853 
 695      7472696E 
 696              		.text
 697 0141 90       		.align 2
 699              	_ZN12_GLOBAL__N_149TestCheckEqualsWithStringsFailsOnDifferentStringsC2Ev:
 700              	.LFB1156:
  16:TestChecks.cpp **** 
  17:TestChecks.cpp **** TEST(CheckEqualsWithStringsFailsOnDifferentStrings)
 701              		.loc 5 17 1
 702              		.cfi_startproc
 703 0142 55       		pushq	%rbp
 704              		.cfi_def_cfa_offset 16
 705              		.cfi_offset 6, -16
 706 0143 4889E5   		movq	%rsp, %rbp
 707              		.cfi_def_cfa_register 6
 708 0146 53       		pushq	%rbx
 709 0147 4883EC18 		subq	$24, %rsp
 710              		.cfi_offset 3, -24
 711 014b 48897DE8 		movq	%rdi, -24(%rbp)
 712              	.LBB7:
 713              		.loc 5 17 1
 714 014f 488B5DE8 		movq	-24(%rbp), %rbx
 715 0153 E8000000 		call	_ZN13UnitTestSuite12GetSuiteNameEv
 715      00
 716 0158 4889C2   		movq	%rax, %rdx
 717 015b 41B81100 		movl	$17, %r8d
 717      0000
 718 0161 488D0500 		leaq	.LC2(%rip), %rax
 718      000000
 719 0168 4889C1   		movq	%rax, %rcx
 720 016b 488D0500 		leaq	.LC5(%rip), %rax
 720      000000
 721 0172 4889C6   		movq	%rax, %rsi
 722 0175 4889DF   		movq	%rbx, %rdi
 723 0178 E8000000 		call	_ZN8UnitTest4TestC2EPKcS2_S2_i@PLT
 723      00
 724 017d 488D1500 		leaq	16+_ZTVN12_GLOBAL__N_149TestCheckEqualsWithStringsFailsOnDifferentStringsE(%rip), %rdx
 724      000000
 725 0184 488B45E8 		movq	-24(%rbp), %rax
 726 0188 488910   		movq	%rdx, (%rax)
 727              	.LBE7:
 728 018b 90       		nop
 729 018c 488B5DF8 		movq	-8(%rbp), %rbx
 730 0190 C9       		leave
 731              		.cfi_def_cfa 7, 8
 732 0191 C3       		ret
 733              		.cfi_endproc
 734              	.LFE1156:
 736              		.set	_ZN12_GLOBAL__N_149TestCheckEqualsWithStringsFailsOnDifferentStringsC1Ev,_ZN12_GLOBAL__N_149T
 737              		.local	_ZN12_GLOBAL__N_157testCheckEqualsWithStringsFailsOnDifferentStringsInstanceE
 738              		.comm	_ZN12_GLOBAL__N_157testCheckEqualsWithStringsFailsOnDifferentStringsInstanceE,56,32
 739              		.local	_ZN12_GLOBAL__N_150adderCheckEqualsWithStringsFailsOnDifferentStringsE
 740              		.comm	_ZN12_GLOBAL__N_150adderCheckEqualsWithStringsFailsOnDifferentStringsE,1,1
 741              		.section	.rodata
 742              	.LC6:
 743 00a6 00       		.string	""
 744 00a7 00       		.align 8
 745              	.LC7:
 746 00a8 556E6861 		.string	"Unhandled exception in CHECK_EQUAL(1, results.GetFailureCount())"
 746      6E646C65 
 746      64206578 
 746      63657074 
 746      696F6E20 
 747              		.text
 748              		.align 2
 750              	_ZNK12_GLOBAL__N_149TestCheckEqualsWithStringsFailsOnDifferentStrings7RunImplEv:
 751              	.LFB1158:
  18:TestChecks.cpp **** {
 752              		.loc 5 18 1
 753              		.cfi_startproc
 754              		.cfi_personality 0x9b,DW.ref.__gxx_personality_v0
 755              		.cfi_lsda 0x1b,.LLSDA1158
 756 0192 F30F1EFA 		endbr64
 757 0196 55       		pushq	%rbp
 758              		.cfi_def_cfa_offset 16
 759              		.cfi_offset 6, -16
 760 0197 4889E5   		movq	%rsp, %rbp
 761              		.cfi_def_cfa_register 6
 762 019a 53       		pushq	%rbx
 763 019b 4881EC88 		subq	$136, %rsp
 763      000000
 764              		.cfi_offset 3, -24
 765 01a2 4889BD78 		movq	%rdi, -136(%rbp)
 765      FFFFFF
 766              		.loc 5 18 1
 767 01a9 64488B04 		movq	%fs:40, %rax
 767      25280000 
 767      00
 768 01b2 488945E8 		movq	%rax, -24(%rbp)
 769 01b6 31C0     		xorl	%eax, %eax
  19:TestChecks.cpp ****     char txt1[] = "Hello";
 770              		.loc 5 19 10
 771 01b8 C745DC48 		movl	$1819043144, -36(%rbp)
 771      656C6C
 772 01bf 66C745E0 		movw	$111, -32(%rbp)
 772      6F00
  20:TestChecks.cpp ****     char txt2[] = "Hallo";
 773              		.loc 5 20 10
 774 01c5 C745E248 		movl	$1819042120, -30(%rbp)
 774      616C6C
 775 01cc 66C745E6 		movw	$111, -26(%rbp)
 775      6F00
  21:TestChecks.cpp ****     TestResults results;
 776              		.loc 5 21 17
 777 01d2 488D4590 		leaq	-112(%rbp), %rax
 778 01d6 BE000000 		movl	$0, %esi
 778      00
 779 01db 4889C7   		movq	%rax, %rdi
 780              	.LEHB9:
 781 01de E8000000 		call	_ZN8UnitTest11TestResultsC1EPNS_12TestReporterE@PLT
 781      00
  22:TestChecks.cpp ****     CheckEqual(results, txt1, txt2, TestDetails("", "", "", 0));
 782              		.loc 5 22 37
 783 01e3 488D45B0 		leaq	-80(%rbp), %rax
 784 01e7 41B80000 		movl	$0, %r8d
 784      0000
 785 01ed 488D1500 		leaq	.LC6(%rip), %rdx
 785      000000
 786 01f4 4889D1   		movq	%rdx, %rcx
 787 01f7 488D1500 		leaq	.LC6(%rip), %rdx
 787      000000
 788 01fe 488D3500 		leaq	.LC6(%rip), %rsi
 788      000000
 789 0205 4889C7   		movq	%rax, %rdi
 790 0208 E8000000 		call	_ZN8UnitTest11TestDetailsC1EPKcS2_S2_i@PLT
 790      00
 791              		.loc 5 22 15
 792 020d 488D4DB0 		leaq	-80(%rbp), %rcx
 793 0211 488D55E2 		leaq	-30(%rbp), %rdx
 794 0215 488D75DC 		leaq	-36(%rbp), %rsi
 795 0219 488D4590 		leaq	-112(%rbp), %rax
 796 021d 4889C7   		movq	%rax, %rdi
 797 0220 E8000000 		call	_ZN8UnitTest10CheckEqualERNS_11TestResultsEPcS2_RKNS_11TestDetailsE@PLT
 797      00
 798              	.LEHE9:
 799              	.LEHB10:
  23:TestChecks.cpp ****     CHECK_EQUAL(1, results.GetFailureCount());
 800              		.loc 5 23 5
 801 0225 E8000000 		call	_ZN8UnitTest11CurrentTest7DetailsEv@PLT
 801      00
 802 022a 488B08   		movq	(%rax), %rcx
 803 022d 488D45B0 		leaq	-80(%rbp), %rax
 804 0231 BA170000 		movl	$23, %edx
 804      00
 805 0236 4889CE   		movq	%rcx, %rsi
 806 0239 4889C7   		movq	%rax, %rdi
 807 023c E8000000 		call	_ZN8UnitTest11TestDetailsC1ERKS0_i@PLT
 807      00
 808              		.loc 5 23 5 is_stmt 0 discriminator 4
 809 0241 488D4590 		leaq	-112(%rbp), %rax
 810 0245 4889C7   		movq	%rax, %rdi
 811 0248 E8000000 		call	_ZNK8UnitTest11TestResults15GetFailureCountEv@PLT
 811      00
 812 024d 89458C   		movl	%eax, -116(%rbp)
 813 0250 C7458801 		movl	$1, -120(%rbp)
 813      000000
 814 0257 E8000000 		call	_ZN8UnitTest11CurrentTest7ResultsEv@PLT
 814      00
 815              		.loc 5 23 5 discriminator 6
 816 025c 488B00   		movq	(%rax), %rax
 817 025f 488D4DB0 		leaq	-80(%rbp), %rcx
 818 0263 488D558C 		leaq	-116(%rbp), %rdx
 819 0267 488D7588 		leaq	-120(%rbp), %rsi
 820 026b 4889C7   		movq	%rax, %rdi
 821 026e E8000000 		call	_ZN8UnitTest10CheckEqualIiiEEvRNS_11TestResultsERKT_RKT0_RKNS_11TestDetailsE
 821      00
 822              	.LEHE10:
  24:TestChecks.cpp **** }
 823              		.loc 5 24 1 is_stmt 1
 824 0273 EB64     		jmp	.L24
 825              	.L29:
 826 0275 F30F1EFA 		endbr64
  23:TestChecks.cpp ****     CHECK_EQUAL(1, results.GetFailureCount());
 827              		.loc 5 23 5
 828 0279 4889C7   		movq	%rax, %rdi
 829 027c E8000000 		call	__cxa_begin_catch@PLT
 829      00
 830              	.LEHB11:
 831 0281 E8000000 		call	_ZN8UnitTest11CurrentTest7ResultsEv@PLT
 831      00
  23:TestChecks.cpp ****     CHECK_EQUAL(1, results.GetFailureCount());
 832              		.loc 5 23 5 is_stmt 0 discriminator 3
 833 0286 488B18   		movq	(%rax), %rbx
 834 0289 E8000000 		call	_ZN8UnitTest11CurrentTest7DetailsEv@PLT
 834      00
  23:TestChecks.cpp ****     CHECK_EQUAL(1, results.GetFailureCount());
 835              		.loc 5 23 5 discriminator 13
 836 028e 488B08   		movq	(%rax), %rcx
 837 0291 488D45B0 		leaq	-80(%rbp), %rax
 838 0295 BA170000 		movl	$23, %edx
 838      00
 839 029a 4889CE   		movq	%rcx, %rsi
 840 029d 4889C7   		movq	%rax, %rdi
 841 02a0 E8000000 		call	_ZN8UnitTest11TestDetailsC1ERKS0_i@PLT
 841      00
  23:TestChecks.cpp ****     CHECK_EQUAL(1, results.GetFailureCount());
 842              		.loc 5 23 5 discriminator 17
 843 02a5 488D45B0 		leaq	-80(%rbp), %rax
 844 02a9 488D1500 		leaq	.LC7(%rip), %rdx
 844      000000
 845 02b0 4889C6   		movq	%rax, %rsi
 846 02b3 4889DF   		movq	%rbx, %rdi
 847 02b6 E8000000 		call	_ZN8UnitTest11TestResults13OnTestFailureERKNS_11TestDetailsEPKc@PLT
 847      00
 848              	.LEHE11:
 849              	.LEHB12:
  23:TestChecks.cpp ****     CHECK_EQUAL(1, results.GetFailureCount());
 850              		.loc 5 23 5 discriminator 19
 851 02bb E8000000 		call	__cxa_end_catch@PLT
 851      00
 852              	.LEHE12:
 853              		.loc 5 24 1 is_stmt 1 discriminator 19
 854 02c0 EB17     		jmp	.L24
 855              	.L30:
 856 02c2 F30F1EFA 		endbr64
  23:TestChecks.cpp ****     CHECK_EQUAL(1, results.GetFailureCount());
 857              		.loc 5 23 5
 858 02c6 4889C3   		movq	%rax, %rbx
 859 02c9 E8000000 		call	__cxa_end_catch@PLT
 859      00
 860 02ce 4889D8   		movq	%rbx, %rax
 861 02d1 4889C7   		movq	%rax, %rdi
 862              	.LEHB13:
 863 02d4 E8000000 		call	_Unwind_Resume@PLT
 863      00
 864              	.LEHE13:
 865              	.L24:
 866              		.loc 5 24 1
 867 02d9 488B45E8 		movq	-24(%rbp), %rax
 868 02dd 64482B04 		subq	%fs:40, %rax
 868      25280000 
 868      00
 869 02e6 7405     		je	.L28
 870 02e8 E8000000 		call	__stack_chk_fail@PLT
 870      00
 871              	.L28:
 872 02ed 488B5DF8 		movq	-8(%rbp), %rbx
 873 02f1 C9       		leave
 874              		.cfi_def_cfa 7, 8
 875 02f2 C3       		ret
 876              		.cfi_endproc
 877              	.LFE1158:
 878              		.section	.gcc_except_table
 879              		.align 4
 880              	.LLSDA1158:
 881 0024 FF       		.byte	0xff
 882 0025 9B       		.byte	0x9b
 883 0026 25       		.uleb128 .LLSDATT1158-.LLSDATTD1158
 884              	.LLSDATTD1158:
 885 0027 01       		.byte	0x1
 886 0028 1A       		.uleb128 .LLSDACSE1158-.LLSDACSB1158
 887              	.LLSDACSB1158:
 888 0029 4C       		.uleb128 .LEHB9-.LFB1158
 889 002a 47       		.uleb128 .LEHE9-.LEHB9
 890 002b 00       		.uleb128 0
 891 002c 00       		.uleb128 0
 892 002d 9301     		.uleb128 .LEHB10-.LFB1158
 893 002f 4E       		.uleb128 .LEHE10-.LEHB10
 894 0030 E301     		.uleb128 .L29-.LFB1158
 895 0032 01       		.uleb128 0x1
 896 0033 EF01     		.uleb128 .LEHB11-.LFB1158
 897 0035 3A       		.uleb128 .LEHE11-.LEHB11
 898 0036 B002     		.uleb128 .L30-.LFB1158
 899 0038 00       		.uleb128 0
 900 0039 A902     		.uleb128 .LEHB12-.LFB1158
 901 003b 05       		.uleb128 .LEHE12-.LEHB12
 902 003c 00       		.uleb128 0
 903 003d 00       		.uleb128 0
 904 003e C202     		.uleb128 .LEHB13-.LFB1158
 905 0040 05       		.uleb128 .LEHE13-.LEHB13
 906 0041 00       		.uleb128 0
 907 0042 00       		.uleb128 0
 908              	.LLSDACSE1158:
 909 0043 01       		.byte	0x1
 910 0044 00       		.byte	0
 911 0045 000000   		.align 4
 912 0048 00000000 		.long	0
 913              	
 914              	.LLSDATT1158:
 915              		.text
 917              		.data
 920              	_ZN12_GLOBAL__N_14txt1E:
 921 0000 48656C6C 		.string	"Hello"
 921      6F00
 924              	_ZN12_GLOBAL__N_14txt2E:
 925 0006 48656C6C 		.string	"Hello"
 925      6F00
 926              		.section	.rodata
 927 00e9 00000000 		.align 8
 927      000000
 928              	.LC8:
 929 00f0 43686563 		.string	"CheckEqualsWithStringsWorksOnContentsNonConstNonConst"
 929      6B457175 
 929      616C7357 
 929      69746853 
 929      7472696E 
 930              		.text
 931 02f3 90       		.align 2
 933              	_ZN12_GLOBAL__N_157TestCheckEqualsWithStringsWorksOnContentsNonConstNonConstC2Ev:
 934              	.LFB1160:
  25:TestChecks.cpp **** 
  26:TestChecks.cpp **** char txt1[] = "Hello"; // non-const on purpose so no folding of duplicate data
  27:TestChecks.cpp **** char txt2[] = "Hello";
  28:TestChecks.cpp **** 
  29:TestChecks.cpp **** TEST(CheckEqualsWithStringsWorksOnContentsNonConstNonConst)
 935              		.loc 5 29 1
 936              		.cfi_startproc
 937 02f4 55       		pushq	%rbp
 938              		.cfi_def_cfa_offset 16
 939              		.cfi_offset 6, -16
 940 02f5 4889E5   		movq	%rsp, %rbp
 941              		.cfi_def_cfa_register 6
 942 02f8 53       		pushq	%rbx
 943 02f9 4883EC18 		subq	$24, %rsp
 944              		.cfi_offset 3, -24
 945 02fd 48897DE8 		movq	%rdi, -24(%rbp)
 946              	.LBB8:
 947              		.loc 5 29 1
 948 0301 488B5DE8 		movq	-24(%rbp), %rbx
 949 0305 E8000000 		call	_ZN13UnitTestSuite12GetSuiteNameEv
 949      00
 950 030a 4889C2   		movq	%rax, %rdx
 951 030d 41B81D00 		movl	$29, %r8d
 951      0000
 952 0313 488D0500 		leaq	.LC2(%rip), %rax
 952      000000
 953 031a 4889C1   		movq	%rax, %rcx
 954 031d 488D0500 		leaq	.LC8(%rip), %rax
 954      000000
 955 0324 4889C6   		movq	%rax, %rsi
 956 0327 4889DF   		movq	%rbx, %rdi
 957 032a E8000000 		call	_ZN8UnitTest4TestC2EPKcS2_S2_i@PLT
 957      00
 958 032f 488D1500 		leaq	16+_ZTVN12_GLOBAL__N_157TestCheckEqualsWithStringsWorksOnContentsNonConstNonConstE(%rip), %rd
 958      000000
 959 0336 488B45E8 		movq	-24(%rbp), %rax
 960 033a 488910   		movq	%rdx, (%rax)
 961              	.LBE8:
 962 033d 90       		nop
 963 033e 488B5DF8 		movq	-8(%rbp), %rbx
 964 0342 C9       		leave
 965              		.cfi_def_cfa 7, 8
 966 0343 C3       		ret
 967              		.cfi_endproc
 968              	.LFE1160:
 970              		.set	_ZN12_GLOBAL__N_157TestCheckEqualsWithStringsWorksOnContentsNonConstNonConstC1Ev,_ZN12_GLOBAL
 971              		.local	_ZN12_GLOBAL__N_165testCheckEqualsWithStringsWorksOnContentsNonConstNonConstInstanceE
 972              		.comm	_ZN12_GLOBAL__N_165testCheckEqualsWithStringsWorksOnContentsNonConstNonConstInstanceE,56,32
 973              		.local	_ZN12_GLOBAL__N_158adderCheckEqualsWithStringsWorksOnContentsNonConstNonConstE
 974              		.comm	_ZN12_GLOBAL__N_158adderCheckEqualsWithStringsWorksOnContentsNonConstNonConstE,1,1
 975              		.section	.rodata
 976 0126 0000     		.align 8
 977              	.LC9:
 978 0128 556E6861 		.string	"Unhandled exception in CHECK_EQUAL(0, results.GetFailureCount())"
 978      6E646C65 
 978      64206578 
 978      63657074 
 978      696F6E20 
 979              		.text
 980              		.align 2
 982              	_ZNK12_GLOBAL__N_157TestCheckEqualsWithStringsWorksOnContentsNonConstNonConst7RunImplEv:
 983              	.LFB1162:
  30:TestChecks.cpp **** {
 984              		.loc 5 30 1
 985              		.cfi_startproc
 986              		.cfi_personality 0x9b,DW.ref.__gxx_personality_v0
 987              		.cfi_lsda 0x1b,.LLSDA1162
 988 0344 F30F1EFA 		endbr64
 989 0348 55       		pushq	%rbp
 990              		.cfi_def_cfa_offset 16
 991              		.cfi_offset 6, -16
 992 0349 4889E5   		movq	%rsp, %rbp
 993              		.cfi_def_cfa_register 6
 994 034c 53       		pushq	%rbx
 995 034d 4881EC88 		subq	$136, %rsp
 995      000000
 996              		.cfi_offset 3, -24
 997 0354 4889BD78 		movq	%rdi, -136(%rbp)
 997      FFFFFF
 998              		.loc 5 30 1
 999 035b 64488B04 		movq	%fs:40, %rax
 999      25280000 
 999      00
 1000 0364 488945E8 		movq	%rax, -24(%rbp)
 1001 0368 31C0     		xorl	%eax, %eax
  31:TestChecks.cpp ****     char const* const p1 = txt1;
 1002              		.loc 5 31 23
 1003 036a 488D0500 		leaq	_ZN12_GLOBAL__N_14txt1E(%rip), %rax
 1003      000000
 1004 0371 48894590 		movq	%rax, -112(%rbp)
  32:TestChecks.cpp ****     char const* const p2 = txt2;
 1005              		.loc 5 32 23
 1006 0375 488D0500 		leaq	_ZN12_GLOBAL__N_14txt2E(%rip), %rax
 1006      000000
 1007 037c 48894598 		movq	%rax, -104(%rbp)
  33:TestChecks.cpp ****     TestResults results;
 1008              		.loc 5 33 17
 1009 0380 488D45A0 		leaq	-96(%rbp), %rax
 1010 0384 BE000000 		movl	$0, %esi
 1010      00
 1011 0389 4889C7   		movq	%rax, %rdi
 1012              	.LEHB14:
 1013 038c E8000000 		call	_ZN8UnitTest11TestResultsC1EPNS_12TestReporterE@PLT
 1013      00
  34:TestChecks.cpp ****     CheckEqual(results, p1, p2, TestDetails("", "", "", 0));
 1014              		.loc 5 34 33
 1015 0391 488D45C0 		leaq	-64(%rbp), %rax
 1016 0395 41B80000 		movl	$0, %r8d
 1016      0000
 1017 039b 488D1500 		leaq	.LC6(%rip), %rdx
 1017      000000
 1018 03a2 4889D1   		movq	%rdx, %rcx
 1019 03a5 488D1500 		leaq	.LC6(%rip), %rdx
 1019      000000
 1020 03ac 488D3500 		leaq	.LC6(%rip), %rsi
 1020      000000
 1021 03b3 4889C7   		movq	%rax, %rdi
 1022 03b6 E8000000 		call	_ZN8UnitTest11TestDetailsC1EPKcS2_S2_i@PLT
 1022      00
 1023              		.loc 5 34 15
 1024 03bb 488D55C0 		leaq	-64(%rbp), %rdx
 1025 03bf 488D45A0 		leaq	-96(%rbp), %rax
 1026 03c3 4889D1   		movq	%rdx, %rcx
 1027 03c6 488D1500 		leaq	_ZN12_GLOBAL__N_14txt2E(%rip), %rdx
 1027      000000
 1028 03cd 488D3500 		leaq	_ZN12_GLOBAL__N_14txt1E(%rip), %rsi
 1028      000000
 1029 03d4 4889C7   		movq	%rax, %rdi
 1030 03d7 E8000000 		call	_ZN8UnitTest10CheckEqualERNS_11TestResultsEPKcS3_RKNS_11TestDetailsE@PLT
 1030      00
 1031              	.LEHE14:
 1032              	.LEHB15:
  35:TestChecks.cpp ****     CHECK_EQUAL(0, results.GetFailureCount());
 1033              		.loc 5 35 5
 1034 03dc E8000000 		call	_ZN8UnitTest11CurrentTest7DetailsEv@PLT
 1034      00
 1035 03e1 488B08   		movq	(%rax), %rcx
 1036 03e4 488D45C0 		leaq	-64(%rbp), %rax
 1037 03e8 BA230000 		movl	$35, %edx
 1037      00
 1038 03ed 4889CE   		movq	%rcx, %rsi
 1039 03f0 4889C7   		movq	%rax, %rdi
 1040 03f3 E8000000 		call	_ZN8UnitTest11TestDetailsC1ERKS0_i@PLT
 1040      00
 1041              		.loc 5 35 5 is_stmt 0 discriminator 4
 1042 03f8 488D45A0 		leaq	-96(%rbp), %rax
 1043 03fc 4889C7   		movq	%rax, %rdi
 1044 03ff E8000000 		call	_ZNK8UnitTest11TestResults15GetFailureCountEv@PLT
 1044      00
 1045 0404 89458C   		movl	%eax, -116(%rbp)
 1046 0407 C7458800 		movl	$0, -120(%rbp)
 1046      000000
 1047 040e E8000000 		call	_ZN8UnitTest11CurrentTest7ResultsEv@PLT
 1047      00
 1048              		.loc 5 35 5 discriminator 6
 1049 0413 488B00   		movq	(%rax), %rax
 1050 0416 488D4DC0 		leaq	-64(%rbp), %rcx
 1051 041a 488D558C 		leaq	-116(%rbp), %rdx
 1052 041e 488D7588 		leaq	-120(%rbp), %rsi
 1053 0422 4889C7   		movq	%rax, %rdi
 1054 0425 E8000000 		call	_ZN8UnitTest10CheckEqualIiiEEvRNS_11TestResultsERKT_RKT0_RKNS_11TestDetailsE
 1054      00
 1055              	.LEHE15:
  36:TestChecks.cpp **** }
 1056              		.loc 5 36 1 is_stmt 1
 1057 042a EB64     		jmp	.L32
 1058              	.L37:
 1059 042c F30F1EFA 		endbr64
  35:TestChecks.cpp ****     CHECK_EQUAL(0, results.GetFailureCount());
 1060              		.loc 5 35 5
 1061 0430 4889C7   		movq	%rax, %rdi
 1062 0433 E8000000 		call	__cxa_begin_catch@PLT
 1062      00
 1063              	.LEHB16:
 1064 0438 E8000000 		call	_ZN8UnitTest11CurrentTest7ResultsEv@PLT
 1064      00
  35:TestChecks.cpp ****     CHECK_EQUAL(0, results.GetFailureCount());
 1065              		.loc 5 35 5 is_stmt 0 discriminator 3
 1066 043d 488B18   		movq	(%rax), %rbx
 1067 0440 E8000000 		call	_ZN8UnitTest11CurrentTest7DetailsEv@PLT
 1067      00
  35:TestChecks.cpp ****     CHECK_EQUAL(0, results.GetFailureCount());
 1068              		.loc 5 35 5 discriminator 13
 1069 0445 488B08   		movq	(%rax), %rcx
 1070 0448 488D45C0 		leaq	-64(%rbp), %rax
 1071 044c BA230000 		movl	$35, %edx
 1071      00
 1072 0451 4889CE   		movq	%rcx, %rsi
 1073 0454 4889C7   		movq	%rax, %rdi
 1074 0457 E8000000 		call	_ZN8UnitTest11TestDetailsC1ERKS0_i@PLT
 1074      00
  35:TestChecks.cpp ****     CHECK_EQUAL(0, results.GetFailureCount());
 1075              		.loc 5 35 5 discriminator 17
 1076 045c 488D45C0 		leaq	-64(%rbp), %rax
 1077 0460 488D1500 		leaq	.LC9(%rip), %rdx
 1077      000000
 1078 0467 4889C6   		movq	%rax, %rsi
 1079 046a 4889DF   		movq	%rbx, %rdi
 1080 046d E8000000 		call	_ZN8UnitTest11TestResults13OnTestFailureERKNS_11TestDetailsEPKc@PLT
 1080      00
 1081              	.LEHE16:
 1082              	.LEHB17:
  35:TestChecks.cpp ****     CHECK_EQUAL(0, results.GetFailureCount());
 1083              		.loc 5 35 5 discriminator 19
 1084 0472 E8000000 		call	__cxa_end_catch@PLT
 1084      00
 1085              	.LEHE17:
 1086              		.loc 5 36 1 is_stmt 1 discriminator 19
 1087 0477 EB17     		jmp	.L32
 1088              	.L38:
 1089 0479 F30F1EFA 		endbr64
  35:TestChecks.cpp ****     CHECK_EQUAL(0, results.GetFailureCount());
 1090              		.loc 5 35 5
 1091 047d 4889C3   		movq	%rax, %rbx
 1092 0480 E8000000 		call	__cxa_end_catch@PLT
 1092      00
 1093 0485 4889D8   		movq	%rbx, %rax
 1094 0488 4889C7   		movq	%rax, %rdi
 1095              	.LEHB18:
 1096 048b E8000000 		call	_Unwind_Resume@PLT
 1096      00
 1097              	.LEHE18:
 1098              	.L32:
 1099              		.loc 5 36 1
 1100 0490 488B45E8 		movq	-24(%rbp), %rax
 1101 0494 64482B04 		subq	%fs:40, %rax
 1101      25280000 
 1101      00
 1102 049d 7405     		je	.L36
 1103 049f E8000000 		call	__stack_chk_fail@PLT
 1103      00
 1104              	.L36:
 1105 04a4 488B5DF8 		movq	-8(%rbp), %rbx
 1106 04a8 C9       		leave
 1107              		.cfi_def_cfa 7, 8
 1108 04a9 C3       		ret
 1109              		.cfi_endproc
 1110              	.LFE1162:
 1111              		.section	.gcc_except_table
 1112              		.align 4
 1113              	.LLSDA1162:
 1114 004c FF       		.byte	0xff
 1115 004d 9B       		.byte	0x9b
 1116 004e 25       		.uleb128 .LLSDATT1162-.LLSDATTD1162
 1117              	.LLSDATTD1162:
 1118 004f 01       		.byte	0x1
 1119 0050 1A       		.uleb128 .LLSDACSE1162-.LLSDACSB1162
 1120              	.LLSDACSB1162:
 1121 0051 48       		.uleb128 .LEHB14-.LFB1162
 1122 0052 50       		.uleb128 .LEHE14-.LEHB14
 1123 0053 00       		.uleb128 0
 1124 0054 00       		.uleb128 0
 1125 0055 9801     		.uleb128 .LEHB15-.LFB1162
 1126 0057 4E       		.uleb128 .LEHE15-.LEHB15
 1127 0058 E801     		.uleb128 .L37-.LFB1162
 1128 005a 01       		.uleb128 0x1
 1129 005b F401     		.uleb128 .LEHB16-.LFB1162
 1130 005d 3A       		.uleb128 .LEHE16-.LEHB16
 1131 005e B502     		.uleb128 .L38-.LFB1162
 1132 0060 00       		.uleb128 0
 1133 0061 AE02     		.uleb128 .LEHB17-.LFB1162
 1134 0063 05       		.uleb128 .LEHE17-.LEHB17
 1135 0064 00       		.uleb128 0
 1136 0065 00       		.uleb128 0
 1137 0066 C702     		.uleb128 .LEHB18-.LFB1162
 1138 0068 05       		.uleb128 .LEHE18-.LEHB18
 1139 0069 00       		.uleb128 0
 1140 006a 00       		.uleb128 0
 1141              	.LLSDACSE1162:
 1142 006b 01       		.byte	0x1
 1143 006c 00       		.byte	0
 1144 006d 000000   		.align 4
 1145 0070 00000000 		.long	0
 1146              	
 1147              	.LLSDATT1162:
 1148              		.text
 1150              		.section	.rodata
 1151 0169 00000000 		.align 8
 1151      000000
 1152              	.LC10:
 1153 0170 43686563 		.string	"CheckEqualsWithStringsWorksOnContentsConstConst"
 1153      6B457175 
 1153      616C7357 
 1153      69746853 
 1153      7472696E 
 1154              		.text
 1155              		.align 2
 1157              	_ZN12_GLOBAL__N_151TestCheckEqualsWithStringsWorksOnContentsConstConstC2Ev:
 1158              	.LFB1164:
  37:TestChecks.cpp **** 
  38:TestChecks.cpp **** TEST(CheckEqualsWithStringsWorksOnContentsConstConst)
 1159              		.loc 5 38 1
 1160              		.cfi_startproc
 1161 04aa 55       		pushq	%rbp
 1162              		.cfi_def_cfa_offset 16
 1163              		.cfi_offset 6, -16
 1164 04ab 4889E5   		movq	%rsp, %rbp
 1165              		.cfi_def_cfa_register 6
 1166 04ae 53       		pushq	%rbx
 1167 04af 4883EC18 		subq	$24, %rsp
 1168              		.cfi_offset 3, -24
 1169 04b3 48897DE8 		movq	%rdi, -24(%rbp)
 1170              	.LBB9:
 1171              		.loc 5 38 1
 1172 04b7 488B5DE8 		movq	-24(%rbp), %rbx
 1173 04bb E8000000 		call	_ZN13UnitTestSuite12GetSuiteNameEv
 1173      00
 1174 04c0 4889C2   		movq	%rax, %rdx
 1175 04c3 41B82600 		movl	$38, %r8d
 1175      0000
 1176 04c9 488D0500 		leaq	.LC2(%rip), %rax
 1176      000000
 1177 04d0 4889C1   		movq	%rax, %rcx
 1178 04d3 488D0500 		leaq	.LC10(%rip), %rax
 1178      000000
 1179 04da 4889C6   		movq	%rax, %rsi
 1180 04dd 4889DF   		movq	%rbx, %rdi
 1181 04e0 E8000000 		call	_ZN8UnitTest4TestC2EPKcS2_S2_i@PLT
 1181      00
 1182 04e5 488D1500 		leaq	16+_ZTVN12_GLOBAL__N_151TestCheckEqualsWithStringsWorksOnContentsConstConstE(%rip), %rdx
 1182      000000
 1183 04ec 488B45E8 		movq	-24(%rbp), %rax
 1184 04f0 488910   		movq	%rdx, (%rax)
 1185              	.LBE9:
 1186 04f3 90       		nop
 1187 04f4 488B5DF8 		movq	-8(%rbp), %rbx
 1188 04f8 C9       		leave
 1189              		.cfi_def_cfa 7, 8
 1190 04f9 C3       		ret
 1191              		.cfi_endproc
 1192              	.LFE1164:
 1194              		.set	_ZN12_GLOBAL__N_151TestCheckEqualsWithStringsWorksOnContentsConstConstC1Ev,_ZN12_GLOBAL__N_15
 1195              		.local	_ZN12_GLOBAL__N_159testCheckEqualsWithStringsWorksOnContentsConstConstInstanceE
 1196              		.comm	_ZN12_GLOBAL__N_159testCheckEqualsWithStringsWorksOnContentsConstConstInstanceE,56,32
 1197              		.local	_ZN12_GLOBAL__N_152adderCheckEqualsWithStringsWorksOnContentsConstConstE
 1198              		.comm	_ZN12_GLOBAL__N_152adderCheckEqualsWithStringsWorksOnContentsConstConstE,1,1
 1199              		.align 2
 1201              	_ZNK12_GLOBAL__N_151TestCheckEqualsWithStringsWorksOnContentsConstConst7RunImplEv:
 1202              	.LFB1166:
  39:TestChecks.cpp **** {
 1203              		.loc 5 39 1
 1204              		.cfi_startproc
 1205              		.cfi_personality 0x9b,DW.ref.__gxx_personality_v0
 1206              		.cfi_lsda 0x1b,.LLSDA1166
 1207 04fa F30F1EFA 		endbr64
 1208 04fe 55       		pushq	%rbp
 1209              		.cfi_def_cfa_offset 16
 1210              		.cfi_offset 6, -16
 1211 04ff 4889E5   		movq	%rsp, %rbp
 1212              		.cfi_def_cfa_register 6
 1213 0502 53       		pushq	%rbx
 1214 0503 4881EC88 		subq	$136, %rsp
 1214      000000
 1215              		.cfi_offset 3, -24
 1216 050a 4889BD78 		movq	%rdi, -136(%rbp)
 1216      FFFFFF
 1217              		.loc 5 39 1
 1218 0511 64488B04 		movq	%fs:40, %rax
 1218      25280000 
 1218      00
 1219 051a 488945E8 		movq	%rax, -24(%rbp)
 1220 051e 31C0     		xorl	%eax, %eax
  40:TestChecks.cpp ****     char* const p1 = txt1;
 1221              		.loc 5 40 17
 1222 0520 488D0500 		leaq	_ZN12_GLOBAL__N_14txt1E(%rip), %rax
 1222      000000
 1223 0527 48894590 		movq	%rax, -112(%rbp)
  41:TestChecks.cpp ****     char* const p2 = txt2;
 1224              		.loc 5 41 17
 1225 052b 488D0500 		leaq	_ZN12_GLOBAL__N_14txt2E(%rip), %rax
 1225      000000
 1226 0532 48894598 		movq	%rax, -104(%rbp)
  42:TestChecks.cpp ****     TestResults results;
 1227              		.loc 5 42 17
 1228 0536 488D45A0 		leaq	-96(%rbp), %rax
 1229 053a BE000000 		movl	$0, %esi
 1229      00
 1230 053f 4889C7   		movq	%rax, %rdi
 1231              	.LEHB19:
 1232 0542 E8000000 		call	_ZN8UnitTest11TestResultsC1EPNS_12TestReporterE@PLT
 1232      00
  43:TestChecks.cpp ****     CheckEqual(results, p1, p2, TestDetails("", "", "", 0));
 1233              		.loc 5 43 33
 1234 0547 488D45C0 		leaq	-64(%rbp), %rax
 1235 054b 41B80000 		movl	$0, %r8d
 1235      0000
 1236 0551 488D1500 		leaq	.LC6(%rip), %rdx
 1236      000000
 1237 0558 4889D1   		movq	%rdx, %rcx
 1238 055b 488D1500 		leaq	.LC6(%rip), %rdx
 1238      000000
 1239 0562 488D3500 		leaq	.LC6(%rip), %rsi
 1239      000000
 1240 0569 4889C7   		movq	%rax, %rdi
 1241 056c E8000000 		call	_ZN8UnitTest11TestDetailsC1EPKcS2_S2_i@PLT
 1241      00
 1242              		.loc 5 43 15
 1243 0571 488D55C0 		leaq	-64(%rbp), %rdx
 1244 0575 488D45A0 		leaq	-96(%rbp), %rax
 1245 0579 4889D1   		movq	%rdx, %rcx
 1246 057c 488D1500 		leaq	_ZN12_GLOBAL__N_14txt2E(%rip), %rdx
 1246      000000
 1247 0583 488D3500 		leaq	_ZN12_GLOBAL__N_14txt1E(%rip), %rsi
 1247      000000
 1248 058a 4889C7   		movq	%rax, %rdi
 1249 058d E8000000 		call	_ZN8UnitTest10CheckEqualERNS_11TestResultsEPcS2_RKNS_11TestDetailsE@PLT
 1249      00
 1250              	.LEHE19:
 1251              	.LEHB20:
  44:TestChecks.cpp ****     CHECK_EQUAL(0, results.GetFailureCount());
 1252              		.loc 5 44 5
 1253 0592 E8000000 		call	_ZN8UnitTest11CurrentTest7DetailsEv@PLT
 1253      00
 1254 0597 488B08   		movq	(%rax), %rcx
 1255 059a 488D45C0 		leaq	-64(%rbp), %rax
 1256 059e BA2C0000 		movl	$44, %edx
 1256      00
 1257 05a3 4889CE   		movq	%rcx, %rsi
 1258 05a6 4889C7   		movq	%rax, %rdi
 1259 05a9 E8000000 		call	_ZN8UnitTest11TestDetailsC1ERKS0_i@PLT
 1259      00
 1260              		.loc 5 44 5 is_stmt 0 discriminator 4
 1261 05ae 488D45A0 		leaq	-96(%rbp), %rax
 1262 05b2 4889C7   		movq	%rax, %rdi
 1263 05b5 E8000000 		call	_ZNK8UnitTest11TestResults15GetFailureCountEv@PLT
 1263      00
 1264 05ba 89458C   		movl	%eax, -116(%rbp)
 1265 05bd C7458800 		movl	$0, -120(%rbp)
 1265      000000
 1266 05c4 E8000000 		call	_ZN8UnitTest11CurrentTest7ResultsEv@PLT
 1266      00
 1267              		.loc 5 44 5 discriminator 6
 1268 05c9 488B00   		movq	(%rax), %rax
 1269 05cc 488D4DC0 		leaq	-64(%rbp), %rcx
 1270 05d0 488D558C 		leaq	-116(%rbp), %rdx
 1271 05d4 488D7588 		leaq	-120(%rbp), %rsi
 1272 05d8 4889C7   		movq	%rax, %rdi
 1273 05db E8000000 		call	_ZN8UnitTest10CheckEqualIiiEEvRNS_11TestResultsERKT_RKT0_RKNS_11TestDetailsE
 1273      00
 1274              	.LEHE20:
  45:TestChecks.cpp **** }
 1275              		.loc 5 45 1 is_stmt 1
 1276 05e0 EB64     		jmp	.L40
 1277              	.L45:
 1278 05e2 F30F1EFA 		endbr64
  44:TestChecks.cpp ****     CHECK_EQUAL(0, results.GetFailureCount());
 1279              		.loc 5 44 5
 1280 05e6 4889C7   		movq	%rax, %rdi
 1281 05e9 E8000000 		call	__cxa_begin_catch@PLT
 1281      00
 1282              	.LEHB21:
 1283 05ee E8000000 		call	_ZN8UnitTest11CurrentTest7ResultsEv@PLT
 1283      00
  44:TestChecks.cpp ****     CHECK_EQUAL(0, results.GetFailureCount());
 1284              		.loc 5 44 5 is_stmt 0 discriminator 3
 1285 05f3 488B18   		movq	(%rax), %rbx
 1286 05f6 E8000000 		call	_ZN8UnitTest11CurrentTest7DetailsEv@PLT
 1286      00
  44:TestChecks.cpp ****     CHECK_EQUAL(0, results.GetFailureCount());
 1287              		.loc 5 44 5 discriminator 13
 1288 05fb 488B08   		movq	(%rax), %rcx
 1289 05fe 488D45C0 		leaq	-64(%rbp), %rax
 1290 0602 BA2C0000 		movl	$44, %edx
 1290      00
 1291 0607 4889CE   		movq	%rcx, %rsi
 1292 060a 4889C7   		movq	%rax, %rdi
 1293 060d E8000000 		call	_ZN8UnitTest11TestDetailsC1ERKS0_i@PLT
 1293      00
  44:TestChecks.cpp ****     CHECK_EQUAL(0, results.GetFailureCount());
 1294              		.loc 5 44 5 discriminator 17
 1295 0612 488D45C0 		leaq	-64(%rbp), %rax
 1296 0616 488D1500 		leaq	.LC9(%rip), %rdx
 1296      000000
 1297 061d 4889C6   		movq	%rax, %rsi
 1298 0620 4889DF   		movq	%rbx, %rdi
 1299 0623 E8000000 		call	_ZN8UnitTest11TestResults13OnTestFailureERKNS_11TestDetailsEPKc@PLT
 1299      00
 1300              	.LEHE21:
 1301              	.LEHB22:
  44:TestChecks.cpp ****     CHECK_EQUAL(0, results.GetFailureCount());
 1302              		.loc 5 44 5 discriminator 19
 1303 0628 E8000000 		call	__cxa_end_catch@PLT
 1303      00
 1304              	.LEHE22:
 1305              		.loc 5 45 1 is_stmt 1 discriminator 19
 1306 062d EB17     		jmp	.L40
 1307              	.L46:
 1308 062f F30F1EFA 		endbr64
  44:TestChecks.cpp ****     CHECK_EQUAL(0, results.GetFailureCount());
 1309              		.loc 5 44 5
 1310 0633 4889C3   		movq	%rax, %rbx
 1311 0636 E8000000 		call	__cxa_end_catch@PLT
 1311      00
 1312 063b 4889D8   		movq	%rbx, %rax
 1313 063e 4889C7   		movq	%rax, %rdi
 1314              	.LEHB23:
 1315 0641 E8000000 		call	_Unwind_Resume@PLT
 1315      00
 1316              	.LEHE23:
 1317              	.L40:
 1318              		.loc 5 45 1
 1319 0646 488B45E8 		movq	-24(%rbp), %rax
 1320 064a 64482B04 		subq	%fs:40, %rax
 1320      25280000 
 1320      00
 1321 0653 7405     		je	.L44
 1322 0655 E8000000 		call	__stack_chk_fail@PLT
 1322      00
 1323              	.L44:
 1324 065a 488B5DF8 		movq	-8(%rbp), %rbx
 1325 065e C9       		leave
 1326              		.cfi_def_cfa 7, 8
 1327 065f C3       		ret
 1328              		.cfi_endproc
 1329              	.LFE1166:
 1330              		.section	.gcc_except_table
 1331              		.align 4
 1332              	.LLSDA1166:
 1333 0074 FF       		.byte	0xff
 1334 0075 9B       		.byte	0x9b
 1335 0076 25       		.uleb128 .LLSDATT1166-.LLSDATTD1166
 1336              	.LLSDATTD1166:
 1337 0077 01       		.byte	0x1
 1338 0078 1A       		.uleb128 .LLSDACSE1166-.LLSDACSB1166
 1339              	.LLSDACSB1166:
 1340 0079 48       		.uleb128 .LEHB19-.LFB1166
 1341 007a 50       		.uleb128 .LEHE19-.LEHB19
 1342 007b 00       		.uleb128 0
 1343 007c 00       		.uleb128 0
 1344 007d 9801     		.uleb128 .LEHB20-.LFB1166
 1345 007f 4E       		.uleb128 .LEHE20-.LEHB20
 1346 0080 E801     		.uleb128 .L45-.LFB1166
 1347 0082 01       		.uleb128 0x1
 1348 0083 F401     		.uleb128 .LEHB21-.LFB1166
 1349 0085 3A       		.uleb128 .LEHE21-.LEHB21
 1350 0086 B502     		.uleb128 .L46-.LFB1166
 1351 0088 00       		.uleb128 0
 1352 0089 AE02     		.uleb128 .LEHB22-.LFB1166
 1353 008b 05       		.uleb128 .LEHE22-.LEHB22
 1354 008c 00       		.uleb128 0
 1355 008d 00       		.uleb128 0
 1356 008e C702     		.uleb128 .LEHB23-.LFB1166
 1357 0090 05       		.uleb128 .LEHE23-.LEHB23
 1358 0091 00       		.uleb128 0
 1359 0092 00       		.uleb128 0
 1360              	.LLSDACSE1166:
 1361 0093 01       		.byte	0x1
 1362 0094 00       		.byte	0
 1363 0095 000000   		.align 4
 1364 0098 00000000 		.long	0
 1365              	
 1366              	.LLSDATT1166:
 1367              		.text
 1369              		.section	.rodata
 1370              		.align 8
 1371              	.LC11:
 1372 01a0 43686563 		.string	"CheckEqualsWithStringsWorksOnContentsNonConstConst"
 1372      6B457175 
 1372      616C7357 
 1372      69746853 
 1372      7472696E 
 1373              		.text
 1374              		.align 2
 1376              	_ZN12_GLOBAL__N_154TestCheckEqualsWithStringsWorksOnContentsNonConstConstC2Ev:
 1377              	.LFB1168:
  46:TestChecks.cpp **** 
  47:TestChecks.cpp **** TEST(CheckEqualsWithStringsWorksOnContentsNonConstConst)
 1378              		.loc 5 47 1
 1379              		.cfi_startproc
 1380 0660 55       		pushq	%rbp
 1381              		.cfi_def_cfa_offset 16
 1382              		.cfi_offset 6, -16
 1383 0661 4889E5   		movq	%rsp, %rbp
 1384              		.cfi_def_cfa_register 6
 1385 0664 53       		pushq	%rbx
 1386 0665 4883EC18 		subq	$24, %rsp
 1387              		.cfi_offset 3, -24
 1388 0669 48897DE8 		movq	%rdi, -24(%rbp)
 1389              	.LBB10:
 1390              		.loc 5 47 1
 1391 066d 488B5DE8 		movq	-24(%rbp), %rbx
 1392 0671 E8000000 		call	_ZN13UnitTestSuite12GetSuiteNameEv
 1392      00
 1393 0676 4889C2   		movq	%rax, %rdx
 1394 0679 41B82F00 		movl	$47, %r8d
 1394      0000
 1395 067f 488D0500 		leaq	.LC2(%rip), %rax
 1395      000000
 1396 0686 4889C1   		movq	%rax, %rcx
 1397 0689 488D0500 		leaq	.LC11(%rip), %rax
 1397      000000
 1398 0690 4889C6   		movq	%rax, %rsi
 1399 0693 4889DF   		movq	%rbx, %rdi
 1400 0696 E8000000 		call	_ZN8UnitTest4TestC2EPKcS2_S2_i@PLT
 1400      00
 1401 069b 488D1500 		leaq	16+_ZTVN12_GLOBAL__N_154TestCheckEqualsWithStringsWorksOnContentsNonConstConstE(%rip), %rdx
 1401      000000
 1402 06a2 488B45E8 		movq	-24(%rbp), %rax
 1403 06a6 488910   		movq	%rdx, (%rax)
 1404              	.LBE10:
 1405 06a9 90       		nop
 1406 06aa 488B5DF8 		movq	-8(%rbp), %rbx
 1407 06ae C9       		leave
 1408              		.cfi_def_cfa 7, 8
 1409 06af C3       		ret
 1410              		.cfi_endproc
 1411              	.LFE1168:
 1413              		.set	_ZN12_GLOBAL__N_154TestCheckEqualsWithStringsWorksOnContentsNonConstConstC1Ev,_ZN12_GLOBAL__N
 1414              		.local	_ZN12_GLOBAL__N_162testCheckEqualsWithStringsWorksOnContentsNonConstConstInstanceE
 1415              		.comm	_ZN12_GLOBAL__N_162testCheckEqualsWithStringsWorksOnContentsNonConstConstInstanceE,56,32
 1416              		.local	_ZN12_GLOBAL__N_155adderCheckEqualsWithStringsWorksOnContentsNonConstConstE
 1417              		.comm	_ZN12_GLOBAL__N_155adderCheckEqualsWithStringsWorksOnContentsNonConstConstE,1,1
 1418              		.align 2
 1420              	_ZNK12_GLOBAL__N_154TestCheckEqualsWithStringsWorksOnContentsNonConstConst7RunImplEv:
 1421              	.LFB1170:
  48:TestChecks.cpp **** {
 1422              		.loc 5 48 1
 1423              		.cfi_startproc
 1424              		.cfi_personality 0x9b,DW.ref.__gxx_personality_v0
 1425              		.cfi_lsda 0x1b,.LLSDA1170
 1426 06b0 F30F1EFA 		endbr64
 1427 06b4 55       		pushq	%rbp
 1428              		.cfi_def_cfa_offset 16
 1429              		.cfi_offset 6, -16
 1430 06b5 4889E5   		movq	%rsp, %rbp
 1431              		.cfi_def_cfa_register 6
 1432 06b8 53       		pushq	%rbx
 1433 06b9 4881EC88 		subq	$136, %rsp
 1433      000000
 1434              		.cfi_offset 3, -24
 1435 06c0 4889BD78 		movq	%rdi, -136(%rbp)
 1435      FFFFFF
 1436              		.loc 5 48 1
 1437 06c7 64488B04 		movq	%fs:40, %rax
 1437      25280000 
 1437      00
 1438 06d0 488945E8 		movq	%rax, -24(%rbp)
 1439 06d4 31C0     		xorl	%eax, %eax
  49:TestChecks.cpp ****     char* const p1 = txt1;
 1440              		.loc 5 49 17
 1441 06d6 488D0500 		leaq	_ZN12_GLOBAL__N_14txt1E(%rip), %rax
 1441      000000
 1442 06dd 48894590 		movq	%rax, -112(%rbp)
  50:TestChecks.cpp ****     char const* const p2 = txt2;
 1443              		.loc 5 50 23
 1444 06e1 488D0500 		leaq	_ZN12_GLOBAL__N_14txt2E(%rip), %rax
 1444      000000
 1445 06e8 48894598 		movq	%rax, -104(%rbp)
  51:TestChecks.cpp ****     TestResults results;
 1446              		.loc 5 51 17
 1447 06ec 488D45A0 		leaq	-96(%rbp), %rax
 1448 06f0 BE000000 		movl	$0, %esi
 1448      00
 1449 06f5 4889C7   		movq	%rax, %rdi
 1450              	.LEHB24:
 1451 06f8 E8000000 		call	_ZN8UnitTest11TestResultsC1EPNS_12TestReporterE@PLT
 1451      00
  52:TestChecks.cpp ****     CheckEqual(results, p1, p2, TestDetails("", "", "", 0));
 1452              		.loc 5 52 33
 1453 06fd 488D45C0 		leaq	-64(%rbp), %rax
 1454 0701 41B80000 		movl	$0, %r8d
 1454      0000
 1455 0707 488D1500 		leaq	.LC6(%rip), %rdx
 1455      000000
 1456 070e 4889D1   		movq	%rdx, %rcx
 1457 0711 488D1500 		leaq	.LC6(%rip), %rdx
 1457      000000
 1458 0718 488D3500 		leaq	.LC6(%rip), %rsi
 1458      000000
 1459 071f 4889C7   		movq	%rax, %rdi
 1460 0722 E8000000 		call	_ZN8UnitTest11TestDetailsC1EPKcS2_S2_i@PLT
 1460      00
 1461              		.loc 5 52 15
 1462 0727 488D55C0 		leaq	-64(%rbp), %rdx
 1463 072b 488D45A0 		leaq	-96(%rbp), %rax
 1464 072f 4889D1   		movq	%rdx, %rcx
 1465 0732 488D1500 		leaq	_ZN12_GLOBAL__N_14txt2E(%rip), %rdx
 1465      000000
 1466 0739 488D3500 		leaq	_ZN12_GLOBAL__N_14txt1E(%rip), %rsi
 1466      000000
 1467 0740 4889C7   		movq	%rax, %rdi
 1468 0743 E8000000 		call	_ZN8UnitTest10CheckEqualERNS_11TestResultsEPcPKcRKNS_11TestDetailsE@PLT
 1468      00
 1469              	.LEHE24:
 1470              	.LEHB25:
  53:TestChecks.cpp ****     CHECK_EQUAL(0, results.GetFailureCount());
 1471              		.loc 5 53 5
 1472 0748 E8000000 		call	_ZN8UnitTest11CurrentTest7DetailsEv@PLT
 1472      00
 1473 074d 488B08   		movq	(%rax), %rcx
 1474 0750 488D45C0 		leaq	-64(%rbp), %rax
 1475 0754 BA350000 		movl	$53, %edx
 1475      00
 1476 0759 4889CE   		movq	%rcx, %rsi
 1477 075c 4889C7   		movq	%rax, %rdi
 1478 075f E8000000 		call	_ZN8UnitTest11TestDetailsC1ERKS0_i@PLT
 1478      00
 1479              		.loc 5 53 5 is_stmt 0 discriminator 4
 1480 0764 488D45A0 		leaq	-96(%rbp), %rax
 1481 0768 4889C7   		movq	%rax, %rdi
 1482 076b E8000000 		call	_ZNK8UnitTest11TestResults15GetFailureCountEv@PLT
 1482      00
 1483 0770 89458C   		movl	%eax, -116(%rbp)
 1484 0773 C7458800 		movl	$0, -120(%rbp)
 1484      000000
 1485 077a E8000000 		call	_ZN8UnitTest11CurrentTest7ResultsEv@PLT
 1485      00
 1486              		.loc 5 53 5 discriminator 6
 1487 077f 488B00   		movq	(%rax), %rax
 1488 0782 488D4DC0 		leaq	-64(%rbp), %rcx
 1489 0786 488D558C 		leaq	-116(%rbp), %rdx
 1490 078a 488D7588 		leaq	-120(%rbp), %rsi
 1491 078e 4889C7   		movq	%rax, %rdi
 1492 0791 E8000000 		call	_ZN8UnitTest10CheckEqualIiiEEvRNS_11TestResultsERKT_RKT0_RKNS_11TestDetailsE
 1492      00
 1493              	.LEHE25:
  54:TestChecks.cpp **** }
 1494              		.loc 5 54 1 is_stmt 1
 1495 0796 EB64     		jmp	.L48
 1496              	.L53:
 1497 0798 F30F1EFA 		endbr64
  53:TestChecks.cpp ****     CHECK_EQUAL(0, results.GetFailureCount());
 1498              		.loc 5 53 5
 1499 079c 4889C7   		movq	%rax, %rdi
 1500 079f E8000000 		call	__cxa_begin_catch@PLT
 1500      00
 1501              	.LEHB26:
 1502 07a4 E8000000 		call	_ZN8UnitTest11CurrentTest7ResultsEv@PLT
 1502      00
  53:TestChecks.cpp ****     CHECK_EQUAL(0, results.GetFailureCount());
 1503              		.loc 5 53 5 is_stmt 0 discriminator 3
 1504 07a9 488B18   		movq	(%rax), %rbx
 1505 07ac E8000000 		call	_ZN8UnitTest11CurrentTest7DetailsEv@PLT
 1505      00
  53:TestChecks.cpp ****     CHECK_EQUAL(0, results.GetFailureCount());
 1506              		.loc 5 53 5 discriminator 13
 1507 07b1 488B08   		movq	(%rax), %rcx
 1508 07b4 488D45C0 		leaq	-64(%rbp), %rax
 1509 07b8 BA350000 		movl	$53, %edx
 1509      00
 1510 07bd 4889CE   		movq	%rcx, %rsi
 1511 07c0 4889C7   		movq	%rax, %rdi
 1512 07c3 E8000000 		call	_ZN8UnitTest11TestDetailsC1ERKS0_i@PLT
 1512      00
  53:TestChecks.cpp ****     CHECK_EQUAL(0, results.GetFailureCount());
 1513              		.loc 5 53 5 discriminator 17
 1514 07c8 488D45C0 		leaq	-64(%rbp), %rax
 1515 07cc 488D1500 		leaq	.LC9(%rip), %rdx
 1515      000000
 1516 07d3 4889C6   		movq	%rax, %rsi
 1517 07d6 4889DF   		movq	%rbx, %rdi
 1518 07d9 E8000000 		call	_ZN8UnitTest11TestResults13OnTestFailureERKNS_11TestDetailsEPKc@PLT
 1518      00
 1519              	.LEHE26:
 1520              	.LEHB27:
  53:TestChecks.cpp ****     CHECK_EQUAL(0, results.GetFailureCount());
 1521              		.loc 5 53 5 discriminator 19
 1522 07de E8000000 		call	__cxa_end_catch@PLT
 1522      00
 1523              	.LEHE27:
 1524              		.loc 5 54 1 is_stmt 1 discriminator 19
 1525 07e3 EB17     		jmp	.L48
 1526              	.L54:
 1527 07e5 F30F1EFA 		endbr64
  53:TestChecks.cpp ****     CHECK_EQUAL(0, results.GetFailureCount());
 1528              		.loc 5 53 5
 1529 07e9 4889C3   		movq	%rax, %rbx
 1530 07ec E8000000 		call	__cxa_end_catch@PLT
 1530      00
 1531 07f1 4889D8   		movq	%rbx, %rax
 1532 07f4 4889C7   		movq	%rax, %rdi
 1533              	.LEHB28:
 1534 07f7 E8000000 		call	_Unwind_Resume@PLT
 1534      00
 1535              	.LEHE28:
 1536              	.L48:
 1537              		.loc 5 54 1
 1538 07fc 488B45E8 		movq	-24(%rbp), %rax
 1539 0800 64482B04 		subq	%fs:40, %rax
 1539      25280000 
 1539      00
 1540 0809 7405     		je	.L52
 1541 080b E8000000 		call	__stack_chk_fail@PLT
 1541      00
 1542              	.L52:
 1543 0810 488B5DF8 		movq	-8(%rbp), %rbx
 1544 0814 C9       		leave
 1545              		.cfi_def_cfa 7, 8
 1546 0815 C3       		ret
 1547              		.cfi_endproc
 1548              	.LFE1170:
 1549              		.section	.gcc_except_table
 1550              		.align 4
 1551              	.LLSDA1170:
 1552 009c FF       		.byte	0xff
 1553 009d 9B       		.byte	0x9b
 1554 009e 25       		.uleb128 .LLSDATT1170-.LLSDATTD1170
 1555              	.LLSDATTD1170:
 1556 009f 01       		.byte	0x1
 1557 00a0 1A       		.uleb128 .LLSDACSE1170-.LLSDACSB1170
 1558              	.LLSDACSB1170:
 1559 00a1 48       		.uleb128 .LEHB24-.LFB1170
 1560 00a2 50       		.uleb128 .LEHE24-.LEHB24
 1561 00a3 00       		.uleb128 0
 1562 00a4 00       		.uleb128 0
 1563 00a5 9801     		.uleb128 .LEHB25-.LFB1170
 1564 00a7 4E       		.uleb128 .LEHE25-.LEHB25
 1565 00a8 E801     		.uleb128 .L53-.LFB1170
 1566 00aa 01       		.uleb128 0x1
 1567 00ab F401     		.uleb128 .LEHB26-.LFB1170
 1568 00ad 3A       		.uleb128 .LEHE26-.LEHB26
 1569 00ae B502     		.uleb128 .L54-.LFB1170
 1570 00b0 00       		.uleb128 0
 1571 00b1 AE02     		.uleb128 .LEHB27-.LFB1170
 1572 00b3 05       		.uleb128 .LEHE27-.LEHB27
 1573 00b4 00       		.uleb128 0
 1574 00b5 00       		.uleb128 0
 1575 00b6 C702     		.uleb128 .LEHB28-.LFB1170
 1576 00b8 05       		.uleb128 .LEHE28-.LEHB28
 1577 00b9 00       		.uleb128 0
 1578 00ba 00       		.uleb128 0
 1579              	.LLSDACSE1170:
 1580 00bb 01       		.byte	0x1
 1581 00bc 00       		.byte	0
 1582 00bd 000000   		.align 4
 1583 00c0 00000000 		.long	0
 1584              	
 1585              	.LLSDATT1170:
 1586              		.text
 1588              		.section	.rodata
 1589 01d3 00000000 		.align 8
 1589      00
 1590              	.LC12:
 1591 01d8 43686563 		.string	"CheckEqualsWithStringsWorksOnContentsConstNonConst"
 1591      6B457175 
 1591      616C7357 
 1591      69746853 
 1591      7472696E 
 1592              		.text
 1593              		.align 2
 1595              	_ZN12_GLOBAL__N_154TestCheckEqualsWithStringsWorksOnContentsConstNonConstC2Ev:
 1596              	.LFB1172:
  55:TestChecks.cpp **** 
  56:TestChecks.cpp **** TEST(CheckEqualsWithStringsWorksOnContentsConstNonConst)
 1597              		.loc 5 56 1
 1598              		.cfi_startproc
 1599 0816 55       		pushq	%rbp
 1600              		.cfi_def_cfa_offset 16
 1601              		.cfi_offset 6, -16
 1602 0817 4889E5   		movq	%rsp, %rbp
 1603              		.cfi_def_cfa_register 6
 1604 081a 53       		pushq	%rbx
 1605 081b 4883EC18 		subq	$24, %rsp
 1606              		.cfi_offset 3, -24
 1607 081f 48897DE8 		movq	%rdi, -24(%rbp)
 1608              	.LBB11:
 1609              		.loc 5 56 1
 1610 0823 488B5DE8 		movq	-24(%rbp), %rbx
 1611 0827 E8000000 		call	_ZN13UnitTestSuite12GetSuiteNameEv
 1611      00
 1612 082c 4889C2   		movq	%rax, %rdx
 1613 082f 41B83800 		movl	$56, %r8d
 1613      0000
 1614 0835 488D0500 		leaq	.LC2(%rip), %rax
 1614      000000
 1615 083c 4889C1   		movq	%rax, %rcx
 1616 083f 488D0500 		leaq	.LC12(%rip), %rax
 1616      000000
 1617 0846 4889C6   		movq	%rax, %rsi
 1618 0849 4889DF   		movq	%rbx, %rdi
 1619 084c E8000000 		call	_ZN8UnitTest4TestC2EPKcS2_S2_i@PLT
 1619      00
 1620 0851 488D1500 		leaq	16+_ZTVN12_GLOBAL__N_154TestCheckEqualsWithStringsWorksOnContentsConstNonConstE(%rip), %rdx
 1620      000000
 1621 0858 488B45E8 		movq	-24(%rbp), %rax
 1622 085c 488910   		movq	%rdx, (%rax)
 1623              	.LBE11:
 1624 085f 90       		nop
 1625 0860 488B5DF8 		movq	-8(%rbp), %rbx
 1626 0864 C9       		leave
 1627              		.cfi_def_cfa 7, 8
 1628 0865 C3       		ret
 1629              		.cfi_endproc
 1630              	.LFE1172:
 1632              		.set	_ZN12_GLOBAL__N_154TestCheckEqualsWithStringsWorksOnContentsConstNonConstC1Ev,_ZN12_GLOBAL__N
 1633              		.local	_ZN12_GLOBAL__N_162testCheckEqualsWithStringsWorksOnContentsConstNonConstInstanceE
 1634              		.comm	_ZN12_GLOBAL__N_162testCheckEqualsWithStringsWorksOnContentsConstNonConstInstanceE,56,32
 1635              		.local	_ZN12_GLOBAL__N_155adderCheckEqualsWithStringsWorksOnContentsConstNonConstE
 1636              		.comm	_ZN12_GLOBAL__N_155adderCheckEqualsWithStringsWorksOnContentsConstNonConstE,1,1
 1637              		.align 2
 1639              	_ZNK12_GLOBAL__N_154TestCheckEqualsWithStringsWorksOnContentsConstNonConst7RunImplEv:
 1640              	.LFB1174:
  57:TestChecks.cpp **** {
 1641              		.loc 5 57 1
 1642              		.cfi_startproc
 1643              		.cfi_personality 0x9b,DW.ref.__gxx_personality_v0
 1644              		.cfi_lsda 0x1b,.LLSDA1174
 1645 0866 F30F1EFA 		endbr64
 1646 086a 55       		pushq	%rbp
 1647              		.cfi_def_cfa_offset 16
 1648              		.cfi_offset 6, -16
 1649 086b 4889E5   		movq	%rsp, %rbp
 1650              		.cfi_def_cfa_register 6
 1651 086e 53       		pushq	%rbx
 1652 086f 4881EC88 		subq	$136, %rsp
 1652      000000
 1653              		.cfi_offset 3, -24
 1654 0876 4889BD78 		movq	%rdi, -136(%rbp)
 1654      FFFFFF
 1655              		.loc 5 57 1
 1656 087d 64488B04 		movq	%fs:40, %rax
 1656      25280000 
 1656      00
 1657 0886 488945E8 		movq	%rax, -24(%rbp)
 1658 088a 31C0     		xorl	%eax, %eax
  58:TestChecks.cpp ****     char const* const p1 = txt1;
 1659              		.loc 5 58 23
 1660 088c 488D0500 		leaq	_ZN12_GLOBAL__N_14txt1E(%rip), %rax
 1660      000000
 1661 0893 48894590 		movq	%rax, -112(%rbp)
  59:TestChecks.cpp ****     char* const p2 = txt2;
 1662              		.loc 5 59 17
 1663 0897 488D0500 		leaq	_ZN12_GLOBAL__N_14txt2E(%rip), %rax
 1663      000000
 1664 089e 48894598 		movq	%rax, -104(%rbp)
  60:TestChecks.cpp ****     TestResults results;
 1665              		.loc 5 60 17
 1666 08a2 488D45A0 		leaq	-96(%rbp), %rax
 1667 08a6 BE000000 		movl	$0, %esi
 1667      00
 1668 08ab 4889C7   		movq	%rax, %rdi
 1669              	.LEHB29:
 1670 08ae E8000000 		call	_ZN8UnitTest11TestResultsC1EPNS_12TestReporterE@PLT
 1670      00
  61:TestChecks.cpp ****     CheckEqual(results, p1, p2, TestDetails("", "", "", 0));
 1671              		.loc 5 61 33
 1672 08b3 488D45C0 		leaq	-64(%rbp), %rax
 1673 08b7 41B80000 		movl	$0, %r8d
 1673      0000
 1674 08bd 488D1500 		leaq	.LC6(%rip), %rdx
 1674      000000
 1675 08c4 4889D1   		movq	%rdx, %rcx
 1676 08c7 488D1500 		leaq	.LC6(%rip), %rdx
 1676      000000
 1677 08ce 488D3500 		leaq	.LC6(%rip), %rsi
 1677      000000
 1678 08d5 4889C7   		movq	%rax, %rdi
 1679 08d8 E8000000 		call	_ZN8UnitTest11TestDetailsC1EPKcS2_S2_i@PLT
 1679      00
 1680              		.loc 5 61 15
 1681 08dd 488D55C0 		leaq	-64(%rbp), %rdx
 1682 08e1 488D45A0 		leaq	-96(%rbp), %rax
 1683 08e5 4889D1   		movq	%rdx, %rcx
 1684 08e8 488D1500 		leaq	_ZN12_GLOBAL__N_14txt2E(%rip), %rdx
 1684      000000
 1685 08ef 488D3500 		leaq	_ZN12_GLOBAL__N_14txt1E(%rip), %rsi
 1685      000000
 1686 08f6 4889C7   		movq	%rax, %rdi
 1687 08f9 E8000000 		call	_ZN8UnitTest10CheckEqualERNS_11TestResultsEPKcPcRKNS_11TestDetailsE@PLT
 1687      00
 1688              	.LEHE29:
 1689              	.LEHB30:
  62:TestChecks.cpp ****     CHECK_EQUAL(0, results.GetFailureCount());
 1690              		.loc 5 62 5
 1691 08fe E8000000 		call	_ZN8UnitTest11CurrentTest7DetailsEv@PLT
 1691      00
 1692 0903 488B08   		movq	(%rax), %rcx
 1693 0906 488D45C0 		leaq	-64(%rbp), %rax
 1694 090a BA3E0000 		movl	$62, %edx
 1694      00
 1695 090f 4889CE   		movq	%rcx, %rsi
 1696 0912 4889C7   		movq	%rax, %rdi
 1697 0915 E8000000 		call	_ZN8UnitTest11TestDetailsC1ERKS0_i@PLT
 1697      00
 1698              		.loc 5 62 5 is_stmt 0 discriminator 4
 1699 091a 488D45A0 		leaq	-96(%rbp), %rax
 1700 091e 4889C7   		movq	%rax, %rdi
 1701 0921 E8000000 		call	_ZNK8UnitTest11TestResults15GetFailureCountEv@PLT
 1701      00
 1702 0926 89458C   		movl	%eax, -116(%rbp)
 1703 0929 C7458800 		movl	$0, -120(%rbp)
 1703      000000
 1704 0930 E8000000 		call	_ZN8UnitTest11CurrentTest7ResultsEv@PLT
 1704      00
 1705              		.loc 5 62 5 discriminator 6
 1706 0935 488B00   		movq	(%rax), %rax
 1707 0938 488D4DC0 		leaq	-64(%rbp), %rcx
 1708 093c 488D558C 		leaq	-116(%rbp), %rdx
 1709 0940 488D7588 		leaq	-120(%rbp), %rsi
 1710 0944 4889C7   		movq	%rax, %rdi
 1711 0947 E8000000 		call	_ZN8UnitTest10CheckEqualIiiEEvRNS_11TestResultsERKT_RKT0_RKNS_11TestDetailsE
 1711      00
 1712              	.LEHE30:
  63:TestChecks.cpp **** }
 1713              		.loc 5 63 1 is_stmt 1
 1714 094c EB64     		jmp	.L56
 1715              	.L61:
 1716 094e F30F1EFA 		endbr64
  62:TestChecks.cpp ****     CHECK_EQUAL(0, results.GetFailureCount());
 1717              		.loc 5 62 5
 1718 0952 4889C7   		movq	%rax, %rdi
 1719 0955 E8000000 		call	__cxa_begin_catch@PLT
 1719      00
 1720              	.LEHB31:
 1721 095a E8000000 		call	_ZN8UnitTest11CurrentTest7ResultsEv@PLT
 1721      00
  62:TestChecks.cpp ****     CHECK_EQUAL(0, results.GetFailureCount());
 1722              		.loc 5 62 5 is_stmt 0 discriminator 3
 1723 095f 488B18   		movq	(%rax), %rbx
 1724 0962 E8000000 		call	_ZN8UnitTest11CurrentTest7DetailsEv@PLT
 1724      00
  62:TestChecks.cpp ****     CHECK_EQUAL(0, results.GetFailureCount());
 1725              		.loc 5 62 5 discriminator 13
 1726 0967 488B08   		movq	(%rax), %rcx
 1727 096a 488D45C0 		leaq	-64(%rbp), %rax
 1728 096e BA3E0000 		movl	$62, %edx
 1728      00
 1729 0973 4889CE   		movq	%rcx, %rsi
 1730 0976 4889C7   		movq	%rax, %rdi
 1731 0979 E8000000 		call	_ZN8UnitTest11TestDetailsC1ERKS0_i@PLT
 1731      00
  62:TestChecks.cpp ****     CHECK_EQUAL(0, results.GetFailureCount());
 1732              		.loc 5 62 5 discriminator 17
 1733 097e 488D45C0 		leaq	-64(%rbp), %rax
 1734 0982 488D1500 		leaq	.LC9(%rip), %rdx
 1734      000000
 1735 0989 4889C6   		movq	%rax, %rsi
 1736 098c 4889DF   		movq	%rbx, %rdi
 1737 098f E8000000 		call	_ZN8UnitTest11TestResults13OnTestFailureERKNS_11TestDetailsEPKc@PLT
 1737      00
 1738              	.LEHE31:
 1739              	.LEHB32:
  62:TestChecks.cpp ****     CHECK_EQUAL(0, results.GetFailureCount());
 1740              		.loc 5 62 5 discriminator 19
 1741 0994 E8000000 		call	__cxa_end_catch@PLT
 1741      00
 1742              	.LEHE32:
 1743              		.loc 5 63 1 is_stmt 1 discriminator 19
 1744 0999 EB17     		jmp	.L56
 1745              	.L62:
 1746 099b F30F1EFA 		endbr64
  62:TestChecks.cpp ****     CHECK_EQUAL(0, results.GetFailureCount());
 1747              		.loc 5 62 5
 1748 099f 4889C3   		movq	%rax, %rbx
 1749 09a2 E8000000 		call	__cxa_end_catch@PLT
 1749      00
 1750 09a7 4889D8   		movq	%rbx, %rax
 1751 09aa 4889C7   		movq	%rax, %rdi
 1752              	.LEHB33:
 1753 09ad E8000000 		call	_Unwind_Resume@PLT
 1753      00
 1754              	.LEHE33:
 1755              	.L56:
 1756              		.loc 5 63 1
 1757 09b2 488B45E8 		movq	-24(%rbp), %rax
 1758 09b6 64482B04 		subq	%fs:40, %rax
 1758      25280000 
 1758      00
 1759 09bf 7405     		je	.L60
 1760 09c1 E8000000 		call	__stack_chk_fail@PLT
 1760      00
 1761              	.L60:
 1762 09c6 488B5DF8 		movq	-8(%rbp), %rbx
 1763 09ca C9       		leave
 1764              		.cfi_def_cfa 7, 8
 1765 09cb C3       		ret
 1766              		.cfi_endproc
 1767              	.LFE1174:
 1768              		.section	.gcc_except_table
 1769              		.align 4
 1770              	.LLSDA1174:
 1771 00c4 FF       		.byte	0xff
 1772 00c5 9B       		.byte	0x9b
 1773 00c6 25       		.uleb128 .LLSDATT1174-.LLSDATTD1174
 1774              	.LLSDATTD1174:
 1775 00c7 01       		.byte	0x1
 1776 00c8 1A       		.uleb128 .LLSDACSE1174-.LLSDACSB1174
 1777              	.LLSDACSB1174:
 1778 00c9 48       		.uleb128 .LEHB29-.LFB1174
 1779 00ca 50       		.uleb128 .LEHE29-.LEHB29
 1780 00cb 00       		.uleb128 0
 1781 00cc 00       		.uleb128 0
 1782 00cd 9801     		.uleb128 .LEHB30-.LFB1174
 1783 00cf 4E       		.uleb128 .LEHE30-.LEHB30
 1784 00d0 E801     		.uleb128 .L61-.LFB1174
 1785 00d2 01       		.uleb128 0x1
 1786 00d3 F401     		.uleb128 .LEHB31-.LFB1174
 1787 00d5 3A       		.uleb128 .LEHE31-.LEHB31
 1788 00d6 B502     		.uleb128 .L62-.LFB1174
 1789 00d8 00       		.uleb128 0
 1790 00d9 AE02     		.uleb128 .LEHB32-.LFB1174
 1791 00db 05       		.uleb128 .LEHE32-.LEHB32
 1792 00dc 00       		.uleb128 0
 1793 00dd 00       		.uleb128 0
 1794 00de C702     		.uleb128 .LEHB33-.LFB1174
 1795 00e0 05       		.uleb128 .LEHE33-.LEHB33
 1796 00e1 00       		.uleb128 0
 1797 00e2 00       		.uleb128 0
 1798              	.LLSDACSE1174:
 1799 00e3 01       		.byte	0x1
 1800 00e4 00       		.byte	0
 1801 00e5 000000   		.align 4
 1802 00e8 00000000 		.long	0
 1803              	
 1804              	.LLSDATT1174:
 1805              		.text
 1807              		.section	.rodata
 1808 020b 00000000 		.align 8
 1808      00
 1809              	.LC13:
 1810 0210 43686563 		.string	"CheckEqualsWithStringsWorksOnContentsWithALiteral"
 1810      6B457175 
 1810      616C7357 
 1810      69746853 
 1810      7472696E 
 1811              		.text
 1812              		.align 2
 1814              	_ZN12_GLOBAL__N_153TestCheckEqualsWithStringsWorksOnContentsWithALiteralC2Ev:
 1815              	.LFB1176:
  64:TestChecks.cpp **** 
  65:TestChecks.cpp **** TEST(CheckEqualsWithStringsWorksOnContentsWithALiteral)
 1816              		.loc 5 65 1
 1817              		.cfi_startproc
 1818 09cc 55       		pushq	%rbp
 1819              		.cfi_def_cfa_offset 16
 1820              		.cfi_offset 6, -16
 1821 09cd 4889E5   		movq	%rsp, %rbp
 1822              		.cfi_def_cfa_register 6
 1823 09d0 53       		pushq	%rbx
 1824 09d1 4883EC18 		subq	$24, %rsp
 1825              		.cfi_offset 3, -24
 1826 09d5 48897DE8 		movq	%rdi, -24(%rbp)
 1827              	.LBB12:
 1828              		.loc 5 65 1
 1829 09d9 488B5DE8 		movq	-24(%rbp), %rbx
 1830 09dd E8000000 		call	_ZN13UnitTestSuite12GetSuiteNameEv
 1830      00
 1831 09e2 4889C2   		movq	%rax, %rdx
 1832 09e5 41B84100 		movl	$65, %r8d
 1832      0000
 1833 09eb 488D0500 		leaq	.LC2(%rip), %rax
 1833      000000
 1834 09f2 4889C1   		movq	%rax, %rcx
 1835 09f5 488D0500 		leaq	.LC13(%rip), %rax
 1835      000000
 1836 09fc 4889C6   		movq	%rax, %rsi
 1837 09ff 4889DF   		movq	%rbx, %rdi
 1838 0a02 E8000000 		call	_ZN8UnitTest4TestC2EPKcS2_S2_i@PLT
 1838      00
 1839 0a07 488D1500 		leaq	16+_ZTVN12_GLOBAL__N_153TestCheckEqualsWithStringsWorksOnContentsWithALiteralE(%rip), %rdx
 1839      000000
 1840 0a0e 488B45E8 		movq	-24(%rbp), %rax
 1841 0a12 488910   		movq	%rdx, (%rax)
 1842              	.LBE12:
 1843 0a15 90       		nop
 1844 0a16 488B5DF8 		movq	-8(%rbp), %rbx
 1845 0a1a C9       		leave
 1846              		.cfi_def_cfa 7, 8
 1847 0a1b C3       		ret
 1848              		.cfi_endproc
 1849              	.LFE1176:
 1851              		.set	_ZN12_GLOBAL__N_153TestCheckEqualsWithStringsWorksOnContentsWithALiteralC1Ev,_ZN12_GLOBAL__N_
 1852              		.local	_ZN12_GLOBAL__N_161testCheckEqualsWithStringsWorksOnContentsWithALiteralInstanceE
 1853              		.comm	_ZN12_GLOBAL__N_161testCheckEqualsWithStringsWorksOnContentsWithALiteralInstanceE,56,32
 1854              		.local	_ZN12_GLOBAL__N_154adderCheckEqualsWithStringsWorksOnContentsWithALiteralE
 1855              		.comm	_ZN12_GLOBAL__N_154adderCheckEqualsWithStringsWorksOnContentsWithALiteralE,1,1
 1856              		.section	.rodata
 1857              	.LC14:
 1858 0242 48656C6C 		.string	"Hello"
 1858      6F00
 1859              		.text
 1860              		.align 2
 1862              	_ZNK12_GLOBAL__N_153TestCheckEqualsWithStringsWorksOnContentsWithALiteral7RunImplEv:
 1863              	.LFB1178:
  66:TestChecks.cpp **** {
 1864              		.loc 5 66 1
 1865              		.cfi_startproc
 1866              		.cfi_personality 0x9b,DW.ref.__gxx_personality_v0
 1867              		.cfi_lsda 0x1b,.LLSDA1178
 1868 0a1c F30F1EFA 		endbr64
 1869 0a20 55       		pushq	%rbp
 1870              		.cfi_def_cfa_offset 16
 1871              		.cfi_offset 6, -16
 1872 0a21 4889E5   		movq	%rsp, %rbp
 1873              		.cfi_def_cfa_register 6
 1874 0a24 53       		pushq	%rbx
 1875 0a25 4883EC78 		subq	$120, %rsp
 1876              		.cfi_offset 3, -24
 1877 0a29 48897D88 		movq	%rdi, -120(%rbp)
 1878              		.loc 5 66 1
 1879 0a2d 64488B04 		movq	%fs:40, %rax
 1879      25280000 
 1879      00
 1880 0a36 488945E8 		movq	%rax, -24(%rbp)
 1881 0a3a 31C0     		xorl	%eax, %eax
  67:TestChecks.cpp ****     char const* const p1 = txt1;
 1882              		.loc 5 67 23
 1883 0a3c 488D0500 		leaq	_ZN12_GLOBAL__N_14txt1E(%rip), %rax
 1883      000000
 1884 0a43 48894598 		movq	%rax, -104(%rbp)
  68:TestChecks.cpp ****     TestResults results;
 1885              		.loc 5 68 17
 1886 0a47 488D45A0 		leaq	-96(%rbp), %rax
 1887 0a4b BE000000 		movl	$0, %esi
 1887      00
 1888 0a50 4889C7   		movq	%rax, %rdi
 1889              	.LEHB34:
 1890 0a53 E8000000 		call	_ZN8UnitTest11TestResultsC1EPNS_12TestReporterE@PLT
 1890      00
  69:TestChecks.cpp ****     CheckEqual(results, "Hello", p1, TestDetails("", "", "", 0));
 1891              		.loc 5 69 38
 1892 0a58 488D45C0 		leaq	-64(%rbp), %rax
 1893 0a5c 41B80000 		movl	$0, %r8d
 1893      0000
 1894 0a62 488D1500 		leaq	.LC6(%rip), %rdx
 1894      000000
 1895 0a69 4889D1   		movq	%rdx, %rcx
 1896 0a6c 488D1500 		leaq	.LC6(%rip), %rdx
 1896      000000
 1897 0a73 488D3500 		leaq	.LC6(%rip), %rsi
 1897      000000
 1898 0a7a 4889C7   		movq	%rax, %rdi
 1899 0a7d E8000000 		call	_ZN8UnitTest11TestDetailsC1EPKcS2_S2_i@PLT
 1899      00
 1900              		.loc 5 69 15
 1901 0a82 488D55C0 		leaq	-64(%rbp), %rdx
 1902 0a86 488D45A0 		leaq	-96(%rbp), %rax
 1903 0a8a 4889D1   		movq	%rdx, %rcx
 1904 0a8d 488D1500 		leaq	_ZN12_GLOBAL__N_14txt1E(%rip), %rdx
 1904      000000
 1905 0a94 488D3500 		leaq	.LC14(%rip), %rsi
 1905      000000
 1906 0a9b 4889C7   		movq	%rax, %rdi
 1907 0a9e E8000000 		call	_ZN8UnitTest10CheckEqualERNS_11TestResultsEPKcS3_RKNS_11TestDetailsE@PLT
 1907      00
 1908              	.LEHE34:
 1909              	.LEHB35:
  70:TestChecks.cpp ****     CHECK_EQUAL(0, results.GetFailureCount());
 1910              		.loc 5 70 5
 1911 0aa3 E8000000 		call	_ZN8UnitTest11CurrentTest7DetailsEv@PLT
 1911      00
 1912 0aa8 488B08   		movq	(%rax), %rcx
 1913 0aab 488D45C0 		leaq	-64(%rbp), %rax
 1914 0aaf BA460000 		movl	$70, %edx
 1914      00
 1915 0ab4 4889CE   		movq	%rcx, %rsi
 1916 0ab7 4889C7   		movq	%rax, %rdi
 1917 0aba E8000000 		call	_ZN8UnitTest11TestDetailsC1ERKS0_i@PLT
 1917      00
 1918              		.loc 5 70 5 is_stmt 0 discriminator 4
 1919 0abf 488D45A0 		leaq	-96(%rbp), %rax
 1920 0ac3 4889C7   		movq	%rax, %rdi
 1921 0ac6 E8000000 		call	_ZNK8UnitTest11TestResults15GetFailureCountEv@PLT
 1921      00
 1922 0acb 894594   		movl	%eax, -108(%rbp)
 1923 0ace C7459000 		movl	$0, -112(%rbp)
 1923      000000
 1924 0ad5 E8000000 		call	_ZN8UnitTest11CurrentTest7ResultsEv@PLT
 1924      00
 1925              		.loc 5 70 5 discriminator 6
 1926 0ada 488B00   		movq	(%rax), %rax
 1927 0add 488D4DC0 		leaq	-64(%rbp), %rcx
 1928 0ae1 488D5594 		leaq	-108(%rbp), %rdx
 1929 0ae5 488D7590 		leaq	-112(%rbp), %rsi
 1930 0ae9 4889C7   		movq	%rax, %rdi
 1931 0aec E8000000 		call	_ZN8UnitTest10CheckEqualIiiEEvRNS_11TestResultsERKT_RKT0_RKNS_11TestDetailsE
 1931      00
 1932              	.LEHE35:
  71:TestChecks.cpp **** }
 1933              		.loc 5 71 1 is_stmt 1
 1934 0af1 EB64     		jmp	.L64
 1935              	.L69:
 1936 0af3 F30F1EFA 		endbr64
  70:TestChecks.cpp ****     CHECK_EQUAL(0, results.GetFailureCount());
 1937              		.loc 5 70 5
 1938 0af7 4889C7   		movq	%rax, %rdi
 1939 0afa E8000000 		call	__cxa_begin_catch@PLT
 1939      00
 1940              	.LEHB36:
 1941 0aff E8000000 		call	_ZN8UnitTest11CurrentTest7ResultsEv@PLT
 1941      00
  70:TestChecks.cpp ****     CHECK_EQUAL(0, results.GetFailureCount());
 1942              		.loc 5 70 5 is_stmt 0 discriminator 3
 1943 0b04 488B18   		movq	(%rax), %rbx
 1944 0b07 E8000000 		call	_ZN8UnitTest11CurrentTest7DetailsEv@PLT
 1944      00
  70:TestChecks.cpp ****     CHECK_EQUAL(0, results.GetFailureCount());
 1945              		.loc 5 70 5 discriminator 13
 1946 0b0c 488B08   		movq	(%rax), %rcx
 1947 0b0f 488D45C0 		leaq	-64(%rbp), %rax
 1948 0b13 BA460000 		movl	$70, %edx
 1948      00
 1949 0b18 4889CE   		movq	%rcx, %rsi
 1950 0b1b 4889C7   		movq	%rax, %rdi
 1951 0b1e E8000000 		call	_ZN8UnitTest11TestDetailsC1ERKS0_i@PLT
 1951      00
  70:TestChecks.cpp ****     CHECK_EQUAL(0, results.GetFailureCount());
 1952              		.loc 5 70 5 discriminator 17
 1953 0b23 488D45C0 		leaq	-64(%rbp), %rax
 1954 0b27 488D1500 		leaq	.LC9(%rip), %rdx
 1954      000000
 1955 0b2e 4889C6   		movq	%rax, %rsi
 1956 0b31 4889DF   		movq	%rbx, %rdi
 1957 0b34 E8000000 		call	_ZN8UnitTest11TestResults13OnTestFailureERKNS_11TestDetailsEPKc@PLT
 1957      00
 1958              	.LEHE36:
 1959              	.LEHB37:
  70:TestChecks.cpp ****     CHECK_EQUAL(0, results.GetFailureCount());
 1960              		.loc 5 70 5 discriminator 19
 1961 0b39 E8000000 		call	__cxa_end_catch@PLT
 1961      00
 1962              	.LEHE37:
 1963              		.loc 5 71 1 is_stmt 1 discriminator 19
 1964 0b3e EB17     		jmp	.L64
 1965              	.L70:
 1966 0b40 F30F1EFA 		endbr64
  70:TestChecks.cpp ****     CHECK_EQUAL(0, results.GetFailureCount());
 1967              		.loc 5 70 5
 1968 0b44 4889C3   		movq	%rax, %rbx
 1969 0b47 E8000000 		call	__cxa_end_catch@PLT
 1969      00
 1970 0b4c 4889D8   		movq	%rbx, %rax
 1971 0b4f 4889C7   		movq	%rax, %rdi
 1972              	.LEHB38:
 1973 0b52 E8000000 		call	_Unwind_Resume@PLT
 1973      00
 1974              	.LEHE38:
 1975              	.L64:
 1976              		.loc 5 71 1
 1977 0b57 488B45E8 		movq	-24(%rbp), %rax
 1978 0b5b 64482B04 		subq	%fs:40, %rax
 1978      25280000 
 1978      00
 1979 0b64 7405     		je	.L68
 1980 0b66 E8000000 		call	__stack_chk_fail@PLT
 1980      00
 1981              	.L68:
 1982 0b6b 488B5DF8 		movq	-8(%rbp), %rbx
 1983 0b6f C9       		leave
 1984              		.cfi_def_cfa 7, 8
 1985 0b70 C3       		ret
 1986              		.cfi_endproc
 1987              	.LFE1178:
 1988              		.section	.gcc_except_table
 1989              		.align 4
 1990              	.LLSDA1178:
 1991 00ec FF       		.byte	0xff
 1992 00ed 9B       		.byte	0x9b
 1993 00ee 25       		.uleb128 .LLSDATT1178-.LLSDATTD1178
 1994              	.LLSDATTD1178:
 1995 00ef 01       		.byte	0x1
 1996 00f0 1A       		.uleb128 .LLSDACSE1178-.LLSDACSB1178
 1997              	.LLSDACSB1178:
 1998 00f1 37       		.uleb128 .LEHB34-.LFB1178
 1999 00f2 50       		.uleb128 .LEHE34-.LEHB34
 2000 00f3 00       		.uleb128 0
 2001 00f4 00       		.uleb128 0
 2002 00f5 8701     		.uleb128 .LEHB35-.LFB1178
 2003 00f7 4E       		.uleb128 .LEHE35-.LEHB35
 2004 00f8 D701     		.uleb128 .L69-.LFB1178
 2005 00fa 01       		.uleb128 0x1
 2006 00fb E301     		.uleb128 .LEHB36-.LFB1178
 2007 00fd 3A       		.uleb128 .LEHE36-.LEHB36
 2008 00fe A402     		.uleb128 .L70-.LFB1178
 2009 0100 00       		.uleb128 0
 2010 0101 9D02     		.uleb128 .LEHB37-.LFB1178
 2011 0103 05       		.uleb128 .LEHE37-.LEHB37
 2012 0104 00       		.uleb128 0
 2013 0105 00       		.uleb128 0
 2014 0106 B602     		.uleb128 .LEHB38-.LFB1178
 2015 0108 05       		.uleb128 .LEHE38-.LEHB38
 2016 0109 00       		.uleb128 0
 2017 010a 00       		.uleb128 0
 2018              	.LLSDACSE1178:
 2019 010b 01       		.byte	0x1
 2020 010c 00       		.byte	0
 2021 010d 000000   		.align 4
 2022 0110 00000000 		.long	0
 2023              	
 2024              	.LLSDATT1178:
 2025              		.text
 2027              		.section	.rodata
 2028              		.align 8
 2029              	.LC15:
 2030 0248 43686563 		.string	"CheckEqualFailureIncludesCheckExpectedAndActual"
 2030      6B457175 
 2030      616C4661 
 2030      696C7572 
 2030      65496E63 
 2031              		.text
 2032 0b71 90       		.align 2
 2034              	_ZN12_GLOBAL__N_151TestCheckEqualFailureIncludesCheckExpectedAndActualC2Ev:
 2035              	.LFB1180:
  72:TestChecks.cpp **** 
  73:TestChecks.cpp **** TEST(CheckEqualFailureIncludesCheckExpectedAndActual)
 2036              		.loc 5 73 1
 2037              		.cfi_startproc
 2038 0b72 55       		pushq	%rbp
 2039              		.cfi_def_cfa_offset 16
 2040              		.cfi_offset 6, -16
 2041 0b73 4889E5   		movq	%rsp, %rbp
 2042              		.cfi_def_cfa_register 6
 2043 0b76 53       		pushq	%rbx
 2044 0b77 4883EC18 		subq	$24, %rsp
 2045              		.cfi_offset 3, -24
 2046 0b7b 48897DE8 		movq	%rdi, -24(%rbp)
 2047              	.LBB13:
 2048              		.loc 5 73 1
 2049 0b7f 488B5DE8 		movq	-24(%rbp), %rbx
 2050 0b83 E8000000 		call	_ZN13UnitTestSuite12GetSuiteNameEv
 2050      00
 2051 0b88 4889C2   		movq	%rax, %rdx
 2052 0b8b 41B84900 		movl	$73, %r8d
 2052      0000
 2053 0b91 488D0500 		leaq	.LC2(%rip), %rax
 2053      000000
 2054 0b98 4889C1   		movq	%rax, %rcx
 2055 0b9b 488D0500 		leaq	.LC15(%rip), %rax
 2055      000000
 2056 0ba2 4889C6   		movq	%rax, %rsi
 2057 0ba5 4889DF   		movq	%rbx, %rdi
 2058 0ba8 E8000000 		call	_ZN8UnitTest4TestC2EPKcS2_S2_i@PLT
 2058      00
 2059 0bad 488D1500 		leaq	16+_ZTVN12_GLOBAL__N_151TestCheckEqualFailureIncludesCheckExpectedAndActualE(%rip), %rdx
 2059      000000
 2060 0bb4 488B45E8 		movq	-24(%rbp), %rax
 2061 0bb8 488910   		movq	%rdx, (%rax)
 2062              	.LBE13:
 2063 0bbb 90       		nop
 2064 0bbc 488B5DF8 		movq	-8(%rbp), %rbx
 2065 0bc0 C9       		leave
 2066              		.cfi_def_cfa 7, 8
 2067 0bc1 C3       		ret
 2068              		.cfi_endproc
 2069              	.LFE1180:
 2071              		.set	_ZN12_GLOBAL__N_151TestCheckEqualFailureIncludesCheckExpectedAndActualC1Ev,_ZN12_GLOBAL__N_15
 2072              		.local	_ZN12_GLOBAL__N_159testCheckEqualFailureIncludesCheckExpectedAndActualInstanceE
 2073              		.comm	_ZN12_GLOBAL__N_159testCheckEqualFailureIncludesCheckExpectedAndActualInstanceE,56,32
 2074              		.local	_ZN12_GLOBAL__N_152adderCheckEqualFailureIncludesCheckExpectedAndActualE
 2075              		.comm	_ZN12_GLOBAL__N_152adderCheckEqualFailureIncludesCheckExpectedAndActualE,1,1
 2076              		.section	.rodata
 2077              	.LC16:
 2078 0278 78706563 		.string	"xpected 1"
 2078      74656420 
 2078      3100
 2079 0282 00000000 		.align 8
 2079      0000
 2080              	.LC17:
 2081 0288 73747273 		.string	"strstr(reporter.lastFailedMessage, \"xpected 1\")"
 2081      74722872 
 2081      65706F72 
 2081      7465722E 
 2081      6C617374 
 2082              	.LC18:
 2083 02b8 77617320 		.string	"was 2"
 2083      3200
 2084 02be 0000     		.align 8
 2085              	.LC19:
 2086 02c0 73747273 		.string	"strstr(reporter.lastFailedMessage, \"was 2\")"
 2086      74722872 
 2086      65706F72 
 2086      7465722E 
 2086      6C617374 
 2087 02ec 00000000 		.align 8
 2088              	.LC20:
 2089 02f0 556E6861 		.string	"Unhandled exception in CHECK(strstr(reporter.lastFailedMessage, \"xpected 1\"))"
 2089      6E646C65 
 2089      64206578 
 2089      63657074 
 2089      696F6E20 
 2090 033e 0000     		.align 8
 2091              	.LC21:
 2092 0340 556E6861 		.string	"Unhandled exception in CHECK(strstr(reporter.lastFailedMessage, \"was 2\"))"
 2092      6E646C65 
 2092      64206578 
 2092      63657074 
 2092      696F6E20 
 2093              		.text
 2094              		.align 2
 2096              	_ZNK12_GLOBAL__N_151TestCheckEqualFailureIncludesCheckExpectedAndActual7RunImplEv:
 2097              	.LFB1182:
  74:TestChecks.cpp **** {
 2098              		.loc 5 74 1
 2099              		.cfi_startproc
 2100              		.cfi_personality 0x9b,DW.ref.__gxx_personality_v0
 2101              		.cfi_lsda 0x1b,.LLSDA1182
 2102 0bc2 F30F1EFA 		endbr64
 2103 0bc6 55       		pushq	%rbp
 2104              		.cfi_def_cfa_offset 16
 2105              		.cfi_offset 6, -16
 2106 0bc7 4889E5   		movq	%rsp, %rbp
 2107              		.cfi_def_cfa_register 6
 2108 0bca 53       		pushq	%rbx
 2109 0bcb 4881ECA8 		subq	$2216, %rsp
 2109      080000
 2110              		.cfi_offset 3, -24
 2111 0bd2 4889BD58 		movq	%rdi, -2216(%rbp)
 2111      F7FFFF
 2112              		.loc 5 74 1
 2113 0bd9 64488B04 		movq	%fs:40, %rax
 2113      25280000 
 2113      00
 2114 0be2 488945E8 		movq	%rax, -24(%rbp)
 2115 0be6 31C0     		xorl	%eax, %eax
  75:TestChecks.cpp ****     RecordingReporter reporter;
 2116              		.loc 5 75 23
 2117 0be8 488D85B0 		leaq	-2128(%rbp), %rax
 2117      F7FFFF
 2118 0bef 4889C7   		movq	%rax, %rdi
 2119 0bf2 E8000000 		call	_ZN17RecordingReporterC1Ev
 2119      00
  76:TestChecks.cpp ****     TestResults results(&reporter);
 2120              		.loc 5 76 34
 2121 0bf7 488D95B0 		leaq	-2128(%rbp), %rdx
 2121      F7FFFF
 2122 0bfe 488D8570 		leaq	-2192(%rbp), %rax
 2122      F7FFFF
 2123 0c05 4889D6   		movq	%rdx, %rsi
 2124 0c08 4889C7   		movq	%rax, %rdi
 2125              	.LEHB39:
 2126 0c0b E8000000 		call	_ZN8UnitTest11TestResultsC1EPNS_12TestReporterE@PLT
 2126      00
  77:TestChecks.cpp ****     const int something = 2;
 2127              		.loc 5 77 15
 2128 0c10 C78568F7 		movl	$2, -2200(%rbp)
 2128      FFFF0200 
 2128      0000
  78:TestChecks.cpp ****     CheckEqual(results, 1, something, TestDetails("", "", "", 0));
 2129              		.loc 5 78 39
 2130 0c1a 488D8590 		leaq	-2160(%rbp), %rax
 2130      F7FFFF
 2131 0c21 41B80000 		movl	$0, %r8d
 2131      0000
 2132 0c27 488D1500 		leaq	.LC6(%rip), %rdx
 2132      000000
 2133 0c2e 4889D1   		movq	%rdx, %rcx
 2134 0c31 488D1500 		leaq	.LC6(%rip), %rdx
 2134      000000
 2135 0c38 488D3500 		leaq	.LC6(%rip), %rsi
 2135      000000
 2136 0c3f 4889C7   		movq	%rax, %rdi
 2137 0c42 E8000000 		call	_ZN8UnitTest11TestDetailsC1EPKcS2_S2_i@PLT
 2137      00
 2138              		.loc 5 78 25 discriminator 1
 2139 0c47 C7856CF7 		movl	$1, -2196(%rbp)
 2139      FFFF0100 
 2139      0000
 2140              		.loc 5 78 15 discriminator 1
 2141 0c51 488D8D90 		leaq	-2160(%rbp), %rcx
 2141      F7FFFF
 2142 0c58 488D9568 		leaq	-2200(%rbp), %rdx
 2142      F7FFFF
 2143 0c5f 488DB56C 		leaq	-2196(%rbp), %rsi
 2143      F7FFFF
 2144 0c66 488D8570 		leaq	-2192(%rbp), %rax
 2144      F7FFFF
 2145 0c6d 4889C7   		movq	%rax, %rdi
 2146 0c70 E8000000 		call	_ZN8UnitTest10CheckEqualIiiEEvRNS_11TestResultsERKT_RKT0_RKNS_11TestDetailsE
 2146      00
 2147              	.LEHE39:
  79:TestChecks.cpp **** 
  80:TestChecks.cpp **** 	using namespace std;
  81:TestChecks.cpp ****     CHECK(strstr(reporter.lastFailedMessage, "xpected 1"));
 2148              		.loc 5 81 5 discriminator 3
 2149 0c75 488D85B0 		leaq	-2128(%rbp), %rax
 2149      F7FFFF
 2150 0c7c 48051405 		addq	$1300, %rax
 2150      0000
 2151 0c82 488D1500 		leaq	.LC16(%rip), %rdx
 2151      000000
 2152 0c89 4889D6   		movq	%rdx, %rsi
 2153 0c8c 4889C7   		movq	%rax, %rdi
 2154 0c8f E8000000 		call	strstr@PLT
 2154      00
 2155 0c94 4889C7   		movq	%rax, %rdi
 2156 0c97 E8000000 		call	_ZN8UnitTest5CheckIPcEEbT_
 2156      00
 2157 0c9c 83F001   		xorl	$1, %eax
 2158 0c9f 84C0     		testb	%al, %al
 2159 0ca1 7440     		je	.L73
 2160              	.LEHB40:
 2161              		.loc 5 81 5 is_stmt 0 discriminator 1
 2162 0ca3 E8000000 		call	_ZN8UnitTest11CurrentTest7ResultsEv@PLT
 2162      00
 2163 0ca8 488B18   		movq	(%rax), %rbx
 2164 0cab E8000000 		call	_ZN8UnitTest11CurrentTest7DetailsEv@PLT
 2164      00
 2165              		.loc 5 81 5 discriminator 3
 2166 0cb0 488B08   		movq	(%rax), %rcx
 2167 0cb3 488D8590 		leaq	-2160(%rbp), %rax
 2167      F7FFFF
 2168 0cba BA510000 		movl	$81, %edx
 2168      00
 2169 0cbf 4889CE   		movq	%rcx, %rsi
 2170 0cc2 4889C7   		movq	%rax, %rdi
 2171 0cc5 E8000000 		call	_ZN8UnitTest11TestDetailsC1ERKS0_i@PLT
 2171      00
 2172              		.loc 5 81 5 discriminator 7
 2173 0cca 488D8590 		leaq	-2160(%rbp), %rax
 2173      F7FFFF
 2174 0cd1 488D1500 		leaq	.LC17(%rip), %rdx
 2174      000000
 2175 0cd8 4889C6   		movq	%rax, %rsi
 2176 0cdb 4889DF   		movq	%rbx, %rdi
 2177 0cde E8000000 		call	_ZN8UnitTest11TestResults13OnTestFailureERKNS_11TestDetailsEPKc@PLT
 2177      00
 2178              	.LEHE40:
 2179              	.L73:
  82:TestChecks.cpp ****     CHECK(strstr(reporter.lastFailedMessage, "was 2"));
 2180              		.loc 5 82 5 is_stmt 1
 2181 0ce3 488D85B0 		leaq	-2128(%rbp), %rax
 2181      F7FFFF
 2182 0cea 48051405 		addq	$1300, %rax
 2182      0000
 2183 0cf0 488D1500 		leaq	.LC18(%rip), %rdx
 2183      000000
 2184 0cf7 4889D6   		movq	%rdx, %rsi
 2185 0cfa 4889C7   		movq	%rax, %rdi
 2186 0cfd E8000000 		call	strstr@PLT
 2186      00
 2187 0d02 4889C7   		movq	%rax, %rdi
 2188 0d05 E8000000 		call	_ZN8UnitTest5CheckIPcEEbT_
 2188      00
 2189 0d0a 83F001   		xorl	$1, %eax
 2190 0d0d 84C0     		testb	%al, %al
 2191 0d0f 7440     		je	.L74
 2192              	.LEHB41:
 2193              		.loc 5 82 5 is_stmt 0 discriminator 1
 2194 0d11 E8000000 		call	_ZN8UnitTest11CurrentTest7ResultsEv@PLT
 2194      00
 2195 0d16 488B18   		movq	(%rax), %rbx
 2196 0d19 E8000000 		call	_ZN8UnitTest11CurrentTest7DetailsEv@PLT
 2196      00
 2197              		.loc 5 82 5 discriminator 3
 2198 0d1e 488B08   		movq	(%rax), %rcx
 2199 0d21 488D8590 		leaq	-2160(%rbp), %rax
 2199      F7FFFF
 2200 0d28 BA520000 		movl	$82, %edx
 2200      00
 2201 0d2d 4889CE   		movq	%rcx, %rsi
 2202 0d30 4889C7   		movq	%rax, %rdi
 2203 0d33 E8000000 		call	_ZN8UnitTest11TestDetailsC1ERKS0_i@PLT
 2203      00
 2204              		.loc 5 82 5 discriminator 7
 2205 0d38 488D8590 		leaq	-2160(%rbp), %rax
 2205      F7FFFF
 2206 0d3f 488D1500 		leaq	.LC19(%rip), %rdx
 2206      000000
 2207 0d46 4889C6   		movq	%rax, %rsi
 2208 0d49 4889DF   		movq	%rbx, %rdi
 2209 0d4c E8000000 		call	_ZN8UnitTest11TestResults13OnTestFailureERKNS_11TestDetailsEPKc@PLT
 2209      00
 2210              	.LEHE41:
 2211              	.L74:
  83:TestChecks.cpp **** }
 2212              		.loc 5 83 1 is_stmt 1
 2213 0d51 488D85B0 		leaq	-2128(%rbp), %rax
 2213      F7FFFF
 2214 0d58 4889C7   		movq	%rax, %rdi
 2215              	.LEHB42:
 2216 0d5b E8000000 		call	_ZN17RecordingReporterD1Ev
 2216      00
 2217              	.LEHE42:
 2218 0d60 488B45E8 		movq	-24(%rbp), %rax
 2219 0d64 64482B04 		subq	%fs:40, %rax
 2219      25280000 
 2219      00
 2220 0d6d 0F84F300 		je	.L80
 2220      0000
 2221 0d73 E9E90000 		jmp	.L86
 2221      00
 2222              	.L82:
 2223 0d78 F30F1EFA 		endbr64
  81:TestChecks.cpp ****     CHECK(strstr(reporter.lastFailedMessage, "was 2"));
 2224              		.loc 5 81 5
 2225 0d7c 4889C7   		movq	%rax, %rdi
 2226 0d7f E8000000 		call	__cxa_begin_catch@PLT
 2226      00
 2227              	.LEHB43:
 2228 0d84 E8000000 		call	_ZN8UnitTest11CurrentTest7ResultsEv@PLT
 2228      00
  81:TestChecks.cpp ****     CHECK(strstr(reporter.lastFailedMessage, "was 2"));
 2229              		.loc 5 81 5 is_stmt 0 discriminator 6
 2230 0d89 488B18   		movq	(%rax), %rbx
 2231 0d8c E8000000 		call	_ZN8UnitTest11CurrentTest7DetailsEv@PLT
 2231      00
  81:TestChecks.cpp ****     CHECK(strstr(reporter.lastFailedMessage, "was 2"));
 2232              		.loc 5 81 5 discriminator 12
 2233 0d91 488B08   		movq	(%rax), %rcx
 2234 0d94 488D8590 		leaq	-2160(%rbp), %rax
 2234      F7FFFF
 2235 0d9b BA510000 		movl	$81, %edx
 2235      00
 2236 0da0 4889CE   		movq	%rcx, %rsi
 2237 0da3 4889C7   		movq	%rax, %rdi
 2238 0da6 E8000000 		call	_ZN8UnitTest11TestDetailsC1ERKS0_i@PLT
 2238      00
  81:TestChecks.cpp ****     CHECK(strstr(reporter.lastFailedMessage, "was 2"));
 2239              		.loc 5 81 5 discriminator 16
 2240 0dab 488D8590 		leaq	-2160(%rbp), %rax
 2240      F7FFFF
 2241 0db2 488D1500 		leaq	.LC20(%rip), %rdx
 2241      000000
 2242 0db9 4889C6   		movq	%rax, %rsi
 2243 0dbc 4889DF   		movq	%rbx, %rdi
 2244 0dbf E8000000 		call	_ZN8UnitTest11TestResults13OnTestFailureERKNS_11TestDetailsEPKc@PLT
 2244      00
 2245              	.LEHE43:
 2246              	.LEHB44:
  81:TestChecks.cpp ****     CHECK(strstr(reporter.lastFailedMessage, "was 2"));
 2247              		.loc 5 81 5 discriminator 18
 2248 0dc4 E8000000 		call	__cxa_end_catch@PLT
 2248      00
 2249              	.LEHE44:
  81:TestChecks.cpp ****     CHECK(strstr(reporter.lastFailedMessage, "was 2"));
 2250              		.loc 5 81 5
 2251 0dc9 E915FFFF 		jmp	.L73
 2251      FF
 2252              	.L83:
 2253 0dce F30F1EFA 		endbr64
 2254 0dd2 4889C3   		movq	%rax, %rbx
 2255 0dd5 E8000000 		call	__cxa_end_catch@PLT
 2255      00
 2256 0dda EB6B     		jmp	.L77
 2257              	.L84:
 2258 0ddc F30F1EFA 		endbr64
  82:TestChecks.cpp ****     CHECK(strstr(reporter.lastFailedMessage, "was 2"));
 2259              		.loc 5 82 5 is_stmt 1
 2260 0de0 4889C7   		movq	%rax, %rdi
 2261 0de3 E8000000 		call	__cxa_begin_catch@PLT
 2261      00
 2262              	.LEHB45:
 2263 0de8 E8000000 		call	_ZN8UnitTest11CurrentTest7ResultsEv@PLT
 2263      00
  82:TestChecks.cpp ****     CHECK(strstr(reporter.lastFailedMessage, "was 2"));
 2264              		.loc 5 82 5 is_stmt 0 discriminator 6
 2265 0ded 488B18   		movq	(%rax), %rbx
 2266 0df0 E8000000 		call	_ZN8UnitTest11CurrentTest7DetailsEv@PLT
 2266      00
  82:TestChecks.cpp ****     CHECK(strstr(reporter.lastFailedMessage, "was 2"));
 2267              		.loc 5 82 5 discriminator 12
 2268 0df5 488B08   		movq	(%rax), %rcx
 2269 0df8 488D8590 		leaq	-2160(%rbp), %rax
 2269      F7FFFF
 2270 0dff BA520000 		movl	$82, %edx
 2270      00
 2271 0e04 4889CE   		movq	%rcx, %rsi
 2272 0e07 4889C7   		movq	%rax, %rdi
 2273 0e0a E8000000 		call	_ZN8UnitTest11TestDetailsC1ERKS0_i@PLT
 2273      00
  82:TestChecks.cpp ****     CHECK(strstr(reporter.lastFailedMessage, "was 2"));
 2274              		.loc 5 82 5 discriminator 16
 2275 0e0f 488D8590 		leaq	-2160(%rbp), %rax
 2275      F7FFFF
 2276 0e16 488D1500 		leaq	.LC21(%rip), %rdx
 2276      000000
 2277 0e1d 4889C6   		movq	%rax, %rsi
 2278 0e20 4889DF   		movq	%rbx, %rdi
 2279 0e23 E8000000 		call	_ZN8UnitTest11TestResults13OnTestFailureERKNS_11TestDetailsEPKc@PLT
 2279      00
 2280              	.LEHE45:
 2281              	.LEHB46:
  82:TestChecks.cpp ****     CHECK(strstr(reporter.lastFailedMessage, "was 2"));
 2282              		.loc 5 82 5 discriminator 18
 2283 0e28 E8000000 		call	__cxa_end_catch@PLT
 2283      00
 2284              	.LEHE46:
  82:TestChecks.cpp ****     CHECK(strstr(reporter.lastFailedMessage, "was 2"));
 2285              		.loc 5 82 5
 2286 0e2d E91FFFFF 		jmp	.L74
 2286      FF
 2287              	.L85:
 2288 0e32 F30F1EFA 		endbr64
 2289 0e36 4889C3   		movq	%rax, %rbx
 2290 0e39 E8000000 		call	__cxa_end_catch@PLT
 2290      00
 2291 0e3e EB07     		jmp	.L77
 2292              	.L81:
 2293 0e40 F30F1EFA 		endbr64
 2294              		.loc 5 83 1 is_stmt 1
 2295 0e44 4889C3   		movq	%rax, %rbx
 2296              	.L77:
 2297 0e47 488D85B0 		leaq	-2128(%rbp), %rax
 2297      F7FFFF
 2298 0e4e 4889C7   		movq	%rax, %rdi
 2299 0e51 E8000000 		call	_ZN17RecordingReporterD1Ev
 2299      00
 2300 0e56 4889D8   		movq	%rbx, %rax
 2301 0e59 4889C7   		movq	%rax, %rdi
 2302              	.LEHB47:
 2303 0e5c E8000000 		call	_Unwind_Resume@PLT
 2303      00
 2304              	.LEHE47:
 2305              	.L86:
 2306 0e61 E8000000 		call	__stack_chk_fail@PLT
 2306      00
 2307              	.L80:
 2308 0e66 488B5DF8 		movq	-8(%rbp), %rbx
 2309 0e6a C9       		leave
 2310              		.cfi_def_cfa 7, 8
 2311 0e6b C3       		ret
 2312              		.cfi_endproc
 2313              	.LFE1182:
 2314              		.section	.gcc_except_table
 2315              		.align 4
 2316              	.LLSDA1182:
 2317 0114 FF       		.byte	0xff
 2318 0115 9B       		.byte	0x9b
 2319 0116 3D       		.uleb128 .LLSDATT1182-.LLSDATTD1182
 2320              	.LLSDATTD1182:
 2321 0117 01       		.byte	0x1
 2322 0118 33       		.uleb128 .LLSDACSE1182-.LLSDACSB1182
 2323              	.LLSDACSB1182:
 2324 0119 49       		.uleb128 .LEHB39-.LFB1182
 2325 011a 6A       		.uleb128 .LEHE39-.LEHB39
 2326 011b FE04     		.uleb128 .L81-.LFB1182
 2327 011d 00       		.uleb128 0
 2328 011e E101     		.uleb128 .LEHB40-.LFB1182
 2329 0120 40       		.uleb128 .LEHE40-.LEHB40
 2330 0121 B603     		.uleb128 .L82-.LFB1182
 2331 0123 01       		.uleb128 0x1
 2332 0124 CF02     		.uleb128 .LEHB41-.LFB1182
 2333 0126 40       		.uleb128 .LEHE41-.LEHB41
 2334 0127 9A04     		.uleb128 .L84-.LFB1182
 2335 0129 01       		.uleb128 0x1
 2336 012a 9903     		.uleb128 .LEHB42-.LFB1182
 2337 012c 05       		.uleb128 .LEHE42-.LEHB42
 2338 012d 00       		.uleb128 0
 2339 012e 00       		.uleb128 0
 2340 012f C203     		.uleb128 .LEHB43-.LFB1182
 2341 0131 40       		.uleb128 .LEHE43-.LEHB43
 2342 0132 8C04     		.uleb128 .L83-.LFB1182
 2343 0134 00       		.uleb128 0
 2344 0135 8204     		.uleb128 .LEHB44-.LFB1182
 2345 0137 05       		.uleb128 .LEHE44-.LEHB44
 2346 0138 FE04     		.uleb128 .L81-.LFB1182
 2347 013a 00       		.uleb128 0
 2348 013b A604     		.uleb128 .LEHB45-.LFB1182
 2349 013d 40       		.uleb128 .LEHE45-.LEHB45
 2350 013e F004     		.uleb128 .L85-.LFB1182
 2351 0140 00       		.uleb128 0
 2352 0141 E604     		.uleb128 .LEHB46-.LFB1182
 2353 0143 05       		.uleb128 .LEHE46-.LEHB46
 2354 0144 FE04     		.uleb128 .L81-.LFB1182
 2355 0146 00       		.uleb128 0
 2356 0147 9A05     		.uleb128 .LEHB47-.LFB1182
 2357 0149 05       		.uleb128 .LEHE47-.LEHB47
 2358 014a 00       		.uleb128 0
 2359 014b 00       		.uleb128 0
 2360              	.LLSDACSE1182:
 2361 014c 01       		.byte	0x1
 2362 014d 00       		.byte	0
 2363 014e 0000     		.align 4
 2364 0150 00000000 		.long	0
 2365              	
 2366              	.LLSDATT1182:
 2367              		.text
 2369              		.section	.rodata
 2370 038a 00000000 		.align 8
 2370      0000
 2371              	.LC22:
 2372 0390 43686563 		.string	"CheckEqualFailureIncludesDetails"
 2372      6B457175 
 2372      616C4661 
 2372      696C7572 
 2372      65496E63 
 2373              		.text
 2374              		.align 2
 2376              	_ZN12_GLOBAL__N_136TestCheckEqualFailureIncludesDetailsC2Ev:
 2377              	.LFB1184:
  84:TestChecks.cpp **** 
  85:TestChecks.cpp **** TEST(CheckEqualFailureIncludesDetails)
 2378              		.loc 5 85 1
 2379              		.cfi_startproc
 2380 0e6c 55       		pushq	%rbp
 2381              		.cfi_def_cfa_offset 16
 2382              		.cfi_offset 6, -16
 2383 0e6d 4889E5   		movq	%rsp, %rbp
 2384              		.cfi_def_cfa_register 6
 2385 0e70 53       		pushq	%rbx
 2386 0e71 4883EC18 		subq	$24, %rsp
 2387              		.cfi_offset 3, -24
 2388 0e75 48897DE8 		movq	%rdi, -24(%rbp)
 2389              	.LBB14:
 2390              		.loc 5 85 1
 2391 0e79 488B5DE8 		movq	-24(%rbp), %rbx
 2392 0e7d E8000000 		call	_ZN13UnitTestSuite12GetSuiteNameEv
 2392      00
 2393 0e82 4889C2   		movq	%rax, %rdx
 2394 0e85 41B85500 		movl	$85, %r8d
 2394      0000
 2395 0e8b 488D0500 		leaq	.LC2(%rip), %rax
 2395      000000
 2396 0e92 4889C1   		movq	%rax, %rcx
 2397 0e95 488D0500 		leaq	.LC22(%rip), %rax
 2397      000000
 2398 0e9c 4889C6   		movq	%rax, %rsi
 2399 0e9f 4889DF   		movq	%rbx, %rdi
 2400 0ea2 E8000000 		call	_ZN8UnitTest4TestC2EPKcS2_S2_i@PLT
 2400      00
 2401 0ea7 488D1500 		leaq	16+_ZTVN12_GLOBAL__N_136TestCheckEqualFailureIncludesDetailsE(%rip), %rdx
 2401      000000
 2402 0eae 488B45E8 		movq	-24(%rbp), %rax
 2403 0eb2 488910   		movq	%rdx, (%rax)
 2404              	.LBE14:
 2405 0eb5 90       		nop
 2406 0eb6 488B5DF8 		movq	-8(%rbp), %rbx
 2407 0eba C9       		leave
 2408              		.cfi_def_cfa 7, 8
 2409 0ebb C3       		ret
 2410              		.cfi_endproc
 2411              	.LFE1184:
 2413              		.set	_ZN12_GLOBAL__N_136TestCheckEqualFailureIncludesDetailsC1Ev,_ZN12_GLOBAL__N_136TestCheckEqual
 2414              		.local	_ZN12_GLOBAL__N_144testCheckEqualFailureIncludesDetailsInstanceE
 2415              		.comm	_ZN12_GLOBAL__N_144testCheckEqualFailureIncludesDetailsInstanceE,56,32
 2416              		.local	_ZN12_GLOBAL__N_137adderCheckEqualFailureIncludesDetailsE
 2417              		.comm	_ZN12_GLOBAL__N_137adderCheckEqualFailureIncludesDetailsE,1,1
 2418              		.section	.rodata
 2419              	.LC23:
 2420 03b1 66696C65 		.string	"file.h"
 2420      2E6800
 2421              	.LC24:
 2422 03b8 6D797375 		.string	"mysuite"
 2422      69746500 
 2423              	.LC25:
 2424 03c0 6D797465 		.string	"mytest"
 2424      737400
 2425 03c7 00       		.align 8
 2426              	.LC26:
 2427 03c8 556E6861 		.string	"Unhandled exception in CHECK_EQUAL(\"mytest\", reporter.lastFailedTest)"
 2427      6E646C65 
 2427      64206578 
 2427      63657074 
 2427      696F6E20 
 2428 040e 0000     		.align 8
 2429              	.LC27:
 2430 0410 556E6861 		.string	"Unhandled exception in CHECK_EQUAL(\"mysuite\", reporter.lastFailedSuite)"
 2430      6E646C65 
 2430      64206578 
 2430      63657074 
 2430      696F6E20 
 2431              		.align 8
 2432              	.LC28:
 2433 0458 556E6861 		.string	"Unhandled exception in CHECK_EQUAL(\"file.h\", reporter.lastFailedFile)"
 2433      6E646C65 
 2433      64206578 
 2433      63657074 
 2433      696F6E20 
 2434 049e 0000     		.align 8
 2435              	.LC29:
 2436 04a0 556E6861 		.string	"Unhandled exception in CHECK_EQUAL(101, reporter.lastFailedLine)"
 2436      6E646C65 
 2436      64206578 
 2436      63657074 
 2436      696F6E20 
 2437              		.text
 2438              		.align 2
 2440              	_ZNK12_GLOBAL__N_136TestCheckEqualFailureIncludesDetails7RunImplEv:
 2441              	.LFB1186:
  86:TestChecks.cpp **** {
 2442              		.loc 5 86 1
 2443              		.cfi_startproc
 2444              		.cfi_personality 0x9b,DW.ref.__gxx_personality_v0
 2445              		.cfi_lsda 0x1b,.LLSDA1186
 2446 0ebc F30F1EFA 		endbr64
 2447 0ec0 55       		pushq	%rbp
 2448              		.cfi_def_cfa_offset 16
 2449              		.cfi_offset 6, -16
 2450 0ec1 4889E5   		movq	%rsp, %rbp
 2451              		.cfi_def_cfa_register 6
 2452 0ec4 53       		pushq	%rbx
 2453 0ec5 4881ECC8 		subq	$2248, %rsp
 2453      080000
 2454              		.cfi_offset 3, -24
 2455 0ecc 4889BD38 		movq	%rdi, -2248(%rbp)
 2455      F7FFFF
 2456              		.loc 5 86 1
 2457 0ed3 64488B04 		movq	%fs:40, %rax
 2457      25280000 
 2457      00
 2458 0edc 488945E8 		movq	%rax, -24(%rbp)
 2459 0ee0 31C0     		xorl	%eax, %eax
  87:TestChecks.cpp ****     RecordingReporter reporter;
 2460              		.loc 5 87 23
 2461 0ee2 488D85B0 		leaq	-2128(%rbp), %rax
 2461      F7FFFF
 2462 0ee9 4889C7   		movq	%rax, %rdi
 2463 0eec E8000000 		call	_ZN17RecordingReporterC1Ev
 2463      00
  88:TestChecks.cpp ****     TestResults results(&reporter);
 2464              		.loc 5 88 34
 2465 0ef1 488D95B0 		leaq	-2128(%rbp), %rdx
 2465      F7FFFF
 2466 0ef8 488D8550 		leaq	-2224(%rbp), %rax
 2466      F7FFFF
 2467 0eff 4889D6   		movq	%rdx, %rsi
 2468 0f02 4889C7   		movq	%rax, %rdi
 2469              	.LEHB48:
 2470 0f05 E8000000 		call	_ZN8UnitTest11TestResultsC1EPNS_12TestReporterE@PLT
 2470      00
  89:TestChecks.cpp ****     TestDetails const details("mytest", "mysuite", "file.h", 101);
 2471              		.loc 5 89 65
 2472 0f0a 488D8570 		leaq	-2192(%rbp), %rax
 2472      F7FFFF
 2473 0f11 41B86500 		movl	$101, %r8d
 2473      0000
 2474 0f17 488D1500 		leaq	.LC23(%rip), %rdx
 2474      000000
 2475 0f1e 4889D1   		movq	%rdx, %rcx
 2476 0f21 488D1500 		leaq	.LC24(%rip), %rdx
 2476      000000
 2477 0f28 488D3500 		leaq	.LC25(%rip), %rsi
 2477      000000
 2478 0f2f 4889C7   		movq	%rax, %rdi
 2479 0f32 E8000000 		call	_ZN8UnitTest11TestDetailsC1EPKcS2_S2_i@PLT
 2479      00
  90:TestChecks.cpp **** 
  91:TestChecks.cpp ****     CheckEqual(results, 1, 2, details);
 2480              		.loc 5 91 28
 2481 0f37 C78590F7 		movl	$2, -2160(%rbp)
 2481      FFFF0200 
 2481      0000
 2482              		.loc 5 91 25
 2483 0f41 C7854CF7 		movl	$1, -2228(%rbp)
 2483      FFFF0100 
 2483      0000
 2484              		.loc 5 91 15
 2485 0f4b 488D8D70 		leaq	-2192(%rbp), %rcx
 2485      F7FFFF
 2486 0f52 488D9590 		leaq	-2160(%rbp), %rdx
 2486      F7FFFF
 2487 0f59 488DB54C 		leaq	-2228(%rbp), %rsi
 2487      F7FFFF
 2488 0f60 488D8550 		leaq	-2224(%rbp), %rax
 2488      F7FFFF
 2489 0f67 4889C7   		movq	%rax, %rdi
 2490 0f6a E8000000 		call	_ZN8UnitTest10CheckEqualIiiEEvRNS_11TestResultsERKT_RKT0_RKNS_11TestDetailsE
 2490      00
 2491              	.LEHE48:
 2492              	.LEHB49:
  92:TestChecks.cpp **** 
  93:TestChecks.cpp ****     CHECK_EQUAL("mytest", reporter.lastFailedTest);
 2493              		.loc 5 93 5 discriminator 2
 2494 0f6f E8000000 		call	_ZN8UnitTest11CurrentTest7DetailsEv@PLT
 2494      00
 2495 0f74 488B08   		movq	(%rax), %rcx
 2496 0f77 488D8590 		leaq	-2160(%rbp), %rax
 2496      F7FFFF
 2497 0f7e BA5D0000 		movl	$93, %edx
 2497      00
 2498 0f83 4889CE   		movq	%rcx, %rsi
 2499 0f86 4889C7   		movq	%rax, %rdi
 2500 0f89 E8000000 		call	_ZN8UnitTest11TestDetailsC1ERKS0_i@PLT
 2500      00
 2501              		.loc 5 93 5 is_stmt 0 discriminator 4
 2502 0f8e E8000000 		call	_ZN8UnitTest11CurrentTest7ResultsEv@PLT
 2502      00
 2503 0f93 488B00   		movq	(%rax), %rax
 2504 0f96 488D9590 		leaq	-2160(%rbp), %rdx
 2504      F7FFFF
 2505 0f9d 488D8DB0 		leaq	-2128(%rbp), %rcx
 2505      F7FFFF
 2506 0fa4 488DB114 		leaq	1044(%rcx), %rsi
 2506      040000
 2507 0fab 4889D1   		movq	%rdx, %rcx
 2508 0fae 4889F2   		movq	%rsi, %rdx
 2509 0fb1 488D3500 		leaq	.LC25(%rip), %rsi
 2509      000000
 2510 0fb8 4889C7   		movq	%rax, %rdi
 2511 0fbb E8000000 		call	_ZN8UnitTest10CheckEqualERNS_11TestResultsEPKcPcRKNS_11TestDetailsE@PLT
 2511      00
 2512              	.LEHE49:
 2513              	.L90:
 2514              	.LEHB50:
  94:TestChecks.cpp ****     CHECK_EQUAL("mysuite", reporter.lastFailedSuite);
 2515              		.loc 5 94 5 is_stmt 1
 2516 0fc0 E8000000 		call	_ZN8UnitTest11CurrentTest7DetailsEv@PLT
 2516      00
 2517 0fc5 488B08   		movq	(%rax), %rcx
 2518 0fc8 488D8590 		leaq	-2160(%rbp), %rax
 2518      F7FFFF
 2519 0fcf BA5E0000 		movl	$94, %edx
 2519      00
 2520 0fd4 4889CE   		movq	%rcx, %rsi
 2521 0fd7 4889C7   		movq	%rax, %rdi
 2522 0fda E8000000 		call	_ZN8UnitTest11TestDetailsC1ERKS0_i@PLT
 2522      00
 2523              		.loc 5 94 5 is_stmt 0 discriminator 4
 2524 0fdf E8000000 		call	_ZN8UnitTest11CurrentTest7ResultsEv@PLT
 2524      00
 2525 0fe4 488B00   		movq	(%rax), %rax
 2526 0fe7 488D9590 		leaq	-2160(%rbp), %rdx
 2526      F7FFFF
 2527 0fee 488D8DB0 		leaq	-2128(%rbp), %rcx
 2527      F7FFFF
 2528 0ff5 488DB114 		leaq	788(%rcx), %rsi
 2528      030000
 2529 0ffc 4889D1   		movq	%rdx, %rcx
 2530 0fff 4889F2   		movq	%rsi, %rdx
 2531 1002 488D3500 		leaq	.LC24(%rip), %rsi
 2531      000000
 2532 1009 4889C7   		movq	%rax, %rdi
 2533 100c E8000000 		call	_ZN8UnitTest10CheckEqualERNS_11TestResultsEPKcPcRKNS_11TestDetailsE@PLT
 2533      00
 2534              	.LEHE50:
 2535              	.L94:
 2536              	.LEHB51:
  95:TestChecks.cpp ****     CHECK_EQUAL("file.h", reporter.lastFailedFile);
 2537              		.loc 5 95 5 is_stmt 1
 2538 1011 E8000000 		call	_ZN8UnitTest11CurrentTest7DetailsEv@PLT
 2538      00
 2539 1016 488B08   		movq	(%rax), %rcx
 2540 1019 488D8590 		leaq	-2160(%rbp), %rax
 2540      F7FFFF
 2541 1020 BA5F0000 		movl	$95, %edx
 2541      00
 2542 1025 4889CE   		movq	%rcx, %rsi
 2543 1028 4889C7   		movq	%rax, %rdi
 2544 102b E8000000 		call	_ZN8UnitTest11TestDetailsC1ERKS0_i@PLT
 2544      00
 2545              		.loc 5 95 5 is_stmt 0 discriminator 4
 2546 1030 E8000000 		call	_ZN8UnitTest11CurrentTest7ResultsEv@PLT
 2546      00
 2547 1035 488B00   		movq	(%rax), %rax
 2548 1038 488D9590 		leaq	-2160(%rbp), %rdx
 2548      F7FFFF
 2549 103f 488D8DB0 		leaq	-2128(%rbp), %rcx
 2549      F7FFFF
 2550 1046 488DB110 		leaq	528(%rcx), %rsi
 2550      020000
 2551 104d 4889D1   		movq	%rdx, %rcx
 2552 1050 4889F2   		movq	%rsi, %rdx
 2553 1053 488D3500 		leaq	.LC23(%rip), %rsi
 2553      000000
 2554 105a 4889C7   		movq	%rax, %rdi
 2555 105d E8000000 		call	_ZN8UnitTest10CheckEqualERNS_11TestResultsEPKcPcRKNS_11TestDetailsE@PLT
 2555      00
 2556              	.LEHE51:
 2557              	.L97:
 2558              	.LEHB52:
  96:TestChecks.cpp ****     CHECK_EQUAL(101, reporter.lastFailedLine);
 2559              		.loc 5 96 5 is_stmt 1
 2560 1062 E8000000 		call	_ZN8UnitTest11CurrentTest7DetailsEv@PLT
 2560      00
 2561 1067 488B08   		movq	(%rax), %rcx
 2562 106a 488D8590 		leaq	-2160(%rbp), %rax
 2562      F7FFFF
 2563 1071 BA600000 		movl	$96, %edx
 2563      00
 2564 1076 4889CE   		movq	%rcx, %rsi
 2565 1079 4889C7   		movq	%rax, %rdi
 2566 107c E8000000 		call	_ZN8UnitTest11TestDetailsC1ERKS0_i@PLT
 2566      00
 2567              		.loc 5 96 5 is_stmt 0 discriminator 4
 2568 1081 C7854CF7 		movl	$101, -2228(%rbp)
 2568      FFFF6500 
 2568      0000
 2569 108b E8000000 		call	_ZN8UnitTest11CurrentTest7ResultsEv@PLT
 2569      00
 2570 1090 488B00   		movq	(%rax), %rax
 2571 1093 488D9590 		leaq	-2160(%rbp), %rdx
 2571      F7FFFF
 2572 109a 488D8DB0 		leaq	-2128(%rbp), %rcx
 2572      F7FFFF
 2573 10a1 488DB910 		leaq	784(%rcx), %rdi
 2573      030000
 2574 10a8 488DB54C 		leaq	-2228(%rbp), %rsi
 2574      F7FFFF
 2575 10af 4889D1   		movq	%rdx, %rcx
 2576 10b2 4889FA   		movq	%rdi, %rdx
 2577 10b5 4889C7   		movq	%rax, %rdi
 2578 10b8 E8000000 		call	_ZN8UnitTest10CheckEqualIiiEEvRNS_11TestResultsERKT_RKT0_RKNS_11TestDetailsE
 2578      00
 2579              	.LEHE52:
 2580              	.L100:
  97:TestChecks.cpp **** }
 2581              		.loc 5 97 1 is_stmt 1
 2582 10bd 488D85B0 		leaq	-2128(%rbp), %rax
 2582      F7FFFF
 2583 10c4 4889C7   		movq	%rax, %rdi
 2584              	.LEHB53:
 2585 10c7 E8000000 		call	_ZN17RecordingReporterD1Ev
 2585      00
 2586              	.LEHE53:
 2587 10cc 488B45E8 		movq	-24(%rbp), %rax
 2588 10d0 64482B04 		subq	%fs:40, %rax
 2588      25280000 
 2588      00
 2589 10d9 0F84C101 		je	.L102
 2589      0000
 2590 10df E9B70100 		jmp	.L112
 2590      00
 2591              	.L104:
 2592 10e4 F30F1EFA 		endbr64
  93:TestChecks.cpp ****     CHECK_EQUAL("mysuite", reporter.lastFailedSuite);
 2593              		.loc 5 93 5
 2594 10e8 4889C7   		movq	%rax, %rdi
 2595 10eb E8000000 		call	__cxa_begin_catch@PLT
 2595      00
 2596              	.LEHB54:
 2597 10f0 E8000000 		call	_ZN8UnitTest11CurrentTest7ResultsEv@PLT
 2597      00
  93:TestChecks.cpp ****     CHECK_EQUAL("mysuite", reporter.lastFailedSuite);
 2598              		.loc 5 93 5 is_stmt 0 discriminator 3
 2599 10f5 488B18   		movq	(%rax), %rbx
 2600 10f8 E8000000 		call	_ZN8UnitTest11CurrentTest7DetailsEv@PLT
 2600      00
  93:TestChecks.cpp ****     CHECK_EQUAL("mysuite", reporter.lastFailedSuite);
 2601              		.loc 5 93 5 discriminator 11
 2602 10fd 488B08   		movq	(%rax), %rcx
 2603 1100 488D8590 		leaq	-2160(%rbp), %rax
 2603      F7FFFF
 2604 1107 BA5D0000 		movl	$93, %edx
 2604      00
 2605 110c 4889CE   		movq	%rcx, %rsi
 2606 110f 4889C7   		movq	%rax, %rdi
 2607 1112 E8000000 		call	_ZN8UnitTest11TestDetailsC1ERKS0_i@PLT
 2607      00
  93:TestChecks.cpp ****     CHECK_EQUAL("mysuite", reporter.lastFailedSuite);
 2608              		.loc 5 93 5 discriminator 15
 2609 1117 488D8590 		leaq	-2160(%rbp), %rax
 2609      F7FFFF
 2610 111e 488D1500 		leaq	.LC26(%rip), %rdx
 2610      000000
 2611 1125 4889C6   		movq	%rax, %rsi
 2612 1128 4889DF   		movq	%rbx, %rdi
 2613 112b E8000000 		call	_ZN8UnitTest11TestResults13OnTestFailureERKNS_11TestDetailsEPKc@PLT
 2613      00
 2614              	.LEHE54:
 2615              	.LEHB55:
  93:TestChecks.cpp ****     CHECK_EQUAL("mysuite", reporter.lastFailedSuite);
 2616              		.loc 5 93 5 discriminator 17
 2617 1130 E8000000 		call	__cxa_end_catch@PLT
 2617      00
 2618              	.LEHE55:
  93:TestChecks.cpp ****     CHECK_EQUAL("mysuite", reporter.lastFailedSuite);
 2619              		.loc 5 93 5
 2620 1135 E986FEFF 		jmp	.L90
 2620      FF
 2621              	.L105:
 2622 113a F30F1EFA 		endbr64
 2623 113e 4889C3   		movq	%rax, %rbx
 2624 1141 E8000000 		call	__cxa_end_catch@PLT
 2624      00
 2625 1146 E9360100 		jmp	.L92
 2625      00
 2626              	.L106:
 2627 114b F30F1EFA 		endbr64
  94:TestChecks.cpp ****     CHECK_EQUAL("file.h", reporter.lastFailedFile);
 2628              		.loc 5 94 5 is_stmt 1
 2629 114f 4889C7   		movq	%rax, %rdi
 2630 1152 E8000000 		call	__cxa_begin_catch@PLT
 2630      00
 2631              	.LEHB56:
 2632 1157 E8000000 		call	_ZN8UnitTest11CurrentTest7ResultsEv@PLT
 2632      00
  94:TestChecks.cpp ****     CHECK_EQUAL("file.h", reporter.lastFailedFile);
 2633              		.loc 5 94 5 is_stmt 0 discriminator 3
 2634 115c 488B18   		movq	(%rax), %rbx
 2635 115f E8000000 		call	_ZN8UnitTest11CurrentTest7DetailsEv@PLT
 2635      00
  94:TestChecks.cpp ****     CHECK_EQUAL("file.h", reporter.lastFailedFile);
 2636              		.loc 5 94 5 discriminator 11
 2637 1164 488B08   		movq	(%rax), %rcx
 2638 1167 488D8590 		leaq	-2160(%rbp), %rax
 2638      F7FFFF
 2639 116e BA5E0000 		movl	$94, %edx
 2639      00
 2640 1173 4889CE   		movq	%rcx, %rsi
 2641 1176 4889C7   		movq	%rax, %rdi
 2642 1179 E8000000 		call	_ZN8UnitTest11TestDetailsC1ERKS0_i@PLT
 2642      00
  94:TestChecks.cpp ****     CHECK_EQUAL("file.h", reporter.lastFailedFile);
 2643              		.loc 5 94 5 discriminator 15
 2644 117e 488D8590 		leaq	-2160(%rbp), %rax
 2644      F7FFFF
 2645 1185 488D1500 		leaq	.LC27(%rip), %rdx
 2645      000000
 2646 118c 4889C6   		movq	%rax, %rsi
 2647 118f 4889DF   		movq	%rbx, %rdi
 2648 1192 E8000000 		call	_ZN8UnitTest11TestResults13OnTestFailureERKNS_11TestDetailsEPKc@PLT
 2648      00
 2649              	.LEHE56:
 2650              	.LEHB57:
  94:TestChecks.cpp ****     CHECK_EQUAL("file.h", reporter.lastFailedFile);
 2651              		.loc 5 94 5 discriminator 17
 2652 1197 E8000000 		call	__cxa_end_catch@PLT
 2652      00
 2653              	.LEHE57:
  94:TestChecks.cpp ****     CHECK_EQUAL("file.h", reporter.lastFailedFile);
 2654              		.loc 5 94 5
 2655 119c E970FEFF 		jmp	.L94
 2655      FF
 2656              	.L107:
 2657 11a1 F30F1EFA 		endbr64
 2658 11a5 4889C3   		movq	%rax, %rbx
 2659 11a8 E8000000 		call	__cxa_end_catch@PLT
 2659      00
 2660 11ad E9CF0000 		jmp	.L92
 2660      00
 2661              	.L108:
 2662 11b2 F30F1EFA 		endbr64
  95:TestChecks.cpp ****     CHECK_EQUAL(101, reporter.lastFailedLine);
 2663              		.loc 5 95 5 is_stmt 1
 2664 11b6 4889C7   		movq	%rax, %rdi
 2665 11b9 E8000000 		call	__cxa_begin_catch@PLT
 2665      00
 2666              	.LEHB58:
 2667 11be E8000000 		call	_ZN8UnitTest11CurrentTest7ResultsEv@PLT
 2667      00
  95:TestChecks.cpp ****     CHECK_EQUAL(101, reporter.lastFailedLine);
 2668              		.loc 5 95 5 is_stmt 0 discriminator 3
 2669 11c3 488B18   		movq	(%rax), %rbx
 2670 11c6 E8000000 		call	_ZN8UnitTest11CurrentTest7DetailsEv@PLT
 2670      00
  95:TestChecks.cpp ****     CHECK_EQUAL(101, reporter.lastFailedLine);
 2671              		.loc 5 95 5 discriminator 11
 2672 11cb 488B08   		movq	(%rax), %rcx
 2673 11ce 488D8590 		leaq	-2160(%rbp), %rax
 2673      F7FFFF
 2674 11d5 BA5F0000 		movl	$95, %edx
 2674      00
 2675 11da 4889CE   		movq	%rcx, %rsi
 2676 11dd 4889C7   		movq	%rax, %rdi
 2677 11e0 E8000000 		call	_ZN8UnitTest11TestDetailsC1ERKS0_i@PLT
 2677      00
  95:TestChecks.cpp ****     CHECK_EQUAL(101, reporter.lastFailedLine);
 2678              		.loc 5 95 5 discriminator 15
 2679 11e5 488D8590 		leaq	-2160(%rbp), %rax
 2679      F7FFFF
 2680 11ec 488D1500 		leaq	.LC28(%rip), %rdx
 2680      000000
 2681 11f3 4889C6   		movq	%rax, %rsi
 2682 11f6 4889DF   		movq	%rbx, %rdi
 2683 11f9 E8000000 		call	_ZN8UnitTest11TestResults13OnTestFailureERKNS_11TestDetailsEPKc@PLT
 2683      00
 2684              	.LEHE58:
 2685              	.LEHB59:
  95:TestChecks.cpp ****     CHECK_EQUAL(101, reporter.lastFailedLine);
 2686              		.loc 5 95 5 discriminator 17
 2687 11fe E8000000 		call	__cxa_end_catch@PLT
 2687      00
 2688              	.LEHE59:
  95:TestChecks.cpp ****     CHECK_EQUAL(101, reporter.lastFailedLine);
 2689              		.loc 5 95 5
 2690 1203 E95AFEFF 		jmp	.L97
 2690      FF
 2691              	.L109:
 2692 1208 F30F1EFA 		endbr64
 2693 120c 4889C3   		movq	%rax, %rbx
 2694 120f E8000000 		call	__cxa_end_catch@PLT
 2694      00
 2695 1214 EB6B     		jmp	.L92
 2696              	.L110:
 2697 1216 F30F1EFA 		endbr64
  96:TestChecks.cpp **** }
 2698              		.loc 5 96 5 is_stmt 1
 2699 121a 4889C7   		movq	%rax, %rdi
 2700 121d E8000000 		call	__cxa_begin_catch@PLT
 2700      00
 2701              	.LEHB60:
 2702 1222 E8000000 		call	_ZN8UnitTest11CurrentTest7ResultsEv@PLT
 2702      00
  96:TestChecks.cpp **** }
 2703              		.loc 5 96 5 is_stmt 0 discriminator 3
 2704 1227 488B18   		movq	(%rax), %rbx
 2705 122a E8000000 		call	_ZN8UnitTest11CurrentTest7DetailsEv@PLT
 2705      00
  96:TestChecks.cpp **** }
 2706              		.loc 5 96 5 discriminator 11
 2707 122f 488B08   		movq	(%rax), %rcx
 2708 1232 488D8590 		leaq	-2160(%rbp), %rax
 2708      F7FFFF
 2709 1239 BA600000 		movl	$96, %edx
 2709      00
 2710 123e 4889CE   		movq	%rcx, %rsi
 2711 1241 4889C7   		movq	%rax, %rdi
 2712 1244 E8000000 		call	_ZN8UnitTest11TestDetailsC1ERKS0_i@PLT
 2712      00
  96:TestChecks.cpp **** }
 2713              		.loc 5 96 5 discriminator 15
 2714 1249 488D8590 		leaq	-2160(%rbp), %rax
 2714      F7FFFF
 2715 1250 488D1500 		leaq	.LC29(%rip), %rdx
 2715      000000
 2716 1257 4889C6   		movq	%rax, %rsi
 2717 125a 4889DF   		movq	%rbx, %rdi
 2718 125d E8000000 		call	_ZN8UnitTest11TestResults13OnTestFailureERKNS_11TestDetailsEPKc@PLT
 2718      00
 2719              	.LEHE60:
 2720              	.LEHB61:
  96:TestChecks.cpp **** }
 2721              		.loc 5 96 5 discriminator 17
 2722 1262 E8000000 		call	__cxa_end_catch@PLT
 2722      00
 2723              	.LEHE61:
  96:TestChecks.cpp **** }
 2724              		.loc 5 96 5
 2725 1267 E951FEFF 		jmp	.L100
 2725      FF
 2726              	.L111:
 2727 126c F30F1EFA 		endbr64
 2728 1270 4889C3   		movq	%rax, %rbx
 2729 1273 E8000000 		call	__cxa_end_catch@PLT
 2729      00
 2730 1278 EB07     		jmp	.L92
 2731              	.L103:
 2732 127a F30F1EFA 		endbr64
 2733              		.loc 5 97 1 is_stmt 1
 2734 127e 4889C3   		movq	%rax, %rbx
 2735              	.L92:
 2736 1281 488D85B0 		leaq	-2128(%rbp), %rax
 2736      F7FFFF
 2737 1288 4889C7   		movq	%rax, %rdi
 2738 128b E8000000 		call	_ZN17RecordingReporterD1Ev
 2738      00
 2739 1290 4889D8   		movq	%rbx, %rax
 2740 1293 4889C7   		movq	%rax, %rdi
 2741              	.LEHB62:
 2742 1296 E8000000 		call	_Unwind_Resume@PLT
 2742      00
 2743              	.LEHE62:
 2744              	.L112:
 2745 129b E8000000 		call	__stack_chk_fail@PLT
 2745      00
 2746              	.L102:
 2747 12a0 488B5DF8 		movq	-8(%rbp), %rbx
 2748 12a4 C9       		leave
 2749              		.cfi_def_cfa 7, 8
 2750 12a5 C3       		ret
 2751              		.cfi_endproc
 2752              	.LFE1186:
 2753              		.section	.gcc_except_table
 2754              		.align 4
 2755              	.LLSDA1186:
 2756 0154 FF       		.byte	0xff
 2757 0155 9B       		.byte	0x9b
 2758 0156 61       		.uleb128 .LLSDATT1186-.LLSDATTD1186
 2759              	.LLSDATTD1186:
 2760 0157 01       		.byte	0x1
 2761 0158 57       		.uleb128 .LLSDACSE1186-.LLSDACSB1186
 2762              	.LLSDACSB1186:
 2763 0159 49       		.uleb128 .LEHB48-.LFB1186
 2764 015a 6A       		.uleb128 .LEHE48-.LEHB48
 2765 015b BE07     		.uleb128 .L103-.LFB1186
 2766 015d 00       		.uleb128 0
 2767 015e B301     		.uleb128 .LEHB49-.LFB1186
 2768 0160 51       		.uleb128 .LEHE49-.LEHB49
 2769 0161 A804     		.uleb128 .L104-.LFB1186
 2770 0163 01       		.uleb128 0x1
 2771 0164 8402     		.uleb128 .LEHB50-.LFB1186
 2772 0166 51       		.uleb128 .LEHE50-.LEHB50
 2773 0167 8F05     		.uleb128 .L106-.LFB1186
 2774 0169 01       		.uleb128 0x1
 2775 016a D502     		.uleb128 .LEHB51-.LFB1186
 2776 016c 51       		.uleb128 .LEHE51-.LEHB51
 2777 016d F605     		.uleb128 .L108-.LFB1186
 2778 016f 01       		.uleb128 0x1
 2779 0170 A603     		.uleb128 .LEHB52-.LFB1186
 2780 0172 5B       		.uleb128 .LEHE52-.LEHB52
 2781 0173 DA06     		.uleb128 .L110-.LFB1186
 2782 0175 01       		.uleb128 0x1
 2783 0176 8B04     		.uleb128 .LEHB53-.LFB1186
 2784 0178 05       		.uleb128 .LEHE53-.LEHB53
 2785 0179 00       		.uleb128 0
 2786 017a 00       		.uleb128 0
 2787 017b B404     		.uleb128 .LEHB54-.LFB1186
 2788 017d 40       		.uleb128 .LEHE54-.LEHB54
 2789 017e FE04     		.uleb128 .L105-.LFB1186
 2790 0180 00       		.uleb128 0
 2791 0181 F404     		.uleb128 .LEHB55-.LFB1186
 2792 0183 05       		.uleb128 .LEHE55-.LEHB55
 2793 0184 BE07     		.uleb128 .L103-.LFB1186
 2794 0186 00       		.uleb128 0
 2795 0187 9B05     		.uleb128 .LEHB56-.LFB1186
 2796 0189 40       		.uleb128 .LEHE56-.LEHB56
 2797 018a E505     		.uleb128 .L107-.LFB1186
 2798 018c 00       		.uleb128 0
 2799 018d DB05     		.uleb128 .LEHB57-.LFB1186
 2800 018f 05       		.uleb128 .LEHE57-.LEHB57
 2801 0190 BE07     		.uleb128 .L103-.LFB1186
 2802 0192 00       		.uleb128 0
 2803 0193 8206     		.uleb128 .LEHB58-.LFB1186
 2804 0195 40       		.uleb128 .LEHE58-.LEHB58
 2805 0196 CC06     		.uleb128 .L109-.LFB1186
 2806 0198 00       		.uleb128 0
 2807 0199 C206     		.uleb128 .LEHB59-.LFB1186
 2808 019b 05       		.uleb128 .LEHE59-.LEHB59
 2809 019c BE07     		.uleb128 .L103-.LFB1186
 2810 019e 00       		.uleb128 0
 2811 019f E606     		.uleb128 .LEHB60-.LFB1186
 2812 01a1 40       		.uleb128 .LEHE60-.LEHB60
 2813 01a2 B007     		.uleb128 .L111-.LFB1186
 2814 01a4 00       		.uleb128 0
 2815 01a5 A607     		.uleb128 .LEHB61-.LFB1186
 2816 01a7 05       		.uleb128 .LEHE61-.LEHB61
 2817 01a8 BE07     		.uleb128 .L103-.LFB1186
 2818 01aa 00       		.uleb128 0
 2819 01ab DA07     		.uleb128 .LEHB62-.LFB1186
 2820 01ad 05       		.uleb128 .LEHE62-.LEHB62
 2821 01ae 00       		.uleb128 0
 2822 01af 00       		.uleb128 0
 2823              	.LLSDACSE1186:
 2824 01b0 01       		.byte	0x1
 2825 01b1 00       		.byte	0
 2826 01b2 0000     		.align 4
 2827 01b4 00000000 		.long	0
 2828              	
 2829              	.LLSDATT1186:
 2830              		.text
 2832              		.section	.rodata
 2833              	.LC30:
 2834 04e1 43686563 		.string	"CheckCloseTrue"
 2834      6B436C6F 
 2834      73655472 
 2834      756500
 2835              		.text
 2836              		.align 2
 2838              	_ZN12_GLOBAL__N_118TestCheckCloseTrueC2Ev:
 2839              	.LFB1188:
  98:TestChecks.cpp **** 
  99:TestChecks.cpp **** TEST(CheckCloseTrue)
 2840              		.loc 5 99 1
 2841              		.cfi_startproc
 2842 12a6 55       		pushq	%rbp
 2843              		.cfi_def_cfa_offset 16
 2844              		.cfi_offset 6, -16
 2845 12a7 4889E5   		movq	%rsp, %rbp
 2846              		.cfi_def_cfa_register 6
 2847 12aa 53       		pushq	%rbx
 2848 12ab 4883EC18 		subq	$24, %rsp
 2849              		.cfi_offset 3, -24
 2850 12af 48897DE8 		movq	%rdi, -24(%rbp)
 2851              	.LBB15:
 2852              		.loc 5 99 1
 2853 12b3 488B5DE8 		movq	-24(%rbp), %rbx
 2854 12b7 E8000000 		call	_ZN13UnitTestSuite12GetSuiteNameEv
 2854      00
 2855 12bc 4889C2   		movq	%rax, %rdx
 2856 12bf 41B86300 		movl	$99, %r8d
 2856      0000
 2857 12c5 488D0500 		leaq	.LC2(%rip), %rax
 2857      000000
 2858 12cc 4889C1   		movq	%rax, %rcx
 2859 12cf 488D0500 		leaq	.LC30(%rip), %rax
 2859      000000
 2860 12d6 4889C6   		movq	%rax, %rsi
 2861 12d9 4889DF   		movq	%rbx, %rdi
 2862 12dc E8000000 		call	_ZN8UnitTest4TestC2EPKcS2_S2_i@PLT
 2862      00
 2863 12e1 488D1500 		leaq	16+_ZTVN12_GLOBAL__N_118TestCheckCloseTrueE(%rip), %rdx
 2863      000000
 2864 12e8 488B45E8 		movq	-24(%rbp), %rax
 2865 12ec 488910   		movq	%rdx, (%rax)
 2866              	.LBE15:
 2867 12ef 90       		nop
 2868 12f0 488B5DF8 		movq	-8(%rbp), %rbx
 2869 12f4 C9       		leave
 2870              		.cfi_def_cfa 7, 8
 2871 12f5 C3       		ret
 2872              		.cfi_endproc
 2873              	.LFE1188:
 2875              		.set	_ZN12_GLOBAL__N_118TestCheckCloseTrueC1Ev,_ZN12_GLOBAL__N_118TestCheckCloseTrueC2Ev
 2876              		.local	_ZN12_GLOBAL__N_126testCheckCloseTrueInstanceE
 2877              		.comm	_ZN12_GLOBAL__N_126testCheckCloseTrueInstanceE,56,32
 2878              		.local	_ZN12_GLOBAL__N_119adderCheckCloseTrueE
 2879              		.comm	_ZN12_GLOBAL__N_119adderCheckCloseTrueE,1,1
 2880              		.align 2
 2882              	_ZNK12_GLOBAL__N_118TestCheckCloseTrue7RunImplEv:
 2883              	.LFB1190:
 100:TestChecks.cpp **** {
 2884              		.loc 5 100 1
 2885              		.cfi_startproc
 2886              		.cfi_personality 0x9b,DW.ref.__gxx_personality_v0
 2887              		.cfi_lsda 0x1b,.LLSDA1190
 2888 12f6 F30F1EFA 		endbr64
 2889 12fa 55       		pushq	%rbp
 2890              		.cfi_def_cfa_offset 16
 2891              		.cfi_offset 6, -16
 2892 12fb 4889E5   		movq	%rsp, %rbp
 2893              		.cfi_def_cfa_register 6
 2894 12fe 53       		pushq	%rbx
 2895 12ff 4883EC78 		subq	$120, %rsp
 2896              		.cfi_offset 3, -24
 2897 1303 48897D88 		movq	%rdi, -120(%rbp)
 2898              		.loc 5 100 1
 2899 1307 64488B04 		movq	%fs:40, %rax
 2899      25280000 
 2899      00
 2900 1310 488945E8 		movq	%rax, -24(%rbp)
 2901 1314 31C0     		xorl	%eax, %eax
 101:TestChecks.cpp ****     TestResults results;
 2902              		.loc 5 101 17
 2903 1316 488D45A0 		leaq	-96(%rbp), %rax
 2904 131a BE000000 		movl	$0, %esi
 2904      00
 2905 131f 4889C7   		movq	%rax, %rdi
 2906              	.LEHB63:
 2907 1322 E8000000 		call	_ZN8UnitTest11TestResultsC1EPNS_12TestReporterE@PLT
 2907      00
 102:TestChecks.cpp ****     CheckClose(results, 3.001f, 3.0f, 0.1f, TestDetails("", "", "", 0));
 2908              		.loc 5 102 45
 2909 1327 488D45C0 		leaq	-64(%rbp), %rax
 2910 132b 41B80000 		movl	$0, %r8d
 2910      0000
 2911 1331 488D1500 		leaq	.LC6(%rip), %rdx
 2911      000000
 2912 1338 4889D1   		movq	%rdx, %rcx
 2913 133b 488D1500 		leaq	.LC6(%rip), %rdx
 2913      000000
 2914 1342 488D3500 		leaq	.LC6(%rip), %rsi
 2914      000000
 2915 1349 4889C7   		movq	%rax, %rdi
 2916 134c E8000000 		call	_ZN8UnitTest11TestDetailsC1EPKcS2_S2_i@PLT
 2916      00
 2917              		.loc 5 102 39
 2918 1351 F30F1005 		movss	.LC31(%rip), %xmm0
 2918      00000000 
 2919 1359 F30F1145 		movss	%xmm0, -100(%rbp)
 2919      9C
 2920              		.loc 5 102 33
 2921 135e F30F1005 		movss	.LC32(%rip), %xmm0
 2921      00000000 
 2922 1366 F30F1145 		movss	%xmm0, -104(%rbp)
 2922      98
 2923              		.loc 5 102 25
 2924 136b F30F1005 		movss	.LC33(%rip), %xmm0
 2924      00000000 
 2925 1373 F30F1145 		movss	%xmm0, -108(%rbp)
 2925      94
 2926              		.loc 5 102 15
 2927 1378 488D7DC0 		leaq	-64(%rbp), %rdi
 2928 137c 488D4D9C 		leaq	-100(%rbp), %rcx
 2929 1380 488D5598 		leaq	-104(%rbp), %rdx
 2930 1384 488D7594 		leaq	-108(%rbp), %rsi
 2931 1388 488D45A0 		leaq	-96(%rbp), %rax
 2932 138c 4989F8   		movq	%rdi, %r8
 2933 138f 4889C7   		movq	%rax, %rdi
 2934 1392 E8000000 		call	_ZN8UnitTest10CheckCloseIfffEEvRNS_11TestResultsERKT_RKT0_RKT1_RKNS_11TestDetailsE
 2934      00
 2935              	.LEHE63:
 2936              	.LEHB64:
 103:TestChecks.cpp ****     CHECK_EQUAL(0, results.GetFailureCount());
 2937              		.loc 5 103 5
 2938 1397 E8000000 		call	_ZN8UnitTest11CurrentTest7DetailsEv@PLT
 2938      00
 2939 139c 488B08   		movq	(%rax), %rcx
 2940 139f 488D45C0 		leaq	-64(%rbp), %rax
 2941 13a3 BA670000 		movl	$103, %edx
 2941      00
 2942 13a8 4889CE   		movq	%rcx, %rsi
 2943 13ab 4889C7   		movq	%rax, %rdi
 2944 13ae E8000000 		call	_ZN8UnitTest11TestDetailsC1ERKS0_i@PLT
 2944      00
 2945              		.loc 5 103 5 is_stmt 0 discriminator 4
 2946 13b3 488D45A0 		leaq	-96(%rbp), %rax
 2947 13b7 4889C7   		movq	%rax, %rdi
 2948 13ba E8000000 		call	_ZNK8UnitTest11TestResults15GetFailureCountEv@PLT
 2948      00
 2949 13bf 89459C   		movl	%eax, -100(%rbp)
 2950 13c2 C7459800 		movl	$0, -104(%rbp)
 2950      000000
 2951 13c9 E8000000 		call	_ZN8UnitTest11CurrentTest7ResultsEv@PLT
 2951      00
 2952              		.loc 5 103 5 discriminator 6
 2953 13ce 488B00   		movq	(%rax), %rax
 2954 13d1 488D4DC0 		leaq	-64(%rbp), %rcx
 2955 13d5 488D559C 		leaq	-100(%rbp), %rdx
 2956 13d9 488D7598 		leaq	-104(%rbp), %rsi
 2957 13dd 4889C7   		movq	%rax, %rdi
 2958 13e0 E8000000 		call	_ZN8UnitTest10CheckEqualIiiEEvRNS_11TestResultsERKT_RKT0_RKNS_11TestDetailsE
 2958      00
 2959              	.LEHE64:
 104:TestChecks.cpp **** }
 2960              		.loc 5 104 1 is_stmt 1
 2961 13e5 EB64     		jmp	.L114
 2962              	.L119:
 2963 13e7 F30F1EFA 		endbr64
 103:TestChecks.cpp ****     CHECK_EQUAL(0, results.GetFailureCount());
 2964              		.loc 5 103 5
 2965 13eb 4889C7   		movq	%rax, %rdi
 2966 13ee E8000000 		call	__cxa_begin_catch@PLT
 2966      00
 2967              	.LEHB65:
 2968 13f3 E8000000 		call	_ZN8UnitTest11CurrentTest7ResultsEv@PLT
 2968      00
 103:TestChecks.cpp ****     CHECK_EQUAL(0, results.GetFailureCount());
 2969              		.loc 5 103 5 is_stmt 0 discriminator 3
 2970 13f8 488B18   		movq	(%rax), %rbx
 2971 13fb E8000000 		call	_ZN8UnitTest11CurrentTest7DetailsEv@PLT
 2971      00
 103:TestChecks.cpp ****     CHECK_EQUAL(0, results.GetFailureCount());
 2972              		.loc 5 103 5 discriminator 13
 2973 1400 488B08   		movq	(%rax), %rcx
 2974 1403 488D45C0 		leaq	-64(%rbp), %rax
 2975 1407 BA670000 		movl	$103, %edx
 2975      00
 2976 140c 4889CE   		movq	%rcx, %rsi
 2977 140f 4889C7   		movq	%rax, %rdi
 2978 1412 E8000000 		call	_ZN8UnitTest11TestDetailsC1ERKS0_i@PLT
 2978      00
 103:TestChecks.cpp ****     CHECK_EQUAL(0, results.GetFailureCount());
 2979              		.loc 5 103 5 discriminator 17
 2980 1417 488D45C0 		leaq	-64(%rbp), %rax
 2981 141b 488D1500 		leaq	.LC9(%rip), %rdx
 2981      000000
 2982 1422 4889C6   		movq	%rax, %rsi
 2983 1425 4889DF   		movq	%rbx, %rdi
 2984 1428 E8000000 		call	_ZN8UnitTest11TestResults13OnTestFailureERKNS_11TestDetailsEPKc@PLT
 2984      00
 2985              	.LEHE65:
 2986              	.LEHB66:
 103:TestChecks.cpp ****     CHECK_EQUAL(0, results.GetFailureCount());
 2987              		.loc 5 103 5 discriminator 19
 2988 142d E8000000 		call	__cxa_end_catch@PLT
 2988      00
 2989              	.LEHE66:
 2990              		.loc 5 104 1 is_stmt 1 discriminator 19
 2991 1432 EB17     		jmp	.L114
 2992              	.L120:
 2993 1434 F30F1EFA 		endbr64
 103:TestChecks.cpp ****     CHECK_EQUAL(0, results.GetFailureCount());
 2994              		.loc 5 103 5
 2995 1438 4889C3   		movq	%rax, %rbx
 2996 143b E8000000 		call	__cxa_end_catch@PLT
 2996      00
 2997 1440 4889D8   		movq	%rbx, %rax
 2998 1443 4889C7   		movq	%rax, %rdi
 2999              	.LEHB67:
 3000 1446 E8000000 		call	_Unwind_Resume@PLT
 3000      00
 3001              	.LEHE67:
 3002              	.L114:
 3003              		.loc 5 104 1
 3004 144b 488B45E8 		movq	-24(%rbp), %rax
 3005 144f 64482B04 		subq	%fs:40, %rax
 3005      25280000 
 3005      00
 3006 1458 7405     		je	.L118
 3007 145a E8000000 		call	__stack_chk_fail@PLT
 3007      00
 3008              	.L118:
 3009 145f 488B5DF8 		movq	-8(%rbp), %rbx
 3010 1463 C9       		leave
 3011              		.cfi_def_cfa 7, 8
 3012 1464 C3       		ret
 3013              		.cfi_endproc
 3014              	.LFE1190:
 3015              		.section	.gcc_except_table
 3016              		.align 4
 3017              	.LLSDA1190:
 3018 01b8 FF       		.byte	0xff
 3019 01b9 9B       		.byte	0x9b
 3020 01ba 25       		.uleb128 .LLSDATT1190-.LLSDATTD1190
 3021              	.LLSDATTD1190:
 3022 01bb 01       		.byte	0x1
 3023 01bc 1A       		.uleb128 .LLSDACSE1190-.LLSDACSB1190
 3024              	.LLSDACSB1190:
 3025 01bd 2C       		.uleb128 .LEHB63-.LFB1190
 3026 01be 75       		.uleb128 .LEHE63-.LEHB63
 3027 01bf 00       		.uleb128 0
 3028 01c0 00       		.uleb128 0
 3029 01c1 A101     		.uleb128 .LEHB64-.LFB1190
 3030 01c3 4E       		.uleb128 .LEHE64-.LEHB64
 3031 01c4 F101     		.uleb128 .L119-.LFB1190
 3032 01c6 01       		.uleb128 0x1
 3033 01c7 FD01     		.uleb128 .LEHB65-.LFB1190
 3034 01c9 3A       		.uleb128 .LEHE65-.LEHB65
 3035 01ca BE02     		.uleb128 .L120-.LFB1190
 3036 01cc 00       		.uleb128 0
 3037 01cd B702     		.uleb128 .LEHB66-.LFB1190
 3038 01cf 05       		.uleb128 .LEHE66-.LEHB66
 3039 01d0 00       		.uleb128 0
 3040 01d1 00       		.uleb128 0
 3041 01d2 D002     		.uleb128 .LEHB67-.LFB1190
 3042 01d4 05       		.uleb128 .LEHE67-.LEHB67
 3043 01d5 00       		.uleb128 0
 3044 01d6 00       		.uleb128 0
 3045              	.LLSDACSE1190:
 3046 01d7 01       		.byte	0x1
 3047 01d8 00       		.byte	0
 3048 01d9 000000   		.align 4
 3049 01dc 00000000 		.long	0
 3050              	
 3051              	.LLSDATT1190:
 3052              		.text
 3054              		.section	.rodata
 3055              	.LC34:
 3056 04f0 43686563 		.string	"CheckCloseFalse"
 3056      6B436C6F 
 3056      73654661 
 3056      6C736500 
 3057              		.text
 3058 1465 90       		.align 2
 3060              	_ZN12_GLOBAL__N_119TestCheckCloseFalseC2Ev:
 3061              	.LFB1192:
 105:TestChecks.cpp **** 
 106:TestChecks.cpp **** TEST(CheckCloseFalse)
 3062              		.loc 5 106 1
 3063              		.cfi_startproc
 3064 1466 55       		pushq	%rbp
 3065              		.cfi_def_cfa_offset 16
 3066              		.cfi_offset 6, -16
 3067 1467 4889E5   		movq	%rsp, %rbp
 3068              		.cfi_def_cfa_register 6
 3069 146a 53       		pushq	%rbx
 3070 146b 4883EC18 		subq	$24, %rsp
 3071              		.cfi_offset 3, -24
 3072 146f 48897DE8 		movq	%rdi, -24(%rbp)
 3073              	.LBB16:
 3074              		.loc 5 106 1
 3075 1473 488B5DE8 		movq	-24(%rbp), %rbx
 3076 1477 E8000000 		call	_ZN13UnitTestSuite12GetSuiteNameEv
 3076      00
 3077 147c 4889C2   		movq	%rax, %rdx
 3078 147f 41B86A00 		movl	$106, %r8d
 3078      0000
 3079 1485 488D0500 		leaq	.LC2(%rip), %rax
 3079      000000
 3080 148c 4889C1   		movq	%rax, %rcx
 3081 148f 488D0500 		leaq	.LC34(%rip), %rax
 3081      000000
 3082 1496 4889C6   		movq	%rax, %rsi
 3083 1499 4889DF   		movq	%rbx, %rdi
 3084 149c E8000000 		call	_ZN8UnitTest4TestC2EPKcS2_S2_i@PLT
 3084      00
 3085 14a1 488D1500 		leaq	16+_ZTVN12_GLOBAL__N_119TestCheckCloseFalseE(%rip), %rdx
 3085      000000
 3086 14a8 488B45E8 		movq	-24(%rbp), %rax
 3087 14ac 488910   		movq	%rdx, (%rax)
 3088              	.LBE16:
 3089 14af 90       		nop
 3090 14b0 488B5DF8 		movq	-8(%rbp), %rbx
 3091 14b4 C9       		leave
 3092              		.cfi_def_cfa 7, 8
 3093 14b5 C3       		ret
 3094              		.cfi_endproc
 3095              	.LFE1192:
 3097              		.set	_ZN12_GLOBAL__N_119TestCheckCloseFalseC1Ev,_ZN12_GLOBAL__N_119TestCheckCloseFalseC2Ev
 3098              		.local	_ZN12_GLOBAL__N_127testCheckCloseFalseInstanceE
 3099              		.comm	_ZN12_GLOBAL__N_127testCheckCloseFalseInstanceE,56,32
 3100              		.local	_ZN12_GLOBAL__N_120adderCheckCloseFalseE
 3101              		.comm	_ZN12_GLOBAL__N_120adderCheckCloseFalseE,1,1
 3102              		.align 2
 3104              	_ZNK12_GLOBAL__N_119TestCheckCloseFalse7RunImplEv:
 3105              	.LFB1194:
 107:TestChecks.cpp **** {
 3106              		.loc 5 107 1
 3107              		.cfi_startproc
 3108              		.cfi_personality 0x9b,DW.ref.__gxx_personality_v0
 3109              		.cfi_lsda 0x1b,.LLSDA1194
 3110 14b6 F30F1EFA 		endbr64
 3111 14ba 55       		pushq	%rbp
 3112              		.cfi_def_cfa_offset 16
 3113              		.cfi_offset 6, -16
 3114 14bb 4889E5   		movq	%rsp, %rbp
 3115              		.cfi_def_cfa_register 6
 3116 14be 53       		pushq	%rbx
 3117 14bf 4883EC78 		subq	$120, %rsp
 3118              		.cfi_offset 3, -24
 3119 14c3 48897D88 		movq	%rdi, -120(%rbp)
 3120              		.loc 5 107 1
 3121 14c7 64488B04 		movq	%fs:40, %rax
 3121      25280000 
 3121      00
 3122 14d0 488945E8 		movq	%rax, -24(%rbp)
 3123 14d4 31C0     		xorl	%eax, %eax
 108:TestChecks.cpp ****     TestResults results;
 3124              		.loc 5 108 17
 3125 14d6 488D45A0 		leaq	-96(%rbp), %rax
 3126 14da BE000000 		movl	$0, %esi
 3126      00
 3127 14df 4889C7   		movq	%rax, %rdi
 3128              	.LEHB68:
 3129 14e2 E8000000 		call	_ZN8UnitTest11TestResultsC1EPNS_12TestReporterE@PLT
 3129      00
 109:TestChecks.cpp ****     CheckClose(results, 3.12f, 3.0f, 0.1f, TestDetails("", "", "", 0));
 3130              		.loc 5 109 44
 3131 14e7 488D45C0 		leaq	-64(%rbp), %rax
 3132 14eb 41B80000 		movl	$0, %r8d
 3132      0000
 3133 14f1 488D1500 		leaq	.LC6(%rip), %rdx
 3133      000000
 3134 14f8 4889D1   		movq	%rdx, %rcx
 3135 14fb 488D1500 		leaq	.LC6(%rip), %rdx
 3135      000000
 3136 1502 488D3500 		leaq	.LC6(%rip), %rsi
 3136      000000
 3137 1509 4889C7   		movq	%rax, %rdi
 3138 150c E8000000 		call	_ZN8UnitTest11TestDetailsC1EPKcS2_S2_i@PLT
 3138      00
 3139              		.loc 5 109 38
 3140 1511 F30F1005 		movss	.LC31(%rip), %xmm0
 3140      00000000 
 3141 1519 F30F1145 		movss	%xmm0, -100(%rbp)
 3141      9C
 3142              		.loc 5 109 32
 3143 151e F30F1005 		movss	.LC32(%rip), %xmm0
 3143      00000000 
 3144 1526 F30F1145 		movss	%xmm0, -104(%rbp)
 3144      98
 3145              		.loc 5 109 25
 3146 152b F30F1005 		movss	.LC35(%rip), %xmm0
 3146      00000000 
 3147 1533 F30F1145 		movss	%xmm0, -108(%rbp)
 3147      94
 3148              		.loc 5 109 15
 3149 1538 488D7DC0 		leaq	-64(%rbp), %rdi
 3150 153c 488D4D9C 		leaq	-100(%rbp), %rcx
 3151 1540 488D5598 		leaq	-104(%rbp), %rdx
 3152 1544 488D7594 		leaq	-108(%rbp), %rsi
 3153 1548 488D45A0 		leaq	-96(%rbp), %rax
 3154 154c 4989F8   		movq	%rdi, %r8
 3155 154f 4889C7   		movq	%rax, %rdi
 3156 1552 E8000000 		call	_ZN8UnitTest10CheckCloseIfffEEvRNS_11TestResultsERKT_RKT0_RKT1_RKNS_11TestDetailsE
 3156      00
 3157              	.LEHE68:
 3158              	.LEHB69:
 110:TestChecks.cpp ****     CHECK_EQUAL(1, results.GetFailureCount());
 3159              		.loc 5 110 5
 3160 1557 E8000000 		call	_ZN8UnitTest11CurrentTest7DetailsEv@PLT
 3160      00
 3161 155c 488B08   		movq	(%rax), %rcx
 3162 155f 488D45C0 		leaq	-64(%rbp), %rax
 3163 1563 BA6E0000 		movl	$110, %edx
 3163      00
 3164 1568 4889CE   		movq	%rcx, %rsi
 3165 156b 4889C7   		movq	%rax, %rdi
 3166 156e E8000000 		call	_ZN8UnitTest11TestDetailsC1ERKS0_i@PLT
 3166      00
 3167              		.loc 5 110 5 is_stmt 0 discriminator 4
 3168 1573 488D45A0 		leaq	-96(%rbp), %rax
 3169 1577 4889C7   		movq	%rax, %rdi
 3170 157a E8000000 		call	_ZNK8UnitTest11TestResults15GetFailureCountEv@PLT
 3170      00
 3171 157f 89459C   		movl	%eax, -100(%rbp)
 3172 1582 C7459801 		movl	$1, -104(%rbp)
 3172      000000
 3173 1589 E8000000 		call	_ZN8UnitTest11CurrentTest7ResultsEv@PLT
 3173      00
 3174              		.loc 5 110 5 discriminator 6
 3175 158e 488B00   		movq	(%rax), %rax
 3176 1591 488D4DC0 		leaq	-64(%rbp), %rcx
 3177 1595 488D559C 		leaq	-100(%rbp), %rdx
 3178 1599 488D7598 		leaq	-104(%rbp), %rsi
 3179 159d 4889C7   		movq	%rax, %rdi
 3180 15a0 E8000000 		call	_ZN8UnitTest10CheckEqualIiiEEvRNS_11TestResultsERKT_RKT0_RKNS_11TestDetailsE
 3180      00
 3181              	.LEHE69:
 111:TestChecks.cpp **** }
 3182              		.loc 5 111 1 is_stmt 1
 3183 15a5 EB64     		jmp	.L122
 3184              	.L127:
 3185 15a7 F30F1EFA 		endbr64
 110:TestChecks.cpp ****     CHECK_EQUAL(1, results.GetFailureCount());
 3186              		.loc 5 110 5
 3187 15ab 4889C7   		movq	%rax, %rdi
 3188 15ae E8000000 		call	__cxa_begin_catch@PLT
 3188      00
 3189              	.LEHB70:
 3190 15b3 E8000000 		call	_ZN8UnitTest11CurrentTest7ResultsEv@PLT
 3190      00
 110:TestChecks.cpp ****     CHECK_EQUAL(1, results.GetFailureCount());
 3191              		.loc 5 110 5 is_stmt 0 discriminator 3
 3192 15b8 488B18   		movq	(%rax), %rbx
 3193 15bb E8000000 		call	_ZN8UnitTest11CurrentTest7DetailsEv@PLT
 3193      00
 110:TestChecks.cpp ****     CHECK_EQUAL(1, results.GetFailureCount());
 3194              		.loc 5 110 5 discriminator 13
 3195 15c0 488B08   		movq	(%rax), %rcx
 3196 15c3 488D45C0 		leaq	-64(%rbp), %rax
 3197 15c7 BA6E0000 		movl	$110, %edx
 3197      00
 3198 15cc 4889CE   		movq	%rcx, %rsi
 3199 15cf 4889C7   		movq	%rax, %rdi
 3200 15d2 E8000000 		call	_ZN8UnitTest11TestDetailsC1ERKS0_i@PLT
 3200      00
 110:TestChecks.cpp ****     CHECK_EQUAL(1, results.GetFailureCount());
 3201              		.loc 5 110 5 discriminator 17
 3202 15d7 488D45C0 		leaq	-64(%rbp), %rax
 3203 15db 488D1500 		leaq	.LC7(%rip), %rdx
 3203      000000
 3204 15e2 4889C6   		movq	%rax, %rsi
 3205 15e5 4889DF   		movq	%rbx, %rdi
 3206 15e8 E8000000 		call	_ZN8UnitTest11TestResults13OnTestFailureERKNS_11TestDetailsEPKc@PLT
 3206      00
 3207              	.LEHE70:
 3208              	.LEHB71:
 110:TestChecks.cpp ****     CHECK_EQUAL(1, results.GetFailureCount());
 3209              		.loc 5 110 5 discriminator 19
 3210 15ed E8000000 		call	__cxa_end_catch@PLT
 3210      00
 3211              	.LEHE71:
 3212              		.loc 5 111 1 is_stmt 1 discriminator 19
 3213 15f2 EB17     		jmp	.L122
 3214              	.L128:
 3215 15f4 F30F1EFA 		endbr64
 110:TestChecks.cpp ****     CHECK_EQUAL(1, results.GetFailureCount());
 3216              		.loc 5 110 5
 3217 15f8 4889C3   		movq	%rax, %rbx
 3218 15fb E8000000 		call	__cxa_end_catch@PLT
 3218      00
 3219 1600 4889D8   		movq	%rbx, %rax
 3220 1603 4889C7   		movq	%rax, %rdi
 3221              	.LEHB72:
 3222 1606 E8000000 		call	_Unwind_Resume@PLT
 3222      00
 3223              	.LEHE72:
 3224              	.L122:
 3225              		.loc 5 111 1
 3226 160b 488B45E8 		movq	-24(%rbp), %rax
 3227 160f 64482B04 		subq	%fs:40, %rax
 3227      25280000 
 3227      00
 3228 1618 7405     		je	.L126
 3229 161a E8000000 		call	__stack_chk_fail@PLT
 3229      00
 3230              	.L126:
 3231 161f 488B5DF8 		movq	-8(%rbp), %rbx
 3232 1623 C9       		leave
 3233              		.cfi_def_cfa 7, 8
 3234 1624 C3       		ret
 3235              		.cfi_endproc
 3236              	.LFE1194:
 3237              		.section	.gcc_except_table
 3238              		.align 4
 3239              	.LLSDA1194:
 3240 01e0 FF       		.byte	0xff
 3241 01e1 9B       		.byte	0x9b
 3242 01e2 25       		.uleb128 .LLSDATT1194-.LLSDATTD1194
 3243              	.LLSDATTD1194:
 3244 01e3 01       		.byte	0x1
 3245 01e4 1A       		.uleb128 .LLSDACSE1194-.LLSDACSB1194
 3246              	.LLSDACSB1194:
 3247 01e5 2C       		.uleb128 .LEHB68-.LFB1194
 3248 01e6 75       		.uleb128 .LEHE68-.LEHB68
 3249 01e7 00       		.uleb128 0
 3250 01e8 00       		.uleb128 0
 3251 01e9 A101     		.uleb128 .LEHB69-.LFB1194
 3252 01eb 4E       		.uleb128 .LEHE69-.LEHB69
 3253 01ec F101     		.uleb128 .L127-.LFB1194
 3254 01ee 01       		.uleb128 0x1
 3255 01ef FD01     		.uleb128 .LEHB70-.LFB1194
 3256 01f1 3A       		.uleb128 .LEHE70-.LEHB70
 3257 01f2 BE02     		.uleb128 .L128-.LFB1194
 3258 01f4 00       		.uleb128 0
 3259 01f5 B702     		.uleb128 .LEHB71-.LFB1194
 3260 01f7 05       		.uleb128 .LEHE71-.LEHB71
 3261 01f8 00       		.uleb128 0
 3262 01f9 00       		.uleb128 0
 3263 01fa D002     		.uleb128 .LEHB72-.LFB1194
 3264 01fc 05       		.uleb128 .LEHE72-.LEHB72
 3265 01fd 00       		.uleb128 0
 3266 01fe 00       		.uleb128 0
 3267              	.LLSDACSE1194:
 3268 01ff 01       		.byte	0x1
 3269 0200 00       		.byte	0
 3270 0201 000000   		.align 4
 3271 0204 00000000 		.long	0
 3272              	
 3273              	.LLSDATT1194:
 3274              		.text
 3276              		.section	.rodata
 3277              		.align 8
 3278              	.LC36:
 3279 0500 43686563 		.string	"CheckCloseWithZeroEpsilonWorksForSameNumber"
 3279      6B436C6F 
 3279      73655769 
 3279      74685A65 
 3279      726F4570 
 3280              		.text
 3281 1625 90       		.align 2
 3283              	_ZN12_GLOBAL__N_147TestCheckCloseWithZeroEpsilonWorksForSameNumberC2Ev:
 3284              	.LFB1196:
 112:TestChecks.cpp **** 
 113:TestChecks.cpp **** TEST(CheckCloseWithZeroEpsilonWorksForSameNumber)
 3285              		.loc 5 113 1
 3286              		.cfi_startproc
 3287 1626 55       		pushq	%rbp
 3288              		.cfi_def_cfa_offset 16
 3289              		.cfi_offset 6, -16
 3290 1627 4889E5   		movq	%rsp, %rbp
 3291              		.cfi_def_cfa_register 6
 3292 162a 53       		pushq	%rbx
 3293 162b 4883EC18 		subq	$24, %rsp
 3294              		.cfi_offset 3, -24
 3295 162f 48897DE8 		movq	%rdi, -24(%rbp)
 3296              	.LBB17:
 3297              		.loc 5 113 1
 3298 1633 488B5DE8 		movq	-24(%rbp), %rbx
 3299 1637 E8000000 		call	_ZN13UnitTestSuite12GetSuiteNameEv
 3299      00
 3300 163c 4889C2   		movq	%rax, %rdx
 3301 163f 41B87100 		movl	$113, %r8d
 3301      0000
 3302 1645 488D0500 		leaq	.LC2(%rip), %rax
 3302      000000
 3303 164c 4889C1   		movq	%rax, %rcx
 3304 164f 488D0500 		leaq	.LC36(%rip), %rax
 3304      000000
 3305 1656 4889C6   		movq	%rax, %rsi
 3306 1659 4889DF   		movq	%rbx, %rdi
 3307 165c E8000000 		call	_ZN8UnitTest4TestC2EPKcS2_S2_i@PLT
 3307      00
 3308 1661 488D1500 		leaq	16+_ZTVN12_GLOBAL__N_147TestCheckCloseWithZeroEpsilonWorksForSameNumberE(%rip), %rdx
 3308      000000
 3309 1668 488B45E8 		movq	-24(%rbp), %rax
 3310 166c 488910   		movq	%rdx, (%rax)
 3311              	.LBE17:
 3312 166f 90       		nop
 3313 1670 488B5DF8 		movq	-8(%rbp), %rbx
 3314 1674 C9       		leave
 3315              		.cfi_def_cfa 7, 8
 3316 1675 C3       		ret
 3317              		.cfi_endproc
 3318              	.LFE1196:
 3320              		.set	_ZN12_GLOBAL__N_147TestCheckCloseWithZeroEpsilonWorksForSameNumberC1Ev,_ZN12_GLOBAL__N_147Tes
 3321              		.local	_ZN12_GLOBAL__N_155testCheckCloseWithZeroEpsilonWorksForSameNumberInstanceE
 3322              		.comm	_ZN12_GLOBAL__N_155testCheckCloseWithZeroEpsilonWorksForSameNumberInstanceE,56,32
 3323              		.local	_ZN12_GLOBAL__N_148adderCheckCloseWithZeroEpsilonWorksForSameNumberE
 3324              		.comm	_ZN12_GLOBAL__N_148adderCheckCloseWithZeroEpsilonWorksForSameNumberE,1,1
 3325              		.align 2
 3327              	_ZNK12_GLOBAL__N_147TestCheckCloseWithZeroEpsilonWorksForSameNumber7RunImplEv:
 3328              	.LFB1198:
 114:TestChecks.cpp **** {
 3329              		.loc 5 114 1
 3330              		.cfi_startproc
 3331              		.cfi_personality 0x9b,DW.ref.__gxx_personality_v0
 3332              		.cfi_lsda 0x1b,.LLSDA1198
 3333 1676 F30F1EFA 		endbr64
 3334 167a 55       		pushq	%rbp
 3335              		.cfi_def_cfa_offset 16
 3336              		.cfi_offset 6, -16
 3337 167b 4889E5   		movq	%rsp, %rbp
 3338              		.cfi_def_cfa_register 6
 3339 167e 53       		pushq	%rbx
 3340 167f 4883EC78 		subq	$120, %rsp
 3341              		.cfi_offset 3, -24
 3342 1683 48897D88 		movq	%rdi, -120(%rbp)
 3343              		.loc 5 114 1
 3344 1687 64488B04 		movq	%fs:40, %rax
 3344      25280000 
 3344      00
 3345 1690 488945E8 		movq	%rax, -24(%rbp)
 3346 1694 31C0     		xorl	%eax, %eax
 115:TestChecks.cpp ****     TestResults results;
 3347              		.loc 5 115 17
 3348 1696 488D45A0 		leaq	-96(%rbp), %rax
 3349 169a BE000000 		movl	$0, %esi
 3349      00
 3350 169f 4889C7   		movq	%rax, %rdi
 3351              	.LEHB73:
 3352 16a2 E8000000 		call	_ZN8UnitTest11TestResultsC1EPNS_12TestReporterE@PLT
 3352      00
 116:TestChecks.cpp ****     CheckClose(results, 0.1f, 0.1f, 0, TestDetails("", "", "", 0));
 3353              		.loc 5 116 40
 3354 16a7 488D45C0 		leaq	-64(%rbp), %rax
 3355 16ab 41B80000 		movl	$0, %r8d
 3355      0000
 3356 16b1 488D1500 		leaq	.LC6(%rip), %rdx
 3356      000000
 3357 16b8 4889D1   		movq	%rdx, %rcx
 3358 16bb 488D1500 		leaq	.LC6(%rip), %rdx
 3358      000000
 3359 16c2 488D3500 		leaq	.LC6(%rip), %rsi
 3359      000000
 3360 16c9 4889C7   		movq	%rax, %rdi
 3361 16cc E8000000 		call	_ZN8UnitTest11TestDetailsC1EPKcS2_S2_i@PLT
 3361      00
 3362              		.loc 5 116 37
 3363 16d1 C7459C00 		movl	$0, -100(%rbp)
 3363      000000
 3364              		.loc 5 116 31
 3365 16d8 F30F1005 		movss	.LC31(%rip), %xmm0
 3365      00000000 
 3366 16e0 F30F1145 		movss	%xmm0, -104(%rbp)
 3366      98
 3367              		.loc 5 116 25
 3368 16e5 F30F1005 		movss	.LC31(%rip), %xmm0
 3368      00000000 
 3369 16ed F30F1145 		movss	%xmm0, -108(%rbp)
 3369      94
 3370              		.loc 5 116 15
 3371 16f2 488D7DC0 		leaq	-64(%rbp), %rdi
 3372 16f6 488D4D9C 		leaq	-100(%rbp), %rcx
 3373 16fa 488D5598 		leaq	-104(%rbp), %rdx
 3374 16fe 488D7594 		leaq	-108(%rbp), %rsi
 3375 1702 488D45A0 		leaq	-96(%rbp), %rax
 3376 1706 4989F8   		movq	%rdi, %r8
 3377 1709 4889C7   		movq	%rax, %rdi
 3378 170c E8000000 		call	_ZN8UnitTest10CheckCloseIffiEEvRNS_11TestResultsERKT_RKT0_RKT1_RKNS_11TestDetailsE
 3378      00
 3379              	.LEHE73:
 3380              	.LEHB74:
 117:TestChecks.cpp ****     CHECK_EQUAL(0, results.GetFailureCount());
 3381              		.loc 5 117 5
 3382 1711 E8000000 		call	_ZN8UnitTest11CurrentTest7DetailsEv@PLT
 3382      00
 3383 1716 488B08   		movq	(%rax), %rcx
 3384 1719 488D45C0 		leaq	-64(%rbp), %rax
 3385 171d BA750000 		movl	$117, %edx
 3385      00
 3386 1722 4889CE   		movq	%rcx, %rsi
 3387 1725 4889C7   		movq	%rax, %rdi
 3388 1728 E8000000 		call	_ZN8UnitTest11TestDetailsC1ERKS0_i@PLT
 3388      00
 3389              		.loc 5 117 5 is_stmt 0 discriminator 4
 3390 172d 488D45A0 		leaq	-96(%rbp), %rax
 3391 1731 4889C7   		movq	%rax, %rdi
 3392 1734 E8000000 		call	_ZNK8UnitTest11TestResults15GetFailureCountEv@PLT
 3392      00
 3393 1739 89459C   		movl	%eax, -100(%rbp)
 3394 173c C7459800 		movl	$0, -104(%rbp)
 3394      000000
 3395 1743 E8000000 		call	_ZN8UnitTest11CurrentTest7ResultsEv@PLT
 3395      00
 3396              		.loc 5 117 5 discriminator 6
 3397 1748 488B00   		movq	(%rax), %rax
 3398 174b 488D4DC0 		leaq	-64(%rbp), %rcx
 3399 174f 488D559C 		leaq	-100(%rbp), %rdx
 3400 1753 488D7598 		leaq	-104(%rbp), %rsi
 3401 1757 4889C7   		movq	%rax, %rdi
 3402 175a E8000000 		call	_ZN8UnitTest10CheckEqualIiiEEvRNS_11TestResultsERKT_RKT0_RKNS_11TestDetailsE
 3402      00
 3403              	.LEHE74:
 118:TestChecks.cpp **** }
 3404              		.loc 5 118 1 is_stmt 1
 3405 175f EB64     		jmp	.L130
 3406              	.L135:
 3407 1761 F30F1EFA 		endbr64
 117:TestChecks.cpp ****     CHECK_EQUAL(0, results.GetFailureCount());
 3408              		.loc 5 117 5
 3409 1765 4889C7   		movq	%rax, %rdi
 3410 1768 E8000000 		call	__cxa_begin_catch@PLT
 3410      00
 3411              	.LEHB75:
 3412 176d E8000000 		call	_ZN8UnitTest11CurrentTest7ResultsEv@PLT
 3412      00
 117:TestChecks.cpp ****     CHECK_EQUAL(0, results.GetFailureCount());
 3413              		.loc 5 117 5 is_stmt 0 discriminator 3
 3414 1772 488B18   		movq	(%rax), %rbx
 3415 1775 E8000000 		call	_ZN8UnitTest11CurrentTest7DetailsEv@PLT
 3415      00
 117:TestChecks.cpp ****     CHECK_EQUAL(0, results.GetFailureCount());
 3416              		.loc 5 117 5 discriminator 13
 3417 177a 488B08   		movq	(%rax), %rcx
 3418 177d 488D45C0 		leaq	-64(%rbp), %rax
 3419 1781 BA750000 		movl	$117, %edx
 3419      00
 3420 1786 4889CE   		movq	%rcx, %rsi
 3421 1789 4889C7   		movq	%rax, %rdi
 3422 178c E8000000 		call	_ZN8UnitTest11TestDetailsC1ERKS0_i@PLT
 3422      00
 117:TestChecks.cpp ****     CHECK_EQUAL(0, results.GetFailureCount());
 3423              		.loc 5 117 5 discriminator 17
 3424 1791 488D45C0 		leaq	-64(%rbp), %rax
 3425 1795 488D1500 		leaq	.LC9(%rip), %rdx
 3425      000000
 3426 179c 4889C6   		movq	%rax, %rsi
 3427 179f 4889DF   		movq	%rbx, %rdi
 3428 17a2 E8000000 		call	_ZN8UnitTest11TestResults13OnTestFailureERKNS_11TestDetailsEPKc@PLT
 3428      00
 3429              	.LEHE75:
 3430              	.LEHB76:
 117:TestChecks.cpp ****     CHECK_EQUAL(0, results.GetFailureCount());
 3431              		.loc 5 117 5 discriminator 19
 3432 17a7 E8000000 		call	__cxa_end_catch@PLT
 3432      00
 3433              	.LEHE76:
 3434              		.loc 5 118 1 is_stmt 1 discriminator 19
 3435 17ac EB17     		jmp	.L130
 3436              	.L136:
 3437 17ae F30F1EFA 		endbr64
 117:TestChecks.cpp ****     CHECK_EQUAL(0, results.GetFailureCount());
 3438              		.loc 5 117 5
 3439 17b2 4889C3   		movq	%rax, %rbx
 3440 17b5 E8000000 		call	__cxa_end_catch@PLT
 3440      00
 3441 17ba 4889D8   		movq	%rbx, %rax
 3442 17bd 4889C7   		movq	%rax, %rdi
 3443              	.LEHB77:
 3444 17c0 E8000000 		call	_Unwind_Resume@PLT
 3444      00
 3445              	.LEHE77:
 3446              	.L130:
 3447              		.loc 5 118 1
 3448 17c5 488B45E8 		movq	-24(%rbp), %rax
 3449 17c9 64482B04 		subq	%fs:40, %rax
 3449      25280000 
 3449      00
 3450 17d2 7405     		je	.L134
 3451 17d4 E8000000 		call	__stack_chk_fail@PLT
 3451      00
 3452              	.L134:
 3453 17d9 488B5DF8 		movq	-8(%rbp), %rbx
 3454 17dd C9       		leave
 3455              		.cfi_def_cfa 7, 8
 3456 17de C3       		ret
 3457              		.cfi_endproc
 3458              	.LFE1198:
 3459              		.section	.gcc_except_table
 3460              		.align 4
 3461              	.LLSDA1198:
 3462 0208 FF       		.byte	0xff
 3463 0209 9B       		.byte	0x9b
 3464 020a 25       		.uleb128 .LLSDATT1198-.LLSDATTD1198
 3465              	.LLSDATTD1198:
 3466 020b 01       		.byte	0x1
 3467 020c 1A       		.uleb128 .LLSDACSE1198-.LLSDACSB1198
 3468              	.LLSDACSB1198:
 3469 020d 2C       		.uleb128 .LEHB73-.LFB1198
 3470 020e 6F       		.uleb128 .LEHE73-.LEHB73
 3471 020f 00       		.uleb128 0
 3472 0210 00       		.uleb128 0
 3473 0211 9B01     		.uleb128 .LEHB74-.LFB1198
 3474 0213 4E       		.uleb128 .LEHE74-.LEHB74
 3475 0214 EB01     		.uleb128 .L135-.LFB1198
 3476 0216 01       		.uleb128 0x1
 3477 0217 F701     		.uleb128 .LEHB75-.LFB1198
 3478 0219 3A       		.uleb128 .LEHE75-.LEHB75
 3479 021a B802     		.uleb128 .L136-.LFB1198
 3480 021c 00       		.uleb128 0
 3481 021d B102     		.uleb128 .LEHB76-.LFB1198
 3482 021f 05       		.uleb128 .LEHE76-.LEHB76
 3483 0220 00       		.uleb128 0
 3484 0221 00       		.uleb128 0
 3485 0222 CA02     		.uleb128 .LEHB77-.LFB1198
 3486 0224 05       		.uleb128 .LEHE77-.LEHB77
 3487 0225 00       		.uleb128 0
 3488 0226 00       		.uleb128 0
 3489              	.LLSDACSE1198:
 3490 0227 01       		.byte	0x1
 3491 0228 00       		.byte	0
 3492 0229 000000   		.align 4
 3493 022c 00000000 		.long	0
 3494              	
 3495              	.LLSDATT1198:
 3496              		.text
 3498              		.section	.rodata
 3499              	.LC37:
 3500 052c 43686563 		.string	"CheckCloseWithNaNFails"
 3500      6B436C6F 
 3500      73655769 
 3500      74684E61 
 3500      4E466169 
 3501              		.text
 3502 17df 90       		.align 2
 3504              	_ZN12_GLOBAL__N_126TestCheckCloseWithNaNFailsC2Ev:
 3505              	.LFB1200:
 119:TestChecks.cpp **** 
 120:TestChecks.cpp **** TEST(CheckCloseWithNaNFails)
 3506              		.loc 5 120 1
 3507              		.cfi_startproc
 3508 17e0 55       		pushq	%rbp
 3509              		.cfi_def_cfa_offset 16
 3510              		.cfi_offset 6, -16
 3511 17e1 4889E5   		movq	%rsp, %rbp
 3512              		.cfi_def_cfa_register 6
 3513 17e4 53       		pushq	%rbx
 3514 17e5 4883EC18 		subq	$24, %rsp
 3515              		.cfi_offset 3, -24
 3516 17e9 48897DE8 		movq	%rdi, -24(%rbp)
 3517              	.LBB18:
 3518              		.loc 5 120 1
 3519 17ed 488B5DE8 		movq	-24(%rbp), %rbx
 3520 17f1 E8000000 		call	_ZN13UnitTestSuite12GetSuiteNameEv
 3520      00
 3521 17f6 4889C2   		movq	%rax, %rdx
 3522 17f9 41B87800 		movl	$120, %r8d
 3522      0000
 3523 17ff 488D0500 		leaq	.LC2(%rip), %rax
 3523      000000
 3524 1806 4889C1   		movq	%rax, %rcx
 3525 1809 488D0500 		leaq	.LC37(%rip), %rax
 3525      000000
 3526 1810 4889C6   		movq	%rax, %rsi
 3527 1813 4889DF   		movq	%rbx, %rdi
 3528 1816 E8000000 		call	_ZN8UnitTest4TestC2EPKcS2_S2_i@PLT
 3528      00
 3529 181b 488D1500 		leaq	16+_ZTVN12_GLOBAL__N_126TestCheckCloseWithNaNFailsE(%rip), %rdx
 3529      000000
 3530 1822 488B45E8 		movq	-24(%rbp), %rax
 3531 1826 488910   		movq	%rdx, (%rax)
 3532              	.LBE18:
 3533 1829 90       		nop
 3534 182a 488B5DF8 		movq	-8(%rbp), %rbx
 3535 182e C9       		leave
 3536              		.cfi_def_cfa 7, 8
 3537 182f C3       		ret
 3538              		.cfi_endproc
 3539              	.LFE1200:
 3541              		.set	_ZN12_GLOBAL__N_126TestCheckCloseWithNaNFailsC1Ev,_ZN12_GLOBAL__N_126TestCheckCloseWithNaNFai
 3542              		.local	_ZN12_GLOBAL__N_134testCheckCloseWithNaNFailsInstanceE
 3543              		.comm	_ZN12_GLOBAL__N_134testCheckCloseWithNaNFailsInstanceE,56,32
 3544              		.local	_ZN12_GLOBAL__N_127adderCheckCloseWithNaNFailsE
 3545              		.comm	_ZN12_GLOBAL__N_127adderCheckCloseWithNaNFailsE,1,1
 3546              		.align 2
 3548              	_ZNK12_GLOBAL__N_126TestCheckCloseWithNaNFails7RunImplEv:
 3549              	.LFB1202:
 121:TestChecks.cpp **** {
 3550              		.loc 5 121 1
 3551              		.cfi_startproc
 3552              		.cfi_personality 0x9b,DW.ref.__gxx_personality_v0
 3553              		.cfi_lsda 0x1b,.LLSDA1202
 3554 1830 F30F1EFA 		endbr64
 3555 1834 55       		pushq	%rbp
 3556              		.cfi_def_cfa_offset 16
 3557              		.cfi_offset 6, -16
 3558 1835 4889E5   		movq	%rsp, %rbp
 3559              		.cfi_def_cfa_register 6
 3560 1838 53       		pushq	%rbx
 3561 1839 4883EC78 		subq	$120, %rsp
 3562              		.cfi_offset 3, -24
 3563 183d 48897D88 		movq	%rdi, -120(%rbp)
 3564              		.loc 5 121 1
 3565 1841 64488B04 		movq	%fs:40, %rax
 3565      25280000 
 3565      00
 3566 184a 488945E8 		movq	%rax, -24(%rbp)
 3567 184e 31C0     		xorl	%eax, %eax
 122:TestChecks.cpp ****     union
 123:TestChecks.cpp ****     {
 124:TestChecks.cpp ****         unsigned int bitpattern;
 125:TestChecks.cpp ****         float nan;
 126:TestChecks.cpp ****     };
 127:TestChecks.cpp ****     bitpattern = 0xFFFFFFFF;
 3568              		.loc 5 127 16
 3569 1850 C74594FF 		movl	$-1, -108(%rbp)
 3569      FFFFFF
 128:TestChecks.cpp ****     TestResults results;
 3570              		.loc 5 128 17
 3571 1857 488D45A0 		leaq	-96(%rbp), %rax
 3572 185b BE000000 		movl	$0, %esi
 3572      00
 3573 1860 4889C7   		movq	%rax, %rdi
 3574              	.LEHB78:
 3575 1863 E8000000 		call	_ZN8UnitTest11TestResultsC1EPNS_12TestReporterE@PLT
 3575      00
 129:TestChecks.cpp ****     CheckClose(results, 3.0f, nan, 0.1f, TestDetails("", "", "", 0));
 3576              		.loc 5 129 42
 3577 1868 488D45C0 		leaq	-64(%rbp), %rax
 3578 186c 41B80000 		movl	$0, %r8d
 3578      0000
 3579 1872 488D1500 		leaq	.LC6(%rip), %rdx
 3579      000000
 3580 1879 4889D1   		movq	%rdx, %rcx
 3581 187c 488D1500 		leaq	.LC6(%rip), %rdx
 3581      000000
 3582 1883 488D3500 		leaq	.LC6(%rip), %rsi
 3582      000000
 3583 188a 4889C7   		movq	%rax, %rdi
 3584 188d E8000000 		call	_ZN8UnitTest11TestDetailsC1EPKcS2_S2_i@PLT
 3584      00
 3585              		.loc 5 129 36
 3586 1892 F30F1005 		movss	.LC31(%rip), %xmm0
 3586      00000000 
 3587 189a F30F1145 		movss	%xmm0, -100(%rbp)
 3587      9C
 3588              		.loc 5 129 25
 3589 189f F30F1005 		movss	.LC32(%rip), %xmm0
 3589      00000000 
 3590 18a7 F30F1145 		movss	%xmm0, -104(%rbp)
 3590      98
 3591              		.loc 5 129 15
 3592 18ac 488D7DC0 		leaq	-64(%rbp), %rdi
 3593 18b0 488D4D9C 		leaq	-100(%rbp), %rcx
 3594 18b4 488D5594 		leaq	-108(%rbp), %rdx
 3595 18b8 488D7598 		leaq	-104(%rbp), %rsi
 3596 18bc 488D45A0 		leaq	-96(%rbp), %rax
 3597 18c0 4989F8   		movq	%rdi, %r8
 3598 18c3 4889C7   		movq	%rax, %rdi
 3599 18c6 E8000000 		call	_ZN8UnitTest10CheckCloseIfffEEvRNS_11TestResultsERKT_RKT0_RKT1_RKNS_11TestDetailsE
 3599      00
 3600              	.LEHE78:
 3601              	.LEHB79:
 130:TestChecks.cpp ****     CHECK_EQUAL(1, results.GetFailureCount());
 3602              		.loc 5 130 5
 3603 18cb E8000000 		call	_ZN8UnitTest11CurrentTest7DetailsEv@PLT
 3603      00
 3604 18d0 488B08   		movq	(%rax), %rcx
 3605 18d3 488D45C0 		leaq	-64(%rbp), %rax
 3606 18d7 BA820000 		movl	$130, %edx
 3606      00
 3607 18dc 4889CE   		movq	%rcx, %rsi
 3608 18df 4889C7   		movq	%rax, %rdi
 3609 18e2 E8000000 		call	_ZN8UnitTest11TestDetailsC1ERKS0_i@PLT
 3609      00
 3610              		.loc 5 130 5 is_stmt 0 discriminator 4
 3611 18e7 488D45A0 		leaq	-96(%rbp), %rax
 3612 18eb 4889C7   		movq	%rax, %rdi
 3613 18ee E8000000 		call	_ZNK8UnitTest11TestResults15GetFailureCountEv@PLT
 3613      00
 3614 18f3 89459C   		movl	%eax, -100(%rbp)
 3615 18f6 C7459801 		movl	$1, -104(%rbp)
 3615      000000
 3616 18fd E8000000 		call	_ZN8UnitTest11CurrentTest7ResultsEv@PLT
 3616      00
 3617              		.loc 5 130 5 discriminator 6
 3618 1902 488B00   		movq	(%rax), %rax
 3619 1905 488D4DC0 		leaq	-64(%rbp), %rcx
 3620 1909 488D559C 		leaq	-100(%rbp), %rdx
 3621 190d 488D7598 		leaq	-104(%rbp), %rsi
 3622 1911 4889C7   		movq	%rax, %rdi
 3623 1914 E8000000 		call	_ZN8UnitTest10CheckEqualIiiEEvRNS_11TestResultsERKT_RKT0_RKNS_11TestDetailsE
 3623      00
 3624              	.LEHE79:
 131:TestChecks.cpp **** }
 3625              		.loc 5 131 1 is_stmt 1
 3626 1919 EB64     		jmp	.L138
 3627              	.L143:
 3628 191b F30F1EFA 		endbr64
 130:TestChecks.cpp ****     CHECK_EQUAL(1, results.GetFailureCount());
 3629              		.loc 5 130 5
 3630 191f 4889C7   		movq	%rax, %rdi
 3631 1922 E8000000 		call	__cxa_begin_catch@PLT
 3631      00
 3632              	.LEHB80:
 3633 1927 E8000000 		call	_ZN8UnitTest11CurrentTest7ResultsEv@PLT
 3633      00
 130:TestChecks.cpp ****     CHECK_EQUAL(1, results.GetFailureCount());
 3634              		.loc 5 130 5 is_stmt 0 discriminator 3
 3635 192c 488B18   		movq	(%rax), %rbx
 3636 192f E8000000 		call	_ZN8UnitTest11CurrentTest7DetailsEv@PLT
 3636      00
 130:TestChecks.cpp ****     CHECK_EQUAL(1, results.GetFailureCount());
 3637              		.loc 5 130 5 discriminator 13
 3638 1934 488B08   		movq	(%rax), %rcx
 3639 1937 488D45C0 		leaq	-64(%rbp), %rax
 3640 193b BA820000 		movl	$130, %edx
 3640      00
 3641 1940 4889CE   		movq	%rcx, %rsi
 3642 1943 4889C7   		movq	%rax, %rdi
 3643 1946 E8000000 		call	_ZN8UnitTest11TestDetailsC1ERKS0_i@PLT
 3643      00
 130:TestChecks.cpp ****     CHECK_EQUAL(1, results.GetFailureCount());
 3644              		.loc 5 130 5 discriminator 17
 3645 194b 488D45C0 		leaq	-64(%rbp), %rax
 3646 194f 488D1500 		leaq	.LC7(%rip), %rdx
 3646      000000
 3647 1956 4889C6   		movq	%rax, %rsi
 3648 1959 4889DF   		movq	%rbx, %rdi
 3649 195c E8000000 		call	_ZN8UnitTest11TestResults13OnTestFailureERKNS_11TestDetailsEPKc@PLT
 3649      00
 3650              	.LEHE80:
 3651              	.LEHB81:
 130:TestChecks.cpp ****     CHECK_EQUAL(1, results.GetFailureCount());
 3652              		.loc 5 130 5 discriminator 19
 3653 1961 E8000000 		call	__cxa_end_catch@PLT
 3653      00
 3654              	.LEHE81:
 3655              		.loc 5 131 1 is_stmt 1 discriminator 19
 3656 1966 EB17     		jmp	.L138
 3657              	.L144:
 3658 1968 F30F1EFA 		endbr64
 130:TestChecks.cpp ****     CHECK_EQUAL(1, results.GetFailureCount());
 3659              		.loc 5 130 5
 3660 196c 4889C3   		movq	%rax, %rbx
 3661 196f E8000000 		call	__cxa_end_catch@PLT
 3661      00
 3662 1974 4889D8   		movq	%rbx, %rax
 3663 1977 4889C7   		movq	%rax, %rdi
 3664              	.LEHB82:
 3665 197a E8000000 		call	_Unwind_Resume@PLT
 3665      00
 3666              	.LEHE82:
 3667              	.L138:
 3668              		.loc 5 131 1
 3669 197f 488B45E8 		movq	-24(%rbp), %rax
 3670 1983 64482B04 		subq	%fs:40, %rax
 3670      25280000 
 3670      00
 3671 198c 7405     		je	.L142
 3672 198e E8000000 		call	__stack_chk_fail@PLT
 3672      00
 3673              	.L142:
 3674 1993 488B5DF8 		movq	-8(%rbp), %rbx
 3675 1997 C9       		leave
 3676              		.cfi_def_cfa 7, 8
 3677 1998 C3       		ret
 3678              		.cfi_endproc
 3679              	.LFE1202:
 3680              		.section	.gcc_except_table
 3681              		.align 4
 3682              	.LLSDA1202:
 3683 0230 FF       		.byte	0xff
 3684 0231 9B       		.byte	0x9b
 3685 0232 25       		.uleb128 .LLSDATT1202-.LLSDATTD1202
 3686              	.LLSDATTD1202:
 3687 0233 01       		.byte	0x1
 3688 0234 1A       		.uleb128 .LLSDACSE1202-.LLSDACSB1202
 3689              	.LLSDACSB1202:
 3690 0235 33       		.uleb128 .LEHB78-.LFB1202
 3691 0236 68       		.uleb128 .LEHE78-.LEHB78
 3692 0237 00       		.uleb128 0
 3693 0238 00       		.uleb128 0
 3694 0239 9B01     		.uleb128 .LEHB79-.LFB1202
 3695 023b 4E       		.uleb128 .LEHE79-.LEHB79
 3696 023c EB01     		.uleb128 .L143-.LFB1202
 3697 023e 01       		.uleb128 0x1
 3698 023f F701     		.uleb128 .LEHB80-.LFB1202
 3699 0241 3A       		.uleb128 .LEHE80-.LEHB80
 3700 0242 B802     		.uleb128 .L144-.LFB1202
 3701 0244 00       		.uleb128 0
 3702 0245 B102     		.uleb128 .LEHB81-.LFB1202
 3703 0247 05       		.uleb128 .LEHE81-.LEHB81
 3704 0248 00       		.uleb128 0
 3705 0249 00       		.uleb128 0
 3706 024a CA02     		.uleb128 .LEHB82-.LFB1202
 3707 024c 05       		.uleb128 .LEHE82-.LEHB82
 3708 024d 00       		.uleb128 0
 3709 024e 00       		.uleb128 0
 3710              	.LLSDACSE1202:
 3711 024f 01       		.byte	0x1
 3712 0250 00       		.byte	0
 3713 0251 000000   		.align 4
 3714 0254 00000000 		.long	0
 3715              	
 3716              	.LLSDATT1202:
 3717              		.text
 3719              		.section	.rodata
 3720 0543 00000000 		.align 8
 3720      00
 3721              	.LC38:
 3722 0548 43686563 		.string	"CheckCloseWithNaNAgainstItselfFails"
 3722      6B436C6F 
 3722      73655769 
 3722      74684E61 
 3722      4E416761 
 3723              		.text
 3724 1999 90       		.align 2
 3726              	_ZN12_GLOBAL__N_139TestCheckCloseWithNaNAgainstItselfFailsC2Ev:
 3727              	.LFB1204:
 132:TestChecks.cpp **** 
 133:TestChecks.cpp **** TEST(CheckCloseWithNaNAgainstItselfFails)
 3728              		.loc 5 133 1
 3729              		.cfi_startproc
 3730 199a 55       		pushq	%rbp
 3731              		.cfi_def_cfa_offset 16
 3732              		.cfi_offset 6, -16
 3733 199b 4889E5   		movq	%rsp, %rbp
 3734              		.cfi_def_cfa_register 6
 3735 199e 53       		pushq	%rbx
 3736 199f 4883EC18 		subq	$24, %rsp
 3737              		.cfi_offset 3, -24
 3738 19a3 48897DE8 		movq	%rdi, -24(%rbp)
 3739              	.LBB19:
 3740              		.loc 5 133 1
 3741 19a7 488B5DE8 		movq	-24(%rbp), %rbx
 3742 19ab E8000000 		call	_ZN13UnitTestSuite12GetSuiteNameEv
 3742      00
 3743 19b0 4889C2   		movq	%rax, %rdx
 3744 19b3 41B88500 		movl	$133, %r8d
 3744      0000
 3745 19b9 488D0500 		leaq	.LC2(%rip), %rax
 3745      000000
 3746 19c0 4889C1   		movq	%rax, %rcx
 3747 19c3 488D0500 		leaq	.LC38(%rip), %rax
 3747      000000
 3748 19ca 4889C6   		movq	%rax, %rsi
 3749 19cd 4889DF   		movq	%rbx, %rdi
 3750 19d0 E8000000 		call	_ZN8UnitTest4TestC2EPKcS2_S2_i@PLT
 3750      00
 3751 19d5 488D1500 		leaq	16+_ZTVN12_GLOBAL__N_139TestCheckCloseWithNaNAgainstItselfFailsE(%rip), %rdx
 3751      000000
 3752 19dc 488B45E8 		movq	-24(%rbp), %rax
 3753 19e0 488910   		movq	%rdx, (%rax)
 3754              	.LBE19:
 3755 19e3 90       		nop
 3756 19e4 488B5DF8 		movq	-8(%rbp), %rbx
 3757 19e8 C9       		leave
 3758              		.cfi_def_cfa 7, 8
 3759 19e9 C3       		ret
 3760              		.cfi_endproc
 3761              	.LFE1204:
 3763              		.set	_ZN12_GLOBAL__N_139TestCheckCloseWithNaNAgainstItselfFailsC1Ev,_ZN12_GLOBAL__N_139TestCheckCl
 3764              		.local	_ZN12_GLOBAL__N_147testCheckCloseWithNaNAgainstItselfFailsInstanceE
 3765              		.comm	_ZN12_GLOBAL__N_147testCheckCloseWithNaNAgainstItselfFailsInstanceE,56,32
 3766              		.local	_ZN12_GLOBAL__N_140adderCheckCloseWithNaNAgainstItselfFailsE
 3767              		.comm	_ZN12_GLOBAL__N_140adderCheckCloseWithNaNAgainstItselfFailsE,1,1
 3768              		.align 2
 3770              	_ZNK12_GLOBAL__N_139TestCheckCloseWithNaNAgainstItselfFails7RunImplEv:
 3771              	.LFB1206:
 134:TestChecks.cpp **** {
 3772              		.loc 5 134 1
 3773              		.cfi_startproc
 3774              		.cfi_personality 0x9b,DW.ref.__gxx_personality_v0
 3775              		.cfi_lsda 0x1b,.LLSDA1206
 3776 19ea F30F1EFA 		endbr64
 3777 19ee 55       		pushq	%rbp
 3778              		.cfi_def_cfa_offset 16
 3779              		.cfi_offset 6, -16
 3780 19ef 4889E5   		movq	%rsp, %rbp
 3781              		.cfi_def_cfa_register 6
 3782 19f2 53       		pushq	%rbx
 3783 19f3 4883EC78 		subq	$120, %rsp
 3784              		.cfi_offset 3, -24
 3785 19f7 48897D88 		movq	%rdi, -120(%rbp)
 3786              		.loc 5 134 1
 3787 19fb 64488B04 		movq	%fs:40, %rax
 3787      25280000 
 3787      00
 3788 1a04 488945E8 		movq	%rax, -24(%rbp)
 3789 1a08 31C0     		xorl	%eax, %eax
 135:TestChecks.cpp ****     union
 136:TestChecks.cpp ****     {
 137:TestChecks.cpp ****         unsigned int bitpattern;
 138:TestChecks.cpp ****         float nan;
 139:TestChecks.cpp ****     };
 140:TestChecks.cpp ****     bitpattern = 0xFFFFFFFF;
 3790              		.loc 5 140 16
 3791 1a0a C74594FF 		movl	$-1, -108(%rbp)
 3791      FFFFFF
 141:TestChecks.cpp ****     TestResults results;
 3792              		.loc 5 141 17
 3793 1a11 488D45A0 		leaq	-96(%rbp), %rax
 3794 1a15 BE000000 		movl	$0, %esi
 3794      00
 3795 1a1a 4889C7   		movq	%rax, %rdi
 3796              	.LEHB83:
 3797 1a1d E8000000 		call	_ZN8UnitTest11TestResultsC1EPNS_12TestReporterE@PLT
 3797      00
 142:TestChecks.cpp ****     CheckClose(results, nan, nan, 0.1f, TestDetails("", "", "", 0));
 3798              		.loc 5 142 41
 3799 1a22 488D45C0 		leaq	-64(%rbp), %rax
 3800 1a26 41B80000 		movl	$0, %r8d
 3800      0000
 3801 1a2c 488D1500 		leaq	.LC6(%rip), %rdx
 3801      000000
 3802 1a33 4889D1   		movq	%rdx, %rcx
 3803 1a36 488D1500 		leaq	.LC6(%rip), %rdx
 3803      000000
 3804 1a3d 488D3500 		leaq	.LC6(%rip), %rsi
 3804      000000
 3805 1a44 4889C7   		movq	%rax, %rdi
 3806 1a47 E8000000 		call	_ZN8UnitTest11TestDetailsC1EPKcS2_S2_i@PLT
 3806      00
 3807              		.loc 5 142 35
 3808 1a4c F30F1005 		movss	.LC31(%rip), %xmm0
 3808      00000000 
 3809 1a54 F30F1145 		movss	%xmm0, -100(%rbp)
 3809      9C
 3810              		.loc 5 142 15
 3811 1a59 488D7DC0 		leaq	-64(%rbp), %rdi
 3812 1a5d 488D4D9C 		leaq	-100(%rbp), %rcx
 3813 1a61 488D5594 		leaq	-108(%rbp), %rdx
 3814 1a65 488D7594 		leaq	-108(%rbp), %rsi
 3815 1a69 488D45A0 		leaq	-96(%rbp), %rax
 3816 1a6d 4989F8   		movq	%rdi, %r8
 3817 1a70 4889C7   		movq	%rax, %rdi
 3818 1a73 E8000000 		call	_ZN8UnitTest10CheckCloseIfffEEvRNS_11TestResultsERKT_RKT0_RKT1_RKNS_11TestDetailsE
 3818      00
 3819              	.LEHE83:
 3820              	.LEHB84:
 143:TestChecks.cpp ****     CHECK_EQUAL(1, results.GetFailureCount());
 3821              		.loc 5 143 5
 3822 1a78 E8000000 		call	_ZN8UnitTest11CurrentTest7DetailsEv@PLT
 3822      00
 3823 1a7d 488B08   		movq	(%rax), %rcx
 3824 1a80 488D45C0 		leaq	-64(%rbp), %rax
 3825 1a84 BA8F0000 		movl	$143, %edx
 3825      00
 3826 1a89 4889CE   		movq	%rcx, %rsi
 3827 1a8c 4889C7   		movq	%rax, %rdi
 3828 1a8f E8000000 		call	_ZN8UnitTest11TestDetailsC1ERKS0_i@PLT
 3828      00
 3829              		.loc 5 143 5 is_stmt 0 discriminator 4
 3830 1a94 488D45A0 		leaq	-96(%rbp), %rax
 3831 1a98 4889C7   		movq	%rax, %rdi
 3832 1a9b E8000000 		call	_ZNK8UnitTest11TestResults15GetFailureCountEv@PLT
 3832      00
 3833 1aa0 89459C   		movl	%eax, -100(%rbp)
 3834 1aa3 C7459801 		movl	$1, -104(%rbp)
 3834      000000
 3835 1aaa E8000000 		call	_ZN8UnitTest11CurrentTest7ResultsEv@PLT
 3835      00
 3836              		.loc 5 143 5 discriminator 6
 3837 1aaf 488B00   		movq	(%rax), %rax
 3838 1ab2 488D4DC0 		leaq	-64(%rbp), %rcx
 3839 1ab6 488D559C 		leaq	-100(%rbp), %rdx
 3840 1aba 488D7598 		leaq	-104(%rbp), %rsi
 3841 1abe 4889C7   		movq	%rax, %rdi
 3842 1ac1 E8000000 		call	_ZN8UnitTest10CheckEqualIiiEEvRNS_11TestResultsERKT_RKT0_RKNS_11TestDetailsE
 3842      00
 3843              	.LEHE84:
 144:TestChecks.cpp **** }
 3844              		.loc 5 144 1 is_stmt 1
 3845 1ac6 EB64     		jmp	.L146
 3846              	.L151:
 3847 1ac8 F30F1EFA 		endbr64
 143:TestChecks.cpp ****     CHECK_EQUAL(1, results.GetFailureCount());
 3848              		.loc 5 143 5
 3849 1acc 4889C7   		movq	%rax, %rdi
 3850 1acf E8000000 		call	__cxa_begin_catch@PLT
 3850      00
 3851              	.LEHB85:
 3852 1ad4 E8000000 		call	_ZN8UnitTest11CurrentTest7ResultsEv@PLT
 3852      00
 143:TestChecks.cpp ****     CHECK_EQUAL(1, results.GetFailureCount());
 3853              		.loc 5 143 5 is_stmt 0 discriminator 3
 3854 1ad9 488B18   		movq	(%rax), %rbx
 3855 1adc E8000000 		call	_ZN8UnitTest11CurrentTest7DetailsEv@PLT
 3855      00
 143:TestChecks.cpp ****     CHECK_EQUAL(1, results.GetFailureCount());
 3856              		.loc 5 143 5 discriminator 13
 3857 1ae1 488B08   		movq	(%rax), %rcx
 3858 1ae4 488D45C0 		leaq	-64(%rbp), %rax
 3859 1ae8 BA8F0000 		movl	$143, %edx
 3859      00
 3860 1aed 4889CE   		movq	%rcx, %rsi
 3861 1af0 4889C7   		movq	%rax, %rdi
 3862 1af3 E8000000 		call	_ZN8UnitTest11TestDetailsC1ERKS0_i@PLT
 3862      00
 143:TestChecks.cpp ****     CHECK_EQUAL(1, results.GetFailureCount());
 3863              		.loc 5 143 5 discriminator 17
 3864 1af8 488D45C0 		leaq	-64(%rbp), %rax
 3865 1afc 488D1500 		leaq	.LC7(%rip), %rdx
 3865      000000
 3866 1b03 4889C6   		movq	%rax, %rsi
 3867 1b06 4889DF   		movq	%rbx, %rdi
 3868 1b09 E8000000 		call	_ZN8UnitTest11TestResults13OnTestFailureERKNS_11TestDetailsEPKc@PLT
 3868      00
 3869              	.LEHE85:
 3870              	.LEHB86:
 143:TestChecks.cpp ****     CHECK_EQUAL(1, results.GetFailureCount());
 3871              		.loc 5 143 5 discriminator 19
 3872 1b0e E8000000 		call	__cxa_end_catch@PLT
 3872      00
 3873              	.LEHE86:
 3874              		.loc 5 144 1 is_stmt 1 discriminator 19
 3875 1b13 EB17     		jmp	.L146
 3876              	.L152:
 3877 1b15 F30F1EFA 		endbr64
 143:TestChecks.cpp ****     CHECK_EQUAL(1, results.GetFailureCount());
 3878              		.loc 5 143 5
 3879 1b19 4889C3   		movq	%rax, %rbx
 3880 1b1c E8000000 		call	__cxa_end_catch@PLT
 3880      00
 3881 1b21 4889D8   		movq	%rbx, %rax
 3882 1b24 4889C7   		movq	%rax, %rdi
 3883              	.LEHB87:
 3884 1b27 E8000000 		call	_Unwind_Resume@PLT
 3884      00
 3885              	.LEHE87:
 3886              	.L146:
 3887              		.loc 5 144 1
 3888 1b2c 488B45E8 		movq	-24(%rbp), %rax
 3889 1b30 64482B04 		subq	%fs:40, %rax
 3889      25280000 
 3889      00
 3890 1b39 7405     		je	.L150
 3891 1b3b E8000000 		call	__stack_chk_fail@PLT
 3891      00
 3892              	.L150:
 3893 1b40 488B5DF8 		movq	-8(%rbp), %rbx
 3894 1b44 C9       		leave
 3895              		.cfi_def_cfa 7, 8
 3896 1b45 C3       		ret
 3897              		.cfi_endproc
 3898              	.LFE1206:
 3899              		.section	.gcc_except_table
 3900              		.align 4
 3901              	.LLSDA1206:
 3902 0258 FF       		.byte	0xff
 3903 0259 9B       		.byte	0x9b
 3904 025a 25       		.uleb128 .LLSDATT1206-.LLSDATTD1206
 3905              	.LLSDATTD1206:
 3906 025b 01       		.byte	0x1
 3907 025c 1A       		.uleb128 .LLSDACSE1206-.LLSDACSB1206
 3908              	.LLSDACSB1206:
 3909 025d 33       		.uleb128 .LEHB83-.LFB1206
 3910 025e 5B       		.uleb128 .LEHE83-.LEHB83
 3911 025f 00       		.uleb128 0
 3912 0260 00       		.uleb128 0
 3913 0261 8E01     		.uleb128 .LEHB84-.LFB1206
 3914 0263 4E       		.uleb128 .LEHE84-.LEHB84
 3915 0264 DE01     		.uleb128 .L151-.LFB1206
 3916 0266 01       		.uleb128 0x1
 3917 0267 EA01     		.uleb128 .LEHB85-.LFB1206
 3918 0269 3A       		.uleb128 .LEHE85-.LEHB85
 3919 026a AB02     		.uleb128 .L152-.LFB1206
 3920 026c 00       		.uleb128 0
 3921 026d A402     		.uleb128 .LEHB86-.LFB1206
 3922 026f 05       		.uleb128 .LEHE86-.LEHB86
 3923 0270 00       		.uleb128 0
 3924 0271 00       		.uleb128 0
 3925 0272 BD02     		.uleb128 .LEHB87-.LFB1206
 3926 0274 05       		.uleb128 .LEHE87-.LEHB87
 3927 0275 00       		.uleb128 0
 3928 0276 00       		.uleb128 0
 3929              	.LLSDACSE1206:
 3930 0277 01       		.byte	0x1
 3931 0278 00       		.byte	0
 3932 0279 000000   		.align 4
 3933 027c 00000000 		.long	0
 3934              	
 3935              	.LLSDATT1206:
 3936              		.text
 3938              		.section	.rodata
 3939 056c 00000000 		.align 8
 3940              	.LC39:
 3941 0570 43686563 		.string	"CheckCloseFailureIncludesCheckExpectedAndActual"
 3941      6B436C6F 
 3941      73654661 
 3941      696C7572 
 3941      65496E63 
 3942              		.text
 3943              		.align 2
 3945              	_ZN12_GLOBAL__N_151TestCheckCloseFailureIncludesCheckExpectedAndActualC2Ev:
 3946              	.LFB1208:
 145:TestChecks.cpp **** 
 146:TestChecks.cpp **** TEST(CheckCloseFailureIncludesCheckExpectedAndActual)
 3947              		.loc 5 146 1
 3948              		.cfi_startproc
 3949 1b46 55       		pushq	%rbp
 3950              		.cfi_def_cfa_offset 16
 3951              		.cfi_offset 6, -16
 3952 1b47 4889E5   		movq	%rsp, %rbp
 3953              		.cfi_def_cfa_register 6
 3954 1b4a 53       		pushq	%rbx
 3955 1b4b 4883EC18 		subq	$24, %rsp
 3956              		.cfi_offset 3, -24
 3957 1b4f 48897DE8 		movq	%rdi, -24(%rbp)
 3958              	.LBB20:
 3959              		.loc 5 146 1
 3960 1b53 488B5DE8 		movq	-24(%rbp), %rbx
 3961 1b57 E8000000 		call	_ZN13UnitTestSuite12GetSuiteNameEv
 3961      00
 3962 1b5c 4889C2   		movq	%rax, %rdx
 3963 1b5f 41B89200 		movl	$146, %r8d
 3963      0000
 3964 1b65 488D0500 		leaq	.LC2(%rip), %rax
 3964      000000
 3965 1b6c 4889C1   		movq	%rax, %rcx
 3966 1b6f 488D0500 		leaq	.LC39(%rip), %rax
 3966      000000
 3967 1b76 4889C6   		movq	%rax, %rsi
 3968 1b79 4889DF   		movq	%rbx, %rdi
 3969 1b7c E8000000 		call	_ZN8UnitTest4TestC2EPKcS2_S2_i@PLT
 3969      00
 3970 1b81 488D1500 		leaq	16+_ZTVN12_GLOBAL__N_151TestCheckCloseFailureIncludesCheckExpectedAndActualE(%rip), %rdx
 3970      000000
 3971 1b88 488B45E8 		movq	-24(%rbp), %rax
 3972 1b8c 488910   		movq	%rdx, (%rax)
 3973              	.LBE20:
 3974 1b8f 90       		nop
 3975 1b90 488B5DF8 		movq	-8(%rbp), %rbx
 3976 1b94 C9       		leave
 3977              		.cfi_def_cfa 7, 8
 3978 1b95 C3       		ret
 3979              		.cfi_endproc
 3980              	.LFE1208:
 3982              		.set	_ZN12_GLOBAL__N_151TestCheckCloseFailureIncludesCheckExpectedAndActualC1Ev,_ZN12_GLOBAL__N_15
 3983              		.local	_ZN12_GLOBAL__N_159testCheckCloseFailureIncludesCheckExpectedAndActualInstanceE
 3984              		.comm	_ZN12_GLOBAL__N_159testCheckCloseFailureIncludesCheckExpectedAndActualInstanceE,56,32
 3985              		.local	_ZN12_GLOBAL__N_152adderCheckCloseFailureIncludesCheckExpectedAndActualE
 3986              		.comm	_ZN12_GLOBAL__N_152adderCheckCloseFailureIncludesCheckExpectedAndActualE,1,1
 3987              		.section	.rodata
 3988              	.LC43:
 3989 05a0 78706563 		.string	"xpected 0.9"
 3989      74656420 
 3989      302E3900 
 3990 05ac 00000000 		.align 8
 3991              	.LC44:
 3992 05b0 73747273 		.string	"strstr(reporter.lastFailedMessage, \"xpected 0.9\")"
 3992      74722872 
 3992      65706F72 
 3992      7465722E 
 3992      6C617374 
 3993              	.LC45:
 3994 05e2 77617320 		.string	"was 1.1"
 3994      312E3100 
 3995 05ea 00000000 		.align 8
 3995      0000
 3996              	.LC46:
 3997 05f0 73747273 		.string	"strstr(reporter.lastFailedMessage, \"was 1.1\")"
 3997      74722872 
 3997      65706F72 
 3997      7465722E 
 3997      6C617374 
 3998 061e 0000     		.align 8
 3999              	.LC47:
 4000 0620 556E6861 		.string	"Unhandled exception in CHECK(strstr(reporter.lastFailedMessage, \"xpected 0.9\"))"
 4000      6E646C65 
 4000      64206578 
 4000      63657074 
 4000      696F6E20 
 4001              		.align 8
 4002              	.LC48:
 4003 0670 556E6861 		.string	"Unhandled exception in CHECK(strstr(reporter.lastFailedMessage, \"was 1.1\"))"
 4003      6E646C65 
 4003      64206578 
 4003      63657074 
 4003      696F6E20 
 4004              		.text
 4005              		.align 2
 4007              	_ZNK12_GLOBAL__N_151TestCheckCloseFailureIncludesCheckExpectedAndActual7RunImplEv:
 4008              	.LFB1210:
 147:TestChecks.cpp **** {
 4009              		.loc 5 147 1
 4010              		.cfi_startproc
 4011              		.cfi_personality 0x9b,DW.ref.__gxx_personality_v0
 4012              		.cfi_lsda 0x1b,.LLSDA1210
 4013 1b96 F30F1EFA 		endbr64
 4014 1b9a 55       		pushq	%rbp
 4015              		.cfi_def_cfa_offset 16
 4016              		.cfi_offset 6, -16
 4017 1b9b 4889E5   		movq	%rsp, %rbp
 4018              		.cfi_def_cfa_register 6
 4019 1b9e 53       		pushq	%rbx
 4020 1b9f 4881ECA8 		subq	$2216, %rsp
 4020      080000
 4021              		.cfi_offset 3, -24
 4022 1ba6 4889BD58 		movq	%rdi, -2216(%rbp)
 4022      F7FFFF
 4023              		.loc 5 147 1
 4024 1bad 64488B04 		movq	%fs:40, %rax
 4024      25280000 
 4024      00
 4025 1bb6 488945E8 		movq	%rax, -24(%rbp)
 4026 1bba 31C0     		xorl	%eax, %eax
 148:TestChecks.cpp ****     RecordingReporter reporter;
 4027              		.loc 5 148 23
 4028 1bbc 488D85B0 		leaq	-2128(%rbp), %rax
 4028      F7FFFF
 4029 1bc3 4889C7   		movq	%rax, %rdi
 4030 1bc6 E8000000 		call	_ZN17RecordingReporterC1Ev
 4030      00
 149:TestChecks.cpp ****     TestResults results(&reporter);
 4031              		.loc 5 149 34
 4032 1bcb 488D95B0 		leaq	-2128(%rbp), %rdx
 4032      F7FFFF
 4033 1bd2 488D8570 		leaq	-2192(%rbp), %rax
 4033      F7FFFF
 4034 1bd9 4889D6   		movq	%rdx, %rsi
 4035 1bdc 4889C7   		movq	%rax, %rdi
 4036              	.LEHB88:
 4037 1bdf E8000000 		call	_ZN8UnitTest11TestResultsC1EPNS_12TestReporterE@PLT
 4037      00
 150:TestChecks.cpp ****     const float expected = 0.9f;
 4038              		.loc 5 150 17
 4039 1be4 F30F1005 		movss	.LC40(%rip), %xmm0
 4039      00000000 
 4040 1bec F30F1185 		movss	%xmm0, -2204(%rbp)
 4040      64F7FFFF 
 151:TestChecks.cpp ****     const float actual = 1.1f;
 4041              		.loc 5 151 17
 4042 1bf4 F30F1005 		movss	.LC41(%rip), %xmm0
 4042      00000000 
 4043 1bfc F30F1185 		movss	%xmm0, -2200(%rbp)
 4043      68F7FFFF 
 152:TestChecks.cpp ****     CheckClose(results, expected, actual, 0.01f, TestDetails("", "", "", 0));
 4044              		.loc 5 152 50
 4045 1c04 488D8590 		leaq	-2160(%rbp), %rax
 4045      F7FFFF
 4046 1c0b 41B80000 		movl	$0, %r8d
 4046      0000
 4047 1c11 488D1500 		leaq	.LC6(%rip), %rdx
 4047      000000
 4048 1c18 4889D1   		movq	%rdx, %rcx
 4049 1c1b 488D1500 		leaq	.LC6(%rip), %rdx
 4049      000000
 4050 1c22 488D3500 		leaq	.LC6(%rip), %rsi
 4050      000000
 4051 1c29 4889C7   		movq	%rax, %rdi
 4052 1c2c E8000000 		call	_ZN8UnitTest11TestDetailsC1EPKcS2_S2_i@PLT
 4052      00
 4053              		.loc 5 152 43 discriminator 1
 4054 1c31 F30F1005 		movss	.LC42(%rip), %xmm0
 4054      00000000 
 4055 1c39 F30F1185 		movss	%xmm0, -2196(%rbp)
 4055      6CF7FFFF 
 4056              		.loc 5 152 15 discriminator 1
 4057 1c41 488DBD90 		leaq	-2160(%rbp), %rdi
 4057      F7FFFF
 4058 1c48 488D8D6C 		leaq	-2196(%rbp), %rcx
 4058      F7FFFF
 4059 1c4f 488D9568 		leaq	-2200(%rbp), %rdx
 4059      F7FFFF
 4060 1c56 488DB564 		leaq	-2204(%rbp), %rsi
 4060      F7FFFF
 4061 1c5d 488D8570 		leaq	-2192(%rbp), %rax
 4061      F7FFFF
 4062 1c64 4989F8   		movq	%rdi, %r8
 4063 1c67 4889C7   		movq	%rax, %rdi
 4064 1c6a E8000000 		call	_ZN8UnitTest10CheckCloseIfffEEvRNS_11TestResultsERKT_RKT0_RKT1_RKNS_11TestDetailsE
 4064      00
 4065              	.LEHE88:
 153:TestChecks.cpp **** 
 154:TestChecks.cpp **** 	using namespace std;
 155:TestChecks.cpp ****     CHECK(strstr(reporter.lastFailedMessage, "xpected 0.9"));
 4066              		.loc 5 155 5 discriminator 3
 4067 1c6f 488D85B0 		leaq	-2128(%rbp), %rax
 4067      F7FFFF
 4068 1c76 48051405 		addq	$1300, %rax
 4068      0000
 4069 1c7c 488D1500 		leaq	.LC43(%rip), %rdx
 4069      000000
 4070 1c83 4889D6   		movq	%rdx, %rsi
 4071 1c86 4889C7   		movq	%rax, %rdi
 4072 1c89 E8000000 		call	strstr@PLT
 4072      00
 4073 1c8e 4889C7   		movq	%rax, %rdi
 4074 1c91 E8000000 		call	_ZN8UnitTest5CheckIPcEEbT_
 4074      00
 4075 1c96 83F001   		xorl	$1, %eax
 4076 1c99 84C0     		testb	%al, %al
 4077 1c9b 7440     		je	.L155
 4078              	.LEHB89:
 4079              		.loc 5 155 5 is_stmt 0 discriminator 1
 4080 1c9d E8000000 		call	_ZN8UnitTest11CurrentTest7ResultsEv@PLT
 4080      00
 4081 1ca2 488B18   		movq	(%rax), %rbx
 4082 1ca5 E8000000 		call	_ZN8UnitTest11CurrentTest7DetailsEv@PLT
 4082      00
 4083              		.loc 5 155 5 discriminator 3
 4084 1caa 488B08   		movq	(%rax), %rcx
 4085 1cad 488D8590 		leaq	-2160(%rbp), %rax
 4085      F7FFFF
 4086 1cb4 BA9B0000 		movl	$155, %edx
 4086      00
 4087 1cb9 4889CE   		movq	%rcx, %rsi
 4088 1cbc 4889C7   		movq	%rax, %rdi
 4089 1cbf E8000000 		call	_ZN8UnitTest11TestDetailsC1ERKS0_i@PLT
 4089      00
 4090              		.loc 5 155 5 discriminator 7
 4091 1cc4 488D8590 		leaq	-2160(%rbp), %rax
 4091      F7FFFF
 4092 1ccb 488D1500 		leaq	.LC44(%rip), %rdx
 4092      000000
 4093 1cd2 4889C6   		movq	%rax, %rsi
 4094 1cd5 4889DF   		movq	%rbx, %rdi
 4095 1cd8 E8000000 		call	_ZN8UnitTest11TestResults13OnTestFailureERKNS_11TestDetailsEPKc@PLT
 4095      00
 4096              	.LEHE89:
 4097              	.L155:
 156:TestChecks.cpp ****     CHECK(strstr(reporter.lastFailedMessage, "was 1.1"));
 4098              		.loc 5 156 5 is_stmt 1
 4099 1cdd 488D85B0 		leaq	-2128(%rbp), %rax
 4099      F7FFFF
 4100 1ce4 48051405 		addq	$1300, %rax
 4100      0000
 4101 1cea 488D1500 		leaq	.LC45(%rip), %rdx
 4101      000000
 4102 1cf1 4889D6   		movq	%rdx, %rsi
 4103 1cf4 4889C7   		movq	%rax, %rdi
 4104 1cf7 E8000000 		call	strstr@PLT
 4104      00
 4105 1cfc 4889C7   		movq	%rax, %rdi
 4106 1cff E8000000 		call	_ZN8UnitTest5CheckIPcEEbT_
 4106      00
 4107 1d04 83F001   		xorl	$1, %eax
 4108 1d07 84C0     		testb	%al, %al
 4109 1d09 7440     		je	.L156
 4110              	.LEHB90:
 4111              		.loc 5 156 5 is_stmt 0 discriminator 1
 4112 1d0b E8000000 		call	_ZN8UnitTest11CurrentTest7ResultsEv@PLT
 4112      00
 4113 1d10 488B18   		movq	(%rax), %rbx
 4114 1d13 E8000000 		call	_ZN8UnitTest11CurrentTest7DetailsEv@PLT
 4114      00
 4115              		.loc 5 156 5 discriminator 3
 4116 1d18 488B08   		movq	(%rax), %rcx
 4117 1d1b 488D8590 		leaq	-2160(%rbp), %rax
 4117      F7FFFF
 4118 1d22 BA9C0000 		movl	$156, %edx
 4118      00
 4119 1d27 4889CE   		movq	%rcx, %rsi
 4120 1d2a 4889C7   		movq	%rax, %rdi
 4121 1d2d E8000000 		call	_ZN8UnitTest11TestDetailsC1ERKS0_i@PLT
 4121      00
 4122              		.loc 5 156 5 discriminator 7
 4123 1d32 488D8590 		leaq	-2160(%rbp), %rax
 4123      F7FFFF
 4124 1d39 488D1500 		leaq	.LC46(%rip), %rdx
 4124      000000
 4125 1d40 4889C6   		movq	%rax, %rsi
 4126 1d43 4889DF   		movq	%rbx, %rdi
 4127 1d46 E8000000 		call	_ZN8UnitTest11TestResults13OnTestFailureERKNS_11TestDetailsEPKc@PLT
 4127      00
 4128              	.LEHE90:
 4129              	.L156:
 157:TestChecks.cpp **** }
 4130              		.loc 5 157 1 is_stmt 1
 4131 1d4b 488D85B0 		leaq	-2128(%rbp), %rax
 4131      F7FFFF
 4132 1d52 4889C7   		movq	%rax, %rdi
 4133              	.LEHB91:
 4134 1d55 E8000000 		call	_ZN17RecordingReporterD1Ev
 4134      00
 4135              	.LEHE91:
 4136 1d5a 488B45E8 		movq	-24(%rbp), %rax
 4137 1d5e 64482B04 		subq	%fs:40, %rax
 4137      25280000 
 4137      00
 4138 1d67 0F84F300 		je	.L162
 4138      0000
 4139 1d6d E9E90000 		jmp	.L168
 4139      00
 4140              	.L164:
 4141 1d72 F30F1EFA 		endbr64
 155:TestChecks.cpp ****     CHECK(strstr(reporter.lastFailedMessage, "was 1.1"));
 4142              		.loc 5 155 5
 4143 1d76 4889C7   		movq	%rax, %rdi
 4144 1d79 E8000000 		call	__cxa_begin_catch@PLT
 4144      00
 4145              	.LEHB92:
 4146 1d7e E8000000 		call	_ZN8UnitTest11CurrentTest7ResultsEv@PLT
 4146      00
 155:TestChecks.cpp ****     CHECK(strstr(reporter.lastFailedMessage, "was 1.1"));
 4147              		.loc 5 155 5 is_stmt 0 discriminator 6
 4148 1d83 488B18   		movq	(%rax), %rbx
 4149 1d86 E8000000 		call	_ZN8UnitTest11CurrentTest7DetailsEv@PLT
 4149      00
 155:TestChecks.cpp ****     CHECK(strstr(reporter.lastFailedMessage, "was 1.1"));
 4150              		.loc 5 155 5 discriminator 12
 4151 1d8b 488B08   		movq	(%rax), %rcx
 4152 1d8e 488D8590 		leaq	-2160(%rbp), %rax
 4152      F7FFFF
 4153 1d95 BA9B0000 		movl	$155, %edx
 4153      00
 4154 1d9a 4889CE   		movq	%rcx, %rsi
 4155 1d9d 4889C7   		movq	%rax, %rdi
 4156 1da0 E8000000 		call	_ZN8UnitTest11TestDetailsC1ERKS0_i@PLT
 4156      00
 155:TestChecks.cpp ****     CHECK(strstr(reporter.lastFailedMessage, "was 1.1"));
 4157              		.loc 5 155 5 discriminator 16
 4158 1da5 488D8590 		leaq	-2160(%rbp), %rax
 4158      F7FFFF
 4159 1dac 488D1500 		leaq	.LC47(%rip), %rdx
 4159      000000
 4160 1db3 4889C6   		movq	%rax, %rsi
 4161 1db6 4889DF   		movq	%rbx, %rdi
 4162 1db9 E8000000 		call	_ZN8UnitTest11TestResults13OnTestFailureERKNS_11TestDetailsEPKc@PLT
 4162      00
 4163              	.LEHE92:
 4164              	.LEHB93:
 155:TestChecks.cpp ****     CHECK(strstr(reporter.lastFailedMessage, "was 1.1"));
 4165              		.loc 5 155 5 discriminator 18
 4166 1dbe E8000000 		call	__cxa_end_catch@PLT
 4166      00
 4167              	.LEHE93:
 155:TestChecks.cpp ****     CHECK(strstr(reporter.lastFailedMessage, "was 1.1"));
 4168              		.loc 5 155 5
 4169 1dc3 E915FFFF 		jmp	.L155
 4169      FF
 4170              	.L165:
 4171 1dc8 F30F1EFA 		endbr64
 4172 1dcc 4889C3   		movq	%rax, %rbx
 4173 1dcf E8000000 		call	__cxa_end_catch@PLT
 4173      00
 4174 1dd4 EB6B     		jmp	.L159
 4175              	.L166:
 4176 1dd6 F30F1EFA 		endbr64
 156:TestChecks.cpp ****     CHECK(strstr(reporter.lastFailedMessage, "was 1.1"));
 4177              		.loc 5 156 5 is_stmt 1
 4178 1dda 4889C7   		movq	%rax, %rdi
 4179 1ddd E8000000 		call	__cxa_begin_catch@PLT
 4179      00
 4180              	.LEHB94:
 4181 1de2 E8000000 		call	_ZN8UnitTest11CurrentTest7ResultsEv@PLT
 4181      00
 156:TestChecks.cpp ****     CHECK(strstr(reporter.lastFailedMessage, "was 1.1"));
 4182              		.loc 5 156 5 is_stmt 0 discriminator 6
 4183 1de7 488B18   		movq	(%rax), %rbx
 4184 1dea E8000000 		call	_ZN8UnitTest11CurrentTest7DetailsEv@PLT
 4184      00
 156:TestChecks.cpp ****     CHECK(strstr(reporter.lastFailedMessage, "was 1.1"));
 4185              		.loc 5 156 5 discriminator 12
 4186 1def 488B08   		movq	(%rax), %rcx
 4187 1df2 488D8590 		leaq	-2160(%rbp), %rax
 4187      F7FFFF
 4188 1df9 BA9C0000 		movl	$156, %edx
 4188      00
 4189 1dfe 4889CE   		movq	%rcx, %rsi
 4190 1e01 4889C7   		movq	%rax, %rdi
 4191 1e04 E8000000 		call	_ZN8UnitTest11TestDetailsC1ERKS0_i@PLT
 4191      00
 156:TestChecks.cpp ****     CHECK(strstr(reporter.lastFailedMessage, "was 1.1"));
 4192              		.loc 5 156 5 discriminator 16
 4193 1e09 488D8590 		leaq	-2160(%rbp), %rax
 4193      F7FFFF
 4194 1e10 488D1500 		leaq	.LC48(%rip), %rdx
 4194      000000
 4195 1e17 4889C6   		movq	%rax, %rsi
 4196 1e1a 4889DF   		movq	%rbx, %rdi
 4197 1e1d E8000000 		call	_ZN8UnitTest11TestResults13OnTestFailureERKNS_11TestDetailsEPKc@PLT
 4197      00
 4198              	.LEHE94:
 4199              	.LEHB95:
 156:TestChecks.cpp ****     CHECK(strstr(reporter.lastFailedMessage, "was 1.1"));
 4200              		.loc 5 156 5 discriminator 18
 4201 1e22 E8000000 		call	__cxa_end_catch@PLT
 4201      00
 4202              	.LEHE95:
 156:TestChecks.cpp ****     CHECK(strstr(reporter.lastFailedMessage, "was 1.1"));
 4203              		.loc 5 156 5
 4204 1e27 E91FFFFF 		jmp	.L156
 4204      FF
 4205              	.L167:
 4206 1e2c F30F1EFA 		endbr64
 4207 1e30 4889C3   		movq	%rax, %rbx
 4208 1e33 E8000000 		call	__cxa_end_catch@PLT
 4208      00
 4209 1e38 EB07     		jmp	.L159
 4210              	.L163:
 4211 1e3a F30F1EFA 		endbr64
 4212              		.loc 5 157 1 is_stmt 1
 4213 1e3e 4889C3   		movq	%rax, %rbx
 4214              	.L159:
 4215 1e41 488D85B0 		leaq	-2128(%rbp), %rax
 4215      F7FFFF
 4216 1e48 4889C7   		movq	%rax, %rdi
 4217 1e4b E8000000 		call	_ZN17RecordingReporterD1Ev
 4217      00
 4218 1e50 4889D8   		movq	%rbx, %rax
 4219 1e53 4889C7   		movq	%rax, %rdi
 4220              	.LEHB96:
 4221 1e56 E8000000 		call	_Unwind_Resume@PLT
 4221      00
 4222              	.LEHE96:
 4223              	.L168:
 4224 1e5b E8000000 		call	__stack_chk_fail@PLT
 4224      00
 4225              	.L162:
 4226 1e60 488B5DF8 		movq	-8(%rbp), %rbx
 4227 1e64 C9       		leave
 4228              		.cfi_def_cfa 7, 8
 4229 1e65 C3       		ret
 4230              		.cfi_endproc
 4231              	.LFE1210:
 4232              		.section	.gcc_except_table
 4233              		.align 4
 4234              	.LLSDA1210:
 4235 0280 FF       		.byte	0xff
 4236 0281 9B       		.byte	0x9b
 4237 0282 3D       		.uleb128 .LLSDATT1210-.LLSDATTD1210
 4238              	.LLSDATTD1210:
 4239 0283 01       		.byte	0x1
 4240 0284 34       		.uleb128 .LLSDACSE1210-.LLSDACSB1210
 4241              	.LLSDACSB1210:
 4242 0285 49       		.uleb128 .LEHB88-.LFB1210
 4243 0286 9001     		.uleb128 .LEHE88-.LEHB88
 4244 0288 A405     		.uleb128 .L163-.LFB1210
 4245 028a 00       		.uleb128 0
 4246 028b 8702     		.uleb128 .LEHB89-.LFB1210
 4247 028d 40       		.uleb128 .LEHE89-.LEHB89
 4248 028e DC03     		.uleb128 .L164-.LFB1210
 4249 0290 01       		.uleb128 0x1
 4250 0291 F502     		.uleb128 .LEHB90-.LFB1210
 4251 0293 40       		.uleb128 .LEHE90-.LEHB90
 4252 0294 C004     		.uleb128 .L166-.LFB1210
 4253 0296 01       		.uleb128 0x1
 4254 0297 BF03     		.uleb128 .LEHB91-.LFB1210
 4255 0299 05       		.uleb128 .LEHE91-.LEHB91
 4256 029a 00       		.uleb128 0
 4257 029b 00       		.uleb128 0
 4258 029c E803     		.uleb128 .LEHB92-.LFB1210
 4259 029e 40       		.uleb128 .LEHE92-.LEHB92
 4260 029f B204     		.uleb128 .L165-.LFB1210
 4261 02a1 00       		.uleb128 0
 4262 02a2 A804     		.uleb128 .LEHB93-.LFB1210
 4263 02a4 05       		.uleb128 .LEHE93-.LEHB93
 4264 02a5 A405     		.uleb128 .L163-.LFB1210
 4265 02a7 00       		.uleb128 0
 4266 02a8 CC04     		.uleb128 .LEHB94-.LFB1210
 4267 02aa 40       		.uleb128 .LEHE94-.LEHB94
 4268 02ab 9605     		.uleb128 .L167-.LFB1210
 4269 02ad 00       		.uleb128 0
 4270 02ae 8C05     		.uleb128 .LEHB95-.LFB1210
 4271 02b0 05       		.uleb128 .LEHE95-.LEHB95
 4272 02b1 A405     		.uleb128 .L163-.LFB1210
 4273 02b3 00       		.uleb128 0
 4274 02b4 C005     		.uleb128 .LEHB96-.LFB1210
 4275 02b6 05       		.uleb128 .LEHE96-.LEHB96
 4276 02b7 00       		.uleb128 0
 4277 02b8 00       		.uleb128 0
 4278              	.LLSDACSE1210:
 4279 02b9 01       		.byte	0x1
 4280 02ba 00       		.byte	0
 4281 02bb 00       		.align 4
 4282 02bc 00000000 		.long	0
 4283              	
 4284              	.LLSDATT1210:
 4285              		.text
 4287              		.section	.rodata
 4288 06bc 00000000 		.align 8
 4289              	.LC49:
 4290 06c0 43686563 		.string	"CheckCloseFailureIncludesTolerance"
 4290      6B436C6F 
 4290      73654661 
 4290      696C7572 
 4290      65496E63 
 4291              		.text
 4292              		.align 2
 4294              	_ZN12_GLOBAL__N_138TestCheckCloseFailureIncludesToleranceC2Ev:
 4295              	.LFB1212:
 158:TestChecks.cpp **** 
 159:TestChecks.cpp **** TEST(CheckCloseFailureIncludesTolerance)
 4296              		.loc 5 159 1
 4297              		.cfi_startproc
 4298 1e66 55       		pushq	%rbp
 4299              		.cfi_def_cfa_offset 16
 4300              		.cfi_offset 6, -16
 4301 1e67 4889E5   		movq	%rsp, %rbp
 4302              		.cfi_def_cfa_register 6
 4303 1e6a 53       		pushq	%rbx
 4304 1e6b 4883EC18 		subq	$24, %rsp
 4305              		.cfi_offset 3, -24
 4306 1e6f 48897DE8 		movq	%rdi, -24(%rbp)
 4307              	.LBB21:
 4308              		.loc 5 159 1
 4309 1e73 488B5DE8 		movq	-24(%rbp), %rbx
 4310 1e77 E8000000 		call	_ZN13UnitTestSuite12GetSuiteNameEv
 4310      00
 4311 1e7c 4889C2   		movq	%rax, %rdx
 4312 1e7f 41B89F00 		movl	$159, %r8d
 4312      0000
 4313 1e85 488D0500 		leaq	.LC2(%rip), %rax
 4313      000000
 4314 1e8c 4889C1   		movq	%rax, %rcx
 4315 1e8f 488D0500 		leaq	.LC49(%rip), %rax
 4315      000000
 4316 1e96 4889C6   		movq	%rax, %rsi
 4317 1e99 4889DF   		movq	%rbx, %rdi
 4318 1e9c E8000000 		call	_ZN8UnitTest4TestC2EPKcS2_S2_i@PLT
 4318      00
 4319 1ea1 488D1500 		leaq	16+_ZTVN12_GLOBAL__N_138TestCheckCloseFailureIncludesToleranceE(%rip), %rdx
 4319      000000
 4320 1ea8 488B45E8 		movq	-24(%rbp), %rax
 4321 1eac 488910   		movq	%rdx, (%rax)
 4322              	.LBE21:
 4323 1eaf 90       		nop
 4324 1eb0 488B5DF8 		movq	-8(%rbp), %rbx
 4325 1eb4 C9       		leave
 4326              		.cfi_def_cfa 7, 8
 4327 1eb5 C3       		ret
 4328              		.cfi_endproc
 4329              	.LFE1212:
 4331              		.set	_ZN12_GLOBAL__N_138TestCheckCloseFailureIncludesToleranceC1Ev,_ZN12_GLOBAL__N_138TestCheckClo
 4332              		.local	_ZN12_GLOBAL__N_146testCheckCloseFailureIncludesToleranceInstanceE
 4333              		.comm	_ZN12_GLOBAL__N_146testCheckCloseFailureIncludesToleranceInstanceE,56,32
 4334              		.local	_ZN12_GLOBAL__N_139adderCheckCloseFailureIncludesToleranceE
 4335              		.comm	_ZN12_GLOBAL__N_139adderCheckCloseFailureIncludesToleranceE,1,1
 4336              		.section	.rodata
 4337              	.LC50:
 4338 06e3 302E3031 		.string	"0.01"
 4338      00
 4339              		.align 8
 4340              	.LC51:
 4341 06e8 73747273 		.string	"strstr(reporter.lastFailedMessage, \"0.01\")"
 4341      74722872 
 4341      65706F72 
 4341      7465722E 
 4341      6C617374 
 4342 0713 00000000 		.align 8
 4342      00
 4343              	.LC52:
 4344 0718 556E6861 		.string	"Unhandled exception in CHECK(strstr(reporter.lastFailedMessage, \"0.01\"))"
 4344      6E646C65 
 4344      64206578 
 4344      63657074 
 4344      696F6E20 
 4345              		.text
 4346              		.align 2
 4348              	_ZNK12_GLOBAL__N_138TestCheckCloseFailureIncludesTolerance7RunImplEv:
 4349              	.LFB1214:
 160:TestChecks.cpp **** {
 4350              		.loc 5 160 1
 4351              		.cfi_startproc
 4352              		.cfi_personality 0x9b,DW.ref.__gxx_personality_v0
 4353              		.cfi_lsda 0x1b,.LLSDA1214
 4354 1eb6 F30F1EFA 		endbr64
 4355 1eba 55       		pushq	%rbp
 4356              		.cfi_def_cfa_offset 16
 4357              		.cfi_offset 6, -16
 4358 1ebb 4889E5   		movq	%rsp, %rbp
 4359              		.cfi_def_cfa_register 6
 4360 1ebe 53       		pushq	%rbx
 4361 1ebf 4881ECA8 		subq	$2216, %rsp
 4361      080000
 4362              		.cfi_offset 3, -24
 4363 1ec6 4889BD58 		movq	%rdi, -2216(%rbp)
 4363      F7FFFF
 4364              		.loc 5 160 1
 4365 1ecd 64488B04 		movq	%fs:40, %rax
 4365      25280000 
 4365      00
 4366 1ed6 488945E8 		movq	%rax, -24(%rbp)
 4367 1eda 31C0     		xorl	%eax, %eax
 161:TestChecks.cpp ****     RecordingReporter reporter;
 4368              		.loc 5 161 23
 4369 1edc 488D85B0 		leaq	-2128(%rbp), %rax
 4369      F7FFFF
 4370 1ee3 4889C7   		movq	%rax, %rdi
 4371 1ee6 E8000000 		call	_ZN17RecordingReporterC1Ev
 4371      00
 162:TestChecks.cpp ****     TestResults results(&reporter);
 4372              		.loc 5 162 34
 4373 1eeb 488D95B0 		leaq	-2128(%rbp), %rdx
 4373      F7FFFF
 4374 1ef2 488D8570 		leaq	-2192(%rbp), %rax
 4374      F7FFFF
 4375 1ef9 4889D6   		movq	%rdx, %rsi
 4376 1efc 4889C7   		movq	%rax, %rdi
 4377              	.LEHB97:
 4378 1eff E8000000 		call	_ZN8UnitTest11TestResultsC1EPNS_12TestReporterE@PLT
 4378      00
 163:TestChecks.cpp ****     CheckClose(results, 2, 3, 0.01f, TestDetails("", "", "", 0));
 4379              		.loc 5 163 38
 4380 1f04 488D8590 		leaq	-2160(%rbp), %rax
 4380      F7FFFF
 4381 1f0b 41B80000 		movl	$0, %r8d
 4381      0000
 4382 1f11 488D1500 		leaq	.LC6(%rip), %rdx
 4382      000000
 4383 1f18 4889D1   		movq	%rdx, %rcx
 4384 1f1b 488D1500 		leaq	.LC6(%rip), %rdx
 4384      000000
 4385 1f22 488D3500 		leaq	.LC6(%rip), %rsi
 4385      000000
 4386 1f29 4889C7   		movq	%rax, %rdi
 4387 1f2c E8000000 		call	_ZN8UnitTest11TestDetailsC1EPKcS2_S2_i@PLT
 4387      00
 4388              		.loc 5 163 31 discriminator 1
 4389 1f31 F30F1005 		movss	.LC42(%rip), %xmm0
 4389      00000000 
 4390 1f39 F30F1185 		movss	%xmm0, -2196(%rbp)
 4390      6CF7FFFF 
 4391              		.loc 5 163 28 discriminator 1
 4392 1f41 C78568F7 		movl	$3, -2200(%rbp)
 4392      FFFF0300 
 4392      0000
 4393              		.loc 5 163 25 discriminator 1
 4394 1f4b C78564F7 		movl	$2, -2204(%rbp)
 4394      FFFF0200 
 4394      0000
 4395              		.loc 5 163 15 discriminator 1
 4396 1f55 488DBD90 		leaq	-2160(%rbp), %rdi
 4396      F7FFFF
 4397 1f5c 488D8D6C 		leaq	-2196(%rbp), %rcx
 4397      F7FFFF
 4398 1f63 488D9568 		leaq	-2200(%rbp), %rdx
 4398      F7FFFF
 4399 1f6a 488DB564 		leaq	-2204(%rbp), %rsi
 4399      F7FFFF
 4400 1f71 488D8570 		leaq	-2192(%rbp), %rax
 4400      F7FFFF
 4401 1f78 4989F8   		movq	%rdi, %r8
 4402 1f7b 4889C7   		movq	%rax, %rdi
 4403 1f7e E8000000 		call	_ZN8UnitTest10CheckCloseIiifEEvRNS_11TestResultsERKT_RKT0_RKT1_RKNS_11TestDetailsE
 4403      00
 4404              	.LEHE97:
 164:TestChecks.cpp **** 
 165:TestChecks.cpp **** 	using namespace std;
 166:TestChecks.cpp ****     CHECK(strstr(reporter.lastFailedMessage, "0.01"));
 4405              		.loc 5 166 5 discriminator 3
 4406 1f83 488D85B0 		leaq	-2128(%rbp), %rax
 4406      F7FFFF
 4407 1f8a 48051405 		addq	$1300, %rax
 4407      0000
 4408 1f90 488D1500 		leaq	.LC50(%rip), %rdx
 4408      000000
 4409 1f97 4889D6   		movq	%rdx, %rsi
 4410 1f9a 4889C7   		movq	%rax, %rdi
 4411 1f9d E8000000 		call	strstr@PLT
 4411      00
 4412 1fa2 4889C7   		movq	%rax, %rdi
 4413 1fa5 E8000000 		call	_ZN8UnitTest5CheckIPcEEbT_
 4413      00
 4414 1faa 83F001   		xorl	$1, %eax
 4415 1fad 84C0     		testb	%al, %al
 4416 1faf 7440     		je	.L171
 4417              	.LEHB98:
 4418              		.loc 5 166 5 is_stmt 0 discriminator 1
 4419 1fb1 E8000000 		call	_ZN8UnitTest11CurrentTest7ResultsEv@PLT
 4419      00
 4420 1fb6 488B18   		movq	(%rax), %rbx
 4421 1fb9 E8000000 		call	_ZN8UnitTest11CurrentTest7DetailsEv@PLT
 4421      00
 4422              		.loc 5 166 5 discriminator 3
 4423 1fbe 488B08   		movq	(%rax), %rcx
 4424 1fc1 488D8590 		leaq	-2160(%rbp), %rax
 4424      F7FFFF
 4425 1fc8 BAA60000 		movl	$166, %edx
 4425      00
 4426 1fcd 4889CE   		movq	%rcx, %rsi
 4427 1fd0 4889C7   		movq	%rax, %rdi
 4428 1fd3 E8000000 		call	_ZN8UnitTest11TestDetailsC1ERKS0_i@PLT
 4428      00
 4429              		.loc 5 166 5 discriminator 7
 4430 1fd8 488D8590 		leaq	-2160(%rbp), %rax
 4430      F7FFFF
 4431 1fdf 488D1500 		leaq	.LC51(%rip), %rdx
 4431      000000
 4432 1fe6 4889C6   		movq	%rax, %rsi
 4433 1fe9 4889DF   		movq	%rbx, %rdi
 4434 1fec E8000000 		call	_ZN8UnitTest11TestResults13OnTestFailureERKNS_11TestDetailsEPKc@PLT
 4434      00
 4435              	.LEHE98:
 4436              	.L171:
 167:TestChecks.cpp **** }
 4437              		.loc 5 167 1 is_stmt 1
 4438 1ff1 488D85B0 		leaq	-2128(%rbp), %rax
 4438      F7FFFF
 4439 1ff8 4889C7   		movq	%rax, %rdi
 4440              	.LEHB99:
 4441 1ffb E8000000 		call	_ZN17RecordingReporterD1Ev
 4441      00
 4442              	.LEHE99:
 4443 2000 488B45E8 		movq	-24(%rbp), %rax
 4444 2004 64482B04 		subq	%fs:40, %rax
 4444      25280000 
 4444      00
 4445 200d 0F848C00 		je	.L175
 4445      0000
 4446 2013 E9820000 		jmp	.L179
 4446      00
 4447              	.L177:
 4448 2018 F30F1EFA 		endbr64
 166:TestChecks.cpp **** }
 4449              		.loc 5 166 5
 4450 201c 4889C7   		movq	%rax, %rdi
 4451 201f E8000000 		call	__cxa_begin_catch@PLT
 4451      00
 4452              	.LEHB100:
 4453 2024 E8000000 		call	_ZN8UnitTest11CurrentTest7ResultsEv@PLT
 4453      00
 166:TestChecks.cpp **** }
 4454              		.loc 5 166 5 is_stmt 0 discriminator 6
 4455 2029 488B18   		movq	(%rax), %rbx
 4456 202c E8000000 		call	_ZN8UnitTest11CurrentTest7DetailsEv@PLT
 4456      00
 166:TestChecks.cpp **** }
 4457              		.loc 5 166 5 discriminator 12
 4458 2031 488B08   		movq	(%rax), %rcx
 4459 2034 488D8590 		leaq	-2160(%rbp), %rax
 4459      F7FFFF
 4460 203b BAA60000 		movl	$166, %edx
 4460      00
 4461 2040 4889CE   		movq	%rcx, %rsi
 4462 2043 4889C7   		movq	%rax, %rdi
 4463 2046 E8000000 		call	_ZN8UnitTest11TestDetailsC1ERKS0_i@PLT
 4463      00
 166:TestChecks.cpp **** }
 4464              		.loc 5 166 5 discriminator 16
 4465 204b 488D8590 		leaq	-2160(%rbp), %rax
 4465      F7FFFF
 4466 2052 488D1500 		leaq	.LC52(%rip), %rdx
 4466      000000
 4467 2059 4889C6   		movq	%rax, %rsi
 4468 205c 4889DF   		movq	%rbx, %rdi
 4469 205f E8000000 		call	_ZN8UnitTest11TestResults13OnTestFailureERKNS_11TestDetailsEPKc@PLT
 4469      00
 4470              	.LEHE100:
 4471              	.LEHB101:
 166:TestChecks.cpp **** }
 4472              		.loc 5 166 5 discriminator 18
 4473 2064 E8000000 		call	__cxa_end_catch@PLT
 4473      00
 4474              	.LEHE101:
 166:TestChecks.cpp **** }
 4475              		.loc 5 166 5
 4476 2069 EB86     		jmp	.L171
 4477              	.L178:
 4478 206b F30F1EFA 		endbr64
 4479 206f 4889C3   		movq	%rax, %rbx
 4480 2072 E8000000 		call	__cxa_end_catch@PLT
 4480      00
 4481 2077 EB07     		jmp	.L174
 4482              	.L176:
 4483 2079 F30F1EFA 		endbr64
 4484              		.loc 5 167 1 is_stmt 1
 4485 207d 4889C3   		movq	%rax, %rbx
 4486              	.L174:
 4487 2080 488D85B0 		leaq	-2128(%rbp), %rax
 4487      F7FFFF
 4488 2087 4889C7   		movq	%rax, %rdi
 4489 208a E8000000 		call	_ZN17RecordingReporterD1Ev
 4489      00
 4490 208f 4889D8   		movq	%rbx, %rax
 4491 2092 4889C7   		movq	%rax, %rdi
 4492              	.LEHB102:
 4493 2095 E8000000 		call	_Unwind_Resume@PLT
 4493      00
 4494              	.LEHE102:
 4495              	.L179:
 4496 209a E8000000 		call	__stack_chk_fail@PLT
 4496      00
 4497              	.L175:
 4498 209f 488B5DF8 		movq	-8(%rbp), %rbx
 4499 20a3 C9       		leave
 4500              		.cfi_def_cfa 7, 8
 4501 20a4 C3       		ret
 4502              		.cfi_endproc
 4503              	.LFE1214:
 4504              		.section	.gcc_except_table
 4505              		.align 4
 4506              	.LLSDA1214:
 4507 02c0 FF       		.byte	0xff
 4508 02c1 9B       		.byte	0x9b
 4509 02c2 2D       		.uleb128 .LLSDATT1214-.LLSDATTD1214
 4510              	.LLSDATTD1214:
 4511 02c3 01       		.byte	0x1
 4512 02c4 22       		.uleb128 .LLSDACSE1214-.LLSDACSB1214
 4513              	.LLSDACSB1214:
 4514 02c5 49       		.uleb128 .LEHB97-.LFB1214
 4515 02c6 8401     		.uleb128 .LEHE97-.LEHB97
 4516 02c8 C303     		.uleb128 .L176-.LFB1214
 4517 02ca 00       		.uleb128 0
 4518 02cb FB01     		.uleb128 .LEHB98-.LFB1214
 4519 02cd 40       		.uleb128 .LEHE98-.LEHB98
 4520 02ce E202     		.uleb128 .L177-.LFB1214
 4521 02d0 01       		.uleb128 0x1
 4522 02d1 C502     		.uleb128 .LEHB99-.LFB1214
 4523 02d3 05       		.uleb128 .LEHE99-.LEHB99
 4524 02d4 00       		.uleb128 0
 4525 02d5 00       		.uleb128 0
 4526 02d6 EE02     		.uleb128 .LEHB100-.LFB1214
 4527 02d8 40       		.uleb128 .LEHE100-.LEHB100
 4528 02d9 B503     		.uleb128 .L178-.LFB1214
 4529 02db 00       		.uleb128 0
 4530 02dc AE03     		.uleb128 .LEHB101-.LFB1214
 4531 02de 05       		.uleb128 .LEHE101-.LEHB101
 4532 02df C303     		.uleb128 .L176-.LFB1214
 4533 02e1 00       		.uleb128 0
 4534 02e2 DF03     		.uleb128 .LEHB102-.LFB1214
 4535 02e4 05       		.uleb128 .LEHE102-.LEHB102
 4536 02e5 00       		.uleb128 0
 4537 02e6 00       		.uleb128 0
 4538              	.LLSDACSE1214:
 4539 02e7 01       		.byte	0x1
 4540 02e8 00       		.byte	0
 4541 02e9 000000   		.align 4
 4542 02ec 00000000 		.long	0
 4543              	
 4544              	.LLSDATT1214:
 4545              		.text
 4547              		.section	.rodata
 4548 0761 00000000 		.align 8
 4548      000000
 4549              	.LC53:
 4550 0768 43686563 		.string	"CheckCloseFailureIncludesDetails"
 4550      6B436C6F 
 4550      73654661 
 4550      696C7572 
 4550      65496E63 
 4551              		.text
 4552 20a5 90       		.align 2
 4554              	_ZN12_GLOBAL__N_136TestCheckCloseFailureIncludesDetailsC2Ev:
 4555              	.LFB1216:
 168:TestChecks.cpp **** 
 169:TestChecks.cpp **** TEST(CheckCloseFailureIncludesDetails)
 4556              		.loc 5 169 1
 4557              		.cfi_startproc
 4558 20a6 55       		pushq	%rbp
 4559              		.cfi_def_cfa_offset 16
 4560              		.cfi_offset 6, -16
 4561 20a7 4889E5   		movq	%rsp, %rbp
 4562              		.cfi_def_cfa_register 6
 4563 20aa 53       		pushq	%rbx
 4564 20ab 4883EC18 		subq	$24, %rsp
 4565              		.cfi_offset 3, -24
 4566 20af 48897DE8 		movq	%rdi, -24(%rbp)
 4567              	.LBB22:
 4568              		.loc 5 169 1
 4569 20b3 488B5DE8 		movq	-24(%rbp), %rbx
 4570 20b7 E8000000 		call	_ZN13UnitTestSuite12GetSuiteNameEv
 4570      00
 4571 20bc 4889C2   		movq	%rax, %rdx
 4572 20bf 41B8A900 		movl	$169, %r8d
 4572      0000
 4573 20c5 488D0500 		leaq	.LC2(%rip), %rax
 4573      000000
 4574 20cc 4889C1   		movq	%rax, %rcx
 4575 20cf 488D0500 		leaq	.LC53(%rip), %rax
 4575      000000
 4576 20d6 4889C6   		movq	%rax, %rsi
 4577 20d9 4889DF   		movq	%rbx, %rdi
 4578 20dc E8000000 		call	_ZN8UnitTest4TestC2EPKcS2_S2_i@PLT
 4578      00
 4579 20e1 488D1500 		leaq	16+_ZTVN12_GLOBAL__N_136TestCheckCloseFailureIncludesDetailsE(%rip), %rdx
 4579      000000
 4580 20e8 488B45E8 		movq	-24(%rbp), %rax
 4581 20ec 488910   		movq	%rdx, (%rax)
 4582              	.LBE22:
 4583 20ef 90       		nop
 4584 20f0 488B5DF8 		movq	-8(%rbp), %rbx
 4585 20f4 C9       		leave
 4586              		.cfi_def_cfa 7, 8
 4587 20f5 C3       		ret
 4588              		.cfi_endproc
 4589              	.LFE1216:
 4591              		.set	_ZN12_GLOBAL__N_136TestCheckCloseFailureIncludesDetailsC1Ev,_ZN12_GLOBAL__N_136TestCheckClose
 4592              		.local	_ZN12_GLOBAL__N_144testCheckCloseFailureIncludesDetailsInstanceE
 4593              		.comm	_ZN12_GLOBAL__N_144testCheckCloseFailureIncludesDetailsInstanceE,56,32
 4594              		.local	_ZN12_GLOBAL__N_137adderCheckCloseFailureIncludesDetailsE
 4595              		.comm	_ZN12_GLOBAL__N_137adderCheckCloseFailureIncludesDetailsE,1,1
 4596              		.section	.rodata
 4597              	.LC54:
 4598 0789 68656164 		.string	"header.h"
 4598      65722E68 
 4598      00
 4599 0792 00000000 		.align 8
 4599      0000
 4600              	.LC55:
 4601 0798 556E6861 		.string	"Unhandled exception in CHECK_EQUAL(\"header.h\", reporter.lastFailedFile)"
 4601      6E646C65 
 4601      64206578 
 4601      63657074 
 4601      696F6E20 
 4602              		.align 8
 4603              	.LC56:
 4604 07e0 556E6861 		.string	"Unhandled exception in CHECK_EQUAL(10, reporter.lastFailedLine)"
 4604      6E646C65 
 4604      64206578 
 4604      63657074 
 4604      696F6E20 
 4605              		.text
 4606              		.align 2
 4608              	_ZNK12_GLOBAL__N_136TestCheckCloseFailureIncludesDetails7RunImplEv:
 4609              	.LFB1218:
 170:TestChecks.cpp **** {
 4610              		.loc 5 170 1
 4611              		.cfi_startproc
 4612              		.cfi_personality 0x9b,DW.ref.__gxx_personality_v0
 4613              		.cfi_lsda 0x1b,.LLSDA1218
 4614 20f6 F30F1EFA 		endbr64
 4615 20fa 55       		pushq	%rbp
 4616              		.cfi_def_cfa_offset 16
 4617              		.cfi_offset 6, -16
 4618 20fb 4889E5   		movq	%rsp, %rbp
 4619              		.cfi_def_cfa_register 6
 4620 20fe 53       		pushq	%rbx
 4621 20ff 4881ECC8 		subq	$2248, %rsp
 4621      080000
 4622              		.cfi_offset 3, -24
 4623 2106 4889BD38 		movq	%rdi, -2248(%rbp)
 4623      F7FFFF
 4624              		.loc 5 170 1
 4625 210d 64488B04 		movq	%fs:40, %rax
 4625      25280000 
 4625      00
 4626 2116 488945E8 		movq	%rax, -24(%rbp)
 4627 211a 31C0     		xorl	%eax, %eax
 171:TestChecks.cpp ****     RecordingReporter reporter;
 4628              		.loc 5 171 23
 4629 211c 488D85B0 		leaq	-2128(%rbp), %rax
 4629      F7FFFF
 4630 2123 4889C7   		movq	%rax, %rdi
 4631 2126 E8000000 		call	_ZN17RecordingReporterC1Ev
 4631      00
 172:TestChecks.cpp ****     TestResults results(&reporter);
 4632              		.loc 5 172 34
 4633 212b 488D95B0 		leaq	-2128(%rbp), %rdx
 4633      F7FFFF
 4634 2132 488D8550 		leaq	-2224(%rbp), %rax
 4634      F7FFFF
 4635 2139 4889D6   		movq	%rdx, %rsi
 4636 213c 4889C7   		movq	%rax, %rdi
 4637              	.LEHB103:
 4638 213f E8000000 		call	_ZN8UnitTest11TestResultsC1EPNS_12TestReporterE@PLT
 4638      00
 173:TestChecks.cpp ****     TestDetails const details("mytest", "mysuite", "header.h", 10);
 4639              		.loc 5 173 66
 4640 2144 488D8570 		leaq	-2192(%rbp), %rax
 4640      F7FFFF
 4641 214b 41B80A00 		movl	$10, %r8d
 4641      0000
 4642 2151 488D1500 		leaq	.LC54(%rip), %rdx
 4642      000000
 4643 2158 4889D1   		movq	%rdx, %rcx
 4644 215b 488D1500 		leaq	.LC24(%rip), %rdx
 4644      000000
 4645 2162 488D3500 		leaq	.LC25(%rip), %rsi
 4645      000000
 4646 2169 4889C7   		movq	%rax, %rdi
 4647 216c E8000000 		call	_ZN8UnitTest11TestDetailsC1EPKcS2_S2_i@PLT
 4647      00
 174:TestChecks.cpp **** 
 175:TestChecks.cpp ****     CheckClose(results, 2, 3, 0.01f, details);
 4648              		.loc 5 175 31
 4649 2171 F30F1005 		movss	.LC42(%rip), %xmm0
 4649      00000000 
 4650 2179 F30F1185 		movss	%xmm0, -2160(%rbp)
 4650      90F7FFFF 
 4651              		.loc 5 175 28
 4652 2181 C7854CF7 		movl	$3, -2228(%rbp)
 4652      FFFF0300 
 4652      0000
 4653              		.loc 5 175 25
 4654 218b C78548F7 		movl	$2, -2232(%rbp)
 4654      FFFF0200 
 4654      0000
 4655              		.loc 5 175 15
 4656 2195 488DBD70 		leaq	-2192(%rbp), %rdi
 4656      F7FFFF
 4657 219c 488D8D90 		leaq	-2160(%rbp), %rcx
 4657      F7FFFF
 4658 21a3 488D954C 		leaq	-2228(%rbp), %rdx
 4658      F7FFFF
 4659 21aa 488DB548 		leaq	-2232(%rbp), %rsi
 4659      F7FFFF
 4660 21b1 488D8550 		leaq	-2224(%rbp), %rax
 4660      F7FFFF
 4661 21b8 4989F8   		movq	%rdi, %r8
 4662 21bb 4889C7   		movq	%rax, %rdi
 4663 21be E8000000 		call	_ZN8UnitTest10CheckCloseIiifEEvRNS_11TestResultsERKT_RKT0_RKT1_RKNS_11TestDetailsE
 4663      00
 4664              	.LEHE103:
 4665              	.LEHB104:
 176:TestChecks.cpp **** 
 177:TestChecks.cpp ****     CHECK_EQUAL("mytest", reporter.lastFailedTest);
 4666              		.loc 5 177 5 discriminator 2
 4667 21c3 E8000000 		call	_ZN8UnitTest11CurrentTest7DetailsEv@PLT
 4667      00
 4668 21c8 488B08   		movq	(%rax), %rcx
 4669 21cb 488D8590 		leaq	-2160(%rbp), %rax
 4669      F7FFFF
 4670 21d2 BAB10000 		movl	$177, %edx
 4670      00
 4671 21d7 4889CE   		movq	%rcx, %rsi
 4672 21da 4889C7   		movq	%rax, %rdi
 4673 21dd E8000000 		call	_ZN8UnitTest11TestDetailsC1ERKS0_i@PLT
 4673      00
 4674              		.loc 5 177 5 is_stmt 0 discriminator 4
 4675 21e2 E8000000 		call	_ZN8UnitTest11CurrentTest7ResultsEv@PLT
 4675      00
 4676 21e7 488B00   		movq	(%rax), %rax
 4677 21ea 488D9590 		leaq	-2160(%rbp), %rdx
 4677      F7FFFF
 4678 21f1 488D8DB0 		leaq	-2128(%rbp), %rcx
 4678      F7FFFF
 4679 21f8 488DB114 		leaq	1044(%rcx), %rsi
 4679      040000
 4680 21ff 4889D1   		movq	%rdx, %rcx
 4681 2202 4889F2   		movq	%rsi, %rdx
 4682 2205 488D3500 		leaq	.LC25(%rip), %rsi
 4682      000000
 4683 220c 4889C7   		movq	%rax, %rdi
 4684 220f E8000000 		call	_ZN8UnitTest10CheckEqualERNS_11TestResultsEPKcPcRKNS_11TestDetailsE@PLT
 4684      00
 4685              	.LEHE104:
 4686              	.L183:
 4687              	.LEHB105:
 178:TestChecks.cpp ****     CHECK_EQUAL("mysuite", reporter.lastFailedSuite);
 4688              		.loc 5 178 5 is_stmt 1
 4689 2214 E8000000 		call	_ZN8UnitTest11CurrentTest7DetailsEv@PLT
 4689      00
 4690 2219 488B08   		movq	(%rax), %rcx
 4691 221c 488D8590 		leaq	-2160(%rbp), %rax
 4691      F7FFFF
 4692 2223 BAB20000 		movl	$178, %edx
 4692      00
 4693 2228 4889CE   		movq	%rcx, %rsi
 4694 222b 4889C7   		movq	%rax, %rdi
 4695 222e E8000000 		call	_ZN8UnitTest11TestDetailsC1ERKS0_i@PLT
 4695      00
 4696              		.loc 5 178 5 is_stmt 0 discriminator 4
 4697 2233 E8000000 		call	_ZN8UnitTest11CurrentTest7ResultsEv@PLT
 4697      00
 4698 2238 488B00   		movq	(%rax), %rax
 4699 223b 488D9590 		leaq	-2160(%rbp), %rdx
 4699      F7FFFF
 4700 2242 488D8DB0 		leaq	-2128(%rbp), %rcx
 4700      F7FFFF
 4701 2249 488DB114 		leaq	788(%rcx), %rsi
 4701      030000
 4702 2250 4889D1   		movq	%rdx, %rcx
 4703 2253 4889F2   		movq	%rsi, %rdx
 4704 2256 488D3500 		leaq	.LC24(%rip), %rsi
 4704      000000
 4705 225d 4889C7   		movq	%rax, %rdi
 4706 2260 E8000000 		call	_ZN8UnitTest10CheckEqualERNS_11TestResultsEPKcPcRKNS_11TestDetailsE@PLT
 4706      00
 4707              	.LEHE105:
 4708              	.L187:
 4709              	.LEHB106:
 179:TestChecks.cpp ****     CHECK_EQUAL("header.h", reporter.lastFailedFile);
 4710              		.loc 5 179 5 is_stmt 1
 4711 2265 E8000000 		call	_ZN8UnitTest11CurrentTest7DetailsEv@PLT
 4711      00
 4712 226a 488B08   		movq	(%rax), %rcx
 4713 226d 488D8590 		leaq	-2160(%rbp), %rax
 4713      F7FFFF
 4714 2274 BAB30000 		movl	$179, %edx
 4714      00
 4715 2279 4889CE   		movq	%rcx, %rsi
 4716 227c 4889C7   		movq	%rax, %rdi
 4717 227f E8000000 		call	_ZN8UnitTest11TestDetailsC1ERKS0_i@PLT
 4717      00
 4718              		.loc 5 179 5 is_stmt 0 discriminator 4
 4719 2284 E8000000 		call	_ZN8UnitTest11CurrentTest7ResultsEv@PLT
 4719      00
 4720 2289 488B00   		movq	(%rax), %rax
 4721 228c 488D9590 		leaq	-2160(%rbp), %rdx
 4721      F7FFFF
 4722 2293 488D8DB0 		leaq	-2128(%rbp), %rcx
 4722      F7FFFF
 4723 229a 488DB110 		leaq	528(%rcx), %rsi
 4723      020000
 4724 22a1 4889D1   		movq	%rdx, %rcx
 4725 22a4 4889F2   		movq	%rsi, %rdx
 4726 22a7 488D3500 		leaq	.LC54(%rip), %rsi
 4726      000000
 4727 22ae 4889C7   		movq	%rax, %rdi
 4728 22b1 E8000000 		call	_ZN8UnitTest10CheckEqualERNS_11TestResultsEPKcPcRKNS_11TestDetailsE@PLT
 4728      00
 4729              	.LEHE106:
 4730              	.L190:
 4731              	.LEHB107:
 180:TestChecks.cpp ****     CHECK_EQUAL(10, reporter.lastFailedLine);
 4732              		.loc 5 180 5 is_stmt 1
 4733 22b6 E8000000 		call	_ZN8UnitTest11CurrentTest7DetailsEv@PLT
 4733      00
 4734 22bb 488B08   		movq	(%rax), %rcx
 4735 22be 488D8590 		leaq	-2160(%rbp), %rax
 4735      F7FFFF
 4736 22c5 BAB40000 		movl	$180, %edx
 4736      00
 4737 22ca 4889CE   		movq	%rcx, %rsi
 4738 22cd 4889C7   		movq	%rax, %rdi
 4739 22d0 E8000000 		call	_ZN8UnitTest11TestDetailsC1ERKS0_i@PLT
 4739      00
 4740              		.loc 5 180 5 is_stmt 0 discriminator 4
 4741 22d5 C7854CF7 		movl	$10, -2228(%rbp)
 4741      FFFF0A00 
 4741      0000
 4742 22df E8000000 		call	_ZN8UnitTest11CurrentTest7ResultsEv@PLT
 4742      00
 4743 22e4 488B00   		movq	(%rax), %rax
 4744 22e7 488D9590 		leaq	-2160(%rbp), %rdx
 4744      F7FFFF
 4745 22ee 488D8DB0 		leaq	-2128(%rbp), %rcx
 4745      F7FFFF
 4746 22f5 488DB910 		leaq	784(%rcx), %rdi
 4746      030000
 4747 22fc 488DB54C 		leaq	-2228(%rbp), %rsi
 4747      F7FFFF
 4748 2303 4889D1   		movq	%rdx, %rcx
 4749 2306 4889FA   		movq	%rdi, %rdx
 4750 2309 4889C7   		movq	%rax, %rdi
 4751 230c E8000000 		call	_ZN8UnitTest10CheckEqualIiiEEvRNS_11TestResultsERKT_RKT0_RKNS_11TestDetailsE
 4751      00
 4752              	.LEHE107:
 4753              	.L193:
 181:TestChecks.cpp **** }
 4754              		.loc 5 181 1 is_stmt 1
 4755 2311 488D85B0 		leaq	-2128(%rbp), %rax
 4755      F7FFFF
 4756 2318 4889C7   		movq	%rax, %rdi
 4757              	.LEHB108:
 4758 231b E8000000 		call	_ZN17RecordingReporterD1Ev
 4758      00
 4759              	.LEHE108:
 4760 2320 488B45E8 		movq	-24(%rbp), %rax
 4761 2324 64482B04 		subq	%fs:40, %rax
 4761      25280000 
 4761      00
 4762 232d 0F84C101 		je	.L195
 4762      0000
 4763 2333 E9B70100 		jmp	.L205
 4763      00
 4764              	.L197:
 4765 2338 F30F1EFA 		endbr64
 177:TestChecks.cpp ****     CHECK_EQUAL("mysuite", reporter.lastFailedSuite);
 4766              		.loc 5 177 5
 4767 233c 4889C7   		movq	%rax, %rdi
 4768 233f E8000000 		call	__cxa_begin_catch@PLT
 4768      00
 4769              	.LEHB109:
 4770 2344 E8000000 		call	_ZN8UnitTest11CurrentTest7ResultsEv@PLT
 4770      00
 177:TestChecks.cpp ****     CHECK_EQUAL("mysuite", reporter.lastFailedSuite);
 4771              		.loc 5 177 5 is_stmt 0 discriminator 3
 4772 2349 488B18   		movq	(%rax), %rbx
 4773 234c E8000000 		call	_ZN8UnitTest11CurrentTest7DetailsEv@PLT
 4773      00
 177:TestChecks.cpp ****     CHECK_EQUAL("mysuite", reporter.lastFailedSuite);
 4774              		.loc 5 177 5 discriminator 11
 4775 2351 488B08   		movq	(%rax), %rcx
 4776 2354 488D8590 		leaq	-2160(%rbp), %rax
 4776      F7FFFF
 4777 235b BAB10000 		movl	$177, %edx
 4777      00
 4778 2360 4889CE   		movq	%rcx, %rsi
 4779 2363 4889C7   		movq	%rax, %rdi
 4780 2366 E8000000 		call	_ZN8UnitTest11TestDetailsC1ERKS0_i@PLT
 4780      00
 177:TestChecks.cpp ****     CHECK_EQUAL("mysuite", reporter.lastFailedSuite);
 4781              		.loc 5 177 5 discriminator 15
 4782 236b 488D8590 		leaq	-2160(%rbp), %rax
 4782      F7FFFF
 4783 2372 488D1500 		leaq	.LC26(%rip), %rdx
 4783      000000
 4784 2379 4889C6   		movq	%rax, %rsi
 4785 237c 4889DF   		movq	%rbx, %rdi
 4786 237f E8000000 		call	_ZN8UnitTest11TestResults13OnTestFailureERKNS_11TestDetailsEPKc@PLT
 4786      00
 4787              	.LEHE109:
 4788              	.LEHB110:
 177:TestChecks.cpp ****     CHECK_EQUAL("mysuite", reporter.lastFailedSuite);
 4789              		.loc 5 177 5 discriminator 17
 4790 2384 E8000000 		call	__cxa_end_catch@PLT
 4790      00
 4791              	.LEHE110:
 177:TestChecks.cpp ****     CHECK_EQUAL("mysuite", reporter.lastFailedSuite);
 4792              		.loc 5 177 5
 4793 2389 E986FEFF 		jmp	.L183
 4793      FF
 4794              	.L198:
 4795 238e F30F1EFA 		endbr64
 4796 2392 4889C3   		movq	%rax, %rbx
 4797 2395 E8000000 		call	__cxa_end_catch@PLT
 4797      00
 4798 239a E9360100 		jmp	.L185
 4798      00
 4799              	.L199:
 4800 239f F30F1EFA 		endbr64
 178:TestChecks.cpp ****     CHECK_EQUAL("header.h", reporter.lastFailedFile);
 4801              		.loc 5 178 5 is_stmt 1
 4802 23a3 4889C7   		movq	%rax, %rdi
 4803 23a6 E8000000 		call	__cxa_begin_catch@PLT
 4803      00
 4804              	.LEHB111:
 4805 23ab E8000000 		call	_ZN8UnitTest11CurrentTest7ResultsEv@PLT
 4805      00
 178:TestChecks.cpp ****     CHECK_EQUAL("header.h", reporter.lastFailedFile);
 4806              		.loc 5 178 5 is_stmt 0 discriminator 3
 4807 23b0 488B18   		movq	(%rax), %rbx
 4808 23b3 E8000000 		call	_ZN8UnitTest11CurrentTest7DetailsEv@PLT
 4808      00
 178:TestChecks.cpp ****     CHECK_EQUAL("header.h", reporter.lastFailedFile);
 4809              		.loc 5 178 5 discriminator 11
 4810 23b8 488B08   		movq	(%rax), %rcx
 4811 23bb 488D8590 		leaq	-2160(%rbp), %rax
 4811      F7FFFF
 4812 23c2 BAB20000 		movl	$178, %edx
 4812      00
 4813 23c7 4889CE   		movq	%rcx, %rsi
 4814 23ca 4889C7   		movq	%rax, %rdi
 4815 23cd E8000000 		call	_ZN8UnitTest11TestDetailsC1ERKS0_i@PLT
 4815      00
 178:TestChecks.cpp ****     CHECK_EQUAL("header.h", reporter.lastFailedFile);
 4816              		.loc 5 178 5 discriminator 15
 4817 23d2 488D8590 		leaq	-2160(%rbp), %rax
 4817      F7FFFF
 4818 23d9 488D1500 		leaq	.LC27(%rip), %rdx
 4818      000000
 4819 23e0 4889C6   		movq	%rax, %rsi
 4820 23e3 4889DF   		movq	%rbx, %rdi
 4821 23e6 E8000000 		call	_ZN8UnitTest11TestResults13OnTestFailureERKNS_11TestDetailsEPKc@PLT
 4821      00
 4822              	.LEHE111:
 4823              	.LEHB112:
 178:TestChecks.cpp ****     CHECK_EQUAL("header.h", reporter.lastFailedFile);
 4824              		.loc 5 178 5 discriminator 17
 4825 23eb E8000000 		call	__cxa_end_catch@PLT
 4825      00
 4826              	.LEHE112:
 178:TestChecks.cpp ****     CHECK_EQUAL("header.h", reporter.lastFailedFile);
 4827              		.loc 5 178 5
 4828 23f0 E970FEFF 		jmp	.L187
 4828      FF
 4829              	.L200:
 4830 23f5 F30F1EFA 		endbr64
 4831 23f9 4889C3   		movq	%rax, %rbx
 4832 23fc E8000000 		call	__cxa_end_catch@PLT
 4832      00
 4833 2401 E9CF0000 		jmp	.L185
 4833      00
 4834              	.L201:
 4835 2406 F30F1EFA 		endbr64
 179:TestChecks.cpp ****     CHECK_EQUAL(10, reporter.lastFailedLine);
 4836              		.loc 5 179 5 is_stmt 1
 4837 240a 4889C7   		movq	%rax, %rdi
 4838 240d E8000000 		call	__cxa_begin_catch@PLT
 4838      00
 4839              	.LEHB113:
 4840 2412 E8000000 		call	_ZN8UnitTest11CurrentTest7ResultsEv@PLT
 4840      00
 179:TestChecks.cpp ****     CHECK_EQUAL(10, reporter.lastFailedLine);
 4841              		.loc 5 179 5 is_stmt 0 discriminator 3
 4842 2417 488B18   		movq	(%rax), %rbx
 4843 241a E8000000 		call	_ZN8UnitTest11CurrentTest7DetailsEv@PLT
 4843      00
 179:TestChecks.cpp ****     CHECK_EQUAL(10, reporter.lastFailedLine);
 4844              		.loc 5 179 5 discriminator 11
 4845 241f 488B08   		movq	(%rax), %rcx
 4846 2422 488D8590 		leaq	-2160(%rbp), %rax
 4846      F7FFFF
 4847 2429 BAB30000 		movl	$179, %edx
 4847      00
 4848 242e 4889CE   		movq	%rcx, %rsi
 4849 2431 4889C7   		movq	%rax, %rdi
 4850 2434 E8000000 		call	_ZN8UnitTest11TestDetailsC1ERKS0_i@PLT
 4850      00
 179:TestChecks.cpp ****     CHECK_EQUAL(10, reporter.lastFailedLine);
 4851              		.loc 5 179 5 discriminator 15
 4852 2439 488D8590 		leaq	-2160(%rbp), %rax
 4852      F7FFFF
 4853 2440 488D1500 		leaq	.LC55(%rip), %rdx
 4853      000000
 4854 2447 4889C6   		movq	%rax, %rsi
 4855 244a 4889DF   		movq	%rbx, %rdi
 4856 244d E8000000 		call	_ZN8UnitTest11TestResults13OnTestFailureERKNS_11TestDetailsEPKc@PLT
 4856      00
 4857              	.LEHE113:
 4858              	.LEHB114:
 179:TestChecks.cpp ****     CHECK_EQUAL(10, reporter.lastFailedLine);
 4859              		.loc 5 179 5 discriminator 17
 4860 2452 E8000000 		call	__cxa_end_catch@PLT
 4860      00
 4861              	.LEHE114:
 179:TestChecks.cpp ****     CHECK_EQUAL(10, reporter.lastFailedLine);
 4862              		.loc 5 179 5
 4863 2457 E95AFEFF 		jmp	.L190
 4863      FF
 4864              	.L202:
 4865 245c F30F1EFA 		endbr64
 4866 2460 4889C3   		movq	%rax, %rbx
 4867 2463 E8000000 		call	__cxa_end_catch@PLT
 4867      00
 4868 2468 EB6B     		jmp	.L185
 4869              	.L203:
 4870 246a F30F1EFA 		endbr64
 180:TestChecks.cpp **** }
 4871              		.loc 5 180 5 is_stmt 1
 4872 246e 4889C7   		movq	%rax, %rdi
 4873 2471 E8000000 		call	__cxa_begin_catch@PLT
 4873      00
 4874              	.LEHB115:
 4875 2476 E8000000 		call	_ZN8UnitTest11CurrentTest7ResultsEv@PLT
 4875      00
 180:TestChecks.cpp **** }
 4876              		.loc 5 180 5 is_stmt 0 discriminator 3
 4877 247b 488B18   		movq	(%rax), %rbx
 4878 247e E8000000 		call	_ZN8UnitTest11CurrentTest7DetailsEv@PLT
 4878      00
 180:TestChecks.cpp **** }
 4879              		.loc 5 180 5 discriminator 11
 4880 2483 488B08   		movq	(%rax), %rcx
 4881 2486 488D8590 		leaq	-2160(%rbp), %rax
 4881      F7FFFF
 4882 248d BAB40000 		movl	$180, %edx
 4882      00
 4883 2492 4889CE   		movq	%rcx, %rsi
 4884 2495 4889C7   		movq	%rax, %rdi
 4885 2498 E8000000 		call	_ZN8UnitTest11TestDetailsC1ERKS0_i@PLT
 4885      00
 180:TestChecks.cpp **** }
 4886              		.loc 5 180 5 discriminator 15
 4887 249d 488D8590 		leaq	-2160(%rbp), %rax
 4887      F7FFFF
 4888 24a4 488D1500 		leaq	.LC56(%rip), %rdx
 4888      000000
 4889 24ab 4889C6   		movq	%rax, %rsi
 4890 24ae 4889DF   		movq	%rbx, %rdi
 4891 24b1 E8000000 		call	_ZN8UnitTest11TestResults13OnTestFailureERKNS_11TestDetailsEPKc@PLT
 4891      00
 4892              	.LEHE115:
 4893              	.LEHB116:
 180:TestChecks.cpp **** }
 4894              		.loc 5 180 5 discriminator 17
 4895 24b6 E8000000 		call	__cxa_end_catch@PLT
 4895      00
 4896              	.LEHE116:
 180:TestChecks.cpp **** }
 4897              		.loc 5 180 5
 4898 24bb E951FEFF 		jmp	.L193
 4898      FF
 4899              	.L204:
 4900 24c0 F30F1EFA 		endbr64
 4901 24c4 4889C3   		movq	%rax, %rbx
 4902 24c7 E8000000 		call	__cxa_end_catch@PLT
 4902      00
 4903 24cc EB07     		jmp	.L185
 4904              	.L196:
 4905 24ce F30F1EFA 		endbr64
 4906              		.loc 5 181 1 is_stmt 1
 4907 24d2 4889C3   		movq	%rax, %rbx
 4908              	.L185:
 4909 24d5 488D85B0 		leaq	-2128(%rbp), %rax
 4909      F7FFFF
 4910 24dc 4889C7   		movq	%rax, %rdi
 4911 24df E8000000 		call	_ZN17RecordingReporterD1Ev
 4911      00
 4912 24e4 4889D8   		movq	%rbx, %rax
 4913 24e7 4889C7   		movq	%rax, %rdi
 4914              	.LEHB117:
 4915 24ea E8000000 		call	_Unwind_Resume@PLT
 4915      00
 4916              	.LEHE117:
 4917              	.L205:
 4918 24ef E8000000 		call	__stack_chk_fail@PLT
 4918      00
 4919              	.L195:
 4920 24f4 488B5DF8 		movq	-8(%rbp), %rbx
 4921 24f8 C9       		leave
 4922              		.cfi_def_cfa 7, 8
 4923 24f9 C3       		ret
 4924              		.cfi_endproc
 4925              	.LFE1218:
 4926              		.section	.gcc_except_table
 4927              		.align 4
 4928              	.LLSDA1218:
 4929 02f0 FF       		.byte	0xff
 4930 02f1 9B       		.byte	0x9b
 4931 02f2 61       		.uleb128 .LLSDATT1218-.LLSDATTD1218
 4932              	.LLSDATTD1218:
 4933 02f3 01       		.byte	0x1
 4934 02f4 58       		.uleb128 .LLSDACSE1218-.LLSDACSB1218
 4935              	.LLSDACSB1218:
 4936 02f5 49       		.uleb128 .LEHB103-.LFB1218
 4937 02f6 8401     		.uleb128 .LEHE103-.LEHB103
 4938 02f8 D807     		.uleb128 .L196-.LFB1218
 4939 02fa 00       		.uleb128 0
 4940 02fb CD01     		.uleb128 .LEHB104-.LFB1218
 4941 02fd 51       		.uleb128 .LEHE104-.LEHB104
 4942 02fe C204     		.uleb128 .L197-.LFB1218
 4943 0300 01       		.uleb128 0x1
 4944 0301 9E02     		.uleb128 .LEHB105-.LFB1218
 4945 0303 51       		.uleb128 .LEHE105-.LEHB105
 4946 0304 A905     		.uleb128 .L199-.LFB1218
 4947 0306 01       		.uleb128 0x1
 4948 0307 EF02     		.uleb128 .LEHB106-.LFB1218
 4949 0309 51       		.uleb128 .LEHE106-.LEHB106
 4950 030a 9006     		.uleb128 .L201-.LFB1218
 4951 030c 01       		.uleb128 0x1
 4952 030d C003     		.uleb128 .LEHB107-.LFB1218
 4953 030f 5B       		.uleb128 .LEHE107-.LEHB107
 4954 0310 F406     		.uleb128 .L203-.LFB1218
 4955 0312 01       		.uleb128 0x1
 4956 0313 A504     		.uleb128 .LEHB108-.LFB1218
 4957 0315 05       		.uleb128 .LEHE108-.LEHB108
 4958 0316 00       		.uleb128 0
 4959 0317 00       		.uleb128 0
 4960 0318 CE04     		.uleb128 .LEHB109-.LFB1218
 4961 031a 40       		.uleb128 .LEHE109-.LEHB109
 4962 031b 9805     		.uleb128 .L198-.LFB1218
 4963 031d 00       		.uleb128 0
 4964 031e 8E05     		.uleb128 .LEHB110-.LFB1218
 4965 0320 05       		.uleb128 .LEHE110-.LEHB110
 4966 0321 D807     		.uleb128 .L196-.LFB1218
 4967 0323 00       		.uleb128 0
 4968 0324 B505     		.uleb128 .LEHB111-.LFB1218
 4969 0326 40       		.uleb128 .LEHE111-.LEHB111
 4970 0327 FF05     		.uleb128 .L200-.LFB1218
 4971 0329 00       		.uleb128 0
 4972 032a F505     		.uleb128 .LEHB112-.LFB1218
 4973 032c 05       		.uleb128 .LEHE112-.LEHB112
 4974 032d D807     		.uleb128 .L196-.LFB1218
 4975 032f 00       		.uleb128 0
 4976 0330 9C06     		.uleb128 .LEHB113-.LFB1218
 4977 0332 40       		.uleb128 .LEHE113-.LEHB113
 4978 0333 E606     		.uleb128 .L202-.LFB1218
 4979 0335 00       		.uleb128 0
 4980 0336 DC06     		.uleb128 .LEHB114-.LFB1218
 4981 0338 05       		.uleb128 .LEHE114-.LEHB114
 4982 0339 D807     		.uleb128 .L196-.LFB1218
 4983 033b 00       		.uleb128 0
 4984 033c 8007     		.uleb128 .LEHB115-.LFB1218
 4985 033e 40       		.uleb128 .LEHE115-.LEHB115
 4986 033f CA07     		.uleb128 .L204-.LFB1218
 4987 0341 00       		.uleb128 0
 4988 0342 C007     		.uleb128 .LEHB116-.LFB1218
 4989 0344 05       		.uleb128 .LEHE116-.LEHB116
 4990 0345 D807     		.uleb128 .L196-.LFB1218
 4991 0347 00       		.uleb128 0
 4992 0348 F407     		.uleb128 .LEHB117-.LFB1218
 4993 034a 05       		.uleb128 .LEHE117-.LEHB117
 4994 034b 00       		.uleb128 0
 4995 034c 00       		.uleb128 0
 4996              	.LLSDACSE1218:
 4997 034d 01       		.byte	0x1
 4998 034e 00       		.byte	0
 4999 034f 00       		.align 4
 5000 0350 00000000 		.long	0
 5001              	
 5002              	.LLSDATT1218:
 5003              		.text
 5005              		.section	.rodata
 5006              	.LC57:
 5007 0820 43686563 		.string	"CheckArrayEqualTrue"
 5007      6B417272 
 5007      61794571 
 5007      75616C54 
 5007      72756500 
 5008              		.text
 5009              		.align 2
 5011              	_ZN12_GLOBAL__N_123TestCheckArrayEqualTrueC2Ev:
 5012              	.LFB1220:
 182:TestChecks.cpp **** 
 183:TestChecks.cpp **** 
 184:TestChecks.cpp **** TEST(CheckArrayEqualTrue)
 5013              		.loc 5 184 1
 5014              		.cfi_startproc
 5015 24fa 55       		pushq	%rbp
 5016              		.cfi_def_cfa_offset 16
 5017              		.cfi_offset 6, -16
 5018 24fb 4889E5   		movq	%rsp, %rbp
 5019              		.cfi_def_cfa_register 6
 5020 24fe 53       		pushq	%rbx
 5021 24ff 4883EC18 		subq	$24, %rsp
 5022              		.cfi_offset 3, -24
 5023 2503 48897DE8 		movq	%rdi, -24(%rbp)
 5024              	.LBB23:
 5025              		.loc 5 184 1
 5026 2507 488B5DE8 		movq	-24(%rbp), %rbx
 5027 250b E8000000 		call	_ZN13UnitTestSuite12GetSuiteNameEv
 5027      00
 5028 2510 4889C2   		movq	%rax, %rdx
 5029 2513 41B8B800 		movl	$184, %r8d
 5029      0000
 5030 2519 488D0500 		leaq	.LC2(%rip), %rax
 5030      000000
 5031 2520 4889C1   		movq	%rax, %rcx
 5032 2523 488D0500 		leaq	.LC57(%rip), %rax
 5032      000000
 5033 252a 4889C6   		movq	%rax, %rsi
 5034 252d 4889DF   		movq	%rbx, %rdi
 5035 2530 E8000000 		call	_ZN8UnitTest4TestC2EPKcS2_S2_i@PLT
 5035      00
 5036 2535 488D1500 		leaq	16+_ZTVN12_GLOBAL__N_123TestCheckArrayEqualTrueE(%rip), %rdx
 5036      000000
 5037 253c 488B45E8 		movq	-24(%rbp), %rax
 5038 2540 488910   		movq	%rdx, (%rax)
 5039              	.LBE23:
 5040 2543 90       		nop
 5041 2544 488B5DF8 		movq	-8(%rbp), %rbx
 5042 2548 C9       		leave
 5043              		.cfi_def_cfa 7, 8
 5044 2549 C3       		ret
 5045              		.cfi_endproc
 5046              	.LFE1220:
 5048              		.set	_ZN12_GLOBAL__N_123TestCheckArrayEqualTrueC1Ev,_ZN12_GLOBAL__N_123TestCheckArrayEqualTrueC2Ev
 5049              		.local	_ZN12_GLOBAL__N_131testCheckArrayEqualTrueInstanceE
 5050              		.comm	_ZN12_GLOBAL__N_131testCheckArrayEqualTrueInstanceE,56,32
 5051              		.local	_ZN12_GLOBAL__N_124adderCheckArrayEqualTrueE
 5052              		.comm	_ZN12_GLOBAL__N_124adderCheckArrayEqualTrueE,1,1
 5053              		.align 2
 5055              	_ZNK12_GLOBAL__N_123TestCheckArrayEqualTrue7RunImplEv:
 5056              	.LFB1222:
 185:TestChecks.cpp **** {
 5057              		.loc 5 185 1
 5058              		.cfi_startproc
 5059              		.cfi_personality 0x9b,DW.ref.__gxx_personality_v0
 5060              		.cfi_lsda 0x1b,.LLSDA1222
 5061 254a F30F1EFA 		endbr64
 5062 254e 55       		pushq	%rbp
 5063              		.cfi_def_cfa_offset 16
 5064              		.cfi_offset 6, -16
 5065 254f 4889E5   		movq	%rsp, %rbp
 5066              		.cfi_def_cfa_register 6
 5067 2552 53       		pushq	%rbx
 5068 2553 4881EC88 		subq	$136, %rsp
 5068      000000
 5069              		.cfi_offset 3, -24
 5070 255a 4889BD78 		movq	%rdi, -136(%rbp)
 5070      FFFFFF
 5071              		.loc 5 185 1
 5072 2561 64488B04 		movq	%fs:40, %rax
 5072      25280000 
 5072      00
 5073 256a 488945E8 		movq	%rax, -24(%rbp)
 5074 256e 31C0     		xorl	%eax, %eax
 186:TestChecks.cpp ****     TestResults results;
 5075              		.loc 5 186 17
 5076 2570 488D4590 		leaq	-112(%rbp), %rax
 5077 2574 BE000000 		movl	$0, %esi
 5077      00
 5078 2579 4889C7   		movq	%rax, %rdi
 5079              	.LEHB118:
 5080 257c E8000000 		call	_ZN8UnitTest11TestResultsC1EPNS_12TestReporterE@PLT
 5080      00
 187:TestChecks.cpp **** 
 188:TestChecks.cpp ****     int const array[3] = { 1, 2, 3 };
 5081              		.loc 5 188 15
 5082 2581 C745DC01 		movl	$1, -36(%rbp)
 5082      000000
 5083 2588 C745E002 		movl	$2, -32(%rbp)
 5083      000000
 5084 258f C745E403 		movl	$3, -28(%rbp)
 5084      000000
 189:TestChecks.cpp ****     CheckArrayEqual(results, array, array, 3, TestDetails("", "", "", 0));
 5085              		.loc 5 189 47
 5086 2596 488D45B0 		leaq	-80(%rbp), %rax
 5087 259a 41B80000 		movl	$0, %r8d
 5087      0000
 5088 25a0 488D1500 		leaq	.LC6(%rip), %rdx
 5088      000000
 5089 25a7 4889D1   		movq	%rdx, %rcx
 5090 25aa 488D1500 		leaq	.LC6(%rip), %rdx
 5090      000000
 5091 25b1 488D3500 		leaq	.LC6(%rip), %rsi
 5091      000000
 5092 25b8 4889C7   		movq	%rax, %rdi
 5093 25bb E8000000 		call	_ZN8UnitTest11TestDetailsC1EPKcS2_S2_i@PLT
 5093      00
 5094              		.loc 5 189 20
 5095 25c0 488D4DB0 		leaq	-80(%rbp), %rcx
 5096 25c4 488D55DC 		leaq	-36(%rbp), %rdx
 5097 25c8 488D75DC 		leaq	-36(%rbp), %rsi
 5098 25cc 488D4590 		leaq	-112(%rbp), %rax
 5099 25d0 4989C8   		movq	%rcx, %r8
 5100 25d3 B9030000 		movl	$3, %ecx
 5100      00
 5101 25d8 4889C7   		movq	%rax, %rdi
 5102 25db E8000000 		call	_ZN8UnitTest15CheckArrayEqualIA3_iS1_EEvRNS_11TestResultsERKT_RKT0_iRKNS_11TestDetailsE
 5102      00
 5103              	.LEHE118:
 5104              	.LEHB119:
 190:TestChecks.cpp ****     CHECK_EQUAL(0, results.GetFailureCount());
 5105              		.loc 5 190 5
 5106 25e0 E8000000 		call	_ZN8UnitTest11CurrentTest7DetailsEv@PLT
 5106      00
 5107 25e5 488B08   		movq	(%rax), %rcx
 5108 25e8 488D45B0 		leaq	-80(%rbp), %rax
 5109 25ec BABE0000 		movl	$190, %edx
 5109      00
 5110 25f1 4889CE   		movq	%rcx, %rsi
 5111 25f4 4889C7   		movq	%rax, %rdi
 5112 25f7 E8000000 		call	_ZN8UnitTest11TestDetailsC1ERKS0_i@PLT
 5112      00
 5113              		.loc 5 190 5 is_stmt 0 discriminator 4
 5114 25fc 488D4590 		leaq	-112(%rbp), %rax
 5115 2600 4889C7   		movq	%rax, %rdi
 5116 2603 E8000000 		call	_ZNK8UnitTest11TestResults15GetFailureCountEv@PLT
 5116      00
 5117 2608 89458C   		movl	%eax, -116(%rbp)
 5118 260b C7458800 		movl	$0, -120(%rbp)
 5118      000000
 5119 2612 E8000000 		call	_ZN8UnitTest11CurrentTest7ResultsEv@PLT
 5119      00
 5120              		.loc 5 190 5 discriminator 6
 5121 2617 488B00   		movq	(%rax), %rax
 5122 261a 488D4DB0 		leaq	-80(%rbp), %rcx
 5123 261e 488D558C 		leaq	-116(%rbp), %rdx
 5124 2622 488D7588 		leaq	-120(%rbp), %rsi
 5125 2626 4889C7   		movq	%rax, %rdi
 5126 2629 E8000000 		call	_ZN8UnitTest10CheckEqualIiiEEvRNS_11TestResultsERKT_RKT0_RKNS_11TestDetailsE
 5126      00
 5127              	.LEHE119:
 191:TestChecks.cpp **** }
 5128              		.loc 5 191 1 is_stmt 1
 5129 262e EB64     		jmp	.L207
 5130              	.L212:
 5131 2630 F30F1EFA 		endbr64
 190:TestChecks.cpp ****     CHECK_EQUAL(0, results.GetFailureCount());
 5132              		.loc 5 190 5
 5133 2634 4889C7   		movq	%rax, %rdi
 5134 2637 E8000000 		call	__cxa_begin_catch@PLT
 5134      00
 5135              	.LEHB120:
 5136 263c E8000000 		call	_ZN8UnitTest11CurrentTest7ResultsEv@PLT
 5136      00
 190:TestChecks.cpp ****     CHECK_EQUAL(0, results.GetFailureCount());
 5137              		.loc 5 190 5 is_stmt 0 discriminator 3
 5138 2641 488B18   		movq	(%rax), %rbx
 5139 2644 E8000000 		call	_ZN8UnitTest11CurrentTest7DetailsEv@PLT
 5139      00
 190:TestChecks.cpp ****     CHECK_EQUAL(0, results.GetFailureCount());
 5140              		.loc 5 190 5 discriminator 13
 5141 2649 488B08   		movq	(%rax), %rcx
 5142 264c 488D45B0 		leaq	-80(%rbp), %rax
 5143 2650 BABE0000 		movl	$190, %edx
 5143      00
 5144 2655 4889CE   		movq	%rcx, %rsi
 5145 2658 4889C7   		movq	%rax, %rdi
 5146 265b E8000000 		call	_ZN8UnitTest11TestDetailsC1ERKS0_i@PLT
 5146      00
 190:TestChecks.cpp ****     CHECK_EQUAL(0, results.GetFailureCount());
 5147              		.loc 5 190 5 discriminator 17
 5148 2660 488D45B0 		leaq	-80(%rbp), %rax
 5149 2664 488D1500 		leaq	.LC9(%rip), %rdx
 5149      000000
 5150 266b 4889C6   		movq	%rax, %rsi
 5151 266e 4889DF   		movq	%rbx, %rdi
 5152 2671 E8000000 		call	_ZN8UnitTest11TestResults13OnTestFailureERKNS_11TestDetailsEPKc@PLT
 5152      00
 5153              	.LEHE120:
 5154              	.LEHB121:
 190:TestChecks.cpp ****     CHECK_EQUAL(0, results.GetFailureCount());
 5155              		.loc 5 190 5 discriminator 19
 5156 2676 E8000000 		call	__cxa_end_catch@PLT
 5156      00
 5157              	.LEHE121:
 5158              		.loc 5 191 1 is_stmt 1 discriminator 19
 5159 267b EB17     		jmp	.L207
 5160              	.L213:
 5161 267d F30F1EFA 		endbr64
 190:TestChecks.cpp ****     CHECK_EQUAL(0, results.GetFailureCount());
 5162              		.loc 5 190 5
 5163 2681 4889C3   		movq	%rax, %rbx
 5164 2684 E8000000 		call	__cxa_end_catch@PLT
 5164      00
 5165 2689 4889D8   		movq	%rbx, %rax
 5166 268c 4889C7   		movq	%rax, %rdi
 5167              	.LEHB122:
 5168 268f E8000000 		call	_Unwind_Resume@PLT
 5168      00
 5169              	.LEHE122:
 5170              	.L207:
 5171              		.loc 5 191 1
 5172 2694 488B45E8 		movq	-24(%rbp), %rax
 5173 2698 64482B04 		subq	%fs:40, %rax
 5173      25280000 
 5173      00
 5174 26a1 7405     		je	.L211
 5175 26a3 E8000000 		call	__stack_chk_fail@PLT
 5175      00
 5176              	.L211:
 5177 26a8 488B5DF8 		movq	-8(%rbp), %rbx
 5178 26ac C9       		leave
 5179              		.cfi_def_cfa 7, 8
 5180 26ad C3       		ret
 5181              		.cfi_endproc
 5182              	.LFE1222:
 5183              		.section	.gcc_except_table
 5184              		.align 4
 5185              	.LLSDA1222:
 5186 0354 FF       		.byte	0xff
 5187 0355 9B       		.byte	0x9b
 5188 0356 25       		.uleb128 .LLSDATT1222-.LLSDATTD1222
 5189              	.LLSDATTD1222:
 5190 0357 01       		.byte	0x1
 5191 0358 1A       		.uleb128 .LLSDACSE1222-.LLSDACSB1222
 5192              	.LLSDACSB1222:
 5193 0359 32       		.uleb128 .LEHB118-.LFB1222
 5194 035a 64       		.uleb128 .LEHE118-.LEHB118
 5195 035b 00       		.uleb128 0
 5196 035c 00       		.uleb128 0
 5197 035d 9601     		.uleb128 .LEHB119-.LFB1222
 5198 035f 4E       		.uleb128 .LEHE119-.LEHB119
 5199 0360 E601     		.uleb128 .L212-.LFB1222
 5200 0362 01       		.uleb128 0x1
 5201 0363 F201     		.uleb128 .LEHB120-.LFB1222
 5202 0365 3A       		.uleb128 .LEHE120-.LEHB120
 5203 0366 B302     		.uleb128 .L213-.LFB1222
 5204 0368 00       		.uleb128 0
 5205 0369 AC02     		.uleb128 .LEHB121-.LFB1222
 5206 036b 05       		.uleb128 .LEHE121-.LEHB121
 5207 036c 00       		.uleb128 0
 5208 036d 00       		.uleb128 0
 5209 036e C502     		.uleb128 .LEHB122-.LFB1222
 5210 0370 05       		.uleb128 .LEHE122-.LEHB122
 5211 0371 00       		.uleb128 0
 5212 0372 00       		.uleb128 0
 5213              	.LLSDACSE1222:
 5214 0373 01       		.byte	0x1
 5215 0374 00       		.byte	0
 5216 0375 000000   		.align 4
 5217 0378 00000000 		.long	0
 5218              	
 5219              	.LLSDATT1222:
 5220              		.text
 5222              		.section	.rodata
 5223              	.LC58:
 5224 0834 43686563 		.string	"CheckArrayEqualFalse"
 5224      6B417272 
 5224      61794571 
 5224      75616C46 
 5224      616C7365 
 5225              		.text
 5226              		.align 2
 5228              	_ZN12_GLOBAL__N_124TestCheckArrayEqualFalseC2Ev:
 5229              	.LFB1224:
 192:TestChecks.cpp **** 
 193:TestChecks.cpp **** TEST(CheckArrayEqualFalse)
 5230              		.loc 5 193 1
 5231              		.cfi_startproc
 5232 26ae 55       		pushq	%rbp
 5233              		.cfi_def_cfa_offset 16
 5234              		.cfi_offset 6, -16
 5235 26af 4889E5   		movq	%rsp, %rbp
 5236              		.cfi_def_cfa_register 6
 5237 26b2 53       		pushq	%rbx
 5238 26b3 4883EC18 		subq	$24, %rsp
 5239              		.cfi_offset 3, -24
 5240 26b7 48897DE8 		movq	%rdi, -24(%rbp)
 5241              	.LBB24:
 5242              		.loc 5 193 1
 5243 26bb 488B5DE8 		movq	-24(%rbp), %rbx
 5244 26bf E8000000 		call	_ZN13UnitTestSuite12GetSuiteNameEv
 5244      00
 5245 26c4 4889C2   		movq	%rax, %rdx
 5246 26c7 41B8C100 		movl	$193, %r8d
 5246      0000
 5247 26cd 488D0500 		leaq	.LC2(%rip), %rax
 5247      000000
 5248 26d4 4889C1   		movq	%rax, %rcx
 5249 26d7 488D0500 		leaq	.LC58(%rip), %rax
 5249      000000
 5250 26de 4889C6   		movq	%rax, %rsi
 5251 26e1 4889DF   		movq	%rbx, %rdi
 5252 26e4 E8000000 		call	_ZN8UnitTest4TestC2EPKcS2_S2_i@PLT
 5252      00
 5253 26e9 488D1500 		leaq	16+_ZTVN12_GLOBAL__N_124TestCheckArrayEqualFalseE(%rip), %rdx
 5253      000000
 5254 26f0 488B45E8 		movq	-24(%rbp), %rax
 5255 26f4 488910   		movq	%rdx, (%rax)
 5256              	.LBE24:
 5257 26f7 90       		nop
 5258 26f8 488B5DF8 		movq	-8(%rbp), %rbx
 5259 26fc C9       		leave
 5260              		.cfi_def_cfa 7, 8
 5261 26fd C3       		ret
 5262              		.cfi_endproc
 5263              	.LFE1224:
 5265              		.set	_ZN12_GLOBAL__N_124TestCheckArrayEqualFalseC1Ev,_ZN12_GLOBAL__N_124TestCheckArrayEqualFalseC2
 5266              		.local	_ZN12_GLOBAL__N_132testCheckArrayEqualFalseInstanceE
 5267              		.comm	_ZN12_GLOBAL__N_132testCheckArrayEqualFalseInstanceE,56,32
 5268              		.local	_ZN12_GLOBAL__N_125adderCheckArrayEqualFalseE
 5269              		.comm	_ZN12_GLOBAL__N_125adderCheckArrayEqualFalseE,1,1
 5270              		.align 2
 5272              	_ZNK12_GLOBAL__N_124TestCheckArrayEqualFalse7RunImplEv:
 5273              	.LFB1226:
 194:TestChecks.cpp **** {
 5274              		.loc 5 194 1
 5275              		.cfi_startproc
 5276              		.cfi_personality 0x9b,DW.ref.__gxx_personality_v0
 5277              		.cfi_lsda 0x1b,.LLSDA1226
 5278 26fe F30F1EFA 		endbr64
 5279 2702 55       		pushq	%rbp
 5280              		.cfi_def_cfa_offset 16
 5281              		.cfi_offset 6, -16
 5282 2703 4889E5   		movq	%rsp, %rbp
 5283              		.cfi_def_cfa_register 6
 5284 2706 53       		pushq	%rbx
 5285 2707 4881EC88 		subq	$136, %rsp
 5285      000000
 5286              		.cfi_offset 3, -24
 5287 270e 4889BD78 		movq	%rdi, -136(%rbp)
 5287      FFFFFF
 5288              		.loc 5 194 1
 5289 2715 64488B04 		movq	%fs:40, %rax
 5289      25280000 
 5289      00
 5290 271e 488945E8 		movq	%rax, -24(%rbp)
 5291 2722 31C0     		xorl	%eax, %eax
 195:TestChecks.cpp ****     TestResults results;
 5292              		.loc 5 195 17
 5293 2724 488D4590 		leaq	-112(%rbp), %rax
 5294 2728 BE000000 		movl	$0, %esi
 5294      00
 5295 272d 4889C7   		movq	%rax, %rdi
 5296              	.LEHB123:
 5297 2730 E8000000 		call	_ZN8UnitTest11TestResultsC1EPNS_12TestReporterE@PLT
 5297      00
 196:TestChecks.cpp **** 
 197:TestChecks.cpp ****     int const array1[3] = { 1, 2, 3 };
 5298              		.loc 5 197 15
 5299 2735 C745D001 		movl	$1, -48(%rbp)
 5299      000000
 5300 273c C745D402 		movl	$2, -44(%rbp)
 5300      000000
 5301 2743 C745D803 		movl	$3, -40(%rbp)
 5301      000000
 198:TestChecks.cpp ****     int const array2[3] = { 1, 2, 2 };
 5302              		.loc 5 198 15
 5303 274a C745DC01 		movl	$1, -36(%rbp)
 5303      000000
 5304 2751 C745E002 		movl	$2, -32(%rbp)
 5304      000000
 5305 2758 C745E402 		movl	$2, -28(%rbp)
 5305      000000
 199:TestChecks.cpp ****     CheckArrayEqual(results, array1, array2, 3, TestDetails("", "", "", 0));
 5306              		.loc 5 199 49
 5307 275f 488D45B0 		leaq	-80(%rbp), %rax
 5308 2763 41B80000 		movl	$0, %r8d
 5308      0000
 5309 2769 488D1500 		leaq	.LC6(%rip), %rdx
 5309      000000
 5310 2770 4889D1   		movq	%rdx, %rcx
 5311 2773 488D1500 		leaq	.LC6(%rip), %rdx
 5311      000000
 5312 277a 488D3500 		leaq	.LC6(%rip), %rsi
 5312      000000
 5313 2781 4889C7   		movq	%rax, %rdi
 5314 2784 E8000000 		call	_ZN8UnitTest11TestDetailsC1EPKcS2_S2_i@PLT
 5314      00
 5315              		.loc 5 199 20
 5316 2789 488D4DB0 		leaq	-80(%rbp), %rcx
 5317 278d 488D55DC 		leaq	-36(%rbp), %rdx
 5318 2791 488D75D0 		leaq	-48(%rbp), %rsi
 5319 2795 488D4590 		leaq	-112(%rbp), %rax
 5320 2799 4989C8   		movq	%rcx, %r8
 5321 279c B9030000 		movl	$3, %ecx
 5321      00
 5322 27a1 4889C7   		movq	%rax, %rdi
 5323 27a4 E8000000 		call	_ZN8UnitTest15CheckArrayEqualIA3_iS1_EEvRNS_11TestResultsERKT_RKT0_iRKNS_11TestDetailsE
 5323      00
 5324              	.LEHE123:
 5325              	.LEHB124:
 200:TestChecks.cpp ****     CHECK_EQUAL(1, results.GetFailureCount());
 5326              		.loc 5 200 5
 5327 27a9 E8000000 		call	_ZN8UnitTest11CurrentTest7DetailsEv@PLT
 5327      00
 5328 27ae 488B08   		movq	(%rax), %rcx
 5329 27b1 488D45B0 		leaq	-80(%rbp), %rax
 5330 27b5 BAC80000 		movl	$200, %edx
 5330      00
 5331 27ba 4889CE   		movq	%rcx, %rsi
 5332 27bd 4889C7   		movq	%rax, %rdi
 5333 27c0 E8000000 		call	_ZN8UnitTest11TestDetailsC1ERKS0_i@PLT
 5333      00
 5334              		.loc 5 200 5 is_stmt 0 discriminator 4
 5335 27c5 488D4590 		leaq	-112(%rbp), %rax
 5336 27c9 4889C7   		movq	%rax, %rdi
 5337 27cc E8000000 		call	_ZNK8UnitTest11TestResults15GetFailureCountEv@PLT
 5337      00
 5338 27d1 89458C   		movl	%eax, -116(%rbp)
 5339 27d4 C7458801 		movl	$1, -120(%rbp)
 5339      000000
 5340 27db E8000000 		call	_ZN8UnitTest11CurrentTest7ResultsEv@PLT
 5340      00
 5341              		.loc 5 200 5 discriminator 6
 5342 27e0 488B00   		movq	(%rax), %rax
 5343 27e3 488D4DB0 		leaq	-80(%rbp), %rcx
 5344 27e7 488D558C 		leaq	-116(%rbp), %rdx
 5345 27eb 488D7588 		leaq	-120(%rbp), %rsi
 5346 27ef 4889C7   		movq	%rax, %rdi
 5347 27f2 E8000000 		call	_ZN8UnitTest10CheckEqualIiiEEvRNS_11TestResultsERKT_RKT0_RKNS_11TestDetailsE
 5347      00
 5348              	.LEHE124:
 201:TestChecks.cpp **** }
 5349              		.loc 5 201 1 is_stmt 1
 5350 27f7 EB64     		jmp	.L215
 5351              	.L220:
 5352 27f9 F30F1EFA 		endbr64
 200:TestChecks.cpp ****     CHECK_EQUAL(1, results.GetFailureCount());
 5353              		.loc 5 200 5
 5354 27fd 4889C7   		movq	%rax, %rdi
 5355 2800 E8000000 		call	__cxa_begin_catch@PLT
 5355      00
 5356              	.LEHB125:
 5357 2805 E8000000 		call	_ZN8UnitTest11CurrentTest7ResultsEv@PLT
 5357      00
 200:TestChecks.cpp ****     CHECK_EQUAL(1, results.GetFailureCount());
 5358              		.loc 5 200 5 is_stmt 0 discriminator 3
 5359 280a 488B18   		movq	(%rax), %rbx
 5360 280d E8000000 		call	_ZN8UnitTest11CurrentTest7DetailsEv@PLT
 5360      00
 200:TestChecks.cpp ****     CHECK_EQUAL(1, results.GetFailureCount());
 5361              		.loc 5 200 5 discriminator 13
 5362 2812 488B08   		movq	(%rax), %rcx
 5363 2815 488D45B0 		leaq	-80(%rbp), %rax
 5364 2819 BAC80000 		movl	$200, %edx
 5364      00
 5365 281e 4889CE   		movq	%rcx, %rsi
 5366 2821 4889C7   		movq	%rax, %rdi
 5367 2824 E8000000 		call	_ZN8UnitTest11TestDetailsC1ERKS0_i@PLT
 5367      00
 200:TestChecks.cpp ****     CHECK_EQUAL(1, results.GetFailureCount());
 5368              		.loc 5 200 5 discriminator 17
 5369 2829 488D45B0 		leaq	-80(%rbp), %rax
 5370 282d 488D1500 		leaq	.LC7(%rip), %rdx
 5370      000000
 5371 2834 4889C6   		movq	%rax, %rsi
 5372 2837 4889DF   		movq	%rbx, %rdi
 5373 283a E8000000 		call	_ZN8UnitTest11TestResults13OnTestFailureERKNS_11TestDetailsEPKc@PLT
 5373      00
 5374              	.LEHE125:
 5375              	.LEHB126:
 200:TestChecks.cpp ****     CHECK_EQUAL(1, results.GetFailureCount());
 5376              		.loc 5 200 5 discriminator 19
 5377 283f E8000000 		call	__cxa_end_catch@PLT
 5377      00
 5378              	.LEHE126:
 5379              		.loc 5 201 1 is_stmt 1 discriminator 19
 5380 2844 EB17     		jmp	.L215
 5381              	.L221:
 5382 2846 F30F1EFA 		endbr64
 200:TestChecks.cpp ****     CHECK_EQUAL(1, results.GetFailureCount());
 5383              		.loc 5 200 5
 5384 284a 4889C3   		movq	%rax, %rbx
 5385 284d E8000000 		call	__cxa_end_catch@PLT
 5385      00
 5386 2852 4889D8   		movq	%rbx, %rax
 5387 2855 4889C7   		movq	%rax, %rdi
 5388              	.LEHB127:
 5389 2858 E8000000 		call	_Unwind_Resume@PLT
 5389      00
 5390              	.LEHE127:
 5391              	.L215:
 5392              		.loc 5 201 1
 5393 285d 488B45E8 		movq	-24(%rbp), %rax
 5394 2861 64482B04 		subq	%fs:40, %rax
 5394      25280000 
 5394      00
 5395 286a 7405     		je	.L219
 5396 286c E8000000 		call	__stack_chk_fail@PLT
 5396      00
 5397              	.L219:
 5398 2871 488B5DF8 		movq	-8(%rbp), %rbx
 5399 2875 C9       		leave
 5400              		.cfi_def_cfa 7, 8
 5401 2876 C3       		ret
 5402              		.cfi_endproc
 5403              	.LFE1226:
 5404              		.section	.gcc_except_table
 5405              		.align 4
 5406              	.LLSDA1226:
 5407 037c FF       		.byte	0xff
 5408 037d 9B       		.byte	0x9b
 5409 037e 25       		.uleb128 .LLSDATT1226-.LLSDATTD1226
 5410              	.LLSDATTD1226:
 5411 037f 01       		.byte	0x1
 5412 0380 1A       		.uleb128 .LLSDACSE1226-.LLSDACSB1226
 5413              	.LLSDACSB1226:
 5414 0381 32       		.uleb128 .LEHB123-.LFB1226
 5415 0382 79       		.uleb128 .LEHE123-.LEHB123
 5416 0383 00       		.uleb128 0
 5417 0384 00       		.uleb128 0
 5418 0385 AB01     		.uleb128 .LEHB124-.LFB1226
 5419 0387 4E       		.uleb128 .LEHE124-.LEHB124
 5420 0388 FB01     		.uleb128 .L220-.LFB1226
 5421 038a 01       		.uleb128 0x1
 5422 038b 8702     		.uleb128 .LEHB125-.LFB1226
 5423 038d 3A       		.uleb128 .LEHE125-.LEHB125
 5424 038e C802     		.uleb128 .L221-.LFB1226
 5425 0390 00       		.uleb128 0
 5426 0391 C102     		.uleb128 .LEHB126-.LFB1226
 5427 0393 05       		.uleb128 .LEHE126-.LEHB126
 5428 0394 00       		.uleb128 0
 5429 0395 00       		.uleb128 0
 5430 0396 DA02     		.uleb128 .LEHB127-.LFB1226
 5431 0398 05       		.uleb128 .LEHE127-.LEHB127
 5432 0399 00       		.uleb128 0
 5433 039a 00       		.uleb128 0
 5434              	.LLSDACSE1226:
 5435 039b 01       		.byte	0x1
 5436 039c 00       		.byte	0
 5437 039d 000000   		.align 4
 5438 03a0 00000000 		.long	0
 5439              	
 5440              	.LLSDATT1226:
 5441              		.text
 5443              		.section	.rodata
 5444              	.LC59:
 5445 0849 43686563 		.string	"CheckArrayCloseTrue"
 5445      6B417272 
 5445      6179436C 
 5445      6F736554 
 5445      72756500 
 5446              		.text
 5447 2877 90       		.align 2
 5449              	_ZN12_GLOBAL__N_123TestCheckArrayCloseTrueC2Ev:
 5450              	.LFB1228:
 202:TestChecks.cpp **** 
 203:TestChecks.cpp **** TEST(CheckArrayCloseTrue)
 5451              		.loc 5 203 1
 5452              		.cfi_startproc
 5453 2878 55       		pushq	%rbp
 5454              		.cfi_def_cfa_offset 16
 5455              		.cfi_offset 6, -16
 5456 2879 4889E5   		movq	%rsp, %rbp
 5457              		.cfi_def_cfa_register 6
 5458 287c 53       		pushq	%rbx
 5459 287d 4883EC18 		subq	$24, %rsp
 5460              		.cfi_offset 3, -24
 5461 2881 48897DE8 		movq	%rdi, -24(%rbp)
 5462              	.LBB25:
 5463              		.loc 5 203 1
 5464 2885 488B5DE8 		movq	-24(%rbp), %rbx
 5465 2889 E8000000 		call	_ZN13UnitTestSuite12GetSuiteNameEv
 5465      00
 5466 288e 4889C2   		movq	%rax, %rdx
 5467 2891 41B8CB00 		movl	$203, %r8d
 5467      0000
 5468 2897 488D0500 		leaq	.LC2(%rip), %rax
 5468      000000
 5469 289e 4889C1   		movq	%rax, %rcx
 5470 28a1 488D0500 		leaq	.LC59(%rip), %rax
 5470      000000
 5471 28a8 4889C6   		movq	%rax, %rsi
 5472 28ab 4889DF   		movq	%rbx, %rdi
 5473 28ae E8000000 		call	_ZN8UnitTest4TestC2EPKcS2_S2_i@PLT
 5473      00
 5474 28b3 488D1500 		leaq	16+_ZTVN12_GLOBAL__N_123TestCheckArrayCloseTrueE(%rip), %rdx
 5474      000000
 5475 28ba 488B45E8 		movq	-24(%rbp), %rax
 5476 28be 488910   		movq	%rdx, (%rax)
 5477              	.LBE25:
 5478 28c1 90       		nop
 5479 28c2 488B5DF8 		movq	-8(%rbp), %rbx
 5480 28c6 C9       		leave
 5481              		.cfi_def_cfa 7, 8
 5482 28c7 C3       		ret
 5483              		.cfi_endproc
 5484              	.LFE1228:
 5486              		.set	_ZN12_GLOBAL__N_123TestCheckArrayCloseTrueC1Ev,_ZN12_GLOBAL__N_123TestCheckArrayCloseTrueC2Ev
 5487              		.local	_ZN12_GLOBAL__N_131testCheckArrayCloseTrueInstanceE
 5488              		.comm	_ZN12_GLOBAL__N_131testCheckArrayCloseTrueInstanceE,56,32
 5489              		.local	_ZN12_GLOBAL__N_124adderCheckArrayCloseTrueE
 5490              		.comm	_ZN12_GLOBAL__N_124adderCheckArrayCloseTrueE,1,1
 5491              		.align 2
 5493              	_ZNK12_GLOBAL__N_123TestCheckArrayCloseTrue7RunImplEv:
 5494              	.LFB1230:
 204:TestChecks.cpp **** {
 5495              		.loc 5 204 1
 5496              		.cfi_startproc
 5497              		.cfi_personality 0x9b,DW.ref.__gxx_personality_v0
 5498              		.cfi_lsda 0x1b,.LLSDA1230
 5499 28c8 F30F1EFA 		endbr64
 5500 28cc 55       		pushq	%rbp
 5501              		.cfi_def_cfa_offset 16
 5502              		.cfi_offset 6, -16
 5503 28cd 4889E5   		movq	%rsp, %rbp
 5504              		.cfi_def_cfa_register 6
 5505 28d0 53       		pushq	%rbx
 5506 28d1 4881EC88 		subq	$136, %rsp
 5506      000000
 5507              		.cfi_offset 3, -24
 5508 28d8 4889BD78 		movq	%rdi, -136(%rbp)
 5508      FFFFFF
 5509              		.loc 5 204 1
 5510 28df 64488B04 		movq	%fs:40, %rax
 5510      25280000 
 5510      00
 5511 28e8 488945E8 		movq	%rax, -24(%rbp)
 5512 28ec 31C0     		xorl	%eax, %eax
 205:TestChecks.cpp ****     TestResults results;
 5513              		.loc 5 205 17
 5514 28ee 488D4590 		leaq	-112(%rbp), %rax
 5515 28f2 BE000000 		movl	$0, %esi
 5515      00
 5516 28f7 4889C7   		movq	%rax, %rdi
 5517              	.LEHB128:
 5518 28fa E8000000 		call	_ZN8UnitTest11TestResultsC1EPNS_12TestReporterE@PLT
 5518      00
 206:TestChecks.cpp **** 
 207:TestChecks.cpp ****     float const array1[3] = { 1.0f, 1.5f, 2.0f };
 5519              		.loc 5 207 17
 5520 28ff F30F1005 		movss	.LC60(%rip), %xmm0
 5520      00000000 
 5521 2907 F30F1145 		movss	%xmm0, -48(%rbp)
 5521      D0
 5522 290c F30F1005 		movss	.LC61(%rip), %xmm0
 5522      00000000 
 5523 2914 F30F1145 		movss	%xmm0, -44(%rbp)
 5523      D4
 5524 2919 F30F1005 		movss	.LC62(%rip), %xmm0
 5524      00000000 
 5525 2921 F30F1145 		movss	%xmm0, -40(%rbp)
 5525      D8
 208:TestChecks.cpp ****     float const array2[3] = { 1.01f, 1.51f, 2.01f };
 5526              		.loc 5 208 17
 5527 2926 F30F1005 		movss	.LC63(%rip), %xmm0
 5527      00000000 
 5528 292e F30F1145 		movss	%xmm0, -36(%rbp)
 5528      DC
 5529 2933 F30F1005 		movss	.LC64(%rip), %xmm0
 5529      00000000 
 5530 293b F30F1145 		movss	%xmm0, -32(%rbp)
 5530      E0
 5531 2940 F30F1005 		movss	.LC65(%rip), %xmm0
 5531      00000000 
 5532 2948 F30F1145 		movss	%xmm0, -28(%rbp)
 5532      E4
 209:TestChecks.cpp ****     CheckArrayClose(results, array1, array2, 3, 0.02f, TestDetails("", "", "", 0));
 5533              		.loc 5 209 56
 5534 294d 488D45B0 		leaq	-80(%rbp), %rax
 5535 2951 41B80000 		movl	$0, %r8d
 5535      0000
 5536 2957 488D1500 		leaq	.LC6(%rip), %rdx
 5536      000000
 5537 295e 4889D1   		movq	%rdx, %rcx
 5538 2961 488D1500 		leaq	.LC6(%rip), %rdx
 5538      000000
 5539 2968 488D3500 		leaq	.LC6(%rip), %rsi
 5539      000000
 5540 296f 4889C7   		movq	%rax, %rdi
 5541 2972 E8000000 		call	_ZN8UnitTest11TestDetailsC1EPKcS2_S2_i@PLT
 5541      00
 5542              		.loc 5 209 49
 5543 2977 F30F1005 		movss	.LC66(%rip), %xmm0
 5543      00000000 
 5544 297f F30F1145 		movss	%xmm0, -116(%rbp)
 5544      8C
 5545              		.loc 5 209 20
 5546 2984 488D7DB0 		leaq	-80(%rbp), %rdi
 5547 2988 488D4D8C 		leaq	-116(%rbp), %rcx
 5548 298c 488D55DC 		leaq	-36(%rbp), %rdx
 5549 2990 488D75D0 		leaq	-48(%rbp), %rsi
 5550 2994 488D4590 		leaq	-112(%rbp), %rax
 5551 2998 4989F9   		movq	%rdi, %r9
 5552 299b 4989C8   		movq	%rcx, %r8
 5553 299e B9030000 		movl	$3, %ecx
 5553      00
 5554 29a3 4889C7   		movq	%rax, %rdi
 5555 29a6 E8000000 		call	_ZN8UnitTest15CheckArrayCloseIA3_fS1_fEEvRNS_11TestResultsERKT_RKT0_iRKT1_RKNS_11TestDetailsE
 5555      00
 5556              	.LEHE128:
 5557              	.LEHB129:
 210:TestChecks.cpp ****     CHECK_EQUAL(0, results.GetFailureCount());
 5558              		.loc 5 210 5
 5559 29ab E8000000 		call	_ZN8UnitTest11CurrentTest7DetailsEv@PLT
 5559      00
 5560 29b0 488B08   		movq	(%rax), %rcx
 5561 29b3 488D45B0 		leaq	-80(%rbp), %rax
 5562 29b7 BAD20000 		movl	$210, %edx
 5562      00
 5563 29bc 4889CE   		movq	%rcx, %rsi
 5564 29bf 4889C7   		movq	%rax, %rdi
 5565 29c2 E8000000 		call	_ZN8UnitTest11TestDetailsC1ERKS0_i@PLT
 5565      00
 5566              		.loc 5 210 5 is_stmt 0 discriminator 4
 5567 29c7 488D4590 		leaq	-112(%rbp), %rax
 5568 29cb 4889C7   		movq	%rax, %rdi
 5569 29ce E8000000 		call	_ZNK8UnitTest11TestResults15GetFailureCountEv@PLT
 5569      00
 5570 29d3 89458C   		movl	%eax, -116(%rbp)
 5571 29d6 C7458800 		movl	$0, -120(%rbp)
 5571      000000
 5572 29dd E8000000 		call	_ZN8UnitTest11CurrentTest7ResultsEv@PLT
 5572      00
 5573              		.loc 5 210 5 discriminator 6
 5574 29e2 488B00   		movq	(%rax), %rax
 5575 29e5 488D4DB0 		leaq	-80(%rbp), %rcx
 5576 29e9 488D558C 		leaq	-116(%rbp), %rdx
 5577 29ed 488D7588 		leaq	-120(%rbp), %rsi
 5578 29f1 4889C7   		movq	%rax, %rdi
 5579 29f4 E8000000 		call	_ZN8UnitTest10CheckEqualIiiEEvRNS_11TestResultsERKT_RKT0_RKNS_11TestDetailsE
 5579      00
 5580              	.LEHE129:
 211:TestChecks.cpp **** }
 5581              		.loc 5 211 1 is_stmt 1
 5582 29f9 EB64     		jmp	.L223
 5583              	.L228:
 5584 29fb F30F1EFA 		endbr64
 210:TestChecks.cpp ****     CHECK_EQUAL(0, results.GetFailureCount());
 5585              		.loc 5 210 5
 5586 29ff 4889C7   		movq	%rax, %rdi
 5587 2a02 E8000000 		call	__cxa_begin_catch@PLT
 5587      00
 5588              	.LEHB130:
 5589 2a07 E8000000 		call	_ZN8UnitTest11CurrentTest7ResultsEv@PLT
 5589      00
 210:TestChecks.cpp ****     CHECK_EQUAL(0, results.GetFailureCount());
 5590              		.loc 5 210 5 is_stmt 0 discriminator 3
 5591 2a0c 488B18   		movq	(%rax), %rbx
 5592 2a0f E8000000 		call	_ZN8UnitTest11CurrentTest7DetailsEv@PLT
 5592      00
 210:TestChecks.cpp ****     CHECK_EQUAL(0, results.GetFailureCount());
 5593              		.loc 5 210 5 discriminator 13
 5594 2a14 488B08   		movq	(%rax), %rcx
 5595 2a17 488D45B0 		leaq	-80(%rbp), %rax
 5596 2a1b BAD20000 		movl	$210, %edx
 5596      00
 5597 2a20 4889CE   		movq	%rcx, %rsi
 5598 2a23 4889C7   		movq	%rax, %rdi
 5599 2a26 E8000000 		call	_ZN8UnitTest11TestDetailsC1ERKS0_i@PLT
 5599      00
 210:TestChecks.cpp ****     CHECK_EQUAL(0, results.GetFailureCount());
 5600              		.loc 5 210 5 discriminator 17
 5601 2a2b 488D45B0 		leaq	-80(%rbp), %rax
 5602 2a2f 488D1500 		leaq	.LC9(%rip), %rdx
 5602      000000
 5603 2a36 4889C6   		movq	%rax, %rsi
 5604 2a39 4889DF   		movq	%rbx, %rdi
 5605 2a3c E8000000 		call	_ZN8UnitTest11TestResults13OnTestFailureERKNS_11TestDetailsEPKc@PLT
 5605      00
 5606              	.LEHE130:
 5607              	.LEHB131:
 210:TestChecks.cpp ****     CHECK_EQUAL(0, results.GetFailureCount());
 5608              		.loc 5 210 5 discriminator 19
 5609 2a41 E8000000 		call	__cxa_end_catch@PLT
 5609      00
 5610              	.LEHE131:
 5611              		.loc 5 211 1 is_stmt 1 discriminator 19
 5612 2a46 EB17     		jmp	.L223
 5613              	.L229:
 5614 2a48 F30F1EFA 		endbr64
 210:TestChecks.cpp ****     CHECK_EQUAL(0, results.GetFailureCount());
 5615              		.loc 5 210 5
 5616 2a4c 4889C3   		movq	%rax, %rbx
 5617 2a4f E8000000 		call	__cxa_end_catch@PLT
 5617      00
 5618 2a54 4889D8   		movq	%rbx, %rax
 5619 2a57 4889C7   		movq	%rax, %rdi
 5620              	.LEHB132:
 5621 2a5a E8000000 		call	_Unwind_Resume@PLT
 5621      00
 5622              	.LEHE132:
 5623              	.L223:
 5624              		.loc 5 211 1
 5625 2a5f 488B45E8 		movq	-24(%rbp), %rax
 5626 2a63 64482B04 		subq	%fs:40, %rax
 5626      25280000 
 5626      00
 5627 2a6c 7405     		je	.L227
 5628 2a6e E8000000 		call	__stack_chk_fail@PLT
 5628      00
 5629              	.L227:
 5630 2a73 488B5DF8 		movq	-8(%rbp), %rbx
 5631 2a77 C9       		leave
 5632              		.cfi_def_cfa 7, 8
 5633 2a78 C3       		ret
 5634              		.cfi_endproc
 5635              	.LFE1230:
 5636              		.section	.gcc_except_table
 5637              		.align 4
 5638              	.LLSDA1230:
 5639 03a4 FF       		.byte	0xff
 5640 03a5 9B       		.byte	0x9b
 5641 03a6 25       		.uleb128 .LLSDATT1230-.LLSDATTD1230
 5642              	.LLSDATTD1230:
 5643 03a7 01       		.byte	0x1
 5644 03a8 1B       		.uleb128 .LLSDACSE1230-.LLSDACSB1230
 5645              	.LLSDACSB1230:
 5646 03a9 32       		.uleb128 .LEHB128-.LFB1230
 5647 03aa B101     		.uleb128 .LEHE128-.LEHB128
 5648 03ac 00       		.uleb128 0
 5649 03ad 00       		.uleb128 0
 5650 03ae E301     		.uleb128 .LEHB129-.LFB1230
 5651 03b0 4E       		.uleb128 .LEHE129-.LEHB129
 5652 03b1 B302     		.uleb128 .L228-.LFB1230
 5653 03b3 01       		.uleb128 0x1
 5654 03b4 BF02     		.uleb128 .LEHB130-.LFB1230
 5655 03b6 3A       		.uleb128 .LEHE130-.LEHB130
 5656 03b7 8003     		.uleb128 .L229-.LFB1230
 5657 03b9 00       		.uleb128 0
 5658 03ba F902     		.uleb128 .LEHB131-.LFB1230
 5659 03bc 05       		.uleb128 .LEHE131-.LEHB131
 5660 03bd 00       		.uleb128 0
 5661 03be 00       		.uleb128 0
 5662 03bf 9203     		.uleb128 .LEHB132-.LFB1230
 5663 03c1 05       		.uleb128 .LEHE132-.LEHB132
 5664 03c2 00       		.uleb128 0
 5665 03c3 00       		.uleb128 0
 5666              	.LLSDACSE1230:
 5667 03c4 01       		.byte	0x1
 5668 03c5 00       		.byte	0
 5669 03c6 0000     		.align 4
 5670 03c8 00000000 		.long	0
 5671              	
 5672              	.LLSDATT1230:
 5673              		.text
 5675              		.section	.rodata
 5676              	.LC67:
 5677 085d 43686563 		.string	"CheckArrayCloseFalse"
 5677      6B417272 
 5677      6179436C 
 5677      6F736546 
 5677      616C7365 
 5678              		.text
 5679 2a79 90       		.align 2
 5681              	_ZN12_GLOBAL__N_124TestCheckArrayCloseFalseC2Ev:
 5682              	.LFB1232:
 212:TestChecks.cpp **** 
 213:TestChecks.cpp **** TEST(CheckArrayCloseFalse)
 5683              		.loc 5 213 1
 5684              		.cfi_startproc
 5685 2a7a 55       		pushq	%rbp
 5686              		.cfi_def_cfa_offset 16
 5687              		.cfi_offset 6, -16
 5688 2a7b 4889E5   		movq	%rsp, %rbp
 5689              		.cfi_def_cfa_register 6
 5690 2a7e 53       		pushq	%rbx
 5691 2a7f 4883EC18 		subq	$24, %rsp
 5692              		.cfi_offset 3, -24
 5693 2a83 48897DE8 		movq	%rdi, -24(%rbp)
 5694              	.LBB26:
 5695              		.loc 5 213 1
 5696 2a87 488B5DE8 		movq	-24(%rbp), %rbx
 5697 2a8b E8000000 		call	_ZN13UnitTestSuite12GetSuiteNameEv
 5697      00
 5698 2a90 4889C2   		movq	%rax, %rdx
 5699 2a93 41B8D500 		movl	$213, %r8d
 5699      0000
 5700 2a99 488D0500 		leaq	.LC2(%rip), %rax
 5700      000000
 5701 2aa0 4889C1   		movq	%rax, %rcx
 5702 2aa3 488D0500 		leaq	.LC67(%rip), %rax
 5702      000000
 5703 2aaa 4889C6   		movq	%rax, %rsi
 5704 2aad 4889DF   		movq	%rbx, %rdi
 5705 2ab0 E8000000 		call	_ZN8UnitTest4TestC2EPKcS2_S2_i@PLT
 5705      00
 5706 2ab5 488D1500 		leaq	16+_ZTVN12_GLOBAL__N_124TestCheckArrayCloseFalseE(%rip), %rdx
 5706      000000
 5707 2abc 488B45E8 		movq	-24(%rbp), %rax
 5708 2ac0 488910   		movq	%rdx, (%rax)
 5709              	.LBE26:
 5710 2ac3 90       		nop
 5711 2ac4 488B5DF8 		movq	-8(%rbp), %rbx
 5712 2ac8 C9       		leave
 5713              		.cfi_def_cfa 7, 8
 5714 2ac9 C3       		ret
 5715              		.cfi_endproc
 5716              	.LFE1232:
 5718              		.set	_ZN12_GLOBAL__N_124TestCheckArrayCloseFalseC1Ev,_ZN12_GLOBAL__N_124TestCheckArrayCloseFalseC2
 5719              		.local	_ZN12_GLOBAL__N_132testCheckArrayCloseFalseInstanceE
 5720              		.comm	_ZN12_GLOBAL__N_132testCheckArrayCloseFalseInstanceE,56,32
 5721              		.local	_ZN12_GLOBAL__N_125adderCheckArrayCloseFalseE
 5722              		.comm	_ZN12_GLOBAL__N_125adderCheckArrayCloseFalseE,1,1
 5723              		.align 2
 5725              	_ZNK12_GLOBAL__N_124TestCheckArrayCloseFalse7RunImplEv:
 5726              	.LFB1234:
 214:TestChecks.cpp **** {
 5727              		.loc 5 214 1
 5728              		.cfi_startproc
 5729              		.cfi_personality 0x9b,DW.ref.__gxx_personality_v0
 5730              		.cfi_lsda 0x1b,.LLSDA1234
 5731 2aca F30F1EFA 		endbr64
 5732 2ace 55       		pushq	%rbp
 5733              		.cfi_def_cfa_offset 16
 5734              		.cfi_offset 6, -16
 5735 2acf 4889E5   		movq	%rsp, %rbp
 5736              		.cfi_def_cfa_register 6
 5737 2ad2 53       		pushq	%rbx
 5738 2ad3 4881EC88 		subq	$136, %rsp
 5738      000000
 5739              		.cfi_offset 3, -24
 5740 2ada 4889BD78 		movq	%rdi, -136(%rbp)
 5740      FFFFFF
 5741              		.loc 5 214 1
 5742 2ae1 64488B04 		movq	%fs:40, %rax
 5742      25280000 
 5742      00
 5743 2aea 488945E8 		movq	%rax, -24(%rbp)
 5744 2aee 31C0     		xorl	%eax, %eax
 215:TestChecks.cpp ****     TestResults results;
 5745              		.loc 5 215 17
 5746 2af0 488D4590 		leaq	-112(%rbp), %rax
 5747 2af4 BE000000 		movl	$0, %esi
 5747      00
 5748 2af9 4889C7   		movq	%rax, %rdi
 5749              	.LEHB133:
 5750 2afc E8000000 		call	_ZN8UnitTest11TestResultsC1EPNS_12TestReporterE@PLT
 5750      00
 216:TestChecks.cpp **** 
 217:TestChecks.cpp ****     float const array1[3] = { 1.0f, 1.5f, 2.0f };
 5751              		.loc 5 217 17
 5752 2b01 F30F1005 		movss	.LC60(%rip), %xmm0
 5752      00000000 
 5753 2b09 F30F1145 		movss	%xmm0, -48(%rbp)
 5753      D0
 5754 2b0e F30F1005 		movss	.LC61(%rip), %xmm0
 5754      00000000 
 5755 2b16 F30F1145 		movss	%xmm0, -44(%rbp)
 5755      D4
 5756 2b1b F30F1005 		movss	.LC62(%rip), %xmm0
 5756      00000000 
 5757 2b23 F30F1145 		movss	%xmm0, -40(%rbp)
 5757      D8
 218:TestChecks.cpp ****     float const array2[3] = { 1.01f, 1.51f, 2.01f };
 5758              		.loc 5 218 17
 5759 2b28 F30F1005 		movss	.LC63(%rip), %xmm0
 5759      00000000 
 5760 2b30 F30F1145 		movss	%xmm0, -36(%rbp)
 5760      DC
 5761 2b35 F30F1005 		movss	.LC64(%rip), %xmm0
 5761      00000000 
 5762 2b3d F30F1145 		movss	%xmm0, -32(%rbp)
 5762      E0
 5763 2b42 F30F1005 		movss	.LC65(%rip), %xmm0
 5763      00000000 
 5764 2b4a F30F1145 		movss	%xmm0, -28(%rbp)
 5764      E4
 219:TestChecks.cpp ****     CheckArrayClose(results, array1, array2, 3, 0.001f, TestDetails("", "", "", 0));
 5765              		.loc 5 219 57
 5766 2b4f 488D45B0 		leaq	-80(%rbp), %rax
 5767 2b53 41B80000 		movl	$0, %r8d
 5767      0000
 5768 2b59 488D1500 		leaq	.LC6(%rip), %rdx
 5768      000000
 5769 2b60 4889D1   		movq	%rdx, %rcx
 5770 2b63 488D1500 		leaq	.LC6(%rip), %rdx
 5770      000000
 5771 2b6a 488D3500 		leaq	.LC6(%rip), %rsi
 5771      000000
 5772 2b71 4889C7   		movq	%rax, %rdi
 5773 2b74 E8000000 		call	_ZN8UnitTest11TestDetailsC1EPKcS2_S2_i@PLT
 5773      00
 5774              		.loc 5 219 49
 5775 2b79 F30F1005 		movss	.LC68(%rip), %xmm0
 5775      00000000 
 5776 2b81 F30F1145 		movss	%xmm0, -116(%rbp)
 5776      8C
 5777              		.loc 5 219 20
 5778 2b86 488D7DB0 		leaq	-80(%rbp), %rdi
 5779 2b8a 488D4D8C 		leaq	-116(%rbp), %rcx
 5780 2b8e 488D55DC 		leaq	-36(%rbp), %rdx
 5781 2b92 488D75D0 		leaq	-48(%rbp), %rsi
 5782 2b96 488D4590 		leaq	-112(%rbp), %rax
 5783 2b9a 4989F9   		movq	%rdi, %r9
 5784 2b9d 4989C8   		movq	%rcx, %r8
 5785 2ba0 B9030000 		movl	$3, %ecx
 5785      00
 5786 2ba5 4889C7   		movq	%rax, %rdi
 5787 2ba8 E8000000 		call	_ZN8UnitTest15CheckArrayCloseIA3_fS1_fEEvRNS_11TestResultsERKT_RKT0_iRKT1_RKNS_11TestDetailsE
 5787      00
 5788              	.LEHE133:
 5789              	.LEHB134:
 220:TestChecks.cpp ****     CHECK_EQUAL(1, results.GetFailureCount());
 5790              		.loc 5 220 5
 5791 2bad E8000000 		call	_ZN8UnitTest11CurrentTest7DetailsEv@PLT
 5791      00
 5792 2bb2 488B08   		movq	(%rax), %rcx
 5793 2bb5 488D45B0 		leaq	-80(%rbp), %rax
 5794 2bb9 BADC0000 		movl	$220, %edx
 5794      00
 5795 2bbe 4889CE   		movq	%rcx, %rsi
 5796 2bc1 4889C7   		movq	%rax, %rdi
 5797 2bc4 E8000000 		call	_ZN8UnitTest11TestDetailsC1ERKS0_i@PLT
 5797      00
 5798              		.loc 5 220 5 is_stmt 0 discriminator 4
 5799 2bc9 488D4590 		leaq	-112(%rbp), %rax
 5800 2bcd 4889C7   		movq	%rax, %rdi
 5801 2bd0 E8000000 		call	_ZNK8UnitTest11TestResults15GetFailureCountEv@PLT
 5801      00
 5802 2bd5 89458C   		movl	%eax, -116(%rbp)
 5803 2bd8 C7458801 		movl	$1, -120(%rbp)
 5803      000000
 5804 2bdf E8000000 		call	_ZN8UnitTest11CurrentTest7ResultsEv@PLT
 5804      00
 5805              		.loc 5 220 5 discriminator 6
 5806 2be4 488B00   		movq	(%rax), %rax
 5807 2be7 488D4DB0 		leaq	-80(%rbp), %rcx
 5808 2beb 488D558C 		leaq	-116(%rbp), %rdx
 5809 2bef 488D7588 		leaq	-120(%rbp), %rsi
 5810 2bf3 4889C7   		movq	%rax, %rdi
 5811 2bf6 E8000000 		call	_ZN8UnitTest10CheckEqualIiiEEvRNS_11TestResultsERKT_RKT0_RKNS_11TestDetailsE
 5811      00
 5812              	.LEHE134:
 221:TestChecks.cpp **** }
 5813              		.loc 5 221 1 is_stmt 1
 5814 2bfb EB64     		jmp	.L231
 5815              	.L236:
 5816 2bfd F30F1EFA 		endbr64
 220:TestChecks.cpp ****     CHECK_EQUAL(1, results.GetFailureCount());
 5817              		.loc 5 220 5
 5818 2c01 4889C7   		movq	%rax, %rdi
 5819 2c04 E8000000 		call	__cxa_begin_catch@PLT
 5819      00
 5820              	.LEHB135:
 5821 2c09 E8000000 		call	_ZN8UnitTest11CurrentTest7ResultsEv@PLT
 5821      00
 220:TestChecks.cpp ****     CHECK_EQUAL(1, results.GetFailureCount());
 5822              		.loc 5 220 5 is_stmt 0 discriminator 3
 5823 2c0e 488B18   		movq	(%rax), %rbx
 5824 2c11 E8000000 		call	_ZN8UnitTest11CurrentTest7DetailsEv@PLT
 5824      00
 220:TestChecks.cpp ****     CHECK_EQUAL(1, results.GetFailureCount());
 5825              		.loc 5 220 5 discriminator 13
 5826 2c16 488B08   		movq	(%rax), %rcx
 5827 2c19 488D45B0 		leaq	-80(%rbp), %rax
 5828 2c1d BADC0000 		movl	$220, %edx
 5828      00
 5829 2c22 4889CE   		movq	%rcx, %rsi
 5830 2c25 4889C7   		movq	%rax, %rdi
 5831 2c28 E8000000 		call	_ZN8UnitTest11TestDetailsC1ERKS0_i@PLT
 5831      00
 220:TestChecks.cpp ****     CHECK_EQUAL(1, results.GetFailureCount());
 5832              		.loc 5 220 5 discriminator 17
 5833 2c2d 488D45B0 		leaq	-80(%rbp), %rax
 5834 2c31 488D1500 		leaq	.LC7(%rip), %rdx
 5834      000000
 5835 2c38 4889C6   		movq	%rax, %rsi
 5836 2c3b 4889DF   		movq	%rbx, %rdi
 5837 2c3e E8000000 		call	_ZN8UnitTest11TestResults13OnTestFailureERKNS_11TestDetailsEPKc@PLT
 5837      00
 5838              	.LEHE135:
 5839              	.LEHB136:
 220:TestChecks.cpp ****     CHECK_EQUAL(1, results.GetFailureCount());
 5840              		.loc 5 220 5 discriminator 19
 5841 2c43 E8000000 		call	__cxa_end_catch@PLT
 5841      00
 5842              	.LEHE136:
 5843              		.loc 5 221 1 is_stmt 1 discriminator 19
 5844 2c48 EB17     		jmp	.L231
 5845              	.L237:
 5846 2c4a F30F1EFA 		endbr64
 220:TestChecks.cpp ****     CHECK_EQUAL(1, results.GetFailureCount());
 5847              		.loc 5 220 5
 5848 2c4e 4889C3   		movq	%rax, %rbx
 5849 2c51 E8000000 		call	__cxa_end_catch@PLT
 5849      00
 5850 2c56 4889D8   		movq	%rbx, %rax
 5851 2c59 4889C7   		movq	%rax, %rdi
 5852              	.LEHB137:
 5853 2c5c E8000000 		call	_Unwind_Resume@PLT
 5853      00
 5854              	.LEHE137:
 5855              	.L231:
 5856              		.loc 5 221 1
 5857 2c61 488B45E8 		movq	-24(%rbp), %rax
 5858 2c65 64482B04 		subq	%fs:40, %rax
 5858      25280000 
 5858      00
 5859 2c6e 7405     		je	.L235
 5860 2c70 E8000000 		call	__stack_chk_fail@PLT
 5860      00
 5861              	.L235:
 5862 2c75 488B5DF8 		movq	-8(%rbp), %rbx
 5863 2c79 C9       		leave
 5864              		.cfi_def_cfa 7, 8
 5865 2c7a C3       		ret
 5866              		.cfi_endproc
 5867              	.LFE1234:
 5868              		.section	.gcc_except_table
 5869              		.align 4
 5870              	.LLSDA1234:
 5871 03cc FF       		.byte	0xff
 5872 03cd 9B       		.byte	0x9b
 5873 03ce 25       		.uleb128 .LLSDATT1234-.LLSDATTD1234
 5874              	.LLSDATTD1234:
 5875 03cf 01       		.byte	0x1
 5876 03d0 1B       		.uleb128 .LLSDACSE1234-.LLSDACSB1234
 5877              	.LLSDACSB1234:
 5878 03d1 32       		.uleb128 .LEHB133-.LFB1234
 5879 03d2 B101     		.uleb128 .LEHE133-.LEHB133
 5880 03d4 00       		.uleb128 0
 5881 03d5 00       		.uleb128 0
 5882 03d6 E301     		.uleb128 .LEHB134-.LFB1234
 5883 03d8 4E       		.uleb128 .LEHE134-.LEHB134
 5884 03d9 B302     		.uleb128 .L236-.LFB1234
 5885 03db 01       		.uleb128 0x1
 5886 03dc BF02     		.uleb128 .LEHB135-.LFB1234
 5887 03de 3A       		.uleb128 .LEHE135-.LEHB135
 5888 03df 8003     		.uleb128 .L237-.LFB1234
 5889 03e1 00       		.uleb128 0
 5890 03e2 F902     		.uleb128 .LEHB136-.LFB1234
 5891 03e4 05       		.uleb128 .LEHE136-.LEHB136
 5892 03e5 00       		.uleb128 0
 5893 03e6 00       		.uleb128 0
 5894 03e7 9203     		.uleb128 .LEHB137-.LFB1234
 5895 03e9 05       		.uleb128 .LEHE137-.LEHB137
 5896 03ea 00       		.uleb128 0
 5897 03eb 00       		.uleb128 0
 5898              	.LLSDACSE1234:
 5899 03ec 01       		.byte	0x1
 5900 03ed 00       		.byte	0
 5901 03ee 0000     		.align 4
 5902 03f0 00000000 		.long	0
 5903              	
 5904              	.LLSDATT1234:
 5905              		.text
 5907              		.section	.rodata
 5908 0872 00000000 		.align 8
 5908      0000
 5909              	.LC69:
 5910 0878 43686563 		.string	"CheckArrayCloseFailureIncludesDetails"
 5910      6B417272 
 5910      6179436C 
 5910      6F736546 
 5910      61696C75 
 5911              		.text
 5912 2c7b 90       		.align 2
 5914              	_ZN12_GLOBAL__N_141TestCheckArrayCloseFailureIncludesDetailsC2Ev:
 5915              	.LFB1236:
 222:TestChecks.cpp **** 
 223:TestChecks.cpp **** TEST(CheckArrayCloseFailureIncludesDetails)
 5916              		.loc 5 223 1
 5917              		.cfi_startproc
 5918 2c7c 55       		pushq	%rbp
 5919              		.cfi_def_cfa_offset 16
 5920              		.cfi_offset 6, -16
 5921 2c7d 4889E5   		movq	%rsp, %rbp
 5922              		.cfi_def_cfa_register 6
 5923 2c80 53       		pushq	%rbx
 5924 2c81 4883EC18 		subq	$24, %rsp
 5925              		.cfi_offset 3, -24
 5926 2c85 48897DE8 		movq	%rdi, -24(%rbp)
 5927              	.LBB27:
 5928              		.loc 5 223 1
 5929 2c89 488B5DE8 		movq	-24(%rbp), %rbx
 5930 2c8d E8000000 		call	_ZN13UnitTestSuite12GetSuiteNameEv
 5930      00
 5931 2c92 4889C2   		movq	%rax, %rdx
 5932 2c95 41B8DF00 		movl	$223, %r8d
 5932      0000
 5933 2c9b 488D0500 		leaq	.LC2(%rip), %rax
 5933      000000
 5934 2ca2 4889C1   		movq	%rax, %rcx
 5935 2ca5 488D0500 		leaq	.LC69(%rip), %rax
 5935      000000
 5936 2cac 4889C6   		movq	%rax, %rsi
 5937 2caf 4889DF   		movq	%rbx, %rdi
 5938 2cb2 E8000000 		call	_ZN8UnitTest4TestC2EPKcS2_S2_i@PLT
 5938      00
 5939 2cb7 488D1500 		leaq	16+_ZTVN12_GLOBAL__N_141TestCheckArrayCloseFailureIncludesDetailsE(%rip), %rdx
 5939      000000
 5940 2cbe 488B45E8 		movq	-24(%rbp), %rax
 5941 2cc2 488910   		movq	%rdx, (%rax)
 5942              	.LBE27:
 5943 2cc5 90       		nop
 5944 2cc6 488B5DF8 		movq	-8(%rbp), %rbx
 5945 2cca C9       		leave
 5946              		.cfi_def_cfa 7, 8
 5947 2ccb C3       		ret
 5948              		.cfi_endproc
 5949              	.LFE1236:
 5951              		.set	_ZN12_GLOBAL__N_141TestCheckArrayCloseFailureIncludesDetailsC1Ev,_ZN12_GLOBAL__N_141TestCheck
 5952              		.local	_ZN12_GLOBAL__N_149testCheckArrayCloseFailureIncludesDetailsInstanceE
 5953              		.comm	_ZN12_GLOBAL__N_149testCheckArrayCloseFailureIncludesDetailsInstanceE,56,32
 5954              		.local	_ZN12_GLOBAL__N_142adderCheckArrayCloseFailureIncludesDetailsE
 5955              		.comm	_ZN12_GLOBAL__N_142adderCheckArrayCloseFailureIncludesDetailsE,1,1
 5956              		.section	.rodata
 5957              	.LC70:
 5958 089e 66696C65 		.string	"file"
 5958      00
 5959              	.LC71:
 5960 08a3 61727261 		.string	"arrayCloseSuite"
 5960      79436C6F 
 5960      73655375 
 5960      69746500 
 5961              	.LC72:
 5962 08b3 61727261 		.string	"arrayCloseTest"
 5962      79436C6F 
 5962      73655465 
 5962      737400
 5963 08c2 00000000 		.align 8
 5963      0000
 5964              	.LC73:
 5965 08c8 556E6861 		.string	"Unhandled exception in CHECK_EQUAL(\"arrayCloseTest\", reporter.lastFailedTest)"
 5965      6E646C65 
 5965      64206578 
 5965      63657074 
 5965      696F6E20 
 5966 0916 0000     		.align 8
 5967              	.LC74:
 5968 0918 556E6861 		.string	"Unhandled exception in CHECK_EQUAL(\"arrayCloseSuite\", reporter.lastFailedSuite)"
 5968      6E646C65 
 5968      64206578 
 5968      63657074 
 5968      696F6E20 
 5969              		.align 8
 5970              	.LC75:
 5971 0968 556E6861 		.string	"Unhandled exception in CHECK_EQUAL(\"file\", reporter.lastFailedFile)"
 5971      6E646C65 
 5971      64206578 
 5971      63657074 
 5971      696F6E20 
 5972 09ac 00000000 		.align 8
 5973              	.LC76:
 5974 09b0 556E6861 		.string	"Unhandled exception in CHECK_EQUAL(1337, reporter.lastFailedLine)"
 5974      6E646C65 
 5974      64206578 
 5974      63657074 
 5974      696F6E20 
 5975              		.text
 5976              		.align 2
 5978              	_ZNK12_GLOBAL__N_141TestCheckArrayCloseFailureIncludesDetails7RunImplEv:
 5979              	.LFB1238:
 224:TestChecks.cpp **** {
 5980              		.loc 5 224 1
 5981              		.cfi_startproc
 5982              		.cfi_personality 0x9b,DW.ref.__gxx_personality_v0
 5983              		.cfi_lsda 0x1b,.LLSDA1238
 5984 2ccc F30F1EFA 		endbr64
 5985 2cd0 55       		pushq	%rbp
 5986              		.cfi_def_cfa_offset 16
 5987              		.cfi_offset 6, -16
 5988 2cd1 4889E5   		movq	%rsp, %rbp
 5989              		.cfi_def_cfa_register 6
 5990 2cd4 53       		pushq	%rbx
 5991 2cd5 4881ECE8 		subq	$2280, %rsp
 5991      080000
 5992              		.cfi_offset 3, -24
 5993 2cdc 4889BD18 		movq	%rdi, -2280(%rbp)
 5993      F7FFFF
 5994              		.loc 5 224 1
 5995 2ce3 64488B04 		movq	%fs:40, %rax
 5995      25280000 
 5995      00
 5996 2cec 488945E8 		movq	%rax, -24(%rbp)
 5997 2cf0 31C0     		xorl	%eax, %eax
 225:TestChecks.cpp ****     RecordingReporter reporter;
 5998              		.loc 5 225 23
 5999 2cf2 488D85B0 		leaq	-2128(%rbp), %rax
 5999      F7FFFF
 6000 2cf9 4889C7   		movq	%rax, %rdi
 6001 2cfc E8000000 		call	_ZN17RecordingReporterC1Ev
 6001      00
 226:TestChecks.cpp ****     TestResults results(&reporter);
 6002              		.loc 5 226 34
 6003 2d01 488D95B0 		leaq	-2128(%rbp), %rdx
 6003      F7FFFF
 6004 2d08 488D8530 		leaq	-2256(%rbp), %rax
 6004      F7FFFF
 6005 2d0f 4889D6   		movq	%rdx, %rsi
 6006 2d12 4889C7   		movq	%rax, %rdi
 6007              	.LEHB138:
 6008 2d15 E8000000 		call	_ZN8UnitTest11TestResultsC1EPNS_12TestReporterE@PLT
 6008      00
 227:TestChecks.cpp ****     TestDetails const details("arrayCloseTest", "arrayCloseSuite", "file", 1337);
 6009              		.loc 5 227 80
 6010 2d1a 488D8550 		leaq	-2224(%rbp), %rax
 6010      F7FFFF
 6011 2d21 41B83905 		movl	$1337, %r8d
 6011      0000
 6012 2d27 488D1500 		leaq	.LC70(%rip), %rdx
 6012      000000
 6013 2d2e 4889D1   		movq	%rdx, %rcx
 6014 2d31 488D1500 		leaq	.LC71(%rip), %rdx
 6014      000000
 6015 2d38 488D3500 		leaq	.LC72(%rip), %rsi
 6015      000000
 6016 2d3f 4889C7   		movq	%rax, %rdi
 6017 2d42 E8000000 		call	_ZN8UnitTest11TestDetailsC1EPKcS2_S2_i@PLT
 6017      00
 228:TestChecks.cpp **** 
 229:TestChecks.cpp ****     float const array1[3] = { 1.0f, 1.5f, 2.0f };
 6018              		.loc 5 229 17
 6019 2d47 F30F1005 		movss	.LC60(%rip), %xmm0
 6019      00000000 
 6020 2d4f F30F1185 		movss	%xmm0, -2152(%rbp)
 6020      98F7FFFF 
 6021 2d57 F30F1005 		movss	.LC61(%rip), %xmm0
 6021      00000000 
 6022 2d5f F30F1185 		movss	%xmm0, -2148(%rbp)
 6022      9CF7FFFF 
 6023 2d67 F30F1005 		movss	.LC62(%rip), %xmm0
 6023      00000000 
 6024 2d6f F30F1185 		movss	%xmm0, -2144(%rbp)
 6024      A0F7FFFF 
 230:TestChecks.cpp ****     float const array2[3] = { 1.01f, 1.51f, 2.01f };
 6025              		.loc 5 230 17
 6026 2d77 F30F1005 		movss	.LC63(%rip), %xmm0
 6026      00000000 
 6027 2d7f F30F1185 		movss	%xmm0, -2140(%rbp)
 6027      A4F7FFFF 
 6028 2d87 F30F1005 		movss	.LC64(%rip), %xmm0
 6028      00000000 
 6029 2d8f F30F1185 		movss	%xmm0, -2136(%rbp)
 6029      A8F7FFFF 
 6030 2d97 F30F1005 		movss	.LC65(%rip), %xmm0
 6030      00000000 
 6031 2d9f F30F1185 		movss	%xmm0, -2132(%rbp)
 6031      ACF7FFFF 
 231:TestChecks.cpp ****     CheckArrayClose(results, array1, array2, 3, 0.001f, details);
 6032              		.loc 5 231 49
 6033 2da7 F30F1005 		movss	.LC68(%rip), %xmm0
 6033      00000000 
 6034 2daf F30F1185 		movss	%xmm0, -2192(%rbp)
 6034      70F7FFFF 
 6035              		.loc 5 231 20
 6036 2db7 488DBD50 		leaq	-2224(%rbp), %rdi
 6036      F7FFFF
 6037 2dbe 488D8D70 		leaq	-2192(%rbp), %rcx
 6037      F7FFFF
 6038 2dc5 488D95A4 		leaq	-2140(%rbp), %rdx
 6038      F7FFFF
 6039 2dcc 488DB598 		leaq	-2152(%rbp), %rsi
 6039      F7FFFF
 6040 2dd3 488D8530 		leaq	-2256(%rbp), %rax
 6040      F7FFFF
 6041 2dda 4989F9   		movq	%rdi, %r9
 6042 2ddd 4989C8   		movq	%rcx, %r8
 6043 2de0 B9030000 		movl	$3, %ecx
 6043      00
 6044 2de5 4889C7   		movq	%rax, %rdi
 6045 2de8 E8000000 		call	_ZN8UnitTest15CheckArrayCloseIA3_fS1_fEEvRNS_11TestResultsERKT_RKT0_iRKT1_RKNS_11TestDetailsE
 6045      00
 6046              	.LEHE138:
 6047              	.LEHB139:
 232:TestChecks.cpp **** 
 233:TestChecks.cpp ****     CHECK_EQUAL("arrayCloseTest", reporter.lastFailedTest);
 6048              		.loc 5 233 5 discriminator 2
 6049 2ded E8000000 		call	_ZN8UnitTest11CurrentTest7DetailsEv@PLT
 6049      00
 6050 2df2 488B08   		movq	(%rax), %rcx
 6051 2df5 488D8570 		leaq	-2192(%rbp), %rax
 6051      F7FFFF
 6052 2dfc BAE90000 		movl	$233, %edx
 6052      00
 6053 2e01 4889CE   		movq	%rcx, %rsi
 6054 2e04 4889C7   		movq	%rax, %rdi
 6055 2e07 E8000000 		call	_ZN8UnitTest11TestDetailsC1ERKS0_i@PLT
 6055      00
 6056              		.loc 5 233 5 is_stmt 0 discriminator 4
 6057 2e0c E8000000 		call	_ZN8UnitTest11CurrentTest7ResultsEv@PLT
 6057      00
 6058 2e11 488B00   		movq	(%rax), %rax
 6059 2e14 488D9570 		leaq	-2192(%rbp), %rdx
 6059      F7FFFF
 6060 2e1b 488D8DB0 		leaq	-2128(%rbp), %rcx
 6060      F7FFFF
 6061 2e22 488DB114 		leaq	1044(%rcx), %rsi
 6061      040000
 6062 2e29 4889D1   		movq	%rdx, %rcx
 6063 2e2c 4889F2   		movq	%rsi, %rdx
 6064 2e2f 488D3500 		leaq	.LC72(%rip), %rsi
 6064      000000
 6065 2e36 4889C7   		movq	%rax, %rdi
 6066 2e39 E8000000 		call	_ZN8UnitTest10CheckEqualERNS_11TestResultsEPKcPcRKNS_11TestDetailsE@PLT
 6066      00
 6067              	.LEHE139:
 6068              	.L241:
 6069              	.LEHB140:
 234:TestChecks.cpp ****     CHECK_EQUAL("arrayCloseSuite", reporter.lastFailedSuite);
 6070              		.loc 5 234 5 is_stmt 1
 6071 2e3e E8000000 		call	_ZN8UnitTest11CurrentTest7DetailsEv@PLT
 6071      00
 6072 2e43 488B08   		movq	(%rax), %rcx
 6073 2e46 488D8570 		leaq	-2192(%rbp), %rax
 6073      F7FFFF
 6074 2e4d BAEA0000 		movl	$234, %edx
 6074      00
 6075 2e52 4889CE   		movq	%rcx, %rsi
 6076 2e55 4889C7   		movq	%rax, %rdi
 6077 2e58 E8000000 		call	_ZN8UnitTest11TestDetailsC1ERKS0_i@PLT
 6077      00
 6078              		.loc 5 234 5 is_stmt 0 discriminator 4
 6079 2e5d E8000000 		call	_ZN8UnitTest11CurrentTest7ResultsEv@PLT
 6079      00
 6080 2e62 488B00   		movq	(%rax), %rax
 6081 2e65 488D9570 		leaq	-2192(%rbp), %rdx
 6081      F7FFFF
 6082 2e6c 488D8DB0 		leaq	-2128(%rbp), %rcx
 6082      F7FFFF
 6083 2e73 488DB114 		leaq	788(%rcx), %rsi
 6083      030000
 6084 2e7a 4889D1   		movq	%rdx, %rcx
 6085 2e7d 4889F2   		movq	%rsi, %rdx
 6086 2e80 488D3500 		leaq	.LC71(%rip), %rsi
 6086      000000
 6087 2e87 4889C7   		movq	%rax, %rdi
 6088 2e8a E8000000 		call	_ZN8UnitTest10CheckEqualERNS_11TestResultsEPKcPcRKNS_11TestDetailsE@PLT
 6088      00
 6089              	.LEHE140:
 6090              	.L245:
 6091              	.LEHB141:
 235:TestChecks.cpp ****     CHECK_EQUAL("file", reporter.lastFailedFile);
 6092              		.loc 5 235 5 is_stmt 1
 6093 2e8f E8000000 		call	_ZN8UnitTest11CurrentTest7DetailsEv@PLT
 6093      00
 6094 2e94 488B08   		movq	(%rax), %rcx
 6095 2e97 488D8570 		leaq	-2192(%rbp), %rax
 6095      F7FFFF
 6096 2e9e BAEB0000 		movl	$235, %edx
 6096      00
 6097 2ea3 4889CE   		movq	%rcx, %rsi
 6098 2ea6 4889C7   		movq	%rax, %rdi
 6099 2ea9 E8000000 		call	_ZN8UnitTest11TestDetailsC1ERKS0_i@PLT
 6099      00
 6100              		.loc 5 235 5 is_stmt 0 discriminator 4
 6101 2eae E8000000 		call	_ZN8UnitTest11CurrentTest7ResultsEv@PLT
 6101      00
 6102 2eb3 488B00   		movq	(%rax), %rax
 6103 2eb6 488D9570 		leaq	-2192(%rbp), %rdx
 6103      F7FFFF
 6104 2ebd 488D8DB0 		leaq	-2128(%rbp), %rcx
 6104      F7FFFF
 6105 2ec4 488DB110 		leaq	528(%rcx), %rsi
 6105      020000
 6106 2ecb 4889D1   		movq	%rdx, %rcx
 6107 2ece 4889F2   		movq	%rsi, %rdx
 6108 2ed1 488D3500 		leaq	.LC70(%rip), %rsi
 6108      000000
 6109 2ed8 4889C7   		movq	%rax, %rdi
 6110 2edb E8000000 		call	_ZN8UnitTest10CheckEqualERNS_11TestResultsEPKcPcRKNS_11TestDetailsE@PLT
 6110      00
 6111              	.LEHE141:
 6112              	.L248:
 6113              	.LEHB142:
 236:TestChecks.cpp ****     CHECK_EQUAL(1337, reporter.lastFailedLine);
 6114              		.loc 5 236 5 is_stmt 1
 6115 2ee0 E8000000 		call	_ZN8UnitTest11CurrentTest7DetailsEv@PLT
 6115      00
 6116 2ee5 488B08   		movq	(%rax), %rcx
 6117 2ee8 488D8570 		leaq	-2192(%rbp), %rax
 6117      F7FFFF
 6118 2eef BAEC0000 		movl	$236, %edx
 6118      00
 6119 2ef4 4889CE   		movq	%rcx, %rsi
 6120 2ef7 4889C7   		movq	%rax, %rdi
 6121 2efa E8000000 		call	_ZN8UnitTest11TestDetailsC1ERKS0_i@PLT
 6121      00
 6122              		.loc 5 236 5 is_stmt 0 discriminator 4
 6123 2eff C7852CF7 		movl	$1337, -2260(%rbp)
 6123      FFFF3905 
 6123      0000
 6124 2f09 E8000000 		call	_ZN8UnitTest11CurrentTest7ResultsEv@PLT
 6124      00
 6125 2f0e 488B00   		movq	(%rax), %rax
 6126 2f11 488D9570 		leaq	-2192(%rbp), %rdx
 6126      F7FFFF
 6127 2f18 488D8DB0 		leaq	-2128(%rbp), %rcx
 6127      F7FFFF
 6128 2f1f 488DB910 		leaq	784(%rcx), %rdi
 6128      030000
 6129 2f26 488DB52C 		leaq	-2260(%rbp), %rsi
 6129      F7FFFF
 6130 2f2d 4889D1   		movq	%rdx, %rcx
 6131 2f30 4889FA   		movq	%rdi, %rdx
 6132 2f33 4889C7   		movq	%rax, %rdi
 6133 2f36 E8000000 		call	_ZN8UnitTest10CheckEqualIiiEEvRNS_11TestResultsERKT_RKT0_RKNS_11TestDetailsE
 6133      00
 6134              	.LEHE142:
 6135              	.L251:
 237:TestChecks.cpp **** }
 6136              		.loc 5 237 1 is_stmt 1
 6137 2f3b 488D85B0 		leaq	-2128(%rbp), %rax
 6137      F7FFFF
 6138 2f42 4889C7   		movq	%rax, %rdi
 6139              	.LEHB143:
 6140 2f45 E8000000 		call	_ZN17RecordingReporterD1Ev
 6140      00
 6141              	.LEHE143:
 6142 2f4a 488B45E8 		movq	-24(%rbp), %rax
 6143 2f4e 64482B04 		subq	%fs:40, %rax
 6143      25280000 
 6143      00
 6144 2f57 0F84C101 		je	.L253
 6144      0000
 6145 2f5d E9B70100 		jmp	.L263
 6145      00
 6146              	.L255:
 6147 2f62 F30F1EFA 		endbr64
 233:TestChecks.cpp ****     CHECK_EQUAL("arrayCloseSuite", reporter.lastFailedSuite);
 6148              		.loc 5 233 5
 6149 2f66 4889C7   		movq	%rax, %rdi
 6150 2f69 E8000000 		call	__cxa_begin_catch@PLT
 6150      00
 6151              	.LEHB144:
 6152 2f6e E8000000 		call	_ZN8UnitTest11CurrentTest7ResultsEv@PLT
 6152      00
 233:TestChecks.cpp ****     CHECK_EQUAL("arrayCloseSuite", reporter.lastFailedSuite);
 6153              		.loc 5 233 5 is_stmt 0 discriminator 3
 6154 2f73 488B18   		movq	(%rax), %rbx
 6155 2f76 E8000000 		call	_ZN8UnitTest11CurrentTest7DetailsEv@PLT
 6155      00
 233:TestChecks.cpp ****     CHECK_EQUAL("arrayCloseSuite", reporter.lastFailedSuite);
 6156              		.loc 5 233 5 discriminator 11
 6157 2f7b 488B08   		movq	(%rax), %rcx
 6158 2f7e 488D8570 		leaq	-2192(%rbp), %rax
 6158      F7FFFF
 6159 2f85 BAE90000 		movl	$233, %edx
 6159      00
 6160 2f8a 4889CE   		movq	%rcx, %rsi
 6161 2f8d 4889C7   		movq	%rax, %rdi
 6162 2f90 E8000000 		call	_ZN8UnitTest11TestDetailsC1ERKS0_i@PLT
 6162      00
 233:TestChecks.cpp ****     CHECK_EQUAL("arrayCloseSuite", reporter.lastFailedSuite);
 6163              		.loc 5 233 5 discriminator 15
 6164 2f95 488D8570 		leaq	-2192(%rbp), %rax
 6164      F7FFFF
 6165 2f9c 488D1500 		leaq	.LC73(%rip), %rdx
 6165      000000
 6166 2fa3 4889C6   		movq	%rax, %rsi
 6167 2fa6 4889DF   		movq	%rbx, %rdi
 6168 2fa9 E8000000 		call	_ZN8UnitTest11TestResults13OnTestFailureERKNS_11TestDetailsEPKc@PLT
 6168      00
 6169              	.LEHE144:
 6170              	.LEHB145:
 233:TestChecks.cpp ****     CHECK_EQUAL("arrayCloseSuite", reporter.lastFailedSuite);
 6171              		.loc 5 233 5 discriminator 17
 6172 2fae E8000000 		call	__cxa_end_catch@PLT
 6172      00
 6173              	.LEHE145:
 233:TestChecks.cpp ****     CHECK_EQUAL("arrayCloseSuite", reporter.lastFailedSuite);
 6174              		.loc 5 233 5
 6175 2fb3 E986FEFF 		jmp	.L241
 6175      FF
 6176              	.L256:
 6177 2fb8 F30F1EFA 		endbr64
 6178 2fbc 4889C3   		movq	%rax, %rbx
 6179 2fbf E8000000 		call	__cxa_end_catch@PLT
 6179      00
 6180 2fc4 E9360100 		jmp	.L243
 6180      00
 6181              	.L257:
 6182 2fc9 F30F1EFA 		endbr64
 234:TestChecks.cpp ****     CHECK_EQUAL("file", reporter.lastFailedFile);
 6183              		.loc 5 234 5 is_stmt 1
 6184 2fcd 4889C7   		movq	%rax, %rdi
 6185 2fd0 E8000000 		call	__cxa_begin_catch@PLT
 6185      00
 6186              	.LEHB146:
 6187 2fd5 E8000000 		call	_ZN8UnitTest11CurrentTest7ResultsEv@PLT
 6187      00
 234:TestChecks.cpp ****     CHECK_EQUAL("file", reporter.lastFailedFile);
 6188              		.loc 5 234 5 is_stmt 0 discriminator 3
 6189 2fda 488B18   		movq	(%rax), %rbx
 6190 2fdd E8000000 		call	_ZN8UnitTest11CurrentTest7DetailsEv@PLT
 6190      00
 234:TestChecks.cpp ****     CHECK_EQUAL("file", reporter.lastFailedFile);
 6191              		.loc 5 234 5 discriminator 11
 6192 2fe2 488B08   		movq	(%rax), %rcx
 6193 2fe5 488D8570 		leaq	-2192(%rbp), %rax
 6193      F7FFFF
 6194 2fec BAEA0000 		movl	$234, %edx
 6194      00
 6195 2ff1 4889CE   		movq	%rcx, %rsi
 6196 2ff4 4889C7   		movq	%rax, %rdi
 6197 2ff7 E8000000 		call	_ZN8UnitTest11TestDetailsC1ERKS0_i@PLT
 6197      00
 234:TestChecks.cpp ****     CHECK_EQUAL("file", reporter.lastFailedFile);
 6198              		.loc 5 234 5 discriminator 15
 6199 2ffc 488D8570 		leaq	-2192(%rbp), %rax
 6199      F7FFFF
 6200 3003 488D1500 		leaq	.LC74(%rip), %rdx
 6200      000000
 6201 300a 4889C6   		movq	%rax, %rsi
 6202 300d 4889DF   		movq	%rbx, %rdi
 6203 3010 E8000000 		call	_ZN8UnitTest11TestResults13OnTestFailureERKNS_11TestDetailsEPKc@PLT
 6203      00
 6204              	.LEHE146:
 6205              	.LEHB147:
 234:TestChecks.cpp ****     CHECK_EQUAL("file", reporter.lastFailedFile);
 6206              		.loc 5 234 5 discriminator 17
 6207 3015 E8000000 		call	__cxa_end_catch@PLT
 6207      00
 6208              	.LEHE147:
 234:TestChecks.cpp ****     CHECK_EQUAL("file", reporter.lastFailedFile);
 6209              		.loc 5 234 5
 6210 301a E970FEFF 		jmp	.L245
 6210      FF
 6211              	.L258:
 6212 301f F30F1EFA 		endbr64
 6213 3023 4889C3   		movq	%rax, %rbx
 6214 3026 E8000000 		call	__cxa_end_catch@PLT
 6214      00
 6215 302b E9CF0000 		jmp	.L243
 6215      00
 6216              	.L259:
 6217 3030 F30F1EFA 		endbr64
 235:TestChecks.cpp ****     CHECK_EQUAL(1337, reporter.lastFailedLine);
 6218              		.loc 5 235 5 is_stmt 1
 6219 3034 4889C7   		movq	%rax, %rdi
 6220 3037 E8000000 		call	__cxa_begin_catch@PLT
 6220      00
 6221              	.LEHB148:
 6222 303c E8000000 		call	_ZN8UnitTest11CurrentTest7ResultsEv@PLT
 6222      00
 235:TestChecks.cpp ****     CHECK_EQUAL(1337, reporter.lastFailedLine);
 6223              		.loc 5 235 5 is_stmt 0 discriminator 3
 6224 3041 488B18   		movq	(%rax), %rbx
 6225 3044 E8000000 		call	_ZN8UnitTest11CurrentTest7DetailsEv@PLT
 6225      00
 235:TestChecks.cpp ****     CHECK_EQUAL(1337, reporter.lastFailedLine);
 6226              		.loc 5 235 5 discriminator 11
 6227 3049 488B08   		movq	(%rax), %rcx
 6228 304c 488D8570 		leaq	-2192(%rbp), %rax
 6228      F7FFFF
 6229 3053 BAEB0000 		movl	$235, %edx
 6229      00
 6230 3058 4889CE   		movq	%rcx, %rsi
 6231 305b 4889C7   		movq	%rax, %rdi
 6232 305e E8000000 		call	_ZN8UnitTest11TestDetailsC1ERKS0_i@PLT
 6232      00
 235:TestChecks.cpp ****     CHECK_EQUAL(1337, reporter.lastFailedLine);
 6233              		.loc 5 235 5 discriminator 15
 6234 3063 488D8570 		leaq	-2192(%rbp), %rax
 6234      F7FFFF
 6235 306a 488D1500 		leaq	.LC75(%rip), %rdx
 6235      000000
 6236 3071 4889C6   		movq	%rax, %rsi
 6237 3074 4889DF   		movq	%rbx, %rdi
 6238 3077 E8000000 		call	_ZN8UnitTest11TestResults13OnTestFailureERKNS_11TestDetailsEPKc@PLT
 6238      00
 6239              	.LEHE148:
 6240              	.LEHB149:
 235:TestChecks.cpp ****     CHECK_EQUAL(1337, reporter.lastFailedLine);
 6241              		.loc 5 235 5 discriminator 17
 6242 307c E8000000 		call	__cxa_end_catch@PLT
 6242      00
 6243              	.LEHE149:
 235:TestChecks.cpp ****     CHECK_EQUAL(1337, reporter.lastFailedLine);
 6244              		.loc 5 235 5
 6245 3081 E95AFEFF 		jmp	.L248
 6245      FF
 6246              	.L260:
 6247 3086 F30F1EFA 		endbr64
 6248 308a 4889C3   		movq	%rax, %rbx
 6249 308d E8000000 		call	__cxa_end_catch@PLT
 6249      00
 6250 3092 EB6B     		jmp	.L243
 6251              	.L261:
 6252 3094 F30F1EFA 		endbr64
 236:TestChecks.cpp **** }
 6253              		.loc 5 236 5 is_stmt 1
 6254 3098 4889C7   		movq	%rax, %rdi
 6255 309b E8000000 		call	__cxa_begin_catch@PLT
 6255      00
 6256              	.LEHB150:
 6257 30a0 E8000000 		call	_ZN8UnitTest11CurrentTest7ResultsEv@PLT
 6257      00
 236:TestChecks.cpp **** }
 6258              		.loc 5 236 5 is_stmt 0 discriminator 3
 6259 30a5 488B18   		movq	(%rax), %rbx
 6260 30a8 E8000000 		call	_ZN8UnitTest11CurrentTest7DetailsEv@PLT
 6260      00
 236:TestChecks.cpp **** }
 6261              		.loc 5 236 5 discriminator 11
 6262 30ad 488B08   		movq	(%rax), %rcx
 6263 30b0 488D8570 		leaq	-2192(%rbp), %rax
 6263      F7FFFF
 6264 30b7 BAEC0000 		movl	$236, %edx
 6264      00
 6265 30bc 4889CE   		movq	%rcx, %rsi
 6266 30bf 4889C7   		movq	%rax, %rdi
 6267 30c2 E8000000 		call	_ZN8UnitTest11TestDetailsC1ERKS0_i@PLT
 6267      00
 236:TestChecks.cpp **** }
 6268              		.loc 5 236 5 discriminator 15
 6269 30c7 488D8570 		leaq	-2192(%rbp), %rax
 6269      F7FFFF
 6270 30ce 488D1500 		leaq	.LC76(%rip), %rdx
 6270      000000
 6271 30d5 4889C6   		movq	%rax, %rsi
 6272 30d8 4889DF   		movq	%rbx, %rdi
 6273 30db E8000000 		call	_ZN8UnitTest11TestResults13OnTestFailureERKNS_11TestDetailsEPKc@PLT
 6273      00
 6274              	.LEHE150:
 6275              	.LEHB151:
 236:TestChecks.cpp **** }
 6276              		.loc 5 236 5 discriminator 17
 6277 30e0 E8000000 		call	__cxa_end_catch@PLT
 6277      00
 6278              	.LEHE151:
 236:TestChecks.cpp **** }
 6279              		.loc 5 236 5
 6280 30e5 E951FEFF 		jmp	.L251
 6280      FF
 6281              	.L262:
 6282 30ea F30F1EFA 		endbr64
 6283 30ee 4889C3   		movq	%rax, %rbx
 6284 30f1 E8000000 		call	__cxa_end_catch@PLT
 6284      00
 6285 30f6 EB07     		jmp	.L243
 6286              	.L254:
 6287 30f8 F30F1EFA 		endbr64
 6288              		.loc 5 237 1 is_stmt 1
 6289 30fc 4889C3   		movq	%rax, %rbx
 6290              	.L243:
 6291 30ff 488D85B0 		leaq	-2128(%rbp), %rax
 6291      F7FFFF
 6292 3106 4889C7   		movq	%rax, %rdi
 6293 3109 E8000000 		call	_ZN17RecordingReporterD1Ev
 6293      00
 6294 310e 4889D8   		movq	%rbx, %rax
 6295 3111 4889C7   		movq	%rax, %rdi
 6296              	.LEHB152:
 6297 3114 E8000000 		call	_Unwind_Resume@PLT
 6297      00
 6298              	.LEHE152:
 6299              	.L263:
 6300 3119 E8000000 		call	__stack_chk_fail@PLT
 6300      00
 6301              	.L253:
 6302 311e 488B5DF8 		movq	-8(%rbp), %rbx
 6303 3122 C9       		leave
 6304              		.cfi_def_cfa 7, 8
 6305 3123 C3       		ret
 6306              		.cfi_endproc
 6307              	.LFE1238:
 6308              		.section	.gcc_except_table
 6309              		.align 4
 6310              	.LLSDA1238:
 6311 03f4 FF       		.byte	0xff
 6312 03f5 9B       		.byte	0x9b
 6313 03f6 61       		.uleb128 .LLSDATT1238-.LLSDATTD1238
 6314              	.LLSDATTD1238:
 6315 03f7 01       		.byte	0x1
 6316 03f8 58       		.uleb128 .LLSDACSE1238-.LLSDACSB1238
 6317              	.LLSDACSB1238:
 6318 03f9 49       		.uleb128 .LEHB138-.LFB1238
 6319 03fa D801     		.uleb128 .LEHE138-.LEHB138
 6320 03fc AC08     		.uleb128 .L254-.LFB1238
 6321 03fe 00       		.uleb128 0
 6322 03ff A102     		.uleb128 .LEHB139-.LFB1238
 6323 0401 51       		.uleb128 .LEHE139-.LEHB139
 6324 0402 9605     		.uleb128 .L255-.LFB1238
 6325 0404 01       		.uleb128 0x1
 6326 0405 F202     		.uleb128 .LEHB140-.LFB1238
 6327 0407 51       		.uleb128 .LEHE140-.LEHB140
 6328 0408 FD05     		.uleb128 .L257-.LFB1238
 6329 040a 01       		.uleb128 0x1
 6330 040b C303     		.uleb128 .LEHB141-.LFB1238
 6331 040d 51       		.uleb128 .LEHE141-.LEHB141
 6332 040e E406     		.uleb128 .L259-.LFB1238
 6333 0410 01       		.uleb128 0x1
 6334 0411 9404     		.uleb128 .LEHB142-.LFB1238
 6335 0413 5B       		.uleb128 .LEHE142-.LEHB142
 6336 0414 C807     		.uleb128 .L261-.LFB1238
 6337 0416 01       		.uleb128 0x1
 6338 0417 F904     		.uleb128 .LEHB143-.LFB1238
 6339 0419 05       		.uleb128 .LEHE143-.LEHB143
 6340 041a 00       		.uleb128 0
 6341 041b 00       		.uleb128 0
 6342 041c A205     		.uleb128 .LEHB144-.LFB1238
 6343 041e 40       		.uleb128 .LEHE144-.LEHB144
 6344 041f EC05     		.uleb128 .L256-.LFB1238
 6345 0421 00       		.uleb128 0
 6346 0422 E205     		.uleb128 .LEHB145-.LFB1238
 6347 0424 05       		.uleb128 .LEHE145-.LEHB145
 6348 0425 AC08     		.uleb128 .L254-.LFB1238
 6349 0427 00       		.uleb128 0
 6350 0428 8906     		.uleb128 .LEHB146-.LFB1238
 6351 042a 40       		.uleb128 .LEHE146-.LEHB146
 6352 042b D306     		.uleb128 .L258-.LFB1238
 6353 042d 00       		.uleb128 0
 6354 042e C906     		.uleb128 .LEHB147-.LFB1238
 6355 0430 05       		.uleb128 .LEHE147-.LEHB147
 6356 0431 AC08     		.uleb128 .L254-.LFB1238
 6357 0433 00       		.uleb128 0
 6358 0434 F006     		.uleb128 .LEHB148-.LFB1238
 6359 0436 40       		.uleb128 .LEHE148-.LEHB148
 6360 0437 BA07     		.uleb128 .L260-.LFB1238
 6361 0439 00       		.uleb128 0
 6362 043a B007     		.uleb128 .LEHB149-.LFB1238
 6363 043c 05       		.uleb128 .LEHE149-.LEHB149
 6364 043d AC08     		.uleb128 .L254-.LFB1238
 6365 043f 00       		.uleb128 0
 6366 0440 D407     		.uleb128 .LEHB150-.LFB1238
 6367 0442 40       		.uleb128 .LEHE150-.LEHB150
 6368 0443 9E08     		.uleb128 .L262-.LFB1238
 6369 0445 00       		.uleb128 0
 6370 0446 9408     		.uleb128 .LEHB151-.LFB1238
 6371 0448 05       		.uleb128 .LEHE151-.LEHB151
 6372 0449 AC08     		.uleb128 .L254-.LFB1238
 6373 044b 00       		.uleb128 0
 6374 044c C808     		.uleb128 .LEHB152-.LFB1238
 6375 044e 05       		.uleb128 .LEHE152-.LEHB152
 6376 044f 00       		.uleb128 0
 6377 0450 00       		.uleb128 0
 6378              	.LLSDACSE1238:
 6379 0451 01       		.byte	0x1
 6380 0452 00       		.byte	0
 6381 0453 00       		.align 4
 6382 0454 00000000 		.long	0
 6383              	
 6384              	.LLSDATT1238:
 6385              		.text
 6387              		.section	.rodata
 6388              	.LC77:
 6389 09f2 43686563 		.string	"CheckArray2DCloseTrue"
 6389      6B417272 
 6389      61793244 
 6389      436C6F73 
 6389      65547275 
 6390              		.text
 6391              		.align 2
 6393              	_ZN12_GLOBAL__N_125TestCheckArray2DCloseTrueC2Ev:
 6394              	.LFB1240:
 238:TestChecks.cpp **** 
 239:TestChecks.cpp **** 
 240:TestChecks.cpp **** TEST(CheckArray2DCloseTrue)
 6395              		.loc 5 240 1
 6396              		.cfi_startproc
 6397 3124 55       		pushq	%rbp
 6398              		.cfi_def_cfa_offset 16
 6399              		.cfi_offset 6, -16
 6400 3125 4889E5   		movq	%rsp, %rbp
 6401              		.cfi_def_cfa_register 6
 6402 3128 53       		pushq	%rbx
 6403 3129 4883EC18 		subq	$24, %rsp
 6404              		.cfi_offset 3, -24
 6405 312d 48897DE8 		movq	%rdi, -24(%rbp)
 6406              	.LBB28:
 6407              		.loc 5 240 1
 6408 3131 488B5DE8 		movq	-24(%rbp), %rbx
 6409 3135 E8000000 		call	_ZN13UnitTestSuite12GetSuiteNameEv
 6409      00
 6410 313a 4889C2   		movq	%rax, %rdx
 6411 313d 41B8F000 		movl	$240, %r8d
 6411      0000
 6412 3143 488D0500 		leaq	.LC2(%rip), %rax
 6412      000000
 6413 314a 4889C1   		movq	%rax, %rcx
 6414 314d 488D0500 		leaq	.LC77(%rip), %rax
 6414      000000
 6415 3154 4889C6   		movq	%rax, %rsi
 6416 3157 4889DF   		movq	%rbx, %rdi
 6417 315a E8000000 		call	_ZN8UnitTest4TestC2EPKcS2_S2_i@PLT
 6417      00
 6418 315f 488D1500 		leaq	16+_ZTVN12_GLOBAL__N_125TestCheckArray2DCloseTrueE(%rip), %rdx
 6418      000000
 6419 3166 488B45E8 		movq	-24(%rbp), %rax
 6420 316a 488910   		movq	%rdx, (%rax)
 6421              	.LBE28:
 6422 316d 90       		nop
 6423 316e 488B5DF8 		movq	-8(%rbp), %rbx
 6424 3172 C9       		leave
 6425              		.cfi_def_cfa 7, 8
 6426 3173 C3       		ret
 6427              		.cfi_endproc
 6428              	.LFE1240:
 6430              		.set	_ZN12_GLOBAL__N_125TestCheckArray2DCloseTrueC1Ev,_ZN12_GLOBAL__N_125TestCheckArray2DCloseTrue
 6431              		.local	_ZN12_GLOBAL__N_133testCheckArray2DCloseTrueInstanceE
 6432              		.comm	_ZN12_GLOBAL__N_133testCheckArray2DCloseTrueInstanceE,56,32
 6433              		.local	_ZN12_GLOBAL__N_126adderCheckArray2DCloseTrueE
 6434              		.comm	_ZN12_GLOBAL__N_126adderCheckArray2DCloseTrueE,1,1
 6435              		.align 2
 6437              	_ZNK12_GLOBAL__N_125TestCheckArray2DCloseTrue7RunImplEv:
 6438              	.LFB1242:
 241:TestChecks.cpp **** {
 6439              		.loc 5 241 1
 6440              		.cfi_startproc
 6441              		.cfi_personality 0x9b,DW.ref.__gxx_personality_v0
 6442              		.cfi_lsda 0x1b,.LLSDA1242
 6443 3174 F30F1EFA 		endbr64
 6444 3178 55       		pushq	%rbp
 6445              		.cfi_def_cfa_offset 16
 6446              		.cfi_offset 6, -16
 6447 3179 4889E5   		movq	%rsp, %rbp
 6448              		.cfi_def_cfa_register 6
 6449 317c 53       		pushq	%rbx
 6450 317d 4881ECC8 		subq	$200, %rsp
 6450      000000
 6451              		.cfi_offset 3, -24
 6452 3184 4889BD38 		movq	%rdi, -200(%rbp)
 6452      FFFFFF
 6453              		.loc 5 241 1
 6454 318b 64488B04 		movq	%fs:40, %rax
 6454      25280000 
 6454      00
 6455 3194 488945E8 		movq	%rax, -24(%rbp)
 6456 3198 31C0     		xorl	%eax, %eax
 242:TestChecks.cpp ****     TestResults results;
 6457              		.loc 5 242 17
 6458 319a 488D8550 		leaq	-176(%rbp), %rax
 6458      FFFFFF
 6459 31a1 BE000000 		movl	$0, %esi
 6459      00
 6460 31a6 4889C7   		movq	%rax, %rdi
 6461              	.LEHB153:
 6462 31a9 E8000000 		call	_ZN8UnitTest11TestResultsC1EPNS_12TestReporterE@PLT
 6462      00
 243:TestChecks.cpp **** 
 244:TestChecks.cpp ****     float const array1[3][3] = { { 1.0f, 1.5f, 2.0f },
 6463              		.loc 5 244 17
 6464 31ae F30F1005 		movss	.LC60(%rip), %xmm0
 6464      00000000 
 6465 31b6 F30F1145 		movss	%xmm0, -112(%rbp)
 6465      90
 6466 31bb F30F1005 		movss	.LC61(%rip), %xmm0
 6466      00000000 
 6467 31c3 F30F1145 		movss	%xmm0, -108(%rbp)
 6467      94
 6468 31c8 F30F1005 		movss	.LC62(%rip), %xmm0
 6468      00000000 
 6469 31d0 F30F1145 		movss	%xmm0, -104(%rbp)
 6469      98
 6470 31d5 F30F1005 		movss	.LC62(%rip), %xmm0
 6470      00000000 
 6471 31dd F30F1145 		movss	%xmm0, -100(%rbp)
 6471      9C
 6472 31e2 F30F1005 		movss	.LC78(%rip), %xmm0
 6472      00000000 
 6473 31ea F30F1145 		movss	%xmm0, -96(%rbp)
 6473      A0
 6474 31ef F30F1005 		movss	.LC32(%rip), %xmm0
 6474      00000000 
 6475 31f7 F30F1145 		movss	%xmm0, -92(%rbp)
 6475      A4
 6476 31fc F30F1005 		movss	.LC32(%rip), %xmm0
 6476      00000000 
 6477 3204 F30F1145 		movss	%xmm0, -88(%rbp)
 6477      A8
 6478 3209 F30F1005 		movss	.LC79(%rip), %xmm0
 6478      00000000 
 6479 3211 F30F1145 		movss	%xmm0, -84(%rbp)
 6479      AC
 6480 3216 F30F1005 		movss	.LC80(%rip), %xmm0
 6480      00000000 
 6481 321e F30F1145 		movss	%xmm0, -80(%rbp)
 6481      B0
 245:TestChecks.cpp ****                                  { 2.0f, 2.5f, 3.0f },
 246:TestChecks.cpp ****                                  { 3.0f, 3.5f, 4.0f } };
 247:TestChecks.cpp ****     float const array2[3][3] = { { 1.01f, 1.51f, 2.01f },
 6482              		.loc 5 247 17
 6483 3223 F30F1005 		movss	.LC63(%rip), %xmm0
 6483      00000000 
 6484 322b F30F1145 		movss	%xmm0, -64(%rbp)
 6484      C0
 6485 3230 F30F1005 		movss	.LC64(%rip), %xmm0
 6485      00000000 
 6486 3238 F30F1145 		movss	%xmm0, -60(%rbp)
 6486      C4
 6487 323d F30F1005 		movss	.LC65(%rip), %xmm0
 6487      00000000 
 6488 3245 F30F1145 		movss	%xmm0, -56(%rbp)
 6488      C8
 6489 324a F30F1005 		movss	.LC65(%rip), %xmm0
 6489      00000000 
 6490 3252 F30F1145 		movss	%xmm0, -52(%rbp)
 6490      CC
 6491 3257 F30F1005 		movss	.LC81(%rip), %xmm0
 6491      00000000 
 6492 325f F30F1145 		movss	%xmm0, -48(%rbp)
 6492      D0
 6493 3264 F30F1005 		movss	.LC82(%rip), %xmm0
 6493      00000000 
 6494 326c F30F1145 		movss	%xmm0, -44(%rbp)
 6494      D4
 6495 3271 F30F1005 		movss	.LC82(%rip), %xmm0
 6495      00000000 
 6496 3279 F30F1145 		movss	%xmm0, -40(%rbp)
 6496      D8
 6497 327e F30F1005 		movss	.LC83(%rip), %xmm0
 6497      00000000 
 6498 3286 F30F1145 		movss	%xmm0, -36(%rbp)
 6498      DC
 6499 328b F30F1005 		movss	.LC84(%rip), %xmm0
 6499      00000000 
 6500 3293 F30F1145 		movss	%xmm0, -32(%rbp)
 6500      E0
 248:TestChecks.cpp ****                                  { 2.01f, 2.51f, 3.01f },
 249:TestChecks.cpp ****                                  { 3.01f, 3.51f, 4.01f } };
 250:TestChecks.cpp ****     CheckArray2DClose(results, array1, array2, 3, 3, 0.02f, TestDetails("", "", "", 0));
 6501              		.loc 5 250 61
 6502 3298 488D8570 		leaq	-144(%rbp), %rax
 6502      FFFFFF
 6503 329f 41B80000 		movl	$0, %r8d
 6503      0000
 6504 32a5 488D1500 		leaq	.LC6(%rip), %rdx
 6504      000000
 6505 32ac 4889D1   		movq	%rdx, %rcx
 6506 32af 488D1500 		leaq	.LC6(%rip), %rdx
 6506      000000
 6507 32b6 488D3500 		leaq	.LC6(%rip), %rsi
 6507      000000
 6508 32bd 4889C7   		movq	%rax, %rdi
 6509 32c0 E8000000 		call	_ZN8UnitTest11TestDetailsC1EPKcS2_S2_i@PLT
 6509      00
 6510              		.loc 5 250 54
 6511 32c5 F30F1005 		movss	.LC66(%rip), %xmm0
 6511      00000000 
 6512 32cd F30F1185 		movss	%xmm0, -180(%rbp)
 6512      4CFFFFFF 
 6513              		.loc 5 250 22
 6514 32d5 488DBD4C 		leaq	-180(%rbp), %rdi
 6514      FFFFFF
 6515 32dc 488D55C0 		leaq	-64(%rbp), %rdx
 6516 32e0 488D7590 		leaq	-112(%rbp), %rsi
 6517 32e4 488D8550 		leaq	-176(%rbp), %rax
 6517      FFFFFF
 6518 32eb 4883EC08 		subq	$8, %rsp
 6519 32ef 488D8D70 		leaq	-144(%rbp), %rcx
 6519      FFFFFF
 6520 32f6 51       		pushq	%rcx
 6521 32f7 4989F9   		movq	%rdi, %r9
 6522 32fa 41B80300 		movl	$3, %r8d
 6522      0000
 6523 3300 B9030000 		movl	$3, %ecx
 6523      00
 6524 3305 4889C7   		movq	%rax, %rdi
 6525 3308 E8000000 		call	_ZN8UnitTest17CheckArray2DCloseIA3_A3_fS2_fEEvRNS_11TestResultsERKT_RKT0_iiRKT1_RKNS_11TestDe
 6525      00
 6526              	.LEHE153:
 6527 330d 4883C410 		addq	$16, %rsp
 6528              	.LEHB154:
 251:TestChecks.cpp ****     CHECK_EQUAL(0, results.GetFailureCount());
 6529              		.loc 5 251 5
 6530 3311 E8000000 		call	_ZN8UnitTest11CurrentTest7DetailsEv@PLT
 6530      00
 6531 3316 488B08   		movq	(%rax), %rcx
 6532 3319 488D8570 		leaq	-144(%rbp), %rax
 6532      FFFFFF
 6533 3320 BAFB0000 		movl	$251, %edx
 6533      00
 6534 3325 4889CE   		movq	%rcx, %rsi
 6535 3328 4889C7   		movq	%rax, %rdi
 6536 332b E8000000 		call	_ZN8UnitTest11TestDetailsC1ERKS0_i@PLT
 6536      00
 6537              		.loc 5 251 5 is_stmt 0 discriminator 4
 6538 3330 488D8550 		leaq	-176(%rbp), %rax
 6538      FFFFFF
 6539 3337 4889C7   		movq	%rax, %rdi
 6540 333a E8000000 		call	_ZNK8UnitTest11TestResults15GetFailureCountEv@PLT
 6540      00
 6541 333f 89854CFF 		movl	%eax, -180(%rbp)
 6541      FFFF
 6542 3345 C78548FF 		movl	$0, -184(%rbp)
 6542      FFFF0000 
 6542      0000
 6543 334f E8000000 		call	_ZN8UnitTest11CurrentTest7ResultsEv@PLT
 6543      00
 6544              		.loc 5 251 5 discriminator 6
 6545 3354 488B00   		movq	(%rax), %rax
 6546 3357 488D8D70 		leaq	-144(%rbp), %rcx
 6546      FFFFFF
 6547 335e 488D954C 		leaq	-180(%rbp), %rdx
 6547      FFFFFF
 6548 3365 488DB548 		leaq	-184(%rbp), %rsi
 6548      FFFFFF
 6549 336c 4889C7   		movq	%rax, %rdi
 6550 336f E8000000 		call	_ZN8UnitTest10CheckEqualIiiEEvRNS_11TestResultsERKT_RKT0_RKNS_11TestDetailsE
 6550      00
 6551              	.LEHE154:
 252:TestChecks.cpp **** }
 6552              		.loc 5 252 1 is_stmt 1
 6553 3374 EB6A     		jmp	.L265
 6554              	.L270:
 6555 3376 F30F1EFA 		endbr64
 251:TestChecks.cpp ****     CHECK_EQUAL(0, results.GetFailureCount());
 6556              		.loc 5 251 5
 6557 337a 4889C7   		movq	%rax, %rdi
 6558 337d E8000000 		call	__cxa_begin_catch@PLT
 6558      00
 6559              	.LEHB155:
 6560 3382 E8000000 		call	_ZN8UnitTest11CurrentTest7ResultsEv@PLT
 6560      00
 251:TestChecks.cpp ****     CHECK_EQUAL(0, results.GetFailureCount());
 6561              		.loc 5 251 5 is_stmt 0 discriminator 3
 6562 3387 488B18   		movq	(%rax), %rbx
 6563 338a E8000000 		call	_ZN8UnitTest11CurrentTest7DetailsEv@PLT
 6563      00
 251:TestChecks.cpp ****     CHECK_EQUAL(0, results.GetFailureCount());
 6564              		.loc 5 251 5 discriminator 13
 6565 338f 488B08   		movq	(%rax), %rcx
 6566 3392 488D8570 		leaq	-144(%rbp), %rax
 6566      FFFFFF
 6567 3399 BAFB0000 		movl	$251, %edx
 6567      00
 6568 339e 4889CE   		movq	%rcx, %rsi
 6569 33a1 4889C7   		movq	%rax, %rdi
 6570 33a4 E8000000 		call	_ZN8UnitTest11TestDetailsC1ERKS0_i@PLT
 6570      00
 251:TestChecks.cpp ****     CHECK_EQUAL(0, results.GetFailureCount());
 6571              		.loc 5 251 5 discriminator 17
 6572 33a9 488D8570 		leaq	-144(%rbp), %rax
 6572      FFFFFF
 6573 33b0 488D1500 		leaq	.LC9(%rip), %rdx
 6573      000000
 6574 33b7 4889C6   		movq	%rax, %rsi
 6575 33ba 4889DF   		movq	%rbx, %rdi
 6576 33bd E8000000 		call	_ZN8UnitTest11TestResults13OnTestFailureERKNS_11TestDetailsEPKc@PLT
 6576      00
 6577              	.LEHE155:
 6578              	.LEHB156:
 251:TestChecks.cpp ****     CHECK_EQUAL(0, results.GetFailureCount());
 6579              		.loc 5 251 5 discriminator 19
 6580 33c2 E8000000 		call	__cxa_end_catch@PLT
 6580      00
 6581              	.LEHE156:
 6582              		.loc 5 252 1 is_stmt 1 discriminator 19
 6583 33c7 EB17     		jmp	.L265
 6584              	.L271:
 6585 33c9 F30F1EFA 		endbr64
 251:TestChecks.cpp ****     CHECK_EQUAL(0, results.GetFailureCount());
 6586              		.loc 5 251 5
 6587 33cd 4889C3   		movq	%rax, %rbx
 6588 33d0 E8000000 		call	__cxa_end_catch@PLT
 6588      00
 6589 33d5 4889D8   		movq	%rbx, %rax
 6590 33d8 4889C7   		movq	%rax, %rdi
 6591              	.LEHB157:
 6592 33db E8000000 		call	_Unwind_Resume@PLT
 6592      00
 6593              	.LEHE157:
 6594              	.L265:
 6595              		.loc 5 252 1
 6596 33e0 488B45E8 		movq	-24(%rbp), %rax
 6597 33e4 64482B04 		subq	%fs:40, %rax
 6597      25280000 
 6597      00
 6598 33ed 7405     		je	.L269
 6599 33ef E8000000 		call	__stack_chk_fail@PLT
 6599      00
 6600              	.L269:
 6601 33f4 488B5DF8 		movq	-8(%rbp), %rbx
 6602 33f8 C9       		leave
 6603              		.cfi_def_cfa 7, 8
 6604 33f9 C3       		ret
 6605              		.cfi_endproc
 6606              	.LFE1242:
 6607              		.section	.gcc_except_table
 6608              		.align 4
 6609              	.LLSDA1242:
 6610 0458 FF       		.byte	0xff
 6611 0459 9B       		.byte	0x9b
 6612 045a 25       		.uleb128 .LLSDATT1242-.LLSDATTD1242
 6613              	.LLSDATTD1242:
 6614 045b 01       		.byte	0x1
 6615 045c 1B       		.uleb128 .LLSDACSE1242-.LLSDACSB1242
 6616              	.LLSDACSB1242:
 6617 045d 35       		.uleb128 .LEHB153-.LFB1242
 6618 045e E402     		.uleb128 .LEHE153-.LEHB153
 6619 0460 00       		.uleb128 0
 6620 0461 00       		.uleb128 0
 6621 0462 9D03     		.uleb128 .LEHB154-.LFB1242
 6622 0464 63       		.uleb128 .LEHE154-.LEHB154
 6623 0465 8204     		.uleb128 .L270-.LFB1242
 6624 0467 01       		.uleb128 0x1
 6625 0468 8E04     		.uleb128 .LEHB155-.LFB1242
 6626 046a 40       		.uleb128 .LEHE155-.LEHB155
 6627 046b D504     		.uleb128 .L271-.LFB1242
 6628 046d 00       		.uleb128 0
 6629 046e CE04     		.uleb128 .LEHB156-.LFB1242
 6630 0470 05       		.uleb128 .LEHE156-.LEHB156
 6631 0471 00       		.uleb128 0
 6632 0472 00       		.uleb128 0
 6633 0473 E704     		.uleb128 .LEHB157-.LFB1242
 6634 0475 05       		.uleb128 .LEHE157-.LEHB157
 6635 0476 00       		.uleb128 0
 6636 0477 00       		.uleb128 0
 6637              	.LLSDACSE1242:
 6638 0478 01       		.byte	0x1
 6639 0479 00       		.byte	0
 6640 047a 0000     		.align 4
 6641 047c 00000000 		.long	0
 6642              	
 6643              	.LLSDATT1242:
 6644              		.text
 6646              		.section	.rodata
 6647              	.LC85:
 6648 0a08 43686563 		.string	"CheckArray2DCloseFalse"
 6648      6B417272 
 6648      61793244 
 6648      436C6F73 
 6648      6546616C 
 6649              		.text
 6650              		.align 2
 6652              	_ZN12_GLOBAL__N_126TestCheckArray2DCloseFalseC2Ev:
 6653              	.LFB1244:
 253:TestChecks.cpp **** 
 254:TestChecks.cpp **** TEST(CheckArray2DCloseFalse)
 6654              		.loc 5 254 1
 6655              		.cfi_startproc
 6656 33fa 55       		pushq	%rbp
 6657              		.cfi_def_cfa_offset 16
 6658              		.cfi_offset 6, -16
 6659 33fb 4889E5   		movq	%rsp, %rbp
 6660              		.cfi_def_cfa_register 6
 6661 33fe 53       		pushq	%rbx
 6662 33ff 4883EC18 		subq	$24, %rsp
 6663              		.cfi_offset 3, -24
 6664 3403 48897DE8 		movq	%rdi, -24(%rbp)
 6665              	.LBB29:
 6666              		.loc 5 254 1
 6667 3407 488B5DE8 		movq	-24(%rbp), %rbx
 6668 340b E8000000 		call	_ZN13UnitTestSuite12GetSuiteNameEv
 6668      00
 6669 3410 4889C2   		movq	%rax, %rdx
 6670 3413 41B8FE00 		movl	$254, %r8d
 6670      0000
 6671 3419 488D0500 		leaq	.LC2(%rip), %rax
 6671      000000
 6672 3420 4889C1   		movq	%rax, %rcx
 6673 3423 488D0500 		leaq	.LC85(%rip), %rax
 6673      000000
 6674 342a 4889C6   		movq	%rax, %rsi
 6675 342d 4889DF   		movq	%rbx, %rdi
 6676 3430 E8000000 		call	_ZN8UnitTest4TestC2EPKcS2_S2_i@PLT
 6676      00
 6677 3435 488D1500 		leaq	16+_ZTVN12_GLOBAL__N_126TestCheckArray2DCloseFalseE(%rip), %rdx
 6677      000000
 6678 343c 488B45E8 		movq	-24(%rbp), %rax
 6679 3440 488910   		movq	%rdx, (%rax)
 6680              	.LBE29:
 6681 3443 90       		nop
 6682 3444 488B5DF8 		movq	-8(%rbp), %rbx
 6683 3448 C9       		leave
 6684              		.cfi_def_cfa 7, 8
 6685 3449 C3       		ret
 6686              		.cfi_endproc
 6687              	.LFE1244:
 6689              		.set	_ZN12_GLOBAL__N_126TestCheckArray2DCloseFalseC1Ev,_ZN12_GLOBAL__N_126TestCheckArray2DCloseFal
 6690              		.local	_ZN12_GLOBAL__N_134testCheckArray2DCloseFalseInstanceE
 6691              		.comm	_ZN12_GLOBAL__N_134testCheckArray2DCloseFalseInstanceE,56,32
 6692              		.local	_ZN12_GLOBAL__N_127adderCheckArray2DCloseFalseE
 6693              		.comm	_ZN12_GLOBAL__N_127adderCheckArray2DCloseFalseE,1,1
 6694              		.align 2
 6696              	_ZNK12_GLOBAL__N_126TestCheckArray2DCloseFalse7RunImplEv:
 6697              	.LFB1246:
 255:TestChecks.cpp **** {
 6698              		.loc 5 255 1
 6699              		.cfi_startproc
 6700              		.cfi_personality 0x9b,DW.ref.__gxx_personality_v0
 6701              		.cfi_lsda 0x1b,.LLSDA1246
 6702 344a F30F1EFA 		endbr64
 6703 344e 55       		pushq	%rbp
 6704              		.cfi_def_cfa_offset 16
 6705              		.cfi_offset 6, -16
 6706 344f 4889E5   		movq	%rsp, %rbp
 6707              		.cfi_def_cfa_register 6
 6708 3452 53       		pushq	%rbx
 6709 3453 4881ECC8 		subq	$200, %rsp
 6709      000000
 6710              		.cfi_offset 3, -24
 6711 345a 4889BD38 		movq	%rdi, -200(%rbp)
 6711      FFFFFF
 6712              		.loc 5 255 1
 6713 3461 64488B04 		movq	%fs:40, %rax
 6713      25280000 
 6713      00
 6714 346a 488945E8 		movq	%rax, -24(%rbp)
 6715 346e 31C0     		xorl	%eax, %eax
 256:TestChecks.cpp ****     TestResults results;
 6716              		.loc 5 256 17
 6717 3470 488D8550 		leaq	-176(%rbp), %rax
 6717      FFFFFF
 6718 3477 BE000000 		movl	$0, %esi
 6718      00
 6719 347c 4889C7   		movq	%rax, %rdi
 6720              	.LEHB158:
 6721 347f E8000000 		call	_ZN8UnitTest11TestResultsC1EPNS_12TestReporterE@PLT
 6721      00
 257:TestChecks.cpp **** 
 258:TestChecks.cpp ****     float const array1[3][3] = { { 1.0f, 1.5f, 2.0f },
 6722              		.loc 5 258 17
 6723 3484 F30F1005 		movss	.LC60(%rip), %xmm0
 6723      00000000 
 6724 348c F30F1145 		movss	%xmm0, -112(%rbp)
 6724      90
 6725 3491 F30F1005 		movss	.LC61(%rip), %xmm0
 6725      00000000 
 6726 3499 F30F1145 		movss	%xmm0, -108(%rbp)
 6726      94
 6727 349e F30F1005 		movss	.LC62(%rip), %xmm0
 6727      00000000 
 6728 34a6 F30F1145 		movss	%xmm0, -104(%rbp)
 6728      98
 6729 34ab F30F1005 		movss	.LC62(%rip), %xmm0
 6729      00000000 
 6730 34b3 F30F1145 		movss	%xmm0, -100(%rbp)
 6730      9C
 6731 34b8 F30F1005 		movss	.LC78(%rip), %xmm0
 6731      00000000 
 6732 34c0 F30F1145 		movss	%xmm0, -96(%rbp)
 6732      A0
 6733 34c5 F30F1005 		movss	.LC32(%rip), %xmm0
 6733      00000000 
 6734 34cd F30F1145 		movss	%xmm0, -92(%rbp)
 6734      A4
 6735 34d2 F30F1005 		movss	.LC32(%rip), %xmm0
 6735      00000000 
 6736 34da F30F1145 		movss	%xmm0, -88(%rbp)
 6736      A8
 6737 34df F30F1005 		movss	.LC79(%rip), %xmm0
 6737      00000000 
 6738 34e7 F30F1145 		movss	%xmm0, -84(%rbp)
 6738      AC
 6739 34ec F30F1005 		movss	.LC80(%rip), %xmm0
 6739      00000000 
 6740 34f4 F30F1145 		movss	%xmm0, -80(%rbp)
 6740      B0
 259:TestChecks.cpp ****                                  { 2.0f, 2.5f, 3.0f },
 260:TestChecks.cpp ****                                  { 3.0f, 3.5f, 4.0f } };
 261:TestChecks.cpp ****     float const array2[3][3] = { { 1.01f, 1.51f, 2.01f },
 6741              		.loc 5 261 17
 6742 34f9 F30F1005 		movss	.LC63(%rip), %xmm0
 6742      00000000 
 6743 3501 F30F1145 		movss	%xmm0, -64(%rbp)
 6743      C0
 6744 3506 F30F1005 		movss	.LC64(%rip), %xmm0
 6744      00000000 
 6745 350e F30F1145 		movss	%xmm0, -60(%rbp)
 6745      C4
 6746 3513 F30F1005 		movss	.LC65(%rip), %xmm0
 6746      00000000 
 6747 351b F30F1145 		movss	%xmm0, -56(%rbp)
 6747      C8
 6748 3520 F30F1005 		movss	.LC65(%rip), %xmm0
 6748      00000000 
 6749 3528 F30F1145 		movss	%xmm0, -52(%rbp)
 6749      CC
 6750 352d F30F1005 		movss	.LC81(%rip), %xmm0
 6750      00000000 
 6751 3535 F30F1145 		movss	%xmm0, -48(%rbp)
 6751      D0
 6752 353a F30F1005 		movss	.LC82(%rip), %xmm0
 6752      00000000 
 6753 3542 F30F1145 		movss	%xmm0, -44(%rbp)
 6753      D4
 6754 3547 F30F1005 		movss	.LC82(%rip), %xmm0
 6754      00000000 
 6755 354f F30F1145 		movss	%xmm0, -40(%rbp)
 6755      D8
 6756 3554 F30F1005 		movss	.LC83(%rip), %xmm0
 6756      00000000 
 6757 355c F30F1145 		movss	%xmm0, -36(%rbp)
 6757      DC
 6758 3561 F30F1005 		movss	.LC84(%rip), %xmm0
 6758      00000000 
 6759 3569 F30F1145 		movss	%xmm0, -32(%rbp)
 6759      E0
 262:TestChecks.cpp ****                                  { 2.01f, 2.51f, 3.01f },
 263:TestChecks.cpp ****                                  { 3.01f, 3.51f, 4.01f } };
 264:TestChecks.cpp ****     CheckArray2DClose(results, array1, array2, 3, 3, 0.001f, TestDetails("", "", "", 0));
 6760              		.loc 5 264 62
 6761 356e 488D8570 		leaq	-144(%rbp), %rax
 6761      FFFFFF
 6762 3575 41B80000 		movl	$0, %r8d
 6762      0000
 6763 357b 488D1500 		leaq	.LC6(%rip), %rdx
 6763      000000
 6764 3582 4889D1   		movq	%rdx, %rcx
 6765 3585 488D1500 		leaq	.LC6(%rip), %rdx
 6765      000000
 6766 358c 488D3500 		leaq	.LC6(%rip), %rsi
 6766      000000
 6767 3593 4889C7   		movq	%rax, %rdi
 6768 3596 E8000000 		call	_ZN8UnitTest11TestDetailsC1EPKcS2_S2_i@PLT
 6768      00
 6769              		.loc 5 264 54
 6770 359b F30F1005 		movss	.LC68(%rip), %xmm0
 6770      00000000 
 6771 35a3 F30F1185 		movss	%xmm0, -180(%rbp)
 6771      4CFFFFFF 
 6772              		.loc 5 264 22
 6773 35ab 488DBD4C 		leaq	-180(%rbp), %rdi
 6773      FFFFFF
 6774 35b2 488D55C0 		leaq	-64(%rbp), %rdx
 6775 35b6 488D7590 		leaq	-112(%rbp), %rsi
 6776 35ba 488D8550 		leaq	-176(%rbp), %rax
 6776      FFFFFF
 6777 35c1 4883EC08 		subq	$8, %rsp
 6778 35c5 488D8D70 		leaq	-144(%rbp), %rcx
 6778      FFFFFF
 6779 35cc 51       		pushq	%rcx
 6780 35cd 4989F9   		movq	%rdi, %r9
 6781 35d0 41B80300 		movl	$3, %r8d
 6781      0000
 6782 35d6 B9030000 		movl	$3, %ecx
 6782      00
 6783 35db 4889C7   		movq	%rax, %rdi
 6784 35de E8000000 		call	_ZN8UnitTest17CheckArray2DCloseIA3_A3_fS2_fEEvRNS_11TestResultsERKT_RKT0_iiRKT1_RKNS_11TestDe
 6784      00
 6785              	.LEHE158:
 6786 35e3 4883C410 		addq	$16, %rsp
 6787              	.LEHB159:
 265:TestChecks.cpp ****     CHECK_EQUAL(1, results.GetFailureCount());
 6788              		.loc 5 265 5
 6789 35e7 E8000000 		call	_ZN8UnitTest11CurrentTest7DetailsEv@PLT
 6789      00
 6790 35ec 488B08   		movq	(%rax), %rcx
 6791 35ef 488D8570 		leaq	-144(%rbp), %rax
 6791      FFFFFF
 6792 35f6 BA090100 		movl	$265, %edx
 6792      00
 6793 35fb 4889CE   		movq	%rcx, %rsi
 6794 35fe 4889C7   		movq	%rax, %rdi
 6795 3601 E8000000 		call	_ZN8UnitTest11TestDetailsC1ERKS0_i@PLT
 6795      00
 6796              		.loc 5 265 5 is_stmt 0 discriminator 4
 6797 3606 488D8550 		leaq	-176(%rbp), %rax
 6797      FFFFFF
 6798 360d 4889C7   		movq	%rax, %rdi
 6799 3610 E8000000 		call	_ZNK8UnitTest11TestResults15GetFailureCountEv@PLT
 6799      00
 6800 3615 89854CFF 		movl	%eax, -180(%rbp)
 6800      FFFF
 6801 361b C78548FF 		movl	$1, -184(%rbp)
 6801      FFFF0100 
 6801      0000
 6802 3625 E8000000 		call	_ZN8UnitTest11CurrentTest7ResultsEv@PLT
 6802      00
 6803              		.loc 5 265 5 discriminator 6
 6804 362a 488B00   		movq	(%rax), %rax
 6805 362d 488D8D70 		leaq	-144(%rbp), %rcx
 6805      FFFFFF
 6806 3634 488D954C 		leaq	-180(%rbp), %rdx
 6806      FFFFFF
 6807 363b 488DB548 		leaq	-184(%rbp), %rsi
 6807      FFFFFF
 6808 3642 4889C7   		movq	%rax, %rdi
 6809 3645 E8000000 		call	_ZN8UnitTest10CheckEqualIiiEEvRNS_11TestResultsERKT_RKT0_RKNS_11TestDetailsE
 6809      00
 6810              	.LEHE159:
 266:TestChecks.cpp **** }
 6811              		.loc 5 266 1 is_stmt 1
 6812 364a EB6A     		jmp	.L273
 6813              	.L278:
 6814 364c F30F1EFA 		endbr64
 265:TestChecks.cpp ****     CHECK_EQUAL(1, results.GetFailureCount());
 6815              		.loc 5 265 5
 6816 3650 4889C7   		movq	%rax, %rdi
 6817 3653 E8000000 		call	__cxa_begin_catch@PLT
 6817      00
 6818              	.LEHB160:
 6819 3658 E8000000 		call	_ZN8UnitTest11CurrentTest7ResultsEv@PLT
 6819      00
 265:TestChecks.cpp ****     CHECK_EQUAL(1, results.GetFailureCount());
 6820              		.loc 5 265 5 is_stmt 0 discriminator 3
 6821 365d 488B18   		movq	(%rax), %rbx
 6822 3660 E8000000 		call	_ZN8UnitTest11CurrentTest7DetailsEv@PLT
 6822      00
 265:TestChecks.cpp ****     CHECK_EQUAL(1, results.GetFailureCount());
 6823              		.loc 5 265 5 discriminator 13
 6824 3665 488B08   		movq	(%rax), %rcx
 6825 3668 488D8570 		leaq	-144(%rbp), %rax
 6825      FFFFFF
 6826 366f BA090100 		movl	$265, %edx
 6826      00
 6827 3674 4889CE   		movq	%rcx, %rsi
 6828 3677 4889C7   		movq	%rax, %rdi
 6829 367a E8000000 		call	_ZN8UnitTest11TestDetailsC1ERKS0_i@PLT
 6829      00
 265:TestChecks.cpp ****     CHECK_EQUAL(1, results.GetFailureCount());
 6830              		.loc 5 265 5 discriminator 17
 6831 367f 488D8570 		leaq	-144(%rbp), %rax
 6831      FFFFFF
 6832 3686 488D1500 		leaq	.LC7(%rip), %rdx
 6832      000000
 6833 368d 4889C6   		movq	%rax, %rsi
 6834 3690 4889DF   		movq	%rbx, %rdi
 6835 3693 E8000000 		call	_ZN8UnitTest11TestResults13OnTestFailureERKNS_11TestDetailsEPKc@PLT
 6835      00
 6836              	.LEHE160:
 6837              	.LEHB161:
 265:TestChecks.cpp ****     CHECK_EQUAL(1, results.GetFailureCount());
 6838              		.loc 5 265 5 discriminator 19
 6839 3698 E8000000 		call	__cxa_end_catch@PLT
 6839      00
 6840              	.LEHE161:
 6841              		.loc 5 266 1 is_stmt 1 discriminator 19
 6842 369d EB17     		jmp	.L273
 6843              	.L279:
 6844 369f F30F1EFA 		endbr64
 265:TestChecks.cpp ****     CHECK_EQUAL(1, results.GetFailureCount());
 6845              		.loc 5 265 5
 6846 36a3 4889C3   		movq	%rax, %rbx
 6847 36a6 E8000000 		call	__cxa_end_catch@PLT
 6847      00
 6848 36ab 4889D8   		movq	%rbx, %rax
 6849 36ae 4889C7   		movq	%rax, %rdi
 6850              	.LEHB162:
 6851 36b1 E8000000 		call	_Unwind_Resume@PLT
 6851      00
 6852              	.LEHE162:
 6853              	.L273:
 6854              		.loc 5 266 1
 6855 36b6 488B45E8 		movq	-24(%rbp), %rax
 6856 36ba 64482B04 		subq	%fs:40, %rax
 6856      25280000 
 6856      00
 6857 36c3 7405     		je	.L277
 6858 36c5 E8000000 		call	__stack_chk_fail@PLT
 6858      00
 6859              	.L277:
 6860 36ca 488B5DF8 		movq	-8(%rbp), %rbx
 6861 36ce C9       		leave
 6862              		.cfi_def_cfa 7, 8
 6863 36cf C3       		ret
 6864              		.cfi_endproc
 6865              	.LFE1246:
 6866              		.section	.gcc_except_table
 6867              		.align 4
 6868              	.LLSDA1246:
 6869 0480 FF       		.byte	0xff
 6870 0481 9B       		.byte	0x9b
 6871 0482 25       		.uleb128 .LLSDATT1246-.LLSDATTD1246
 6872              	.LLSDATTD1246:
 6873 0483 01       		.byte	0x1
 6874 0484 1B       		.uleb128 .LLSDACSE1246-.LLSDACSB1246
 6875              	.LLSDACSB1246:
 6876 0485 35       		.uleb128 .LEHB158-.LFB1246
 6877 0486 E402     		.uleb128 .LEHE158-.LEHB158
 6878 0488 00       		.uleb128 0
 6879 0489 00       		.uleb128 0
 6880 048a 9D03     		.uleb128 .LEHB159-.LFB1246
 6881 048c 63       		.uleb128 .LEHE159-.LEHB159
 6882 048d 8204     		.uleb128 .L278-.LFB1246
 6883 048f 01       		.uleb128 0x1
 6884 0490 8E04     		.uleb128 .LEHB160-.LFB1246
 6885 0492 40       		.uleb128 .LEHE160-.LEHB160
 6886 0493 D504     		.uleb128 .L279-.LFB1246
 6887 0495 00       		.uleb128 0
 6888 0496 CE04     		.uleb128 .LEHB161-.LFB1246
 6889 0498 05       		.uleb128 .LEHE161-.LEHB161
 6890 0499 00       		.uleb128 0
 6891 049a 00       		.uleb128 0
 6892 049b E704     		.uleb128 .LEHB162-.LFB1246
 6893 049d 05       		.uleb128 .LEHE162-.LEHB162
 6894 049e 00       		.uleb128 0
 6895 049f 00       		.uleb128 0
 6896              	.LLSDACSE1246:
 6897 04a0 01       		.byte	0x1
 6898 04a1 00       		.byte	0
 6899 04a2 0000     		.align 4
 6900 04a4 00000000 		.long	0
 6901              	
 6902              	.LLSDATT1246:
 6903              		.text
 6905              		.section	.rodata
 6906              	.LC86:
 6907 0a1f 43686563 		.string	"CheckCloseWithDoublesSucceeds"
 6907      6B436C6F 
 6907      73655769 
 6907      7468446F 
 6907      75626C65 
 6908              		.text
 6909              		.align 2
 6911              	_ZN12_GLOBAL__N_133TestCheckCloseWithDoublesSucceedsC2Ev:
 6912              	.LFB1248:
 267:TestChecks.cpp **** 
 268:TestChecks.cpp **** TEST(CheckCloseWithDoublesSucceeds)
 6913              		.loc 5 268 1
 6914              		.cfi_startproc
 6915 36d0 55       		pushq	%rbp
 6916              		.cfi_def_cfa_offset 16
 6917              		.cfi_offset 6, -16
 6918 36d1 4889E5   		movq	%rsp, %rbp
 6919              		.cfi_def_cfa_register 6
 6920 36d4 53       		pushq	%rbx
 6921 36d5 4883EC18 		subq	$24, %rsp
 6922              		.cfi_offset 3, -24
 6923 36d9 48897DE8 		movq	%rdi, -24(%rbp)
 6924              	.LBB30:
 6925              		.loc 5 268 1
 6926 36dd 488B5DE8 		movq	-24(%rbp), %rbx
 6927 36e1 E8000000 		call	_ZN13UnitTestSuite12GetSuiteNameEv
 6927      00
 6928 36e6 4889C2   		movq	%rax, %rdx
 6929 36e9 41B80C01 		movl	$268, %r8d
 6929      0000
 6930 36ef 488D0500 		leaq	.LC2(%rip), %rax
 6930      000000
 6931 36f6 4889C1   		movq	%rax, %rcx
 6932 36f9 488D0500 		leaq	.LC86(%rip), %rax
 6932      000000
 6933 3700 4889C6   		movq	%rax, %rsi
 6934 3703 4889DF   		movq	%rbx, %rdi
 6935 3706 E8000000 		call	_ZN8UnitTest4TestC2EPKcS2_S2_i@PLT
 6935      00
 6936 370b 488D1500 		leaq	16+_ZTVN12_GLOBAL__N_133TestCheckCloseWithDoublesSucceedsE(%rip), %rdx
 6936      000000
 6937 3712 488B45E8 		movq	-24(%rbp), %rax
 6938 3716 488910   		movq	%rdx, (%rax)
 6939              	.LBE30:
 6940 3719 90       		nop
 6941 371a 488B5DF8 		movq	-8(%rbp), %rbx
 6942 371e C9       		leave
 6943              		.cfi_def_cfa 7, 8
 6944 371f C3       		ret
 6945              		.cfi_endproc
 6946              	.LFE1248:
 6948              		.set	_ZN12_GLOBAL__N_133TestCheckCloseWithDoublesSucceedsC1Ev,_ZN12_GLOBAL__N_133TestCheckCloseWit
 6949              		.local	_ZN12_GLOBAL__N_141testCheckCloseWithDoublesSucceedsInstanceE
 6950              		.comm	_ZN12_GLOBAL__N_141testCheckCloseWithDoublesSucceedsInstanceE,56,32
 6951              		.local	_ZN12_GLOBAL__N_134adderCheckCloseWithDoublesSucceedsE
 6952              		.comm	_ZN12_GLOBAL__N_134adderCheckCloseWithDoublesSucceedsE,1,1
 6953              		.section	.rodata
 6954 0a3d 000000   		.align 8
 6955              	.LC89:
 6956 0a40 556E6861 		.string	"Unhandled exception in CHECK_CLOSE(0.5, 0.5)"
 6956      6E646C65 
 6956      64206578 
 6956      63657074 
 6956      696F6E20 
 6957              		.text
 6958              		.align 2
 6960              	_ZNK12_GLOBAL__N_133TestCheckCloseWithDoublesSucceeds7RunImplEv:
 6961              	.LFB1250:
 269:TestChecks.cpp **** {
 6962              		.loc 5 269 1
 6963              		.cfi_startproc
 6964              		.cfi_personality 0x9b,DW.ref.__gxx_personality_v0
 6965              		.cfi_lsda 0x1b,.LLSDA1250
 6966 3720 F30F1EFA 		endbr64
 6967 3724 55       		pushq	%rbp
 6968              		.cfi_def_cfa_offset 16
 6969              		.cfi_offset 6, -16
 6970 3725 4889E5   		movq	%rsp, %rbp
 6971              		.cfi_def_cfa_register 6
 6972 3728 53       		pushq	%rbx
 6973 3729 4883EC68 		subq	$104, %rsp
 6974              		.cfi_offset 3, -24
 6975 372d 48897D98 		movq	%rdi, -104(%rbp)
 6976              		.loc 5 269 1
 6977 3731 64488B04 		movq	%fs:40, %rax
 6977      25280000 
 6977      00
 6978 373a 488945E8 		movq	%rax, -24(%rbp)
 6979 373e 31C0     		xorl	%eax, %eax
 6980              	.LEHB163:
 270:TestChecks.cpp ****     CHECK_CLOSE(0.5, 0.5, 0.0001);
 6981              		.loc 5 270 5
 6982 3740 E8000000 		call	_ZN8UnitTest11CurrentTest7DetailsEv@PLT
 6982      00
 6983 3745 488B08   		movq	(%rax), %rcx
 6984 3748 488D45C0 		leaq	-64(%rbp), %rax
 6985 374c BA0E0100 		movl	$270, %edx
 6985      00
 6986 3751 4889CE   		movq	%rcx, %rsi
 6987 3754 4889C7   		movq	%rax, %rdi
 6988 3757 E8000000 		call	_ZN8UnitTest11TestDetailsC1ERKS0_i@PLT
 6988      00
 6989              		.loc 5 270 5 is_stmt 0 discriminator 4
 6990 375c F20F1005 		movsd	.LC87(%rip), %xmm0
 6990      00000000 
 6991 3764 F20F1145 		movsd	%xmm0, -72(%rbp)
 6991      B8
 6992 3769 F20F1005 		movsd	.LC88(%rip), %xmm0
 6992      00000000 
 6993 3771 F20F1145 		movsd	%xmm0, -80(%rbp)
 6993      B0
 6994 3776 F20F1005 		movsd	.LC88(%rip), %xmm0
 6994      00000000 
 6995 377e F20F1145 		movsd	%xmm0, -88(%rbp)
 6995      A8
 6996 3783 E8000000 		call	_ZN8UnitTest11CurrentTest7ResultsEv@PLT
 6996      00
 6997 3788 488B00   		movq	(%rax), %rax
 6998 378b 488D7DC0 		leaq	-64(%rbp), %rdi
 6999 378f 488D4DB8 		leaq	-72(%rbp), %rcx
 7000 3793 488D55B0 		leaq	-80(%rbp), %rdx
 7001 3797 488D75A8 		leaq	-88(%rbp), %rsi
 7002 379b 4989F8   		movq	%rdi, %r8
 7003 379e 4889C7   		movq	%rax, %rdi
 7004 37a1 E8000000 		call	_ZN8UnitTest10CheckCloseIdddEEvRNS_11TestResultsERKT_RKT0_RKT1_RKNS_11TestDetailsE
 7004      00
 7005              	.LEHE163:
 271:TestChecks.cpp **** }
 7006              		.loc 5 271 1 is_stmt 1
 7007 37a6 EB64     		jmp	.L281
 7008              	.L286:
 7009 37a8 F30F1EFA 		endbr64
 270:TestChecks.cpp ****     CHECK_CLOSE(0.5, 0.5, 0.0001);
 7010              		.loc 5 270 5
 7011 37ac 4889C7   		movq	%rax, %rdi
 7012 37af E8000000 		call	__cxa_begin_catch@PLT
 7012      00
 7013              	.LEHB164:
 7014 37b4 E8000000 		call	_ZN8UnitTest11CurrentTest7ResultsEv@PLT
 7014      00
 270:TestChecks.cpp ****     CHECK_CLOSE(0.5, 0.5, 0.0001);
 7015              		.loc 5 270 5 is_stmt 0 discriminator 3
 7016 37b9 488B18   		movq	(%rax), %rbx
 7017 37bc E8000000 		call	_ZN8UnitTest11CurrentTest7DetailsEv@PLT
 7017      00
 270:TestChecks.cpp ****     CHECK_CLOSE(0.5, 0.5, 0.0001);
 7018              		.loc 5 270 5 discriminator 11
 7019 37c1 488B08   		movq	(%rax), %rcx
 7020 37c4 488D45C0 		leaq	-64(%rbp), %rax
 7021 37c8 BA0E0100 		movl	$270, %edx
 7021      00
 7022 37cd 4889CE   		movq	%rcx, %rsi
 7023 37d0 4889C7   		movq	%rax, %rdi
 7024 37d3 E8000000 		call	_ZN8UnitTest11TestDetailsC1ERKS0_i@PLT
 7024      00
 270:TestChecks.cpp ****     CHECK_CLOSE(0.5, 0.5, 0.0001);
 7025              		.loc 5 270 5 discriminator 15
 7026 37d8 488D45C0 		leaq	-64(%rbp), %rax
 7027 37dc 488D1500 		leaq	.LC89(%rip), %rdx
 7027      000000
 7028 37e3 4889C6   		movq	%rax, %rsi
 7029 37e6 4889DF   		movq	%rbx, %rdi
 7030 37e9 E8000000 		call	_ZN8UnitTest11TestResults13OnTestFailureERKNS_11TestDetailsEPKc@PLT
 7030      00
 7031              	.LEHE164:
 7032              	.LEHB165:
 270:TestChecks.cpp ****     CHECK_CLOSE(0.5, 0.5, 0.0001);
 7033              		.loc 5 270 5 discriminator 17
 7034 37ee E8000000 		call	__cxa_end_catch@PLT
 7034      00
 7035              	.LEHE165:
 7036              		.loc 5 271 1 is_stmt 1 discriminator 17
 7037 37f3 EB17     		jmp	.L281
 7038              	.L287:
 7039 37f5 F30F1EFA 		endbr64
 270:TestChecks.cpp ****     CHECK_CLOSE(0.5, 0.5, 0.0001);
 7040              		.loc 5 270 5
 7041 37f9 4889C3   		movq	%rax, %rbx
 7042 37fc E8000000 		call	__cxa_end_catch@PLT
 7042      00
 7043 3801 4889D8   		movq	%rbx, %rax
 7044 3804 4889C7   		movq	%rax, %rdi
 7045              	.LEHB166:
 7046 3807 E8000000 		call	_Unwind_Resume@PLT
 7046      00
 7047              	.LEHE166:
 7048              	.L281:
 7049              		.loc 5 271 1
 7050 380c 488B45E8 		movq	-24(%rbp), %rax
 7051 3810 64482B04 		subq	%fs:40, %rax
 7051      25280000 
 7051      00
 7052 3819 7405     		je	.L285
 7053 381b E8000000 		call	__stack_chk_fail@PLT
 7053      00
 7054              	.L285:
 7055 3820 488B5DF8 		movq	-8(%rbp), %rbx
 7056 3824 C9       		leave
 7057              		.cfi_def_cfa 7, 8
 7058 3825 C3       		ret
 7059              		.cfi_endproc
 7060              	.LFE1250:
 7061              		.section	.gcc_except_table
 7062              		.align 4
 7063              	.LLSDA1250:
 7064 04a8 FF       		.byte	0xff
 7065 04a9 9B       		.byte	0x9b
 7066 04aa 1D       		.uleb128 .LLSDATT1250-.LLSDATTD1250
 7067              	.LLSDATTD1250:
 7068 04ab 01       		.byte	0x1
 7069 04ac 15       		.uleb128 .LLSDACSE1250-.LLSDACSB1250
 7070              	.LLSDACSB1250:
 7071 04ad 20       		.uleb128 .LEHB163-.LFB1250
 7072 04ae 66       		.uleb128 .LEHE163-.LEHB163
 7073 04af 8801     		.uleb128 .L286-.LFB1250
 7074 04b1 01       		.uleb128 0x1
 7075 04b2 9401     		.uleb128 .LEHB164-.LFB1250
 7076 04b4 3A       		.uleb128 .LEHE164-.LEHB164
 7077 04b5 D501     		.uleb128 .L287-.LFB1250
 7078 04b7 00       		.uleb128 0
 7079 04b8 CE01     		.uleb128 .LEHB165-.LFB1250
 7080 04ba 05       		.uleb128 .LEHE165-.LEHB165
 7081 04bb 00       		.uleb128 0
 7082 04bc 00       		.uleb128 0
 7083 04bd E701     		.uleb128 .LEHB166-.LFB1250
 7084 04bf 05       		.uleb128 .LEHE166-.LEHB166
 7085 04c0 00       		.uleb128 0
 7086 04c1 00       		.uleb128 0
 7087              	.LLSDACSE1250:
 7088 04c2 01       		.byte	0x1
 7089 04c3 00       		.byte	0
 7090              		.align 4
 7091 04c4 00000000 		.long	0
 7092              	
 7093              	.LLSDATT1250:
 7094              		.text
 7096              		.section	.rodata
 7097 0a6d 000000   		.align 8
 7098              	.LC90:
 7099 0a70 43686563 		.string	"CheckArray2DCloseFailureIncludesDetails"
 7099      6B417272 
 7099      61793244 
 7099      436C6F73 
 7099      65466169 
 7100              		.text
 7101              		.align 2
 7103              	_ZN12_GLOBAL__N_143TestCheckArray2DCloseFailureIncludesDetailsC2Ev:
 7104              	.LFB1252:
 272:TestChecks.cpp **** 
 273:TestChecks.cpp **** TEST(CheckArray2DCloseFailureIncludesDetails)
 7105              		.loc 5 273 1
 7106              		.cfi_startproc
 7107 3826 55       		pushq	%rbp
 7108              		.cfi_def_cfa_offset 16
 7109              		.cfi_offset 6, -16
 7110 3827 4889E5   		movq	%rsp, %rbp
 7111              		.cfi_def_cfa_register 6
 7112 382a 53       		pushq	%rbx
 7113 382b 4883EC18 		subq	$24, %rsp
 7114              		.cfi_offset 3, -24
 7115 382f 48897DE8 		movq	%rdi, -24(%rbp)
 7116              	.LBB31:
 7117              		.loc 5 273 1
 7118 3833 488B5DE8 		movq	-24(%rbp), %rbx
 7119 3837 E8000000 		call	_ZN13UnitTestSuite12GetSuiteNameEv
 7119      00
 7120 383c 4889C2   		movq	%rax, %rdx
 7121 383f 41B81101 		movl	$273, %r8d
 7121      0000
 7122 3845 488D0500 		leaq	.LC2(%rip), %rax
 7122      000000
 7123 384c 4889C1   		movq	%rax, %rcx
 7124 384f 488D0500 		leaq	.LC90(%rip), %rax
 7124      000000
 7125 3856 4889C6   		movq	%rax, %rsi
 7126 3859 4889DF   		movq	%rbx, %rdi
 7127 385c E8000000 		call	_ZN8UnitTest4TestC2EPKcS2_S2_i@PLT
 7127      00
 7128 3861 488D1500 		leaq	16+_ZTVN12_GLOBAL__N_143TestCheckArray2DCloseFailureIncludesDetailsE(%rip), %rdx
 7128      000000
 7129 3868 488B45E8 		movq	-24(%rbp), %rax
 7130 386c 488910   		movq	%rdx, (%rax)
 7131              	.LBE31:
 7132 386f 90       		nop
 7133 3870 488B5DF8 		movq	-8(%rbp), %rbx
 7134 3874 C9       		leave
 7135              		.cfi_def_cfa 7, 8
 7136 3875 C3       		ret
 7137              		.cfi_endproc
 7138              	.LFE1252:
 7140              		.set	_ZN12_GLOBAL__N_143TestCheckArray2DCloseFailureIncludesDetailsC1Ev,_ZN12_GLOBAL__N_143TestChe
 7141              		.local	_ZN12_GLOBAL__N_151testCheckArray2DCloseFailureIncludesDetailsInstanceE
 7142              		.comm	_ZN12_GLOBAL__N_151testCheckArray2DCloseFailureIncludesDetailsInstanceE,56,32
 7143              		.local	_ZN12_GLOBAL__N_144adderCheckArray2DCloseFailureIncludesDetailsE
 7144              		.comm	_ZN12_GLOBAL__N_144adderCheckArray2DCloseFailureIncludesDetailsE,1,1
 7145              		.section	.rodata
 7146              	.LC91:
 7147 0a98 61727261 		.string	"array2DCloseSuite"
 7147      79324443 
 7147      6C6F7365 
 7147      53756974 
 7147      6500
 7148              	.LC92:
 7149 0aaa 61727261 		.string	"array2DCloseTest"
 7149      79324443 
 7149      6C6F7365 
 7149      54657374 
 7149      00
 7150 0abb 00000000 		.align 8
 7150      00
 7151              	.LC93:
 7152 0ac0 556E6861 		.string	"Unhandled exception in CHECK_EQUAL(\"array2DCloseTest\", reporter.lastFailedTest)"
 7152      6E646C65 
 7152      64206578 
 7152      63657074 
 7152      696F6E20 
 7153              		.align 8
 7154              	.LC94:
 7155 0b10 556E6861 		.string	"Unhandled exception in CHECK_EQUAL(\"array2DCloseSuite\", reporter.lastFailedSuite)"
 7155      6E646C65 
 7155      64206578 
 7155      63657074 
 7155      696F6E20 
 7156 0b62 00000000 		.align 8
 7156      0000
 7157              	.LC95:
 7158 0b68 556E6861 		.string	"Unhandled exception in CHECK_EQUAL(1234, reporter.lastFailedLine)"
 7158      6E646C65 
 7158      64206578 
 7158      63657074 
 7158      696F6E20 
 7159              		.text
 7160              		.align 2
 7162              	_ZNK12_GLOBAL__N_143TestCheckArray2DCloseFailureIncludesDetails7RunImplEv:
 7163              	.LFB1254:
 274:TestChecks.cpp **** {
 7164              		.loc 5 274 1
 7165              		.cfi_startproc
 7166              		.cfi_personality 0x9b,DW.ref.__gxx_personality_v0
 7167              		.cfi_lsda 0x1b,.LLSDA1254
 7168 3876 F30F1EFA 		endbr64
 7169 387a 55       		pushq	%rbp
 7170              		.cfi_def_cfa_offset 16
 7171              		.cfi_offset 6, -16
 7172 387b 4889E5   		movq	%rsp, %rbp
 7173              		.cfi_def_cfa_register 6
 7174 387e 53       		pushq	%rbx
 7175 387f 4881EC28 		subq	$2344, %rsp
 7175      090000
 7176              		.cfi_offset 3, -24
 7177 3886 4889BDD8 		movq	%rdi, -2344(%rbp)
 7177      F6FFFF
 7178              		.loc 5 274 1
 7179 388d 64488B04 		movq	%fs:40, %rax
 7179      25280000 
 7179      00
 7180 3896 488945E8 		movq	%rax, -24(%rbp)
 7181 389a 31C0     		xorl	%eax, %eax
 275:TestChecks.cpp ****     RecordingReporter reporter;
 7182              		.loc 5 275 23
 7183 389c 488D85B0 		leaq	-2128(%rbp), %rax
 7183      F7FFFF
 7184 38a3 4889C7   		movq	%rax, %rdi
 7185 38a6 E8000000 		call	_ZN17RecordingReporterC1Ev
 7185      00
 276:TestChecks.cpp ****     TestResults results(&reporter);
 7186              		.loc 5 276 34
 7187 38ab 488D95B0 		leaq	-2128(%rbp), %rdx
 7187      F7FFFF
 7188 38b2 488D85F0 		leaq	-2320(%rbp), %rax
 7188      F6FFFF
 7189 38b9 4889D6   		movq	%rdx, %rsi
 7190 38bc 4889C7   		movq	%rax, %rdi
 7191              	.LEHB167:
 7192 38bf E8000000 		call	_ZN8UnitTest11TestResultsC1EPNS_12TestReporterE@PLT
 7192      00
 277:TestChecks.cpp ****     TestDetails const details("array2DCloseTest", "array2DCloseSuite", "file", 1234);
 7193              		.loc 5 277 84
 7194 38c4 488D8510 		leaq	-2288(%rbp), %rax
 7194      F7FFFF
 7195 38cb 41B8D204 		movl	$1234, %r8d
 7195      0000
 7196 38d1 488D1500 		leaq	.LC70(%rip), %rdx
 7196      000000
 7197 38d8 4889D1   		movq	%rdx, %rcx
 7198 38db 488D1500 		leaq	.LC91(%rip), %rdx
 7198      000000
 7199 38e2 488D3500 		leaq	.LC92(%rip), %rsi
 7199      000000
 7200 38e9 4889C7   		movq	%rax, %rdi
 7201 38ec E8000000 		call	_ZN8UnitTest11TestDetailsC1EPKcS2_S2_i@PLT
 7201      00
 278:TestChecks.cpp **** 
 279:TestChecks.cpp ****     float const array1[3][3] = { { 1.0f, 1.5f, 2.0f },
 7202              		.loc 5 279 17
 7203 38f1 F30F1005 		movss	.LC60(%rip), %xmm0
 7203      00000000 
 7204 38f9 F30F1185 		movss	%xmm0, -2224(%rbp)
 7204      50F7FFFF 
 7205 3901 F30F1005 		movss	.LC61(%rip), %xmm0
 7205      00000000 
 7206 3909 F30F1185 		movss	%xmm0, -2220(%rbp)
 7206      54F7FFFF 
 7207 3911 F30F1005 		movss	.LC62(%rip), %xmm0
 7207      00000000 
 7208 3919 F30F1185 		movss	%xmm0, -2216(%rbp)
 7208      58F7FFFF 
 7209 3921 F30F1005 		movss	.LC62(%rip), %xmm0
 7209      00000000 
 7210 3929 F30F1185 		movss	%xmm0, -2212(%rbp)
 7210      5CF7FFFF 
 7211 3931 F30F1005 		movss	.LC78(%rip), %xmm0
 7211      00000000 
 7212 3939 F30F1185 		movss	%xmm0, -2208(%rbp)
 7212      60F7FFFF 
 7213 3941 F30F1005 		movss	.LC32(%rip), %xmm0
 7213      00000000 
 7214 3949 F30F1185 		movss	%xmm0, -2204(%rbp)
 7214      64F7FFFF 
 7215 3951 F30F1005 		movss	.LC32(%rip), %xmm0
 7215      00000000 
 7216 3959 F30F1185 		movss	%xmm0, -2200(%rbp)
 7216      68F7FFFF 
 7217 3961 F30F1005 		movss	.LC79(%rip), %xmm0
 7217      00000000 
 7218 3969 F30F1185 		movss	%xmm0, -2196(%rbp)
 7218      6CF7FFFF 
 7219 3971 F30F1005 		movss	.LC80(%rip), %xmm0
 7219      00000000 
 7220 3979 F30F1185 		movss	%xmm0, -2192(%rbp)
 7220      70F7FFFF 
 280:TestChecks.cpp ****                                  { 2.0f, 2.5f, 3.0f },
 281:TestChecks.cpp ****                                  { 3.0f, 3.5f, 4.0f } };
 282:TestChecks.cpp ****     float const array2[3][3] = { { 1.01f, 1.51f, 2.01f },
 7221              		.loc 5 282 17
 7222 3981 F30F1005 		movss	.LC63(%rip), %xmm0
 7222      00000000 
 7223 3989 F30F1185 		movss	%xmm0, -2176(%rbp)
 7223      80F7FFFF 
 7224 3991 F30F1005 		movss	.LC64(%rip), %xmm0
 7224      00000000 
 7225 3999 F30F1185 		movss	%xmm0, -2172(%rbp)
 7225      84F7FFFF 
 7226 39a1 F30F1005 		movss	.LC65(%rip), %xmm0
 7226      00000000 
 7227 39a9 F30F1185 		movss	%xmm0, -2168(%rbp)
 7227      88F7FFFF 
 7228 39b1 F30F1005 		movss	.LC65(%rip), %xmm0
 7228      00000000 
 7229 39b9 F30F1185 		movss	%xmm0, -2164(%rbp)
 7229      8CF7FFFF 
 7230 39c1 F30F1005 		movss	.LC81(%rip), %xmm0
 7230      00000000 
 7231 39c9 F30F1185 		movss	%xmm0, -2160(%rbp)
 7231      90F7FFFF 
 7232 39d1 F30F1005 		movss	.LC82(%rip), %xmm0
 7232      00000000 
 7233 39d9 F30F1185 		movss	%xmm0, -2156(%rbp)
 7233      94F7FFFF 
 7234 39e1 F30F1005 		movss	.LC82(%rip), %xmm0
 7234      00000000 
 7235 39e9 F30F1185 		movss	%xmm0, -2152(%rbp)
 7235      98F7FFFF 
 7236 39f1 F30F1005 		movss	.LC83(%rip), %xmm0
 7236      00000000 
 7237 39f9 F30F1185 		movss	%xmm0, -2148(%rbp)
 7237      9CF7FFFF 
 7238 3a01 F30F1005 		movss	.LC84(%rip), %xmm0
 7238      00000000 
 7239 3a09 F30F1185 		movss	%xmm0, -2144(%rbp)
 7239      A0F7FFFF 
 283:TestChecks.cpp ****                                  { 2.01f, 2.51f, 3.01f },
 284:TestChecks.cpp ****                                  { 3.01f, 3.51f, 4.01f } };
 285:TestChecks.cpp ****     CheckArray2DClose(results, array1, array2, 3, 3, 0.001f, details);
 7240              		.loc 5 285 54
 7241 3a11 F30F1005 		movss	.LC68(%rip), %xmm0
 7241      00000000 
 7242 3a19 F30F1185 		movss	%xmm0, -2256(%rbp)
 7242      30F7FFFF 
 7243              		.loc 5 285 22
 7244 3a21 488DBD30 		leaq	-2256(%rbp), %rdi
 7244      F7FFFF
 7245 3a28 488D9580 		leaq	-2176(%rbp), %rdx
 7245      F7FFFF
 7246 3a2f 488DB550 		leaq	-2224(%rbp), %rsi
 7246      F7FFFF
 7247 3a36 488D85F0 		leaq	-2320(%rbp), %rax
 7247      F6FFFF
 7248 3a3d 4883EC08 		subq	$8, %rsp
 7249 3a41 488D8D10 		leaq	-2288(%rbp), %rcx
 7249      F7FFFF
 7250 3a48 51       		pushq	%rcx
 7251 3a49 4989F9   		movq	%rdi, %r9
 7252 3a4c 41B80300 		movl	$3, %r8d
 7252      0000
 7253 3a52 B9030000 		movl	$3, %ecx
 7253      00
 7254 3a57 4889C7   		movq	%rax, %rdi
 7255              		.cfi_escape 0x2e,0x10
 7256 3a5a E8000000 		call	_ZN8UnitTest17CheckArray2DCloseIA3_A3_fS2_fEEvRNS_11TestResultsERKT_RKT0_iiRKT1_RKNS_11TestDe
 7256      00
 7257              	.LEHE167:
 7258 3a5f 4883C410 		addq	$16, %rsp
 7259              	.LEHB168:
 7260              		.cfi_escape 0x2e,0
 286:TestChecks.cpp **** 
 287:TestChecks.cpp ****     CHECK_EQUAL("array2DCloseTest", reporter.lastFailedTest);
 7261              		.loc 5 287 5
 7262 3a63 E8000000 		call	_ZN8UnitTest11CurrentTest7DetailsEv@PLT
 7262      00
 7263              		.loc 5 287 5 is_stmt 0 discriminator 2
 7264 3a68 488B08   		movq	(%rax), %rcx
 7265 3a6b 488D8530 		leaq	-2256(%rbp), %rax
 7265      F7FFFF
 7266 3a72 BA1F0100 		movl	$287, %edx
 7266      00
 7267 3a77 4889CE   		movq	%rcx, %rsi
 7268 3a7a 4889C7   		movq	%rax, %rdi
 7269 3a7d E8000000 		call	_ZN8UnitTest11TestDetailsC1ERKS0_i@PLT
 7269      00
 7270              		.loc 5 287 5 discriminator 4
 7271 3a82 E8000000 		call	_ZN8UnitTest11CurrentTest7ResultsEv@PLT
 7271      00
 7272 3a87 488B00   		movq	(%rax), %rax
 7273 3a8a 488D9530 		leaq	-2256(%rbp), %rdx
 7273      F7FFFF
 7274 3a91 488D8DB0 		leaq	-2128(%rbp), %rcx
 7274      F7FFFF
 7275 3a98 488DB114 		leaq	1044(%rcx), %rsi
 7275      040000
 7276 3a9f 4889D1   		movq	%rdx, %rcx
 7277 3aa2 4889F2   		movq	%rsi, %rdx
 7278 3aa5 488D3500 		leaq	.LC92(%rip), %rsi
 7278      000000
 7279 3aac 4889C7   		movq	%rax, %rdi
 7280 3aaf E8000000 		call	_ZN8UnitTest10CheckEqualERNS_11TestResultsEPKcPcRKNS_11TestDetailsE@PLT
 7280      00
 7281              	.LEHE168:
 7282              	.L291:
 7283              	.LEHB169:
 288:TestChecks.cpp ****     CHECK_EQUAL("array2DCloseSuite", reporter.lastFailedSuite);
 7284              		.loc 5 288 5 is_stmt 1
 7285 3ab4 E8000000 		call	_ZN8UnitTest11CurrentTest7DetailsEv@PLT
 7285      00
 7286 3ab9 488B08   		movq	(%rax), %rcx
 7287 3abc 488D8530 		leaq	-2256(%rbp), %rax
 7287      F7FFFF
 7288 3ac3 BA200100 		movl	$288, %edx
 7288      00
 7289 3ac8 4889CE   		movq	%rcx, %rsi
 7290 3acb 4889C7   		movq	%rax, %rdi
 7291 3ace E8000000 		call	_ZN8UnitTest11TestDetailsC1ERKS0_i@PLT
 7291      00
 7292              		.loc 5 288 5 is_stmt 0 discriminator 4
 7293 3ad3 E8000000 		call	_ZN8UnitTest11CurrentTest7ResultsEv@PLT
 7293      00
 7294 3ad8 488B00   		movq	(%rax), %rax
 7295 3adb 488D9530 		leaq	-2256(%rbp), %rdx
 7295      F7FFFF
 7296 3ae2 488D8DB0 		leaq	-2128(%rbp), %rcx
 7296      F7FFFF
 7297 3ae9 488DB114 		leaq	788(%rcx), %rsi
 7297      030000
 7298 3af0 4889D1   		movq	%rdx, %rcx
 7299 3af3 4889F2   		movq	%rsi, %rdx
 7300 3af6 488D3500 		leaq	.LC91(%rip), %rsi
 7300      000000
 7301 3afd 4889C7   		movq	%rax, %rdi
 7302 3b00 E8000000 		call	_ZN8UnitTest10CheckEqualERNS_11TestResultsEPKcPcRKNS_11TestDetailsE@PLT
 7302      00
 7303              	.LEHE169:
 7304              	.L295:
 7305              	.LEHB170:
 289:TestChecks.cpp ****     CHECK_EQUAL("file", reporter.lastFailedFile);
 7306              		.loc 5 289 5 is_stmt 1
 7307 3b05 E8000000 		call	_ZN8UnitTest11CurrentTest7DetailsEv@PLT
 7307      00
 7308 3b0a 488B08   		movq	(%rax), %rcx
 7309 3b0d 488D8530 		leaq	-2256(%rbp), %rax
 7309      F7FFFF
 7310 3b14 BA210100 		movl	$289, %edx
 7310      00
 7311 3b19 4889CE   		movq	%rcx, %rsi
 7312 3b1c 4889C7   		movq	%rax, %rdi
 7313 3b1f E8000000 		call	_ZN8UnitTest11TestDetailsC1ERKS0_i@PLT
 7313      00
 7314              		.loc 5 289 5 is_stmt 0 discriminator 4
 7315 3b24 E8000000 		call	_ZN8UnitTest11CurrentTest7ResultsEv@PLT
 7315      00
 7316 3b29 488B00   		movq	(%rax), %rax
 7317 3b2c 488D9530 		leaq	-2256(%rbp), %rdx
 7317      F7FFFF
 7318 3b33 488D8DB0 		leaq	-2128(%rbp), %rcx
 7318      F7FFFF
 7319 3b3a 488DB110 		leaq	528(%rcx), %rsi
 7319      020000
 7320 3b41 4889D1   		movq	%rdx, %rcx
 7321 3b44 4889F2   		movq	%rsi, %rdx
 7322 3b47 488D3500 		leaq	.LC70(%rip), %rsi
 7322      000000
 7323 3b4e 4889C7   		movq	%rax, %rdi
 7324 3b51 E8000000 		call	_ZN8UnitTest10CheckEqualERNS_11TestResultsEPKcPcRKNS_11TestDetailsE@PLT
 7324      00
 7325              	.LEHE170:
 7326              	.L298:
 7327              	.LEHB171:
 290:TestChecks.cpp ****     CHECK_EQUAL(1234, reporter.lastFailedLine);
 7328              		.loc 5 290 5 is_stmt 1
 7329 3b56 E8000000 		call	_ZN8UnitTest11CurrentTest7DetailsEv@PLT
 7329      00
 7330 3b5b 488B08   		movq	(%rax), %rcx
 7331 3b5e 488D8530 		leaq	-2256(%rbp), %rax
 7331      F7FFFF
 7332 3b65 BA220100 		movl	$290, %edx
 7332      00
 7333 3b6a 4889CE   		movq	%rcx, %rsi
 7334 3b6d 4889C7   		movq	%rax, %rdi
 7335 3b70 E8000000 		call	_ZN8UnitTest11TestDetailsC1ERKS0_i@PLT
 7335      00
 7336              		.loc 5 290 5 is_stmt 0 discriminator 4
 7337 3b75 C785ECF6 		movl	$1234, -2324(%rbp)
 7337      FFFFD204 
 7337      0000
 7338 3b7f E8000000 		call	_ZN8UnitTest11CurrentTest7ResultsEv@PLT
 7338      00
 7339 3b84 488B00   		movq	(%rax), %rax
 7340 3b87 488D9530 		leaq	-2256(%rbp), %rdx
 7340      F7FFFF
 7341 3b8e 488D8DB0 		leaq	-2128(%rbp), %rcx
 7341      F7FFFF
 7342 3b95 488DB910 		leaq	784(%rcx), %rdi
 7342      030000
 7343 3b9c 488DB5EC 		leaq	-2324(%rbp), %rsi
 7343      F6FFFF
 7344 3ba3 4889D1   		movq	%rdx, %rcx
 7345 3ba6 4889FA   		movq	%rdi, %rdx
 7346 3ba9 4889C7   		movq	%rax, %rdi
 7347 3bac E8000000 		call	_ZN8UnitTest10CheckEqualIiiEEvRNS_11TestResultsERKT_RKT0_RKNS_11TestDetailsE
 7347      00
 7348              	.LEHE171:
 7349              	.L301:
 291:TestChecks.cpp **** }
 7350              		.loc 5 291 1 is_stmt 1
 7351 3bb1 488D85B0 		leaq	-2128(%rbp), %rax
 7351      F7FFFF
 7352 3bb8 4889C7   		movq	%rax, %rdi
 7353              	.LEHB172:
 7354 3bbb E8000000 		call	_ZN17RecordingReporterD1Ev
 7354      00
 7355              	.LEHE172:
 7356 3bc0 488B45E8 		movq	-24(%rbp), %rax
 7357 3bc4 64482B04 		subq	%fs:40, %rax
 7357      25280000 
 7357      00
 7358 3bcd 0F84C101 		je	.L303
 7358      0000
 7359 3bd3 E9B70100 		jmp	.L313
 7359      00
 7360              	.L305:
 7361 3bd8 F30F1EFA 		endbr64
 287:TestChecks.cpp ****     CHECK_EQUAL("array2DCloseSuite", reporter.lastFailedSuite);
 7362              		.loc 5 287 5
 7363 3bdc 4889C7   		movq	%rax, %rdi
 7364 3bdf E8000000 		call	__cxa_begin_catch@PLT
 7364      00
 7365              	.LEHB173:
 7366 3be4 E8000000 		call	_ZN8UnitTest11CurrentTest7ResultsEv@PLT
 7366      00
 287:TestChecks.cpp ****     CHECK_EQUAL("array2DCloseSuite", reporter.lastFailedSuite);
 7367              		.loc 5 287 5 is_stmt 0 discriminator 3
 7368 3be9 488B18   		movq	(%rax), %rbx
 7369 3bec E8000000 		call	_ZN8UnitTest11CurrentTest7DetailsEv@PLT
 7369      00
 287:TestChecks.cpp ****     CHECK_EQUAL("array2DCloseSuite", reporter.lastFailedSuite);
 7370              		.loc 5 287 5 discriminator 11
 7371 3bf1 488B08   		movq	(%rax), %rcx
 7372 3bf4 488D8530 		leaq	-2256(%rbp), %rax
 7372      F7FFFF
 7373 3bfb BA1F0100 		movl	$287, %edx
 7373      00
 7374 3c00 4889CE   		movq	%rcx, %rsi
 7375 3c03 4889C7   		movq	%rax, %rdi
 7376 3c06 E8000000 		call	_ZN8UnitTest11TestDetailsC1ERKS0_i@PLT
 7376      00
 287:TestChecks.cpp ****     CHECK_EQUAL("array2DCloseSuite", reporter.lastFailedSuite);
 7377              		.loc 5 287 5 discriminator 15
 7378 3c0b 488D8530 		leaq	-2256(%rbp), %rax
 7378      F7FFFF
 7379 3c12 488D1500 		leaq	.LC93(%rip), %rdx
 7379      000000
 7380 3c19 4889C6   		movq	%rax, %rsi
 7381 3c1c 4889DF   		movq	%rbx, %rdi
 7382 3c1f E8000000 		call	_ZN8UnitTest11TestResults13OnTestFailureERKNS_11TestDetailsEPKc@PLT
 7382      00
 7383              	.LEHE173:
 7384              	.LEHB174:
 287:TestChecks.cpp ****     CHECK_EQUAL("array2DCloseSuite", reporter.lastFailedSuite);
 7385              		.loc 5 287 5 discriminator 17
 7386 3c24 E8000000 		call	__cxa_end_catch@PLT
 7386      00
 7387              	.LEHE174:
 287:TestChecks.cpp ****     CHECK_EQUAL("array2DCloseSuite", reporter.lastFailedSuite);
 7388              		.loc 5 287 5
 7389 3c29 E986FEFF 		jmp	.L291
 7389      FF
 7390              	.L306:
 7391 3c2e F30F1EFA 		endbr64
 7392 3c32 4889C3   		movq	%rax, %rbx
 7393 3c35 E8000000 		call	__cxa_end_catch@PLT
 7393      00
 7394 3c3a E9360100 		jmp	.L293
 7394      00
 7395              	.L307:
 7396 3c3f F30F1EFA 		endbr64
 288:TestChecks.cpp ****     CHECK_EQUAL("file", reporter.lastFailedFile);
 7397              		.loc 5 288 5 is_stmt 1
 7398 3c43 4889C7   		movq	%rax, %rdi
 7399 3c46 E8000000 		call	__cxa_begin_catch@PLT
 7399      00
 7400              	.LEHB175:
 7401 3c4b E8000000 		call	_ZN8UnitTest11CurrentTest7ResultsEv@PLT
 7401      00
 288:TestChecks.cpp ****     CHECK_EQUAL("file", reporter.lastFailedFile);
 7402              		.loc 5 288 5 is_stmt 0 discriminator 3
 7403 3c50 488B18   		movq	(%rax), %rbx
 7404 3c53 E8000000 		call	_ZN8UnitTest11CurrentTest7DetailsEv@PLT
 7404      00
 288:TestChecks.cpp ****     CHECK_EQUAL("file", reporter.lastFailedFile);
 7405              		.loc 5 288 5 discriminator 11
 7406 3c58 488B08   		movq	(%rax), %rcx
 7407 3c5b 488D8530 		leaq	-2256(%rbp), %rax
 7407      F7FFFF
 7408 3c62 BA200100 		movl	$288, %edx
 7408      00
 7409 3c67 4889CE   		movq	%rcx, %rsi
 7410 3c6a 4889C7   		movq	%rax, %rdi
 7411 3c6d E8000000 		call	_ZN8UnitTest11TestDetailsC1ERKS0_i@PLT
 7411      00
 288:TestChecks.cpp ****     CHECK_EQUAL("file", reporter.lastFailedFile);
 7412              		.loc 5 288 5 discriminator 15
 7413 3c72 488D8530 		leaq	-2256(%rbp), %rax
 7413      F7FFFF
 7414 3c79 488D1500 		leaq	.LC94(%rip), %rdx
 7414      000000
 7415 3c80 4889C6   		movq	%rax, %rsi
 7416 3c83 4889DF   		movq	%rbx, %rdi
 7417 3c86 E8000000 		call	_ZN8UnitTest11TestResults13OnTestFailureERKNS_11TestDetailsEPKc@PLT
 7417      00
 7418              	.LEHE175:
 7419              	.LEHB176:
 288:TestChecks.cpp ****     CHECK_EQUAL("file", reporter.lastFailedFile);
 7420              		.loc 5 288 5 discriminator 17
 7421 3c8b E8000000 		call	__cxa_end_catch@PLT
 7421      00
 7422              	.LEHE176:
 288:TestChecks.cpp ****     CHECK_EQUAL("file", reporter.lastFailedFile);
 7423              		.loc 5 288 5
 7424 3c90 E970FEFF 		jmp	.L295
 7424      FF
 7425              	.L308:
 7426 3c95 F30F1EFA 		endbr64
 7427 3c99 4889C3   		movq	%rax, %rbx
 7428 3c9c E8000000 		call	__cxa_end_catch@PLT
 7428      00
 7429 3ca1 E9CF0000 		jmp	.L293
 7429      00
 7430              	.L309:
 7431 3ca6 F30F1EFA 		endbr64
 289:TestChecks.cpp ****     CHECK_EQUAL(1234, reporter.lastFailedLine);
 7432              		.loc 5 289 5 is_stmt 1
 7433 3caa 4889C7   		movq	%rax, %rdi
 7434 3cad E8000000 		call	__cxa_begin_catch@PLT
 7434      00
 7435              	.LEHB177:
 7436 3cb2 E8000000 		call	_ZN8UnitTest11CurrentTest7ResultsEv@PLT
 7436      00
 289:TestChecks.cpp ****     CHECK_EQUAL(1234, reporter.lastFailedLine);
 7437              		.loc 5 289 5 is_stmt 0 discriminator 3
 7438 3cb7 488B18   		movq	(%rax), %rbx
 7439 3cba E8000000 		call	_ZN8UnitTest11CurrentTest7DetailsEv@PLT
 7439      00
 289:TestChecks.cpp ****     CHECK_EQUAL(1234, reporter.lastFailedLine);
 7440              		.loc 5 289 5 discriminator 11
 7441 3cbf 488B08   		movq	(%rax), %rcx
 7442 3cc2 488D8530 		leaq	-2256(%rbp), %rax
 7442      F7FFFF
 7443 3cc9 BA210100 		movl	$289, %edx
 7443      00
 7444 3cce 4889CE   		movq	%rcx, %rsi
 7445 3cd1 4889C7   		movq	%rax, %rdi
 7446 3cd4 E8000000 		call	_ZN8UnitTest11TestDetailsC1ERKS0_i@PLT
 7446      00
 289:TestChecks.cpp ****     CHECK_EQUAL(1234, reporter.lastFailedLine);
 7447              		.loc 5 289 5 discriminator 15
 7448 3cd9 488D8530 		leaq	-2256(%rbp), %rax
 7448      F7FFFF
 7449 3ce0 488D1500 		leaq	.LC75(%rip), %rdx
 7449      000000
 7450 3ce7 4889C6   		movq	%rax, %rsi
 7451 3cea 4889DF   		movq	%rbx, %rdi
 7452 3ced E8000000 		call	_ZN8UnitTest11TestResults13OnTestFailureERKNS_11TestDetailsEPKc@PLT
 7452      00
 7453              	.LEHE177:
 7454              	.LEHB178:
 289:TestChecks.cpp ****     CHECK_EQUAL(1234, reporter.lastFailedLine);
 7455              		.loc 5 289 5 discriminator 17
 7456 3cf2 E8000000 		call	__cxa_end_catch@PLT
 7456      00
 7457              	.LEHE178:
 289:TestChecks.cpp ****     CHECK_EQUAL(1234, reporter.lastFailedLine);
 7458              		.loc 5 289 5
 7459 3cf7 E95AFEFF 		jmp	.L298
 7459      FF
 7460              	.L310:
 7461 3cfc F30F1EFA 		endbr64
 7462 3d00 4889C3   		movq	%rax, %rbx
 7463 3d03 E8000000 		call	__cxa_end_catch@PLT
 7463      00
 7464 3d08 EB6B     		jmp	.L293
 7465              	.L311:
 7466 3d0a F30F1EFA 		endbr64
 290:TestChecks.cpp **** }
 7467              		.loc 5 290 5 is_stmt 1
 7468 3d0e 4889C7   		movq	%rax, %rdi
 7469 3d11 E8000000 		call	__cxa_begin_catch@PLT
 7469      00
 7470              	.LEHB179:
 7471 3d16 E8000000 		call	_ZN8UnitTest11CurrentTest7ResultsEv@PLT
 7471      00
 290:TestChecks.cpp **** }
 7472              		.loc 5 290 5 is_stmt 0 discriminator 3
 7473 3d1b 488B18   		movq	(%rax), %rbx
 7474 3d1e E8000000 		call	_ZN8UnitTest11CurrentTest7DetailsEv@PLT
 7474      00
 290:TestChecks.cpp **** }
 7475              		.loc 5 290 5 discriminator 11
 7476 3d23 488B08   		movq	(%rax), %rcx
 7477 3d26 488D8530 		leaq	-2256(%rbp), %rax
 7477      F7FFFF
 7478 3d2d BA220100 		movl	$290, %edx
 7478      00
 7479 3d32 4889CE   		movq	%rcx, %rsi
 7480 3d35 4889C7   		movq	%rax, %rdi
 7481 3d38 E8000000 		call	_ZN8UnitTest11TestDetailsC1ERKS0_i@PLT
 7481      00
 290:TestChecks.cpp **** }
 7482              		.loc 5 290 5 discriminator 15
 7483 3d3d 488D8530 		leaq	-2256(%rbp), %rax
 7483      F7FFFF
 7484 3d44 488D1500 		leaq	.LC95(%rip), %rdx
 7484      000000
 7485 3d4b 4889C6   		movq	%rax, %rsi
 7486 3d4e 4889DF   		movq	%rbx, %rdi
 7487 3d51 E8000000 		call	_ZN8UnitTest11TestResults13OnTestFailureERKNS_11TestDetailsEPKc@PLT
 7487      00
 7488              	.LEHE179:
 7489              	.LEHB180:
 290:TestChecks.cpp **** }
 7490              		.loc 5 290 5 discriminator 17
 7491 3d56 E8000000 		call	__cxa_end_catch@PLT
 7491      00
 7492              	.LEHE180:
 290:TestChecks.cpp **** }
 7493              		.loc 5 290 5
 7494 3d5b E951FEFF 		jmp	.L301
 7494      FF
 7495              	.L312:
 7496 3d60 F30F1EFA 		endbr64
 7497 3d64 4889C3   		movq	%rax, %rbx
 7498 3d67 E8000000 		call	__cxa_end_catch@PLT
 7498      00
 7499 3d6c EB07     		jmp	.L293
 7500              	.L304:
 7501 3d6e F30F1EFA 		endbr64
 7502              		.loc 5 291 1 is_stmt 1
 7503 3d72 4889C3   		movq	%rax, %rbx
 7504              	.L293:
 7505 3d75 488D85B0 		leaq	-2128(%rbp), %rax
 7505      F7FFFF
 7506 3d7c 4889C7   		movq	%rax, %rdi
 7507 3d7f E8000000 		call	_ZN17RecordingReporterD1Ev
 7507      00
 7508 3d84 4889D8   		movq	%rbx, %rax
 7509 3d87 4889C7   		movq	%rax, %rdi
 7510              	.LEHB181:
 7511 3d8a E8000000 		call	_Unwind_Resume@PLT
 7511      00
 7512              	.LEHE181:
 7513              	.L313:
 7514 3d8f E8000000 		call	__stack_chk_fail@PLT
 7514      00
 7515              	.L303:
 7516 3d94 488B5DF8 		movq	-8(%rbp), %rbx
 7517 3d98 C9       		leave
 7518              		.cfi_def_cfa 7, 8
 7519 3d99 C3       		ret
 7520              		.cfi_endproc
 7521              	.LFE1254:
 7522              		.section	.gcc_except_table
 7523              		.align 4
 7524              	.LLSDA1254:
 7525 04c8 FF       		.byte	0xff
 7526 04c9 9B       		.byte	0x9b
 7527 04ca 61       		.uleb128 .LLSDATT1254-.LLSDATTD1254
 7528              	.LLSDATTD1254:
 7529 04cb 01       		.byte	0x1
 7530 04cc 58       		.uleb128 .LLSDACSE1254-.LLSDACSB1254
 7531              	.LLSDACSB1254:
 7532 04cd 49       		.uleb128 .LEHB167-.LFB1254
 7533 04ce A003     		.uleb128 .LEHE167-.LEHB167
 7534 04d0 F809     		.uleb128 .L304-.LFB1254
 7535 04d2 00       		.uleb128 0
 7536 04d3 ED03     		.uleb128 .LEHB168-.LFB1254
 7537 04d5 51       		.uleb128 .LEHE168-.LEHB168
 7538 04d6 E206     		.uleb128 .L305-.LFB1254
 7539 04d8 01       		.uleb128 0x1
 7540 04d9 BE04     		.uleb128 .LEHB169-.LFB1254
 7541 04db 51       		.uleb128 .LEHE169-.LEHB169
 7542 04dc C907     		.uleb128 .L307-.LFB1254
 7543 04de 01       		.uleb128 0x1
 7544 04df 8F05     		.uleb128 .LEHB170-.LFB1254
 7545 04e1 51       		.uleb128 .LEHE170-.LEHB170
 7546 04e2 B008     		.uleb128 .L309-.LFB1254
 7547 04e4 01       		.uleb128 0x1
 7548 04e5 E005     		.uleb128 .LEHB171-.LFB1254
 7549 04e7 5B       		.uleb128 .LEHE171-.LEHB171
 7550 04e8 9409     		.uleb128 .L311-.LFB1254
 7551 04ea 01       		.uleb128 0x1
 7552 04eb C506     		.uleb128 .LEHB172-.LFB1254
 7553 04ed 05       		.uleb128 .LEHE172-.LEHB172
 7554 04ee 00       		.uleb128 0
 7555 04ef 00       		.uleb128 0
 7556 04f0 EE06     		.uleb128 .LEHB173-.LFB1254
 7557 04f2 40       		.uleb128 .LEHE173-.LEHB173
 7558 04f3 B807     		.uleb128 .L306-.LFB1254
 7559 04f5 00       		.uleb128 0
 7560 04f6 AE07     		.uleb128 .LEHB174-.LFB1254
 7561 04f8 05       		.uleb128 .LEHE174-.LEHB174
 7562 04f9 F809     		.uleb128 .L304-.LFB1254
 7563 04fb 00       		.uleb128 0
 7564 04fc D507     		.uleb128 .LEHB175-.LFB1254
 7565 04fe 40       		.uleb128 .LEHE175-.LEHB175
 7566 04ff 9F08     		.uleb128 .L308-.LFB1254
 7567 0501 00       		.uleb128 0
 7568 0502 9508     		.uleb128 .LEHB176-.LFB1254
 7569 0504 05       		.uleb128 .LEHE176-.LEHB176
 7570 0505 F809     		.uleb128 .L304-.LFB1254
 7571 0507 00       		.uleb128 0
 7572 0508 BC08     		.uleb128 .LEHB177-.LFB1254
 7573 050a 40       		.uleb128 .LEHE177-.LEHB177
 7574 050b 8609     		.uleb128 .L310-.LFB1254
 7575 050d 00       		.uleb128 0
 7576 050e FC08     		.uleb128 .LEHB178-.LFB1254
 7577 0510 05       		.uleb128 .LEHE178-.LEHB178
 7578 0511 F809     		.uleb128 .L304-.LFB1254
 7579 0513 00       		.uleb128 0
 7580 0514 A009     		.uleb128 .LEHB179-.LFB1254
 7581 0516 40       		.uleb128 .LEHE179-.LEHB179
 7582 0517 EA09     		.uleb128 .L312-.LFB1254
 7583 0519 00       		.uleb128 0
 7584 051a E009     		.uleb128 .LEHB180-.LFB1254
 7585 051c 05       		.uleb128 .LEHE180-.LEHB180
 7586 051d F809     		.uleb128 .L304-.LFB1254
 7587 051f 00       		.uleb128 0
 7588 0520 940A     		.uleb128 .LEHB181-.LFB1254
 7589 0522 05       		.uleb128 .LEHE181-.LEHB181
 7590 0523 00       		.uleb128 0
 7591 0524 00       		.uleb128 0
 7592              	.LLSDACSE1254:
 7593 0525 01       		.byte	0x1
 7594 0526 00       		.byte	0
 7595 0527 00       		.align 4
 7596 0528 00000000 		.long	0
 7597              	
 7598              	.LLSDATT1254:
 7599              		.text
 7601              		.section	.text._ZN8UnitTest15MemoryOutStreamD1Ev,"axG",@progbits,_ZN8UnitTest15MemoryOutStreamD1Ev
 7602              		.align 2
 7603              		.weak	_ZN8UnitTest15MemoryOutStreamD1Ev
 7605              	_ZN8UnitTest15MemoryOutStreamD1Ev:
 7606              	.LFB1285:
  13:../MemoryOutStream.h **** {
 7607              		.loc 2 13 7
 7608              		.cfi_startproc
 7609              		.cfi_personality 0x9b,DW.ref.__gxx_personality_v0
 7610              		.cfi_lsda 0x1b,.LLSDA1285
 7611 0000 F30F1EFA 		endbr64
 7612 0004 55       		pushq	%rbp
 7613              		.cfi_def_cfa_offset 16
 7614              		.cfi_offset 6, -16
 7615 0005 4889E5   		movq	%rsp, %rbp
 7616              		.cfi_def_cfa_register 6
 7617 0008 53       		pushq	%rbx
 7618 0009 4883EC18 		subq	$24, %rsp
 7619              		.cfi_offset 3, -24
 7620 000d 48897DE8 		movq	%rdi, -24(%rbp)
 7621              	.LBB32:
  13:../MemoryOutStream.h **** {
 7622              		.loc 2 13 7
 7623 0011 488D1500 		leaq	24+_ZTVN8UnitTest15MemoryOutStreamE(%rip), %rdx
 7623      000000
 7624 0018 488B45E8 		movq	-24(%rbp), %rax
 7625 001c 488910   		movq	%rdx, (%rax)
 7626 001f 488B45E8 		movq	-24(%rbp), %rax
 7627 0023 48059000 		addq	$144, %rax
 7627      0000
 7628 0029 488D1500 		leaq	64+_ZTVN8UnitTest15MemoryOutStreamE(%rip), %rdx
 7628      000000
 7629 0030 488910   		movq	%rdx, (%rax)
 7630 0033 488B45E8 		movq	-24(%rbp), %rax
 7631 0037 4883C070 		addq	$112, %rax
 7632 003b 4889C7   		movq	%rax, %rdi
 7633              	.LEHB182:
 7634 003e E8000000 		call	_ZNSt7__cxx1112basic_stringIcSt11char_traitsIcESaIcEED1Ev@PLT
 7634      00
 7635              	.LEHE182:
  13:../MemoryOutStream.h **** {
 7636              		.loc 2 13 7 is_stmt 0 discriminator 2
 7637 0043 488B45E8 		movq	-24(%rbp), %rax
 7638 0047 488D1500 		leaq	8+_ZTTN8UnitTest15MemoryOutStreamE(%rip), %rdx
 7638      000000
 7639 004e 4889D6   		movq	%rdx, %rsi
 7640 0051 4889C7   		movq	%rax, %rdi
 7641              	.LEHB183:
 7642 0054 E8000000 		call	_ZNSt7__cxx1119basic_ostringstreamIcSt11char_traitsIcESaIcEED2Ev@PLT
 7642      00
 7643              	.LEHE183:
  13:../MemoryOutStream.h **** {
 7644              		.loc 2 13 7 discriminator 4
 7645 0059 488B45E8 		movq	-24(%rbp), %rax
 7646 005d 48059000 		addq	$144, %rax
 7646      0000
 7647 0063 4889C7   		movq	%rax, %rdi
 7648              	.LEHB184:
 7649 0066 E8000000 		call	_ZNSt9basic_iosIcSt11char_traitsIcEED2Ev@PLT
 7649      00
 7650              	.LEHE184:
 7651              	.LBE32:
 7652 006b EB43     		jmp	.L319
 7653              	.L317:
 7654 006d F30F1EFA 		endbr64
 7655              	.LBB33:
  13:../MemoryOutStream.h **** {
 7656              		.loc 2 13 7
 7657 0071 4889C3   		movq	%rax, %rbx
 7658 0074 488B45E8 		movq	-24(%rbp), %rax
 7659 0078 488D1500 		leaq	8+_ZTTN8UnitTest15MemoryOutStreamE(%rip), %rdx
 7659      000000
 7660 007f 4889D6   		movq	%rdx, %rsi
 7661 0082 4889C7   		movq	%rax, %rdi
 7662 0085 E8000000 		call	_ZNSt7__cxx1119basic_ostringstreamIcSt11char_traitsIcESaIcEED2Ev@PLT
 7662      00
 7663 008a EB07     		jmp	.L316
 7664              	.L318:
 7665 008c F30F1EFA 		endbr64
 7666 0090 4889C3   		movq	%rax, %rbx
 7667              	.L316:
  13:../MemoryOutStream.h **** {
 7668              		.loc 2 13 7 discriminator 3
 7669 0093 488B45E8 		movq	-24(%rbp), %rax
 7670 0097 48059000 		addq	$144, %rax
 7670      0000
 7671 009d 4889C7   		movq	%rax, %rdi
 7672 00a0 E8000000 		call	_ZNSt9basic_iosIcSt11char_traitsIcEED2Ev@PLT
 7672      00
 7673 00a5 4889D8   		movq	%rbx, %rax
 7674 00a8 4889C7   		movq	%rax, %rdi
 7675              	.LEHB185:
 7676 00ab E8000000 		call	_Unwind_Resume@PLT
 7676      00
 7677              	.LEHE185:
 7678              	.L319:
 7679              	.LBE33:
  13:../MemoryOutStream.h **** {
 7680              		.loc 2 13 7
 7681 00b0 488B5DF8 		movq	-8(%rbp), %rbx
 7682 00b4 C9       		leave
 7683              		.cfi_def_cfa 7, 8
 7684 00b5 C3       		ret
 7685              		.cfi_endproc
 7686              	.LFE1285:
 7687              		.section	.gcc_except_table
 7688              	.LLSDA1285:
 7689 052c FF       		.byte	0xff
 7690 052d FF       		.byte	0xff
 7691 052e 01       		.byte	0x1
 7692 052f 12       		.uleb128 .LLSDACSE1285-.LLSDACSB1285
 7693              	.LLSDACSB1285:
 7694 0530 3E       		.uleb128 .LEHB182-.LFB1285
 7695 0531 05       		.uleb128 .LEHE182-.LEHB182
 7696 0532 6D       		.uleb128 .L317-.LFB1285
 7697 0533 00       		.uleb128 0
 7698 0534 54       		.uleb128 .LEHB183-.LFB1285
 7699 0535 05       		.uleb128 .LEHE183-.LEHB183
 7700 0536 8C01     		.uleb128 .L318-.LFB1285
 7701 0538 00       		.uleb128 0
 7702 0539 66       		.uleb128 .LEHB184-.LFB1285
 7703 053a 05       		.uleb128 .LEHE184-.LEHB184
 7704 053b 00       		.uleb128 0
 7705 053c 00       		.uleb128 0
 7706 053d AB01     		.uleb128 .LEHB185-.LFB1285
 7707 053f 05       		.uleb128 .LEHE185-.LEHB185
 7708 0540 00       		.uleb128 0
 7709 0541 00       		.uleb128 0
 7710              	.LLSDACSE1285:
 7711              		.section	.text._ZN8UnitTest15MemoryOutStreamD1Ev,"axG",@progbits,_ZN8UnitTest15MemoryOutStreamD1Ev
 7713              		.set	.LTHUNK0,_ZN8UnitTest15MemoryOutStreamD1Ev
 7714              		.weak	_ZTv0_n24_N8UnitTest15MemoryOutStreamD1Ev
 7716              	_ZTv0_n24_N8UnitTest15MemoryOutStreamD1Ev:
 7717              	.LFB1466:
  13:../MemoryOutStream.h **** {
 7718              		.loc 2 13 7 is_stmt 1
 7719              		.cfi_startproc
 7720 00b6 F30F1EFA 		endbr64
 7721 00ba 4C8B17   		movq	(%rdi), %r10
 7722 00bd 49037AE8 		addq	-24(%r10), %rdi
 7723 00c1 E93AFFFF 		jmp	.LTHUNK0
 7723      FF
 7724              		.cfi_endproc
 7725              	.LFE1466:
 7727              		.section	.text._ZN8UnitTest15MemoryOutStreamD0Ev,"axG",@progbits,_ZN8UnitTest15MemoryOutStreamD0Ev
 7728              		.align 2
 7729              		.weak	_ZN8UnitTest15MemoryOutStreamD0Ev
 7731              	_ZN8UnitTest15MemoryOutStreamD0Ev:
 7732              	.LFB1286:
  13:../MemoryOutStream.h **** {
 7733              		.loc 2 13 7
 7734              		.cfi_startproc
 7735              		.cfi_personality 0x9b,DW.ref.__gxx_personality_v0
 7736              		.cfi_lsda 0x1b,.LLSDA1286
 7737 0000 F30F1EFA 		endbr64
 7738 0004 55       		pushq	%rbp
 7739              		.cfi_def_cfa_offset 16
 7740              		.cfi_offset 6, -16
 7741 0005 4889E5   		movq	%rsp, %rbp
 7742              		.cfi_def_cfa_register 6
 7743 0008 53       		pushq	%rbx
 7744 0009 4883EC18 		subq	$24, %rsp
 7745              		.cfi_offset 3, -24
 7746 000d 48897DE8 		movq	%rdi, -24(%rbp)
  13:../MemoryOutStream.h **** {
 7747              		.loc 2 13 7
 7748 0011 488B45E8 		movq	-24(%rbp), %rax
 7749 0015 4889C7   		movq	%rax, %rdi
 7750              	.LEHB186:
 7751 0018 E8000000 		call	_ZN8UnitTest15MemoryOutStreamD1Ev
 7751      00
 7752              	.LEHE186:
  13:../MemoryOutStream.h **** {
 7753              		.loc 2 13 7 is_stmt 0 discriminator 2
 7754 001d 488B45E8 		movq	-24(%rbp), %rax
 7755 0021 4889C7   		movq	%rax, %rdi
 7756 0024 E8000000 		call	_ZdlPv@PLT
 7756      00
 7757 0029 EB1E     		jmp	.L323
 7758              	.L322:
 7759 002b F30F1EFA 		endbr64
  13:../MemoryOutStream.h **** {
 7760              		.loc 2 13 7
 7761 002f 4889C3   		movq	%rax, %rbx
 7762 0032 488B45E8 		movq	-24(%rbp), %rax
 7763 0036 4889C7   		movq	%rax, %rdi
 7764 0039 E8000000 		call	_ZdlPv@PLT
 7764      00
 7765 003e 4889D8   		movq	%rbx, %rax
 7766 0041 4889C7   		movq	%rax, %rdi
 7767              	.LEHB187:
 7768 0044 E8000000 		call	_Unwind_Resume@PLT
 7768      00
 7769              	.LEHE187:
 7770              	.L323:
 7771 0049 488B5DF8 		movq	-8(%rbp), %rbx
 7772 004d C9       		leave
 7773              		.cfi_def_cfa 7, 8
 7774 004e C3       		ret
 7775              		.cfi_endproc
 7776              	.LFE1286:
 7777              		.section	.gcc_except_table
 7778              	.LLSDA1286:
 7779 0542 FF       		.byte	0xff
 7780 0543 FF       		.byte	0xff
 7781 0544 01       		.byte	0x1
 7782 0545 08       		.uleb128 .LLSDACSE1286-.LLSDACSB1286
 7783              	.LLSDACSB1286:
 7784 0546 18       		.uleb128 .LEHB186-.LFB1286
 7785 0547 05       		.uleb128 .LEHE186-.LEHB186
 7786 0548 2B       		.uleb128 .L322-.LFB1286
 7787 0549 00       		.uleb128 0
 7788 054a 44       		.uleb128 .LEHB187-.LFB1286
 7789 054b 05       		.uleb128 .LEHE187-.LEHB187
 7790 054c 00       		.uleb128 0
 7791 054d 00       		.uleb128 0
 7792              	.LLSDACSE1286:
 7793              		.section	.text._ZN8UnitTest15MemoryOutStreamD0Ev,"axG",@progbits,_ZN8UnitTest15MemoryOutStreamD0Ev
 7795              		.set	.LTHUNK1,_ZN8UnitTest15MemoryOutStreamD0Ev
 7796              		.weak	_ZTv0_n24_N8UnitTest15MemoryOutStreamD0Ev
 7798              	_ZTv0_n24_N8UnitTest15MemoryOutStreamD0Ev:
 7799              	.LFB1467:
  13:../MemoryOutStream.h **** {
 7800              		.loc 2 13 7 is_stmt 1
 7801              		.cfi_startproc
 7802 004f F30F1EFA 		endbr64
 7803 0053 4C8B17   		movq	(%rdi), %r10
 7804 0056 49037AE8 		addq	-24(%r10), %rdi
 7805 005a EBA4     		jmp	.LTHUNK1
 7806              		.cfi_endproc
 7807              	.LFE1467:
 7809              		.section	.rodata
 7810              	.LC96:
 7811 0baa 45787065 		.string	"Expected "
 7811      63746564 
 7811      2000
 7812              	.LC97:
 7813 0bb4 20627574 		.string	" but was "
 7813      20776173 
 7813      2000
 7814              		.section	.text._ZN8UnitTest10CheckEqualImmEEvRNS_11TestResultsERKT_RKT0_RKNS_11TestDetailsE,"axG",
 7815              		.weak	_ZN8UnitTest10CheckEqualImmEEvRNS_11TestResultsERKT_RKT0_RKNS_11TestDetailsE
 7817              	_ZN8UnitTest10CheckEqualImmEEvRNS_11TestResultsERKT_RKT0_RKNS_11TestDetailsE:
 7818              	.LFB1282:
 7819              		.file 6 "../Checks.h"
   1:../Checks.h   **** #ifndef UNITTEST_CHECKS_H
   2:../Checks.h   **** #define UNITTEST_CHECKS_H
   3:../Checks.h   **** 
   4:../Checks.h   **** #include "Config.h"
   5:../Checks.h   **** #include "TestResults.h"
   6:../Checks.h   **** #include "MemoryOutStream.h"
   7:../Checks.h   **** 
   8:../Checks.h   **** namespace UnitTest {
   9:../Checks.h   **** 
  10:../Checks.h   **** 
  11:../Checks.h   **** template< typename Value >
  12:../Checks.h   **** bool Check(Value const value)
  13:../Checks.h   **** {
  14:../Checks.h   ****     return !!value; // doing double negative to avoid silly VS warnings
  15:../Checks.h   **** }
  16:../Checks.h   **** 
  17:../Checks.h   **** 
  18:../Checks.h   **** template< typename Expected, typename Actual >
  19:../Checks.h   **** void CheckEqual(TestResults& results, Expected const& expected, Actual const& actual, TestDetails c
 7820              		.loc 6 19 6
 7821              		.cfi_startproc
 7822              		.cfi_personality 0x9b,DW.ref.__gxx_personality_v0
 7823              		.cfi_lsda 0x1b,.LLSDA1282
 7824 0000 F30F1EFA 		endbr64
 7825 0004 55       		pushq	%rbp
 7826              		.cfi_def_cfa_offset 16
 7827              		.cfi_offset 6, -16
 7828 0005 4889E5   		movq	%rsp, %rbp
 7829              		.cfi_def_cfa_register 6
 7830 0008 53       		pushq	%rbx
 7831 0009 4881ECC8 		subq	$456, %rsp
 7831      010000
 7832              		.cfi_offset 3, -24
 7833 0010 4889BD48 		movq	%rdi, -440(%rbp)
 7833      FEFFFF
 7834 0017 4889B540 		movq	%rsi, -448(%rbp)
 7834      FEFFFF
 7835 001e 48899538 		movq	%rdx, -456(%rbp)
 7835      FEFFFF
 7836 0025 48898D30 		movq	%rcx, -464(%rbp)
 7836      FEFFFF
 7837              		.loc 6 19 6
 7838 002c 64488B04 		movq	%fs:40, %rax
 7838      25280000 
 7838      00
 7839 0035 488945E8 		movq	%rax, -24(%rbp)
 7840 0039 31C0     		xorl	%eax, %eax
 7841              	.LBB34:
  20:../Checks.h   **** {
  21:../Checks.h   ****     if (!(expected == actual))
 7842              		.loc 6 21 20
 7843 003b 488B8540 		movq	-448(%rbp), %rax
 7843      FEFFFF
 7844 0042 488B10   		movq	(%rax), %rdx
 7845 0045 488B8538 		movq	-456(%rbp), %rax
 7845      FEFFFF
 7846 004c 488B00   		movq	(%rax), %rax
 7847              		.loc 6 21 5
 7848 004f 4839C2   		cmpq	%rax, %rdx
 7849 0052 0F84CA00 		je	.L329
 7849      0000
 7850              	.LBB35:
  22:../Checks.h   ****     {
  23:../Checks.h   ****         UnitTest::MemoryOutStream stream;
 7851              		.loc 6 23 35
 7852 0058 488D8550 		leaq	-432(%rbp), %rax
 7852      FEFFFF
 7853 005f 4889C7   		movq	%rax, %rdi
 7854              	.LEHB188:
 7855 0062 E8000000 		call	_ZN8UnitTest15MemoryOutStreamC1Ev
 7855      00
 7856              	.LEHE188:
  24:../Checks.h   ****         stream << "Expected " << expected << " but was " << actual;
 7857              		.loc 6 24 16
 7858 0067 488D8550 		leaq	-432(%rbp), %rax
 7858      FEFFFF
 7859 006e 488D1500 		leaq	.LC96(%rip), %rdx
 7859      000000
 7860 0075 4889D6   		movq	%rdx, %rsi
 7861 0078 4889C7   		movq	%rax, %rdi
 7862              	.LEHB189:
 7863 007b E8000000 		call	_ZStlsISt11char_traitsIcEERSt13basic_ostreamIcT_ES5_PKc@PLT
 7863      00
 7864 0080 4889C2   		movq	%rax, %rdx
 7865              		.loc 6 24 31
 7866 0083 488B8540 		movq	-448(%rbp), %rax
 7866      FEFFFF
 7867 008a 488B00   		movq	(%rax), %rax
 7868 008d 4889C6   		movq	%rax, %rsi
 7869 0090 4889D7   		movq	%rdx, %rdi
 7870 0093 E8000000 		call	_ZNSolsEm@PLT
 7870      00
 7871              		.loc 6 24 31 is_stmt 0 discriminator 1
 7872 0098 4889C2   		movq	%rax, %rdx
 7873              		.loc 6 24 43 is_stmt 1 discriminator 1
 7874 009b 488D0500 		leaq	.LC97(%rip), %rax
 7874      000000
 7875 00a2 4889C6   		movq	%rax, %rsi
 7876 00a5 4889D7   		movq	%rdx, %rdi
 7877 00a8 E8000000 		call	_ZStlsISt11char_traitsIcEERSt13basic_ostreamIcT_ES5_PKc@PLT
 7877      00
 7878              		.loc 6 24 43 is_stmt 0 discriminator 2
 7879 00ad 4889C2   		movq	%rax, %rdx
 7880              		.loc 6 24 58 is_stmt 1 discriminator 2
 7881 00b0 488B8538 		movq	-456(%rbp), %rax
 7881      FEFFFF
 7882 00b7 488B00   		movq	(%rax), %rax
 7883 00ba 4889C6   		movq	%rax, %rsi
 7884 00bd 4889D7   		movq	%rdx, %rdi
 7885 00c0 E8000000 		call	_ZNSolsEm@PLT
 7885      00
  25:../Checks.h   **** 
  26:../Checks.h   ****         results.OnTestFailure(details, stream.GetText());
 7886              		.loc 6 26 30
 7887 00c5 488D8550 		leaq	-432(%rbp), %rax
 7887      FEFFFF
 7888 00cc 4889C7   		movq	%rax, %rdi
 7889 00cf E8000000 		call	_ZNK8UnitTest15MemoryOutStream7GetTextEv@PLT
 7889      00
 7890 00d4 4889C2   		movq	%rax, %rdx
 7891 00d7 488B8D30 		movq	-464(%rbp), %rcx
 7891      FEFFFF
 7892 00de 488B8548 		movq	-440(%rbp), %rax
 7892      FEFFFF
 7893 00e5 4889CE   		movq	%rcx, %rsi
 7894 00e8 4889C7   		movq	%rax, %rdi
 7895 00eb E8000000 		call	_ZN8UnitTest11TestResults13OnTestFailureERKNS_11TestDetailsEPKc@PLT
 7895      00
 7896              	.LEHE189:
  27:../Checks.h   ****     }
 7897              		.loc 6 27 5
 7898 00f0 488D8550 		leaq	-432(%rbp), %rax
 7898      FEFFFF
 7899 00f7 4889C7   		movq	%rax, %rdi
 7900              	.LEHB190:
 7901 00fa E8000000 		call	_ZN8UnitTest15MemoryOutStreamD1Ev
 7901      00
 7902              	.LEHE190:
 7903              	.LBE35:
 7904              	.LBE34:
  28:../Checks.h   **** }
 7905              		.loc 6 28 1
 7906 00ff EB21     		jmp	.L329
 7907              	.L328:
 7908 0101 F30F1EFA 		endbr64
 7909              	.LBB37:
 7910              	.LBB36:
  27:../Checks.h   ****     }
 7911              		.loc 6 27 5
 7912 0105 4889C3   		movq	%rax, %rbx
 7913 0108 488D8550 		leaq	-432(%rbp), %rax
 7913      FEFFFF
 7914 010f 4889C7   		movq	%rax, %rdi
 7915 0112 E8000000 		call	_ZN8UnitTest15MemoryOutStreamD1Ev
 7915      00
 7916 0117 4889D8   		movq	%rbx, %rax
 7917 011a 4889C7   		movq	%rax, %rdi
 7918              	.LEHB191:
 7919 011d E8000000 		call	_Unwind_Resume@PLT
 7919      00
 7920              	.LEHE191:
 7921              	.L329:
 7922              	.LBE36:
 7923              	.LBE37:
 7924              		.loc 6 28 1
 7925 0122 90       		nop
 7926 0123 488B45E8 		movq	-24(%rbp), %rax
 7927 0127 64482B04 		subq	%fs:40, %rax
 7927      25280000 
 7927      00
 7928 0130 7405     		je	.L327
 7929 0132 E8000000 		call	__stack_chk_fail@PLT
 7929      00
 7930              	.L327:
 7931 0137 488B5DF8 		movq	-8(%rbp), %rbx
 7932 013b C9       		leave
 7933              		.cfi_def_cfa 7, 8
 7934 013c C3       		ret
 7935              		.cfi_endproc
 7936              	.LFE1282:
 7937              		.section	.gcc_except_table
 7938              	.LLSDA1282:
 7939 054e FF       		.byte	0xff
 7940 054f FF       		.byte	0xff
 7941 0550 01       		.byte	0x1
 7942 0551 13       		.uleb128 .LLSDACSE1282-.LLSDACSB1282
 7943              	.LLSDACSB1282:
 7944 0552 62       		.uleb128 .LEHB188-.LFB1282
 7945 0553 05       		.uleb128 .LEHE188-.LEHB188
 7946 0554 00       		.uleb128 0
 7947 0555 00       		.uleb128 0
 7948 0556 7B       		.uleb128 .LEHB189-.LFB1282
 7949 0557 75       		.uleb128 .LEHE189-.LEHB189
 7950 0558 8102     		.uleb128 .L328-.LFB1282
 7951 055a 00       		.uleb128 0
 7952 055b FA01     		.uleb128 .LEHB190-.LFB1282
 7953 055d 05       		.uleb128 .LEHE190-.LEHB190
 7954 055e 00       		.uleb128 0
 7955 055f 00       		.uleb128 0
 7956 0560 9D02     		.uleb128 .LEHB191-.LFB1282
 7957 0562 05       		.uleb128 .LEHE191-.LEHB191
 7958 0563 00       		.uleb128 0
 7959 0564 00       		.uleb128 0
 7960              	.LLSDACSE1282:
 7961              		.section	.text._ZN8UnitTest10CheckEqualImmEEvRNS_11TestResultsERKT_RKT0_RKNS_11TestDetailsE,"axG",
 7963              		.section	.text._ZN8UnitTest10CheckEqualIiiEEvRNS_11TestResultsERKT_RKT0_RKNS_11TestDetailsE,"axG",
 7964              		.weak	_ZN8UnitTest10CheckEqualIiiEEvRNS_11TestResultsERKT_RKT0_RKNS_11TestDetailsE
 7966              	_ZN8UnitTest10CheckEqualIiiEEvRNS_11TestResultsERKT_RKT0_RKNS_11TestDetailsE:
 7967              	.LFB1287:
  19:../Checks.h   **** {
 7968              		.loc 6 19 6
 7969              		.cfi_startproc
 7970              		.cfi_personality 0x9b,DW.ref.__gxx_personality_v0
 7971              		.cfi_lsda 0x1b,.LLSDA1287
 7972 0000 F30F1EFA 		endbr64
 7973 0004 55       		pushq	%rbp
 7974              		.cfi_def_cfa_offset 16
 7975              		.cfi_offset 6, -16
 7976 0005 4889E5   		movq	%rsp, %rbp
 7977              		.cfi_def_cfa_register 6
 7978 0008 53       		pushq	%rbx
 7979 0009 4881ECC8 		subq	$456, %rsp
 7979      010000
 7980              		.cfi_offset 3, -24
 7981 0010 4889BD48 		movq	%rdi, -440(%rbp)
 7981      FEFFFF
 7982 0017 4889B540 		movq	%rsi, -448(%rbp)
 7982      FEFFFF
 7983 001e 48899538 		movq	%rdx, -456(%rbp)
 7983      FEFFFF
 7984 0025 48898D30 		movq	%rcx, -464(%rbp)
 7984      FEFFFF
  19:../Checks.h   **** {
 7985              		.loc 6 19 6
 7986 002c 64488B04 		movq	%fs:40, %rax
 7986      25280000 
 7986      00
 7987 0035 488945E8 		movq	%rax, -24(%rbp)
 7988 0039 31C0     		xorl	%eax, %eax
 7989              	.LBB38:
  21:../Checks.h   ****     {
 7990              		.loc 6 21 20
 7991 003b 488B8540 		movq	-448(%rbp), %rax
 7991      FEFFFF
 7992 0042 8B10     		movl	(%rax), %edx
 7993 0044 488B8538 		movq	-456(%rbp), %rax
 7993      FEFFFF
 7994 004b 8B00     		movl	(%rax), %eax
  21:../Checks.h   ****     {
 7995              		.loc 6 21 5
 7996 004d 39C2     		cmpl	%eax, %edx
 7997 004f 0F84C600 		je	.L335
 7997      0000
 7998              	.LBB39:
  23:../Checks.h   ****         stream << "Expected " << expected << " but was " << actual;
 7999              		.loc 6 23 35
 8000 0055 488D8550 		leaq	-432(%rbp), %rax
 8000      FEFFFF
 8001 005c 4889C7   		movq	%rax, %rdi
 8002              	.LEHB192:
 8003 005f E8000000 		call	_ZN8UnitTest15MemoryOutStreamC1Ev
 8003      00
 8004              	.LEHE192:
  24:../Checks.h   **** 
 8005              		.loc 6 24 16
 8006 0064 488D8550 		leaq	-432(%rbp), %rax
 8006      FEFFFF
 8007 006b 488D1500 		leaq	.LC96(%rip), %rdx
 8007      000000
 8008 0072 4889D6   		movq	%rdx, %rsi
 8009 0075 4889C7   		movq	%rax, %rdi
 8010              	.LEHB193:
 8011 0078 E8000000 		call	_ZStlsISt11char_traitsIcEERSt13basic_ostreamIcT_ES5_PKc@PLT
 8011      00
 8012 007d 4889C2   		movq	%rax, %rdx
  24:../Checks.h   **** 
 8013              		.loc 6 24 43
 8014 0080 488B8540 		movq	-448(%rbp), %rax
 8014      FEFFFF
 8015 0087 8B00     		movl	(%rax), %eax
 8016 0089 89C6     		movl	%eax, %esi
 8017 008b 4889D7   		movq	%rdx, %rdi
 8018 008e E8000000 		call	_ZNSolsEi@PLT
 8018      00
  24:../Checks.h   **** 
 8019              		.loc 6 24 43 is_stmt 0 discriminator 1
 8020 0093 4889C2   		movq	%rax, %rdx
 8021 0096 488D0500 		leaq	.LC97(%rip), %rax
 8021      000000
 8022 009d 4889C6   		movq	%rax, %rsi
 8023 00a0 4889D7   		movq	%rdx, %rdi
 8024 00a3 E8000000 		call	_ZStlsISt11char_traitsIcEERSt13basic_ostreamIcT_ES5_PKc@PLT
 8024      00
  24:../Checks.h   **** 
 8025              		.loc 6 24 43 discriminator 2
 8026 00a8 4889C2   		movq	%rax, %rdx
  24:../Checks.h   **** 
 8027              		.loc 6 24 58 is_stmt 1 discriminator 2
 8028 00ab 488B8538 		movq	-456(%rbp), %rax
 8028      FEFFFF
 8029 00b2 8B00     		movl	(%rax), %eax
 8030 00b4 89C6     		movl	%eax, %esi
 8031 00b6 4889D7   		movq	%rdx, %rdi
 8032 00b9 E8000000 		call	_ZNSolsEi@PLT
 8032      00
  26:../Checks.h   ****     }
 8033              		.loc 6 26 30
 8034 00be 488D8550 		leaq	-432(%rbp), %rax
 8034      FEFFFF
 8035 00c5 4889C7   		movq	%rax, %rdi
 8036 00c8 E8000000 		call	_ZNK8UnitTest15MemoryOutStream7GetTextEv@PLT
 8036      00
 8037 00cd 4889C2   		movq	%rax, %rdx
 8038 00d0 488B8D30 		movq	-464(%rbp), %rcx
 8038      FEFFFF
 8039 00d7 488B8548 		movq	-440(%rbp), %rax
 8039      FEFFFF
 8040 00de 4889CE   		movq	%rcx, %rsi
 8041 00e1 4889C7   		movq	%rax, %rdi
 8042 00e4 E8000000 		call	_ZN8UnitTest11TestResults13OnTestFailureERKNS_11TestDetailsEPKc@PLT
 8042      00
 8043              	.LEHE193:
  27:../Checks.h   **** }
 8044              		.loc 6 27 5
 8045 00e9 488D8550 		leaq	-432(%rbp), %rax
 8045      FEFFFF
 8046 00f0 4889C7   		movq	%rax, %rdi
 8047              	.LEHB194:
 8048 00f3 E8000000 		call	_ZN8UnitTest15MemoryOutStreamD1Ev
 8048      00
 8049              	.LEHE194:
 8050              	.LBE39:
 8051              	.LBE38:
 8052              		.loc 6 28 1
 8053 00f8 EB21     		jmp	.L335
 8054              	.L334:
 8055 00fa F30F1EFA 		endbr64
 8056              	.LBB41:
 8057              	.LBB40:
  27:../Checks.h   **** }
 8058              		.loc 6 27 5
 8059 00fe 4889C3   		movq	%rax, %rbx
 8060 0101 488D8550 		leaq	-432(%rbp), %rax
 8060      FEFFFF
 8061 0108 4889C7   		movq	%rax, %rdi
 8062 010b E8000000 		call	_ZN8UnitTest15MemoryOutStreamD1Ev
 8062      00
 8063 0110 4889D8   		movq	%rbx, %rax
 8064 0113 4889C7   		movq	%rax, %rdi
 8065              	.LEHB195:
 8066 0116 E8000000 		call	_Unwind_Resume@PLT
 8066      00
 8067              	.LEHE195:
 8068              	.L335:
 8069              	.LBE40:
 8070              	.LBE41:
 8071              		.loc 6 28 1
 8072 011b 90       		nop
 8073 011c 488B45E8 		movq	-24(%rbp), %rax
 8074 0120 64482B04 		subq	%fs:40, %rax
 8074      25280000 
 8074      00
 8075 0129 7405     		je	.L333
 8076 012b E8000000 		call	__stack_chk_fail@PLT
 8076      00
 8077              	.L333:
 8078 0130 488B5DF8 		movq	-8(%rbp), %rbx
 8079 0134 C9       		leave
 8080              		.cfi_def_cfa 7, 8
 8081 0135 C3       		ret
 8082              		.cfi_endproc
 8083              	.LFE1287:
 8084              		.section	.gcc_except_table
 8085              	.LLSDA1287:
 8086 0565 FF       		.byte	0xff
 8087 0566 FF       		.byte	0xff
 8088 0567 01       		.byte	0x1
 8089 0568 13       		.uleb128 .LLSDACSE1287-.LLSDACSB1287
 8090              	.LLSDACSB1287:
 8091 0569 5F       		.uleb128 .LEHB192-.LFB1287
 8092 056a 05       		.uleb128 .LEHE192-.LEHB192
 8093 056b 00       		.uleb128 0
 8094 056c 00       		.uleb128 0
 8095 056d 78       		.uleb128 .LEHB193-.LFB1287
 8096 056e 71       		.uleb128 .LEHE193-.LEHB193
 8097 056f FA01     		.uleb128 .L334-.LFB1287
 8098 0571 00       		.uleb128 0
 8099 0572 F301     		.uleb128 .LEHB194-.LFB1287
 8100 0574 05       		.uleb128 .LEHE194-.LEHB194
 8101 0575 00       		.uleb128 0
 8102 0576 00       		.uleb128 0
 8103 0577 9602     		.uleb128 .LEHB195-.LFB1287
 8104 0579 05       		.uleb128 .LEHE195-.LEHB195
 8105 057a 00       		.uleb128 0
 8106 057b 00       		.uleb128 0
 8107              	.LLSDACSE1287:
 8108              		.section	.text._ZN8UnitTest10CheckEqualIiiEEvRNS_11TestResultsERKT_RKT0_RKNS_11TestDetailsE,"axG",
 8110              		.section	.text._ZN8UnitTest5CheckIPcEEbT_,"axG",@progbits,_ZN8UnitTest5CheckIPcEEbT_,comdat
 8111              		.weak	_ZN8UnitTest5CheckIPcEEbT_
 8113              	_ZN8UnitTest5CheckIPcEEbT_:
 8114              	.LFB1288:
  12:../Checks.h   **** {
 8115              		.loc 6 12 6
 8116              		.cfi_startproc
 8117 0000 F30F1EFA 		endbr64
 8118 0004 55       		pushq	%rbp
 8119              		.cfi_def_cfa_offset 16
 8120              		.cfi_offset 6, -16
 8121 0005 4889E5   		movq	%rsp, %rbp
 8122              		.cfi_def_cfa_register 6
 8123 0008 48897DF8 		movq	%rdi, -8(%rbp)
  14:../Checks.h   **** }
 8124              		.loc 6 14 14
 8125 000c 48837DF8 		cmpq	$0, -8(%rbp)
 8125      00
 8126 0011 0F95C0   		setne	%al
  15:../Checks.h   **** 
 8127              		.loc 6 15 1
 8128 0014 5D       		popq	%rbp
 8129              		.cfi_def_cfa 7, 8
 8130 0015 C3       		ret
 8131              		.cfi_endproc
 8132              	.LFE1288:
 8134              		.section	.rodata
 8135              	.LC98:
 8136 0bbe 202B2F2D 		.string	" +/- "
 8136      2000
 8137              		.section	.text._ZN8UnitTest10CheckCloseIfffEEvRNS_11TestResultsERKT_RKT0_RKT1_RKNS_11TestDetailsE,
 8138              		.weak	_ZN8UnitTest10CheckCloseIfffEEvRNS_11TestResultsERKT_RKT0_RKT1_RKNS_11TestDetailsE
 8140              	_ZN8UnitTest10CheckCloseIfffEEvRNS_11TestResultsERKT_RKT0_RKT1_RKNS_11TestDetailsE:
 8141              	.LFB1289:
  29:../Checks.h   **** 
  30:../Checks.h   **** void CheckEqual(TestResults& results, char const* expected, char const* actual, TestDetails const& 
  31:../Checks.h   **** 
  32:../Checks.h   **** void CheckEqual(TestResults& results, char* expected, char* actual, TestDetails const& details);
  33:../Checks.h   **** 
  34:../Checks.h   **** void CheckEqual(TestResults& results, char* expected, char const* actual, TestDetails const& detail
  35:../Checks.h   **** 
  36:../Checks.h   **** void CheckEqual(TestResults& results, char const* expected, char* actual, TestDetails const& detail
  37:../Checks.h   **** 
  38:../Checks.h   **** template< typename Expected, typename Actual, typename Tolerance >
  39:../Checks.h   **** bool AreClose(Expected const& expected, Actual const& actual, Tolerance const& tolerance)
  40:../Checks.h   **** {
  41:../Checks.h   ****     return (actual >= (expected - tolerance)) && (actual <= (expected + tolerance));
  42:../Checks.h   **** }
  43:../Checks.h   **** 
  44:../Checks.h   **** template< typename Expected, typename Actual, typename Tolerance >
  45:../Checks.h   **** void CheckClose(TestResults& results, Expected const& expected, Actual const& actual, Tolerance con
 8142              		.loc 6 45 6
 8143              		.cfi_startproc
 8144              		.cfi_personality 0x9b,DW.ref.__gxx_personality_v0
 8145              		.cfi_lsda 0x1b,.LLSDA1289
 8146 0000 F30F1EFA 		endbr64
 8147 0004 55       		pushq	%rbp
 8148              		.cfi_def_cfa_offset 16
 8149              		.cfi_offset 6, -16
 8150 0005 4889E5   		movq	%rsp, %rbp
 8151              		.cfi_def_cfa_register 6
 8152 0008 53       		pushq	%rbx
 8153 0009 4881ECD8 		subq	$472, %rsp
 8153      010000
 8154              		.cfi_offset 3, -24
 8155 0010 4889BD48 		movq	%rdi, -440(%rbp)
 8155      FEFFFF
 8156 0017 4889B540 		movq	%rsi, -448(%rbp)
 8156      FEFFFF
 8157 001e 48899538 		movq	%rdx, -456(%rbp)
 8157      FEFFFF
 8158 0025 48898D30 		movq	%rcx, -464(%rbp)
 8158      FEFFFF
 8159 002c 4C898528 		movq	%r8, -472(%rbp)
 8159      FEFFFF
 8160              		.loc 6 45 6
 8161 0033 64488B04 		movq	%fs:40, %rax
 8161      25280000 
 8161      00
 8162 003c 488945E8 		movq	%rax, -24(%rbp)
 8163 0040 31C0     		xorl	%eax, %eax
 8164              	.LBB42:
  46:../Checks.h   ****                 TestDetails const& details)
  47:../Checks.h   **** {
  48:../Checks.h   ****     if (!AreClose(expected, actual, tolerance))
 8165              		.loc 6 48 18
 8166 0042 488B9530 		movq	-464(%rbp), %rdx
 8166      FEFFFF
 8167 0049 488B8D38 		movq	-456(%rbp), %rcx
 8167      FEFFFF
 8168 0050 488B8540 		movq	-448(%rbp), %rax
 8168      FEFFFF
 8169 0057 4889CE   		movq	%rcx, %rsi
 8170 005a 4889C7   		movq	%rax, %rdi
 8171 005d E8000000 		call	_ZN8UnitTest8AreCloseIfffEEbRKT_RKT0_RKT1_
 8171      00
 8172 0062 83F001   		xorl	$1, %eax
 8173              		.loc 6 48 5
 8174 0065 84C0     		testb	%al, %al
 8175 0067 0F84F700 		je	.L343
 8175      0000
 8176              	.LBB43:
  49:../Checks.h   ****     { 
  50:../Checks.h   ****         UnitTest::MemoryOutStream stream;
 8177              		.loc 6 50 35
 8178 006d 488D8550 		leaq	-432(%rbp), %rax
 8178      FEFFFF
 8179 0074 4889C7   		movq	%rax, %rdi
 8180              	.LEHB196:
 8181 0077 E8000000 		call	_ZN8UnitTest15MemoryOutStreamC1Ev
 8181      00
 8182              	.LEHE196:
  51:../Checks.h   ****         stream << "Expected " << expected << " +/- " << tolerance << " but was " << actual;
 8183              		.loc 6 51 16
 8184 007c 488D8550 		leaq	-432(%rbp), %rax
 8184      FEFFFF
 8185 0083 488D1500 		leaq	.LC96(%rip), %rdx
 8185      000000
 8186 008a 4889D6   		movq	%rdx, %rsi
 8187 008d 4889C7   		movq	%rax, %rdi
 8188              	.LEHB197:
 8189 0090 E8000000 		call	_ZStlsISt11char_traitsIcEERSt13basic_ostreamIcT_ES5_PKc@PLT
 8189      00
 8190 0095 4889C2   		movq	%rax, %rdx
 8191              		.loc 6 51 31
 8192 0098 488B8540 		movq	-448(%rbp), %rax
 8192      FEFFFF
 8193 009f 8B00     		movl	(%rax), %eax
 8194 00a1 660F6EC0 		movd	%eax, %xmm0
 8195 00a5 4889D7   		movq	%rdx, %rdi
 8196 00a8 E8000000 		call	_ZNSolsEf@PLT
 8196      00
 8197              		.loc 6 51 31 is_stmt 0 discriminator 1
 8198 00ad 4889C2   		movq	%rax, %rdx
 8199              		.loc 6 51 43 is_stmt 1 discriminator 1
 8200 00b0 488D0500 		leaq	.LC98(%rip), %rax
 8200      000000
 8201 00b7 4889C6   		movq	%rax, %rsi
 8202 00ba 4889D7   		movq	%rdx, %rdi
 8203 00bd E8000000 		call	_ZStlsISt11char_traitsIcEERSt13basic_ostreamIcT_ES5_PKc@PLT
 8203      00
 8204              		.loc 6 51 43 is_stmt 0 discriminator 2
 8205 00c2 4889C2   		movq	%rax, %rdx
 8206              		.loc 6 51 54 is_stmt 1 discriminator 2
 8207 00c5 488B8530 		movq	-464(%rbp), %rax
 8207      FEFFFF
 8208 00cc 8B00     		movl	(%rax), %eax
 8209 00ce 660F6EC0 		movd	%eax, %xmm0
 8210 00d2 4889D7   		movq	%rdx, %rdi
 8211 00d5 E8000000 		call	_ZNSolsEf@PLT
 8211      00
 8212              		.loc 6 51 54 is_stmt 0 discriminator 3
 8213 00da 4889C2   		movq	%rax, %rdx
 8214              		.loc 6 51 67 is_stmt 1 discriminator 3
 8215 00dd 488D0500 		leaq	.LC97(%rip), %rax
 8215      000000
 8216 00e4 4889C6   		movq	%rax, %rsi
 8217 00e7 4889D7   		movq	%rdx, %rdi
 8218 00ea E8000000 		call	_ZStlsISt11char_traitsIcEERSt13basic_ostreamIcT_ES5_PKc@PLT
 8218      00
 8219              		.loc 6 51 67 is_stmt 0 discriminator 4
 8220 00ef 4889C2   		movq	%rax, %rdx
 8221              		.loc 6 51 82 is_stmt 1 discriminator 4
 8222 00f2 488B8538 		movq	-456(%rbp), %rax
 8222      FEFFFF
 8223 00f9 8B00     		movl	(%rax), %eax
 8224 00fb 660F6EC0 		movd	%eax, %xmm0
 8225 00ff 4889D7   		movq	%rdx, %rdi
 8226 0102 E8000000 		call	_ZNSolsEf@PLT
 8226      00
  52:../Checks.h   **** 
  53:../Checks.h   ****         results.OnTestFailure(details, stream.GetText());
 8227              		.loc 6 53 30
 8228 0107 488D8550 		leaq	-432(%rbp), %rax
 8228      FEFFFF
 8229 010e 4889C7   		movq	%rax, %rdi
 8230 0111 E8000000 		call	_ZNK8UnitTest15MemoryOutStream7GetTextEv@PLT
 8230      00
 8231 0116 4889C2   		movq	%rax, %rdx
 8232 0119 488B8D28 		movq	-472(%rbp), %rcx
 8232      FEFFFF
 8233 0120 488B8548 		movq	-440(%rbp), %rax
 8233      FEFFFF
 8234 0127 4889CE   		movq	%rcx, %rsi
 8235 012a 4889C7   		movq	%rax, %rdi
 8236 012d E8000000 		call	_ZN8UnitTest11TestResults13OnTestFailureERKNS_11TestDetailsEPKc@PLT
 8236      00
 8237              	.LEHE197:
  54:../Checks.h   ****     }
 8238              		.loc 6 54 5
 8239 0132 488D8550 		leaq	-432(%rbp), %rax
 8239      FEFFFF
 8240 0139 4889C7   		movq	%rax, %rdi
 8241              	.LEHB198:
 8242 013c E8000000 		call	_ZN8UnitTest15MemoryOutStreamD1Ev
 8242      00
 8243              	.LEHE198:
 8244              	.LBE43:
 8245              	.LBE42:
  55:../Checks.h   **** }
 8246              		.loc 6 55 1
 8247 0141 EB21     		jmp	.L343
 8248              	.L342:
 8249 0143 F30F1EFA 		endbr64
 8250              	.LBB45:
 8251              	.LBB44:
  54:../Checks.h   ****     }
 8252              		.loc 6 54 5
 8253 0147 4889C3   		movq	%rax, %rbx
 8254 014a 488D8550 		leaq	-432(%rbp), %rax
 8254      FEFFFF
 8255 0151 4889C7   		movq	%rax, %rdi
 8256 0154 E8000000 		call	_ZN8UnitTest15MemoryOutStreamD1Ev
 8256      00
 8257 0159 4889D8   		movq	%rbx, %rax
 8258 015c 4889C7   		movq	%rax, %rdi
 8259              	.LEHB199:
 8260 015f E8000000 		call	_Unwind_Resume@PLT
 8260      00
 8261              	.LEHE199:
 8262              	.L343:
 8263              	.LBE44:
 8264              	.LBE45:
 8265              		.loc 6 55 1
 8266 0164 90       		nop
 8267 0165 488B45E8 		movq	-24(%rbp), %rax
 8268 0169 64482B04 		subq	%fs:40, %rax
 8268      25280000 
 8268      00
 8269 0172 7405     		je	.L341
 8270 0174 E8000000 		call	__stack_chk_fail@PLT
 8270      00
 8271              	.L341:
 8272 0179 488B5DF8 		movq	-8(%rbp), %rbx
 8273 017d C9       		leave
 8274              		.cfi_def_cfa 7, 8
 8275 017e C3       		ret
 8276              		.cfi_endproc
 8277              	.LFE1289:
 8278              		.section	.gcc_except_table
 8279              	.LLSDA1289:
 8280 057c FF       		.byte	0xff
 8281 057d FF       		.byte	0xff
 8282 057e 01       		.byte	0x1
 8283 057f 15       		.uleb128 .LLSDACSE1289-.LLSDACSB1289
 8284              	.LLSDACSB1289:
 8285 0580 77       		.uleb128 .LEHB196-.LFB1289
 8286 0581 05       		.uleb128 .LEHE196-.LEHB196
 8287 0582 00       		.uleb128 0
 8288 0583 00       		.uleb128 0
 8289 0584 9001     		.uleb128 .LEHB197-.LFB1289
 8290 0586 A201     		.uleb128 .LEHE197-.LEHB197
 8291 0588 C302     		.uleb128 .L342-.LFB1289
 8292 058a 00       		.uleb128 0
 8293 058b BC02     		.uleb128 .LEHB198-.LFB1289
 8294 058d 05       		.uleb128 .LEHE198-.LEHB198
 8295 058e 00       		.uleb128 0
 8296 058f 00       		.uleb128 0
 8297 0590 DF02     		.uleb128 .LEHB199-.LFB1289
 8298 0592 05       		.uleb128 .LEHE199-.LEHB199
 8299 0593 00       		.uleb128 0
 8300 0594 00       		.uleb128 0
 8301              	.LLSDACSE1289:
 8302              		.section	.text._ZN8UnitTest10CheckCloseIfffEEvRNS_11TestResultsERKT_RKT0_RKT1_RKNS_11TestDetailsE,
 8304              		.section	.text._ZN8UnitTest10CheckCloseIffiEEvRNS_11TestResultsERKT_RKT0_RKT1_RKNS_11TestDetailsE,
 8305              		.weak	_ZN8UnitTest10CheckCloseIffiEEvRNS_11TestResultsERKT_RKT0_RKT1_RKNS_11TestDetailsE
 8307              	_ZN8UnitTest10CheckCloseIffiEEvRNS_11TestResultsERKT_RKT0_RKT1_RKNS_11TestDetailsE:
 8308              	.LFB1290:
  45:../Checks.h   ****                 TestDetails const& details)
 8309              		.loc 6 45 6
 8310              		.cfi_startproc
 8311              		.cfi_personality 0x9b,DW.ref.__gxx_personality_v0
 8312              		.cfi_lsda 0x1b,.LLSDA1290
 8313 0000 F30F1EFA 		endbr64
 8314 0004 55       		pushq	%rbp
 8315              		.cfi_def_cfa_offset 16
 8316              		.cfi_offset 6, -16
 8317 0005 4889E5   		movq	%rsp, %rbp
 8318              		.cfi_def_cfa_register 6
 8319 0008 53       		pushq	%rbx
 8320 0009 4881ECD8 		subq	$472, %rsp
 8320      010000
 8321              		.cfi_offset 3, -24
 8322 0010 4889BD48 		movq	%rdi, -440(%rbp)
 8322      FEFFFF
 8323 0017 4889B540 		movq	%rsi, -448(%rbp)
 8323      FEFFFF
 8324 001e 48899538 		movq	%rdx, -456(%rbp)
 8324      FEFFFF
 8325 0025 48898D30 		movq	%rcx, -464(%rbp)
 8325      FEFFFF
 8326 002c 4C898528 		movq	%r8, -472(%rbp)
 8326      FEFFFF
  45:../Checks.h   ****                 TestDetails const& details)
 8327              		.loc 6 45 6
 8328 0033 64488B04 		movq	%fs:40, %rax
 8328      25280000 
 8328      00
 8329 003c 488945E8 		movq	%rax, -24(%rbp)
 8330 0040 31C0     		xorl	%eax, %eax
 8331              	.LBB46:
  48:../Checks.h   ****     { 
 8332              		.loc 6 48 18
 8333 0042 488B9530 		movq	-464(%rbp), %rdx
 8333      FEFFFF
 8334 0049 488B8D38 		movq	-456(%rbp), %rcx
 8334      FEFFFF
 8335 0050 488B8540 		movq	-448(%rbp), %rax
 8335      FEFFFF
 8336 0057 4889CE   		movq	%rcx, %rsi
 8337 005a 4889C7   		movq	%rax, %rdi
 8338 005d E8000000 		call	_ZN8UnitTest8AreCloseIffiEEbRKT_RKT0_RKT1_
 8338      00
 8339 0062 83F001   		xorl	$1, %eax
  48:../Checks.h   ****     { 
 8340              		.loc 6 48 5
 8341 0065 84C0     		testb	%al, %al
 8342 0067 0F84F500 		je	.L349
 8342      0000
 8343              	.LBB47:
  50:../Checks.h   ****         stream << "Expected " << expected << " +/- " << tolerance << " but was " << actual;
 8344              		.loc 6 50 35
 8345 006d 488D8550 		leaq	-432(%rbp), %rax
 8345      FEFFFF
 8346 0074 4889C7   		movq	%rax, %rdi
 8347              	.LEHB200:
 8348 0077 E8000000 		call	_ZN8UnitTest15MemoryOutStreamC1Ev
 8348      00
 8349              	.LEHE200:
  51:../Checks.h   **** 
 8350              		.loc 6 51 16
 8351 007c 488D8550 		leaq	-432(%rbp), %rax
 8351      FEFFFF
 8352 0083 488D1500 		leaq	.LC96(%rip), %rdx
 8352      000000
 8353 008a 4889D6   		movq	%rdx, %rsi
 8354 008d 4889C7   		movq	%rax, %rdi
 8355              	.LEHB201:
 8356 0090 E8000000 		call	_ZStlsISt11char_traitsIcEERSt13basic_ostreamIcT_ES5_PKc@PLT
 8356      00
 8357 0095 4889C2   		movq	%rax, %rdx
  51:../Checks.h   **** 
 8358              		.loc 6 51 31
 8359 0098 488B8540 		movq	-448(%rbp), %rax
 8359      FEFFFF
 8360 009f 8B00     		movl	(%rax), %eax
 8361 00a1 660F6EC0 		movd	%eax, %xmm0
 8362 00a5 4889D7   		movq	%rdx, %rdi
 8363 00a8 E8000000 		call	_ZNSolsEf@PLT
 8363      00
  51:../Checks.h   **** 
 8364              		.loc 6 51 31 is_stmt 0 discriminator 1
 8365 00ad 4889C2   		movq	%rax, %rdx
  51:../Checks.h   **** 
 8366              		.loc 6 51 43 is_stmt 1 discriminator 1
 8367 00b0 488D0500 		leaq	.LC98(%rip), %rax
 8367      000000
 8368 00b7 4889C6   		movq	%rax, %rsi
 8369 00ba 4889D7   		movq	%rdx, %rdi
 8370 00bd E8000000 		call	_ZStlsISt11char_traitsIcEERSt13basic_ostreamIcT_ES5_PKc@PLT
 8370      00
  51:../Checks.h   **** 
 8371              		.loc 6 51 43 is_stmt 0 discriminator 2
 8372 00c2 4889C2   		movq	%rax, %rdx
  51:../Checks.h   **** 
 8373              		.loc 6 51 67 is_stmt 1 discriminator 2
 8374 00c5 488B8530 		movq	-464(%rbp), %rax
 8374      FEFFFF
 8375 00cc 8B00     		movl	(%rax), %eax
 8376 00ce 89C6     		movl	%eax, %esi
 8377 00d0 4889D7   		movq	%rdx, %rdi
 8378 00d3 E8000000 		call	_ZNSolsEi@PLT
 8378      00
  51:../Checks.h   **** 
 8379              		.loc 6 51 67 is_stmt 0 discriminator 3
 8380 00d8 4889C2   		movq	%rax, %rdx
 8381 00db 488D0500 		leaq	.LC97(%rip), %rax
 8381      000000
 8382 00e2 4889C6   		movq	%rax, %rsi
 8383 00e5 4889D7   		movq	%rdx, %rdi
 8384 00e8 E8000000 		call	_ZStlsISt11char_traitsIcEERSt13basic_ostreamIcT_ES5_PKc@PLT
 8384      00
  51:../Checks.h   **** 
 8385              		.loc 6 51 67 discriminator 4
 8386 00ed 4889C2   		movq	%rax, %rdx
  51:../Checks.h   **** 
 8387              		.loc 6 51 82 is_stmt 1 discriminator 4
 8388 00f0 488B8538 		movq	-456(%rbp), %rax
 8388      FEFFFF
 8389 00f7 8B00     		movl	(%rax), %eax
 8390 00f9 660F6EC0 		movd	%eax, %xmm0
 8391 00fd 4889D7   		movq	%rdx, %rdi
 8392 0100 E8000000 		call	_ZNSolsEf@PLT
 8392      00
  53:../Checks.h   ****     }
 8393              		.loc 6 53 30
 8394 0105 488D8550 		leaq	-432(%rbp), %rax
 8394      FEFFFF
 8395 010c 4889C7   		movq	%rax, %rdi
 8396 010f E8000000 		call	_ZNK8UnitTest15MemoryOutStream7GetTextEv@PLT
 8396      00
 8397 0114 4889C2   		movq	%rax, %rdx
 8398 0117 488B8D28 		movq	-472(%rbp), %rcx
 8398      FEFFFF
 8399 011e 488B8548 		movq	-440(%rbp), %rax
 8399      FEFFFF
 8400 0125 4889CE   		movq	%rcx, %rsi
 8401 0128 4889C7   		movq	%rax, %rdi
 8402 012b E8000000 		call	_ZN8UnitTest11TestResults13OnTestFailureERKNS_11TestDetailsEPKc@PLT
 8402      00
 8403              	.LEHE201:
  54:../Checks.h   **** }
 8404              		.loc 6 54 5
 8405 0130 488D8550 		leaq	-432(%rbp), %rax
 8405      FEFFFF
 8406 0137 4889C7   		movq	%rax, %rdi
 8407              	.LEHB202:
 8408 013a E8000000 		call	_ZN8UnitTest15MemoryOutStreamD1Ev
 8408      00
 8409              	.LEHE202:
 8410              	.LBE47:
 8411              	.LBE46:
 8412              		.loc 6 55 1
 8413 013f EB21     		jmp	.L349
 8414              	.L348:
 8415 0141 F30F1EFA 		endbr64
 8416              	.LBB49:
 8417              	.LBB48:
  54:../Checks.h   **** }
 8418              		.loc 6 54 5
 8419 0145 4889C3   		movq	%rax, %rbx
 8420 0148 488D8550 		leaq	-432(%rbp), %rax
 8420      FEFFFF
 8421 014f 4889C7   		movq	%rax, %rdi
 8422 0152 E8000000 		call	_ZN8UnitTest15MemoryOutStreamD1Ev
 8422      00
 8423 0157 4889D8   		movq	%rbx, %rax
 8424 015a 4889C7   		movq	%rax, %rdi
 8425              	.LEHB203:
 8426 015d E8000000 		call	_Unwind_Resume@PLT
 8426      00
 8427              	.LEHE203:
 8428              	.L349:
 8429              	.LBE48:
 8430              	.LBE49:
 8431              		.loc 6 55 1
 8432 0162 90       		nop
 8433 0163 488B45E8 		movq	-24(%rbp), %rax
 8434 0167 64482B04 		subq	%fs:40, %rax
 8434      25280000 
 8434      00
 8435 0170 7405     		je	.L347
 8436 0172 E8000000 		call	__stack_chk_fail@PLT
 8436      00
 8437              	.L347:
 8438 0177 488B5DF8 		movq	-8(%rbp), %rbx
 8439 017b C9       		leave
 8440              		.cfi_def_cfa 7, 8
 8441 017c C3       		ret
 8442              		.cfi_endproc
 8443              	.LFE1290:
 8444              		.section	.gcc_except_table
 8445              	.LLSDA1290:
 8446 0595 FF       		.byte	0xff
 8447 0596 FF       		.byte	0xff
 8448 0597 01       		.byte	0x1
 8449 0598 15       		.uleb128 .LLSDACSE1290-.LLSDACSB1290
 8450              	.LLSDACSB1290:
 8451 0599 77       		.uleb128 .LEHB200-.LFB1290
 8452 059a 05       		.uleb128 .LEHE200-.LEHB200
 8453 059b 00       		.uleb128 0
 8454 059c 00       		.uleb128 0
 8455 059d 9001     		.uleb128 .LEHB201-.LFB1290
 8456 059f A001     		.uleb128 .LEHE201-.LEHB201
 8457 05a1 C102     		.uleb128 .L348-.LFB1290
 8458 05a3 00       		.uleb128 0
 8459 05a4 BA02     		.uleb128 .LEHB202-.LFB1290
 8460 05a6 05       		.uleb128 .LEHE202-.LEHB202
 8461 05a7 00       		.uleb128 0
 8462 05a8 00       		.uleb128 0
 8463 05a9 DD02     		.uleb128 .LEHB203-.LFB1290
 8464 05ab 05       		.uleb128 .LEHE203-.LEHB203
 8465 05ac 00       		.uleb128 0
 8466 05ad 00       		.uleb128 0
 8467              	.LLSDACSE1290:
 8468              		.section	.text._ZN8UnitTest10CheckCloseIffiEEvRNS_11TestResultsERKT_RKT0_RKT1_RKNS_11TestDetailsE,
 8470              		.section	.text._ZN8UnitTest10CheckCloseIiifEEvRNS_11TestResultsERKT_RKT0_RKT1_RKNS_11TestDetailsE,
 8471              		.weak	_ZN8UnitTest10CheckCloseIiifEEvRNS_11TestResultsERKT_RKT0_RKT1_RKNS_11TestDetailsE
 8473              	_ZN8UnitTest10CheckCloseIiifEEvRNS_11TestResultsERKT_RKT0_RKT1_RKNS_11TestDetailsE:
 8474              	.LFB1291:
  45:../Checks.h   ****                 TestDetails const& details)
 8475              		.loc 6 45 6
 8476              		.cfi_startproc
 8477              		.cfi_personality 0x9b,DW.ref.__gxx_personality_v0
 8478              		.cfi_lsda 0x1b,.LLSDA1291
 8479 0000 F30F1EFA 		endbr64
 8480 0004 55       		pushq	%rbp
 8481              		.cfi_def_cfa_offset 16
 8482              		.cfi_offset 6, -16
 8483 0005 4889E5   		movq	%rsp, %rbp
 8484              		.cfi_def_cfa_register 6
 8485 0008 53       		pushq	%rbx
 8486 0009 4881ECD8 		subq	$472, %rsp
 8486      010000
 8487              		.cfi_offset 3, -24
 8488 0010 4889BD48 		movq	%rdi, -440(%rbp)
 8488      FEFFFF
 8489 0017 4889B540 		movq	%rsi, -448(%rbp)
 8489      FEFFFF
 8490 001e 48899538 		movq	%rdx, -456(%rbp)
 8490      FEFFFF
 8491 0025 48898D30 		movq	%rcx, -464(%rbp)
 8491      FEFFFF
 8492 002c 4C898528 		movq	%r8, -472(%rbp)
 8492      FEFFFF
  45:../Checks.h   ****                 TestDetails const& details)
 8493              		.loc 6 45 6
 8494 0033 64488B04 		movq	%fs:40, %rax
 8494      25280000 
 8494      00
 8495 003c 488945E8 		movq	%rax, -24(%rbp)
 8496 0040 31C0     		xorl	%eax, %eax
 8497              	.LBB50:
  48:../Checks.h   ****     { 
 8498              		.loc 6 48 18
 8499 0042 488B9530 		movq	-464(%rbp), %rdx
 8499      FEFFFF
 8500 0049 488B8D38 		movq	-456(%rbp), %rcx
 8500      FEFFFF
 8501 0050 488B8540 		movq	-448(%rbp), %rax
 8501      FEFFFF
 8502 0057 4889CE   		movq	%rcx, %rsi
 8503 005a 4889C7   		movq	%rax, %rdi
 8504 005d E8000000 		call	_ZN8UnitTest8AreCloseIiifEEbRKT_RKT0_RKT1_
 8504      00
 8505 0062 83F001   		xorl	$1, %eax
  48:../Checks.h   ****     { 
 8506              		.loc 6 48 5
 8507 0065 84C0     		testb	%al, %al
 8508 0067 0F84F300 		je	.L355
 8508      0000
 8509              	.LBB51:
  50:../Checks.h   ****         stream << "Expected " << expected << " +/- " << tolerance << " but was " << actual;
 8510              		.loc 6 50 35
 8511 006d 488D8550 		leaq	-432(%rbp), %rax
 8511      FEFFFF
 8512 0074 4889C7   		movq	%rax, %rdi
 8513              	.LEHB204:
 8514 0077 E8000000 		call	_ZN8UnitTest15MemoryOutStreamC1Ev
 8514      00
 8515              	.LEHE204:
  51:../Checks.h   **** 
 8516              		.loc 6 51 16
 8517 007c 488D8550 		leaq	-432(%rbp), %rax
 8517      FEFFFF
 8518 0083 488D1500 		leaq	.LC96(%rip), %rdx
 8518      000000
 8519 008a 4889D6   		movq	%rdx, %rsi
 8520 008d 4889C7   		movq	%rax, %rdi
 8521              	.LEHB205:
 8522 0090 E8000000 		call	_ZStlsISt11char_traitsIcEERSt13basic_ostreamIcT_ES5_PKc@PLT
 8522      00
 8523 0095 4889C2   		movq	%rax, %rdx
  51:../Checks.h   **** 
 8524              		.loc 6 51 43
 8525 0098 488B8540 		movq	-448(%rbp), %rax
 8525      FEFFFF
 8526 009f 8B00     		movl	(%rax), %eax
 8527 00a1 89C6     		movl	%eax, %esi
 8528 00a3 4889D7   		movq	%rdx, %rdi
 8529 00a6 E8000000 		call	_ZNSolsEi@PLT
 8529      00
  51:../Checks.h   **** 
 8530              		.loc 6 51 43 is_stmt 0 discriminator 1
 8531 00ab 4889C2   		movq	%rax, %rdx
 8532 00ae 488D0500 		leaq	.LC98(%rip), %rax
 8532      000000
 8533 00b5 4889C6   		movq	%rax, %rsi
 8534 00b8 4889D7   		movq	%rdx, %rdi
 8535 00bb E8000000 		call	_ZStlsISt11char_traitsIcEERSt13basic_ostreamIcT_ES5_PKc@PLT
 8535      00
  51:../Checks.h   **** 
 8536              		.loc 6 51 43 discriminator 2
 8537 00c0 4889C2   		movq	%rax, %rdx
  51:../Checks.h   **** 
 8538              		.loc 6 51 54 is_stmt 1 discriminator 2
 8539 00c3 488B8530 		movq	-464(%rbp), %rax
 8539      FEFFFF
 8540 00ca 8B00     		movl	(%rax), %eax
 8541 00cc 660F6EC0 		movd	%eax, %xmm0
 8542 00d0 4889D7   		movq	%rdx, %rdi
 8543 00d3 E8000000 		call	_ZNSolsEf@PLT
 8543      00
  51:../Checks.h   **** 
 8544              		.loc 6 51 54 is_stmt 0 discriminator 3
 8545 00d8 4889C2   		movq	%rax, %rdx
  51:../Checks.h   **** 
 8546              		.loc 6 51 67 is_stmt 1 discriminator 3
 8547 00db 488D0500 		leaq	.LC97(%rip), %rax
 8547      000000
 8548 00e2 4889C6   		movq	%rax, %rsi
 8549 00e5 4889D7   		movq	%rdx, %rdi
 8550 00e8 E8000000 		call	_ZStlsISt11char_traitsIcEERSt13basic_ostreamIcT_ES5_PKc@PLT
 8550      00
  51:../Checks.h   **** 
 8551              		.loc 6 51 67 is_stmt 0 discriminator 4
 8552 00ed 4889C2   		movq	%rax, %rdx
  51:../Checks.h   **** 
 8553              		.loc 6 51 82 is_stmt 1 discriminator 4
 8554 00f0 488B8538 		movq	-456(%rbp), %rax
 8554      FEFFFF
 8555 00f7 8B00     		movl	(%rax), %eax
 8556 00f9 89C6     		movl	%eax, %esi
 8557 00fb 4889D7   		movq	%rdx, %rdi
 8558 00fe E8000000 		call	_ZNSolsEi@PLT
 8558      00
  53:../Checks.h   ****     }
 8559              		.loc 6 53 30
 8560 0103 488D8550 		leaq	-432(%rbp), %rax
 8560      FEFFFF
 8561 010a 4889C7   		movq	%rax, %rdi
 8562 010d E8000000 		call	_ZNK8UnitTest15MemoryOutStream7GetTextEv@PLT
 8562      00
 8563 0112 4889C2   		movq	%rax, %rdx
 8564 0115 488B8D28 		movq	-472(%rbp), %rcx
 8564      FEFFFF
 8565 011c 488B8548 		movq	-440(%rbp), %rax
 8565      FEFFFF
 8566 0123 4889CE   		movq	%rcx, %rsi
 8567 0126 4889C7   		movq	%rax, %rdi
 8568 0129 E8000000 		call	_ZN8UnitTest11TestResults13OnTestFailureERKNS_11TestDetailsEPKc@PLT
 8568      00
 8569              	.LEHE205:
  54:../Checks.h   **** }
 8570              		.loc 6 54 5
 8571 012e 488D8550 		leaq	-432(%rbp), %rax
 8571      FEFFFF
 8572 0135 4889C7   		movq	%rax, %rdi
 8573              	.LEHB206:
 8574 0138 E8000000 		call	_ZN8UnitTest15MemoryOutStreamD1Ev
 8574      00
 8575              	.LEHE206:
 8576              	.LBE51:
 8577              	.LBE50:
 8578              		.loc 6 55 1
 8579 013d EB21     		jmp	.L355
 8580              	.L354:
 8581 013f F30F1EFA 		endbr64
 8582              	.LBB53:
 8583              	.LBB52:
  54:../Checks.h   **** }
 8584              		.loc 6 54 5
 8585 0143 4889C3   		movq	%rax, %rbx
 8586 0146 488D8550 		leaq	-432(%rbp), %rax
 8586      FEFFFF
 8587 014d 4889C7   		movq	%rax, %rdi
 8588 0150 E8000000 		call	_ZN8UnitTest15MemoryOutStreamD1Ev
 8588      00
 8589 0155 4889D8   		movq	%rbx, %rax
 8590 0158 4889C7   		movq	%rax, %rdi
 8591              	.LEHB207:
 8592 015b E8000000 		call	_Unwind_Resume@PLT
 8592      00
 8593              	.LEHE207:
 8594              	.L355:
 8595              	.LBE52:
 8596              	.LBE53:
 8597              		.loc 6 55 1
 8598 0160 90       		nop
 8599 0161 488B45E8 		movq	-24(%rbp), %rax
 8600 0165 64482B04 		subq	%fs:40, %rax
 8600      25280000 
 8600      00
 8601 016e 7405     		je	.L353
 8602 0170 E8000000 		call	__stack_chk_fail@PLT
 8602      00
 8603              	.L353:
 8604 0175 488B5DF8 		movq	-8(%rbp), %rbx
 8605 0179 C9       		leave
 8606              		.cfi_def_cfa 7, 8
 8607 017a C3       		ret
 8608              		.cfi_endproc
 8609              	.LFE1291:
 8610              		.section	.gcc_except_table
 8611              	.LLSDA1291:
 8612 05ae FF       		.byte	0xff
 8613 05af FF       		.byte	0xff
 8614 05b0 01       		.byte	0x1
 8615 05b1 15       		.uleb128 .LLSDACSE1291-.LLSDACSB1291
 8616              	.LLSDACSB1291:
 8617 05b2 77       		.uleb128 .LEHB204-.LFB1291
 8618 05b3 05       		.uleb128 .LEHE204-.LEHB204
 8619 05b4 00       		.uleb128 0
 8620 05b5 00       		.uleb128 0
 8621 05b6 9001     		.uleb128 .LEHB205-.LFB1291
 8622 05b8 9E01     		.uleb128 .LEHE205-.LEHB205
 8623 05ba BF02     		.uleb128 .L354-.LFB1291
 8624 05bc 00       		.uleb128 0
 8625 05bd B802     		.uleb128 .LEHB206-.LFB1291
 8626 05bf 05       		.uleb128 .LEHE206-.LEHB206
 8627 05c0 00       		.uleb128 0
 8628 05c1 00       		.uleb128 0
 8629 05c2 DB02     		.uleb128 .LEHB207-.LFB1291
 8630 05c4 05       		.uleb128 .LEHE207-.LEHB207
 8631 05c5 00       		.uleb128 0
 8632 05c6 00       		.uleb128 0
 8633              	.LLSDACSE1291:
 8634              		.section	.text._ZN8UnitTest10CheckCloseIiifEEvRNS_11TestResultsERKT_RKT0_RKT1_RKNS_11TestDetailsE,
 8636              		.section	.rodata
 8637              	.LC99:
 8638 0bc4 45787065 		.string	"Expected [ "
 8638      63746564 
 8638      205B2000 
 8639              	.LC100:
 8640 0bd0 2000     		.string	" "
 8641              	.LC101:
 8642 0bd2 5D206275 		.string	"] but was [ "
 8642      74207761 
 8642      73205B20 
 8642      00
 8643              	.LC102:
 8644 0bdf 5D00     		.string	"]"
 8645              		.section	.text._ZN8UnitTest15CheckArrayEqualIA3_iS1_EEvRNS_11TestResultsERKT_RKT0_iRKNS_11TestDeta
 8646              		.weak	_ZN8UnitTest15CheckArrayEqualIA3_iS1_EEvRNS_11TestResultsERKT_RKT0_iRKNS_11TestDetailsE
 8648              	_ZN8UnitTest15CheckArrayEqualIA3_iS1_EEvRNS_11TestResultsERKT_RKT0_iRKNS_11TestDetailsE:
 8649              	.LFB1292:
  56:../Checks.h   **** 
  57:../Checks.h   **** 
  58:../Checks.h   **** template< typename Expected, typename Actual >
  59:../Checks.h   **** void CheckArrayEqual(TestResults& results, Expected const& expected, Actual const& actual,
 8650              		.loc 6 59 6
 8651              		.cfi_startproc
 8652              		.cfi_personality 0x9b,DW.ref.__gxx_personality_v0
 8653              		.cfi_lsda 0x1b,.LLSDA1292
 8654 0000 F30F1EFA 		endbr64
 8655 0004 55       		pushq	%rbp
 8656              		.cfi_def_cfa_offset 16
 8657              		.cfi_offset 6, -16
 8658 0005 4889E5   		movq	%rsp, %rbp
 8659              		.cfi_def_cfa_register 6
 8660 0008 53       		pushq	%rbx
 8661 0009 4881ECE8 		subq	$488, %rsp
 8661      010000
 8662              		.cfi_offset 3, -24
 8663 0010 4889BD38 		movq	%rdi, -456(%rbp)
 8663      FEFFFF
 8664 0017 4889B530 		movq	%rsi, -464(%rbp)
 8664      FEFFFF
 8665 001e 48899528 		movq	%rdx, -472(%rbp)
 8665      FEFFFF
 8666 0025 898D24FE 		movl	%ecx, -476(%rbp)
 8666      FFFF
 8667 002b 4C898518 		movq	%r8, -488(%rbp)
 8667      FEFFFF
 8668              		.loc 6 59 6
 8669 0032 64488B04 		movq	%fs:40, %rax
 8669      25280000 
 8669      00
 8670 003b 488945E8 		movq	%rax, -24(%rbp)
 8671 003f 31C0     		xorl	%eax, %eax
  60:../Checks.h   ****                 int const count, TestDetails const& details)
  61:../Checks.h   **** {
  62:../Checks.h   ****     bool equal = true;
 8672              		.loc 6 62 10
 8673 0041 C68543FE 		movb	$1, -445(%rbp)
 8673      FFFF01
 8674              	.LBB54:
  63:../Checks.h   ****     for (int i = 0; i < count; ++i)
 8675              		.loc 6 63 14
 8676 0048 C78544FE 		movl	$0, -444(%rbp)
 8676      FFFF0000 
 8676      0000
 8677              		.loc 6 63 5
 8678 0052 EB49     		jmp	.L357
 8679              	.L358:
  64:../Checks.h   ****         equal &= (expected[i] == actual[i]);
 8680              		.loc 6 64 15 discriminator 3
 8681 0054 0FB6B543 		movzbl	-445(%rbp), %esi
 8681      FEFFFF
 8682              		.loc 6 64 27 discriminator 3
 8683 005b 488B8530 		movq	-464(%rbp), %rax
 8683      FEFFFF
 8684 0062 8B9544FE 		movl	-444(%rbp), %edx
 8684      FFFF
 8685 0068 4863D2   		movslq	%edx, %rdx
 8686 006b 8B0C90   		movl	(%rax,%rdx,4), %ecx
 8687              		.loc 6 64 40 discriminator 3
 8688 006e 488B8528 		movq	-472(%rbp), %rax
 8688      FEFFFF
 8689 0075 8B9544FE 		movl	-444(%rbp), %edx
 8689      FFFF
 8690 007b 4863D2   		movslq	%edx, %rdx
 8691 007e 8B0490   		movl	(%rax,%rdx,4), %eax
 8692              		.loc 6 64 31 discriminator 3
 8693 0081 39C1     		cmpl	%eax, %ecx
 8694 0083 0F94C0   		sete	%al
 8695 0086 0FB6C0   		movzbl	%al, %eax
 8696              		.loc 6 64 15 discriminator 3
 8697 0089 21F0     		andl	%esi, %eax
 8698 008b 85C0     		testl	%eax, %eax
 8699 008d 0F95C0   		setne	%al
 8700 0090 888543FE 		movb	%al, -445(%rbp)
 8700      FFFF
  63:../Checks.h   ****     for (int i = 0; i < count; ++i)
 8701              		.loc 6 63 5 discriminator 3
 8702 0096 838544FE 		addl	$1, -444(%rbp)
 8702      FFFF01
 8703              	.L357:
  63:../Checks.h   ****     for (int i = 0; i < count; ++i)
 8704              		.loc 6 63 23 discriminator 1
 8705 009d 8B8544FE 		movl	-444(%rbp), %eax
 8705      FFFF
 8706 00a3 3B8524FE 		cmpl	-476(%rbp), %eax
 8706      FFFF
 8707 00a9 7CA9     		jl	.L358
 8708              	.LBE54:
 8709              	.LBB55:
  65:../Checks.h   **** 
  66:../Checks.h   ****     if (!equal)
 8710              		.loc 6 66 10
 8711 00ab 0FB68543 		movzbl	-445(%rbp), %eax
 8711      FEFFFF
 8712 00b2 83F001   		xorl	$1, %eax
 8713              		.loc 6 66 5
 8714 00b5 84C0     		testb	%al, %al
 8715 00b7 0F846B01 		je	.L367
 8715      0000
 8716              	.LBB56:
  67:../Checks.h   ****     {
  68:../Checks.h   ****         UnitTest::MemoryOutStream stream;
 8717              		.loc 6 68 35
 8718 00bd 488D8550 		leaq	-432(%rbp), %rax
 8718      FEFFFF
 8719 00c4 4889C7   		movq	%rax, %rdi
 8720              	.LEHB208:
 8721 00c7 E8000000 		call	_ZN8UnitTest15MemoryOutStreamC1Ev
 8721      00
 8722              	.LEHE208:
  69:../Checks.h   **** 
  70:../Checks.h   **** 		stream << "Expected [ ";
 8723              		.loc 6 70 10
 8724 00cc 488D8550 		leaq	-432(%rbp), %rax
 8724      FEFFFF
 8725 00d3 488D1500 		leaq	.LC99(%rip), %rdx
 8725      000000
 8726 00da 4889D6   		movq	%rdx, %rsi
 8727 00dd 4889C7   		movq	%rax, %rdi
 8728              	.LEHB209:
 8729 00e0 E8000000 		call	_ZStlsISt11char_traitsIcEERSt13basic_ostreamIcT_ES5_PKc@PLT
 8729      00
 8730              	.LBB57:
  71:../Checks.h   **** 
  72:../Checks.h   **** 		for (int expectedIndex = 0; expectedIndex < count; ++expectedIndex)
 8731              		.loc 6 72 12
 8732 00e5 C78548FE 		movl	$0, -440(%rbp)
 8732      FFFF0000 
 8732      0000
 8733              		.loc 6 72 3
 8734 00ef EB40     		jmp	.L360
 8735              	.L361:
  73:../Checks.h   ****             stream << expected[expectedIndex] << " ";
 8736              		.loc 6 73 31
 8737 00f1 488B8530 		movq	-464(%rbp), %rax
 8737      FEFFFF
 8738 00f8 8B9548FE 		movl	-440(%rbp), %edx
 8738      FFFF
 8739 00fe 4863D2   		movslq	%edx, %rdx
 8740 0101 8B1490   		movl	(%rax,%rdx,4), %edx
 8741              		.loc 6 73 47
 8742 0104 488D8550 		leaq	-432(%rbp), %rax
 8742      FEFFFF
 8743 010b 89D6     		movl	%edx, %esi
 8744 010d 4889C7   		movq	%rax, %rdi
 8745 0110 E8000000 		call	_ZNSolsEi@PLT
 8745      00
 8746 0115 4889C2   		movq	%rax, %rdx
 8747 0118 488D0500 		leaq	.LC100(%rip), %rax
 8747      000000
 8748 011f 4889C6   		movq	%rax, %rsi
 8749 0122 4889D7   		movq	%rdx, %rdi
 8750 0125 E8000000 		call	_ZStlsISt11char_traitsIcEERSt13basic_ostreamIcT_ES5_PKc@PLT
 8750      00
  72:../Checks.h   ****             stream << expected[expectedIndex] << " ";
 8751              		.loc 6 72 3 discriminator 2
 8752 012a 838548FE 		addl	$1, -440(%rbp)
 8752      FFFF01
 8753              	.L360:
  72:../Checks.h   ****             stream << expected[expectedIndex] << " ";
 8754              		.loc 6 72 45 discriminator 1
 8755 0131 8B8548FE 		movl	-440(%rbp), %eax
 8755      FFFF
 8756 0137 3B8524FE 		cmpl	-476(%rbp), %eax
 8756      FFFF
 8757 013d 7CB2     		jl	.L361
 8758              	.LBE57:
  74:../Checks.h   **** 
  75:../Checks.h   **** 		stream << "] but was [ ";
 8759              		.loc 6 75 10
 8760 013f 488D8550 		leaq	-432(%rbp), %rax
 8760      FEFFFF
 8761 0146 488D1500 		leaq	.LC101(%rip), %rdx
 8761      000000
 8762 014d 4889D6   		movq	%rdx, %rsi
 8763 0150 4889C7   		movq	%rax, %rdi
 8764 0153 E8000000 		call	_ZStlsISt11char_traitsIcEERSt13basic_ostreamIcT_ES5_PKc@PLT
 8764      00
 8765              	.LBB58:
  76:../Checks.h   **** 
  77:../Checks.h   **** 		for (int actualIndex = 0; actualIndex < count; ++actualIndex)
 8766              		.loc 6 77 12
 8767 0158 C7854CFE 		movl	$0, -436(%rbp)
 8767      FFFF0000 
 8767      0000
 8768              		.loc 6 77 3
 8769 0162 EB40     		jmp	.L362
 8770              	.L363:
  78:../Checks.h   ****             stream << actual[actualIndex] << " ";
 8771              		.loc 6 78 29
 8772 0164 488B8528 		movq	-472(%rbp), %rax
 8772      FEFFFF
 8773 016b 8B954CFE 		movl	-436(%rbp), %edx
 8773      FFFF
 8774 0171 4863D2   		movslq	%edx, %rdx
 8775 0174 8B1490   		movl	(%rax,%rdx,4), %edx
 8776              		.loc 6 78 43
 8777 0177 488D8550 		leaq	-432(%rbp), %rax
 8777      FEFFFF
 8778 017e 89D6     		movl	%edx, %esi
 8779 0180 4889C7   		movq	%rax, %rdi
 8780 0183 E8000000 		call	_ZNSolsEi@PLT
 8780      00
 8781 0188 4889C2   		movq	%rax, %rdx
 8782 018b 488D0500 		leaq	.LC100(%rip), %rax
 8782      000000
 8783 0192 4889C6   		movq	%rax, %rsi
 8784 0195 4889D7   		movq	%rdx, %rdi
 8785 0198 E8000000 		call	_ZStlsISt11char_traitsIcEERSt13basic_ostreamIcT_ES5_PKc@PLT
 8785      00
  77:../Checks.h   ****             stream << actual[actualIndex] << " ";
 8786              		.loc 6 77 3 discriminator 2
 8787 019d 83854CFE 		addl	$1, -436(%rbp)
 8787      FFFF01
 8788              	.L362:
  77:../Checks.h   ****             stream << actual[actualIndex] << " ";
 8789              		.loc 6 77 41 discriminator 1
 8790 01a4 8B854CFE 		movl	-436(%rbp), %eax
 8790      FFFF
 8791 01aa 3B8524FE 		cmpl	-476(%rbp), %eax
 8791      FFFF
 8792 01b0 7CB2     		jl	.L363
 8793              	.LBE58:
  79:../Checks.h   **** 
  80:../Checks.h   **** 		stream << "]";
 8794              		.loc 6 80 10
 8795 01b2 488D8550 		leaq	-432(%rbp), %rax
 8795      FEFFFF
 8796 01b9 488D1500 		leaq	.LC102(%rip), %rdx
 8796      000000
 8797 01c0 4889D6   		movq	%rdx, %rsi
 8798 01c3 4889C7   		movq	%rax, %rdi
 8799 01c6 E8000000 		call	_ZStlsISt11char_traitsIcEERSt13basic_ostreamIcT_ES5_PKc@PLT
 8799      00
  81:../Checks.h   **** 
  82:../Checks.h   ****         results.OnTestFailure(details, stream.GetText());
 8800              		.loc 6 82 30
 8801 01cb 488D8550 		leaq	-432(%rbp), %rax
 8801      FEFFFF
 8802 01d2 4889C7   		movq	%rax, %rdi
 8803 01d5 E8000000 		call	_ZNK8UnitTest15MemoryOutStream7GetTextEv@PLT
 8803      00
 8804 01da 4889C2   		movq	%rax, %rdx
 8805 01dd 488B8D18 		movq	-488(%rbp), %rcx
 8805      FEFFFF
 8806 01e4 488B8538 		movq	-456(%rbp), %rax
 8806      FEFFFF
 8807 01eb 4889CE   		movq	%rcx, %rsi
 8808 01ee 4889C7   		movq	%rax, %rdi
 8809 01f1 E8000000 		call	_ZN8UnitTest11TestResults13OnTestFailureERKNS_11TestDetailsEPKc@PLT
 8809      00
 8810              	.LEHE209:
  83:../Checks.h   ****     }
 8811              		.loc 6 83 5
 8812 01f6 488D8550 		leaq	-432(%rbp), %rax
 8812      FEFFFF
 8813 01fd 4889C7   		movq	%rax, %rdi
 8814              	.LEHB210:
 8815 0200 E8000000 		call	_ZN8UnitTest15MemoryOutStreamD1Ev
 8815      00
 8816              	.LEHE210:
 8817              	.LBE56:
 8818              	.LBE55:
  84:../Checks.h   **** }
 8819              		.loc 6 84 1
 8820 0205 EB21     		jmp	.L367
 8821              	.L366:
 8822 0207 F30F1EFA 		endbr64
 8823              	.LBB60:
 8824              	.LBB59:
  83:../Checks.h   ****     }
 8825              		.loc 6 83 5
 8826 020b 4889C3   		movq	%rax, %rbx
 8827 020e 488D8550 		leaq	-432(%rbp), %rax
 8827      FEFFFF
 8828 0215 4889C7   		movq	%rax, %rdi
 8829 0218 E8000000 		call	_ZN8UnitTest15MemoryOutStreamD1Ev
 8829      00
 8830 021d 4889D8   		movq	%rbx, %rax
 8831 0220 4889C7   		movq	%rax, %rdi
 8832              	.LEHB211:
 8833 0223 E8000000 		call	_Unwind_Resume@PLT
 8833      00
 8834              	.LEHE211:
 8835              	.L367:
 8836              	.LBE59:
 8837              	.LBE60:
 8838              		.loc 6 84 1
 8839 0228 90       		nop
 8840 0229 488B45E8 		movq	-24(%rbp), %rax
 8841 022d 64482B04 		subq	%fs:40, %rax
 8841      25280000 
 8841      00
 8842 0236 7405     		je	.L365
 8843 0238 E8000000 		call	__stack_chk_fail@PLT
 8843      00
 8844              	.L365:
 8845 023d 488B5DF8 		movq	-8(%rbp), %rbx
 8846 0241 C9       		leave
 8847              		.cfi_def_cfa 7, 8
 8848 0242 C3       		ret
 8849              		.cfi_endproc
 8850              	.LFE1292:
 8851              		.section	.gcc_except_table
 8852              	.LLSDA1292:
 8853 05c7 FF       		.byte	0xff
 8854 05c8 FF       		.byte	0xff
 8855 05c9 01       		.byte	0x1
 8856 05ca 16       		.uleb128 .LLSDACSE1292-.LLSDACSB1292
 8857              	.LLSDACSB1292:
 8858 05cb C701     		.uleb128 .LEHB208-.LFB1292
 8859 05cd 05       		.uleb128 .LEHE208-.LEHB208
 8860 05ce 00       		.uleb128 0
 8861 05cf 00       		.uleb128 0
 8862 05d0 E001     		.uleb128 .LEHB209-.LFB1292
 8863 05d2 9602     		.uleb128 .LEHE209-.LEHB209
 8864 05d4 8704     		.uleb128 .L366-.LFB1292
 8865 05d6 00       		.uleb128 0
 8866 05d7 8004     		.uleb128 .LEHB210-.LFB1292
 8867 05d9 05       		.uleb128 .LEHE210-.LEHB210
 8868 05da 00       		.uleb128 0
 8869 05db 00       		.uleb128 0
 8870 05dc A304     		.uleb128 .LEHB211-.LFB1292
 8871 05de 05       		.uleb128 .LEHE211-.LEHB211
 8872 05df 00       		.uleb128 0
 8873 05e0 00       		.uleb128 0
 8874              	.LLSDACSE1292:
 8875              		.section	.text._ZN8UnitTest15CheckArrayEqualIA3_iS1_EEvRNS_11TestResultsERKT_RKT0_iRKNS_11TestDeta
 8877              		.section	.rodata
 8878              	.LC103:
 8879 0be1 5D202B2F 		.string	"] +/- "
 8879      2D2000
 8880              	.LC104:
 8881 0be8 20627574 		.string	" but was [ "
 8881      20776173 
 8881      205B2000 
 8882              		.section	.text._ZN8UnitTest15CheckArrayCloseIA3_fS1_fEEvRNS_11TestResultsERKT_RKT0_iRKT1_RKNS_11Te
 8883              		.weak	_ZN8UnitTest15CheckArrayCloseIA3_fS1_fEEvRNS_11TestResultsERKT_RKT0_iRKT1_RKNS_11TestDetails
 8885              	_ZN8UnitTest15CheckArrayCloseIA3_fS1_fEEvRNS_11TestResultsERKT_RKT0_iRKT1_RKNS_11TestDetailsE:
 8886              	.LFB1293:
  85:../Checks.h   **** 
  86:../Checks.h   **** template< typename Expected, typename Actual, typename Tolerance >
  87:../Checks.h   **** bool ArrayAreClose(Expected const& expected, Actual const& actual, int const count, Tolerance const
  88:../Checks.h   **** {
  89:../Checks.h   ****     bool equal = true;
  90:../Checks.h   ****     for (int i = 0; i < count; ++i)
  91:../Checks.h   ****         equal &= AreClose(expected[i], actual[i], tolerance);
  92:../Checks.h   ****     return equal;
  93:../Checks.h   **** }
  94:../Checks.h   **** 
  95:../Checks.h   **** template< typename Expected, typename Actual, typename Tolerance >
  96:../Checks.h   **** void CheckArrayClose(TestResults& results, Expected const& expected, Actual const& actual,
 8887              		.loc 6 96 6
 8888              		.cfi_startproc
 8889              		.cfi_personality 0x9b,DW.ref.__gxx_personality_v0
 8890              		.cfi_lsda 0x1b,.LLSDA1293
 8891 0000 F30F1EFA 		endbr64
 8892 0004 55       		pushq	%rbp
 8893              		.cfi_def_cfa_offset 16
 8894              		.cfi_offset 6, -16
 8895 0005 4889E5   		movq	%rsp, %rbp
 8896              		.cfi_def_cfa_register 6
 8897 0008 53       		pushq	%rbx
 8898 0009 4881ECE8 		subq	$488, %rsp
 8898      010000
 8899              		.cfi_offset 3, -24
 8900 0010 4889BD38 		movq	%rdi, -456(%rbp)
 8900      FEFFFF
 8901 0017 4889B530 		movq	%rsi, -464(%rbp)
 8901      FEFFFF
 8902 001e 48899528 		movq	%rdx, -472(%rbp)
 8902      FEFFFF
 8903 0025 898D24FE 		movl	%ecx, -476(%rbp)
 8903      FFFF
 8904 002b 4C898518 		movq	%r8, -488(%rbp)
 8904      FEFFFF
 8905 0032 4C898D10 		movq	%r9, -496(%rbp)
 8905      FEFFFF
 8906              		.loc 6 96 6
 8907 0039 64488B04 		movq	%fs:40, %rax
 8907      25280000 
 8907      00
 8908 0042 488945E8 		movq	%rax, -24(%rbp)
 8909 0046 31C0     		xorl	%eax, %eax
  97:../Checks.h   ****                    int const count, Tolerance const& tolerance, TestDetails const& details)
  98:../Checks.h   **** {
  99:../Checks.h   ****     bool equal = ArrayAreClose(expected, actual, count, tolerance);
 8910              		.loc 6 99 31
 8911 0048 488B8D18 		movq	-488(%rbp), %rcx
 8911      FEFFFF
 8912 004f 8B9524FE 		movl	-476(%rbp), %edx
 8912      FFFF
 8913 0055 488BB528 		movq	-472(%rbp), %rsi
 8913      FEFFFF
 8914 005c 488B8530 		movq	-464(%rbp), %rax
 8914      FEFFFF
 8915 0063 4889C7   		movq	%rax, %rdi
 8916 0066 E8000000 		call	_ZN8UnitTest13ArrayAreCloseIA3_fS1_fEEbRKT_RKT0_iRKT1_
 8916      00
 8917 006b 888547FE 		movb	%al, -441(%rbp)
 8917      FFFF
 8918              	.LBB61:
 100:../Checks.h   **** 
 101:../Checks.h   ****     if (!equal)
 8919              		.loc 6 101 10
 8920 0071 0FB68547 		movzbl	-441(%rbp), %eax
 8920      FEFFFF
 8921 0078 83F001   		xorl	$1, %eax
 8922              		.loc 6 101 5
 8923 007b 84C0     		testb	%al, %al
 8924 007d 0F849C01 		je	.L377
 8924      0000
 8925              	.LBB62:
 102:../Checks.h   ****     {
 103:../Checks.h   ****         UnitTest::MemoryOutStream stream;
 8926              		.loc 6 103 35
 8927 0083 488D8550 		leaq	-432(%rbp), %rax
 8927      FEFFFF
 8928 008a 4889C7   		movq	%rax, %rdi
 8929              	.LEHB212:
 8930 008d E8000000 		call	_ZN8UnitTest15MemoryOutStreamC1Ev
 8930      00
 8931              	.LEHE212:
 104:../Checks.h   **** 
 105:../Checks.h   ****         stream << "Expected [ ";
 8932              		.loc 6 105 16
 8933 0092 488D8550 		leaq	-432(%rbp), %rax
 8933      FEFFFF
 8934 0099 488D1500 		leaq	.LC99(%rip), %rdx
 8934      000000
 8935 00a0 4889D6   		movq	%rdx, %rsi
 8936 00a3 4889C7   		movq	%rax, %rdi
 8937              	.LEHB213:
 8938 00a6 E8000000 		call	_ZStlsISt11char_traitsIcEERSt13basic_ostreamIcT_ES5_PKc@PLT
 8938      00
 8939              	.LBB63:
 106:../Checks.h   ****         for (int expectedIndex = 0; expectedIndex < count; ++expectedIndex)
 8940              		.loc 6 106 18
 8941 00ab C78548FE 		movl	$0, -440(%rbp)
 8941      FFFF0000 
 8941      0000
 8942              		.loc 6 106 9
 8943 00b5 EB42     		jmp	.L370
 8944              	.L371:
 107:../Checks.h   ****             stream << expected[expectedIndex] << " ";
 8945              		.loc 6 107 31
 8946 00b7 488B8530 		movq	-464(%rbp), %rax
 8946      FEFFFF
 8947 00be 8B9548FE 		movl	-440(%rbp), %edx
 8947      FFFF
 8948 00c4 4863D2   		movslq	%edx, %rdx
 8949 00c7 8B1490   		movl	(%rax,%rdx,4), %edx
 8950              		.loc 6 107 20
 8951 00ca 488D8550 		leaq	-432(%rbp), %rax
 8951      FEFFFF
 8952 00d1 660F6EC2 		movd	%edx, %xmm0
 8953 00d5 4889C7   		movq	%rax, %rdi
 8954 00d8 E8000000 		call	_ZNSolsEf@PLT
 8954      00
 8955 00dd 4889C2   		movq	%rax, %rdx
 8956              		.loc 6 107 47
 8957 00e0 488D0500 		leaq	.LC100(%rip), %rax
 8957      000000
 8958 00e7 4889C6   		movq	%rax, %rsi
 8959 00ea 4889D7   		movq	%rdx, %rdi
 8960 00ed E8000000 		call	_ZStlsISt11char_traitsIcEERSt13basic_ostreamIcT_ES5_PKc@PLT
 8960      00
 106:../Checks.h   ****         for (int expectedIndex = 0; expectedIndex < count; ++expectedIndex)
 8961              		.loc 6 106 9 discriminator 2
 8962 00f2 838548FE 		addl	$1, -440(%rbp)
 8962      FFFF01
 8963              	.L370:
 106:../Checks.h   ****         for (int expectedIndex = 0; expectedIndex < count; ++expectedIndex)
 8964              		.loc 6 106 51 discriminator 1
 8965 00f9 8B8548FE 		movl	-440(%rbp), %eax
 8965      FFFF
 8966 00ff 3B8524FE 		cmpl	-476(%rbp), %eax
 8966      FFFF
 8967 0105 7CB0     		jl	.L371
 8968              	.LBE63:
 108:../Checks.h   ****         stream << "] +/- " << tolerance << " but was [ ";
 8969              		.loc 6 108 16
 8970 0107 488D8550 		leaq	-432(%rbp), %rax
 8970      FEFFFF
 8971 010e 488D1500 		leaq	.LC103(%rip), %rdx
 8971      000000
 8972 0115 4889D6   		movq	%rdx, %rsi
 8973 0118 4889C7   		movq	%rax, %rdi
 8974 011b E8000000 		call	_ZStlsISt11char_traitsIcEERSt13basic_ostreamIcT_ES5_PKc@PLT
 8974      00
 8975 0120 4889C2   		movq	%rax, %rdx
 8976              		.loc 6 108 28
 8977 0123 488B8518 		movq	-488(%rbp), %rax
 8977      FEFFFF
 8978 012a 8B00     		movl	(%rax), %eax
 8979 012c 660F6EC0 		movd	%eax, %xmm0
 8980 0130 4889D7   		movq	%rdx, %rdi
 8981 0133 E8000000 		call	_ZNSolsEf@PLT
 8981      00
 8982              		.loc 6 108 28 is_stmt 0 discriminator 1
 8983 0138 4889C2   		movq	%rax, %rdx
 8984              		.loc 6 108 41 is_stmt 1 discriminator 1
 8985 013b 488D0500 		leaq	.LC104(%rip), %rax
 8985      000000
 8986 0142 4889C6   		movq	%rax, %rsi
 8987 0145 4889D7   		movq	%rdx, %rdi
 8988 0148 E8000000 		call	_ZStlsISt11char_traitsIcEERSt13basic_ostreamIcT_ES5_PKc@PLT
 8988      00
 8989              	.LBB64:
 109:../Checks.h   **** 
 110:../Checks.h   **** 		for (int actualIndex = 0; actualIndex < count; ++actualIndex)
 8990              		.loc 6 110 12
 8991 014d C7854CFE 		movl	$0, -436(%rbp)
 8991      FFFF0000 
 8991      0000
 8992              		.loc 6 110 3
 8993 0157 EB42     		jmp	.L372
 8994              	.L373:
 111:../Checks.h   ****             stream << actual[actualIndex] << " ";
 8995              		.loc 6 111 29
 8996 0159 488B8528 		movq	-472(%rbp), %rax
 8996      FEFFFF
 8997 0160 8B954CFE 		movl	-436(%rbp), %edx
 8997      FFFF
 8998 0166 4863D2   		movslq	%edx, %rdx
 8999 0169 8B1490   		movl	(%rax,%rdx,4), %edx
 9000              		.loc 6 111 20
 9001 016c 488D8550 		leaq	-432(%rbp), %rax
 9001      FEFFFF
 9002 0173 660F6EC2 		movd	%edx, %xmm0
 9003 0177 4889C7   		movq	%rax, %rdi
 9004 017a E8000000 		call	_ZNSolsEf@PLT
 9004      00
 9005 017f 4889C2   		movq	%rax, %rdx
 9006              		.loc 6 111 43
 9007 0182 488D0500 		leaq	.LC100(%rip), %rax
 9007      000000
 9008 0189 4889C6   		movq	%rax, %rsi
 9009 018c 4889D7   		movq	%rdx, %rdi
 9010 018f E8000000 		call	_ZStlsISt11char_traitsIcEERSt13basic_ostreamIcT_ES5_PKc@PLT
 9010      00
 110:../Checks.h   ****             stream << actual[actualIndex] << " ";
 9011              		.loc 6 110 3 discriminator 2
 9012 0194 83854CFE 		addl	$1, -436(%rbp)
 9012      FFFF01
 9013              	.L372:
 110:../Checks.h   ****             stream << actual[actualIndex] << " ";
 9014              		.loc 6 110 41 discriminator 1
 9015 019b 8B854CFE 		movl	-436(%rbp), %eax
 9015      FFFF
 9016 01a1 3B8524FE 		cmpl	-476(%rbp), %eax
 9016      FFFF
 9017 01a7 7CB0     		jl	.L373
 9018              	.LBE64:
 112:../Checks.h   ****         stream << "]";
 9019              		.loc 6 112 16
 9020 01a9 488D8550 		leaq	-432(%rbp), %rax
 9020      FEFFFF
 9021 01b0 488D1500 		leaq	.LC102(%rip), %rdx
 9021      000000
 9022 01b7 4889D6   		movq	%rdx, %rsi
 9023 01ba 4889C7   		movq	%rax, %rdi
 9024 01bd E8000000 		call	_ZStlsISt11char_traitsIcEERSt13basic_ostreamIcT_ES5_PKc@PLT
 9024      00
 113:../Checks.h   **** 
 114:../Checks.h   ****         results.OnTestFailure(details, stream.GetText());
 9025              		.loc 6 114 30
 9026 01c2 488D8550 		leaq	-432(%rbp), %rax
 9026      FEFFFF
 9027 01c9 4889C7   		movq	%rax, %rdi
 9028 01cc E8000000 		call	_ZNK8UnitTest15MemoryOutStream7GetTextEv@PLT
 9028      00
 9029 01d1 4889C2   		movq	%rax, %rdx
 9030 01d4 488B8D10 		movq	-496(%rbp), %rcx
 9030      FEFFFF
 9031 01db 488B8538 		movq	-456(%rbp), %rax
 9031      FEFFFF
 9032 01e2 4889CE   		movq	%rcx, %rsi
 9033 01e5 4889C7   		movq	%rax, %rdi
 9034 01e8 E8000000 		call	_ZN8UnitTest11TestResults13OnTestFailureERKNS_11TestDetailsEPKc@PLT
 9034      00
 9035              	.LEHE213:
 115:../Checks.h   ****     }
 9036              		.loc 6 115 5
 9037 01ed 488D8550 		leaq	-432(%rbp), %rax
 9037      FEFFFF
 9038 01f4 4889C7   		movq	%rax, %rdi
 9039              	.LEHB214:
 9040 01f7 E8000000 		call	_ZN8UnitTest15MemoryOutStreamD1Ev
 9040      00
 9041              	.LEHE214:
 9042              	.LBE62:
 9043              	.LBE61:
 116:../Checks.h   **** }
 9044              		.loc 6 116 1
 9045 01fc EB21     		jmp	.L377
 9046              	.L376:
 9047 01fe F30F1EFA 		endbr64
 9048              	.LBB66:
 9049              	.LBB65:
 115:../Checks.h   ****     }
 9050              		.loc 6 115 5
 9051 0202 4889C3   		movq	%rax, %rbx
 9052 0205 488D8550 		leaq	-432(%rbp), %rax
 9052      FEFFFF
 9053 020c 4889C7   		movq	%rax, %rdi
 9054 020f E8000000 		call	_ZN8UnitTest15MemoryOutStreamD1Ev
 9054      00
 9055 0214 4889D8   		movq	%rbx, %rax
 9056 0217 4889C7   		movq	%rax, %rdi
 9057              	.LEHB215:
 9058 021a E8000000 		call	_Unwind_Resume@PLT
 9058      00
 9059              	.LEHE215:
 9060              	.L377:
 9061              	.LBE65:
 9062              	.LBE66:
 9063              		.loc 6 116 1
 9064 021f 90       		nop
 9065 0220 488B45E8 		movq	-24(%rbp), %rax
 9066 0224 64482B04 		subq	%fs:40, %rax
 9066      25280000 
 9066      00
 9067 022d 7405     		je	.L375
 9068 022f E8000000 		call	__stack_chk_fail@PLT
 9068      00
 9069              	.L375:
 9070 0234 488B5DF8 		movq	-8(%rbp), %rbx
 9071 0238 C9       		leave
 9072              		.cfi_def_cfa 7, 8
 9073 0239 C3       		ret
 9074              		.cfi_endproc
 9075              	.LFE1293:
 9076              		.section	.gcc_except_table
 9077              	.LLSDA1293:
 9078 05e1 FF       		.byte	0xff
 9079 05e2 FF       		.byte	0xff
 9080 05e3 01       		.byte	0x1
 9081 05e4 16       		.uleb128 .LLSDACSE1293-.LLSDACSB1293
 9082              	.LLSDACSB1293:
 9083 05e5 8D01     		.uleb128 .LEHB212-.LFB1293
 9084 05e7 05       		.uleb128 .LEHE212-.LEHB212
 9085 05e8 00       		.uleb128 0
 9086 05e9 00       		.uleb128 0
 9087 05ea A601     		.uleb128 .LEHB213-.LFB1293
 9088 05ec C702     		.uleb128 .LEHE213-.LEHB213
 9089 05ee FE03     		.uleb128 .L376-.LFB1293
 9090 05f0 00       		.uleb128 0
 9091 05f1 F703     		.uleb128 .LEHB214-.LFB1293
 9092 05f3 05       		.uleb128 .LEHE214-.LEHB214
 9093 05f4 00       		.uleb128 0
 9094 05f5 00       		.uleb128 0
 9095 05f6 9A04     		.uleb128 .LEHB215-.LFB1293
 9096 05f8 05       		.uleb128 .LEHE215-.LEHB215
 9097 05f9 00       		.uleb128 0
 9098 05fa 00       		.uleb128 0
 9099              	.LLSDACSE1293:
 9100              		.section	.text._ZN8UnitTest15CheckArrayCloseIA3_fS1_fEEvRNS_11TestResultsERKT_RKT0_iRKT1_RKNS_11Te
 9102              		.section	.rodata
 9103              	.LC105:
 9104 0bf4 5B2000   		.string	"[ "
 9105              	.LC106:
 9106 0bf7 5D2000   		.string	"] "
 9107              		.section	.text._ZN8UnitTest17CheckArray2DCloseIA3_A3_fS2_fEEvRNS_11TestResultsERKT_RKT0_iiRKT1_RKN
 9108              		.weak	_ZN8UnitTest17CheckArray2DCloseIA3_A3_fS2_fEEvRNS_11TestResultsERKT_RKT0_iiRKT1_RKNS_11TestD
 9110              	_ZN8UnitTest17CheckArray2DCloseIA3_A3_fS2_fEEvRNS_11TestResultsERKT_RKT0_iiRKT1_RKNS_11TestDetailsE
 9111              	.LFB1294:
 117:../Checks.h   **** 
 118:../Checks.h   **** template< typename Expected, typename Actual, typename Tolerance >
 119:../Checks.h   **** void CheckArray2DClose(TestResults& results, Expected const& expected, Actual const& actual,
 9112              		.loc 6 119 6
 9113              		.cfi_startproc
 9114              		.cfi_personality 0x9b,DW.ref.__gxx_personality_v0
 9115              		.cfi_lsda 0x1b,.LLSDA1294
 9116 0000 F30F1EFA 		endbr64
 9117 0004 55       		pushq	%rbp
 9118              		.cfi_def_cfa_offset 16
 9119              		.cfi_offset 6, -16
 9120 0005 4889E5   		movq	%rsp, %rbp
 9121              		.cfi_def_cfa_register 6
 9122 0008 53       		pushq	%rbx
 9123 0009 4881ECF8 		subq	$504, %rsp
 9123      010000
 9124              		.cfi_offset 3, -24
 9125 0010 4889BD28 		movq	%rdi, -472(%rbp)
 9125      FEFFFF
 9126 0017 4889B520 		movq	%rsi, -480(%rbp)
 9126      FEFFFF
 9127 001e 48899518 		movq	%rdx, -488(%rbp)
 9127      FEFFFF
 9128 0025 898D14FE 		movl	%ecx, -492(%rbp)
 9128      FFFF
 9129 002b 44898510 		movl	%r8d, -496(%rbp)
 9129      FEFFFF
 9130 0032 4C898D08 		movq	%r9, -504(%rbp)
 9130      FEFFFF
 9131 0039 488B4510 		movq	16(%rbp), %rax
 9132 003d 48898500 		movq	%rax, -512(%rbp)
 9132      FEFFFF
 9133              		.loc 6 119 6
 9134 0044 64488B04 		movq	%fs:40, %rax
 9134      25280000 
 9134      00
 9135 004d 488945E8 		movq	%rax, -24(%rbp)
 9136 0051 31C0     		xorl	%eax, %eax
 120:../Checks.h   ****                    int const rows, int const columns, Tolerance const& tolerance, TestDetails const
 121:../Checks.h   **** {
 122:../Checks.h   ****     bool equal = true;
 9137              		.loc 6 122 10
 9138 0053 C6853BFE 		movb	$1, -453(%rbp)
 9138      FFFF01
 9139              	.LBB67:
 123:../Checks.h   ****     for (int i = 0; i < rows; ++i)
 9140              		.loc 6 123 14
 9141 005a C7853CFE 		movl	$0, -452(%rbp)
 9141      FFFF0000 
 9141      0000
 9142              		.loc 6 123 5
 9143 0064 EB77     		jmp	.L379
 9144              	.L380:
 124:../Checks.h   ****         equal &= ArrayAreClose(expected[i], actual[i], columns, tolerance);
 9145              		.loc 6 124 51 discriminator 3
 9146 0066 8B853CFE 		movl	-452(%rbp), %eax
 9146      FFFF
 9147 006c 4863D0   		movslq	%eax, %rdx
 9148 006f 4889D0   		movq	%rdx, %rax
 9149 0072 4801C0   		addq	%rax, %rax
 9150 0075 4801D0   		addq	%rdx, %rax
 9151 0078 48C1E002 		salq	$2, %rax
 9152 007c 488B9518 		movq	-488(%rbp), %rdx
 9152      FEFFFF
 9153 0083 488D3410 		leaq	(%rax,%rdx), %rsi
 9154              		.loc 6 124 40 discriminator 3
 9155 0087 8B853CFE 		movl	-452(%rbp), %eax
 9155      FFFF
 9156 008d 4863D0   		movslq	%eax, %rdx
 9157 0090 4889D0   		movq	%rdx, %rax
 9158 0093 4801C0   		addq	%rax, %rax
 9159 0096 4801D0   		addq	%rdx, %rax
 9160 0099 48C1E002 		salq	$2, %rax
 9161 009d 488B9520 		movq	-480(%rbp), %rdx
 9161      FEFFFF
 9162 00a4 488D3C10 		leaq	(%rax,%rdx), %rdi
 9163              		.loc 6 124 31 discriminator 3
 9164 00a8 488B9508 		movq	-504(%rbp), %rdx
 9164      FEFFFF
 9165 00af 8B8510FE 		movl	-496(%rbp), %eax
 9165      FFFF
 9166 00b5 4889D1   		movq	%rdx, %rcx
 9167 00b8 89C2     		movl	%eax, %edx
 9168 00ba E8000000 		call	_ZN8UnitTest13ArrayAreCloseIA3_fS1_fEEbRKT_RKT0_iRKT1_
 9168      00
 9169              		.loc 6 124 15 discriminator 3
 9170 00bf 0FB6953B 		movzbl	-453(%rbp), %edx
 9170      FEFFFF
 9171 00c6 0FB6C0   		movzbl	%al, %eax
 9172 00c9 21D0     		andl	%edx, %eax
 9173 00cb 85C0     		testl	%eax, %eax
 9174 00cd 0F95C0   		setne	%al
 9175 00d0 88853BFE 		movb	%al, -453(%rbp)
 9175      FFFF
 123:../Checks.h   ****     for (int i = 0; i < rows; ++i)
 9176              		.loc 6 123 5 discriminator 3
 9177 00d6 83853CFE 		addl	$1, -452(%rbp)
 9177      FFFF01
 9178              	.L379:
 123:../Checks.h   ****     for (int i = 0; i < rows; ++i)
 9179              		.loc 6 123 23 discriminator 1
 9180 00dd 8B853CFE 		movl	-452(%rbp), %eax
 9180      FFFF
 9181 00e3 3B8514FE 		cmpl	-492(%rbp), %eax
 9181      FFFF
 9182 00e9 0F8C77FF 		jl	.L380
 9182      FFFF
 9183              	.LBE67:
 9184              	.LBB68:
 125:../Checks.h   **** 
 126:../Checks.h   ****     if (!equal)
 9185              		.loc 6 126 10
 9186 00ef 0FB6853B 		movzbl	-453(%rbp), %eax
 9186      FEFFFF
 9187 00f6 83F001   		xorl	$1, %eax
 9188              		.loc 6 126 5
 9189 00f9 84C0     		testb	%al, %al
 9190 00fb 0F847A02 		je	.L393
 9190      0000
 9191              	.LBB69:
 127:../Checks.h   ****     {
 128:../Checks.h   ****         UnitTest::MemoryOutStream stream;
 9192              		.loc 6 128 35
 9193 0101 488D8550 		leaq	-432(%rbp), %rax
 9193      FEFFFF
 9194 0108 4889C7   		movq	%rax, %rdi
 9195              	.LEHB216:
 9196 010b E8000000 		call	_ZN8UnitTest15MemoryOutStreamC1Ev
 9196      00
 9197              	.LEHE216:
 129:../Checks.h   **** 
 130:../Checks.h   ****         stream << "Expected [ ";    
 9198              		.loc 6 130 16
 9199 0110 488D8550 		leaq	-432(%rbp), %rax
 9199      FEFFFF
 9200 0117 488D1500 		leaq	.LC99(%rip), %rdx
 9200      000000
 9201 011e 4889D6   		movq	%rdx, %rsi
 9202 0121 4889C7   		movq	%rax, %rdi
 9203              	.LEHB217:
 9204 0124 E8000000 		call	_ZStlsISt11char_traitsIcEERSt13basic_ostreamIcT_ES5_PKc@PLT
 9204      00
 9205              	.LBB70:
 131:../Checks.h   **** 
 132:../Checks.h   **** 		for (int expectedRow = 0; expectedRow < rows; ++expectedRow)
 9206              		.loc 6 132 12
 9207 0129 C78540FE 		movl	$0, -448(%rbp)
 9207      FFFF0000 
 9207      0000
 9208              		.loc 6 132 3
 9209 0133 E9AA0000 		jmp	.L382
 9209      00
 9210              	.L385:
 9211              	.LBB71:
 133:../Checks.h   ****         {
 134:../Checks.h   ****             stream << "[ ";
 9212              		.loc 6 134 20
 9213 0138 488D8550 		leaq	-432(%rbp), %rax
 9213      FEFFFF
 9214 013f 488D1500 		leaq	.LC105(%rip), %rdx
 9214      000000
 9215 0146 4889D6   		movq	%rdx, %rsi
 9216 0149 4889C7   		movq	%rax, %rdi
 9217 014c E8000000 		call	_ZStlsISt11char_traitsIcEERSt13basic_ostreamIcT_ES5_PKc@PLT
 9217      00
 9218              	.LBB72:
 135:../Checks.h   ****             for (int expectedColumn = 0; expectedColumn < columns; ++expectedColumn)
 9219              		.loc 6 135 22
 9220 0151 C78544FE 		movl	$0, -444(%rbp)
 9220      FFFF0000 
 9220      0000
 9221              		.loc 6 135 13
 9222 015b EB57     		jmp	.L383
 9223              	.L384:
 136:../Checks.h   ****                 stream << expected[expectedRow][expectedColumn] << " ";
 9224              		.loc 6 136 48
 9225 015d 488B9520 		movq	-480(%rbp), %rdx
 9225      FEFFFF
 9226 0164 8B8544FE 		movl	-444(%rbp), %eax
 9226      FFFF
 9227 016a 4863F0   		movslq	%eax, %rsi
 9228 016d 8B8540FE 		movl	-448(%rbp), %eax
 9228      FFFF
 9229 0173 4863C8   		movslq	%eax, %rcx
 9230 0176 4889C8   		movq	%rcx, %rax
 9231 0179 4801C0   		addq	%rax, %rax
 9232 017c 4801C8   		addq	%rcx, %rax
 9233 017f 4801F0   		addq	%rsi, %rax
 9234 0182 8B1482   		movl	(%rdx,%rax,4), %edx
 9235              		.loc 6 136 24
 9236 0185 488D8550 		leaq	-432(%rbp), %rax
 9236      FEFFFF
 9237 018c 660F6EC2 		movd	%edx, %xmm0
 9238 0190 4889C7   		movq	%rax, %rdi
 9239 0193 E8000000 		call	_ZNSolsEf@PLT
 9239      00
 9240 0198 4889C2   		movq	%rax, %rdx
 9241              		.loc 6 136 65
 9242 019b 488D0500 		leaq	.LC100(%rip), %rax
 9242      000000
 9243 01a2 4889C6   		movq	%rax, %rsi
 9244 01a5 4889D7   		movq	%rdx, %rdi
 9245 01a8 E8000000 		call	_ZStlsISt11char_traitsIcEERSt13basic_ostreamIcT_ES5_PKc@PLT
 9245      00
 135:../Checks.h   ****             for (int expectedColumn = 0; expectedColumn < columns; ++expectedColumn)
 9246              		.loc 6 135 13 discriminator 2
 9247 01ad 838544FE 		addl	$1, -444(%rbp)
 9247      FFFF01
 9248              	.L383:
 135:../Checks.h   ****             for (int expectedColumn = 0; expectedColumn < columns; ++expectedColumn)
 9249              		.loc 6 135 57 discriminator 1
 9250 01b4 8B8544FE 		movl	-444(%rbp), %eax
 9250      FFFF
 9251 01ba 3B8510FE 		cmpl	-496(%rbp), %eax
 9251      FFFF
 9252 01c0 7C9B     		jl	.L384
 9253              	.LBE72:
 137:../Checks.h   ****             stream << "] ";
 9254              		.loc 6 137 20
 9255 01c2 488D8550 		leaq	-432(%rbp), %rax
 9255      FEFFFF
 9256 01c9 488D1500 		leaq	.LC106(%rip), %rdx
 9256      000000
 9257 01d0 4889D6   		movq	%rdx, %rsi
 9258 01d3 4889C7   		movq	%rax, %rdi
 9259 01d6 E8000000 		call	_ZStlsISt11char_traitsIcEERSt13basic_ostreamIcT_ES5_PKc@PLT
 9259      00
 9260              	.LBE71:
 132:../Checks.h   ****         {
 9261              		.loc 6 132 3 discriminator 2
 9262 01db 838540FE 		addl	$1, -448(%rbp)
 9262      FFFF01
 9263              	.L382:
 132:../Checks.h   ****         {
 9264              		.loc 6 132 41 discriminator 1
 9265 01e2 8B8540FE 		movl	-448(%rbp), %eax
 9265      FFFF
 9266 01e8 3B8514FE 		cmpl	-492(%rbp), %eax
 9266      FFFF
 9267 01ee 0F8C44FF 		jl	.L385
 9267      FFFF
 9268              	.LBE70:
 138:../Checks.h   ****         }
 139:../Checks.h   **** 
 140:../Checks.h   **** 		stream << "] +/- " << tolerance << " but was [ ";
 9269              		.loc 6 140 10
 9270 01f4 488D8550 		leaq	-432(%rbp), %rax
 9270      FEFFFF
 9271 01fb 488D1500 		leaq	.LC103(%rip), %rdx
 9271      000000
 9272 0202 4889D6   		movq	%rdx, %rsi
 9273 0205 4889C7   		movq	%rax, %rdi
 9274 0208 E8000000 		call	_ZStlsISt11char_traitsIcEERSt13basic_ostreamIcT_ES5_PKc@PLT
 9274      00
 9275 020d 4889C2   		movq	%rax, %rdx
 9276              		.loc 6 140 22
 9277 0210 488B8508 		movq	-504(%rbp), %rax
 9277      FEFFFF
 9278 0217 8B00     		movl	(%rax), %eax
 9279 0219 660F6EC0 		movd	%eax, %xmm0
 9280 021d 4889D7   		movq	%rdx, %rdi
 9281 0220 E8000000 		call	_ZNSolsEf@PLT
 9281      00
 9282              		.loc 6 140 22 is_stmt 0 discriminator 1
 9283 0225 4889C2   		movq	%rax, %rdx
 9284              		.loc 6 140 35 is_stmt 1 discriminator 1
 9285 0228 488D0500 		leaq	.LC104(%rip), %rax
 9285      000000
 9286 022f 4889C6   		movq	%rax, %rsi
 9287 0232 4889D7   		movq	%rdx, %rdi
 9288 0235 E8000000 		call	_ZStlsISt11char_traitsIcEERSt13basic_ostreamIcT_ES5_PKc@PLT
 9288      00
 9289              	.LBB73:
 141:../Checks.h   **** 
 142:../Checks.h   **** 		for (int actualRow = 0; actualRow < rows; ++actualRow)
 9290              		.loc 6 142 12
 9291 023a C78548FE 		movl	$0, -440(%rbp)
 9291      FFFF0000 
 9291      0000
 9292              		.loc 6 142 3
 9293 0244 E9AA0000 		jmp	.L386
 9293      00
 9294              	.L389:
 9295              	.LBB74:
 143:../Checks.h   ****         {
 144:../Checks.h   ****             stream << "[ ";
 9296              		.loc 6 144 20
 9297 0249 488D8550 		leaq	-432(%rbp), %rax
 9297      FEFFFF
 9298 0250 488D1500 		leaq	.LC105(%rip), %rdx
 9298      000000
 9299 0257 4889D6   		movq	%rdx, %rsi
 9300 025a 4889C7   		movq	%rax, %rdi
 9301 025d E8000000 		call	_ZStlsISt11char_traitsIcEERSt13basic_ostreamIcT_ES5_PKc@PLT
 9301      00
 9302              	.LBB75:
 145:../Checks.h   ****             for (int actualColumn = 0; actualColumn < columns; ++actualColumn)
 9303              		.loc 6 145 22
 9304 0262 C7854CFE 		movl	$0, -436(%rbp)
 9304      FFFF0000 
 9304      0000
 9305              		.loc 6 145 13
 9306 026c EB57     		jmp	.L387
 9307              	.L388:
 146:../Checks.h   ****                 stream << actual[actualRow][actualColumn] << " ";
 9308              		.loc 6 146 44
 9309 026e 488B9518 		movq	-488(%rbp), %rdx
 9309      FEFFFF
 9310 0275 8B854CFE 		movl	-436(%rbp), %eax
 9310      FFFF
 9311 027b 4863F0   		movslq	%eax, %rsi
 9312 027e 8B8548FE 		movl	-440(%rbp), %eax
 9312      FFFF
 9313 0284 4863C8   		movslq	%eax, %rcx
 9314 0287 4889C8   		movq	%rcx, %rax
 9315 028a 4801C0   		addq	%rax, %rax
 9316 028d 4801C8   		addq	%rcx, %rax
 9317 0290 4801F0   		addq	%rsi, %rax
 9318 0293 8B1482   		movl	(%rdx,%rax,4), %edx
 9319              		.loc 6 146 24
 9320 0296 488D8550 		leaq	-432(%rbp), %rax
 9320      FEFFFF
 9321 029d 660F6EC2 		movd	%edx, %xmm0
 9322 02a1 4889C7   		movq	%rax, %rdi
 9323 02a4 E8000000 		call	_ZNSolsEf@PLT
 9323      00
 9324 02a9 4889C2   		movq	%rax, %rdx
 9325              		.loc 6 146 59
 9326 02ac 488D0500 		leaq	.LC100(%rip), %rax
 9326      000000
 9327 02b3 4889C6   		movq	%rax, %rsi
 9328 02b6 4889D7   		movq	%rdx, %rdi
 9329 02b9 E8000000 		call	_ZStlsISt11char_traitsIcEERSt13basic_ostreamIcT_ES5_PKc@PLT
 9329      00
 145:../Checks.h   ****             for (int actualColumn = 0; actualColumn < columns; ++actualColumn)
 9330              		.loc 6 145 13 discriminator 2
 9331 02be 83854CFE 		addl	$1, -436(%rbp)
 9331      FFFF01
 9332              	.L387:
 145:../Checks.h   ****             for (int actualColumn = 0; actualColumn < columns; ++actualColumn)
 9333              		.loc 6 145 53 discriminator 1
 9334 02c5 8B854CFE 		movl	-436(%rbp), %eax
 9334      FFFF
 9335 02cb 3B8510FE 		cmpl	-496(%rbp), %eax
 9335      FFFF
 9336 02d1 7C9B     		jl	.L388
 9337              	.LBE75:
 147:../Checks.h   ****             stream << "] ";
 9338              		.loc 6 147 20
 9339 02d3 488D8550 		leaq	-432(%rbp), %rax
 9339      FEFFFF
 9340 02da 488D1500 		leaq	.LC106(%rip), %rdx
 9340      000000
 9341 02e1 4889D6   		movq	%rdx, %rsi
 9342 02e4 4889C7   		movq	%rax, %rdi
 9343 02e7 E8000000 		call	_ZStlsISt11char_traitsIcEERSt13basic_ostreamIcT_ES5_PKc@PLT
 9343      00
 9344              	.LBE74:
 142:../Checks.h   ****         {
 9345              		.loc 6 142 3 discriminator 2
 9346 02ec 838548FE 		addl	$1, -440(%rbp)
 9346      FFFF01
 9347              	.L386:
 142:../Checks.h   ****         {
 9348              		.loc 6 142 37 discriminator 1
 9349 02f3 8B8548FE 		movl	-440(%rbp), %eax
 9349      FFFF
 9350 02f9 3B8514FE 		cmpl	-492(%rbp), %eax
 9350      FFFF
 9351 02ff 0F8C44FF 		jl	.L389
 9351      FFFF
 9352              	.LBE73:
 148:../Checks.h   ****         }
 149:../Checks.h   **** 
 150:../Checks.h   **** 		stream << "]";
 9353              		.loc 6 150 10
 9354 0305 488D8550 		leaq	-432(%rbp), %rax
 9354      FEFFFF
 9355 030c 488D1500 		leaq	.LC102(%rip), %rdx
 9355      000000
 9356 0313 4889D6   		movq	%rdx, %rsi
 9357 0316 4889C7   		movq	%rax, %rdi
 9358 0319 E8000000 		call	_ZStlsISt11char_traitsIcEERSt13basic_ostreamIcT_ES5_PKc@PLT
 9358      00
 151:../Checks.h   **** 
 152:../Checks.h   ****         results.OnTestFailure(details, stream.GetText());
 9359              		.loc 6 152 30
 9360 031e 488D8550 		leaq	-432(%rbp), %rax
 9360      FEFFFF
 9361 0325 4889C7   		movq	%rax, %rdi
 9362 0328 E8000000 		call	_ZNK8UnitTest15MemoryOutStream7GetTextEv@PLT
 9362      00
 9363 032d 4889C2   		movq	%rax, %rdx
 9364 0330 488B8D00 		movq	-512(%rbp), %rcx
 9364      FEFFFF
 9365 0337 488B8528 		movq	-472(%rbp), %rax
 9365      FEFFFF
 9366 033e 4889CE   		movq	%rcx, %rsi
 9367 0341 4889C7   		movq	%rax, %rdi
 9368 0344 E8000000 		call	_ZN8UnitTest11TestResults13OnTestFailureERKNS_11TestDetailsEPKc@PLT
 9368      00
 9369              	.LEHE217:
 153:../Checks.h   ****     }
 9370              		.loc 6 153 5
 9371 0349 488D8550 		leaq	-432(%rbp), %rax
 9371      FEFFFF
 9372 0350 4889C7   		movq	%rax, %rdi
 9373              	.LEHB218:
 9374 0353 E8000000 		call	_ZN8UnitTest15MemoryOutStreamD1Ev
 9374      00
 9375              	.LEHE218:
 9376              	.LBE69:
 9377              	.LBE68:
 154:../Checks.h   **** }
 9378              		.loc 6 154 1
 9379 0358 EB21     		jmp	.L393
 9380              	.L392:
 9381 035a F30F1EFA 		endbr64
 9382              	.LBB77:
 9383              	.LBB76:
 153:../Checks.h   ****     }
 9384              		.loc 6 153 5
 9385 035e 4889C3   		movq	%rax, %rbx
 9386 0361 488D8550 		leaq	-432(%rbp), %rax
 9386      FEFFFF
 9387 0368 4889C7   		movq	%rax, %rdi
 9388 036b E8000000 		call	_ZN8UnitTest15MemoryOutStreamD1Ev
 9388      00
 9389 0370 4889D8   		movq	%rbx, %rax
 9390 0373 4889C7   		movq	%rax, %rdi
 9391              	.LEHB219:
 9392 0376 E8000000 		call	_Unwind_Resume@PLT
 9392      00
 9393              	.LEHE219:
 9394              	.L393:
 9395              	.LBE76:
 9396              	.LBE77:
 9397              		.loc 6 154 1
 9398 037b 90       		nop
 9399 037c 488B45E8 		movq	-24(%rbp), %rax
 9400 0380 64482B04 		subq	%fs:40, %rax
 9400      25280000 
 9400      00
 9401 0389 7405     		je	.L391
 9402 038b E8000000 		call	__stack_chk_fail@PLT
 9402      00
 9403              	.L391:
 9404 0390 488B5DF8 		movq	-8(%rbp), %rbx
 9405 0394 C9       		leave
 9406              		.cfi_def_cfa 7, 8
 9407 0395 C3       		ret
 9408              		.cfi_endproc
 9409              	.LFE1294:
 9410              		.section	.gcc_except_table
 9411              	.LLSDA1294:
 9412 05fb FF       		.byte	0xff
 9413 05fc FF       		.byte	0xff
 9414 05fd 01       		.byte	0x1
 9415 05fe 16       		.uleb128 .LLSDACSE1294-.LLSDACSB1294
 9416              	.LLSDACSB1294:
 9417 05ff 8B02     		.uleb128 .LEHB216-.LFB1294
 9418 0601 05       		.uleb128 .LEHE216-.LEHB216
 9419 0602 00       		.uleb128 0
 9420 0603 00       		.uleb128 0
 9421 0604 A402     		.uleb128 .LEHB217-.LFB1294
 9422 0606 A504     		.uleb128 .LEHE217-.LEHB217
 9423 0608 DA06     		.uleb128 .L392-.LFB1294
 9424 060a 00       		.uleb128 0
 9425 060b D306     		.uleb128 .LEHB218-.LFB1294
 9426 060d 05       		.uleb128 .LEHE218-.LEHB218
 9427 060e 00       		.uleb128 0
 9428 060f 00       		.uleb128 0
 9429 0610 F606     		.uleb128 .LEHB219-.LFB1294
 9430 0612 05       		.uleb128 .LEHE219-.LEHB219
 9431 0613 00       		.uleb128 0
 9432 0614 00       		.uleb128 0
 9433              	.LLSDACSE1294:
 9434              		.section	.text._ZN8UnitTest17CheckArray2DCloseIA3_A3_fS2_fEEvRNS_11TestResultsERKT_RKT0_iiRKT1_RKN
 9436              		.section	.text._ZN8UnitTest10CheckCloseIdddEEvRNS_11TestResultsERKT_RKT0_RKT1_RKNS_11TestDetailsE,
 9437              		.weak	_ZN8UnitTest10CheckCloseIdddEEvRNS_11TestResultsERKT_RKT0_RKT1_RKNS_11TestDetailsE
 9439              	_ZN8UnitTest10CheckCloseIdddEEvRNS_11TestResultsERKT_RKT0_RKT1_RKNS_11TestDetailsE:
 9440              	.LFB1295:
  45:../Checks.h   ****                 TestDetails const& details)
 9441              		.loc 6 45 6
 9442              		.cfi_startproc
 9443              		.cfi_personality 0x9b,DW.ref.__gxx_personality_v0
 9444              		.cfi_lsda 0x1b,.LLSDA1295
 9445 0000 F30F1EFA 		endbr64
 9446 0004 55       		pushq	%rbp
 9447              		.cfi_def_cfa_offset 16
 9448              		.cfi_offset 6, -16
 9449 0005 4889E5   		movq	%rsp, %rbp
 9450              		.cfi_def_cfa_register 6
 9451 0008 53       		pushq	%rbx
 9452 0009 4881ECD8 		subq	$472, %rsp
 9452      010000
 9453              		.cfi_offset 3, -24
 9454 0010 4889BD48 		movq	%rdi, -440(%rbp)
 9454      FEFFFF
 9455 0017 4889B540 		movq	%rsi, -448(%rbp)
 9455      FEFFFF
 9456 001e 48899538 		movq	%rdx, -456(%rbp)
 9456      FEFFFF
 9457 0025 48898D30 		movq	%rcx, -464(%rbp)
 9457      FEFFFF
 9458 002c 4C898528 		movq	%r8, -472(%rbp)
 9458      FEFFFF
  45:../Checks.h   ****                 TestDetails const& details)
 9459              		.loc 6 45 6
 9460 0033 64488B04 		movq	%fs:40, %rax
 9460      25280000 
 9460      00
 9461 003c 488945E8 		movq	%rax, -24(%rbp)
 9462 0040 31C0     		xorl	%eax, %eax
 9463              	.LBB78:
  48:../Checks.h   ****     { 
 9464              		.loc 6 48 18
 9465 0042 488B9530 		movq	-464(%rbp), %rdx
 9465      FEFFFF
 9466 0049 488B8D38 		movq	-456(%rbp), %rcx
 9466      FEFFFF
 9467 0050 488B8540 		movq	-448(%rbp), %rax
 9467      FEFFFF
 9468 0057 4889CE   		movq	%rcx, %rsi
 9469 005a 4889C7   		movq	%rax, %rdi
 9470 005d E8000000 		call	_ZN8UnitTest8AreCloseIdddEEbRKT_RKT0_RKT1_
 9470      00
 9471 0062 83F001   		xorl	$1, %eax
  48:../Checks.h   ****     { 
 9472              		.loc 6 48 5
 9473 0065 84C0     		testb	%al, %al
 9474 0067 0F84FD00 		je	.L399
 9474      0000
 9475              	.LBB79:
  50:../Checks.h   ****         stream << "Expected " << expected << " +/- " << tolerance << " but was " << actual;
 9476              		.loc 6 50 35
 9477 006d 488D8550 		leaq	-432(%rbp), %rax
 9477      FEFFFF
 9478 0074 4889C7   		movq	%rax, %rdi
 9479              	.LEHB220:
 9480 0077 E8000000 		call	_ZN8UnitTest15MemoryOutStreamC1Ev
 9480      00
 9481              	.LEHE220:
  51:../Checks.h   **** 
 9482              		.loc 6 51 16
 9483 007c 488D8550 		leaq	-432(%rbp), %rax
 9483      FEFFFF
 9484 0083 488D1500 		leaq	.LC96(%rip), %rdx
 9484      000000
 9485 008a 4889D6   		movq	%rdx, %rsi
 9486 008d 4889C7   		movq	%rax, %rdi
 9487              	.LEHB221:
 9488 0090 E8000000 		call	_ZStlsISt11char_traitsIcEERSt13basic_ostreamIcT_ES5_PKc@PLT
 9488      00
 9489 0095 4889C2   		movq	%rax, %rdx
  51:../Checks.h   **** 
 9490              		.loc 6 51 31
 9491 0098 488B8540 		movq	-448(%rbp), %rax
 9491      FEFFFF
 9492 009f 488B00   		movq	(%rax), %rax
 9493 00a2 66480F6E 		movq	%rax, %xmm0
 9493      C0
 9494 00a7 4889D7   		movq	%rdx, %rdi
 9495 00aa E8000000 		call	_ZNSolsEd@PLT
 9495      00
  51:../Checks.h   **** 
 9496              		.loc 6 51 31 is_stmt 0 discriminator 1
 9497 00af 4889C2   		movq	%rax, %rdx
  51:../Checks.h   **** 
 9498              		.loc 6 51 43 is_stmt 1 discriminator 1
 9499 00b2 488D0500 		leaq	.LC98(%rip), %rax
 9499      000000
 9500 00b9 4889C6   		movq	%rax, %rsi
 9501 00bc 4889D7   		movq	%rdx, %rdi
 9502 00bf E8000000 		call	_ZStlsISt11char_traitsIcEERSt13basic_ostreamIcT_ES5_PKc@PLT
 9502      00
  51:../Checks.h   **** 
 9503              		.loc 6 51 43 is_stmt 0 discriminator 2
 9504 00c4 4889C2   		movq	%rax, %rdx
  51:../Checks.h   **** 
 9505              		.loc 6 51 54 is_stmt 1 discriminator 2
 9506 00c7 488B8530 		movq	-464(%rbp), %rax
 9506      FEFFFF
 9507 00ce 488B00   		movq	(%rax), %rax
 9508 00d1 66480F6E 		movq	%rax, %xmm0
 9508      C0
 9509 00d6 4889D7   		movq	%rdx, %rdi
 9510 00d9 E8000000 		call	_ZNSolsEd@PLT
 9510      00
  51:../Checks.h   **** 
 9511              		.loc 6 51 54 is_stmt 0 discriminator 3
 9512 00de 4889C2   		movq	%rax, %rdx
  51:../Checks.h   **** 
 9513              		.loc 6 51 67 is_stmt 1 discriminator 3
 9514 00e1 488D0500 		leaq	.LC97(%rip), %rax
 9514      000000
 9515 00e8 4889C6   		movq	%rax, %rsi
 9516 00eb 4889D7   		movq	%rdx, %rdi
 9517 00ee E8000000 		call	_ZStlsISt11char_traitsIcEERSt13basic_ostreamIcT_ES5_PKc@PLT
 9517      00
  51:../Checks.h   **** 
 9518              		.loc 6 51 67 is_stmt 0 discriminator 4
 9519 00f3 4889C2   		movq	%rax, %rdx
  51:../Checks.h   **** 
 9520              		.loc 6 51 82 is_stmt 1 discriminator 4
 9521 00f6 488B8538 		movq	-456(%rbp), %rax
 9521      FEFFFF
 9522 00fd 488B00   		movq	(%rax), %rax
 9523 0100 66480F6E 		movq	%rax, %xmm0
 9523      C0
 9524 0105 4889D7   		movq	%rdx, %rdi
 9525 0108 E8000000 		call	_ZNSolsEd@PLT
 9525      00
  53:../Checks.h   ****     }
 9526              		.loc 6 53 30
 9527 010d 488D8550 		leaq	-432(%rbp), %rax
 9527      FEFFFF
 9528 0114 4889C7   		movq	%rax, %rdi
 9529 0117 E8000000 		call	_ZNK8UnitTest15MemoryOutStream7GetTextEv@PLT
 9529      00
 9530 011c 4889C2   		movq	%rax, %rdx
 9531 011f 488B8D28 		movq	-472(%rbp), %rcx
 9531      FEFFFF
 9532 0126 488B8548 		movq	-440(%rbp), %rax
 9532      FEFFFF
 9533 012d 4889CE   		movq	%rcx, %rsi
 9534 0130 4889C7   		movq	%rax, %rdi
 9535 0133 E8000000 		call	_ZN8UnitTest11TestResults13OnTestFailureERKNS_11TestDetailsEPKc@PLT
 9535      00
 9536              	.LEHE221:
  54:../Checks.h   **** }
 9537              		.loc 6 54 5
 9538 0138 488D8550 		leaq	-432(%rbp), %rax
 9538      FEFFFF
 9539 013f 4889C7   		movq	%rax, %rdi
 9540              	.LEHB222:
 9541 0142 E8000000 		call	_ZN8UnitTest15MemoryOutStreamD1Ev
 9541      00
 9542              	.LEHE222:
 9543              	.LBE79:
 9544              	.LBE78:
  55:../Checks.h   **** 
 9545              		.loc 6 55 1
 9546 0147 EB21     		jmp	.L399
 9547              	.L398:
 9548 0149 F30F1EFA 		endbr64
 9549              	.LBB81:
 9550              	.LBB80:
  54:../Checks.h   **** }
 9551              		.loc 6 54 5
 9552 014d 4889C3   		movq	%rax, %rbx
 9553 0150 488D8550 		leaq	-432(%rbp), %rax
 9553      FEFFFF
 9554 0157 4889C7   		movq	%rax, %rdi
 9555 015a E8000000 		call	_ZN8UnitTest15MemoryOutStreamD1Ev
 9555      00
 9556 015f 4889D8   		movq	%rbx, %rax
 9557 0162 4889C7   		movq	%rax, %rdi
 9558              	.LEHB223:
 9559 0165 E8000000 		call	_Unwind_Resume@PLT
 9559      00
 9560              	.LEHE223:
 9561              	.L399:
 9562              	.LBE80:
 9563              	.LBE81:
  55:../Checks.h   **** 
 9564              		.loc 6 55 1
 9565 016a 90       		nop
 9566 016b 488B45E8 		movq	-24(%rbp), %rax
 9567 016f 64482B04 		subq	%fs:40, %rax
 9567      25280000 
 9567      00
 9568 0178 7405     		je	.L397
 9569 017a E8000000 		call	__stack_chk_fail@PLT
 9569      00
 9570              	.L397:
 9571 017f 488B5DF8 		movq	-8(%rbp), %rbx
 9572 0183 C9       		leave
 9573              		.cfi_def_cfa 7, 8
 9574 0184 C3       		ret
 9575              		.cfi_endproc
 9576              	.LFE1295:
 9577              		.section	.gcc_except_table
 9578              	.LLSDA1295:
 9579 0615 FF       		.byte	0xff
 9580 0616 FF       		.byte	0xff
 9581 0617 01       		.byte	0x1
 9582 0618 15       		.uleb128 .LLSDACSE1295-.LLSDACSB1295
 9583              	.LLSDACSB1295:
 9584 0619 77       		.uleb128 .LEHB220-.LFB1295
 9585 061a 05       		.uleb128 .LEHE220-.LEHB220
 9586 061b 00       		.uleb128 0
 9587 061c 00       		.uleb128 0
 9588 061d 9001     		.uleb128 .LEHB221-.LFB1295
 9589 061f A801     		.uleb128 .LEHE221-.LEHB221
 9590 0621 C902     		.uleb128 .L398-.LFB1295
 9591 0623 00       		.uleb128 0
 9592 0624 C202     		.uleb128 .LEHB222-.LFB1295
 9593 0626 05       		.uleb128 .LEHE222-.LEHB222
 9594 0627 00       		.uleb128 0
 9595 0628 00       		.uleb128 0
 9596 0629 E502     		.uleb128 .LEHB223-.LFB1295
 9597 062b 05       		.uleb128 .LEHE223-.LEHB223
 9598 062c 00       		.uleb128 0
 9599 062d 00       		.uleb128 0
 9600              	.LLSDACSE1295:
 9601              		.section	.text._ZN8UnitTest10CheckCloseIdddEEvRNS_11TestResultsERKT_RKT0_RKT1_RKNS_11TestDetailsE,
 9603              		.section	.text._ZN8UnitTest8AreCloseIfffEEbRKT_RKT0_RKT1_,"axG",@progbits,_ZN8UnitTest8AreCloseIff
 9604              		.weak	_ZN8UnitTest8AreCloseIfffEEbRKT_RKT0_RKT1_
 9606              	_ZN8UnitTest8AreCloseIfffEEbRKT_RKT0_RKT1_:
 9607              	.LFB1324:
  39:../Checks.h   **** {
 9608              		.loc 6 39 6
 9609              		.cfi_startproc
 9610 0000 F30F1EFA 		endbr64
 9611 0004 55       		pushq	%rbp
 9612              		.cfi_def_cfa_offset 16
 9613              		.cfi_offset 6, -16
 9614 0005 4889E5   		movq	%rsp, %rbp
 9615              		.cfi_def_cfa_register 6
 9616 0008 48897DF8 		movq	%rdi, -8(%rbp)
 9617 000c 488975F0 		movq	%rsi, -16(%rbp)
 9618 0010 488955E8 		movq	%rdx, -24(%rbp)
  41:../Checks.h   **** }
 9619              		.loc 6 41 20
 9620 0014 488B45F0 		movq	-16(%rbp), %rax
 9621 0018 F30F1000 		movss	(%rax), %xmm0
  41:../Checks.h   **** }
 9622              		.loc 6 41 33
 9623 001c 488B45F8 		movq	-8(%rbp), %rax
 9624 0020 F30F1008 		movss	(%rax), %xmm1
 9625 0024 488B45E8 		movq	-24(%rbp), %rax
 9626 0028 F30F1010 		movss	(%rax), %xmm2
 9627 002c F30F5CCA 		subss	%xmm2, %xmm1
  41:../Checks.h   **** }
 9628              		.loc 6 41 47
 9629 0030 0F2FC1   		comiss	%xmm1, %xmm0
 9630 0033 7228     		jb	.L401
  41:../Checks.h   **** }
 9631              		.loc 6 41 58 discriminator 1
 9632 0035 488B45F0 		movq	-16(%rbp), %rax
 9633 0039 F30F1008 		movss	(%rax), %xmm1
  41:../Checks.h   **** }
 9634              		.loc 6 41 71 discriminator 1
 9635 003d 488B45F8 		movq	-8(%rbp), %rax
 9636 0041 F30F1010 		movss	(%rax), %xmm2
 9637 0045 488B45E8 		movq	-24(%rbp), %rax
 9638 0049 F30F1000 		movss	(%rax), %xmm0
 9639 004d F30F58C2 		addss	%xmm2, %xmm0
  41:../Checks.h   **** }
 9640              		.loc 6 41 47 discriminator 1
 9641 0051 0F2FC1   		comiss	%xmm1, %xmm0
 9642 0054 7207     		jb	.L401
  41:../Checks.h   **** }
 9643              		.loc 6 41 47 is_stmt 0 discriminator 3
 9644 0056 B8010000 		movl	$1, %eax
 9644      00
 9645 005b EB05     		jmp	.L404
 9646              	.L401:
  41:../Checks.h   **** }
 9647              		.loc 6 41 47 discriminator 4
 9648 005d B8000000 		movl	$0, %eax
 9648      00
 9649              	.L404:
  42:../Checks.h   **** 
 9650              		.loc 6 42 1 is_stmt 1 discriminator 6
 9651 0062 5D       		popq	%rbp
 9652              		.cfi_def_cfa 7, 8
 9653 0063 C3       		ret
 9654              		.cfi_endproc
 9655              	.LFE1324:
 9657              		.section	.text._ZN8UnitTest8AreCloseIffiEEbRKT_RKT0_RKT1_,"axG",@progbits,_ZN8UnitTest8AreCloseIff
 9658              		.weak	_ZN8UnitTest8AreCloseIffiEEbRKT_RKT0_RKT1_
 9660              	_ZN8UnitTest8AreCloseIffiEEbRKT_RKT0_RKT1_:
 9661              	.LFB1326:
  39:../Checks.h   **** {
 9662              		.loc 6 39 6
 9663              		.cfi_startproc
 9664 0000 F30F1EFA 		endbr64
 9665 0004 55       		pushq	%rbp
 9666              		.cfi_def_cfa_offset 16
 9667              		.cfi_offset 6, -16
 9668 0005 4889E5   		movq	%rsp, %rbp
 9669              		.cfi_def_cfa_register 6
 9670 0008 48897DF8 		movq	%rdi, -8(%rbp)
 9671 000c 488975F0 		movq	%rsi, -16(%rbp)
 9672 0010 488955E8 		movq	%rdx, -24(%rbp)
  41:../Checks.h   **** }
 9673              		.loc 6 41 20
 9674 0014 488B45F0 		movq	-16(%rbp), %rax
 9675 0018 F30F1000 		movss	(%rax), %xmm0
  41:../Checks.h   **** }
 9676              		.loc 6 41 33
 9677 001c 488B45F8 		movq	-8(%rbp), %rax
 9678 0020 F30F1008 		movss	(%rax), %xmm1
 9679 0024 488B45E8 		movq	-24(%rbp), %rax
 9680 0028 8B00     		movl	(%rax), %eax
 9681 002a 660FEFD2 		pxor	%xmm2, %xmm2
 9682 002e F30F2AD0 		cvtsi2ssl	%eax, %xmm2
 9683 0032 F30F5CCA 		subss	%xmm2, %xmm1
  41:../Checks.h   **** }
 9684              		.loc 6 41 47
 9685 0036 0F2FC1   		comiss	%xmm1, %xmm0
 9686 0039 722E     		jb	.L409
  41:../Checks.h   **** }
 9687              		.loc 6 41 58 discriminator 1
 9688 003b 488B45F0 		movq	-16(%rbp), %rax
 9689 003f F30F1008 		movss	(%rax), %xmm1
  41:../Checks.h   **** }
 9690              		.loc 6 41 71 discriminator 1
 9691 0043 488B45F8 		movq	-8(%rbp), %rax
 9692 0047 F30F1010 		movss	(%rax), %xmm2
 9693 004b 488B45E8 		movq	-24(%rbp), %rax
 9694 004f 8B00     		movl	(%rax), %eax
 9695 0051 660FEFC0 		pxor	%xmm0, %xmm0
 9696 0055 F30F2AC0 		cvtsi2ssl	%eax, %xmm0
 9697 0059 F30F58C2 		addss	%xmm2, %xmm0
  41:../Checks.h   **** }
 9698              		.loc 6 41 47 discriminator 1
 9699 005d 0F2FC1   		comiss	%xmm1, %xmm0
 9700 0060 7207     		jb	.L409
  41:../Checks.h   **** }
 9701              		.loc 6 41 47 is_stmt 0 discriminator 3
 9702 0062 B8010000 		movl	$1, %eax
 9702      00
 9703 0067 EB05     		jmp	.L412
 9704              	.L409:
  41:../Checks.h   **** }
 9705              		.loc 6 41 47 discriminator 4
 9706 0069 B8000000 		movl	$0, %eax
 9706      00
 9707              	.L412:
  42:../Checks.h   **** 
 9708              		.loc 6 42 1 is_stmt 1 discriminator 6
 9709 006e 5D       		popq	%rbp
 9710              		.cfi_def_cfa 7, 8
 9711 006f C3       		ret
 9712              		.cfi_endproc
 9713              	.LFE1326:
 9715              		.section	.text._ZN8UnitTest8AreCloseIiifEEbRKT_RKT0_RKT1_,"axG",@progbits,_ZN8UnitTest8AreCloseIii
 9716              		.weak	_ZN8UnitTest8AreCloseIiifEEbRKT_RKT0_RKT1_
 9718              	_ZN8UnitTest8AreCloseIiifEEbRKT_RKT0_RKT1_:
 9719              	.LFB1327:
  39:../Checks.h   **** {
 9720              		.loc 6 39 6
 9721              		.cfi_startproc
 9722 0000 F30F1EFA 		endbr64
 9723 0004 55       		pushq	%rbp
 9724              		.cfi_def_cfa_offset 16
 9725              		.cfi_offset 6, -16
 9726 0005 4889E5   		movq	%rsp, %rbp
 9727              		.cfi_def_cfa_register 6
 9728 0008 48897DF8 		movq	%rdi, -8(%rbp)
 9729 000c 488975F0 		movq	%rsi, -16(%rbp)
 9730 0010 488955E8 		movq	%rdx, -24(%rbp)
  41:../Checks.h   **** }
 9731              		.loc 6 41 20
 9732 0014 488B45F0 		movq	-16(%rbp), %rax
 9733 0018 8B00     		movl	(%rax), %eax
 9734 001a 660FEFC0 		pxor	%xmm0, %xmm0
 9735 001e F30F2AC0 		cvtsi2ssl	%eax, %xmm0
  41:../Checks.h   **** }
 9736              		.loc 6 41 33
 9737 0022 488B45F8 		movq	-8(%rbp), %rax
 9738 0026 8B00     		movl	(%rax), %eax
 9739 0028 660FEFC9 		pxor	%xmm1, %xmm1
 9740 002c F30F2AC8 		cvtsi2ssl	%eax, %xmm1
 9741 0030 488B45E8 		movq	-24(%rbp), %rax
 9742 0034 F30F1010 		movss	(%rax), %xmm2
 9743 0038 F30F5CCA 		subss	%xmm2, %xmm1
  41:../Checks.h   **** }
 9744              		.loc 6 41 47
 9745 003c 0F2FC1   		comiss	%xmm1, %xmm0
 9746 003f 7234     		jb	.L417
  41:../Checks.h   **** }
 9747              		.loc 6 41 58 discriminator 1
 9748 0041 488B45F0 		movq	-16(%rbp), %rax
 9749 0045 8B00     		movl	(%rax), %eax
 9750 0047 660FEFC9 		pxor	%xmm1, %xmm1
 9751 004b F30F2AC8 		cvtsi2ssl	%eax, %xmm1
  41:../Checks.h   **** }
 9752              		.loc 6 41 71 discriminator 1
 9753 004f 488B45F8 		movq	-8(%rbp), %rax
 9754 0053 8B00     		movl	(%rax), %eax
 9755 0055 660FEFD2 		pxor	%xmm2, %xmm2
 9756 0059 F30F2AD0 		cvtsi2ssl	%eax, %xmm2
 9757 005d 488B45E8 		movq	-24(%rbp), %rax
 9758 0061 F30F1000 		movss	(%rax), %xmm0
 9759 0065 F30F58C2 		addss	%xmm2, %xmm0
  41:../Checks.h   **** }
 9760              		.loc 6 41 47 discriminator 1
 9761 0069 0F2FC1   		comiss	%xmm1, %xmm0
 9762 006c 7207     		jb	.L417
  41:../Checks.h   **** }
 9763              		.loc 6 41 47 is_stmt 0 discriminator 3
 9764 006e B8010000 		movl	$1, %eax
 9764      00
 9765 0073 EB05     		jmp	.L420
 9766              	.L417:
  41:../Checks.h   **** }
 9767              		.loc 6 41 47 discriminator 4
 9768 0075 B8000000 		movl	$0, %eax
 9768      00
 9769              	.L420:
  42:../Checks.h   **** 
 9770              		.loc 6 42 1 is_stmt 1 discriminator 6
 9771 007a 5D       		popq	%rbp
 9772              		.cfi_def_cfa 7, 8
 9773 007b C3       		ret
 9774              		.cfi_endproc
 9775              	.LFE1327:
 9777              		.section	.text._ZN8UnitTest13ArrayAreCloseIA3_fS1_fEEbRKT_RKT0_iRKT1_,"axG",@progbits,_ZN8UnitTest
 9778              		.weak	_ZN8UnitTest13ArrayAreCloseIA3_fS1_fEEbRKT_RKT0_iRKT1_
 9780              	_ZN8UnitTest13ArrayAreCloseIA3_fS1_fEEbRKT_RKT0_iRKT1_:
 9781              	.LFB1328:
  87:../Checks.h   **** {
 9782              		.loc 6 87 6
 9783              		.cfi_startproc
 9784 0000 F30F1EFA 		endbr64
 9785 0004 55       		pushq	%rbp
 9786              		.cfi_def_cfa_offset 16
 9787              		.cfi_offset 6, -16
 9788 0005 4889E5   		movq	%rsp, %rbp
 9789              		.cfi_def_cfa_register 6
 9790 0008 4883EC30 		subq	$48, %rsp
 9791 000c 48897DE8 		movq	%rdi, -24(%rbp)
 9792 0010 488975E0 		movq	%rsi, -32(%rbp)
 9793 0014 8955DC   		movl	%edx, -36(%rbp)
 9794 0017 48894DD0 		movq	%rcx, -48(%rbp)
  89:../Checks.h   ****     for (int i = 0; i < count; ++i)
 9795              		.loc 6 89 10
 9796 001b C645FB01 		movb	$1, -5(%rbp)
 9797              	.LBB82:
  90:../Checks.h   ****         equal &= AreClose(expected[i], actual[i], tolerance);
 9798              		.loc 6 90 14
 9799 001f C745FC00 		movl	$0, -4(%rbp)
 9799      000000
  90:../Checks.h   ****         equal &= AreClose(expected[i], actual[i], tolerance);
 9800              		.loc 6 90 5
 9801 0026 EB4E     		jmp	.L425
 9802              	.L426:
  91:../Checks.h   ****     return equal;
 9803              		.loc 6 91 46 discriminator 3
 9804 0028 8B45FC   		movl	-4(%rbp), %eax
 9805 002b 4898     		cltq
 9806 002d 488D1485 		leaq	0(,%rax,4), %rdx
 9806      00000000 
 9807 0035 488B45E0 		movq	-32(%rbp), %rax
 9808 0039 488D3402 		leaq	(%rdx,%rax), %rsi
  91:../Checks.h   ****     return equal;
 9809              		.loc 6 91 35 discriminator 3
 9810 003d 8B45FC   		movl	-4(%rbp), %eax
 9811 0040 4898     		cltq
 9812 0042 488D1485 		leaq	0(,%rax,4), %rdx
 9812      00000000 
 9813 004a 488B45E8 		movq	-24(%rbp), %rax
 9814 004e 488D0C02 		leaq	(%rdx,%rax), %rcx
  91:../Checks.h   ****     return equal;
 9815              		.loc 6 91 26 discriminator 3
 9816 0052 488B45D0 		movq	-48(%rbp), %rax
 9817 0056 4889C2   		movq	%rax, %rdx
 9818 0059 4889CF   		movq	%rcx, %rdi
 9819 005c E8000000 		call	_ZN8UnitTest8AreCloseIfffEEbRKT_RKT0_RKT1_
 9819      00
  91:../Checks.h   ****     return equal;
 9820              		.loc 6 91 15 discriminator 3
 9821 0061 0FB655FB 		movzbl	-5(%rbp), %edx
 9822 0065 0FB6C0   		movzbl	%al, %eax
 9823 0068 21D0     		andl	%edx, %eax
 9824 006a 85C0     		testl	%eax, %eax
 9825 006c 0F95C0   		setne	%al
 9826 006f 8845FB   		movb	%al, -5(%rbp)
  90:../Checks.h   ****         equal &= AreClose(expected[i], actual[i], tolerance);
 9827              		.loc 6 90 5 discriminator 3
 9828 0072 8345FC01 		addl	$1, -4(%rbp)
 9829              	.L425:
  90:../Checks.h   ****         equal &= AreClose(expected[i], actual[i], tolerance);
 9830              		.loc 6 90 23 discriminator 1
 9831 0076 8B45FC   		movl	-4(%rbp), %eax
 9832 0079 3B45DC   		cmpl	-36(%rbp), %eax
 9833 007c 7CAA     		jl	.L426
 9834              	.LBE82:
  92:../Checks.h   **** }
 9835              		.loc 6 92 12
 9836 007e 0FB645FB 		movzbl	-5(%rbp), %eax
  93:../Checks.h   **** 
 9837              		.loc 6 93 1
 9838 0082 C9       		leave
 9839              		.cfi_def_cfa 7, 8
 9840 0083 C3       		ret
 9841              		.cfi_endproc
 9842              	.LFE1328:
 9844              		.section	.text._ZN8UnitTest8AreCloseIdddEEbRKT_RKT0_RKT1_,"axG",@progbits,_ZN8UnitTest8AreCloseIdd
 9845              		.weak	_ZN8UnitTest8AreCloseIdddEEbRKT_RKT0_RKT1_
 9847              	_ZN8UnitTest8AreCloseIdddEEbRKT_RKT0_RKT1_:
 9848              	.LFB1329:
  39:../Checks.h   **** {
 9849              		.loc 6 39 6
 9850              		.cfi_startproc
 9851 0000 F30F1EFA 		endbr64
 9852 0004 55       		pushq	%rbp
 9853              		.cfi_def_cfa_offset 16
 9854              		.cfi_offset 6, -16
 9855 0005 4889E5   		movq	%rsp, %rbp
 9856              		.cfi_def_cfa_register 6
 9857 0008 48897DF8 		movq	%rdi, -8(%rbp)
 9858 000c 488975F0 		movq	%rsi, -16(%rbp)
 9859 0010 488955E8 		movq	%rdx, -24(%rbp)
  41:../Checks.h   **** }
 9860              		.loc 6 41 20
 9861 0014 488B45F0 		movq	-16(%rbp), %rax
 9862 0018 F20F1000 		movsd	(%rax), %xmm0
  41:../Checks.h   **** }
 9863              		.loc 6 41 33
 9864 001c 488B45F8 		movq	-8(%rbp), %rax
 9865 0020 F20F1008 		movsd	(%rax), %xmm1
 9866 0024 488B45E8 		movq	-24(%rbp), %rax
 9867 0028 F20F1010 		movsd	(%rax), %xmm2
 9868 002c F20F5CCA 		subsd	%xmm2, %xmm1
  41:../Checks.h   **** }
 9869              		.loc 6 41 47
 9870 0030 660F2FC1 		comisd	%xmm1, %xmm0
 9871 0034 7229     		jb	.L429
  41:../Checks.h   **** }
 9872              		.loc 6 41 58 discriminator 1
 9873 0036 488B45F0 		movq	-16(%rbp), %rax
 9874 003a F20F1008 		movsd	(%rax), %xmm1
  41:../Checks.h   **** }
 9875              		.loc 6 41 71 discriminator 1
 9876 003e 488B45F8 		movq	-8(%rbp), %rax
 9877 0042 F20F1010 		movsd	(%rax), %xmm2
 9878 0046 488B45E8 		movq	-24(%rbp), %rax
 9879 004a F20F1000 		movsd	(%rax), %xmm0
 9880 004e F20F58C2 		addsd	%xmm2, %xmm0
  41:../Checks.h   **** }
 9881              		.loc 6 41 47 discriminator 1
 9882 0052 660F2FC1 		comisd	%xmm1, %xmm0
 9883 0056 7207     		jb	.L429
  41:../Checks.h   **** }
 9884              		.loc 6 41 47 is_stmt 0 discriminator 3
 9885 0058 B8010000 		movl	$1, %eax
 9885      00
 9886 005d EB05     		jmp	.L432
 9887              	.L429:
  41:../Checks.h   **** }
 9888              		.loc 6 41 47 discriminator 4
 9889 005f B8000000 		movl	$0, %eax
 9889      00
 9890              	.L432:
  42:../Checks.h   **** 
 9891              		.loc 6 42 1 is_stmt 1 discriminator 6
 9892 0064 5D       		popq	%rbp
 9893              		.cfi_def_cfa 7, 8
 9894 0065 C3       		ret
 9895              		.cfi_endproc
 9896              	.LFE1329:
 9898              		.section	.data.rel.ro.local,"aw"
 9899              		.align 8
 9902              	_ZTVN12_GLOBAL__N_143TestCheckArray2DCloseFailureIncludesDetailsE:
 9903 0000 00000000 		.quad	0
 9903      00000000 
 9904 0008 00000000 		.quad	_ZTIN12_GLOBAL__N_143TestCheckArray2DCloseFailureIncludesDetailsE
 9904      00000000 
 9905 0010 00000000 		.quad	_ZN12_GLOBAL__N_143TestCheckArray2DCloseFailureIncludesDetailsD1Ev
 9905      00000000 
 9906 0018 00000000 		.quad	_ZN12_GLOBAL__N_143TestCheckArray2DCloseFailureIncludesDetailsD0Ev
 9906      00000000 
 9907 0020 00000000 		.quad	_ZNK12_GLOBAL__N_143TestCheckArray2DCloseFailureIncludesDetails7RunImplEv
 9907      00000000 
 9908              		.text
 9909              		.align 2
 9911              	_ZN12_GLOBAL__N_143TestCheckArray2DCloseFailureIncludesDetailsD2Ev:
 9912              	.LFB1357:
 273:TestChecks.cpp **** {
 9913              		.loc 5 273 1
 9914              		.cfi_startproc
 9915 3d9a F30F1EFA 		endbr64
 9916 3d9e 55       		pushq	%rbp
 9917              		.cfi_def_cfa_offset 16
 9918              		.cfi_offset 6, -16
 9919 3d9f 4889E5   		movq	%rsp, %rbp
 9920              		.cfi_def_cfa_register 6
 9921 3da2 4883EC10 		subq	$16, %rsp
 9922 3da6 48897DF8 		movq	%rdi, -8(%rbp)
 9923              	.LBB83:
 273:TestChecks.cpp **** {
 9924              		.loc 5 273 1
 9925 3daa 488D1500 		leaq	16+_ZTVN12_GLOBAL__N_143TestCheckArray2DCloseFailureIncludesDetailsE(%rip), %rdx
 9925      000000
 9926 3db1 488B45F8 		movq	-8(%rbp), %rax
 9927 3db5 488910   		movq	%rdx, (%rax)
 9928 3db8 488B45F8 		movq	-8(%rbp), %rax
 9929 3dbc 4889C7   		movq	%rax, %rdi
 9930 3dbf E8000000 		call	_ZN8UnitTest4TestD2Ev@PLT
 9930      00
 9931              	.LBE83:
 9932 3dc4 90       		nop
 9933 3dc5 C9       		leave
 9934              		.cfi_def_cfa 7, 8
 9935 3dc6 C3       		ret
 9936              		.cfi_endproc
 9937              	.LFE1357:
 9939              		.set	_ZN12_GLOBAL__N_143TestCheckArray2DCloseFailureIncludesDetailsD1Ev,_ZN12_GLOBAL__N_143TestChe
 9940 3dc7 90       		.align 2
 9942              	_ZN12_GLOBAL__N_143TestCheckArray2DCloseFailureIncludesDetailsD0Ev:
 9943              	.LFB1359:
 273:TestChecks.cpp **** {
 9944              		.loc 5 273 1
 9945              		.cfi_startproc
 9946              		.cfi_personality 0x9b,DW.ref.__gxx_personality_v0
 9947              		.cfi_lsda 0x1b,.LLSDA1359
 9948 3dc8 F30F1EFA 		endbr64
 9949 3dcc 55       		pushq	%rbp
 9950              		.cfi_def_cfa_offset 16
 9951              		.cfi_offset 6, -16
 9952 3dcd 4889E5   		movq	%rsp, %rbp
 9953              		.cfi_def_cfa_register 6
 9954 3dd0 53       		pushq	%rbx
 9955 3dd1 4883EC18 		subq	$24, %rsp
 9956              		.cfi_offset 3, -24
 9957 3dd5 48897DE8 		movq	%rdi, -24(%rbp)
 273:TestChecks.cpp **** {
 9958              		.loc 5 273 1
 9959 3dd9 488B45E8 		movq	-24(%rbp), %rax
 9960 3ddd 4889C7   		movq	%rax, %rdi
 9961              	.LEHB224:
 9962 3de0 E8B5FFFF 		call	_ZN12_GLOBAL__N_143TestCheckArray2DCloseFailureIncludesDetailsD1Ev
 9962      FF
 9963              	.LEHE224:
 273:TestChecks.cpp **** {
 9964              		.loc 5 273 1 is_stmt 0 discriminator 2
 9965 3de5 488B45E8 		movq	-24(%rbp), %rax
 9966 3de9 4889C7   		movq	%rax, %rdi
 9967 3dec E8000000 		call	_ZdlPv@PLT
 9967      00
 9968 3df1 EB1E     		jmp	.L440
 9969              	.L439:
 9970 3df3 F30F1EFA 		endbr64
 273:TestChecks.cpp **** {
 9971              		.loc 5 273 1
 9972 3df7 4889C3   		movq	%rax, %rbx
 9973 3dfa 488B45E8 		movq	-24(%rbp), %rax
 9974 3dfe 4889C7   		movq	%rax, %rdi
 9975 3e01 E8000000 		call	_ZdlPv@PLT
 9975      00
 9976 3e06 4889D8   		movq	%rbx, %rax
 9977 3e09 4889C7   		movq	%rax, %rdi
 9978              	.LEHB225:
 9979 3e0c E8000000 		call	_Unwind_Resume@PLT
 9979      00
 9980              	.LEHE225:
 9981              	.L440:
 9982 3e11 488B5DF8 		movq	-8(%rbp), %rbx
 9983 3e15 C9       		leave
 9984              		.cfi_def_cfa 7, 8
 9985 3e16 C3       		ret
 9986              		.cfi_endproc
 9987              	.LFE1359:
 9988              		.section	.gcc_except_table
 9989              	.LLSDA1359:
 9990 062e FF       		.byte	0xff
 9991 062f FF       		.byte	0xff
 9992 0630 01       		.byte	0x1
 9993 0631 08       		.uleb128 .LLSDACSE1359-.LLSDACSB1359
 9994              	.LLSDACSB1359:
 9995 0632 18       		.uleb128 .LEHB224-.LFB1359
 9996 0633 05       		.uleb128 .LEHE224-.LEHB224
 9997 0634 2B       		.uleb128 .L439-.LFB1359
 9998 0635 00       		.uleb128 0
 9999 0636 44       		.uleb128 .LEHB225-.LFB1359
 10000 0637 05       		.uleb128 .LEHE225-.LEHB225
 10001 0638 00       		.uleb128 0
 10002 0639 00       		.uleb128 0
 10003              	.LLSDACSE1359:
 10004              		.text
 10006              		.section	.data.rel.ro.local
 10007              		.align 8
 10010              	_ZTVN12_GLOBAL__N_133TestCheckCloseWithDoublesSucceedsE:
 10011 0028 00000000 		.quad	0
 10011      00000000 
 10012 0030 00000000 		.quad	_ZTIN12_GLOBAL__N_133TestCheckCloseWithDoublesSucceedsE
 10012      00000000 
 10013 0038 00000000 		.quad	_ZN12_GLOBAL__N_133TestCheckCloseWithDoublesSucceedsD1Ev
 10013      00000000 
 10014 0040 00000000 		.quad	_ZN12_GLOBAL__N_133TestCheckCloseWithDoublesSucceedsD0Ev
 10014      00000000 
 10015 0048 00000000 		.quad	_ZNK12_GLOBAL__N_133TestCheckCloseWithDoublesSucceeds7RunImplEv
 10015      00000000 
 10016              		.text
 10017 3e17 90       		.align 2
 10019              	_ZN12_GLOBAL__N_133TestCheckCloseWithDoublesSucceedsD2Ev:
 10020              	.LFB1361:
 268:TestChecks.cpp **** {
 10021              		.loc 5 268 1 is_stmt 1
 10022              		.cfi_startproc
 10023 3e18 F30F1EFA 		endbr64
 10024 3e1c 55       		pushq	%rbp
 10025              		.cfi_def_cfa_offset 16
 10026              		.cfi_offset 6, -16
 10027 3e1d 4889E5   		movq	%rsp, %rbp
 10028              		.cfi_def_cfa_register 6
 10029 3e20 4883EC10 		subq	$16, %rsp
 10030 3e24 48897DF8 		movq	%rdi, -8(%rbp)
 10031              	.LBB84:
 268:TestChecks.cpp **** {
 10032              		.loc 5 268 1
 10033 3e28 488D1500 		leaq	16+_ZTVN12_GLOBAL__N_133TestCheckCloseWithDoublesSucceedsE(%rip), %rdx
 10033      000000
 10034 3e2f 488B45F8 		movq	-8(%rbp), %rax
 10035 3e33 488910   		movq	%rdx, (%rax)
 10036 3e36 488B45F8 		movq	-8(%rbp), %rax
 10037 3e3a 4889C7   		movq	%rax, %rdi
 10038 3e3d E8000000 		call	_ZN8UnitTest4TestD2Ev@PLT
 10038      00
 10039              	.LBE84:
 10040 3e42 90       		nop
 10041 3e43 C9       		leave
 10042              		.cfi_def_cfa 7, 8
 10043 3e44 C3       		ret
 10044              		.cfi_endproc
 10045              	.LFE1361:
 10047              		.set	_ZN12_GLOBAL__N_133TestCheckCloseWithDoublesSucceedsD1Ev,_ZN12_GLOBAL__N_133TestCheckCloseWit
 10048 3e45 90       		.align 2
 10050              	_ZN12_GLOBAL__N_133TestCheckCloseWithDoublesSucceedsD0Ev:
 10051              	.LFB1363:
 268:TestChecks.cpp **** {
 10052              		.loc 5 268 1
 10053              		.cfi_startproc
 10054              		.cfi_personality 0x9b,DW.ref.__gxx_personality_v0
 10055              		.cfi_lsda 0x1b,.LLSDA1363
 10056 3e46 F30F1EFA 		endbr64
 10057 3e4a 55       		pushq	%rbp
 10058              		.cfi_def_cfa_offset 16
 10059              		.cfi_offset 6, -16
 10060 3e4b 4889E5   		movq	%rsp, %rbp
 10061              		.cfi_def_cfa_register 6
 10062 3e4e 53       		pushq	%rbx
 10063 3e4f 4883EC18 		subq	$24, %rsp
 10064              		.cfi_offset 3, -24
 10065 3e53 48897DE8 		movq	%rdi, -24(%rbp)
 268:TestChecks.cpp **** {
 10066              		.loc 5 268 1
 10067 3e57 488B45E8 		movq	-24(%rbp), %rax
 10068 3e5b 4889C7   		movq	%rax, %rdi
 10069              	.LEHB226:
 10070 3e5e E8B5FFFF 		call	_ZN12_GLOBAL__N_133TestCheckCloseWithDoublesSucceedsD1Ev
 10070      FF
 10071              	.LEHE226:
 268:TestChecks.cpp **** {
 10072              		.loc 5 268 1 is_stmt 0 discriminator 2
 10073 3e63 488B45E8 		movq	-24(%rbp), %rax
 10074 3e67 4889C7   		movq	%rax, %rdi
 10075 3e6a E8000000 		call	_ZdlPv@PLT
 10075      00
 10076 3e6f EB1E     		jmp	.L445
 10077              	.L444:
 10078 3e71 F30F1EFA 		endbr64
 268:TestChecks.cpp **** {
 10079              		.loc 5 268 1
 10080 3e75 4889C3   		movq	%rax, %rbx
 10081 3e78 488B45E8 		movq	-24(%rbp), %rax
 10082 3e7c 4889C7   		movq	%rax, %rdi
 10083 3e7f E8000000 		call	_ZdlPv@PLT
 10083      00
 10084 3e84 4889D8   		movq	%rbx, %rax
 10085 3e87 4889C7   		movq	%rax, %rdi
 10086              	.LEHB227:
 10087 3e8a E8000000 		call	_Unwind_Resume@PLT
 10087      00
 10088              	.LEHE227:
 10089              	.L445:
 10090 3e8f 488B5DF8 		movq	-8(%rbp), %rbx
 10091 3e93 C9       		leave
 10092              		.cfi_def_cfa 7, 8
 10093 3e94 C3       		ret
 10094              		.cfi_endproc
 10095              	.LFE1363:
 10096              		.section	.gcc_except_table
 10097              	.LLSDA1363:
 10098 063a FF       		.byte	0xff
 10099 063b FF       		.byte	0xff
 10100 063c 01       		.byte	0x1
 10101 063d 08       		.uleb128 .LLSDACSE1363-.LLSDACSB1363
 10102              	.LLSDACSB1363:
 10103 063e 18       		.uleb128 .LEHB226-.LFB1363
 10104 063f 05       		.uleb128 .LEHE226-.LEHB226
 10105 0640 2B       		.uleb128 .L444-.LFB1363
 10106 0641 00       		.uleb128 0
 10107 0642 44       		.uleb128 .LEHB227-.LFB1363
 10108 0643 05       		.uleb128 .LEHE227-.LEHB227
 10109 0644 00       		.uleb128 0
 10110 0645 00       		.uleb128 0
 10111              	.LLSDACSE1363:
 10112              		.text
 10114              		.section	.data.rel.ro.local
 10115              		.align 8
 10118              	_ZTVN12_GLOBAL__N_126TestCheckArray2DCloseFalseE:
 10119 0050 00000000 		.quad	0
 10119      00000000 
 10120 0058 00000000 		.quad	_ZTIN12_GLOBAL__N_126TestCheckArray2DCloseFalseE
 10120      00000000 
 10121 0060 00000000 		.quad	_ZN12_GLOBAL__N_126TestCheckArray2DCloseFalseD1Ev
 10121      00000000 
 10122 0068 00000000 		.quad	_ZN12_GLOBAL__N_126TestCheckArray2DCloseFalseD0Ev
 10122      00000000 
 10123 0070 00000000 		.quad	_ZNK12_GLOBAL__N_126TestCheckArray2DCloseFalse7RunImplEv
 10123      00000000 
 10124              		.text
 10125 3e95 90       		.align 2
 10127              	_ZN12_GLOBAL__N_126TestCheckArray2DCloseFalseD2Ev:
 10128              	.LFB1365:
 254:TestChecks.cpp **** {
 10129              		.loc 5 254 1 is_stmt 1
 10130              		.cfi_startproc
 10131 3e96 F30F1EFA 		endbr64
 10132 3e9a 55       		pushq	%rbp
 10133              		.cfi_def_cfa_offset 16
 10134              		.cfi_offset 6, -16
 10135 3e9b 4889E5   		movq	%rsp, %rbp
 10136              		.cfi_def_cfa_register 6
 10137 3e9e 4883EC10 		subq	$16, %rsp
 10138 3ea2 48897DF8 		movq	%rdi, -8(%rbp)
 10139              	.LBB85:
 254:TestChecks.cpp **** {
 10140              		.loc 5 254 1
 10141 3ea6 488D1500 		leaq	16+_ZTVN12_GLOBAL__N_126TestCheckArray2DCloseFalseE(%rip), %rdx
 10141      000000
 10142 3ead 488B45F8 		movq	-8(%rbp), %rax
 10143 3eb1 488910   		movq	%rdx, (%rax)
 10144 3eb4 488B45F8 		movq	-8(%rbp), %rax
 10145 3eb8 4889C7   		movq	%rax, %rdi
 10146 3ebb E8000000 		call	_ZN8UnitTest4TestD2Ev@PLT
 10146      00
 10147              	.LBE85:
 10148 3ec0 90       		nop
 10149 3ec1 C9       		leave
 10150              		.cfi_def_cfa 7, 8
 10151 3ec2 C3       		ret
 10152              		.cfi_endproc
 10153              	.LFE1365:
 10155              		.set	_ZN12_GLOBAL__N_126TestCheckArray2DCloseFalseD1Ev,_ZN12_GLOBAL__N_126TestCheckArray2DCloseFal
 10156 3ec3 90       		.align 2
 10158              	_ZN12_GLOBAL__N_126TestCheckArray2DCloseFalseD0Ev:
 10159              	.LFB1367:
 254:TestChecks.cpp **** {
 10160              		.loc 5 254 1
 10161              		.cfi_startproc
 10162              		.cfi_personality 0x9b,DW.ref.__gxx_personality_v0
 10163              		.cfi_lsda 0x1b,.LLSDA1367
 10164 3ec4 F30F1EFA 		endbr64
 10165 3ec8 55       		pushq	%rbp
 10166              		.cfi_def_cfa_offset 16
 10167              		.cfi_offset 6, -16
 10168 3ec9 4889E5   		movq	%rsp, %rbp
 10169              		.cfi_def_cfa_register 6
 10170 3ecc 53       		pushq	%rbx
 10171 3ecd 4883EC18 		subq	$24, %rsp
 10172              		.cfi_offset 3, -24
 10173 3ed1 48897DE8 		movq	%rdi, -24(%rbp)
 254:TestChecks.cpp **** {
 10174              		.loc 5 254 1
 10175 3ed5 488B45E8 		movq	-24(%rbp), %rax
 10176 3ed9 4889C7   		movq	%rax, %rdi
 10177              	.LEHB228:
 10178 3edc E8B5FFFF 		call	_ZN12_GLOBAL__N_126TestCheckArray2DCloseFalseD1Ev
 10178      FF
 10179              	.LEHE228:
 254:TestChecks.cpp **** {
 10180              		.loc 5 254 1 is_stmt 0 discriminator 2
 10181 3ee1 488B45E8 		movq	-24(%rbp), %rax
 10182 3ee5 4889C7   		movq	%rax, %rdi
 10183 3ee8 E8000000 		call	_ZdlPv@PLT
 10183      00
 10184 3eed EB1E     		jmp	.L450
 10185              	.L449:
 10186 3eef F30F1EFA 		endbr64
 254:TestChecks.cpp **** {
 10187              		.loc 5 254 1
 10188 3ef3 4889C3   		movq	%rax, %rbx
 10189 3ef6 488B45E8 		movq	-24(%rbp), %rax
 10190 3efa 4889C7   		movq	%rax, %rdi
 10191 3efd E8000000 		call	_ZdlPv@PLT
 10191      00
 10192 3f02 4889D8   		movq	%rbx, %rax
 10193 3f05 4889C7   		movq	%rax, %rdi
 10194              	.LEHB229:
 10195 3f08 E8000000 		call	_Unwind_Resume@PLT
 10195      00
 10196              	.LEHE229:
 10197              	.L450:
 10198 3f0d 488B5DF8 		movq	-8(%rbp), %rbx
 10199 3f11 C9       		leave
 10200              		.cfi_def_cfa 7, 8
 10201 3f12 C3       		ret
 10202              		.cfi_endproc
 10203              	.LFE1367:
 10204              		.section	.gcc_except_table
 10205              	.LLSDA1367:
 10206 0646 FF       		.byte	0xff
 10207 0647 FF       		.byte	0xff
 10208 0648 01       		.byte	0x1
 10209 0649 08       		.uleb128 .LLSDACSE1367-.LLSDACSB1367
 10210              	.LLSDACSB1367:
 10211 064a 18       		.uleb128 .LEHB228-.LFB1367
 10212 064b 05       		.uleb128 .LEHE228-.LEHB228
 10213 064c 2B       		.uleb128 .L449-.LFB1367
 10214 064d 00       		.uleb128 0
 10215 064e 44       		.uleb128 .LEHB229-.LFB1367
 10216 064f 05       		.uleb128 .LEHE229-.LEHB229
 10217 0650 00       		.uleb128 0
 10218 0651 00       		.uleb128 0
 10219              	.LLSDACSE1367:
 10220              		.text
 10222              		.section	.data.rel.ro.local
 10223              		.align 8
 10226              	_ZTVN12_GLOBAL__N_125TestCheckArray2DCloseTrueE:
 10227 0078 00000000 		.quad	0
 10227      00000000 
 10228 0080 00000000 		.quad	_ZTIN12_GLOBAL__N_125TestCheckArray2DCloseTrueE
 10228      00000000 
 10229 0088 00000000 		.quad	_ZN12_GLOBAL__N_125TestCheckArray2DCloseTrueD1Ev
 10229      00000000 
 10230 0090 00000000 		.quad	_ZN12_GLOBAL__N_125TestCheckArray2DCloseTrueD0Ev
 10230      00000000 
 10231 0098 00000000 		.quad	_ZNK12_GLOBAL__N_125TestCheckArray2DCloseTrue7RunImplEv
 10231      00000000 
 10232              		.text
 10233 3f13 90       		.align 2
 10235              	_ZN12_GLOBAL__N_125TestCheckArray2DCloseTrueD2Ev:
 10236              	.LFB1369:
 240:TestChecks.cpp **** {
 10237              		.loc 5 240 1 is_stmt 1
 10238              		.cfi_startproc
 10239 3f14 F30F1EFA 		endbr64
 10240 3f18 55       		pushq	%rbp
 10241              		.cfi_def_cfa_offset 16
 10242              		.cfi_offset 6, -16
 10243 3f19 4889E5   		movq	%rsp, %rbp
 10244              		.cfi_def_cfa_register 6
 10245 3f1c 4883EC10 		subq	$16, %rsp
 10246 3f20 48897DF8 		movq	%rdi, -8(%rbp)
 10247              	.LBB86:
 240:TestChecks.cpp **** {
 10248              		.loc 5 240 1
 10249 3f24 488D1500 		leaq	16+_ZTVN12_GLOBAL__N_125TestCheckArray2DCloseTrueE(%rip), %rdx
 10249      000000
 10250 3f2b 488B45F8 		movq	-8(%rbp), %rax
 10251 3f2f 488910   		movq	%rdx, (%rax)
 10252 3f32 488B45F8 		movq	-8(%rbp), %rax
 10253 3f36 4889C7   		movq	%rax, %rdi
 10254 3f39 E8000000 		call	_ZN8UnitTest4TestD2Ev@PLT
 10254      00
 10255              	.LBE86:
 10256 3f3e 90       		nop
 10257 3f3f C9       		leave
 10258              		.cfi_def_cfa 7, 8
 10259 3f40 C3       		ret
 10260              		.cfi_endproc
 10261              	.LFE1369:
 10263              		.set	_ZN12_GLOBAL__N_125TestCheckArray2DCloseTrueD1Ev,_ZN12_GLOBAL__N_125TestCheckArray2DCloseTrue
 10264 3f41 90       		.align 2
 10266              	_ZN12_GLOBAL__N_125TestCheckArray2DCloseTrueD0Ev:
 10267              	.LFB1371:
 240:TestChecks.cpp **** {
 10268              		.loc 5 240 1
 10269              		.cfi_startproc
 10270              		.cfi_personality 0x9b,DW.ref.__gxx_personality_v0
 10271              		.cfi_lsda 0x1b,.LLSDA1371
 10272 3f42 F30F1EFA 		endbr64
 10273 3f46 55       		pushq	%rbp
 10274              		.cfi_def_cfa_offset 16
 10275              		.cfi_offset 6, -16
 10276 3f47 4889E5   		movq	%rsp, %rbp
 10277              		.cfi_def_cfa_register 6
 10278 3f4a 53       		pushq	%rbx
 10279 3f4b 4883EC18 		subq	$24, %rsp
 10280              		.cfi_offset 3, -24
 10281 3f4f 48897DE8 		movq	%rdi, -24(%rbp)
 240:TestChecks.cpp **** {
 10282              		.loc 5 240 1
 10283 3f53 488B45E8 		movq	-24(%rbp), %rax
 10284 3f57 4889C7   		movq	%rax, %rdi
 10285              	.LEHB230:
 10286 3f5a E8B5FFFF 		call	_ZN12_GLOBAL__N_125TestCheckArray2DCloseTrueD1Ev
 10286      FF
 10287              	.LEHE230:
 240:TestChecks.cpp **** {
 10288              		.loc 5 240 1 is_stmt 0 discriminator 2
 10289 3f5f 488B45E8 		movq	-24(%rbp), %rax
 10290 3f63 4889C7   		movq	%rax, %rdi
 10291 3f66 E8000000 		call	_ZdlPv@PLT
 10291      00
 10292 3f6b EB1E     		jmp	.L455
 10293              	.L454:
 10294 3f6d F30F1EFA 		endbr64
 240:TestChecks.cpp **** {
 10295              		.loc 5 240 1
 10296 3f71 4889C3   		movq	%rax, %rbx
 10297 3f74 488B45E8 		movq	-24(%rbp), %rax
 10298 3f78 4889C7   		movq	%rax, %rdi
 10299 3f7b E8000000 		call	_ZdlPv@PLT
 10299      00
 10300 3f80 4889D8   		movq	%rbx, %rax
 10301 3f83 4889C7   		movq	%rax, %rdi
 10302              	.LEHB231:
 10303 3f86 E8000000 		call	_Unwind_Resume@PLT
 10303      00
 10304              	.LEHE231:
 10305              	.L455:
 10306 3f8b 488B5DF8 		movq	-8(%rbp), %rbx
 10307 3f8f C9       		leave
 10308              		.cfi_def_cfa 7, 8
 10309 3f90 C3       		ret
 10310              		.cfi_endproc
 10311              	.LFE1371:
 10312              		.section	.gcc_except_table
 10313              	.LLSDA1371:
 10314 0652 FF       		.byte	0xff
 10315 0653 FF       		.byte	0xff
 10316 0654 01       		.byte	0x1
 10317 0655 08       		.uleb128 .LLSDACSE1371-.LLSDACSB1371
 10318              	.LLSDACSB1371:
 10319 0656 18       		.uleb128 .LEHB230-.LFB1371
 10320 0657 05       		.uleb128 .LEHE230-.LEHB230
 10321 0658 2B       		.uleb128 .L454-.LFB1371
 10322 0659 00       		.uleb128 0
 10323 065a 44       		.uleb128 .LEHB231-.LFB1371
 10324 065b 05       		.uleb128 .LEHE231-.LEHB231
 10325 065c 00       		.uleb128 0
 10326 065d 00       		.uleb128 0
 10327              	.LLSDACSE1371:
 10328              		.text
 10330              		.section	.data.rel.ro.local
 10331              		.align 8
 10334              	_ZTVN12_GLOBAL__N_141TestCheckArrayCloseFailureIncludesDetailsE:
 10335 00a0 00000000 		.quad	0
 10335      00000000 
 10336 00a8 00000000 		.quad	_ZTIN12_GLOBAL__N_141TestCheckArrayCloseFailureIncludesDetailsE
 10336      00000000 
 10337 00b0 00000000 		.quad	_ZN12_GLOBAL__N_141TestCheckArrayCloseFailureIncludesDetailsD1Ev
 10337      00000000 
 10338 00b8 00000000 		.quad	_ZN12_GLOBAL__N_141TestCheckArrayCloseFailureIncludesDetailsD0Ev
 10338      00000000 
 10339 00c0 00000000 		.quad	_ZNK12_GLOBAL__N_141TestCheckArrayCloseFailureIncludesDetails7RunImplEv
 10339      00000000 
 10340              		.text
 10341 3f91 90       		.align 2
 10343              	_ZN12_GLOBAL__N_141TestCheckArrayCloseFailureIncludesDetailsD2Ev:
 10344              	.LFB1373:
 223:TestChecks.cpp **** {
 10345              		.loc 5 223 1 is_stmt 1
 10346              		.cfi_startproc
 10347 3f92 F30F1EFA 		endbr64
 10348 3f96 55       		pushq	%rbp
 10349              		.cfi_def_cfa_offset 16
 10350              		.cfi_offset 6, -16
 10351 3f97 4889E5   		movq	%rsp, %rbp
 10352              		.cfi_def_cfa_register 6
 10353 3f9a 4883EC10 		subq	$16, %rsp
 10354 3f9e 48897DF8 		movq	%rdi, -8(%rbp)
 10355              	.LBB87:
 223:TestChecks.cpp **** {
 10356              		.loc 5 223 1
 10357 3fa2 488D1500 		leaq	16+_ZTVN12_GLOBAL__N_141TestCheckArrayCloseFailureIncludesDetailsE(%rip), %rdx
 10357      000000
 10358 3fa9 488B45F8 		movq	-8(%rbp), %rax
 10359 3fad 488910   		movq	%rdx, (%rax)
 10360 3fb0 488B45F8 		movq	-8(%rbp), %rax
 10361 3fb4 4889C7   		movq	%rax, %rdi
 10362 3fb7 E8000000 		call	_ZN8UnitTest4TestD2Ev@PLT
 10362      00
 10363              	.LBE87:
 10364 3fbc 90       		nop
 10365 3fbd C9       		leave
 10366              		.cfi_def_cfa 7, 8
 10367 3fbe C3       		ret
 10368              		.cfi_endproc
 10369              	.LFE1373:
 10371              		.set	_ZN12_GLOBAL__N_141TestCheckArrayCloseFailureIncludesDetailsD1Ev,_ZN12_GLOBAL__N_141TestCheck
 10372 3fbf 90       		.align 2
 10374              	_ZN12_GLOBAL__N_141TestCheckArrayCloseFailureIncludesDetailsD0Ev:
 10375              	.LFB1375:
 223:TestChecks.cpp **** {
 10376              		.loc 5 223 1
 10377              		.cfi_startproc
 10378              		.cfi_personality 0x9b,DW.ref.__gxx_personality_v0
 10379              		.cfi_lsda 0x1b,.LLSDA1375
 10380 3fc0 F30F1EFA 		endbr64
 10381 3fc4 55       		pushq	%rbp
 10382              		.cfi_def_cfa_offset 16
 10383              		.cfi_offset 6, -16
 10384 3fc5 4889E5   		movq	%rsp, %rbp
 10385              		.cfi_def_cfa_register 6
 10386 3fc8 53       		pushq	%rbx
 10387 3fc9 4883EC18 		subq	$24, %rsp
 10388              		.cfi_offset 3, -24
 10389 3fcd 48897DE8 		movq	%rdi, -24(%rbp)
 223:TestChecks.cpp **** {
 10390              		.loc 5 223 1
 10391 3fd1 488B45E8 		movq	-24(%rbp), %rax
 10392 3fd5 4889C7   		movq	%rax, %rdi
 10393              	.LEHB232:
 10394 3fd8 E8B5FFFF 		call	_ZN12_GLOBAL__N_141TestCheckArrayCloseFailureIncludesDetailsD1Ev
 10394      FF
 10395              	.LEHE232:
 223:TestChecks.cpp **** {
 10396              		.loc 5 223 1 is_stmt 0 discriminator 2
 10397 3fdd 488B45E8 		movq	-24(%rbp), %rax
 10398 3fe1 4889C7   		movq	%rax, %rdi
 10399 3fe4 E8000000 		call	_ZdlPv@PLT
 10399      00
 10400 3fe9 EB1E     		jmp	.L460
 10401              	.L459:
 10402 3feb F30F1EFA 		endbr64
 223:TestChecks.cpp **** {
 10403              		.loc 5 223 1
 10404 3fef 4889C3   		movq	%rax, %rbx
 10405 3ff2 488B45E8 		movq	-24(%rbp), %rax
 10406 3ff6 4889C7   		movq	%rax, %rdi
 10407 3ff9 E8000000 		call	_ZdlPv@PLT
 10407      00
 10408 3ffe 4889D8   		movq	%rbx, %rax
 10409 4001 4889C7   		movq	%rax, %rdi
 10410              	.LEHB233:
 10411 4004 E8000000 		call	_Unwind_Resume@PLT
 10411      00
 10412              	.LEHE233:
 10413              	.L460:
 10414 4009 488B5DF8 		movq	-8(%rbp), %rbx
 10415 400d C9       		leave
 10416              		.cfi_def_cfa 7, 8
 10417 400e C3       		ret
 10418              		.cfi_endproc
 10419              	.LFE1375:
 10420              		.section	.gcc_except_table
 10421              	.LLSDA1375:
 10422 065e FF       		.byte	0xff
 10423 065f FF       		.byte	0xff
 10424 0660 01       		.byte	0x1
 10425 0661 08       		.uleb128 .LLSDACSE1375-.LLSDACSB1375
 10426              	.LLSDACSB1375:
 10427 0662 18       		.uleb128 .LEHB232-.LFB1375
 10428 0663 05       		.uleb128 .LEHE232-.LEHB232
 10429 0664 2B       		.uleb128 .L459-.LFB1375
 10430 0665 00       		.uleb128 0
 10431 0666 44       		.uleb128 .LEHB233-.LFB1375
 10432 0667 05       		.uleb128 .LEHE233-.LEHB233
 10433 0668 00       		.uleb128 0
 10434 0669 00       		.uleb128 0
 10435              	.LLSDACSE1375:
 10436              		.text
 10438              		.section	.data.rel.ro.local
 10439              		.align 8
 10442              	_ZTVN12_GLOBAL__N_124TestCheckArrayCloseFalseE:
 10443 00c8 00000000 		.quad	0
 10443      00000000 
 10444 00d0 00000000 		.quad	_ZTIN12_GLOBAL__N_124TestCheckArrayCloseFalseE
 10444      00000000 
 10445 00d8 00000000 		.quad	_ZN12_GLOBAL__N_124TestCheckArrayCloseFalseD1Ev
 10445      00000000 
 10446 00e0 00000000 		.quad	_ZN12_GLOBAL__N_124TestCheckArrayCloseFalseD0Ev
 10446      00000000 
 10447 00e8 00000000 		.quad	_ZNK12_GLOBAL__N_124TestCheckArrayCloseFalse7RunImplEv
 10447      00000000 
 10448              		.text
 10449 400f 90       		.align 2
 10451              	_ZN12_GLOBAL__N_124TestCheckArrayCloseFalseD2Ev:
 10452              	.LFB1377:
 213:TestChecks.cpp **** {
 10453              		.loc 5 213 1 is_stmt 1
 10454              		.cfi_startproc
 10455 4010 F30F1EFA 		endbr64
 10456 4014 55       		pushq	%rbp
 10457              		.cfi_def_cfa_offset 16
 10458              		.cfi_offset 6, -16
 10459 4015 4889E5   		movq	%rsp, %rbp
 10460              		.cfi_def_cfa_register 6
 10461 4018 4883EC10 		subq	$16, %rsp
 10462 401c 48897DF8 		movq	%rdi, -8(%rbp)
 10463              	.LBB88:
 213:TestChecks.cpp **** {
 10464              		.loc 5 213 1
 10465 4020 488D1500 		leaq	16+_ZTVN12_GLOBAL__N_124TestCheckArrayCloseFalseE(%rip), %rdx
 10465      000000
 10466 4027 488B45F8 		movq	-8(%rbp), %rax
 10467 402b 488910   		movq	%rdx, (%rax)
 10468 402e 488B45F8 		movq	-8(%rbp), %rax
 10469 4032 4889C7   		movq	%rax, %rdi
 10470 4035 E8000000 		call	_ZN8UnitTest4TestD2Ev@PLT
 10470      00
 10471              	.LBE88:
 10472 403a 90       		nop
 10473 403b C9       		leave
 10474              		.cfi_def_cfa 7, 8
 10475 403c C3       		ret
 10476              		.cfi_endproc
 10477              	.LFE1377:
 10479              		.set	_ZN12_GLOBAL__N_124TestCheckArrayCloseFalseD1Ev,_ZN12_GLOBAL__N_124TestCheckArrayCloseFalseD2
 10480 403d 90       		.align 2
 10482              	_ZN12_GLOBAL__N_124TestCheckArrayCloseFalseD0Ev:
 10483              	.LFB1379:
 213:TestChecks.cpp **** {
 10484              		.loc 5 213 1
 10485              		.cfi_startproc
 10486              		.cfi_personality 0x9b,DW.ref.__gxx_personality_v0
 10487              		.cfi_lsda 0x1b,.LLSDA1379
 10488 403e F30F1EFA 		endbr64
 10489 4042 55       		pushq	%rbp
 10490              		.cfi_def_cfa_offset 16
 10491              		.cfi_offset 6, -16
 10492 4043 4889E5   		movq	%rsp, %rbp
 10493              		.cfi_def_cfa_register 6
 10494 4046 53       		pushq	%rbx
 10495 4047 4883EC18 		subq	$24, %rsp
 10496              		.cfi_offset 3, -24
 10497 404b 48897DE8 		movq	%rdi, -24(%rbp)
 213:TestChecks.cpp **** {
 10498              		.loc 5 213 1
 10499 404f 488B45E8 		movq	-24(%rbp), %rax
 10500 4053 4889C7   		movq	%rax, %rdi
 10501              	.LEHB234:
 10502 4056 E8B5FFFF 		call	_ZN12_GLOBAL__N_124TestCheckArrayCloseFalseD1Ev
 10502      FF
 10503              	.LEHE234:
 213:TestChecks.cpp **** {
 10504              		.loc 5 213 1 is_stmt 0 discriminator 2
 10505 405b 488B45E8 		movq	-24(%rbp), %rax
 10506 405f 4889C7   		movq	%rax, %rdi
 10507 4062 E8000000 		call	_ZdlPv@PLT
 10507      00
 10508 4067 EB1E     		jmp	.L465
 10509              	.L464:
 10510 4069 F30F1EFA 		endbr64
 213:TestChecks.cpp **** {
 10511              		.loc 5 213 1
 10512 406d 4889C3   		movq	%rax, %rbx
 10513 4070 488B45E8 		movq	-24(%rbp), %rax
 10514 4074 4889C7   		movq	%rax, %rdi
 10515 4077 E8000000 		call	_ZdlPv@PLT
 10515      00
 10516 407c 4889D8   		movq	%rbx, %rax
 10517 407f 4889C7   		movq	%rax, %rdi
 10518              	.LEHB235:
 10519 4082 E8000000 		call	_Unwind_Resume@PLT
 10519      00
 10520              	.LEHE235:
 10521              	.L465:
 10522 4087 488B5DF8 		movq	-8(%rbp), %rbx
 10523 408b C9       		leave
 10524              		.cfi_def_cfa 7, 8
 10525 408c C3       		ret
 10526              		.cfi_endproc
 10527              	.LFE1379:
 10528              		.section	.gcc_except_table
 10529              	.LLSDA1379:
 10530 066a FF       		.byte	0xff
 10531 066b FF       		.byte	0xff
 10532 066c 01       		.byte	0x1
 10533 066d 08       		.uleb128 .LLSDACSE1379-.LLSDACSB1379
 10534              	.LLSDACSB1379:
 10535 066e 18       		.uleb128 .LEHB234-.LFB1379
 10536 066f 05       		.uleb128 .LEHE234-.LEHB234
 10537 0670 2B       		.uleb128 .L464-.LFB1379
 10538 0671 00       		.uleb128 0
 10539 0672 44       		.uleb128 .LEHB235-.LFB1379
 10540 0673 05       		.uleb128 .LEHE235-.LEHB235
 10541 0674 00       		.uleb128 0
 10542 0675 00       		.uleb128 0
 10543              	.LLSDACSE1379:
 10544              		.text
 10546              		.section	.data.rel.ro.local
 10547              		.align 8
 10550              	_ZTVN12_GLOBAL__N_123TestCheckArrayCloseTrueE:
 10551 00f0 00000000 		.quad	0
 10551      00000000 
 10552 00f8 00000000 		.quad	_ZTIN12_GLOBAL__N_123TestCheckArrayCloseTrueE
 10552      00000000 
 10553 0100 00000000 		.quad	_ZN12_GLOBAL__N_123TestCheckArrayCloseTrueD1Ev
 10553      00000000 
 10554 0108 00000000 		.quad	_ZN12_GLOBAL__N_123TestCheckArrayCloseTrueD0Ev
 10554      00000000 
 10555 0110 00000000 		.quad	_ZNK12_GLOBAL__N_123TestCheckArrayCloseTrue7RunImplEv
 10555      00000000 
 10556              		.text
 10557 408d 90       		.align 2
 10559              	_ZN12_GLOBAL__N_123TestCheckArrayCloseTrueD2Ev:
 10560              	.LFB1381:
 203:TestChecks.cpp **** {
 10561              		.loc 5 203 1 is_stmt 1
 10562              		.cfi_startproc
 10563 408e F30F1EFA 		endbr64
 10564 4092 55       		pushq	%rbp
 10565              		.cfi_def_cfa_offset 16
 10566              		.cfi_offset 6, -16
 10567 4093 4889E5   		movq	%rsp, %rbp
 10568              		.cfi_def_cfa_register 6
 10569 4096 4883EC10 		subq	$16, %rsp
 10570 409a 48897DF8 		movq	%rdi, -8(%rbp)
 10571              	.LBB89:
 203:TestChecks.cpp **** {
 10572              		.loc 5 203 1
 10573 409e 488D1500 		leaq	16+_ZTVN12_GLOBAL__N_123TestCheckArrayCloseTrueE(%rip), %rdx
 10573      000000
 10574 40a5 488B45F8 		movq	-8(%rbp), %rax
 10575 40a9 488910   		movq	%rdx, (%rax)
 10576 40ac 488B45F8 		movq	-8(%rbp), %rax
 10577 40b0 4889C7   		movq	%rax, %rdi
 10578 40b3 E8000000 		call	_ZN8UnitTest4TestD2Ev@PLT
 10578      00
 10579              	.LBE89:
 10580 40b8 90       		nop
 10581 40b9 C9       		leave
 10582              		.cfi_def_cfa 7, 8
 10583 40ba C3       		ret
 10584              		.cfi_endproc
 10585              	.LFE1381:
 10587              		.set	_ZN12_GLOBAL__N_123TestCheckArrayCloseTrueD1Ev,_ZN12_GLOBAL__N_123TestCheckArrayCloseTrueD2Ev
 10588 40bb 90       		.align 2
 10590              	_ZN12_GLOBAL__N_123TestCheckArrayCloseTrueD0Ev:
 10591              	.LFB1383:
 203:TestChecks.cpp **** {
 10592              		.loc 5 203 1
 10593              		.cfi_startproc
 10594              		.cfi_personality 0x9b,DW.ref.__gxx_personality_v0
 10595              		.cfi_lsda 0x1b,.LLSDA1383
 10596 40bc F30F1EFA 		endbr64
 10597 40c0 55       		pushq	%rbp
 10598              		.cfi_def_cfa_offset 16
 10599              		.cfi_offset 6, -16
 10600 40c1 4889E5   		movq	%rsp, %rbp
 10601              		.cfi_def_cfa_register 6
 10602 40c4 53       		pushq	%rbx
 10603 40c5 4883EC18 		subq	$24, %rsp
 10604              		.cfi_offset 3, -24
 10605 40c9 48897DE8 		movq	%rdi, -24(%rbp)
 203:TestChecks.cpp **** {
 10606              		.loc 5 203 1
 10607 40cd 488B45E8 		movq	-24(%rbp), %rax
 10608 40d1 4889C7   		movq	%rax, %rdi
 10609              	.LEHB236:
 10610 40d4 E8B5FFFF 		call	_ZN12_GLOBAL__N_123TestCheckArrayCloseTrueD1Ev
 10610      FF
 10611              	.LEHE236:
 203:TestChecks.cpp **** {
 10612              		.loc 5 203 1 is_stmt 0 discriminator 2
 10613 40d9 488B45E8 		movq	-24(%rbp), %rax
 10614 40dd 4889C7   		movq	%rax, %rdi
 10615 40e0 E8000000 		call	_ZdlPv@PLT
 10615      00
 10616 40e5 EB1E     		jmp	.L470
 10617              	.L469:
 10618 40e7 F30F1EFA 		endbr64
 203:TestChecks.cpp **** {
 10619              		.loc 5 203 1
 10620 40eb 4889C3   		movq	%rax, %rbx
 10621 40ee 488B45E8 		movq	-24(%rbp), %rax
 10622 40f2 4889C7   		movq	%rax, %rdi
 10623 40f5 E8000000 		call	_ZdlPv@PLT
 10623      00
 10624 40fa 4889D8   		movq	%rbx, %rax
 10625 40fd 4889C7   		movq	%rax, %rdi
 10626              	.LEHB237:
 10627 4100 E8000000 		call	_Unwind_Resume@PLT
 10627      00
 10628              	.LEHE237:
 10629              	.L470:
 10630 4105 488B5DF8 		movq	-8(%rbp), %rbx
 10631 4109 C9       		leave
 10632              		.cfi_def_cfa 7, 8
 10633 410a C3       		ret
 10634              		.cfi_endproc
 10635              	.LFE1383:
 10636              		.section	.gcc_except_table
 10637              	.LLSDA1383:
 10638 0676 FF       		.byte	0xff
 10639 0677 FF       		.byte	0xff
 10640 0678 01       		.byte	0x1
 10641 0679 08       		.uleb128 .LLSDACSE1383-.LLSDACSB1383
 10642              	.LLSDACSB1383:
 10643 067a 18       		.uleb128 .LEHB236-.LFB1383
 10644 067b 05       		.uleb128 .LEHE236-.LEHB236
 10645 067c 2B       		.uleb128 .L469-.LFB1383
 10646 067d 00       		.uleb128 0
 10647 067e 44       		.uleb128 .LEHB237-.LFB1383
 10648 067f 05       		.uleb128 .LEHE237-.LEHB237
 10649 0680 00       		.uleb128 0
 10650 0681 00       		.uleb128 0
 10651              	.LLSDACSE1383:
 10652              		.text
 10654              		.section	.data.rel.ro.local
 10655              		.align 8
 10658              	_ZTVN12_GLOBAL__N_124TestCheckArrayEqualFalseE:
 10659 0118 00000000 		.quad	0
 10659      00000000 
 10660 0120 00000000 		.quad	_ZTIN12_GLOBAL__N_124TestCheckArrayEqualFalseE
 10660      00000000 
 10661 0128 00000000 		.quad	_ZN12_GLOBAL__N_124TestCheckArrayEqualFalseD1Ev
 10661      00000000 
 10662 0130 00000000 		.quad	_ZN12_GLOBAL__N_124TestCheckArrayEqualFalseD0Ev
 10662      00000000 
 10663 0138 00000000 		.quad	_ZNK12_GLOBAL__N_124TestCheckArrayEqualFalse7RunImplEv
 10663      00000000 
 10664              		.text
 10665 410b 90       		.align 2
 10667              	_ZN12_GLOBAL__N_124TestCheckArrayEqualFalseD2Ev:
 10668              	.LFB1385:
 193:TestChecks.cpp **** {
 10669              		.loc 5 193 1 is_stmt 1
 10670              		.cfi_startproc
 10671 410c F30F1EFA 		endbr64
 10672 4110 55       		pushq	%rbp
 10673              		.cfi_def_cfa_offset 16
 10674              		.cfi_offset 6, -16
 10675 4111 4889E5   		movq	%rsp, %rbp
 10676              		.cfi_def_cfa_register 6
 10677 4114 4883EC10 		subq	$16, %rsp
 10678 4118 48897DF8 		movq	%rdi, -8(%rbp)
 10679              	.LBB90:
 193:TestChecks.cpp **** {
 10680              		.loc 5 193 1
 10681 411c 488D1500 		leaq	16+_ZTVN12_GLOBAL__N_124TestCheckArrayEqualFalseE(%rip), %rdx
 10681      000000
 10682 4123 488B45F8 		movq	-8(%rbp), %rax
 10683 4127 488910   		movq	%rdx, (%rax)
 10684 412a 488B45F8 		movq	-8(%rbp), %rax
 10685 412e 4889C7   		movq	%rax, %rdi
 10686 4131 E8000000 		call	_ZN8UnitTest4TestD2Ev@PLT
 10686      00
 10687              	.LBE90:
 10688 4136 90       		nop
 10689 4137 C9       		leave
 10690              		.cfi_def_cfa 7, 8
 10691 4138 C3       		ret
 10692              		.cfi_endproc
 10693              	.LFE1385:
 10695              		.set	_ZN12_GLOBAL__N_124TestCheckArrayEqualFalseD1Ev,_ZN12_GLOBAL__N_124TestCheckArrayEqualFalseD2
 10696 4139 90       		.align 2
 10698              	_ZN12_GLOBAL__N_124TestCheckArrayEqualFalseD0Ev:
 10699              	.LFB1387:
 193:TestChecks.cpp **** {
 10700              		.loc 5 193 1
 10701              		.cfi_startproc
 10702              		.cfi_personality 0x9b,DW.ref.__gxx_personality_v0
 10703              		.cfi_lsda 0x1b,.LLSDA1387
 10704 413a F30F1EFA 		endbr64
 10705 413e 55       		pushq	%rbp
 10706              		.cfi_def_cfa_offset 16
 10707              		.cfi_offset 6, -16
 10708 413f 4889E5   		movq	%rsp, %rbp
 10709              		.cfi_def_cfa_register 6
 10710 4142 53       		pushq	%rbx
 10711 4143 4883EC18 		subq	$24, %rsp
 10712              		.cfi_offset 3, -24
 10713 4147 48897DE8 		movq	%rdi, -24(%rbp)
 193:TestChecks.cpp **** {
 10714              		.loc 5 193 1
 10715 414b 488B45E8 		movq	-24(%rbp), %rax
 10716 414f 4889C7   		movq	%rax, %rdi
 10717              	.LEHB238:
 10718 4152 E8B5FFFF 		call	_ZN12_GLOBAL__N_124TestCheckArrayEqualFalseD1Ev
 10718      FF
 10719              	.LEHE238:
 193:TestChecks.cpp **** {
 10720              		.loc 5 193 1 is_stmt 0 discriminator 2
 10721 4157 488B45E8 		movq	-24(%rbp), %rax
 10722 415b 4889C7   		movq	%rax, %rdi
 10723 415e E8000000 		call	_ZdlPv@PLT
 10723      00
 10724 4163 EB1E     		jmp	.L475
 10725              	.L474:
 10726 4165 F30F1EFA 		endbr64
 193:TestChecks.cpp **** {
 10727              		.loc 5 193 1
 10728 4169 4889C3   		movq	%rax, %rbx
 10729 416c 488B45E8 		movq	-24(%rbp), %rax
 10730 4170 4889C7   		movq	%rax, %rdi
 10731 4173 E8000000 		call	_ZdlPv@PLT
 10731      00
 10732 4178 4889D8   		movq	%rbx, %rax
 10733 417b 4889C7   		movq	%rax, %rdi
 10734              	.LEHB239:
 10735 417e E8000000 		call	_Unwind_Resume@PLT
 10735      00
 10736              	.LEHE239:
 10737              	.L475:
 10738 4183 488B5DF8 		movq	-8(%rbp), %rbx
 10739 4187 C9       		leave
 10740              		.cfi_def_cfa 7, 8
 10741 4188 C3       		ret
 10742              		.cfi_endproc
 10743              	.LFE1387:
 10744              		.section	.gcc_except_table
 10745              	.LLSDA1387:
 10746 0682 FF       		.byte	0xff
 10747 0683 FF       		.byte	0xff
 10748 0684 01       		.byte	0x1
 10749 0685 08       		.uleb128 .LLSDACSE1387-.LLSDACSB1387
 10750              	.LLSDACSB1387:
 10751 0686 18       		.uleb128 .LEHB238-.LFB1387
 10752 0687 05       		.uleb128 .LEHE238-.LEHB238
 10753 0688 2B       		.uleb128 .L474-.LFB1387
 10754 0689 00       		.uleb128 0
 10755 068a 44       		.uleb128 .LEHB239-.LFB1387
 10756 068b 05       		.uleb128 .LEHE239-.LEHB239
 10757 068c 00       		.uleb128 0
 10758 068d 00       		.uleb128 0
 10759              	.LLSDACSE1387:
 10760              		.text
 10762              		.section	.data.rel.ro.local
 10763              		.align 8
 10766              	_ZTVN12_GLOBAL__N_123TestCheckArrayEqualTrueE:
 10767 0140 00000000 		.quad	0
 10767      00000000 
 10768 0148 00000000 		.quad	_ZTIN12_GLOBAL__N_123TestCheckArrayEqualTrueE
 10768      00000000 
 10769 0150 00000000 		.quad	_ZN12_GLOBAL__N_123TestCheckArrayEqualTrueD1Ev
 10769      00000000 
 10770 0158 00000000 		.quad	_ZN12_GLOBAL__N_123TestCheckArrayEqualTrueD0Ev
 10770      00000000 
 10771 0160 00000000 		.quad	_ZNK12_GLOBAL__N_123TestCheckArrayEqualTrue7RunImplEv
 10771      00000000 
 10772              		.text
 10773 4189 90       		.align 2
 10775              	_ZN12_GLOBAL__N_123TestCheckArrayEqualTrueD2Ev:
 10776              	.LFB1389:
 184:TestChecks.cpp **** {
 10777              		.loc 5 184 1 is_stmt 1
 10778              		.cfi_startproc
 10779 418a F30F1EFA 		endbr64
 10780 418e 55       		pushq	%rbp
 10781              		.cfi_def_cfa_offset 16
 10782              		.cfi_offset 6, -16
 10783 418f 4889E5   		movq	%rsp, %rbp
 10784              		.cfi_def_cfa_register 6
 10785 4192 4883EC10 		subq	$16, %rsp
 10786 4196 48897DF8 		movq	%rdi, -8(%rbp)
 10787              	.LBB91:
 184:TestChecks.cpp **** {
 10788              		.loc 5 184 1
 10789 419a 488D1500 		leaq	16+_ZTVN12_GLOBAL__N_123TestCheckArrayEqualTrueE(%rip), %rdx
 10789      000000
 10790 41a1 488B45F8 		movq	-8(%rbp), %rax
 10791 41a5 488910   		movq	%rdx, (%rax)
 10792 41a8 488B45F8 		movq	-8(%rbp), %rax
 10793 41ac 4889C7   		movq	%rax, %rdi
 10794 41af E8000000 		call	_ZN8UnitTest4TestD2Ev@PLT
 10794      00
 10795              	.LBE91:
 10796 41b4 90       		nop
 10797 41b5 C9       		leave
 10798              		.cfi_def_cfa 7, 8
 10799 41b6 C3       		ret
 10800              		.cfi_endproc
 10801              	.LFE1389:
 10803              		.set	_ZN12_GLOBAL__N_123TestCheckArrayEqualTrueD1Ev,_ZN12_GLOBAL__N_123TestCheckArrayEqualTrueD2Ev
 10804 41b7 90       		.align 2
 10806              	_ZN12_GLOBAL__N_123TestCheckArrayEqualTrueD0Ev:
 10807              	.LFB1391:
 184:TestChecks.cpp **** {
 10808              		.loc 5 184 1
 10809              		.cfi_startproc
 10810              		.cfi_personality 0x9b,DW.ref.__gxx_personality_v0
 10811              		.cfi_lsda 0x1b,.LLSDA1391
 10812 41b8 F30F1EFA 		endbr64
 10813 41bc 55       		pushq	%rbp
 10814              		.cfi_def_cfa_offset 16
 10815              		.cfi_offset 6, -16
 10816 41bd 4889E5   		movq	%rsp, %rbp
 10817              		.cfi_def_cfa_register 6
 10818 41c0 53       		pushq	%rbx
 10819 41c1 4883EC18 		subq	$24, %rsp
 10820              		.cfi_offset 3, -24
 10821 41c5 48897DE8 		movq	%rdi, -24(%rbp)
 184:TestChecks.cpp **** {
 10822              		.loc 5 184 1
 10823 41c9 488B45E8 		movq	-24(%rbp), %rax
 10824 41cd 4889C7   		movq	%rax, %rdi
 10825              	.LEHB240:
 10826 41d0 E8B5FFFF 		call	_ZN12_GLOBAL__N_123TestCheckArrayEqualTrueD1Ev
 10826      FF
 10827              	.LEHE240:
 184:TestChecks.cpp **** {
 10828              		.loc 5 184 1 is_stmt 0 discriminator 2
 10829 41d5 488B45E8 		movq	-24(%rbp), %rax
 10830 41d9 4889C7   		movq	%rax, %rdi
 10831 41dc E8000000 		call	_ZdlPv@PLT
 10831      00
 10832 41e1 EB1E     		jmp	.L480
 10833              	.L479:
 10834 41e3 F30F1EFA 		endbr64
 184:TestChecks.cpp **** {
 10835              		.loc 5 184 1
 10836 41e7 4889C3   		movq	%rax, %rbx
 10837 41ea 488B45E8 		movq	-24(%rbp), %rax
 10838 41ee 4889C7   		movq	%rax, %rdi
 10839 41f1 E8000000 		call	_ZdlPv@PLT
 10839      00
 10840 41f6 4889D8   		movq	%rbx, %rax
 10841 41f9 4889C7   		movq	%rax, %rdi
 10842              	.LEHB241:
 10843 41fc E8000000 		call	_Unwind_Resume@PLT
 10843      00
 10844              	.LEHE241:
 10845              	.L480:
 10846 4201 488B5DF8 		movq	-8(%rbp), %rbx
 10847 4205 C9       		leave
 10848              		.cfi_def_cfa 7, 8
 10849 4206 C3       		ret
 10850              		.cfi_endproc
 10851              	.LFE1391:
 10852              		.section	.gcc_except_table
 10853              	.LLSDA1391:
 10854 068e FF       		.byte	0xff
 10855 068f FF       		.byte	0xff
 10856 0690 01       		.byte	0x1
 10857 0691 08       		.uleb128 .LLSDACSE1391-.LLSDACSB1391
 10858              	.LLSDACSB1391:
 10859 0692 18       		.uleb128 .LEHB240-.LFB1391
 10860 0693 05       		.uleb128 .LEHE240-.LEHB240
 10861 0694 2B       		.uleb128 .L479-.LFB1391
 10862 0695 00       		.uleb128 0
 10863 0696 44       		.uleb128 .LEHB241-.LFB1391
 10864 0697 05       		.uleb128 .LEHE241-.LEHB241
 10865 0698 00       		.uleb128 0
 10866 0699 00       		.uleb128 0
 10867              	.LLSDACSE1391:
 10868              		.text
 10870              		.section	.data.rel.ro.local
 10871              		.align 8
 10874              	_ZTVN12_GLOBAL__N_136TestCheckCloseFailureIncludesDetailsE:
 10875 0168 00000000 		.quad	0
 10875      00000000 
 10876 0170 00000000 		.quad	_ZTIN12_GLOBAL__N_136TestCheckCloseFailureIncludesDetailsE
 10876      00000000 
 10877 0178 00000000 		.quad	_ZN12_GLOBAL__N_136TestCheckCloseFailureIncludesDetailsD1Ev
 10877      00000000 
 10878 0180 00000000 		.quad	_ZN12_GLOBAL__N_136TestCheckCloseFailureIncludesDetailsD0Ev
 10878      00000000 
 10879 0188 00000000 		.quad	_ZNK12_GLOBAL__N_136TestCheckCloseFailureIncludesDetails7RunImplEv
 10879      00000000 
 10880              		.text
 10881 4207 90       		.align 2
 10883              	_ZN12_GLOBAL__N_136TestCheckCloseFailureIncludesDetailsD2Ev:
 10884              	.LFB1393:
 169:TestChecks.cpp **** {
 10885              		.loc 5 169 1 is_stmt 1
 10886              		.cfi_startproc
 10887 4208 F30F1EFA 		endbr64
 10888 420c 55       		pushq	%rbp
 10889              		.cfi_def_cfa_offset 16
 10890              		.cfi_offset 6, -16
 10891 420d 4889E5   		movq	%rsp, %rbp
 10892              		.cfi_def_cfa_register 6
 10893 4210 4883EC10 		subq	$16, %rsp
 10894 4214 48897DF8 		movq	%rdi, -8(%rbp)
 10895              	.LBB92:
 169:TestChecks.cpp **** {
 10896              		.loc 5 169 1
 10897 4218 488D1500 		leaq	16+_ZTVN12_GLOBAL__N_136TestCheckCloseFailureIncludesDetailsE(%rip), %rdx
 10897      000000
 10898 421f 488B45F8 		movq	-8(%rbp), %rax
 10899 4223 488910   		movq	%rdx, (%rax)
 10900 4226 488B45F8 		movq	-8(%rbp), %rax
 10901 422a 4889C7   		movq	%rax, %rdi
 10902 422d E8000000 		call	_ZN8UnitTest4TestD2Ev@PLT
 10902      00
 10903              	.LBE92:
 10904 4232 90       		nop
 10905 4233 C9       		leave
 10906              		.cfi_def_cfa 7, 8
 10907 4234 C3       		ret
 10908              		.cfi_endproc
 10909              	.LFE1393:
 10911              		.set	_ZN12_GLOBAL__N_136TestCheckCloseFailureIncludesDetailsD1Ev,_ZN12_GLOBAL__N_136TestCheckClose
 10912 4235 90       		.align 2
 10914              	_ZN12_GLOBAL__N_136TestCheckCloseFailureIncludesDetailsD0Ev:
 10915              	.LFB1395:
 169:TestChecks.cpp **** {
 10916              		.loc 5 169 1
 10917              		.cfi_startproc
 10918              		.cfi_personality 0x9b,DW.ref.__gxx_personality_v0
 10919              		.cfi_lsda 0x1b,.LLSDA1395
 10920 4236 F30F1EFA 		endbr64
 10921 423a 55       		pushq	%rbp
 10922              		.cfi_def_cfa_offset 16
 10923              		.cfi_offset 6, -16
 10924 423b 4889E5   		movq	%rsp, %rbp
 10925              		.cfi_def_cfa_register 6
 10926 423e 53       		pushq	%rbx
 10927 423f 4883EC18 		subq	$24, %rsp
 10928              		.cfi_offset 3, -24
 10929 4243 48897DE8 		movq	%rdi, -24(%rbp)
 169:TestChecks.cpp **** {
 10930              		.loc 5 169 1
 10931 4247 488B45E8 		movq	-24(%rbp), %rax
 10932 424b 4889C7   		movq	%rax, %rdi
 10933              	.LEHB242:
 10934 424e E8B5FFFF 		call	_ZN12_GLOBAL__N_136TestCheckCloseFailureIncludesDetailsD1Ev
 10934      FF
 10935              	.LEHE242:
 169:TestChecks.cpp **** {
 10936              		.loc 5 169 1 is_stmt 0 discriminator 2
 10937 4253 488B45E8 		movq	-24(%rbp), %rax
 10938 4257 4889C7   		movq	%rax, %rdi
 10939 425a E8000000 		call	_ZdlPv@PLT
 10939      00
 10940 425f EB1E     		jmp	.L485
 10941              	.L484:
 10942 4261 F30F1EFA 		endbr64
 169:TestChecks.cpp **** {
 10943              		.loc 5 169 1
 10944 4265 4889C3   		movq	%rax, %rbx
 10945 4268 488B45E8 		movq	-24(%rbp), %rax
 10946 426c 4889C7   		movq	%rax, %rdi
 10947 426f E8000000 		call	_ZdlPv@PLT
 10947      00
 10948 4274 4889D8   		movq	%rbx, %rax
 10949 4277 4889C7   		movq	%rax, %rdi
 10950              	.LEHB243:
 10951 427a E8000000 		call	_Unwind_Resume@PLT
 10951      00
 10952              	.LEHE243:
 10953              	.L485:
 10954 427f 488B5DF8 		movq	-8(%rbp), %rbx
 10955 4283 C9       		leave
 10956              		.cfi_def_cfa 7, 8
 10957 4284 C3       		ret
 10958              		.cfi_endproc
 10959              	.LFE1395:
 10960              		.section	.gcc_except_table
 10961              	.LLSDA1395:
 10962 069a FF       		.byte	0xff
 10963 069b FF       		.byte	0xff
 10964 069c 01       		.byte	0x1
 10965 069d 08       		.uleb128 .LLSDACSE1395-.LLSDACSB1395
 10966              	.LLSDACSB1395:
 10967 069e 18       		.uleb128 .LEHB242-.LFB1395
 10968 069f 05       		.uleb128 .LEHE242-.LEHB242
 10969 06a0 2B       		.uleb128 .L484-.LFB1395
 10970 06a1 00       		.uleb128 0
 10971 06a2 44       		.uleb128 .LEHB243-.LFB1395
 10972 06a3 05       		.uleb128 .LEHE243-.LEHB243
 10973 06a4 00       		.uleb128 0
 10974 06a5 00       		.uleb128 0
 10975              	.LLSDACSE1395:
 10976              		.text
 10978              		.section	.data.rel.ro.local
 10979              		.align 8
 10982              	_ZTVN12_GLOBAL__N_138TestCheckCloseFailureIncludesToleranceE:
 10983 0190 00000000 		.quad	0
 10983      00000000 
 10984 0198 00000000 		.quad	_ZTIN12_GLOBAL__N_138TestCheckCloseFailureIncludesToleranceE
 10984      00000000 
 10985 01a0 00000000 		.quad	_ZN12_GLOBAL__N_138TestCheckCloseFailureIncludesToleranceD1Ev
 10985      00000000 
 10986 01a8 00000000 		.quad	_ZN12_GLOBAL__N_138TestCheckCloseFailureIncludesToleranceD0Ev
 10986      00000000 
 10987 01b0 00000000 		.quad	_ZNK12_GLOBAL__N_138TestCheckCloseFailureIncludesTolerance7RunImplEv
 10987      00000000 
 10988              		.text
 10989 4285 90       		.align 2
 10991              	_ZN12_GLOBAL__N_138TestCheckCloseFailureIncludesToleranceD2Ev:
 10992              	.LFB1397:
 159:TestChecks.cpp **** {
 10993              		.loc 5 159 1 is_stmt 1
 10994              		.cfi_startproc
 10995 4286 F30F1EFA 		endbr64
 10996 428a 55       		pushq	%rbp
 10997              		.cfi_def_cfa_offset 16
 10998              		.cfi_offset 6, -16
 10999 428b 4889E5   		movq	%rsp, %rbp
 11000              		.cfi_def_cfa_register 6
 11001 428e 4883EC10 		subq	$16, %rsp
 11002 4292 48897DF8 		movq	%rdi, -8(%rbp)
 11003              	.LBB93:
 159:TestChecks.cpp **** {
 11004              		.loc 5 159 1
 11005 4296 488D1500 		leaq	16+_ZTVN12_GLOBAL__N_138TestCheckCloseFailureIncludesToleranceE(%rip), %rdx
 11005      000000
 11006 429d 488B45F8 		movq	-8(%rbp), %rax
 11007 42a1 488910   		movq	%rdx, (%rax)
 11008 42a4 488B45F8 		movq	-8(%rbp), %rax
 11009 42a8 4889C7   		movq	%rax, %rdi
 11010 42ab E8000000 		call	_ZN8UnitTest4TestD2Ev@PLT
 11010      00
 11011              	.LBE93:
 11012 42b0 90       		nop
 11013 42b1 C9       		leave
 11014              		.cfi_def_cfa 7, 8
 11015 42b2 C3       		ret
 11016              		.cfi_endproc
 11017              	.LFE1397:
 11019              		.set	_ZN12_GLOBAL__N_138TestCheckCloseFailureIncludesToleranceD1Ev,_ZN12_GLOBAL__N_138TestCheckClo
 11020 42b3 90       		.align 2
 11022              	_ZN12_GLOBAL__N_138TestCheckCloseFailureIncludesToleranceD0Ev:
 11023              	.LFB1399:
 159:TestChecks.cpp **** {
 11024              		.loc 5 159 1
 11025              		.cfi_startproc
 11026              		.cfi_personality 0x9b,DW.ref.__gxx_personality_v0
 11027              		.cfi_lsda 0x1b,.LLSDA1399
 11028 42b4 F30F1EFA 		endbr64
 11029 42b8 55       		pushq	%rbp
 11030              		.cfi_def_cfa_offset 16
 11031              		.cfi_offset 6, -16
 11032 42b9 4889E5   		movq	%rsp, %rbp
 11033              		.cfi_def_cfa_register 6
 11034 42bc 53       		pushq	%rbx
 11035 42bd 4883EC18 		subq	$24, %rsp
 11036              		.cfi_offset 3, -24
 11037 42c1 48897DE8 		movq	%rdi, -24(%rbp)
 159:TestChecks.cpp **** {
 11038              		.loc 5 159 1
 11039 42c5 488B45E8 		movq	-24(%rbp), %rax
 11040 42c9 4889C7   		movq	%rax, %rdi
 11041              	.LEHB244:
 11042 42cc E8B5FFFF 		call	_ZN12_GLOBAL__N_138TestCheckCloseFailureIncludesToleranceD1Ev
 11042      FF
 11043              	.LEHE244:
 159:TestChecks.cpp **** {
 11044              		.loc 5 159 1 is_stmt 0 discriminator 2
 11045 42d1 488B45E8 		movq	-24(%rbp), %rax
 11046 42d5 4889C7   		movq	%rax, %rdi
 11047 42d8 E8000000 		call	_ZdlPv@PLT
 11047      00
 11048 42dd EB1E     		jmp	.L490
 11049              	.L489:
 11050 42df F30F1EFA 		endbr64
 159:TestChecks.cpp **** {
 11051              		.loc 5 159 1
 11052 42e3 4889C3   		movq	%rax, %rbx
 11053 42e6 488B45E8 		movq	-24(%rbp), %rax
 11054 42ea 4889C7   		movq	%rax, %rdi
 11055 42ed E8000000 		call	_ZdlPv@PLT
 11055      00
 11056 42f2 4889D8   		movq	%rbx, %rax
 11057 42f5 4889C7   		movq	%rax, %rdi
 11058              	.LEHB245:
 11059 42f8 E8000000 		call	_Unwind_Resume@PLT
 11059      00
 11060              	.LEHE245:
 11061              	.L490:
 11062 42fd 488B5DF8 		movq	-8(%rbp), %rbx
 11063 4301 C9       		leave
 11064              		.cfi_def_cfa 7, 8
 11065 4302 C3       		ret
 11066              		.cfi_endproc
 11067              	.LFE1399:
 11068              		.section	.gcc_except_table
 11069              	.LLSDA1399:
 11070 06a6 FF       		.byte	0xff
 11071 06a7 FF       		.byte	0xff
 11072 06a8 01       		.byte	0x1
 11073 06a9 08       		.uleb128 .LLSDACSE1399-.LLSDACSB1399
 11074              	.LLSDACSB1399:
 11075 06aa 18       		.uleb128 .LEHB244-.LFB1399
 11076 06ab 05       		.uleb128 .LEHE244-.LEHB244
 11077 06ac 2B       		.uleb128 .L489-.LFB1399
 11078 06ad 00       		.uleb128 0
 11079 06ae 44       		.uleb128 .LEHB245-.LFB1399
 11080 06af 05       		.uleb128 .LEHE245-.LEHB245
 11081 06b0 00       		.uleb128 0
 11082 06b1 00       		.uleb128 0
 11083              	.LLSDACSE1399:
 11084              		.text
 11086              		.section	.data.rel.ro.local
 11087              		.align 8
 11090              	_ZTVN12_GLOBAL__N_151TestCheckCloseFailureIncludesCheckExpectedAndActualE:
 11091 01b8 00000000 		.quad	0
 11091      00000000 
 11092 01c0 00000000 		.quad	_ZTIN12_GLOBAL__N_151TestCheckCloseFailureIncludesCheckExpectedAndActualE
 11092      00000000 
 11093 01c8 00000000 		.quad	_ZN12_GLOBAL__N_151TestCheckCloseFailureIncludesCheckExpectedAndActualD1Ev
 11093      00000000 
 11094 01d0 00000000 		.quad	_ZN12_GLOBAL__N_151TestCheckCloseFailureIncludesCheckExpectedAndActualD0Ev
 11094      00000000 
 11095 01d8 00000000 		.quad	_ZNK12_GLOBAL__N_151TestCheckCloseFailureIncludesCheckExpectedAndActual7RunImplEv
 11095      00000000 
 11096              		.text
 11097 4303 90       		.align 2
 11099              	_ZN12_GLOBAL__N_151TestCheckCloseFailureIncludesCheckExpectedAndActualD2Ev:
 11100              	.LFB1401:
 146:TestChecks.cpp **** {
 11101              		.loc 5 146 1 is_stmt 1
 11102              		.cfi_startproc
 11103 4304 F30F1EFA 		endbr64
 11104 4308 55       		pushq	%rbp
 11105              		.cfi_def_cfa_offset 16
 11106              		.cfi_offset 6, -16
 11107 4309 4889E5   		movq	%rsp, %rbp
 11108              		.cfi_def_cfa_register 6
 11109 430c 4883EC10 		subq	$16, %rsp
 11110 4310 48897DF8 		movq	%rdi, -8(%rbp)
 11111              	.LBB94:
 146:TestChecks.cpp **** {
 11112              		.loc 5 146 1
 11113 4314 488D1500 		leaq	16+_ZTVN12_GLOBAL__N_151TestCheckCloseFailureIncludesCheckExpectedAndActualE(%rip), %rdx
 11113      000000
 11114 431b 488B45F8 		movq	-8(%rbp), %rax
 11115 431f 488910   		movq	%rdx, (%rax)
 11116 4322 488B45F8 		movq	-8(%rbp), %rax
 11117 4326 4889C7   		movq	%rax, %rdi
 11118 4329 E8000000 		call	_ZN8UnitTest4TestD2Ev@PLT
 11118      00
 11119              	.LBE94:
 11120 432e 90       		nop
 11121 432f C9       		leave
 11122              		.cfi_def_cfa 7, 8
 11123 4330 C3       		ret
 11124              		.cfi_endproc
 11125              	.LFE1401:
 11127              		.set	_ZN12_GLOBAL__N_151TestCheckCloseFailureIncludesCheckExpectedAndActualD1Ev,_ZN12_GLOBAL__N_15
 11128 4331 90       		.align 2
 11130              	_ZN12_GLOBAL__N_151TestCheckCloseFailureIncludesCheckExpectedAndActualD0Ev:
 11131              	.LFB1403:
 146:TestChecks.cpp **** {
 11132              		.loc 5 146 1
 11133              		.cfi_startproc
 11134              		.cfi_personality 0x9b,DW.ref.__gxx_personality_v0
 11135              		.cfi_lsda 0x1b,.LLSDA1403
 11136 4332 F30F1EFA 		endbr64
 11137 4336 55       		pushq	%rbp
 11138              		.cfi_def_cfa_offset 16
 11139              		.cfi_offset 6, -16
 11140 4337 4889E5   		movq	%rsp, %rbp
 11141              		.cfi_def_cfa_register 6
 11142 433a 53       		pushq	%rbx
 11143 433b 4883EC18 		subq	$24, %rsp
 11144              		.cfi_offset 3, -24
 11145 433f 48897DE8 		movq	%rdi, -24(%rbp)
 146:TestChecks.cpp **** {
 11146              		.loc 5 146 1
 11147 4343 488B45E8 		movq	-24(%rbp), %rax
 11148 4347 4889C7   		movq	%rax, %rdi
 11149              	.LEHB246:
 11150 434a E8B5FFFF 		call	_ZN12_GLOBAL__N_151TestCheckCloseFailureIncludesCheckExpectedAndActualD1Ev
 11150      FF
 11151              	.LEHE246:
 146:TestChecks.cpp **** {
 11152              		.loc 5 146 1 is_stmt 0 discriminator 2
 11153 434f 488B45E8 		movq	-24(%rbp), %rax
 11154 4353 4889C7   		movq	%rax, %rdi
 11155 4356 E8000000 		call	_ZdlPv@PLT
 11155      00
 11156 435b EB1E     		jmp	.L495
 11157              	.L494:
 11158 435d F30F1EFA 		endbr64
 146:TestChecks.cpp **** {
 11159              		.loc 5 146 1
 11160 4361 4889C3   		movq	%rax, %rbx
 11161 4364 488B45E8 		movq	-24(%rbp), %rax
 11162 4368 4889C7   		movq	%rax, %rdi
 11163 436b E8000000 		call	_ZdlPv@PLT
 11163      00
 11164 4370 4889D8   		movq	%rbx, %rax
 11165 4373 4889C7   		movq	%rax, %rdi
 11166              	.LEHB247:
 11167 4376 E8000000 		call	_Unwind_Resume@PLT
 11167      00
 11168              	.LEHE247:
 11169              	.L495:
 11170 437b 488B5DF8 		movq	-8(%rbp), %rbx
 11171 437f C9       		leave
 11172              		.cfi_def_cfa 7, 8
 11173 4380 C3       		ret
 11174              		.cfi_endproc
 11175              	.LFE1403:
 11176              		.section	.gcc_except_table
 11177              	.LLSDA1403:
 11178 06b2 FF       		.byte	0xff
 11179 06b3 FF       		.byte	0xff
 11180 06b4 01       		.byte	0x1
 11181 06b5 08       		.uleb128 .LLSDACSE1403-.LLSDACSB1403
 11182              	.LLSDACSB1403:
 11183 06b6 18       		.uleb128 .LEHB246-.LFB1403
 11184 06b7 05       		.uleb128 .LEHE246-.LEHB246
 11185 06b8 2B       		.uleb128 .L494-.LFB1403
 11186 06b9 00       		.uleb128 0
 11187 06ba 44       		.uleb128 .LEHB247-.LFB1403
 11188 06bb 05       		.uleb128 .LEHE247-.LEHB247
 11189 06bc 00       		.uleb128 0
 11190 06bd 00       		.uleb128 0
 11191              	.LLSDACSE1403:
 11192              		.text
 11194              		.section	.data.rel.ro.local
 11195              		.align 8
 11198              	_ZTVN12_GLOBAL__N_139TestCheckCloseWithNaNAgainstItselfFailsE:
 11199 01e0 00000000 		.quad	0
 11199      00000000 
 11200 01e8 00000000 		.quad	_ZTIN12_GLOBAL__N_139TestCheckCloseWithNaNAgainstItselfFailsE
 11200      00000000 
 11201 01f0 00000000 		.quad	_ZN12_GLOBAL__N_139TestCheckCloseWithNaNAgainstItselfFailsD1Ev
 11201      00000000 
 11202 01f8 00000000 		.quad	_ZN12_GLOBAL__N_139TestCheckCloseWithNaNAgainstItselfFailsD0Ev
 11202      00000000 
 11203 0200 00000000 		.quad	_ZNK12_GLOBAL__N_139TestCheckCloseWithNaNAgainstItselfFails7RunImplEv
 11203      00000000 
 11204              		.text
 11205 4381 90       		.align 2
 11207              	_ZN12_GLOBAL__N_139TestCheckCloseWithNaNAgainstItselfFailsD2Ev:
 11208              	.LFB1405:
 133:TestChecks.cpp **** {
 11209              		.loc 5 133 1 is_stmt 1
 11210              		.cfi_startproc
 11211 4382 F30F1EFA 		endbr64
 11212 4386 55       		pushq	%rbp
 11213              		.cfi_def_cfa_offset 16
 11214              		.cfi_offset 6, -16
 11215 4387 4889E5   		movq	%rsp, %rbp
 11216              		.cfi_def_cfa_register 6
 11217 438a 4883EC10 		subq	$16, %rsp
 11218 438e 48897DF8 		movq	%rdi, -8(%rbp)
 11219              	.LBB95:
 133:TestChecks.cpp **** {
 11220              		.loc 5 133 1
 11221 4392 488D1500 		leaq	16+_ZTVN12_GLOBAL__N_139TestCheckCloseWithNaNAgainstItselfFailsE(%rip), %rdx
 11221      000000
 11222 4399 488B45F8 		movq	-8(%rbp), %rax
 11223 439d 488910   		movq	%rdx, (%rax)
 11224 43a0 488B45F8 		movq	-8(%rbp), %rax
 11225 43a4 4889C7   		movq	%rax, %rdi
 11226 43a7 E8000000 		call	_ZN8UnitTest4TestD2Ev@PLT
 11226      00
 11227              	.LBE95:
 11228 43ac 90       		nop
 11229 43ad C9       		leave
 11230              		.cfi_def_cfa 7, 8
 11231 43ae C3       		ret
 11232              		.cfi_endproc
 11233              	.LFE1405:
 11235              		.set	_ZN12_GLOBAL__N_139TestCheckCloseWithNaNAgainstItselfFailsD1Ev,_ZN12_GLOBAL__N_139TestCheckCl
 11236 43af 90       		.align 2
 11238              	_ZN12_GLOBAL__N_139TestCheckCloseWithNaNAgainstItselfFailsD0Ev:
 11239              	.LFB1407:
 133:TestChecks.cpp **** {
 11240              		.loc 5 133 1
 11241              		.cfi_startproc
 11242              		.cfi_personality 0x9b,DW.ref.__gxx_personality_v0
 11243              		.cfi_lsda 0x1b,.LLSDA1407
 11244 43b0 F30F1EFA 		endbr64
 11245 43b4 55       		pushq	%rbp
 11246              		.cfi_def_cfa_offset 16
 11247              		.cfi_offset 6, -16
 11248 43b5 4889E5   		movq	%rsp, %rbp
 11249              		.cfi_def_cfa_register 6
 11250 43b8 53       		pushq	%rbx
 11251 43b9 4883EC18 		subq	$24, %rsp
 11252              		.cfi_offset 3, -24
 11253 43bd 48897DE8 		movq	%rdi, -24(%rbp)
 133:TestChecks.cpp **** {
 11254              		.loc 5 133 1
 11255 43c1 488B45E8 		movq	-24(%rbp), %rax
 11256 43c5 4889C7   		movq	%rax, %rdi
 11257              	.LEHB248:
 11258 43c8 E8B5FFFF 		call	_ZN12_GLOBAL__N_139TestCheckCloseWithNaNAgainstItselfFailsD1Ev
 11258      FF
 11259              	.LEHE248:
 133:TestChecks.cpp **** {
 11260              		.loc 5 133 1 is_stmt 0 discriminator 2
 11261 43cd 488B45E8 		movq	-24(%rbp), %rax
 11262 43d1 4889C7   		movq	%rax, %rdi
 11263 43d4 E8000000 		call	_ZdlPv@PLT
 11263      00
 11264 43d9 EB1E     		jmp	.L500
 11265              	.L499:
 11266 43db F30F1EFA 		endbr64
 133:TestChecks.cpp **** {
 11267              		.loc 5 133 1
 11268 43df 4889C3   		movq	%rax, %rbx
 11269 43e2 488B45E8 		movq	-24(%rbp), %rax
 11270 43e6 4889C7   		movq	%rax, %rdi
 11271 43e9 E8000000 		call	_ZdlPv@PLT
 11271      00
 11272 43ee 4889D8   		movq	%rbx, %rax
 11273 43f1 4889C7   		movq	%rax, %rdi
 11274              	.LEHB249:
 11275 43f4 E8000000 		call	_Unwind_Resume@PLT
 11275      00
 11276              	.LEHE249:
 11277              	.L500:
 11278 43f9 488B5DF8 		movq	-8(%rbp), %rbx
 11279 43fd C9       		leave
 11280              		.cfi_def_cfa 7, 8
 11281 43fe C3       		ret
 11282              		.cfi_endproc
 11283              	.LFE1407:
 11284              		.section	.gcc_except_table
 11285              	.LLSDA1407:
 11286 06be FF       		.byte	0xff
 11287 06bf FF       		.byte	0xff
 11288 06c0 01       		.byte	0x1
 11289 06c1 08       		.uleb128 .LLSDACSE1407-.LLSDACSB1407
 11290              	.LLSDACSB1407:
 11291 06c2 18       		.uleb128 .LEHB248-.LFB1407
 11292 06c3 05       		.uleb128 .LEHE248-.LEHB248
 11293 06c4 2B       		.uleb128 .L499-.LFB1407
 11294 06c5 00       		.uleb128 0
 11295 06c6 44       		.uleb128 .LEHB249-.LFB1407
 11296 06c7 05       		.uleb128 .LEHE249-.LEHB249
 11297 06c8 00       		.uleb128 0
 11298 06c9 00       		.uleb128 0
 11299              	.LLSDACSE1407:
 11300              		.text
 11302              		.section	.data.rel.ro.local
 11303              		.align 8
 11306              	_ZTVN12_GLOBAL__N_126TestCheckCloseWithNaNFailsE:
 11307 0208 00000000 		.quad	0
 11307      00000000 
 11308 0210 00000000 		.quad	_ZTIN12_GLOBAL__N_126TestCheckCloseWithNaNFailsE
 11308      00000000 
 11309 0218 00000000 		.quad	_ZN12_GLOBAL__N_126TestCheckCloseWithNaNFailsD1Ev
 11309      00000000 
 11310 0220 00000000 		.quad	_ZN12_GLOBAL__N_126TestCheckCloseWithNaNFailsD0Ev
 11310      00000000 
 11311 0228 00000000 		.quad	_ZNK12_GLOBAL__N_126TestCheckCloseWithNaNFails7RunImplEv
 11311      00000000 
 11312              		.text
 11313 43ff 90       		.align 2
 11315              	_ZN12_GLOBAL__N_126TestCheckCloseWithNaNFailsD2Ev:
 11316              	.LFB1409:
 120:TestChecks.cpp **** {
 11317              		.loc 5 120 1 is_stmt 1
 11318              		.cfi_startproc
 11319 4400 F30F1EFA 		endbr64
 11320 4404 55       		pushq	%rbp
 11321              		.cfi_def_cfa_offset 16
 11322              		.cfi_offset 6, -16
 11323 4405 4889E5   		movq	%rsp, %rbp
 11324              		.cfi_def_cfa_register 6
 11325 4408 4883EC10 		subq	$16, %rsp
 11326 440c 48897DF8 		movq	%rdi, -8(%rbp)
 11327              	.LBB96:
 120:TestChecks.cpp **** {
 11328              		.loc 5 120 1
 11329 4410 488D1500 		leaq	16+_ZTVN12_GLOBAL__N_126TestCheckCloseWithNaNFailsE(%rip), %rdx
 11329      000000
 11330 4417 488B45F8 		movq	-8(%rbp), %rax
 11331 441b 488910   		movq	%rdx, (%rax)
 11332 441e 488B45F8 		movq	-8(%rbp), %rax
 11333 4422 4889C7   		movq	%rax, %rdi
 11334 4425 E8000000 		call	_ZN8UnitTest4TestD2Ev@PLT
 11334      00
 11335              	.LBE96:
 11336 442a 90       		nop
 11337 442b C9       		leave
 11338              		.cfi_def_cfa 7, 8
 11339 442c C3       		ret
 11340              		.cfi_endproc
 11341              	.LFE1409:
 11343              		.set	_ZN12_GLOBAL__N_126TestCheckCloseWithNaNFailsD1Ev,_ZN12_GLOBAL__N_126TestCheckCloseWithNaNFai
 11344 442d 90       		.align 2
 11346              	_ZN12_GLOBAL__N_126TestCheckCloseWithNaNFailsD0Ev:
 11347              	.LFB1411:
 120:TestChecks.cpp **** {
 11348              		.loc 5 120 1
 11349              		.cfi_startproc
 11350              		.cfi_personality 0x9b,DW.ref.__gxx_personality_v0
 11351              		.cfi_lsda 0x1b,.LLSDA1411
 11352 442e F30F1EFA 		endbr64
 11353 4432 55       		pushq	%rbp
 11354              		.cfi_def_cfa_offset 16
 11355              		.cfi_offset 6, -16
 11356 4433 4889E5   		movq	%rsp, %rbp
 11357              		.cfi_def_cfa_register 6
 11358 4436 53       		pushq	%rbx
 11359 4437 4883EC18 		subq	$24, %rsp
 11360              		.cfi_offset 3, -24
 11361 443b 48897DE8 		movq	%rdi, -24(%rbp)
 120:TestChecks.cpp **** {
 11362              		.loc 5 120 1
 11363 443f 488B45E8 		movq	-24(%rbp), %rax
 11364 4443 4889C7   		movq	%rax, %rdi
 11365              	.LEHB250:
 11366 4446 E8B5FFFF 		call	_ZN12_GLOBAL__N_126TestCheckCloseWithNaNFailsD1Ev
 11366      FF
 11367              	.LEHE250:
 120:TestChecks.cpp **** {
 11368              		.loc 5 120 1 is_stmt 0 discriminator 2
 11369 444b 488B45E8 		movq	-24(%rbp), %rax
 11370 444f 4889C7   		movq	%rax, %rdi
 11371 4452 E8000000 		call	_ZdlPv@PLT
 11371      00
 11372 4457 EB1E     		jmp	.L505
 11373              	.L504:
 11374 4459 F30F1EFA 		endbr64
 120:TestChecks.cpp **** {
 11375              		.loc 5 120 1
 11376 445d 4889C3   		movq	%rax, %rbx
 11377 4460 488B45E8 		movq	-24(%rbp), %rax
 11378 4464 4889C7   		movq	%rax, %rdi
 11379 4467 E8000000 		call	_ZdlPv@PLT
 11379      00
 11380 446c 4889D8   		movq	%rbx, %rax
 11381 446f 4889C7   		movq	%rax, %rdi
 11382              	.LEHB251:
 11383 4472 E8000000 		call	_Unwind_Resume@PLT
 11383      00
 11384              	.LEHE251:
 11385              	.L505:
 11386 4477 488B5DF8 		movq	-8(%rbp), %rbx
 11387 447b C9       		leave
 11388              		.cfi_def_cfa 7, 8
 11389 447c C3       		ret
 11390              		.cfi_endproc
 11391              	.LFE1411:
 11392              		.section	.gcc_except_table
 11393              	.LLSDA1411:
 11394 06ca FF       		.byte	0xff
 11395 06cb FF       		.byte	0xff
 11396 06cc 01       		.byte	0x1
 11397 06cd 08       		.uleb128 .LLSDACSE1411-.LLSDACSB1411
 11398              	.LLSDACSB1411:
 11399 06ce 18       		.uleb128 .LEHB250-.LFB1411
 11400 06cf 05       		.uleb128 .LEHE250-.LEHB250
 11401 06d0 2B       		.uleb128 .L504-.LFB1411
 11402 06d1 00       		.uleb128 0
 11403 06d2 44       		.uleb128 .LEHB251-.LFB1411
 11404 06d3 05       		.uleb128 .LEHE251-.LEHB251
 11405 06d4 00       		.uleb128 0
 11406 06d5 00       		.uleb128 0
 11407              	.LLSDACSE1411:
 11408              		.text
 11410              		.section	.data.rel.ro.local
 11411              		.align 8
 11414              	_ZTVN12_GLOBAL__N_147TestCheckCloseWithZeroEpsilonWorksForSameNumberE:
 11415 0230 00000000 		.quad	0
 11415      00000000 
 11416 0238 00000000 		.quad	_ZTIN12_GLOBAL__N_147TestCheckCloseWithZeroEpsilonWorksForSameNumberE
 11416      00000000 
 11417 0240 00000000 		.quad	_ZN12_GLOBAL__N_147TestCheckCloseWithZeroEpsilonWorksForSameNumberD1Ev
 11417      00000000 
 11418 0248 00000000 		.quad	_ZN12_GLOBAL__N_147TestCheckCloseWithZeroEpsilonWorksForSameNumberD0Ev
 11418      00000000 
 11419 0250 00000000 		.quad	_ZNK12_GLOBAL__N_147TestCheckCloseWithZeroEpsilonWorksForSameNumber7RunImplEv
 11419      00000000 
 11420              		.text
 11421 447d 90       		.align 2
 11423              	_ZN12_GLOBAL__N_147TestCheckCloseWithZeroEpsilonWorksForSameNumberD2Ev:
 11424              	.LFB1413:
 113:TestChecks.cpp **** {
 11425              		.loc 5 113 1 is_stmt 1
 11426              		.cfi_startproc
 11427 447e F30F1EFA 		endbr64
 11428 4482 55       		pushq	%rbp
 11429              		.cfi_def_cfa_offset 16
 11430              		.cfi_offset 6, -16
 11431 4483 4889E5   		movq	%rsp, %rbp
 11432              		.cfi_def_cfa_register 6
 11433 4486 4883EC10 		subq	$16, %rsp
 11434 448a 48897DF8 		movq	%rdi, -8(%rbp)
 11435              	.LBB97:
 113:TestChecks.cpp **** {
 11436              		.loc 5 113 1
 11437 448e 488D1500 		leaq	16+_ZTVN12_GLOBAL__N_147TestCheckCloseWithZeroEpsilonWorksForSameNumberE(%rip), %rdx
 11437      000000
 11438 4495 488B45F8 		movq	-8(%rbp), %rax
 11439 4499 488910   		movq	%rdx, (%rax)
 11440 449c 488B45F8 		movq	-8(%rbp), %rax
 11441 44a0 4889C7   		movq	%rax, %rdi
 11442 44a3 E8000000 		call	_ZN8UnitTest4TestD2Ev@PLT
 11442      00
 11443              	.LBE97:
 11444 44a8 90       		nop
 11445 44a9 C9       		leave
 11446              		.cfi_def_cfa 7, 8
 11447 44aa C3       		ret
 11448              		.cfi_endproc
 11449              	.LFE1413:
 11451              		.set	_ZN12_GLOBAL__N_147TestCheckCloseWithZeroEpsilonWorksForSameNumberD1Ev,_ZN12_GLOBAL__N_147Tes
 11452 44ab 90       		.align 2
 11454              	_ZN12_GLOBAL__N_147TestCheckCloseWithZeroEpsilonWorksForSameNumberD0Ev:
 11455              	.LFB1415:
 113:TestChecks.cpp **** {
 11456              		.loc 5 113 1
 11457              		.cfi_startproc
 11458              		.cfi_personality 0x9b,DW.ref.__gxx_personality_v0
 11459              		.cfi_lsda 0x1b,.LLSDA1415
 11460 44ac F30F1EFA 		endbr64
 11461 44b0 55       		pushq	%rbp
 11462              		.cfi_def_cfa_offset 16
 11463              		.cfi_offset 6, -16
 11464 44b1 4889E5   		movq	%rsp, %rbp
 11465              		.cfi_def_cfa_register 6
 11466 44b4 53       		pushq	%rbx
 11467 44b5 4883EC18 		subq	$24, %rsp
 11468              		.cfi_offset 3, -24
 11469 44b9 48897DE8 		movq	%rdi, -24(%rbp)
 113:TestChecks.cpp **** {
 11470              		.loc 5 113 1
 11471 44bd 488B45E8 		movq	-24(%rbp), %rax
 11472 44c1 4889C7   		movq	%rax, %rdi
 11473              	.LEHB252:
 11474 44c4 E8B5FFFF 		call	_ZN12_GLOBAL__N_147TestCheckCloseWithZeroEpsilonWorksForSameNumberD1Ev
 11474      FF
 11475              	.LEHE252:
 113:TestChecks.cpp **** {
 11476              		.loc 5 113 1 is_stmt 0 discriminator 2
 11477 44c9 488B45E8 		movq	-24(%rbp), %rax
 11478 44cd 4889C7   		movq	%rax, %rdi
 11479 44d0 E8000000 		call	_ZdlPv@PLT
 11479      00
 11480 44d5 EB1E     		jmp	.L510
 11481              	.L509:
 11482 44d7 F30F1EFA 		endbr64
 113:TestChecks.cpp **** {
 11483              		.loc 5 113 1
 11484 44db 4889C3   		movq	%rax, %rbx
 11485 44de 488B45E8 		movq	-24(%rbp), %rax
 11486 44e2 4889C7   		movq	%rax, %rdi
 11487 44e5 E8000000 		call	_ZdlPv@PLT
 11487      00
 11488 44ea 4889D8   		movq	%rbx, %rax
 11489 44ed 4889C7   		movq	%rax, %rdi
 11490              	.LEHB253:
 11491 44f0 E8000000 		call	_Unwind_Resume@PLT
 11491      00
 11492              	.LEHE253:
 11493              	.L510:
 11494 44f5 488B5DF8 		movq	-8(%rbp), %rbx
 11495 44f9 C9       		leave
 11496              		.cfi_def_cfa 7, 8
 11497 44fa C3       		ret
 11498              		.cfi_endproc
 11499              	.LFE1415:
 11500              		.section	.gcc_except_table
 11501              	.LLSDA1415:
 11502 06d6 FF       		.byte	0xff
 11503 06d7 FF       		.byte	0xff
 11504 06d8 01       		.byte	0x1
 11505 06d9 08       		.uleb128 .LLSDACSE1415-.LLSDACSB1415
 11506              	.LLSDACSB1415:
 11507 06da 18       		.uleb128 .LEHB252-.LFB1415
 11508 06db 05       		.uleb128 .LEHE252-.LEHB252
 11509 06dc 2B       		.uleb128 .L509-.LFB1415
 11510 06dd 00       		.uleb128 0
 11511 06de 44       		.uleb128 .LEHB253-.LFB1415
 11512 06df 05       		.uleb128 .LEHE253-.LEHB253
 11513 06e0 00       		.uleb128 0
 11514 06e1 00       		.uleb128 0
 11515              	.LLSDACSE1415:
 11516              		.text
 11518              		.section	.data.rel.ro.local
 11519              		.align 8
 11522              	_ZTVN12_GLOBAL__N_119TestCheckCloseFalseE:
 11523 0258 00000000 		.quad	0
 11523      00000000 
 11524 0260 00000000 		.quad	_ZTIN12_GLOBAL__N_119TestCheckCloseFalseE
 11524      00000000 
 11525 0268 00000000 		.quad	_ZN12_GLOBAL__N_119TestCheckCloseFalseD1Ev
 11525      00000000 
 11526 0270 00000000 		.quad	_ZN12_GLOBAL__N_119TestCheckCloseFalseD0Ev
 11526      00000000 
 11527 0278 00000000 		.quad	_ZNK12_GLOBAL__N_119TestCheckCloseFalse7RunImplEv
 11527      00000000 
 11528              		.text
 11529 44fb 90       		.align 2
 11531              	_ZN12_GLOBAL__N_119TestCheckCloseFalseD2Ev:
 11532              	.LFB1417:
 106:TestChecks.cpp **** {
 11533              		.loc 5 106 1 is_stmt 1
 11534              		.cfi_startproc
 11535 44fc F30F1EFA 		endbr64
 11536 4500 55       		pushq	%rbp
 11537              		.cfi_def_cfa_offset 16
 11538              		.cfi_offset 6, -16
 11539 4501 4889E5   		movq	%rsp, %rbp
 11540              		.cfi_def_cfa_register 6
 11541 4504 4883EC10 		subq	$16, %rsp
 11542 4508 48897DF8 		movq	%rdi, -8(%rbp)
 11543              	.LBB98:
 106:TestChecks.cpp **** {
 11544              		.loc 5 106 1
 11545 450c 488D1500 		leaq	16+_ZTVN12_GLOBAL__N_119TestCheckCloseFalseE(%rip), %rdx
 11545      000000
 11546 4513 488B45F8 		movq	-8(%rbp), %rax
 11547 4517 488910   		movq	%rdx, (%rax)
 11548 451a 488B45F8 		movq	-8(%rbp), %rax
 11549 451e 4889C7   		movq	%rax, %rdi
 11550 4521 E8000000 		call	_ZN8UnitTest4TestD2Ev@PLT
 11550      00
 11551              	.LBE98:
 11552 4526 90       		nop
 11553 4527 C9       		leave
 11554              		.cfi_def_cfa 7, 8
 11555 4528 C3       		ret
 11556              		.cfi_endproc
 11557              	.LFE1417:
 11559              		.set	_ZN12_GLOBAL__N_119TestCheckCloseFalseD1Ev,_ZN12_GLOBAL__N_119TestCheckCloseFalseD2Ev
 11560 4529 90       		.align 2
 11562              	_ZN12_GLOBAL__N_119TestCheckCloseFalseD0Ev:
 11563              	.LFB1419:
 106:TestChecks.cpp **** {
 11564              		.loc 5 106 1
 11565              		.cfi_startproc
 11566              		.cfi_personality 0x9b,DW.ref.__gxx_personality_v0
 11567              		.cfi_lsda 0x1b,.LLSDA1419
 11568 452a F30F1EFA 		endbr64
 11569 452e 55       		pushq	%rbp
 11570              		.cfi_def_cfa_offset 16
 11571              		.cfi_offset 6, -16
 11572 452f 4889E5   		movq	%rsp, %rbp
 11573              		.cfi_def_cfa_register 6
 11574 4532 53       		pushq	%rbx
 11575 4533 4883EC18 		subq	$24, %rsp
 11576              		.cfi_offset 3, -24
 11577 4537 48897DE8 		movq	%rdi, -24(%rbp)
 106:TestChecks.cpp **** {
 11578              		.loc 5 106 1
 11579 453b 488B45E8 		movq	-24(%rbp), %rax
 11580 453f 4889C7   		movq	%rax, %rdi
 11581              	.LEHB254:
 11582 4542 E8B5FFFF 		call	_ZN12_GLOBAL__N_119TestCheckCloseFalseD1Ev
 11582      FF
 11583              	.LEHE254:
 106:TestChecks.cpp **** {
 11584              		.loc 5 106 1 is_stmt 0 discriminator 2
 11585 4547 488B45E8 		movq	-24(%rbp), %rax
 11586 454b 4889C7   		movq	%rax, %rdi
 11587 454e E8000000 		call	_ZdlPv@PLT
 11587      00
 11588 4553 EB1E     		jmp	.L515
 11589              	.L514:
 11590 4555 F30F1EFA 		endbr64
 106:TestChecks.cpp **** {
 11591              		.loc 5 106 1
 11592 4559 4889C3   		movq	%rax, %rbx
 11593 455c 488B45E8 		movq	-24(%rbp), %rax
 11594 4560 4889C7   		movq	%rax, %rdi
 11595 4563 E8000000 		call	_ZdlPv@PLT
 11595      00
 11596 4568 4889D8   		movq	%rbx, %rax
 11597 456b 4889C7   		movq	%rax, %rdi
 11598              	.LEHB255:
 11599 456e E8000000 		call	_Unwind_Resume@PLT
 11599      00
 11600              	.LEHE255:
 11601              	.L515:
 11602 4573 488B5DF8 		movq	-8(%rbp), %rbx
 11603 4577 C9       		leave
 11604              		.cfi_def_cfa 7, 8
 11605 4578 C3       		ret
 11606              		.cfi_endproc
 11607              	.LFE1419:
 11608              		.section	.gcc_except_table
 11609              	.LLSDA1419:
 11610 06e2 FF       		.byte	0xff
 11611 06e3 FF       		.byte	0xff
 11612 06e4 01       		.byte	0x1
 11613 06e5 08       		.uleb128 .LLSDACSE1419-.LLSDACSB1419
 11614              	.LLSDACSB1419:
 11615 06e6 18       		.uleb128 .LEHB254-.LFB1419
 11616 06e7 05       		.uleb128 .LEHE254-.LEHB254
 11617 06e8 2B       		.uleb128 .L514-.LFB1419
 11618 06e9 00       		.uleb128 0
 11619 06ea 44       		.uleb128 .LEHB255-.LFB1419
 11620 06eb 05       		.uleb128 .LEHE255-.LEHB255
 11621 06ec 00       		.uleb128 0
 11622 06ed 00       		.uleb128 0
 11623              	.LLSDACSE1419:
 11624              		.text
 11626              		.section	.data.rel.ro.local
 11627              		.align 8
 11630              	_ZTVN12_GLOBAL__N_118TestCheckCloseTrueE:
 11631 0280 00000000 		.quad	0
 11631      00000000 
 11632 0288 00000000 		.quad	_ZTIN12_GLOBAL__N_118TestCheckCloseTrueE
 11632      00000000 
 11633 0290 00000000 		.quad	_ZN12_GLOBAL__N_118TestCheckCloseTrueD1Ev
 11633      00000000 
 11634 0298 00000000 		.quad	_ZN12_GLOBAL__N_118TestCheckCloseTrueD0Ev
 11634      00000000 
 11635 02a0 00000000 		.quad	_ZNK12_GLOBAL__N_118TestCheckCloseTrue7RunImplEv
 11635      00000000 
 11636              		.text
 11637 4579 90       		.align 2
 11639              	_ZN12_GLOBAL__N_118TestCheckCloseTrueD2Ev:
 11640              	.LFB1421:
  99:TestChecks.cpp **** {
 11641              		.loc 5 99 1 is_stmt 1
 11642              		.cfi_startproc
 11643 457a F30F1EFA 		endbr64
 11644 457e 55       		pushq	%rbp
 11645              		.cfi_def_cfa_offset 16
 11646              		.cfi_offset 6, -16
 11647 457f 4889E5   		movq	%rsp, %rbp
 11648              		.cfi_def_cfa_register 6
 11649 4582 4883EC10 		subq	$16, %rsp
 11650 4586 48897DF8 		movq	%rdi, -8(%rbp)
 11651              	.LBB99:
  99:TestChecks.cpp **** {
 11652              		.loc 5 99 1
 11653 458a 488D1500 		leaq	16+_ZTVN12_GLOBAL__N_118TestCheckCloseTrueE(%rip), %rdx
 11653      000000
 11654 4591 488B45F8 		movq	-8(%rbp), %rax
 11655 4595 488910   		movq	%rdx, (%rax)
 11656 4598 488B45F8 		movq	-8(%rbp), %rax
 11657 459c 4889C7   		movq	%rax, %rdi
 11658 459f E8000000 		call	_ZN8UnitTest4TestD2Ev@PLT
 11658      00
 11659              	.LBE99:
 11660 45a4 90       		nop
 11661 45a5 C9       		leave
 11662              		.cfi_def_cfa 7, 8
 11663 45a6 C3       		ret
 11664              		.cfi_endproc
 11665              	.LFE1421:
 11667              		.set	_ZN12_GLOBAL__N_118TestCheckCloseTrueD1Ev,_ZN12_GLOBAL__N_118TestCheckCloseTrueD2Ev
 11668 45a7 90       		.align 2
 11670              	_ZN12_GLOBAL__N_118TestCheckCloseTrueD0Ev:
 11671              	.LFB1423:
  99:TestChecks.cpp **** {
 11672              		.loc 5 99 1
 11673              		.cfi_startproc
 11674              		.cfi_personality 0x9b,DW.ref.__gxx_personality_v0
 11675              		.cfi_lsda 0x1b,.LLSDA1423
 11676 45a8 F30F1EFA 		endbr64
 11677 45ac 55       		pushq	%rbp
 11678              		.cfi_def_cfa_offset 16
 11679              		.cfi_offset 6, -16
 11680 45ad 4889E5   		movq	%rsp, %rbp
 11681              		.cfi_def_cfa_register 6
 11682 45b0 53       		pushq	%rbx
 11683 45b1 4883EC18 		subq	$24, %rsp
 11684              		.cfi_offset 3, -24
 11685 45b5 48897DE8 		movq	%rdi, -24(%rbp)
  99:TestChecks.cpp **** {
 11686              		.loc 5 99 1
 11687 45b9 488B45E8 		movq	-24(%rbp), %rax
 11688 45bd 4889C7   		movq	%rax, %rdi
 11689              	.LEHB256:
 11690 45c0 E8B5FFFF 		call	_ZN12_GLOBAL__N_118TestCheckCloseTrueD1Ev
 11690      FF
 11691              	.LEHE256:
  99:TestChecks.cpp **** {
 11692              		.loc 5 99 1 is_stmt 0 discriminator 2
 11693 45c5 488B45E8 		movq	-24(%rbp), %rax
 11694 45c9 4889C7   		movq	%rax, %rdi
 11695 45cc E8000000 		call	_ZdlPv@PLT
 11695      00
 11696 45d1 EB1E     		jmp	.L520
 11697              	.L519:
 11698 45d3 F30F1EFA 		endbr64
  99:TestChecks.cpp **** {
 11699              		.loc 5 99 1
 11700 45d7 4889C3   		movq	%rax, %rbx
 11701 45da 488B45E8 		movq	-24(%rbp), %rax
 11702 45de 4889C7   		movq	%rax, %rdi
 11703 45e1 E8000000 		call	_ZdlPv@PLT
 11703      00
 11704 45e6 4889D8   		movq	%rbx, %rax
 11705 45e9 4889C7   		movq	%rax, %rdi
 11706              	.LEHB257:
 11707 45ec E8000000 		call	_Unwind_Resume@PLT
 11707      00
 11708              	.LEHE257:
 11709              	.L520:
 11710 45f1 488B5DF8 		movq	-8(%rbp), %rbx
 11711 45f5 C9       		leave
 11712              		.cfi_def_cfa 7, 8
 11713 45f6 C3       		ret
 11714              		.cfi_endproc
 11715              	.LFE1423:
 11716              		.section	.gcc_except_table
 11717              	.LLSDA1423:
 11718 06ee FF       		.byte	0xff
 11719 06ef FF       		.byte	0xff
 11720 06f0 01       		.byte	0x1
 11721 06f1 08       		.uleb128 .LLSDACSE1423-.LLSDACSB1423
 11722              	.LLSDACSB1423:
 11723 06f2 18       		.uleb128 .LEHB256-.LFB1423
 11724 06f3 05       		.uleb128 .LEHE256-.LEHB256
 11725 06f4 2B       		.uleb128 .L519-.LFB1423
 11726 06f5 00       		.uleb128 0
 11727 06f6 44       		.uleb128 .LEHB257-.LFB1423
 11728 06f7 05       		.uleb128 .LEHE257-.LEHB257
 11729 06f8 00       		.uleb128 0
 11730 06f9 00       		.uleb128 0
 11731              	.LLSDACSE1423:
 11732              		.text
 11734              		.section	.data.rel.ro.local
 11735              		.align 8
 11738              	_ZTVN12_GLOBAL__N_136TestCheckEqualFailureIncludesDetailsE:
 11739 02a8 00000000 		.quad	0
 11739      00000000 
 11740 02b0 00000000 		.quad	_ZTIN12_GLOBAL__N_136TestCheckEqualFailureIncludesDetailsE
 11740      00000000 
 11741 02b8 00000000 		.quad	_ZN12_GLOBAL__N_136TestCheckEqualFailureIncludesDetailsD1Ev
 11741      00000000 
 11742 02c0 00000000 		.quad	_ZN12_GLOBAL__N_136TestCheckEqualFailureIncludesDetailsD0Ev
 11742      00000000 
 11743 02c8 00000000 		.quad	_ZNK12_GLOBAL__N_136TestCheckEqualFailureIncludesDetails7RunImplEv
 11743      00000000 
 11744              		.text
 11745 45f7 90       		.align 2
 11747              	_ZN12_GLOBAL__N_136TestCheckEqualFailureIncludesDetailsD2Ev:
 11748              	.LFB1425:
  85:TestChecks.cpp **** {
 11749              		.loc 5 85 1 is_stmt 1
 11750              		.cfi_startproc
 11751 45f8 F30F1EFA 		endbr64
 11752 45fc 55       		pushq	%rbp
 11753              		.cfi_def_cfa_offset 16
 11754              		.cfi_offset 6, -16
 11755 45fd 4889E5   		movq	%rsp, %rbp
 11756              		.cfi_def_cfa_register 6
 11757 4600 4883EC10 		subq	$16, %rsp
 11758 4604 48897DF8 		movq	%rdi, -8(%rbp)
 11759              	.LBB100:
  85:TestChecks.cpp **** {
 11760              		.loc 5 85 1
 11761 4608 488D1500 		leaq	16+_ZTVN12_GLOBAL__N_136TestCheckEqualFailureIncludesDetailsE(%rip), %rdx
 11761      000000
 11762 460f 488B45F8 		movq	-8(%rbp), %rax
 11763 4613 488910   		movq	%rdx, (%rax)
 11764 4616 488B45F8 		movq	-8(%rbp), %rax
 11765 461a 4889C7   		movq	%rax, %rdi
 11766 461d E8000000 		call	_ZN8UnitTest4TestD2Ev@PLT
 11766      00
 11767              	.LBE100:
 11768 4622 90       		nop
 11769 4623 C9       		leave
 11770              		.cfi_def_cfa 7, 8
 11771 4624 C3       		ret
 11772              		.cfi_endproc
 11773              	.LFE1425:
 11775              		.set	_ZN12_GLOBAL__N_136TestCheckEqualFailureIncludesDetailsD1Ev,_ZN12_GLOBAL__N_136TestCheckEqual
 11776 4625 90       		.align 2
 11778              	_ZN12_GLOBAL__N_136TestCheckEqualFailureIncludesDetailsD0Ev:
 11779              	.LFB1427:
  85:TestChecks.cpp **** {
 11780              		.loc 5 85 1
 11781              		.cfi_startproc
 11782              		.cfi_personality 0x9b,DW.ref.__gxx_personality_v0
 11783              		.cfi_lsda 0x1b,.LLSDA1427
 11784 4626 F30F1EFA 		endbr64
 11785 462a 55       		pushq	%rbp
 11786              		.cfi_def_cfa_offset 16
 11787              		.cfi_offset 6, -16
 11788 462b 4889E5   		movq	%rsp, %rbp
 11789              		.cfi_def_cfa_register 6
 11790 462e 53       		pushq	%rbx
 11791 462f 4883EC18 		subq	$24, %rsp
 11792              		.cfi_offset 3, -24
 11793 4633 48897DE8 		movq	%rdi, -24(%rbp)
  85:TestChecks.cpp **** {
 11794              		.loc 5 85 1
 11795 4637 488B45E8 		movq	-24(%rbp), %rax
 11796 463b 4889C7   		movq	%rax, %rdi
 11797              	.LEHB258:
 11798 463e E8B5FFFF 		call	_ZN12_GLOBAL__N_136TestCheckEqualFailureIncludesDetailsD1Ev
 11798      FF
 11799              	.LEHE258:
  85:TestChecks.cpp **** {
 11800              		.loc 5 85 1 is_stmt 0 discriminator 2
 11801 4643 488B45E8 		movq	-24(%rbp), %rax
 11802 4647 4889C7   		movq	%rax, %rdi
 11803 464a E8000000 		call	_ZdlPv@PLT
 11803      00
 11804 464f EB1E     		jmp	.L525
 11805              	.L524:
 11806 4651 F30F1EFA 		endbr64
  85:TestChecks.cpp **** {
 11807              		.loc 5 85 1
 11808 4655 4889C3   		movq	%rax, %rbx
 11809 4658 488B45E8 		movq	-24(%rbp), %rax
 11810 465c 4889C7   		movq	%rax, %rdi
 11811 465f E8000000 		call	_ZdlPv@PLT
 11811      00
 11812 4664 4889D8   		movq	%rbx, %rax
 11813 4667 4889C7   		movq	%rax, %rdi
 11814              	.LEHB259:
 11815 466a E8000000 		call	_Unwind_Resume@PLT
 11815      00
 11816              	.LEHE259:
 11817              	.L525:
 11818 466f 488B5DF8 		movq	-8(%rbp), %rbx
 11819 4673 C9       		leave
 11820              		.cfi_def_cfa 7, 8
 11821 4674 C3       		ret
 11822              		.cfi_endproc
 11823              	.LFE1427:
 11824              		.section	.gcc_except_table
 11825              	.LLSDA1427:
 11826 06fa FF       		.byte	0xff
 11827 06fb FF       		.byte	0xff
 11828 06fc 01       		.byte	0x1
 11829 06fd 08       		.uleb128 .LLSDACSE1427-.LLSDACSB1427
 11830              	.LLSDACSB1427:
 11831 06fe 18       		.uleb128 .LEHB258-.LFB1427
 11832 06ff 05       		.uleb128 .LEHE258-.LEHB258
 11833 0700 2B       		.uleb128 .L524-.LFB1427
 11834 0701 00       		.uleb128 0
 11835 0702 44       		.uleb128 .LEHB259-.LFB1427
 11836 0703 05       		.uleb128 .LEHE259-.LEHB259
 11837 0704 00       		.uleb128 0
 11838 0705 00       		.uleb128 0
 11839              	.LLSDACSE1427:
 11840              		.text
 11842              		.section	.data.rel.ro.local
 11843              		.align 8
 11846              	_ZTVN12_GLOBAL__N_151TestCheckEqualFailureIncludesCheckExpectedAndActualE:
 11847 02d0 00000000 		.quad	0
 11847      00000000 
 11848 02d8 00000000 		.quad	_ZTIN12_GLOBAL__N_151TestCheckEqualFailureIncludesCheckExpectedAndActualE
 11848      00000000 
 11849 02e0 00000000 		.quad	_ZN12_GLOBAL__N_151TestCheckEqualFailureIncludesCheckExpectedAndActualD1Ev
 11849      00000000 
 11850 02e8 00000000 		.quad	_ZN12_GLOBAL__N_151TestCheckEqualFailureIncludesCheckExpectedAndActualD0Ev
 11850      00000000 
 11851 02f0 00000000 		.quad	_ZNK12_GLOBAL__N_151TestCheckEqualFailureIncludesCheckExpectedAndActual7RunImplEv
 11851      00000000 
 11852              		.text
 11853 4675 90       		.align 2
 11855              	_ZN12_GLOBAL__N_151TestCheckEqualFailureIncludesCheckExpectedAndActualD2Ev:
 11856              	.LFB1429:
  73:TestChecks.cpp **** {
 11857              		.loc 5 73 1 is_stmt 1
 11858              		.cfi_startproc
 11859 4676 F30F1EFA 		endbr64
 11860 467a 55       		pushq	%rbp
 11861              		.cfi_def_cfa_offset 16
 11862              		.cfi_offset 6, -16
 11863 467b 4889E5   		movq	%rsp, %rbp
 11864              		.cfi_def_cfa_register 6
 11865 467e 4883EC10 		subq	$16, %rsp
 11866 4682 48897DF8 		movq	%rdi, -8(%rbp)
 11867              	.LBB101:
  73:TestChecks.cpp **** {
 11868              		.loc 5 73 1
 11869 4686 488D1500 		leaq	16+_ZTVN12_GLOBAL__N_151TestCheckEqualFailureIncludesCheckExpectedAndActualE(%rip), %rdx
 11869      000000
 11870 468d 488B45F8 		movq	-8(%rbp), %rax
 11871 4691 488910   		movq	%rdx, (%rax)
 11872 4694 488B45F8 		movq	-8(%rbp), %rax
 11873 4698 4889C7   		movq	%rax, %rdi
 11874 469b E8000000 		call	_ZN8UnitTest4TestD2Ev@PLT
 11874      00
 11875              	.LBE101:
 11876 46a0 90       		nop
 11877 46a1 C9       		leave
 11878              		.cfi_def_cfa 7, 8
 11879 46a2 C3       		ret
 11880              		.cfi_endproc
 11881              	.LFE1429:
 11883              		.set	_ZN12_GLOBAL__N_151TestCheckEqualFailureIncludesCheckExpectedAndActualD1Ev,_ZN12_GLOBAL__N_15
 11884 46a3 90       		.align 2
 11886              	_ZN12_GLOBAL__N_151TestCheckEqualFailureIncludesCheckExpectedAndActualD0Ev:
 11887              	.LFB1431:
  73:TestChecks.cpp **** {
 11888              		.loc 5 73 1
 11889              		.cfi_startproc
 11890              		.cfi_personality 0x9b,DW.ref.__gxx_personality_v0
 11891              		.cfi_lsda 0x1b,.LLSDA1431
 11892 46a4 F30F1EFA 		endbr64
 11893 46a8 55       		pushq	%rbp
 11894              		.cfi_def_cfa_offset 16
 11895              		.cfi_offset 6, -16
 11896 46a9 4889E5   		movq	%rsp, %rbp
 11897              		.cfi_def_cfa_register 6
 11898 46ac 53       		pushq	%rbx
 11899 46ad 4883EC18 		subq	$24, %rsp
 11900              		.cfi_offset 3, -24
 11901 46b1 48897DE8 		movq	%rdi, -24(%rbp)
  73:TestChecks.cpp **** {
 11902              		.loc 5 73 1
 11903 46b5 488B45E8 		movq	-24(%rbp), %rax
 11904 46b9 4889C7   		movq	%rax, %rdi
 11905              	.LEHB260:
 11906 46bc E8B5FFFF 		call	_ZN12_GLOBAL__N_151TestCheckEqualFailureIncludesCheckExpectedAndActualD1Ev
 11906      FF
 11907              	.LEHE260:
  73:TestChecks.cpp **** {
 11908              		.loc 5 73 1 is_stmt 0 discriminator 2
 11909 46c1 488B45E8 		movq	-24(%rbp), %rax
 11910 46c5 4889C7   		movq	%rax, %rdi
 11911 46c8 E8000000 		call	_ZdlPv@PLT
 11911      00
 11912 46cd EB1E     		jmp	.L530
 11913              	.L529:
 11914 46cf F30F1EFA 		endbr64
  73:TestChecks.cpp **** {
 11915              		.loc 5 73 1
 11916 46d3 4889C3   		movq	%rax, %rbx
 11917 46d6 488B45E8 		movq	-24(%rbp), %rax
 11918 46da 4889C7   		movq	%rax, %rdi
 11919 46dd E8000000 		call	_ZdlPv@PLT
 11919      00
 11920 46e2 4889D8   		movq	%rbx, %rax
 11921 46e5 4889C7   		movq	%rax, %rdi
 11922              	.LEHB261:
 11923 46e8 E8000000 		call	_Unwind_Resume@PLT
 11923      00
 11924              	.LEHE261:
 11925              	.L530:
 11926 46ed 488B5DF8 		movq	-8(%rbp), %rbx
 11927 46f1 C9       		leave
 11928              		.cfi_def_cfa 7, 8
 11929 46f2 C3       		ret
 11930              		.cfi_endproc
 11931              	.LFE1431:
 11932              		.section	.gcc_except_table
 11933              	.LLSDA1431:
 11934 0706 FF       		.byte	0xff
 11935 0707 FF       		.byte	0xff
 11936 0708 01       		.byte	0x1
 11937 0709 08       		.uleb128 .LLSDACSE1431-.LLSDACSB1431
 11938              	.LLSDACSB1431:
 11939 070a 18       		.uleb128 .LEHB260-.LFB1431
 11940 070b 05       		.uleb128 .LEHE260-.LEHB260
 11941 070c 2B       		.uleb128 .L529-.LFB1431
 11942 070d 00       		.uleb128 0
 11943 070e 44       		.uleb128 .LEHB261-.LFB1431
 11944 070f 05       		.uleb128 .LEHE261-.LEHB261
 11945 0710 00       		.uleb128 0
 11946 0711 00       		.uleb128 0
 11947              	.LLSDACSE1431:
 11948              		.text
 11950              		.section	.data.rel.ro.local
 11951              		.align 8
 11954              	_ZTVN12_GLOBAL__N_153TestCheckEqualsWithStringsWorksOnContentsWithALiteralE:
 11955 02f8 00000000 		.quad	0
 11955      00000000 
 11956 0300 00000000 		.quad	_ZTIN12_GLOBAL__N_153TestCheckEqualsWithStringsWorksOnContentsWithALiteralE
 11956      00000000 
 11957 0308 00000000 		.quad	_ZN12_GLOBAL__N_153TestCheckEqualsWithStringsWorksOnContentsWithALiteralD1Ev
 11957      00000000 
 11958 0310 00000000 		.quad	_ZN12_GLOBAL__N_153TestCheckEqualsWithStringsWorksOnContentsWithALiteralD0Ev
 11958      00000000 
 11959 0318 00000000 		.quad	_ZNK12_GLOBAL__N_153TestCheckEqualsWithStringsWorksOnContentsWithALiteral7RunImplEv
 11959      00000000 
 11960              		.text
 11961 46f3 90       		.align 2
 11963              	_ZN12_GLOBAL__N_153TestCheckEqualsWithStringsWorksOnContentsWithALiteralD2Ev:
 11964              	.LFB1433:
  65:TestChecks.cpp **** {
 11965              		.loc 5 65 1 is_stmt 1
 11966              		.cfi_startproc
 11967 46f4 F30F1EFA 		endbr64
 11968 46f8 55       		pushq	%rbp
 11969              		.cfi_def_cfa_offset 16
 11970              		.cfi_offset 6, -16
 11971 46f9 4889E5   		movq	%rsp, %rbp
 11972              		.cfi_def_cfa_register 6
 11973 46fc 4883EC10 		subq	$16, %rsp
 11974 4700 48897DF8 		movq	%rdi, -8(%rbp)
 11975              	.LBB102:
  65:TestChecks.cpp **** {
 11976              		.loc 5 65 1
 11977 4704 488D1500 		leaq	16+_ZTVN12_GLOBAL__N_153TestCheckEqualsWithStringsWorksOnContentsWithALiteralE(%rip), %rdx
 11977      000000
 11978 470b 488B45F8 		movq	-8(%rbp), %rax
 11979 470f 488910   		movq	%rdx, (%rax)
 11980 4712 488B45F8 		movq	-8(%rbp), %rax
 11981 4716 4889C7   		movq	%rax, %rdi
 11982 4719 E8000000 		call	_ZN8UnitTest4TestD2Ev@PLT
 11982      00
 11983              	.LBE102:
 11984 471e 90       		nop
 11985 471f C9       		leave
 11986              		.cfi_def_cfa 7, 8
 11987 4720 C3       		ret
 11988              		.cfi_endproc
 11989              	.LFE1433:
 11991              		.set	_ZN12_GLOBAL__N_153TestCheckEqualsWithStringsWorksOnContentsWithALiteralD1Ev,_ZN12_GLOBAL__N_
 11992 4721 90       		.align 2
 11994              	_ZN12_GLOBAL__N_153TestCheckEqualsWithStringsWorksOnContentsWithALiteralD0Ev:
 11995              	.LFB1435:
  65:TestChecks.cpp **** {
 11996              		.loc 5 65 1
 11997              		.cfi_startproc
 11998              		.cfi_personality 0x9b,DW.ref.__gxx_personality_v0
 11999              		.cfi_lsda 0x1b,.LLSDA1435
 12000 4722 F30F1EFA 		endbr64
 12001 4726 55       		pushq	%rbp
 12002              		.cfi_def_cfa_offset 16
 12003              		.cfi_offset 6, -16
 12004 4727 4889E5   		movq	%rsp, %rbp
 12005              		.cfi_def_cfa_register 6
 12006 472a 53       		pushq	%rbx
 12007 472b 4883EC18 		subq	$24, %rsp
 12008              		.cfi_offset 3, -24
 12009 472f 48897DE8 		movq	%rdi, -24(%rbp)
  65:TestChecks.cpp **** {
 12010              		.loc 5 65 1
 12011 4733 488B45E8 		movq	-24(%rbp), %rax
 12012 4737 4889C7   		movq	%rax, %rdi
 12013              	.LEHB262:
 12014 473a E8B5FFFF 		call	_ZN12_GLOBAL__N_153TestCheckEqualsWithStringsWorksOnContentsWithALiteralD1Ev
 12014      FF
 12015              	.LEHE262:
  65:TestChecks.cpp **** {
 12016              		.loc 5 65 1 is_stmt 0 discriminator 2
 12017 473f 488B45E8 		movq	-24(%rbp), %rax
 12018 4743 4889C7   		movq	%rax, %rdi
 12019 4746 E8000000 		call	_ZdlPv@PLT
 12019      00
 12020 474b EB1E     		jmp	.L535
 12021              	.L534:
 12022 474d F30F1EFA 		endbr64
  65:TestChecks.cpp **** {
 12023              		.loc 5 65 1
 12024 4751 4889C3   		movq	%rax, %rbx
 12025 4754 488B45E8 		movq	-24(%rbp), %rax
 12026 4758 4889C7   		movq	%rax, %rdi
 12027 475b E8000000 		call	_ZdlPv@PLT
 12027      00
 12028 4760 4889D8   		movq	%rbx, %rax
 12029 4763 4889C7   		movq	%rax, %rdi
 12030              	.LEHB263:
 12031 4766 E8000000 		call	_Unwind_Resume@PLT
 12031      00
 12032              	.LEHE263:
 12033              	.L535:
 12034 476b 488B5DF8 		movq	-8(%rbp), %rbx
 12035 476f C9       		leave
 12036              		.cfi_def_cfa 7, 8
 12037 4770 C3       		ret
 12038              		.cfi_endproc
 12039              	.LFE1435:
 12040              		.section	.gcc_except_table
 12041              	.LLSDA1435:
 12042 0712 FF       		.byte	0xff
 12043 0713 FF       		.byte	0xff
 12044 0714 01       		.byte	0x1
 12045 0715 08       		.uleb128 .LLSDACSE1435-.LLSDACSB1435
 12046              	.LLSDACSB1435:
 12047 0716 18       		.uleb128 .LEHB262-.LFB1435
 12048 0717 05       		.uleb128 .LEHE262-.LEHB262
 12049 0718 2B       		.uleb128 .L534-.LFB1435
 12050 0719 00       		.uleb128 0
 12051 071a 44       		.uleb128 .LEHB263-.LFB1435
 12052 071b 05       		.uleb128 .LEHE263-.LEHB263
 12053 071c 00       		.uleb128 0
 12054 071d 00       		.uleb128 0
 12055              	.LLSDACSE1435:
 12056              		.text
 12058              		.section	.data.rel.ro.local
 12059              		.align 8
 12062              	_ZTVN12_GLOBAL__N_154TestCheckEqualsWithStringsWorksOnContentsConstNonConstE:
 12063 0320 00000000 		.quad	0
 12063      00000000 
 12064 0328 00000000 		.quad	_ZTIN12_GLOBAL__N_154TestCheckEqualsWithStringsWorksOnContentsConstNonConstE
 12064      00000000 
 12065 0330 00000000 		.quad	_ZN12_GLOBAL__N_154TestCheckEqualsWithStringsWorksOnContentsConstNonConstD1Ev
 12065      00000000 
 12066 0338 00000000 		.quad	_ZN12_GLOBAL__N_154TestCheckEqualsWithStringsWorksOnContentsConstNonConstD0Ev
 12066      00000000 
 12067 0340 00000000 		.quad	_ZNK12_GLOBAL__N_154TestCheckEqualsWithStringsWorksOnContentsConstNonConst7RunImplEv
 12067      00000000 
 12068              		.text
 12069 4771 90       		.align 2
 12071              	_ZN12_GLOBAL__N_154TestCheckEqualsWithStringsWorksOnContentsConstNonConstD2Ev:
 12072              	.LFB1437:
  56:TestChecks.cpp **** {
 12073              		.loc 5 56 1 is_stmt 1
 12074              		.cfi_startproc
 12075 4772 F30F1EFA 		endbr64
 12076 4776 55       		pushq	%rbp
 12077              		.cfi_def_cfa_offset 16
 12078              		.cfi_offset 6, -16
 12079 4777 4889E5   		movq	%rsp, %rbp
 12080              		.cfi_def_cfa_register 6
 12081 477a 4883EC10 		subq	$16, %rsp
 12082 477e 48897DF8 		movq	%rdi, -8(%rbp)
 12083              	.LBB103:
  56:TestChecks.cpp **** {
 12084              		.loc 5 56 1
 12085 4782 488D1500 		leaq	16+_ZTVN12_GLOBAL__N_154TestCheckEqualsWithStringsWorksOnContentsConstNonConstE(%rip), %rdx
 12085      000000
 12086 4789 488B45F8 		movq	-8(%rbp), %rax
 12087 478d 488910   		movq	%rdx, (%rax)
 12088 4790 488B45F8 		movq	-8(%rbp), %rax
 12089 4794 4889C7   		movq	%rax, %rdi
 12090 4797 E8000000 		call	_ZN8UnitTest4TestD2Ev@PLT
 12090      00
 12091              	.LBE103:
 12092 479c 90       		nop
 12093 479d C9       		leave
 12094              		.cfi_def_cfa 7, 8
 12095 479e C3       		ret
 12096              		.cfi_endproc
 12097              	.LFE1437:
 12099              		.set	_ZN12_GLOBAL__N_154TestCheckEqualsWithStringsWorksOnContentsConstNonConstD1Ev,_ZN12_GLOBAL__N
 12100 479f 90       		.align 2
 12102              	_ZN12_GLOBAL__N_154TestCheckEqualsWithStringsWorksOnContentsConstNonConstD0Ev:
 12103              	.LFB1439:
  56:TestChecks.cpp **** {
 12104              		.loc 5 56 1
 12105              		.cfi_startproc
 12106              		.cfi_personality 0x9b,DW.ref.__gxx_personality_v0
 12107              		.cfi_lsda 0x1b,.LLSDA1439
 12108 47a0 F30F1EFA 		endbr64
 12109 47a4 55       		pushq	%rbp
 12110              		.cfi_def_cfa_offset 16
 12111              		.cfi_offset 6, -16
 12112 47a5 4889E5   		movq	%rsp, %rbp
 12113              		.cfi_def_cfa_register 6
 12114 47a8 53       		pushq	%rbx
 12115 47a9 4883EC18 		subq	$24, %rsp
 12116              		.cfi_offset 3, -24
 12117 47ad 48897DE8 		movq	%rdi, -24(%rbp)
  56:TestChecks.cpp **** {
 12118              		.loc 5 56 1
 12119 47b1 488B45E8 		movq	-24(%rbp), %rax
 12120 47b5 4889C7   		movq	%rax, %rdi
 12121              	.LEHB264:
 12122 47b8 E8B5FFFF 		call	_ZN12_GLOBAL__N_154TestCheckEqualsWithStringsWorksOnContentsConstNonConstD1Ev
 12122      FF
 12123              	.LEHE264:
  56:TestChecks.cpp **** {
 12124              		.loc 5 56 1 is_stmt 0 discriminator 2
 12125 47bd 488B45E8 		movq	-24(%rbp), %rax
 12126 47c1 4889C7   		movq	%rax, %rdi
 12127 47c4 E8000000 		call	_ZdlPv@PLT
 12127      00
 12128 47c9 EB1E     		jmp	.L540
 12129              	.L539:
 12130 47cb F30F1EFA 		endbr64
  56:TestChecks.cpp **** {
 12131              		.loc 5 56 1
 12132 47cf 4889C3   		movq	%rax, %rbx
 12133 47d2 488B45E8 		movq	-24(%rbp), %rax
 12134 47d6 4889C7   		movq	%rax, %rdi
 12135 47d9 E8000000 		call	_ZdlPv@PLT
 12135      00
 12136 47de 4889D8   		movq	%rbx, %rax
 12137 47e1 4889C7   		movq	%rax, %rdi
 12138              	.LEHB265:
 12139 47e4 E8000000 		call	_Unwind_Resume@PLT
 12139      00
 12140              	.LEHE265:
 12141              	.L540:
 12142 47e9 488B5DF8 		movq	-8(%rbp), %rbx
 12143 47ed C9       		leave
 12144              		.cfi_def_cfa 7, 8
 12145 47ee C3       		ret
 12146              		.cfi_endproc
 12147              	.LFE1439:
 12148              		.section	.gcc_except_table
 12149              	.LLSDA1439:
 12150 071e FF       		.byte	0xff
 12151 071f FF       		.byte	0xff
 12152 0720 01       		.byte	0x1
 12153 0721 08       		.uleb128 .LLSDACSE1439-.LLSDACSB1439
 12154              	.LLSDACSB1439:
 12155 0722 18       		.uleb128 .LEHB264-.LFB1439
 12156 0723 05       		.uleb128 .LEHE264-.LEHB264
 12157 0724 2B       		.uleb128 .L539-.LFB1439
 12158 0725 00       		.uleb128 0
 12159 0726 44       		.uleb128 .LEHB265-.LFB1439
 12160 0727 05       		.uleb128 .LEHE265-.LEHB265
 12161 0728 00       		.uleb128 0
 12162 0729 00       		.uleb128 0
 12163              	.LLSDACSE1439:
 12164              		.text
 12166              		.section	.data.rel.ro.local
 12167              		.align 8
 12170              	_ZTVN12_GLOBAL__N_154TestCheckEqualsWithStringsWorksOnContentsNonConstConstE:
 12171 0348 00000000 		.quad	0
 12171      00000000 
 12172 0350 00000000 		.quad	_ZTIN12_GLOBAL__N_154TestCheckEqualsWithStringsWorksOnContentsNonConstConstE
 12172      00000000 
 12173 0358 00000000 		.quad	_ZN12_GLOBAL__N_154TestCheckEqualsWithStringsWorksOnContentsNonConstConstD1Ev
 12173      00000000 
 12174 0360 00000000 		.quad	_ZN12_GLOBAL__N_154TestCheckEqualsWithStringsWorksOnContentsNonConstConstD0Ev
 12174      00000000 
 12175 0368 00000000 		.quad	_ZNK12_GLOBAL__N_154TestCheckEqualsWithStringsWorksOnContentsNonConstConst7RunImplEv
 12175      00000000 
 12176              		.text
 12177 47ef 90       		.align 2
 12179              	_ZN12_GLOBAL__N_154TestCheckEqualsWithStringsWorksOnContentsNonConstConstD2Ev:
 12180              	.LFB1441:
  47:TestChecks.cpp **** {
 12181              		.loc 5 47 1 is_stmt 1
 12182              		.cfi_startproc
 12183 47f0 F30F1EFA 		endbr64
 12184 47f4 55       		pushq	%rbp
 12185              		.cfi_def_cfa_offset 16
 12186              		.cfi_offset 6, -16
 12187 47f5 4889E5   		movq	%rsp, %rbp
 12188              		.cfi_def_cfa_register 6
 12189 47f8 4883EC10 		subq	$16, %rsp
 12190 47fc 48897DF8 		movq	%rdi, -8(%rbp)
 12191              	.LBB104:
  47:TestChecks.cpp **** {
 12192              		.loc 5 47 1
 12193 4800 488D1500 		leaq	16+_ZTVN12_GLOBAL__N_154TestCheckEqualsWithStringsWorksOnContentsNonConstConstE(%rip), %rdx
 12193      000000
 12194 4807 488B45F8 		movq	-8(%rbp), %rax
 12195 480b 488910   		movq	%rdx, (%rax)
 12196 480e 488B45F8 		movq	-8(%rbp), %rax
 12197 4812 4889C7   		movq	%rax, %rdi
 12198 4815 E8000000 		call	_ZN8UnitTest4TestD2Ev@PLT
 12198      00
 12199              	.LBE104:
 12200 481a 90       		nop
 12201 481b C9       		leave
 12202              		.cfi_def_cfa 7, 8
 12203 481c C3       		ret
 12204              		.cfi_endproc
 12205              	.LFE1441:
 12207              		.set	_ZN12_GLOBAL__N_154TestCheckEqualsWithStringsWorksOnContentsNonConstConstD1Ev,_ZN12_GLOBAL__N
 12208 481d 90       		.align 2
 12210              	_ZN12_GLOBAL__N_154TestCheckEqualsWithStringsWorksOnContentsNonConstConstD0Ev:
 12211              	.LFB1443:
  47:TestChecks.cpp **** {
 12212              		.loc 5 47 1
 12213              		.cfi_startproc
 12214              		.cfi_personality 0x9b,DW.ref.__gxx_personality_v0
 12215              		.cfi_lsda 0x1b,.LLSDA1443
 12216 481e F30F1EFA 		endbr64
 12217 4822 55       		pushq	%rbp
 12218              		.cfi_def_cfa_offset 16
 12219              		.cfi_offset 6, -16
 12220 4823 4889E5   		movq	%rsp, %rbp
 12221              		.cfi_def_cfa_register 6
 12222 4826 53       		pushq	%rbx
 12223 4827 4883EC18 		subq	$24, %rsp
 12224              		.cfi_offset 3, -24
 12225 482b 48897DE8 		movq	%rdi, -24(%rbp)
  47:TestChecks.cpp **** {
 12226              		.loc 5 47 1
 12227 482f 488B45E8 		movq	-24(%rbp), %rax
 12228 4833 4889C7   		movq	%rax, %rdi
 12229              	.LEHB266:
 12230 4836 E8B5FFFF 		call	_ZN12_GLOBAL__N_154TestCheckEqualsWithStringsWorksOnContentsNonConstConstD1Ev
 12230      FF
 12231              	.LEHE266:
  47:TestChecks.cpp **** {
 12232              		.loc 5 47 1 is_stmt 0 discriminator 2
 12233 483b 488B45E8 		movq	-24(%rbp), %rax
 12234 483f 4889C7   		movq	%rax, %rdi
 12235 4842 E8000000 		call	_ZdlPv@PLT
 12235      00
 12236 4847 EB1E     		jmp	.L545
 12237              	.L544:
 12238 4849 F30F1EFA 		endbr64
  47:TestChecks.cpp **** {
 12239              		.loc 5 47 1
 12240 484d 4889C3   		movq	%rax, %rbx
 12241 4850 488B45E8 		movq	-24(%rbp), %rax
 12242 4854 4889C7   		movq	%rax, %rdi
 12243 4857 E8000000 		call	_ZdlPv@PLT
 12243      00
 12244 485c 4889D8   		movq	%rbx, %rax
 12245 485f 4889C7   		movq	%rax, %rdi
 12246              	.LEHB267:
 12247 4862 E8000000 		call	_Unwind_Resume@PLT
 12247      00
 12248              	.LEHE267:
 12249              	.L545:
 12250 4867 488B5DF8 		movq	-8(%rbp), %rbx
 12251 486b C9       		leave
 12252              		.cfi_def_cfa 7, 8
 12253 486c C3       		ret
 12254              		.cfi_endproc
 12255              	.LFE1443:
 12256              		.section	.gcc_except_table
 12257              	.LLSDA1443:
 12258 072a FF       		.byte	0xff
 12259 072b FF       		.byte	0xff
 12260 072c 01       		.byte	0x1
 12261 072d 08       		.uleb128 .LLSDACSE1443-.LLSDACSB1443
 12262              	.LLSDACSB1443:
 12263 072e 18       		.uleb128 .LEHB266-.LFB1443
 12264 072f 05       		.uleb128 .LEHE266-.LEHB266
 12265 0730 2B       		.uleb128 .L544-.LFB1443
 12266 0731 00       		.uleb128 0
 12267 0732 44       		.uleb128 .LEHB267-.LFB1443
 12268 0733 05       		.uleb128 .LEHE267-.LEHB267
 12269 0734 00       		.uleb128 0
 12270 0735 00       		.uleb128 0
 12271              	.LLSDACSE1443:
 12272              		.text
 12274              		.section	.data.rel.ro.local
 12275              		.align 8
 12278              	_ZTVN12_GLOBAL__N_151TestCheckEqualsWithStringsWorksOnContentsConstConstE:
 12279 0370 00000000 		.quad	0
 12279      00000000 
 12280 0378 00000000 		.quad	_ZTIN12_GLOBAL__N_151TestCheckEqualsWithStringsWorksOnContentsConstConstE
 12280      00000000 
 12281 0380 00000000 		.quad	_ZN12_GLOBAL__N_151TestCheckEqualsWithStringsWorksOnContentsConstConstD1Ev
 12281      00000000 
 12282 0388 00000000 		.quad	_ZN12_GLOBAL__N_151TestCheckEqualsWithStringsWorksOnContentsConstConstD0Ev
 12282      00000000 
 12283 0390 00000000 		.quad	_ZNK12_GLOBAL__N_151TestCheckEqualsWithStringsWorksOnContentsConstConst7RunImplEv
 12283      00000000 
 12284              		.text
 12285 486d 90       		.align 2
 12287              	_ZN12_GLOBAL__N_151TestCheckEqualsWithStringsWorksOnContentsConstConstD2Ev:
 12288              	.LFB1445:
  38:TestChecks.cpp **** {
 12289              		.loc 5 38 1 is_stmt 1
 12290              		.cfi_startproc
 12291 486e F30F1EFA 		endbr64
 12292 4872 55       		pushq	%rbp
 12293              		.cfi_def_cfa_offset 16
 12294              		.cfi_offset 6, -16
 12295 4873 4889E5   		movq	%rsp, %rbp
 12296              		.cfi_def_cfa_register 6
 12297 4876 4883EC10 		subq	$16, %rsp
 12298 487a 48897DF8 		movq	%rdi, -8(%rbp)
 12299              	.LBB105:
  38:TestChecks.cpp **** {
 12300              		.loc 5 38 1
 12301 487e 488D1500 		leaq	16+_ZTVN12_GLOBAL__N_151TestCheckEqualsWithStringsWorksOnContentsConstConstE(%rip), %rdx
 12301      000000
 12302 4885 488B45F8 		movq	-8(%rbp), %rax
 12303 4889 488910   		movq	%rdx, (%rax)
 12304 488c 488B45F8 		movq	-8(%rbp), %rax
 12305 4890 4889C7   		movq	%rax, %rdi
 12306 4893 E8000000 		call	_ZN8UnitTest4TestD2Ev@PLT
 12306      00
 12307              	.LBE105:
 12308 4898 90       		nop
 12309 4899 C9       		leave
 12310              		.cfi_def_cfa 7, 8
 12311 489a C3       		ret
 12312              		.cfi_endproc
 12313              	.LFE1445:
 12315              		.set	_ZN12_GLOBAL__N_151TestCheckEqualsWithStringsWorksOnContentsConstConstD1Ev,_ZN12_GLOBAL__N_15
 12316 489b 90       		.align 2
 12318              	_ZN12_GLOBAL__N_151TestCheckEqualsWithStringsWorksOnContentsConstConstD0Ev:
 12319              	.LFB1447:
  38:TestChecks.cpp **** {
 12320              		.loc 5 38 1
 12321              		.cfi_startproc
 12322              		.cfi_personality 0x9b,DW.ref.__gxx_personality_v0
 12323              		.cfi_lsda 0x1b,.LLSDA1447
 12324 489c F30F1EFA 		endbr64
 12325 48a0 55       		pushq	%rbp
 12326              		.cfi_def_cfa_offset 16
 12327              		.cfi_offset 6, -16
 12328 48a1 4889E5   		movq	%rsp, %rbp
 12329              		.cfi_def_cfa_register 6
 12330 48a4 53       		pushq	%rbx
 12331 48a5 4883EC18 		subq	$24, %rsp
 12332              		.cfi_offset 3, -24
 12333 48a9 48897DE8 		movq	%rdi, -24(%rbp)
  38:TestChecks.cpp **** {
 12334              		.loc 5 38 1
 12335 48ad 488B45E8 		movq	-24(%rbp), %rax
 12336 48b1 4889C7   		movq	%rax, %rdi
 12337              	.LEHB268:
 12338 48b4 E8B5FFFF 		call	_ZN12_GLOBAL__N_151TestCheckEqualsWithStringsWorksOnContentsConstConstD1Ev
 12338      FF
 12339              	.LEHE268:
  38:TestChecks.cpp **** {
 12340              		.loc 5 38 1 is_stmt 0 discriminator 2
 12341 48b9 488B45E8 		movq	-24(%rbp), %rax
 12342 48bd 4889C7   		movq	%rax, %rdi
 12343 48c0 E8000000 		call	_ZdlPv@PLT
 12343      00
 12344 48c5 EB1E     		jmp	.L550
 12345              	.L549:
 12346 48c7 F30F1EFA 		endbr64
  38:TestChecks.cpp **** {
 12347              		.loc 5 38 1
 12348 48cb 4889C3   		movq	%rax, %rbx
 12349 48ce 488B45E8 		movq	-24(%rbp), %rax
 12350 48d2 4889C7   		movq	%rax, %rdi
 12351 48d5 E8000000 		call	_ZdlPv@PLT
 12351      00
 12352 48da 4889D8   		movq	%rbx, %rax
 12353 48dd 4889C7   		movq	%rax, %rdi
 12354              	.LEHB269:
 12355 48e0 E8000000 		call	_Unwind_Resume@PLT
 12355      00
 12356              	.LEHE269:
 12357              	.L550:
 12358 48e5 488B5DF8 		movq	-8(%rbp), %rbx
 12359 48e9 C9       		leave
 12360              		.cfi_def_cfa 7, 8
 12361 48ea C3       		ret
 12362              		.cfi_endproc
 12363              	.LFE1447:
 12364              		.section	.gcc_except_table
 12365              	.LLSDA1447:
 12366 0736 FF       		.byte	0xff
 12367 0737 FF       		.byte	0xff
 12368 0738 01       		.byte	0x1
 12369 0739 08       		.uleb128 .LLSDACSE1447-.LLSDACSB1447
 12370              	.LLSDACSB1447:
 12371 073a 18       		.uleb128 .LEHB268-.LFB1447
 12372 073b 05       		.uleb128 .LEHE268-.LEHB268
 12373 073c 2B       		.uleb128 .L549-.LFB1447
 12374 073d 00       		.uleb128 0
 12375 073e 44       		.uleb128 .LEHB269-.LFB1447
 12376 073f 05       		.uleb128 .LEHE269-.LEHB269
 12377 0740 00       		.uleb128 0
 12378 0741 00       		.uleb128 0
 12379              	.LLSDACSE1447:
 12380              		.text
 12382              		.section	.data.rel.ro.local
 12383              		.align 8
 12386              	_ZTVN12_GLOBAL__N_157TestCheckEqualsWithStringsWorksOnContentsNonConstNonConstE:
 12387 0398 00000000 		.quad	0
 12387      00000000 
 12388 03a0 00000000 		.quad	_ZTIN12_GLOBAL__N_157TestCheckEqualsWithStringsWorksOnContentsNonConstNonConstE
 12388      00000000 
 12389 03a8 00000000 		.quad	_ZN12_GLOBAL__N_157TestCheckEqualsWithStringsWorksOnContentsNonConstNonConstD1Ev
 12389      00000000 
 12390 03b0 00000000 		.quad	_ZN12_GLOBAL__N_157TestCheckEqualsWithStringsWorksOnContentsNonConstNonConstD0Ev
 12390      00000000 
 12391 03b8 00000000 		.quad	_ZNK12_GLOBAL__N_157TestCheckEqualsWithStringsWorksOnContentsNonConstNonConst7RunImplEv
 12391      00000000 
 12392              		.text
 12393 48eb 90       		.align 2
 12395              	_ZN12_GLOBAL__N_157TestCheckEqualsWithStringsWorksOnContentsNonConstNonConstD2Ev:
 12396              	.LFB1449:
  29:TestChecks.cpp **** {
 12397              		.loc 5 29 1 is_stmt 1
 12398              		.cfi_startproc
 12399 48ec F30F1EFA 		endbr64
 12400 48f0 55       		pushq	%rbp
 12401              		.cfi_def_cfa_offset 16
 12402              		.cfi_offset 6, -16
 12403 48f1 4889E5   		movq	%rsp, %rbp
 12404              		.cfi_def_cfa_register 6
 12405 48f4 4883EC10 		subq	$16, %rsp
 12406 48f8 48897DF8 		movq	%rdi, -8(%rbp)
 12407              	.LBB106:
  29:TestChecks.cpp **** {
 12408              		.loc 5 29 1
 12409 48fc 488D1500 		leaq	16+_ZTVN12_GLOBAL__N_157TestCheckEqualsWithStringsWorksOnContentsNonConstNonConstE(%rip), %rd
 12409      000000
 12410 4903 488B45F8 		movq	-8(%rbp), %rax
 12411 4907 488910   		movq	%rdx, (%rax)
 12412 490a 488B45F8 		movq	-8(%rbp), %rax
 12413 490e 4889C7   		movq	%rax, %rdi
 12414 4911 E8000000 		call	_ZN8UnitTest4TestD2Ev@PLT
 12414      00
 12415              	.LBE106:
 12416 4916 90       		nop
 12417 4917 C9       		leave
 12418              		.cfi_def_cfa 7, 8
 12419 4918 C3       		ret
 12420              		.cfi_endproc
 12421              	.LFE1449:
 12423              		.set	_ZN12_GLOBAL__N_157TestCheckEqualsWithStringsWorksOnContentsNonConstNonConstD1Ev,_ZN12_GLOBAL
 12424 4919 90       		.align 2
 12426              	_ZN12_GLOBAL__N_157TestCheckEqualsWithStringsWorksOnContentsNonConstNonConstD0Ev:
 12427              	.LFB1451:
  29:TestChecks.cpp **** {
 12428              		.loc 5 29 1
 12429              		.cfi_startproc
 12430              		.cfi_personality 0x9b,DW.ref.__gxx_personality_v0
 12431              		.cfi_lsda 0x1b,.LLSDA1451
 12432 491a F30F1EFA 		endbr64
 12433 491e 55       		pushq	%rbp
 12434              		.cfi_def_cfa_offset 16
 12435              		.cfi_offset 6, -16
 12436 491f 4889E5   		movq	%rsp, %rbp
 12437              		.cfi_def_cfa_register 6
 12438 4922 53       		pushq	%rbx
 12439 4923 4883EC18 		subq	$24, %rsp
 12440              		.cfi_offset 3, -24
 12441 4927 48897DE8 		movq	%rdi, -24(%rbp)
  29:TestChecks.cpp **** {
 12442              		.loc 5 29 1
 12443 492b 488B45E8 		movq	-24(%rbp), %rax
 12444 492f 4889C7   		movq	%rax, %rdi
 12445              	.LEHB270:
 12446 4932 E8B5FFFF 		call	_ZN12_GLOBAL__N_157TestCheckEqualsWithStringsWorksOnContentsNonConstNonConstD1Ev
 12446      FF
 12447              	.LEHE270:
  29:TestChecks.cpp **** {
 12448              		.loc 5 29 1 is_stmt 0 discriminator 2
 12449 4937 488B45E8 		movq	-24(%rbp), %rax
 12450 493b 4889C7   		movq	%rax, %rdi
 12451 493e E8000000 		call	_ZdlPv@PLT
 12451      00
 12452 4943 EB1E     		jmp	.L555
 12453              	.L554:
 12454 4945 F30F1EFA 		endbr64
  29:TestChecks.cpp **** {
 12455              		.loc 5 29 1
 12456 4949 4889C3   		movq	%rax, %rbx
 12457 494c 488B45E8 		movq	-24(%rbp), %rax
 12458 4950 4889C7   		movq	%rax, %rdi
 12459 4953 E8000000 		call	_ZdlPv@PLT
 12459      00
 12460 4958 4889D8   		movq	%rbx, %rax
 12461 495b 4889C7   		movq	%rax, %rdi
 12462              	.LEHB271:
 12463 495e E8000000 		call	_Unwind_Resume@PLT
 12463      00
 12464              	.LEHE271:
 12465              	.L555:
 12466 4963 488B5DF8 		movq	-8(%rbp), %rbx
 12467 4967 C9       		leave
 12468              		.cfi_def_cfa 7, 8
 12469 4968 C3       		ret
 12470              		.cfi_endproc
 12471              	.LFE1451:
 12472              		.section	.gcc_except_table
 12473              	.LLSDA1451:
 12474 0742 FF       		.byte	0xff
 12475 0743 FF       		.byte	0xff
 12476 0744 01       		.byte	0x1
 12477 0745 08       		.uleb128 .LLSDACSE1451-.LLSDACSB1451
 12478              	.LLSDACSB1451:
 12479 0746 18       		.uleb128 .LEHB270-.LFB1451
 12480 0747 05       		.uleb128 .LEHE270-.LEHB270
 12481 0748 2B       		.uleb128 .L554-.LFB1451
 12482 0749 00       		.uleb128 0
 12483 074a 44       		.uleb128 .LEHB271-.LFB1451
 12484 074b 05       		.uleb128 .LEHE271-.LEHB271
 12485 074c 00       		.uleb128 0
 12486 074d 00       		.uleb128 0
 12487              	.LLSDACSE1451:
 12488              		.text
 12490              		.section	.data.rel.ro.local
 12491              		.align 8
 12494              	_ZTVN12_GLOBAL__N_149TestCheckEqualsWithStringsFailsOnDifferentStringsE:
 12495 03c0 00000000 		.quad	0
 12495      00000000 
 12496 03c8 00000000 		.quad	_ZTIN12_GLOBAL__N_149TestCheckEqualsWithStringsFailsOnDifferentStringsE
 12496      00000000 
 12497 03d0 00000000 		.quad	_ZN12_GLOBAL__N_149TestCheckEqualsWithStringsFailsOnDifferentStringsD1Ev
 12497      00000000 
 12498 03d8 00000000 		.quad	_ZN12_GLOBAL__N_149TestCheckEqualsWithStringsFailsOnDifferentStringsD0Ev
 12498      00000000 
 12499 03e0 00000000 		.quad	_ZNK12_GLOBAL__N_149TestCheckEqualsWithStringsFailsOnDifferentStrings7RunImplEv
 12499      00000000 
 12500              		.text
 12501 4969 90       		.align 2
 12503              	_ZN12_GLOBAL__N_149TestCheckEqualsWithStringsFailsOnDifferentStringsD2Ev:
 12504              	.LFB1453:
  17:TestChecks.cpp **** {
 12505              		.loc 5 17 1 is_stmt 1
 12506              		.cfi_startproc
 12507 496a F30F1EFA 		endbr64
 12508 496e 55       		pushq	%rbp
 12509              		.cfi_def_cfa_offset 16
 12510              		.cfi_offset 6, -16
 12511 496f 4889E5   		movq	%rsp, %rbp
 12512              		.cfi_def_cfa_register 6
 12513 4972 4883EC10 		subq	$16, %rsp
 12514 4976 48897DF8 		movq	%rdi, -8(%rbp)
 12515              	.LBB107:
  17:TestChecks.cpp **** {
 12516              		.loc 5 17 1
 12517 497a 488D1500 		leaq	16+_ZTVN12_GLOBAL__N_149TestCheckEqualsWithStringsFailsOnDifferentStringsE(%rip), %rdx
 12517      000000
 12518 4981 488B45F8 		movq	-8(%rbp), %rax
 12519 4985 488910   		movq	%rdx, (%rax)
 12520 4988 488B45F8 		movq	-8(%rbp), %rax
 12521 498c 4889C7   		movq	%rax, %rdi
 12522 498f E8000000 		call	_ZN8UnitTest4TestD2Ev@PLT
 12522      00
 12523              	.LBE107:
 12524 4994 90       		nop
 12525 4995 C9       		leave
 12526              		.cfi_def_cfa 7, 8
 12527 4996 C3       		ret
 12528              		.cfi_endproc
 12529              	.LFE1453:
 12531              		.set	_ZN12_GLOBAL__N_149TestCheckEqualsWithStringsFailsOnDifferentStringsD1Ev,_ZN12_GLOBAL__N_149T
 12532 4997 90       		.align 2
 12534              	_ZN12_GLOBAL__N_149TestCheckEqualsWithStringsFailsOnDifferentStringsD0Ev:
 12535              	.LFB1455:
  17:TestChecks.cpp **** {
 12536              		.loc 5 17 1
 12537              		.cfi_startproc
 12538              		.cfi_personality 0x9b,DW.ref.__gxx_personality_v0
 12539              		.cfi_lsda 0x1b,.LLSDA1455
 12540 4998 F30F1EFA 		endbr64
 12541 499c 55       		pushq	%rbp
 12542              		.cfi_def_cfa_offset 16
 12543              		.cfi_offset 6, -16
 12544 499d 4889E5   		movq	%rsp, %rbp
 12545              		.cfi_def_cfa_register 6
 12546 49a0 53       		pushq	%rbx
 12547 49a1 4883EC18 		subq	$24, %rsp
 12548              		.cfi_offset 3, -24
 12549 49a5 48897DE8 		movq	%rdi, -24(%rbp)
  17:TestChecks.cpp **** {
 12550              		.loc 5 17 1
 12551 49a9 488B45E8 		movq	-24(%rbp), %rax
 12552 49ad 4889C7   		movq	%rax, %rdi
 12553              	.LEHB272:
 12554 49b0 E8B5FFFF 		call	_ZN12_GLOBAL__N_149TestCheckEqualsWithStringsFailsOnDifferentStringsD1Ev
 12554      FF
 12555              	.LEHE272:
  17:TestChecks.cpp **** {
 12556              		.loc 5 17 1 is_stmt 0 discriminator 2
 12557 49b5 488B45E8 		movq	-24(%rbp), %rax
 12558 49b9 4889C7   		movq	%rax, %rdi
 12559 49bc E8000000 		call	_ZdlPv@PLT
 12559      00
 12560 49c1 EB1E     		jmp	.L560
 12561              	.L559:
 12562 49c3 F30F1EFA 		endbr64
  17:TestChecks.cpp **** {
 12563              		.loc 5 17 1
 12564 49c7 4889C3   		movq	%rax, %rbx
 12565 49ca 488B45E8 		movq	-24(%rbp), %rax
 12566 49ce 4889C7   		movq	%rax, %rdi
 12567 49d1 E8000000 		call	_ZdlPv@PLT
 12567      00
 12568 49d6 4889D8   		movq	%rbx, %rax
 12569 49d9 4889C7   		movq	%rax, %rdi
 12570              	.LEHB273:
 12571 49dc E8000000 		call	_Unwind_Resume@PLT
 12571      00
 12572              	.LEHE273:
 12573              	.L560:
 12574 49e1 488B5DF8 		movq	-8(%rbp), %rbx
 12575 49e5 C9       		leave
 12576              		.cfi_def_cfa 7, 8
 12577 49e6 C3       		ret
 12578              		.cfi_endproc
 12579              	.LFE1455:
 12580              		.section	.gcc_except_table
 12581              	.LLSDA1455:
 12582 074e FF       		.byte	0xff
 12583 074f FF       		.byte	0xff
 12584 0750 01       		.byte	0x1
 12585 0751 08       		.uleb128 .LLSDACSE1455-.LLSDACSB1455
 12586              	.LLSDACSB1455:
 12587 0752 18       		.uleb128 .LEHB272-.LFB1455
 12588 0753 05       		.uleb128 .LEHE272-.LEHB272
 12589 0754 2B       		.uleb128 .L559-.LFB1455
 12590 0755 00       		.uleb128 0
 12591 0756 44       		.uleb128 .LEHB273-.LFB1455
 12592 0757 05       		.uleb128 .LEHE273-.LEHB273
 12593 0758 00       		.uleb128 0
 12594 0759 00       		.uleb128 0
 12595              	.LLSDACSE1455:
 12596              		.text
 12598              		.section	.data.rel.ro.local
 12599              		.align 8
 12602              	_ZTVN12_GLOBAL__N_130TestCheckEqualWithUnsignedLongE:
 12603 03e8 00000000 		.quad	0
 12603      00000000 
 12604 03f0 00000000 		.quad	_ZTIN12_GLOBAL__N_130TestCheckEqualWithUnsignedLongE
 12604      00000000 
 12605 03f8 00000000 		.quad	_ZN12_GLOBAL__N_130TestCheckEqualWithUnsignedLongD1Ev
 12605      00000000 
 12606 0400 00000000 		.quad	_ZN12_GLOBAL__N_130TestCheckEqualWithUnsignedLongD0Ev
 12606      00000000 
 12607 0408 00000000 		.quad	_ZNK12_GLOBAL__N_130TestCheckEqualWithUnsignedLong7RunImplEv
 12607      00000000 
 12608              		.text
 12609 49e7 90       		.align 2
 12611              	_ZN12_GLOBAL__N_130TestCheckEqualWithUnsignedLongD2Ev:
 12612              	.LFB1457:
  10:TestChecks.cpp **** {
 12613              		.loc 5 10 1 is_stmt 1
 12614              		.cfi_startproc
 12615 49e8 F30F1EFA 		endbr64
 12616 49ec 55       		pushq	%rbp
 12617              		.cfi_def_cfa_offset 16
 12618              		.cfi_offset 6, -16
 12619 49ed 4889E5   		movq	%rsp, %rbp
 12620              		.cfi_def_cfa_register 6
 12621 49f0 4883EC10 		subq	$16, %rsp
 12622 49f4 48897DF8 		movq	%rdi, -8(%rbp)
 12623              	.LBB108:
  10:TestChecks.cpp **** {
 12624              		.loc 5 10 1
 12625 49f8 488D1500 		leaq	16+_ZTVN12_GLOBAL__N_130TestCheckEqualWithUnsignedLongE(%rip), %rdx
 12625      000000
 12626 49ff 488B45F8 		movq	-8(%rbp), %rax
 12627 4a03 488910   		movq	%rdx, (%rax)
 12628 4a06 488B45F8 		movq	-8(%rbp), %rax
 12629 4a0a 4889C7   		movq	%rax, %rdi
 12630 4a0d E8000000 		call	_ZN8UnitTest4TestD2Ev@PLT
 12630      00
 12631              	.LBE108:
 12632 4a12 90       		nop
 12633 4a13 C9       		leave
 12634              		.cfi_def_cfa 7, 8
 12635 4a14 C3       		ret
 12636              		.cfi_endproc
 12637              	.LFE1457:
 12639              		.set	_ZN12_GLOBAL__N_130TestCheckEqualWithUnsignedLongD1Ev,_ZN12_GLOBAL__N_130TestCheckEqualWithUn
 12640 4a15 90       		.align 2
 12642              	_ZN12_GLOBAL__N_130TestCheckEqualWithUnsignedLongD0Ev:
 12643              	.LFB1459:
  10:TestChecks.cpp **** {
 12644              		.loc 5 10 1
 12645              		.cfi_startproc
 12646              		.cfi_personality 0x9b,DW.ref.__gxx_personality_v0
 12647              		.cfi_lsda 0x1b,.LLSDA1459
 12648 4a16 F30F1EFA 		endbr64
 12649 4a1a 55       		pushq	%rbp
 12650              		.cfi_def_cfa_offset 16
 12651              		.cfi_offset 6, -16
 12652 4a1b 4889E5   		movq	%rsp, %rbp
 12653              		.cfi_def_cfa_register 6
 12654 4a1e 53       		pushq	%rbx
 12655 4a1f 4883EC18 		subq	$24, %rsp
 12656              		.cfi_offset 3, -24
 12657 4a23 48897DE8 		movq	%rdi, -24(%rbp)
  10:TestChecks.cpp **** {
 12658              		.loc 5 10 1
 12659 4a27 488B45E8 		movq	-24(%rbp), %rax
 12660 4a2b 4889C7   		movq	%rax, %rdi
 12661              	.LEHB274:
 12662 4a2e E8B5FFFF 		call	_ZN12_GLOBAL__N_130TestCheckEqualWithUnsignedLongD1Ev
 12662      FF
 12663              	.LEHE274:
  10:TestChecks.cpp **** {
 12664              		.loc 5 10 1 is_stmt 0 discriminator 2
 12665 4a33 488B45E8 		movq	-24(%rbp), %rax
 12666 4a37 4889C7   		movq	%rax, %rdi
 12667 4a3a E8000000 		call	_ZdlPv@PLT
 12667      00
 12668 4a3f EB1E     		jmp	.L565
 12669              	.L564:
 12670 4a41 F30F1EFA 		endbr64
  10:TestChecks.cpp **** {
 12671              		.loc 5 10 1
 12672 4a45 4889C3   		movq	%rax, %rbx
 12673 4a48 488B45E8 		movq	-24(%rbp), %rax
 12674 4a4c 4889C7   		movq	%rax, %rdi
 12675 4a4f E8000000 		call	_ZdlPv@PLT
 12675      00
 12676 4a54 4889D8   		movq	%rbx, %rax
 12677 4a57 4889C7   		movq	%rax, %rdi
 12678              	.LEHB275:
 12679 4a5a E8000000 		call	_Unwind_Resume@PLT
 12679      00
 12680              	.LEHE275:
 12681              	.L565:
 12682 4a5f 488B5DF8 		movq	-8(%rbp), %rbx
 12683 4a63 C9       		leave
 12684              		.cfi_def_cfa 7, 8
 12685 4a64 C3       		ret
 12686              		.cfi_endproc
 12687              	.LFE1459:
 12688              		.section	.gcc_except_table
 12689              	.LLSDA1459:
 12690 075a FF       		.byte	0xff
 12691 075b FF       		.byte	0xff
 12692 075c 01       		.byte	0x1
 12693 075d 08       		.uleb128 .LLSDACSE1459-.LLSDACSB1459
 12694              	.LLSDACSB1459:
 12695 075e 18       		.uleb128 .LEHB274-.LFB1459
 12696 075f 05       		.uleb128 .LEHE274-.LEHB274
 12697 0760 2B       		.uleb128 .L564-.LFB1459
 12698 0761 00       		.uleb128 0
 12699 0762 44       		.uleb128 .LEHB275-.LFB1459
 12700 0763 05       		.uleb128 .LEHE275-.LEHB275
 12701 0764 00       		.uleb128 0
 12702 0765 00       		.uleb128 0
 12703              	.LLSDACSE1459:
 12704              		.text
 12706              		.weak	_ZTV17RecordingReporter
 12707              		.section	.data.rel.ro.local._ZTV17RecordingReporter,"awG",@progbits,_ZTV17RecordingReporter,comdat
 12708              		.align 8
 12711              	_ZTV17RecordingReporter:
 12712 0000 00000000 		.quad	0
 12712      00000000 
 12713 0008 00000000 		.quad	_ZTI17RecordingReporter
 12713      00000000 
 12714 0010 00000000 		.quad	_ZN17RecordingReporterD1Ev
 12714      00000000 
 12715 0018 00000000 		.quad	_ZN17RecordingReporterD0Ev
 12715      00000000 
 12716 0020 00000000 		.quad	_ZN17RecordingReporter15ReportTestStartERKN8UnitTest11TestDetailsE
 12716      00000000 
 12717 0028 00000000 		.quad	_ZN17RecordingReporter13ReportFailureERKN8UnitTest11TestDetailsEPKc
 12717      00000000 
 12718 0030 00000000 		.quad	_ZN17RecordingReporter16ReportTestFinishERKN8UnitTest11TestDetailsEf
 12718      00000000 
 12719 0038 00000000 		.quad	_ZN17RecordingReporter13ReportSummaryEiiif
 12719      00000000 
 12720              		.section	.text._ZN17RecordingReporterD2Ev,"axG",@progbits,_ZN17RecordingReporterD5Ev,comdat
 12721              		.align 2
 12722              		.weak	_ZN17RecordingReporterD2Ev
 12724              	_ZN17RecordingReporterD2Ev:
 12725              	.LFB1461:
   9:RecordingReporter.h **** {
 12726              		.loc 4 9 8 is_stmt 1
 12727              		.cfi_startproc
 12728 0000 F30F1EFA 		endbr64
 12729 0004 55       		pushq	%rbp
 12730              		.cfi_def_cfa_offset 16
 12731              		.cfi_offset 6, -16
 12732 0005 4889E5   		movq	%rsp, %rbp
 12733              		.cfi_def_cfa_register 6
 12734 0008 4883EC10 		subq	$16, %rsp
 12735 000c 48897DF8 		movq	%rdi, -8(%rbp)
 12736              	.LBB109:
   9:RecordingReporter.h **** {
 12737              		.loc 4 9 8
 12738 0010 488D1500 		leaq	16+_ZTV17RecordingReporter(%rip), %rdx
 12738      000000
 12739 0017 488B45F8 		movq	-8(%rbp), %rax
 12740 001b 488910   		movq	%rdx, (%rax)
 12741 001e 488B45F8 		movq	-8(%rbp), %rax
 12742 0022 4889C7   		movq	%rax, %rdi
 12743 0025 E8000000 		call	_ZN8UnitTest12TestReporterD2Ev@PLT
 12743      00
 12744              	.LBE109:
 12745 002a 90       		nop
 12746 002b C9       		leave
 12747              		.cfi_def_cfa 7, 8
 12748 002c C3       		ret
 12749              		.cfi_endproc
 12750              	.LFE1461:
 12752              		.weak	_ZN17RecordingReporterD1Ev
 12753              		.set	_ZN17RecordingReporterD1Ev,_ZN17RecordingReporterD2Ev
 12754              		.section	.text._ZN17RecordingReporterD0Ev,"axG",@progbits,_ZN17RecordingReporterD5Ev,comdat
 12755              		.align 2
 12756              		.weak	_ZN17RecordingReporterD0Ev
 12758              	_ZN17RecordingReporterD0Ev:
 12759              	.LFB1463:
   9:RecordingReporter.h **** {
 12760              		.loc 4 9 8
 12761              		.cfi_startproc
 12762              		.cfi_personality 0x9b,DW.ref.__gxx_personality_v0
 12763              		.cfi_lsda 0x1b,.LLSDA1463
 12764 0000 F30F1EFA 		endbr64
 12765 0004 55       		pushq	%rbp
 12766              		.cfi_def_cfa_offset 16
 12767              		.cfi_offset 6, -16
 12768 0005 4889E5   		movq	%rsp, %rbp
 12769              		.cfi_def_cfa_register 6
 12770 0008 53       		pushq	%rbx
 12771 0009 4883EC18 		subq	$24, %rsp
 12772              		.cfi_offset 3, -24
 12773 000d 48897DE8 		movq	%rdi, -24(%rbp)
   9:RecordingReporter.h **** {
 12774              		.loc 4 9 8
 12775 0011 488B45E8 		movq	-24(%rbp), %rax
 12776 0015 4889C7   		movq	%rax, %rdi
 12777              	.LEHB276:
 12778 0018 E8000000 		call	_ZN17RecordingReporterD1Ev
 12778      00
 12779              	.LEHE276:
   9:RecordingReporter.h **** {
 12780              		.loc 4 9 8 is_stmt 0 discriminator 2
 12781 001d 488B45E8 		movq	-24(%rbp), %rax
 12782 0021 4889C7   		movq	%rax, %rdi
 12783 0024 E8000000 		call	_ZdlPv@PLT
 12783      00
 12784 0029 EB1E     		jmp	.L570
 12785              	.L569:
 12786 002b F30F1EFA 		endbr64
   9:RecordingReporter.h **** {
 12787              		.loc 4 9 8
 12788 002f 4889C3   		movq	%rax, %rbx
 12789 0032 488B45E8 		movq	-24(%rbp), %rax
 12790 0036 4889C7   		movq	%rax, %rdi
 12791 0039 E8000000 		call	_ZdlPv@PLT
 12791      00
 12792 003e 4889D8   		movq	%rbx, %rax
 12793 0041 4889C7   		movq	%rax, %rdi
 12794              	.LEHB277:
 12795 0044 E8000000 		call	_Unwind_Resume@PLT
 12795      00
 12796              	.LEHE277:
 12797              	.L570:
 12798 0049 488B5DF8 		movq	-8(%rbp), %rbx
 12799 004d C9       		leave
 12800              		.cfi_def_cfa 7, 8
 12801 004e C3       		ret
 12802              		.cfi_endproc
 12803              	.LFE1463:
 12804              		.section	.gcc_except_table
 12805              	.LLSDA1463:
 12806 0766 FF       		.byte	0xff
 12807 0767 FF       		.byte	0xff
 12808 0768 01       		.byte	0x1
 12809 0769 08       		.uleb128 .LLSDACSE1463-.LLSDACSB1463
 12810              	.LLSDACSB1463:
 12811 076a 18       		.uleb128 .LEHB276-.LFB1463
 12812 076b 05       		.uleb128 .LEHE276-.LEHB276
 12813 076c 2B       		.uleb128 .L569-.LFB1463
 12814 076d 00       		.uleb128 0
 12815 076e 44       		.uleb128 .LEHB277-.LFB1463
 12816 076f 05       		.uleb128 .LEHE277-.LEHB277
 12817 0770 00       		.uleb128 0
 12818 0771 00       		.uleb128 0
 12819              	.LLSDACSE1463:
 12820              		.section	.text._ZN17RecordingReporterD0Ev,"axG",@progbits,_ZN17RecordingReporterD5Ev,comdat
 12822              		.weak	_ZTVN8UnitTest15MemoryOutStreamE
 12823              		.section	.data.rel.ro.local._ZTVN8UnitTest15MemoryOutStreamE,"awG",@progbits,_ZTVN8UnitTest15Memor
 12824              		.align 8
 12827              	_ZTVN8UnitTest15MemoryOutStreamE:
 12828 0000 90000000 		.quad	144
 12828      00000000 
 12829 0008 00000000 		.quad	0
 12829      00000000 
 12830 0010 00000000 		.quad	_ZTIN8UnitTest15MemoryOutStreamE
 12830      00000000 
 12831 0018 00000000 		.quad	_ZN8UnitTest15MemoryOutStreamD1Ev
 12831      00000000 
 12832 0020 00000000 		.quad	_ZN8UnitTest15MemoryOutStreamD0Ev
 12832      00000000 
 12833 0028 70FFFFFF 		.quad	-144
 12833      FFFFFFFF 
 12834 0030 70FFFFFF 		.quad	-144
 12834      FFFFFFFF 
 12835 0038 00000000 		.quad	_ZTIN8UnitTest15MemoryOutStreamE
 12835      00000000 
 12836 0040 00000000 		.quad	_ZTv0_n24_N8UnitTest15MemoryOutStreamD1Ev
 12836      00000000 
 12837 0048 00000000 		.quad	_ZTv0_n24_N8UnitTest15MemoryOutStreamD0Ev
 12837      00000000 
 12838              		.weak	_ZTTN8UnitTest15MemoryOutStreamE
 12839              		.section	.data.rel.ro.local._ZTTN8UnitTest15MemoryOutStreamE,"awG",@progbits,_ZTVN8UnitTest15Memor
 12840              		.align 8
 12843              	_ZTTN8UnitTest15MemoryOutStreamE:
 12844 0000 00000000 		.quad	_ZTVN8UnitTest15MemoryOutStreamE+24
 12844      00000000 
 12845 0008 00000000 		.quad	_ZTCN8UnitTest15MemoryOutStreamE0_NSt7__cxx1119basic_ostringstreamIcSt11char_traitsIcESaIcEE
 12845      00000000 
 12846 0010 00000000 		.quad	_ZTCN8UnitTest15MemoryOutStreamE0_So+24
 12846      00000000 
 12847 0018 00000000 		.quad	_ZTCN8UnitTest15MemoryOutStreamE0_So+64
 12847      00000000 
 12848 0020 00000000 		.quad	_ZTCN8UnitTest15MemoryOutStreamE0_NSt7__cxx1119basic_ostringstreamIcSt11char_traitsIcESaIcEE
 12848      00000000 
 12849 0028 00000000 		.quad	_ZTVN8UnitTest15MemoryOutStreamE+64
 12849      00000000 
 12850              		.hidden	_ZTCN8UnitTest15MemoryOutStreamE0_NSt7__cxx1119basic_ostringstreamIcSt11char_traitsIcESaIc
 12851              		.weak	_ZTCN8UnitTest15MemoryOutStreamE0_NSt7__cxx1119basic_ostringstreamIcSt11char_traitsIcESaIcEE
 12852              		.section	.data.rel.ro._ZTCN8UnitTest15MemoryOutStreamE0_NSt7__cxx1119basic_ostringstreamIcSt11char
 12853              		.align 8
 12856              	_ZTCN8UnitTest15MemoryOutStreamE0_NSt7__cxx1119basic_ostringstreamIcSt11char_traitsIcESaIcEEE:
 12857 0000 90000000 		.quad	144
 12857      00000000 
 12858 0008 00000000 		.quad	0
 12858      00000000 
 12859 0010 00000000 		.quad	_ZTINSt7__cxx1119basic_ostringstreamIcSt11char_traitsIcESaIcEEE
 12859      00000000 
 12860 0018 00000000 		.quad	0
 12860      00000000 
 12861 0020 00000000 		.quad	0
 12861      00000000 
 12862 0028 70FFFFFF 		.quad	-144
 12862      FFFFFFFF 
 12863 0030 70FFFFFF 		.quad	-144
 12863      FFFFFFFF 
 12864 0038 00000000 		.quad	_ZTINSt7__cxx1119basic_ostringstreamIcSt11char_traitsIcESaIcEEE
 12864      00000000 
 12865 0040 00000000 		.quad	0
 12865      00000000 
 12866 0048 00000000 		.quad	0
 12866      00000000 
 12867              		.hidden	_ZTCN8UnitTest15MemoryOutStreamE0_So
 12868              		.weak	_ZTCN8UnitTest15MemoryOutStreamE0_So
 12869              		.section	.data.rel.ro._ZTCN8UnitTest15MemoryOutStreamE0_So,"awG",@progbits,_ZTVN8UnitTest15MemoryO
 12870              		.align 8
 12873              	_ZTCN8UnitTest15MemoryOutStreamE0_So:
 12874 0000 90000000 		.quad	144
 12874      00000000 
 12875 0008 00000000 		.quad	0
 12875      00000000 
 12876 0010 00000000 		.quad	_ZTISo
 12876      00000000 
 12877 0018 00000000 		.quad	0
 12877      00000000 
 12878 0020 00000000 		.quad	0
 12878      00000000 
 12879 0028 70FFFFFF 		.quad	-144
 12879      FFFFFFFF 
 12880 0030 70FFFFFF 		.quad	-144
 12880      FFFFFFFF 
 12881 0038 00000000 		.quad	_ZTISo
 12881      00000000 
 12882 0040 00000000 		.quad	0
 12882      00000000 
 12883 0048 00000000 		.quad	0
 12883      00000000 
 12884              		.section	.rodata
 12885 0bfa 00000000 		.align 32
 12885      0000
 12888              	_ZTSN12_GLOBAL__N_143TestCheckArray2DCloseFailureIncludesDetailsE:
 12889 0c00 2A4E3132 		.string	"*N12_GLOBAL__N_143TestCheckArray2DCloseFailureIncludesDetailsE"
 12889      5F474C4F 
 12889      42414C5F 
 12889      5F4E5F31 
 12889      34335465 
 12890              		.section	.data.rel.ro,"aw"
 12891              		.align 8
 12894              	_ZTIN12_GLOBAL__N_143TestCheckArray2DCloseFailureIncludesDetailsE:
 12895 0000 00000000 		.quad	_ZTVN10__cxxabiv120__si_class_type_infoE+16
 12895      00000000 
 12896 0008 00000000 		.quad	_ZTSN12_GLOBAL__N_143TestCheckArray2DCloseFailureIncludesDetailsE
 12896      00000000 
 12897 0010 00000000 		.quad	_ZTIN8UnitTest4TestE
 12897      00000000 
 12898              		.section	.rodata
 12899 0c3f 00       		.align 32
 12902              	_ZTSN12_GLOBAL__N_133TestCheckCloseWithDoublesSucceedsE:
 12903 0c40 2A4E3132 		.string	"*N12_GLOBAL__N_133TestCheckCloseWithDoublesSucceedsE"
 12903      5F474C4F 
 12903      42414C5F 
 12903      5F4E5F31 
 12903      33335465 
 12904              		.section	.data.rel.ro
 12905              		.align 8
 12908              	_ZTIN12_GLOBAL__N_133TestCheckCloseWithDoublesSucceedsE:
 12909 0018 00000000 		.quad	_ZTVN10__cxxabiv120__si_class_type_infoE+16
 12909      00000000 
 12910 0020 00000000 		.quad	_ZTSN12_GLOBAL__N_133TestCheckCloseWithDoublesSucceedsE
 12910      00000000 
 12911 0028 00000000 		.quad	_ZTIN8UnitTest4TestE
 12911      00000000 
 12912              		.section	.rodata
 12913 0c75 00000000 		.align 32
 12913      00000000 
 12913      000000
 12916              	_ZTSN12_GLOBAL__N_126TestCheckArray2DCloseFalseE:
 12917 0c80 2A4E3132 		.string	"*N12_GLOBAL__N_126TestCheckArray2DCloseFalseE"
 12917      5F474C4F 
 12917      42414C5F 
 12917      5F4E5F31 
 12917      32365465 
 12918              		.section	.data.rel.ro
 12919              		.align 8
 12922              	_ZTIN12_GLOBAL__N_126TestCheckArray2DCloseFalseE:
 12923 0030 00000000 		.quad	_ZTVN10__cxxabiv120__si_class_type_infoE+16
 12923      00000000 
 12924 0038 00000000 		.quad	_ZTSN12_GLOBAL__N_126TestCheckArray2DCloseFalseE
 12924      00000000 
 12925 0040 00000000 		.quad	_ZTIN8UnitTest4TestE
 12925      00000000 
 12926              		.section	.rodata
 12927 0cae 00000000 		.align 32
 12927      00000000 
 12927      00000000 
 12927      00000000 
 12927      0000
 12930              	_ZTSN12_GLOBAL__N_125TestCheckArray2DCloseTrueE:
 12931 0cc0 2A4E3132 		.string	"*N12_GLOBAL__N_125TestCheckArray2DCloseTrueE"
 12931      5F474C4F 
 12931      42414C5F 
 12931      5F4E5F31 
 12931      32355465 
 12932              		.section	.data.rel.ro
 12933              		.align 8
 12936              	_ZTIN12_GLOBAL__N_125TestCheckArray2DCloseTrueE:
 12937 0048 00000000 		.quad	_ZTVN10__cxxabiv120__si_class_type_infoE+16
 12937      00000000 
 12938 0050 00000000 		.quad	_ZTSN12_GLOBAL__N_125TestCheckArray2DCloseTrueE
 12938      00000000 
 12939 0058 00000000 		.quad	_ZTIN8UnitTest4TestE
 12939      00000000 
 12940              		.section	.rodata
 12941 0ced 00000000 		.align 32
 12941      00000000 
 12941      00000000 
 12941      00000000 
 12941      000000
 12944              	_ZTSN12_GLOBAL__N_141TestCheckArrayCloseFailureIncludesDetailsE:
 12945 0d00 2A4E3132 		.string	"*N12_GLOBAL__N_141TestCheckArrayCloseFailureIncludesDetailsE"
 12945      5F474C4F 
 12945      42414C5F 
 12945      5F4E5F31 
 12945      34315465 
 12946              		.section	.data.rel.ro
 12947              		.align 8
 12950              	_ZTIN12_GLOBAL__N_141TestCheckArrayCloseFailureIncludesDetailsE:
 12951 0060 00000000 		.quad	_ZTVN10__cxxabiv120__si_class_type_infoE+16
 12951      00000000 
 12952 0068 00000000 		.quad	_ZTSN12_GLOBAL__N_141TestCheckArrayCloseFailureIncludesDetailsE
 12952      00000000 
 12953 0070 00000000 		.quad	_ZTIN8UnitTest4TestE
 12953      00000000 
 12954              		.section	.rodata
 12955 0d3d 000000   		.align 32
 12958              	_ZTSN12_GLOBAL__N_124TestCheckArrayCloseFalseE:
 12959 0d40 2A4E3132 		.string	"*N12_GLOBAL__N_124TestCheckArrayCloseFalseE"
 12959      5F474C4F 
 12959      42414C5F 
 12959      5F4E5F31 
 12959      32345465 
 12960              		.section	.data.rel.ro
 12961              		.align 8
 12964              	_ZTIN12_GLOBAL__N_124TestCheckArrayCloseFalseE:
 12965 0078 00000000 		.quad	_ZTVN10__cxxabiv120__si_class_type_infoE+16
 12965      00000000 
 12966 0080 00000000 		.quad	_ZTSN12_GLOBAL__N_124TestCheckArrayCloseFalseE
 12966      00000000 
 12967 0088 00000000 		.quad	_ZTIN8UnitTest4TestE
 12967      00000000 
 12968              		.section	.rodata
 12969 0d6c 00000000 		.align 32
 12969      00000000 
 12969      00000000 
 12969      00000000 
 12969      00000000 
 12972              	_ZTSN12_GLOBAL__N_123TestCheckArrayCloseTrueE:
 12973 0d80 2A4E3132 		.string	"*N12_GLOBAL__N_123TestCheckArrayCloseTrueE"
 12973      5F474C4F 
 12973      42414C5F 
 12973      5F4E5F31 
 12973      32335465 
 12974              		.section	.data.rel.ro
 12975              		.align 8
 12978              	_ZTIN12_GLOBAL__N_123TestCheckArrayCloseTrueE:
 12979 0090 00000000 		.quad	_ZTVN10__cxxabiv120__si_class_type_infoE+16
 12979      00000000 
 12980 0098 00000000 		.quad	_ZTSN12_GLOBAL__N_123TestCheckArrayCloseTrueE
 12980      00000000 
 12981 00a0 00000000 		.quad	_ZTIN8UnitTest4TestE
 12981      00000000 
 12982              		.section	.rodata
 12983 0dab 00000000 		.align 32
 12983      00000000 
 12983      00000000 
 12983      00000000 
 12983      00000000 
 12986              	_ZTSN12_GLOBAL__N_124TestCheckArrayEqualFalseE:
 12987 0dc0 2A4E3132 		.string	"*N12_GLOBAL__N_124TestCheckArrayEqualFalseE"
 12987      5F474C4F 
 12987      42414C5F 
 12987      5F4E5F31 
 12987      32345465 
 12988              		.section	.data.rel.ro
 12989              		.align 8
 12992              	_ZTIN12_GLOBAL__N_124TestCheckArrayEqualFalseE:
 12993 00a8 00000000 		.quad	_ZTVN10__cxxabiv120__si_class_type_infoE+16
 12993      00000000 
 12994 00b0 00000000 		.quad	_ZTSN12_GLOBAL__N_124TestCheckArrayEqualFalseE
 12994      00000000 
 12995 00b8 00000000 		.quad	_ZTIN8UnitTest4TestE
 12995      00000000 
 12996              		.section	.rodata
 12997 0dec 00000000 		.align 32
 12997      00000000 
 12997      00000000 
 12997      00000000 
 12997      00000000 
 13000              	_ZTSN12_GLOBAL__N_123TestCheckArrayEqualTrueE:
 13001 0e00 2A4E3132 		.string	"*N12_GLOBAL__N_123TestCheckArrayEqualTrueE"
 13001      5F474C4F 
 13001      42414C5F 
 13001      5F4E5F31 
 13001      32335465 
 13002              		.section	.data.rel.ro
 13003              		.align 8
 13006              	_ZTIN12_GLOBAL__N_123TestCheckArrayEqualTrueE:
 13007 00c0 00000000 		.quad	_ZTVN10__cxxabiv120__si_class_type_infoE+16
 13007      00000000 
 13008 00c8 00000000 		.quad	_ZTSN12_GLOBAL__N_123TestCheckArrayEqualTrueE
 13008      00000000 
 13009 00d0 00000000 		.quad	_ZTIN8UnitTest4TestE
 13009      00000000 
 13010              		.section	.rodata
 13011 0e2b 00000000 		.align 32
 13011      00000000 
 13011      00000000 
 13011      00000000 
 13011      00000000 
 13014              	_ZTSN12_GLOBAL__N_136TestCheckCloseFailureIncludesDetailsE:
 13015 0e40 2A4E3132 		.string	"*N12_GLOBAL__N_136TestCheckCloseFailureIncludesDetailsE"
 13015      5F474C4F 
 13015      42414C5F 
 13015      5F4E5F31 
 13015      33365465 
 13016              		.section	.data.rel.ro
 13017              		.align 8
 13020              	_ZTIN12_GLOBAL__N_136TestCheckCloseFailureIncludesDetailsE:
 13021 00d8 00000000 		.quad	_ZTVN10__cxxabiv120__si_class_type_infoE+16
 13021      00000000 
 13022 00e0 00000000 		.quad	_ZTSN12_GLOBAL__N_136TestCheckCloseFailureIncludesDetailsE
 13022      00000000 
 13023 00e8 00000000 		.quad	_ZTIN8UnitTest4TestE
 13023      00000000 
 13024              		.section	.rodata
 13025 0e78 00000000 		.align 32
 13025      00000000 
 13028              	_ZTSN12_GLOBAL__N_138TestCheckCloseFailureIncludesToleranceE:
 13029 0e80 2A4E3132 		.string	"*N12_GLOBAL__N_138TestCheckCloseFailureIncludesToleranceE"
 13029      5F474C4F 
 13029      42414C5F 
 13029      5F4E5F31 
 13029      33385465 
 13030              		.section	.data.rel.ro
 13031              		.align 8
 13034              	_ZTIN12_GLOBAL__N_138TestCheckCloseFailureIncludesToleranceE:
 13035 00f0 00000000 		.quad	_ZTVN10__cxxabiv120__si_class_type_infoE+16
 13035      00000000 
 13036 00f8 00000000 		.quad	_ZTSN12_GLOBAL__N_138TestCheckCloseFailureIncludesToleranceE
 13036      00000000 
 13037 0100 00000000 		.quad	_ZTIN8UnitTest4TestE
 13037      00000000 
 13038              		.section	.rodata
 13039 0eba 00000000 		.align 32
 13039      0000
 13042              	_ZTSN12_GLOBAL__N_151TestCheckCloseFailureIncludesCheckExpectedAndActualE:
 13043 0ec0 2A4E3132 		.string	"*N12_GLOBAL__N_151TestCheckCloseFailureIncludesCheckExpectedAndActualE"
 13043      5F474C4F 
 13043      42414C5F 
 13043      5F4E5F31 
 13043      35315465 
 13044              		.section	.data.rel.ro
 13045              		.align 8
 13048              	_ZTIN12_GLOBAL__N_151TestCheckCloseFailureIncludesCheckExpectedAndActualE:
 13049 0108 00000000 		.quad	_ZTVN10__cxxabiv120__si_class_type_infoE+16
 13049      00000000 
 13050 0110 00000000 		.quad	_ZTSN12_GLOBAL__N_151TestCheckCloseFailureIncludesCheckExpectedAndActualE
 13050      00000000 
 13051 0118 00000000 		.quad	_ZTIN8UnitTest4TestE
 13051      00000000 
 13052              		.section	.rodata
 13053 0f07 00000000 		.align 32
 13053      00000000 
 13053      00000000 
 13053      00000000 
 13053      00000000 
 13056              	_ZTSN12_GLOBAL__N_139TestCheckCloseWithNaNAgainstItselfFailsE:
 13057 0f20 2A4E3132 		.string	"*N12_GLOBAL__N_139TestCheckCloseWithNaNAgainstItselfFailsE"
 13057      5F474C4F 
 13057      42414C5F 
 13057      5F4E5F31 
 13057      33395465 
 13058              		.section	.data.rel.ro
 13059              		.align 8
 13062              	_ZTIN12_GLOBAL__N_139TestCheckCloseWithNaNAgainstItselfFailsE:
 13063 0120 00000000 		.quad	_ZTVN10__cxxabiv120__si_class_type_infoE+16
 13063      00000000 
 13064 0128 00000000 		.quad	_ZTSN12_GLOBAL__N_139TestCheckCloseWithNaNAgainstItselfFailsE
 13064      00000000 
 13065 0130 00000000 		.quad	_ZTIN8UnitTest4TestE
 13065      00000000 
 13066              		.section	.rodata
 13067 0f5b 00000000 		.align 32
 13067      00
 13070              	_ZTSN12_GLOBAL__N_126TestCheckCloseWithNaNFailsE:
 13071 0f60 2A4E3132 		.string	"*N12_GLOBAL__N_126TestCheckCloseWithNaNFailsE"
 13071      5F474C4F 
 13071      42414C5F 
 13071      5F4E5F31 
 13071      32365465 
 13072              		.section	.data.rel.ro
 13073              		.align 8
 13076              	_ZTIN12_GLOBAL__N_126TestCheckCloseWithNaNFailsE:
 13077 0138 00000000 		.quad	_ZTVN10__cxxabiv120__si_class_type_infoE+16
 13077      00000000 
 13078 0140 00000000 		.quad	_ZTSN12_GLOBAL__N_126TestCheckCloseWithNaNFailsE
 13078      00000000 
 13079 0148 00000000 		.quad	_ZTIN8UnitTest4TestE
 13079      00000000 
 13080              		.section	.rodata
 13081 0f8e 00000000 		.align 32
 13081      00000000 
 13081      00000000 
 13081      00000000 
 13081      0000
 13084              	_ZTSN12_GLOBAL__N_147TestCheckCloseWithZeroEpsilonWorksForSameNumberE:
 13085 0fa0 2A4E3132 		.string	"*N12_GLOBAL__N_147TestCheckCloseWithZeroEpsilonWorksForSameNumberE"
 13085      5F474C4F 
 13085      42414C5F 
 13085      5F4E5F31 
 13085      34375465 
 13086              		.section	.data.rel.ro
 13087              		.align 8
 13090              	_ZTIN12_GLOBAL__N_147TestCheckCloseWithZeroEpsilonWorksForSameNumberE:
 13091 0150 00000000 		.quad	_ZTVN10__cxxabiv120__si_class_type_infoE+16
 13091      00000000 
 13092 0158 00000000 		.quad	_ZTSN12_GLOBAL__N_147TestCheckCloseWithZeroEpsilonWorksForSameNumberE
 13092      00000000 
 13093 0160 00000000 		.quad	_ZTIN8UnitTest4TestE
 13093      00000000 
 13094              		.section	.rodata
 13095 0fe3 00000000 		.align 32
 13095      00000000 
 13095      00000000 
 13095      00000000 
 13095      00000000 
 13098              	_ZTSN12_GLOBAL__N_119TestCheckCloseFalseE:
 13099 1000 2A4E3132 		.string	"*N12_GLOBAL__N_119TestCheckCloseFalseE"
 13099      5F474C4F 
 13099      42414C5F 
 13099      5F4E5F31 
 13099      31395465 
 13100              		.section	.data.rel.ro
 13101              		.align 8
 13104              	_ZTIN12_GLOBAL__N_119TestCheckCloseFalseE:
 13105 0168 00000000 		.quad	_ZTVN10__cxxabiv120__si_class_type_infoE+16
 13105      00000000 
 13106 0170 00000000 		.quad	_ZTSN12_GLOBAL__N_119TestCheckCloseFalseE
 13106      00000000 
 13107 0178 00000000 		.quad	_ZTIN8UnitTest4TestE
 13107      00000000 
 13108              		.section	.rodata
 13109 1027 00000000 		.align 32
 13109      00000000 
 13109      00000000 
 13109      00000000 
 13109      00000000 
 13112              	_ZTSN12_GLOBAL__N_118TestCheckCloseTrueE:
 13113 1040 2A4E3132 		.string	"*N12_GLOBAL__N_118TestCheckCloseTrueE"
 13113      5F474C4F 
 13113      42414C5F 
 13113      5F4E5F31 
 13113      31385465 
 13114              		.section	.data.rel.ro
 13115              		.align 8
 13118              	_ZTIN12_GLOBAL__N_118TestCheckCloseTrueE:
 13119 0180 00000000 		.quad	_ZTVN10__cxxabiv120__si_class_type_infoE+16
 13119      00000000 
 13120 0188 00000000 		.quad	_ZTSN12_GLOBAL__N_118TestCheckCloseTrueE
 13120      00000000 
 13121 0190 00000000 		.quad	_ZTIN8UnitTest4TestE
 13121      00000000 
 13122              		.section	.rodata
 13123 1066 00000000 		.align 32
 13123      00000000 
 13123      00000000 
 13123      00000000 
 13123      00000000 
 13126              	_ZTSN12_GLOBAL__N_136TestCheckEqualFailureIncludesDetailsE:
 13127 1080 2A4E3132 		.string	"*N12_GLOBAL__N_136TestCheckEqualFailureIncludesDetailsE"
 13127      5F474C4F 
 13127      42414C5F 
 13127      5F4E5F31 
 13127      33365465 
 13128              		.section	.data.rel.ro
 13129              		.align 8
 13132              	_ZTIN12_GLOBAL__N_136TestCheckEqualFailureIncludesDetailsE:
 13133 0198 00000000 		.quad	_ZTVN10__cxxabiv120__si_class_type_infoE+16
 13133      00000000 
 13134 01a0 00000000 		.quad	_ZTSN12_GLOBAL__N_136TestCheckEqualFailureIncludesDetailsE
 13134      00000000 
 13135 01a8 00000000 		.quad	_ZTIN8UnitTest4TestE
 13135      00000000 
 13136              		.section	.rodata
 13137 10b8 00000000 		.align 32
 13137      00000000 
 13140              	_ZTSN12_GLOBAL__N_151TestCheckEqualFailureIncludesCheckExpectedAndActualE:
 13141 10c0 2A4E3132 		.string	"*N12_GLOBAL__N_151TestCheckEqualFailureIncludesCheckExpectedAndActualE"
 13141      5F474C4F 
 13141      42414C5F 
 13141      5F4E5F31 
 13141      35315465 
 13142              		.section	.data.rel.ro
 13143              		.align 8
 13146              	_ZTIN12_GLOBAL__N_151TestCheckEqualFailureIncludesCheckExpectedAndActualE:
 13147 01b0 00000000 		.quad	_ZTVN10__cxxabiv120__si_class_type_infoE+16
 13147      00000000 
 13148 01b8 00000000 		.quad	_ZTSN12_GLOBAL__N_151TestCheckEqualFailureIncludesCheckExpectedAndActualE
 13148      00000000 
 13149 01c0 00000000 		.quad	_ZTIN8UnitTest4TestE
 13149      00000000 
 13150              		.section	.rodata
 13151 1107 00000000 		.align 32
 13151      00000000 
 13151      00000000 
 13151      00000000 
 13151      00000000 
 13154              	_ZTSN12_GLOBAL__N_153TestCheckEqualsWithStringsWorksOnContentsWithALiteralE:
 13155 1120 2A4E3132 		.string	"*N12_GLOBAL__N_153TestCheckEqualsWithStringsWorksOnContentsWithALiteralE"
 13155      5F474C4F 
 13155      42414C5F 
 13155      5F4E5F31 
 13155      35335465 
 13156              		.section	.data.rel.ro
 13157              		.align 8
 13160              	_ZTIN12_GLOBAL__N_153TestCheckEqualsWithStringsWorksOnContentsWithALiteralE:
 13161 01c8 00000000 		.quad	_ZTVN10__cxxabiv120__si_class_type_infoE+16
 13161      00000000 
 13162 01d0 00000000 		.quad	_ZTSN12_GLOBAL__N_153TestCheckEqualsWithStringsWorksOnContentsWithALiteralE
 13162      00000000 
 13163 01d8 00000000 		.quad	_ZTIN8UnitTest4TestE
 13163      00000000 
 13164              		.section	.rodata
 13165 1169 00000000 		.align 32
 13165      00000000 
 13165      00000000 
 13165      00000000 
 13165      00000000 
 13168              	_ZTSN12_GLOBAL__N_154TestCheckEqualsWithStringsWorksOnContentsConstNonConstE:
 13169 1180 2A4E3132 		.string	"*N12_GLOBAL__N_154TestCheckEqualsWithStringsWorksOnContentsConstNonConstE"
 13169      5F474C4F 
 13169      42414C5F 
 13169      5F4E5F31 
 13169      35345465 
 13170              		.section	.data.rel.ro
 13171              		.align 8
 13174              	_ZTIN12_GLOBAL__N_154TestCheckEqualsWithStringsWorksOnContentsConstNonConstE:
 13175 01e0 00000000 		.quad	_ZTVN10__cxxabiv120__si_class_type_infoE+16
 13175      00000000 
 13176 01e8 00000000 		.quad	_ZTSN12_GLOBAL__N_154TestCheckEqualsWithStringsWorksOnContentsConstNonConstE
 13176      00000000 
 13177 01f0 00000000 		.quad	_ZTIN8UnitTest4TestE
 13177      00000000 
 13178              		.section	.rodata
 13179 11ca 00000000 		.align 32
 13179      00000000 
 13179      00000000 
 13179      00000000 
 13179      00000000 
 13182              	_ZTSN12_GLOBAL__N_154TestCheckEqualsWithStringsWorksOnContentsNonConstConstE:
 13183 11e0 2A4E3132 		.string	"*N12_GLOBAL__N_154TestCheckEqualsWithStringsWorksOnContentsNonConstConstE"
 13183      5F474C4F 
 13183      42414C5F 
 13183      5F4E5F31 
 13183      35345465 
 13184              		.section	.data.rel.ro
 13185              		.align 8
 13188              	_ZTIN12_GLOBAL__N_154TestCheckEqualsWithStringsWorksOnContentsNonConstConstE:
 13189 01f8 00000000 		.quad	_ZTVN10__cxxabiv120__si_class_type_infoE+16
 13189      00000000 
 13190 0200 00000000 		.quad	_ZTSN12_GLOBAL__N_154TestCheckEqualsWithStringsWorksOnContentsNonConstConstE
 13190      00000000 
 13191 0208 00000000 		.quad	_ZTIN8UnitTest4TestE
 13191      00000000 
 13192              		.section	.rodata
 13193 122a 00000000 		.align 32
 13193      00000000 
 13193      00000000 
 13193      00000000 
 13193      00000000 
 13196              	_ZTSN12_GLOBAL__N_151TestCheckEqualsWithStringsWorksOnContentsConstConstE:
 13197 1240 2A4E3132 		.string	"*N12_GLOBAL__N_151TestCheckEqualsWithStringsWorksOnContentsConstConstE"
 13197      5F474C4F 
 13197      42414C5F 
 13197      5F4E5F31 
 13197      35315465 
 13198              		.section	.data.rel.ro
 13199              		.align 8
 13202              	_ZTIN12_GLOBAL__N_151TestCheckEqualsWithStringsWorksOnContentsConstConstE:
 13203 0210 00000000 		.quad	_ZTVN10__cxxabiv120__si_class_type_infoE+16
 13203      00000000 
 13204 0218 00000000 		.quad	_ZTSN12_GLOBAL__N_151TestCheckEqualsWithStringsWorksOnContentsConstConstE
 13204      00000000 
 13205 0220 00000000 		.quad	_ZTIN8UnitTest4TestE
 13205      00000000 
 13206              		.section	.rodata
 13207 1287 00000000 		.align 32
 13207      00000000 
 13207      00000000 
 13207      00000000 
 13207      00000000 
 13210              	_ZTSN12_GLOBAL__N_157TestCheckEqualsWithStringsWorksOnContentsNonConstNonConstE:
 13211 12a0 2A4E3132 		.string	"*N12_GLOBAL__N_157TestCheckEqualsWithStringsWorksOnContentsNonConstNonConstE"
 13211      5F474C4F 
 13211      42414C5F 
 13211      5F4E5F31 
 13211      35375465 
 13212              		.section	.data.rel.ro
 13213              		.align 8
 13216              	_ZTIN12_GLOBAL__N_157TestCheckEqualsWithStringsWorksOnContentsNonConstNonConstE:
 13217 0228 00000000 		.quad	_ZTVN10__cxxabiv120__si_class_type_infoE+16
 13217      00000000 
 13218 0230 00000000 		.quad	_ZTSN12_GLOBAL__N_157TestCheckEqualsWithStringsWorksOnContentsNonConstNonConstE
 13218      00000000 
 13219 0238 00000000 		.quad	_ZTIN8UnitTest4TestE
 13219      00000000 
 13220              		.section	.rodata
 13221 12ed 00000000 		.align 32
 13221      00000000 
 13221      00000000 
 13221      00000000 
 13221      000000
 13224              	_ZTSN12_GLOBAL__N_149TestCheckEqualsWithStringsFailsOnDifferentStringsE:
 13225 1300 2A4E3132 		.string	"*N12_GLOBAL__N_149TestCheckEqualsWithStringsFailsOnDifferentStringsE"
 13225      5F474C4F 
 13225      42414C5F 
 13225      5F4E5F31 
 13225      34395465 
 13226              		.section	.data.rel.ro
 13227              		.align 8
 13230              	_ZTIN12_GLOBAL__N_149TestCheckEqualsWithStringsFailsOnDifferentStringsE:
 13231 0240 00000000 		.quad	_ZTVN10__cxxabiv120__si_class_type_infoE+16
 13231      00000000 
 13232 0248 00000000 		.quad	_ZTSN12_GLOBAL__N_149TestCheckEqualsWithStringsFailsOnDifferentStringsE
 13232      00000000 
 13233 0250 00000000 		.quad	_ZTIN8UnitTest4TestE
 13233      00000000 
 13234              		.section	.rodata
 13235 1345 00000000 		.align 32
 13235      00000000 
 13235      00000000 
 13235      00000000 
 13235      00000000 
 13238              	_ZTSN12_GLOBAL__N_130TestCheckEqualWithUnsignedLongE:
 13239 1360 2A4E3132 		.string	"*N12_GLOBAL__N_130TestCheckEqualWithUnsignedLongE"
 13239      5F474C4F 
 13239      42414C5F 
 13239      5F4E5F31 
 13239      33305465 
 13240              		.section	.data.rel.ro
 13241              		.align 8
 13244              	_ZTIN12_GLOBAL__N_130TestCheckEqualWithUnsignedLongE:
 13245 0258 00000000 		.quad	_ZTVN10__cxxabiv120__si_class_type_infoE+16
 13245      00000000 
 13246 0260 00000000 		.quad	_ZTSN12_GLOBAL__N_130TestCheckEqualWithUnsignedLongE
 13246      00000000 
 13247 0268 00000000 		.quad	_ZTIN8UnitTest4TestE
 13247      00000000 
 13248              		.weak	_ZTI17RecordingReporter
 13249              		.section	.data.rel.ro._ZTI17RecordingReporter,"awG",@progbits,_ZTI17RecordingReporter,comdat
 13250              		.align 8
 13253              	_ZTI17RecordingReporter:
 13254 0000 00000000 		.quad	_ZTVN10__cxxabiv120__si_class_type_infoE+16
 13254      00000000 
 13255 0008 00000000 		.quad	_ZTS17RecordingReporter
 13255      00000000 
 13256 0010 00000000 		.quad	_ZTIN8UnitTest12TestReporterE
 13256      00000000 
 13257              		.weak	_ZTS17RecordingReporter
 13258              		.section	.rodata._ZTS17RecordingReporter,"aG",@progbits,_ZTS17RecordingReporter,comdat
 13259              		.align 16
 13262              	_ZTS17RecordingReporter:
 13263 0000 31375265 		.string	"17RecordingReporter"
 13263      636F7264 
 13263      696E6752 
 13263      65706F72 
 13263      74657200 
 13264              		.weak	_ZTIN8UnitTest15MemoryOutStreamE
 13265              		.section	.data.rel.ro._ZTIN8UnitTest15MemoryOutStreamE,"awG",@progbits,_ZTIN8UnitTest15MemoryOutSt
 13266              		.align 8
 13269              	_ZTIN8UnitTest15MemoryOutStreamE:
 13270 0000 00000000 		.quad	_ZTVN10__cxxabiv120__si_class_type_infoE+16
 13270      00000000 
 13271 0008 00000000 		.quad	_ZTSN8UnitTest15MemoryOutStreamE
 13271      00000000 
 13272 0010 00000000 		.quad	_ZTINSt7__cxx1119basic_ostringstreamIcSt11char_traitsIcESaIcEEE
 13272      00000000 
 13273              		.weak	_ZTSN8UnitTest15MemoryOutStreamE
 13274              		.section	.rodata._ZTSN8UnitTest15MemoryOutStreamE,"aG",@progbits,_ZTSN8UnitTest15MemoryOutStreamE,
 13275              		.align 16
 13278              	_ZTSN8UnitTest15MemoryOutStreamE:
 13279 0000 4E38556E 		.string	"N8UnitTest15MemoryOutStreamE"
 13279      69745465 
 13279      73743135 
 13279      4D656D6F 
 13279      72794F75 
 13280              		.text
 13282              	_Z41__static_initialization_and_destruction_0ii:
 13283              	.LFB1464:
 292:TestChecks.cpp **** 
 293:TestChecks.cpp **** }
 13284              		.loc 5 293 1 is_stmt 1
 13285              		.cfi_startproc
 13286 4a65 F30F1EFA 		endbr64
 13287 4a69 55       		pushq	%rbp
 13288              		.cfi_def_cfa_offset 16
 13289              		.cfi_offset 6, -16
 13290 4a6a 4889E5   		movq	%rsp, %rbp
 13291              		.cfi_def_cfa_register 6
 13292 4a6d 4883EC10 		subq	$16, %rsp
 13293 4a71 897DFC   		movl	%edi, -4(%rbp)
 13294 4a74 8975F8   		movl	%esi, -8(%rbp)
 13295              		.loc 5 293 1
 13296 4a77 837DFC01 		cmpl	$1, -4(%rbp)
 13297 4a7b 0F85C908 		jne	.L573
 13297      0000
 13298              		.loc 5 293 1 is_stmt 0 discriminator 1
 13299 4a81 817DF8FF 		cmpl	$65535, -8(%rbp)
 13299      FF0000
 13300 4a88 0F85BC08 		jne	.L573
 13300      0000
  10:TestChecks.cpp **** {
 13301              		.loc 5 10 1 is_stmt 1
 13302 4a8e 488D0500 		leaq	_ZN12_GLOBAL__N_138testCheckEqualWithUnsignedLongInstanceE(%rip), %rax
 13302      000000
 13303 4a95 4889C7   		movq	%rax, %rdi
 13304 4a98 E863B5FF 		call	_ZN12_GLOBAL__N_130TestCheckEqualWithUnsignedLongC1Ev
 13304      FF
 13305 4a9d 488D0500 		leaq	__dso_handle(%rip), %rax
 13305      000000
 13306 4aa4 4889C2   		movq	%rax, %rdx
 13307 4aa7 488D0500 		leaq	_ZN12_GLOBAL__N_138testCheckEqualWithUnsignedLongInstanceE(%rip), %rax
 13307      000000
 13308 4aae 4889C6   		movq	%rax, %rsi
 13309 4ab1 488D0530 		leaq	_ZN12_GLOBAL__N_130TestCheckEqualWithUnsignedLongD1Ev(%rip), %rax
 13309      FFFFFF
 13310 4ab8 4889C7   		movq	%rax, %rdi
 13311 4abb E8000000 		call	__cxa_atexit@PLT
 13311      00
 13312 4ac0 E8000000 		call	_ZN8UnitTest4Test11GetTestListEv@PLT
 13312      00
 13313 4ac5 4889C1   		movq	%rax, %rcx
 13314 4ac8 488D0500 		leaq	_ZN12_GLOBAL__N_138testCheckEqualWithUnsignedLongInstanceE(%rip), %rax
 13314      000000
 13315 4acf 4889C2   		movq	%rax, %rdx
 13316 4ad2 4889CE   		movq	%rcx, %rsi
 13317 4ad5 488D0500 		leaq	_ZN12_GLOBAL__N_131adderCheckEqualWithUnsignedLongE(%rip), %rax
 13317      000000
 13318 4adc 4889C7   		movq	%rax, %rdi
 13319 4adf E8000000 		call	_ZN8UnitTest9ListAdderC1ERNS_8TestListEPNS_4TestE@PLT
 13319      00
  17:TestChecks.cpp **** {
 13320              		.loc 5 17 1
 13321 4ae4 488D0500 		leaq	_ZN12_GLOBAL__N_157testCheckEqualsWithStringsFailsOnDifferentStringsInstanceE(%rip), %rax
 13321      000000
 13322 4aeb 4889C7   		movq	%rax, %rdi
 13323 4aee E84FB6FF 		call	_ZN12_GLOBAL__N_149TestCheckEqualsWithStringsFailsOnDifferentStringsC1Ev
 13323      FF
 13324 4af3 488D0500 		leaq	__dso_handle(%rip), %rax
 13324      000000
 13325 4afa 4889C2   		movq	%rax, %rdx
 13326 4afd 488D0500 		leaq	_ZN12_GLOBAL__N_157testCheckEqualsWithStringsFailsOnDifferentStringsInstanceE(%rip), %rax
 13326      000000
 13327 4b04 4889C6   		movq	%rax, %rsi
 13328 4b07 488D055C 		leaq	_ZN12_GLOBAL__N_149TestCheckEqualsWithStringsFailsOnDifferentStringsD1Ev(%rip), %rax
 13328      FEFFFF
 13329 4b0e 4889C7   		movq	%rax, %rdi
 13330 4b11 E8000000 		call	__cxa_atexit@PLT
 13330      00
 13331 4b16 E8000000 		call	_ZN8UnitTest4Test11GetTestListEv@PLT
 13331      00
 13332 4b1b 4889C1   		movq	%rax, %rcx
 13333 4b1e 488D0500 		leaq	_ZN12_GLOBAL__N_157testCheckEqualsWithStringsFailsOnDifferentStringsInstanceE(%rip), %rax
 13333      000000
 13334 4b25 4889C2   		movq	%rax, %rdx
 13335 4b28 4889CE   		movq	%rcx, %rsi
 13336 4b2b 488D0500 		leaq	_ZN12_GLOBAL__N_150adderCheckEqualsWithStringsFailsOnDifferentStringsE(%rip), %rax
 13336      000000
 13337 4b32 4889C7   		movq	%rax, %rdi
 13338 4b35 E8000000 		call	_ZN8UnitTest9ListAdderC1ERNS_8TestListEPNS_4TestE@PLT
 13338      00
  29:TestChecks.cpp **** {
 13339              		.loc 5 29 1
 13340 4b3a 488D0500 		leaq	_ZN12_GLOBAL__N_165testCheckEqualsWithStringsWorksOnContentsNonConstNonConstInstanceE(%rip), 
 13340      000000
 13341 4b41 4889C7   		movq	%rax, %rdi
 13342 4b44 E8ABB7FF 		call	_ZN12_GLOBAL__N_157TestCheckEqualsWithStringsWorksOnContentsNonConstNonConstC1Ev
 13342      FF
 13343 4b49 488D0500 		leaq	__dso_handle(%rip), %rax
 13343      000000
 13344 4b50 4889C2   		movq	%rax, %rdx
 13345 4b53 488D0500 		leaq	_ZN12_GLOBAL__N_165testCheckEqualsWithStringsWorksOnContentsNonConstNonConstInstanceE(%rip), 
 13345      000000
 13346 4b5a 4889C6   		movq	%rax, %rsi
 13347 4b5d 488D0588 		leaq	_ZN12_GLOBAL__N_157TestCheckEqualsWithStringsWorksOnContentsNonConstNonConstD1Ev(%rip), %rax
 13347      FDFFFF
 13348 4b64 4889C7   		movq	%rax, %rdi
 13349 4b67 E8000000 		call	__cxa_atexit@PLT
 13349      00
 13350 4b6c E8000000 		call	_ZN8UnitTest4Test11GetTestListEv@PLT
 13350      00
 13351 4b71 4889C1   		movq	%rax, %rcx
 13352 4b74 488D0500 		leaq	_ZN12_GLOBAL__N_165testCheckEqualsWithStringsWorksOnContentsNonConstNonConstInstanceE(%rip), 
 13352      000000
 13353 4b7b 4889C2   		movq	%rax, %rdx
 13354 4b7e 4889CE   		movq	%rcx, %rsi
 13355 4b81 488D0500 		leaq	_ZN12_GLOBAL__N_158adderCheckEqualsWithStringsWorksOnContentsNonConstNonConstE(%rip), %rax
 13355      000000
 13356 4b88 4889C7   		movq	%rax, %rdi
 13357 4b8b E8000000 		call	_ZN8UnitTest9ListAdderC1ERNS_8TestListEPNS_4TestE@PLT
 13357      00
  38:TestChecks.cpp **** {
 13358              		.loc 5 38 1
 13359 4b90 488D0500 		leaq	_ZN12_GLOBAL__N_159testCheckEqualsWithStringsWorksOnContentsConstConstInstanceE(%rip), %rax
 13359      000000
 13360 4b97 4889C7   		movq	%rax, %rdi
 13361 4b9a E80BB9FF 		call	_ZN12_GLOBAL__N_151TestCheckEqualsWithStringsWorksOnContentsConstConstC1Ev
 13361      FF
 13362 4b9f 488D0500 		leaq	__dso_handle(%rip), %rax
 13362      000000
 13363 4ba6 4889C2   		movq	%rax, %rdx
 13364 4ba9 488D0500 		leaq	_ZN12_GLOBAL__N_159testCheckEqualsWithStringsWorksOnContentsConstConstInstanceE(%rip), %rax
 13364      000000
 13365 4bb0 4889C6   		movq	%rax, %rsi
 13366 4bb3 488D05B4 		leaq	_ZN12_GLOBAL__N_151TestCheckEqualsWithStringsWorksOnContentsConstConstD1Ev(%rip), %rax
 13366      FCFFFF
 13367 4bba 4889C7   		movq	%rax, %rdi
 13368 4bbd E8000000 		call	__cxa_atexit@PLT
 13368      00
 13369 4bc2 E8000000 		call	_ZN8UnitTest4Test11GetTestListEv@PLT
 13369      00
 13370 4bc7 4889C1   		movq	%rax, %rcx
 13371 4bca 488D0500 		leaq	_ZN12_GLOBAL__N_159testCheckEqualsWithStringsWorksOnContentsConstConstInstanceE(%rip), %rax
 13371      000000
 13372 4bd1 4889C2   		movq	%rax, %rdx
 13373 4bd4 4889CE   		movq	%rcx, %rsi
 13374 4bd7 488D0500 		leaq	_ZN12_GLOBAL__N_152adderCheckEqualsWithStringsWorksOnContentsConstConstE(%rip), %rax
 13374      000000
 13375 4bde 4889C7   		movq	%rax, %rdi
 13376 4be1 E8000000 		call	_ZN8UnitTest9ListAdderC1ERNS_8TestListEPNS_4TestE@PLT
 13376      00
  47:TestChecks.cpp **** {
 13377              		.loc 5 47 1
 13378 4be6 488D0500 		leaq	_ZN12_GLOBAL__N_162testCheckEqualsWithStringsWorksOnContentsNonConstConstInstanceE(%rip), %ra
 13378      000000
 13379 4bed 4889C7   		movq	%rax, %rdi
 13380 4bf0 E86BBAFF 		call	_ZN12_GLOBAL__N_154TestCheckEqualsWithStringsWorksOnContentsNonConstConstC1Ev
 13380      FF
 13381 4bf5 488D0500 		leaq	__dso_handle(%rip), %rax
 13381      000000
 13382 4bfc 4889C2   		movq	%rax, %rdx
 13383 4bff 488D0500 		leaq	_ZN12_GLOBAL__N_162testCheckEqualsWithStringsWorksOnContentsNonConstConstInstanceE(%rip), %ra
 13383      000000
 13384 4c06 4889C6   		movq	%rax, %rsi
 13385 4c09 488D05E0 		leaq	_ZN12_GLOBAL__N_154TestCheckEqualsWithStringsWorksOnContentsNonConstConstD1Ev(%rip), %rax
 13385      FBFFFF
 13386 4c10 4889C7   		movq	%rax, %rdi
 13387 4c13 E8000000 		call	__cxa_atexit@PLT
 13387      00
 13388 4c18 E8000000 		call	_ZN8UnitTest4Test11GetTestListEv@PLT
 13388      00
 13389 4c1d 4889C1   		movq	%rax, %rcx
 13390 4c20 488D0500 		leaq	_ZN12_GLOBAL__N_162testCheckEqualsWithStringsWorksOnContentsNonConstConstInstanceE(%rip), %ra
 13390      000000
 13391 4c27 4889C2   		movq	%rax, %rdx
 13392 4c2a 4889CE   		movq	%rcx, %rsi
 13393 4c2d 488D0500 		leaq	_ZN12_GLOBAL__N_155adderCheckEqualsWithStringsWorksOnContentsNonConstConstE(%rip), %rax
 13393      000000
 13394 4c34 4889C7   		movq	%rax, %rdi
 13395 4c37 E8000000 		call	_ZN8UnitTest9ListAdderC1ERNS_8TestListEPNS_4TestE@PLT
 13395      00
  56:TestChecks.cpp **** {
 13396              		.loc 5 56 1
 13397 4c3c 488D0500 		leaq	_ZN12_GLOBAL__N_162testCheckEqualsWithStringsWorksOnContentsConstNonConstInstanceE(%rip), %ra
 13397      000000
 13398 4c43 4889C7   		movq	%rax, %rdi
 13399 4c46 E8CBBBFF 		call	_ZN12_GLOBAL__N_154TestCheckEqualsWithStringsWorksOnContentsConstNonConstC1Ev
 13399      FF
 13400 4c4b 488D0500 		leaq	__dso_handle(%rip), %rax
 13400      000000
 13401 4c52 4889C2   		movq	%rax, %rdx
 13402 4c55 488D0500 		leaq	_ZN12_GLOBAL__N_162testCheckEqualsWithStringsWorksOnContentsConstNonConstInstanceE(%rip), %ra
 13402      000000
 13403 4c5c 4889C6   		movq	%rax, %rsi
 13404 4c5f 488D050C 		leaq	_ZN12_GLOBAL__N_154TestCheckEqualsWithStringsWorksOnContentsConstNonConstD1Ev(%rip), %rax
 13404      FBFFFF
 13405 4c66 4889C7   		movq	%rax, %rdi
 13406 4c69 E8000000 		call	__cxa_atexit@PLT
 13406      00
 13407 4c6e E8000000 		call	_ZN8UnitTest4Test11GetTestListEv@PLT
 13407      00
 13408 4c73 4889C1   		movq	%rax, %rcx
 13409 4c76 488D0500 		leaq	_ZN12_GLOBAL__N_162testCheckEqualsWithStringsWorksOnContentsConstNonConstInstanceE(%rip), %ra
 13409      000000
 13410 4c7d 4889C2   		movq	%rax, %rdx
 13411 4c80 4889CE   		movq	%rcx, %rsi
 13412 4c83 488D0500 		leaq	_ZN12_GLOBAL__N_155adderCheckEqualsWithStringsWorksOnContentsConstNonConstE(%rip), %rax
 13412      000000
 13413 4c8a 4889C7   		movq	%rax, %rdi
 13414 4c8d E8000000 		call	_ZN8UnitTest9ListAdderC1ERNS_8TestListEPNS_4TestE@PLT
 13414      00
  65:TestChecks.cpp **** {
 13415              		.loc 5 65 1
 13416 4c92 488D0500 		leaq	_ZN12_GLOBAL__N_161testCheckEqualsWithStringsWorksOnContentsWithALiteralInstanceE(%rip), %rax
 13416      000000
 13417 4c99 4889C7   		movq	%rax, %rdi
 13418 4c9c E82BBDFF 		call	_ZN12_GLOBAL__N_153TestCheckEqualsWithStringsWorksOnContentsWithALiteralC1Ev
 13418      FF
 13419 4ca1 488D0500 		leaq	__dso_handle(%rip), %rax
 13419      000000
 13420 4ca8 4889C2   		movq	%rax, %rdx
 13421 4cab 488D0500 		leaq	_ZN12_GLOBAL__N_161testCheckEqualsWithStringsWorksOnContentsWithALiteralInstanceE(%rip), %rax
 13421      000000
 13422 4cb2 4889C6   		movq	%rax, %rsi
 13423 4cb5 488D0538 		leaq	_ZN12_GLOBAL__N_153TestCheckEqualsWithStringsWorksOnContentsWithALiteralD1Ev(%rip), %rax
 13423      FAFFFF
 13424 4cbc 4889C7   		movq	%rax, %rdi
 13425 4cbf E8000000 		call	__cxa_atexit@PLT
 13425      00
 13426 4cc4 E8000000 		call	_ZN8UnitTest4Test11GetTestListEv@PLT
 13426      00
 13427 4cc9 4889C1   		movq	%rax, %rcx
 13428 4ccc 488D0500 		leaq	_ZN12_GLOBAL__N_161testCheckEqualsWithStringsWorksOnContentsWithALiteralInstanceE(%rip), %rax
 13428      000000
 13429 4cd3 4889C2   		movq	%rax, %rdx
 13430 4cd6 4889CE   		movq	%rcx, %rsi
 13431 4cd9 488D0500 		leaq	_ZN12_GLOBAL__N_154adderCheckEqualsWithStringsWorksOnContentsWithALiteralE(%rip), %rax
 13431      000000
 13432 4ce0 4889C7   		movq	%rax, %rdi
 13433 4ce3 E8000000 		call	_ZN8UnitTest9ListAdderC1ERNS_8TestListEPNS_4TestE@PLT
 13433      00
  73:TestChecks.cpp **** {
 13434              		.loc 5 73 1
 13435 4ce8 488D0500 		leaq	_ZN12_GLOBAL__N_159testCheckEqualFailureIncludesCheckExpectedAndActualInstanceE(%rip), %rax
 13435      000000
 13436 4cef 4889C7   		movq	%rax, %rdi
 13437 4cf2 E87BBEFF 		call	_ZN12_GLOBAL__N_151TestCheckEqualFailureIncludesCheckExpectedAndActualC1Ev
 13437      FF
 13438 4cf7 488D0500 		leaq	__dso_handle(%rip), %rax
 13438      000000
 13439 4cfe 4889C2   		movq	%rax, %rdx
 13440 4d01 488D0500 		leaq	_ZN12_GLOBAL__N_159testCheckEqualFailureIncludesCheckExpectedAndActualInstanceE(%rip), %rax
 13440      000000
 13441 4d08 4889C6   		movq	%rax, %rsi
 13442 4d0b 488D0564 		leaq	_ZN12_GLOBAL__N_151TestCheckEqualFailureIncludesCheckExpectedAndActualD1Ev(%rip), %rax
 13442      F9FFFF
 13443 4d12 4889C7   		movq	%rax, %rdi
 13444 4d15 E8000000 		call	__cxa_atexit@PLT
 13444      00
 13445 4d1a E8000000 		call	_ZN8UnitTest4Test11GetTestListEv@PLT
 13445      00
 13446 4d1f 4889C1   		movq	%rax, %rcx
 13447 4d22 488D0500 		leaq	_ZN12_GLOBAL__N_159testCheckEqualFailureIncludesCheckExpectedAndActualInstanceE(%rip), %rax
 13447      000000
 13448 4d29 4889C2   		movq	%rax, %rdx
 13449 4d2c 4889CE   		movq	%rcx, %rsi
 13450 4d2f 488D0500 		leaq	_ZN12_GLOBAL__N_152adderCheckEqualFailureIncludesCheckExpectedAndActualE(%rip), %rax
 13450      000000
 13451 4d36 4889C7   		movq	%rax, %rdi
 13452 4d39 E8000000 		call	_ZN8UnitTest9ListAdderC1ERNS_8TestListEPNS_4TestE@PLT
 13452      00
  85:TestChecks.cpp **** {
 13453              		.loc 5 85 1
 13454 4d3e 488D0500 		leaq	_ZN12_GLOBAL__N_144testCheckEqualFailureIncludesDetailsInstanceE(%rip), %rax
 13454      000000
 13455 4d45 4889C7   		movq	%rax, %rdi
 13456 4d48 E81FC1FF 		call	_ZN12_GLOBAL__N_136TestCheckEqualFailureIncludesDetailsC1Ev
 13456      FF
 13457 4d4d 488D0500 		leaq	__dso_handle(%rip), %rax
 13457      000000
 13458 4d54 4889C2   		movq	%rax, %rdx
 13459 4d57 488D0500 		leaq	_ZN12_GLOBAL__N_144testCheckEqualFailureIncludesDetailsInstanceE(%rip), %rax
 13459      000000
 13460 4d5e 4889C6   		movq	%rax, %rsi
 13461 4d61 488D0590 		leaq	_ZN12_GLOBAL__N_136TestCheckEqualFailureIncludesDetailsD1Ev(%rip), %rax
 13461      F8FFFF
 13462 4d68 4889C7   		movq	%rax, %rdi
 13463 4d6b E8000000 		call	__cxa_atexit@PLT
 13463      00
 13464 4d70 E8000000 		call	_ZN8UnitTest4Test11GetTestListEv@PLT
 13464      00
 13465 4d75 4889C1   		movq	%rax, %rcx
 13466 4d78 488D0500 		leaq	_ZN12_GLOBAL__N_144testCheckEqualFailureIncludesDetailsInstanceE(%rip), %rax
 13466      000000
 13467 4d7f 4889C2   		movq	%rax, %rdx
 13468 4d82 4889CE   		movq	%rcx, %rsi
 13469 4d85 488D0500 		leaq	_ZN12_GLOBAL__N_137adderCheckEqualFailureIncludesDetailsE(%rip), %rax
 13469      000000
 13470 4d8c 4889C7   		movq	%rax, %rdi
 13471 4d8f E8000000 		call	_ZN8UnitTest9ListAdderC1ERNS_8TestListEPNS_4TestE@PLT
 13471      00
  99:TestChecks.cpp **** {
 13472              		.loc 5 99 1
 13473 4d94 488D0500 		leaq	_ZN12_GLOBAL__N_126testCheckCloseTrueInstanceE(%rip), %rax
 13473      000000
 13474 4d9b 4889C7   		movq	%rax, %rdi
 13475 4d9e E803C5FF 		call	_ZN12_GLOBAL__N_118TestCheckCloseTrueC1Ev
 13475      FF
 13476 4da3 488D0500 		leaq	__dso_handle(%rip), %rax
 13476      000000
 13477 4daa 4889C2   		movq	%rax, %rdx
 13478 4dad 488D0500 		leaq	_ZN12_GLOBAL__N_126testCheckCloseTrueInstanceE(%rip), %rax
 13478      000000
 13479 4db4 4889C6   		movq	%rax, %rsi
 13480 4db7 488D05BC 		leaq	_ZN12_GLOBAL__N_118TestCheckCloseTrueD1Ev(%rip), %rax
 13480      F7FFFF
 13481 4dbe 4889C7   		movq	%rax, %rdi
 13482 4dc1 E8000000 		call	__cxa_atexit@PLT
 13482      00
 13483 4dc6 E8000000 		call	_ZN8UnitTest4Test11GetTestListEv@PLT
 13483      00
 13484 4dcb 4889C1   		movq	%rax, %rcx
 13485 4dce 488D0500 		leaq	_ZN12_GLOBAL__N_126testCheckCloseTrueInstanceE(%rip), %rax
 13485      000000
 13486 4dd5 4889C2   		movq	%rax, %rdx
 13487 4dd8 4889CE   		movq	%rcx, %rsi
 13488 4ddb 488D0500 		leaq	_ZN12_GLOBAL__N_119adderCheckCloseTrueE(%rip), %rax
 13488      000000
 13489 4de2 4889C7   		movq	%rax, %rdi
 13490 4de5 E8000000 		call	_ZN8UnitTest9ListAdderC1ERNS_8TestListEPNS_4TestE@PLT
 13490      00
 106:TestChecks.cpp **** {
 13491              		.loc 5 106 1
 13492 4dea 488D0500 		leaq	_ZN12_GLOBAL__N_127testCheckCloseFalseInstanceE(%rip), %rax
 13492      000000
 13493 4df1 4889C7   		movq	%rax, %rdi
 13494 4df4 E86DC6FF 		call	_ZN12_GLOBAL__N_119TestCheckCloseFalseC1Ev
 13494      FF
 13495 4df9 488D0500 		leaq	__dso_handle(%rip), %rax
 13495      000000
 13496 4e00 4889C2   		movq	%rax, %rdx
 13497 4e03 488D0500 		leaq	_ZN12_GLOBAL__N_127testCheckCloseFalseInstanceE(%rip), %rax
 13497      000000
 13498 4e0a 4889C6   		movq	%rax, %rsi
 13499 4e0d 488D05E8 		leaq	_ZN12_GLOBAL__N_119TestCheckCloseFalseD1Ev(%rip), %rax
 13499      F6FFFF
 13500 4e14 4889C7   		movq	%rax, %rdi
 13501 4e17 E8000000 		call	__cxa_atexit@PLT
 13501      00
 13502 4e1c E8000000 		call	_ZN8UnitTest4Test11GetTestListEv@PLT
 13502      00
 13503 4e21 4889C1   		movq	%rax, %rcx
 13504 4e24 488D0500 		leaq	_ZN12_GLOBAL__N_127testCheckCloseFalseInstanceE(%rip), %rax
 13504      000000
 13505 4e2b 4889C2   		movq	%rax, %rdx
 13506 4e2e 4889CE   		movq	%rcx, %rsi
 13507 4e31 488D0500 		leaq	_ZN12_GLOBAL__N_120adderCheckCloseFalseE(%rip), %rax
 13507      000000
 13508 4e38 4889C7   		movq	%rax, %rdi
 13509 4e3b E8000000 		call	_ZN8UnitTest9ListAdderC1ERNS_8TestListEPNS_4TestE@PLT
 13509      00
 113:TestChecks.cpp **** {
 13510              		.loc 5 113 1
 13511 4e40 488D0500 		leaq	_ZN12_GLOBAL__N_155testCheckCloseWithZeroEpsilonWorksForSameNumberInstanceE(%rip), %rax
 13511      000000
 13512 4e47 4889C7   		movq	%rax, %rdi
 13513 4e4a E8D7C7FF 		call	_ZN12_GLOBAL__N_147TestCheckCloseWithZeroEpsilonWorksForSameNumberC1Ev
 13513      FF
 13514 4e4f 488D0500 		leaq	__dso_handle(%rip), %rax
 13514      000000
 13515 4e56 4889C2   		movq	%rax, %rdx
 13516 4e59 488D0500 		leaq	_ZN12_GLOBAL__N_155testCheckCloseWithZeroEpsilonWorksForSameNumberInstanceE(%rip), %rax
 13516      000000
 13517 4e60 4889C6   		movq	%rax, %rsi
 13518 4e63 488D0514 		leaq	_ZN12_GLOBAL__N_147TestCheckCloseWithZeroEpsilonWorksForSameNumberD1Ev(%rip), %rax
 13518      F6FFFF
 13519 4e6a 4889C7   		movq	%rax, %rdi
 13520 4e6d E8000000 		call	__cxa_atexit@PLT
 13520      00
 13521 4e72 E8000000 		call	_ZN8UnitTest4Test11GetTestListEv@PLT
 13521      00
 13522 4e77 4889C1   		movq	%rax, %rcx
 13523 4e7a 488D0500 		leaq	_ZN12_GLOBAL__N_155testCheckCloseWithZeroEpsilonWorksForSameNumberInstanceE(%rip), %rax
 13523      000000
 13524 4e81 4889C2   		movq	%rax, %rdx
 13525 4e84 4889CE   		movq	%rcx, %rsi
 13526 4e87 488D0500 		leaq	_ZN12_GLOBAL__N_148adderCheckCloseWithZeroEpsilonWorksForSameNumberE(%rip), %rax
 13526      000000
 13527 4e8e 4889C7   		movq	%rax, %rdi
 13528 4e91 E8000000 		call	_ZN8UnitTest9ListAdderC1ERNS_8TestListEPNS_4TestE@PLT
 13528      00
 120:TestChecks.cpp **** {
 13529              		.loc 5 120 1
 13530 4e96 488D0500 		leaq	_ZN12_GLOBAL__N_134testCheckCloseWithNaNFailsInstanceE(%rip), %rax
 13530      000000
 13531 4e9d 4889C7   		movq	%rax, %rdi
 13532 4ea0 E83BC9FF 		call	_ZN12_GLOBAL__N_126TestCheckCloseWithNaNFailsC1Ev
 13532      FF
 13533 4ea5 488D0500 		leaq	__dso_handle(%rip), %rax
 13533      000000
 13534 4eac 4889C2   		movq	%rax, %rdx
 13535 4eaf 488D0500 		leaq	_ZN12_GLOBAL__N_134testCheckCloseWithNaNFailsInstanceE(%rip), %rax
 13535      000000
 13536 4eb6 4889C6   		movq	%rax, %rsi
 13537 4eb9 488D0540 		leaq	_ZN12_GLOBAL__N_126TestCheckCloseWithNaNFailsD1Ev(%rip), %rax
 13537      F5FFFF
 13538 4ec0 4889C7   		movq	%rax, %rdi
 13539 4ec3 E8000000 		call	__cxa_atexit@PLT
 13539      00
 13540 4ec8 E8000000 		call	_ZN8UnitTest4Test11GetTestListEv@PLT
 13540      00
 13541 4ecd 4889C1   		movq	%rax, %rcx
 13542 4ed0 488D0500 		leaq	_ZN12_GLOBAL__N_134testCheckCloseWithNaNFailsInstanceE(%rip), %rax
 13542      000000
 13543 4ed7 4889C2   		movq	%rax, %rdx
 13544 4eda 4889CE   		movq	%rcx, %rsi
 13545 4edd 488D0500 		leaq	_ZN12_GLOBAL__N_127adderCheckCloseWithNaNFailsE(%rip), %rax
 13545      000000
 13546 4ee4 4889C7   		movq	%rax, %rdi
 13547 4ee7 E8000000 		call	_ZN8UnitTest9ListAdderC1ERNS_8TestListEPNS_4TestE@PLT
 13547      00
 133:TestChecks.cpp **** {
 13548              		.loc 5 133 1
 13549 4eec 488D0500 		leaq	_ZN12_GLOBAL__N_147testCheckCloseWithNaNAgainstItselfFailsInstanceE(%rip), %rax
 13549      000000
 13550 4ef3 4889C7   		movq	%rax, %rdi
 13551 4ef6 E89FCAFF 		call	_ZN12_GLOBAL__N_139TestCheckCloseWithNaNAgainstItselfFailsC1Ev
 13551      FF
 13552 4efb 488D0500 		leaq	__dso_handle(%rip), %rax
 13552      000000
 13553 4f02 4889C2   		movq	%rax, %rdx
 13554 4f05 488D0500 		leaq	_ZN12_GLOBAL__N_147testCheckCloseWithNaNAgainstItselfFailsInstanceE(%rip), %rax
 13554      000000
 13555 4f0c 4889C6   		movq	%rax, %rsi
 13556 4f0f 488D056C 		leaq	_ZN12_GLOBAL__N_139TestCheckCloseWithNaNAgainstItselfFailsD1Ev(%rip), %rax
 13556      F4FFFF
 13557 4f16 4889C7   		movq	%rax, %rdi
 13558 4f19 E8000000 		call	__cxa_atexit@PLT
 13558      00
 13559 4f1e E8000000 		call	_ZN8UnitTest4Test11GetTestListEv@PLT
 13559      00
 13560 4f23 4889C1   		movq	%rax, %rcx
 13561 4f26 488D0500 		leaq	_ZN12_GLOBAL__N_147testCheckCloseWithNaNAgainstItselfFailsInstanceE(%rip), %rax
 13561      000000
 13562 4f2d 4889C2   		movq	%rax, %rdx
 13563 4f30 4889CE   		movq	%rcx, %rsi
 13564 4f33 488D0500 		leaq	_ZN12_GLOBAL__N_140adderCheckCloseWithNaNAgainstItselfFailsE(%rip), %rax
 13564      000000
 13565 4f3a 4889C7   		movq	%rax, %rdi
 13566 4f3d E8000000 		call	_ZN8UnitTest9ListAdderC1ERNS_8TestListEPNS_4TestE@PLT
 13566      00
 146:TestChecks.cpp **** {
 13567              		.loc 5 146 1
 13568 4f42 488D0500 		leaq	_ZN12_GLOBAL__N_159testCheckCloseFailureIncludesCheckExpectedAndActualInstanceE(%rip), %rax
 13568      000000
 13569 4f49 4889C7   		movq	%rax, %rdi
 13570 4f4c E8F5CBFF 		call	_ZN12_GLOBAL__N_151TestCheckCloseFailureIncludesCheckExpectedAndActualC1Ev
 13570      FF
 13571 4f51 488D0500 		leaq	__dso_handle(%rip), %rax
 13571      000000
 13572 4f58 4889C2   		movq	%rax, %rdx
 13573 4f5b 488D0500 		leaq	_ZN12_GLOBAL__N_159testCheckCloseFailureIncludesCheckExpectedAndActualInstanceE(%rip), %rax
 13573      000000
 13574 4f62 4889C6   		movq	%rax, %rsi
 13575 4f65 488D0598 		leaq	_ZN12_GLOBAL__N_151TestCheckCloseFailureIncludesCheckExpectedAndActualD1Ev(%rip), %rax
 13575      F3FFFF
 13576 4f6c 4889C7   		movq	%rax, %rdi
 13577 4f6f E8000000 		call	__cxa_atexit@PLT
 13577      00
 13578 4f74 E8000000 		call	_ZN8UnitTest4Test11GetTestListEv@PLT
 13578      00
 13579 4f79 4889C1   		movq	%rax, %rcx
 13580 4f7c 488D0500 		leaq	_ZN12_GLOBAL__N_159testCheckCloseFailureIncludesCheckExpectedAndActualInstanceE(%rip), %rax
 13580      000000
 13581 4f83 4889C2   		movq	%rax, %rdx
 13582 4f86 4889CE   		movq	%rcx, %rsi
 13583 4f89 488D0500 		leaq	_ZN12_GLOBAL__N_152adderCheckCloseFailureIncludesCheckExpectedAndActualE(%rip), %rax
 13583      000000
 13584 4f90 4889C7   		movq	%rax, %rdi
 13585 4f93 E8000000 		call	_ZN8UnitTest9ListAdderC1ERNS_8TestListEPNS_4TestE@PLT
 13585      00
 159:TestChecks.cpp **** {
 13586              		.loc 5 159 1
 13587 4f98 488D0500 		leaq	_ZN12_GLOBAL__N_146testCheckCloseFailureIncludesToleranceInstanceE(%rip), %rax
 13587      000000
 13588 4f9f 4889C7   		movq	%rax, %rdi
 13589 4fa2 E8BFCEFF 		call	_ZN12_GLOBAL__N_138TestCheckCloseFailureIncludesToleranceC1Ev
 13589      FF
 13590 4fa7 488D0500 		leaq	__dso_handle(%rip), %rax
 13590      000000
 13591 4fae 4889C2   		movq	%rax, %rdx
 13592 4fb1 488D0500 		leaq	_ZN12_GLOBAL__N_146testCheckCloseFailureIncludesToleranceInstanceE(%rip), %rax
 13592      000000
 13593 4fb8 4889C6   		movq	%rax, %rsi
 13594 4fbb 488D05C4 		leaq	_ZN12_GLOBAL__N_138TestCheckCloseFailureIncludesToleranceD1Ev(%rip), %rax
 13594      F2FFFF
 13595 4fc2 4889C7   		movq	%rax, %rdi
 13596 4fc5 E8000000 		call	__cxa_atexit@PLT
 13596      00
 13597 4fca E8000000 		call	_ZN8UnitTest4Test11GetTestListEv@PLT
 13597      00
 13598 4fcf 4889C1   		movq	%rax, %rcx
 13599 4fd2 488D0500 		leaq	_ZN12_GLOBAL__N_146testCheckCloseFailureIncludesToleranceInstanceE(%rip), %rax
 13599      000000
 13600 4fd9 4889C2   		movq	%rax, %rdx
 13601 4fdc 4889CE   		movq	%rcx, %rsi
 13602 4fdf 488D0500 		leaq	_ZN12_GLOBAL__N_139adderCheckCloseFailureIncludesToleranceE(%rip), %rax
 13602      000000
 13603 4fe6 4889C7   		movq	%rax, %rdi
 13604 4fe9 E8000000 		call	_ZN8UnitTest9ListAdderC1ERNS_8TestListEPNS_4TestE@PLT
 13604      00
 169:TestChecks.cpp **** {
 13605              		.loc 5 169 1
 13606 4fee 488D0500 		leaq	_ZN12_GLOBAL__N_144testCheckCloseFailureIncludesDetailsInstanceE(%rip), %rax
 13606      000000
 13607 4ff5 4889C7   		movq	%rax, %rdi
 13608 4ff8 E8A9D0FF 		call	_ZN12_GLOBAL__N_136TestCheckCloseFailureIncludesDetailsC1Ev
 13608      FF
 13609 4ffd 488D0500 		leaq	__dso_handle(%rip), %rax
 13609      000000
 13610 5004 4889C2   		movq	%rax, %rdx
 13611 5007 488D0500 		leaq	_ZN12_GLOBAL__N_144testCheckCloseFailureIncludesDetailsInstanceE(%rip), %rax
 13611      000000
 13612 500e 4889C6   		movq	%rax, %rsi
 13613 5011 488D05F0 		leaq	_ZN12_GLOBAL__N_136TestCheckCloseFailureIncludesDetailsD1Ev(%rip), %rax
 13613      F1FFFF
 13614 5018 4889C7   		movq	%rax, %rdi
 13615 501b E8000000 		call	__cxa_atexit@PLT
 13615      00
 13616 5020 E8000000 		call	_ZN8UnitTest4Test11GetTestListEv@PLT
 13616      00
 13617 5025 4889C1   		movq	%rax, %rcx
 13618 5028 488D0500 		leaq	_ZN12_GLOBAL__N_144testCheckCloseFailureIncludesDetailsInstanceE(%rip), %rax
 13618      000000
 13619 502f 4889C2   		movq	%rax, %rdx
 13620 5032 4889CE   		movq	%rcx, %rsi
 13621 5035 488D0500 		leaq	_ZN12_GLOBAL__N_137adderCheckCloseFailureIncludesDetailsE(%rip), %rax
 13621      000000
 13622 503c 4889C7   		movq	%rax, %rdi
 13623 503f E8000000 		call	_ZN8UnitTest9ListAdderC1ERNS_8TestListEPNS_4TestE@PLT
 13623      00
 184:TestChecks.cpp **** {
 13624              		.loc 5 184 1
 13625 5044 488D0500 		leaq	_ZN12_GLOBAL__N_131testCheckArrayEqualTrueInstanceE(%rip), %rax
 13625      000000
 13626 504b 4889C7   		movq	%rax, %rdi
 13627 504e E8A7D4FF 		call	_ZN12_GLOBAL__N_123TestCheckArrayEqualTrueC1Ev
 13627      FF
 13628 5053 488D0500 		leaq	__dso_handle(%rip), %rax
 13628      000000
 13629 505a 4889C2   		movq	%rax, %rdx
 13630 505d 488D0500 		leaq	_ZN12_GLOBAL__N_131testCheckArrayEqualTrueInstanceE(%rip), %rax
 13630      000000
 13631 5064 4889C6   		movq	%rax, %rsi
 13632 5067 488D051C 		leaq	_ZN12_GLOBAL__N_123TestCheckArrayEqualTrueD1Ev(%rip), %rax
 13632      F1FFFF
 13633 506e 4889C7   		movq	%rax, %rdi
 13634 5071 E8000000 		call	__cxa_atexit@PLT
 13634      00
 13635 5076 E8000000 		call	_ZN8UnitTest4Test11GetTestListEv@PLT
 13635      00
 13636 507b 4889C1   		movq	%rax, %rcx
 13637 507e 488D0500 		leaq	_ZN12_GLOBAL__N_131testCheckArrayEqualTrueInstanceE(%rip), %rax
 13637      000000
 13638 5085 4889C2   		movq	%rax, %rdx
 13639 5088 4889CE   		movq	%rcx, %rsi
 13640 508b 488D0500 		leaq	_ZN12_GLOBAL__N_124adderCheckArrayEqualTrueE(%rip), %rax
 13640      000000
 13641 5092 4889C7   		movq	%rax, %rdi
 13642 5095 E8000000 		call	_ZN8UnitTest9ListAdderC1ERNS_8TestListEPNS_4TestE@PLT
 13642      00
 193:TestChecks.cpp **** {
 13643              		.loc 5 193 1
 13644 509a 488D0500 		leaq	_ZN12_GLOBAL__N_132testCheckArrayEqualFalseInstanceE(%rip), %rax
 13644      000000
 13645 50a1 4889C7   		movq	%rax, %rdi
 13646 50a4 E805D6FF 		call	_ZN12_GLOBAL__N_124TestCheckArrayEqualFalseC1Ev
 13646      FF
 13647 50a9 488D0500 		leaq	__dso_handle(%rip), %rax
 13647      000000
 13648 50b0 4889C2   		movq	%rax, %rdx
 13649 50b3 488D0500 		leaq	_ZN12_GLOBAL__N_132testCheckArrayEqualFalseInstanceE(%rip), %rax
 13649      000000
 13650 50ba 4889C6   		movq	%rax, %rsi
 13651 50bd 488D0548 		leaq	_ZN12_GLOBAL__N_124TestCheckArrayEqualFalseD1Ev(%rip), %rax
 13651      F0FFFF
 13652 50c4 4889C7   		movq	%rax, %rdi
 13653 50c7 E8000000 		call	__cxa_atexit@PLT
 13653      00
 13654 50cc E8000000 		call	_ZN8UnitTest4Test11GetTestListEv@PLT
 13654      00
 13655 50d1 4889C1   		movq	%rax, %rcx
 13656 50d4 488D0500 		leaq	_ZN12_GLOBAL__N_132testCheckArrayEqualFalseInstanceE(%rip), %rax
 13656      000000
 13657 50db 4889C2   		movq	%rax, %rdx
 13658 50de 4889CE   		movq	%rcx, %rsi
 13659 50e1 488D0500 		leaq	_ZN12_GLOBAL__N_125adderCheckArrayEqualFalseE(%rip), %rax
 13659      000000
 13660 50e8 4889C7   		movq	%rax, %rdi
 13661 50eb E8000000 		call	_ZN8UnitTest9ListAdderC1ERNS_8TestListEPNS_4TestE@PLT
 13661      00
 203:TestChecks.cpp **** {
 13662              		.loc 5 203 1
 13663 50f0 488D0500 		leaq	_ZN12_GLOBAL__N_131testCheckArrayCloseTrueInstanceE(%rip), %rax
 13663      000000
 13664 50f7 4889C7   		movq	%rax, %rdi
 13665 50fa E879D7FF 		call	_ZN12_GLOBAL__N_123TestCheckArrayCloseTrueC1Ev
 13665      FF
 13666 50ff 488D0500 		leaq	__dso_handle(%rip), %rax
 13666      000000
 13667 5106 4889C2   		movq	%rax, %rdx
 13668 5109 488D0500 		leaq	_ZN12_GLOBAL__N_131testCheckArrayCloseTrueInstanceE(%rip), %rax
 13668      000000
 13669 5110 4889C6   		movq	%rax, %rsi
 13670 5113 488D0574 		leaq	_ZN12_GLOBAL__N_123TestCheckArrayCloseTrueD1Ev(%rip), %rax
 13670      EFFFFF
 13671 511a 4889C7   		movq	%rax, %rdi
 13672 511d E8000000 		call	__cxa_atexit@PLT
 13672      00
 13673 5122 E8000000 		call	_ZN8UnitTest4Test11GetTestListEv@PLT
 13673      00
 13674 5127 4889C1   		movq	%rax, %rcx
 13675 512a 488D0500 		leaq	_ZN12_GLOBAL__N_131testCheckArrayCloseTrueInstanceE(%rip), %rax
 13675      000000
 13676 5131 4889C2   		movq	%rax, %rdx
 13677 5134 4889CE   		movq	%rcx, %rsi
 13678 5137 488D0500 		leaq	_ZN12_GLOBAL__N_124adderCheckArrayCloseTrueE(%rip), %rax
 13678      000000
 13679 513e 4889C7   		movq	%rax, %rdi
 13680 5141 E8000000 		call	_ZN8UnitTest9ListAdderC1ERNS_8TestListEPNS_4TestE@PLT
 13680      00
 213:TestChecks.cpp **** {
 13681              		.loc 5 213 1
 13682 5146 488D0500 		leaq	_ZN12_GLOBAL__N_132testCheckArrayCloseFalseInstanceE(%rip), %rax
 13682      000000
 13683 514d 4889C7   		movq	%rax, %rdi
 13684 5150 E825D9FF 		call	_ZN12_GLOBAL__N_124TestCheckArrayCloseFalseC1Ev
 13684      FF
 13685 5155 488D0500 		leaq	__dso_handle(%rip), %rax
 13685      000000
 13686 515c 4889C2   		movq	%rax, %rdx
 13687 515f 488D0500 		leaq	_ZN12_GLOBAL__N_132testCheckArrayCloseFalseInstanceE(%rip), %rax
 13687      000000
 13688 5166 4889C6   		movq	%rax, %rsi
 13689 5169 488D05A0 		leaq	_ZN12_GLOBAL__N_124TestCheckArrayCloseFalseD1Ev(%rip), %rax
 13689      EEFFFF
 13690 5170 4889C7   		movq	%rax, %rdi
 13691 5173 E8000000 		call	__cxa_atexit@PLT
 13691      00
 13692 5178 E8000000 		call	_ZN8UnitTest4Test11GetTestListEv@PLT
 13692      00
 13693 517d 4889C1   		movq	%rax, %rcx
 13694 5180 488D0500 		leaq	_ZN12_GLOBAL__N_132testCheckArrayCloseFalseInstanceE(%rip), %rax
 13694      000000
 13695 5187 4889C2   		movq	%rax, %rdx
 13696 518a 4889CE   		movq	%rcx, %rsi
 13697 518d 488D0500 		leaq	_ZN12_GLOBAL__N_125adderCheckArrayCloseFalseE(%rip), %rax
 13697      000000
 13698 5194 4889C7   		movq	%rax, %rdi
 13699 5197 E8000000 		call	_ZN8UnitTest9ListAdderC1ERNS_8TestListEPNS_4TestE@PLT
 13699      00
 223:TestChecks.cpp **** {
 13700              		.loc 5 223 1
 13701 519c 488D0500 		leaq	_ZN12_GLOBAL__N_149testCheckArrayCloseFailureIncludesDetailsInstanceE(%rip), %rax
 13701      000000
 13702 51a3 4889C7   		movq	%rax, %rdi
 13703 51a6 E8D1DAFF 		call	_ZN12_GLOBAL__N_141TestCheckArrayCloseFailureIncludesDetailsC1Ev
 13703      FF
 13704 51ab 488D0500 		leaq	__dso_handle(%rip), %rax
 13704      000000
 13705 51b2 4889C2   		movq	%rax, %rdx
 13706 51b5 488D0500 		leaq	_ZN12_GLOBAL__N_149testCheckArrayCloseFailureIncludesDetailsInstanceE(%rip), %rax
 13706      000000
 13707 51bc 4889C6   		movq	%rax, %rsi
 13708 51bf 488D05CC 		leaq	_ZN12_GLOBAL__N_141TestCheckArrayCloseFailureIncludesDetailsD1Ev(%rip), %rax
 13708      EDFFFF
 13709 51c6 4889C7   		movq	%rax, %rdi
 13710 51c9 E8000000 		call	__cxa_atexit@PLT
 13710      00
 13711 51ce E8000000 		call	_ZN8UnitTest4Test11GetTestListEv@PLT
 13711      00
 13712 51d3 4889C1   		movq	%rax, %rcx
 13713 51d6 488D0500 		leaq	_ZN12_GLOBAL__N_149testCheckArrayCloseFailureIncludesDetailsInstanceE(%rip), %rax
 13713      000000
 13714 51dd 4889C2   		movq	%rax, %rdx
 13715 51e0 4889CE   		movq	%rcx, %rsi
 13716 51e3 488D0500 		leaq	_ZN12_GLOBAL__N_142adderCheckArrayCloseFailureIncludesDetailsE(%rip), %rax
 13716      000000
 13717 51ea 4889C7   		movq	%rax, %rdi
 13718 51ed E8000000 		call	_ZN8UnitTest9ListAdderC1ERNS_8TestListEPNS_4TestE@PLT
 13718      00
 240:TestChecks.cpp **** {
 13719              		.loc 5 240 1
 13720 51f2 488D0500 		leaq	_ZN12_GLOBAL__N_133testCheckArray2DCloseTrueInstanceE(%rip), %rax
 13720      000000
 13721 51f9 4889C7   		movq	%rax, %rdi
 13722 51fc E823DFFF 		call	_ZN12_GLOBAL__N_125TestCheckArray2DCloseTrueC1Ev
 13722      FF
 13723 5201 488D0500 		leaq	__dso_handle(%rip), %rax
 13723      000000
 13724 5208 4889C2   		movq	%rax, %rdx
 13725 520b 488D0500 		leaq	_ZN12_GLOBAL__N_133testCheckArray2DCloseTrueInstanceE(%rip), %rax
 13725      000000
 13726 5212 4889C6   		movq	%rax, %rsi
 13727 5215 488D05F8 		leaq	_ZN12_GLOBAL__N_125TestCheckArray2DCloseTrueD1Ev(%rip), %rax
 13727      ECFFFF
 13728 521c 4889C7   		movq	%rax, %rdi
 13729 521f E8000000 		call	__cxa_atexit@PLT
 13729      00
 13730 5224 E8000000 		call	_ZN8UnitTest4Test11GetTestListEv@PLT
 13730      00
 13731 5229 4889C1   		movq	%rax, %rcx
 13732 522c 488D0500 		leaq	_ZN12_GLOBAL__N_133testCheckArray2DCloseTrueInstanceE(%rip), %rax
 13732      000000
 13733 5233 4889C2   		movq	%rax, %rdx
 13734 5236 4889CE   		movq	%rcx, %rsi
 13735 5239 488D0500 		leaq	_ZN12_GLOBAL__N_126adderCheckArray2DCloseTrueE(%rip), %rax
 13735      000000
 13736 5240 4889C7   		movq	%rax, %rdi
 13737 5243 E8000000 		call	_ZN8UnitTest9ListAdderC1ERNS_8TestListEPNS_4TestE@PLT
 13737      00
 254:TestChecks.cpp **** {
 13738              		.loc 5 254 1
 13739 5248 488D0500 		leaq	_ZN12_GLOBAL__N_134testCheckArray2DCloseFalseInstanceE(%rip), %rax
 13739      000000
 13740 524f 4889C7   		movq	%rax, %rdi
 13741 5252 E8A3E1FF 		call	_ZN12_GLOBAL__N_126TestCheckArray2DCloseFalseC1Ev
 13741      FF
 13742 5257 488D0500 		leaq	__dso_handle(%rip), %rax
 13742      000000
 13743 525e 4889C2   		movq	%rax, %rdx
 13744 5261 488D0500 		leaq	_ZN12_GLOBAL__N_134testCheckArray2DCloseFalseInstanceE(%rip), %rax
 13744      000000
 13745 5268 4889C6   		movq	%rax, %rsi
 13746 526b 488D0524 		leaq	_ZN12_GLOBAL__N_126TestCheckArray2DCloseFalseD1Ev(%rip), %rax
 13746      ECFFFF
 13747 5272 4889C7   		movq	%rax, %rdi
 13748 5275 E8000000 		call	__cxa_atexit@PLT
 13748      00
 13749 527a E8000000 		call	_ZN8UnitTest4Test11GetTestListEv@PLT
 13749      00
 13750 527f 4889C1   		movq	%rax, %rcx
 13751 5282 488D0500 		leaq	_ZN12_GLOBAL__N_134testCheckArray2DCloseFalseInstanceE(%rip), %rax
 13751      000000
 13752 5289 4889C2   		movq	%rax, %rdx
 13753 528c 4889CE   		movq	%rcx, %rsi
 13754 528f 488D0500 		leaq	_ZN12_GLOBAL__N_127adderCheckArray2DCloseFalseE(%rip), %rax
 13754      000000
 13755 5296 4889C7   		movq	%rax, %rdi
 13756 5299 E8000000 		call	_ZN8UnitTest9ListAdderC1ERNS_8TestListEPNS_4TestE@PLT
 13756      00
 268:TestChecks.cpp **** {
 13757              		.loc 5 268 1
 13758 529e 488D0500 		leaq	_ZN12_GLOBAL__N_141testCheckCloseWithDoublesSucceedsInstanceE(%rip), %rax
 13758      000000
 13759 52a5 4889C7   		movq	%rax, %rdi
 13760 52a8 E823E4FF 		call	_ZN12_GLOBAL__N_133TestCheckCloseWithDoublesSucceedsC1Ev
 13760      FF
 13761 52ad 488D0500 		leaq	__dso_handle(%rip), %rax
 13761      000000
 13762 52b4 4889C2   		movq	%rax, %rdx
 13763 52b7 488D0500 		leaq	_ZN12_GLOBAL__N_141testCheckCloseWithDoublesSucceedsInstanceE(%rip), %rax
 13763      000000
 13764 52be 4889C6   		movq	%rax, %rsi
 13765 52c1 488D0550 		leaq	_ZN12_GLOBAL__N_133TestCheckCloseWithDoublesSucceedsD1Ev(%rip), %rax
 13765      EBFFFF
 13766 52c8 4889C7   		movq	%rax, %rdi
 13767 52cb E8000000 		call	__cxa_atexit@PLT
 13767      00
 13768 52d0 E8000000 		call	_ZN8UnitTest4Test11GetTestListEv@PLT
 13768      00
 13769 52d5 4889C1   		movq	%rax, %rcx
 13770 52d8 488D0500 		leaq	_ZN12_GLOBAL__N_141testCheckCloseWithDoublesSucceedsInstanceE(%rip), %rax
 13770      000000
 13771 52df 4889C2   		movq	%rax, %rdx
 13772 52e2 4889CE   		movq	%rcx, %rsi
 13773 52e5 488D0500 		leaq	_ZN12_GLOBAL__N_134adderCheckCloseWithDoublesSucceedsE(%rip), %rax
 13773      000000
 13774 52ec 4889C7   		movq	%rax, %rdi
 13775 52ef E8000000 		call	_ZN8UnitTest9ListAdderC1ERNS_8TestListEPNS_4TestE@PLT
 13775      00
 273:TestChecks.cpp **** {
 13776              		.loc 5 273 1
 13777 52f4 488D0500 		leaq	_ZN12_GLOBAL__N_151testCheckArray2DCloseFailureIncludesDetailsInstanceE(%rip), %rax
 13777      000000
 13778 52fb 4889C7   		movq	%rax, %rdi
 13779 52fe E823E5FF 		call	_ZN12_GLOBAL__N_143TestCheckArray2DCloseFailureIncludesDetailsC1Ev
 13779      FF
 13780 5303 488D0500 		leaq	__dso_handle(%rip), %rax
 13780      000000
 13781 530a 4889C2   		movq	%rax, %rdx
 13782 530d 488D0500 		leaq	_ZN12_GLOBAL__N_151testCheckArray2DCloseFailureIncludesDetailsInstanceE(%rip), %rax
 13782      000000
 13783 5314 4889C6   		movq	%rax, %rsi
 13784 5317 488D057C 		leaq	_ZN12_GLOBAL__N_143TestCheckArray2DCloseFailureIncludesDetailsD1Ev(%rip), %rax
 13784      EAFFFF
 13785 531e 4889C7   		movq	%rax, %rdi
 13786 5321 E8000000 		call	__cxa_atexit@PLT
 13786      00
 13787 5326 E8000000 		call	_ZN8UnitTest4Test11GetTestListEv@PLT
 13787      00
 13788 532b 4889C1   		movq	%rax, %rcx
 13789 532e 488D0500 		leaq	_ZN12_GLOBAL__N_151testCheckArray2DCloseFailureIncludesDetailsInstanceE(%rip), %rax
 13789      000000
 13790 5335 4889C2   		movq	%rax, %rdx
 13791 5338 4889CE   		movq	%rcx, %rsi
 13792 533b 488D0500 		leaq	_ZN12_GLOBAL__N_144adderCheckArray2DCloseFailureIncludesDetailsE(%rip), %rax
 13792      000000
 13793 5342 4889C7   		movq	%rax, %rdi
 13794 5345 E8000000 		call	_ZN8UnitTest9ListAdderC1ERNS_8TestListEPNS_4TestE@PLT
 13794      00
 13795              	.L573:
 13796              		.loc 5 293 1
 13797 534a 90       		nop
 13798 534b C9       		leave
 13799              		.cfi_def_cfa 7, 8
 13800 534c C3       		ret
 13801              		.cfi_endproc
 13802              	.LFE1464:
 13805              	_GLOBAL__sub_I_TestChecks.cpp:
 13806              	.LFB1465:
 13807              		.loc 5 293 1
 13808              		.cfi_startproc
 13809 534d F30F1EFA 		endbr64
 13810 5351 55       		pushq	%rbp
 13811              		.cfi_def_cfa_offset 16
 13812              		.cfi_offset 6, -16
 13813 5352 4889E5   		movq	%rsp, %rbp
 13814              		.cfi_def_cfa_register 6
 13815              		.loc 5 293 1
 13816 5355 BEFFFF00 		movl	$65535, %esi
 13816      00
 13817 535a BF010000 		movl	$1, %edi
 13817      00
 13818 535f E801F7FF 		call	_Z41__static_initialization_and_destruction_0ii
 13818      FF
 13819 5364 5D       		popq	%rbp
 13820              		.cfi_def_cfa 7, 8
 13821 5365 C3       		ret
 13822              		.cfi_endproc
 13823              	.LFE1465:
 13825              		.section	.init_array,"aw"
 13826              		.align 8
 13827 0000 00000000 		.quad	_GLOBAL__sub_I_TestChecks.cpp
 13827      00000000 
 13828              		.section	.rodata
 13829 1392 0000     		.align 4
 13830              	.LC31:
 13831 1394 CDCCCC3D 		.long	1036831949
 13832              		.align 4
 13833              	.LC32:
 13834 1398 00004040 		.long	1077936128
 13835              		.align 4
 13836              	.LC33:
 13837 139c 62104040 		.long	1077940322
 13838              		.align 4
 13839              	.LC35:
 13840 13a0 14AE4740 		.long	1078439444
 13841              		.align 4
 13842              	.LC40:
 13843 13a4 6666663F 		.long	1063675494
 13844              		.align 4
 13845              	.LC41:
 13846 13a8 CDCC8C3F 		.long	1066192077
 13847              		.align 4
 13848              	.LC42:
 13849 13ac 0AD7233C 		.long	1008981770
 13850              		.align 4
 13851              	.LC60:
 13852 13b0 0000803F 		.long	1065353216
 13853              		.align 4
 13854              	.LC61:
 13855 13b4 0000C03F 		.long	1069547520
 13856              		.align 4
 13857              	.LC62:
 13858 13b8 00000040 		.long	1073741824
 13859              		.align 4
 13860              	.LC63:
 13861 13bc AE47813F 		.long	1065437102
 13862              		.align 4
 13863              	.LC64:
 13864 13c0 AE47C13F 		.long	1069631406
 13865              		.align 4
 13866              	.LC65:
 13867 13c4 D7A30040 		.long	1073783767
 13868              		.align 4
 13869              	.LC66:
 13870 13c8 0AD7A33C 		.long	1017370378
 13871              		.align 4
 13872              	.LC68:
 13873 13cc 6F12833A 		.long	981668463
 13874              		.align 4
 13875              	.LC78:
 13876 13d0 00002040 		.long	1075838976
 13877              		.align 4
 13878              	.LC79:
 13879 13d4 00006040 		.long	1080033280
 13880              		.align 4
 13881              	.LC80:
 13882 13d8 00008040 		.long	1082130432
 13883              		.align 4
 13884              	.LC81:
 13885 13dc D7A32040 		.long	1075880919
 13886              		.align 4
 13887              	.LC82:
 13888 13e0 D7A34040 		.long	1077978071
 13889              		.align 4
 13890              	.LC83:
 13891 13e4 D7A36040 		.long	1080075223
 13892              		.align 4
 13893              	.LC84:
 13894 13e8 EC518040 		.long	1082151404
 13895 13ec 00000000 		.align 8
 13896              	.LC87:
 13897 13f0 2D431CEB 		.long	-350469331
 13898 13f4 E2361A3F 		.long	1058682594
 13899              		.align 8
 13900              	.LC88:
 13901 13f8 00000000 		.long	0
 13902 13fc 0000E03F 		.long	1071644672
 13903              		.text
 13904              	.Letext0:
 13905              		.file 7 "../TestDetails.h"
 13906              		.file 8 "../TestList.h"
 13907              		.file 9 "../TestResults.h"
 13908              		.file 10 "../Test.h"
 13909              		.file 11 "../CurrentTest.h"
 13910              		.file 12 "<built-in>"
 13911              		.file 13 "/usr/lib/gcc/x86_64-linux-gnu/11/include/stddef.h"
 13912              		.file 14 "/usr/include/x86_64-linux-gnu/bits/types/wint_t.h"
 13913              		.file 15 "/usr/include/x86_64-linux-gnu/bits/types/__mbstate_t.h"
 13914              		.file 16 "/usr/include/x86_64-linux-gnu/bits/types/mbstate_t.h"
 13915              		.file 17 "/usr/include/x86_64-linux-gnu/bits/types/__FILE.h"
 13916              		.file 18 "/usr/include/c++/11/cwchar"
 13917              		.file 19 "/usr/include/c++/11/bits/char_traits.h"
 13918              		.file 20 "/usr/include/x86_64-linux-gnu/c++/11/bits/c++config.h"
 13919              		.file 21 "/usr/include/c++/11/clocale"
 13920              		.file 22 "/usr/include/c++/11/bits/allocator.h"
 13921              		.file 23 "/usr/include/c++/11/bits/basic_string.h"
 13922              		.file 24 "/usr/include/c++/11/bits/basic_string.tcc"
 13923              		.file 25 "/usr/include/c++/11/sstream"
 13924              		.file 26 "/usr/include/c++/11/bits/stringfwd.h"
 13925              		.file 27 "/usr/include/c++/11/cwctype"
 13926              		.file 28 "/usr/include/c++/11/bits/ostream.tcc"
 13927              		.file 29 "/usr/include/c++/11/ostream"
 13928              		.file 30 "/usr/include/c++/11/cstring"
 13929              		.file 31 "/usr/include/c++/11/bits/basic_ios.h"
 13930              		.file 32 "/usr/include/wchar.h"
 13931              		.file 33 "/usr/include/x86_64-linux-gnu/bits/types/struct_tm.h"
 13932              		.file 34 "/usr/include/c++/11/debug/debug.h"
 13933              		.file 35 "/usr/include/c++/11/bits/predefined_ops.h"
 13934              		.file 36 "/usr/include/c++/11/ext/new_allocator.h"
 13935              		.file 37 "/usr/include/c++/11/ext/alloc_traits.h"
 13936              		.file 38 "/usr/include/locale.h"
 13937              		.file 39 "/usr/include/x86_64-linux-gnu/bits/types.h"
 13938              		.file 40 "/usr/include/x86_64-linux-gnu/bits/wctype-wchar.h"
 13939              		.file 41 "/usr/include/wctype.h"
 13940              		.file 42 "/usr/include/string.h"
 13941              		.file 43 "/usr/include/c++/11/new"
 31672              		.align 8
 31675              	DW.ref.__gxx_personality_v0:
 31676 0000 00000000 		.quad	__gxx_personality_v0
 31676      00000000 
 31677              		.hidden	__dso_handle
 31678              		.ident	"GCC: (Ubuntu 11.3.0-1ubuntu1~22.04) 11.3.0"
 31679              		.section	.note.GNU-stack,"",@progbits
 31680              		.section	.note.gnu.property,"a"
 31681              		.align 8
 31682 0000 04000000 		.long	1f - 0f
 31683 0004 10000000 		.long	4f - 1f
 31684 0008 05000000 		.long	5
 31685              	0:
 31686 000c 474E5500 		.string	"GNU"
 31687              	1:
 31688              		.align 8
 31689 0010 020000C0 		.long	0xc0000002
 31690 0014 04000000 		.long	3f - 2f
 31691              	2:
 31692 0018 03000000 		.long	0x3
 31693              	3:
 31694 001c 00000000 		.align 8
 31695              	4:
DEFINED SYMBOLS
                            *ABS*:0000000000000000 TestChecks.cpp
     /tmp/cc7yYODW.s:11     .text._ZN13UnitTestSuite12GetSuiteNameEv:0000000000000000 _ZN13UnitTestSuite12GetSuiteNameEv
     /tmp/cc7yYODW.s:35     .text._ZN8UnitTest15MemoryOutStreamC1Ev:0000000000000000 _ZN8UnitTest15MemoryOutStreamC1Ev
     /tmp/cc7yYODW.s:31675  .data.rel.local.DW.ref.__gxx_personality_v0:0000000000000000 DW.ref.__gxx_personality_v0
     /tmp/cc7yYODW.s:12843  .data.rel.ro.local._ZTTN8UnitTest15MemoryOutStreamE:0000000000000000 _ZTTN8UnitTest15MemoryOutStreamE
     /tmp/cc7yYODW.s:12827  .data.rel.ro.local._ZTVN8UnitTest15MemoryOutStreamE:0000000000000000 _ZTVN8UnitTest15MemoryOutStreamE
     /tmp/cc7yYODW.s:148    .text._ZN8UnitTest12TestReporterC2Ev:0000000000000000 _ZN8UnitTest12TestReporterC2Ev
     /tmp/cc7yYODW.s:148    .text._ZN8UnitTest12TestReporterC2Ev:0000000000000000 _ZN8UnitTest12TestReporterC1Ev
     /tmp/cc7yYODW.s:179    .text._ZN17RecordingReporterC2Ev:0000000000000000 _ZN17RecordingReporterC2Ev
     /tmp/cc7yYODW.s:12711  .data.rel.ro.local._ZTV17RecordingReporter:0000000000000000 _ZTV17RecordingReporter
     /tmp/cc7yYODW.s:179    .text._ZN17RecordingReporterC2Ev:0000000000000000 _ZN17RecordingReporterC1Ev
     /tmp/cc7yYODW.s:268    .text._ZN17RecordingReporter15ReportTestStartERKN8UnitTest11TestDetailsE:0000000000000000 _ZN17RecordingReporter15ReportTestStartERKN8UnitTest11TestDetailsE
     /tmp/cc7yYODW.s:320    .text._ZN17RecordingReporter13ReportFailureERKN8UnitTest11TestDetailsEPKc:0000000000000000 _ZN17RecordingReporter13ReportFailureERKN8UnitTest11TestDetailsEPKc
     /tmp/cc7yYODW.s:397    .text._ZN17RecordingReporter16ReportTestFinishERKN8UnitTest11TestDetailsEf:0000000000000000 _ZN17RecordingReporter16ReportTestFinishERKN8UnitTest11TestDetailsEf
     /tmp/cc7yYODW.s:454    .text._ZN17RecordingReporter13ReportSummaryEiiif:0000000000000000 _ZN17RecordingReporter13ReportSummaryEiiif
     /tmp/cc7yYODW.s:501    .text:0000000000000000 _ZN12_GLOBAL__N_130TestCheckEqualWithUnsignedLongC2Ev
     /tmp/cc7yYODW.s:12602  .data.rel.ro.local:00000000000003e8 _ZTVN12_GLOBAL__N_130TestCheckEqualWithUnsignedLongE
     /tmp/cc7yYODW.s:501    .text:0000000000000000 _ZN12_GLOBAL__N_130TestCheckEqualWithUnsignedLongC1Ev
     /tmp/cc7yYODW.s:541    .bss:0000000000000000 _ZN12_GLOBAL__N_138testCheckEqualWithUnsignedLongInstanceE
     /tmp/cc7yYODW.s:541    .bss:0000000000000038 _ZN12_GLOBAL__N_131adderCheckEqualWithUnsignedLongE
     /tmp/cc7yYODW.s:551    .text:0000000000000050 _ZNK12_GLOBAL__N_130TestCheckEqualWithUnsignedLong7RunImplEv
     /tmp/cc7yYODW.s:7817   .text._ZN8UnitTest10CheckEqualImmEEvRNS_11TestResultsERKT_RKT0_RKNS_11TestDetailsE:0000000000000000 _ZN8UnitTest10CheckEqualImmEEvRNS_11TestResultsERKT_RKT0_RKNS_11TestDetailsE
     /tmp/cc7yYODW.s:699    .text:0000000000000142 _ZN12_GLOBAL__N_149TestCheckEqualsWithStringsFailsOnDifferentStringsC2Ev
     /tmp/cc7yYODW.s:12494  .data.rel.ro.local:00000000000003c0 _ZTVN12_GLOBAL__N_149TestCheckEqualsWithStringsFailsOnDifferentStringsE
     /tmp/cc7yYODW.s:699    .text:0000000000000142 _ZN12_GLOBAL__N_149TestCheckEqualsWithStringsFailsOnDifferentStringsC1Ev
     /tmp/cc7yYODW.s:738    .bss:0000000000000040 _ZN12_GLOBAL__N_157testCheckEqualsWithStringsFailsOnDifferentStringsInstanceE
     /tmp/cc7yYODW.s:738    .bss:0000000000000078 _ZN12_GLOBAL__N_150adderCheckEqualsWithStringsFailsOnDifferentStringsE
     /tmp/cc7yYODW.s:750    .text:0000000000000192 _ZNK12_GLOBAL__N_149TestCheckEqualsWithStringsFailsOnDifferentStrings7RunImplEv
     /tmp/cc7yYODW.s:7966   .text._ZN8UnitTest10CheckEqualIiiEEvRNS_11TestResultsERKT_RKT0_RKNS_11TestDetailsE:0000000000000000 _ZN8UnitTest10CheckEqualIiiEEvRNS_11TestResultsERKT_RKT0_RKNS_11TestDetailsE
     /tmp/cc7yYODW.s:920    .data:0000000000000000 _ZN12_GLOBAL__N_14txt1E
     /tmp/cc7yYODW.s:924    .data:0000000000000006 _ZN12_GLOBAL__N_14txt2E
     /tmp/cc7yYODW.s:933    .text:00000000000002f4 _ZN12_GLOBAL__N_157TestCheckEqualsWithStringsWorksOnContentsNonConstNonConstC2Ev
     /tmp/cc7yYODW.s:12386  .data.rel.ro.local:0000000000000398 _ZTVN12_GLOBAL__N_157TestCheckEqualsWithStringsWorksOnContentsNonConstNonConstE
     /tmp/cc7yYODW.s:933    .text:00000000000002f4 _ZN12_GLOBAL__N_157TestCheckEqualsWithStringsWorksOnContentsNonConstNonConstC1Ev
     /tmp/cc7yYODW.s:972    .bss:0000000000000080 _ZN12_GLOBAL__N_165testCheckEqualsWithStringsWorksOnContentsNonConstNonConstInstanceE
     /tmp/cc7yYODW.s:972    .bss:00000000000000b8 _ZN12_GLOBAL__N_158adderCheckEqualsWithStringsWorksOnContentsNonConstNonConstE
     /tmp/cc7yYODW.s:982    .text:0000000000000344 _ZNK12_GLOBAL__N_157TestCheckEqualsWithStringsWorksOnContentsNonConstNonConst7RunImplEv
     /tmp/cc7yYODW.s:1157   .text:00000000000004aa _ZN12_GLOBAL__N_151TestCheckEqualsWithStringsWorksOnContentsConstConstC2Ev
     /tmp/cc7yYODW.s:12278  .data.rel.ro.local:0000000000000370 _ZTVN12_GLOBAL__N_151TestCheckEqualsWithStringsWorksOnContentsConstConstE
     /tmp/cc7yYODW.s:1157   .text:00000000000004aa _ZN12_GLOBAL__N_151TestCheckEqualsWithStringsWorksOnContentsConstConstC1Ev
     /tmp/cc7yYODW.s:1196   .bss:00000000000000c0 _ZN12_GLOBAL__N_159testCheckEqualsWithStringsWorksOnContentsConstConstInstanceE
     /tmp/cc7yYODW.s:1196   .bss:00000000000000f8 _ZN12_GLOBAL__N_152adderCheckEqualsWithStringsWorksOnContentsConstConstE
     /tmp/cc7yYODW.s:1201   .text:00000000000004fa _ZNK12_GLOBAL__N_151TestCheckEqualsWithStringsWorksOnContentsConstConst7RunImplEv
     /tmp/cc7yYODW.s:1376   .text:0000000000000660 _ZN12_GLOBAL__N_154TestCheckEqualsWithStringsWorksOnContentsNonConstConstC2Ev
     /tmp/cc7yYODW.s:12170  .data.rel.ro.local:0000000000000348 _ZTVN12_GLOBAL__N_154TestCheckEqualsWithStringsWorksOnContentsNonConstConstE
     /tmp/cc7yYODW.s:1376   .text:0000000000000660 _ZN12_GLOBAL__N_154TestCheckEqualsWithStringsWorksOnContentsNonConstConstC1Ev
     /tmp/cc7yYODW.s:1415   .bss:0000000000000100 _ZN12_GLOBAL__N_162testCheckEqualsWithStringsWorksOnContentsNonConstConstInstanceE
     /tmp/cc7yYODW.s:1415   .bss:0000000000000138 _ZN12_GLOBAL__N_155adderCheckEqualsWithStringsWorksOnContentsNonConstConstE
     /tmp/cc7yYODW.s:1420   .text:00000000000006b0 _ZNK12_GLOBAL__N_154TestCheckEqualsWithStringsWorksOnContentsNonConstConst7RunImplEv
     /tmp/cc7yYODW.s:1595   .text:0000000000000816 _ZN12_GLOBAL__N_154TestCheckEqualsWithStringsWorksOnContentsConstNonConstC2Ev
     /tmp/cc7yYODW.s:12062  .data.rel.ro.local:0000000000000320 _ZTVN12_GLOBAL__N_154TestCheckEqualsWithStringsWorksOnContentsConstNonConstE
     /tmp/cc7yYODW.s:1595   .text:0000000000000816 _ZN12_GLOBAL__N_154TestCheckEqualsWithStringsWorksOnContentsConstNonConstC1Ev
     /tmp/cc7yYODW.s:1634   .bss:0000000000000140 _ZN12_GLOBAL__N_162testCheckEqualsWithStringsWorksOnContentsConstNonConstInstanceE
     /tmp/cc7yYODW.s:1634   .bss:0000000000000178 _ZN12_GLOBAL__N_155adderCheckEqualsWithStringsWorksOnContentsConstNonConstE
     /tmp/cc7yYODW.s:1639   .text:0000000000000866 _ZNK12_GLOBAL__N_154TestCheckEqualsWithStringsWorksOnContentsConstNonConst7RunImplEv
     /tmp/cc7yYODW.s:1814   .text:00000000000009cc _ZN12_GLOBAL__N_153TestCheckEqualsWithStringsWorksOnContentsWithALiteralC2Ev
     /tmp/cc7yYODW.s:11954  .data.rel.ro.local:00000000000002f8 _ZTVN12_GLOBAL__N_153TestCheckEqualsWithStringsWorksOnContentsWithALiteralE
     /tmp/cc7yYODW.s:1814   .text:00000000000009cc _ZN12_GLOBAL__N_153TestCheckEqualsWithStringsWorksOnContentsWithALiteralC1Ev
     /tmp/cc7yYODW.s:1853   .bss:0000000000000180 _ZN12_GLOBAL__N_161testCheckEqualsWithStringsWorksOnContentsWithALiteralInstanceE
     /tmp/cc7yYODW.s:1853   .bss:00000000000001b8 _ZN12_GLOBAL__N_154adderCheckEqualsWithStringsWorksOnContentsWithALiteralE
     /tmp/cc7yYODW.s:1862   .text:0000000000000a1c _ZNK12_GLOBAL__N_153TestCheckEqualsWithStringsWorksOnContentsWithALiteral7RunImplEv
     /tmp/cc7yYODW.s:2034   .text:0000000000000b72 _ZN12_GLOBAL__N_151TestCheckEqualFailureIncludesCheckExpectedAndActualC2Ev
     /tmp/cc7yYODW.s:11846  .data.rel.ro.local:00000000000002d0 _ZTVN12_GLOBAL__N_151TestCheckEqualFailureIncludesCheckExpectedAndActualE
     /tmp/cc7yYODW.s:2034   .text:0000000000000b72 _ZN12_GLOBAL__N_151TestCheckEqualFailureIncludesCheckExpectedAndActualC1Ev
     /tmp/cc7yYODW.s:2073   .bss:00000000000001c0 _ZN12_GLOBAL__N_159testCheckEqualFailureIncludesCheckExpectedAndActualInstanceE
     /tmp/cc7yYODW.s:2073   .bss:00000000000001f8 _ZN12_GLOBAL__N_152adderCheckEqualFailureIncludesCheckExpectedAndActualE
     /tmp/cc7yYODW.s:2096   .text:0000000000000bc2 _ZNK12_GLOBAL__N_151TestCheckEqualFailureIncludesCheckExpectedAndActual7RunImplEv
     /tmp/cc7yYODW.s:8113   .text._ZN8UnitTest5CheckIPcEEbT_:0000000000000000 _ZN8UnitTest5CheckIPcEEbT_
     /tmp/cc7yYODW.s:12724  .text._ZN17RecordingReporterD2Ev:0000000000000000 _ZN17RecordingReporterD1Ev
     /tmp/cc7yYODW.s:2376   .text:0000000000000e6c _ZN12_GLOBAL__N_136TestCheckEqualFailureIncludesDetailsC2Ev
     /tmp/cc7yYODW.s:11738  .data.rel.ro.local:00000000000002a8 _ZTVN12_GLOBAL__N_136TestCheckEqualFailureIncludesDetailsE
     /tmp/cc7yYODW.s:2376   .text:0000000000000e6c _ZN12_GLOBAL__N_136TestCheckEqualFailureIncludesDetailsC1Ev
     /tmp/cc7yYODW.s:2415   .bss:0000000000000200 _ZN12_GLOBAL__N_144testCheckEqualFailureIncludesDetailsInstanceE
     /tmp/cc7yYODW.s:2415   .bss:0000000000000238 _ZN12_GLOBAL__N_137adderCheckEqualFailureIncludesDetailsE
     /tmp/cc7yYODW.s:2440   .text:0000000000000ebc _ZNK12_GLOBAL__N_136TestCheckEqualFailureIncludesDetails7RunImplEv
     /tmp/cc7yYODW.s:2838   .text:00000000000012a6 _ZN12_GLOBAL__N_118TestCheckCloseTrueC2Ev
     /tmp/cc7yYODW.s:11630  .data.rel.ro.local:0000000000000280 _ZTVN12_GLOBAL__N_118TestCheckCloseTrueE
     /tmp/cc7yYODW.s:2838   .text:00000000000012a6 _ZN12_GLOBAL__N_118TestCheckCloseTrueC1Ev
     /tmp/cc7yYODW.s:2877   .bss:0000000000000240 _ZN12_GLOBAL__N_126testCheckCloseTrueInstanceE
     /tmp/cc7yYODW.s:2877   .bss:0000000000000278 _ZN12_GLOBAL__N_119adderCheckCloseTrueE
     /tmp/cc7yYODW.s:2882   .text:00000000000012f6 _ZNK12_GLOBAL__N_118TestCheckCloseTrue7RunImplEv
     /tmp/cc7yYODW.s:8140   .text._ZN8UnitTest10CheckCloseIfffEEvRNS_11TestResultsERKT_RKT0_RKT1_RKNS_11TestDetailsE:0000000000000000 _ZN8UnitTest10CheckCloseIfffEEvRNS_11TestResultsERKT_RKT0_RKT1_RKNS_11TestDetailsE
     /tmp/cc7yYODW.s:3060   .text:0000000000001466 _ZN12_GLOBAL__N_119TestCheckCloseFalseC2Ev
     /tmp/cc7yYODW.s:11522  .data.rel.ro.local:0000000000000258 _ZTVN12_GLOBAL__N_119TestCheckCloseFalseE
     /tmp/cc7yYODW.s:3060   .text:0000000000001466 _ZN12_GLOBAL__N_119TestCheckCloseFalseC1Ev
     /tmp/cc7yYODW.s:3099   .bss:0000000000000280 _ZN12_GLOBAL__N_127testCheckCloseFalseInstanceE
     /tmp/cc7yYODW.s:3099   .bss:00000000000002b8 _ZN12_GLOBAL__N_120adderCheckCloseFalseE
     /tmp/cc7yYODW.s:3104   .text:00000000000014b6 _ZNK12_GLOBAL__N_119TestCheckCloseFalse7RunImplEv
     /tmp/cc7yYODW.s:3283   .text:0000000000001626 _ZN12_GLOBAL__N_147TestCheckCloseWithZeroEpsilonWorksForSameNumberC2Ev
     /tmp/cc7yYODW.s:11414  .data.rel.ro.local:0000000000000230 _ZTVN12_GLOBAL__N_147TestCheckCloseWithZeroEpsilonWorksForSameNumberE
     /tmp/cc7yYODW.s:3283   .text:0000000000001626 _ZN12_GLOBAL__N_147TestCheckCloseWithZeroEpsilonWorksForSameNumberC1Ev
     /tmp/cc7yYODW.s:3322   .bss:00000000000002c0 _ZN12_GLOBAL__N_155testCheckCloseWithZeroEpsilonWorksForSameNumberInstanceE
     /tmp/cc7yYODW.s:3322   .bss:00000000000002f8 _ZN12_GLOBAL__N_148adderCheckCloseWithZeroEpsilonWorksForSameNumberE
     /tmp/cc7yYODW.s:3327   .text:0000000000001676 _ZNK12_GLOBAL__N_147TestCheckCloseWithZeroEpsilonWorksForSameNumber7RunImplEv
     /tmp/cc7yYODW.s:8307   .text._ZN8UnitTest10CheckCloseIffiEEvRNS_11TestResultsERKT_RKT0_RKT1_RKNS_11TestDetailsE:0000000000000000 _ZN8UnitTest10CheckCloseIffiEEvRNS_11TestResultsERKT_RKT0_RKT1_RKNS_11TestDetailsE
     /tmp/cc7yYODW.s:3504   .text:00000000000017e0 _ZN12_GLOBAL__N_126TestCheckCloseWithNaNFailsC2Ev
     /tmp/cc7yYODW.s:11306  .data.rel.ro.local:0000000000000208 _ZTVN12_GLOBAL__N_126TestCheckCloseWithNaNFailsE
     /tmp/cc7yYODW.s:3504   .text:00000000000017e0 _ZN12_GLOBAL__N_126TestCheckCloseWithNaNFailsC1Ev
     /tmp/cc7yYODW.s:3543   .bss:0000000000000300 _ZN12_GLOBAL__N_134testCheckCloseWithNaNFailsInstanceE
     /tmp/cc7yYODW.s:3543   .bss:0000000000000338 _ZN12_GLOBAL__N_127adderCheckCloseWithNaNFailsE
     /tmp/cc7yYODW.s:3548   .text:0000000000001830 _ZNK12_GLOBAL__N_126TestCheckCloseWithNaNFails7RunImplEv
     /tmp/cc7yYODW.s:3726   .text:000000000000199a _ZN12_GLOBAL__N_139TestCheckCloseWithNaNAgainstItselfFailsC2Ev
     /tmp/cc7yYODW.s:11198  .data.rel.ro.local:00000000000001e0 _ZTVN12_GLOBAL__N_139TestCheckCloseWithNaNAgainstItselfFailsE
     /tmp/cc7yYODW.s:3726   .text:000000000000199a _ZN12_GLOBAL__N_139TestCheckCloseWithNaNAgainstItselfFailsC1Ev
     /tmp/cc7yYODW.s:3765   .bss:0000000000000340 _ZN12_GLOBAL__N_147testCheckCloseWithNaNAgainstItselfFailsInstanceE
     /tmp/cc7yYODW.s:3765   .bss:0000000000000378 _ZN12_GLOBAL__N_140adderCheckCloseWithNaNAgainstItselfFailsE
     /tmp/cc7yYODW.s:3770   .text:00000000000019ea _ZNK12_GLOBAL__N_139TestCheckCloseWithNaNAgainstItselfFails7RunImplEv
     /tmp/cc7yYODW.s:3945   .text:0000000000001b46 _ZN12_GLOBAL__N_151TestCheckCloseFailureIncludesCheckExpectedAndActualC2Ev
     /tmp/cc7yYODW.s:11090  .data.rel.ro.local:00000000000001b8 _ZTVN12_GLOBAL__N_151TestCheckCloseFailureIncludesCheckExpectedAndActualE
     /tmp/cc7yYODW.s:3945   .text:0000000000001b46 _ZN12_GLOBAL__N_151TestCheckCloseFailureIncludesCheckExpectedAndActualC1Ev
     /tmp/cc7yYODW.s:3984   .bss:0000000000000380 _ZN12_GLOBAL__N_159testCheckCloseFailureIncludesCheckExpectedAndActualInstanceE
     /tmp/cc7yYODW.s:3984   .bss:00000000000003b8 _ZN12_GLOBAL__N_152adderCheckCloseFailureIncludesCheckExpectedAndActualE
     /tmp/cc7yYODW.s:4007   .text:0000000000001b96 _ZNK12_GLOBAL__N_151TestCheckCloseFailureIncludesCheckExpectedAndActual7RunImplEv
     /tmp/cc7yYODW.s:4294   .text:0000000000001e66 _ZN12_GLOBAL__N_138TestCheckCloseFailureIncludesToleranceC2Ev
     /tmp/cc7yYODW.s:10982  .data.rel.ro.local:0000000000000190 _ZTVN12_GLOBAL__N_138TestCheckCloseFailureIncludesToleranceE
     /tmp/cc7yYODW.s:4294   .text:0000000000001e66 _ZN12_GLOBAL__N_138TestCheckCloseFailureIncludesToleranceC1Ev
     /tmp/cc7yYODW.s:4333   .bss:00000000000003c0 _ZN12_GLOBAL__N_146testCheckCloseFailureIncludesToleranceInstanceE
     /tmp/cc7yYODW.s:4333   .bss:00000000000003f8 _ZN12_GLOBAL__N_139adderCheckCloseFailureIncludesToleranceE
     /tmp/cc7yYODW.s:4348   .text:0000000000001eb6 _ZNK12_GLOBAL__N_138TestCheckCloseFailureIncludesTolerance7RunImplEv
     /tmp/cc7yYODW.s:8473   .text._ZN8UnitTest10CheckCloseIiifEEvRNS_11TestResultsERKT_RKT0_RKT1_RKNS_11TestDetailsE:0000000000000000 _ZN8UnitTest10CheckCloseIiifEEvRNS_11TestResultsERKT_RKT0_RKT1_RKNS_11TestDetailsE
     /tmp/cc7yYODW.s:4554   .text:00000000000020a6 _ZN12_GLOBAL__N_136TestCheckCloseFailureIncludesDetailsC2Ev
     /tmp/cc7yYODW.s:10874  .data.rel.ro.local:0000000000000168 _ZTVN12_GLOBAL__N_136TestCheckCloseFailureIncludesDetailsE
     /tmp/cc7yYODW.s:4554   .text:00000000000020a6 _ZN12_GLOBAL__N_136TestCheckCloseFailureIncludesDetailsC1Ev
     /tmp/cc7yYODW.s:4593   .bss:0000000000000400 _ZN12_GLOBAL__N_144testCheckCloseFailureIncludesDetailsInstanceE
     /tmp/cc7yYODW.s:4593   .bss:0000000000000438 _ZN12_GLOBAL__N_137adderCheckCloseFailureIncludesDetailsE
     /tmp/cc7yYODW.s:4608   .text:00000000000020f6 _ZNK12_GLOBAL__N_136TestCheckCloseFailureIncludesDetails7RunImplEv
     /tmp/cc7yYODW.s:5011   .text:00000000000024fa _ZN12_GLOBAL__N_123TestCheckArrayEqualTrueC2Ev
     /tmp/cc7yYODW.s:10766  .data.rel.ro.local:0000000000000140 _ZTVN12_GLOBAL__N_123TestCheckArrayEqualTrueE
     /tmp/cc7yYODW.s:5011   .text:00000000000024fa _ZN12_GLOBAL__N_123TestCheckArrayEqualTrueC1Ev
     /tmp/cc7yYODW.s:5050   .bss:0000000000000440 _ZN12_GLOBAL__N_131testCheckArrayEqualTrueInstanceE
     /tmp/cc7yYODW.s:5050   .bss:0000000000000478 _ZN12_GLOBAL__N_124adderCheckArrayEqualTrueE
     /tmp/cc7yYODW.s:5055   .text:000000000000254a _ZNK12_GLOBAL__N_123TestCheckArrayEqualTrue7RunImplEv
     /tmp/cc7yYODW.s:8648   .text._ZN8UnitTest15CheckArrayEqualIA3_iS1_EEvRNS_11TestResultsERKT_RKT0_iRKNS_11TestDetailsE:0000000000000000 _ZN8UnitTest15CheckArrayEqualIA3_iS1_EEvRNS_11TestResultsERKT_RKT0_iRKNS_11TestDetailsE
     /tmp/cc7yYODW.s:5228   .text:00000000000026ae _ZN12_GLOBAL__N_124TestCheckArrayEqualFalseC2Ev
     /tmp/cc7yYODW.s:10658  .data.rel.ro.local:0000000000000118 _ZTVN12_GLOBAL__N_124TestCheckArrayEqualFalseE
     /tmp/cc7yYODW.s:5228   .text:00000000000026ae _ZN12_GLOBAL__N_124TestCheckArrayEqualFalseC1Ev
     /tmp/cc7yYODW.s:5267   .bss:0000000000000480 _ZN12_GLOBAL__N_132testCheckArrayEqualFalseInstanceE
     /tmp/cc7yYODW.s:5267   .bss:00000000000004b8 _ZN12_GLOBAL__N_125adderCheckArrayEqualFalseE
     /tmp/cc7yYODW.s:5272   .text:00000000000026fe _ZNK12_GLOBAL__N_124TestCheckArrayEqualFalse7RunImplEv
     /tmp/cc7yYODW.s:5449   .text:0000000000002878 _ZN12_GLOBAL__N_123TestCheckArrayCloseTrueC2Ev
     /tmp/cc7yYODW.s:10550  .data.rel.ro.local:00000000000000f0 _ZTVN12_GLOBAL__N_123TestCheckArrayCloseTrueE
     /tmp/cc7yYODW.s:5449   .text:0000000000002878 _ZN12_GLOBAL__N_123TestCheckArrayCloseTrueC1Ev
     /tmp/cc7yYODW.s:5488   .bss:00000000000004c0 _ZN12_GLOBAL__N_131testCheckArrayCloseTrueInstanceE
     /tmp/cc7yYODW.s:5488   .bss:00000000000004f8 _ZN12_GLOBAL__N_124adderCheckArrayCloseTrueE
     /tmp/cc7yYODW.s:5493   .text:00000000000028c8 _ZNK12_GLOBAL__N_123TestCheckArrayCloseTrue7RunImplEv
     /tmp/cc7yYODW.s:8885   .text._ZN8UnitTest15CheckArrayCloseIA3_fS1_fEEvRNS_11TestResultsERKT_RKT0_iRKT1_RKNS_11TestDetailsE:0000000000000000 _ZN8UnitTest15CheckArrayCloseIA3_fS1_fEEvRNS_11TestResultsERKT_RKT0_iRKT1_RKNS_11TestDetailsE
     /tmp/cc7yYODW.s:5681   .text:0000000000002a7a _ZN12_GLOBAL__N_124TestCheckArrayCloseFalseC2Ev
     /tmp/cc7yYODW.s:10442  .data.rel.ro.local:00000000000000c8 _ZTVN12_GLOBAL__N_124TestCheckArrayCloseFalseE
     /tmp/cc7yYODW.s:5681   .text:0000000000002a7a _ZN12_GLOBAL__N_124TestCheckArrayCloseFalseC1Ev
     /tmp/cc7yYODW.s:5720   .bss:0000000000000500 _ZN12_GLOBAL__N_132testCheckArrayCloseFalseInstanceE
     /tmp/cc7yYODW.s:5720   .bss:0000000000000538 _ZN12_GLOBAL__N_125adderCheckArrayCloseFalseE
     /tmp/cc7yYODW.s:5725   .text:0000000000002aca _ZNK12_GLOBAL__N_124TestCheckArrayCloseFalse7RunImplEv
     /tmp/cc7yYODW.s:5914   .text:0000000000002c7c _ZN12_GLOBAL__N_141TestCheckArrayCloseFailureIncludesDetailsC2Ev
     /tmp/cc7yYODW.s:10334  .data.rel.ro.local:00000000000000a0 _ZTVN12_GLOBAL__N_141TestCheckArrayCloseFailureIncludesDetailsE
     /tmp/cc7yYODW.s:5914   .text:0000000000002c7c _ZN12_GLOBAL__N_141TestCheckArrayCloseFailureIncludesDetailsC1Ev
     /tmp/cc7yYODW.s:5953   .bss:0000000000000540 _ZN12_GLOBAL__N_149testCheckArrayCloseFailureIncludesDetailsInstanceE
     /tmp/cc7yYODW.s:5953   .bss:0000000000000578 _ZN12_GLOBAL__N_142adderCheckArrayCloseFailureIncludesDetailsE
     /tmp/cc7yYODW.s:5978   .text:0000000000002ccc _ZNK12_GLOBAL__N_141TestCheckArrayCloseFailureIncludesDetails7RunImplEv
     /tmp/cc7yYODW.s:6393   .text:0000000000003124 _ZN12_GLOBAL__N_125TestCheckArray2DCloseTrueC2Ev
     /tmp/cc7yYODW.s:10226  .data.rel.ro.local:0000000000000078 _ZTVN12_GLOBAL__N_125TestCheckArray2DCloseTrueE
     /tmp/cc7yYODW.s:6393   .text:0000000000003124 _ZN12_GLOBAL__N_125TestCheckArray2DCloseTrueC1Ev
     /tmp/cc7yYODW.s:6432   .bss:0000000000000580 _ZN12_GLOBAL__N_133testCheckArray2DCloseTrueInstanceE
     /tmp/cc7yYODW.s:6432   .bss:00000000000005b8 _ZN12_GLOBAL__N_126adderCheckArray2DCloseTrueE
     /tmp/cc7yYODW.s:6437   .text:0000000000003174 _ZNK12_GLOBAL__N_125TestCheckArray2DCloseTrue7RunImplEv
     /tmp/cc7yYODW.s:9110   .text._ZN8UnitTest17CheckArray2DCloseIA3_A3_fS2_fEEvRNS_11TestResultsERKT_RKT0_iiRKT1_RKNS_11TestDetailsE:0000000000000000 _ZN8UnitTest17CheckArray2DCloseIA3_A3_fS2_fEEvRNS_11TestResultsERKT_RKT0_iiRKT1_RKNS_11TestDetailsE
     /tmp/cc7yYODW.s:6652   .text:00000000000033fa _ZN12_GLOBAL__N_126TestCheckArray2DCloseFalseC2Ev
     /tmp/cc7yYODW.s:10118  .data.rel.ro.local:0000000000000050 _ZTVN12_GLOBAL__N_126TestCheckArray2DCloseFalseE
     /tmp/cc7yYODW.s:6652   .text:00000000000033fa _ZN12_GLOBAL__N_126TestCheckArray2DCloseFalseC1Ev
     /tmp/cc7yYODW.s:6691   .bss:00000000000005c0 _ZN12_GLOBAL__N_134testCheckArray2DCloseFalseInstanceE
     /tmp/cc7yYODW.s:6691   .bss:00000000000005f8 _ZN12_GLOBAL__N_127adderCheckArray2DCloseFalseE
     /tmp/cc7yYODW.s:6696   .text:000000000000344a _ZNK12_GLOBAL__N_126TestCheckArray2DCloseFalse7RunImplEv
     /tmp/cc7yYODW.s:6911   .text:00000000000036d0 _ZN12_GLOBAL__N_133TestCheckCloseWithDoublesSucceedsC2Ev
     /tmp/cc7yYODW.s:10010  .data.rel.ro.local:0000000000000028 _ZTVN12_GLOBAL__N_133TestCheckCloseWithDoublesSucceedsE
     /tmp/cc7yYODW.s:6911   .text:00000000000036d0 _ZN12_GLOBAL__N_133TestCheckCloseWithDoublesSucceedsC1Ev
     /tmp/cc7yYODW.s:6950   .bss:0000000000000600 _ZN12_GLOBAL__N_141testCheckCloseWithDoublesSucceedsInstanceE
     /tmp/cc7yYODW.s:6950   .bss:0000000000000638 _ZN12_GLOBAL__N_134adderCheckCloseWithDoublesSucceedsE
     /tmp/cc7yYODW.s:6960   .text:0000000000003720 _ZNK12_GLOBAL__N_133TestCheckCloseWithDoublesSucceeds7RunImplEv
     /tmp/cc7yYODW.s:9439   .text._ZN8UnitTest10CheckCloseIdddEEvRNS_11TestResultsERKT_RKT0_RKT1_RKNS_11TestDetailsE:0000000000000000 _ZN8UnitTest10CheckCloseIdddEEvRNS_11TestResultsERKT_RKT0_RKT1_RKNS_11TestDetailsE
     /tmp/cc7yYODW.s:7103   .text:0000000000003826 _ZN12_GLOBAL__N_143TestCheckArray2DCloseFailureIncludesDetailsC2Ev
     /tmp/cc7yYODW.s:9902   .data.rel.ro.local:0000000000000000 _ZTVN12_GLOBAL__N_143TestCheckArray2DCloseFailureIncludesDetailsE
     /tmp/cc7yYODW.s:7103   .text:0000000000003826 _ZN12_GLOBAL__N_143TestCheckArray2DCloseFailureIncludesDetailsC1Ev
     /tmp/cc7yYODW.s:7142   .bss:0000000000000640 _ZN12_GLOBAL__N_151testCheckArray2DCloseFailureIncludesDetailsInstanceE
     /tmp/cc7yYODW.s:7142   .bss:0000000000000678 _ZN12_GLOBAL__N_144adderCheckArray2DCloseFailureIncludesDetailsE
     /tmp/cc7yYODW.s:7162   .text:0000000000003876 _ZNK12_GLOBAL__N_143TestCheckArray2DCloseFailureIncludesDetails7RunImplEv
     /tmp/cc7yYODW.s:7605   .text._ZN8UnitTest15MemoryOutStreamD1Ev:0000000000000000 _ZN8UnitTest15MemoryOutStreamD1Ev
     /tmp/cc7yYODW.s:7716   .text._ZN8UnitTest15MemoryOutStreamD1Ev:00000000000000b6 _ZTv0_n24_N8UnitTest15MemoryOutStreamD1Ev
     /tmp/cc7yYODW.s:7731   .text._ZN8UnitTest15MemoryOutStreamD0Ev:0000000000000000 _ZN8UnitTest15MemoryOutStreamD0Ev
     /tmp/cc7yYODW.s:7798   .text._ZN8UnitTest15MemoryOutStreamD0Ev:000000000000004f _ZTv0_n24_N8UnitTest15MemoryOutStreamD0Ev
     /tmp/cc7yYODW.s:9606   .text._ZN8UnitTest8AreCloseIfffEEbRKT_RKT0_RKT1_:0000000000000000 _ZN8UnitTest8AreCloseIfffEEbRKT_RKT0_RKT1_
     /tmp/cc7yYODW.s:9660   .text._ZN8UnitTest8AreCloseIffiEEbRKT_RKT0_RKT1_:0000000000000000 _ZN8UnitTest8AreCloseIffiEEbRKT_RKT0_RKT1_
     /tmp/cc7yYODW.s:9718   .text._ZN8UnitTest8AreCloseIiifEEbRKT_RKT0_RKT1_:0000000000000000 _ZN8UnitTest8AreCloseIiifEEbRKT_RKT0_RKT1_
     /tmp/cc7yYODW.s:9780   .text._ZN8UnitTest13ArrayAreCloseIA3_fS1_fEEbRKT_RKT0_iRKT1_:0000000000000000 _ZN8UnitTest13ArrayAreCloseIA3_fS1_fEEbRKT_RKT0_iRKT1_
     /tmp/cc7yYODW.s:9847   .text._ZN8UnitTest8AreCloseIdddEEbRKT_RKT0_RKT1_:0000000000000000 _ZN8UnitTest8AreCloseIdddEEbRKT_RKT0_RKT1_
     /tmp/cc7yYODW.s:12894  .data.rel.ro:0000000000000000 _ZTIN12_GLOBAL__N_143TestCheckArray2DCloseFailureIncludesDetailsE
     /tmp/cc7yYODW.s:9911   .text:0000000000003d9a _ZN12_GLOBAL__N_143TestCheckArray2DCloseFailureIncludesDetailsD1Ev
     /tmp/cc7yYODW.s:9942   .text:0000000000003dc8 _ZN12_GLOBAL__N_143TestCheckArray2DCloseFailureIncludesDetailsD0Ev
     /tmp/cc7yYODW.s:9911   .text:0000000000003d9a _ZN12_GLOBAL__N_143TestCheckArray2DCloseFailureIncludesDetailsD2Ev
     /tmp/cc7yYODW.s:12908  .data.rel.ro:0000000000000018 _ZTIN12_GLOBAL__N_133TestCheckCloseWithDoublesSucceedsE
     /tmp/cc7yYODW.s:10019  .text:0000000000003e18 _ZN12_GLOBAL__N_133TestCheckCloseWithDoublesSucceedsD1Ev
     /tmp/cc7yYODW.s:10050  .text:0000000000003e46 _ZN12_GLOBAL__N_133TestCheckCloseWithDoublesSucceedsD0Ev
     /tmp/cc7yYODW.s:10019  .text:0000000000003e18 _ZN12_GLOBAL__N_133TestCheckCloseWithDoublesSucceedsD2Ev
     /tmp/cc7yYODW.s:12922  .data.rel.ro:0000000000000030 _ZTIN12_GLOBAL__N_126TestCheckArray2DCloseFalseE
     /tmp/cc7yYODW.s:10127  .text:0000000000003e96 _ZN12_GLOBAL__N_126TestCheckArray2DCloseFalseD1Ev
     /tmp/cc7yYODW.s:10158  .text:0000000000003ec4 _ZN12_GLOBAL__N_126TestCheckArray2DCloseFalseD0Ev
     /tmp/cc7yYODW.s:10127  .text:0000000000003e96 _ZN12_GLOBAL__N_126TestCheckArray2DCloseFalseD2Ev
     /tmp/cc7yYODW.s:12936  .data.rel.ro:0000000000000048 _ZTIN12_GLOBAL__N_125TestCheckArray2DCloseTrueE
     /tmp/cc7yYODW.s:10235  .text:0000000000003f14 _ZN12_GLOBAL__N_125TestCheckArray2DCloseTrueD1Ev
     /tmp/cc7yYODW.s:10266  .text:0000000000003f42 _ZN12_GLOBAL__N_125TestCheckArray2DCloseTrueD0Ev
     /tmp/cc7yYODW.s:10235  .text:0000000000003f14 _ZN12_GLOBAL__N_125TestCheckArray2DCloseTrueD2Ev
     /tmp/cc7yYODW.s:12950  .data.rel.ro:0000000000000060 _ZTIN12_GLOBAL__N_141TestCheckArrayCloseFailureIncludesDetailsE
     /tmp/cc7yYODW.s:10343  .text:0000000000003f92 _ZN12_GLOBAL__N_141TestCheckArrayCloseFailureIncludesDetailsD1Ev
     /tmp/cc7yYODW.s:10374  .text:0000000000003fc0 _ZN12_GLOBAL__N_141TestCheckArrayCloseFailureIncludesDetailsD0Ev
     /tmp/cc7yYODW.s:10343  .text:0000000000003f92 _ZN12_GLOBAL__N_141TestCheckArrayCloseFailureIncludesDetailsD2Ev
     /tmp/cc7yYODW.s:12964  .data.rel.ro:0000000000000078 _ZTIN12_GLOBAL__N_124TestCheckArrayCloseFalseE
     /tmp/cc7yYODW.s:10451  .text:0000000000004010 _ZN12_GLOBAL__N_124TestCheckArrayCloseFalseD1Ev
     /tmp/cc7yYODW.s:10482  .text:000000000000403e _ZN12_GLOBAL__N_124TestCheckArrayCloseFalseD0Ev
     /tmp/cc7yYODW.s:10451  .text:0000000000004010 _ZN12_GLOBAL__N_124TestCheckArrayCloseFalseD2Ev
     /tmp/cc7yYODW.s:12978  .data.rel.ro:0000000000000090 _ZTIN12_GLOBAL__N_123TestCheckArrayCloseTrueE
     /tmp/cc7yYODW.s:10559  .text:000000000000408e _ZN12_GLOBAL__N_123TestCheckArrayCloseTrueD1Ev
     /tmp/cc7yYODW.s:10590  .text:00000000000040bc _ZN12_GLOBAL__N_123TestCheckArrayCloseTrueD0Ev
     /tmp/cc7yYODW.s:10559  .text:000000000000408e _ZN12_GLOBAL__N_123TestCheckArrayCloseTrueD2Ev
     /tmp/cc7yYODW.s:12992  .data.rel.ro:00000000000000a8 _ZTIN12_GLOBAL__N_124TestCheckArrayEqualFalseE
     /tmp/cc7yYODW.s:10667  .text:000000000000410c _ZN12_GLOBAL__N_124TestCheckArrayEqualFalseD1Ev
     /tmp/cc7yYODW.s:10698  .text:000000000000413a _ZN12_GLOBAL__N_124TestCheckArrayEqualFalseD0Ev
     /tmp/cc7yYODW.s:10667  .text:000000000000410c _ZN12_GLOBAL__N_124TestCheckArrayEqualFalseD2Ev
     /tmp/cc7yYODW.s:13006  .data.rel.ro:00000000000000c0 _ZTIN12_GLOBAL__N_123TestCheckArrayEqualTrueE
     /tmp/cc7yYODW.s:10775  .text:000000000000418a _ZN12_GLOBAL__N_123TestCheckArrayEqualTrueD1Ev
     /tmp/cc7yYODW.s:10806  .text:00000000000041b8 _ZN12_GLOBAL__N_123TestCheckArrayEqualTrueD0Ev
     /tmp/cc7yYODW.s:10775  .text:000000000000418a _ZN12_GLOBAL__N_123TestCheckArrayEqualTrueD2Ev
     /tmp/cc7yYODW.s:13020  .data.rel.ro:00000000000000d8 _ZTIN12_GLOBAL__N_136TestCheckCloseFailureIncludesDetailsE
     /tmp/cc7yYODW.s:10883  .text:0000000000004208 _ZN12_GLOBAL__N_136TestCheckCloseFailureIncludesDetailsD1Ev
     /tmp/cc7yYODW.s:10914  .text:0000000000004236 _ZN12_GLOBAL__N_136TestCheckCloseFailureIncludesDetailsD0Ev
     /tmp/cc7yYODW.s:10883  .text:0000000000004208 _ZN12_GLOBAL__N_136TestCheckCloseFailureIncludesDetailsD2Ev
     /tmp/cc7yYODW.s:13034  .data.rel.ro:00000000000000f0 _ZTIN12_GLOBAL__N_138TestCheckCloseFailureIncludesToleranceE
     /tmp/cc7yYODW.s:10991  .text:0000000000004286 _ZN12_GLOBAL__N_138TestCheckCloseFailureIncludesToleranceD1Ev
     /tmp/cc7yYODW.s:11022  .text:00000000000042b4 _ZN12_GLOBAL__N_138TestCheckCloseFailureIncludesToleranceD0Ev
     /tmp/cc7yYODW.s:10991  .text:0000000000004286 _ZN12_GLOBAL__N_138TestCheckCloseFailureIncludesToleranceD2Ev
     /tmp/cc7yYODW.s:13048  .data.rel.ro:0000000000000108 _ZTIN12_GLOBAL__N_151TestCheckCloseFailureIncludesCheckExpectedAndActualE
     /tmp/cc7yYODW.s:11099  .text:0000000000004304 _ZN12_GLOBAL__N_151TestCheckCloseFailureIncludesCheckExpectedAndActualD1Ev
     /tmp/cc7yYODW.s:11130  .text:0000000000004332 _ZN12_GLOBAL__N_151TestCheckCloseFailureIncludesCheckExpectedAndActualD0Ev
     /tmp/cc7yYODW.s:11099  .text:0000000000004304 _ZN12_GLOBAL__N_151TestCheckCloseFailureIncludesCheckExpectedAndActualD2Ev
     /tmp/cc7yYODW.s:13062  .data.rel.ro:0000000000000120 _ZTIN12_GLOBAL__N_139TestCheckCloseWithNaNAgainstItselfFailsE
     /tmp/cc7yYODW.s:11207  .text:0000000000004382 _ZN12_GLOBAL__N_139TestCheckCloseWithNaNAgainstItselfFailsD1Ev
     /tmp/cc7yYODW.s:11238  .text:00000000000043b0 _ZN12_GLOBAL__N_139TestCheckCloseWithNaNAgainstItselfFailsD0Ev
     /tmp/cc7yYODW.s:11207  .text:0000000000004382 _ZN12_GLOBAL__N_139TestCheckCloseWithNaNAgainstItselfFailsD2Ev
     /tmp/cc7yYODW.s:13076  .data.rel.ro:0000000000000138 _ZTIN12_GLOBAL__N_126TestCheckCloseWithNaNFailsE
     /tmp/cc7yYODW.s:11315  .text:0000000000004400 _ZN12_GLOBAL__N_126TestCheckCloseWithNaNFailsD1Ev
     /tmp/cc7yYODW.s:11346  .text:000000000000442e _ZN12_GLOBAL__N_126TestCheckCloseWithNaNFailsD0Ev
     /tmp/cc7yYODW.s:11315  .text:0000000000004400 _ZN12_GLOBAL__N_126TestCheckCloseWithNaNFailsD2Ev
     /tmp/cc7yYODW.s:13090  .data.rel.ro:0000000000000150 _ZTIN12_GLOBAL__N_147TestCheckCloseWithZeroEpsilonWorksForSameNumberE
     /tmp/cc7yYODW.s:11423  .text:000000000000447e _ZN12_GLOBAL__N_147TestCheckCloseWithZeroEpsilonWorksForSameNumberD1Ev
     /tmp/cc7yYODW.s:11454  .text:00000000000044ac _ZN12_GLOBAL__N_147TestCheckCloseWithZeroEpsilonWorksForSameNumberD0Ev
     /tmp/cc7yYODW.s:11423  .text:000000000000447e _ZN12_GLOBAL__N_147TestCheckCloseWithZeroEpsilonWorksForSameNumberD2Ev
     /tmp/cc7yYODW.s:13104  .data.rel.ro:0000000000000168 _ZTIN12_GLOBAL__N_119TestCheckCloseFalseE
     /tmp/cc7yYODW.s:11531  .text:00000000000044fc _ZN12_GLOBAL__N_119TestCheckCloseFalseD1Ev
     /tmp/cc7yYODW.s:11562  .text:000000000000452a _ZN12_GLOBAL__N_119TestCheckCloseFalseD0Ev
     /tmp/cc7yYODW.s:11531  .text:00000000000044fc _ZN12_GLOBAL__N_119TestCheckCloseFalseD2Ev
     /tmp/cc7yYODW.s:13118  .data.rel.ro:0000000000000180 _ZTIN12_GLOBAL__N_118TestCheckCloseTrueE
     /tmp/cc7yYODW.s:11639  .text:000000000000457a _ZN12_GLOBAL__N_118TestCheckCloseTrueD1Ev
     /tmp/cc7yYODW.s:11670  .text:00000000000045a8 _ZN12_GLOBAL__N_118TestCheckCloseTrueD0Ev
     /tmp/cc7yYODW.s:11639  .text:000000000000457a _ZN12_GLOBAL__N_118TestCheckCloseTrueD2Ev
     /tmp/cc7yYODW.s:13132  .data.rel.ro:0000000000000198 _ZTIN12_GLOBAL__N_136TestCheckEqualFailureIncludesDetailsE
     /tmp/cc7yYODW.s:11747  .text:00000000000045f8 _ZN12_GLOBAL__N_136TestCheckEqualFailureIncludesDetailsD1Ev
     /tmp/cc7yYODW.s:11778  .text:0000000000004626 _ZN12_GLOBAL__N_136TestCheckEqualFailureIncludesDetailsD0Ev
     /tmp/cc7yYODW.s:11747  .text:00000000000045f8 _ZN12_GLOBAL__N_136TestCheckEqualFailureIncludesDetailsD2Ev
     /tmp/cc7yYODW.s:13146  .data.rel.ro:00000000000001b0 _ZTIN12_GLOBAL__N_151TestCheckEqualFailureIncludesCheckExpectedAndActualE
     /tmp/cc7yYODW.s:11855  .text:0000000000004676 _ZN12_GLOBAL__N_151TestCheckEqualFailureIncludesCheckExpectedAndActualD1Ev
     /tmp/cc7yYODW.s:11886  .text:00000000000046a4 _ZN12_GLOBAL__N_151TestCheckEqualFailureIncludesCheckExpectedAndActualD0Ev
     /tmp/cc7yYODW.s:11855  .text:0000000000004676 _ZN12_GLOBAL__N_151TestCheckEqualFailureIncludesCheckExpectedAndActualD2Ev
     /tmp/cc7yYODW.s:13160  .data.rel.ro:00000000000001c8 _ZTIN12_GLOBAL__N_153TestCheckEqualsWithStringsWorksOnContentsWithALiteralE
     /tmp/cc7yYODW.s:11963  .text:00000000000046f4 _ZN12_GLOBAL__N_153TestCheckEqualsWithStringsWorksOnContentsWithALiteralD1Ev
     /tmp/cc7yYODW.s:11994  .text:0000000000004722 _ZN12_GLOBAL__N_153TestCheckEqualsWithStringsWorksOnContentsWithALiteralD0Ev
     /tmp/cc7yYODW.s:11963  .text:00000000000046f4 _ZN12_GLOBAL__N_153TestCheckEqualsWithStringsWorksOnContentsWithALiteralD2Ev
     /tmp/cc7yYODW.s:13174  .data.rel.ro:00000000000001e0 _ZTIN12_GLOBAL__N_154TestCheckEqualsWithStringsWorksOnContentsConstNonConstE
     /tmp/cc7yYODW.s:12071  .text:0000000000004772 _ZN12_GLOBAL__N_154TestCheckEqualsWithStringsWorksOnContentsConstNonConstD1Ev
     /tmp/cc7yYODW.s:12102  .text:00000000000047a0 _ZN12_GLOBAL__N_154TestCheckEqualsWithStringsWorksOnContentsConstNonConstD0Ev
     /tmp/cc7yYODW.s:12071  .text:0000000000004772 _ZN12_GLOBAL__N_154TestCheckEqualsWithStringsWorksOnContentsConstNonConstD2Ev
     /tmp/cc7yYODW.s:13188  .data.rel.ro:00000000000001f8 _ZTIN12_GLOBAL__N_154TestCheckEqualsWithStringsWorksOnContentsNonConstConstE
     /tmp/cc7yYODW.s:12179  .text:00000000000047f0 _ZN12_GLOBAL__N_154TestCheckEqualsWithStringsWorksOnContentsNonConstConstD1Ev
     /tmp/cc7yYODW.s:12210  .text:000000000000481e _ZN12_GLOBAL__N_154TestCheckEqualsWithStringsWorksOnContentsNonConstConstD0Ev
     /tmp/cc7yYODW.s:12179  .text:00000000000047f0 _ZN12_GLOBAL__N_154TestCheckEqualsWithStringsWorksOnContentsNonConstConstD2Ev
     /tmp/cc7yYODW.s:13202  .data.rel.ro:0000000000000210 _ZTIN12_GLOBAL__N_151TestCheckEqualsWithStringsWorksOnContentsConstConstE
     /tmp/cc7yYODW.s:12287  .text:000000000000486e _ZN12_GLOBAL__N_151TestCheckEqualsWithStringsWorksOnContentsConstConstD1Ev
     /tmp/cc7yYODW.s:12318  .text:000000000000489c _ZN12_GLOBAL__N_151TestCheckEqualsWithStringsWorksOnContentsConstConstD0Ev
     /tmp/cc7yYODW.s:12287  .text:000000000000486e _ZN12_GLOBAL__N_151TestCheckEqualsWithStringsWorksOnContentsConstConstD2Ev
     /tmp/cc7yYODW.s:13216  .data.rel.ro:0000000000000228 _ZTIN12_GLOBAL__N_157TestCheckEqualsWithStringsWorksOnContentsNonConstNonConstE
     /tmp/cc7yYODW.s:12395  .text:00000000000048ec _ZN12_GLOBAL__N_157TestCheckEqualsWithStringsWorksOnContentsNonConstNonConstD1Ev
     /tmp/cc7yYODW.s:12426  .text:000000000000491a _ZN12_GLOBAL__N_157TestCheckEqualsWithStringsWorksOnContentsNonConstNonConstD0Ev
     /tmp/cc7yYODW.s:12395  .text:00000000000048ec _ZN12_GLOBAL__N_157TestCheckEqualsWithStringsWorksOnContentsNonConstNonConstD2Ev
     /tmp/cc7yYODW.s:13230  .data.rel.ro:0000000000000240 _ZTIN12_GLOBAL__N_149TestCheckEqualsWithStringsFailsOnDifferentStringsE
     /tmp/cc7yYODW.s:12503  .text:000000000000496a _ZN12_GLOBAL__N_149TestCheckEqualsWithStringsFailsOnDifferentStringsD1Ev
     /tmp/cc7yYODW.s:12534  .text:0000000000004998 _ZN12_GLOBAL__N_149TestCheckEqualsWithStringsFailsOnDifferentStringsD0Ev
     /tmp/cc7yYODW.s:12503  .text:000000000000496a _ZN12_GLOBAL__N_149TestCheckEqualsWithStringsFailsOnDifferentStringsD2Ev
     /tmp/cc7yYODW.s:13244  .data.rel.ro:0000000000000258 _ZTIN12_GLOBAL__N_130TestCheckEqualWithUnsignedLongE
     /tmp/cc7yYODW.s:12611  .text:00000000000049e8 _ZN12_GLOBAL__N_130TestCheckEqualWithUnsignedLongD1Ev
     /tmp/cc7yYODW.s:12642  .text:0000000000004a16 _ZN12_GLOBAL__N_130TestCheckEqualWithUnsignedLongD0Ev
     /tmp/cc7yYODW.s:12611  .text:00000000000049e8 _ZN12_GLOBAL__N_130TestCheckEqualWithUnsignedLongD2Ev
     /tmp/cc7yYODW.s:13253  .data.rel.ro._ZTI17RecordingReporter:0000000000000000 _ZTI17RecordingReporter
     /tmp/cc7yYODW.s:12758  .text._ZN17RecordingReporterD0Ev:0000000000000000 _ZN17RecordingReporterD0Ev
     /tmp/cc7yYODW.s:12724  .text._ZN17RecordingReporterD2Ev:0000000000000000 _ZN17RecordingReporterD2Ev
     /tmp/cc7yYODW.s:13269  .data.rel.ro._ZTIN8UnitTest15MemoryOutStreamE:0000000000000000 _ZTIN8UnitTest15MemoryOutStreamE
     /tmp/cc7yYODW.s:12856  .data.rel.ro._ZTCN8UnitTest15MemoryOutStreamE0_NSt7__cxx1119basic_ostringstreamIcSt11char_traitsIcESaIcEEE:0000000000000000 _ZTCN8UnitTest15MemoryOutStreamE0_NSt7__cxx1119basic_ostringstreamIcSt11char_traitsIcESaIcEEE
     /tmp/cc7yYODW.s:12873  .data.rel.ro._ZTCN8UnitTest15MemoryOutStreamE0_So:0000000000000000 _ZTCN8UnitTest15MemoryOutStreamE0_So
     /tmp/cc7yYODW.s:12888  .rodata:0000000000000c00 _ZTSN12_GLOBAL__N_143TestCheckArray2DCloseFailureIncludesDetailsE
     /tmp/cc7yYODW.s:12902  .rodata:0000000000000c40 _ZTSN12_GLOBAL__N_133TestCheckCloseWithDoublesSucceedsE
     /tmp/cc7yYODW.s:12916  .rodata:0000000000000c80 _ZTSN12_GLOBAL__N_126TestCheckArray2DCloseFalseE
     /tmp/cc7yYODW.s:12930  .rodata:0000000000000cc0 _ZTSN12_GLOBAL__N_125TestCheckArray2DCloseTrueE
     /tmp/cc7yYODW.s:12944  .rodata:0000000000000d00 _ZTSN12_GLOBAL__N_141TestCheckArrayCloseFailureIncludesDetailsE
     /tmp/cc7yYODW.s:12958  .rodata:0000000000000d40 _ZTSN12_GLOBAL__N_124TestCheckArrayCloseFalseE
     /tmp/cc7yYODW.s:12972  .rodata:0000000000000d80 _ZTSN12_GLOBAL__N_123TestCheckArrayCloseTrueE
     /tmp/cc7yYODW.s:12986  .rodata:0000000000000dc0 _ZTSN12_GLOBAL__N_124TestCheckArrayEqualFalseE
     /tmp/cc7yYODW.s:13000  .rodata:0000000000000e00 _ZTSN12_GLOBAL__N_123TestCheckArrayEqualTrueE
     /tmp/cc7yYODW.s:13014  .rodata:0000000000000e40 _ZTSN12_GLOBAL__N_136TestCheckCloseFailureIncludesDetailsE
     /tmp/cc7yYODW.s:13028  .rodata:0000000000000e80 _ZTSN12_GLOBAL__N_138TestCheckCloseFailureIncludesToleranceE
     /tmp/cc7yYODW.s:13042  .rodata:0000000000000ec0 _ZTSN12_GLOBAL__N_151TestCheckCloseFailureIncludesCheckExpectedAndActualE
     /tmp/cc7yYODW.s:13056  .rodata:0000000000000f20 _ZTSN12_GLOBAL__N_139TestCheckCloseWithNaNAgainstItselfFailsE
     /tmp/cc7yYODW.s:13070  .rodata:0000000000000f60 _ZTSN12_GLOBAL__N_126TestCheckCloseWithNaNFailsE
     /tmp/cc7yYODW.s:13084  .rodata:0000000000000fa0 _ZTSN12_GLOBAL__N_147TestCheckCloseWithZeroEpsilonWorksForSameNumberE
     /tmp/cc7yYODW.s:13098  .rodata:0000000000001000 _ZTSN12_GLOBAL__N_119TestCheckCloseFalseE
     /tmp/cc7yYODW.s:13112  .rodata:0000000000001040 _ZTSN12_GLOBAL__N_118TestCheckCloseTrueE
     /tmp/cc7yYODW.s:13126  .rodata:0000000000001080 _ZTSN12_GLOBAL__N_136TestCheckEqualFailureIncludesDetailsE
     /tmp/cc7yYODW.s:13140  .rodata:00000000000010c0 _ZTSN12_GLOBAL__N_151TestCheckEqualFailureIncludesCheckExpectedAndActualE
     /tmp/cc7yYODW.s:13154  .rodata:0000000000001120 _ZTSN12_GLOBAL__N_153TestCheckEqualsWithStringsWorksOnContentsWithALiteralE
     /tmp/cc7yYODW.s:13168  .rodata:0000000000001180 _ZTSN12_GLOBAL__N_154TestCheckEqualsWithStringsWorksOnContentsConstNonConstE
     /tmp/cc7yYODW.s:13182  .rodata:00000000000011e0 _ZTSN12_GLOBAL__N_154TestCheckEqualsWithStringsWorksOnContentsNonConstConstE
     /tmp/cc7yYODW.s:13196  .rodata:0000000000001240 _ZTSN12_GLOBAL__N_151TestCheckEqualsWithStringsWorksOnContentsConstConstE
     /tmp/cc7yYODW.s:13210  .rodata:00000000000012a0 _ZTSN12_GLOBAL__N_157TestCheckEqualsWithStringsWorksOnContentsNonConstNonConstE
     /tmp/cc7yYODW.s:13224  .rodata:0000000000001300 _ZTSN12_GLOBAL__N_149TestCheckEqualsWithStringsFailsOnDifferentStringsE
     /tmp/cc7yYODW.s:13238  .rodata:0000000000001360 _ZTSN12_GLOBAL__N_130TestCheckEqualWithUnsignedLongE
     /tmp/cc7yYODW.s:13262  .rodata._ZTS17RecordingReporter:0000000000000000 _ZTS17RecordingReporter
     /tmp/cc7yYODW.s:13278  .rodata._ZTSN8UnitTest15MemoryOutStreamE:0000000000000000 _ZTSN8UnitTest15MemoryOutStreamE
     /tmp/cc7yYODW.s:13282  .text:0000000000004a65 _Z41__static_initialization_and_destruction_0ii
     /tmp/cc7yYODW.s:13805  .text:000000000000534d _GLOBAL__sub_I_TestChecks.cpp
                           .group:0000000000000000 _ZN8UnitTest12TestReporterC5Ev
                           .group:0000000000000000 _ZN17RecordingReporterC5Ev
                           .group:0000000000000000 _ZN17RecordingReporterD5Ev

UNDEFINED SYMBOLS
_ZNSt9basic_iosIcSt11char_traitsIcEEC2Ev
_ZNSt7__cxx1119basic_ostringstreamIcSt11char_traitsIcESaIcEEC2Ev
_ZNSt7__cxx1112basic_stringIcSt11char_traitsIcESaIcEEC1Ev
_ZNSt7__cxx1119basic_ostringstreamIcSt11char_traitsIcESaIcEED2Ev
_ZNSt9basic_iosIcSt11char_traitsIcEED2Ev
_Unwind_Resume
__gxx_personality_v0
_ZTVN8UnitTest12TestReporterE
strcpy
_ZN8UnitTest4TestC2EPKcS2_S2_i
_ZN8UnitTest11TestResultsC1EPNS_12TestReporterE
_ZN8UnitTest11CurrentTest7DetailsEv
_ZN8UnitTest11TestDetailsC1ERKS0_i
_ZN8UnitTest11CurrentTest7ResultsEv
__cxa_begin_catch
_ZN8UnitTest11TestResults13OnTestFailureERKNS_11TestDetailsEPKc
__cxa_end_catch
__stack_chk_fail
_ZN8UnitTest11TestDetailsC1EPKcS2_S2_i
_ZN8UnitTest10CheckEqualERNS_11TestResultsEPcS2_RKNS_11TestDetailsE
_ZNK8UnitTest11TestResults15GetFailureCountEv
_ZN8UnitTest10CheckEqualERNS_11TestResultsEPKcS3_RKNS_11TestDetailsE
_ZN8UnitTest10CheckEqualERNS_11TestResultsEPcPKcRKNS_11TestDetailsE
_ZN8UnitTest10CheckEqualERNS_11TestResultsEPKcPcRKNS_11TestDetailsE
strstr
_ZNSt7__cxx1112basic_stringIcSt11char_traitsIcESaIcEED1Ev
_ZdlPv
_ZStlsISt11char_traitsIcEERSt13basic_ostreamIcT_ES5_PKc
_ZNSolsEm
_ZNK8UnitTest15MemoryOutStream7GetTextEv
_ZNSolsEi
_ZNSolsEf
_ZNSolsEd
_ZN8UnitTest4TestD2Ev
_ZN8UnitTest12TestReporterD2Ev
_ZTINSt7__cxx1119basic_ostringstreamIcSt11char_traitsIcESaIcEEE
_ZTISo
_ZTVN10__cxxabiv120__si_class_type_infoE
_ZTIN8UnitTest4TestE
_ZTIN8UnitTest12TestReporterE
__dso_handle
__cxa_atexit
_ZN8UnitTest4Test11GetTestListEv
_ZN8UnitTest9ListAdderC1ERNS_8TestListEPNS_4TestE
