   1              		.file	"TestTestList.cpp"
   2              		.text
   3              	.Ltext0:
   4              		.file 0 "/home/pong/FPGALink/makestuff/libs/libutpp/tests" "TestTestList.cpp"
   5              		.section	.rodata
   6              	.LC0:
   7 0000 44656661 		.string	"DefaultSuite"
   7      756C7453 
   7      75697465 
   7      00
   8              		.section	.text._ZN13UnitTestSuite12GetSuiteNameEv,"axG",@progbits,_ZN13UnitTestSuite12GetSuiteName
   9              		.weak	_ZN13UnitTestSuite12GetSuiteNameEv
  11              	_ZN13UnitTestSuite12GetSuiteNameEv:
  12              	.LFB0:
  13              		.file 1 "../TestSuite.h"
   1:../TestSuite.h **** #ifndef UNITTEST_TESTSUITE_H
   2:../TestSuite.h **** #define UNITTEST_TESTSUITE_H
   3:../TestSuite.h **** 
   4:../TestSuite.h **** namespace UnitTestSuite {
   5:../TestSuite.h **** 
   6:../TestSuite.h ****     inline char const* GetSuiteName ()
   7:../TestSuite.h ****     {
  14              		.loc 1 7 5
  15              		.cfi_startproc
  16 0000 F30F1EFA 		endbr64
  17 0004 55       		pushq	%rbp
  18              		.cfi_def_cfa_offset 16
  19              		.cfi_offset 6, -16
  20 0005 4889E5   		movq	%rsp, %rbp
  21              		.cfi_def_cfa_register 6
   8:../TestSuite.h ****         return "DefaultSuite";
  22              		.loc 1 8 16
  23 0008 488D0500 		leaq	.LC0(%rip), %rax
  23      000000
   9:../TestSuite.h ****     }
  24              		.loc 1 9 5
  25 000f 5D       		popq	%rbp
  26              		.cfi_def_cfa 7, 8
  27 0010 C3       		ret
  28              		.cfi_endproc
  29              	.LFE0:
  31              		.section	.rodata
  32              	.LC1:
  33 000d 54657374 		.string	"TestTestList.cpp"
  33      54657374 
  33      4C697374 
  33      2E637070 
  33      00
  34              	.LC2:
  35 001e 54657374 		.string	"TestListIsEmptyByDefault"
  35      4C697374 
  35      4973456D 
  35      70747942 
  35      79446566 
  36              		.text
  37              		.align 2
  39              	_ZN12_GLOBAL__N_128TestTestListIsEmptyByDefaultC2Ev:
  40              	.LFB1142:
  41              		.file 2 "TestTestList.cpp"
   1:TestTestList.cpp **** #include "../UnitTest++.h"
   2:TestTestList.cpp **** #include "../TestList.h"
   3:TestTestList.cpp **** 
   4:TestTestList.cpp **** using namespace UnitTest;
   5:TestTestList.cpp **** 
   6:TestTestList.cpp **** namespace {
   7:TestTestList.cpp **** 
   8:TestTestList.cpp **** 
   9:TestTestList.cpp **** TEST (TestListIsEmptyByDefault)
  42              		.loc 2 9 1
  43              		.cfi_startproc
  44 0000 55       		pushq	%rbp
  45              		.cfi_def_cfa_offset 16
  46              		.cfi_offset 6, -16
  47 0001 4889E5   		movq	%rsp, %rbp
  48              		.cfi_def_cfa_register 6
  49 0004 53       		pushq	%rbx
  50 0005 4883EC18 		subq	$24, %rsp
  51              		.cfi_offset 3, -24
  52 0009 48897DE8 		movq	%rdi, -24(%rbp)
  53              	.LBB2:
  54              		.loc 2 9 1
  55 000d 488B5DE8 		movq	-24(%rbp), %rbx
  56 0011 E8000000 		call	_ZN13UnitTestSuite12GetSuiteNameEv
  56      00
  57 0016 4889C2   		movq	%rax, %rdx
  58 0019 41B80900 		movl	$9, %r8d
  58      0000
  59 001f 488D0500 		leaq	.LC1(%rip), %rax
  59      000000
  60 0026 4889C1   		movq	%rax, %rcx
  61 0029 488D0500 		leaq	.LC2(%rip), %rax
  61      000000
  62 0030 4889C6   		movq	%rax, %rsi
  63 0033 4889DF   		movq	%rbx, %rdi
  64 0036 E8000000 		call	_ZN8UnitTest4TestC2EPKcS2_S2_i@PLT
  64      00
  65 003b 488D1500 		leaq	16+_ZTVN12_GLOBAL__N_128TestTestListIsEmptyByDefaultE(%rip), %rdx
  65      000000
  66 0042 488B45E8 		movq	-24(%rbp), %rax
  67 0046 488910   		movq	%rdx, (%rax)
  68              	.LBE2:
  69 0049 90       		nop
  70 004a 488B5DF8 		movq	-8(%rbp), %rbx
  71 004e C9       		leave
  72              		.cfi_def_cfa 7, 8
  73 004f C3       		ret
  74              		.cfi_endproc
  75              	.LFE1142:
  77              		.set	_ZN12_GLOBAL__N_128TestTestListIsEmptyByDefaultC1Ev,_ZN12_GLOBAL__N_128TestTestListIsEmptyByD
  78              		.local	_ZN12_GLOBAL__N_136testTestListIsEmptyByDefaultInstanceE
  79              		.comm	_ZN12_GLOBAL__N_136testTestListIsEmptyByDefaultInstanceE,56,32
  80              		.local	_ZN12_GLOBAL__N_129adderTestListIsEmptyByDefaultE
  81              		.comm	_ZN12_GLOBAL__N_129adderTestListIsEmptyByDefaultE,1,1
  82              		.section	.rodata
  83              	.LC3:
  84 0037 6C697374 		.string	"list.GetHead() == 0"
  84      2E476574 
  84      48656164 
  84      2829203D 
  84      3D203000 
  85 004b 00000000 		.align 8
  85      00
  86              	.LC4:
  87 0050 556E6861 		.string	"Unhandled exception in CHECK(list.GetHead() == 0)"
  87      6E646C65 
  87      64206578 
  87      63657074 
  87      696F6E20 
  88              		.text
  89              		.align 2
  91              	_ZNK12_GLOBAL__N_128TestTestListIsEmptyByDefault7RunImplEv:
  92              	.LFB1144:
  10:TestTestList.cpp **** {
  93              		.loc 2 10 1
  94              		.cfi_startproc
  95              		.cfi_personality 0x9b,DW.ref.__gxx_personality_v0
  96              		.cfi_lsda 0x1b,.LLSDA1144
  97 0050 F30F1EFA 		endbr64
  98 0054 55       		pushq	%rbp
  99              		.cfi_def_cfa_offset 16
 100              		.cfi_offset 6, -16
 101 0055 4889E5   		movq	%rsp, %rbp
 102              		.cfi_def_cfa_register 6
 103 0058 53       		pushq	%rbx
 104 0059 4883EC58 		subq	$88, %rsp
 105              		.cfi_offset 3, -24
 106 005d 48897DA8 		movq	%rdi, -88(%rbp)
 107              		.loc 2 10 1
 108 0061 64488B04 		movq	%fs:40, %rax
 108      25280000 
 108      00
 109 006a 488945E8 		movq	%rax, -24(%rbp)
 110 006e 31C0     		xorl	%eax, %eax
  11:TestTestList.cpp ****     TestList list;
 111              		.loc 2 11 14
 112 0070 488D45B0 		leaq	-80(%rbp), %rax
 113 0074 4889C7   		movq	%rax, %rdi
 114              	.LEHB0:
 115 0077 E8000000 		call	_ZN8UnitTest8TestListC1Ev@PLT
 115      00
 116              	.LEHE0:
  12:TestTestList.cpp ****     CHECK (list.GetHead() == 0);
 117              		.loc 2 12 5
 118 007c 488D45B0 		leaq	-80(%rbp), %rax
 119 0080 4889C7   		movq	%rax, %rdi
 120              	.LEHB1:
 121 0083 E8000000 		call	_ZNK8UnitTest8TestList7GetHeadEv@PLT
 121      00
 122 0088 4885C0   		testq	%rax, %rax
 123 008b 0F94C0   		sete	%al
 124 008e 0FB6C0   		movzbl	%al, %eax
 125 0091 89C7     		movl	%eax, %edi
 126 0093 E8000000 		call	_ZN8UnitTest5CheckIbEEbT_
 126      00
 127 0098 83F001   		xorl	$1, %eax
 128 009b 84C0     		testb	%al, %al
 129 009d 0F84A000 		je	.L11
 129      0000
 130              		.loc 2 12 5 is_stmt 0 discriminator 3
 131 00a3 E8000000 		call	_ZN8UnitTest11CurrentTest7ResultsEv@PLT
 131      00
 132 00a8 488B18   		movq	(%rax), %rbx
 133 00ab E8000000 		call	_ZN8UnitTest11CurrentTest7DetailsEv@PLT
 133      00
 134              		.loc 2 12 5 discriminator 5
 135 00b0 488B08   		movq	(%rax), %rcx
 136 00b3 488D45C0 		leaq	-64(%rbp), %rax
 137 00b7 BA0C0000 		movl	$12, %edx
 137      00
 138 00bc 4889CE   		movq	%rcx, %rsi
 139 00bf 4889C7   		movq	%rax, %rdi
 140 00c2 E8000000 		call	_ZN8UnitTest11TestDetailsC1ERKS0_i@PLT
 140      00
 141              		.loc 2 12 5 discriminator 9
 142 00c7 488D45C0 		leaq	-64(%rbp), %rax
 143 00cb 488D1500 		leaq	.LC3(%rip), %rdx
 143      000000
 144 00d2 4889C6   		movq	%rax, %rsi
 145 00d5 4889DF   		movq	%rbx, %rdi
 146 00d8 E8000000 		call	_ZN8UnitTest11TestResults13OnTestFailureERKNS_11TestDetailsEPKc@PLT
 146      00
 147              	.LEHE1:
  13:TestTestList.cpp **** }
 148              		.loc 2 13 1 is_stmt 1
 149 00dd EB64     		jmp	.L11
 150              	.L9:
 151 00df F30F1EFA 		endbr64
  12:TestTestList.cpp ****     CHECK (list.GetHead() == 0);
 152              		.loc 2 12 5
 153 00e3 4889C7   		movq	%rax, %rdi
 154 00e6 E8000000 		call	__cxa_begin_catch@PLT
 154      00
 155              	.LEHB2:
 156 00eb E8000000 		call	_ZN8UnitTest11CurrentTest7ResultsEv@PLT
 156      00
  12:TestTestList.cpp ****     CHECK (list.GetHead() == 0);
 157              		.loc 2 12 5 is_stmt 0 discriminator 8
 158 00f0 488B18   		movq	(%rax), %rbx
 159 00f3 E8000000 		call	_ZN8UnitTest11CurrentTest7DetailsEv@PLT
 159      00
  12:TestTestList.cpp ****     CHECK (list.GetHead() == 0);
 160              		.loc 2 12 5 discriminator 14
 161 00f8 488B08   		movq	(%rax), %rcx
 162 00fb 488D45C0 		leaq	-64(%rbp), %rax
 163 00ff BA0C0000 		movl	$12, %edx
 163      00
 164 0104 4889CE   		movq	%rcx, %rsi
 165 0107 4889C7   		movq	%rax, %rdi
 166 010a E8000000 		call	_ZN8UnitTest11TestDetailsC1ERKS0_i@PLT
 166      00
  12:TestTestList.cpp ****     CHECK (list.GetHead() == 0);
 167              		.loc 2 12 5 discriminator 18
 168 010f 488D45C0 		leaq	-64(%rbp), %rax
 169 0113 488D1500 		leaq	.LC4(%rip), %rdx
 169      000000
 170 011a 4889C6   		movq	%rax, %rsi
 171 011d 4889DF   		movq	%rbx, %rdi
 172 0120 E8000000 		call	_ZN8UnitTest11TestResults13OnTestFailureERKNS_11TestDetailsEPKc@PLT
 172      00
 173              	.LEHE2:
 174              	.LEHB3:
  12:TestTestList.cpp ****     CHECK (list.GetHead() == 0);
 175              		.loc 2 12 5 discriminator 20
 176 0125 E8000000 		call	__cxa_end_catch@PLT
 176      00
 177              	.LEHE3:
 178              		.loc 2 13 1 is_stmt 1 discriminator 20
 179 012a EB17     		jmp	.L11
 180              	.L10:
 181 012c F30F1EFA 		endbr64
  12:TestTestList.cpp ****     CHECK (list.GetHead() == 0);
 182              		.loc 2 12 5
 183 0130 4889C3   		movq	%rax, %rbx
 184 0133 E8000000 		call	__cxa_end_catch@PLT
 184      00
 185 0138 4889D8   		movq	%rbx, %rax
 186 013b 4889C7   		movq	%rax, %rdi
 187              	.LEHB4:
 188 013e E8000000 		call	_Unwind_Resume@PLT
 188      00
 189              	.LEHE4:
 190              	.L11:
 191              		.loc 2 13 1
 192 0143 90       		nop
 193 0144 488B45E8 		movq	-24(%rbp), %rax
 194 0148 64482B04 		subq	%fs:40, %rax
 194      25280000 
 194      00
 195 0151 7405     		je	.L8
 196 0153 E8000000 		call	__stack_chk_fail@PLT
 196      00
 197              	.L8:
 198 0158 488B5DF8 		movq	-8(%rbp), %rbx
 199 015c C9       		leave
 200              		.cfi_def_cfa 7, 8
 201 015d C3       		ret
 202              		.cfi_endproc
 203              	.LFE1144:
 204              		.globl	__gxx_personality_v0
 205              		.section	.gcc_except_table,"a",@progbits
 206              		.align 4
 207              	.LLSDA1144:
 208 0000 FF       		.byte	0xff
 209 0001 9B       		.byte	0x9b
 210 0002 21       		.uleb128 .LLSDATT1144-.LLSDATTD1144
 211              	.LLSDATTD1144:
 212 0003 01       		.byte	0x1
 213 0004 19       		.uleb128 .LLSDACSE1144-.LLSDACSB1144
 214              	.LLSDACSB1144:
 215 0005 27       		.uleb128 .LEHB0-.LFB1144
 216 0006 05       		.uleb128 .LEHE0-.LEHB0
 217 0007 00       		.uleb128 0
 218 0008 00       		.uleb128 0
 219 0009 33       		.uleb128 .LEHB1-.LFB1144
 220 000a 5A       		.uleb128 .LEHE1-.LEHB1
 221 000b 8F01     		.uleb128 .L9-.LFB1144
 222 000d 01       		.uleb128 0x1
 223 000e 9B01     		.uleb128 .LEHB2-.LFB1144
 224 0010 3A       		.uleb128 .LEHE2-.LEHB2
 225 0011 DC01     		.uleb128 .L10-.LFB1144
 226 0013 00       		.uleb128 0
 227 0014 D501     		.uleb128 .LEHB3-.LFB1144
 228 0016 05       		.uleb128 .LEHE3-.LEHB3
 229 0017 00       		.uleb128 0
 230 0018 00       		.uleb128 0
 231 0019 EE01     		.uleb128 .LEHB4-.LFB1144
 232 001b 05       		.uleb128 .LEHE4-.LEHB4
 233 001c 00       		.uleb128 0
 234 001d 00       		.uleb128 0
 235              	.LLSDACSE1144:
 236 001e 01       		.byte	0x1
 237 001f 00       		.byte	0
 238              		.align 4
 239 0020 00000000 		.long	0
 240              	
 241              	.LLSDATT1144:
 242              		.text
 244              		.section	.rodata
 245              	.LC5:
 246 0082 41646469 		.string	"AddingTestSetsHeadToTest"
 246      6E675465 
 246      73745365 
 246      74734865 
 246      6164546F 
 247              		.text
 248              		.align 2
 250              	_ZN12_GLOBAL__N_128TestAddingTestSetsHeadToTestC2Ev:
 251              	.LFB1146:
  14:TestTestList.cpp **** 
  15:TestTestList.cpp **** TEST (AddingTestSetsHeadToTest)
 252              		.loc 2 15 1
 253              		.cfi_startproc
 254 015e 55       		pushq	%rbp
 255              		.cfi_def_cfa_offset 16
 256              		.cfi_offset 6, -16
 257 015f 4889E5   		movq	%rsp, %rbp
 258              		.cfi_def_cfa_register 6
 259 0162 53       		pushq	%rbx
 260 0163 4883EC18 		subq	$24, %rsp
 261              		.cfi_offset 3, -24
 262 0167 48897DE8 		movq	%rdi, -24(%rbp)
 263              	.LBB3:
 264              		.loc 2 15 1
 265 016b 488B5DE8 		movq	-24(%rbp), %rbx
 266 016f E8000000 		call	_ZN13UnitTestSuite12GetSuiteNameEv
 266      00
 267 0174 4889C2   		movq	%rax, %rdx
 268 0177 41B80F00 		movl	$15, %r8d
 268      0000
 269 017d 488D0500 		leaq	.LC1(%rip), %rax
 269      000000
 270 0184 4889C1   		movq	%rax, %rcx
 271 0187 488D0500 		leaq	.LC5(%rip), %rax
 271      000000
 272 018e 4889C6   		movq	%rax, %rsi
 273 0191 4889DF   		movq	%rbx, %rdi
 274 0194 E8000000 		call	_ZN8UnitTest4TestC2EPKcS2_S2_i@PLT
 274      00
 275 0199 488D1500 		leaq	16+_ZTVN12_GLOBAL__N_128TestAddingTestSetsHeadToTestE(%rip), %rdx
 275      000000
 276 01a0 488B45E8 		movq	-24(%rbp), %rax
 277 01a4 488910   		movq	%rdx, (%rax)
 278              	.LBE3:
 279 01a7 90       		nop
 280 01a8 488B5DF8 		movq	-8(%rbp), %rbx
 281 01ac C9       		leave
 282              		.cfi_def_cfa 7, 8
 283 01ad C3       		ret
 284              		.cfi_endproc
 285              	.LFE1146:
 287              		.set	_ZN12_GLOBAL__N_128TestAddingTestSetsHeadToTestC1Ev,_ZN12_GLOBAL__N_128TestAddingTestSetsHead
 288              		.local	_ZN12_GLOBAL__N_136testAddingTestSetsHeadToTestInstanceE
 289              		.comm	_ZN12_GLOBAL__N_136testAddingTestSetsHeadToTestInstanceE,56,32
 290              		.local	_ZN12_GLOBAL__N_129adderAddingTestSetsHeadToTestE
 291              		.comm	_ZN12_GLOBAL__N_129adderAddingTestSetsHeadToTestE,1,1
 292              		.section	.rodata
 293              	.LC6:
 294 009b 00       		.string	""
 295              	.LC7:
 296 009c 74657374 		.string	"test"
 296      00
 297              	.LC8:
 298 00a1 6C697374 		.string	"list.GetHead() == &test"
 298      2E476574 
 298      48656164 
 298      2829203D 
 298      3D202674 
 299              	.LC9:
 300 00b9 74657374 		.string	"test.next == 0"
 300      2E6E6578 
 300      74203D3D 
 300      203000
 301              		.align 8
 302              	.LC10:
 303 00c8 556E6861 		.string	"Unhandled exception in CHECK(list.GetHead() == &test)"
 303      6E646C65 
 303      64206578 
 303      63657074 
 303      696F6E20 
 304 00fe 0000     		.align 8
 305              	.LC11:
 306 0100 556E6861 		.string	"Unhandled exception in CHECK(test.next == 0)"
 306      6E646C65 
 306      64206578 
 306      63657074 
 306      696F6E20 
 307              		.text
 308              		.align 2
 310              	_ZNK12_GLOBAL__N_128TestAddingTestSetsHeadToTest7RunImplEv:
 311              	.LFB1148:
  16:TestTestList.cpp **** {
 312              		.loc 2 16 1
 313              		.cfi_startproc
 314              		.cfi_personality 0x9b,DW.ref.__gxx_personality_v0
 315              		.cfi_lsda 0x1b,.LLSDA1148
 316 01ae F30F1EFA 		endbr64
 317 01b2 55       		pushq	%rbp
 318              		.cfi_def_cfa_offset 16
 319              		.cfi_offset 6, -16
 320 01b3 4889E5   		movq	%rsp, %rbp
 321              		.cfi_def_cfa_register 6
 322 01b6 53       		pushq	%rbx
 323 01b7 4881EC88 		subq	$136, %rsp
 323      000000
 324              		.cfi_offset 3, -24
 325 01be 4889BD78 		movq	%rdi, -136(%rbp)
 325      FFFFFF
 326              		.loc 2 16 1
 327 01c5 64488B04 		movq	%fs:40, %rax
 327      25280000 
 327      00
 328 01ce 488945E8 		movq	%rax, -24(%rbp)
 329 01d2 31C0     		xorl	%eax, %eax
  17:TestTestList.cpp ****     Test test("test");
 330              		.loc 2 17 21
 331 01d4 488D45B0 		leaq	-80(%rbp), %rax
 332 01d8 41B80000 		movl	$0, %r8d
 332      0000
 333 01de 488D1500 		leaq	.LC6(%rip), %rdx
 333      000000
 334 01e5 4889D1   		movq	%rdx, %rcx
 335 01e8 488D1500 		leaq	.LC0(%rip), %rdx
 335      000000
 336 01ef 488D3500 		leaq	.LC7(%rip), %rsi
 336      000000
 337 01f6 4889C7   		movq	%rax, %rdi
 338              	.LEHB5:
 339 01f9 E8000000 		call	_ZN8UnitTest4TestC1EPKcS2_S2_i@PLT
 339      00
 340              	.LEHE5:
  18:TestTestList.cpp ****     TestList list;
 341              		.loc 2 18 14
 342 01fe 488D4580 		leaq	-128(%rbp), %rax
 343 0202 4889C7   		movq	%rax, %rdi
 344              	.LEHB6:
 345 0205 E8000000 		call	_ZN8UnitTest8TestListC1Ev@PLT
 345      00
  19:TestTestList.cpp ****     list.Add(&test);
 346              		.loc 2 19 13
 347 020a 488D55B0 		leaq	-80(%rbp), %rdx
 348 020e 488D4580 		leaq	-128(%rbp), %rax
 349 0212 4889D6   		movq	%rdx, %rsi
 350 0215 4889C7   		movq	%rax, %rdi
 351 0218 E8000000 		call	_ZN8UnitTest8TestList3AddEPNS_4TestE@PLT
 351      00
 352              	.LEHE6:
  20:TestTestList.cpp **** 
  21:TestTestList.cpp ****     CHECK (list.GetHead() == &test);
 353              		.loc 2 21 5
 354 021d 488D4580 		leaq	-128(%rbp), %rax
 355 0221 4889C7   		movq	%rax, %rdi
 356              	.LEHB7:
 357 0224 E8000000 		call	_ZNK8UnitTest8TestList7GetHeadEv@PLT
 357      00
 358 0229 488D55B0 		leaq	-80(%rbp), %rdx
 359 022d 4839D0   		cmpq	%rdx, %rax
 360 0230 0F94C0   		sete	%al
 361 0233 0FB6C0   		movzbl	%al, %eax
 362 0236 89C7     		movl	%eax, %edi
 363 0238 E8000000 		call	_ZN8UnitTest5CheckIbEEbT_
 363      00
 364 023d 83F001   		xorl	$1, %eax
 365 0240 84C0     		testb	%al, %al
 366 0242 743A     		je	.L14
 367              		.loc 2 21 5 is_stmt 0 discriminator 3
 368 0244 E8000000 		call	_ZN8UnitTest11CurrentTest7ResultsEv@PLT
 368      00
 369 0249 488B18   		movq	(%rax), %rbx
 370 024c E8000000 		call	_ZN8UnitTest11CurrentTest7DetailsEv@PLT
 370      00
 371              		.loc 2 21 5 discriminator 5
 372 0251 488B08   		movq	(%rax), %rcx
 373 0254 488D4590 		leaq	-112(%rbp), %rax
 374 0258 BA150000 		movl	$21, %edx
 374      00
 375 025d 4889CE   		movq	%rcx, %rsi
 376 0260 4889C7   		movq	%rax, %rdi
 377 0263 E8000000 		call	_ZN8UnitTest11TestDetailsC1ERKS0_i@PLT
 377      00
 378              		.loc 2 21 5 discriminator 9
 379 0268 488D4590 		leaq	-112(%rbp), %rax
 380 026c 488D1500 		leaq	.LC8(%rip), %rdx
 380      000000
 381 0273 4889C6   		movq	%rax, %rsi
 382 0276 4889DF   		movq	%rbx, %rdi
 383 0279 E8000000 		call	_ZN8UnitTest11TestResults13OnTestFailureERKNS_11TestDetailsEPKc@PLT
 383      00
 384              	.LEHE7:
 385              	.L14:
  22:TestTestList.cpp ****     CHECK (test.next == 0);
 386              		.loc 2 22 5 is_stmt 1
 387 027e 488B45D8 		movq	-40(%rbp), %rax
 388 0282 4885C0   		testq	%rax, %rax
 389 0285 0F94C0   		sete	%al
 390 0288 0FB6C0   		movzbl	%al, %eax
 391 028b 89C7     		movl	%eax, %edi
 392 028d E8000000 		call	_ZN8UnitTest5CheckIbEEbT_
 392      00
 393 0292 83F001   		xorl	$1, %eax
 394 0295 84C0     		testb	%al, %al
 395 0297 743A     		je	.L15
 396              	.LEHB8:
 397              		.loc 2 22 5 is_stmt 0 discriminator 1
 398 0299 E8000000 		call	_ZN8UnitTest11CurrentTest7ResultsEv@PLT
 398      00
 399 029e 488B18   		movq	(%rax), %rbx
 400 02a1 E8000000 		call	_ZN8UnitTest11CurrentTest7DetailsEv@PLT
 400      00
 401              		.loc 2 22 5 discriminator 3
 402 02a6 488B08   		movq	(%rax), %rcx
 403 02a9 488D4590 		leaq	-112(%rbp), %rax
 404 02ad BA160000 		movl	$22, %edx
 404      00
 405 02b2 4889CE   		movq	%rcx, %rsi
 406 02b5 4889C7   		movq	%rax, %rdi
 407 02b8 E8000000 		call	_ZN8UnitTest11TestDetailsC1ERKS0_i@PLT
 407      00
 408              		.loc 2 22 5 discriminator 7
 409 02bd 488D4590 		leaq	-112(%rbp), %rax
 410 02c1 488D1500 		leaq	.LC9(%rip), %rdx
 410      000000
 411 02c8 4889C6   		movq	%rax, %rsi
 412 02cb 4889DF   		movq	%rbx, %rdi
 413 02ce E8000000 		call	_ZN8UnitTest11TestResults13OnTestFailureERKNS_11TestDetailsEPKc@PLT
 413      00
 414              	.LEHE8:
 415              	.L15:
  23:TestTestList.cpp **** }
 416              		.loc 2 23 1 is_stmt 1
 417 02d3 488D45B0 		leaq	-80(%rbp), %rax
 418 02d7 4889C7   		movq	%rax, %rdi
 419              	.LEHB9:
 420 02da E8000000 		call	_ZN8UnitTest4TestD1Ev@PLT
 420      00
 421              	.LEHE9:
 422 02df 488B45E8 		movq	-24(%rbp), %rax
 423 02e3 64482B04 		subq	%fs:40, %rax
 423      25280000 
 423      00
 424 02ec 0F84E400 		je	.L21
 424      0000
 425 02f2 E9DA0000 		jmp	.L27
 425      00
 426              	.L23:
 427 02f7 F30F1EFA 		endbr64
  21:TestTestList.cpp ****     CHECK (test.next == 0);
 428              		.loc 2 21 5
 429 02fb 4889C7   		movq	%rax, %rdi
 430 02fe E8000000 		call	__cxa_begin_catch@PLT
 430      00
 431              	.LEHB10:
 432 0303 E8000000 		call	_ZN8UnitTest11CurrentTest7ResultsEv@PLT
 432      00
  21:TestTestList.cpp ****     CHECK (test.next == 0);
 433              		.loc 2 21 5 is_stmt 0 discriminator 8
 434 0308 488B18   		movq	(%rax), %rbx
 435 030b E8000000 		call	_ZN8UnitTest11CurrentTest7DetailsEv@PLT
 435      00
  21:TestTestList.cpp ****     CHECK (test.next == 0);
 436              		.loc 2 21 5 discriminator 14
 437 0310 488B08   		movq	(%rax), %rcx
 438 0313 488D4590 		leaq	-112(%rbp), %rax
 439 0317 BA150000 		movl	$21, %edx
 439      00
 440 031c 4889CE   		movq	%rcx, %rsi
 441 031f 4889C7   		movq	%rax, %rdi
 442 0322 E8000000 		call	_ZN8UnitTest11TestDetailsC1ERKS0_i@PLT
 442      00
  21:TestTestList.cpp ****     CHECK (test.next == 0);
 443              		.loc 2 21 5 discriminator 18
 444 0327 488D4590 		leaq	-112(%rbp), %rax
 445 032b 488D1500 		leaq	.LC10(%rip), %rdx
 445      000000
 446 0332 4889C6   		movq	%rax, %rsi
 447 0335 4889DF   		movq	%rbx, %rdi
 448 0338 E8000000 		call	_ZN8UnitTest11TestResults13OnTestFailureERKNS_11TestDetailsEPKc@PLT
 448      00
 449              	.LEHE10:
 450              	.LEHB11:
  21:TestTestList.cpp ****     CHECK (test.next == 0);
 451              		.loc 2 21 5 discriminator 20
 452 033d E8000000 		call	__cxa_end_catch@PLT
 452      00
 453              	.LEHE11:
  21:TestTestList.cpp ****     CHECK (test.next == 0);
 454              		.loc 2 21 5
 455 0342 E937FFFF 		jmp	.L14
 455      FF
 456              	.L24:
 457 0347 F30F1EFA 		endbr64
 458 034b 4889C3   		movq	%rax, %rbx
 459 034e E8000000 		call	__cxa_end_catch@PLT
 459      00
 460 0353 EB65     		jmp	.L18
 461              	.L25:
 462 0355 F30F1EFA 		endbr64
  22:TestTestList.cpp ****     CHECK (test.next == 0);
 463              		.loc 2 22 5 is_stmt 1
 464 0359 4889C7   		movq	%rax, %rdi
 465 035c E8000000 		call	__cxa_begin_catch@PLT
 465      00
 466              	.LEHB12:
 467 0361 E8000000 		call	_ZN8UnitTest11CurrentTest7ResultsEv@PLT
 467      00
  22:TestTestList.cpp ****     CHECK (test.next == 0);
 468              		.loc 2 22 5 is_stmt 0 discriminator 6
 469 0366 488B18   		movq	(%rax), %rbx
 470 0369 E8000000 		call	_ZN8UnitTest11CurrentTest7DetailsEv@PLT
 470      00
  22:TestTestList.cpp ****     CHECK (test.next == 0);
 471              		.loc 2 22 5 discriminator 12
 472 036e 488B08   		movq	(%rax), %rcx
 473 0371 488D4590 		leaq	-112(%rbp), %rax
 474 0375 BA160000 		movl	$22, %edx
 474      00
 475 037a 4889CE   		movq	%rcx, %rsi
 476 037d 4889C7   		movq	%rax, %rdi
 477 0380 E8000000 		call	_ZN8UnitTest11TestDetailsC1ERKS0_i@PLT
 477      00
  22:TestTestList.cpp ****     CHECK (test.next == 0);
 478              		.loc 2 22 5 discriminator 16
 479 0385 488D4590 		leaq	-112(%rbp), %rax
 480 0389 488D1500 		leaq	.LC11(%rip), %rdx
 480      000000
 481 0390 4889C6   		movq	%rax, %rsi
 482 0393 4889DF   		movq	%rbx, %rdi
 483 0396 E8000000 		call	_ZN8UnitTest11TestResults13OnTestFailureERKNS_11TestDetailsEPKc@PLT
 483      00
 484              	.LEHE12:
 485              	.LEHB13:
  22:TestTestList.cpp ****     CHECK (test.next == 0);
 486              		.loc 2 22 5 discriminator 18
 487 039b E8000000 		call	__cxa_end_catch@PLT
 487      00
 488              	.LEHE13:
  22:TestTestList.cpp ****     CHECK (test.next == 0);
 489              		.loc 2 22 5
 490 03a0 E92EFFFF 		jmp	.L15
 490      FF
 491              	.L26:
 492 03a5 F30F1EFA 		endbr64
 493 03a9 4889C3   		movq	%rax, %rbx
 494 03ac E8000000 		call	__cxa_end_catch@PLT
 494      00
 495 03b1 EB07     		jmp	.L18
 496              	.L22:
 497 03b3 F30F1EFA 		endbr64
 498              		.loc 2 23 1 is_stmt 1
 499 03b7 4889C3   		movq	%rax, %rbx
 500              	.L18:
 501 03ba 488D45B0 		leaq	-80(%rbp), %rax
 502 03be 4889C7   		movq	%rax, %rdi
 503 03c1 E8000000 		call	_ZN8UnitTest4TestD1Ev@PLT
 503      00
 504 03c6 4889D8   		movq	%rbx, %rax
 505 03c9 4889C7   		movq	%rax, %rdi
 506              	.LEHB14:
 507 03cc E8000000 		call	_Unwind_Resume@PLT
 507      00
 508              	.LEHE14:
 509              	.L27:
 510 03d1 E8000000 		call	__stack_chk_fail@PLT
 510      00
 511              	.L21:
 512 03d6 488B5DF8 		movq	-8(%rbp), %rbx
 513 03da C9       		leave
 514              		.cfi_def_cfa 7, 8
 515 03db C3       		ret
 516              		.cfi_endproc
 517              	.LFE1148:
 518              		.section	.gcc_except_table
 519              		.align 4
 520              	.LLSDA1148:
 521 0024 FF       		.byte	0xff
 522 0025 9B       		.byte	0x9b
 523 0026 41       		.uleb128 .LLSDATT1148-.LLSDATTD1148
 524              	.LLSDATTD1148:
 525 0027 01       		.byte	0x1
 526 0028 36       		.uleb128 .LLSDACSE1148-.LLSDACSB1148
 527              	.LLSDACSB1148:
 528 0029 4B       		.uleb128 .LEHB5-.LFB1148
 529 002a 05       		.uleb128 .LEHE5-.LEHB5
 530 002b 00       		.uleb128 0
 531 002c 00       		.uleb128 0
 532 002d 57       		.uleb128 .LEHB6-.LFB1148
 533 002e 18       		.uleb128 .LEHE6-.LEHB6
 534 002f 8504     		.uleb128 .L22-.LFB1148
 535 0031 00       		.uleb128 0
 536 0032 76       		.uleb128 .LEHB7-.LFB1148
 537 0033 5A       		.uleb128 .LEHE7-.LEHB7
 538 0034 C902     		.uleb128 .L23-.LFB1148
 539 0036 01       		.uleb128 0x1
 540 0037 EB01     		.uleb128 .LEHB8-.LFB1148
 541 0039 3A       		.uleb128 .LEHE8-.LEHB8
 542 003a A703     		.uleb128 .L25-.LFB1148
 543 003c 01       		.uleb128 0x1
 544 003d AC02     		.uleb128 .LEHB9-.LFB1148
 545 003f 05       		.uleb128 .LEHE9-.LEHB9
 546 0040 00       		.uleb128 0
 547 0041 00       		.uleb128 0
 548 0042 D502     		.uleb128 .LEHB10-.LFB1148
 549 0044 3A       		.uleb128 .LEHE10-.LEHB10
 550 0045 9903     		.uleb128 .L24-.LFB1148
 551 0047 00       		.uleb128 0
 552 0048 8F03     		.uleb128 .LEHB11-.LFB1148
 553 004a 05       		.uleb128 .LEHE11-.LEHB11
 554 004b 8504     		.uleb128 .L22-.LFB1148
 555 004d 00       		.uleb128 0
 556 004e B303     		.uleb128 .LEHB12-.LFB1148
 557 0050 3A       		.uleb128 .LEHE12-.LEHB12
 558 0051 F703     		.uleb128 .L26-.LFB1148
 559 0053 00       		.uleb128 0
 560 0054 ED03     		.uleb128 .LEHB13-.LFB1148
 561 0056 05       		.uleb128 .LEHE13-.LEHB13
 562 0057 8504     		.uleb128 .L22-.LFB1148
 563 0059 00       		.uleb128 0
 564 005a 9E04     		.uleb128 .LEHB14-.LFB1148
 565 005c 05       		.uleb128 .LEHE14-.LEHB14
 566 005d 00       		.uleb128 0
 567 005e 00       		.uleb128 0
 568              	.LLSDACSE1148:
 569 005f 01       		.byte	0x1
 570 0060 00       		.byte	0
 571 0061 000000   		.align 4
 572 0064 00000000 		.long	0
 573              	
 574              	.LLSDATT1148:
 575              		.text
 577              		.section	.rodata
 578 012d 000000   		.align 8
 579              	.LC12:
 580 0130 41646469 		.string	"AddingSecondTestAddsItToEndOfList"
 580      6E675365 
 580      636F6E64 
 580      54657374 
 580      41646473 
 581              		.text
 582              		.align 2
 584              	_ZN12_GLOBAL__N_137TestAddingSecondTestAddsItToEndOfListC2Ev:
 585              	.LFB1150:
  24:TestTestList.cpp **** 
  25:TestTestList.cpp **** TEST (AddingSecondTestAddsItToEndOfList)
 586              		.loc 2 25 1
 587              		.cfi_startproc
 588 03dc 55       		pushq	%rbp
 589              		.cfi_def_cfa_offset 16
 590              		.cfi_offset 6, -16
 591 03dd 4889E5   		movq	%rsp, %rbp
 592              		.cfi_def_cfa_register 6
 593 03e0 53       		pushq	%rbx
 594 03e1 4883EC18 		subq	$24, %rsp
 595              		.cfi_offset 3, -24
 596 03e5 48897DE8 		movq	%rdi, -24(%rbp)
 597              	.LBB4:
 598              		.loc 2 25 1
 599 03e9 488B5DE8 		movq	-24(%rbp), %rbx
 600 03ed E8000000 		call	_ZN13UnitTestSuite12GetSuiteNameEv
 600      00
 601 03f2 4889C2   		movq	%rax, %rdx
 602 03f5 41B81900 		movl	$25, %r8d
 602      0000
 603 03fb 488D0500 		leaq	.LC1(%rip), %rax
 603      000000
 604 0402 4889C1   		movq	%rax, %rcx
 605 0405 488D0500 		leaq	.LC12(%rip), %rax
 605      000000
 606 040c 4889C6   		movq	%rax, %rsi
 607 040f 4889DF   		movq	%rbx, %rdi
 608 0412 E8000000 		call	_ZN8UnitTest4TestC2EPKcS2_S2_i@PLT
 608      00
 609 0417 488D1500 		leaq	16+_ZTVN12_GLOBAL__N_137TestAddingSecondTestAddsItToEndOfListE(%rip), %rdx
 609      000000
 610 041e 488B45E8 		movq	-24(%rbp), %rax
 611 0422 488910   		movq	%rdx, (%rax)
 612              	.LBE4:
 613 0425 90       		nop
 614 0426 488B5DF8 		movq	-8(%rbp), %rbx
 615 042a C9       		leave
 616              		.cfi_def_cfa 7, 8
 617 042b C3       		ret
 618              		.cfi_endproc
 619              	.LFE1150:
 621              		.set	_ZN12_GLOBAL__N_137TestAddingSecondTestAddsItToEndOfListC1Ev,_ZN12_GLOBAL__N_137TestAddingSec
 622              		.local	_ZN12_GLOBAL__N_145testAddingSecondTestAddsItToEndOfListInstanceE
 623              		.comm	_ZN12_GLOBAL__N_145testAddingSecondTestAddsItToEndOfListInstanceE,56,32
 624              		.local	_ZN12_GLOBAL__N_138adderAddingSecondTestAddsItToEndOfListE
 625              		.comm	_ZN12_GLOBAL__N_138adderAddingSecondTestAddsItToEndOfListE,1,1
 626              		.section	.rodata
 627              	.LC13:
 628 0152 74657374 		.string	"test1"
 628      3100
 629              	.LC14:
 630 0158 74657374 		.string	"test2"
 630      3200
 631              	.LC15:
 632 015e 6C697374 		.string	"list.GetHead() == &test1"
 632      2E476574 
 632      48656164 
 632      2829203D 
 632      3D202674 
 633              	.LC16:
 634 0177 74657374 		.string	"test1.next == &test2"
 634      312E6E65 
 634      7874203D 
 634      3D202674 
 634      65737432 
 635              	.LC17:
 636 018c 74657374 		.string	"test2.next == 0"
 636      322E6E65 
 636      7874203D 
 636      3D203000 
 637 019c 00000000 		.align 8
 638              	.LC18:
 639 01a0 556E6861 		.string	"Unhandled exception in CHECK(list.GetHead() == &test1)"
 639      6E646C65 
 639      64206578 
 639      63657074 
 639      696F6E20 
 640 01d7 00       		.align 8
 641              	.LC19:
 642 01d8 556E6861 		.string	"Unhandled exception in CHECK(test1.next == &test2)"
 642      6E646C65 
 642      64206578 
 642      63657074 
 642      696F6E20 
 643 020b 00000000 		.align 8
 643      00
 644              	.LC20:
 645 0210 556E6861 		.string	"Unhandled exception in CHECK(test2.next == 0)"
 645      6E646C65 
 645      64206578 
 645      63657074 
 645      696F6E20 
 646              		.text
 647              		.align 2
 649              	_ZNK12_GLOBAL__N_137TestAddingSecondTestAddsItToEndOfList7RunImplEv:
 650              	.LFB1152:
  26:TestTestList.cpp **** {
 651              		.loc 2 26 1
 652              		.cfi_startproc
 653              		.cfi_personality 0x9b,DW.ref.__gxx_personality_v0
 654              		.cfi_lsda 0x1b,.LLSDA1152
 655 042c F30F1EFA 		endbr64
 656 0430 55       		pushq	%rbp
 657              		.cfi_def_cfa_offset 16
 658              		.cfi_offset 6, -16
 659 0431 4889E5   		movq	%rsp, %rbp
 660              		.cfi_def_cfa_register 6
 661 0434 53       		pushq	%rbx
 662 0435 4881ECC8 		subq	$200, %rsp
 662      000000
 663              		.cfi_offset 3, -24
 664 043c 4889BD38 		movq	%rdi, -200(%rbp)
 664      FFFFFF
 665              		.loc 2 26 1
 666 0443 64488B04 		movq	%fs:40, %rax
 666      25280000 
 666      00
 667 044c 488945E8 		movq	%rax, -24(%rbp)
 668 0450 31C0     		xorl	%eax, %eax
  27:TestTestList.cpp ****     Test test1("test1");
 669              		.loc 2 27 23
 670 0452 488D8570 		leaq	-144(%rbp), %rax
 670      FFFFFF
 671 0459 41B80000 		movl	$0, %r8d
 671      0000
 672 045f 488D1500 		leaq	.LC6(%rip), %rdx
 672      000000
 673 0466 4889D1   		movq	%rdx, %rcx
 674 0469 488D1500 		leaq	.LC0(%rip), %rdx
 674      000000
 675 0470 488D3500 		leaq	.LC13(%rip), %rsi
 675      000000
 676 0477 4889C7   		movq	%rax, %rdi
 677              	.LEHB15:
 678 047a E8000000 		call	_ZN8UnitTest4TestC1EPKcS2_S2_i@PLT
 678      00
 679              	.LEHE15:
  28:TestTestList.cpp ****     Test test2("test2");
 680              		.loc 2 28 23
 681 047f 488D45B0 		leaq	-80(%rbp), %rax
 682 0483 41B80000 		movl	$0, %r8d
 682      0000
 683 0489 488D1500 		leaq	.LC6(%rip), %rdx
 683      000000
 684 0490 4889D1   		movq	%rdx, %rcx
 685 0493 488D1500 		leaq	.LC0(%rip), %rdx
 685      000000
 686 049a 488D3500 		leaq	.LC14(%rip), %rsi
 686      000000
 687 04a1 4889C7   		movq	%rax, %rdi
 688              	.LEHB16:
 689 04a4 E8000000 		call	_ZN8UnitTest4TestC1EPKcS2_S2_i@PLT
 689      00
 690              	.LEHE16:
  29:TestTestList.cpp **** 
  30:TestTestList.cpp ****     TestList list;
 691              		.loc 2 30 14
 692 04a9 488D8540 		leaq	-192(%rbp), %rax
 692      FFFFFF
 693 04b0 4889C7   		movq	%rax, %rdi
 694              	.LEHB17:
 695 04b3 E8000000 		call	_ZN8UnitTest8TestListC1Ev@PLT
 695      00
  31:TestTestList.cpp ****     list.Add(&test1);
 696              		.loc 2 31 13
 697 04b8 488D9570 		leaq	-144(%rbp), %rdx
 697      FFFFFF
 698 04bf 488D8540 		leaq	-192(%rbp), %rax
 698      FFFFFF
 699 04c6 4889D6   		movq	%rdx, %rsi
 700 04c9 4889C7   		movq	%rax, %rdi
 701 04cc E8000000 		call	_ZN8UnitTest8TestList3AddEPNS_4TestE@PLT
 701      00
  32:TestTestList.cpp ****     list.Add(&test2);
 702              		.loc 2 32 13
 703 04d1 488D55B0 		leaq	-80(%rbp), %rdx
 704 04d5 488D8540 		leaq	-192(%rbp), %rax
 704      FFFFFF
 705 04dc 4889D6   		movq	%rdx, %rsi
 706 04df 4889C7   		movq	%rax, %rdi
 707 04e2 E8000000 		call	_ZN8UnitTest8TestList3AddEPNS_4TestE@PLT
 707      00
 708              	.LEHE17:
  33:TestTestList.cpp **** 
  34:TestTestList.cpp ****     CHECK (list.GetHead() == &test1);
 709              		.loc 2 34 5
 710 04e7 488D8540 		leaq	-192(%rbp), %rax
 710      FFFFFF
 711 04ee 4889C7   		movq	%rax, %rdi
 712              	.LEHB18:
 713 04f1 E8000000 		call	_ZNK8UnitTest8TestList7GetHeadEv@PLT
 713      00
 714 04f6 488D9570 		leaq	-144(%rbp), %rdx
 714      FFFFFF
 715 04fd 4839D0   		cmpq	%rdx, %rax
 716 0500 0F94C0   		sete	%al
 717 0503 0FB6C0   		movzbl	%al, %eax
 718 0506 89C7     		movl	%eax, %edi
 719 0508 E8000000 		call	_ZN8UnitTest5CheckIbEEbT_
 719      00
 720 050d 83F001   		xorl	$1, %eax
 721 0510 84C0     		testb	%al, %al
 722 0512 7440     		je	.L30
 723              		.loc 2 34 5 is_stmt 0 discriminator 3
 724 0514 E8000000 		call	_ZN8UnitTest11CurrentTest7ResultsEv@PLT
 724      00
 725 0519 488B18   		movq	(%rax), %rbx
 726 051c E8000000 		call	_ZN8UnitTest11CurrentTest7DetailsEv@PLT
 726      00
 727              		.loc 2 34 5 discriminator 5
 728 0521 488B08   		movq	(%rax), %rcx
 729 0524 488D8550 		leaq	-176(%rbp), %rax
 729      FFFFFF
 730 052b BA220000 		movl	$34, %edx
 730      00
 731 0530 4889CE   		movq	%rcx, %rsi
 732 0533 4889C7   		movq	%rax, %rdi
 733 0536 E8000000 		call	_ZN8UnitTest11TestDetailsC1ERKS0_i@PLT
 733      00
 734              		.loc 2 34 5 discriminator 9
 735 053b 488D8550 		leaq	-176(%rbp), %rax
 735      FFFFFF
 736 0542 488D1500 		leaq	.LC15(%rip), %rdx
 736      000000
 737 0549 4889C6   		movq	%rax, %rsi
 738 054c 4889DF   		movq	%rbx, %rdi
 739 054f E8000000 		call	_ZN8UnitTest11TestResults13OnTestFailureERKNS_11TestDetailsEPKc@PLT
 739      00
 740              	.LEHE18:
 741              	.L30:
  35:TestTestList.cpp ****     CHECK (test1.next == &test2);
 742              		.loc 2 35 5 is_stmt 1
 743 0554 488B5598 		movq	-104(%rbp), %rdx
 744 0558 488D45B0 		leaq	-80(%rbp), %rax
 745 055c 4839C2   		cmpq	%rax, %rdx
 746 055f 0F94C0   		sete	%al
 747 0562 0FB6C0   		movzbl	%al, %eax
 748 0565 89C7     		movl	%eax, %edi
 749 0567 E8000000 		call	_ZN8UnitTest5CheckIbEEbT_
 749      00
 750 056c 83F001   		xorl	$1, %eax
 751 056f 84C0     		testb	%al, %al
 752 0571 7440     		je	.L31
 753              	.LEHB19:
 754              		.loc 2 35 5 is_stmt 0 discriminator 1
 755 0573 E8000000 		call	_ZN8UnitTest11CurrentTest7ResultsEv@PLT
 755      00
 756 0578 488B18   		movq	(%rax), %rbx
 757 057b E8000000 		call	_ZN8UnitTest11CurrentTest7DetailsEv@PLT
 757      00
 758              		.loc 2 35 5 discriminator 3
 759 0580 488B08   		movq	(%rax), %rcx
 760 0583 488D8550 		leaq	-176(%rbp), %rax
 760      FFFFFF
 761 058a BA230000 		movl	$35, %edx
 761      00
 762 058f 4889CE   		movq	%rcx, %rsi
 763 0592 4889C7   		movq	%rax, %rdi
 764 0595 E8000000 		call	_ZN8UnitTest11TestDetailsC1ERKS0_i@PLT
 764      00
 765              		.loc 2 35 5 discriminator 7
 766 059a 488D8550 		leaq	-176(%rbp), %rax
 766      FFFFFF
 767 05a1 488D1500 		leaq	.LC16(%rip), %rdx
 767      000000
 768 05a8 4889C6   		movq	%rax, %rsi
 769 05ab 4889DF   		movq	%rbx, %rdi
 770 05ae E8000000 		call	_ZN8UnitTest11TestResults13OnTestFailureERKNS_11TestDetailsEPKc@PLT
 770      00
 771              	.LEHE19:
 772              	.L31:
  36:TestTestList.cpp ****     CHECK (test2.next == 0);
 773              		.loc 2 36 5 is_stmt 1
 774 05b3 488B45D8 		movq	-40(%rbp), %rax
 775 05b7 4885C0   		testq	%rax, %rax
 776 05ba 0F94C0   		sete	%al
 777 05bd 0FB6C0   		movzbl	%al, %eax
 778 05c0 89C7     		movl	%eax, %edi
 779 05c2 E8000000 		call	_ZN8UnitTest5CheckIbEEbT_
 779      00
 780 05c7 83F001   		xorl	$1, %eax
 781 05ca 84C0     		testb	%al, %al
 782 05cc 7440     		je	.L32
 783              	.LEHB20:
 784              		.loc 2 36 5 is_stmt 0 discriminator 1
 785 05ce E8000000 		call	_ZN8UnitTest11CurrentTest7ResultsEv@PLT
 785      00
 786 05d3 488B18   		movq	(%rax), %rbx
 787 05d6 E8000000 		call	_ZN8UnitTest11CurrentTest7DetailsEv@PLT
 787      00
 788              		.loc 2 36 5 discriminator 3
 789 05db 488B08   		movq	(%rax), %rcx
 790 05de 488D8550 		leaq	-176(%rbp), %rax
 790      FFFFFF
 791 05e5 BA240000 		movl	$36, %edx
 791      00
 792 05ea 4889CE   		movq	%rcx, %rsi
 793 05ed 4889C7   		movq	%rax, %rdi
 794 05f0 E8000000 		call	_ZN8UnitTest11TestDetailsC1ERKS0_i@PLT
 794      00
 795              		.loc 2 36 5 discriminator 7
 796 05f5 488D8550 		leaq	-176(%rbp), %rax
 796      FFFFFF
 797 05fc 488D1500 		leaq	.LC17(%rip), %rdx
 797      000000
 798 0603 4889C6   		movq	%rax, %rsi
 799 0606 4889DF   		movq	%rbx, %rdi
 800 0609 E8000000 		call	_ZN8UnitTest11TestResults13OnTestFailureERKNS_11TestDetailsEPKc@PLT
 800      00
 801              	.LEHE20:
 802              	.L32:
  37:TestTestList.cpp **** }
 803              		.loc 2 37 1 is_stmt 1
 804 060e 488D45B0 		leaq	-80(%rbp), %rax
 805 0612 4889C7   		movq	%rax, %rdi
 806              	.LEHB21:
 807 0615 E8000000 		call	_ZN8UnitTest4TestD1Ev@PLT
 807      00
 808              	.LEHE21:
 809              		.loc 2 37 1 is_stmt 0 discriminator 2
 810 061a 488D8570 		leaq	-144(%rbp), %rax
 810      FFFFFF
 811 0621 4889C7   		movq	%rax, %rdi
 812              	.LEHB22:
 813 0624 E8000000 		call	_ZN8UnitTest4TestD1Ev@PLT
 813      00
 814              	.LEHE22:
 815 0629 488B45E8 		movq	-24(%rbp), %rax
 816 062d 64482B04 		subq	%fs:40, %rax
 816      25280000 
 816      00
 817 0636 0F846F01 		je	.L41
 817      0000
 818 063c E9650100 		jmp	.L50
 818      00
 819              	.L44:
 820 0641 F30F1EFA 		endbr64
  34:TestTestList.cpp ****     CHECK (test1.next == &test2);
 821              		.loc 2 34 5 is_stmt 1
 822 0645 4889C7   		movq	%rax, %rdi
 823 0648 E8000000 		call	__cxa_begin_catch@PLT
 823      00
 824              	.LEHB23:
 825 064d E8000000 		call	_ZN8UnitTest11CurrentTest7ResultsEv@PLT
 825      00
  34:TestTestList.cpp ****     CHECK (test1.next == &test2);
 826              		.loc 2 34 5 is_stmt 0 discriminator 8
 827 0652 488B18   		movq	(%rax), %rbx
 828 0655 E8000000 		call	_ZN8UnitTest11CurrentTest7DetailsEv@PLT
 828      00
  34:TestTestList.cpp ****     CHECK (test1.next == &test2);
 829              		.loc 2 34 5 discriminator 14
 830 065a 488B08   		movq	(%rax), %rcx
 831 065d 488D8550 		leaq	-176(%rbp), %rax
 831      FFFFFF
 832 0664 BA220000 		movl	$34, %edx
 832      00
 833 0669 4889CE   		movq	%rcx, %rsi
 834 066c 4889C7   		movq	%rax, %rdi
 835 066f E8000000 		call	_ZN8UnitTest11TestDetailsC1ERKS0_i@PLT
 835      00
  34:TestTestList.cpp ****     CHECK (test1.next == &test2);
 836              		.loc 2 34 5 discriminator 18
 837 0674 488D8550 		leaq	-176(%rbp), %rax
 837      FFFFFF
 838 067b 488D1500 		leaq	.LC18(%rip), %rdx
 838      000000
 839 0682 4889C6   		movq	%rax, %rsi
 840 0685 4889DF   		movq	%rbx, %rdi
 841 0688 E8000000 		call	_ZN8UnitTest11TestResults13OnTestFailureERKNS_11TestDetailsEPKc@PLT
 841      00
 842              	.LEHE23:
 843              	.LEHB24:
  34:TestTestList.cpp ****     CHECK (test1.next == &test2);
 844              		.loc 2 34 5 discriminator 20
 845 068d E8000000 		call	__cxa_end_catch@PLT
 845      00
 846              	.LEHE24:
  34:TestTestList.cpp ****     CHECK (test1.next == &test2);
 847              		.loc 2 34 5
 848 0692 E9BDFEFF 		jmp	.L30
 848      FF
 849              	.L45:
 850 0697 F30F1EFA 		endbr64
 851 069b 4889C3   		movq	%rax, %rbx
 852 069e E8000000 		call	__cxa_end_catch@PLT
 852      00
 853 06a3 E9CF0000 		jmp	.L35
 853      00
 854              	.L46:
 855 06a8 F30F1EFA 		endbr64
  35:TestTestList.cpp ****     CHECK (test2.next == 0);
 856              		.loc 2 35 5 is_stmt 1
 857 06ac 4889C7   		movq	%rax, %rdi
 858 06af E8000000 		call	__cxa_begin_catch@PLT
 858      00
 859              	.LEHB25:
 860 06b4 E8000000 		call	_ZN8UnitTest11CurrentTest7ResultsEv@PLT
 860      00
  35:TestTestList.cpp ****     CHECK (test2.next == 0);
 861              		.loc 2 35 5 is_stmt 0 discriminator 6
 862 06b9 488B18   		movq	(%rax), %rbx
 863 06bc E8000000 		call	_ZN8UnitTest11CurrentTest7DetailsEv@PLT
 863      00
  35:TestTestList.cpp ****     CHECK (test2.next == 0);
 864              		.loc 2 35 5 discriminator 12
 865 06c1 488B08   		movq	(%rax), %rcx
 866 06c4 488D8550 		leaq	-176(%rbp), %rax
 866      FFFFFF
 867 06cb BA230000 		movl	$35, %edx
 867      00
 868 06d0 4889CE   		movq	%rcx, %rsi
 869 06d3 4889C7   		movq	%rax, %rdi
 870 06d6 E8000000 		call	_ZN8UnitTest11TestDetailsC1ERKS0_i@PLT
 870      00
  35:TestTestList.cpp ****     CHECK (test2.next == 0);
 871              		.loc 2 35 5 discriminator 16
 872 06db 488D8550 		leaq	-176(%rbp), %rax
 872      FFFFFF
 873 06e2 488D1500 		leaq	.LC19(%rip), %rdx
 873      000000
 874 06e9 4889C6   		movq	%rax, %rsi
 875 06ec 4889DF   		movq	%rbx, %rdi
 876 06ef E8000000 		call	_ZN8UnitTest11TestResults13OnTestFailureERKNS_11TestDetailsEPKc@PLT
 876      00
 877              	.LEHE25:
 878              	.LEHB26:
  35:TestTestList.cpp ****     CHECK (test2.next == 0);
 879              		.loc 2 35 5 discriminator 18
 880 06f4 E8000000 		call	__cxa_end_catch@PLT
 880      00
 881              	.LEHE26:
  35:TestTestList.cpp ****     CHECK (test2.next == 0);
 882              		.loc 2 35 5
 883 06f9 E9B5FEFF 		jmp	.L31
 883      FF
 884              	.L47:
 885 06fe F30F1EFA 		endbr64
 886 0702 4889C3   		movq	%rax, %rbx
 887 0705 E8000000 		call	__cxa_end_catch@PLT
 887      00
 888 070a EB6B     		jmp	.L35
 889              	.L48:
 890 070c F30F1EFA 		endbr64
  36:TestTestList.cpp **** }
 891              		.loc 2 36 5 is_stmt 1
 892 0710 4889C7   		movq	%rax, %rdi
 893 0713 E8000000 		call	__cxa_begin_catch@PLT
 893      00
 894              	.LEHB27:
 895 0718 E8000000 		call	_ZN8UnitTest11CurrentTest7ResultsEv@PLT
 895      00
  36:TestTestList.cpp **** }
 896              		.loc 2 36 5 is_stmt 0 discriminator 6
 897 071d 488B18   		movq	(%rax), %rbx
 898 0720 E8000000 		call	_ZN8UnitTest11CurrentTest7DetailsEv@PLT
 898      00
  36:TestTestList.cpp **** }
 899              		.loc 2 36 5 discriminator 12
 900 0725 488B08   		movq	(%rax), %rcx
 901 0728 488D8550 		leaq	-176(%rbp), %rax
 901      FFFFFF
 902 072f BA240000 		movl	$36, %edx
 902      00
 903 0734 4889CE   		movq	%rcx, %rsi
 904 0737 4889C7   		movq	%rax, %rdi
 905 073a E8000000 		call	_ZN8UnitTest11TestDetailsC1ERKS0_i@PLT
 905      00
  36:TestTestList.cpp **** }
 906              		.loc 2 36 5 discriminator 16
 907 073f 488D8550 		leaq	-176(%rbp), %rax
 907      FFFFFF
 908 0746 488D1500 		leaq	.LC20(%rip), %rdx
 908      000000
 909 074d 4889C6   		movq	%rax, %rsi
 910 0750 4889DF   		movq	%rbx, %rdi
 911 0753 E8000000 		call	_ZN8UnitTest11TestResults13OnTestFailureERKNS_11TestDetailsEPKc@PLT
 911      00
 912              	.LEHE27:
 913              	.LEHB28:
  36:TestTestList.cpp **** }
 914              		.loc 2 36 5 discriminator 18
 915 0758 E8000000 		call	__cxa_end_catch@PLT
 915      00
 916              	.LEHE28:
  36:TestTestList.cpp **** }
 917              		.loc 2 36 5
 918 075d E9ACFEFF 		jmp	.L32
 918      FF
 919              	.L49:
 920 0762 F30F1EFA 		endbr64
 921 0766 4889C3   		movq	%rax, %rbx
 922 0769 E8000000 		call	__cxa_end_catch@PLT
 922      00
 923 076e EB07     		jmp	.L35
 924              	.L43:
 925 0770 F30F1EFA 		endbr64
 926              		.loc 2 37 1 is_stmt 1
 927 0774 4889C3   		movq	%rax, %rbx
 928              	.L35:
 929 0777 488D45B0 		leaq	-80(%rbp), %rax
 930 077b 4889C7   		movq	%rax, %rdi
 931 077e E8000000 		call	_ZN8UnitTest4TestD1Ev@PLT
 931      00
 932 0783 EB07     		jmp	.L40
 933              	.L42:
 934 0785 F30F1EFA 		endbr64
 935 0789 4889C3   		movq	%rax, %rbx
 936              	.L40:
 937              		.loc 2 37 1 is_stmt 0 discriminator 1
 938 078c 488D8570 		leaq	-144(%rbp), %rax
 938      FFFFFF
 939 0793 4889C7   		movq	%rax, %rdi
 940 0796 E8000000 		call	_ZN8UnitTest4TestD1Ev@PLT
 940      00
 941 079b 4889D8   		movq	%rbx, %rax
 942 079e 4889C7   		movq	%rax, %rdi
 943              	.LEHB29:
 944 07a1 E8000000 		call	_Unwind_Resume@PLT
 944      00
 945              	.LEHE29:
 946              	.L50:
 947              		.loc 2 37 1
 948 07a6 E8000000 		call	__stack_chk_fail@PLT
 948      00
 949              	.L41:
 950 07ab 488B5DF8 		movq	-8(%rbp), %rbx
 951 07af C9       		leave
 952              		.cfi_def_cfa 7, 8
 953 07b0 C3       		ret
 954              		.cfi_endproc
 955              	.LFE1152:
 956              		.section	.gcc_except_table
 957              		.align 4
 958              	.LLSDA1152:
 959 0068 FF       		.byte	0xff
 960 0069 9B       		.byte	0x9b
 961 006a 5D       		.uleb128 .LLSDATT1152-.LLSDATTD1152
 962              	.LLSDATTD1152:
 963 006b 01       		.byte	0x1
 964 006c 55       		.uleb128 .LLSDACSE1152-.LLSDACSB1152
 965              	.LLSDACSB1152:
 966 006d 4E       		.uleb128 .LEHB15-.LFB1152
 967 006e 05       		.uleb128 .LEHE15-.LEHB15
 968 006f 00       		.uleb128 0
 969 0070 00       		.uleb128 0
 970 0071 78       		.uleb128 .LEHB16-.LFB1152
 971 0072 05       		.uleb128 .LEHE16-.LEHB16
 972 0073 D906     		.uleb128 .L42-.LFB1152
 973 0075 00       		.uleb128 0
 974 0076 8701     		.uleb128 .LEHB17-.LFB1152
 975 0078 34       		.uleb128 .LEHE17-.LEHB17
 976 0079 C406     		.uleb128 .L43-.LFB1152
 977 007b 00       		.uleb128 0
 978 007c C501     		.uleb128 .LEHB18-.LFB1152
 979 007e 63       		.uleb128 .LEHE18-.LEHB18
 980 007f 9504     		.uleb128 .L44-.LFB1152
 981 0081 01       		.uleb128 0x1
 982 0082 C702     		.uleb128 .LEHB19-.LFB1152
 983 0084 40       		.uleb128 .LEHE19-.LEHB19
 984 0085 FC04     		.uleb128 .L46-.LFB1152
 985 0087 01       		.uleb128 0x1
 986 0088 A203     		.uleb128 .LEHB20-.LFB1152
 987 008a 40       		.uleb128 .LEHE20-.LEHB20
 988 008b E005     		.uleb128 .L48-.LFB1152
 989 008d 01       		.uleb128 0x1
 990 008e E903     		.uleb128 .LEHB21-.LFB1152
 991 0090 05       		.uleb128 .LEHE21-.LEHB21
 992 0091 D906     		.uleb128 .L42-.LFB1152
 993 0093 00       		.uleb128 0
 994 0094 F803     		.uleb128 .LEHB22-.LFB1152
 995 0096 05       		.uleb128 .LEHE22-.LEHB22
 996 0097 00       		.uleb128 0
 997 0098 00       		.uleb128 0
 998 0099 A104     		.uleb128 .LEHB23-.LFB1152
 999 009b 40       		.uleb128 .LEHE23-.LEHB23
 1000 009c EB04     		.uleb128 .L45-.LFB1152
 1001 009e 00       		.uleb128 0
 1002 009f E104     		.uleb128 .LEHB24-.LFB1152
 1003 00a1 05       		.uleb128 .LEHE24-.LEHB24
 1004 00a2 C406     		.uleb128 .L43-.LFB1152
 1005 00a4 00       		.uleb128 0
 1006 00a5 8805     		.uleb128 .LEHB25-.LFB1152
 1007 00a7 40       		.uleb128 .LEHE25-.LEHB25
 1008 00a8 D205     		.uleb128 .L47-.LFB1152
 1009 00aa 00       		.uleb128 0
 1010 00ab C805     		.uleb128 .LEHB26-.LFB1152
 1011 00ad 05       		.uleb128 .LEHE26-.LEHB26
 1012 00ae C406     		.uleb128 .L43-.LFB1152
 1013 00b0 00       		.uleb128 0
 1014 00b1 EC05     		.uleb128 .LEHB27-.LFB1152
 1015 00b3 40       		.uleb128 .LEHE27-.LEHB27
 1016 00b4 B606     		.uleb128 .L49-.LFB1152
 1017 00b6 00       		.uleb128 0
 1018 00b7 AC06     		.uleb128 .LEHB28-.LFB1152
 1019 00b9 05       		.uleb128 .LEHE28-.LEHB28
 1020 00ba C406     		.uleb128 .L43-.LFB1152
 1021 00bc 00       		.uleb128 0
 1022 00bd F506     		.uleb128 .LEHB29-.LFB1152
 1023 00bf 05       		.uleb128 .LEHE29-.LEHB29
 1024 00c0 00       		.uleb128 0
 1025 00c1 00       		.uleb128 0
 1026              	.LLSDACSE1152:
 1027 00c2 01       		.byte	0x1
 1028 00c3 00       		.byte	0
 1029              		.align 4
 1030 00c4 00000000 		.long	0
 1031              	
 1032              	.LLSDATT1152:
 1033              		.text
 1035              		.section	.rodata
 1036              	.LC21:
 1037 023e 4C697374 		.string	"ListAdderAddsTestToList"
 1037      41646465 
 1037      72416464 
 1037      73546573 
 1037      74546F4C 
 1038              		.text
 1039 07b1 90       		.align 2
 1041              	_ZN12_GLOBAL__N_127TestListAdderAddsTestToListC2Ev:
 1042              	.LFB1154:
  38:TestTestList.cpp **** 
  39:TestTestList.cpp **** TEST (ListAdderAddsTestToList)
 1043              		.loc 2 39 1 is_stmt 1
 1044              		.cfi_startproc
 1045 07b2 55       		pushq	%rbp
 1046              		.cfi_def_cfa_offset 16
 1047              		.cfi_offset 6, -16
 1048 07b3 4889E5   		movq	%rsp, %rbp
 1049              		.cfi_def_cfa_register 6
 1050 07b6 53       		pushq	%rbx
 1051 07b7 4883EC18 		subq	$24, %rsp
 1052              		.cfi_offset 3, -24
 1053 07bb 48897DE8 		movq	%rdi, -24(%rbp)
 1054              	.LBB5:
 1055              		.loc 2 39 1
 1056 07bf 488B5DE8 		movq	-24(%rbp), %rbx
 1057 07c3 E8000000 		call	_ZN13UnitTestSuite12GetSuiteNameEv
 1057      00
 1058 07c8 4889C2   		movq	%rax, %rdx
 1059 07cb 41B82700 		movl	$39, %r8d
 1059      0000
 1060 07d1 488D0500 		leaq	.LC1(%rip), %rax
 1060      000000
 1061 07d8 4889C1   		movq	%rax, %rcx
 1062 07db 488D0500 		leaq	.LC21(%rip), %rax
 1062      000000
 1063 07e2 4889C6   		movq	%rax, %rsi
 1064 07e5 4889DF   		movq	%rbx, %rdi
 1065 07e8 E8000000 		call	_ZN8UnitTest4TestC2EPKcS2_S2_i@PLT
 1065      00
 1066 07ed 488D1500 		leaq	16+_ZTVN12_GLOBAL__N_127TestListAdderAddsTestToListE(%rip), %rdx
 1066      000000
 1067 07f4 488B45E8 		movq	-24(%rbp), %rax
 1068 07f8 488910   		movq	%rdx, (%rax)
 1069              	.LBE5:
 1070 07fb 90       		nop
 1071 07fc 488B5DF8 		movq	-8(%rbp), %rbx
 1072 0800 C9       		leave
 1073              		.cfi_def_cfa 7, 8
 1074 0801 C3       		ret
 1075              		.cfi_endproc
 1076              	.LFE1154:
 1078              		.set	_ZN12_GLOBAL__N_127TestListAdderAddsTestToListC1Ev,_ZN12_GLOBAL__N_127TestListAdderAddsTestTo
 1079              		.local	_ZN12_GLOBAL__N_135testListAdderAddsTestToListInstanceE
 1080              		.comm	_ZN12_GLOBAL__N_135testListAdderAddsTestToListInstanceE,56,32
 1081              		.local	_ZN12_GLOBAL__N_128adderListAdderAddsTestToListE
 1082              		.comm	_ZN12_GLOBAL__N_128adderListAdderAddsTestToListE,1,1
 1083              		.align 2
 1085              	_ZNK12_GLOBAL__N_127TestListAdderAddsTestToList7RunImplEv:
 1086              	.LFB1156:
  40:TestTestList.cpp **** {
 1087              		.loc 2 40 1
 1088              		.cfi_startproc
 1089              		.cfi_personality 0x9b,DW.ref.__gxx_personality_v0
 1090              		.cfi_lsda 0x1b,.LLSDA1156
 1091 0802 F30F1EFA 		endbr64
 1092 0806 55       		pushq	%rbp
 1093              		.cfi_def_cfa_offset 16
 1094              		.cfi_offset 6, -16
 1095 0807 4889E5   		movq	%rsp, %rbp
 1096              		.cfi_def_cfa_register 6
 1097 080a 53       		pushq	%rbx
 1098 080b 4881EC98 		subq	$152, %rsp
 1098      000000
 1099              		.cfi_offset 3, -24
 1100 0812 4889BD68 		movq	%rdi, -152(%rbp)
 1100      FFFFFF
 1101              		.loc 2 40 1
 1102 0819 64488B04 		movq	%fs:40, %rax
 1102      25280000 
 1102      00
 1103 0822 488945E8 		movq	%rax, -24(%rbp)
 1104 0826 31C0     		xorl	%eax, %eax
  41:TestTestList.cpp ****     TestList list;
 1105              		.loc 2 41 14
 1106 0828 488D4580 		leaq	-128(%rbp), %rax
 1107 082c 4889C7   		movq	%rax, %rdi
 1108              	.LEHB30:
 1109 082f E8000000 		call	_ZN8UnitTest8TestListC1Ev@PLT
 1109      00
  42:TestTestList.cpp **** 
  43:TestTestList.cpp ****     Test test("");    
 1110              		.loc 2 43 17
 1111 0834 488D45B0 		leaq	-80(%rbp), %rax
 1112 0838 41B80000 		movl	$0, %r8d
 1112      0000
 1113 083e 488D1500 		leaq	.LC6(%rip), %rdx
 1113      000000
 1114 0845 4889D1   		movq	%rdx, %rcx
 1115 0848 488D1500 		leaq	.LC0(%rip), %rdx
 1115      000000
 1116 084f 488D3500 		leaq	.LC6(%rip), %rsi
 1116      000000
 1117 0856 4889C7   		movq	%rax, %rdi
 1118 0859 E8000000 		call	_ZN8UnitTest4TestC1EPKcS2_S2_i@PLT
 1118      00
 1119              	.LEHE30:
  44:TestTestList.cpp ****     ListAdder adder(list, &test);
 1120              		.loc 2 44 32
 1121 085e 488D55B0 		leaq	-80(%rbp), %rdx
 1122 0862 488D4D80 		leaq	-128(%rbp), %rcx
 1123 0866 488D857F 		leaq	-129(%rbp), %rax
 1123      FFFFFF
 1124 086d 4889CE   		movq	%rcx, %rsi
 1125 0870 4889C7   		movq	%rax, %rdi
 1126              	.LEHB31:
 1127 0873 E8000000 		call	_ZN8UnitTest9ListAdderC1ERNS_8TestListEPNS_4TestE@PLT
 1127      00
 1128              	.LEHE31:
  45:TestTestList.cpp **** 
  46:TestTestList.cpp ****     CHECK (list.GetHead() == &test);
 1129              		.loc 2 46 5
 1130 0878 488D4580 		leaq	-128(%rbp), %rax
 1131 087c 4889C7   		movq	%rax, %rdi
 1132              	.LEHB32:
 1133 087f E8000000 		call	_ZNK8UnitTest8TestList7GetHeadEv@PLT
 1133      00
 1134 0884 488D55B0 		leaq	-80(%rbp), %rdx
 1135 0888 4839D0   		cmpq	%rdx, %rax
 1136 088b 0F94C0   		sete	%al
 1137 088e 0FB6C0   		movzbl	%al, %eax
 1138 0891 89C7     		movl	%eax, %edi
 1139 0893 E8000000 		call	_ZN8UnitTest5CheckIbEEbT_
 1139      00
 1140 0898 83F001   		xorl	$1, %eax
 1141 089b 84C0     		testb	%al, %al
 1142 089d 743A     		je	.L53
 1143              		.loc 2 46 5 is_stmt 0 discriminator 3
 1144 089f E8000000 		call	_ZN8UnitTest11CurrentTest7ResultsEv@PLT
 1144      00
 1145 08a4 488B18   		movq	(%rax), %rbx
 1146 08a7 E8000000 		call	_ZN8UnitTest11CurrentTest7DetailsEv@PLT
 1146      00
 1147              		.loc 2 46 5 discriminator 5
 1148 08ac 488B08   		movq	(%rax), %rcx
 1149 08af 488D4590 		leaq	-112(%rbp), %rax
 1150 08b3 BA2E0000 		movl	$46, %edx
 1150      00
 1151 08b8 4889CE   		movq	%rcx, %rsi
 1152 08bb 4889C7   		movq	%rax, %rdi
 1153 08be E8000000 		call	_ZN8UnitTest11TestDetailsC1ERKS0_i@PLT
 1153      00
 1154              		.loc 2 46 5 discriminator 9
 1155 08c3 488D4590 		leaq	-112(%rbp), %rax
 1156 08c7 488D1500 		leaq	.LC8(%rip), %rdx
 1156      000000
 1157 08ce 4889C6   		movq	%rax, %rsi
 1158 08d1 4889DF   		movq	%rbx, %rdi
 1159 08d4 E8000000 		call	_ZN8UnitTest11TestResults13OnTestFailureERKNS_11TestDetailsEPKc@PLT
 1159      00
 1160              	.LEHE32:
 1161              	.L53:
  47:TestTestList.cpp ****     CHECK (test.next == 0);
 1162              		.loc 2 47 5 is_stmt 1
 1163 08d9 488B45D8 		movq	-40(%rbp), %rax
 1164 08dd 4885C0   		testq	%rax, %rax
 1165 08e0 0F94C0   		sete	%al
 1166 08e3 0FB6C0   		movzbl	%al, %eax
 1167 08e6 89C7     		movl	%eax, %edi
 1168 08e8 E8000000 		call	_ZN8UnitTest5CheckIbEEbT_
 1168      00
 1169 08ed 83F001   		xorl	$1, %eax
 1170 08f0 84C0     		testb	%al, %al
 1171 08f2 743A     		je	.L54
 1172              	.LEHB33:
 1173              		.loc 2 47 5 is_stmt 0 discriminator 1
 1174 08f4 E8000000 		call	_ZN8UnitTest11CurrentTest7ResultsEv@PLT
 1174      00
 1175 08f9 488B18   		movq	(%rax), %rbx
 1176 08fc E8000000 		call	_ZN8UnitTest11CurrentTest7DetailsEv@PLT
 1176      00
 1177              		.loc 2 47 5 discriminator 3
 1178 0901 488B08   		movq	(%rax), %rcx
 1179 0904 488D4590 		leaq	-112(%rbp), %rax
 1180 0908 BA2F0000 		movl	$47, %edx
 1180      00
 1181 090d 4889CE   		movq	%rcx, %rsi
 1182 0910 4889C7   		movq	%rax, %rdi
 1183 0913 E8000000 		call	_ZN8UnitTest11TestDetailsC1ERKS0_i@PLT
 1183      00
 1184              		.loc 2 47 5 discriminator 7
 1185 0918 488D4590 		leaq	-112(%rbp), %rax
 1186 091c 488D1500 		leaq	.LC9(%rip), %rdx
 1186      000000
 1187 0923 4889C6   		movq	%rax, %rsi
 1188 0926 4889DF   		movq	%rbx, %rdi
 1189 0929 E8000000 		call	_ZN8UnitTest11TestResults13OnTestFailureERKNS_11TestDetailsEPKc@PLT
 1189      00
 1190              	.LEHE33:
 1191              	.L54:
  48:TestTestList.cpp **** }
 1192              		.loc 2 48 1 is_stmt 1
 1193 092e 488D45B0 		leaq	-80(%rbp), %rax
 1194 0932 4889C7   		movq	%rax, %rdi
 1195              	.LEHB34:
 1196 0935 E8000000 		call	_ZN8UnitTest4TestD1Ev@PLT
 1196      00
 1197              	.LEHE34:
 1198 093a 488B45E8 		movq	-24(%rbp), %rax
 1199 093e 64482B04 		subq	%fs:40, %rax
 1199      25280000 
 1199      00
 1200 0947 0F84E400 		je	.L60
 1200      0000
 1201 094d E9DA0000 		jmp	.L66
 1201      00
 1202              	.L62:
 1203 0952 F30F1EFA 		endbr64
  46:TestTestList.cpp ****     CHECK (test.next == 0);
 1204              		.loc 2 46 5
 1205 0956 4889C7   		movq	%rax, %rdi
 1206 0959 E8000000 		call	__cxa_begin_catch@PLT
 1206      00
 1207              	.LEHB35:
 1208 095e E8000000 		call	_ZN8UnitTest11CurrentTest7ResultsEv@PLT
 1208      00
  46:TestTestList.cpp ****     CHECK (test.next == 0);
 1209              		.loc 2 46 5 is_stmt 0 discriminator 8
 1210 0963 488B18   		movq	(%rax), %rbx
 1211 0966 E8000000 		call	_ZN8UnitTest11CurrentTest7DetailsEv@PLT
 1211      00
  46:TestTestList.cpp ****     CHECK (test.next == 0);
 1212              		.loc 2 46 5 discriminator 14
 1213 096b 488B08   		movq	(%rax), %rcx
 1214 096e 488D4590 		leaq	-112(%rbp), %rax
 1215 0972 BA2E0000 		movl	$46, %edx
 1215      00
 1216 0977 4889CE   		movq	%rcx, %rsi
 1217 097a 4889C7   		movq	%rax, %rdi
 1218 097d E8000000 		call	_ZN8UnitTest11TestDetailsC1ERKS0_i@PLT
 1218      00
  46:TestTestList.cpp ****     CHECK (test.next == 0);
 1219              		.loc 2 46 5 discriminator 18
 1220 0982 488D4590 		leaq	-112(%rbp), %rax
 1221 0986 488D1500 		leaq	.LC10(%rip), %rdx
 1221      000000
 1222 098d 4889C6   		movq	%rax, %rsi
 1223 0990 4889DF   		movq	%rbx, %rdi
 1224 0993 E8000000 		call	_ZN8UnitTest11TestResults13OnTestFailureERKNS_11TestDetailsEPKc@PLT
 1224      00
 1225              	.LEHE35:
 1226              	.LEHB36:
  46:TestTestList.cpp ****     CHECK (test.next == 0);
 1227              		.loc 2 46 5 discriminator 20
 1228 0998 E8000000 		call	__cxa_end_catch@PLT
 1228      00
 1229              	.LEHE36:
  46:TestTestList.cpp ****     CHECK (test.next == 0);
 1230              		.loc 2 46 5
 1231 099d E937FFFF 		jmp	.L53
 1231      FF
 1232              	.L63:
 1233 09a2 F30F1EFA 		endbr64
 1234 09a6 4889C3   		movq	%rax, %rbx
 1235 09a9 E8000000 		call	__cxa_end_catch@PLT
 1235      00
 1236 09ae EB65     		jmp	.L57
 1237              	.L64:
 1238 09b0 F30F1EFA 		endbr64
  47:TestTestList.cpp ****     CHECK (test.next == 0);
 1239              		.loc 2 47 5 is_stmt 1
 1240 09b4 4889C7   		movq	%rax, %rdi
 1241 09b7 E8000000 		call	__cxa_begin_catch@PLT
 1241      00
 1242              	.LEHB37:
 1243 09bc E8000000 		call	_ZN8UnitTest11CurrentTest7ResultsEv@PLT
 1243      00
  47:TestTestList.cpp ****     CHECK (test.next == 0);
 1244              		.loc 2 47 5 is_stmt 0 discriminator 6
 1245 09c1 488B18   		movq	(%rax), %rbx
 1246 09c4 E8000000 		call	_ZN8UnitTest11CurrentTest7DetailsEv@PLT
 1246      00
  47:TestTestList.cpp ****     CHECK (test.next == 0);
 1247              		.loc 2 47 5 discriminator 12
 1248 09c9 488B08   		movq	(%rax), %rcx
 1249 09cc 488D4590 		leaq	-112(%rbp), %rax
 1250 09d0 BA2F0000 		movl	$47, %edx
 1250      00
 1251 09d5 4889CE   		movq	%rcx, %rsi
 1252 09d8 4889C7   		movq	%rax, %rdi
 1253 09db E8000000 		call	_ZN8UnitTest11TestDetailsC1ERKS0_i@PLT
 1253      00
  47:TestTestList.cpp ****     CHECK (test.next == 0);
 1254              		.loc 2 47 5 discriminator 16
 1255 09e0 488D4590 		leaq	-112(%rbp), %rax
 1256 09e4 488D1500 		leaq	.LC11(%rip), %rdx
 1256      000000
 1257 09eb 4889C6   		movq	%rax, %rsi
 1258 09ee 4889DF   		movq	%rbx, %rdi
 1259 09f1 E8000000 		call	_ZN8UnitTest11TestResults13OnTestFailureERKNS_11TestDetailsEPKc@PLT
 1259      00
 1260              	.LEHE37:
 1261              	.LEHB38:
  47:TestTestList.cpp ****     CHECK (test.next == 0);
 1262              		.loc 2 47 5 discriminator 18
 1263 09f6 E8000000 		call	__cxa_end_catch@PLT
 1263      00
 1264              	.LEHE38:
  47:TestTestList.cpp ****     CHECK (test.next == 0);
 1265              		.loc 2 47 5
 1266 09fb E92EFFFF 		jmp	.L54
 1266      FF
 1267              	.L65:
 1268 0a00 F30F1EFA 		endbr64
 1269 0a04 4889C3   		movq	%rax, %rbx
 1270 0a07 E8000000 		call	__cxa_end_catch@PLT
 1270      00
 1271 0a0c EB07     		jmp	.L57
 1272              	.L61:
 1273 0a0e F30F1EFA 		endbr64
 1274              		.loc 2 48 1 is_stmt 1
 1275 0a12 4889C3   		movq	%rax, %rbx
 1276              	.L57:
 1277 0a15 488D45B0 		leaq	-80(%rbp), %rax
 1278 0a19 4889C7   		movq	%rax, %rdi
 1279 0a1c E8000000 		call	_ZN8UnitTest4TestD1Ev@PLT
 1279      00
 1280 0a21 4889D8   		movq	%rbx, %rax
 1281 0a24 4889C7   		movq	%rax, %rdi
 1282              	.LEHB39:
 1283 0a27 E8000000 		call	_Unwind_Resume@PLT
 1283      00
 1284              	.LEHE39:
 1285              	.L66:
 1286 0a2c E8000000 		call	__stack_chk_fail@PLT
 1286      00
 1287              	.L60:
 1288 0a31 488B5DF8 		movq	-8(%rbp), %rbx
 1289 0a35 C9       		leave
 1290              		.cfi_def_cfa 7, 8
 1291 0a36 C3       		ret
 1292              		.cfi_endproc
 1293              	.LFE1156:
 1294              		.section	.gcc_except_table
 1295              		.align 4
 1296              	.LLSDA1156:
 1297 00c8 FF       		.byte	0xff
 1298 00c9 9B       		.byte	0x9b
 1299 00ca 41       		.uleb128 .LLSDATT1156-.LLSDATTD1156
 1300              	.LLSDATTD1156:
 1301 00cb 01       		.byte	0x1
 1302 00cc 36       		.uleb128 .LLSDACSE1156-.LLSDACSB1156
 1303              	.LLSDACSB1156:
 1304 00cd 2D       		.uleb128 .LEHB30-.LFB1156
 1305 00ce 2F       		.uleb128 .LEHE30-.LEHB30
 1306 00cf 00       		.uleb128 0
 1307 00d0 00       		.uleb128 0
 1308 00d1 71       		.uleb128 .LEHB31-.LFB1156
 1309 00d2 05       		.uleb128 .LEHE31-.LEHB31
 1310 00d3 8C04     		.uleb128 .L61-.LFB1156
 1311 00d5 00       		.uleb128 0
 1312 00d6 7D       		.uleb128 .LEHB32-.LFB1156
 1313 00d7 5A       		.uleb128 .LEHE32-.LEHB32
 1314 00d8 D002     		.uleb128 .L62-.LFB1156
 1315 00da 01       		.uleb128 0x1
 1316 00db F201     		.uleb128 .LEHB33-.LFB1156
 1317 00dd 3A       		.uleb128 .LEHE33-.LEHB33
 1318 00de AE03     		.uleb128 .L64-.LFB1156
 1319 00e0 01       		.uleb128 0x1
 1320 00e1 B302     		.uleb128 .LEHB34-.LFB1156
 1321 00e3 05       		.uleb128 .LEHE34-.LEHB34
 1322 00e4 00       		.uleb128 0
 1323 00e5 00       		.uleb128 0
 1324 00e6 DC02     		.uleb128 .LEHB35-.LFB1156
 1325 00e8 3A       		.uleb128 .LEHE35-.LEHB35
 1326 00e9 A003     		.uleb128 .L63-.LFB1156
 1327 00eb 00       		.uleb128 0
 1328 00ec 9603     		.uleb128 .LEHB36-.LFB1156
 1329 00ee 05       		.uleb128 .LEHE36-.LEHB36
 1330 00ef 8C04     		.uleb128 .L61-.LFB1156
 1331 00f1 00       		.uleb128 0
 1332 00f2 BA03     		.uleb128 .LEHB37-.LFB1156
 1333 00f4 3A       		.uleb128 .LEHE37-.LEHB37
 1334 00f5 FE03     		.uleb128 .L65-.LFB1156
 1335 00f7 00       		.uleb128 0
 1336 00f8 F403     		.uleb128 .LEHB38-.LFB1156
 1337 00fa 05       		.uleb128 .LEHE38-.LEHB38
 1338 00fb 8C04     		.uleb128 .L61-.LFB1156
 1339 00fd 00       		.uleb128 0
 1340 00fe A504     		.uleb128 .LEHB39-.LFB1156
 1341 0100 05       		.uleb128 .LEHE39-.LEHB39
 1342 0101 00       		.uleb128 0
 1343 0102 00       		.uleb128 0
 1344              	.LLSDACSE1156:
 1345 0103 01       		.byte	0x1
 1346 0104 00       		.byte	0
 1347 0105 000000   		.align 4
 1348 0108 00000000 		.long	0
 1349              	
 1350              	.LLSDATT1156:
 1351              		.text
 1353              		.section	.text._ZN8UnitTest5CheckIbEEbT_,"axG",@progbits,_ZN8UnitTest5CheckIbEEbT_,comdat
 1354              		.weak	_ZN8UnitTest5CheckIbEEbT_
 1356              	_ZN8UnitTest5CheckIbEEbT_:
 1357              	.LFB1184:
 1358              		.file 3 "../Checks.h"
   1:../Checks.h   **** #ifndef UNITTEST_CHECKS_H
   2:../Checks.h   **** #define UNITTEST_CHECKS_H
   3:../Checks.h   **** 
   4:../Checks.h   **** #include "Config.h"
   5:../Checks.h   **** #include "TestResults.h"
   6:../Checks.h   **** #include "MemoryOutStream.h"
   7:../Checks.h   **** 
   8:../Checks.h   **** namespace UnitTest {
   9:../Checks.h   **** 
  10:../Checks.h   **** 
  11:../Checks.h   **** template< typename Value >
  12:../Checks.h   **** bool Check(Value const value)
 1359              		.loc 3 12 6
 1360              		.cfi_startproc
 1361 0000 F30F1EFA 		endbr64
 1362 0004 55       		pushq	%rbp
 1363              		.cfi_def_cfa_offset 16
 1364              		.cfi_offset 6, -16
 1365 0005 4889E5   		movq	%rsp, %rbp
 1366              		.cfi_def_cfa_register 6
 1367 0008 89F8     		movl	%edi, %eax
 1368 000a 8845FC   		movb	%al, -4(%rbp)
  13:../Checks.h   **** {
  14:../Checks.h   ****     return !!value; // doing double negative to avoid silly VS warnings
 1369              		.loc 3 14 14
 1370 000d 0FB645FC 		movzbl	-4(%rbp), %eax
  15:../Checks.h   **** }
 1371              		.loc 3 15 1
 1372 0011 5D       		popq	%rbp
 1373              		.cfi_def_cfa 7, 8
 1374 0012 C3       		ret
 1375              		.cfi_endproc
 1376              	.LFE1184:
 1378              		.section	.data.rel.ro.local,"aw"
 1379              		.align 8
 1382              	_ZTVN12_GLOBAL__N_127TestListAdderAddsTestToListE:
 1383 0000 00000000 		.quad	0
 1383      00000000 
 1384 0008 00000000 		.quad	_ZTIN12_GLOBAL__N_127TestListAdderAddsTestToListE
 1384      00000000 
 1385 0010 00000000 		.quad	_ZN12_GLOBAL__N_127TestListAdderAddsTestToListD1Ev
 1385      00000000 
 1386 0018 00000000 		.quad	_ZN12_GLOBAL__N_127TestListAdderAddsTestToListD0Ev
 1386      00000000 
 1387 0020 00000000 		.quad	_ZNK12_GLOBAL__N_127TestListAdderAddsTestToList7RunImplEv
 1387      00000000 
 1388              		.text
 1389 0a37 90       		.align 2
 1391              	_ZN12_GLOBAL__N_127TestListAdderAddsTestToListD2Ev:
 1392              	.LFB1235:
  39:TestTestList.cpp **** {
 1393              		.loc 2 39 1
 1394              		.cfi_startproc
 1395 0a38 F30F1EFA 		endbr64
 1396 0a3c 55       		pushq	%rbp
 1397              		.cfi_def_cfa_offset 16
 1398              		.cfi_offset 6, -16
 1399 0a3d 4889E5   		movq	%rsp, %rbp
 1400              		.cfi_def_cfa_register 6
 1401 0a40 4883EC10 		subq	$16, %rsp
 1402 0a44 48897DF8 		movq	%rdi, -8(%rbp)
 1403              	.LBB6:
  39:TestTestList.cpp **** {
 1404              		.loc 2 39 1
 1405 0a48 488D1500 		leaq	16+_ZTVN12_GLOBAL__N_127TestListAdderAddsTestToListE(%rip), %rdx
 1405      000000
 1406 0a4f 488B45F8 		movq	-8(%rbp), %rax
 1407 0a53 488910   		movq	%rdx, (%rax)
 1408 0a56 488B45F8 		movq	-8(%rbp), %rax
 1409 0a5a 4889C7   		movq	%rax, %rdi
 1410 0a5d E8000000 		call	_ZN8UnitTest4TestD2Ev@PLT
 1410      00
 1411              	.LBE6:
 1412 0a62 90       		nop
 1413 0a63 C9       		leave
 1414              		.cfi_def_cfa 7, 8
 1415 0a64 C3       		ret
 1416              		.cfi_endproc
 1417              	.LFE1235:
 1419              		.set	_ZN12_GLOBAL__N_127TestListAdderAddsTestToListD1Ev,_ZN12_GLOBAL__N_127TestListAdderAddsTestTo
 1420 0a65 90       		.align 2
 1422              	_ZN12_GLOBAL__N_127TestListAdderAddsTestToListD0Ev:
 1423              	.LFB1237:
  39:TestTestList.cpp **** {
 1424              		.loc 2 39 1
 1425              		.cfi_startproc
 1426              		.cfi_personality 0x9b,DW.ref.__gxx_personality_v0
 1427              		.cfi_lsda 0x1b,.LLSDA1237
 1428 0a66 F30F1EFA 		endbr64
 1429 0a6a 55       		pushq	%rbp
 1430              		.cfi_def_cfa_offset 16
 1431              		.cfi_offset 6, -16
 1432 0a6b 4889E5   		movq	%rsp, %rbp
 1433              		.cfi_def_cfa_register 6
 1434 0a6e 53       		pushq	%rbx
 1435 0a6f 4883EC18 		subq	$24, %rsp
 1436              		.cfi_offset 3, -24
 1437 0a73 48897DE8 		movq	%rdi, -24(%rbp)
  39:TestTestList.cpp **** {
 1438              		.loc 2 39 1
 1439 0a77 488B45E8 		movq	-24(%rbp), %rax
 1440 0a7b 4889C7   		movq	%rax, %rdi
 1441              	.LEHB40:
 1442 0a7e E8B5FFFF 		call	_ZN12_GLOBAL__N_127TestListAdderAddsTestToListD1Ev
 1442      FF
 1443              	.LEHE40:
  39:TestTestList.cpp **** {
 1444              		.loc 2 39 1 is_stmt 0 discriminator 2
 1445 0a83 488B45E8 		movq	-24(%rbp), %rax
 1446 0a87 4889C7   		movq	%rax, %rdi
 1447 0a8a E8000000 		call	_ZdlPv@PLT
 1447      00
 1448 0a8f EB1E     		jmp	.L73
 1449              	.L72:
 1450 0a91 F30F1EFA 		endbr64
  39:TestTestList.cpp **** {
 1451              		.loc 2 39 1
 1452 0a95 4889C3   		movq	%rax, %rbx
 1453 0a98 488B45E8 		movq	-24(%rbp), %rax
 1454 0a9c 4889C7   		movq	%rax, %rdi
 1455 0a9f E8000000 		call	_ZdlPv@PLT
 1455      00
 1456 0aa4 4889D8   		movq	%rbx, %rax
 1457 0aa7 4889C7   		movq	%rax, %rdi
 1458              	.LEHB41:
 1459 0aaa E8000000 		call	_Unwind_Resume@PLT
 1459      00
 1460              	.LEHE41:
 1461              	.L73:
 1462 0aaf 488B5DF8 		movq	-8(%rbp), %rbx
 1463 0ab3 C9       		leave
 1464              		.cfi_def_cfa 7, 8
 1465 0ab4 C3       		ret
 1466              		.cfi_endproc
 1467              	.LFE1237:
 1468              		.section	.gcc_except_table
 1469              	.LLSDA1237:
 1470 010c FF       		.byte	0xff
 1471 010d FF       		.byte	0xff
 1472 010e 01       		.byte	0x1
 1473 010f 08       		.uleb128 .LLSDACSE1237-.LLSDACSB1237
 1474              	.LLSDACSB1237:
 1475 0110 18       		.uleb128 .LEHB40-.LFB1237
 1476 0111 05       		.uleb128 .LEHE40-.LEHB40
 1477 0112 2B       		.uleb128 .L72-.LFB1237
 1478 0113 00       		.uleb128 0
 1479 0114 44       		.uleb128 .LEHB41-.LFB1237
 1480 0115 05       		.uleb128 .LEHE41-.LEHB41
 1481 0116 00       		.uleb128 0
 1482 0117 00       		.uleb128 0
 1483              	.LLSDACSE1237:
 1484              		.text
 1486              		.section	.data.rel.ro.local
 1487              		.align 8
 1490              	_ZTVN12_GLOBAL__N_137TestAddingSecondTestAddsItToEndOfListE:
 1491 0028 00000000 		.quad	0
 1491      00000000 
 1492 0030 00000000 		.quad	_ZTIN12_GLOBAL__N_137TestAddingSecondTestAddsItToEndOfListE
 1492      00000000 
 1493 0038 00000000 		.quad	_ZN12_GLOBAL__N_137TestAddingSecondTestAddsItToEndOfListD1Ev
 1493      00000000 
 1494 0040 00000000 		.quad	_ZN12_GLOBAL__N_137TestAddingSecondTestAddsItToEndOfListD0Ev
 1494      00000000 
 1495 0048 00000000 		.quad	_ZNK12_GLOBAL__N_137TestAddingSecondTestAddsItToEndOfList7RunImplEv
 1495      00000000 
 1496              		.text
 1497 0ab5 90       		.align 2
 1499              	_ZN12_GLOBAL__N_137TestAddingSecondTestAddsItToEndOfListD2Ev:
 1500              	.LFB1239:
  25:TestTestList.cpp **** {
 1501              		.loc 2 25 1 is_stmt 1
 1502              		.cfi_startproc
 1503 0ab6 F30F1EFA 		endbr64
 1504 0aba 55       		pushq	%rbp
 1505              		.cfi_def_cfa_offset 16
 1506              		.cfi_offset 6, -16
 1507 0abb 4889E5   		movq	%rsp, %rbp
 1508              		.cfi_def_cfa_register 6
 1509 0abe 4883EC10 		subq	$16, %rsp
 1510 0ac2 48897DF8 		movq	%rdi, -8(%rbp)
 1511              	.LBB7:
  25:TestTestList.cpp **** {
 1512              		.loc 2 25 1
 1513 0ac6 488D1500 		leaq	16+_ZTVN12_GLOBAL__N_137TestAddingSecondTestAddsItToEndOfListE(%rip), %rdx
 1513      000000
 1514 0acd 488B45F8 		movq	-8(%rbp), %rax
 1515 0ad1 488910   		movq	%rdx, (%rax)
 1516 0ad4 488B45F8 		movq	-8(%rbp), %rax
 1517 0ad8 4889C7   		movq	%rax, %rdi
 1518 0adb E8000000 		call	_ZN8UnitTest4TestD2Ev@PLT
 1518      00
 1519              	.LBE7:
 1520 0ae0 90       		nop
 1521 0ae1 C9       		leave
 1522              		.cfi_def_cfa 7, 8
 1523 0ae2 C3       		ret
 1524              		.cfi_endproc
 1525              	.LFE1239:
 1527              		.set	_ZN12_GLOBAL__N_137TestAddingSecondTestAddsItToEndOfListD1Ev,_ZN12_GLOBAL__N_137TestAddingSec
 1528 0ae3 90       		.align 2
 1530              	_ZN12_GLOBAL__N_137TestAddingSecondTestAddsItToEndOfListD0Ev:
 1531              	.LFB1241:
  25:TestTestList.cpp **** {
 1532              		.loc 2 25 1
 1533              		.cfi_startproc
 1534              		.cfi_personality 0x9b,DW.ref.__gxx_personality_v0
 1535              		.cfi_lsda 0x1b,.LLSDA1241
 1536 0ae4 F30F1EFA 		endbr64
 1537 0ae8 55       		pushq	%rbp
 1538              		.cfi_def_cfa_offset 16
 1539              		.cfi_offset 6, -16
 1540 0ae9 4889E5   		movq	%rsp, %rbp
 1541              		.cfi_def_cfa_register 6
 1542 0aec 53       		pushq	%rbx
 1543 0aed 4883EC18 		subq	$24, %rsp
 1544              		.cfi_offset 3, -24
 1545 0af1 48897DE8 		movq	%rdi, -24(%rbp)
  25:TestTestList.cpp **** {
 1546              		.loc 2 25 1
 1547 0af5 488B45E8 		movq	-24(%rbp), %rax
 1548 0af9 4889C7   		movq	%rax, %rdi
 1549              	.LEHB42:
 1550 0afc E8B5FFFF 		call	_ZN12_GLOBAL__N_137TestAddingSecondTestAddsItToEndOfListD1Ev
 1550      FF
 1551              	.LEHE42:
  25:TestTestList.cpp **** {
 1552              		.loc 2 25 1 is_stmt 0 discriminator 2
 1553 0b01 488B45E8 		movq	-24(%rbp), %rax
 1554 0b05 4889C7   		movq	%rax, %rdi
 1555 0b08 E8000000 		call	_ZdlPv@PLT
 1555      00
 1556 0b0d EB1E     		jmp	.L78
 1557              	.L77:
 1558 0b0f F30F1EFA 		endbr64
  25:TestTestList.cpp **** {
 1559              		.loc 2 25 1
 1560 0b13 4889C3   		movq	%rax, %rbx
 1561 0b16 488B45E8 		movq	-24(%rbp), %rax
 1562 0b1a 4889C7   		movq	%rax, %rdi
 1563 0b1d E8000000 		call	_ZdlPv@PLT
 1563      00
 1564 0b22 4889D8   		movq	%rbx, %rax
 1565 0b25 4889C7   		movq	%rax, %rdi
 1566              	.LEHB43:
 1567 0b28 E8000000 		call	_Unwind_Resume@PLT
 1567      00
 1568              	.LEHE43:
 1569              	.L78:
 1570 0b2d 488B5DF8 		movq	-8(%rbp), %rbx
 1571 0b31 C9       		leave
 1572              		.cfi_def_cfa 7, 8
 1573 0b32 C3       		ret
 1574              		.cfi_endproc
 1575              	.LFE1241:
 1576              		.section	.gcc_except_table
 1577              	.LLSDA1241:
 1578 0118 FF       		.byte	0xff
 1579 0119 FF       		.byte	0xff
 1580 011a 01       		.byte	0x1
 1581 011b 08       		.uleb128 .LLSDACSE1241-.LLSDACSB1241
 1582              	.LLSDACSB1241:
 1583 011c 18       		.uleb128 .LEHB42-.LFB1241
 1584 011d 05       		.uleb128 .LEHE42-.LEHB42
 1585 011e 2B       		.uleb128 .L77-.LFB1241
 1586 011f 00       		.uleb128 0
 1587 0120 44       		.uleb128 .LEHB43-.LFB1241
 1588 0121 05       		.uleb128 .LEHE43-.LEHB43
 1589 0122 00       		.uleb128 0
 1590 0123 00       		.uleb128 0
 1591              	.LLSDACSE1241:
 1592              		.text
 1594              		.section	.data.rel.ro.local
 1595              		.align 8
 1598              	_ZTVN12_GLOBAL__N_128TestAddingTestSetsHeadToTestE:
 1599 0050 00000000 		.quad	0
 1599      00000000 
 1600 0058 00000000 		.quad	_ZTIN12_GLOBAL__N_128TestAddingTestSetsHeadToTestE
 1600      00000000 
 1601 0060 00000000 		.quad	_ZN12_GLOBAL__N_128TestAddingTestSetsHeadToTestD1Ev
 1601      00000000 
 1602 0068 00000000 		.quad	_ZN12_GLOBAL__N_128TestAddingTestSetsHeadToTestD0Ev
 1602      00000000 
 1603 0070 00000000 		.quad	_ZNK12_GLOBAL__N_128TestAddingTestSetsHeadToTest7RunImplEv
 1603      00000000 
 1604              		.text
 1605 0b33 90       		.align 2
 1607              	_ZN12_GLOBAL__N_128TestAddingTestSetsHeadToTestD2Ev:
 1608              	.LFB1243:
  15:TestTestList.cpp **** {
 1609              		.loc 2 15 1 is_stmt 1
 1610              		.cfi_startproc
 1611 0b34 F30F1EFA 		endbr64
 1612 0b38 55       		pushq	%rbp
 1613              		.cfi_def_cfa_offset 16
 1614              		.cfi_offset 6, -16
 1615 0b39 4889E5   		movq	%rsp, %rbp
 1616              		.cfi_def_cfa_register 6
 1617 0b3c 4883EC10 		subq	$16, %rsp
 1618 0b40 48897DF8 		movq	%rdi, -8(%rbp)
 1619              	.LBB8:
  15:TestTestList.cpp **** {
 1620              		.loc 2 15 1
 1621 0b44 488D1500 		leaq	16+_ZTVN12_GLOBAL__N_128TestAddingTestSetsHeadToTestE(%rip), %rdx
 1621      000000
 1622 0b4b 488B45F8 		movq	-8(%rbp), %rax
 1623 0b4f 488910   		movq	%rdx, (%rax)
 1624 0b52 488B45F8 		movq	-8(%rbp), %rax
 1625 0b56 4889C7   		movq	%rax, %rdi
 1626 0b59 E8000000 		call	_ZN8UnitTest4TestD2Ev@PLT
 1626      00
 1627              	.LBE8:
 1628 0b5e 90       		nop
 1629 0b5f C9       		leave
 1630              		.cfi_def_cfa 7, 8
 1631 0b60 C3       		ret
 1632              		.cfi_endproc
 1633              	.LFE1243:
 1635              		.set	_ZN12_GLOBAL__N_128TestAddingTestSetsHeadToTestD1Ev,_ZN12_GLOBAL__N_128TestAddingTestSetsHead
 1636 0b61 90       		.align 2
 1638              	_ZN12_GLOBAL__N_128TestAddingTestSetsHeadToTestD0Ev:
 1639              	.LFB1245:
  15:TestTestList.cpp **** {
 1640              		.loc 2 15 1
 1641              		.cfi_startproc
 1642              		.cfi_personality 0x9b,DW.ref.__gxx_personality_v0
 1643              		.cfi_lsda 0x1b,.LLSDA1245
 1644 0b62 F30F1EFA 		endbr64
 1645 0b66 55       		pushq	%rbp
 1646              		.cfi_def_cfa_offset 16
 1647              		.cfi_offset 6, -16
 1648 0b67 4889E5   		movq	%rsp, %rbp
 1649              		.cfi_def_cfa_register 6
 1650 0b6a 53       		pushq	%rbx
 1651 0b6b 4883EC18 		subq	$24, %rsp
 1652              		.cfi_offset 3, -24
 1653 0b6f 48897DE8 		movq	%rdi, -24(%rbp)
  15:TestTestList.cpp **** {
 1654              		.loc 2 15 1
 1655 0b73 488B45E8 		movq	-24(%rbp), %rax
 1656 0b77 4889C7   		movq	%rax, %rdi
 1657              	.LEHB44:
 1658 0b7a E8B5FFFF 		call	_ZN12_GLOBAL__N_128TestAddingTestSetsHeadToTestD1Ev
 1658      FF
 1659              	.LEHE44:
  15:TestTestList.cpp **** {
 1660              		.loc 2 15 1 is_stmt 0 discriminator 2
 1661 0b7f 488B45E8 		movq	-24(%rbp), %rax
 1662 0b83 4889C7   		movq	%rax, %rdi
 1663 0b86 E8000000 		call	_ZdlPv@PLT
 1663      00
 1664 0b8b EB1E     		jmp	.L83
 1665              	.L82:
 1666 0b8d F30F1EFA 		endbr64
  15:TestTestList.cpp **** {
 1667              		.loc 2 15 1
 1668 0b91 4889C3   		movq	%rax, %rbx
 1669 0b94 488B45E8 		movq	-24(%rbp), %rax
 1670 0b98 4889C7   		movq	%rax, %rdi
 1671 0b9b E8000000 		call	_ZdlPv@PLT
 1671      00
 1672 0ba0 4889D8   		movq	%rbx, %rax
 1673 0ba3 4889C7   		movq	%rax, %rdi
 1674              	.LEHB45:
 1675 0ba6 E8000000 		call	_Unwind_Resume@PLT
 1675      00
 1676              	.LEHE45:
 1677              	.L83:
 1678 0bab 488B5DF8 		movq	-8(%rbp), %rbx
 1679 0baf C9       		leave
 1680              		.cfi_def_cfa 7, 8
 1681 0bb0 C3       		ret
 1682              		.cfi_endproc
 1683              	.LFE1245:
 1684              		.section	.gcc_except_table
 1685              	.LLSDA1245:
 1686 0124 FF       		.byte	0xff
 1687 0125 FF       		.byte	0xff
 1688 0126 01       		.byte	0x1
 1689 0127 08       		.uleb128 .LLSDACSE1245-.LLSDACSB1245
 1690              	.LLSDACSB1245:
 1691 0128 18       		.uleb128 .LEHB44-.LFB1245
 1692 0129 05       		.uleb128 .LEHE44-.LEHB44
 1693 012a 2B       		.uleb128 .L82-.LFB1245
 1694 012b 00       		.uleb128 0
 1695 012c 44       		.uleb128 .LEHB45-.LFB1245
 1696 012d 05       		.uleb128 .LEHE45-.LEHB45
 1697 012e 00       		.uleb128 0
 1698 012f 00       		.uleb128 0
 1699              	.LLSDACSE1245:
 1700              		.text
 1702              		.section	.data.rel.ro.local
 1703              		.align 8
 1706              	_ZTVN12_GLOBAL__N_128TestTestListIsEmptyByDefaultE:
 1707 0078 00000000 		.quad	0
 1707      00000000 
 1708 0080 00000000 		.quad	_ZTIN12_GLOBAL__N_128TestTestListIsEmptyByDefaultE
 1708      00000000 
 1709 0088 00000000 		.quad	_ZN12_GLOBAL__N_128TestTestListIsEmptyByDefaultD1Ev
 1709      00000000 
 1710 0090 00000000 		.quad	_ZN12_GLOBAL__N_128TestTestListIsEmptyByDefaultD0Ev
 1710      00000000 
 1711 0098 00000000 		.quad	_ZNK12_GLOBAL__N_128TestTestListIsEmptyByDefault7RunImplEv
 1711      00000000 
 1712              		.text
 1713 0bb1 90       		.align 2
 1715              	_ZN12_GLOBAL__N_128TestTestListIsEmptyByDefaultD2Ev:
 1716              	.LFB1247:
   9:TestTestList.cpp **** {
 1717              		.loc 2 9 1 is_stmt 1
 1718              		.cfi_startproc
 1719 0bb2 F30F1EFA 		endbr64
 1720 0bb6 55       		pushq	%rbp
 1721              		.cfi_def_cfa_offset 16
 1722              		.cfi_offset 6, -16
 1723 0bb7 4889E5   		movq	%rsp, %rbp
 1724              		.cfi_def_cfa_register 6
 1725 0bba 4883EC10 		subq	$16, %rsp
 1726 0bbe 48897DF8 		movq	%rdi, -8(%rbp)
 1727              	.LBB9:
   9:TestTestList.cpp **** {
 1728              		.loc 2 9 1
 1729 0bc2 488D1500 		leaq	16+_ZTVN12_GLOBAL__N_128TestTestListIsEmptyByDefaultE(%rip), %rdx
 1729      000000
 1730 0bc9 488B45F8 		movq	-8(%rbp), %rax
 1731 0bcd 488910   		movq	%rdx, (%rax)
 1732 0bd0 488B45F8 		movq	-8(%rbp), %rax
 1733 0bd4 4889C7   		movq	%rax, %rdi
 1734 0bd7 E8000000 		call	_ZN8UnitTest4TestD2Ev@PLT
 1734      00
 1735              	.LBE9:
 1736 0bdc 90       		nop
 1737 0bdd C9       		leave
 1738              		.cfi_def_cfa 7, 8
 1739 0bde C3       		ret
 1740              		.cfi_endproc
 1741              	.LFE1247:
 1743              		.set	_ZN12_GLOBAL__N_128TestTestListIsEmptyByDefaultD1Ev,_ZN12_GLOBAL__N_128TestTestListIsEmptyByD
 1744 0bdf 90       		.align 2
 1746              	_ZN12_GLOBAL__N_128TestTestListIsEmptyByDefaultD0Ev:
 1747              	.LFB1249:
   9:TestTestList.cpp **** {
 1748              		.loc 2 9 1
 1749              		.cfi_startproc
 1750              		.cfi_personality 0x9b,DW.ref.__gxx_personality_v0
 1751              		.cfi_lsda 0x1b,.LLSDA1249
 1752 0be0 F30F1EFA 		endbr64
 1753 0be4 55       		pushq	%rbp
 1754              		.cfi_def_cfa_offset 16
 1755              		.cfi_offset 6, -16
 1756 0be5 4889E5   		movq	%rsp, %rbp
 1757              		.cfi_def_cfa_register 6
 1758 0be8 53       		pushq	%rbx
 1759 0be9 4883EC18 		subq	$24, %rsp
 1760              		.cfi_offset 3, -24
 1761 0bed 48897DE8 		movq	%rdi, -24(%rbp)
   9:TestTestList.cpp **** {
 1762              		.loc 2 9 1
 1763 0bf1 488B45E8 		movq	-24(%rbp), %rax
 1764 0bf5 4889C7   		movq	%rax, %rdi
 1765              	.LEHB46:
 1766 0bf8 E8B5FFFF 		call	_ZN12_GLOBAL__N_128TestTestListIsEmptyByDefaultD1Ev
 1766      FF
 1767              	.LEHE46:
   9:TestTestList.cpp **** {
 1768              		.loc 2 9 1 is_stmt 0 discriminator 2
 1769 0bfd 488B45E8 		movq	-24(%rbp), %rax
 1770 0c01 4889C7   		movq	%rax, %rdi
 1771 0c04 E8000000 		call	_ZdlPv@PLT
 1771      00
 1772 0c09 EB1E     		jmp	.L88
 1773              	.L87:
 1774 0c0b F30F1EFA 		endbr64
   9:TestTestList.cpp **** {
 1775              		.loc 2 9 1
 1776 0c0f 4889C3   		movq	%rax, %rbx
 1777 0c12 488B45E8 		movq	-24(%rbp), %rax
 1778 0c16 4889C7   		movq	%rax, %rdi
 1779 0c19 E8000000 		call	_ZdlPv@PLT
 1779      00
 1780 0c1e 4889D8   		movq	%rbx, %rax
 1781 0c21 4889C7   		movq	%rax, %rdi
 1782              	.LEHB47:
 1783 0c24 E8000000 		call	_Unwind_Resume@PLT
 1783      00
 1784              	.LEHE47:
 1785              	.L88:
 1786 0c29 488B5DF8 		movq	-8(%rbp), %rbx
 1787 0c2d C9       		leave
 1788              		.cfi_def_cfa 7, 8
 1789 0c2e C3       		ret
 1790              		.cfi_endproc
 1791              	.LFE1249:
 1792              		.section	.gcc_except_table
 1793              	.LLSDA1249:
 1794 0130 FF       		.byte	0xff
 1795 0131 FF       		.byte	0xff
 1796 0132 01       		.byte	0x1
 1797 0133 08       		.uleb128 .LLSDACSE1249-.LLSDACSB1249
 1798              	.LLSDACSB1249:
 1799 0134 18       		.uleb128 .LEHB46-.LFB1249
 1800 0135 05       		.uleb128 .LEHE46-.LEHB46
 1801 0136 2B       		.uleb128 .L87-.LFB1249
 1802 0137 00       		.uleb128 0
 1803 0138 44       		.uleb128 .LEHB47-.LFB1249
 1804 0139 05       		.uleb128 .LEHE47-.LEHB47
 1805 013a 00       		.uleb128 0
 1806 013b 00       		.uleb128 0
 1807              	.LLSDACSE1249:
 1808              		.text
 1810              		.section	.rodata
 1811 0256 00000000 		.align 32
 1811      00000000 
 1811      0000
 1814              	_ZTSN12_GLOBAL__N_127TestListAdderAddsTestToListE:
 1815 0260 2A4E3132 		.string	"*N12_GLOBAL__N_127TestListAdderAddsTestToListE"
 1815      5F474C4F 
 1815      42414C5F 
 1815      5F4E5F31 
 1815      32375465 
 1816              		.section	.data.rel.ro,"aw"
 1817              		.align 8
 1820              	_ZTIN12_GLOBAL__N_127TestListAdderAddsTestToListE:
 1821 0000 00000000 		.quad	_ZTVN10__cxxabiv120__si_class_type_infoE+16
 1821      00000000 
 1822 0008 00000000 		.quad	_ZTSN12_GLOBAL__N_127TestListAdderAddsTestToListE
 1822      00000000 
 1823 0010 00000000 		.quad	_ZTIN8UnitTest4TestE
 1823      00000000 
 1824              		.section	.rodata
 1825 028f 00000000 		.align 32
 1825      00000000 
 1825      00000000 
 1825      00000000 
 1825      00
 1828              	_ZTSN12_GLOBAL__N_137TestAddingSecondTestAddsItToEndOfListE:
 1829 02a0 2A4E3132 		.string	"*N12_GLOBAL__N_137TestAddingSecondTestAddsItToEndOfListE"
 1829      5F474C4F 
 1829      42414C5F 
 1829      5F4E5F31 
 1829      33375465 
 1830              		.section	.data.rel.ro
 1831              		.align 8
 1834              	_ZTIN12_GLOBAL__N_137TestAddingSecondTestAddsItToEndOfListE:
 1835 0018 00000000 		.quad	_ZTVN10__cxxabiv120__si_class_type_infoE+16
 1835      00000000 
 1836 0020 00000000 		.quad	_ZTSN12_GLOBAL__N_137TestAddingSecondTestAddsItToEndOfListE
 1836      00000000 
 1837 0028 00000000 		.quad	_ZTIN8UnitTest4TestE
 1837      00000000 
 1838              		.section	.rodata
 1839 02d9 00000000 		.align 32
 1839      000000
 1842              	_ZTSN12_GLOBAL__N_128TestAddingTestSetsHeadToTestE:
 1843 02e0 2A4E3132 		.string	"*N12_GLOBAL__N_128TestAddingTestSetsHeadToTestE"
 1843      5F474C4F 
 1843      42414C5F 
 1843      5F4E5F31 
 1843      32385465 
 1844              		.section	.data.rel.ro
 1845              		.align 8
 1848              	_ZTIN12_GLOBAL__N_128TestAddingTestSetsHeadToTestE:
 1849 0030 00000000 		.quad	_ZTVN10__cxxabiv120__si_class_type_infoE+16
 1849      00000000 
 1850 0038 00000000 		.quad	_ZTSN12_GLOBAL__N_128TestAddingTestSetsHeadToTestE
 1850      00000000 
 1851 0040 00000000 		.quad	_ZTIN8UnitTest4TestE
 1851      00000000 
 1852              		.section	.rodata
 1853 0310 00000000 		.align 32
 1853      00000000 
 1853      00000000 
 1853      00000000 
 1856              	_ZTSN12_GLOBAL__N_128TestTestListIsEmptyByDefaultE:
 1857 0320 2A4E3132 		.string	"*N12_GLOBAL__N_128TestTestListIsEmptyByDefaultE"
 1857      5F474C4F 
 1857      42414C5F 
 1857      5F4E5F31 
 1857      32385465 
 1858              		.section	.data.rel.ro
 1859              		.align 8
 1862              	_ZTIN12_GLOBAL__N_128TestTestListIsEmptyByDefaultE:
 1863 0048 00000000 		.quad	_ZTVN10__cxxabiv120__si_class_type_infoE+16
 1863      00000000 
 1864 0050 00000000 		.quad	_ZTSN12_GLOBAL__N_128TestTestListIsEmptyByDefaultE
 1864      00000000 
 1865 0058 00000000 		.quad	_ZTIN8UnitTest4TestE
 1865      00000000 
 1866              		.text
 1868              	_Z41__static_initialization_and_destruction_0ii:
 1869              	.LFB1254:
  49:TestTestList.cpp **** 
  50:TestTestList.cpp **** }
 1870              		.loc 2 50 1 is_stmt 1
 1871              		.cfi_startproc
 1872 0c2f F30F1EFA 		endbr64
 1873 0c33 55       		pushq	%rbp
 1874              		.cfi_def_cfa_offset 16
 1875              		.cfi_offset 6, -16
 1876 0c34 4889E5   		movq	%rsp, %rbp
 1877              		.cfi_def_cfa_register 6
 1878 0c37 4883EC10 		subq	$16, %rsp
 1879 0c3b 897DFC   		movl	%edi, -4(%rbp)
 1880 0c3e 8975F8   		movl	%esi, -8(%rbp)
 1881              		.loc 2 50 1
 1882 0c41 837DFC01 		cmpl	$1, -4(%rbp)
 1883 0c45 0F856501 		jne	.L91
 1883      0000
 1884              		.loc 2 50 1 is_stmt 0 discriminator 1
 1885 0c4b 817DF8FF 		cmpl	$65535, -8(%rbp)
 1885      FF0000
 1886 0c52 0F855801 		jne	.L91
 1886      0000
   9:TestTestList.cpp **** {
 1887              		.loc 2 9 1 is_stmt 1
 1888 0c58 488D0500 		leaq	_ZN12_GLOBAL__N_136testTestListIsEmptyByDefaultInstanceE(%rip), %rax
 1888      000000
 1889 0c5f 4889C7   		movq	%rax, %rdi
 1890 0c62 E899F3FF 		call	_ZN12_GLOBAL__N_128TestTestListIsEmptyByDefaultC1Ev
 1890      FF
 1891 0c67 488D0500 		leaq	__dso_handle(%rip), %rax
 1891      000000
 1892 0c6e 4889C2   		movq	%rax, %rdx
 1893 0c71 488D0500 		leaq	_ZN12_GLOBAL__N_136testTestListIsEmptyByDefaultInstanceE(%rip), %rax
 1893      000000
 1894 0c78 4889C6   		movq	%rax, %rsi
 1895 0c7b 488D0530 		leaq	_ZN12_GLOBAL__N_128TestTestListIsEmptyByDefaultD1Ev(%rip), %rax
 1895      FFFFFF
 1896 0c82 4889C7   		movq	%rax, %rdi
 1897 0c85 E8000000 		call	__cxa_atexit@PLT
 1897      00
 1898 0c8a E8000000 		call	_ZN8UnitTest4Test11GetTestListEv@PLT
 1898      00
 1899 0c8f 4889C1   		movq	%rax, %rcx
 1900 0c92 488D0500 		leaq	_ZN12_GLOBAL__N_136testTestListIsEmptyByDefaultInstanceE(%rip), %rax
 1900      000000
 1901 0c99 4889C2   		movq	%rax, %rdx
 1902 0c9c 4889CE   		movq	%rcx, %rsi
 1903 0c9f 488D0500 		leaq	_ZN12_GLOBAL__N_129adderTestListIsEmptyByDefaultE(%rip), %rax
 1903      000000
 1904 0ca6 4889C7   		movq	%rax, %rdi
 1905 0ca9 E8000000 		call	_ZN8UnitTest9ListAdderC1ERNS_8TestListEPNS_4TestE@PLT
 1905      00
  15:TestTestList.cpp **** {
 1906              		.loc 2 15 1
 1907 0cae 488D0500 		leaq	_ZN12_GLOBAL__N_136testAddingTestSetsHeadToTestInstanceE(%rip), %rax
 1907      000000
 1908 0cb5 4889C7   		movq	%rax, %rdi
 1909 0cb8 E8A1F4FF 		call	_ZN12_GLOBAL__N_128TestAddingTestSetsHeadToTestC1Ev
 1909      FF
 1910 0cbd 488D0500 		leaq	__dso_handle(%rip), %rax
 1910      000000
 1911 0cc4 4889C2   		movq	%rax, %rdx
 1912 0cc7 488D0500 		leaq	_ZN12_GLOBAL__N_136testAddingTestSetsHeadToTestInstanceE(%rip), %rax
 1912      000000
 1913 0cce 4889C6   		movq	%rax, %rsi
 1914 0cd1 488D055C 		leaq	_ZN12_GLOBAL__N_128TestAddingTestSetsHeadToTestD1Ev(%rip), %rax
 1914      FEFFFF
 1915 0cd8 4889C7   		movq	%rax, %rdi
 1916 0cdb E8000000 		call	__cxa_atexit@PLT
 1916      00
 1917 0ce0 E8000000 		call	_ZN8UnitTest4Test11GetTestListEv@PLT
 1917      00
 1918 0ce5 4889C1   		movq	%rax, %rcx
 1919 0ce8 488D0500 		leaq	_ZN12_GLOBAL__N_136testAddingTestSetsHeadToTestInstanceE(%rip), %rax
 1919      000000
 1920 0cef 4889C2   		movq	%rax, %rdx
 1921 0cf2 4889CE   		movq	%rcx, %rsi
 1922 0cf5 488D0500 		leaq	_ZN12_GLOBAL__N_129adderAddingTestSetsHeadToTestE(%rip), %rax
 1922      000000
 1923 0cfc 4889C7   		movq	%rax, %rdi
 1924 0cff E8000000 		call	_ZN8UnitTest9ListAdderC1ERNS_8TestListEPNS_4TestE@PLT
 1924      00
  25:TestTestList.cpp **** {
 1925              		.loc 2 25 1
 1926 0d04 488D0500 		leaq	_ZN12_GLOBAL__N_145testAddingSecondTestAddsItToEndOfListInstanceE(%rip), %rax
 1926      000000
 1927 0d0b 4889C7   		movq	%rax, %rdi
 1928 0d0e E8C9F6FF 		call	_ZN12_GLOBAL__N_137TestAddingSecondTestAddsItToEndOfListC1Ev
 1928      FF
 1929 0d13 488D0500 		leaq	__dso_handle(%rip), %rax
 1929      000000
 1930 0d1a 4889C2   		movq	%rax, %rdx
 1931 0d1d 488D0500 		leaq	_ZN12_GLOBAL__N_145testAddingSecondTestAddsItToEndOfListInstanceE(%rip), %rax
 1931      000000
 1932 0d24 4889C6   		movq	%rax, %rsi
 1933 0d27 488D0588 		leaq	_ZN12_GLOBAL__N_137TestAddingSecondTestAddsItToEndOfListD1Ev(%rip), %rax
 1933      FDFFFF
 1934 0d2e 4889C7   		movq	%rax, %rdi
 1935 0d31 E8000000 		call	__cxa_atexit@PLT
 1935      00
 1936 0d36 E8000000 		call	_ZN8UnitTest4Test11GetTestListEv@PLT
 1936      00
 1937 0d3b 4889C1   		movq	%rax, %rcx
 1938 0d3e 488D0500 		leaq	_ZN12_GLOBAL__N_145testAddingSecondTestAddsItToEndOfListInstanceE(%rip), %rax
 1938      000000
 1939 0d45 4889C2   		movq	%rax, %rdx
 1940 0d48 4889CE   		movq	%rcx, %rsi
 1941 0d4b 488D0500 		leaq	_ZN12_GLOBAL__N_138adderAddingSecondTestAddsItToEndOfListE(%rip), %rax
 1941      000000
 1942 0d52 4889C7   		movq	%rax, %rdi
 1943 0d55 E8000000 		call	_ZN8UnitTest9ListAdderC1ERNS_8TestListEPNS_4TestE@PLT
 1943      00
  39:TestTestList.cpp **** {
 1944              		.loc 2 39 1
 1945 0d5a 488D0500 		leaq	_ZN12_GLOBAL__N_135testListAdderAddsTestToListInstanceE(%rip), %rax
 1945      000000
 1946 0d61 4889C7   		movq	%rax, %rdi
 1947 0d64 E849FAFF 		call	_ZN12_GLOBAL__N_127TestListAdderAddsTestToListC1Ev
 1947      FF
 1948 0d69 488D0500 		leaq	__dso_handle(%rip), %rax
 1948      000000
 1949 0d70 4889C2   		movq	%rax, %rdx
 1950 0d73 488D0500 		leaq	_ZN12_GLOBAL__N_135testListAdderAddsTestToListInstanceE(%rip), %rax
 1950      000000
 1951 0d7a 4889C6   		movq	%rax, %rsi
 1952 0d7d 488D05B4 		leaq	_ZN12_GLOBAL__N_127TestListAdderAddsTestToListD1Ev(%rip), %rax
 1952      FCFFFF
 1953 0d84 4889C7   		movq	%rax, %rdi
 1954 0d87 E8000000 		call	__cxa_atexit@PLT
 1954      00
 1955 0d8c E8000000 		call	_ZN8UnitTest4Test11GetTestListEv@PLT
 1955      00
 1956 0d91 4889C1   		movq	%rax, %rcx
 1957 0d94 488D0500 		leaq	_ZN12_GLOBAL__N_135testListAdderAddsTestToListInstanceE(%rip), %rax
 1957      000000
 1958 0d9b 4889C2   		movq	%rax, %rdx
 1959 0d9e 4889CE   		movq	%rcx, %rsi
 1960 0da1 488D0500 		leaq	_ZN12_GLOBAL__N_128adderListAdderAddsTestToListE(%rip), %rax
 1960      000000
 1961 0da8 4889C7   		movq	%rax, %rdi
 1962 0dab E8000000 		call	_ZN8UnitTest9ListAdderC1ERNS_8TestListEPNS_4TestE@PLT
 1962      00
 1963              	.L91:
 1964              		.loc 2 50 1
 1965 0db0 90       		nop
 1966 0db1 C9       		leave
 1967              		.cfi_def_cfa 7, 8
 1968 0db2 C3       		ret
 1969              		.cfi_endproc
 1970              	.LFE1254:
 1973              	_GLOBAL__sub_I_TestTestList.cpp:
 1974              	.LFB1255:
 1975              		.loc 2 50 1
 1976              		.cfi_startproc
 1977 0db3 F30F1EFA 		endbr64
 1978 0db7 55       		pushq	%rbp
 1979              		.cfi_def_cfa_offset 16
 1980              		.cfi_offset 6, -16
 1981 0db8 4889E5   		movq	%rsp, %rbp
 1982              		.cfi_def_cfa_register 6
 1983              		.loc 2 50 1
 1984 0dbb BEFFFF00 		movl	$65535, %esi
 1984      00
 1985 0dc0 BF010000 		movl	$1, %edi
 1985      00
 1986 0dc5 E865FEFF 		call	_Z41__static_initialization_and_destruction_0ii
 1986      FF
 1987 0dca 5D       		popq	%rbp
 1988              		.cfi_def_cfa 7, 8
 1989 0dcb C3       		ret
 1990              		.cfi_endproc
 1991              	.LFE1255:
 1993              		.section	.init_array,"aw"
 1994              		.align 8
 1995 0000 00000000 		.quad	_GLOBAL__sub_I_TestTestList.cpp
 1995      00000000 
 1996              		.text
 1997              	.Letext0:
 1998              		.file 4 "../TestDetails.h"
 1999              		.file 5 "../TestList.h"
 2000              		.file 6 "../TestResults.h"
 2001              		.file 7 "../CurrentTest.h"
 2002              		.file 8 "<built-in>"
 2003              		.file 9 "/usr/lib/gcc/x86_64-linux-gnu/11/include/stddef.h"
 2004              		.file 10 "/usr/include/x86_64-linux-gnu/bits/types/wint_t.h"
 2005              		.file 11 "/usr/include/x86_64-linux-gnu/bits/types/__mbstate_t.h"
 2006              		.file 12 "/usr/include/x86_64-linux-gnu/bits/types/mbstate_t.h"
 2007              		.file 13 "/usr/include/x86_64-linux-gnu/bits/types/__FILE.h"
 2008              		.file 14 "/usr/include/c++/11/cwchar"
 2009              		.file 15 "/usr/include/c++/11/clocale"
 2010              		.file 16 "/usr/include/c++/11/cwctype"
 2011              		.file 17 "/usr/include/wchar.h"
 2012              		.file 18 "/usr/include/x86_64-linux-gnu/bits/types/struct_tm.h"
 2013              		.file 19 "/usr/include/x86_64-linux-gnu/c++/11/bits/c++config.h"
 2014              		.file 20 "/usr/include/c++/11/debug/debug.h"
 2015              		.file 21 "/usr/include/c++/11/bits/predefined_ops.h"
 2016              		.file 22 "/usr/include/locale.h"
 2017              		.file 23 "/usr/include/x86_64-linux-gnu/bits/types.h"
 2018              		.file 24 "/usr/include/x86_64-linux-gnu/bits/wctype-wchar.h"
 2019              		.file 25 "/usr/include/wctype.h"
 2020              		.file 26 "../Test.h"
 2021              		.file 27 "/usr/include/c++/11/new"
 7244              		.align 8
 7247              	DW.ref.__gxx_personality_v0:
 7248 0000 00000000 		.quad	__gxx_personality_v0
 7248      00000000 
 7249              		.hidden	__dso_handle
 7250              		.ident	"GCC: (Ubuntu 11.3.0-1ubuntu1~22.04) 11.3.0"
 7251              		.section	.note.GNU-stack,"",@progbits
 7252              		.section	.note.gnu.property,"a"
 7253              		.align 8
 7254 0000 04000000 		.long	1f - 0f
 7255 0004 10000000 		.long	4f - 1f
 7256 0008 05000000 		.long	5
 7257              	0:
 7258 000c 474E5500 		.string	"GNU"
 7259              	1:
 7260              		.align 8
 7261 0010 020000C0 		.long	0xc0000002
 7262 0014 04000000 		.long	3f - 2f
 7263              	2:
 7264 0018 03000000 		.long	0x3
 7265              	3:
 7266 001c 00000000 		.align 8
 7267              	4:
DEFINED SYMBOLS
                            *ABS*:0000000000000000 TestTestList.cpp
     /tmp/ccdmsQED.s:11     .text._ZN13UnitTestSuite12GetSuiteNameEv:0000000000000000 _ZN13UnitTestSuite12GetSuiteNameEv
     /tmp/ccdmsQED.s:39     .text:0000000000000000 _ZN12_GLOBAL__N_128TestTestListIsEmptyByDefaultC2Ev
     /tmp/ccdmsQED.s:1706   .data.rel.ro.local:0000000000000078 _ZTVN12_GLOBAL__N_128TestTestListIsEmptyByDefaultE
     /tmp/ccdmsQED.s:39     .text:0000000000000000 _ZN12_GLOBAL__N_128TestTestListIsEmptyByDefaultC1Ev
     /tmp/ccdmsQED.s:79     .bss:0000000000000000 _ZN12_GLOBAL__N_136testTestListIsEmptyByDefaultInstanceE
     /tmp/ccdmsQED.s:79     .bss:0000000000000038 _ZN12_GLOBAL__N_129adderTestListIsEmptyByDefaultE
     /tmp/ccdmsQED.s:91     .text:0000000000000050 _ZNK12_GLOBAL__N_128TestTestListIsEmptyByDefault7RunImplEv
     /tmp/ccdmsQED.s:7247   .data.rel.local.DW.ref.__gxx_personality_v0:0000000000000000 DW.ref.__gxx_personality_v0
     /tmp/ccdmsQED.s:1356   .text._ZN8UnitTest5CheckIbEEbT_:0000000000000000 _ZN8UnitTest5CheckIbEEbT_
     /tmp/ccdmsQED.s:250    .text:000000000000015e _ZN12_GLOBAL__N_128TestAddingTestSetsHeadToTestC2Ev
     /tmp/ccdmsQED.s:1598   .data.rel.ro.local:0000000000000050 _ZTVN12_GLOBAL__N_128TestAddingTestSetsHeadToTestE
     /tmp/ccdmsQED.s:250    .text:000000000000015e _ZN12_GLOBAL__N_128TestAddingTestSetsHeadToTestC1Ev
     /tmp/ccdmsQED.s:289    .bss:0000000000000040 _ZN12_GLOBAL__N_136testAddingTestSetsHeadToTestInstanceE
     /tmp/ccdmsQED.s:289    .bss:0000000000000078 _ZN12_GLOBAL__N_129adderAddingTestSetsHeadToTestE
     /tmp/ccdmsQED.s:310    .text:00000000000001ae _ZNK12_GLOBAL__N_128TestAddingTestSetsHeadToTest7RunImplEv
     /tmp/ccdmsQED.s:584    .text:00000000000003dc _ZN12_GLOBAL__N_137TestAddingSecondTestAddsItToEndOfListC2Ev
     /tmp/ccdmsQED.s:1490   .data.rel.ro.local:0000000000000028 _ZTVN12_GLOBAL__N_137TestAddingSecondTestAddsItToEndOfListE
     /tmp/ccdmsQED.s:584    .text:00000000000003dc _ZN12_GLOBAL__N_137TestAddingSecondTestAddsItToEndOfListC1Ev
     /tmp/ccdmsQED.s:623    .bss:0000000000000080 _ZN12_GLOBAL__N_145testAddingSecondTestAddsItToEndOfListInstanceE
     /tmp/ccdmsQED.s:623    .bss:00000000000000b8 _ZN12_GLOBAL__N_138adderAddingSecondTestAddsItToEndOfListE
     /tmp/ccdmsQED.s:649    .text:000000000000042c _ZNK12_GLOBAL__N_137TestAddingSecondTestAddsItToEndOfList7RunImplEv
     /tmp/ccdmsQED.s:1041   .text:00000000000007b2 _ZN12_GLOBAL__N_127TestListAdderAddsTestToListC2Ev
     /tmp/ccdmsQED.s:1382   .data.rel.ro.local:0000000000000000 _ZTVN12_GLOBAL__N_127TestListAdderAddsTestToListE
     /tmp/ccdmsQED.s:1041   .text:00000000000007b2 _ZN12_GLOBAL__N_127TestListAdderAddsTestToListC1Ev
     /tmp/ccdmsQED.s:1080   .bss:00000000000000c0 _ZN12_GLOBAL__N_135testListAdderAddsTestToListInstanceE
     /tmp/ccdmsQED.s:1080   .bss:00000000000000f8 _ZN12_GLOBAL__N_128adderListAdderAddsTestToListE
     /tmp/ccdmsQED.s:1085   .text:0000000000000802 _ZNK12_GLOBAL__N_127TestListAdderAddsTestToList7RunImplEv
     /tmp/ccdmsQED.s:1820   .data.rel.ro:0000000000000000 _ZTIN12_GLOBAL__N_127TestListAdderAddsTestToListE
     /tmp/ccdmsQED.s:1391   .text:0000000000000a38 _ZN12_GLOBAL__N_127TestListAdderAddsTestToListD1Ev
     /tmp/ccdmsQED.s:1422   .text:0000000000000a66 _ZN12_GLOBAL__N_127TestListAdderAddsTestToListD0Ev
     /tmp/ccdmsQED.s:1391   .text:0000000000000a38 _ZN12_GLOBAL__N_127TestListAdderAddsTestToListD2Ev
     /tmp/ccdmsQED.s:1834   .data.rel.ro:0000000000000018 _ZTIN12_GLOBAL__N_137TestAddingSecondTestAddsItToEndOfListE
     /tmp/ccdmsQED.s:1499   .text:0000000000000ab6 _ZN12_GLOBAL__N_137TestAddingSecondTestAddsItToEndOfListD1Ev
     /tmp/ccdmsQED.s:1530   .text:0000000000000ae4 _ZN12_GLOBAL__N_137TestAddingSecondTestAddsItToEndOfListD0Ev
     /tmp/ccdmsQED.s:1499   .text:0000000000000ab6 _ZN12_GLOBAL__N_137TestAddingSecondTestAddsItToEndOfListD2Ev
     /tmp/ccdmsQED.s:1848   .data.rel.ro:0000000000000030 _ZTIN12_GLOBAL__N_128TestAddingTestSetsHeadToTestE
     /tmp/ccdmsQED.s:1607   .text:0000000000000b34 _ZN12_GLOBAL__N_128TestAddingTestSetsHeadToTestD1Ev
     /tmp/ccdmsQED.s:1638   .text:0000000000000b62 _ZN12_GLOBAL__N_128TestAddingTestSetsHeadToTestD0Ev
     /tmp/ccdmsQED.s:1607   .text:0000000000000b34 _ZN12_GLOBAL__N_128TestAddingTestSetsHeadToTestD2Ev
     /tmp/ccdmsQED.s:1862   .data.rel.ro:0000000000000048 _ZTIN12_GLOBAL__N_128TestTestListIsEmptyByDefaultE
     /tmp/ccdmsQED.s:1715   .text:0000000000000bb2 _ZN12_GLOBAL__N_128TestTestListIsEmptyByDefaultD1Ev
     /tmp/ccdmsQED.s:1746   .text:0000000000000be0 _ZN12_GLOBAL__N_128TestTestListIsEmptyByDefaultD0Ev
     /tmp/ccdmsQED.s:1715   .text:0000000000000bb2 _ZN12_GLOBAL__N_128TestTestListIsEmptyByDefaultD2Ev
     /tmp/ccdmsQED.s:1814   .rodata:0000000000000260 _ZTSN12_GLOBAL__N_127TestListAdderAddsTestToListE
     /tmp/ccdmsQED.s:1828   .rodata:00000000000002a0 _ZTSN12_GLOBAL__N_137TestAddingSecondTestAddsItToEndOfListE
     /tmp/ccdmsQED.s:1842   .rodata:00000000000002e0 _ZTSN12_GLOBAL__N_128TestAddingTestSetsHeadToTestE
     /tmp/ccdmsQED.s:1856   .rodata:0000000000000320 _ZTSN12_GLOBAL__N_128TestTestListIsEmptyByDefaultE
     /tmp/ccdmsQED.s:1868   .text:0000000000000c2f _Z41__static_initialization_and_destruction_0ii
     /tmp/ccdmsQED.s:1973   .text:0000000000000db3 _GLOBAL__sub_I_TestTestList.cpp

UNDEFINED SYMBOLS
_ZN8UnitTest4TestC2EPKcS2_S2_i
_ZN8UnitTest8TestListC1Ev
_ZNK8UnitTest8TestList7GetHeadEv
_ZN8UnitTest11CurrentTest7ResultsEv
_ZN8UnitTest11CurrentTest7DetailsEv
_ZN8UnitTest11TestDetailsC1ERKS0_i
_ZN8UnitTest11TestResults13OnTestFailureERKNS_11TestDetailsEPKc
__cxa_begin_catch
__cxa_end_catch
_Unwind_Resume
__stack_chk_fail
__gxx_personality_v0
_ZN8UnitTest4TestC1EPKcS2_S2_i
_ZN8UnitTest8TestList3AddEPNS_4TestE
_ZN8UnitTest4TestD1Ev
_ZN8UnitTest9ListAdderC1ERNS_8TestListEPNS_4TestE
_ZN8UnitTest4TestD2Ev
_ZdlPv
_ZTVN10__cxxabiv120__si_class_type_infoE
_ZTIN8UnitTest4TestE
__dso_handle
__cxa_atexit
_ZN8UnitTest4Test11GetTestListEv
