   1              		.file	"TestTest.cpp"
   2              		.text
   3              	.Ltext0:
   4              		.file 0 "/home/pong/FPGALink/makestuff/libs/libutpp/tests" "TestTest.cpp"
   5              		.section	.rodata
   6              	.LC0:
   7 0000 44656661 		.string	"DefaultSuite"
   7      756C7453 
   7      75697465 
   7      00
   8              		.section	.text._ZN13UnitTestSuite12GetSuiteNameEv,"axG",@progbits,_ZN13UnitTestSuite12GetSuiteName
   9              		.weak	_ZN13UnitTestSuite12GetSuiteNameEv
  11              	_ZN13UnitTestSuite12GetSuiteNameEv:
  12              	.LFB0:
  13              		.file 1 "../TestSuite.h"
   1:../TestSuite.h **** #ifndef UNITTEST_TESTSUITE_H
   2:../TestSuite.h **** #define UNITTEST_TESTSUITE_H
   3:../TestSuite.h **** 
   4:../TestSuite.h **** namespace UnitTestSuite {
   5:../TestSuite.h **** 
   6:../TestSuite.h ****     inline char const* GetSuiteName ()
   7:../TestSuite.h ****     {
  14              		.loc 1 7 5
  15              		.cfi_startproc
  16 0000 F30F1EFA 		endbr64
  17 0004 55       		pushq	%rbp
  18              		.cfi_def_cfa_offset 16
  19              		.cfi_offset 6, -16
  20 0005 4889E5   		movq	%rsp, %rbp
  21              		.cfi_def_cfa_register 6
   8:../TestSuite.h ****         return "DefaultSuite";
  22              		.loc 1 8 16
  23 0008 488D0500 		leaq	.LC0(%rip), %rax
  23      000000
   9:../TestSuite.h ****     }
  24              		.loc 1 9 5
  25 000f 5D       		popq	%rbp
  26              		.cfi_def_cfa 7, 8
  27 0010 C3       		ret
  28              		.cfi_endproc
  29              	.LFE0:
  31              		.section	.text._ZN8UnitTest15MemoryOutStreamC1Ev,"axG",@progbits,_ZN8UnitTest15MemoryOutStreamC1Ev
  32              		.align 2
  33              		.weak	_ZN8UnitTest15MemoryOutStreamC1Ev
  35              	_ZN8UnitTest15MemoryOutStreamC1Ev:
  36              	.LFB1129:
  37              		.file 2 "../MemoryOutStream.h"
   1:../MemoryOutStream.h **** #ifndef UNITTEST_MEMORYOUTSTREAM_H
   2:../MemoryOutStream.h **** #define UNITTEST_MEMORYOUTSTREAM_H
   3:../MemoryOutStream.h **** 
   4:../MemoryOutStream.h **** #include "Config.h"
   5:../MemoryOutStream.h **** 
   6:../MemoryOutStream.h **** #ifndef UNITTEST_USE_CUSTOM_STREAMS
   7:../MemoryOutStream.h **** 
   8:../MemoryOutStream.h **** #include <sstream>
   9:../MemoryOutStream.h **** 
  10:../MemoryOutStream.h **** namespace UnitTest
  11:../MemoryOutStream.h **** {
  12:../MemoryOutStream.h **** 
  13:../MemoryOutStream.h **** class MemoryOutStream : public std::ostringstream
  14:../MemoryOutStream.h **** {
  15:../MemoryOutStream.h **** public:
  16:../MemoryOutStream.h ****     MemoryOutStream() {}
  38              		.loc 2 16 5
  39              		.cfi_startproc
  40              		.cfi_personality 0x9b,DW.ref.__gxx_personality_v0
  41              		.cfi_lsda 0x1b,.LLSDA1129
  42 0000 F30F1EFA 		endbr64
  43 0004 55       		pushq	%rbp
  44              		.cfi_def_cfa_offset 16
  45              		.cfi_offset 6, -16
  46 0005 4889E5   		movq	%rsp, %rbp
  47              		.cfi_def_cfa_register 6
  48 0008 53       		pushq	%rbx
  49 0009 4883EC18 		subq	$24, %rsp
  50              		.cfi_offset 3, -24
  51 000d 48897DE8 		movq	%rdi, -24(%rbp)
  52              	.LBB2:
  53              		.loc 2 16 23
  54 0011 488B45E8 		movq	-24(%rbp), %rax
  55 0015 48059000 		addq	$144, %rax
  55      0000
  56 001b 4889C7   		movq	%rax, %rdi
  57              	.LEHB0:
  58 001e E8000000 		call	_ZNSt9basic_iosIcSt11char_traitsIcEEC2Ev@PLT
  58      00
  59              	.LEHE0:
  60 0023 488B45E8 		movq	-24(%rbp), %rax
  61 0027 488D1500 		leaq	8+_ZTTN8UnitTest15MemoryOutStreamE(%rip), %rdx
  61      000000
  62 002e 4889D6   		movq	%rdx, %rsi
  63 0031 4889C7   		movq	%rax, %rdi
  64              	.LEHB1:
  65 0034 E8000000 		call	_ZNSt7__cxx1119basic_ostringstreamIcSt11char_traitsIcESaIcEEC2Ev@PLT
  65      00
  66              	.LEHE1:
  67              		.loc 2 16 23 is_stmt 0 discriminator 2
  68 0039 488D1500 		leaq	24+_ZTVN8UnitTest15MemoryOutStreamE(%rip), %rdx
  68      000000
  69 0040 488B45E8 		movq	-24(%rbp), %rax
  70 0044 488910   		movq	%rdx, (%rax)
  71 0047 488B45E8 		movq	-24(%rbp), %rax
  72 004b 48059000 		addq	$144, %rax
  72      0000
  73 0051 488D1500 		leaq	64+_ZTVN8UnitTest15MemoryOutStreamE(%rip), %rdx
  73      000000
  74 0058 488910   		movq	%rdx, (%rax)
  75 005b 488B45E8 		movq	-24(%rbp), %rax
  76 005f 4883C070 		addq	$112, %rax
  77 0063 4889C7   		movq	%rax, %rdi
  78              	.LEHB2:
  79 0066 E8000000 		call	_ZNSt7__cxx1112basic_stringIcSt11char_traitsIcESaIcEEC1Ev@PLT
  79      00
  80              	.LEHE2:
  81              	.LBE2:
  82              		.loc 2 16 24 is_stmt 1
  83 006b EB43     		jmp	.L8
  84              	.L7:
  85 006d F30F1EFA 		endbr64
  86              	.LBB3:
  87 0071 4889C3   		movq	%rax, %rbx
  88 0074 488B45E8 		movq	-24(%rbp), %rax
  89 0078 488D1500 		leaq	8+_ZTTN8UnitTest15MemoryOutStreamE(%rip), %rdx
  89      000000
  90 007f 4889D6   		movq	%rdx, %rsi
  91 0082 4889C7   		movq	%rax, %rdi
  92 0085 E8000000 		call	_ZNSt7__cxx1119basic_ostringstreamIcSt11char_traitsIcESaIcEED2Ev@PLT
  92      00
  93 008a EB07     		jmp	.L5
  94              	.L6:
  95 008c F30F1EFA 		endbr64
  96 0090 4889C3   		movq	%rax, %rbx
  97              	.L5:
  98              		.loc 2 16 24 is_stmt 0 discriminator 1
  99 0093 488B45E8 		movq	-24(%rbp), %rax
 100 0097 48059000 		addq	$144, %rax
 100      0000
 101 009d 4889C7   		movq	%rax, %rdi
 102 00a0 E8000000 		call	_ZNSt9basic_iosIcSt11char_traitsIcEED2Ev@PLT
 102      00
 103 00a5 4889D8   		movq	%rbx, %rax
 104 00a8 4889C7   		movq	%rax, %rdi
 105              	.LEHB3:
 106 00ab E8000000 		call	_Unwind_Resume@PLT
 106      00
 107              	.LEHE3:
 108              	.L8:
 109              	.LBE3:
 110              		.loc 2 16 24
 111 00b0 488B5DF8 		movq	-8(%rbp), %rbx
 112 00b4 C9       		leave
 113              		.cfi_def_cfa 7, 8
 114 00b5 C3       		ret
 115              		.cfi_endproc
 116              	.LFE1129:
 117              		.globl	__gxx_personality_v0
 118              		.section	.gcc_except_table._ZN8UnitTest15MemoryOutStreamC1Ev,"aG",@progbits,_ZN8UnitTest15MemoryOu
 119              	.LLSDA1129:
 120 0000 FF       		.byte	0xff
 121 0001 FF       		.byte	0xff
 122 0002 01       		.byte	0x1
 123 0003 12       		.uleb128 .LLSDACSE1129-.LLSDACSB1129
 124              	.LLSDACSB1129:
 125 0004 1E       		.uleb128 .LEHB0-.LFB1129
 126 0005 05       		.uleb128 .LEHE0-.LEHB0
 127 0006 00       		.uleb128 0
 128 0007 00       		.uleb128 0
 129 0008 34       		.uleb128 .LEHB1-.LFB1129
 130 0009 05       		.uleb128 .LEHE1-.LEHB1
 131 000a 8C01     		.uleb128 .L6-.LFB1129
 132 000c 00       		.uleb128 0
 133 000d 66       		.uleb128 .LEHB2-.LFB1129
 134 000e 05       		.uleb128 .LEHE2-.LEHB2
 135 000f 6D       		.uleb128 .L7-.LFB1129
 136 0010 00       		.uleb128 0
 137 0011 AB01     		.uleb128 .LEHB3-.LFB1129
 138 0013 05       		.uleb128 .LEHE3-.LEHB3
 139 0014 00       		.uleb128 0
 140 0015 00       		.uleb128 0
 141              	.LLSDACSE1129:
 142              		.section	.text._ZN8UnitTest15MemoryOutStreamC1Ev,"axG",@progbits,_ZN8UnitTest15MemoryOutStreamC1Ev
 144              		.section	.text._ZN17ScopedCurrentTestC2ERN8UnitTest11TestResultsEPKNS0_11TestDetailsE,"axG",@progb
 145              		.align 2
 146              		.weak	_ZN17ScopedCurrentTestC2ERN8UnitTest11TestResultsEPKNS0_11TestDetailsE
 148              	_ZN17ScopedCurrentTestC2ERN8UnitTest11TestResultsEPKNS0_11TestDetailsE:
 149              	.LFB1145:
 150              		.file 3 "ScopedCurrentTest.h"
   1:ScopedCurrentTest.h **** #ifndef UNITTEST_SCOPEDCURRENTTEST_H
   2:ScopedCurrentTest.h **** #define UNITTEST_SCOPEDCURRENTTEST_H
   3:ScopedCurrentTest.h **** 
   4:ScopedCurrentTest.h **** #include "../CurrentTest.h"
   5:ScopedCurrentTest.h **** #include <cstddef>
   6:ScopedCurrentTest.h **** 
   7:ScopedCurrentTest.h **** class ScopedCurrentTest
   8:ScopedCurrentTest.h **** {
   9:ScopedCurrentTest.h **** public:
  10:ScopedCurrentTest.h **** 	ScopedCurrentTest()
  11:ScopedCurrentTest.h **** 		: m_oldTestResults(UnitTest::CurrentTest::Results())
  12:ScopedCurrentTest.h **** 		, m_oldTestDetails(UnitTest::CurrentTest::Details())
  13:ScopedCurrentTest.h **** 	{
  14:ScopedCurrentTest.h **** 	}
  15:ScopedCurrentTest.h **** 
  16:ScopedCurrentTest.h **** 	explicit ScopedCurrentTest(UnitTest::TestResults& newResults, const UnitTest::TestDetails* newDeta
 151              		.loc 3 16 11 is_stmt 1
 152              		.cfi_startproc
 153 0000 F30F1EFA 		endbr64
 154 0004 55       		pushq	%rbp
 155              		.cfi_def_cfa_offset 16
 156              		.cfi_offset 6, -16
 157 0005 4889E5   		movq	%rsp, %rbp
 158              		.cfi_def_cfa_register 6
 159 0008 4883EC20 		subq	$32, %rsp
 160 000c 48897DF8 		movq	%rdi, -8(%rbp)
 161 0010 488975F0 		movq	%rsi, -16(%rbp)
 162 0014 488955E8 		movq	%rdx, -24(%rbp)
 163              	.LBB4:
  17:ScopedCurrentTest.h **** 		: m_oldTestResults(UnitTest::CurrentTest::Results())
 164              		.loc 3 17 52
 165 0018 E8000000 		call	_ZN8UnitTest11CurrentTest7ResultsEv@PLT
 165      00
 166 001d 488B10   		movq	(%rax), %rdx
 167              		.loc 3 17 5
 168 0020 488B45F8 		movq	-8(%rbp), %rax
 169 0024 488910   		movq	%rdx, (%rax)
  18:ScopedCurrentTest.h **** 		, m_oldTestDetails(UnitTest::CurrentTest::Details())
 170              		.loc 3 18 52
 171 0027 E8000000 		call	_ZN8UnitTest11CurrentTest7DetailsEv@PLT
 171      00
 172 002c 488B10   		movq	(%rax), %rdx
 173              		.loc 3 18 5
 174 002f 488B45F8 		movq	-8(%rbp), %rax
 175 0033 48895008 		movq	%rdx, 8(%rax)
  19:ScopedCurrentTest.h **** 	{
  20:ScopedCurrentTest.h **** 		UnitTest::CurrentTest::Results() = &newResults;
 176              		.loc 3 20 33
 177 0037 E8000000 		call	_ZN8UnitTest11CurrentTest7ResultsEv@PLT
 177      00
 178              		.loc 3 20 36
 179 003c 488B55F0 		movq	-16(%rbp), %rdx
 180 0040 488910   		movq	%rdx, (%rax)
  21:ScopedCurrentTest.h **** 
  22:ScopedCurrentTest.h **** 		if (newDetails != NULL)
 181              		.loc 3 22 3
 182 0043 48837DE8 		cmpq	$0, -24(%rbp)
 182      00
 183 0048 740C     		je	.L11
  23:ScopedCurrentTest.h **** 			UnitTest::CurrentTest::Details() = newDetails;
 184              		.loc 3 23 34
 185 004a E8000000 		call	_ZN8UnitTest11CurrentTest7DetailsEv@PLT
 185      00
 186              		.loc 3 23 37
 187 004f 488B55E8 		movq	-24(%rbp), %rdx
 188 0053 488910   		movq	%rdx, (%rax)
 189              	.L11:
 190              	.LBE4:
  24:ScopedCurrentTest.h **** 	}
 191              		.loc 3 24 2
 192 0056 90       		nop
 193 0057 C9       		leave
 194              		.cfi_def_cfa 7, 8
 195 0058 C3       		ret
 196              		.cfi_endproc
 197              	.LFE1145:
 199              		.weak	_ZN17ScopedCurrentTestC1ERN8UnitTest11TestResultsEPKNS0_11TestDetailsE
 200              		.set	_ZN17ScopedCurrentTestC1ERN8UnitTest11TestResultsEPKNS0_11TestDetailsE,_ZN17ScopedCurrentTest
 201              		.section	.text._ZN17ScopedCurrentTestD2Ev,"axG",@progbits,_ZN17ScopedCurrentTestD5Ev,comdat
 202              		.align 2
 203              		.weak	_ZN17ScopedCurrentTestD2Ev
 205              	_ZN17ScopedCurrentTestD2Ev:
 206              	.LFB1148:
  25:ScopedCurrentTest.h **** 
  26:ScopedCurrentTest.h **** 	~ScopedCurrentTest()
 207              		.loc 3 26 2
 208              		.cfi_startproc
 209 0000 F30F1EFA 		endbr64
 210 0004 55       		pushq	%rbp
 211              		.cfi_def_cfa_offset 16
 212              		.cfi_offset 6, -16
 213 0005 4889E5   		movq	%rsp, %rbp
 214              		.cfi_def_cfa_register 6
 215 0008 4883EC10 		subq	$16, %rsp
 216 000c 48897DF8 		movq	%rdi, -8(%rbp)
 217              	.LBB5:
  27:ScopedCurrentTest.h **** 	{
  28:ScopedCurrentTest.h **** 		UnitTest::CurrentTest::Results() = m_oldTestResults;
 218              		.loc 3 28 33
 219 0010 E8000000 		call	_ZN8UnitTest11CurrentTest7ResultsEv@PLT
 219      00
 220              		.loc 3 28 38
 221 0015 488B55F8 		movq	-8(%rbp), %rdx
 222 0019 488B12   		movq	(%rdx), %rdx
 223              		.loc 3 28 36
 224 001c 488910   		movq	%rdx, (%rax)
  29:ScopedCurrentTest.h **** 		UnitTest::CurrentTest::Details() = m_oldTestDetails;
 225              		.loc 3 29 33
 226 001f E8000000 		call	_ZN8UnitTest11CurrentTest7DetailsEv@PLT
 226      00
 227              		.loc 3 29 38
 228 0024 488B55F8 		movq	-8(%rbp), %rdx
 229 0028 488B5208 		movq	8(%rdx), %rdx
 230              		.loc 3 29 36
 231 002c 488910   		movq	%rdx, (%rax)
 232              	.LBE5:
  30:ScopedCurrentTest.h **** 	}
 233              		.loc 3 30 2
 234 002f 90       		nop
 235 0030 C9       		leave
 236              		.cfi_def_cfa 7, 8
 237 0031 C3       		ret
 238              		.cfi_endproc
 239              	.LFE1148:
 241              		.weak	_ZN17ScopedCurrentTestD1Ev
 242              		.set	_ZN17ScopedCurrentTestD1Ev,_ZN17ScopedCurrentTestD2Ev
 243              		.section	.rodata
 244              	.LC1:
 245 000d 54657374 		.string	"TestTest.cpp"
 245      54657374 
 245      2E637070 
 245      00
 246              	.LC2:
 247 001a 50617373 		.string	"PassingTestHasNoFailures"
 247      696E6754 
 247      65737448 
 247      61734E6F 
 247      4661696C 
 248              		.text
 249              		.align 2
 251              	_ZN12_GLOBAL__N_128TestPassingTestHasNoFailuresC2Ev:
 252              	.LFB1151:
 253              		.file 4 "TestTest.cpp"
   1:TestTest.cpp  **** #include "../UnitTest++.h"
   2:TestTest.cpp  **** #include "../TestReporter.h"
   3:TestTest.cpp  **** #include "../TimeHelpers.h"
   4:TestTest.cpp  **** #include "ScopedCurrentTest.h"
   5:TestTest.cpp  **** 
   6:TestTest.cpp  **** using namespace UnitTest;
   7:TestTest.cpp  **** 
   8:TestTest.cpp  **** namespace {
   9:TestTest.cpp  **** 
  10:TestTest.cpp  **** TEST(PassingTestHasNoFailures)
 254              		.loc 4 10 1
 255              		.cfi_startproc
 256 0000 55       		pushq	%rbp
 257              		.cfi_def_cfa_offset 16
 258              		.cfi_offset 6, -16
 259 0001 4889E5   		movq	%rsp, %rbp
 260              		.cfi_def_cfa_register 6
 261 0004 53       		pushq	%rbx
 262 0005 4883EC18 		subq	$24, %rsp
 263              		.cfi_offset 3, -24
 264 0009 48897DE8 		movq	%rdi, -24(%rbp)
 265              	.LBB6:
 266              		.loc 4 10 1
 267 000d 488B5DE8 		movq	-24(%rbp), %rbx
 268 0011 E8000000 		call	_ZN13UnitTestSuite12GetSuiteNameEv
 268      00
 269 0016 4889C2   		movq	%rax, %rdx
 270 0019 41B80A00 		movl	$10, %r8d
 270      0000
 271 001f 488D0500 		leaq	.LC1(%rip), %rax
 271      000000
 272 0026 4889C1   		movq	%rax, %rcx
 273 0029 488D0500 		leaq	.LC2(%rip), %rax
 273      000000
 274 0030 4889C6   		movq	%rax, %rsi
 275 0033 4889DF   		movq	%rbx, %rdi
 276 0036 E8000000 		call	_ZN8UnitTest4TestC2EPKcS2_S2_i@PLT
 276      00
 277 003b 488D1500 		leaq	16+_ZTVN12_GLOBAL__N_128TestPassingTestHasNoFailuresE(%rip), %rdx
 277      000000
 278 0042 488B45E8 		movq	-24(%rbp), %rax
 279 0046 488910   		movq	%rdx, (%rax)
 280              	.LBE6:
 281 0049 90       		nop
 282 004a 488B5DF8 		movq	-8(%rbp), %rbx
 283 004e C9       		leave
 284              		.cfi_def_cfa 7, 8
 285 004f C3       		ret
 286              		.cfi_endproc
 287              	.LFE1151:
 289              		.set	_ZN12_GLOBAL__N_128TestPassingTestHasNoFailuresC1Ev,_ZN12_GLOBAL__N_128TestPassingTestHasNoFa
 290              		.local	_ZN12_GLOBAL__N_136testPassingTestHasNoFailuresInstanceE
 291              		.comm	_ZN12_GLOBAL__N_136testPassingTestHasNoFailuresInstanceE,56,32
 292              		.local	_ZN12_GLOBAL__N_129adderPassingTestHasNoFailuresE
 293              		.comm	_ZN12_GLOBAL__N_129adderPassingTestHasNoFailuresE,1,1
 294              		.section	.rodata
 295              	.LC3:
 296 0033 00       		.string	""
 297              	.LC4:
 298 0034 70617373 		.string	"passing"
 298      696E6700 
 299              		.text
 300              		.align 2
 302              	_ZZNK12_GLOBAL__N_128TestPassingTestHasNoFailures7RunImplEvEN11PassingTestC2Ev:
 303              	.LFB1155:
  11:TestTest.cpp  **** {
  12:TestTest.cpp  ****     class PassingTest : public Test
  13:TestTest.cpp  ****     {
  14:TestTest.cpp  ****     public:
  15:TestTest.cpp  ****         PassingTest() : Test("passing") {}
 304              		.loc 4 15 9
 305              		.cfi_startproc
 306 0050 55       		pushq	%rbp
 307              		.cfi_def_cfa_offset 16
 308              		.cfi_offset 6, -16
 309 0051 4889E5   		movq	%rsp, %rbp
 310              		.cfi_def_cfa_register 6
 311 0054 4883EC10 		subq	$16, %rsp
 312 0058 48897DF8 		movq	%rdi, -8(%rbp)
 313              	.LBB7:
 314              		.loc 4 15 39
 315 005c 488B45F8 		movq	-8(%rbp), %rax
 316 0060 41B80000 		movl	$0, %r8d
 316      0000
 317 0066 488D1500 		leaq	.LC3(%rip), %rdx
 317      000000
 318 006d 4889D1   		movq	%rdx, %rcx
 319 0070 488D1500 		leaq	.LC0(%rip), %rdx
 319      000000
 320 0077 488D3500 		leaq	.LC4(%rip), %rsi
 320      000000
 321 007e 4889C7   		movq	%rax, %rdi
 322 0081 E8000000 		call	_ZN8UnitTest4TestC2EPKcS2_S2_i@PLT
 322      00
 323 0086 488D1500 		leaq	16+_ZTVZNK12_GLOBAL__N_128TestPassingTestHasNoFailures7RunImplEvE11PassingTest(%rip), %rdx
 323      000000
 324 008d 488B45F8 		movq	-8(%rbp), %rax
 325 0091 488910   		movq	%rdx, (%rax)
 326              	.LBE7:
 327              		.loc 4 15 42
 328 0094 90       		nop
 329 0095 C9       		leave
 330              		.cfi_def_cfa 7, 8
 331 0096 C3       		ret
 332              		.cfi_endproc
 333              	.LFE1155:
 335              		.set	_ZZNK12_GLOBAL__N_128TestPassingTestHasNoFailures7RunImplEvEN11PassingTestC1Ev,_ZZNK12_GLOBAL
 336              		.section	.rodata
 337              	.LC5:
 338 003c 74727565 		.string	"true"
 338      00
 339 0041 00000000 		.align 8
 339      000000
 340              	.LC6:
 341 0048 556E6861 		.string	"Unhandled exception in CHECK(true)"
 341      6E646C65 
 341      64206578 
 341      63657074 
 341      696F6E20 
 342              		.text
 343 0097 90       		.align 2
 345              	_ZZNK12_GLOBAL__N_128TestPassingTestHasNoFailures7RunImplEvENK11PassingTest7RunImplEv:
 346              	.LFB1157:
  16:TestTest.cpp  ****         virtual void RunImpl() const
 347              		.loc 4 16 22
 348              		.cfi_startproc
 349              		.cfi_personality 0x9b,DW.ref.__gxx_personality_v0
 350              		.cfi_lsda 0x1b,.LLSDA1157
 351 0098 F30F1EFA 		endbr64
 352 009c 55       		pushq	%rbp
 353              		.cfi_def_cfa_offset 16
 354              		.cfi_offset 6, -16
 355 009d 4889E5   		movq	%rsp, %rbp
 356              		.cfi_def_cfa_register 6
 357 00a0 53       		pushq	%rbx
 358 00a1 4883EC48 		subq	$72, %rsp
 359              		.cfi_offset 3, -24
 360 00a5 48897DB8 		movq	%rdi, -72(%rbp)
 361              		.loc 4 16 22
 362 00a9 64488B04 		movq	%fs:40, %rax
 362      25280000 
 362      00
 363 00b2 488945E8 		movq	%rax, -24(%rbp)
 364 00b6 31C0     		xorl	%eax, %eax
  17:TestTest.cpp  ****         {
  18:TestTest.cpp  ****             CHECK(true);
 365              		.loc 4 18 13
 366 00b8 BF010000 		movl	$1, %edi
 366      00
 367 00bd E8000000 		call	_ZN8UnitTest5CheckIbEEbT_
 367      00
 368 00c2 83F001   		xorl	$1, %eax
 369 00c5 84C0     		testb	%al, %al
 370 00c7 0F84A000 		je	.L22
 370      0000
 371              	.LEHB4:
 372              		.loc 4 18 13 is_stmt 0 discriminator 1
 373 00cd E8000000 		call	_ZN8UnitTest11CurrentTest7ResultsEv@PLT
 373      00
 374 00d2 488B18   		movq	(%rax), %rbx
 375 00d5 E8000000 		call	_ZN8UnitTest11CurrentTest7DetailsEv@PLT
 375      00
 376              		.loc 4 18 13 discriminator 3
 377 00da 488B08   		movq	(%rax), %rcx
 378 00dd 488D45C0 		leaq	-64(%rbp), %rax
 379 00e1 BA120000 		movl	$18, %edx
 379      00
 380 00e6 4889CE   		movq	%rcx, %rsi
 381 00e9 4889C7   		movq	%rax, %rdi
 382 00ec E8000000 		call	_ZN8UnitTest11TestDetailsC1ERKS0_i@PLT
 382      00
 383              		.loc 4 18 13 discriminator 7
 384 00f1 488D45C0 		leaq	-64(%rbp), %rax
 385 00f5 488D1500 		leaq	.LC5(%rip), %rdx
 385      000000
 386 00fc 4889C6   		movq	%rax, %rsi
 387 00ff 4889DF   		movq	%rbx, %rdi
 388 0102 E8000000 		call	_ZN8UnitTest11TestResults13OnTestFailureERKNS_11TestDetailsEPKc@PLT
 388      00
 389              	.LEHE4:
  19:TestTest.cpp  ****         }
 390              		.loc 4 19 9 is_stmt 1
 391 0107 EB64     		jmp	.L22
 392              	.L20:
 393 0109 F30F1EFA 		endbr64
  18:TestTest.cpp  ****         }
 394              		.loc 4 18 13
 395 010d 4889C7   		movq	%rax, %rdi
 396 0110 E8000000 		call	__cxa_begin_catch@PLT
 396      00
 397              	.LEHB5:
 398 0115 E8000000 		call	_ZN8UnitTest11CurrentTest7ResultsEv@PLT
 398      00
  18:TestTest.cpp  ****         }
 399              		.loc 4 18 13 is_stmt 0 discriminator 6
 400 011a 488B18   		movq	(%rax), %rbx
 401 011d E8000000 		call	_ZN8UnitTest11CurrentTest7DetailsEv@PLT
 401      00
  18:TestTest.cpp  ****         }
 402              		.loc 4 18 13 discriminator 12
 403 0122 488B08   		movq	(%rax), %rcx
 404 0125 488D45C0 		leaq	-64(%rbp), %rax
 405 0129 BA120000 		movl	$18, %edx
 405      00
 406 012e 4889CE   		movq	%rcx, %rsi
 407 0131 4889C7   		movq	%rax, %rdi
 408 0134 E8000000 		call	_ZN8UnitTest11TestDetailsC1ERKS0_i@PLT
 408      00
  18:TestTest.cpp  ****         }
 409              		.loc 4 18 13 discriminator 16
 410 0139 488D45C0 		leaq	-64(%rbp), %rax
 411 013d 488D1500 		leaq	.LC6(%rip), %rdx
 411      000000
 412 0144 4889C6   		movq	%rax, %rsi
 413 0147 4889DF   		movq	%rbx, %rdi
 414 014a E8000000 		call	_ZN8UnitTest11TestResults13OnTestFailureERKNS_11TestDetailsEPKc@PLT
 414      00
 415              	.LEHE5:
 416              	.LEHB6:
  18:TestTest.cpp  ****         }
 417              		.loc 4 18 13 discriminator 18
 418 014f E8000000 		call	__cxa_end_catch@PLT
 418      00
 419              	.LEHE6:
 420              		.loc 4 19 9 is_stmt 1 discriminator 18
 421 0154 EB17     		jmp	.L22
 422              	.L21:
 423 0156 F30F1EFA 		endbr64
  18:TestTest.cpp  ****         }
 424              		.loc 4 18 13
 425 015a 4889C3   		movq	%rax, %rbx
 426 015d E8000000 		call	__cxa_end_catch@PLT
 426      00
 427 0162 4889D8   		movq	%rbx, %rax
 428 0165 4889C7   		movq	%rax, %rdi
 429              	.LEHB7:
 430 0168 E8000000 		call	_Unwind_Resume@PLT
 430      00
 431              	.LEHE7:
 432              	.L22:
 433              		.loc 4 19 9
 434 016d 90       		nop
 435 016e 488B45E8 		movq	-24(%rbp), %rax
 436 0172 64482B04 		subq	%fs:40, %rax
 436      25280000 
 436      00
 437 017b 7405     		je	.L19
 438 017d E8000000 		call	__stack_chk_fail@PLT
 438      00
 439              	.L19:
 440 0182 488B5DF8 		movq	-8(%rbp), %rbx
 441 0186 C9       		leave
 442              		.cfi_def_cfa 7, 8
 443 0187 C3       		ret
 444              		.cfi_endproc
 445              	.LFE1157:
 446              		.section	.gcc_except_table,"a",@progbits
 447              		.align 4
 448              	.LLSDA1157:
 449 0000 FF       		.byte	0xff
 450 0001 9B       		.byte	0x9b
 451 0002 1D       		.uleb128 .LLSDATT1157-.LLSDATTD1157
 452              	.LLSDATTD1157:
 453 0003 01       		.byte	0x1
 454 0004 13       		.uleb128 .LLSDACSE1157-.LLSDACSB1157
 455              	.LLSDACSB1157:
 456 0005 35       		.uleb128 .LEHB4-.LFB1157
 457 0006 3A       		.uleb128 .LEHE4-.LEHB4
 458 0007 71       		.uleb128 .L20-.LFB1157
 459 0008 01       		.uleb128 0x1
 460 0009 7D       		.uleb128 .LEHB5-.LFB1157
 461 000a 3A       		.uleb128 .LEHE5-.LEHB5
 462 000b BE01     		.uleb128 .L21-.LFB1157
 463 000d 00       		.uleb128 0
 464 000e B701     		.uleb128 .LEHB6-.LFB1157
 465 0010 05       		.uleb128 .LEHE6-.LEHB6
 466 0011 00       		.uleb128 0
 467 0012 00       		.uleb128 0
 468 0013 D001     		.uleb128 .LEHB7-.LFB1157
 469 0015 05       		.uleb128 .LEHE7-.LEHB7
 470 0016 00       		.uleb128 0
 471 0017 00       		.uleb128 0
 472              	.LLSDACSE1157:
 473 0018 01       		.byte	0x1
 474 0019 00       		.byte	0
 475 001a 0000     		.align 4
 476 001c 00000000 		.long	0
 477              	
 478              	.LLSDATT1157:
 479              		.text
 481              		.section	.rodata
 482 006b 00000000 		.align 8
 482      00
 483              	.LC7:
 484 0070 556E6861 		.string	"Unhandled exception in CHECK_EQUAL(0, results.GetFailureCount())"
 484      6E646C65 
 484      64206578 
 484      63657074 
 484      696F6E20 
 485              		.text
 486              		.align 2
 488              	_ZNK12_GLOBAL__N_128TestPassingTestHasNoFailures7RunImplEv:
 489              	.LFB1153:
  11:TestTest.cpp  ****     class PassingTest : public Test
 490              		.loc 4 11 1
 491              		.cfi_startproc
 492              		.cfi_personality 0x9b,DW.ref.__gxx_personality_v0
 493              		.cfi_lsda 0x1b,.LLSDA1153
 494 0188 F30F1EFA 		endbr64
 495 018c 55       		pushq	%rbp
 496              		.cfi_def_cfa_offset 16
 497              		.cfi_offset 6, -16
 498 018d 4889E5   		movq	%rsp, %rbp
 499              		.cfi_def_cfa_register 6
 500 0190 53       		pushq	%rbx
 501 0191 4881EC98 		subq	$152, %rsp
 501      000000
 502              		.cfi_offset 3, -24
 503 0198 4889BD68 		movq	%rdi, -152(%rbp)
 503      FFFFFF
  11:TestTest.cpp  ****     class PassingTest : public Test
 504              		.loc 4 11 1
 505 019f 64488B04 		movq	%fs:40, %rax
 505      25280000 
 505      00
 506 01a8 488945E8 		movq	%rax, -24(%rbp)
 507 01ac 31C0     		xorl	%eax, %eax
  20:TestTest.cpp  ****     };
  21:TestTest.cpp  **** 
  22:TestTest.cpp  ****     TestResults results;
 508              		.loc 4 22 17
 509 01ae 488D4590 		leaq	-112(%rbp), %rax
 510 01b2 BE000000 		movl	$0, %esi
 510      00
 511 01b7 4889C7   		movq	%rax, %rdi
 512              	.LEHB8:
 513 01ba E8000000 		call	_ZN8UnitTest11TestResultsC1EPNS_12TestReporterE@PLT
 513      00
 514              	.LBB8:
  23:TestTest.cpp  **** 	{
  24:TestTest.cpp  **** 		ScopedCurrentTest scopedResults(results);
 515              		.loc 4 24 42
 516 01bf 488D4D90 		leaq	-112(%rbp), %rcx
 517 01c3 488D4580 		leaq	-128(%rbp), %rax
 518 01c7 BA000000 		movl	$0, %edx
 518      00
 519 01cc 4889CE   		movq	%rcx, %rsi
 520 01cf 4889C7   		movq	%rax, %rdi
 521 01d2 E8000000 		call	_ZN17ScopedCurrentTestC1ERN8UnitTest11TestResultsEPKNS0_11TestDetailsE
 521      00
 522              	.LEHE8:
  25:TestTest.cpp  **** 		PassingTest().Run();
 523              		.loc 4 25 3
 524 01d7 488D45B0 		leaq	-80(%rbp), %rax
 525 01db 4889C7   		movq	%rax, %rdi
 526              	.LEHB9:
 527 01de E86DFEFF 		call	_ZZNK12_GLOBAL__N_128TestPassingTestHasNoFailures7RunImplEvEN11PassingTestC1Ev
 527      FF
 528              	.LEHE9:
 529              		.loc 4 25 20 discriminator 1
 530 01e3 488D45B0 		leaq	-80(%rbp), %rax
 531 01e7 4889C7   		movq	%rax, %rdi
 532              	.LEHB10:
 533 01ea E8000000 		call	_ZN8UnitTest4Test3RunEv@PLT
 533      00
 534              	.LEHE10:
 535              		.loc 4 25 3 discriminator 3
 536 01ef 488D45B0 		leaq	-80(%rbp), %rax
 537 01f3 4889C7   		movq	%rax, %rdi
 538              	.LEHB11:
 539 01f6 E8B11400 		call	_ZZNK12_GLOBAL__N_128TestPassingTestHasNoFailures7RunImplEvEN11PassingTestD1Ev
 539      00
 540              	.LEHE11:
  26:TestTest.cpp  **** 	}
 541              		.loc 4 26 2 discriminator 5
 542 01fb 488D4580 		leaq	-128(%rbp), %rax
 543 01ff 4889C7   		movq	%rax, %rdi
 544              	.LEHB12:
 545 0202 E8000000 		call	_ZN17ScopedCurrentTestD1Ev
 545      00
 546              	.LEHE12:
 547              	.LEHB13:
 548              	.LBE8:
  27:TestTest.cpp  **** 
  28:TestTest.cpp  ****     CHECK_EQUAL(0, results.GetFailureCount());
 549              		.loc 4 28 5 discriminator 5
 550 0207 E8000000 		call	_ZN8UnitTest11CurrentTest7DetailsEv@PLT
 550      00
 551 020c 488B08   		movq	(%rax), %rcx
 552 020f 488D45B0 		leaq	-80(%rbp), %rax
 553 0213 BA1C0000 		movl	$28, %edx
 553      00
 554 0218 4889CE   		movq	%rcx, %rsi
 555 021b 4889C7   		movq	%rax, %rdi
 556 021e E8000000 		call	_ZN8UnitTest11TestDetailsC1ERKS0_i@PLT
 556      00
 557              		.loc 4 28 5 is_stmt 0 discriminator 4
 558 0223 488D4590 		leaq	-112(%rbp), %rax
 559 0227 4889C7   		movq	%rax, %rdi
 560 022a E8000000 		call	_ZNK8UnitTest11TestResults15GetFailureCountEv@PLT
 560      00
 561 022f 894580   		movl	%eax, -128(%rbp)
 562 0232 C7857CFF 		movl	$0, -132(%rbp)
 562      FFFF0000 
 562      0000
 563 023c E8000000 		call	_ZN8UnitTest11CurrentTest7ResultsEv@PLT
 563      00
 564              		.loc 4 28 5 discriminator 6
 565 0241 488B00   		movq	(%rax), %rax
 566 0244 488D4DB0 		leaq	-80(%rbp), %rcx
 567 0248 488D5580 		leaq	-128(%rbp), %rdx
 568 024c 488DB57C 		leaq	-132(%rbp), %rsi
 568      FFFFFF
 569 0253 4889C7   		movq	%rax, %rdi
 570 0256 E8000000 		call	_ZN8UnitTest10CheckEqualIiiEEvRNS_11TestResultsERKT_RKT0_RKNS_11TestDetailsE
 570      00
 571              	.LEHE13:
  29:TestTest.cpp  **** }
 572              		.loc 4 29 1 is_stmt 1
 573 025b E9970000 		jmp	.L23
 573      00
 574              	.L31:
 575 0260 F30F1EFA 		endbr64
 576              	.LBB9:
  25:TestTest.cpp  **** 	}
 577              		.loc 4 25 3
 578 0264 4889C3   		movq	%rax, %rbx
 579 0267 488D45B0 		leaq	-80(%rbp), %rax
 580 026b 4889C7   		movq	%rax, %rdi
 581 026e E8391400 		call	_ZZNK12_GLOBAL__N_128TestPassingTestHasNoFailures7RunImplEvEN11PassingTestD1Ev
 581      00
 582 0273 EB07     		jmp	.L25
 583              	.L30:
 584 0275 F30F1EFA 		endbr64
  26:TestTest.cpp  **** 
 585              		.loc 4 26 2
 586 0279 4889C3   		movq	%rax, %rbx
 587              	.L25:
 588 027c 488D4580 		leaq	-128(%rbp), %rax
 589 0280 4889C7   		movq	%rax, %rdi
 590 0283 E8000000 		call	_ZN17ScopedCurrentTestD1Ev
 590      00
 591 0288 4889D8   		movq	%rbx, %rax
 592 028b 4889C7   		movq	%rax, %rdi
 593              	.LEHB14:
 594 028e E8000000 		call	_Unwind_Resume@PLT
 594      00
 595              	.LEHE14:
 596              	.L32:
 597 0293 F30F1EFA 		endbr64
 598              	.LBE9:
  28:TestTest.cpp  **** }
 599              		.loc 4 28 5
 600 0297 4889C7   		movq	%rax, %rdi
 601 029a E8000000 		call	__cxa_begin_catch@PLT
 601      00
 602              	.LEHB15:
 603 029f E8000000 		call	_ZN8UnitTest11CurrentTest7ResultsEv@PLT
 603      00
  28:TestTest.cpp  **** }
 604              		.loc 4 28 5 is_stmt 0 discriminator 3
 605 02a4 488B18   		movq	(%rax), %rbx
 606 02a7 E8000000 		call	_ZN8UnitTest11CurrentTest7DetailsEv@PLT
 606      00
  28:TestTest.cpp  **** }
 607              		.loc 4 28 5 discriminator 13
 608 02ac 488B08   		movq	(%rax), %rcx
 609 02af 488D45B0 		leaq	-80(%rbp), %rax
 610 02b3 BA1C0000 		movl	$28, %edx
 610      00
 611 02b8 4889CE   		movq	%rcx, %rsi
 612 02bb 4889C7   		movq	%rax, %rdi
 613 02be E8000000 		call	_ZN8UnitTest11TestDetailsC1ERKS0_i@PLT
 613      00
  28:TestTest.cpp  **** }
 614              		.loc 4 28 5 discriminator 17
 615 02c3 488D45B0 		leaq	-80(%rbp), %rax
 616 02c7 488D1500 		leaq	.LC7(%rip), %rdx
 616      000000
 617 02ce 4889C6   		movq	%rax, %rsi
 618 02d1 4889DF   		movq	%rbx, %rdi
 619 02d4 E8000000 		call	_ZN8UnitTest11TestResults13OnTestFailureERKNS_11TestDetailsEPKc@PLT
 619      00
 620              	.LEHE15:
 621              	.LEHB16:
  28:TestTest.cpp  **** }
 622              		.loc 4 28 5 discriminator 19
 623 02d9 E8000000 		call	__cxa_end_catch@PLT
 623      00
 624              	.LEHE16:
 625              		.loc 4 29 1 is_stmt 1 discriminator 19
 626 02de EB17     		jmp	.L23
 627              	.L33:
 628 02e0 F30F1EFA 		endbr64
  28:TestTest.cpp  **** }
 629              		.loc 4 28 5
 630 02e4 4889C3   		movq	%rax, %rbx
 631 02e7 E8000000 		call	__cxa_end_catch@PLT
 631      00
 632 02ec 4889D8   		movq	%rbx, %rax
 633 02ef 4889C7   		movq	%rax, %rdi
 634              	.LEHB17:
 635 02f2 E8000000 		call	_Unwind_Resume@PLT
 635      00
 636              	.LEHE17:
 637              	.L23:
 638              		.loc 4 29 1
 639 02f7 488B45E8 		movq	-24(%rbp), %rax
 640 02fb 64482B04 		subq	%fs:40, %rax
 640      25280000 
 640      00
 641 0304 7405     		je	.L29
 642 0306 E8000000 		call	__stack_chk_fail@PLT
 642      00
 643              	.L29:
 644 030b 488B5DF8 		movq	-8(%rbp), %rbx
 645 030f C9       		leave
 646              		.cfi_def_cfa 7, 8
 647 0310 C3       		ret
 648              		.cfi_endproc
 649              	.LFE1153:
 650              		.section	.gcc_except_table
 651              		.align 4
 652              	.LLSDA1153:
 653 0020 FF       		.byte	0xff
 654 0021 9B       		.byte	0x9b
 655 0022 39       		.uleb128 .LLSDATT1153-.LLSDATTD1153
 656              	.LLSDATTD1153:
 657 0023 01       		.byte	0x1
 658 0024 31       		.uleb128 .LLSDACSE1153-.LLSDACSB1153
 659              	.LLSDACSB1153:
 660 0025 32       		.uleb128 .LEHB8-.LFB1153
 661 0026 1D       		.uleb128 .LEHE8-.LEHB8
 662 0027 00       		.uleb128 0
 663 0028 00       		.uleb128 0
 664 0029 56       		.uleb128 .LEHB9-.LFB1153
 665 002a 05       		.uleb128 .LEHE9-.LEHB9
 666 002b ED01     		.uleb128 .L30-.LFB1153
 667 002d 00       		.uleb128 0
 668 002e 62       		.uleb128 .LEHB10-.LFB1153
 669 002f 05       		.uleb128 .LEHE10-.LEHB10
 670 0030 D801     		.uleb128 .L31-.LFB1153
 671 0032 00       		.uleb128 0
 672 0033 6E       		.uleb128 .LEHB11-.LFB1153
 673 0034 05       		.uleb128 .LEHE11-.LEHB11
 674 0035 ED01     		.uleb128 .L30-.LFB1153
 675 0037 00       		.uleb128 0
 676 0038 7A       		.uleb128 .LEHB12-.LFB1153
 677 0039 05       		.uleb128 .LEHE12-.LEHB12
 678 003a 00       		.uleb128 0
 679 003b 00       		.uleb128 0
 680 003c 7F       		.uleb128 .LEHB13-.LFB1153
 681 003d 54       		.uleb128 .LEHE13-.LEHB13
 682 003e 8B02     		.uleb128 .L32-.LFB1153
 683 0040 01       		.uleb128 0x1
 684 0041 8602     		.uleb128 .LEHB14-.LFB1153
 685 0043 05       		.uleb128 .LEHE14-.LEHB14
 686 0044 00       		.uleb128 0
 687 0045 00       		.uleb128 0
 688 0046 9702     		.uleb128 .LEHB15-.LFB1153
 689 0048 3A       		.uleb128 .LEHE15-.LEHB15
 690 0049 D802     		.uleb128 .L33-.LFB1153
 691 004b 00       		.uleb128 0
 692 004c D102     		.uleb128 .LEHB16-.LFB1153
 693 004e 05       		.uleb128 .LEHE16-.LEHB16
 694 004f 00       		.uleb128 0
 695 0050 00       		.uleb128 0
 696 0051 EA02     		.uleb128 .LEHB17-.LFB1153
 697 0053 05       		.uleb128 .LEHE17-.LEHB17
 698 0054 00       		.uleb128 0
 699 0055 00       		.uleb128 0
 700              	.LLSDACSE1153:
 701 0056 01       		.byte	0x1
 702 0057 00       		.byte	0
 703              		.align 4
 704 0058 00000000 		.long	0
 705              	
 706              	.LLSDATT1153:
 707              		.text
 709              		.section	.rodata
 710              	.LC8:
 711 00b1 4661696C 		.string	"FailingTestHasFailures"
 711      696E6754 
 711      65737448 
 711      61734661 
 711      696C7572 
 712              		.text
 713 0311 90       		.align 2
 715              	_ZN12_GLOBAL__N_126TestFailingTestHasFailuresC2Ev:
 716              	.LFB1159:
  30:TestTest.cpp  **** 
  31:TestTest.cpp  **** 
  32:TestTest.cpp  **** TEST(FailingTestHasFailures)
 717              		.loc 4 32 1
 718              		.cfi_startproc
 719 0312 55       		pushq	%rbp
 720              		.cfi_def_cfa_offset 16
 721              		.cfi_offset 6, -16
 722 0313 4889E5   		movq	%rsp, %rbp
 723              		.cfi_def_cfa_register 6
 724 0316 53       		pushq	%rbx
 725 0317 4883EC18 		subq	$24, %rsp
 726              		.cfi_offset 3, -24
 727 031b 48897DE8 		movq	%rdi, -24(%rbp)
 728              	.LBB10:
 729              		.loc 4 32 1
 730 031f 488B5DE8 		movq	-24(%rbp), %rbx
 731 0323 E8000000 		call	_ZN13UnitTestSuite12GetSuiteNameEv
 731      00
 732 0328 4889C2   		movq	%rax, %rdx
 733 032b 41B82000 		movl	$32, %r8d
 733      0000
 734 0331 488D0500 		leaq	.LC1(%rip), %rax
 734      000000
 735 0338 4889C1   		movq	%rax, %rcx
 736 033b 488D0500 		leaq	.LC8(%rip), %rax
 736      000000
 737 0342 4889C6   		movq	%rax, %rsi
 738 0345 4889DF   		movq	%rbx, %rdi
 739 0348 E8000000 		call	_ZN8UnitTest4TestC2EPKcS2_S2_i@PLT
 739      00
 740 034d 488D1500 		leaq	16+_ZTVN12_GLOBAL__N_126TestFailingTestHasFailuresE(%rip), %rdx
 740      000000
 741 0354 488B45E8 		movq	-24(%rbp), %rax
 742 0358 488910   		movq	%rdx, (%rax)
 743              	.LBE10:
 744 035b 90       		nop
 745 035c 488B5DF8 		movq	-8(%rbp), %rbx
 746 0360 C9       		leave
 747              		.cfi_def_cfa 7, 8
 748 0361 C3       		ret
 749              		.cfi_endproc
 750              	.LFE1159:
 752              		.set	_ZN12_GLOBAL__N_126TestFailingTestHasFailuresC1Ev,_ZN12_GLOBAL__N_126TestFailingTestHasFailur
 753              		.local	_ZN12_GLOBAL__N_134testFailingTestHasFailuresInstanceE
 754              		.comm	_ZN12_GLOBAL__N_134testFailingTestHasFailuresInstanceE,56,32
 755              		.local	_ZN12_GLOBAL__N_127adderFailingTestHasFailuresE
 756              		.comm	_ZN12_GLOBAL__N_127adderFailingTestHasFailuresE,1,1
 757              		.section	.rodata
 758              	.LC9:
 759 00c8 6661696C 		.string	"failing"
 759      696E6700 
 760              		.text
 761              		.align 2
 763              	_ZZNK12_GLOBAL__N_126TestFailingTestHasFailures7RunImplEvEN11FailingTestC2Ev:
 764              	.LFB1163:
  33:TestTest.cpp  **** {
  34:TestTest.cpp  ****     class FailingTest : public Test
  35:TestTest.cpp  ****     {
  36:TestTest.cpp  ****     public:
  37:TestTest.cpp  ****         FailingTest() : Test("failing") {}
 765              		.loc 4 37 9
 766              		.cfi_startproc
 767 0362 55       		pushq	%rbp
 768              		.cfi_def_cfa_offset 16
 769              		.cfi_offset 6, -16
 770 0363 4889E5   		movq	%rsp, %rbp
 771              		.cfi_def_cfa_register 6
 772 0366 4883EC10 		subq	$16, %rsp
 773 036a 48897DF8 		movq	%rdi, -8(%rbp)
 774              	.LBB11:
 775              		.loc 4 37 39
 776 036e 488B45F8 		movq	-8(%rbp), %rax
 777 0372 41B80000 		movl	$0, %r8d
 777      0000
 778 0378 488D1500 		leaq	.LC3(%rip), %rdx
 778      000000
 779 037f 4889D1   		movq	%rdx, %rcx
 780 0382 488D1500 		leaq	.LC0(%rip), %rdx
 780      000000
 781 0389 488D3500 		leaq	.LC9(%rip), %rsi
 781      000000
 782 0390 4889C7   		movq	%rax, %rdi
 783 0393 E8000000 		call	_ZN8UnitTest4TestC2EPKcS2_S2_i@PLT
 783      00
 784 0398 488D1500 		leaq	16+_ZTVZNK12_GLOBAL__N_126TestFailingTestHasFailures7RunImplEvE11FailingTest(%rip), %rdx
 784      000000
 785 039f 488B45F8 		movq	-8(%rbp), %rax
 786 03a3 488910   		movq	%rdx, (%rax)
 787              	.LBE11:
 788              		.loc 4 37 42
 789 03a6 90       		nop
 790 03a7 C9       		leave
 791              		.cfi_def_cfa 7, 8
 792 03a8 C3       		ret
 793              		.cfi_endproc
 794              	.LFE1163:
 796              		.set	_ZZNK12_GLOBAL__N_126TestFailingTestHasFailures7RunImplEvEN11FailingTestC1Ev,_ZZNK12_GLOBAL__
 797              		.section	.rodata
 798              	.LC10:
 799 00d0 66616C73 		.string	"false"
 799      6500
 800 00d6 0000     		.align 8
 801              	.LC11:
 802 00d8 556E6861 		.string	"Unhandled exception in CHECK(false)"
 802      6E646C65 
 802      64206578 
 802      63657074 
 802      696F6E20 
 803              		.text
 804 03a9 90       		.align 2
 806              	_ZZNK12_GLOBAL__N_126TestFailingTestHasFailures7RunImplEvENK11FailingTest7RunImplEv:
 807              	.LFB1165:
  38:TestTest.cpp  ****         virtual void RunImpl() const
 808              		.loc 4 38 22
 809              		.cfi_startproc
 810              		.cfi_personality 0x9b,DW.ref.__gxx_personality_v0
 811              		.cfi_lsda 0x1b,.LLSDA1165
 812 03aa F30F1EFA 		endbr64
 813 03ae 55       		pushq	%rbp
 814              		.cfi_def_cfa_offset 16
 815              		.cfi_offset 6, -16
 816 03af 4889E5   		movq	%rsp, %rbp
 817              		.cfi_def_cfa_register 6
 818 03b2 53       		pushq	%rbx
 819 03b3 4883EC48 		subq	$72, %rsp
 820              		.cfi_offset 3, -24
 821 03b7 48897DB8 		movq	%rdi, -72(%rbp)
 822              		.loc 4 38 22
 823 03bb 64488B04 		movq	%fs:40, %rax
 823      25280000 
 823      00
 824 03c4 488945E8 		movq	%rax, -24(%rbp)
 825 03c8 31C0     		xorl	%eax, %eax
  39:TestTest.cpp  ****         {
  40:TestTest.cpp  ****             CHECK(false);
 826              		.loc 4 40 13
 827 03ca BF000000 		movl	$0, %edi
 827      00
 828 03cf E8000000 		call	_ZN8UnitTest5CheckIbEEbT_
 828      00
 829 03d4 83F001   		xorl	$1, %eax
 830 03d7 84C0     		testb	%al, %al
 831 03d9 0F84A000 		je	.L43
 831      0000
 832              	.LEHB18:
 833              		.loc 4 40 13 is_stmt 0 discriminator 1
 834 03df E8000000 		call	_ZN8UnitTest11CurrentTest7ResultsEv@PLT
 834      00
 835 03e4 488B18   		movq	(%rax), %rbx
 836 03e7 E8000000 		call	_ZN8UnitTest11CurrentTest7DetailsEv@PLT
 836      00
 837              		.loc 4 40 13 discriminator 3
 838 03ec 488B08   		movq	(%rax), %rcx
 839 03ef 488D45C0 		leaq	-64(%rbp), %rax
 840 03f3 BA280000 		movl	$40, %edx
 840      00
 841 03f8 4889CE   		movq	%rcx, %rsi
 842 03fb 4889C7   		movq	%rax, %rdi
 843 03fe E8000000 		call	_ZN8UnitTest11TestDetailsC1ERKS0_i@PLT
 843      00
 844              		.loc 4 40 13 discriminator 7
 845 0403 488D45C0 		leaq	-64(%rbp), %rax
 846 0407 488D1500 		leaq	.LC10(%rip), %rdx
 846      000000
 847 040e 4889C6   		movq	%rax, %rsi
 848 0411 4889DF   		movq	%rbx, %rdi
 849 0414 E8000000 		call	_ZN8UnitTest11TestResults13OnTestFailureERKNS_11TestDetailsEPKc@PLT
 849      00
 850              	.LEHE18:
  41:TestTest.cpp  ****         }
 851              		.loc 4 41 9 is_stmt 1
 852 0419 EB64     		jmp	.L43
 853              	.L41:
 854 041b F30F1EFA 		endbr64
  40:TestTest.cpp  ****         }
 855              		.loc 4 40 13
 856 041f 4889C7   		movq	%rax, %rdi
 857 0422 E8000000 		call	__cxa_begin_catch@PLT
 857      00
 858              	.LEHB19:
 859 0427 E8000000 		call	_ZN8UnitTest11CurrentTest7ResultsEv@PLT
 859      00
  40:TestTest.cpp  ****         }
 860              		.loc 4 40 13 is_stmt 0 discriminator 6
 861 042c 488B18   		movq	(%rax), %rbx
 862 042f E8000000 		call	_ZN8UnitTest11CurrentTest7DetailsEv@PLT
 862      00
  40:TestTest.cpp  ****         }
 863              		.loc 4 40 13 discriminator 12
 864 0434 488B08   		movq	(%rax), %rcx
 865 0437 488D45C0 		leaq	-64(%rbp), %rax
 866 043b BA280000 		movl	$40, %edx
 866      00
 867 0440 4889CE   		movq	%rcx, %rsi
 868 0443 4889C7   		movq	%rax, %rdi
 869 0446 E8000000 		call	_ZN8UnitTest11TestDetailsC1ERKS0_i@PLT
 869      00
  40:TestTest.cpp  ****         }
 870              		.loc 4 40 13 discriminator 16
 871 044b 488D45C0 		leaq	-64(%rbp), %rax
 872 044f 488D1500 		leaq	.LC11(%rip), %rdx
 872      000000
 873 0456 4889C6   		movq	%rax, %rsi
 874 0459 4889DF   		movq	%rbx, %rdi
 875 045c E8000000 		call	_ZN8UnitTest11TestResults13OnTestFailureERKNS_11TestDetailsEPKc@PLT
 875      00
 876              	.LEHE19:
 877              	.LEHB20:
  40:TestTest.cpp  ****         }
 878              		.loc 4 40 13 discriminator 18
 879 0461 E8000000 		call	__cxa_end_catch@PLT
 879      00
 880              	.LEHE20:
 881              		.loc 4 41 9 is_stmt 1 discriminator 18
 882 0466 EB17     		jmp	.L43
 883              	.L42:
 884 0468 F30F1EFA 		endbr64
  40:TestTest.cpp  ****         }
 885              		.loc 4 40 13
 886 046c 4889C3   		movq	%rax, %rbx
 887 046f E8000000 		call	__cxa_end_catch@PLT
 887      00
 888 0474 4889D8   		movq	%rbx, %rax
 889 0477 4889C7   		movq	%rax, %rdi
 890              	.LEHB21:
 891 047a E8000000 		call	_Unwind_Resume@PLT
 891      00
 892              	.LEHE21:
 893              	.L43:
 894              		.loc 4 41 9
 895 047f 90       		nop
 896 0480 488B45E8 		movq	-24(%rbp), %rax
 897 0484 64482B04 		subq	%fs:40, %rax
 897      25280000 
 897      00
 898 048d 7405     		je	.L40
 899 048f E8000000 		call	__stack_chk_fail@PLT
 899      00
 900              	.L40:
 901 0494 488B5DF8 		movq	-8(%rbp), %rbx
 902 0498 C9       		leave
 903              		.cfi_def_cfa 7, 8
 904 0499 C3       		ret
 905              		.cfi_endproc
 906              	.LFE1165:
 907              		.section	.gcc_except_table
 908              		.align 4
 909              	.LLSDA1165:
 910 005c FF       		.byte	0xff
 911 005d 9B       		.byte	0x9b
 912 005e 1D       		.uleb128 .LLSDATT1165-.LLSDATTD1165
 913              	.LLSDATTD1165:
 914 005f 01       		.byte	0x1
 915 0060 13       		.uleb128 .LLSDACSE1165-.LLSDACSB1165
 916              	.LLSDACSB1165:
 917 0061 35       		.uleb128 .LEHB18-.LFB1165
 918 0062 3A       		.uleb128 .LEHE18-.LEHB18
 919 0063 71       		.uleb128 .L41-.LFB1165
 920 0064 01       		.uleb128 0x1
 921 0065 7D       		.uleb128 .LEHB19-.LFB1165
 922 0066 3A       		.uleb128 .LEHE19-.LEHB19
 923 0067 BE01     		.uleb128 .L42-.LFB1165
 924 0069 00       		.uleb128 0
 925 006a B701     		.uleb128 .LEHB20-.LFB1165
 926 006c 05       		.uleb128 .LEHE20-.LEHB20
 927 006d 00       		.uleb128 0
 928 006e 00       		.uleb128 0
 929 006f D001     		.uleb128 .LEHB21-.LFB1165
 930 0071 05       		.uleb128 .LEHE21-.LEHB21
 931 0072 00       		.uleb128 0
 932 0073 00       		.uleb128 0
 933              	.LLSDACSE1165:
 934 0074 01       		.byte	0x1
 935 0075 00       		.byte	0
 936 0076 0000     		.align 4
 937 0078 00000000 		.long	0
 938              	
 939              	.LLSDATT1165:
 940              		.text
 942              		.section	.rodata
 943 00fc 00000000 		.align 8
 944              	.LC12:
 945 0100 556E6861 		.string	"Unhandled exception in CHECK_EQUAL(1, results.GetFailureCount())"
 945      6E646C65 
 945      64206578 
 945      63657074 
 945      696F6E20 
 946              		.text
 947              		.align 2
 949              	_ZNK12_GLOBAL__N_126TestFailingTestHasFailures7RunImplEv:
 950              	.LFB1161:
  33:TestTest.cpp  ****     class FailingTest : public Test
 951              		.loc 4 33 1
 952              		.cfi_startproc
 953              		.cfi_personality 0x9b,DW.ref.__gxx_personality_v0
 954              		.cfi_lsda 0x1b,.LLSDA1161
 955 049a F30F1EFA 		endbr64
 956 049e 55       		pushq	%rbp
 957              		.cfi_def_cfa_offset 16
 958              		.cfi_offset 6, -16
 959 049f 4889E5   		movq	%rsp, %rbp
 960              		.cfi_def_cfa_register 6
 961 04a2 53       		pushq	%rbx
 962 04a3 4881EC98 		subq	$152, %rsp
 962      000000
 963              		.cfi_offset 3, -24
 964 04aa 4889BD68 		movq	%rdi, -152(%rbp)
 964      FFFFFF
  33:TestTest.cpp  ****     class FailingTest : public Test
 965              		.loc 4 33 1
 966 04b1 64488B04 		movq	%fs:40, %rax
 966      25280000 
 966      00
 967 04ba 488945E8 		movq	%rax, -24(%rbp)
 968 04be 31C0     		xorl	%eax, %eax
  42:TestTest.cpp  ****     };
  43:TestTest.cpp  **** 
  44:TestTest.cpp  ****     TestResults results;
 969              		.loc 4 44 17
 970 04c0 488D4590 		leaq	-112(%rbp), %rax
 971 04c4 BE000000 		movl	$0, %esi
 971      00
 972 04c9 4889C7   		movq	%rax, %rdi
 973              	.LEHB22:
 974 04cc E8000000 		call	_ZN8UnitTest11TestResultsC1EPNS_12TestReporterE@PLT
 974      00
 975              	.LBB12:
  45:TestTest.cpp  **** 	{
  46:TestTest.cpp  **** 		ScopedCurrentTest scopedResults(results);
 976              		.loc 4 46 42
 977 04d1 488D4D90 		leaq	-112(%rbp), %rcx
 978 04d5 488D4580 		leaq	-128(%rbp), %rax
 979 04d9 BA000000 		movl	$0, %edx
 979      00
 980 04de 4889CE   		movq	%rcx, %rsi
 981 04e1 4889C7   		movq	%rax, %rdi
 982 04e4 E8000000 		call	_ZN17ScopedCurrentTestC1ERN8UnitTest11TestResultsEPKNS0_11TestDetailsE
 982      00
 983              	.LEHE22:
  47:TestTest.cpp  **** 		FailingTest().Run();
 984              		.loc 4 47 3
 985 04e9 488D45B0 		leaq	-80(%rbp), %rax
 986 04ed 4889C7   		movq	%rax, %rdi
 987              	.LEHB23:
 988 04f0 E86DFEFF 		call	_ZZNK12_GLOBAL__N_126TestFailingTestHasFailures7RunImplEvEN11FailingTestC1Ev
 988      FF
 989              	.LEHE23:
 990              		.loc 4 47 20 discriminator 1
 991 04f5 488D45B0 		leaq	-80(%rbp), %rax
 992 04f9 4889C7   		movq	%rax, %rdi
 993              	.LEHB24:
 994 04fc E8000000 		call	_ZN8UnitTest4Test3RunEv@PLT
 994      00
 995              	.LEHE24:
 996              		.loc 4 47 3 discriminator 3
 997 0501 488D45B0 		leaq	-80(%rbp), %rax
 998 0505 4889C7   		movq	%rax, %rdi
 999              	.LEHB25:
 1000 0508 E8A31000 		call	_ZZNK12_GLOBAL__N_126TestFailingTestHasFailures7RunImplEvEN11FailingTestD1Ev
 1000      00
 1001              	.LEHE25:
  48:TestTest.cpp  **** 	}
 1002              		.loc 4 48 2 discriminator 5
 1003 050d 488D4580 		leaq	-128(%rbp), %rax
 1004 0511 4889C7   		movq	%rax, %rdi
 1005              	.LEHB26:
 1006 0514 E8000000 		call	_ZN17ScopedCurrentTestD1Ev
 1006      00
 1007              	.LEHE26:
 1008              	.LEHB27:
 1009              	.LBE12:
  49:TestTest.cpp  **** 
  50:TestTest.cpp  ****     CHECK_EQUAL(1, results.GetFailureCount());
 1010              		.loc 4 50 5 discriminator 5
 1011 0519 E8000000 		call	_ZN8UnitTest11CurrentTest7DetailsEv@PLT
 1011      00
 1012 051e 488B08   		movq	(%rax), %rcx
 1013 0521 488D45B0 		leaq	-80(%rbp), %rax
 1014 0525 BA320000 		movl	$50, %edx
 1014      00
 1015 052a 4889CE   		movq	%rcx, %rsi
 1016 052d 4889C7   		movq	%rax, %rdi
 1017 0530 E8000000 		call	_ZN8UnitTest11TestDetailsC1ERKS0_i@PLT
 1017      00
 1018              		.loc 4 50 5 is_stmt 0 discriminator 4
 1019 0535 488D4590 		leaq	-112(%rbp), %rax
 1020 0539 4889C7   		movq	%rax, %rdi
 1021 053c E8000000 		call	_ZNK8UnitTest11TestResults15GetFailureCountEv@PLT
 1021      00
 1022 0541 894580   		movl	%eax, -128(%rbp)
 1023 0544 C7857CFF 		movl	$1, -132(%rbp)
 1023      FFFF0100 
 1023      0000
 1024 054e E8000000 		call	_ZN8UnitTest11CurrentTest7ResultsEv@PLT
 1024      00
 1025              		.loc 4 50 5 discriminator 6
 1026 0553 488B00   		movq	(%rax), %rax
 1027 0556 488D4DB0 		leaq	-80(%rbp), %rcx
 1028 055a 488D5580 		leaq	-128(%rbp), %rdx
 1029 055e 488DB57C 		leaq	-132(%rbp), %rsi
 1029      FFFFFF
 1030 0565 4889C7   		movq	%rax, %rdi
 1031 0568 E8000000 		call	_ZN8UnitTest10CheckEqualIiiEEvRNS_11TestResultsERKT_RKT0_RKNS_11TestDetailsE
 1031      00
 1032              	.LEHE27:
  51:TestTest.cpp  **** }
 1033              		.loc 4 51 1 is_stmt 1
 1034 056d E9970000 		jmp	.L44
 1034      00
 1035              	.L52:
 1036 0572 F30F1EFA 		endbr64
 1037              	.LBB13:
  47:TestTest.cpp  **** 	}
 1038              		.loc 4 47 3
 1039 0576 4889C3   		movq	%rax, %rbx
 1040 0579 488D45B0 		leaq	-80(%rbp), %rax
 1041 057d 4889C7   		movq	%rax, %rdi
 1042 0580 E82B1000 		call	_ZZNK12_GLOBAL__N_126TestFailingTestHasFailures7RunImplEvEN11FailingTestD1Ev
 1042      00
 1043 0585 EB07     		jmp	.L46
 1044              	.L51:
 1045 0587 F30F1EFA 		endbr64
  48:TestTest.cpp  **** 
 1046              		.loc 4 48 2
 1047 058b 4889C3   		movq	%rax, %rbx
 1048              	.L46:
 1049 058e 488D4580 		leaq	-128(%rbp), %rax
 1050 0592 4889C7   		movq	%rax, %rdi
 1051 0595 E8000000 		call	_ZN17ScopedCurrentTestD1Ev
 1051      00
 1052 059a 4889D8   		movq	%rbx, %rax
 1053 059d 4889C7   		movq	%rax, %rdi
 1054              	.LEHB28:
 1055 05a0 E8000000 		call	_Unwind_Resume@PLT
 1055      00
 1056              	.LEHE28:
 1057              	.L53:
 1058 05a5 F30F1EFA 		endbr64
 1059              	.LBE13:
  50:TestTest.cpp  **** }
 1060              		.loc 4 50 5
 1061 05a9 4889C7   		movq	%rax, %rdi
 1062 05ac E8000000 		call	__cxa_begin_catch@PLT
 1062      00
 1063              	.LEHB29:
 1064 05b1 E8000000 		call	_ZN8UnitTest11CurrentTest7ResultsEv@PLT
 1064      00
  50:TestTest.cpp  **** }
 1065              		.loc 4 50 5 is_stmt 0 discriminator 3
 1066 05b6 488B18   		movq	(%rax), %rbx
 1067 05b9 E8000000 		call	_ZN8UnitTest11CurrentTest7DetailsEv@PLT
 1067      00
  50:TestTest.cpp  **** }
 1068              		.loc 4 50 5 discriminator 13
 1069 05be 488B08   		movq	(%rax), %rcx
 1070 05c1 488D45B0 		leaq	-80(%rbp), %rax
 1071 05c5 BA320000 		movl	$50, %edx
 1071      00
 1072 05ca 4889CE   		movq	%rcx, %rsi
 1073 05cd 4889C7   		movq	%rax, %rdi
 1074 05d0 E8000000 		call	_ZN8UnitTest11TestDetailsC1ERKS0_i@PLT
 1074      00
  50:TestTest.cpp  **** }
 1075              		.loc 4 50 5 discriminator 17
 1076 05d5 488D45B0 		leaq	-80(%rbp), %rax
 1077 05d9 488D1500 		leaq	.LC12(%rip), %rdx
 1077      000000
 1078 05e0 4889C6   		movq	%rax, %rsi
 1079 05e3 4889DF   		movq	%rbx, %rdi
 1080 05e6 E8000000 		call	_ZN8UnitTest11TestResults13OnTestFailureERKNS_11TestDetailsEPKc@PLT
 1080      00
 1081              	.LEHE29:
 1082              	.LEHB30:
  50:TestTest.cpp  **** }
 1083              		.loc 4 50 5 discriminator 19
 1084 05eb E8000000 		call	__cxa_end_catch@PLT
 1084      00
 1085              	.LEHE30:
 1086              		.loc 4 51 1 is_stmt 1 discriminator 19
 1087 05f0 EB17     		jmp	.L44
 1088              	.L54:
 1089 05f2 F30F1EFA 		endbr64
  50:TestTest.cpp  **** }
 1090              		.loc 4 50 5
 1091 05f6 4889C3   		movq	%rax, %rbx
 1092 05f9 E8000000 		call	__cxa_end_catch@PLT
 1092      00
 1093 05fe 4889D8   		movq	%rbx, %rax
 1094 0601 4889C7   		movq	%rax, %rdi
 1095              	.LEHB31:
 1096 0604 E8000000 		call	_Unwind_Resume@PLT
 1096      00
 1097              	.LEHE31:
 1098              	.L44:
 1099              		.loc 4 51 1
 1100 0609 488B45E8 		movq	-24(%rbp), %rax
 1101 060d 64482B04 		subq	%fs:40, %rax
 1101      25280000 
 1101      00
 1102 0616 7405     		je	.L50
 1103 0618 E8000000 		call	__stack_chk_fail@PLT
 1103      00
 1104              	.L50:
 1105 061d 488B5DF8 		movq	-8(%rbp), %rbx
 1106 0621 C9       		leave
 1107              		.cfi_def_cfa 7, 8
 1108 0622 C3       		ret
 1109              		.cfi_endproc
 1110              	.LFE1161:
 1111              		.section	.gcc_except_table
 1112              		.align 4
 1113              	.LLSDA1161:
 1114 007c FF       		.byte	0xff
 1115 007d 9B       		.byte	0x9b
 1116 007e 39       		.uleb128 .LLSDATT1161-.LLSDATTD1161
 1117              	.LLSDATTD1161:
 1118 007f 01       		.byte	0x1
 1119 0080 31       		.uleb128 .LLSDACSE1161-.LLSDACSB1161
 1120              	.LLSDACSB1161:
 1121 0081 32       		.uleb128 .LEHB22-.LFB1161
 1122 0082 1D       		.uleb128 .LEHE22-.LEHB22
 1123 0083 00       		.uleb128 0
 1124 0084 00       		.uleb128 0
 1125 0085 56       		.uleb128 .LEHB23-.LFB1161
 1126 0086 05       		.uleb128 .LEHE23-.LEHB23
 1127 0087 ED01     		.uleb128 .L51-.LFB1161
 1128 0089 00       		.uleb128 0
 1129 008a 62       		.uleb128 .LEHB24-.LFB1161
 1130 008b 05       		.uleb128 .LEHE24-.LEHB24
 1131 008c D801     		.uleb128 .L52-.LFB1161
 1132 008e 00       		.uleb128 0
 1133 008f 6E       		.uleb128 .LEHB25-.LFB1161
 1134 0090 05       		.uleb128 .LEHE25-.LEHB25
 1135 0091 ED01     		.uleb128 .L51-.LFB1161
 1136 0093 00       		.uleb128 0
 1137 0094 7A       		.uleb128 .LEHB26-.LFB1161
 1138 0095 05       		.uleb128 .LEHE26-.LEHB26
 1139 0096 00       		.uleb128 0
 1140 0097 00       		.uleb128 0
 1141 0098 7F       		.uleb128 .LEHB27-.LFB1161
 1142 0099 54       		.uleb128 .LEHE27-.LEHB27
 1143 009a 8B02     		.uleb128 .L53-.LFB1161
 1144 009c 01       		.uleb128 0x1
 1145 009d 8602     		.uleb128 .LEHB28-.LFB1161
 1146 009f 05       		.uleb128 .LEHE28-.LEHB28
 1147 00a0 00       		.uleb128 0
 1148 00a1 00       		.uleb128 0
 1149 00a2 9702     		.uleb128 .LEHB29-.LFB1161
 1150 00a4 3A       		.uleb128 .LEHE29-.LEHB29
 1151 00a5 D802     		.uleb128 .L54-.LFB1161
 1152 00a7 00       		.uleb128 0
 1153 00a8 D102     		.uleb128 .LEHB30-.LFB1161
 1154 00aa 05       		.uleb128 .LEHE30-.LEHB30
 1155 00ab 00       		.uleb128 0
 1156 00ac 00       		.uleb128 0
 1157 00ad EA02     		.uleb128 .LEHB31-.LFB1161
 1158 00af 05       		.uleb128 .LEHE31-.LEHB31
 1159 00b0 00       		.uleb128 0
 1160 00b1 00       		.uleb128 0
 1161              	.LLSDACSE1161:
 1162 00b2 01       		.byte	0x1
 1163 00b3 00       		.byte	0
 1164              		.align 4
 1165 00b4 00000000 		.long	0
 1166              	
 1167              	.LLSDATT1161:
 1168              		.text
 1170              		.section	.rodata
 1171 0141 00000000 		.align 8
 1171      000000
 1172              	.LC13:
 1173 0148 5468726F 		.string	"ThrowingTestsAreReportedAsFailures"
 1173      77696E67 
 1173      54657374 
 1173      73417265 
 1173      5265706F 
 1174              		.text
 1175 0623 90       		.align 2
 1177              	_ZN12_GLOBAL__N_138TestThrowingTestsAreReportedAsFailuresC2Ev:
 1178              	.LFB1167:
  52:TestTest.cpp  **** 
  53:TestTest.cpp  **** 
  54:TestTest.cpp  **** TEST(ThrowingTestsAreReportedAsFailures)
 1179              		.loc 4 54 1
 1180              		.cfi_startproc
 1181 0624 55       		pushq	%rbp
 1182              		.cfi_def_cfa_offset 16
 1183              		.cfi_offset 6, -16
 1184 0625 4889E5   		movq	%rsp, %rbp
 1185              		.cfi_def_cfa_register 6
 1186 0628 53       		pushq	%rbx
 1187 0629 4883EC18 		subq	$24, %rsp
 1188              		.cfi_offset 3, -24
 1189 062d 48897DE8 		movq	%rdi, -24(%rbp)
 1190              	.LBB14:
 1191              		.loc 4 54 1
 1192 0631 488B5DE8 		movq	-24(%rbp), %rbx
 1193 0635 E8000000 		call	_ZN13UnitTestSuite12GetSuiteNameEv
 1193      00
 1194 063a 4889C2   		movq	%rax, %rdx
 1195 063d 41B83600 		movl	$54, %r8d
 1195      0000
 1196 0643 488D0500 		leaq	.LC1(%rip), %rax
 1196      000000
 1197 064a 4889C1   		movq	%rax, %rcx
 1198 064d 488D0500 		leaq	.LC13(%rip), %rax
 1198      000000
 1199 0654 4889C6   		movq	%rax, %rsi
 1200 0657 4889DF   		movq	%rbx, %rdi
 1201 065a E8000000 		call	_ZN8UnitTest4TestC2EPKcS2_S2_i@PLT
 1201      00
 1202 065f 488D1500 		leaq	16+_ZTVN12_GLOBAL__N_138TestThrowingTestsAreReportedAsFailuresE(%rip), %rdx
 1202      000000
 1203 0666 488B45E8 		movq	-24(%rbp), %rax
 1204 066a 488910   		movq	%rdx, (%rax)
 1205              	.LBE14:
 1206 066d 90       		nop
 1207 066e 488B5DF8 		movq	-8(%rbp), %rbx
 1208 0672 C9       		leave
 1209              		.cfi_def_cfa 7, 8
 1210 0673 C3       		ret
 1211              		.cfi_endproc
 1212              	.LFE1167:
 1214              		.set	_ZN12_GLOBAL__N_138TestThrowingTestsAreReportedAsFailuresC1Ev,_ZN12_GLOBAL__N_138TestThrowing
 1215              		.local	_ZN12_GLOBAL__N_146testThrowingTestsAreReportedAsFailuresInstanceE
 1216              		.comm	_ZN12_GLOBAL__N_146testThrowingTestsAreReportedAsFailuresInstanceE,56,32
 1217              		.local	_ZN12_GLOBAL__N_139adderThrowingTestsAreReportedAsFailuresE
 1218              		.comm	_ZN12_GLOBAL__N_139adderThrowingTestsAreReportedAsFailuresE,1,1
 1219              		.section	.rodata
 1220              	.LC14:
 1221 016b 7468726F 		.string	"throwing"
 1221      77696E67 
 1221      00
 1222              		.text
 1223              		.align 2
 1225              	_ZZNK12_GLOBAL__N_138TestThrowingTestsAreReportedAsFailures7RunImplEvEN12CrashingTestC2Ev:
 1226              	.LFB1171:
  55:TestTest.cpp  **** {
  56:TestTest.cpp  ****     class CrashingTest : public Test
  57:TestTest.cpp  ****     {
  58:TestTest.cpp  ****     public:
  59:TestTest.cpp  ****         CrashingTest() : Test("throwing") {}
 1227              		.loc 4 59 9
 1228              		.cfi_startproc
 1229 0674 55       		pushq	%rbp
 1230              		.cfi_def_cfa_offset 16
 1231              		.cfi_offset 6, -16
 1232 0675 4889E5   		movq	%rsp, %rbp
 1233              		.cfi_def_cfa_register 6
 1234 0678 4883EC10 		subq	$16, %rsp
 1235 067c 48897DF8 		movq	%rdi, -8(%rbp)
 1236              	.LBB15:
 1237              		.loc 4 59 41
 1238 0680 488B45F8 		movq	-8(%rbp), %rax
 1239 0684 41B80000 		movl	$0, %r8d
 1239      0000
 1240 068a 488D1500 		leaq	.LC3(%rip), %rdx
 1240      000000
 1241 0691 4889D1   		movq	%rdx, %rcx
 1242 0694 488D1500 		leaq	.LC0(%rip), %rdx
 1242      000000
 1243 069b 488D3500 		leaq	.LC14(%rip), %rsi
 1243      000000
 1244 06a2 4889C7   		movq	%rax, %rdi
 1245 06a5 E8000000 		call	_ZN8UnitTest4TestC2EPKcS2_S2_i@PLT
 1245      00
 1246 06aa 488D1500 		leaq	16+_ZTVZNK12_GLOBAL__N_138TestThrowingTestsAreReportedAsFailures7RunImplEvE12CrashingTest(%ri
 1246      000000
 1247 06b1 488B45F8 		movq	-8(%rbp), %rax
 1248 06b5 488910   		movq	%rdx, (%rax)
 1249              	.LBE15:
 1250              		.loc 4 59 44
 1251 06b8 90       		nop
 1252 06b9 C9       		leave
 1253              		.cfi_def_cfa 7, 8
 1254 06ba C3       		ret
 1255              		.cfi_endproc
 1256              	.LFE1171:
 1258              		.set	_ZZNK12_GLOBAL__N_138TestThrowingTestsAreReportedAsFailures7RunImplEvEN12CrashingTestC1Ev,_ZZ
 1259              		.section	.rodata
 1260              	.LC15:
 1261 0174 426C6168 		.string	"Blah"
 1261      00
 1262              		.text
 1263 06bb 90       		.align 2
 1265              	_ZZNK12_GLOBAL__N_138TestThrowingTestsAreReportedAsFailures7RunImplEvENK12CrashingTest7RunImplEv:
 1266              	.LFB1173:
  60:TestTest.cpp  ****         virtual void RunImpl() const
 1267              		.loc 4 60 22
 1268              		.cfi_startproc
 1269 06bc F30F1EFA 		endbr64
 1270 06c0 55       		pushq	%rbp
 1271              		.cfi_def_cfa_offset 16
 1272              		.cfi_offset 6, -16
 1273 06c1 4889E5   		movq	%rsp, %rbp
 1274              		.cfi_def_cfa_register 6
 1275 06c4 4883EC10 		subq	$16, %rsp
 1276 06c8 48897DF8 		movq	%rdi, -8(%rbp)
  61:TestTest.cpp  ****         {
  62:TestTest.cpp  ****             throw "Blah";
 1277              		.loc 4 62 19
 1278 06cc BF080000 		movl	$8, %edi
 1278      00
 1279 06d1 E8000000 		call	__cxa_allocate_exception@PLT
 1279      00
 1280              		.loc 4 62 13
 1281 06d6 488D1500 		leaq	.LC15(%rip), %rdx
 1281      000000
 1282 06dd 488910   		movq	%rdx, (%rax)
 1283              		.loc 4 62 19
 1284 06e0 BA000000 		movl	$0, %edx
 1284      00
 1285 06e5 488D0D00 		leaq	_ZTIPKc(%rip), %rcx
 1285      000000
 1286 06ec 4889CE   		movq	%rcx, %rsi
 1287 06ef 4889C7   		movq	%rax, %rdi
 1288 06f2 E8000000 		call	__cxa_throw@PLT
 1288      00
 1289              		.cfi_endproc
 1290              	.LFE1173:
 1292 06f7 90       		.align 2
 1294              	_ZNK12_GLOBAL__N_138TestThrowingTestsAreReportedAsFailures7RunImplEv:
 1295              	.LFB1169:
  55:TestTest.cpp  ****     class CrashingTest : public Test
 1296              		.loc 4 55 1
 1297              		.cfi_startproc
 1298              		.cfi_personality 0x9b,DW.ref.__gxx_personality_v0
 1299              		.cfi_lsda 0x1b,.LLSDA1169
 1300 06f8 F30F1EFA 		endbr64
 1301 06fc 55       		pushq	%rbp
 1302              		.cfi_def_cfa_offset 16
 1303              		.cfi_offset 6, -16
 1304 06fd 4889E5   		movq	%rsp, %rbp
 1305              		.cfi_def_cfa_register 6
 1306 0700 53       		pushq	%rbx
 1307 0701 4881EC98 		subq	$152, %rsp
 1307      000000
 1308              		.cfi_offset 3, -24
 1309 0708 4889BD68 		movq	%rdi, -152(%rbp)
 1309      FFFFFF
  55:TestTest.cpp  ****     class CrashingTest : public Test
 1310              		.loc 4 55 1
 1311 070f 64488B04 		movq	%fs:40, %rax
 1311      25280000 
 1311      00
 1312 0718 488945E8 		movq	%rax, -24(%rbp)
 1313 071c 31C0     		xorl	%eax, %eax
  63:TestTest.cpp  ****         }
  64:TestTest.cpp  ****     };
  65:TestTest.cpp  ****  
  66:TestTest.cpp  ****     TestResults results;
 1314              		.loc 4 66 17
 1315 071e 488D4590 		leaq	-112(%rbp), %rax
 1316 0722 BE000000 		movl	$0, %esi
 1316      00
 1317 0727 4889C7   		movq	%rax, %rdi
 1318              	.LEHB32:
 1319 072a E8000000 		call	_ZN8UnitTest11TestResultsC1EPNS_12TestReporterE@PLT
 1319      00
 1320              	.LBB16:
  67:TestTest.cpp  **** 	{
  68:TestTest.cpp  **** 		ScopedCurrentTest scopedResult(results);
 1321              		.loc 4 68 41
 1322 072f 488D4D90 		leaq	-112(%rbp), %rcx
 1323 0733 488D4580 		leaq	-128(%rbp), %rax
 1324 0737 BA000000 		movl	$0, %edx
 1324      00
 1325 073c 4889CE   		movq	%rcx, %rsi
 1326 073f 4889C7   		movq	%rax, %rdi
 1327 0742 E8000000 		call	_ZN17ScopedCurrentTestC1ERN8UnitTest11TestResultsEPKNS0_11TestDetailsE
 1327      00
 1328              	.LEHE32:
  69:TestTest.cpp  **** 		CrashingTest().Run();
 1329              		.loc 4 69 3
 1330 0747 488D45B0 		leaq	-80(%rbp), %rax
 1331 074b 4889C7   		movq	%rax, %rdi
 1332              	.LEHB33:
 1333 074e E821FFFF 		call	_ZZNK12_GLOBAL__N_138TestThrowingTestsAreReportedAsFailures7RunImplEvEN12CrashingTestC1Ev
 1333      FF
 1334              	.LEHE33:
 1335              		.loc 4 69 21 discriminator 1
 1336 0753 488D45B0 		leaq	-80(%rbp), %rax
 1337 0757 4889C7   		movq	%rax, %rdi
 1338              	.LEHB34:
 1339 075a E8000000 		call	_ZN8UnitTest4Test3RunEv@PLT
 1339      00
 1340              	.LEHE34:
 1341              		.loc 4 69 3 discriminator 3
 1342 075f 488D45B0 		leaq	-80(%rbp), %rax
 1343 0763 4889C7   		movq	%rax, %rdi
 1344              	.LEHB35:
 1345 0766 E8490D00 		call	_ZZNK12_GLOBAL__N_138TestThrowingTestsAreReportedAsFailures7RunImplEvEN12CrashingTestD1Ev
 1345      00
 1346              	.LEHE35:
  70:TestTest.cpp  **** 	}
 1347              		.loc 4 70 2 discriminator 5
 1348 076b 488D4580 		leaq	-128(%rbp), %rax
 1349 076f 4889C7   		movq	%rax, %rdi
 1350              	.LEHB36:
 1351 0772 E8000000 		call	_ZN17ScopedCurrentTestD1Ev
 1351      00
 1352              	.LEHE36:
 1353              	.LEHB37:
 1354              	.LBE16:
  71:TestTest.cpp  **** 
  72:TestTest.cpp  **** 	CHECK_EQUAL(1, results.GetFailureCount());
 1355              		.loc 4 72 2 discriminator 5
 1356 0777 E8000000 		call	_ZN8UnitTest11CurrentTest7DetailsEv@PLT
 1356      00
 1357 077c 488B08   		movq	(%rax), %rcx
 1358 077f 488D45B0 		leaq	-80(%rbp), %rax
 1359 0783 BA480000 		movl	$72, %edx
 1359      00
 1360 0788 4889CE   		movq	%rcx, %rsi
 1361 078b 4889C7   		movq	%rax, %rdi
 1362 078e E8000000 		call	_ZN8UnitTest11TestDetailsC1ERKS0_i@PLT
 1362      00
 1363              		.loc 4 72 2 is_stmt 0 discriminator 4
 1364 0793 488D4590 		leaq	-112(%rbp), %rax
 1365 0797 4889C7   		movq	%rax, %rdi
 1366 079a E8000000 		call	_ZNK8UnitTest11TestResults15GetFailureCountEv@PLT
 1366      00
 1367 079f 894580   		movl	%eax, -128(%rbp)
 1368 07a2 C7857CFF 		movl	$1, -132(%rbp)
 1368      FFFF0100 
 1368      0000
 1369 07ac E8000000 		call	_ZN8UnitTest11CurrentTest7ResultsEv@PLT
 1369      00
 1370              		.loc 4 72 2 discriminator 6
 1371 07b1 488B00   		movq	(%rax), %rax
 1372 07b4 488D4DB0 		leaq	-80(%rbp), %rcx
 1373 07b8 488D5580 		leaq	-128(%rbp), %rdx
 1374 07bc 488DB57C 		leaq	-132(%rbp), %rsi
 1374      FFFFFF
 1375 07c3 4889C7   		movq	%rax, %rdi
 1376 07c6 E8000000 		call	_ZN8UnitTest10CheckEqualIiiEEvRNS_11TestResultsERKT_RKT0_RKNS_11TestDetailsE
 1376      00
 1377              	.LEHE37:
  73:TestTest.cpp  **** }
 1378              		.loc 4 73 1 is_stmt 1
 1379 07cb E9970000 		jmp	.L58
 1379      00
 1380              	.L66:
 1381 07d0 F30F1EFA 		endbr64
 1382              	.LBB17:
  69:TestTest.cpp  **** 	}
 1383              		.loc 4 69 3
 1384 07d4 4889C3   		movq	%rax, %rbx
 1385 07d7 488D45B0 		leaq	-80(%rbp), %rax
 1386 07db 4889C7   		movq	%rax, %rdi
 1387 07de E8D10C00 		call	_ZZNK12_GLOBAL__N_138TestThrowingTestsAreReportedAsFailures7RunImplEvEN12CrashingTestD1Ev
 1387      00
 1388 07e3 EB07     		jmp	.L60
 1389              	.L65:
 1390 07e5 F30F1EFA 		endbr64
  70:TestTest.cpp  **** 
 1391              		.loc 4 70 2
 1392 07e9 4889C3   		movq	%rax, %rbx
 1393              	.L60:
 1394 07ec 488D4580 		leaq	-128(%rbp), %rax
 1395 07f0 4889C7   		movq	%rax, %rdi
 1396 07f3 E8000000 		call	_ZN17ScopedCurrentTestD1Ev
 1396      00
 1397 07f8 4889D8   		movq	%rbx, %rax
 1398 07fb 4889C7   		movq	%rax, %rdi
 1399              	.LEHB38:
 1400 07fe E8000000 		call	_Unwind_Resume@PLT
 1400      00
 1401              	.LEHE38:
 1402              	.L67:
 1403 0803 F30F1EFA 		endbr64
 1404              	.LBE17:
  72:TestTest.cpp  **** }
 1405              		.loc 4 72 2
 1406 0807 4889C7   		movq	%rax, %rdi
 1407 080a E8000000 		call	__cxa_begin_catch@PLT
 1407      00
 1408              	.LEHB39:
 1409 080f E8000000 		call	_ZN8UnitTest11CurrentTest7ResultsEv@PLT
 1409      00
  72:TestTest.cpp  **** }
 1410              		.loc 4 72 2 is_stmt 0 discriminator 3
 1411 0814 488B18   		movq	(%rax), %rbx
 1412 0817 E8000000 		call	_ZN8UnitTest11CurrentTest7DetailsEv@PLT
 1412      00
  72:TestTest.cpp  **** }
 1413              		.loc 4 72 2 discriminator 13
 1414 081c 488B08   		movq	(%rax), %rcx
 1415 081f 488D45B0 		leaq	-80(%rbp), %rax
 1416 0823 BA480000 		movl	$72, %edx
 1416      00
 1417 0828 4889CE   		movq	%rcx, %rsi
 1418 082b 4889C7   		movq	%rax, %rdi
 1419 082e E8000000 		call	_ZN8UnitTest11TestDetailsC1ERKS0_i@PLT
 1419      00
  72:TestTest.cpp  **** }
 1420              		.loc 4 72 2 discriminator 17
 1421 0833 488D45B0 		leaq	-80(%rbp), %rax
 1422 0837 488D1500 		leaq	.LC12(%rip), %rdx
 1422      000000
 1423 083e 4889C6   		movq	%rax, %rsi
 1424 0841 4889DF   		movq	%rbx, %rdi
 1425 0844 E8000000 		call	_ZN8UnitTest11TestResults13OnTestFailureERKNS_11TestDetailsEPKc@PLT
 1425      00
 1426              	.LEHE39:
 1427              	.LEHB40:
  72:TestTest.cpp  **** }
 1428              		.loc 4 72 2 discriminator 19
 1429 0849 E8000000 		call	__cxa_end_catch@PLT
 1429      00
 1430              	.LEHE40:
 1431              		.loc 4 73 1 is_stmt 1 discriminator 19
 1432 084e EB17     		jmp	.L58
 1433              	.L68:
 1434 0850 F30F1EFA 		endbr64
  72:TestTest.cpp  **** }
 1435              		.loc 4 72 2
 1436 0854 4889C3   		movq	%rax, %rbx
 1437 0857 E8000000 		call	__cxa_end_catch@PLT
 1437      00
 1438 085c 4889D8   		movq	%rbx, %rax
 1439 085f 4889C7   		movq	%rax, %rdi
 1440              	.LEHB41:
 1441 0862 E8000000 		call	_Unwind_Resume@PLT
 1441      00
 1442              	.LEHE41:
 1443              	.L58:
 1444              		.loc 4 73 1
 1445 0867 488B45E8 		movq	-24(%rbp), %rax
 1446 086b 64482B04 		subq	%fs:40, %rax
 1446      25280000 
 1446      00
 1447 0874 7405     		je	.L64
 1448 0876 E8000000 		call	__stack_chk_fail@PLT
 1448      00
 1449              	.L64:
 1450 087b 488B5DF8 		movq	-8(%rbp), %rbx
 1451 087f C9       		leave
 1452              		.cfi_def_cfa 7, 8
 1453 0880 C3       		ret
 1454              		.cfi_endproc
 1455              	.LFE1169:
 1456              		.section	.gcc_except_table
 1457              		.align 4
 1458              	.LLSDA1169:
 1459 00b8 FF       		.byte	0xff
 1460 00b9 9B       		.byte	0x9b
 1461 00ba 39       		.uleb128 .LLSDATT1169-.LLSDATTD1169
 1462              	.LLSDATTD1169:
 1463 00bb 01       		.byte	0x1
 1464 00bc 31       		.uleb128 .LLSDACSE1169-.LLSDACSB1169
 1465              	.LLSDACSB1169:
 1466 00bd 32       		.uleb128 .LEHB32-.LFB1169
 1467 00be 1D       		.uleb128 .LEHE32-.LEHB32
 1468 00bf 00       		.uleb128 0
 1469 00c0 00       		.uleb128 0
 1470 00c1 56       		.uleb128 .LEHB33-.LFB1169
 1471 00c2 05       		.uleb128 .LEHE33-.LEHB33
 1472 00c3 ED01     		.uleb128 .L65-.LFB1169
 1473 00c5 00       		.uleb128 0
 1474 00c6 62       		.uleb128 .LEHB34-.LFB1169
 1475 00c7 05       		.uleb128 .LEHE34-.LEHB34
 1476 00c8 D801     		.uleb128 .L66-.LFB1169
 1477 00ca 00       		.uleb128 0
 1478 00cb 6E       		.uleb128 .LEHB35-.LFB1169
 1479 00cc 05       		.uleb128 .LEHE35-.LEHB35
 1480 00cd ED01     		.uleb128 .L65-.LFB1169
 1481 00cf 00       		.uleb128 0
 1482 00d0 7A       		.uleb128 .LEHB36-.LFB1169
 1483 00d1 05       		.uleb128 .LEHE36-.LEHB36
 1484 00d2 00       		.uleb128 0
 1485 00d3 00       		.uleb128 0
 1486 00d4 7F       		.uleb128 .LEHB37-.LFB1169
 1487 00d5 54       		.uleb128 .LEHE37-.LEHB37
 1488 00d6 8B02     		.uleb128 .L67-.LFB1169
 1489 00d8 01       		.uleb128 0x1
 1490 00d9 8602     		.uleb128 .LEHB38-.LFB1169
 1491 00db 05       		.uleb128 .LEHE38-.LEHB38
 1492 00dc 00       		.uleb128 0
 1493 00dd 00       		.uleb128 0
 1494 00de 9702     		.uleb128 .LEHB39-.LFB1169
 1495 00e0 3A       		.uleb128 .LEHE39-.LEHB39
 1496 00e1 D802     		.uleb128 .L68-.LFB1169
 1497 00e3 00       		.uleb128 0
 1498 00e4 D102     		.uleb128 .LEHB40-.LFB1169
 1499 00e6 05       		.uleb128 .LEHE40-.LEHB40
 1500 00e7 00       		.uleb128 0
 1501 00e8 00       		.uleb128 0
 1502 00e9 EA02     		.uleb128 .LEHB41-.LFB1169
 1503 00eb 05       		.uleb128 .LEHE41-.LEHB41
 1504 00ec 00       		.uleb128 0
 1505 00ed 00       		.uleb128 0
 1506              	.LLSDACSE1169:
 1507 00ee 01       		.byte	0x1
 1508 00ef 00       		.byte	0
 1509              		.align 4
 1510 00f0 00000000 		.long	0
 1511              	
 1512              	.LLSDATT1169:
 1513              		.text
 1515              		.section	.rodata
 1516 0179 00000000 		.align 8
 1516      000000
 1517              	.LC16:
 1518 0180 43726173 		.string	"CrashingTestsAreReportedAsFailures"
 1518      68696E67 
 1518      54657374 
 1518      73417265 
 1518      5265706F 
 1519              		.text
 1520 0881 90       		.align 2
 1522              	_ZN12_GLOBAL__N_138TestCrashingTestsAreReportedAsFailuresC2Ev:
 1523              	.LFB1175:
  74:TestTest.cpp  **** 
  75:TestTest.cpp  **** 
  76:TestTest.cpp  **** #if !defined(WIN32) || (!defined(UNITTEST_MINGW) && !defined(_DEBUG))
  77:TestTest.cpp  **** TEST(CrashingTestsAreReportedAsFailures)
 1524              		.loc 4 77 1
 1525              		.cfi_startproc
 1526 0882 55       		pushq	%rbp
 1527              		.cfi_def_cfa_offset 16
 1528              		.cfi_offset 6, -16
 1529 0883 4889E5   		movq	%rsp, %rbp
 1530              		.cfi_def_cfa_register 6
 1531 0886 53       		pushq	%rbx
 1532 0887 4883EC18 		subq	$24, %rsp
 1533              		.cfi_offset 3, -24
 1534 088b 48897DE8 		movq	%rdi, -24(%rbp)
 1535              	.LBB18:
 1536              		.loc 4 77 1
 1537 088f 488B5DE8 		movq	-24(%rbp), %rbx
 1538 0893 E8000000 		call	_ZN13UnitTestSuite12GetSuiteNameEv
 1538      00
 1539 0898 4889C2   		movq	%rax, %rdx
 1540 089b 41B84D00 		movl	$77, %r8d
 1540      0000
 1541 08a1 488D0500 		leaq	.LC1(%rip), %rax
 1541      000000
 1542 08a8 4889C1   		movq	%rax, %rcx
 1543 08ab 488D0500 		leaq	.LC16(%rip), %rax
 1543      000000
 1544 08b2 4889C6   		movq	%rax, %rsi
 1545 08b5 4889DF   		movq	%rbx, %rdi
 1546 08b8 E8000000 		call	_ZN8UnitTest4TestC2EPKcS2_S2_i@PLT
 1546      00
 1547 08bd 488D1500 		leaq	16+_ZTVN12_GLOBAL__N_138TestCrashingTestsAreReportedAsFailuresE(%rip), %rdx
 1547      000000
 1548 08c4 488B45E8 		movq	-24(%rbp), %rax
 1549 08c8 488910   		movq	%rdx, (%rax)
 1550              	.LBE18:
 1551 08cb 90       		nop
 1552 08cc 488B5DF8 		movq	-8(%rbp), %rbx
 1553 08d0 C9       		leave
 1554              		.cfi_def_cfa 7, 8
 1555 08d1 C3       		ret
 1556              		.cfi_endproc
 1557              	.LFE1175:
 1559              		.set	_ZN12_GLOBAL__N_138TestCrashingTestsAreReportedAsFailuresC1Ev,_ZN12_GLOBAL__N_138TestCrashing
 1560              		.local	_ZN12_GLOBAL__N_146testCrashingTestsAreReportedAsFailuresInstanceE
 1561              		.comm	_ZN12_GLOBAL__N_146testCrashingTestsAreReportedAsFailuresInstanceE,56,32
 1562              		.local	_ZN12_GLOBAL__N_139adderCrashingTestsAreReportedAsFailuresE
 1563              		.comm	_ZN12_GLOBAL__N_139adderCrashingTestsAreReportedAsFailuresE,1,1
 1564              		.section	.rodata
 1565              	.LC17:
 1566 01a3 63726173 		.string	"crashing"
 1566      68696E67 
 1566      00
 1567              		.text
 1568              		.align 2
 1570              	_ZZNK12_GLOBAL__N_138TestCrashingTestsAreReportedAsFailures7RunImplEvEN12CrashingTestC2Ev:
 1571              	.LFB1179:
  78:TestTest.cpp  **** {
  79:TestTest.cpp  ****     class CrashingTest : public Test
  80:TestTest.cpp  ****     {
  81:TestTest.cpp  ****     public:
  82:TestTest.cpp  ****         CrashingTest() : Test("crashing") {}
 1572              		.loc 4 82 9
 1573              		.cfi_startproc
 1574 08d2 55       		pushq	%rbp
 1575              		.cfi_def_cfa_offset 16
 1576              		.cfi_offset 6, -16
 1577 08d3 4889E5   		movq	%rsp, %rbp
 1578              		.cfi_def_cfa_register 6
 1579 08d6 4883EC10 		subq	$16, %rsp
 1580 08da 48897DF8 		movq	%rdi, -8(%rbp)
 1581              	.LBB19:
 1582              		.loc 4 82 41
 1583 08de 488B45F8 		movq	-8(%rbp), %rax
 1584 08e2 41B80000 		movl	$0, %r8d
 1584      0000
 1585 08e8 488D1500 		leaq	.LC3(%rip), %rdx
 1585      000000
 1586 08ef 4889D1   		movq	%rdx, %rcx
 1587 08f2 488D1500 		leaq	.LC0(%rip), %rdx
 1587      000000
 1588 08f9 488D3500 		leaq	.LC17(%rip), %rsi
 1588      000000
 1589 0900 4889C7   		movq	%rax, %rdi
 1590 0903 E8000000 		call	_ZN8UnitTest4TestC2EPKcS2_S2_i@PLT
 1590      00
 1591 0908 488D1500 		leaq	16+_ZTVZNK12_GLOBAL__N_138TestCrashingTestsAreReportedAsFailures7RunImplEvE12CrashingTest(%ri
 1591      000000
 1592 090f 488B45F8 		movq	-8(%rbp), %rax
 1593 0913 488910   		movq	%rdx, (%rax)
 1594              	.LBE19:
 1595              		.loc 4 82 44
 1596 0916 90       		nop
 1597 0917 C9       		leave
 1598              		.cfi_def_cfa 7, 8
 1599 0918 C3       		ret
 1600              		.cfi_endproc
 1601              	.LFE1179:
 1603              		.set	_ZZNK12_GLOBAL__N_138TestCrashingTestsAreReportedAsFailures7RunImplEvEN12CrashingTestC1Ev,_ZZ
 1604 0919 90       		.align 2
 1606              	_ZZNK12_GLOBAL__N_138TestCrashingTestsAreReportedAsFailures7RunImplEvENK12CrashingTest7RunImplEv:
 1607              	.LFB1181:
  83:TestTest.cpp  ****         virtual void RunImpl() const
 1608              		.loc 4 83 22
 1609              		.cfi_startproc
 1610 091a F30F1EFA 		endbr64
 1611 091e 55       		pushq	%rbp
 1612              		.cfi_def_cfa_offset 16
 1613              		.cfi_offset 6, -16
 1614 091f 4889E5   		movq	%rsp, %rbp
 1615              		.cfi_def_cfa_register 6
 1616 0922 48897DE8 		movq	%rdi, -24(%rbp)
  84:TestTest.cpp  ****         {
  85:TestTest.cpp  ****             int *p = NULL;
 1617              		.loc 4 85 18
 1618 0926 48C745F8 		movq	$0, -8(%rbp)
 1618      00000000 
  86:TestTest.cpp  ****             *p = 42;
 1619              		.loc 4 86 16
 1620 092e 488B45F8 		movq	-8(%rbp), %rax
 1621 0932 C7002A00 		movl	$42, (%rax)
 1621      0000
  87:TestTest.cpp  ****             // TODO: restore this jump to NULL when QEMU-Linaro fixes hanging issue
  88:TestTest.cpp  ****             // reinterpret_cast< void (*)() >(0)();
  89:TestTest.cpp  ****         }
 1622              		.loc 4 89 9
 1623 0938 90       		nop
 1624 0939 5D       		popq	%rbp
 1625              		.cfi_def_cfa 7, 8
 1626 093a C3       		ret
 1627              		.cfi_endproc
 1628              	.LFE1181:
 1630 093b 90       		.align 2
 1632              	_ZNK12_GLOBAL__N_138TestCrashingTestsAreReportedAsFailures7RunImplEv:
 1633              	.LFB1177:
  78:TestTest.cpp  ****     class CrashingTest : public Test
 1634              		.loc 4 78 1
 1635              		.cfi_startproc
 1636              		.cfi_personality 0x9b,DW.ref.__gxx_personality_v0
 1637              		.cfi_lsda 0x1b,.LLSDA1177
 1638 093c F30F1EFA 		endbr64
 1639 0940 55       		pushq	%rbp
 1640              		.cfi_def_cfa_offset 16
 1641              		.cfi_offset 6, -16
 1642 0941 4889E5   		movq	%rsp, %rbp
 1643              		.cfi_def_cfa_register 6
 1644 0944 53       		pushq	%rbx
 1645 0945 4881EC98 		subq	$152, %rsp
 1645      000000
 1646              		.cfi_offset 3, -24
 1647 094c 4889BD68 		movq	%rdi, -152(%rbp)
 1647      FFFFFF
  78:TestTest.cpp  ****     class CrashingTest : public Test
 1648              		.loc 4 78 1
 1649 0953 64488B04 		movq	%fs:40, %rax
 1649      25280000 
 1649      00
 1650 095c 488945E8 		movq	%rax, -24(%rbp)
 1651 0960 31C0     		xorl	%eax, %eax
  90:TestTest.cpp  ****     };
  91:TestTest.cpp  **** 
  92:TestTest.cpp  ****     TestResults results;
 1652              		.loc 4 92 17
 1653 0962 488D4590 		leaq	-112(%rbp), %rax
 1654 0966 BE000000 		movl	$0, %esi
 1654      00
 1655 096b 4889C7   		movq	%rax, %rdi
 1656              	.LEHB42:
 1657 096e E8000000 		call	_ZN8UnitTest11TestResultsC1EPNS_12TestReporterE@PLT
 1657      00
 1658              	.LBB20:
  93:TestTest.cpp  **** 	{
  94:TestTest.cpp  **** 		ScopedCurrentTest scopedResult(results);
 1659              		.loc 4 94 41
 1660 0973 488D4D90 		leaq	-112(%rbp), %rcx
 1661 0977 488D4580 		leaq	-128(%rbp), %rax
 1662 097b BA000000 		movl	$0, %edx
 1662      00
 1663 0980 4889CE   		movq	%rcx, %rsi
 1664 0983 4889C7   		movq	%rax, %rdi
 1665 0986 E8000000 		call	_ZN17ScopedCurrentTestC1ERN8UnitTest11TestResultsEPKNS0_11TestDetailsE
 1665      00
 1666              	.LEHE42:
  95:TestTest.cpp  **** 		CrashingTest().Run();
 1667              		.loc 4 95 3
 1668 098b 488D45B0 		leaq	-80(%rbp), %rax
 1669 098f 4889C7   		movq	%rax, %rdi
 1670              	.LEHB43:
 1671 0992 E83BFFFF 		call	_ZZNK12_GLOBAL__N_138TestCrashingTestsAreReportedAsFailures7RunImplEvEN12CrashingTestC1Ev
 1671      FF
 1672              	.LEHE43:
 1673              		.loc 4 95 21 discriminator 1
 1674 0997 488D45B0 		leaq	-80(%rbp), %rax
 1675 099b 4889C7   		movq	%rax, %rdi
 1676              	.LEHB44:
 1677 099e E8000000 		call	_ZN8UnitTest4Test3RunEv@PLT
 1677      00
 1678              	.LEHE44:
 1679              		.loc 4 95 3 discriminator 3
 1680 09a3 488D45B0 		leaq	-80(%rbp), %rax
 1681 09a7 4889C7   		movq	%rax, %rdi
 1682              	.LEHB45:
 1683 09aa E8090A00 		call	_ZZNK12_GLOBAL__N_138TestCrashingTestsAreReportedAsFailures7RunImplEvEN12CrashingTestD1Ev
 1683      00
 1684              	.LEHE45:
  96:TestTest.cpp  **** 	}
 1685              		.loc 4 96 2 discriminator 5
 1686 09af 488D4580 		leaq	-128(%rbp), %rax
 1687 09b3 4889C7   		movq	%rax, %rdi
 1688              	.LEHB46:
 1689 09b6 E8000000 		call	_ZN17ScopedCurrentTestD1Ev
 1689      00
 1690              	.LEHE46:
 1691              	.LEHB47:
 1692              	.LBE20:
  97:TestTest.cpp  **** 
  98:TestTest.cpp  **** 	CHECK_EQUAL(1, results.GetFailureCount());
 1693              		.loc 4 98 2 discriminator 5
 1694 09bb E8000000 		call	_ZN8UnitTest11CurrentTest7DetailsEv@PLT
 1694      00
 1695 09c0 488B08   		movq	(%rax), %rcx
 1696 09c3 488D45B0 		leaq	-80(%rbp), %rax
 1697 09c7 BA620000 		movl	$98, %edx
 1697      00
 1698 09cc 4889CE   		movq	%rcx, %rsi
 1699 09cf 4889C7   		movq	%rax, %rdi
 1700 09d2 E8000000 		call	_ZN8UnitTest11TestDetailsC1ERKS0_i@PLT
 1700      00
 1701              		.loc 4 98 2 is_stmt 0 discriminator 4
 1702 09d7 488D4590 		leaq	-112(%rbp), %rax
 1703 09db 4889C7   		movq	%rax, %rdi
 1704 09de E8000000 		call	_ZNK8UnitTest11TestResults15GetFailureCountEv@PLT
 1704      00
 1705 09e3 894580   		movl	%eax, -128(%rbp)
 1706 09e6 C7857CFF 		movl	$1, -132(%rbp)
 1706      FFFF0100 
 1706      0000
 1707 09f0 E8000000 		call	_ZN8UnitTest11CurrentTest7ResultsEv@PLT
 1707      00
 1708              		.loc 4 98 2 discriminator 6
 1709 09f5 488B00   		movq	(%rax), %rax
 1710 09f8 488D4DB0 		leaq	-80(%rbp), %rcx
 1711 09fc 488D5580 		leaq	-128(%rbp), %rdx
 1712 0a00 488DB57C 		leaq	-132(%rbp), %rsi
 1712      FFFFFF
 1713 0a07 4889C7   		movq	%rax, %rdi
 1714 0a0a E8000000 		call	_ZN8UnitTest10CheckEqualIiiEEvRNS_11TestResultsERKT_RKT0_RKNS_11TestDetailsE
 1714      00
 1715              	.LEHE47:
  99:TestTest.cpp  **** }
 1716              		.loc 4 99 1 is_stmt 1
 1717 0a0f E9970000 		jmp	.L72
 1717      00
 1718              	.L80:
 1719 0a14 F30F1EFA 		endbr64
 1720              	.LBB21:
  95:TestTest.cpp  **** 	}
 1721              		.loc 4 95 3
 1722 0a18 4889C3   		movq	%rax, %rbx
 1723 0a1b 488D45B0 		leaq	-80(%rbp), %rax
 1724 0a1f 4889C7   		movq	%rax, %rdi
 1725 0a22 E8910900 		call	_ZZNK12_GLOBAL__N_138TestCrashingTestsAreReportedAsFailures7RunImplEvEN12CrashingTestD1Ev
 1725      00
 1726 0a27 EB07     		jmp	.L74
 1727              	.L79:
 1728 0a29 F30F1EFA 		endbr64
  96:TestTest.cpp  **** 
 1729              		.loc 4 96 2
 1730 0a2d 4889C3   		movq	%rax, %rbx
 1731              	.L74:
 1732 0a30 488D4580 		leaq	-128(%rbp), %rax
 1733 0a34 4889C7   		movq	%rax, %rdi
 1734 0a37 E8000000 		call	_ZN17ScopedCurrentTestD1Ev
 1734      00
 1735 0a3c 4889D8   		movq	%rbx, %rax
 1736 0a3f 4889C7   		movq	%rax, %rdi
 1737              	.LEHB48:
 1738 0a42 E8000000 		call	_Unwind_Resume@PLT
 1738      00
 1739              	.LEHE48:
 1740              	.L81:
 1741 0a47 F30F1EFA 		endbr64
 1742              	.LBE21:
  98:TestTest.cpp  **** }
 1743              		.loc 4 98 2
 1744 0a4b 4889C7   		movq	%rax, %rdi
 1745 0a4e E8000000 		call	__cxa_begin_catch@PLT
 1745      00
 1746              	.LEHB49:
 1747 0a53 E8000000 		call	_ZN8UnitTest11CurrentTest7ResultsEv@PLT
 1747      00
  98:TestTest.cpp  **** }
 1748              		.loc 4 98 2 is_stmt 0 discriminator 3
 1749 0a58 488B18   		movq	(%rax), %rbx
 1750 0a5b E8000000 		call	_ZN8UnitTest11CurrentTest7DetailsEv@PLT
 1750      00
  98:TestTest.cpp  **** }
 1751              		.loc 4 98 2 discriminator 13
 1752 0a60 488B08   		movq	(%rax), %rcx
 1753 0a63 488D45B0 		leaq	-80(%rbp), %rax
 1754 0a67 BA620000 		movl	$98, %edx
 1754      00
 1755 0a6c 4889CE   		movq	%rcx, %rsi
 1756 0a6f 4889C7   		movq	%rax, %rdi
 1757 0a72 E8000000 		call	_ZN8UnitTest11TestDetailsC1ERKS0_i@PLT
 1757      00
  98:TestTest.cpp  **** }
 1758              		.loc 4 98 2 discriminator 17
 1759 0a77 488D45B0 		leaq	-80(%rbp), %rax
 1760 0a7b 488D1500 		leaq	.LC12(%rip), %rdx
 1760      000000
 1761 0a82 4889C6   		movq	%rax, %rsi
 1762 0a85 4889DF   		movq	%rbx, %rdi
 1763 0a88 E8000000 		call	_ZN8UnitTest11TestResults13OnTestFailureERKNS_11TestDetailsEPKc@PLT
 1763      00
 1764              	.LEHE49:
 1765              	.LEHB50:
  98:TestTest.cpp  **** }
 1766              		.loc 4 98 2 discriminator 19
 1767 0a8d E8000000 		call	__cxa_end_catch@PLT
 1767      00
 1768              	.LEHE50:
 1769              		.loc 4 99 1 is_stmt 1 discriminator 19
 1770 0a92 EB17     		jmp	.L72
 1771              	.L82:
 1772 0a94 F30F1EFA 		endbr64
  98:TestTest.cpp  **** }
 1773              		.loc 4 98 2
 1774 0a98 4889C3   		movq	%rax, %rbx
 1775 0a9b E8000000 		call	__cxa_end_catch@PLT
 1775      00
 1776 0aa0 4889D8   		movq	%rbx, %rax
 1777 0aa3 4889C7   		movq	%rax, %rdi
 1778              	.LEHB51:
 1779 0aa6 E8000000 		call	_Unwind_Resume@PLT
 1779      00
 1780              	.LEHE51:
 1781              	.L72:
 1782              		.loc 4 99 1
 1783 0aab 488B45E8 		movq	-24(%rbp), %rax
 1784 0aaf 64482B04 		subq	%fs:40, %rax
 1784      25280000 
 1784      00
 1785 0ab8 7405     		je	.L78
 1786 0aba E8000000 		call	__stack_chk_fail@PLT
 1786      00
 1787              	.L78:
 1788 0abf 488B5DF8 		movq	-8(%rbp), %rbx
 1789 0ac3 C9       		leave
 1790              		.cfi_def_cfa 7, 8
 1791 0ac4 C3       		ret
 1792              		.cfi_endproc
 1793              	.LFE1177:
 1794              		.section	.gcc_except_table
 1795              		.align 4
 1796              	.LLSDA1177:
 1797 00f4 FF       		.byte	0xff
 1798 00f5 9B       		.byte	0x9b
 1799 00f6 39       		.uleb128 .LLSDATT1177-.LLSDATTD1177
 1800              	.LLSDATTD1177:
 1801 00f7 01       		.byte	0x1
 1802 00f8 31       		.uleb128 .LLSDACSE1177-.LLSDACSB1177
 1803              	.LLSDACSB1177:
 1804 00f9 32       		.uleb128 .LEHB42-.LFB1177
 1805 00fa 1D       		.uleb128 .LEHE42-.LEHB42
 1806 00fb 00       		.uleb128 0
 1807 00fc 00       		.uleb128 0
 1808 00fd 56       		.uleb128 .LEHB43-.LFB1177
 1809 00fe 05       		.uleb128 .LEHE43-.LEHB43
 1810 00ff ED01     		.uleb128 .L79-.LFB1177
 1811 0101 00       		.uleb128 0
 1812 0102 62       		.uleb128 .LEHB44-.LFB1177
 1813 0103 05       		.uleb128 .LEHE44-.LEHB44
 1814 0104 D801     		.uleb128 .L80-.LFB1177
 1815 0106 00       		.uleb128 0
 1816 0107 6E       		.uleb128 .LEHB45-.LFB1177
 1817 0108 05       		.uleb128 .LEHE45-.LEHB45
 1818 0109 ED01     		.uleb128 .L79-.LFB1177
 1819 010b 00       		.uleb128 0
 1820 010c 7A       		.uleb128 .LEHB46-.LFB1177
 1821 010d 05       		.uleb128 .LEHE46-.LEHB46
 1822 010e 00       		.uleb128 0
 1823 010f 00       		.uleb128 0
 1824 0110 7F       		.uleb128 .LEHB47-.LFB1177
 1825 0111 54       		.uleb128 .LEHE47-.LEHB47
 1826 0112 8B02     		.uleb128 .L81-.LFB1177
 1827 0114 01       		.uleb128 0x1
 1828 0115 8602     		.uleb128 .LEHB48-.LFB1177
 1829 0117 05       		.uleb128 .LEHE48-.LEHB48
 1830 0118 00       		.uleb128 0
 1831 0119 00       		.uleb128 0
 1832 011a 9702     		.uleb128 .LEHB49-.LFB1177
 1833 011c 3A       		.uleb128 .LEHE49-.LEHB49
 1834 011d D802     		.uleb128 .L82-.LFB1177
 1835 011f 00       		.uleb128 0
 1836 0120 D102     		.uleb128 .LEHB50-.LFB1177
 1837 0122 05       		.uleb128 .LEHE50-.LEHB50
 1838 0123 00       		.uleb128 0
 1839 0124 00       		.uleb128 0
 1840 0125 EA02     		.uleb128 .LEHB51-.LFB1177
 1841 0127 05       		.uleb128 .LEHE51-.LEHB51
 1842 0128 00       		.uleb128 0
 1843 0129 00       		.uleb128 0
 1844              	.LLSDACSE1177:
 1845 012a 01       		.byte	0x1
 1846 012b 00       		.byte	0
 1847              		.align 4
 1848 012c 00000000 		.long	0
 1849              	
 1850              	.LLSDATT1177:
 1851              		.text
 1853              		.section	.rodata
 1854 01ac 00000000 		.align 8
 1855              	.LC18:
 1856 01b0 54657374 		.string	"TestWithUnspecifiedSuiteGetsDefaultSuite"
 1856      57697468 
 1856      556E7370 
 1856      65636966 
 1856      69656453 
 1857              		.text
 1858 0ac5 90       		.align 2
 1860              	_ZN12_GLOBAL__N_144TestTestWithUnspecifiedSuiteGetsDefaultSuiteC2Ev:
 1861              	.LFB1183:
 100:TestTest.cpp  **** #endif
 101:TestTest.cpp  **** 
 102:TestTest.cpp  **** TEST(TestWithUnspecifiedSuiteGetsDefaultSuite)
 1862              		.loc 4 102 1
 1863              		.cfi_startproc
 1864 0ac6 55       		pushq	%rbp
 1865              		.cfi_def_cfa_offset 16
 1866              		.cfi_offset 6, -16
 1867 0ac7 4889E5   		movq	%rsp, %rbp
 1868              		.cfi_def_cfa_register 6
 1869 0aca 53       		pushq	%rbx
 1870 0acb 4883EC18 		subq	$24, %rsp
 1871              		.cfi_offset 3, -24
 1872 0acf 48897DE8 		movq	%rdi, -24(%rbp)
 1873              	.LBB22:
 1874              		.loc 4 102 1
 1875 0ad3 488B5DE8 		movq	-24(%rbp), %rbx
 1876 0ad7 E8000000 		call	_ZN13UnitTestSuite12GetSuiteNameEv
 1876      00
 1877 0adc 4889C2   		movq	%rax, %rdx
 1878 0adf 41B86600 		movl	$102, %r8d
 1878      0000
 1879 0ae5 488D0500 		leaq	.LC1(%rip), %rax
 1879      000000
 1880 0aec 4889C1   		movq	%rax, %rcx
 1881 0aef 488D0500 		leaq	.LC18(%rip), %rax
 1881      000000
 1882 0af6 4889C6   		movq	%rax, %rsi
 1883 0af9 4889DF   		movq	%rbx, %rdi
 1884 0afc E8000000 		call	_ZN8UnitTest4TestC2EPKcS2_S2_i@PLT
 1884      00
 1885 0b01 488D1500 		leaq	16+_ZTVN12_GLOBAL__N_144TestTestWithUnspecifiedSuiteGetsDefaultSuiteE(%rip), %rdx
 1885      000000
 1886 0b08 488B45E8 		movq	-24(%rbp), %rax
 1887 0b0c 488910   		movq	%rdx, (%rax)
 1888              	.LBE22:
 1889 0b0f 90       		nop
 1890 0b10 488B5DF8 		movq	-8(%rbp), %rbx
 1891 0b14 C9       		leave
 1892              		.cfi_def_cfa 7, 8
 1893 0b15 C3       		ret
 1894              		.cfi_endproc
 1895              	.LFE1183:
 1897              		.set	_ZN12_GLOBAL__N_144TestTestWithUnspecifiedSuiteGetsDefaultSuiteC1Ev,_ZN12_GLOBAL__N_144TestTe
 1898              		.local	_ZN12_GLOBAL__N_152testTestWithUnspecifiedSuiteGetsDefaultSuiteInstanceE
 1899              		.comm	_ZN12_GLOBAL__N_152testTestWithUnspecifiedSuiteGetsDefaultSuiteInstanceE,56,32
 1900              		.local	_ZN12_GLOBAL__N_145adderTestWithUnspecifiedSuiteGetsDefaultSuiteE
 1901              		.comm	_ZN12_GLOBAL__N_145adderTestWithUnspecifiedSuiteGetsDefaultSuiteE,1,1
 1902              		.section	.rodata
 1903              	.LC19:
 1904 01d9 74657374 		.string	"test"
 1904      00
 1905 01de 0000     		.align 8
 1906              	.LC20:
 1907 01e0 74657374 		.string	"test.m_details.suiteName != NULL"
 1907      2E6D5F64 
 1907      65746169 
 1907      6C732E73 
 1907      75697465 
 1908 0201 00000000 		.align 8
 1908      000000
 1909              	.LC21:
 1910 0208 556E6861 		.string	"Unhandled exception in CHECK(test.m_details.suiteName != NULL)"
 1910      6E646C65 
 1910      64206578 
 1910      63657074 
 1910      696F6E20 
 1911 0247 00       		.align 8
 1912              	.LC22:
 1913 0248 556E6861 		.string	"Unhandled exception in CHECK_EQUAL(\"DefaultSuite\", test.m_details.suiteName)"
 1913      6E646C65 
 1913      64206578 
 1913      63657074 
 1913      696F6E20 
 1914              		.text
 1915              		.align 2
 1917              	_ZNK12_GLOBAL__N_144TestTestWithUnspecifiedSuiteGetsDefaultSuite7RunImplEv:
 1918              	.LFB1185:
 103:TestTest.cpp  **** {
 1919              		.loc 4 103 1
 1920              		.cfi_startproc
 1921              		.cfi_personality 0x9b,DW.ref.__gxx_personality_v0
 1922              		.cfi_lsda 0x1b,.LLSDA1185
 1923 0b16 F30F1EFA 		endbr64
 1924 0b1a 55       		pushq	%rbp
 1925              		.cfi_def_cfa_offset 16
 1926              		.cfi_offset 6, -16
 1927 0b1b 4889E5   		movq	%rsp, %rbp
 1928              		.cfi_def_cfa_register 6
 1929 0b1e 53       		pushq	%rbx
 1930 0b1f 4883EC78 		subq	$120, %rsp
 1931              		.cfi_offset 3, -24
 1932 0b23 48897D88 		movq	%rdi, -120(%rbp)
 1933              		.loc 4 103 1
 1934 0b27 64488B04 		movq	%fs:40, %rax
 1934      25280000 
 1934      00
 1935 0b30 488945E8 		movq	%rax, -24(%rbp)
 1936 0b34 31C0     		xorl	%eax, %eax
 104:TestTest.cpp  ****     Test test("test");
 1937              		.loc 4 104 21
 1938 0b36 488D45B0 		leaq	-80(%rbp), %rax
 1939 0b3a 41B80000 		movl	$0, %r8d
 1939      0000
 1940 0b40 488D1500 		leaq	.LC3(%rip), %rdx
 1940      000000
 1941 0b47 4889D1   		movq	%rdx, %rcx
 1942 0b4a 488D1500 		leaq	.LC0(%rip), %rdx
 1942      000000
 1943 0b51 488D3500 		leaq	.LC19(%rip), %rsi
 1943      000000
 1944 0b58 4889C7   		movq	%rax, %rdi
 1945              	.LEHB52:
 1946 0b5b E8000000 		call	_ZN8UnitTest4TestC1EPKcS2_S2_i@PLT
 1946      00
 1947              	.LEHE52:
 105:TestTest.cpp  ****     CHECK(test.m_details.suiteName != NULL);
 1948              		.loc 4 105 5
 1949 0b60 488B45B8 		movq	-72(%rbp), %rax
 1950 0b64 4885C0   		testq	%rax, %rax
 1951 0b67 0F95C0   		setne	%al
 1952 0b6a 0FB6C0   		movzbl	%al, %eax
 1953 0b6d 89C7     		movl	%eax, %edi
 1954 0b6f E8000000 		call	_ZN8UnitTest5CheckIbEEbT_
 1954      00
 1955 0b74 83F001   		xorl	$1, %eax
 1956 0b77 84C0     		testb	%al, %al
 1957 0b79 743A     		je	.L85
 1958              	.LEHB53:
 1959              		.loc 4 105 5 is_stmt 0 discriminator 1
 1960 0b7b E8000000 		call	_ZN8UnitTest11CurrentTest7ResultsEv@PLT
 1960      00
 1961 0b80 488B18   		movq	(%rax), %rbx
 1962 0b83 E8000000 		call	_ZN8UnitTest11CurrentTest7DetailsEv@PLT
 1962      00
 1963              		.loc 4 105 5 discriminator 3
 1964 0b88 488B08   		movq	(%rax), %rcx
 1965 0b8b 488D4590 		leaq	-112(%rbp), %rax
 1966 0b8f BA690000 		movl	$105, %edx
 1966      00
 1967 0b94 4889CE   		movq	%rcx, %rsi
 1968 0b97 4889C7   		movq	%rax, %rdi
 1969 0b9a E8000000 		call	_ZN8UnitTest11TestDetailsC1ERKS0_i@PLT
 1969      00
 1970              		.loc 4 105 5 discriminator 7
 1971 0b9f 488D4590 		leaq	-112(%rbp), %rax
 1972 0ba3 488D1500 		leaq	.LC20(%rip), %rdx
 1972      000000
 1973 0baa 4889C6   		movq	%rax, %rsi
 1974 0bad 4889DF   		movq	%rbx, %rdi
 1975 0bb0 E8000000 		call	_ZN8UnitTest11TestResults13OnTestFailureERKNS_11TestDetailsEPKc@PLT
 1975      00
 1976              	.LEHE53:
 1977              	.L85:
 1978              	.LEHB54:
 106:TestTest.cpp  ****     CHECK_EQUAL("DefaultSuite", test.m_details.suiteName);
 1979              		.loc 4 106 5 is_stmt 1
 1980 0bb5 E8000000 		call	_ZN8UnitTest11CurrentTest7DetailsEv@PLT
 1980      00
 1981 0bba 488B08   		movq	(%rax), %rcx
 1982 0bbd 488D4590 		leaq	-112(%rbp), %rax
 1983 0bc1 BA6A0000 		movl	$106, %edx
 1983      00
 1984 0bc6 4889CE   		movq	%rcx, %rsi
 1985 0bc9 4889C7   		movq	%rax, %rdi
 1986 0bcc E8000000 		call	_ZN8UnitTest11TestDetailsC1ERKS0_i@PLT
 1986      00
 1987              		.loc 4 106 5 is_stmt 0 discriminator 4
 1988 0bd1 488B5DB8 		movq	-72(%rbp), %rbx
 1989 0bd5 E8000000 		call	_ZN8UnitTest11CurrentTest7ResultsEv@PLT
 1989      00
 1990 0bda 488B00   		movq	(%rax), %rax
 1991 0bdd 488D5590 		leaq	-112(%rbp), %rdx
 1992 0be1 4889D1   		movq	%rdx, %rcx
 1993 0be4 4889DA   		movq	%rbx, %rdx
 1994 0be7 488D3500 		leaq	.LC0(%rip), %rsi
 1994      000000
 1995 0bee 4889C7   		movq	%rax, %rdi
 1996 0bf1 E8000000 		call	_ZN8UnitTest10CheckEqualERNS_11TestResultsEPKcS3_RKNS_11TestDetailsE@PLT
 1996      00
 1997              	.LEHE54:
 1998              	.L90:
 107:TestTest.cpp  **** }
 1999              		.loc 4 107 1 is_stmt 1
 2000 0bf6 488D45B0 		leaq	-80(%rbp), %rax
 2001 0bfa 4889C7   		movq	%rax, %rdi
 2002              	.LEHB55:
 2003 0bfd E8000000 		call	_ZN8UnitTest4TestD1Ev@PLT
 2003      00
 2004              	.LEHE55:
 2005 0c02 488B45E8 		movq	-24(%rbp), %rax
 2006 0c06 64482B04 		subq	%fs:40, %rax
 2006      25280000 
 2006      00
 2007 0c0f 0F84E400 		je	.L92
 2007      0000
 2008 0c15 E9DA0000 		jmp	.L98
 2008      00
 2009              	.L93:
 2010 0c1a F30F1EFA 		endbr64
 105:TestTest.cpp  ****     CHECK(test.m_details.suiteName != NULL);
 2011              		.loc 4 105 5
 2012 0c1e 4889C7   		movq	%rax, %rdi
 2013 0c21 E8000000 		call	__cxa_begin_catch@PLT
 2013      00
 2014              	.LEHB56:
 2015 0c26 E8000000 		call	_ZN8UnitTest11CurrentTest7ResultsEv@PLT
 2015      00
 105:TestTest.cpp  ****     CHECK(test.m_details.suiteName != NULL);
 2016              		.loc 4 105 5 is_stmt 0 discriminator 6
 2017 0c2b 488B18   		movq	(%rax), %rbx
 2018 0c2e E8000000 		call	_ZN8UnitTest11CurrentTest7DetailsEv@PLT
 2018      00
 105:TestTest.cpp  ****     CHECK(test.m_details.suiteName != NULL);
 2019              		.loc 4 105 5 discriminator 12
 2020 0c33 488B08   		movq	(%rax), %rcx
 2021 0c36 488D4590 		leaq	-112(%rbp), %rax
 2022 0c3a BA690000 		movl	$105, %edx
 2022      00
 2023 0c3f 4889CE   		movq	%rcx, %rsi
 2024 0c42 4889C7   		movq	%rax, %rdi
 2025 0c45 E8000000 		call	_ZN8UnitTest11TestDetailsC1ERKS0_i@PLT
 2025      00
 105:TestTest.cpp  ****     CHECK(test.m_details.suiteName != NULL);
 2026              		.loc 4 105 5 discriminator 16
 2027 0c4a 488D4590 		leaq	-112(%rbp), %rax
 2028 0c4e 488D1500 		leaq	.LC21(%rip), %rdx
 2028      000000
 2029 0c55 4889C6   		movq	%rax, %rsi
 2030 0c58 4889DF   		movq	%rbx, %rdi
 2031 0c5b E8000000 		call	_ZN8UnitTest11TestResults13OnTestFailureERKNS_11TestDetailsEPKc@PLT
 2031      00
 2032              	.LEHE56:
 2033              	.LEHB57:
 105:TestTest.cpp  ****     CHECK(test.m_details.suiteName != NULL);
 2034              		.loc 4 105 5 discriminator 18
 2035 0c60 E8000000 		call	__cxa_end_catch@PLT
 2035      00
 2036              	.LEHE57:
 105:TestTest.cpp  ****     CHECK(test.m_details.suiteName != NULL);
 2037              		.loc 4 105 5
 2038 0c65 E94BFFFF 		jmp	.L85
 2038      FF
 2039              	.L95:
 2040 0c6a F30F1EFA 		endbr64
 2041 0c6e 4889C3   		movq	%rax, %rbx
 2042 0c71 E8000000 		call	__cxa_end_catch@PLT
 2042      00
 2043 0c76 EB65     		jmp	.L88
 2044              	.L96:
 2045 0c78 F30F1EFA 		endbr64
 106:TestTest.cpp  ****     CHECK_EQUAL("DefaultSuite", test.m_details.suiteName);
 2046              		.loc 4 106 5 is_stmt 1
 2047 0c7c 4889C7   		movq	%rax, %rdi
 2048 0c7f E8000000 		call	__cxa_begin_catch@PLT
 2048      00
 2049              	.LEHB58:
 2050 0c84 E8000000 		call	_ZN8UnitTest11CurrentTest7ResultsEv@PLT
 2050      00
 106:TestTest.cpp  ****     CHECK_EQUAL("DefaultSuite", test.m_details.suiteName);
 2051              		.loc 4 106 5 is_stmt 0 discriminator 3
 2052 0c89 488B18   		movq	(%rax), %rbx
 2053 0c8c E8000000 		call	_ZN8UnitTest11CurrentTest7DetailsEv@PLT
 2053      00
 106:TestTest.cpp  ****     CHECK_EQUAL("DefaultSuite", test.m_details.suiteName);
 2054              		.loc 4 106 5 discriminator 11
 2055 0c91 488B08   		movq	(%rax), %rcx
 2056 0c94 488D4590 		leaq	-112(%rbp), %rax
 2057 0c98 BA6A0000 		movl	$106, %edx
 2057      00
 2058 0c9d 4889CE   		movq	%rcx, %rsi
 2059 0ca0 4889C7   		movq	%rax, %rdi
 2060 0ca3 E8000000 		call	_ZN8UnitTest11TestDetailsC1ERKS0_i@PLT
 2060      00
 106:TestTest.cpp  ****     CHECK_EQUAL("DefaultSuite", test.m_details.suiteName);
 2061              		.loc 4 106 5 discriminator 15
 2062 0ca8 488D4590 		leaq	-112(%rbp), %rax
 2063 0cac 488D1500 		leaq	.LC22(%rip), %rdx
 2063      000000
 2064 0cb3 4889C6   		movq	%rax, %rsi
 2065 0cb6 4889DF   		movq	%rbx, %rdi
 2066 0cb9 E8000000 		call	_ZN8UnitTest11TestResults13OnTestFailureERKNS_11TestDetailsEPKc@PLT
 2066      00
 2067              	.LEHE58:
 2068              	.LEHB59:
 106:TestTest.cpp  ****     CHECK_EQUAL("DefaultSuite", test.m_details.suiteName);
 2069              		.loc 4 106 5 discriminator 17
 2070 0cbe E8000000 		call	__cxa_end_catch@PLT
 2070      00
 2071              	.LEHE59:
 106:TestTest.cpp  ****     CHECK_EQUAL("DefaultSuite", test.m_details.suiteName);
 2072              		.loc 4 106 5
 2073 0cc3 E92EFFFF 		jmp	.L90
 2073      FF
 2074              	.L97:
 2075 0cc8 F30F1EFA 		endbr64
 2076 0ccc 4889C3   		movq	%rax, %rbx
 2077 0ccf E8000000 		call	__cxa_end_catch@PLT
 2077      00
 2078 0cd4 EB07     		jmp	.L88
 2079              	.L94:
 2080 0cd6 F30F1EFA 		endbr64
 2081              		.loc 4 107 1 is_stmt 1
 2082 0cda 4889C3   		movq	%rax, %rbx
 2083              	.L88:
 2084 0cdd 488D45B0 		leaq	-80(%rbp), %rax
 2085 0ce1 4889C7   		movq	%rax, %rdi
 2086 0ce4 E8000000 		call	_ZN8UnitTest4TestD1Ev@PLT
 2086      00
 2087 0ce9 4889D8   		movq	%rbx, %rax
 2088 0cec 4889C7   		movq	%rax, %rdi
 2089              	.LEHB60:
 2090 0cef E8000000 		call	_Unwind_Resume@PLT
 2090      00
 2091              	.LEHE60:
 2092              	.L98:
 2093 0cf4 E8000000 		call	__stack_chk_fail@PLT
 2093      00
 2094              	.L92:
 2095 0cf9 488B5DF8 		movq	-8(%rbp), %rbx
 2096 0cfd C9       		leave
 2097              		.cfi_def_cfa 7, 8
 2098 0cfe C3       		ret
 2099              		.cfi_endproc
 2100              	.LFE1185:
 2101              		.section	.gcc_except_table
 2102              		.align 4
 2103              	.LLSDA1185:
 2104 0130 FF       		.byte	0xff
 2105 0131 9B       		.byte	0x9b
 2106 0132 39       		.uleb128 .LLSDATT1185-.LLSDATTD1185
 2107              	.LLSDATTD1185:
 2108 0133 01       		.byte	0x1
 2109 0134 31       		.uleb128 .LLSDACSE1185-.LLSDACSB1185
 2110              	.LLSDACSB1185:
 2111 0135 45       		.uleb128 .LEHB52-.LFB1185
 2112 0136 05       		.uleb128 .LEHE52-.LEHB52
 2113 0137 00       		.uleb128 0
 2114 0138 00       		.uleb128 0
 2115 0139 65       		.uleb128 .LEHB53-.LFB1185
 2116 013a 3A       		.uleb128 .LEHE53-.LEHB53
 2117 013b 8402     		.uleb128 .L93-.LFB1185
 2118 013d 01       		.uleb128 0x1
 2119 013e 9F01     		.uleb128 .LEHB54-.LFB1185
 2120 0140 41       		.uleb128 .LEHE54-.LEHB54
 2121 0141 E202     		.uleb128 .L96-.LFB1185
 2122 0143 01       		.uleb128 0x1
 2123 0144 E701     		.uleb128 .LEHB55-.LFB1185
 2124 0146 05       		.uleb128 .LEHE55-.LEHB55
 2125 0147 00       		.uleb128 0
 2126 0148 00       		.uleb128 0
 2127 0149 9002     		.uleb128 .LEHB56-.LFB1185
 2128 014b 3A       		.uleb128 .LEHE56-.LEHB56
 2129 014c D402     		.uleb128 .L95-.LFB1185
 2130 014e 00       		.uleb128 0
 2131 014f CA02     		.uleb128 .LEHB57-.LFB1185
 2132 0151 05       		.uleb128 .LEHE57-.LEHB57
 2133 0152 C003     		.uleb128 .L94-.LFB1185
 2134 0154 00       		.uleb128 0
 2135 0155 EE02     		.uleb128 .LEHB58-.LFB1185
 2136 0157 3A       		.uleb128 .LEHE58-.LEHB58
 2137 0158 B203     		.uleb128 .L97-.LFB1185
 2138 015a 00       		.uleb128 0
 2139 015b A803     		.uleb128 .LEHB59-.LFB1185
 2140 015d 05       		.uleb128 .LEHE59-.LEHB59
 2141 015e C003     		.uleb128 .L94-.LFB1185
 2142 0160 00       		.uleb128 0
 2143 0161 D903     		.uleb128 .LEHB60-.LFB1185
 2144 0163 05       		.uleb128 .LEHE60-.LEHB60
 2145 0164 00       		.uleb128 0
 2146 0165 00       		.uleb128 0
 2147              	.LLSDACSE1185:
 2148 0166 01       		.byte	0x1
 2149 0167 00       		.byte	0
 2150              		.align 4
 2151 0168 00000000 		.long	0
 2152              	
 2153              	.LLSDATT1185:
 2154              		.text
 2156              		.section	.rodata
 2157 0295 000000   		.align 8
 2158              	.LC23:
 2159 0298 54657374 		.string	"TestReflectsSpecifiedSuiteName"
 2159      5265666C 
 2159      65637473 
 2159      53706563 
 2159      69666965 
 2160              		.text
 2161 0cff 90       		.align 2
 2163              	_ZN12_GLOBAL__N_134TestTestReflectsSpecifiedSuiteNameC2Ev:
 2164              	.LFB1187:
 108:TestTest.cpp  **** 
 109:TestTest.cpp  **** TEST(TestReflectsSpecifiedSuiteName)
 2165              		.loc 4 109 1
 2166              		.cfi_startproc
 2167 0d00 55       		pushq	%rbp
 2168              		.cfi_def_cfa_offset 16
 2169              		.cfi_offset 6, -16
 2170 0d01 4889E5   		movq	%rsp, %rbp
 2171              		.cfi_def_cfa_register 6
 2172 0d04 53       		pushq	%rbx
 2173 0d05 4883EC18 		subq	$24, %rsp
 2174              		.cfi_offset 3, -24
 2175 0d09 48897DE8 		movq	%rdi, -24(%rbp)
 2176              	.LBB23:
 2177              		.loc 4 109 1
 2178 0d0d 488B5DE8 		movq	-24(%rbp), %rbx
 2179 0d11 E8000000 		call	_ZN13UnitTestSuite12GetSuiteNameEv
 2179      00
 2180 0d16 4889C2   		movq	%rax, %rdx
 2181 0d19 41B86D00 		movl	$109, %r8d
 2181      0000
 2182 0d1f 488D0500 		leaq	.LC1(%rip), %rax
 2182      000000
 2183 0d26 4889C1   		movq	%rax, %rcx
 2184 0d29 488D0500 		leaq	.LC23(%rip), %rax
 2184      000000
 2185 0d30 4889C6   		movq	%rax, %rsi
 2186 0d33 4889DF   		movq	%rbx, %rdi
 2187 0d36 E8000000 		call	_ZN8UnitTest4TestC2EPKcS2_S2_i@PLT
 2187      00
 2188 0d3b 488D1500 		leaq	16+_ZTVN12_GLOBAL__N_134TestTestReflectsSpecifiedSuiteNameE(%rip), %rdx
 2188      000000
 2189 0d42 488B45E8 		movq	-24(%rbp), %rax
 2190 0d46 488910   		movq	%rdx, (%rax)
 2191              	.LBE23:
 2192 0d49 90       		nop
 2193 0d4a 488B5DF8 		movq	-8(%rbp), %rbx
 2194 0d4e C9       		leave
 2195              		.cfi_def_cfa 7, 8
 2196 0d4f C3       		ret
 2197              		.cfi_endproc
 2198              	.LFE1187:
 2200              		.set	_ZN12_GLOBAL__N_134TestTestReflectsSpecifiedSuiteNameC1Ev,_ZN12_GLOBAL__N_134TestTestReflects
 2201              		.local	_ZN12_GLOBAL__N_142testTestReflectsSpecifiedSuiteNameInstanceE
 2202              		.comm	_ZN12_GLOBAL__N_142testTestReflectsSpecifiedSuiteNameInstanceE,56,32
 2203              		.local	_ZN12_GLOBAL__N_135adderTestReflectsSpecifiedSuiteNameE
 2204              		.comm	_ZN12_GLOBAL__N_135adderTestReflectsSpecifiedSuiteNameE,1,1
 2205              		.section	.rodata
 2206              	.LC24:
 2207 02b7 74657374 		.string	"testSuite"
 2207      53756974 
 2207      6500
 2208 02c1 00000000 		.align 8
 2208      000000
 2209              	.LC25:
 2210 02c8 556E6861 		.string	"Unhandled exception in CHECK_EQUAL(\"testSuite\", test.m_details.suiteName)"
 2210      6E646C65 
 2210      64206578 
 2210      63657074 
 2210      696F6E20 
 2211              		.text
 2212              		.align 2
 2214              	_ZNK12_GLOBAL__N_134TestTestReflectsSpecifiedSuiteName7RunImplEv:
 2215              	.LFB1189:
 110:TestTest.cpp  **** {
 2216              		.loc 4 110 1
 2217              		.cfi_startproc
 2218              		.cfi_personality 0x9b,DW.ref.__gxx_personality_v0
 2219              		.cfi_lsda 0x1b,.LLSDA1189
 2220 0d50 F30F1EFA 		endbr64
 2221 0d54 55       		pushq	%rbp
 2222              		.cfi_def_cfa_offset 16
 2223              		.cfi_offset 6, -16
 2224 0d55 4889E5   		movq	%rsp, %rbp
 2225              		.cfi_def_cfa_register 6
 2226 0d58 53       		pushq	%rbx
 2227 0d59 4883EC78 		subq	$120, %rsp
 2228              		.cfi_offset 3, -24
 2229 0d5d 48897D88 		movq	%rdi, -120(%rbp)
 2230              		.loc 4 110 1
 2231 0d61 64488B04 		movq	%fs:40, %rax
 2231      25280000 
 2231      00
 2232 0d6a 488945E8 		movq	%rax, -24(%rbp)
 2233 0d6e 31C0     		xorl	%eax, %eax
 111:TestTest.cpp  ****     Test test("test", "testSuite");
 2234              		.loc 4 111 34
 2235 0d70 488D45B0 		leaq	-80(%rbp), %rax
 2236 0d74 41B80000 		movl	$0, %r8d
 2236      0000
 2237 0d7a 488D1500 		leaq	.LC3(%rip), %rdx
 2237      000000
 2238 0d81 4889D1   		movq	%rdx, %rcx
 2239 0d84 488D1500 		leaq	.LC24(%rip), %rdx
 2239      000000
 2240 0d8b 488D3500 		leaq	.LC19(%rip), %rsi
 2240      000000
 2241 0d92 4889C7   		movq	%rax, %rdi
 2242              	.LEHB61:
 2243 0d95 E8000000 		call	_ZN8UnitTest4TestC1EPKcS2_S2_i@PLT
 2243      00
 2244              	.LEHE61:
 112:TestTest.cpp  ****     CHECK(test.m_details.suiteName != NULL);
 2245              		.loc 4 112 5
 2246 0d9a 488B45B8 		movq	-72(%rbp), %rax
 2247 0d9e 4885C0   		testq	%rax, %rax
 2248 0da1 0F95C0   		setne	%al
 2249 0da4 0FB6C0   		movzbl	%al, %eax
 2250 0da7 89C7     		movl	%eax, %edi
 2251 0da9 E8000000 		call	_ZN8UnitTest5CheckIbEEbT_
 2251      00
 2252 0dae 83F001   		xorl	$1, %eax
 2253 0db1 84C0     		testb	%al, %al
 2254 0db3 743A     		je	.L101
 2255              	.LEHB62:
 2256              		.loc 4 112 5 is_stmt 0 discriminator 1
 2257 0db5 E8000000 		call	_ZN8UnitTest11CurrentTest7ResultsEv@PLT
 2257      00
 2258 0dba 488B18   		movq	(%rax), %rbx
 2259 0dbd E8000000 		call	_ZN8UnitTest11CurrentTest7DetailsEv@PLT
 2259      00
 2260              		.loc 4 112 5 discriminator 3
 2261 0dc2 488B08   		movq	(%rax), %rcx
 2262 0dc5 488D4590 		leaq	-112(%rbp), %rax
 2263 0dc9 BA700000 		movl	$112, %edx
 2263      00
 2264 0dce 4889CE   		movq	%rcx, %rsi
 2265 0dd1 4889C7   		movq	%rax, %rdi
 2266 0dd4 E8000000 		call	_ZN8UnitTest11TestDetailsC1ERKS0_i@PLT
 2266      00
 2267              		.loc 4 112 5 discriminator 7
 2268 0dd9 488D4590 		leaq	-112(%rbp), %rax
 2269 0ddd 488D1500 		leaq	.LC20(%rip), %rdx
 2269      000000
 2270 0de4 4889C6   		movq	%rax, %rsi
 2271 0de7 4889DF   		movq	%rbx, %rdi
 2272 0dea E8000000 		call	_ZN8UnitTest11TestResults13OnTestFailureERKNS_11TestDetailsEPKc@PLT
 2272      00
 2273              	.LEHE62:
 2274              	.L101:
 2275              	.LEHB63:
 113:TestTest.cpp  ****     CHECK_EQUAL("testSuite", test.m_details.suiteName);
 2276              		.loc 4 113 5 is_stmt 1
 2277 0def E8000000 		call	_ZN8UnitTest11CurrentTest7DetailsEv@PLT
 2277      00
 2278 0df4 488B08   		movq	(%rax), %rcx
 2279 0df7 488D4590 		leaq	-112(%rbp), %rax
 2280 0dfb BA710000 		movl	$113, %edx
 2280      00
 2281 0e00 4889CE   		movq	%rcx, %rsi
 2282 0e03 4889C7   		movq	%rax, %rdi
 2283 0e06 E8000000 		call	_ZN8UnitTest11TestDetailsC1ERKS0_i@PLT
 2283      00
 2284              		.loc 4 113 5 is_stmt 0 discriminator 4
 2285 0e0b 488B5DB8 		movq	-72(%rbp), %rbx
 2286 0e0f E8000000 		call	_ZN8UnitTest11CurrentTest7ResultsEv@PLT
 2286      00
 2287 0e14 488B00   		movq	(%rax), %rax
 2288 0e17 488D5590 		leaq	-112(%rbp), %rdx
 2289 0e1b 4889D1   		movq	%rdx, %rcx
 2290 0e1e 4889DA   		movq	%rbx, %rdx
 2291 0e21 488D3500 		leaq	.LC24(%rip), %rsi
 2291      000000
 2292 0e28 4889C7   		movq	%rax, %rdi
 2293 0e2b E8000000 		call	_ZN8UnitTest10CheckEqualERNS_11TestResultsEPKcS3_RKNS_11TestDetailsE@PLT
 2293      00
 2294              	.LEHE63:
 2295              	.L106:
 114:TestTest.cpp  **** }
 2296              		.loc 4 114 1 is_stmt 1
 2297 0e30 488D45B0 		leaq	-80(%rbp), %rax
 2298 0e34 4889C7   		movq	%rax, %rdi
 2299              	.LEHB64:
 2300 0e37 E8000000 		call	_ZN8UnitTest4TestD1Ev@PLT
 2300      00
 2301              	.LEHE64:
 2302 0e3c 488B45E8 		movq	-24(%rbp), %rax
 2303 0e40 64482B04 		subq	%fs:40, %rax
 2303      25280000 
 2303      00
 2304 0e49 0F84E400 		je	.L108
 2304      0000
 2305 0e4f E9DA0000 		jmp	.L114
 2305      00
 2306              	.L109:
 2307 0e54 F30F1EFA 		endbr64
 112:TestTest.cpp  ****     CHECK(test.m_details.suiteName != NULL);
 2308              		.loc 4 112 5
 2309 0e58 4889C7   		movq	%rax, %rdi
 2310 0e5b E8000000 		call	__cxa_begin_catch@PLT
 2310      00
 2311              	.LEHB65:
 2312 0e60 E8000000 		call	_ZN8UnitTest11CurrentTest7ResultsEv@PLT
 2312      00
 112:TestTest.cpp  ****     CHECK(test.m_details.suiteName != NULL);
 2313              		.loc 4 112 5 is_stmt 0 discriminator 6
 2314 0e65 488B18   		movq	(%rax), %rbx
 2315 0e68 E8000000 		call	_ZN8UnitTest11CurrentTest7DetailsEv@PLT
 2315      00
 112:TestTest.cpp  ****     CHECK(test.m_details.suiteName != NULL);
 2316              		.loc 4 112 5 discriminator 12
 2317 0e6d 488B08   		movq	(%rax), %rcx
 2318 0e70 488D4590 		leaq	-112(%rbp), %rax
 2319 0e74 BA700000 		movl	$112, %edx
 2319      00
 2320 0e79 4889CE   		movq	%rcx, %rsi
 2321 0e7c 4889C7   		movq	%rax, %rdi
 2322 0e7f E8000000 		call	_ZN8UnitTest11TestDetailsC1ERKS0_i@PLT
 2322      00
 112:TestTest.cpp  ****     CHECK(test.m_details.suiteName != NULL);
 2323              		.loc 4 112 5 discriminator 16
 2324 0e84 488D4590 		leaq	-112(%rbp), %rax
 2325 0e88 488D1500 		leaq	.LC21(%rip), %rdx
 2325      000000
 2326 0e8f 4889C6   		movq	%rax, %rsi
 2327 0e92 4889DF   		movq	%rbx, %rdi
 2328 0e95 E8000000 		call	_ZN8UnitTest11TestResults13OnTestFailureERKNS_11TestDetailsEPKc@PLT
 2328      00
 2329              	.LEHE65:
 2330              	.LEHB66:
 112:TestTest.cpp  ****     CHECK(test.m_details.suiteName != NULL);
 2331              		.loc 4 112 5 discriminator 18
 2332 0e9a E8000000 		call	__cxa_end_catch@PLT
 2332      00
 2333              	.LEHE66:
 112:TestTest.cpp  ****     CHECK(test.m_details.suiteName != NULL);
 2334              		.loc 4 112 5
 2335 0e9f E94BFFFF 		jmp	.L101
 2335      FF
 2336              	.L111:
 2337 0ea4 F30F1EFA 		endbr64
 2338 0ea8 4889C3   		movq	%rax, %rbx
 2339 0eab E8000000 		call	__cxa_end_catch@PLT
 2339      00
 2340 0eb0 EB65     		jmp	.L104
 2341              	.L112:
 2342 0eb2 F30F1EFA 		endbr64
 113:TestTest.cpp  ****     CHECK_EQUAL("testSuite", test.m_details.suiteName);
 2343              		.loc 4 113 5 is_stmt 1
 2344 0eb6 4889C7   		movq	%rax, %rdi
 2345 0eb9 E8000000 		call	__cxa_begin_catch@PLT
 2345      00
 2346              	.LEHB67:
 2347 0ebe E8000000 		call	_ZN8UnitTest11CurrentTest7ResultsEv@PLT
 2347      00
 113:TestTest.cpp  ****     CHECK_EQUAL("testSuite", test.m_details.suiteName);
 2348              		.loc 4 113 5 is_stmt 0 discriminator 3
 2349 0ec3 488B18   		movq	(%rax), %rbx
 2350 0ec6 E8000000 		call	_ZN8UnitTest11CurrentTest7DetailsEv@PLT
 2350      00
 113:TestTest.cpp  ****     CHECK_EQUAL("testSuite", test.m_details.suiteName);
 2351              		.loc 4 113 5 discriminator 11
 2352 0ecb 488B08   		movq	(%rax), %rcx
 2353 0ece 488D4590 		leaq	-112(%rbp), %rax
 2354 0ed2 BA710000 		movl	$113, %edx
 2354      00
 2355 0ed7 4889CE   		movq	%rcx, %rsi
 2356 0eda 4889C7   		movq	%rax, %rdi
 2357 0edd E8000000 		call	_ZN8UnitTest11TestDetailsC1ERKS0_i@PLT
 2357      00
 113:TestTest.cpp  ****     CHECK_EQUAL("testSuite", test.m_details.suiteName);
 2358              		.loc 4 113 5 discriminator 15
 2359 0ee2 488D4590 		leaq	-112(%rbp), %rax
 2360 0ee6 488D1500 		leaq	.LC25(%rip), %rdx
 2360      000000
 2361 0eed 4889C6   		movq	%rax, %rsi
 2362 0ef0 4889DF   		movq	%rbx, %rdi
 2363 0ef3 E8000000 		call	_ZN8UnitTest11TestResults13OnTestFailureERKNS_11TestDetailsEPKc@PLT
 2363      00
 2364              	.LEHE67:
 2365              	.LEHB68:
 113:TestTest.cpp  ****     CHECK_EQUAL("testSuite", test.m_details.suiteName);
 2366              		.loc 4 113 5 discriminator 17
 2367 0ef8 E8000000 		call	__cxa_end_catch@PLT
 2367      00
 2368              	.LEHE68:
 113:TestTest.cpp  ****     CHECK_EQUAL("testSuite", test.m_details.suiteName);
 2369              		.loc 4 113 5
 2370 0efd E92EFFFF 		jmp	.L106
 2370      FF
 2371              	.L113:
 2372 0f02 F30F1EFA 		endbr64
 2373 0f06 4889C3   		movq	%rax, %rbx
 2374 0f09 E8000000 		call	__cxa_end_catch@PLT
 2374      00
 2375 0f0e EB07     		jmp	.L104
 2376              	.L110:
 2377 0f10 F30F1EFA 		endbr64
 2378              		.loc 4 114 1 is_stmt 1
 2379 0f14 4889C3   		movq	%rax, %rbx
 2380              	.L104:
 2381 0f17 488D45B0 		leaq	-80(%rbp), %rax
 2382 0f1b 4889C7   		movq	%rax, %rdi
 2383 0f1e E8000000 		call	_ZN8UnitTest4TestD1Ev@PLT
 2383      00
 2384 0f23 4889D8   		movq	%rbx, %rax
 2385 0f26 4889C7   		movq	%rax, %rdi
 2386              	.LEHB69:
 2387 0f29 E8000000 		call	_Unwind_Resume@PLT
 2387      00
 2388              	.LEHE69:
 2389              	.L114:
 2390 0f2e E8000000 		call	__stack_chk_fail@PLT
 2390      00
 2391              	.L108:
 2392 0f33 488B5DF8 		movq	-8(%rbp), %rbx
 2393 0f37 C9       		leave
 2394              		.cfi_def_cfa 7, 8
 2395 0f38 C3       		ret
 2396              		.cfi_endproc
 2397              	.LFE1189:
 2398              		.section	.gcc_except_table
 2399              		.align 4
 2400              	.LLSDA1189:
 2401 016c FF       		.byte	0xff
 2402 016d 9B       		.byte	0x9b
 2403 016e 39       		.uleb128 .LLSDATT1189-.LLSDATTD1189
 2404              	.LLSDATTD1189:
 2405 016f 01       		.byte	0x1
 2406 0170 31       		.uleb128 .LLSDACSE1189-.LLSDACSB1189
 2407              	.LLSDACSB1189:
 2408 0171 45       		.uleb128 .LEHB61-.LFB1189
 2409 0172 05       		.uleb128 .LEHE61-.LEHB61
 2410 0173 00       		.uleb128 0
 2411 0174 00       		.uleb128 0
 2412 0175 65       		.uleb128 .LEHB62-.LFB1189
 2413 0176 3A       		.uleb128 .LEHE62-.LEHB62
 2414 0177 8402     		.uleb128 .L109-.LFB1189
 2415 0179 01       		.uleb128 0x1
 2416 017a 9F01     		.uleb128 .LEHB63-.LFB1189
 2417 017c 41       		.uleb128 .LEHE63-.LEHB63
 2418 017d E202     		.uleb128 .L112-.LFB1189
 2419 017f 01       		.uleb128 0x1
 2420 0180 E701     		.uleb128 .LEHB64-.LFB1189
 2421 0182 05       		.uleb128 .LEHE64-.LEHB64
 2422 0183 00       		.uleb128 0
 2423 0184 00       		.uleb128 0
 2424 0185 9002     		.uleb128 .LEHB65-.LFB1189
 2425 0187 3A       		.uleb128 .LEHE65-.LEHB65
 2426 0188 D402     		.uleb128 .L111-.LFB1189
 2427 018a 00       		.uleb128 0
 2428 018b CA02     		.uleb128 .LEHB66-.LFB1189
 2429 018d 05       		.uleb128 .LEHE66-.LEHB66
 2430 018e C003     		.uleb128 .L110-.LFB1189
 2431 0190 00       		.uleb128 0
 2432 0191 EE02     		.uleb128 .LEHB67-.LFB1189
 2433 0193 3A       		.uleb128 .LEHE67-.LEHB67
 2434 0194 B203     		.uleb128 .L113-.LFB1189
 2435 0196 00       		.uleb128 0
 2436 0197 A803     		.uleb128 .LEHB68-.LFB1189
 2437 0199 05       		.uleb128 .LEHE68-.LEHB68
 2438 019a C003     		.uleb128 .L110-.LFB1189
 2439 019c 00       		.uleb128 0
 2440 019d D903     		.uleb128 .LEHB69-.LFB1189
 2441 019f 05       		.uleb128 .LEHE69-.LEHB69
 2442 01a0 00       		.uleb128 0
 2443 01a1 00       		.uleb128 0
 2444              	.LLSDACSE1189:
 2445 01a2 01       		.byte	0x1
 2446 01a3 00       		.byte	0
 2447              		.align 4
 2448 01a4 00000000 		.long	0
 2449              	
 2450              	.LLSDATT1189:
 2451              		.text
 2454              	_ZN12_GLOBAL__N_14FailEv:
 2455              	.LFB1190:
 115:TestTest.cpp  **** 
 116:TestTest.cpp  **** void Fail()
 117:TestTest.cpp  **** {
 2456              		.loc 4 117 1
 2457              		.cfi_startproc
 2458              		.cfi_personality 0x9b,DW.ref.__gxx_personality_v0
 2459              		.cfi_lsda 0x1b,.LLSDA1190
 2460 0f39 F30F1EFA 		endbr64
 2461 0f3d 55       		pushq	%rbp
 2462              		.cfi_def_cfa_offset 16
 2463              		.cfi_offset 6, -16
 2464 0f3e 4889E5   		movq	%rsp, %rbp
 2465              		.cfi_def_cfa_register 6
 2466 0f41 53       		pushq	%rbx
 2467 0f42 4883EC38 		subq	$56, %rsp
 2468              		.cfi_offset 3, -24
 2469              		.loc 4 117 1
 2470 0f46 64488B04 		movq	%fs:40, %rax
 2470      25280000 
 2470      00
 2471 0f4f 488945E8 		movq	%rax, -24(%rbp)
 2472 0f53 31C0     		xorl	%eax, %eax
 118:TestTest.cpp  **** 	CHECK(false);
 2473              		.loc 4 118 2
 2474 0f55 BF000000 		movl	$0, %edi
 2474      00
 2475 0f5a E8000000 		call	_ZN8UnitTest5CheckIbEEbT_
 2475      00
 2476 0f5f 83F001   		xorl	$1, %eax
 2477 0f62 84C0     		testb	%al, %al
 2478 0f64 0F84A000 		je	.L122
 2478      0000
 2479              	.LEHB70:
 2480              		.loc 4 118 2 is_stmt 0 discriminator 1
 2481 0f6a E8000000 		call	_ZN8UnitTest11CurrentTest7ResultsEv@PLT
 2481      00
 2482 0f6f 488B18   		movq	(%rax), %rbx
 2483 0f72 E8000000 		call	_ZN8UnitTest11CurrentTest7DetailsEv@PLT
 2483      00
 2484              		.loc 4 118 2 discriminator 3
 2485 0f77 488B08   		movq	(%rax), %rcx
 2486 0f7a 488D45C0 		leaq	-64(%rbp), %rax
 2487 0f7e BA760000 		movl	$118, %edx
 2487      00
 2488 0f83 4889CE   		movq	%rcx, %rsi
 2489 0f86 4889C7   		movq	%rax, %rdi
 2490 0f89 E8000000 		call	_ZN8UnitTest11TestDetailsC1ERKS0_i@PLT
 2490      00
 2491              		.loc 4 118 2 discriminator 7
 2492 0f8e 488D45C0 		leaq	-64(%rbp), %rax
 2493 0f92 488D1500 		leaq	.LC10(%rip), %rdx
 2493      000000
 2494 0f99 4889C6   		movq	%rax, %rsi
 2495 0f9c 4889DF   		movq	%rbx, %rdi
 2496 0f9f E8000000 		call	_ZN8UnitTest11TestResults13OnTestFailureERKNS_11TestDetailsEPKc@PLT
 2496      00
 2497              	.LEHE70:
 119:TestTest.cpp  **** }
 2498              		.loc 4 119 1 is_stmt 1
 2499 0fa4 EB64     		jmp	.L122
 2500              	.L120:
 2501 0fa6 F30F1EFA 		endbr64
 118:TestTest.cpp  **** 	CHECK(false);
 2502              		.loc 4 118 2
 2503 0faa 4889C7   		movq	%rax, %rdi
 2504 0fad E8000000 		call	__cxa_begin_catch@PLT
 2504      00
 2505              	.LEHB71:
 2506 0fb2 E8000000 		call	_ZN8UnitTest11CurrentTest7ResultsEv@PLT
 2506      00
 118:TestTest.cpp  **** 	CHECK(false);
 2507              		.loc 4 118 2 is_stmt 0 discriminator 6
 2508 0fb7 488B18   		movq	(%rax), %rbx
 2509 0fba E8000000 		call	_ZN8UnitTest11CurrentTest7DetailsEv@PLT
 2509      00
 118:TestTest.cpp  **** 	CHECK(false);
 2510              		.loc 4 118 2 discriminator 12
 2511 0fbf 488B08   		movq	(%rax), %rcx
 2512 0fc2 488D45C0 		leaq	-64(%rbp), %rax
 2513 0fc6 BA760000 		movl	$118, %edx
 2513      00
 2514 0fcb 4889CE   		movq	%rcx, %rsi
 2515 0fce 4889C7   		movq	%rax, %rdi
 2516 0fd1 E8000000 		call	_ZN8UnitTest11TestDetailsC1ERKS0_i@PLT
 2516      00
 118:TestTest.cpp  **** 	CHECK(false);
 2517              		.loc 4 118 2 discriminator 16
 2518 0fd6 488D45C0 		leaq	-64(%rbp), %rax
 2519 0fda 488D1500 		leaq	.LC11(%rip), %rdx
 2519      000000
 2520 0fe1 4889C6   		movq	%rax, %rsi
 2521 0fe4 4889DF   		movq	%rbx, %rdi
 2522 0fe7 E8000000 		call	_ZN8UnitTest11TestResults13OnTestFailureERKNS_11TestDetailsEPKc@PLT
 2522      00
 2523              	.LEHE71:
 2524              	.LEHB72:
 118:TestTest.cpp  **** 	CHECK(false);
 2525              		.loc 4 118 2 discriminator 18
 2526 0fec E8000000 		call	__cxa_end_catch@PLT
 2526      00
 2527              	.LEHE72:
 2528              		.loc 4 119 1 is_stmt 1 discriminator 18
 2529 0ff1 EB17     		jmp	.L122
 2530              	.L121:
 2531 0ff3 F30F1EFA 		endbr64
 118:TestTest.cpp  **** 	CHECK(false);
 2532              		.loc 4 118 2
 2533 0ff7 4889C3   		movq	%rax, %rbx
 2534 0ffa E8000000 		call	__cxa_end_catch@PLT
 2534      00
 2535 0fff 4889D8   		movq	%rbx, %rax
 2536 1002 4889C7   		movq	%rax, %rdi
 2537              	.LEHB73:
 2538 1005 E8000000 		call	_Unwind_Resume@PLT
 2538      00
 2539              	.LEHE73:
 2540              	.L122:
 2541              		.loc 4 119 1
 2542 100a 90       		nop
 2543 100b 488B45E8 		movq	-24(%rbp), %rax
 2544 100f 64482B04 		subq	%fs:40, %rax
 2544      25280000 
 2544      00
 2545 1018 7405     		je	.L119
 2546 101a E8000000 		call	__stack_chk_fail@PLT
 2546      00
 2547              	.L119:
 2548 101f 488B5DF8 		movq	-8(%rbp), %rbx
 2549 1023 C9       		leave
 2550              		.cfi_def_cfa 7, 8
 2551 1024 C3       		ret
 2552              		.cfi_endproc
 2553              	.LFE1190:
 2554              		.section	.gcc_except_table
 2555              		.align 4
 2556              	.LLSDA1190:
 2557 01a8 FF       		.byte	0xff
 2558 01a9 9B       		.byte	0x9b
 2559 01aa 1D       		.uleb128 .LLSDATT1190-.LLSDATTD1190
 2560              	.LLSDATTD1190:
 2561 01ab 01       		.byte	0x1
 2562 01ac 13       		.uleb128 .LLSDACSE1190-.LLSDACSB1190
 2563              	.LLSDACSB1190:
 2564 01ad 31       		.uleb128 .LEHB70-.LFB1190
 2565 01ae 3A       		.uleb128 .LEHE70-.LEHB70
 2566 01af 6D       		.uleb128 .L120-.LFB1190
 2567 01b0 01       		.uleb128 0x1
 2568 01b1 79       		.uleb128 .LEHB71-.LFB1190
 2569 01b2 3A       		.uleb128 .LEHE71-.LEHB71
 2570 01b3 BA01     		.uleb128 .L121-.LFB1190
 2571 01b5 00       		.uleb128 0
 2572 01b6 B301     		.uleb128 .LEHB72-.LFB1190
 2573 01b8 05       		.uleb128 .LEHE72-.LEHB72
 2574 01b9 00       		.uleb128 0
 2575 01ba 00       		.uleb128 0
 2576 01bb CC01     		.uleb128 .LEHB73-.LFB1190
 2577 01bd 05       		.uleb128 .LEHE73-.LEHB73
 2578 01be 00       		.uleb128 0
 2579 01bf 00       		.uleb128 0
 2580              	.LLSDACSE1190:
 2581 01c0 01       		.byte	0x1
 2582 01c1 00       		.byte	0
 2583 01c2 0000     		.align 4
 2584 01c4 00000000 		.long	0
 2585              	
 2586              	.LLSDATT1190:
 2587              		.text
 2589              		.section	.rodata
 2590 0312 00000000 		.align 8
 2590      0000
 2591              	.LC26:
 2592 0318 4F75744F 		.string	"OutOfCoreCHECKMacrosCanFailTests"
 2592      66436F72 
 2592      65434845 
 2592      434B4D61 
 2592      63726F73 
 2593              		.text
 2594 1025 90       		.align 2
 2596              	_ZN12_GLOBAL__N_136TestOutOfCoreCHECKMacrosCanFailTestsC2Ev:
 2597              	.LFB1192:
 120:TestTest.cpp  **** 
 121:TestTest.cpp  **** TEST(OutOfCoreCHECKMacrosCanFailTests)
 2598              		.loc 4 121 1
 2599              		.cfi_startproc
 2600 1026 55       		pushq	%rbp
 2601              		.cfi_def_cfa_offset 16
 2602              		.cfi_offset 6, -16
 2603 1027 4889E5   		movq	%rsp, %rbp
 2604              		.cfi_def_cfa_register 6
 2605 102a 53       		pushq	%rbx
 2606 102b 4883EC18 		subq	$24, %rsp
 2607              		.cfi_offset 3, -24
 2608 102f 48897DE8 		movq	%rdi, -24(%rbp)
 2609              	.LBB24:
 2610              		.loc 4 121 1
 2611 1033 488B5DE8 		movq	-24(%rbp), %rbx
 2612 1037 E8000000 		call	_ZN13UnitTestSuite12GetSuiteNameEv
 2612      00
 2613 103c 4889C2   		movq	%rax, %rdx
 2614 103f 41B87900 		movl	$121, %r8d
 2614      0000
 2615 1045 488D0500 		leaq	.LC1(%rip), %rax
 2615      000000
 2616 104c 4889C1   		movq	%rax, %rcx
 2617 104f 488D0500 		leaq	.LC26(%rip), %rax
 2617      000000
 2618 1056 4889C6   		movq	%rax, %rsi
 2619 1059 4889DF   		movq	%rbx, %rdi
 2620 105c E8000000 		call	_ZN8UnitTest4TestC2EPKcS2_S2_i@PLT
 2620      00
 2621 1061 488D1500 		leaq	16+_ZTVN12_GLOBAL__N_136TestOutOfCoreCHECKMacrosCanFailTestsE(%rip), %rdx
 2621      000000
 2622 1068 488B45E8 		movq	-24(%rbp), %rax
 2623 106c 488910   		movq	%rdx, (%rax)
 2624              	.LBE24:
 2625 106f 90       		nop
 2626 1070 488B5DF8 		movq	-8(%rbp), %rbx
 2627 1074 C9       		leave
 2628              		.cfi_def_cfa 7, 8
 2629 1075 C3       		ret
 2630              		.cfi_endproc
 2631              	.LFE1192:
 2633              		.set	_ZN12_GLOBAL__N_136TestOutOfCoreCHECKMacrosCanFailTestsC1Ev,_ZN12_GLOBAL__N_136TestOutOfCoreC
 2634              		.local	_ZN12_GLOBAL__N_144testOutOfCoreCHECKMacrosCanFailTestsInstanceE
 2635              		.comm	_ZN12_GLOBAL__N_144testOutOfCoreCHECKMacrosCanFailTestsInstanceE,56,32
 2636              		.local	_ZN12_GLOBAL__N_137adderOutOfCoreCHECKMacrosCanFailTestsE
 2637              		.comm	_ZN12_GLOBAL__N_137adderOutOfCoreCHECKMacrosCanFailTestsE,1,1
 2638              		.align 2
 2640              	_ZNK12_GLOBAL__N_136TestOutOfCoreCHECKMacrosCanFailTests7RunImplEv:
 2641              	.LFB1194:
 122:TestTest.cpp  **** {
 2642              		.loc 4 122 1
 2643              		.cfi_startproc
 2644              		.cfi_personality 0x9b,DW.ref.__gxx_personality_v0
 2645              		.cfi_lsda 0x1b,.LLSDA1194
 2646 1076 F30F1EFA 		endbr64
 2647 107a 55       		pushq	%rbp
 2648              		.cfi_def_cfa_offset 16
 2649              		.cfi_offset 6, -16
 2650 107b 4889E5   		movq	%rsp, %rbp
 2651              		.cfi_def_cfa_register 6
 2652 107e 53       		pushq	%rbx
 2653 107f 4883EC78 		subq	$120, %rsp
 2654              		.cfi_offset 3, -24
 2655 1083 48897D88 		movq	%rdi, -120(%rbp)
 2656              		.loc 4 122 1
 2657 1087 64488B04 		movq	%fs:40, %rax
 2657      25280000 
 2657      00
 2658 1090 488945E8 		movq	%rax, -24(%rbp)
 2659 1094 31C0     		xorl	%eax, %eax
 123:TestTest.cpp  **** 	TestResults results;
 2660              		.loc 4 123 14
 2661 1096 488D45A0 		leaq	-96(%rbp), %rax
 2662 109a BE000000 		movl	$0, %esi
 2662      00
 2663 109f 4889C7   		movq	%rax, %rdi
 2664              	.LEHB74:
 2665 10a2 E8000000 		call	_ZN8UnitTest11TestResultsC1EPNS_12TestReporterE@PLT
 2665      00
 2666              	.LBB25:
 124:TestTest.cpp  **** 	{
 125:TestTest.cpp  **** 		ScopedCurrentTest scopedResult(results);
 2667              		.loc 4 125 41
 2668 10a7 488D4DA0 		leaq	-96(%rbp), %rcx
 2669 10ab 488D45C0 		leaq	-64(%rbp), %rax
 2670 10af BA000000 		movl	$0, %edx
 2670      00
 2671 10b4 4889CE   		movq	%rcx, %rsi
 2672 10b7 4889C7   		movq	%rax, %rdi
 2673 10ba E8000000 		call	_ZN17ScopedCurrentTestC1ERN8UnitTest11TestResultsEPKNS0_11TestDetailsE
 2673      00
 2674              	.LEHE74:
 2675              	.LEHB75:
 126:TestTest.cpp  **** 		Fail();
 2676              		.loc 4 126 7
 2677 10bf E875FEFF 		call	_ZN12_GLOBAL__N_14FailEv
 2677      FF
 2678              	.LEHE75:
 127:TestTest.cpp  **** 	}
 2679              		.loc 4 127 2
 2680 10c4 488D45C0 		leaq	-64(%rbp), %rax
 2681 10c8 4889C7   		movq	%rax, %rdi
 2682              	.LEHB76:
 2683 10cb E8000000 		call	_ZN17ScopedCurrentTestD1Ev
 2683      00
 2684              	.LEHE76:
 2685              	.LEHB77:
 2686              	.LBE25:
 128:TestTest.cpp  **** 
 129:TestTest.cpp  **** 	CHECK_EQUAL(1, results.GetFailureCount());
 2687              		.loc 4 129 2
 2688 10d0 E8000000 		call	_ZN8UnitTest11CurrentTest7DetailsEv@PLT
 2688      00
 2689 10d5 488B08   		movq	(%rax), %rcx
 2690 10d8 488D45C0 		leaq	-64(%rbp), %rax
 2691 10dc BA810000 		movl	$129, %edx
 2691      00
 2692 10e1 4889CE   		movq	%rcx, %rsi
 2693 10e4 4889C7   		movq	%rax, %rdi
 2694 10e7 E8000000 		call	_ZN8UnitTest11TestDetailsC1ERKS0_i@PLT
 2694      00
 2695              		.loc 4 129 2 is_stmt 0 discriminator 4
 2696 10ec 488D45A0 		leaq	-96(%rbp), %rax
 2697 10f0 4889C7   		movq	%rax, %rdi
 2698 10f3 E8000000 		call	_ZNK8UnitTest11TestResults15GetFailureCountEv@PLT
 2698      00
 2699 10f8 89459C   		movl	%eax, -100(%rbp)
 2700 10fb C7459801 		movl	$1, -104(%rbp)
 2700      000000
 2701 1102 E8000000 		call	_ZN8UnitTest11CurrentTest7ResultsEv@PLT
 2701      00
 2702              		.loc 4 129 2 discriminator 6
 2703 1107 488B00   		movq	(%rax), %rax
 2704 110a 488D4DC0 		leaq	-64(%rbp), %rcx
 2705 110e 488D559C 		leaq	-100(%rbp), %rdx
 2706 1112 488D7598 		leaq	-104(%rbp), %rsi
 2707 1116 4889C7   		movq	%rax, %rdi
 2708 1119 E8000000 		call	_ZN8UnitTest10CheckEqualIiiEEvRNS_11TestResultsERKT_RKT0_RKNS_11TestDetailsE
 2708      00
 2709              	.LEHE77:
 130:TestTest.cpp  **** }
 2710              		.loc 4 130 1 is_stmt 1
 2711 111e E9820000 		jmp	.L124
 2711      00
 2712              	.L130:
 2713 1123 F30F1EFA 		endbr64
 2714              	.LBB26:
 127:TestTest.cpp  **** 	}
 2715              		.loc 4 127 2
 2716 1127 4889C3   		movq	%rax, %rbx
 2717 112a 488D45C0 		leaq	-64(%rbp), %rax
 2718 112e 4889C7   		movq	%rax, %rdi
 2719 1131 E8000000 		call	_ZN17ScopedCurrentTestD1Ev
 2719      00
 2720 1136 4889D8   		movq	%rbx, %rax
 2721 1139 4889C7   		movq	%rax, %rdi
 2722              	.LEHB78:
 2723 113c E8000000 		call	_Unwind_Resume@PLT
 2723      00
 2724              	.LEHE78:
 2725              	.L131:
 2726 1141 F30F1EFA 		endbr64
 2727              	.LBE26:
 129:TestTest.cpp  **** }
 2728              		.loc 4 129 2
 2729 1145 4889C7   		movq	%rax, %rdi
 2730 1148 E8000000 		call	__cxa_begin_catch@PLT
 2730      00
 2731              	.LEHB79:
 2732 114d E8000000 		call	_ZN8UnitTest11CurrentTest7ResultsEv@PLT
 2732      00
 129:TestTest.cpp  **** }
 2733              		.loc 4 129 2 is_stmt 0 discriminator 3
 2734 1152 488B18   		movq	(%rax), %rbx
 2735 1155 E8000000 		call	_ZN8UnitTest11CurrentTest7DetailsEv@PLT
 2735      00
 129:TestTest.cpp  **** }
 2736              		.loc 4 129 2 discriminator 13
 2737 115a 488B08   		movq	(%rax), %rcx
 2738 115d 488D45C0 		leaq	-64(%rbp), %rax
 2739 1161 BA810000 		movl	$129, %edx
 2739      00
 2740 1166 4889CE   		movq	%rcx, %rsi
 2741 1169 4889C7   		movq	%rax, %rdi
 2742 116c E8000000 		call	_ZN8UnitTest11TestDetailsC1ERKS0_i@PLT
 2742      00
 129:TestTest.cpp  **** }
 2743              		.loc 4 129 2 discriminator 17
 2744 1171 488D45C0 		leaq	-64(%rbp), %rax
 2745 1175 488D1500 		leaq	.LC12(%rip), %rdx
 2745      000000
 2746 117c 4889C6   		movq	%rax, %rsi
 2747 117f 4889DF   		movq	%rbx, %rdi
 2748 1182 E8000000 		call	_ZN8UnitTest11TestResults13OnTestFailureERKNS_11TestDetailsEPKc@PLT
 2748      00
 2749              	.LEHE79:
 2750              	.LEHB80:
 129:TestTest.cpp  **** }
 2751              		.loc 4 129 2 discriminator 19
 2752 1187 E8000000 		call	__cxa_end_catch@PLT
 2752      00
 2753              	.LEHE80:
 2754              		.loc 4 130 1 is_stmt 1 discriminator 19
 2755 118c EB17     		jmp	.L124
 2756              	.L132:
 2757 118e F30F1EFA 		endbr64
 129:TestTest.cpp  **** }
 2758              		.loc 4 129 2
 2759 1192 4889C3   		movq	%rax, %rbx
 2760 1195 E8000000 		call	__cxa_end_catch@PLT
 2760      00
 2761 119a 4889D8   		movq	%rbx, %rax
 2762 119d 4889C7   		movq	%rax, %rdi
 2763              	.LEHB81:
 2764 11a0 E8000000 		call	_Unwind_Resume@PLT
 2764      00
 2765              	.LEHE81:
 2766              	.L124:
 2767              		.loc 4 130 1
 2768 11a5 488B45E8 		movq	-24(%rbp), %rax
 2769 11a9 64482B04 		subq	%fs:40, %rax
 2769      25280000 
 2769      00
 2770 11b2 7405     		je	.L129
 2771 11b4 E8000000 		call	__stack_chk_fail@PLT
 2771      00
 2772              	.L129:
 2773 11b9 488B5DF8 		movq	-8(%rbp), %rbx
 2774 11bd C9       		leave
 2775              		.cfi_def_cfa 7, 8
 2776 11be C3       		ret
 2777              		.cfi_endproc
 2778              	.LFE1194:
 2779              		.section	.gcc_except_table
 2780              		.align 4
 2781              	.LLSDA1194:
 2782 01c8 FF       		.byte	0xff
 2783 01c9 9B       		.byte	0x9b
 2784 01ca 31       		.uleb128 .LLSDATT1194-.LLSDATTD1194
 2785              	.LLSDATTD1194:
 2786 01cb 01       		.byte	0x1
 2787 01cc 27       		.uleb128 .LLSDACSE1194-.LLSDACSB1194
 2788              	.LLSDACSB1194:
 2789 01cd 2C       		.uleb128 .LEHB74-.LFB1194
 2790 01ce 1D       		.uleb128 .LEHE74-.LEHB74
 2791 01cf 00       		.uleb128 0
 2792 01d0 00       		.uleb128 0
 2793 01d1 49       		.uleb128 .LEHB75-.LFB1194
 2794 01d2 05       		.uleb128 .LEHE75-.LEHB75
 2795 01d3 AD01     		.uleb128 .L130-.LFB1194
 2796 01d5 00       		.uleb128 0
 2797 01d6 55       		.uleb128 .LEHB76-.LFB1194
 2798 01d7 05       		.uleb128 .LEHE76-.LEHB76
 2799 01d8 00       		.uleb128 0
 2800 01d9 00       		.uleb128 0
 2801 01da 5A       		.uleb128 .LEHB77-.LFB1194
 2802 01db 4E       		.uleb128 .LEHE77-.LEHB77
 2803 01dc CB01     		.uleb128 .L131-.LFB1194
 2804 01de 01       		.uleb128 0x1
 2805 01df C601     		.uleb128 .LEHB78-.LFB1194
 2806 01e1 05       		.uleb128 .LEHE78-.LEHB78
 2807 01e2 00       		.uleb128 0
 2808 01e3 00       		.uleb128 0
 2809 01e4 D701     		.uleb128 .LEHB79-.LFB1194
 2810 01e6 3A       		.uleb128 .LEHE79-.LEHB79
 2811 01e7 9802     		.uleb128 .L132-.LFB1194
 2812 01e9 00       		.uleb128 0
 2813 01ea 9102     		.uleb128 .LEHB80-.LFB1194
 2814 01ec 05       		.uleb128 .LEHE80-.LEHB80
 2815 01ed 00       		.uleb128 0
 2816 01ee 00       		.uleb128 0
 2817 01ef AA02     		.uleb128 .LEHB81-.LFB1194
 2818 01f1 05       		.uleb128 .LEHE81-.LEHB81
 2819 01f2 00       		.uleb128 0
 2820 01f3 00       		.uleb128 0
 2821              	.LLSDACSE1194:
 2822 01f4 01       		.byte	0x1
 2823 01f5 00       		.byte	0
 2824 01f6 0000     		.align 4
 2825 01f8 00000000 		.long	0
 2826              	
 2827              	.LLSDATT1194:
 2828              		.text
 2830              		.section	.text._ZN8UnitTest5CheckIbEEbT_,"axG",@progbits,_ZN8UnitTest5CheckIbEEbT_,comdat
 2831              		.weak	_ZN8UnitTest5CheckIbEEbT_
 2833              	_ZN8UnitTest5CheckIbEEbT_:
 2834              	.LFB1222:
 2835              		.file 5 "../Checks.h"
   1:../Checks.h   **** #ifndef UNITTEST_CHECKS_H
   2:../Checks.h   **** #define UNITTEST_CHECKS_H
   3:../Checks.h   **** 
   4:../Checks.h   **** #include "Config.h"
   5:../Checks.h   **** #include "TestResults.h"
   6:../Checks.h   **** #include "MemoryOutStream.h"
   7:../Checks.h   **** 
   8:../Checks.h   **** namespace UnitTest {
   9:../Checks.h   **** 
  10:../Checks.h   **** 
  11:../Checks.h   **** template< typename Value >
  12:../Checks.h   **** bool Check(Value const value)
 2836              		.loc 5 12 6
 2837              		.cfi_startproc
 2838 0000 F30F1EFA 		endbr64
 2839 0004 55       		pushq	%rbp
 2840              		.cfi_def_cfa_offset 16
 2841              		.cfi_offset 6, -16
 2842 0005 4889E5   		movq	%rsp, %rbp
 2843              		.cfi_def_cfa_register 6
 2844 0008 89F8     		movl	%edi, %eax
 2845 000a 8845FC   		movb	%al, -4(%rbp)
  13:../Checks.h   **** {
  14:../Checks.h   ****     return !!value; // doing double negative to avoid silly VS warnings
 2846              		.loc 5 14 14
 2847 000d 0FB645FC 		movzbl	-4(%rbp), %eax
  15:../Checks.h   **** }
 2848              		.loc 5 15 1
 2849 0011 5D       		popq	%rbp
 2850              		.cfi_def_cfa 7, 8
 2851 0012 C3       		ret
 2852              		.cfi_endproc
 2853              	.LFE1222:
 2855              		.section	.text._ZN8UnitTest15MemoryOutStreamD1Ev,"axG",@progbits,_ZN8UnitTest15MemoryOutStreamD1Ev
 2856              		.align 2
 2857              		.weak	_ZN8UnitTest15MemoryOutStreamD1Ev
 2859              	_ZN8UnitTest15MemoryOutStreamD1Ev:
 2860              	.LFB1226:
  13:../MemoryOutStream.h **** {
 2861              		.loc 2 13 7
 2862              		.cfi_startproc
 2863              		.cfi_personality 0x9b,DW.ref.__gxx_personality_v0
 2864              		.cfi_lsda 0x1b,.LLSDA1226
 2865 0000 F30F1EFA 		endbr64
 2866 0004 55       		pushq	%rbp
 2867              		.cfi_def_cfa_offset 16
 2868              		.cfi_offset 6, -16
 2869 0005 4889E5   		movq	%rsp, %rbp
 2870              		.cfi_def_cfa_register 6
 2871 0008 53       		pushq	%rbx
 2872 0009 4883EC18 		subq	$24, %rsp
 2873              		.cfi_offset 3, -24
 2874 000d 48897DE8 		movq	%rdi, -24(%rbp)
 2875              	.LBB27:
  13:../MemoryOutStream.h **** {
 2876              		.loc 2 13 7
 2877 0011 488D1500 		leaq	24+_ZTVN8UnitTest15MemoryOutStreamE(%rip), %rdx
 2877      000000
 2878 0018 488B45E8 		movq	-24(%rbp), %rax
 2879 001c 488910   		movq	%rdx, (%rax)
 2880 001f 488B45E8 		movq	-24(%rbp), %rax
 2881 0023 48059000 		addq	$144, %rax
 2881      0000
 2882 0029 488D1500 		leaq	64+_ZTVN8UnitTest15MemoryOutStreamE(%rip), %rdx
 2882      000000
 2883 0030 488910   		movq	%rdx, (%rax)
 2884 0033 488B45E8 		movq	-24(%rbp), %rax
 2885 0037 4883C070 		addq	$112, %rax
 2886 003b 4889C7   		movq	%rax, %rdi
 2887              	.LEHB82:
 2888 003e E8000000 		call	_ZNSt7__cxx1112basic_stringIcSt11char_traitsIcESaIcEED1Ev@PLT
 2888      00
 2889              	.LEHE82:
  13:../MemoryOutStream.h **** {
 2890              		.loc 2 13 7 is_stmt 0 discriminator 2
 2891 0043 488B45E8 		movq	-24(%rbp), %rax
 2892 0047 488D1500 		leaq	8+_ZTTN8UnitTest15MemoryOutStreamE(%rip), %rdx
 2892      000000
 2893 004e 4889D6   		movq	%rdx, %rsi
 2894 0051 4889C7   		movq	%rax, %rdi
 2895              	.LEHB83:
 2896 0054 E8000000 		call	_ZNSt7__cxx1119basic_ostringstreamIcSt11char_traitsIcESaIcEED2Ev@PLT
 2896      00
 2897              	.LEHE83:
  13:../MemoryOutStream.h **** {
 2898              		.loc 2 13 7 discriminator 4
 2899 0059 488B45E8 		movq	-24(%rbp), %rax
 2900 005d 48059000 		addq	$144, %rax
 2900      0000
 2901 0063 4889C7   		movq	%rax, %rdi
 2902              	.LEHB84:
 2903 0066 E8000000 		call	_ZNSt9basic_iosIcSt11char_traitsIcEED2Ev@PLT
 2903      00
 2904              	.LEHE84:
 2905              	.LBE27:
 2906 006b EB43     		jmp	.L140
 2907              	.L138:
 2908 006d F30F1EFA 		endbr64
 2909              	.LBB28:
  13:../MemoryOutStream.h **** {
 2910              		.loc 2 13 7
 2911 0071 4889C3   		movq	%rax, %rbx
 2912 0074 488B45E8 		movq	-24(%rbp), %rax
 2913 0078 488D1500 		leaq	8+_ZTTN8UnitTest15MemoryOutStreamE(%rip), %rdx
 2913      000000
 2914 007f 4889D6   		movq	%rdx, %rsi
 2915 0082 4889C7   		movq	%rax, %rdi
 2916 0085 E8000000 		call	_ZNSt7__cxx1119basic_ostringstreamIcSt11char_traitsIcESaIcEED2Ev@PLT
 2916      00
 2917 008a EB07     		jmp	.L137
 2918              	.L139:
 2919 008c F30F1EFA 		endbr64
 2920 0090 4889C3   		movq	%rax, %rbx
 2921              	.L137:
  13:../MemoryOutStream.h **** {
 2922              		.loc 2 13 7 discriminator 3
 2923 0093 488B45E8 		movq	-24(%rbp), %rax
 2924 0097 48059000 		addq	$144, %rax
 2924      0000
 2925 009d 4889C7   		movq	%rax, %rdi
 2926 00a0 E8000000 		call	_ZNSt9basic_iosIcSt11char_traitsIcEED2Ev@PLT
 2926      00
 2927 00a5 4889D8   		movq	%rbx, %rax
 2928 00a8 4889C7   		movq	%rax, %rdi
 2929              	.LEHB85:
 2930 00ab E8000000 		call	_Unwind_Resume@PLT
 2930      00
 2931              	.LEHE85:
 2932              	.L140:
 2933              	.LBE28:
  13:../MemoryOutStream.h **** {
 2934              		.loc 2 13 7
 2935 00b0 488B5DF8 		movq	-8(%rbp), %rbx
 2936 00b4 C9       		leave
 2937              		.cfi_def_cfa 7, 8
 2938 00b5 C3       		ret
 2939              		.cfi_endproc
 2940              	.LFE1226:
 2941              		.section	.gcc_except_table
 2942              	.LLSDA1226:
 2943 01fc FF       		.byte	0xff
 2944 01fd FF       		.byte	0xff
 2945 01fe 01       		.byte	0x1
 2946 01ff 12       		.uleb128 .LLSDACSE1226-.LLSDACSB1226
 2947              	.LLSDACSB1226:
 2948 0200 3E       		.uleb128 .LEHB82-.LFB1226
 2949 0201 05       		.uleb128 .LEHE82-.LEHB82
 2950 0202 6D       		.uleb128 .L138-.LFB1226
 2951 0203 00       		.uleb128 0
 2952 0204 54       		.uleb128 .LEHB83-.LFB1226
 2953 0205 05       		.uleb128 .LEHE83-.LEHB83
 2954 0206 8C01     		.uleb128 .L139-.LFB1226
 2955 0208 00       		.uleb128 0
 2956 0209 66       		.uleb128 .LEHB84-.LFB1226
 2957 020a 05       		.uleb128 .LEHE84-.LEHB84
 2958 020b 00       		.uleb128 0
 2959 020c 00       		.uleb128 0
 2960 020d AB01     		.uleb128 .LEHB85-.LFB1226
 2961 020f 05       		.uleb128 .LEHE85-.LEHB85
 2962 0210 00       		.uleb128 0
 2963 0211 00       		.uleb128 0
 2964              	.LLSDACSE1226:
 2965              		.section	.text._ZN8UnitTest15MemoryOutStreamD1Ev,"axG",@progbits,_ZN8UnitTest15MemoryOutStreamD1Ev
 2967              		.set	.LTHUNK0,_ZN8UnitTest15MemoryOutStreamD1Ev
 2968              		.weak	_ZTv0_n24_N8UnitTest15MemoryOutStreamD1Ev
 2970              	_ZTv0_n24_N8UnitTest15MemoryOutStreamD1Ev:
 2971              	.LFB1326:
  13:../MemoryOutStream.h **** {
 2972              		.loc 2 13 7 is_stmt 1
 2973              		.cfi_startproc
 2974 00b6 F30F1EFA 		endbr64
 2975 00ba 4C8B17   		movq	(%rdi), %r10
 2976 00bd 49037AE8 		addq	-24(%r10), %rdi
 2977 00c1 E93AFFFF 		jmp	.LTHUNK0
 2977      FF
 2978              		.cfi_endproc
 2979              	.LFE1326:
 2981              		.section	.text._ZN8UnitTest15MemoryOutStreamD0Ev,"axG",@progbits,_ZN8UnitTest15MemoryOutStreamD0Ev
 2982              		.align 2
 2983              		.weak	_ZN8UnitTest15MemoryOutStreamD0Ev
 2985              	_ZN8UnitTest15MemoryOutStreamD0Ev:
 2986              	.LFB1227:
  13:../MemoryOutStream.h **** {
 2987              		.loc 2 13 7
 2988              		.cfi_startproc
 2989              		.cfi_personality 0x9b,DW.ref.__gxx_personality_v0
 2990              		.cfi_lsda 0x1b,.LLSDA1227
 2991 0000 F30F1EFA 		endbr64
 2992 0004 55       		pushq	%rbp
 2993              		.cfi_def_cfa_offset 16
 2994              		.cfi_offset 6, -16
 2995 0005 4889E5   		movq	%rsp, %rbp
 2996              		.cfi_def_cfa_register 6
 2997 0008 53       		pushq	%rbx
 2998 0009 4883EC18 		subq	$24, %rsp
 2999              		.cfi_offset 3, -24
 3000 000d 48897DE8 		movq	%rdi, -24(%rbp)
  13:../MemoryOutStream.h **** {
 3001              		.loc 2 13 7
 3002 0011 488B45E8 		movq	-24(%rbp), %rax
 3003 0015 4889C7   		movq	%rax, %rdi
 3004              	.LEHB86:
 3005 0018 E8000000 		call	_ZN8UnitTest15MemoryOutStreamD1Ev
 3005      00
 3006              	.LEHE86:
  13:../MemoryOutStream.h **** {
 3007              		.loc 2 13 7 is_stmt 0 discriminator 2
 3008 001d 488B45E8 		movq	-24(%rbp), %rax
 3009 0021 4889C7   		movq	%rax, %rdi
 3010 0024 E8000000 		call	_ZdlPv@PLT
 3010      00
 3011 0029 EB1E     		jmp	.L144
 3012              	.L143:
 3013 002b F30F1EFA 		endbr64
  13:../MemoryOutStream.h **** {
 3014              		.loc 2 13 7
 3015 002f 4889C3   		movq	%rax, %rbx
 3016 0032 488B45E8 		movq	-24(%rbp), %rax
 3017 0036 4889C7   		movq	%rax, %rdi
 3018 0039 E8000000 		call	_ZdlPv@PLT
 3018      00
 3019 003e 4889D8   		movq	%rbx, %rax
 3020 0041 4889C7   		movq	%rax, %rdi
 3021              	.LEHB87:
 3022 0044 E8000000 		call	_Unwind_Resume@PLT
 3022      00
 3023              	.LEHE87:
 3024              	.L144:
 3025 0049 488B5DF8 		movq	-8(%rbp), %rbx
 3026 004d C9       		leave
 3027              		.cfi_def_cfa 7, 8
 3028 004e C3       		ret
 3029              		.cfi_endproc
 3030              	.LFE1227:
 3031              		.section	.gcc_except_table
 3032              	.LLSDA1227:
 3033 0212 FF       		.byte	0xff
 3034 0213 FF       		.byte	0xff
 3035 0214 01       		.byte	0x1
 3036 0215 08       		.uleb128 .LLSDACSE1227-.LLSDACSB1227
 3037              	.LLSDACSB1227:
 3038 0216 18       		.uleb128 .LEHB86-.LFB1227
 3039 0217 05       		.uleb128 .LEHE86-.LEHB86
 3040 0218 2B       		.uleb128 .L143-.LFB1227
 3041 0219 00       		.uleb128 0
 3042 021a 44       		.uleb128 .LEHB87-.LFB1227
 3043 021b 05       		.uleb128 .LEHE87-.LEHB87
 3044 021c 00       		.uleb128 0
 3045 021d 00       		.uleb128 0
 3046              	.LLSDACSE1227:
 3047              		.section	.text._ZN8UnitTest15MemoryOutStreamD0Ev,"axG",@progbits,_ZN8UnitTest15MemoryOutStreamD0Ev
 3049              		.set	.LTHUNK1,_ZN8UnitTest15MemoryOutStreamD0Ev
 3050              		.weak	_ZTv0_n24_N8UnitTest15MemoryOutStreamD0Ev
 3052              	_ZTv0_n24_N8UnitTest15MemoryOutStreamD0Ev:
 3053              	.LFB1327:
  13:../MemoryOutStream.h **** {
 3054              		.loc 2 13 7 is_stmt 1
 3055              		.cfi_startproc
 3056 004f F30F1EFA 		endbr64
 3057 0053 4C8B17   		movq	(%rdi), %r10
 3058 0056 49037AE8 		addq	-24(%r10), %rdi
 3059 005a EBA4     		jmp	.LTHUNK1
 3060              		.cfi_endproc
 3061              	.LFE1327:
 3063              		.section	.rodata
 3064              	.LC27:
 3065 0339 45787065 		.string	"Expected "
 3065      63746564 
 3065      2000
 3066              	.LC28:
 3067 0343 20627574 		.string	" but was "
 3067      20776173 
 3067      2000
 3068              		.section	.text._ZN8UnitTest10CheckEqualIiiEEvRNS_11TestResultsERKT_RKT0_RKNS_11TestDetailsE,"axG",
 3069              		.weak	_ZN8UnitTest10CheckEqualIiiEEvRNS_11TestResultsERKT_RKT0_RKNS_11TestDetailsE
 3071              	_ZN8UnitTest10CheckEqualIiiEEvRNS_11TestResultsERKT_RKT0_RKNS_11TestDetailsE:
 3072              	.LFB1223:
  16:../Checks.h   **** 
  17:../Checks.h   **** 
  18:../Checks.h   **** template< typename Expected, typename Actual >
  19:../Checks.h   **** void CheckEqual(TestResults& results, Expected const& expected, Actual const& actual, TestDetails c
 3073              		.loc 5 19 6
 3074              		.cfi_startproc
 3075              		.cfi_personality 0x9b,DW.ref.__gxx_personality_v0
 3076              		.cfi_lsda 0x1b,.LLSDA1223
 3077 0000 F30F1EFA 		endbr64
 3078 0004 55       		pushq	%rbp
 3079              		.cfi_def_cfa_offset 16
 3080              		.cfi_offset 6, -16
 3081 0005 4889E5   		movq	%rsp, %rbp
 3082              		.cfi_def_cfa_register 6
 3083 0008 53       		pushq	%rbx
 3084 0009 4881ECC8 		subq	$456, %rsp
 3084      010000
 3085              		.cfi_offset 3, -24
 3086 0010 4889BD48 		movq	%rdi, -440(%rbp)
 3086      FEFFFF
 3087 0017 4889B540 		movq	%rsi, -448(%rbp)
 3087      FEFFFF
 3088 001e 48899538 		movq	%rdx, -456(%rbp)
 3088      FEFFFF
 3089 0025 48898D30 		movq	%rcx, -464(%rbp)
 3089      FEFFFF
 3090              		.loc 5 19 6
 3091 002c 64488B04 		movq	%fs:40, %rax
 3091      25280000 
 3091      00
 3092 0035 488945E8 		movq	%rax, -24(%rbp)
 3093 0039 31C0     		xorl	%eax, %eax
 3094              	.LBB29:
  20:../Checks.h   **** {
  21:../Checks.h   ****     if (!(expected == actual))
 3095              		.loc 5 21 20
 3096 003b 488B8540 		movq	-448(%rbp), %rax
 3096      FEFFFF
 3097 0042 8B10     		movl	(%rax), %edx
 3098 0044 488B8538 		movq	-456(%rbp), %rax
 3098      FEFFFF
 3099 004b 8B00     		movl	(%rax), %eax
 3100              		.loc 5 21 5
 3101 004d 39C2     		cmpl	%eax, %edx
 3102 004f 0F84C600 		je	.L150
 3102      0000
 3103              	.LBB30:
  22:../Checks.h   ****     {
  23:../Checks.h   ****         UnitTest::MemoryOutStream stream;
 3104              		.loc 5 23 35
 3105 0055 488D8550 		leaq	-432(%rbp), %rax
 3105      FEFFFF
 3106 005c 4889C7   		movq	%rax, %rdi
 3107              	.LEHB88:
 3108 005f E8000000 		call	_ZN8UnitTest15MemoryOutStreamC1Ev
 3108      00
 3109              	.LEHE88:
  24:../Checks.h   ****         stream << "Expected " << expected << " but was " << actual;
 3110              		.loc 5 24 16
 3111 0064 488D8550 		leaq	-432(%rbp), %rax
 3111      FEFFFF
 3112 006b 488D1500 		leaq	.LC27(%rip), %rdx
 3112      000000
 3113 0072 4889D6   		movq	%rdx, %rsi
 3114 0075 4889C7   		movq	%rax, %rdi
 3115              	.LEHB89:
 3116 0078 E8000000 		call	_ZStlsISt11char_traitsIcEERSt13basic_ostreamIcT_ES5_PKc@PLT
 3116      00
 3117 007d 4889C2   		movq	%rax, %rdx
 3118              		.loc 5 24 43
 3119 0080 488B8540 		movq	-448(%rbp), %rax
 3119      FEFFFF
 3120 0087 8B00     		movl	(%rax), %eax
 3121 0089 89C6     		movl	%eax, %esi
 3122 008b 4889D7   		movq	%rdx, %rdi
 3123 008e E8000000 		call	_ZNSolsEi@PLT
 3123      00
 3124              		.loc 5 24 43 is_stmt 0 discriminator 1
 3125 0093 4889C2   		movq	%rax, %rdx
 3126 0096 488D0500 		leaq	.LC28(%rip), %rax
 3126      000000
 3127 009d 4889C6   		movq	%rax, %rsi
 3128 00a0 4889D7   		movq	%rdx, %rdi
 3129 00a3 E8000000 		call	_ZStlsISt11char_traitsIcEERSt13basic_ostreamIcT_ES5_PKc@PLT
 3129      00
 3130              		.loc 5 24 43 discriminator 2
 3131 00a8 4889C2   		movq	%rax, %rdx
 3132              		.loc 5 24 58 is_stmt 1 discriminator 2
 3133 00ab 488B8538 		movq	-456(%rbp), %rax
 3133      FEFFFF
 3134 00b2 8B00     		movl	(%rax), %eax
 3135 00b4 89C6     		movl	%eax, %esi
 3136 00b6 4889D7   		movq	%rdx, %rdi
 3137 00b9 E8000000 		call	_ZNSolsEi@PLT
 3137      00
  25:../Checks.h   **** 
  26:../Checks.h   ****         results.OnTestFailure(details, stream.GetText());
 3138              		.loc 5 26 30
 3139 00be 488D8550 		leaq	-432(%rbp), %rax
 3139      FEFFFF
 3140 00c5 4889C7   		movq	%rax, %rdi
 3141 00c8 E8000000 		call	_ZNK8UnitTest15MemoryOutStream7GetTextEv@PLT
 3141      00
 3142 00cd 4889C2   		movq	%rax, %rdx
 3143 00d0 488B8D30 		movq	-464(%rbp), %rcx
 3143      FEFFFF
 3144 00d7 488B8548 		movq	-440(%rbp), %rax
 3144      FEFFFF
 3145 00de 4889CE   		movq	%rcx, %rsi
 3146 00e1 4889C7   		movq	%rax, %rdi
 3147 00e4 E8000000 		call	_ZN8UnitTest11TestResults13OnTestFailureERKNS_11TestDetailsEPKc@PLT
 3147      00
 3148              	.LEHE89:
  27:../Checks.h   ****     }
 3149              		.loc 5 27 5
 3150 00e9 488D8550 		leaq	-432(%rbp), %rax
 3150      FEFFFF
 3151 00f0 4889C7   		movq	%rax, %rdi
 3152              	.LEHB90:
 3153 00f3 E8000000 		call	_ZN8UnitTest15MemoryOutStreamD1Ev
 3153      00
 3154              	.LEHE90:
 3155              	.LBE30:
 3156              	.LBE29:
  28:../Checks.h   **** }
 3157              		.loc 5 28 1
 3158 00f8 EB21     		jmp	.L150
 3159              	.L149:
 3160 00fa F30F1EFA 		endbr64
 3161              	.LBB32:
 3162              	.LBB31:
  27:../Checks.h   ****     }
 3163              		.loc 5 27 5
 3164 00fe 4889C3   		movq	%rax, %rbx
 3165 0101 488D8550 		leaq	-432(%rbp), %rax
 3165      FEFFFF
 3166 0108 4889C7   		movq	%rax, %rdi
 3167 010b E8000000 		call	_ZN8UnitTest15MemoryOutStreamD1Ev
 3167      00
 3168 0110 4889D8   		movq	%rbx, %rax
 3169 0113 4889C7   		movq	%rax, %rdi
 3170              	.LEHB91:
 3171 0116 E8000000 		call	_Unwind_Resume@PLT
 3171      00
 3172              	.LEHE91:
 3173              	.L150:
 3174              	.LBE31:
 3175              	.LBE32:
 3176              		.loc 5 28 1
 3177 011b 90       		nop
 3178 011c 488B45E8 		movq	-24(%rbp), %rax
 3179 0120 64482B04 		subq	%fs:40, %rax
 3179      25280000 
 3179      00
 3180 0129 7405     		je	.L148
 3181 012b E8000000 		call	__stack_chk_fail@PLT
 3181      00
 3182              	.L148:
 3183 0130 488B5DF8 		movq	-8(%rbp), %rbx
 3184 0134 C9       		leave
 3185              		.cfi_def_cfa 7, 8
 3186 0135 C3       		ret
 3187              		.cfi_endproc
 3188              	.LFE1223:
 3189              		.section	.gcc_except_table
 3190              	.LLSDA1223:
 3191 021e FF       		.byte	0xff
 3192 021f FF       		.byte	0xff
 3193 0220 01       		.byte	0x1
 3194 0221 13       		.uleb128 .LLSDACSE1223-.LLSDACSB1223
 3195              	.LLSDACSB1223:
 3196 0222 5F       		.uleb128 .LEHB88-.LFB1223
 3197 0223 05       		.uleb128 .LEHE88-.LEHB88
 3198 0224 00       		.uleb128 0
 3199 0225 00       		.uleb128 0
 3200 0226 78       		.uleb128 .LEHB89-.LFB1223
 3201 0227 71       		.uleb128 .LEHE89-.LEHB89
 3202 0228 FA01     		.uleb128 .L149-.LFB1223
 3203 022a 00       		.uleb128 0
 3204 022b F301     		.uleb128 .LEHB90-.LFB1223
 3205 022d 05       		.uleb128 .LEHE90-.LEHB90
 3206 022e 00       		.uleb128 0
 3207 022f 00       		.uleb128 0
 3208 0230 9602     		.uleb128 .LEHB91-.LFB1223
 3209 0232 05       		.uleb128 .LEHE91-.LEHB91
 3210 0233 00       		.uleb128 0
 3211 0234 00       		.uleb128 0
 3212              	.LLSDACSE1223:
 3213              		.section	.text._ZN8UnitTest10CheckEqualIiiEEvRNS_11TestResultsERKT_RKT0_RKNS_11TestDetailsE,"axG",
 3215              		.section	.data.rel.ro.local,"aw"
 3216              		.align 8
 3219              	_ZTVN12_GLOBAL__N_136TestOutOfCoreCHECKMacrosCanFailTestsE:
 3220 0000 00000000 		.quad	0
 3220      00000000 
 3221 0008 00000000 		.quad	_ZTIN12_GLOBAL__N_136TestOutOfCoreCHECKMacrosCanFailTestsE
 3221      00000000 
 3222 0010 00000000 		.quad	_ZN12_GLOBAL__N_136TestOutOfCoreCHECKMacrosCanFailTestsD1Ev
 3222      00000000 
 3223 0018 00000000 		.quad	_ZN12_GLOBAL__N_136TestOutOfCoreCHECKMacrosCanFailTestsD0Ev
 3223      00000000 
 3224 0020 00000000 		.quad	_ZNK12_GLOBAL__N_136TestOutOfCoreCHECKMacrosCanFailTests7RunImplEv
 3224      00000000 
 3225              		.text
 3226 11bf 90       		.align 2
 3228              	_ZN12_GLOBAL__N_136TestOutOfCoreCHECKMacrosCanFailTestsD2Ev:
 3229              	.LFB1281:
 121:TestTest.cpp  **** {
 3230              		.loc 4 121 1
 3231              		.cfi_startproc
 3232 11c0 F30F1EFA 		endbr64
 3233 11c4 55       		pushq	%rbp
 3234              		.cfi_def_cfa_offset 16
 3235              		.cfi_offset 6, -16
 3236 11c5 4889E5   		movq	%rsp, %rbp
 3237              		.cfi_def_cfa_register 6
 3238 11c8 4883EC10 		subq	$16, %rsp
 3239 11cc 48897DF8 		movq	%rdi, -8(%rbp)
 3240              	.LBB33:
 121:TestTest.cpp  **** {
 3241              		.loc 4 121 1
 3242 11d0 488D1500 		leaq	16+_ZTVN12_GLOBAL__N_136TestOutOfCoreCHECKMacrosCanFailTestsE(%rip), %rdx
 3242      000000
 3243 11d7 488B45F8 		movq	-8(%rbp), %rax
 3244 11db 488910   		movq	%rdx, (%rax)
 3245 11de 488B45F8 		movq	-8(%rbp), %rax
 3246 11e2 4889C7   		movq	%rax, %rdi
 3247 11e5 E8000000 		call	_ZN8UnitTest4TestD2Ev@PLT
 3247      00
 3248              	.LBE33:
 3249 11ea 90       		nop
 3250 11eb C9       		leave
 3251              		.cfi_def_cfa 7, 8
 3252 11ec C3       		ret
 3253              		.cfi_endproc
 3254              	.LFE1281:
 3256              		.set	_ZN12_GLOBAL__N_136TestOutOfCoreCHECKMacrosCanFailTestsD1Ev,_ZN12_GLOBAL__N_136TestOutOfCoreC
 3257 11ed 90       		.align 2
 3259              	_ZN12_GLOBAL__N_136TestOutOfCoreCHECKMacrosCanFailTestsD0Ev:
 3260              	.LFB1283:
 121:TestTest.cpp  **** {
 3261              		.loc 4 121 1
 3262              		.cfi_startproc
 3263              		.cfi_personality 0x9b,DW.ref.__gxx_personality_v0
 3264              		.cfi_lsda 0x1b,.LLSDA1283
 3265 11ee F30F1EFA 		endbr64
 3266 11f2 55       		pushq	%rbp
 3267              		.cfi_def_cfa_offset 16
 3268              		.cfi_offset 6, -16
 3269 11f3 4889E5   		movq	%rsp, %rbp
 3270              		.cfi_def_cfa_register 6
 3271 11f6 53       		pushq	%rbx
 3272 11f7 4883EC18 		subq	$24, %rsp
 3273              		.cfi_offset 3, -24
 3274 11fb 48897DE8 		movq	%rdi, -24(%rbp)
 121:TestTest.cpp  **** {
 3275              		.loc 4 121 1
 3276 11ff 488B45E8 		movq	-24(%rbp), %rax
 3277 1203 4889C7   		movq	%rax, %rdi
 3278              	.LEHB92:
 3279 1206 E8B5FFFF 		call	_ZN12_GLOBAL__N_136TestOutOfCoreCHECKMacrosCanFailTestsD1Ev
 3279      FF
 3280              	.LEHE92:
 121:TestTest.cpp  **** {
 3281              		.loc 4 121 1 is_stmt 0 discriminator 2
 3282 120b 488B45E8 		movq	-24(%rbp), %rax
 3283 120f 4889C7   		movq	%rax, %rdi
 3284 1212 E8000000 		call	_ZdlPv@PLT
 3284      00
 3285 1217 EB1E     		jmp	.L155
 3286              	.L154:
 3287 1219 F30F1EFA 		endbr64
 121:TestTest.cpp  **** {
 3288              		.loc 4 121 1
 3289 121d 4889C3   		movq	%rax, %rbx
 3290 1220 488B45E8 		movq	-24(%rbp), %rax
 3291 1224 4889C7   		movq	%rax, %rdi
 3292 1227 E8000000 		call	_ZdlPv@PLT
 3292      00
 3293 122c 4889D8   		movq	%rbx, %rax
 3294 122f 4889C7   		movq	%rax, %rdi
 3295              	.LEHB93:
 3296 1232 E8000000 		call	_Unwind_Resume@PLT
 3296      00
 3297              	.LEHE93:
 3298              	.L155:
 3299 1237 488B5DF8 		movq	-8(%rbp), %rbx
 3300 123b C9       		leave
 3301              		.cfi_def_cfa 7, 8
 3302 123c C3       		ret
 3303              		.cfi_endproc
 3304              	.LFE1283:
 3305              		.section	.gcc_except_table
 3306              	.LLSDA1283:
 3307 0235 FF       		.byte	0xff
 3308 0236 FF       		.byte	0xff
 3309 0237 01       		.byte	0x1
 3310 0238 08       		.uleb128 .LLSDACSE1283-.LLSDACSB1283
 3311              	.LLSDACSB1283:
 3312 0239 18       		.uleb128 .LEHB92-.LFB1283
 3313 023a 05       		.uleb128 .LEHE92-.LEHB92
 3314 023b 2B       		.uleb128 .L154-.LFB1283
 3315 023c 00       		.uleb128 0
 3316 023d 44       		.uleb128 .LEHB93-.LFB1283
 3317 023e 05       		.uleb128 .LEHE93-.LEHB93
 3318 023f 00       		.uleb128 0
 3319 0240 00       		.uleb128 0
 3320              	.LLSDACSE1283:
 3321              		.text
 3323              		.section	.data.rel.ro.local
 3324              		.align 8
 3327              	_ZTVN12_GLOBAL__N_134TestTestReflectsSpecifiedSuiteNameE:
 3328 0028 00000000 		.quad	0
 3328      00000000 
 3329 0030 00000000 		.quad	_ZTIN12_GLOBAL__N_134TestTestReflectsSpecifiedSuiteNameE
 3329      00000000 
 3330 0038 00000000 		.quad	_ZN12_GLOBAL__N_134TestTestReflectsSpecifiedSuiteNameD1Ev
 3330      00000000 
 3331 0040 00000000 		.quad	_ZN12_GLOBAL__N_134TestTestReflectsSpecifiedSuiteNameD0Ev
 3331      00000000 
 3332 0048 00000000 		.quad	_ZNK12_GLOBAL__N_134TestTestReflectsSpecifiedSuiteName7RunImplEv
 3332      00000000 
 3333              		.text
 3334 123d 90       		.align 2
 3336              	_ZN12_GLOBAL__N_134TestTestReflectsSpecifiedSuiteNameD2Ev:
 3337              	.LFB1285:
 109:TestTest.cpp  **** {
 3338              		.loc 4 109 1 is_stmt 1
 3339              		.cfi_startproc
 3340 123e F30F1EFA 		endbr64
 3341 1242 55       		pushq	%rbp
 3342              		.cfi_def_cfa_offset 16
 3343              		.cfi_offset 6, -16
 3344 1243 4889E5   		movq	%rsp, %rbp
 3345              		.cfi_def_cfa_register 6
 3346 1246 4883EC10 		subq	$16, %rsp
 3347 124a 48897DF8 		movq	%rdi, -8(%rbp)
 3348              	.LBB34:
 109:TestTest.cpp  **** {
 3349              		.loc 4 109 1
 3350 124e 488D1500 		leaq	16+_ZTVN12_GLOBAL__N_134TestTestReflectsSpecifiedSuiteNameE(%rip), %rdx
 3350      000000
 3351 1255 488B45F8 		movq	-8(%rbp), %rax
 3352 1259 488910   		movq	%rdx, (%rax)
 3353 125c 488B45F8 		movq	-8(%rbp), %rax
 3354 1260 4889C7   		movq	%rax, %rdi
 3355 1263 E8000000 		call	_ZN8UnitTest4TestD2Ev@PLT
 3355      00
 3356              	.LBE34:
 3357 1268 90       		nop
 3358 1269 C9       		leave
 3359              		.cfi_def_cfa 7, 8
 3360 126a C3       		ret
 3361              		.cfi_endproc
 3362              	.LFE1285:
 3364              		.set	_ZN12_GLOBAL__N_134TestTestReflectsSpecifiedSuiteNameD1Ev,_ZN12_GLOBAL__N_134TestTestReflects
 3365 126b 90       		.align 2
 3367              	_ZN12_GLOBAL__N_134TestTestReflectsSpecifiedSuiteNameD0Ev:
 3368              	.LFB1287:
 109:TestTest.cpp  **** {
 3369              		.loc 4 109 1
 3370              		.cfi_startproc
 3371              		.cfi_personality 0x9b,DW.ref.__gxx_personality_v0
 3372              		.cfi_lsda 0x1b,.LLSDA1287
 3373 126c F30F1EFA 		endbr64
 3374 1270 55       		pushq	%rbp
 3375              		.cfi_def_cfa_offset 16
 3376              		.cfi_offset 6, -16
 3377 1271 4889E5   		movq	%rsp, %rbp
 3378              		.cfi_def_cfa_register 6
 3379 1274 53       		pushq	%rbx
 3380 1275 4883EC18 		subq	$24, %rsp
 3381              		.cfi_offset 3, -24
 3382 1279 48897DE8 		movq	%rdi, -24(%rbp)
 109:TestTest.cpp  **** {
 3383              		.loc 4 109 1
 3384 127d 488B45E8 		movq	-24(%rbp), %rax
 3385 1281 4889C7   		movq	%rax, %rdi
 3386              	.LEHB94:
 3387 1284 E8B5FFFF 		call	_ZN12_GLOBAL__N_134TestTestReflectsSpecifiedSuiteNameD1Ev
 3387      FF
 3388              	.LEHE94:
 109:TestTest.cpp  **** {
 3389              		.loc 4 109 1 is_stmt 0 discriminator 2
 3390 1289 488B45E8 		movq	-24(%rbp), %rax
 3391 128d 4889C7   		movq	%rax, %rdi
 3392 1290 E8000000 		call	_ZdlPv@PLT
 3392      00
 3393 1295 EB1E     		jmp	.L160
 3394              	.L159:
 3395 1297 F30F1EFA 		endbr64
 109:TestTest.cpp  **** {
 3396              		.loc 4 109 1
 3397 129b 4889C3   		movq	%rax, %rbx
 3398 129e 488B45E8 		movq	-24(%rbp), %rax
 3399 12a2 4889C7   		movq	%rax, %rdi
 3400 12a5 E8000000 		call	_ZdlPv@PLT
 3400      00
 3401 12aa 4889D8   		movq	%rbx, %rax
 3402 12ad 4889C7   		movq	%rax, %rdi
 3403              	.LEHB95:
 3404 12b0 E8000000 		call	_Unwind_Resume@PLT
 3404      00
 3405              	.LEHE95:
 3406              	.L160:
 3407 12b5 488B5DF8 		movq	-8(%rbp), %rbx
 3408 12b9 C9       		leave
 3409              		.cfi_def_cfa 7, 8
 3410 12ba C3       		ret
 3411              		.cfi_endproc
 3412              	.LFE1287:
 3413              		.section	.gcc_except_table
 3414              	.LLSDA1287:
 3415 0241 FF       		.byte	0xff
 3416 0242 FF       		.byte	0xff
 3417 0243 01       		.byte	0x1
 3418 0244 08       		.uleb128 .LLSDACSE1287-.LLSDACSB1287
 3419              	.LLSDACSB1287:
 3420 0245 18       		.uleb128 .LEHB94-.LFB1287
 3421 0246 05       		.uleb128 .LEHE94-.LEHB94
 3422 0247 2B       		.uleb128 .L159-.LFB1287
 3423 0248 00       		.uleb128 0
 3424 0249 44       		.uleb128 .LEHB95-.LFB1287
 3425 024a 05       		.uleb128 .LEHE95-.LEHB95
 3426 024b 00       		.uleb128 0
 3427 024c 00       		.uleb128 0
 3428              	.LLSDACSE1287:
 3429              		.text
 3431              		.section	.data.rel.ro.local
 3432              		.align 8
 3435              	_ZTVN12_GLOBAL__N_144TestTestWithUnspecifiedSuiteGetsDefaultSuiteE:
 3436 0050 00000000 		.quad	0
 3436      00000000 
 3437 0058 00000000 		.quad	_ZTIN12_GLOBAL__N_144TestTestWithUnspecifiedSuiteGetsDefaultSuiteE
 3437      00000000 
 3438 0060 00000000 		.quad	_ZN12_GLOBAL__N_144TestTestWithUnspecifiedSuiteGetsDefaultSuiteD1Ev
 3438      00000000 
 3439 0068 00000000 		.quad	_ZN12_GLOBAL__N_144TestTestWithUnspecifiedSuiteGetsDefaultSuiteD0Ev
 3439      00000000 
 3440 0070 00000000 		.quad	_ZNK12_GLOBAL__N_144TestTestWithUnspecifiedSuiteGetsDefaultSuite7RunImplEv
 3440      00000000 
 3441              		.text
 3442 12bb 90       		.align 2
 3444              	_ZN12_GLOBAL__N_144TestTestWithUnspecifiedSuiteGetsDefaultSuiteD2Ev:
 3445              	.LFB1289:
 102:TestTest.cpp  **** {
 3446              		.loc 4 102 1 is_stmt 1
 3447              		.cfi_startproc
 3448 12bc F30F1EFA 		endbr64
 3449 12c0 55       		pushq	%rbp
 3450              		.cfi_def_cfa_offset 16
 3451              		.cfi_offset 6, -16
 3452 12c1 4889E5   		movq	%rsp, %rbp
 3453              		.cfi_def_cfa_register 6
 3454 12c4 4883EC10 		subq	$16, %rsp
 3455 12c8 48897DF8 		movq	%rdi, -8(%rbp)
 3456              	.LBB35:
 102:TestTest.cpp  **** {
 3457              		.loc 4 102 1
 3458 12cc 488D1500 		leaq	16+_ZTVN12_GLOBAL__N_144TestTestWithUnspecifiedSuiteGetsDefaultSuiteE(%rip), %rdx
 3458      000000
 3459 12d3 488B45F8 		movq	-8(%rbp), %rax
 3460 12d7 488910   		movq	%rdx, (%rax)
 3461 12da 488B45F8 		movq	-8(%rbp), %rax
 3462 12de 4889C7   		movq	%rax, %rdi
 3463 12e1 E8000000 		call	_ZN8UnitTest4TestD2Ev@PLT
 3463      00
 3464              	.LBE35:
 3465 12e6 90       		nop
 3466 12e7 C9       		leave
 3467              		.cfi_def_cfa 7, 8
 3468 12e8 C3       		ret
 3469              		.cfi_endproc
 3470              	.LFE1289:
 3472              		.set	_ZN12_GLOBAL__N_144TestTestWithUnspecifiedSuiteGetsDefaultSuiteD1Ev,_ZN12_GLOBAL__N_144TestTe
 3473 12e9 90       		.align 2
 3475              	_ZN12_GLOBAL__N_144TestTestWithUnspecifiedSuiteGetsDefaultSuiteD0Ev:
 3476              	.LFB1291:
 102:TestTest.cpp  **** {
 3477              		.loc 4 102 1
 3478              		.cfi_startproc
 3479              		.cfi_personality 0x9b,DW.ref.__gxx_personality_v0
 3480              		.cfi_lsda 0x1b,.LLSDA1291
 3481 12ea F30F1EFA 		endbr64
 3482 12ee 55       		pushq	%rbp
 3483              		.cfi_def_cfa_offset 16
 3484              		.cfi_offset 6, -16
 3485 12ef 4889E5   		movq	%rsp, %rbp
 3486              		.cfi_def_cfa_register 6
 3487 12f2 53       		pushq	%rbx
 3488 12f3 4883EC18 		subq	$24, %rsp
 3489              		.cfi_offset 3, -24
 3490 12f7 48897DE8 		movq	%rdi, -24(%rbp)
 102:TestTest.cpp  **** {
 3491              		.loc 4 102 1
 3492 12fb 488B45E8 		movq	-24(%rbp), %rax
 3493 12ff 4889C7   		movq	%rax, %rdi
 3494              	.LEHB96:
 3495 1302 E8B5FFFF 		call	_ZN12_GLOBAL__N_144TestTestWithUnspecifiedSuiteGetsDefaultSuiteD1Ev
 3495      FF
 3496              	.LEHE96:
 102:TestTest.cpp  **** {
 3497              		.loc 4 102 1 is_stmt 0 discriminator 2
 3498 1307 488B45E8 		movq	-24(%rbp), %rax
 3499 130b 4889C7   		movq	%rax, %rdi
 3500 130e E8000000 		call	_ZdlPv@PLT
 3500      00
 3501 1313 EB1E     		jmp	.L165
 3502              	.L164:
 3503 1315 F30F1EFA 		endbr64
 102:TestTest.cpp  **** {
 3504              		.loc 4 102 1
 3505 1319 4889C3   		movq	%rax, %rbx
 3506 131c 488B45E8 		movq	-24(%rbp), %rax
 3507 1320 4889C7   		movq	%rax, %rdi
 3508 1323 E8000000 		call	_ZdlPv@PLT
 3508      00
 3509 1328 4889D8   		movq	%rbx, %rax
 3510 132b 4889C7   		movq	%rax, %rdi
 3511              	.LEHB97:
 3512 132e E8000000 		call	_Unwind_Resume@PLT
 3512      00
 3513              	.LEHE97:
 3514              	.L165:
 3515 1333 488B5DF8 		movq	-8(%rbp), %rbx
 3516 1337 C9       		leave
 3517              		.cfi_def_cfa 7, 8
 3518 1338 C3       		ret
 3519              		.cfi_endproc
 3520              	.LFE1291:
 3521              		.section	.gcc_except_table
 3522              	.LLSDA1291:
 3523 024d FF       		.byte	0xff
 3524 024e FF       		.byte	0xff
 3525 024f 01       		.byte	0x1
 3526 0250 08       		.uleb128 .LLSDACSE1291-.LLSDACSB1291
 3527              	.LLSDACSB1291:
 3528 0251 18       		.uleb128 .LEHB96-.LFB1291
 3529 0252 05       		.uleb128 .LEHE96-.LEHB96
 3530 0253 2B       		.uleb128 .L164-.LFB1291
 3531 0254 00       		.uleb128 0
 3532 0255 44       		.uleb128 .LEHB97-.LFB1291
 3533 0256 05       		.uleb128 .LEHE97-.LEHB97
 3534 0257 00       		.uleb128 0
 3535 0258 00       		.uleb128 0
 3536              	.LLSDACSE1291:
 3537              		.text
 3539              		.section	.data.rel.ro.local
 3540              		.align 8
 3543              	_ZTVN12_GLOBAL__N_138TestCrashingTestsAreReportedAsFailuresE:
 3544 0078 00000000 		.quad	0
 3544      00000000 
 3545 0080 00000000 		.quad	_ZTIN12_GLOBAL__N_138TestCrashingTestsAreReportedAsFailuresE
 3545      00000000 
 3546 0088 00000000 		.quad	_ZN12_GLOBAL__N_138TestCrashingTestsAreReportedAsFailuresD1Ev
 3546      00000000 
 3547 0090 00000000 		.quad	_ZN12_GLOBAL__N_138TestCrashingTestsAreReportedAsFailuresD0Ev
 3547      00000000 
 3548 0098 00000000 		.quad	_ZNK12_GLOBAL__N_138TestCrashingTestsAreReportedAsFailures7RunImplEv
 3548      00000000 
 3549              		.text
 3550 1339 90       		.align 2
 3552              	_ZN12_GLOBAL__N_138TestCrashingTestsAreReportedAsFailuresD2Ev:
 3553              	.LFB1293:
  77:TestTest.cpp  **** {
 3554              		.loc 4 77 1 is_stmt 1
 3555              		.cfi_startproc
 3556 133a F30F1EFA 		endbr64
 3557 133e 55       		pushq	%rbp
 3558              		.cfi_def_cfa_offset 16
 3559              		.cfi_offset 6, -16
 3560 133f 4889E5   		movq	%rsp, %rbp
 3561              		.cfi_def_cfa_register 6
 3562 1342 4883EC10 		subq	$16, %rsp
 3563 1346 48897DF8 		movq	%rdi, -8(%rbp)
 3564              	.LBB36:
  77:TestTest.cpp  **** {
 3565              		.loc 4 77 1
 3566 134a 488D1500 		leaq	16+_ZTVN12_GLOBAL__N_138TestCrashingTestsAreReportedAsFailuresE(%rip), %rdx
 3566      000000
 3567 1351 488B45F8 		movq	-8(%rbp), %rax
 3568 1355 488910   		movq	%rdx, (%rax)
 3569 1358 488B45F8 		movq	-8(%rbp), %rax
 3570 135c 4889C7   		movq	%rax, %rdi
 3571 135f E8000000 		call	_ZN8UnitTest4TestD2Ev@PLT
 3571      00
 3572              	.LBE36:
 3573 1364 90       		nop
 3574 1365 C9       		leave
 3575              		.cfi_def_cfa 7, 8
 3576 1366 C3       		ret
 3577              		.cfi_endproc
 3578              	.LFE1293:
 3580              		.set	_ZN12_GLOBAL__N_138TestCrashingTestsAreReportedAsFailuresD1Ev,_ZN12_GLOBAL__N_138TestCrashing
 3581 1367 90       		.align 2
 3583              	_ZN12_GLOBAL__N_138TestCrashingTestsAreReportedAsFailuresD0Ev:
 3584              	.LFB1295:
  77:TestTest.cpp  **** {
 3585              		.loc 4 77 1
 3586              		.cfi_startproc
 3587              		.cfi_personality 0x9b,DW.ref.__gxx_personality_v0
 3588              		.cfi_lsda 0x1b,.LLSDA1295
 3589 1368 F30F1EFA 		endbr64
 3590 136c 55       		pushq	%rbp
 3591              		.cfi_def_cfa_offset 16
 3592              		.cfi_offset 6, -16
 3593 136d 4889E5   		movq	%rsp, %rbp
 3594              		.cfi_def_cfa_register 6
 3595 1370 53       		pushq	%rbx
 3596 1371 4883EC18 		subq	$24, %rsp
 3597              		.cfi_offset 3, -24
 3598 1375 48897DE8 		movq	%rdi, -24(%rbp)
  77:TestTest.cpp  **** {
 3599              		.loc 4 77 1
 3600 1379 488B45E8 		movq	-24(%rbp), %rax
 3601 137d 4889C7   		movq	%rax, %rdi
 3602              	.LEHB98:
 3603 1380 E8B5FFFF 		call	_ZN12_GLOBAL__N_138TestCrashingTestsAreReportedAsFailuresD1Ev
 3603      FF
 3604              	.LEHE98:
  77:TestTest.cpp  **** {
 3605              		.loc 4 77 1 is_stmt 0 discriminator 2
 3606 1385 488B45E8 		movq	-24(%rbp), %rax
 3607 1389 4889C7   		movq	%rax, %rdi
 3608 138c E8000000 		call	_ZdlPv@PLT
 3608      00
 3609 1391 EB1E     		jmp	.L170
 3610              	.L169:
 3611 1393 F30F1EFA 		endbr64
  77:TestTest.cpp  **** {
 3612              		.loc 4 77 1
 3613 1397 4889C3   		movq	%rax, %rbx
 3614 139a 488B45E8 		movq	-24(%rbp), %rax
 3615 139e 4889C7   		movq	%rax, %rdi
 3616 13a1 E8000000 		call	_ZdlPv@PLT
 3616      00
 3617 13a6 4889D8   		movq	%rbx, %rax
 3618 13a9 4889C7   		movq	%rax, %rdi
 3619              	.LEHB99:
 3620 13ac E8000000 		call	_Unwind_Resume@PLT
 3620      00
 3621              	.LEHE99:
 3622              	.L170:
 3623 13b1 488B5DF8 		movq	-8(%rbp), %rbx
 3624 13b5 C9       		leave
 3625              		.cfi_def_cfa 7, 8
 3626 13b6 C3       		ret
 3627              		.cfi_endproc
 3628              	.LFE1295:
 3629              		.section	.gcc_except_table
 3630              	.LLSDA1295:
 3631 0259 FF       		.byte	0xff
 3632 025a FF       		.byte	0xff
 3633 025b 01       		.byte	0x1
 3634 025c 08       		.uleb128 .LLSDACSE1295-.LLSDACSB1295
 3635              	.LLSDACSB1295:
 3636 025d 18       		.uleb128 .LEHB98-.LFB1295
 3637 025e 05       		.uleb128 .LEHE98-.LEHB98
 3638 025f 2B       		.uleb128 .L169-.LFB1295
 3639 0260 00       		.uleb128 0
 3640 0261 44       		.uleb128 .LEHB99-.LFB1295
 3641 0262 05       		.uleb128 .LEHE99-.LEHB99
 3642 0263 00       		.uleb128 0
 3643 0264 00       		.uleb128 0
 3644              	.LLSDACSE1295:
 3645              		.text
 3647              		.section	.data.rel.ro.local
 3648              		.align 8
 3651              	_ZTVZNK12_GLOBAL__N_138TestCrashingTestsAreReportedAsFailures7RunImplEvE12CrashingTest:
 3652 00a0 00000000 		.quad	0
 3652      00000000 
 3653 00a8 00000000 		.quad	_ZTIZNK12_GLOBAL__N_138TestCrashingTestsAreReportedAsFailures7RunImplEvE12CrashingTest
 3653      00000000 
 3654 00b0 00000000 		.quad	_ZZNK12_GLOBAL__N_138TestCrashingTestsAreReportedAsFailures7RunImplEvEN12CrashingTestD1Ev
 3654      00000000 
 3655 00b8 00000000 		.quad	_ZZNK12_GLOBAL__N_138TestCrashingTestsAreReportedAsFailures7RunImplEvEN12CrashingTestD0Ev
 3655      00000000 
 3656 00c0 00000000 		.quad	_ZZNK12_GLOBAL__N_138TestCrashingTestsAreReportedAsFailures7RunImplEvENK12CrashingTest7RunIm
 3656      00000000 
 3657              		.text
 3658 13b7 90       		.align 2
 3660              	_ZZNK12_GLOBAL__N_138TestCrashingTestsAreReportedAsFailures7RunImplEvEN12CrashingTestD2Ev:
 3661              	.LFB1297:
  79:TestTest.cpp  ****     {
 3662              		.loc 4 79 11 is_stmt 1
 3663              		.cfi_startproc
 3664 13b8 F30F1EFA 		endbr64
 3665 13bc 55       		pushq	%rbp
 3666              		.cfi_def_cfa_offset 16
 3667              		.cfi_offset 6, -16
 3668 13bd 4889E5   		movq	%rsp, %rbp
 3669              		.cfi_def_cfa_register 6
 3670 13c0 4883EC10 		subq	$16, %rsp
 3671 13c4 48897DF8 		movq	%rdi, -8(%rbp)
 3672              	.LBB37:
  79:TestTest.cpp  ****     {
 3673              		.loc 4 79 11
 3674 13c8 488D1500 		leaq	16+_ZTVZNK12_GLOBAL__N_138TestCrashingTestsAreReportedAsFailures7RunImplEvE12CrashingTest(%ri
 3674      000000
 3675 13cf 488B45F8 		movq	-8(%rbp), %rax
 3676 13d3 488910   		movq	%rdx, (%rax)
 3677 13d6 488B45F8 		movq	-8(%rbp), %rax
 3678 13da 4889C7   		movq	%rax, %rdi
 3679 13dd E8000000 		call	_ZN8UnitTest4TestD2Ev@PLT
 3679      00
 3680              	.LBE37:
 3681 13e2 90       		nop
 3682 13e3 C9       		leave
 3683              		.cfi_def_cfa 7, 8
 3684 13e4 C3       		ret
 3685              		.cfi_endproc
 3686              	.LFE1297:
 3688              		.set	_ZZNK12_GLOBAL__N_138TestCrashingTestsAreReportedAsFailures7RunImplEvEN12CrashingTestD1Ev,_ZZ
 3689 13e5 90       		.align 2
 3691              	_ZZNK12_GLOBAL__N_138TestCrashingTestsAreReportedAsFailures7RunImplEvEN12CrashingTestD0Ev:
 3692              	.LFB1299:
  79:TestTest.cpp  ****     {
 3693              		.loc 4 79 11
 3694              		.cfi_startproc
 3695              		.cfi_personality 0x9b,DW.ref.__gxx_personality_v0
 3696              		.cfi_lsda 0x1b,.LLSDA1299
 3697 13e6 F30F1EFA 		endbr64
 3698 13ea 55       		pushq	%rbp
 3699              		.cfi_def_cfa_offset 16
 3700              		.cfi_offset 6, -16
 3701 13eb 4889E5   		movq	%rsp, %rbp
 3702              		.cfi_def_cfa_register 6
 3703 13ee 53       		pushq	%rbx
 3704 13ef 4883EC18 		subq	$24, %rsp
 3705              		.cfi_offset 3, -24
 3706 13f3 48897DE8 		movq	%rdi, -24(%rbp)
  79:TestTest.cpp  ****     {
 3707              		.loc 4 79 11
 3708 13f7 488B45E8 		movq	-24(%rbp), %rax
 3709 13fb 4889C7   		movq	%rax, %rdi
 3710              	.LEHB100:
 3711 13fe E8B5FFFF 		call	_ZZNK12_GLOBAL__N_138TestCrashingTestsAreReportedAsFailures7RunImplEvEN12CrashingTestD1Ev
 3711      FF
 3712              	.LEHE100:
  79:TestTest.cpp  ****     {
 3713              		.loc 4 79 11 is_stmt 0 discriminator 2
 3714 1403 488B45E8 		movq	-24(%rbp), %rax
 3715 1407 4889C7   		movq	%rax, %rdi
 3716 140a E8000000 		call	_ZdlPv@PLT
 3716      00
 3717 140f EB1E     		jmp	.L175
 3718              	.L174:
 3719 1411 F30F1EFA 		endbr64
  79:TestTest.cpp  ****     {
 3720              		.loc 4 79 11
 3721 1415 4889C3   		movq	%rax, %rbx
 3722 1418 488B45E8 		movq	-24(%rbp), %rax
 3723 141c 4889C7   		movq	%rax, %rdi
 3724 141f E8000000 		call	_ZdlPv@PLT
 3724      00
 3725 1424 4889D8   		movq	%rbx, %rax
 3726 1427 4889C7   		movq	%rax, %rdi
 3727              	.LEHB101:
 3728 142a E8000000 		call	_Unwind_Resume@PLT
 3728      00
 3729              	.LEHE101:
 3730              	.L175:
 3731 142f 488B5DF8 		movq	-8(%rbp), %rbx
 3732 1433 C9       		leave
 3733              		.cfi_def_cfa 7, 8
 3734 1434 C3       		ret
 3735              		.cfi_endproc
 3736              	.LFE1299:
 3737              		.section	.gcc_except_table
 3738              	.LLSDA1299:
 3739 0265 FF       		.byte	0xff
 3740 0266 FF       		.byte	0xff
 3741 0267 01       		.byte	0x1
 3742 0268 08       		.uleb128 .LLSDACSE1299-.LLSDACSB1299
 3743              	.LLSDACSB1299:
 3744 0269 18       		.uleb128 .LEHB100-.LFB1299
 3745 026a 05       		.uleb128 .LEHE100-.LEHB100
 3746 026b 2B       		.uleb128 .L174-.LFB1299
 3747 026c 00       		.uleb128 0
 3748 026d 44       		.uleb128 .LEHB101-.LFB1299
 3749 026e 05       		.uleb128 .LEHE101-.LEHB101
 3750 026f 00       		.uleb128 0
 3751 0270 00       		.uleb128 0
 3752              	.LLSDACSE1299:
 3753              		.text
 3755              		.section	.data.rel.ro.local
 3756              		.align 8
 3759              	_ZTVN12_GLOBAL__N_138TestThrowingTestsAreReportedAsFailuresE:
 3760 00c8 00000000 		.quad	0
 3760      00000000 
 3761 00d0 00000000 		.quad	_ZTIN12_GLOBAL__N_138TestThrowingTestsAreReportedAsFailuresE
 3761      00000000 
 3762 00d8 00000000 		.quad	_ZN12_GLOBAL__N_138TestThrowingTestsAreReportedAsFailuresD1Ev
 3762      00000000 
 3763 00e0 00000000 		.quad	_ZN12_GLOBAL__N_138TestThrowingTestsAreReportedAsFailuresD0Ev
 3763      00000000 
 3764 00e8 00000000 		.quad	_ZNK12_GLOBAL__N_138TestThrowingTestsAreReportedAsFailures7RunImplEv
 3764      00000000 
 3765              		.text
 3766 1435 90       		.align 2
 3768              	_ZN12_GLOBAL__N_138TestThrowingTestsAreReportedAsFailuresD2Ev:
 3769              	.LFB1301:
  54:TestTest.cpp  **** {
 3770              		.loc 4 54 1 is_stmt 1
 3771              		.cfi_startproc
 3772 1436 F30F1EFA 		endbr64
 3773 143a 55       		pushq	%rbp
 3774              		.cfi_def_cfa_offset 16
 3775              		.cfi_offset 6, -16
 3776 143b 4889E5   		movq	%rsp, %rbp
 3777              		.cfi_def_cfa_register 6
 3778 143e 4883EC10 		subq	$16, %rsp
 3779 1442 48897DF8 		movq	%rdi, -8(%rbp)
 3780              	.LBB38:
  54:TestTest.cpp  **** {
 3781              		.loc 4 54 1
 3782 1446 488D1500 		leaq	16+_ZTVN12_GLOBAL__N_138TestThrowingTestsAreReportedAsFailuresE(%rip), %rdx
 3782      000000
 3783 144d 488B45F8 		movq	-8(%rbp), %rax
 3784 1451 488910   		movq	%rdx, (%rax)
 3785 1454 488B45F8 		movq	-8(%rbp), %rax
 3786 1458 4889C7   		movq	%rax, %rdi
 3787 145b E8000000 		call	_ZN8UnitTest4TestD2Ev@PLT
 3787      00
 3788              	.LBE38:
 3789 1460 90       		nop
 3790 1461 C9       		leave
 3791              		.cfi_def_cfa 7, 8
 3792 1462 C3       		ret
 3793              		.cfi_endproc
 3794              	.LFE1301:
 3796              		.set	_ZN12_GLOBAL__N_138TestThrowingTestsAreReportedAsFailuresD1Ev,_ZN12_GLOBAL__N_138TestThrowing
 3797 1463 90       		.align 2
 3799              	_ZN12_GLOBAL__N_138TestThrowingTestsAreReportedAsFailuresD0Ev:
 3800              	.LFB1303:
  54:TestTest.cpp  **** {
 3801              		.loc 4 54 1
 3802              		.cfi_startproc
 3803              		.cfi_personality 0x9b,DW.ref.__gxx_personality_v0
 3804              		.cfi_lsda 0x1b,.LLSDA1303
 3805 1464 F30F1EFA 		endbr64
 3806 1468 55       		pushq	%rbp
 3807              		.cfi_def_cfa_offset 16
 3808              		.cfi_offset 6, -16
 3809 1469 4889E5   		movq	%rsp, %rbp
 3810              		.cfi_def_cfa_register 6
 3811 146c 53       		pushq	%rbx
 3812 146d 4883EC18 		subq	$24, %rsp
 3813              		.cfi_offset 3, -24
 3814 1471 48897DE8 		movq	%rdi, -24(%rbp)
  54:TestTest.cpp  **** {
 3815              		.loc 4 54 1
 3816 1475 488B45E8 		movq	-24(%rbp), %rax
 3817 1479 4889C7   		movq	%rax, %rdi
 3818              	.LEHB102:
 3819 147c E8B5FFFF 		call	_ZN12_GLOBAL__N_138TestThrowingTestsAreReportedAsFailuresD1Ev
 3819      FF
 3820              	.LEHE102:
  54:TestTest.cpp  **** {
 3821              		.loc 4 54 1 is_stmt 0 discriminator 2
 3822 1481 488B45E8 		movq	-24(%rbp), %rax
 3823 1485 4889C7   		movq	%rax, %rdi
 3824 1488 E8000000 		call	_ZdlPv@PLT
 3824      00
 3825 148d EB1E     		jmp	.L180
 3826              	.L179:
 3827 148f F30F1EFA 		endbr64
  54:TestTest.cpp  **** {
 3828              		.loc 4 54 1
 3829 1493 4889C3   		movq	%rax, %rbx
 3830 1496 488B45E8 		movq	-24(%rbp), %rax
 3831 149a 4889C7   		movq	%rax, %rdi
 3832 149d E8000000 		call	_ZdlPv@PLT
 3832      00
 3833 14a2 4889D8   		movq	%rbx, %rax
 3834 14a5 4889C7   		movq	%rax, %rdi
 3835              	.LEHB103:
 3836 14a8 E8000000 		call	_Unwind_Resume@PLT
 3836      00
 3837              	.LEHE103:
 3838              	.L180:
 3839 14ad 488B5DF8 		movq	-8(%rbp), %rbx
 3840 14b1 C9       		leave
 3841              		.cfi_def_cfa 7, 8
 3842 14b2 C3       		ret
 3843              		.cfi_endproc
 3844              	.LFE1303:
 3845              		.section	.gcc_except_table
 3846              	.LLSDA1303:
 3847 0271 FF       		.byte	0xff
 3848 0272 FF       		.byte	0xff
 3849 0273 01       		.byte	0x1
 3850 0274 08       		.uleb128 .LLSDACSE1303-.LLSDACSB1303
 3851              	.LLSDACSB1303:
 3852 0275 18       		.uleb128 .LEHB102-.LFB1303
 3853 0276 05       		.uleb128 .LEHE102-.LEHB102
 3854 0277 2B       		.uleb128 .L179-.LFB1303
 3855 0278 00       		.uleb128 0
 3856 0279 44       		.uleb128 .LEHB103-.LFB1303
 3857 027a 05       		.uleb128 .LEHE103-.LEHB103
 3858 027b 00       		.uleb128 0
 3859 027c 00       		.uleb128 0
 3860              	.LLSDACSE1303:
 3861              		.text
 3863              		.section	.data.rel.ro.local
 3864              		.align 8
 3867              	_ZTVZNK12_GLOBAL__N_138TestThrowingTestsAreReportedAsFailures7RunImplEvE12CrashingTest:
 3868 00f0 00000000 		.quad	0
 3868      00000000 
 3869 00f8 00000000 		.quad	_ZTIZNK12_GLOBAL__N_138TestThrowingTestsAreReportedAsFailures7RunImplEvE12CrashingTest
 3869      00000000 
 3870 0100 00000000 		.quad	_ZZNK12_GLOBAL__N_138TestThrowingTestsAreReportedAsFailures7RunImplEvEN12CrashingTestD1Ev
 3870      00000000 
 3871 0108 00000000 		.quad	_ZZNK12_GLOBAL__N_138TestThrowingTestsAreReportedAsFailures7RunImplEvEN12CrashingTestD0Ev
 3871      00000000 
 3872 0110 00000000 		.quad	_ZZNK12_GLOBAL__N_138TestThrowingTestsAreReportedAsFailures7RunImplEvENK12CrashingTest7RunIm
 3872      00000000 
 3873              		.text
 3874 14b3 90       		.align 2
 3876              	_ZZNK12_GLOBAL__N_138TestThrowingTestsAreReportedAsFailures7RunImplEvEN12CrashingTestD2Ev:
 3877              	.LFB1305:
  56:TestTest.cpp  ****     {
 3878              		.loc 4 56 11 is_stmt 1
 3879              		.cfi_startproc
 3880 14b4 F30F1EFA 		endbr64
 3881 14b8 55       		pushq	%rbp
 3882              		.cfi_def_cfa_offset 16
 3883              		.cfi_offset 6, -16
 3884 14b9 4889E5   		movq	%rsp, %rbp
 3885              		.cfi_def_cfa_register 6
 3886 14bc 4883EC10 		subq	$16, %rsp
 3887 14c0 48897DF8 		movq	%rdi, -8(%rbp)
 3888              	.LBB39:
  56:TestTest.cpp  ****     {
 3889              		.loc 4 56 11
 3890 14c4 488D1500 		leaq	16+_ZTVZNK12_GLOBAL__N_138TestThrowingTestsAreReportedAsFailures7RunImplEvE12CrashingTest(%ri
 3890      000000
 3891 14cb 488B45F8 		movq	-8(%rbp), %rax
 3892 14cf 488910   		movq	%rdx, (%rax)
 3893 14d2 488B45F8 		movq	-8(%rbp), %rax
 3894 14d6 4889C7   		movq	%rax, %rdi
 3895 14d9 E8000000 		call	_ZN8UnitTest4TestD2Ev@PLT
 3895      00
 3896              	.LBE39:
 3897 14de 90       		nop
 3898 14df C9       		leave
 3899              		.cfi_def_cfa 7, 8
 3900 14e0 C3       		ret
 3901              		.cfi_endproc
 3902              	.LFE1305:
 3904              		.set	_ZZNK12_GLOBAL__N_138TestThrowingTestsAreReportedAsFailures7RunImplEvEN12CrashingTestD1Ev,_ZZ
 3905 14e1 90       		.align 2
 3907              	_ZZNK12_GLOBAL__N_138TestThrowingTestsAreReportedAsFailures7RunImplEvEN12CrashingTestD0Ev:
 3908              	.LFB1307:
  56:TestTest.cpp  ****     {
 3909              		.loc 4 56 11
 3910              		.cfi_startproc
 3911              		.cfi_personality 0x9b,DW.ref.__gxx_personality_v0
 3912              		.cfi_lsda 0x1b,.LLSDA1307
 3913 14e2 F30F1EFA 		endbr64
 3914 14e6 55       		pushq	%rbp
 3915              		.cfi_def_cfa_offset 16
 3916              		.cfi_offset 6, -16
 3917 14e7 4889E5   		movq	%rsp, %rbp
 3918              		.cfi_def_cfa_register 6
 3919 14ea 53       		pushq	%rbx
 3920 14eb 4883EC18 		subq	$24, %rsp
 3921              		.cfi_offset 3, -24
 3922 14ef 48897DE8 		movq	%rdi, -24(%rbp)
  56:TestTest.cpp  ****     {
 3923              		.loc 4 56 11
 3924 14f3 488B45E8 		movq	-24(%rbp), %rax
 3925 14f7 4889C7   		movq	%rax, %rdi
 3926              	.LEHB104:
 3927 14fa E8B5FFFF 		call	_ZZNK12_GLOBAL__N_138TestThrowingTestsAreReportedAsFailures7RunImplEvEN12CrashingTestD1Ev
 3927      FF
 3928              	.LEHE104:
  56:TestTest.cpp  ****     {
 3929              		.loc 4 56 11 is_stmt 0 discriminator 2
 3930 14ff 488B45E8 		movq	-24(%rbp), %rax
 3931 1503 4889C7   		movq	%rax, %rdi
 3932 1506 E8000000 		call	_ZdlPv@PLT
 3932      00
 3933 150b EB1E     		jmp	.L185
 3934              	.L184:
 3935 150d F30F1EFA 		endbr64
  56:TestTest.cpp  ****     {
 3936              		.loc 4 56 11
 3937 1511 4889C3   		movq	%rax, %rbx
 3938 1514 488B45E8 		movq	-24(%rbp), %rax
 3939 1518 4889C7   		movq	%rax, %rdi
 3940 151b E8000000 		call	_ZdlPv@PLT
 3940      00
 3941 1520 4889D8   		movq	%rbx, %rax
 3942 1523 4889C7   		movq	%rax, %rdi
 3943              	.LEHB105:
 3944 1526 E8000000 		call	_Unwind_Resume@PLT
 3944      00
 3945              	.LEHE105:
 3946              	.L185:
 3947 152b 488B5DF8 		movq	-8(%rbp), %rbx
 3948 152f C9       		leave
 3949              		.cfi_def_cfa 7, 8
 3950 1530 C3       		ret
 3951              		.cfi_endproc
 3952              	.LFE1307:
 3953              		.section	.gcc_except_table
 3954              	.LLSDA1307:
 3955 027d FF       		.byte	0xff
 3956 027e FF       		.byte	0xff
 3957 027f 01       		.byte	0x1
 3958 0280 08       		.uleb128 .LLSDACSE1307-.LLSDACSB1307
 3959              	.LLSDACSB1307:
 3960 0281 18       		.uleb128 .LEHB104-.LFB1307
 3961 0282 05       		.uleb128 .LEHE104-.LEHB104
 3962 0283 2B       		.uleb128 .L184-.LFB1307
 3963 0284 00       		.uleb128 0
 3964 0285 44       		.uleb128 .LEHB105-.LFB1307
 3965 0286 05       		.uleb128 .LEHE105-.LEHB105
 3966 0287 00       		.uleb128 0
 3967 0288 00       		.uleb128 0
 3968              	.LLSDACSE1307:
 3969              		.text
 3971              		.section	.data.rel.ro.local
 3972              		.align 8
 3975              	_ZTVN12_GLOBAL__N_126TestFailingTestHasFailuresE:
 3976 0118 00000000 		.quad	0
 3976      00000000 
 3977 0120 00000000 		.quad	_ZTIN12_GLOBAL__N_126TestFailingTestHasFailuresE
 3977      00000000 
 3978 0128 00000000 		.quad	_ZN12_GLOBAL__N_126TestFailingTestHasFailuresD1Ev
 3978      00000000 
 3979 0130 00000000 		.quad	_ZN12_GLOBAL__N_126TestFailingTestHasFailuresD0Ev
 3979      00000000 
 3980 0138 00000000 		.quad	_ZNK12_GLOBAL__N_126TestFailingTestHasFailures7RunImplEv
 3980      00000000 
 3981              		.text
 3982 1531 90       		.align 2
 3984              	_ZN12_GLOBAL__N_126TestFailingTestHasFailuresD2Ev:
 3985              	.LFB1309:
  32:TestTest.cpp  **** {
 3986              		.loc 4 32 1 is_stmt 1
 3987              		.cfi_startproc
 3988 1532 F30F1EFA 		endbr64
 3989 1536 55       		pushq	%rbp
 3990              		.cfi_def_cfa_offset 16
 3991              		.cfi_offset 6, -16
 3992 1537 4889E5   		movq	%rsp, %rbp
 3993              		.cfi_def_cfa_register 6
 3994 153a 4883EC10 		subq	$16, %rsp
 3995 153e 48897DF8 		movq	%rdi, -8(%rbp)
 3996              	.LBB40:
  32:TestTest.cpp  **** {
 3997              		.loc 4 32 1
 3998 1542 488D1500 		leaq	16+_ZTVN12_GLOBAL__N_126TestFailingTestHasFailuresE(%rip), %rdx
 3998      000000
 3999 1549 488B45F8 		movq	-8(%rbp), %rax
 4000 154d 488910   		movq	%rdx, (%rax)
 4001 1550 488B45F8 		movq	-8(%rbp), %rax
 4002 1554 4889C7   		movq	%rax, %rdi
 4003 1557 E8000000 		call	_ZN8UnitTest4TestD2Ev@PLT
 4003      00
 4004              	.LBE40:
 4005 155c 90       		nop
 4006 155d C9       		leave
 4007              		.cfi_def_cfa 7, 8
 4008 155e C3       		ret
 4009              		.cfi_endproc
 4010              	.LFE1309:
 4012              		.set	_ZN12_GLOBAL__N_126TestFailingTestHasFailuresD1Ev,_ZN12_GLOBAL__N_126TestFailingTestHasFailur
 4013 155f 90       		.align 2
 4015              	_ZN12_GLOBAL__N_126TestFailingTestHasFailuresD0Ev:
 4016              	.LFB1311:
  32:TestTest.cpp  **** {
 4017              		.loc 4 32 1
 4018              		.cfi_startproc
 4019              		.cfi_personality 0x9b,DW.ref.__gxx_personality_v0
 4020              		.cfi_lsda 0x1b,.LLSDA1311
 4021 1560 F30F1EFA 		endbr64
 4022 1564 55       		pushq	%rbp
 4023              		.cfi_def_cfa_offset 16
 4024              		.cfi_offset 6, -16
 4025 1565 4889E5   		movq	%rsp, %rbp
 4026              		.cfi_def_cfa_register 6
 4027 1568 53       		pushq	%rbx
 4028 1569 4883EC18 		subq	$24, %rsp
 4029              		.cfi_offset 3, -24
 4030 156d 48897DE8 		movq	%rdi, -24(%rbp)
  32:TestTest.cpp  **** {
 4031              		.loc 4 32 1
 4032 1571 488B45E8 		movq	-24(%rbp), %rax
 4033 1575 4889C7   		movq	%rax, %rdi
 4034              	.LEHB106:
 4035 1578 E8B5FFFF 		call	_ZN12_GLOBAL__N_126TestFailingTestHasFailuresD1Ev
 4035      FF
 4036              	.LEHE106:
  32:TestTest.cpp  **** {
 4037              		.loc 4 32 1 is_stmt 0 discriminator 2
 4038 157d 488B45E8 		movq	-24(%rbp), %rax
 4039 1581 4889C7   		movq	%rax, %rdi
 4040 1584 E8000000 		call	_ZdlPv@PLT
 4040      00
 4041 1589 EB1E     		jmp	.L190
 4042              	.L189:
 4043 158b F30F1EFA 		endbr64
  32:TestTest.cpp  **** {
 4044              		.loc 4 32 1
 4045 158f 4889C3   		movq	%rax, %rbx
 4046 1592 488B45E8 		movq	-24(%rbp), %rax
 4047 1596 4889C7   		movq	%rax, %rdi
 4048 1599 E8000000 		call	_ZdlPv@PLT
 4048      00
 4049 159e 4889D8   		movq	%rbx, %rax
 4050 15a1 4889C7   		movq	%rax, %rdi
 4051              	.LEHB107:
 4052 15a4 E8000000 		call	_Unwind_Resume@PLT
 4052      00
 4053              	.LEHE107:
 4054              	.L190:
 4055 15a9 488B5DF8 		movq	-8(%rbp), %rbx
 4056 15ad C9       		leave
 4057              		.cfi_def_cfa 7, 8
 4058 15ae C3       		ret
 4059              		.cfi_endproc
 4060              	.LFE1311:
 4061              		.section	.gcc_except_table
 4062              	.LLSDA1311:
 4063 0289 FF       		.byte	0xff
 4064 028a FF       		.byte	0xff
 4065 028b 01       		.byte	0x1
 4066 028c 08       		.uleb128 .LLSDACSE1311-.LLSDACSB1311
 4067              	.LLSDACSB1311:
 4068 028d 18       		.uleb128 .LEHB106-.LFB1311
 4069 028e 05       		.uleb128 .LEHE106-.LEHB106
 4070 028f 2B       		.uleb128 .L189-.LFB1311
 4071 0290 00       		.uleb128 0
 4072 0291 44       		.uleb128 .LEHB107-.LFB1311
 4073 0292 05       		.uleb128 .LEHE107-.LEHB107
 4074 0293 00       		.uleb128 0
 4075 0294 00       		.uleb128 0
 4076              	.LLSDACSE1311:
 4077              		.text
 4079              		.section	.data.rel.ro.local
 4080              		.align 8
 4083              	_ZTVZNK12_GLOBAL__N_126TestFailingTestHasFailures7RunImplEvE11FailingTest:
 4084 0140 00000000 		.quad	0
 4084      00000000 
 4085 0148 00000000 		.quad	_ZTIZNK12_GLOBAL__N_126TestFailingTestHasFailures7RunImplEvE11FailingTest
 4085      00000000 
 4086 0150 00000000 		.quad	_ZZNK12_GLOBAL__N_126TestFailingTestHasFailures7RunImplEvEN11FailingTestD1Ev
 4086      00000000 
 4087 0158 00000000 		.quad	_ZZNK12_GLOBAL__N_126TestFailingTestHasFailures7RunImplEvEN11FailingTestD0Ev
 4087      00000000 
 4088 0160 00000000 		.quad	_ZZNK12_GLOBAL__N_126TestFailingTestHasFailures7RunImplEvENK11FailingTest7RunImplEv
 4088      00000000 
 4089              		.text
 4090 15af 90       		.align 2
 4092              	_ZZNK12_GLOBAL__N_126TestFailingTestHasFailures7RunImplEvEN11FailingTestD2Ev:
 4093              	.LFB1313:
  34:TestTest.cpp  ****     {
 4094              		.loc 4 34 11 is_stmt 1
 4095              		.cfi_startproc
 4096 15b0 F30F1EFA 		endbr64
 4097 15b4 55       		pushq	%rbp
 4098              		.cfi_def_cfa_offset 16
 4099              		.cfi_offset 6, -16
 4100 15b5 4889E5   		movq	%rsp, %rbp
 4101              		.cfi_def_cfa_register 6
 4102 15b8 4883EC10 		subq	$16, %rsp
 4103 15bc 48897DF8 		movq	%rdi, -8(%rbp)
 4104              	.LBB41:
  34:TestTest.cpp  ****     {
 4105              		.loc 4 34 11
 4106 15c0 488D1500 		leaq	16+_ZTVZNK12_GLOBAL__N_126TestFailingTestHasFailures7RunImplEvE11FailingTest(%rip), %rdx
 4106      000000
 4107 15c7 488B45F8 		movq	-8(%rbp), %rax
 4108 15cb 488910   		movq	%rdx, (%rax)
 4109 15ce 488B45F8 		movq	-8(%rbp), %rax
 4110 15d2 4889C7   		movq	%rax, %rdi
 4111 15d5 E8000000 		call	_ZN8UnitTest4TestD2Ev@PLT
 4111      00
 4112              	.LBE41:
 4113 15da 90       		nop
 4114 15db C9       		leave
 4115              		.cfi_def_cfa 7, 8
 4116 15dc C3       		ret
 4117              		.cfi_endproc
 4118              	.LFE1313:
 4120              		.set	_ZZNK12_GLOBAL__N_126TestFailingTestHasFailures7RunImplEvEN11FailingTestD1Ev,_ZZNK12_GLOBAL__
 4121 15dd 90       		.align 2
 4123              	_ZZNK12_GLOBAL__N_126TestFailingTestHasFailures7RunImplEvEN11FailingTestD0Ev:
 4124              	.LFB1315:
  34:TestTest.cpp  ****     {
 4125              		.loc 4 34 11
 4126              		.cfi_startproc
 4127              		.cfi_personality 0x9b,DW.ref.__gxx_personality_v0
 4128              		.cfi_lsda 0x1b,.LLSDA1315
 4129 15de F30F1EFA 		endbr64
 4130 15e2 55       		pushq	%rbp
 4131              		.cfi_def_cfa_offset 16
 4132              		.cfi_offset 6, -16
 4133 15e3 4889E5   		movq	%rsp, %rbp
 4134              		.cfi_def_cfa_register 6
 4135 15e6 53       		pushq	%rbx
 4136 15e7 4883EC18 		subq	$24, %rsp
 4137              		.cfi_offset 3, -24
 4138 15eb 48897DE8 		movq	%rdi, -24(%rbp)
  34:TestTest.cpp  ****     {
 4139              		.loc 4 34 11
 4140 15ef 488B45E8 		movq	-24(%rbp), %rax
 4141 15f3 4889C7   		movq	%rax, %rdi
 4142              	.LEHB108:
 4143 15f6 E8B5FFFF 		call	_ZZNK12_GLOBAL__N_126TestFailingTestHasFailures7RunImplEvEN11FailingTestD1Ev
 4143      FF
 4144              	.LEHE108:
  34:TestTest.cpp  ****     {
 4145              		.loc 4 34 11 is_stmt 0 discriminator 2
 4146 15fb 488B45E8 		movq	-24(%rbp), %rax
 4147 15ff 4889C7   		movq	%rax, %rdi
 4148 1602 E8000000 		call	_ZdlPv@PLT
 4148      00
 4149 1607 EB1E     		jmp	.L195
 4150              	.L194:
 4151 1609 F30F1EFA 		endbr64
  34:TestTest.cpp  ****     {
 4152              		.loc 4 34 11
 4153 160d 4889C3   		movq	%rax, %rbx
 4154 1610 488B45E8 		movq	-24(%rbp), %rax
 4155 1614 4889C7   		movq	%rax, %rdi
 4156 1617 E8000000 		call	_ZdlPv@PLT
 4156      00
 4157 161c 4889D8   		movq	%rbx, %rax
 4158 161f 4889C7   		movq	%rax, %rdi
 4159              	.LEHB109:
 4160 1622 E8000000 		call	_Unwind_Resume@PLT
 4160      00
 4161              	.LEHE109:
 4162              	.L195:
 4163 1627 488B5DF8 		movq	-8(%rbp), %rbx
 4164 162b C9       		leave
 4165              		.cfi_def_cfa 7, 8
 4166 162c C3       		ret
 4167              		.cfi_endproc
 4168              	.LFE1315:
 4169              		.section	.gcc_except_table
 4170              	.LLSDA1315:
 4171 0295 FF       		.byte	0xff
 4172 0296 FF       		.byte	0xff
 4173 0297 01       		.byte	0x1
 4174 0298 08       		.uleb128 .LLSDACSE1315-.LLSDACSB1315
 4175              	.LLSDACSB1315:
 4176 0299 18       		.uleb128 .LEHB108-.LFB1315
 4177 029a 05       		.uleb128 .LEHE108-.LEHB108
 4178 029b 2B       		.uleb128 .L194-.LFB1315
 4179 029c 00       		.uleb128 0
 4180 029d 44       		.uleb128 .LEHB109-.LFB1315
 4181 029e 05       		.uleb128 .LEHE109-.LEHB109
 4182 029f 00       		.uleb128 0
 4183 02a0 00       		.uleb128 0
 4184              	.LLSDACSE1315:
 4185              		.text
 4187              		.section	.data.rel.ro.local
 4188              		.align 8
 4191              	_ZTVN12_GLOBAL__N_128TestPassingTestHasNoFailuresE:
 4192 0168 00000000 		.quad	0
 4192      00000000 
 4193 0170 00000000 		.quad	_ZTIN12_GLOBAL__N_128TestPassingTestHasNoFailuresE
 4193      00000000 
 4194 0178 00000000 		.quad	_ZN12_GLOBAL__N_128TestPassingTestHasNoFailuresD1Ev
 4194      00000000 
 4195 0180 00000000 		.quad	_ZN12_GLOBAL__N_128TestPassingTestHasNoFailuresD0Ev
 4195      00000000 
 4196 0188 00000000 		.quad	_ZNK12_GLOBAL__N_128TestPassingTestHasNoFailures7RunImplEv
 4196      00000000 
 4197              		.text
 4198 162d 90       		.align 2
 4200              	_ZN12_GLOBAL__N_128TestPassingTestHasNoFailuresD2Ev:
 4201              	.LFB1317:
  10:TestTest.cpp  **** {
 4202              		.loc 4 10 1 is_stmt 1
 4203              		.cfi_startproc
 4204 162e F30F1EFA 		endbr64
 4205 1632 55       		pushq	%rbp
 4206              		.cfi_def_cfa_offset 16
 4207              		.cfi_offset 6, -16
 4208 1633 4889E5   		movq	%rsp, %rbp
 4209              		.cfi_def_cfa_register 6
 4210 1636 4883EC10 		subq	$16, %rsp
 4211 163a 48897DF8 		movq	%rdi, -8(%rbp)
 4212              	.LBB42:
  10:TestTest.cpp  **** {
 4213              		.loc 4 10 1
 4214 163e 488D1500 		leaq	16+_ZTVN12_GLOBAL__N_128TestPassingTestHasNoFailuresE(%rip), %rdx
 4214      000000
 4215 1645 488B45F8 		movq	-8(%rbp), %rax
 4216 1649 488910   		movq	%rdx, (%rax)
 4217 164c 488B45F8 		movq	-8(%rbp), %rax
 4218 1650 4889C7   		movq	%rax, %rdi
 4219 1653 E8000000 		call	_ZN8UnitTest4TestD2Ev@PLT
 4219      00
 4220              	.LBE42:
 4221 1658 90       		nop
 4222 1659 C9       		leave
 4223              		.cfi_def_cfa 7, 8
 4224 165a C3       		ret
 4225              		.cfi_endproc
 4226              	.LFE1317:
 4228              		.set	_ZN12_GLOBAL__N_128TestPassingTestHasNoFailuresD1Ev,_ZN12_GLOBAL__N_128TestPassingTestHasNoFa
 4229 165b 90       		.align 2
 4231              	_ZN12_GLOBAL__N_128TestPassingTestHasNoFailuresD0Ev:
 4232              	.LFB1319:
  10:TestTest.cpp  **** {
 4233              		.loc 4 10 1
 4234              		.cfi_startproc
 4235              		.cfi_personality 0x9b,DW.ref.__gxx_personality_v0
 4236              		.cfi_lsda 0x1b,.LLSDA1319
 4237 165c F30F1EFA 		endbr64
 4238 1660 55       		pushq	%rbp
 4239              		.cfi_def_cfa_offset 16
 4240              		.cfi_offset 6, -16
 4241 1661 4889E5   		movq	%rsp, %rbp
 4242              		.cfi_def_cfa_register 6
 4243 1664 53       		pushq	%rbx
 4244 1665 4883EC18 		subq	$24, %rsp
 4245              		.cfi_offset 3, -24
 4246 1669 48897DE8 		movq	%rdi, -24(%rbp)
  10:TestTest.cpp  **** {
 4247              		.loc 4 10 1
 4248 166d 488B45E8 		movq	-24(%rbp), %rax
 4249 1671 4889C7   		movq	%rax, %rdi
 4250              	.LEHB110:
 4251 1674 E8B5FFFF 		call	_ZN12_GLOBAL__N_128TestPassingTestHasNoFailuresD1Ev
 4251      FF
 4252              	.LEHE110:
  10:TestTest.cpp  **** {
 4253              		.loc 4 10 1 is_stmt 0 discriminator 2
 4254 1679 488B45E8 		movq	-24(%rbp), %rax
 4255 167d 4889C7   		movq	%rax, %rdi
 4256 1680 E8000000 		call	_ZdlPv@PLT
 4256      00
 4257 1685 EB1E     		jmp	.L200
 4258              	.L199:
 4259 1687 F30F1EFA 		endbr64
  10:TestTest.cpp  **** {
 4260              		.loc 4 10 1
 4261 168b 4889C3   		movq	%rax, %rbx
 4262 168e 488B45E8 		movq	-24(%rbp), %rax
 4263 1692 4889C7   		movq	%rax, %rdi
 4264 1695 E8000000 		call	_ZdlPv@PLT
 4264      00
 4265 169a 4889D8   		movq	%rbx, %rax
 4266 169d 4889C7   		movq	%rax, %rdi
 4267              	.LEHB111:
 4268 16a0 E8000000 		call	_Unwind_Resume@PLT
 4268      00
 4269              	.LEHE111:
 4270              	.L200:
 4271 16a5 488B5DF8 		movq	-8(%rbp), %rbx
 4272 16a9 C9       		leave
 4273              		.cfi_def_cfa 7, 8
 4274 16aa C3       		ret
 4275              		.cfi_endproc
 4276              	.LFE1319:
 4277              		.section	.gcc_except_table
 4278              	.LLSDA1319:
 4279 02a1 FF       		.byte	0xff
 4280 02a2 FF       		.byte	0xff
 4281 02a3 01       		.byte	0x1
 4282 02a4 08       		.uleb128 .LLSDACSE1319-.LLSDACSB1319
 4283              	.LLSDACSB1319:
 4284 02a5 18       		.uleb128 .LEHB110-.LFB1319
 4285 02a6 05       		.uleb128 .LEHE110-.LEHB110
 4286 02a7 2B       		.uleb128 .L199-.LFB1319
 4287 02a8 00       		.uleb128 0
 4288 02a9 44       		.uleb128 .LEHB111-.LFB1319
 4289 02aa 05       		.uleb128 .LEHE111-.LEHB111
 4290 02ab 00       		.uleb128 0
 4291 02ac 00       		.uleb128 0
 4292              	.LLSDACSE1319:
 4293              		.text
 4295              		.section	.data.rel.ro.local
 4296              		.align 8
 4299              	_ZTVZNK12_GLOBAL__N_128TestPassingTestHasNoFailures7RunImplEvE11PassingTest:
 4300 0190 00000000 		.quad	0
 4300      00000000 
 4301 0198 00000000 		.quad	_ZTIZNK12_GLOBAL__N_128TestPassingTestHasNoFailures7RunImplEvE11PassingTest
 4301      00000000 
 4302 01a0 00000000 		.quad	_ZZNK12_GLOBAL__N_128TestPassingTestHasNoFailures7RunImplEvEN11PassingTestD1Ev
 4302      00000000 
 4303 01a8 00000000 		.quad	_ZZNK12_GLOBAL__N_128TestPassingTestHasNoFailures7RunImplEvEN11PassingTestD0Ev
 4303      00000000 
 4304 01b0 00000000 		.quad	_ZZNK12_GLOBAL__N_128TestPassingTestHasNoFailures7RunImplEvENK11PassingTest7RunImplEv
 4304      00000000 
 4305              		.text
 4306 16ab 90       		.align 2
 4308              	_ZZNK12_GLOBAL__N_128TestPassingTestHasNoFailures7RunImplEvEN11PassingTestD2Ev:
 4309              	.LFB1321:
  12:TestTest.cpp  ****     {
 4310              		.loc 4 12 11 is_stmt 1
 4311              		.cfi_startproc
 4312 16ac F30F1EFA 		endbr64
 4313 16b0 55       		pushq	%rbp
 4314              		.cfi_def_cfa_offset 16
 4315              		.cfi_offset 6, -16
 4316 16b1 4889E5   		movq	%rsp, %rbp
 4317              		.cfi_def_cfa_register 6
 4318 16b4 4883EC10 		subq	$16, %rsp
 4319 16b8 48897DF8 		movq	%rdi, -8(%rbp)
 4320              	.LBB43:
  12:TestTest.cpp  ****     {
 4321              		.loc 4 12 11
 4322 16bc 488D1500 		leaq	16+_ZTVZNK12_GLOBAL__N_128TestPassingTestHasNoFailures7RunImplEvE11PassingTest(%rip), %rdx
 4322      000000
 4323 16c3 488B45F8 		movq	-8(%rbp), %rax
 4324 16c7 488910   		movq	%rdx, (%rax)
 4325 16ca 488B45F8 		movq	-8(%rbp), %rax
 4326 16ce 4889C7   		movq	%rax, %rdi
 4327 16d1 E8000000 		call	_ZN8UnitTest4TestD2Ev@PLT
 4327      00
 4328              	.LBE43:
 4329 16d6 90       		nop
 4330 16d7 C9       		leave
 4331              		.cfi_def_cfa 7, 8
 4332 16d8 C3       		ret
 4333              		.cfi_endproc
 4334              	.LFE1321:
 4336              		.set	_ZZNK12_GLOBAL__N_128TestPassingTestHasNoFailures7RunImplEvEN11PassingTestD1Ev,_ZZNK12_GLOBAL
 4337 16d9 90       		.align 2
 4339              	_ZZNK12_GLOBAL__N_128TestPassingTestHasNoFailures7RunImplEvEN11PassingTestD0Ev:
 4340              	.LFB1323:
  12:TestTest.cpp  ****     {
 4341              		.loc 4 12 11
 4342              		.cfi_startproc
 4343              		.cfi_personality 0x9b,DW.ref.__gxx_personality_v0
 4344              		.cfi_lsda 0x1b,.LLSDA1323
 4345 16da F30F1EFA 		endbr64
 4346 16de 55       		pushq	%rbp
 4347              		.cfi_def_cfa_offset 16
 4348              		.cfi_offset 6, -16
 4349 16df 4889E5   		movq	%rsp, %rbp
 4350              		.cfi_def_cfa_register 6
 4351 16e2 53       		pushq	%rbx
 4352 16e3 4883EC18 		subq	$24, %rsp
 4353              		.cfi_offset 3, -24
 4354 16e7 48897DE8 		movq	%rdi, -24(%rbp)
  12:TestTest.cpp  ****     {
 4355              		.loc 4 12 11
 4356 16eb 488B45E8 		movq	-24(%rbp), %rax
 4357 16ef 4889C7   		movq	%rax, %rdi
 4358              	.LEHB112:
 4359 16f2 E8B5FFFF 		call	_ZZNK12_GLOBAL__N_128TestPassingTestHasNoFailures7RunImplEvEN11PassingTestD1Ev
 4359      FF
 4360              	.LEHE112:
  12:TestTest.cpp  ****     {
 4361              		.loc 4 12 11 is_stmt 0 discriminator 2
 4362 16f7 488B45E8 		movq	-24(%rbp), %rax
 4363 16fb 4889C7   		movq	%rax, %rdi
 4364 16fe E8000000 		call	_ZdlPv@PLT
 4364      00
 4365 1703 EB1E     		jmp	.L205
 4366              	.L204:
 4367 1705 F30F1EFA 		endbr64
  12:TestTest.cpp  ****     {
 4368              		.loc 4 12 11
 4369 1709 4889C3   		movq	%rax, %rbx
 4370 170c 488B45E8 		movq	-24(%rbp), %rax
 4371 1710 4889C7   		movq	%rax, %rdi
 4372 1713 E8000000 		call	_ZdlPv@PLT
 4372      00
 4373 1718 4889D8   		movq	%rbx, %rax
 4374 171b 4889C7   		movq	%rax, %rdi
 4375              	.LEHB113:
 4376 171e E8000000 		call	_Unwind_Resume@PLT
 4376      00
 4377              	.LEHE113:
 4378              	.L205:
 4379 1723 488B5DF8 		movq	-8(%rbp), %rbx
 4380 1727 C9       		leave
 4381              		.cfi_def_cfa 7, 8
 4382 1728 C3       		ret
 4383              		.cfi_endproc
 4384              	.LFE1323:
 4385              		.section	.gcc_except_table
 4386              	.LLSDA1323:
 4387 02ad FF       		.byte	0xff
 4388 02ae FF       		.byte	0xff
 4389 02af 01       		.byte	0x1
 4390 02b0 08       		.uleb128 .LLSDACSE1323-.LLSDACSB1323
 4391              	.LLSDACSB1323:
 4392 02b1 18       		.uleb128 .LEHB112-.LFB1323
 4393 02b2 05       		.uleb128 .LEHE112-.LEHB112
 4394 02b3 2B       		.uleb128 .L204-.LFB1323
 4395 02b4 00       		.uleb128 0
 4396 02b5 44       		.uleb128 .LEHB113-.LFB1323
 4397 02b6 05       		.uleb128 .LEHE113-.LEHB113
 4398 02b7 00       		.uleb128 0
 4399 02b8 00       		.uleb128 0
 4400              	.LLSDACSE1323:
 4401              		.text
 4403              		.weak	_ZTVN8UnitTest15MemoryOutStreamE
 4404              		.section	.data.rel.ro.local._ZTVN8UnitTest15MemoryOutStreamE,"awG",@progbits,_ZTVN8UnitTest15Memor
 4405              		.align 8
 4408              	_ZTVN8UnitTest15MemoryOutStreamE:
 4409 0000 90000000 		.quad	144
 4409      00000000 
 4410 0008 00000000 		.quad	0
 4410      00000000 
 4411 0010 00000000 		.quad	_ZTIN8UnitTest15MemoryOutStreamE
 4411      00000000 
 4412 0018 00000000 		.quad	_ZN8UnitTest15MemoryOutStreamD1Ev
 4412      00000000 
 4413 0020 00000000 		.quad	_ZN8UnitTest15MemoryOutStreamD0Ev
 4413      00000000 
 4414 0028 70FFFFFF 		.quad	-144
 4414      FFFFFFFF 
 4415 0030 70FFFFFF 		.quad	-144
 4415      FFFFFFFF 
 4416 0038 00000000 		.quad	_ZTIN8UnitTest15MemoryOutStreamE
 4416      00000000 
 4417 0040 00000000 		.quad	_ZTv0_n24_N8UnitTest15MemoryOutStreamD1Ev
 4417      00000000 
 4418 0048 00000000 		.quad	_ZTv0_n24_N8UnitTest15MemoryOutStreamD0Ev
 4418      00000000 
 4419              		.weak	_ZTTN8UnitTest15MemoryOutStreamE
 4420              		.section	.data.rel.ro.local._ZTTN8UnitTest15MemoryOutStreamE,"awG",@progbits,_ZTVN8UnitTest15Memor
 4421              		.align 8
 4424              	_ZTTN8UnitTest15MemoryOutStreamE:
 4425 0000 00000000 		.quad	_ZTVN8UnitTest15MemoryOutStreamE+24
 4425      00000000 
 4426 0008 00000000 		.quad	_ZTCN8UnitTest15MemoryOutStreamE0_NSt7__cxx1119basic_ostringstreamIcSt11char_traitsIcESaIcEE
 4426      00000000 
 4427 0010 00000000 		.quad	_ZTCN8UnitTest15MemoryOutStreamE0_So+24
 4427      00000000 
 4428 0018 00000000 		.quad	_ZTCN8UnitTest15MemoryOutStreamE0_So+64
 4428      00000000 
 4429 0020 00000000 		.quad	_ZTCN8UnitTest15MemoryOutStreamE0_NSt7__cxx1119basic_ostringstreamIcSt11char_traitsIcESaIcEE
 4429      00000000 
 4430 0028 00000000 		.quad	_ZTVN8UnitTest15MemoryOutStreamE+64
 4430      00000000 
 4431              		.hidden	_ZTCN8UnitTest15MemoryOutStreamE0_NSt7__cxx1119basic_ostringstreamIcSt11char_traitsIcESaIc
 4432              		.weak	_ZTCN8UnitTest15MemoryOutStreamE0_NSt7__cxx1119basic_ostringstreamIcSt11char_traitsIcESaIcEE
 4433              		.section	.data.rel.ro._ZTCN8UnitTest15MemoryOutStreamE0_NSt7__cxx1119basic_ostringstreamIcSt11char
 4434              		.align 8
 4437              	_ZTCN8UnitTest15MemoryOutStreamE0_NSt7__cxx1119basic_ostringstreamIcSt11char_traitsIcESaIcEEE:
 4438 0000 90000000 		.quad	144
 4438      00000000 
 4439 0008 00000000 		.quad	0
 4439      00000000 
 4440 0010 00000000 		.quad	_ZTINSt7__cxx1119basic_ostringstreamIcSt11char_traitsIcESaIcEEE
 4440      00000000 
 4441 0018 00000000 		.quad	0
 4441      00000000 
 4442 0020 00000000 		.quad	0
 4442      00000000 
 4443 0028 70FFFFFF 		.quad	-144
 4443      FFFFFFFF 
 4444 0030 70FFFFFF 		.quad	-144
 4444      FFFFFFFF 
 4445 0038 00000000 		.quad	_ZTINSt7__cxx1119basic_ostringstreamIcSt11char_traitsIcESaIcEEE
 4445      00000000 
 4446 0040 00000000 		.quad	0
 4446      00000000 
 4447 0048 00000000 		.quad	0
 4447      00000000 
 4448              		.hidden	_ZTCN8UnitTest15MemoryOutStreamE0_So
 4449              		.weak	_ZTCN8UnitTest15MemoryOutStreamE0_So
 4450              		.section	.data.rel.ro._ZTCN8UnitTest15MemoryOutStreamE0_So,"awG",@progbits,_ZTVN8UnitTest15MemoryO
 4451              		.align 8
 4454              	_ZTCN8UnitTest15MemoryOutStreamE0_So:
 4455 0000 90000000 		.quad	144
 4455      00000000 
 4456 0008 00000000 		.quad	0
 4456      00000000 
 4457 0010 00000000 		.quad	_ZTISo
 4457      00000000 
 4458 0018 00000000 		.quad	0
 4458      00000000 
 4459 0020 00000000 		.quad	0
 4459      00000000 
 4460 0028 70FFFFFF 		.quad	-144
 4460      FFFFFFFF 
 4461 0030 70FFFFFF 		.quad	-144
 4461      FFFFFFFF 
 4462 0038 00000000 		.quad	_ZTISo
 4462      00000000 
 4463 0040 00000000 		.quad	0
 4463      00000000 
 4464 0048 00000000 		.quad	0
 4464      00000000 
 4465              		.section	.rodata
 4466 034d 00000000 		.align 32
 4466      00000000 
 4466      00000000 
 4466      00000000 
 4466      000000
 4469              	_ZTSN12_GLOBAL__N_136TestOutOfCoreCHECKMacrosCanFailTestsE:
 4470 0360 2A4E3132 		.string	"*N12_GLOBAL__N_136TestOutOfCoreCHECKMacrosCanFailTestsE"
 4470      5F474C4F 
 4470      42414C5F 
 4470      5F4E5F31 
 4470      33365465 
 4471              		.section	.data.rel.ro,"aw"
 4472              		.align 8
 4475              	_ZTIN12_GLOBAL__N_136TestOutOfCoreCHECKMacrosCanFailTestsE:
 4476 0000 00000000 		.quad	_ZTVN10__cxxabiv120__si_class_type_infoE+16
 4476      00000000 
 4477 0008 00000000 		.quad	_ZTSN12_GLOBAL__N_136TestOutOfCoreCHECKMacrosCanFailTestsE
 4477      00000000 
 4478 0010 00000000 		.quad	_ZTIN8UnitTest4TestE
 4478      00000000 
 4479              		.section	.rodata
 4480 0398 00000000 		.align 32
 4480      00000000 
 4483              	_ZTSN12_GLOBAL__N_134TestTestReflectsSpecifiedSuiteNameE:
 4484 03a0 2A4E3132 		.string	"*N12_GLOBAL__N_134TestTestReflectsSpecifiedSuiteNameE"
 4484      5F474C4F 
 4484      42414C5F 
 4484      5F4E5F31 
 4484      33345465 
 4485              		.section	.data.rel.ro
 4486              		.align 8
 4489              	_ZTIN12_GLOBAL__N_134TestTestReflectsSpecifiedSuiteNameE:
 4490 0018 00000000 		.quad	_ZTVN10__cxxabiv120__si_class_type_infoE+16
 4490      00000000 
 4491 0020 00000000 		.quad	_ZTSN12_GLOBAL__N_134TestTestReflectsSpecifiedSuiteNameE
 4491      00000000 
 4492 0028 00000000 		.quad	_ZTIN8UnitTest4TestE
 4492      00000000 
 4493              		.section	.rodata
 4494 03d6 00000000 		.align 32
 4494      00000000 
 4494      0000
 4497              	_ZTSN12_GLOBAL__N_144TestTestWithUnspecifiedSuiteGetsDefaultSuiteE:
 4498 03e0 2A4E3132 		.string	"*N12_GLOBAL__N_144TestTestWithUnspecifiedSuiteGetsDefaultSuiteE"
 4498      5F474C4F 
 4498      42414C5F 
 4498      5F4E5F31 
 4498      34345465 
 4499              		.section	.data.rel.ro
 4500              		.align 8
 4503              	_ZTIN12_GLOBAL__N_144TestTestWithUnspecifiedSuiteGetsDefaultSuiteE:
 4504 0030 00000000 		.quad	_ZTVN10__cxxabiv120__si_class_type_infoE+16
 4504      00000000 
 4505 0038 00000000 		.quad	_ZTSN12_GLOBAL__N_144TestTestWithUnspecifiedSuiteGetsDefaultSuiteE
 4505      00000000 
 4506 0040 00000000 		.quad	_ZTIN8UnitTest4TestE
 4506      00000000 
 4507              		.section	.rodata
 4508              		.align 32
 4511              	_ZTSZNK12_GLOBAL__N_138TestCrashingTestsAreReportedAsFailures7RunImplEvE12CrashingTest:
 4512 0420 2A5A4E4B 		.string	"*ZNK12_GLOBAL__N_138TestCrashingTestsAreReportedAsFailures7RunImplEvE12CrashingTest"
 4512      31325F47 
 4512      4C4F4241 
 4512      4C5F5F4E 
 4512      5F313338 
 4513              		.section	.data.rel.ro
 4514              		.align 8
 4517              	_ZTIZNK12_GLOBAL__N_138TestCrashingTestsAreReportedAsFailures7RunImplEvE12CrashingTest:
 4518 0048 00000000 		.quad	_ZTVN10__cxxabiv120__si_class_type_infoE+16
 4518      00000000 
 4519 0050 00000000 		.quad	_ZTSZNK12_GLOBAL__N_138TestCrashingTestsAreReportedAsFailures7RunImplEvE12CrashingTest
 4519      00000000 
 4520 0058 00000000 		.quad	_ZTIN8UnitTest4TestE
 4520      00000000 
 4521              		.section	.rodata
 4522 0474 00000000 		.align 32
 4522      00000000 
 4522      00000000 
 4525              	_ZTSN12_GLOBAL__N_138TestCrashingTestsAreReportedAsFailuresE:
 4526 0480 2A4E3132 		.string	"*N12_GLOBAL__N_138TestCrashingTestsAreReportedAsFailuresE"
 4526      5F474C4F 
 4526      42414C5F 
 4526      5F4E5F31 
 4526      33385465 
 4527              		.section	.data.rel.ro
 4528              		.align 8
 4531              	_ZTIN12_GLOBAL__N_138TestCrashingTestsAreReportedAsFailuresE:
 4532 0060 00000000 		.quad	_ZTVN10__cxxabiv120__si_class_type_infoE+16
 4532      00000000 
 4533 0068 00000000 		.quad	_ZTSN12_GLOBAL__N_138TestCrashingTestsAreReportedAsFailuresE
 4533      00000000 
 4534 0070 00000000 		.quad	_ZTIN8UnitTest4TestE
 4534      00000000 
 4535              		.section	.rodata
 4536 04ba 00000000 		.align 32
 4536      0000
 4539              	_ZTSZNK12_GLOBAL__N_138TestThrowingTestsAreReportedAsFailures7RunImplEvE12CrashingTest:
 4540 04c0 2A5A4E4B 		.string	"*ZNK12_GLOBAL__N_138TestThrowingTestsAreReportedAsFailures7RunImplEvE12CrashingTest"
 4540      31325F47 
 4540      4C4F4241 
 4540      4C5F5F4E 
 4540      5F313338 
 4541              		.section	.data.rel.ro
 4542              		.align 8
 4545              	_ZTIZNK12_GLOBAL__N_138TestThrowingTestsAreReportedAsFailures7RunImplEvE12CrashingTest:
 4546 0078 00000000 		.quad	_ZTVN10__cxxabiv120__si_class_type_infoE+16
 4546      00000000 
 4547 0080 00000000 		.quad	_ZTSZNK12_GLOBAL__N_138TestThrowingTestsAreReportedAsFailures7RunImplEvE12CrashingTest
 4547      00000000 
 4548 0088 00000000 		.quad	_ZTIN8UnitTest4TestE
 4548      00000000 
 4549              		.section	.rodata
 4550 0514 00000000 		.align 32
 4550      00000000 
 4550      00000000 
 4553              	_ZTSN12_GLOBAL__N_138TestThrowingTestsAreReportedAsFailuresE:
 4554 0520 2A4E3132 		.string	"*N12_GLOBAL__N_138TestThrowingTestsAreReportedAsFailuresE"
 4554      5F474C4F 
 4554      42414C5F 
 4554      5F4E5F31 
 4554      33385465 
 4555              		.section	.data.rel.ro
 4556              		.align 8
 4559              	_ZTIN12_GLOBAL__N_138TestThrowingTestsAreReportedAsFailuresE:
 4560 0090 00000000 		.quad	_ZTVN10__cxxabiv120__si_class_type_infoE+16
 4560      00000000 
 4561 0098 00000000 		.quad	_ZTSN12_GLOBAL__N_138TestThrowingTestsAreReportedAsFailuresE
 4561      00000000 
 4562 00a0 00000000 		.quad	_ZTIN8UnitTest4TestE
 4562      00000000 
 4563              		.section	.rodata
 4564 055a 00000000 		.align 32
 4564      0000
 4567              	_ZTSZNK12_GLOBAL__N_126TestFailingTestHasFailures7RunImplEvE11FailingTest:
 4568 0560 2A5A4E4B 		.string	"*ZNK12_GLOBAL__N_126TestFailingTestHasFailures7RunImplEvE11FailingTest"
 4568      31325F47 
 4568      4C4F4241 
 4568      4C5F5F4E 
 4568      5F313236 
 4569              		.section	.data.rel.ro
 4570              		.align 8
 4573              	_ZTIZNK12_GLOBAL__N_126TestFailingTestHasFailures7RunImplEvE11FailingTest:
 4574 00a8 00000000 		.quad	_ZTVN10__cxxabiv120__si_class_type_infoE+16
 4574      00000000 
 4575 00b0 00000000 		.quad	_ZTSZNK12_GLOBAL__N_126TestFailingTestHasFailures7RunImplEvE11FailingTest
 4575      00000000 
 4576 00b8 00000000 		.quad	_ZTIN8UnitTest4TestE
 4576      00000000 
 4577              		.section	.rodata
 4578 05a7 00000000 		.align 32
 4578      00000000 
 4578      00000000 
 4578      00000000 
 4578      00000000 
 4581              	_ZTSN12_GLOBAL__N_126TestFailingTestHasFailuresE:
 4582 05c0 2A4E3132 		.string	"*N12_GLOBAL__N_126TestFailingTestHasFailuresE"
 4582      5F474C4F 
 4582      42414C5F 
 4582      5F4E5F31 
 4582      32365465 
 4583              		.section	.data.rel.ro
 4584              		.align 8
 4587              	_ZTIN12_GLOBAL__N_126TestFailingTestHasFailuresE:
 4588 00c0 00000000 		.quad	_ZTVN10__cxxabiv120__si_class_type_infoE+16
 4588      00000000 
 4589 00c8 00000000 		.quad	_ZTSN12_GLOBAL__N_126TestFailingTestHasFailuresE
 4589      00000000 
 4590 00d0 00000000 		.quad	_ZTIN8UnitTest4TestE
 4590      00000000 
 4591              		.section	.rodata
 4592 05ee 00000000 		.align 32
 4592      00000000 
 4592      00000000 
 4592      00000000 
 4592      0000
 4595              	_ZTSZNK12_GLOBAL__N_128TestPassingTestHasNoFailures7RunImplEvE11PassingTest:
 4596 0600 2A5A4E4B 		.string	"*ZNK12_GLOBAL__N_128TestPassingTestHasNoFailures7RunImplEvE11PassingTest"
 4596      31325F47 
 4596      4C4F4241 
 4596      4C5F5F4E 
 4596      5F313238 
 4597              		.section	.data.rel.ro
 4598              		.align 8
 4601              	_ZTIZNK12_GLOBAL__N_128TestPassingTestHasNoFailures7RunImplEvE11PassingTest:
 4602 00d8 00000000 		.quad	_ZTVN10__cxxabiv120__si_class_type_infoE+16
 4602      00000000 
 4603 00e0 00000000 		.quad	_ZTSZNK12_GLOBAL__N_128TestPassingTestHasNoFailures7RunImplEvE11PassingTest
 4603      00000000 
 4604 00e8 00000000 		.quad	_ZTIN8UnitTest4TestE
 4604      00000000 
 4605              		.section	.rodata
 4606 0649 00000000 		.align 32
 4606      00000000 
 4606      00000000 
 4606      00000000 
 4606      00000000 
 4609              	_ZTSN12_GLOBAL__N_128TestPassingTestHasNoFailuresE:
 4610 0660 2A4E3132 		.string	"*N12_GLOBAL__N_128TestPassingTestHasNoFailuresE"
 4610      5F474C4F 
 4610      42414C5F 
 4610      5F4E5F31 
 4610      32385465 
 4611              		.section	.data.rel.ro
 4612              		.align 8
 4615              	_ZTIN12_GLOBAL__N_128TestPassingTestHasNoFailuresE:
 4616 00f0 00000000 		.quad	_ZTVN10__cxxabiv120__si_class_type_infoE+16
 4616      00000000 
 4617 00f8 00000000 		.quad	_ZTSN12_GLOBAL__N_128TestPassingTestHasNoFailuresE
 4617      00000000 
 4618 0100 00000000 		.quad	_ZTIN8UnitTest4TestE
 4618      00000000 
 4619              		.weak	_ZTIN8UnitTest15MemoryOutStreamE
 4620              		.section	.data.rel.ro._ZTIN8UnitTest15MemoryOutStreamE,"awG",@progbits,_ZTIN8UnitTest15MemoryOutSt
 4621              		.align 8
 4624              	_ZTIN8UnitTest15MemoryOutStreamE:
 4625 0000 00000000 		.quad	_ZTVN10__cxxabiv120__si_class_type_infoE+16
 4625      00000000 
 4626 0008 00000000 		.quad	_ZTSN8UnitTest15MemoryOutStreamE
 4626      00000000 
 4627 0010 00000000 		.quad	_ZTINSt7__cxx1119basic_ostringstreamIcSt11char_traitsIcESaIcEEE
 4627      00000000 
 4628              		.weak	_ZTSN8UnitTest15MemoryOutStreamE
 4629              		.section	.rodata._ZTSN8UnitTest15MemoryOutStreamE,"aG",@progbits,_ZTSN8UnitTest15MemoryOutStreamE,
 4630              		.align 16
 4633              	_ZTSN8UnitTest15MemoryOutStreamE:
 4634 0000 4E38556E 		.string	"N8UnitTest15MemoryOutStreamE"
 4634      69745465 
 4634      73743135 
 4634      4D656D6F 
 4634      72794F75 
 4635              		.text
 4637              	_Z41__static_initialization_and_destruction_0ii:
 4638              	.LFB1324:
 131:TestTest.cpp  **** 
 132:TestTest.cpp  **** }
 4639              		.loc 4 132 1 is_stmt 1
 4640              		.cfi_startproc
 4641 1729 F30F1EFA 		endbr64
 4642 172d 55       		pushq	%rbp
 4643              		.cfi_def_cfa_offset 16
 4644              		.cfi_offset 6, -16
 4645 172e 4889E5   		movq	%rsp, %rbp
 4646              		.cfi_def_cfa_register 6
 4647 1731 4883EC10 		subq	$16, %rsp
 4648 1735 897DFC   		movl	%edi, -4(%rbp)
 4649 1738 8975F8   		movl	%esi, -8(%rbp)
 4650              		.loc 4 132 1
 4651 173b 837DFC01 		cmpl	$1, -4(%rbp)
 4652 173f 0F856702 		jne	.L208
 4652      0000
 4653              		.loc 4 132 1 is_stmt 0 discriminator 1
 4654 1745 817DF8FF 		cmpl	$65535, -8(%rbp)
 4654      FF0000
 4655 174c 0F855A02 		jne	.L208
 4655      0000
  10:TestTest.cpp  **** {
 4656              		.loc 4 10 1 is_stmt 1
 4657 1752 488D0500 		leaq	_ZN12_GLOBAL__N_136testPassingTestHasNoFailuresInstanceE(%rip), %rax
 4657      000000
 4658 1759 4889C7   		movq	%rax, %rdi
 4659 175c E89FE8FF 		call	_ZN12_GLOBAL__N_128TestPassingTestHasNoFailuresC1Ev
 4659      FF
 4660 1761 488D0500 		leaq	__dso_handle(%rip), %rax
 4660      000000
 4661 1768 4889C2   		movq	%rax, %rdx
 4662 176b 488D0500 		leaq	_ZN12_GLOBAL__N_136testPassingTestHasNoFailuresInstanceE(%rip), %rax
 4662      000000
 4663 1772 4889C6   		movq	%rax, %rsi
 4664 1775 488D05B2 		leaq	_ZN12_GLOBAL__N_128TestPassingTestHasNoFailuresD1Ev(%rip), %rax
 4664      FEFFFF
 4665 177c 4889C7   		movq	%rax, %rdi
 4666 177f E8000000 		call	__cxa_atexit@PLT
 4666      00
 4667 1784 E8000000 		call	_ZN8UnitTest4Test11GetTestListEv@PLT
 4667      00
 4668 1789 4889C1   		movq	%rax, %rcx
 4669 178c 488D0500 		leaq	_ZN12_GLOBAL__N_136testPassingTestHasNoFailuresInstanceE(%rip), %rax
 4669      000000
 4670 1793 4889C2   		movq	%rax, %rdx
 4671 1796 4889CE   		movq	%rcx, %rsi
 4672 1799 488D0500 		leaq	_ZN12_GLOBAL__N_129adderPassingTestHasNoFailuresE(%rip), %rax
 4672      000000
 4673 17a0 4889C7   		movq	%rax, %rdi
 4674 17a3 E8000000 		call	_ZN8UnitTest9ListAdderC1ERNS_8TestListEPNS_4TestE@PLT
 4674      00
  32:TestTest.cpp  **** {
 4675              		.loc 4 32 1
 4676 17a8 488D0500 		leaq	_ZN12_GLOBAL__N_134testFailingTestHasFailuresInstanceE(%rip), %rax
 4676      000000
 4677 17af 4889C7   		movq	%rax, %rdi
 4678 17b2 E85BEBFF 		call	_ZN12_GLOBAL__N_126TestFailingTestHasFailuresC1Ev
 4678      FF
 4679 17b7 488D0500 		leaq	__dso_handle(%rip), %rax
 4679      000000
 4680 17be 4889C2   		movq	%rax, %rdx
 4681 17c1 488D0500 		leaq	_ZN12_GLOBAL__N_134testFailingTestHasFailuresInstanceE(%rip), %rax
 4681      000000
 4682 17c8 4889C6   		movq	%rax, %rsi
 4683 17cb 488D0560 		leaq	_ZN12_GLOBAL__N_126TestFailingTestHasFailuresD1Ev(%rip), %rax
 4683      FDFFFF
 4684 17d2 4889C7   		movq	%rax, %rdi
 4685 17d5 E8000000 		call	__cxa_atexit@PLT
 4685      00
 4686 17da E8000000 		call	_ZN8UnitTest4Test11GetTestListEv@PLT
 4686      00
 4687 17df 4889C1   		movq	%rax, %rcx
 4688 17e2 488D0500 		leaq	_ZN12_GLOBAL__N_134testFailingTestHasFailuresInstanceE(%rip), %rax
 4688      000000
 4689 17e9 4889C2   		movq	%rax, %rdx
 4690 17ec 4889CE   		movq	%rcx, %rsi
 4691 17ef 488D0500 		leaq	_ZN12_GLOBAL__N_127adderFailingTestHasFailuresE(%rip), %rax
 4691      000000
 4692 17f6 4889C7   		movq	%rax, %rdi
 4693 17f9 E8000000 		call	_ZN8UnitTest9ListAdderC1ERNS_8TestListEPNS_4TestE@PLT
 4693      00
  54:TestTest.cpp  **** {
 4694              		.loc 4 54 1
 4695 17fe 488D0500 		leaq	_ZN12_GLOBAL__N_146testThrowingTestsAreReportedAsFailuresInstanceE(%rip), %rax
 4695      000000
 4696 1805 4889C7   		movq	%rax, %rdi
 4697 1808 E817EEFF 		call	_ZN12_GLOBAL__N_138TestThrowingTestsAreReportedAsFailuresC1Ev
 4697      FF
 4698 180d 488D0500 		leaq	__dso_handle(%rip), %rax
 4698      000000
 4699 1814 4889C2   		movq	%rax, %rdx
 4700 1817 488D0500 		leaq	_ZN12_GLOBAL__N_146testThrowingTestsAreReportedAsFailuresInstanceE(%rip), %rax
 4700      000000
 4701 181e 4889C6   		movq	%rax, %rsi
 4702 1821 488D050E 		leaq	_ZN12_GLOBAL__N_138TestThrowingTestsAreReportedAsFailuresD1Ev(%rip), %rax
 4702      FCFFFF
 4703 1828 4889C7   		movq	%rax, %rdi
 4704 182b E8000000 		call	__cxa_atexit@PLT
 4704      00
 4705 1830 E8000000 		call	_ZN8UnitTest4Test11GetTestListEv@PLT
 4705      00
 4706 1835 4889C1   		movq	%rax, %rcx
 4707 1838 488D0500 		leaq	_ZN12_GLOBAL__N_146testThrowingTestsAreReportedAsFailuresInstanceE(%rip), %rax
 4707      000000
 4708 183f 4889C2   		movq	%rax, %rdx
 4709 1842 4889CE   		movq	%rcx, %rsi
 4710 1845 488D0500 		leaq	_ZN12_GLOBAL__N_139adderThrowingTestsAreReportedAsFailuresE(%rip), %rax
 4710      000000
 4711 184c 4889C7   		movq	%rax, %rdi
 4712 184f E8000000 		call	_ZN8UnitTest9ListAdderC1ERNS_8TestListEPNS_4TestE@PLT
 4712      00
  77:TestTest.cpp  **** {
 4713              		.loc 4 77 1
 4714 1854 488D0500 		leaq	_ZN12_GLOBAL__N_146testCrashingTestsAreReportedAsFailuresInstanceE(%rip), %rax
 4714      000000
 4715 185b 4889C7   		movq	%rax, %rdi
 4716 185e E81FF0FF 		call	_ZN12_GLOBAL__N_138TestCrashingTestsAreReportedAsFailuresC1Ev
 4716      FF
 4717 1863 488D0500 		leaq	__dso_handle(%rip), %rax
 4717      000000
 4718 186a 4889C2   		movq	%rax, %rdx
 4719 186d 488D0500 		leaq	_ZN12_GLOBAL__N_146testCrashingTestsAreReportedAsFailuresInstanceE(%rip), %rax
 4719      000000
 4720 1874 4889C6   		movq	%rax, %rsi
 4721 1877 488D05BC 		leaq	_ZN12_GLOBAL__N_138TestCrashingTestsAreReportedAsFailuresD1Ev(%rip), %rax
 4721      FAFFFF
 4722 187e 4889C7   		movq	%rax, %rdi
 4723 1881 E8000000 		call	__cxa_atexit@PLT
 4723      00
 4724 1886 E8000000 		call	_ZN8UnitTest4Test11GetTestListEv@PLT
 4724      00
 4725 188b 4889C1   		movq	%rax, %rcx
 4726 188e 488D0500 		leaq	_ZN12_GLOBAL__N_146testCrashingTestsAreReportedAsFailuresInstanceE(%rip), %rax
 4726      000000
 4727 1895 4889C2   		movq	%rax, %rdx
 4728 1898 4889CE   		movq	%rcx, %rsi
 4729 189b 488D0500 		leaq	_ZN12_GLOBAL__N_139adderCrashingTestsAreReportedAsFailuresE(%rip), %rax
 4729      000000
 4730 18a2 4889C7   		movq	%rax, %rdi
 4731 18a5 E8000000 		call	_ZN8UnitTest9ListAdderC1ERNS_8TestListEPNS_4TestE@PLT
 4731      00
 102:TestTest.cpp  **** {
 4732              		.loc 4 102 1
 4733 18aa 488D0500 		leaq	_ZN12_GLOBAL__N_152testTestWithUnspecifiedSuiteGetsDefaultSuiteInstanceE(%rip), %rax
 4733      000000
 4734 18b1 4889C7   		movq	%rax, %rdi
 4735 18b4 E80DF2FF 		call	_ZN12_GLOBAL__N_144TestTestWithUnspecifiedSuiteGetsDefaultSuiteC1Ev
 4735      FF
 4736 18b9 488D0500 		leaq	__dso_handle(%rip), %rax
 4736      000000
 4737 18c0 4889C2   		movq	%rax, %rdx
 4738 18c3 488D0500 		leaq	_ZN12_GLOBAL__N_152testTestWithUnspecifiedSuiteGetsDefaultSuiteInstanceE(%rip), %rax
 4738      000000
 4739 18ca 4889C6   		movq	%rax, %rsi
 4740 18cd 488D05E8 		leaq	_ZN12_GLOBAL__N_144TestTestWithUnspecifiedSuiteGetsDefaultSuiteD1Ev(%rip), %rax
 4740      F9FFFF
 4741 18d4 4889C7   		movq	%rax, %rdi
 4742 18d7 E8000000 		call	__cxa_atexit@PLT
 4742      00
 4743 18dc E8000000 		call	_ZN8UnitTest4Test11GetTestListEv@PLT
 4743      00
 4744 18e1 4889C1   		movq	%rax, %rcx
 4745 18e4 488D0500 		leaq	_ZN12_GLOBAL__N_152testTestWithUnspecifiedSuiteGetsDefaultSuiteInstanceE(%rip), %rax
 4745      000000
 4746 18eb 4889C2   		movq	%rax, %rdx
 4747 18ee 4889CE   		movq	%rcx, %rsi
 4748 18f1 488D0500 		leaq	_ZN12_GLOBAL__N_145adderTestWithUnspecifiedSuiteGetsDefaultSuiteE(%rip), %rax
 4748      000000
 4749 18f8 4889C7   		movq	%rax, %rdi
 4750 18fb E8000000 		call	_ZN8UnitTest9ListAdderC1ERNS_8TestListEPNS_4TestE@PLT
 4750      00
 109:TestTest.cpp  **** {
 4751              		.loc 4 109 1
 4752 1900 488D0500 		leaq	_ZN12_GLOBAL__N_142testTestReflectsSpecifiedSuiteNameInstanceE(%rip), %rax
 4752      000000
 4753 1907 4889C7   		movq	%rax, %rdi
 4754 190a E8F1F3FF 		call	_ZN12_GLOBAL__N_134TestTestReflectsSpecifiedSuiteNameC1Ev
 4754      FF
 4755 190f 488D0500 		leaq	__dso_handle(%rip), %rax
 4755      000000
 4756 1916 4889C2   		movq	%rax, %rdx
 4757 1919 488D0500 		leaq	_ZN12_GLOBAL__N_142testTestReflectsSpecifiedSuiteNameInstanceE(%rip), %rax
 4757      000000
 4758 1920 4889C6   		movq	%rax, %rsi
 4759 1923 488D0514 		leaq	_ZN12_GLOBAL__N_134TestTestReflectsSpecifiedSuiteNameD1Ev(%rip), %rax
 4759      F9FFFF
 4760 192a 4889C7   		movq	%rax, %rdi
 4761 192d E8000000 		call	__cxa_atexit@PLT
 4761      00
 4762 1932 E8000000 		call	_ZN8UnitTest4Test11GetTestListEv@PLT
 4762      00
 4763 1937 4889C1   		movq	%rax, %rcx
 4764 193a 488D0500 		leaq	_ZN12_GLOBAL__N_142testTestReflectsSpecifiedSuiteNameInstanceE(%rip), %rax
 4764      000000
 4765 1941 4889C2   		movq	%rax, %rdx
 4766 1944 4889CE   		movq	%rcx, %rsi
 4767 1947 488D0500 		leaq	_ZN12_GLOBAL__N_135adderTestReflectsSpecifiedSuiteNameE(%rip), %rax
 4767      000000
 4768 194e 4889C7   		movq	%rax, %rdi
 4769 1951 E8000000 		call	_ZN8UnitTest9ListAdderC1ERNS_8TestListEPNS_4TestE@PLT
 4769      00
 121:TestTest.cpp  **** {
 4770              		.loc 4 121 1
 4771 1956 488D0500 		leaq	_ZN12_GLOBAL__N_144testOutOfCoreCHECKMacrosCanFailTestsInstanceE(%rip), %rax
 4771      000000
 4772 195d 4889C7   		movq	%rax, %rdi
 4773 1960 E8C1F6FF 		call	_ZN12_GLOBAL__N_136TestOutOfCoreCHECKMacrosCanFailTestsC1Ev
 4773      FF
 4774 1965 488D0500 		leaq	__dso_handle(%rip), %rax
 4774      000000
 4775 196c 4889C2   		movq	%rax, %rdx
 4776 196f 488D0500 		leaq	_ZN12_GLOBAL__N_144testOutOfCoreCHECKMacrosCanFailTestsInstanceE(%rip), %rax
 4776      000000
 4777 1976 4889C6   		movq	%rax, %rsi
 4778 1979 488D0540 		leaq	_ZN12_GLOBAL__N_136TestOutOfCoreCHECKMacrosCanFailTestsD1Ev(%rip), %rax
 4778      F8FFFF
 4779 1980 4889C7   		movq	%rax, %rdi
 4780 1983 E8000000 		call	__cxa_atexit@PLT
 4780      00
 4781 1988 E8000000 		call	_ZN8UnitTest4Test11GetTestListEv@PLT
 4781      00
 4782 198d 4889C1   		movq	%rax, %rcx
 4783 1990 488D0500 		leaq	_ZN12_GLOBAL__N_144testOutOfCoreCHECKMacrosCanFailTestsInstanceE(%rip), %rax
 4783      000000
 4784 1997 4889C2   		movq	%rax, %rdx
 4785 199a 4889CE   		movq	%rcx, %rsi
 4786 199d 488D0500 		leaq	_ZN12_GLOBAL__N_137adderOutOfCoreCHECKMacrosCanFailTestsE(%rip), %rax
 4786      000000
 4787 19a4 4889C7   		movq	%rax, %rdi
 4788 19a7 E8000000 		call	_ZN8UnitTest9ListAdderC1ERNS_8TestListEPNS_4TestE@PLT
 4788      00
 4789              	.L208:
 4790              		.loc 4 132 1
 4791 19ac 90       		nop
 4792 19ad C9       		leave
 4793              		.cfi_def_cfa 7, 8
 4794 19ae C3       		ret
 4795              		.cfi_endproc
 4796              	.LFE1324:
 4799              	_GLOBAL__sub_I_TestTest.cpp:
 4800              	.LFB1325:
 4801              		.loc 4 132 1
 4802              		.cfi_startproc
 4803 19af F30F1EFA 		endbr64
 4804 19b3 55       		pushq	%rbp
 4805              		.cfi_def_cfa_offset 16
 4806              		.cfi_offset 6, -16
 4807 19b4 4889E5   		movq	%rsp, %rbp
 4808              		.cfi_def_cfa_register 6
 4809              		.loc 4 132 1
 4810 19b7 BEFFFF00 		movl	$65535, %esi
 4810      00
 4811 19bc BF010000 		movl	$1, %edi
 4811      00
 4812 19c1 E863FDFF 		call	_Z41__static_initialization_and_destruction_0ii
 4812      FF
 4813 19c6 5D       		popq	%rbp
 4814              		.cfi_def_cfa 7, 8
 4815 19c7 C3       		ret
 4816              		.cfi_endproc
 4817              	.LFE1325:
 4819              		.section	.init_array,"aw"
 4820              		.align 8
 4821 0000 00000000 		.quad	_GLOBAL__sub_I_TestTest.cpp
 4821      00000000 
 4822              		.text
 4823              	.Letext0:
 4824              		.file 6 "../TestDetails.h"
 4825              		.file 7 "../TestList.h"
 4826              		.file 8 "../TestResults.h"
 4827              		.file 9 "../Test.h"
 4828              		.file 10 "../CurrentTest.h"
 4829              		.file 11 "<built-in>"
 4830              		.file 12 "/usr/lib/gcc/x86_64-linux-gnu/11/include/stddef.h"
 4831              		.file 13 "/usr/include/x86_64-linux-gnu/bits/types/wint_t.h"
 4832              		.file 14 "/usr/include/x86_64-linux-gnu/bits/types/__mbstate_t.h"
 4833              		.file 15 "/usr/include/x86_64-linux-gnu/bits/types/mbstate_t.h"
 4834              		.file 16 "/usr/include/x86_64-linux-gnu/bits/types/__FILE.h"
 4835              		.file 17 "/usr/include/c++/11/cwchar"
 4836              		.file 18 "/usr/include/c++/11/bits/char_traits.h"
 4837              		.file 19 "/usr/include/x86_64-linux-gnu/c++/11/bits/c++config.h"
 4838              		.file 20 "/usr/include/c++/11/clocale"
 4839              		.file 21 "/usr/include/c++/11/bits/allocator.h"
 4840              		.file 22 "/usr/include/c++/11/bits/basic_string.h"
 4841              		.file 23 "/usr/include/c++/11/bits/basic_string.tcc"
 4842              		.file 24 "/usr/include/c++/11/sstream"
 4843              		.file 25 "/usr/include/c++/11/bits/stringfwd.h"
 4844              		.file 26 "/usr/include/c++/11/cwctype"
 4845              		.file 27 "/usr/include/c++/11/bits/ostream.tcc"
 4846              		.file 28 "/usr/include/c++/11/ostream"
 4847              		.file 29 "/usr/include/c++/11/bits/basic_ios.h"
 4848              		.file 30 "/usr/include/wchar.h"
 4849              		.file 31 "/usr/include/x86_64-linux-gnu/bits/types/struct_tm.h"
 4850              		.file 32 "/usr/include/c++/11/debug/debug.h"
 4851              		.file 33 "/usr/include/c++/11/bits/predefined_ops.h"
 4852              		.file 34 "/usr/include/c++/11/ext/new_allocator.h"
 4853              		.file 35 "/usr/include/c++/11/ext/alloc_traits.h"
 4854              		.file 36 "/usr/include/locale.h"
 4855              		.file 37 "/usr/include/x86_64-linux-gnu/bits/types.h"
 4856              		.file 38 "/usr/include/x86_64-linux-gnu/bits/wctype-wchar.h"
 4857              		.file 39 "/usr/include/wctype.h"
 4858              		.file 40 "/usr/include/c++/11/new"
 16686              		.align 8
 16689              	DW.ref.__gxx_personality_v0:
 16690 0000 00000000 		.quad	__gxx_personality_v0
 16690      00000000 
 16691              		.hidden	__dso_handle
 16692              		.ident	"GCC: (Ubuntu 11.3.0-1ubuntu1~22.04) 11.3.0"
 16693              		.section	.note.GNU-stack,"",@progbits
 16694              		.section	.note.gnu.property,"a"
 16695              		.align 8
 16696 0000 04000000 		.long	1f - 0f
 16697 0004 10000000 		.long	4f - 1f
 16698 0008 05000000 		.long	5
 16699              	0:
 16700 000c 474E5500 		.string	"GNU"
 16701              	1:
 16702              		.align 8
 16703 0010 020000C0 		.long	0xc0000002
 16704 0014 04000000 		.long	3f - 2f
 16705              	2:
 16706 0018 03000000 		.long	0x3
 16707              	3:
 16708 001c 00000000 		.align 8
 16709              	4: