   1              		.file	"TestTestMacros.cpp"
   2              		.text
   3              		.section	.text._ZN17RecordingReporter13ReportSummaryEiiif,"axG",@progbits,_ZN17RecordingReporter13
   4              		.align 2
   5              		.p2align 4
   6              		.weak	_ZN17RecordingReporter13ReportSummaryEiiif
   8              	_ZN17RecordingReporter13ReportSummaryEiiif:
   9              	.LFB1217:
  10              		.cfi_startproc
  11 0000 F30F1EFA 		endbr64
  12 0004 660F6ECE 		movd	%esi, %xmm1
  13 0008 660F6ED2 		movd	%edx, %xmm2
  14 000c 898F2408 		movl	%ecx, 2084(%rdi)
  14      0000
  15 0012 660F62CA 		punpckldq	%xmm2, %xmm1
  16 0016 F30F1187 		movss	%xmm0, 2088(%rdi)
  16      28080000 
  17 001e 660FD68F 		movq	%xmm1, 2076(%rdi)
  17      1C080000 
  18 0026 C3       		ret
  19              		.cfi_endproc
  20              	.LFE1217:
  22              		.text
  23              		.align 2
  24              		.p2align 4
  26              	_ZNK12_GLOBAL__N_113TestDummyTest7RunImplEv:
  27              	.LFB1230:
  28              		.cfi_startproc
  29 0000 F30F1EFA 		endbr64
  30 0004 C3       		ret
  31              		.cfi_endproc
  32              	.LFE1230:
  34              		.globl	_ZNK18SuiteSameTestSuite14TestDummyTest17RunImplEv
  35              		.set	_ZNK18SuiteSameTestSuite14TestDummyTest17RunImplEv,_ZNK12_GLOBAL__N_113TestDummyTest7RunImplE
  36              		.set	_ZNK12_GLOBAL__N_120TestMacroTestHelper17RunImplEv,_ZNK12_GLOBAL__N_113TestDummyTest7RunImplE
  37              		.set	_ZNK12_GLOBAL__N_115SuiteTestSuite244TestSimilarlyNamedTestsInDifferentSuitesWork7RunImplEv,_
  38              		.set	_ZNK12_GLOBAL__N_115SuiteTestSuite144TestSimilarlyNamedTestsInDifferentSuitesWork7RunImplEv,_
  39              		.section	.rodata.str1.8,"aMS",@progbits,1
  40              		.align 8
  41              	.LC0:
  42 0000 43757272 		.string	"CurrentTestDetailsContainCurrentTestInfo"
  42      656E7454 
  42      65737444 
  42      65746169 
  42      6C73436F 
  43 0029 00000000 		.align 8
  43      000000
  44              	.LC1:
  45 0030 556E6861 		.string	"Unhandled exception in CHECK_EQUAL(STRINGIFY(CUR_TEST_NAME), details->testName)"
  45      6E646C65 
  45      64206578 
  45      63657074 
  45      696F6E20 
  46              		.section	.text.unlikely,"ax",@progbits
  47              		.align 2
  48              	.LCOLDB2:
  49              		.text
  50              	.LHOTB2:
  51 0005 90       		.align 2
  52 0006 662E0F1F 		.p2align 4
  52      84000000 
  52      0000
  53              		.globl	_ZNK44TestCurrentTestDetailsContainCurrentTestInfo7RunImplEv
  55              	_ZNK44TestCurrentTestDetailsContainCurrentTestInfo7RunImplEv:
  56              	.LFB1352:
  57              		.cfi_startproc
  58              		.cfi_personality 0x9b,DW.ref.__gxx_personality_v0
  59              		.cfi_lsda 0x1b,.LLSDA1352
  60 0010 F30F1EFA 		endbr64
  61 0014 4155     		pushq	%r13
  62              		.cfi_def_cfa_offset 16
  63              		.cfi_offset 13, -16
  64 0016 4154     		pushq	%r12
  65              		.cfi_def_cfa_offset 24
  66              		.cfi_offset 12, -24
  67 0018 4883EC38 		subq	$56, %rsp
  68              		.cfi_def_cfa_offset 80
  69 001c 64488B04 		movq	%fs:40, %rax
  69      25280000 
  69      00
  70 0025 48894424 		movq	%rax, 40(%rsp)
  70      28
  71 002a 31C0     		xorl	%eax, %eax
  72              	.LEHB0:
  73 002c E8000000 		call	_ZN8UnitTest11CurrentTest7DetailsEv@PLT
  73      00
  74              	.LEHE0:
  75 0031 4C8B28   		movq	(%rax), %r13
  76              	.LEHB1:
  77 0034 E8000000 		call	_ZN8UnitTest11CurrentTest7DetailsEv@PLT
  77      00
  78 0039 4989E4   		movq	%rsp, %r12
  79 003c 488B30   		movq	(%rax), %rsi
  80 003f BAD10000 		movl	$209, %edx
  80      00
  81 0044 4C89E7   		movq	%r12, %rdi
  82 0047 E8000000 		call	_ZN8UnitTest11TestDetailsC1ERKS0_i@PLT
  82      00
  83 004c 4D8B6D08 		movq	8(%r13), %r13
  84 0050 E8000000 		call	_ZN8UnitTest11CurrentTest7ResultsEv@PLT
  84      00
  85 0055 488B38   		movq	(%rax), %rdi
  86 0058 4C89E1   		movq	%r12, %rcx
  87 005b 4C89EA   		movq	%r13, %rdx
  88 005e 488D3500 		leaq	.LC0(%rip), %rsi
  88      000000
  89 0065 E8000000 		call	_ZN8UnitTest10CheckEqualERNS_11TestResultsEPKcS3_RKNS_11TestDetailsE@PLT
  89      00
  90              	.LEHE1:
  91 006a 488B4424 		movq	40(%rsp), %rax
  91      28
  92 006f 64482B04 		subq	%fs:40, %rax
  92      25280000 
  92      00
  93 0078 7509     		jne	.L13
  94 007a 4883C438 		addq	$56, %rsp
  95              		.cfi_remember_state
  96              		.cfi_def_cfa_offset 24
  97 007e 415C     		popq	%r12
  98              		.cfi_def_cfa_offset 16
  99 0080 415D     		popq	%r13
 100              		.cfi_def_cfa_offset 8
 101 0082 C3       		ret
 102              	.L13:
 103              		.cfi_restore_state
 104 0083 E8000000 		call	__stack_chk_fail@PLT
 104      00
 105              	.L9:
 106 0088 F30F1EFA 		endbr64
 107 008c 4889C7   		movq	%rax, %rdi
 108 008f E9000000 		jmp	.L5
 108      00
 109              		.globl	__gxx_personality_v0
 110              		.section	.gcc_except_table,"a",@progbits
 111              		.align 4
 112              	.LLSDA1352:
 113 0000 FF       		.byte	0xff
 114 0001 9B       		.byte	0x9b
 115 0002 11       		.uleb128 .LLSDATT1352-.LLSDATTD1352
 116              	.LLSDATTD1352:
 117 0003 01       		.byte	0x1
 118 0004 08       		.uleb128 .LLSDACSE1352-.LLSDACSB1352
 119              	.LLSDACSB1352:
 120 0005 1C       		.uleb128 .LEHB0-.LFB1352
 121 0006 05       		.uleb128 .LEHE0-.LEHB0
 122 0007 00       		.uleb128 0
 123 0008 00       		.uleb128 0
 124 0009 24       		.uleb128 .LEHB1-.LFB1352
 125 000a 36       		.uleb128 .LEHE1-.LEHB1
 126 000b 78       		.uleb128 .L9-.LFB1352
 127 000c 01       		.uleb128 0x1
 128              	.LLSDACSE1352:
 129 000d 01       		.byte	0x1
 130 000e 00       		.byte	0
 131 000f 00       		.align 4
 132 0010 00000000 		.long	0
 133              	
 134              	.LLSDATT1352:
 135              		.text
 136              		.cfi_endproc
 137              		.section	.text.unlikely
 138              		.cfi_startproc
 139              		.cfi_personality 0x9b,DW.ref.__gxx_personality_v0
 140              		.cfi_lsda 0x1b,.LLSDAC1352
 142              	_ZNK44TestCurrentTestDetailsContainCurrentTestInfo7RunImplEv.cold:
 143              	.LFSB1352:
 144              	.L5:
 145              		.cfi_def_cfa_offset 80
 146              		.cfi_offset 12, -24
 147              		.cfi_offset 13, -16
 148 0000 E8000000 		call	__cxa_begin_catch@PLT
 148      00
 149              	.LEHB2:
 150 0005 E8000000 		call	_ZN8UnitTest11CurrentTest7ResultsEv@PLT
 150      00
 151 000a 4C8B28   		movq	(%rax), %r13
 152 000d E8000000 		call	_ZN8UnitTest11CurrentTest7DetailsEv@PLT
 152      00
 153 0012 4989E4   		movq	%rsp, %r12
 154 0015 488B30   		movq	(%rax), %rsi
 155 0018 BAD10000 		movl	$209, %edx
 155      00
 156 001d 4C89E7   		movq	%r12, %rdi
 157 0020 E8000000 		call	_ZN8UnitTest11TestDetailsC1ERKS0_i@PLT
 157      00
 158 0025 488D1500 		leaq	.LC1(%rip), %rdx
 158      000000
 159 002c 4C89E6   		movq	%r12, %rsi
 160 002f 4C89EF   		movq	%r13, %rdi
 161 0032 E8000000 		call	_ZN8UnitTest11TestResults13OnTestFailureERKNS_11TestDetailsEPKc@PLT
 161      00
 162              	.LEHE2:
 163 0037 488B4424 		movq	40(%rsp), %rax
 163      28
 164 003c 64482B04 		subq	%fs:40, %rax
 164      25280000 
 164      00
 165 0045 7521     		jne	.L14
 166 0047 4883C438 		addq	$56, %rsp
 167              		.cfi_remember_state
 168              		.cfi_def_cfa_offset 24
 169 004b 415C     		popq	%r12
 170              		.cfi_def_cfa_offset 16
 171 004d 415D     		popq	%r13
 172              		.cfi_def_cfa_offset 8
 173              	.LEHB3:
 174 004f E9000000 		jmp	__cxa_end_catch@PLT
 174      00
 175              	.LEHE3:
 176              	.L10:
 177              		.cfi_restore_state
 178 0054 F30F1EFA 		endbr64
 179 0058 4989C4   		movq	%rax, %r12
 180 005b E8000000 		call	__cxa_end_catch@PLT
 180      00
 181 0060 4C89E7   		movq	%r12, %rdi
 182              	.LEHB4:
 183 0063 E8000000 		call	_Unwind_Resume@PLT
 183      00
 184              	.LEHE4:
 185              	.L14:
 186 0068 E8000000 		call	__stack_chk_fail@PLT
 186      00
 187              		.cfi_endproc
 188              	.LFE1352:
 189              		.section	.gcc_except_table
 190              		.align 4
 191              	.LLSDAC1352:
 192 0014 FF       		.byte	0xff
 193 0015 9B       		.byte	0x9b
 194 0016 15       		.uleb128 .LLSDATTC1352-.LLSDATTDC1352
 195              	.LLSDATTDC1352:
 196 0017 01       		.byte	0x1
 197 0018 0C       		.uleb128 .LLSDACSEC1352-.LLSDACSBC1352
 198              	.LLSDACSBC1352:
 199 0019 05       		.uleb128 .LEHB2-.LCOLDB2
 200 001a 32       		.uleb128 .LEHE2-.LEHB2
 201 001b 54       		.uleb128 .L10-.LCOLDB2
 202 001c 00       		.uleb128 0
 203 001d 4F       		.uleb128 .LEHB3-.LCOLDB2
 204 001e 05       		.uleb128 .LEHE3-.LEHB3
 205 001f 00       		.uleb128 0
 206 0020 00       		.uleb128 0
 207 0021 63       		.uleb128 .LEHB4-.LCOLDB2
 208 0022 05       		.uleb128 .LEHE4-.LEHB4
 209 0023 00       		.uleb128 0
 210 0024 00       		.uleb128 0
 211              	.LLSDACSEC1352:
 212 0025 01       		.byte	0x1
 213 0026 00       		.byte	0
 214 0027 00       		.align 4
 215 0028 00000000 		.long	0
 216              	
 217              	.LLSDATTC1352:
 218              		.section	.text.unlikely
 219              		.text
 221              		.section	.text.unlikely
 223              	.LCOLDE2:
 224              		.text
 225              	.LHOTE2:
 226              		.section	.text._ZN44TestCurrentTestDetailsContainCurrentTestInfoD2Ev,"axG",@progbits,_ZN44TestCurr
 227              		.align 2
 228              		.p2align 4
 229              		.weak	_ZN44TestCurrentTestDetailsContainCurrentTestInfoD2Ev
 231              	_ZN44TestCurrentTestDetailsContainCurrentTestInfoD2Ev:
 232              	.LFB1443:
 233              		.cfi_startproc
 234 0000 F30F1EFA 		endbr64
 235 0004 488D0500 		leaq	16+_ZTV44TestCurrentTestDetailsContainCurrentTestInfo(%rip), %rax
 235      000000
 236 000b 488907   		movq	%rax, (%rdi)
 237 000e E9000000 		jmp	_ZN8UnitTest4TestD2Ev@PLT
 237      00
 238              		.cfi_endproc
 239              	.LFE1443:
 241              		.weak	_ZN44TestCurrentTestDetailsContainCurrentTestInfoD1Ev
 242              		.set	_ZN44TestCurrentTestDetailsContainCurrentTestInfoD1Ev,_ZN44TestCurrentTestDetailsContainCurre
 243              		.section	.text._ZN44TestCurrentTestDetailsContainCurrentTestInfoD0Ev,"axG",@progbits,_ZN44TestCurr
 244              		.align 2
 245              		.p2align 4
 246              		.weak	_ZN44TestCurrentTestDetailsContainCurrentTestInfoD0Ev
 248              	_ZN44TestCurrentTestDetailsContainCurrentTestInfoD0Ev:
 249              	.LFB1445:
 250              		.cfi_startproc
 251              		.cfi_personality 0x9b,DW.ref.__gxx_personality_v0
 252              		.cfi_lsda 0x1b,.LLSDA1445
 253 0000 F30F1EFA 		endbr64
 254 0004 4154     		pushq	%r12
 255              		.cfi_def_cfa_offset 16
 256              		.cfi_offset 12, -16
 257 0006 488D0500 		leaq	16+_ZTV44TestCurrentTestDetailsContainCurrentTestInfo(%rip), %rax
 257      000000
 258 000d 55       		pushq	%rbp
 259              		.cfi_def_cfa_offset 24
 260              		.cfi_offset 6, -24
 261 000e 4889FD   		movq	%rdi, %rbp
 262 0011 4883EC08 		subq	$8, %rsp
 263              		.cfi_def_cfa_offset 32
 264 0015 488907   		movq	%rax, (%rdi)
 265              	.LEHB5:
 266 0018 E8000000 		call	_ZN8UnitTest4TestD2Ev@PLT
 266      00
 267              	.LEHE5:
 268 001d 4883C408 		addq	$8, %rsp
 269              		.cfi_remember_state
 270              		.cfi_def_cfa_offset 24
 271 0021 4889EF   		movq	%rbp, %rdi
 272 0024 5D       		popq	%rbp
 273              		.cfi_def_cfa_offset 16
 274 0025 415C     		popq	%r12
 275              		.cfi_def_cfa_offset 8
 276 0027 E9000000 		jmp	_ZdlPv@PLT
 276      00
 277              	.L18:
 278              		.cfi_restore_state
 279 002c F30F1EFA 		endbr64
 280 0030 4989C4   		movq	%rax, %r12
 281              	.L17:
 282 0033 4889EF   		movq	%rbp, %rdi
 283 0036 E8000000 		call	_ZdlPv@PLT
 283      00
 284 003b 4C89E7   		movq	%r12, %rdi
 285              	.LEHB6:
 286 003e E8000000 		call	_Unwind_Resume@PLT
 286      00
 287              	.LEHE6:
 288              		.cfi_endproc
 289              	.LFE1445:
 290              		.section	.gcc_except_table
 291              	.LLSDA1445:
 292 002c FF       		.byte	0xff
 293 002d FF       		.byte	0xff
 294 002e 01       		.byte	0x1
 295 002f 08       		.uleb128 .LLSDACSE1445-.LLSDACSB1445
 296              	.LLSDACSB1445:
 297 0030 18       		.uleb128 .LEHB5-.LFB1445
 298 0031 05       		.uleb128 .LEHE5-.LEHB5
 299 0032 2C       		.uleb128 .L18-.LFB1445
 300 0033 00       		.uleb128 0
 301 0034 3E       		.uleb128 .LEHB6-.LFB1445
 302 0035 05       		.uleb128 .LEHE6-.LEHB6
 303 0036 00       		.uleb128 0
 304 0037 00       		.uleb128 0
 305              	.LLSDACSE1445:
 306              		.section	.text._ZN44TestCurrentTestDetailsContainCurrentTestInfoD0Ev,"axG",@progbits,_ZN44TestCurr
 308              		.section	.text._ZN18SuiteSameTestSuite14TestDummyTest1D2Ev,"axG",@progbits,_ZN18SuiteSameTestSuite
 309              		.align 2
 310              		.p2align 4
 311              		.weak	_ZN18SuiteSameTestSuite14TestDummyTest1D2Ev
 313              	_ZN18SuiteSameTestSuite14TestDummyTest1D2Ev:
 314              	.LFB1447:
 315              		.cfi_startproc
 316 0000 F30F1EFA 		endbr64
 317 0004 488D0500 		leaq	16+_ZTVN18SuiteSameTestSuite14TestDummyTest1E(%rip), %rax
 317      000000
 318 000b 488907   		movq	%rax, (%rdi)
 319 000e E9000000 		jmp	_ZN8UnitTest4TestD2Ev@PLT
 319      00
 320              		.cfi_endproc
 321              	.LFE1447:
 323              		.weak	_ZN18SuiteSameTestSuite14TestDummyTest1D1Ev
 324              		.set	_ZN18SuiteSameTestSuite14TestDummyTest1D1Ev,_ZN18SuiteSameTestSuite14TestDummyTest1D2Ev
 325              		.section	.text._ZN18SuiteSameTestSuite14TestDummyTest1D0Ev,"axG",@progbits,_ZN18SuiteSameTestSuite
 326              		.align 2
 327              		.p2align 4
 328              		.weak	_ZN18SuiteSameTestSuite14TestDummyTest1D0Ev
 330              	_ZN18SuiteSameTestSuite14TestDummyTest1D0Ev:
 331              	.LFB1449:
 332              		.cfi_startproc
 333              		.cfi_personality 0x9b,DW.ref.__gxx_personality_v0
 334              		.cfi_lsda 0x1b,.LLSDA1449
 335 0000 F30F1EFA 		endbr64
 336 0004 4154     		pushq	%r12
 337              		.cfi_def_cfa_offset 16
 338              		.cfi_offset 12, -16
 339 0006 488D0500 		leaq	16+_ZTVN18SuiteSameTestSuite14TestDummyTest1E(%rip), %rax
 339      000000
 340 000d 55       		pushq	%rbp
 341              		.cfi_def_cfa_offset 24
 342              		.cfi_offset 6, -24
 343 000e 4889FD   		movq	%rdi, %rbp
 344 0011 4883EC08 		subq	$8, %rsp
 345              		.cfi_def_cfa_offset 32
 346 0015 488907   		movq	%rax, (%rdi)
 347              	.LEHB7:
 348 0018 E8000000 		call	_ZN8UnitTest4TestD2Ev@PLT
 348      00
 349              	.LEHE7:
 350 001d 4883C408 		addq	$8, %rsp
 351              		.cfi_remember_state
 352              		.cfi_def_cfa_offset 24
 353 0021 4889EF   		movq	%rbp, %rdi
 354 0024 5D       		popq	%rbp
 355              		.cfi_def_cfa_offset 16
 356 0025 415C     		popq	%r12
 357              		.cfi_def_cfa_offset 8
 358 0027 E9000000 		jmp	_ZdlPv@PLT
 358      00
 359              	.L23:
 360              		.cfi_restore_state
 361 002c F30F1EFA 		endbr64
 362 0030 4989C4   		movq	%rax, %r12
 363              	.L22:
 364 0033 4889EF   		movq	%rbp, %rdi
 365 0036 E8000000 		call	_ZdlPv@PLT
 365      00
 366 003b 4C89E7   		movq	%r12, %rdi
 367              	.LEHB8:
 368 003e E8000000 		call	_Unwind_Resume@PLT
 368      00
 369              	.LEHE8:
 370              		.cfi_endproc
 371              	.LFE1449:
 372              		.section	.gcc_except_table
 373              	.LLSDA1449:
 374 0038 FF       		.byte	0xff
 375 0039 FF       		.byte	0xff
 376 003a 01       		.byte	0x1
 377 003b 08       		.uleb128 .LLSDACSE1449-.LLSDACSB1449
 378              	.LLSDACSB1449:
 379 003c 18       		.uleb128 .LEHB7-.LFB1449
 380 003d 05       		.uleb128 .LEHE7-.LEHB7
 381 003e 2C       		.uleb128 .L23-.LFB1449
 382 003f 00       		.uleb128 0
 383 0040 3E       		.uleb128 .LEHB8-.LFB1449
 384 0041 05       		.uleb128 .LEHE8-.LEHB8
 385 0042 00       		.uleb128 0
 386 0043 00       		.uleb128 0
 387              	.LLSDACSE1449:
 388              		.section	.text._ZN18SuiteSameTestSuite14TestDummyTest1D0Ev,"axG",@progbits,_ZN18SuiteSameTestSuite
 390              		.text
 391              		.align 2
 392 0094 66662E0F 		.p2align 4
 392      1F840000 
 392      00000090 
 394              	_ZN12_GLOBAL__N_147TestCorrectlyReportsFixturesWithCtorsThatAssertD2Ev:
 395              	.LFB1451:
 396              		.cfi_startproc
 397 00a0 F30F1EFA 		endbr64
 398 00a4 488D0500 		leaq	16+_ZTVN12_GLOBAL__N_147TestCorrectlyReportsFixturesWithCtorsThatAssertE(%rip), %rax
 398      000000
 399 00ab 488907   		movq	%rax, (%rdi)
 400 00ae E9000000 		jmp	_ZN8UnitTest4TestD2Ev@PLT
 400      00
 401              		.cfi_endproc
 402              	.LFE1451:
 404              		.set	_ZN12_GLOBAL__N_147TestCorrectlyReportsFixturesWithCtorsThatAssertD1Ev,_ZN12_GLOBAL__N_147Tes
 405              		.section	.text.unlikely
 406 006d 90       		.align 2
 407              	.LCOLDB3:
 408              		.text
 409              	.LHOTB3:
 410 00b3 90       		.align 2
 411 00b4 66662E0F 		.p2align 4
 411      1F840000 
 411      00000090 
 413              	_ZN12_GLOBAL__N_147TestCorrectlyReportsFixturesWithCtorsThatAssertD0Ev:
 414              	.LFB1453:
 415              		.cfi_startproc
 416              		.cfi_personality 0x9b,DW.ref.__gxx_personality_v0
 417              		.cfi_lsda 0x1b,.LLSDA1453
 418 00c0 F30F1EFA 		endbr64
 419 00c4 4154     		pushq	%r12
 420              		.cfi_def_cfa_offset 16
 421              		.cfi_offset 12, -16
 422 00c6 488D0500 		leaq	16+_ZTVN12_GLOBAL__N_147TestCorrectlyReportsFixturesWithCtorsThatAssertE(%rip), %rax
 422      000000
 423 00cd 55       		pushq	%rbp
 424              		.cfi_def_cfa_offset 24
 425              		.cfi_offset 6, -24
 426 00ce 4889FD   		movq	%rdi, %rbp
 427 00d1 4883EC08 		subq	$8, %rsp
 428              		.cfi_def_cfa_offset 32
 429 00d5 488907   		movq	%rax, (%rdi)
 430              	.LEHB9:
 431 00d8 E8000000 		call	_ZN8UnitTest4TestD2Ev@PLT
 431      00
 432              	.LEHE9:
 433 00dd 4883C408 		addq	$8, %rsp
 434              		.cfi_remember_state
 435              		.cfi_def_cfa_offset 24
 436 00e1 4889EF   		movq	%rbp, %rdi
 437 00e4 5D       		popq	%rbp
 438              		.cfi_def_cfa_offset 16
 439 00e5 415C     		popq	%r12
 440              		.cfi_def_cfa_offset 8
 441 00e7 E9000000 		jmp	_ZdlPv@PLT
 441      00
 442              	.L28:
 443              		.cfi_restore_state
 444 00ec F30F1EFA 		endbr64
 445 00f0 4989C4   		movq	%rax, %r12
 446 00f3 E9000000 		jmp	.L27
 446      00
 447              		.section	.gcc_except_table
 448              	.LLSDA1453:
 449 0044 FF       		.byte	0xff
 450 0045 FF       		.byte	0xff
 451 0046 01       		.byte	0x1
 452 0047 04       		.uleb128 .LLSDACSE1453-.LLSDACSB1453
 453              	.LLSDACSB1453:
 454 0048 18       		.uleb128 .LEHB9-.LFB1453
 455 0049 05       		.uleb128 .LEHE9-.LEHB9
 456 004a 2C       		.uleb128 .L28-.LFB1453
 457 004b 00       		.uleb128 0
 458              	.LLSDACSE1453:
 459              		.text
 460              		.cfi_endproc
 461              		.section	.text.unlikely
 462              		.cfi_startproc
 463              		.cfi_personality 0x9b,DW.ref.__gxx_personality_v0
 464              		.cfi_lsda 0x1b,.LLSDAC1453
 466              	_ZN12_GLOBAL__N_147TestCorrectlyReportsFixturesWithCtorsThatAssertD0Ev.cold:
 467              	.LFSB1453:
 468              	.L27:
 469              		.cfi_def_cfa_offset 32
 470              		.cfi_offset 6, -24
 471              		.cfi_offset 12, -16
 472 006e 4889EF   		movq	%rbp, %rdi
 473 0071 E8000000 		call	_ZdlPv@PLT
 473      00
 474 0076 4C89E7   		movq	%r12, %rdi
 475              	.LEHB10:
 476 0079 E8000000 		call	_Unwind_Resume@PLT
 476      00
 477              	.LEHE10:
 478              		.cfi_endproc
 479              	.LFE1453:
 480              		.section	.gcc_except_table
 481              	.LLSDAC1453:
 482 004c FF       		.byte	0xff
 483 004d FF       		.byte	0xff
 484 004e 01       		.byte	0x1
 485 004f 04       		.uleb128 .LLSDACSEC1453-.LLSDACSBC1453
 486              	.LLSDACSBC1453:
 487 0050 0B       		.uleb128 .LEHB10-.LCOLDB3
 488 0051 05       		.uleb128 .LEHE10-.LEHB10
 489 0052 00       		.uleb128 0
 490 0053 00       		.uleb128 0
 491              	.LLSDACSEC1453:
 492              		.section	.text.unlikely
 493              		.text
 495              		.section	.text.unlikely
 497              	.LCOLDE3:
 498              		.text
 499              	.LHOTE3:
 500              		.align 2
 501 00f8 0F1F8400 		.p2align 4
 501      00000000 
 503              	_ZN12_GLOBAL__N_157TestFixtureCtorAssertsCorrectlyReportsAssertFailureInCtorD2Ev:
 504              	.LFB1455:
 505              		.cfi_startproc
 506 0100 F30F1EFA 		endbr64
 507 0104 488D0500 		leaq	16+_ZTVN12_GLOBAL__N_157TestFixtureCtorAssertsCorrectlyReportsAssertFailureInCtorE(%rip), %ra
 507      000000
 508 010b 488907   		movq	%rax, (%rdi)
 509 010e E9000000 		jmp	_ZN8UnitTest4TestD2Ev@PLT
 509      00
 510              		.cfi_endproc
 511              	.LFE1455:
 513              		.set	_ZN12_GLOBAL__N_157TestFixtureCtorAssertsCorrectlyReportsAssertFailureInCtorD1Ev,_ZN12_GLOBAL
 514              		.section	.text.unlikely
 515              		.align 2
 516              	.LCOLDB4:
 517              		.text
 518              	.LHOTB4:
 519 0113 90       		.align 2
 520 0114 66662E0F 		.p2align 4
 520      1F840000 
 520      00000090 
 522              	_ZN12_GLOBAL__N_157TestFixtureCtorAssertsCorrectlyReportsAssertFailureInCtorD0Ev:
 523              	.LFB1457:
 524              		.cfi_startproc
 525              		.cfi_personality 0x9b,DW.ref.__gxx_personality_v0
 526              		.cfi_lsda 0x1b,.LLSDA1457
 527 0120 F30F1EFA 		endbr64
 528 0124 4154     		pushq	%r12
 529              		.cfi_def_cfa_offset 16
 530              		.cfi_offset 12, -16
 531 0126 488D0500 		leaq	16+_ZTVN12_GLOBAL__N_157TestFixtureCtorAssertsCorrectlyReportsAssertFailureInCtorE(%rip), %ra
 531      000000
 532 012d 55       		pushq	%rbp
 533              		.cfi_def_cfa_offset 24
 534              		.cfi_offset 6, -24
 535 012e 4889FD   		movq	%rdi, %rbp
 536 0131 4883EC08 		subq	$8, %rsp
 537              		.cfi_def_cfa_offset 32
 538 0135 488907   		movq	%rax, (%rdi)
 539              	.LEHB11:
 540 0138 E8000000 		call	_ZN8UnitTest4TestD2Ev@PLT
 540      00
 541              	.LEHE11:
 542 013d 4883C408 		addq	$8, %rsp
 543              		.cfi_remember_state
 544              		.cfi_def_cfa_offset 24
 545 0141 4889EF   		movq	%rbp, %rdi
 546 0144 5D       		popq	%rbp
 547              		.cfi_def_cfa_offset 16
 548 0145 415C     		popq	%r12
 549              		.cfi_def_cfa_offset 8
 550 0147 E9000000 		jmp	_ZdlPv@PLT
 550      00
 551              	.L33:
 552              		.cfi_restore_state
 553 014c F30F1EFA 		endbr64
 554 0150 4989C4   		movq	%rax, %r12
 555 0153 E9000000 		jmp	.L32
 555      00
 556              		.section	.gcc_except_table
 557              	.LLSDA1457:
 558 0054 FF       		.byte	0xff
 559 0055 FF       		.byte	0xff
 560 0056 01       		.byte	0x1
 561 0057 04       		.uleb128 .LLSDACSE1457-.LLSDACSB1457
 562              	.LLSDACSB1457:
 563 0058 18       		.uleb128 .LEHB11-.LFB1457
 564 0059 05       		.uleb128 .LEHE11-.LEHB11
 565 005a 2C       		.uleb128 .L33-.LFB1457
 566 005b 00       		.uleb128 0
 567              	.LLSDACSE1457:
 568              		.text
 569              		.cfi_endproc
 570              		.section	.text.unlikely
 571              		.cfi_startproc
 572              		.cfi_personality 0x9b,DW.ref.__gxx_personality_v0
 573              		.cfi_lsda 0x1b,.LLSDAC1457
 575              	_ZN12_GLOBAL__N_157TestFixtureCtorAssertsCorrectlyReportsAssertFailureInCtorD0Ev.cold:
 576              	.LFSB1457:
 577              	.L32:
 578              		.cfi_def_cfa_offset 32
 579              		.cfi_offset 6, -24
 580              		.cfi_offset 12, -16
 581 007e 4889EF   		movq	%rbp, %rdi
 582 0081 E8000000 		call	_ZdlPv@PLT
 582      00
 583 0086 4C89E7   		movq	%r12, %rdi
 584              	.LEHB12:
 585 0089 E8000000 		call	_Unwind_Resume@PLT
 585      00
 586              	.LEHE12:
 587              		.cfi_endproc
 588              	.LFE1457:
 589              		.section	.gcc_except_table
 590              	.LLSDAC1457:
 591 005c FF       		.byte	0xff
 592 005d FF       		.byte	0xff
 593 005e 01       		.byte	0x1
 594 005f 04       		.uleb128 .LLSDACSEC1457-.LLSDACSBC1457
 595              	.LLSDACSBC1457:
 596 0060 0B       		.uleb128 .LEHB12-.LCOLDB4
 597 0061 05       		.uleb128 .LEHE12-.LEHB12
 598 0062 00       		.uleb128 0
 599 0063 00       		.uleb128 0
 600              	.LLSDACSEC1457:
 601              		.section	.text.unlikely
 602              		.text
 604              		.section	.text.unlikely
 606              	.LCOLDE4:
 607              		.text
 608              	.LHOTE4:
 609              		.align 2
 610 0158 0F1F8400 		.p2align 4
 610      00000000 
 612              	_ZN12_GLOBAL__N_140TestFixturesWithThrowingDtorsAreFailuresD2Ev:
 613              	.LFB1459:
 614              		.cfi_startproc
 615 0160 F30F1EFA 		endbr64
 616 0164 488D0500 		leaq	16+_ZTVN12_GLOBAL__N_140TestFixturesWithThrowingDtorsAreFailuresE(%rip), %rax
 616      000000
 617 016b 488907   		movq	%rax, (%rdi)
 618 016e E9000000 		jmp	_ZN8UnitTest4TestD2Ev@PLT
 618      00
 619              		.cfi_endproc
 620              	.LFE1459:
 622              		.set	_ZN12_GLOBAL__N_140TestFixturesWithThrowingDtorsAreFailuresD1Ev,_ZN12_GLOBAL__N_140TestFixtur
 623              		.section	.text.unlikely
 624              		.align 2
 625              	.LCOLDB5:
 626              		.text
 627              	.LHOTB5:
 628 0173 90       		.align 2
 629 0174 66662E0F 		.p2align 4
 629      1F840000 
 629      00000090 
 631              	_ZN12_GLOBAL__N_140TestFixturesWithThrowingDtorsAreFailuresD0Ev:
 632              	.LFB1461:
 633              		.cfi_startproc
 634              		.cfi_personality 0x9b,DW.ref.__gxx_personality_v0
 635              		.cfi_lsda 0x1b,.LLSDA1461
 636 0180 F30F1EFA 		endbr64
 637 0184 4154     		pushq	%r12
 638              		.cfi_def_cfa_offset 16
 639              		.cfi_offset 12, -16
 640 0186 488D0500 		leaq	16+_ZTVN12_GLOBAL__N_140TestFixturesWithThrowingDtorsAreFailuresE(%rip), %rax
 640      000000
 641 018d 55       		pushq	%rbp
 642              		.cfi_def_cfa_offset 24
 643              		.cfi_offset 6, -24
 644 018e 4889FD   		movq	%rdi, %rbp
 645 0191 4883EC08 		subq	$8, %rsp
 646              		.cfi_def_cfa_offset 32
 647 0195 488907   		movq	%rax, (%rdi)
 648              	.LEHB13:
 649 0198 E8000000 		call	_ZN8UnitTest4TestD2Ev@PLT
 649      00
 650              	.LEHE13:
 651 019d 4883C408 		addq	$8, %rsp
 652              		.cfi_remember_state
 653              		.cfi_def_cfa_offset 24
 654 01a1 4889EF   		movq	%rbp, %rdi
 655 01a4 5D       		popq	%rbp
 656              		.cfi_def_cfa_offset 16
 657 01a5 415C     		popq	%r12
 658              		.cfi_def_cfa_offset 8
 659 01a7 E9000000 		jmp	_ZdlPv@PLT
 659      00
 660              	.L38:
 661              		.cfi_restore_state
 662 01ac F30F1EFA 		endbr64
 663 01b0 4989C4   		movq	%rax, %r12
 664 01b3 E9000000 		jmp	.L37
 664      00
 665              		.section	.gcc_except_table
 666              	.LLSDA1461:
 667 0064 FF       		.byte	0xff
 668 0065 FF       		.byte	0xff
 669 0066 01       		.byte	0x1
 670 0067 04       		.uleb128 .LLSDACSE1461-.LLSDACSB1461
 671              	.LLSDACSB1461:
 672 0068 18       		.uleb128 .LEHB13-.LFB1461
 673 0069 05       		.uleb128 .LEHE13-.LEHB13
 674 006a 2C       		.uleb128 .L38-.LFB1461
 675 006b 00       		.uleb128 0
 676              	.LLSDACSE1461:
 677              		.text
 678              		.cfi_endproc
 679              		.section	.text.unlikely
 680              		.cfi_startproc
 681              		.cfi_personality 0x9b,DW.ref.__gxx_personality_v0
 682              		.cfi_lsda 0x1b,.LLSDAC1461
 684              	_ZN12_GLOBAL__N_140TestFixturesWithThrowingDtorsAreFailuresD0Ev.cold:
 685              	.LFSB1461:
 686              	.L37:
 687              		.cfi_def_cfa_offset 32
 688              		.cfi_offset 6, -24
 689              		.cfi_offset 12, -16
 690 008e 4889EF   		movq	%rbp, %rdi
 691 0091 E8000000 		call	_ZdlPv@PLT
 691      00
 692 0096 4C89E7   		movq	%r12, %rdi
 693              	.LEHB14:
 694 0099 E8000000 		call	_Unwind_Resume@PLT
 694      00
 695              	.LEHE14:
 696              		.cfi_endproc
 697              	.LFE1461:
 698              		.section	.gcc_except_table
 699              	.LLSDAC1461:
 700 006c FF       		.byte	0xff
 701 006d FF       		.byte	0xff
 702 006e 01       		.byte	0x1
 703 006f 04       		.uleb128 .LLSDACSEC1461-.LLSDACSBC1461
 704              	.LLSDACSBC1461:
 705 0070 0B       		.uleb128 .LEHB14-.LCOLDB5
 706 0071 05       		.uleb128 .LEHE14-.LEHB14
 707 0072 00       		.uleb128 0
 708 0073 00       		.uleb128 0
 709              	.LLSDACSEC1461:
 710              		.section	.text.unlikely
 711              		.text
 713              		.section	.text.unlikely
 715              	.LCOLDE5:
 716              		.text
 717              	.LHOTE5:
 718              		.align 2
 719 01b8 0F1F8400 		.p2align 4
 719      00000000 
 721              	_ZN12_GLOBAL__N_146TestFixtureDtorThrowsFixtureDtorThrowsTestNameD2Ev:
 722              	.LFB1463:
 723              		.cfi_startproc
 724 01c0 F30F1EFA 		endbr64
 725 01c4 488D0500 		leaq	16+_ZTVN12_GLOBAL__N_146TestFixtureDtorThrowsFixtureDtorThrowsTestNameE(%rip), %rax
 725      000000
 726 01cb 488907   		movq	%rax, (%rdi)
 727 01ce E9000000 		jmp	_ZN8UnitTest4TestD2Ev@PLT
 727      00
 728              		.cfi_endproc
 729              	.LFE1463:
 731              		.set	_ZN12_GLOBAL__N_146TestFixtureDtorThrowsFixtureDtorThrowsTestNameD1Ev,_ZN12_GLOBAL__N_146Test
 732              		.section	.text.unlikely
 733              		.align 2
 734              	.LCOLDB6:
 735              		.text
 736              	.LHOTB6:
 737 01d3 90       		.align 2
 738 01d4 66662E0F 		.p2align 4
 738      1F840000 
 738      00000090 
 740              	_ZN12_GLOBAL__N_146TestFixtureDtorThrowsFixtureDtorThrowsTestNameD0Ev:
 741              	.LFB1465:
 742              		.cfi_startproc
 743              		.cfi_personality 0x9b,DW.ref.__gxx_personality_v0
 744              		.cfi_lsda 0x1b,.LLSDA1465
 745 01e0 F30F1EFA 		endbr64
 746 01e4 4154     		pushq	%r12
 747              		.cfi_def_cfa_offset 16
 748              		.cfi_offset 12, -16
 749 01e6 488D0500 		leaq	16+_ZTVN12_GLOBAL__N_146TestFixtureDtorThrowsFixtureDtorThrowsTestNameE(%rip), %rax
 749      000000
 750 01ed 55       		pushq	%rbp
 751              		.cfi_def_cfa_offset 24
 752              		.cfi_offset 6, -24
 753 01ee 4889FD   		movq	%rdi, %rbp
 754 01f1 4883EC08 		subq	$8, %rsp
 755              		.cfi_def_cfa_offset 32
 756 01f5 488907   		movq	%rax, (%rdi)
 757              	.LEHB15:
 758 01f8 E8000000 		call	_ZN8UnitTest4TestD2Ev@PLT
 758      00
 759              	.LEHE15:
 760 01fd 4883C408 		addq	$8, %rsp
 761              		.cfi_remember_state
 762              		.cfi_def_cfa_offset 24
 763 0201 4889EF   		movq	%rbp, %rdi
 764 0204 5D       		popq	%rbp
 765              		.cfi_def_cfa_offset 16
 766 0205 415C     		popq	%r12
 767              		.cfi_def_cfa_offset 8
 768 0207 E9000000 		jmp	_ZdlPv@PLT
 768      00
 769              	.L43:
 770              		.cfi_restore_state
 771 020c F30F1EFA 		endbr64
 772 0210 4989C4   		movq	%rax, %r12
 773 0213 E9000000 		jmp	.L42
 773      00
 774              		.section	.gcc_except_table
 775              	.LLSDA1465:
 776 0074 FF       		.byte	0xff
 777 0075 FF       		.byte	0xff
 778 0076 01       		.byte	0x1
 779 0077 04       		.uleb128 .LLSDACSE1465-.LLSDACSB1465
 780              	.LLSDACSB1465:
 781 0078 18       		.uleb128 .LEHB15-.LFB1465
 782 0079 05       		.uleb128 .LEHE15-.LEHB15
 783 007a 2C       		.uleb128 .L43-.LFB1465
 784 007b 00       		.uleb128 0
 785              	.LLSDACSE1465:
 786              		.text
 787              		.cfi_endproc
 788              		.section	.text.unlikely
 789              		.cfi_startproc
 790              		.cfi_personality 0x9b,DW.ref.__gxx_personality_v0
 791              		.cfi_lsda 0x1b,.LLSDAC1465
 793              	_ZN12_GLOBAL__N_146TestFixtureDtorThrowsFixtureDtorThrowsTestNameD0Ev.cold:
 794              	.LFSB1465:
 795              	.L42:
 796              		.cfi_def_cfa_offset 32
 797              		.cfi_offset 6, -24
 798              		.cfi_offset 12, -16
 799 009e 4889EF   		movq	%rbp, %rdi
 800 00a1 E8000000 		call	_ZdlPv@PLT
 800      00
 801 00a6 4C89E7   		movq	%r12, %rdi
 802              	.LEHB16:
 803 00a9 E8000000 		call	_Unwind_Resume@PLT
 803      00
 804              	.LEHE16:
 805              		.cfi_endproc
 806              	.LFE1465:
 807              		.section	.gcc_except_table
 808              	.LLSDAC1465:
 809 007c FF       		.byte	0xff
 810 007d FF       		.byte	0xff
 811 007e 01       		.byte	0x1
 812 007f 04       		.uleb128 .LLSDACSEC1465-.LLSDACSBC1465
 813              	.LLSDACSBC1465:
 814 0080 0B       		.uleb128 .LEHB16-.LCOLDB6
 815 0081 05       		.uleb128 .LEHE16-.LEHB16
 816 0082 00       		.uleb128 0
 817 0083 00       		.uleb128 0
 818              	.LLSDACSEC1465:
 819              		.section	.text.unlikely
 820              		.text
 822              		.section	.text.unlikely
 824              	.LCOLDE6:
 825              		.text
 826              	.LHOTE6:
 827              		.align 2
 828 0218 0F1F8400 		.p2align 4
 828      00000000 
 830              	_ZN12_GLOBAL__N_140TestFixturesWithThrowingCtorsAreFailuresD2Ev:
 831              	.LFB1467:
 832              		.cfi_startproc
 833 0220 F30F1EFA 		endbr64
 834 0224 488D0500 		leaq	16+_ZTVN12_GLOBAL__N_140TestFixturesWithThrowingCtorsAreFailuresE(%rip), %rax
 834      000000
 835 022b 488907   		movq	%rax, (%rdi)
 836 022e E9000000 		jmp	_ZN8UnitTest4TestD2Ev@PLT
 836      00
 837              		.cfi_endproc
 838              	.LFE1467:
 840              		.set	_ZN12_GLOBAL__N_140TestFixturesWithThrowingCtorsAreFailuresD1Ev,_ZN12_GLOBAL__N_140TestFixtur
 841              		.section	.text.unlikely
 842              		.align 2
 843              	.LCOLDB7:
 844              		.text
 845              	.LHOTB7:
 846 0233 90       		.align 2
 847 0234 66662E0F 		.p2align 4
 847      1F840000 
 847      00000090 
 849              	_ZN12_GLOBAL__N_140TestFixturesWithThrowingCtorsAreFailuresD0Ev:
 850              	.LFB1469:
 851              		.cfi_startproc
 852              		.cfi_personality 0x9b,DW.ref.__gxx_personality_v0
 853              		.cfi_lsda 0x1b,.LLSDA1469
 854 0240 F30F1EFA 		endbr64
 855 0244 4154     		pushq	%r12
 856              		.cfi_def_cfa_offset 16
 857              		.cfi_offset 12, -16
 858 0246 488D0500 		leaq	16+_ZTVN12_GLOBAL__N_140TestFixturesWithThrowingCtorsAreFailuresE(%rip), %rax
 858      000000
 859 024d 55       		pushq	%rbp
 860              		.cfi_def_cfa_offset 24
 861              		.cfi_offset 6, -24
 862 024e 4889FD   		movq	%rdi, %rbp
 863 0251 4883EC08 		subq	$8, %rsp
 864              		.cfi_def_cfa_offset 32
 865 0255 488907   		movq	%rax, (%rdi)
 866              	.LEHB17:
 867 0258 E8000000 		call	_ZN8UnitTest4TestD2Ev@PLT
 867      00
 868              	.LEHE17:
 869 025d 4883C408 		addq	$8, %rsp
 870              		.cfi_remember_state
 871              		.cfi_def_cfa_offset 24
 872 0261 4889EF   		movq	%rbp, %rdi
 873 0264 5D       		popq	%rbp
 874              		.cfi_def_cfa_offset 16
 875 0265 415C     		popq	%r12
 876              		.cfi_def_cfa_offset 8
 877 0267 E9000000 		jmp	_ZdlPv@PLT
 877      00
 878              	.L48:
 879              		.cfi_restore_state
 880 026c F30F1EFA 		endbr64
 881 0270 4989C4   		movq	%rax, %r12
 882 0273 E9000000 		jmp	.L47
 882      00
 883              		.section	.gcc_except_table
 884              	.LLSDA1469:
 885 0084 FF       		.byte	0xff
 886 0085 FF       		.byte	0xff
 887 0086 01       		.byte	0x1
 888 0087 04       		.uleb128 .LLSDACSE1469-.LLSDACSB1469
 889              	.LLSDACSB1469:
 890 0088 18       		.uleb128 .LEHB17-.LFB1469
 891 0089 05       		.uleb128 .LEHE17-.LEHB17
 892 008a 2C       		.uleb128 .L48-.LFB1469
 893 008b 00       		.uleb128 0
 894              	.LLSDACSE1469:
 895              		.text
 896              		.cfi_endproc
 897              		.section	.text.unlikely
 898              		.cfi_startproc
 899              		.cfi_personality 0x9b,DW.ref.__gxx_personality_v0
 900              		.cfi_lsda 0x1b,.LLSDAC1469
 902              	_ZN12_GLOBAL__N_140TestFixturesWithThrowingCtorsAreFailuresD0Ev.cold:
 903              	.LFSB1469:
 904              	.L47:
 905              		.cfi_def_cfa_offset 32
 906              		.cfi_offset 6, -24
 907              		.cfi_offset 12, -16
 908 00ae 4889EF   		movq	%rbp, %rdi
 909 00b1 E8000000 		call	_ZdlPv@PLT
 909      00
 910 00b6 4C89E7   		movq	%r12, %rdi
 911              	.LEHB18:
 912 00b9 E8000000 		call	_Unwind_Resume@PLT
 912      00
 913              	.LEHE18:
 914              		.cfi_endproc
 915              	.LFE1469:
 916              		.section	.gcc_except_table
 917              	.LLSDAC1469:
 918 008c FF       		.byte	0xff
 919 008d FF       		.byte	0xff
 920 008e 01       		.byte	0x1
 921 008f 04       		.uleb128 .LLSDACSEC1469-.LLSDACSBC1469
 922              	.LLSDACSBC1469:
 923 0090 0B       		.uleb128 .LEHB18-.LCOLDB7
 924 0091 05       		.uleb128 .LEHE18-.LEHB18
 925 0092 00       		.uleb128 0
 926 0093 00       		.uleb128 0
 927              	.LLSDACSEC1469:
 928              		.section	.text.unlikely
 929              		.text
 931              		.section	.text.unlikely
 933              	.LCOLDE7:
 934              		.text
 935              	.LHOTE7:
 936              		.align 2
 937 0278 0F1F8400 		.p2align 4
 937      00000000 
 939              	_ZN12_GLOBAL__N_146TestFixtureCtorThrowsFixtureCtorThrowsTestNameD2Ev:
 940              	.LFB1471:
 941              		.cfi_startproc
 942 0280 F30F1EFA 		endbr64
 943 0284 488D0500 		leaq	16+_ZTVN12_GLOBAL__N_146TestFixtureCtorThrowsFixtureCtorThrowsTestNameE(%rip), %rax
 943      000000
 944 028b 488907   		movq	%rax, (%rdi)
 945 028e E9000000 		jmp	_ZN8UnitTest4TestD2Ev@PLT
 945      00
 946              		.cfi_endproc
 947              	.LFE1471:
 949              		.set	_ZN12_GLOBAL__N_146TestFixtureCtorThrowsFixtureCtorThrowsTestNameD1Ev,_ZN12_GLOBAL__N_146Test
 950              		.section	.text.unlikely
 951              		.align 2
 952              	.LCOLDB8:
 953              		.text
 954              	.LHOTB8:
 955 0293 90       		.align 2
 956 0294 66662E0F 		.p2align 4
 956      1F840000 
 956      00000090 
 958              	_ZN12_GLOBAL__N_146TestFixtureCtorThrowsFixtureCtorThrowsTestNameD0Ev:
 959              	.LFB1473:
 960              		.cfi_startproc
 961              		.cfi_personality 0x9b,DW.ref.__gxx_personality_v0
 962              		.cfi_lsda 0x1b,.LLSDA1473
 963 02a0 F30F1EFA 		endbr64
 964 02a4 4154     		pushq	%r12
 965              		.cfi_def_cfa_offset 16
 966              		.cfi_offset 12, -16
 967 02a6 488D0500 		leaq	16+_ZTVN12_GLOBAL__N_146TestFixtureCtorThrowsFixtureCtorThrowsTestNameE(%rip), %rax
 967      000000
 968 02ad 55       		pushq	%rbp
 969              		.cfi_def_cfa_offset 24
 970              		.cfi_offset 6, -24
 971 02ae 4889FD   		movq	%rdi, %rbp
 972 02b1 4883EC08 		subq	$8, %rsp
 973              		.cfi_def_cfa_offset 32
 974 02b5 488907   		movq	%rax, (%rdi)
 975              	.LEHB19:
 976 02b8 E8000000 		call	_ZN8UnitTest4TestD2Ev@PLT
 976      00
 977              	.LEHE19:
 978 02bd 4883C408 		addq	$8, %rsp
 979              		.cfi_remember_state
 980              		.cfi_def_cfa_offset 24
 981 02c1 4889EF   		movq	%rbp, %rdi
 982 02c4 5D       		popq	%rbp
 983              		.cfi_def_cfa_offset 16
 984 02c5 415C     		popq	%r12
 985              		.cfi_def_cfa_offset 8
 986 02c7 E9000000 		jmp	_ZdlPv@PLT
 986      00
 987              	.L53:
 988              		.cfi_restore_state
 989 02cc F30F1EFA 		endbr64
 990 02d0 4989C4   		movq	%rax, %r12
 991 02d3 E9000000 		jmp	.L52
 991      00
 992              		.section	.gcc_except_table
 993              	.LLSDA1473:
 994 0094 FF       		.byte	0xff
 995 0095 FF       		.byte	0xff
 996 0096 01       		.byte	0x1
 997 0097 04       		.uleb128 .LLSDACSE1473-.LLSDACSB1473
 998              	.LLSDACSB1473:
 999 0098 18       		.uleb128 .LEHB19-.LFB1473
 1000 0099 05       		.uleb128 .LEHE19-.LEHB19
 1001 009a 2C       		.uleb128 .L53-.LFB1473
 1002 009b 00       		.uleb128 0
 1003              	.LLSDACSE1473:
 1004              		.text
 1005              		.cfi_endproc
 1006              		.section	.text.unlikely
 1007              		.cfi_startproc
 1008              		.cfi_personality 0x9b,DW.ref.__gxx_personality_v0
 1009              		.cfi_lsda 0x1b,.LLSDAC1473
 1011              	_ZN12_GLOBAL__N_146TestFixtureCtorThrowsFixtureCtorThrowsTestNameD0Ev.cold:
 1012              	.LFSB1473:
 1013              	.L52:
 1014              		.cfi_def_cfa_offset 32
 1015              		.cfi_offset 6, -24
 1016              		.cfi_offset 12, -16
 1017 00be 4889EF   		movq	%rbp, %rdi
 1018 00c1 E8000000 		call	_ZdlPv@PLT
 1018      00
 1019 00c6 4C89E7   		movq	%r12, %rdi
 1020              	.LEHB20:
 1021 00c9 E8000000 		call	_Unwind_Resume@PLT
 1021      00
 1022              	.LEHE20:
 1023              		.cfi_endproc
 1024              	.LFE1473:
 1025              		.section	.gcc_except_table
 1026              	.LLSDAC1473:
 1027 009c FF       		.byte	0xff
 1028 009d FF       		.byte	0xff
 1029 009e 01       		.byte	0x1
 1030 009f 04       		.uleb128 .LLSDACSEC1473-.LLSDACSBC1473
 1031              	.LLSDACSBC1473:
 1032 00a0 0B       		.uleb128 .LEHB20-.LCOLDB8
 1033 00a1 05       		.uleb128 .LEHE20-.LEHB20
 1034 00a2 00       		.uleb128 0
 1035 00a3 00       		.uleb128 0
 1036              	.LLSDACSEC1473:
 1037              		.section	.text.unlikely
 1038              		.text
 1040              		.section	.text.unlikely
 1042              	.LCOLDE8:
 1043              		.text
 1044              	.LHOTE8:
 1045              		.align 2
 1046 02d8 0F1F8400 		.p2align 4
 1046      00000000 
 1048              	_ZN12_GLOBAL__N_153TestTestAddedWithTEST_FIXTURE_EXMacroGetsDefaultSuiteD2Ev:
 1049              	.LFB1475:
 1050              		.cfi_startproc
 1051 02e0 F30F1EFA 		endbr64
 1052 02e4 488D0500 		leaq	16+_ZTVN12_GLOBAL__N_153TestTestAddedWithTEST_FIXTURE_EXMacroGetsDefaultSuiteE(%rip), %rax
 1052      000000
 1053 02eb 488907   		movq	%rax, (%rdi)
 1054 02ee E9000000 		jmp	_ZN8UnitTest4TestD2Ev@PLT
 1054      00
 1055              		.cfi_endproc
 1056              	.LFE1475:
 1058              		.set	_ZN12_GLOBAL__N_153TestTestAddedWithTEST_FIXTURE_EXMacroGetsDefaultSuiteD1Ev,_ZN12_GLOBAL__N_
 1059              		.section	.text.unlikely
 1060              		.align 2
 1061              	.LCOLDB9:
 1062              		.text
 1063              	.LHOTB9:
 1064 02f3 90       		.align 2
 1065 02f4 66662E0F 		.p2align 4
 1065      1F840000 
 1065      00000090 
 1067              	_ZN12_GLOBAL__N_153TestTestAddedWithTEST_FIXTURE_EXMacroGetsDefaultSuiteD0Ev:
 1068              	.LFB1477:
 1069              		.cfi_startproc
 1070              		.cfi_personality 0x9b,DW.ref.__gxx_personality_v0
 1071              		.cfi_lsda 0x1b,.LLSDA1477
 1072 0300 F30F1EFA 		endbr64
 1073 0304 4154     		pushq	%r12
 1074              		.cfi_def_cfa_offset 16
 1075              		.cfi_offset 12, -16
 1076 0306 488D0500 		leaq	16+_ZTVN12_GLOBAL__N_153TestTestAddedWithTEST_FIXTURE_EXMacroGetsDefaultSuiteE(%rip), %rax
 1076      000000
 1077 030d 55       		pushq	%rbp
 1078              		.cfi_def_cfa_offset 24
 1079              		.cfi_offset 6, -24
 1080 030e 4889FD   		movq	%rdi, %rbp
 1081 0311 4883EC08 		subq	$8, %rsp
 1082              		.cfi_def_cfa_offset 32
 1083 0315 488907   		movq	%rax, (%rdi)
 1084              	.LEHB21:
 1085 0318 E8000000 		call	_ZN8UnitTest4TestD2Ev@PLT
 1085      00
 1086              	.LEHE21:
 1087 031d 4883C408 		addq	$8, %rsp
 1088              		.cfi_remember_state
 1089              		.cfi_def_cfa_offset 24
 1090 0321 4889EF   		movq	%rbp, %rdi
 1091 0324 5D       		popq	%rbp
 1092              		.cfi_def_cfa_offset 16
 1093 0325 415C     		popq	%r12
 1094              		.cfi_def_cfa_offset 8
 1095 0327 E9000000 		jmp	_ZdlPv@PLT
 1095      00
 1096              	.L58:
 1097              		.cfi_restore_state
 1098 032c F30F1EFA 		endbr64
 1099 0330 4989C4   		movq	%rax, %r12
 1100 0333 E9000000 		jmp	.L57
 1100      00
 1101              		.section	.gcc_except_table
 1102              	.LLSDA1477:
 1103 00a4 FF       		.byte	0xff
 1104 00a5 FF       		.byte	0xff
 1105 00a6 01       		.byte	0x1
 1106 00a7 04       		.uleb128 .LLSDACSE1477-.LLSDACSB1477
 1107              	.LLSDACSB1477:
 1108 00a8 18       		.uleb128 .LEHB21-.LFB1477
 1109 00a9 05       		.uleb128 .LEHE21-.LEHB21
 1110 00aa 2C       		.uleb128 .L58-.LFB1477
 1111 00ab 00       		.uleb128 0
 1112              	.LLSDACSE1477:
 1113              		.text
 1114              		.cfi_endproc
 1115              		.section	.text.unlikely
 1116              		.cfi_startproc
 1117              		.cfi_personality 0x9b,DW.ref.__gxx_personality_v0
 1118              		.cfi_lsda 0x1b,.LLSDAC1477
 1120              	_ZN12_GLOBAL__N_153TestTestAddedWithTEST_FIXTURE_EXMacroGetsDefaultSuiteD0Ev.cold:
 1121              	.LFSB1477:
 1122              	.L57:
 1123              		.cfi_def_cfa_offset 32
 1124              		.cfi_offset 6, -24
 1125              		.cfi_offset 12, -16
 1126 00ce 4889EF   		movq	%rbp, %rdi
 1127 00d1 E8000000 		call	_ZdlPv@PLT
 1127      00
 1128 00d6 4C89E7   		movq	%r12, %rdi
 1129              	.LEHB22:
 1130 00d9 E8000000 		call	_Unwind_Resume@PLT
 1130      00
 1131              	.LEHE22:
 1132              		.cfi_endproc
 1133              	.LFE1477:
 1134              		.section	.gcc_except_table
 1135              	.LLSDAC1477:
 1136 00ac FF       		.byte	0xff
 1137 00ad FF       		.byte	0xff
 1138 00ae 01       		.byte	0x1
 1139 00af 04       		.uleb128 .LLSDACSEC1477-.LLSDACSBC1477
 1140              	.LLSDACSBC1477:
 1141 00b0 0B       		.uleb128 .LEHB22-.LCOLDB9
 1142 00b1 05       		.uleb128 .LEHE22-.LEHB22
 1143 00b2 00       		.uleb128 0
 1144 00b3 00       		.uleb128 0
 1145              	.LLSDACSEC1477:
 1146              		.section	.text.unlikely
 1147              		.text
 1149              		.section	.text.unlikely
 1151              	.LCOLDE9:
 1152              		.text
 1153              	.LHOTE9:
 1154              		.align 2
 1155 0338 0F1F8400 		.p2align 4
 1155      00000000 
 1157              	_ZN12_GLOBAL__N_132TestDummyFixtureMacroTestHelper2D2Ev:
 1158              	.LFB1479:
 1159              		.cfi_startproc
 1160 0340 F30F1EFA 		endbr64
 1161 0344 488D0500 		leaq	16+_ZTVN12_GLOBAL__N_132TestDummyFixtureMacroTestHelper2E(%rip), %rax
 1161      000000
 1162 034b 488907   		movq	%rax, (%rdi)
 1163 034e E9000000 		jmp	_ZN8UnitTest4TestD2Ev@PLT
 1163      00
 1164              		.cfi_endproc
 1165              	.LFE1479:
 1167              		.set	_ZN12_GLOBAL__N_132TestDummyFixtureMacroTestHelper2D1Ev,_ZN12_GLOBAL__N_132TestDummyFixtureMa
 1168              		.section	.text.unlikely
 1169              		.align 2
 1170              	.LCOLDB10:
 1171              		.text
 1172              	.LHOTB10:
 1173 0353 90       		.align 2
 1174 0354 66662E0F 		.p2align 4
 1174      1F840000 
 1174      00000090 
 1176              	_ZN12_GLOBAL__N_132TestDummyFixtureMacroTestHelper2D0Ev:
 1177              	.LFB1481:
 1178              		.cfi_startproc
 1179              		.cfi_personality 0x9b,DW.ref.__gxx_personality_v0
 1180              		.cfi_lsda 0x1b,.LLSDA1481
 1181 0360 F30F1EFA 		endbr64
 1182 0364 4154     		pushq	%r12
 1183              		.cfi_def_cfa_offset 16
 1184              		.cfi_offset 12, -16
 1185 0366 488D0500 		leaq	16+_ZTVN12_GLOBAL__N_132TestDummyFixtureMacroTestHelper2E(%rip), %rax
 1185      000000
 1186 036d 55       		pushq	%rbp
 1187              		.cfi_def_cfa_offset 24
 1188              		.cfi_offset 6, -24
 1189 036e 4889FD   		movq	%rdi, %rbp
 1190 0371 4883EC08 		subq	$8, %rsp
 1191              		.cfi_def_cfa_offset 32
 1192 0375 488907   		movq	%rax, (%rdi)
 1193              	.LEHB23:
 1194 0378 E8000000 		call	_ZN8UnitTest4TestD2Ev@PLT
 1194      00
 1195              	.LEHE23:
 1196 037d 4883C408 		addq	$8, %rsp
 1197              		.cfi_remember_state
 1198              		.cfi_def_cfa_offset 24
 1199 0381 4889EF   		movq	%rbp, %rdi
 1200 0384 5D       		popq	%rbp
 1201              		.cfi_def_cfa_offset 16
 1202 0385 415C     		popq	%r12
 1203              		.cfi_def_cfa_offset 8
 1204 0387 E9000000 		jmp	_ZdlPv@PLT
 1204      00
 1205              	.L63:
 1206              		.cfi_restore_state
 1207 038c F30F1EFA 		endbr64
 1208 0390 4989C4   		movq	%rax, %r12
 1209 0393 E9000000 		jmp	.L62
 1209      00
 1210              		.section	.gcc_except_table
 1211              	.LLSDA1481:
 1212 00b4 FF       		.byte	0xff
 1213 00b5 FF       		.byte	0xff
 1214 00b6 01       		.byte	0x1
 1215 00b7 04       		.uleb128 .LLSDACSE1481-.LLSDACSB1481
 1216              	.LLSDACSB1481:
 1217 00b8 18       		.uleb128 .LEHB23-.LFB1481
 1218 00b9 05       		.uleb128 .LEHE23-.LEHB23
 1219 00ba 2C       		.uleb128 .L63-.LFB1481
 1220 00bb 00       		.uleb128 0
 1221              	.LLSDACSE1481:
 1222              		.text
 1223              		.cfi_endproc
 1224              		.section	.text.unlikely
 1225              		.cfi_startproc
 1226              		.cfi_personality 0x9b,DW.ref.__gxx_personality_v0
 1227              		.cfi_lsda 0x1b,.LLSDAC1481
 1229              	_ZN12_GLOBAL__N_132TestDummyFixtureMacroTestHelper2D0Ev.cold:
 1230              	.LFSB1481:
 1231              	.L62:
 1232              		.cfi_def_cfa_offset 32
 1233              		.cfi_offset 6, -24
 1234              		.cfi_offset 12, -16
 1235 00de 4889EF   		movq	%rbp, %rdi
 1236 00e1 E8000000 		call	_ZdlPv@PLT
 1236      00
 1237 00e6 4C89E7   		movq	%r12, %rdi
 1238              	.LEHB24:
 1239 00e9 E8000000 		call	_Unwind_Resume@PLT
 1239      00
 1240              	.LEHE24:
 1241              		.cfi_endproc
 1242              	.LFE1481:
 1243              		.section	.gcc_except_table
 1244              	.LLSDAC1481:
 1245 00bc FF       		.byte	0xff
 1246 00bd FF       		.byte	0xff
 1247 00be 01       		.byte	0x1
 1248 00bf 04       		.uleb128 .LLSDACSEC1481-.LLSDACSBC1481
 1249              	.LLSDACSBC1481:
 1250 00c0 0B       		.uleb128 .LEHB24-.LCOLDB10
 1251 00c1 05       		.uleb128 .LEHE24-.LEHB24
 1252 00c2 00       		.uleb128 0
 1253 00c3 00       		.uleb128 0
 1254              	.LLSDACSEC1481:
 1255              		.section	.text.unlikely
 1256              		.text
 1258              		.section	.text.unlikely
 1260              	.LCOLDE10:
 1261              		.text
 1262              	.LHOTE10:
 1263              		.align 2
 1264 0398 0F1F8400 		.p2align 4
 1264      00000000 
 1266              	_ZN12_GLOBAL__N_145TestTestAddedWithTEST_EXMacroGetsDefaultSuiteD2Ev:
 1267              	.LFB1483:
 1268              		.cfi_startproc
 1269 03a0 F30F1EFA 		endbr64
 1270 03a4 488D0500 		leaq	16+_ZTVN12_GLOBAL__N_145TestTestAddedWithTEST_EXMacroGetsDefaultSuiteE(%rip), %rax
 1270      000000
 1271 03ab 488907   		movq	%rax, (%rdi)
 1272 03ae E9000000 		jmp	_ZN8UnitTest4TestD2Ev@PLT
 1272      00
 1273              		.cfi_endproc
 1274              	.LFE1483:
 1276              		.set	_ZN12_GLOBAL__N_145TestTestAddedWithTEST_EXMacroGetsDefaultSuiteD1Ev,_ZN12_GLOBAL__N_145TestT
 1277              		.section	.text.unlikely
 1278              		.align 2
 1279              	.LCOLDB11:
 1280              		.text
 1281              	.LHOTB11:
 1282 03b3 90       		.align 2
 1283 03b4 66662E0F 		.p2align 4
 1283      1F840000 
 1283      00000090 
 1285              	_ZN12_GLOBAL__N_145TestTestAddedWithTEST_EXMacroGetsDefaultSuiteD0Ev:
 1286              	.LFB1485:
 1287              		.cfi_startproc
 1288              		.cfi_personality 0x9b,DW.ref.__gxx_personality_v0
 1289              		.cfi_lsda 0x1b,.LLSDA1485
 1290 03c0 F30F1EFA 		endbr64
 1291 03c4 4154     		pushq	%r12
 1292              		.cfi_def_cfa_offset 16
 1293              		.cfi_offset 12, -16
 1294 03c6 488D0500 		leaq	16+_ZTVN12_GLOBAL__N_145TestTestAddedWithTEST_EXMacroGetsDefaultSuiteE(%rip), %rax
 1294      000000
 1295 03cd 55       		pushq	%rbp
 1296              		.cfi_def_cfa_offset 24
 1297              		.cfi_offset 6, -24
 1298 03ce 4889FD   		movq	%rdi, %rbp
 1299 03d1 4883EC08 		subq	$8, %rsp
 1300              		.cfi_def_cfa_offset 32
 1301 03d5 488907   		movq	%rax, (%rdi)
 1302              	.LEHB25:
 1303 03d8 E8000000 		call	_ZN8UnitTest4TestD2Ev@PLT
 1303      00
 1304              	.LEHE25:
 1305 03dd 4883C408 		addq	$8, %rsp
 1306              		.cfi_remember_state
 1307              		.cfi_def_cfa_offset 24
 1308 03e1 4889EF   		movq	%rbp, %rdi
 1309 03e4 5D       		popq	%rbp
 1310              		.cfi_def_cfa_offset 16
 1311 03e5 415C     		popq	%r12
 1312              		.cfi_def_cfa_offset 8
 1313 03e7 E9000000 		jmp	_ZdlPv@PLT
 1313      00
 1314              	.L68:
 1315              		.cfi_restore_state
 1316 03ec F30F1EFA 		endbr64
 1317 03f0 4989C4   		movq	%rax, %r12
 1318 03f3 E9000000 		jmp	.L67
 1318      00
 1319              		.section	.gcc_except_table
 1320              	.LLSDA1485:
 1321 00c4 FF       		.byte	0xff
 1322 00c5 FF       		.byte	0xff
 1323 00c6 01       		.byte	0x1
 1324 00c7 04       		.uleb128 .LLSDACSE1485-.LLSDACSB1485
 1325              	.LLSDACSB1485:
 1326 00c8 18       		.uleb128 .LEHB25-.LFB1485
 1327 00c9 05       		.uleb128 .LEHE25-.LEHB25
 1328 00ca 2C       		.uleb128 .L68-.LFB1485
 1329 00cb 00       		.uleb128 0
 1330              	.LLSDACSE1485:
 1331              		.text
 1332              		.cfi_endproc
 1333              		.section	.text.unlikely
 1334              		.cfi_startproc
 1335              		.cfi_personality 0x9b,DW.ref.__gxx_personality_v0
 1336              		.cfi_lsda 0x1b,.LLSDAC1485
 1338              	_ZN12_GLOBAL__N_145TestTestAddedWithTEST_EXMacroGetsDefaultSuiteD0Ev.cold:
 1339              	.LFSB1485:
 1340              	.L67:
 1341              		.cfi_def_cfa_offset 32
 1342              		.cfi_offset 6, -24
 1343              		.cfi_offset 12, -16
 1344 00ee 4889EF   		movq	%rbp, %rdi
 1345 00f1 E8000000 		call	_ZdlPv@PLT
 1345      00
 1346 00f6 4C89E7   		movq	%r12, %rdi
 1347              	.LEHB26:
 1348 00f9 E8000000 		call	_Unwind_Resume@PLT
 1348      00
 1349              	.LEHE26:
 1350              		.cfi_endproc
 1351              	.LFE1485:
 1352              		.section	.gcc_except_table
 1353              	.LLSDAC1485:
 1354 00cc FF       		.byte	0xff
 1355 00cd FF       		.byte	0xff
 1356 00ce 01       		.byte	0x1
 1357 00cf 04       		.uleb128 .LLSDACSEC1485-.LLSDACSBC1485
 1358              	.LLSDACSBC1485:
 1359 00d0 0B       		.uleb128 .LEHB26-.LCOLDB11
 1360 00d1 05       		.uleb128 .LEHE26-.LEHB26
 1361 00d2 00       		.uleb128 0
 1362 00d3 00       		.uleb128 0
 1363              	.LLSDACSEC1485:
 1364              		.section	.text.unlikely
 1365              		.text
 1367              		.section	.text.unlikely
 1369              	.LCOLDE11:
 1370              		.text
 1371              	.LHOTE11:
 1372              		.align 2
 1373 03f8 0F1F8400 		.p2align 4
 1373      00000000 
 1375              	_ZN12_GLOBAL__N_120TestMacroTestHelper1D2Ev:
 1376              	.LFB1487:
 1377              		.cfi_startproc
 1378 0400 F30F1EFA 		endbr64
 1379 0404 488D0500 		leaq	16+_ZTVN12_GLOBAL__N_120TestMacroTestHelper1E(%rip), %rax
 1379      000000
 1380 040b 488907   		movq	%rax, (%rdi)
 1381 040e E9000000 		jmp	_ZN8UnitTest4TestD2Ev@PLT
 1381      00
 1382              		.cfi_endproc
 1383              	.LFE1487:
 1385              		.set	_ZN12_GLOBAL__N_120TestMacroTestHelper1D1Ev,_ZN12_GLOBAL__N_120TestMacroTestHelper1D2Ev
 1386              		.section	.text.unlikely
 1387              		.align 2
 1388              	.LCOLDB12:
 1389              		.text
 1390              	.LHOTB12:
 1391 0413 90       		.align 2
 1392 0414 66662E0F 		.p2align 4
 1392      1F840000 
 1392      00000090 
 1394              	_ZN12_GLOBAL__N_120TestMacroTestHelper1D0Ev:
 1395              	.LFB1489:
 1396              		.cfi_startproc
 1397              		.cfi_personality 0x9b,DW.ref.__gxx_personality_v0
 1398              		.cfi_lsda 0x1b,.LLSDA1489
 1399 0420 F30F1EFA 		endbr64
 1400 0424 4154     		pushq	%r12
 1401              		.cfi_def_cfa_offset 16
 1402              		.cfi_offset 12, -16
 1403 0426 488D0500 		leaq	16+_ZTVN12_GLOBAL__N_120TestMacroTestHelper1E(%rip), %rax
 1403      000000
 1404 042d 55       		pushq	%rbp
 1405              		.cfi_def_cfa_offset 24
 1406              		.cfi_offset 6, -24
 1407 042e 4889FD   		movq	%rdi, %rbp
 1408 0431 4883EC08 		subq	$8, %rsp
 1409              		.cfi_def_cfa_offset 32
 1410 0435 488907   		movq	%rax, (%rdi)
 1411              	.LEHB27:
 1412 0438 E8000000 		call	_ZN8UnitTest4TestD2Ev@PLT
 1412      00
 1413              	.LEHE27:
 1414 043d 4883C408 		addq	$8, %rsp
 1415              		.cfi_remember_state
 1416              		.cfi_def_cfa_offset 24
 1417 0441 4889EF   		movq	%rbp, %rdi
 1418 0444 5D       		popq	%rbp
 1419              		.cfi_def_cfa_offset 16
 1420 0445 415C     		popq	%r12
 1421              		.cfi_def_cfa_offset 8
 1422 0447 E9000000 		jmp	_ZdlPv@PLT
 1422      00
 1423              	.L73:
 1424              		.cfi_restore_state
 1425 044c F30F1EFA 		endbr64
 1426 0450 4989C4   		movq	%rax, %r12
 1427 0453 E9000000 		jmp	.L72
 1427      00
 1428              		.section	.gcc_except_table
 1429              	.LLSDA1489:
 1430 00d4 FF       		.byte	0xff
 1431 00d5 FF       		.byte	0xff
 1432 00d6 01       		.byte	0x1
 1433 00d7 04       		.uleb128 .LLSDACSE1489-.LLSDACSB1489
 1434              	.LLSDACSB1489:
 1435 00d8 18       		.uleb128 .LEHB27-.LFB1489
 1436 00d9 05       		.uleb128 .LEHE27-.LEHB27
 1437 00da 2C       		.uleb128 .L73-.LFB1489
 1438 00db 00       		.uleb128 0
 1439              	.LLSDACSE1489:
 1440              		.text
 1441              		.cfi_endproc
 1442              		.section	.text.unlikely
 1443              		.cfi_startproc
 1444              		.cfi_personality 0x9b,DW.ref.__gxx_personality_v0
 1445              		.cfi_lsda 0x1b,.LLSDAC1489
 1447              	_ZN12_GLOBAL__N_120TestMacroTestHelper1D0Ev.cold:
 1448              	.LFSB1489:
 1449              	.L72:
 1450              		.cfi_def_cfa_offset 32
 1451              		.cfi_offset 6, -24
 1452              		.cfi_offset 12, -16
 1453 00fe 4889EF   		movq	%rbp, %rdi
 1454 0101 E8000000 		call	_ZdlPv@PLT
 1454      00
 1455 0106 4C89E7   		movq	%r12, %rdi
 1456              	.LEHB28:
 1457 0109 E8000000 		call	_Unwind_Resume@PLT
 1457      00
 1458              	.LEHE28:
 1459              		.cfi_endproc
 1460              	.LFE1489:
 1461              		.section	.gcc_except_table
 1462              	.LLSDAC1489:
 1463 00dc FF       		.byte	0xff
 1464 00dd FF       		.byte	0xff
 1465 00de 01       		.byte	0x1
 1466 00df 04       		.uleb128 .LLSDACSEC1489-.LLSDACSBC1489
 1467              	.LLSDACSBC1489:
 1468 00e0 0B       		.uleb128 .LEHB28-.LCOLDB12
 1469 00e1 05       		.uleb128 .LEHE28-.LEHB28
 1470 00e2 00       		.uleb128 0
 1471 00e3 00       		.uleb128 0
 1472              	.LLSDACSEC1489:
 1473              		.section	.text.unlikely
 1474              		.text
 1476              		.section	.text.unlikely
 1478              	.LCOLDE12:
 1479              		.text
 1480              	.LHOTE12:
 1481              		.align 2
 1482 0458 0F1F8400 		.p2align 4
 1482      00000000 
 1484              	_ZN12_GLOBAL__N_115SuiteTestSuite263TestDummyFixtureSimilarlyNamedFixtureTestsInDifferentSuitesWork
 1485              	.LFB1491:
 1486              		.cfi_startproc
 1487 0460 F30F1EFA 		endbr64
 1488 0464 488D0500 		leaq	16+_ZTVN12_GLOBAL__N_115SuiteTestSuite263TestDummyFixtureSimilarlyNamedFixtureTestsInDifferen
 1488      000000
 1489 046b 488907   		movq	%rax, (%rdi)
 1490 046e E9000000 		jmp	_ZN8UnitTest4TestD2Ev@PLT
 1490      00
 1491              		.cfi_endproc
 1492              	.LFE1491:
 1494              		.set	_ZN12_GLOBAL__N_115SuiteTestSuite263TestDummyFixtureSimilarlyNamedFixtureTestsInDifferentSuit
 1495              		.section	.text.unlikely
 1496              		.align 2
 1497              	.LCOLDB13:
 1498              		.text
 1499              	.LHOTB13:
 1500 0473 90       		.align 2
 1501 0474 66662E0F 		.p2align 4
 1501      1F840000 
 1501      00000090 
 1503              	_ZN12_GLOBAL__N_115SuiteTestSuite263TestDummyFixtureSimilarlyNamedFixtureTestsInDifferentSuitesWork
 1504              	.LFB1493:
 1505              		.cfi_startproc
 1506              		.cfi_personality 0x9b,DW.ref.__gxx_personality_v0
 1507              		.cfi_lsda 0x1b,.LLSDA1493
 1508 0480 F30F1EFA 		endbr64
 1509 0484 4154     		pushq	%r12
 1510              		.cfi_def_cfa_offset 16
 1511              		.cfi_offset 12, -16
 1512 0486 488D0500 		leaq	16+_ZTVN12_GLOBAL__N_115SuiteTestSuite263TestDummyFixtureSimilarlyNamedFixtureTestsInDifferen
 1512      000000
 1513 048d 55       		pushq	%rbp
 1514              		.cfi_def_cfa_offset 24
 1515              		.cfi_offset 6, -24
 1516 048e 4889FD   		movq	%rdi, %rbp
 1517 0491 4883EC08 		subq	$8, %rsp
 1518              		.cfi_def_cfa_offset 32
 1519 0495 488907   		movq	%rax, (%rdi)
 1520              	.LEHB29:
 1521 0498 E8000000 		call	_ZN8UnitTest4TestD2Ev@PLT
 1521      00
 1522              	.LEHE29:
 1523 049d 4883C408 		addq	$8, %rsp
 1524              		.cfi_remember_state
 1525              		.cfi_def_cfa_offset 24
 1526 04a1 4889EF   		movq	%rbp, %rdi
 1527 04a4 5D       		popq	%rbp
 1528              		.cfi_def_cfa_offset 16
 1529 04a5 415C     		popq	%r12
 1530              		.cfi_def_cfa_offset 8
 1531 04a7 E9000000 		jmp	_ZdlPv@PLT
 1531      00
 1532              	.L78:
 1533              		.cfi_restore_state
 1534 04ac F30F1EFA 		endbr64
 1535 04b0 4989C4   		movq	%rax, %r12
 1536 04b3 E9000000 		jmp	.L77
 1536      00
 1537              		.section	.gcc_except_table
 1538              	.LLSDA1493:
 1539 00e4 FF       		.byte	0xff
 1540 00e5 FF       		.byte	0xff
 1541 00e6 01       		.byte	0x1
 1542 00e7 04       		.uleb128 .LLSDACSE1493-.LLSDACSB1493
 1543              	.LLSDACSB1493:
 1544 00e8 18       		.uleb128 .LEHB29-.LFB1493
 1545 00e9 05       		.uleb128 .LEHE29-.LEHB29
 1546 00ea 2C       		.uleb128 .L78-.LFB1493
 1547 00eb 00       		.uleb128 0
 1548              	.LLSDACSE1493:
 1549              		.text
 1550              		.cfi_endproc
 1551              		.section	.text.unlikely
 1552              		.cfi_startproc
 1553              		.cfi_personality 0x9b,DW.ref.__gxx_personality_v0
 1554              		.cfi_lsda 0x1b,.LLSDAC1493
 1556              	_ZN12_GLOBAL__N_115SuiteTestSuite263TestDummyFixtureSimilarlyNamedFixtureTestsInDifferentSuitesWork
 1557              	.LFSB1493:
 1558              	.L77:
 1559              		.cfi_def_cfa_offset 32
 1560              		.cfi_offset 6, -24
 1561              		.cfi_offset 12, -16
 1562 010e 4889EF   		movq	%rbp, %rdi
 1563 0111 E8000000 		call	_ZdlPv@PLT
 1563      00
 1564 0116 4C89E7   		movq	%r12, %rdi
 1565              	.LEHB30:
 1566 0119 E8000000 		call	_Unwind_Resume@PLT
 1566      00
 1567              	.LEHE30:
 1568              		.cfi_endproc
 1569              	.LFE1493:
 1570              		.section	.gcc_except_table
 1571              	.LLSDAC1493:
 1572 00ec FF       		.byte	0xff
 1573 00ed FF       		.byte	0xff
 1574 00ee 01       		.byte	0x1
 1575 00ef 04       		.uleb128 .LLSDACSEC1493-.LLSDACSBC1493
 1576              	.LLSDACSBC1493:
 1577 00f0 0B       		.uleb128 .LEHB30-.LCOLDB13
 1578 00f1 05       		.uleb128 .LEHE30-.LEHB30
 1579 00f2 00       		.uleb128 0
 1580 00f3 00       		.uleb128 0
 1581              	.LLSDACSEC1493:
 1582              		.section	.text.unlikely
 1583              		.text
 1585              		.section	.text.unlikely
 1587              	.LCOLDE13:
 1588              		.text
 1589              	.LHOTE13:
 1590              		.align 2
 1591 04b8 0F1F8400 		.p2align 4
 1591      00000000 
 1593              	_ZN12_GLOBAL__N_115SuiteTestSuite244TestSimilarlyNamedTestsInDifferentSuitesWorkD2Ev:
 1594              	.LFB1495:
 1595              		.cfi_startproc
 1596 04c0 F30F1EFA 		endbr64
 1597 04c4 488D0500 		leaq	16+_ZTVN12_GLOBAL__N_115SuiteTestSuite244TestSimilarlyNamedTestsInDifferentSuitesWorkE(%rip),
 1597      000000
 1598 04cb 488907   		movq	%rax, (%rdi)
 1599 04ce E9000000 		jmp	_ZN8UnitTest4TestD2Ev@PLT
 1599      00
 1600              		.cfi_endproc
 1601              	.LFE1495:
 1603              		.set	_ZN12_GLOBAL__N_115SuiteTestSuite244TestSimilarlyNamedTestsInDifferentSuitesWorkD1Ev,_ZN12_GL
 1604              		.section	.text.unlikely
 1605              		.align 2
 1606              	.LCOLDB14:
 1607              		.text
 1608              	.LHOTB14:
 1609 04d3 90       		.align 2
 1610 04d4 66662E0F 		.p2align 4
 1610      1F840000 
 1610      00000090 
 1612              	_ZN12_GLOBAL__N_115SuiteTestSuite244TestSimilarlyNamedTestsInDifferentSuitesWorkD0Ev:
 1613              	.LFB1497:
 1614              		.cfi_startproc
 1615              		.cfi_personality 0x9b,DW.ref.__gxx_personality_v0
 1616              		.cfi_lsda 0x1b,.LLSDA1497
 1617 04e0 F30F1EFA 		endbr64
 1618 04e4 4154     		pushq	%r12
 1619              		.cfi_def_cfa_offset 16
 1620              		.cfi_offset 12, -16
 1621 04e6 488D0500 		leaq	16+_ZTVN12_GLOBAL__N_115SuiteTestSuite244TestSimilarlyNamedTestsInDifferentSuitesWorkE(%rip),
 1621      000000
 1622 04ed 55       		pushq	%rbp
 1623              		.cfi_def_cfa_offset 24
 1624              		.cfi_offset 6, -24
 1625 04ee 4889FD   		movq	%rdi, %rbp
 1626 04f1 4883EC08 		subq	$8, %rsp
 1627              		.cfi_def_cfa_offset 32
 1628 04f5 488907   		movq	%rax, (%rdi)
 1629              	.LEHB31:
 1630 04f8 E8000000 		call	_ZN8UnitTest4TestD2Ev@PLT
 1630      00
 1631              	.LEHE31:
 1632 04fd 4883C408 		addq	$8, %rsp
 1633              		.cfi_remember_state
 1634              		.cfi_def_cfa_offset 24
 1635 0501 4889EF   		movq	%rbp, %rdi
 1636 0504 5D       		popq	%rbp
 1637              		.cfi_def_cfa_offset 16
 1638 0505 415C     		popq	%r12
 1639              		.cfi_def_cfa_offset 8
 1640 0507 E9000000 		jmp	_ZdlPv@PLT
 1640      00
 1641              	.L83:
 1642              		.cfi_restore_state
 1643 050c F30F1EFA 		endbr64
 1644 0510 4989C4   		movq	%rax, %r12
 1645 0513 E9000000 		jmp	.L82
 1645      00
 1646              		.section	.gcc_except_table
 1647              	.LLSDA1497:
 1648 00f4 FF       		.byte	0xff
 1649 00f5 FF       		.byte	0xff
 1650 00f6 01       		.byte	0x1
 1651 00f7 04       		.uleb128 .LLSDACSE1497-.LLSDACSB1497
 1652              	.LLSDACSB1497:
 1653 00f8 18       		.uleb128 .LEHB31-.LFB1497
 1654 00f9 05       		.uleb128 .LEHE31-.LEHB31
 1655 00fa 2C       		.uleb128 .L83-.LFB1497
 1656 00fb 00       		.uleb128 0
 1657              	.LLSDACSE1497:
 1658              		.text
 1659              		.cfi_endproc
 1660              		.section	.text.unlikely
 1661              		.cfi_startproc
 1662              		.cfi_personality 0x9b,DW.ref.__gxx_personality_v0
 1663              		.cfi_lsda 0x1b,.LLSDAC1497
 1665              	_ZN12_GLOBAL__N_115SuiteTestSuite244TestSimilarlyNamedTestsInDifferentSuitesWorkD0Ev.cold:
 1666              	.LFSB1497:
 1667              	.L82:
 1668              		.cfi_def_cfa_offset 32
 1669              		.cfi_offset 6, -24
 1670              		.cfi_offset 12, -16
 1671 011e 4889EF   		movq	%rbp, %rdi
 1672 0121 E8000000 		call	_ZdlPv@PLT
 1672      00
 1673 0126 4C89E7   		movq	%r12, %rdi
 1674              	.LEHB32:
 1675 0129 E8000000 		call	_Unwind_Resume@PLT
 1675      00
 1676              	.LEHE32:
 1677              		.cfi_endproc
 1678              	.LFE1497:
 1679              		.section	.gcc_except_table
 1680              	.LLSDAC1497:
 1681 00fc FF       		.byte	0xff
 1682 00fd FF       		.byte	0xff
 1683 00fe 01       		.byte	0x1
 1684 00ff 04       		.uleb128 .LLSDACSEC1497-.LLSDACSBC1497
 1685              	.LLSDACSBC1497:
 1686 0100 0B       		.uleb128 .LEHB32-.LCOLDB14
 1687 0101 05       		.uleb128 .LEHE32-.LEHB32
 1688 0102 00       		.uleb128 0
 1689 0103 00       		.uleb128 0
 1690              	.LLSDACSEC1497:
 1691              		.section	.text.unlikely
 1692              		.text
 1694              		.section	.text.unlikely
 1696              	.LCOLDE14:
 1697              		.text
 1698              	.LHOTE14:
 1699              		.align 2
 1700 0518 0F1F8400 		.p2align 4
 1700      00000000 
 1702              	_ZN12_GLOBAL__N_115SuiteTestSuite163TestDummyFixtureSimilarlyNamedFixtureTestsInDifferentSuitesWork
 1703              	.LFB1499:
 1704              		.cfi_startproc
 1705 0520 F30F1EFA 		endbr64
 1706 0524 488D0500 		leaq	16+_ZTVN12_GLOBAL__N_115SuiteTestSuite163TestDummyFixtureSimilarlyNamedFixtureTestsInDifferen
 1706      000000
 1707 052b 488907   		movq	%rax, (%rdi)
 1708 052e E9000000 		jmp	_ZN8UnitTest4TestD2Ev@PLT
 1708      00
 1709              		.cfi_endproc
 1710              	.LFE1499:
 1712              		.set	_ZN12_GLOBAL__N_115SuiteTestSuite163TestDummyFixtureSimilarlyNamedFixtureTestsInDifferentSuit
 1713              		.section	.text.unlikely
 1714              		.align 2
 1715              	.LCOLDB15:
 1716              		.text
 1717              	.LHOTB15:
 1718 0533 90       		.align 2
 1719 0534 66662E0F 		.p2align 4
 1719      1F840000 
 1719      00000090 
 1721              	_ZN12_GLOBAL__N_115SuiteTestSuite163TestDummyFixtureSimilarlyNamedFixtureTestsInDifferentSuitesWork
 1722              	.LFB1501:
 1723              		.cfi_startproc
 1724              		.cfi_personality 0x9b,DW.ref.__gxx_personality_v0
 1725              		.cfi_lsda 0x1b,.LLSDA1501
 1726 0540 F30F1EFA 		endbr64
 1727 0544 4154     		pushq	%r12
 1728              		.cfi_def_cfa_offset 16
 1729              		.cfi_offset 12, -16
 1730 0546 488D0500 		leaq	16+_ZTVN12_GLOBAL__N_115SuiteTestSuite163TestDummyFixtureSimilarlyNamedFixtureTestsInDifferen
 1730      000000
 1731 054d 55       		pushq	%rbp
 1732              		.cfi_def_cfa_offset 24
 1733              		.cfi_offset 6, -24
 1734 054e 4889FD   		movq	%rdi, %rbp
 1735 0551 4883EC08 		subq	$8, %rsp
 1736              		.cfi_def_cfa_offset 32
 1737 0555 488907   		movq	%rax, (%rdi)
 1738              	.LEHB33:
 1739 0558 E8000000 		call	_ZN8UnitTest4TestD2Ev@PLT
 1739      00
 1740              	.LEHE33:
 1741 055d 4883C408 		addq	$8, %rsp
 1742              		.cfi_remember_state
 1743              		.cfi_def_cfa_offset 24
 1744 0561 4889EF   		movq	%rbp, %rdi
 1745 0564 5D       		popq	%rbp
 1746              		.cfi_def_cfa_offset 16
 1747 0565 415C     		popq	%r12
 1748              		.cfi_def_cfa_offset 8
 1749 0567 E9000000 		jmp	_ZdlPv@PLT
 1749      00
 1750              	.L88:
 1751              		.cfi_restore_state
 1752 056c F30F1EFA 		endbr64
 1753 0570 4989C4   		movq	%rax, %r12
 1754 0573 E9000000 		jmp	.L87
 1754      00
 1755              		.section	.gcc_except_table
 1756              	.LLSDA1501:
 1757 0104 FF       		.byte	0xff
 1758 0105 FF       		.byte	0xff
 1759 0106 01       		.byte	0x1
 1760 0107 04       		.uleb128 .LLSDACSE1501-.LLSDACSB1501
 1761              	.LLSDACSB1501:
 1762 0108 18       		.uleb128 .LEHB33-.LFB1501
 1763 0109 05       		.uleb128 .LEHE33-.LEHB33
 1764 010a 2C       		.uleb128 .L88-.LFB1501
 1765 010b 00       		.uleb128 0
 1766              	.LLSDACSE1501:
 1767              		.text
 1768              		.cfi_endproc
 1769              		.section	.text.unlikely
 1770              		.cfi_startproc
 1771              		.cfi_personality 0x9b,DW.ref.__gxx_personality_v0
 1772              		.cfi_lsda 0x1b,.LLSDAC1501
 1774              	_ZN12_GLOBAL__N_115SuiteTestSuite163TestDummyFixtureSimilarlyNamedFixtureTestsInDifferentSuitesWork
 1775              	.LFSB1501:
 1776              	.L87:
 1777              		.cfi_def_cfa_offset 32
 1778              		.cfi_offset 6, -24
 1779              		.cfi_offset 12, -16
 1780 012e 4889EF   		movq	%rbp, %rdi
 1781 0131 E8000000 		call	_ZdlPv@PLT
 1781      00
 1782 0136 4C89E7   		movq	%r12, %rdi
 1783              	.LEHB34:
 1784 0139 E8000000 		call	_Unwind_Resume@PLT
 1784      00
 1785              	.LEHE34:
 1786              		.cfi_endproc
 1787              	.LFE1501:
 1788              		.section	.gcc_except_table
 1789              	.LLSDAC1501:
 1790 010c FF       		.byte	0xff
 1791 010d FF       		.byte	0xff
 1792 010e 01       		.byte	0x1
 1793 010f 04       		.uleb128 .LLSDACSEC1501-.LLSDACSBC1501
 1794              	.LLSDACSBC1501:
 1795 0110 0B       		.uleb128 .LEHB34-.LCOLDB15
 1796 0111 05       		.uleb128 .LEHE34-.LEHB34
 1797 0112 00       		.uleb128 0
 1798 0113 00       		.uleb128 0
 1799              	.LLSDACSEC1501:
 1800              		.section	.text.unlikely
 1801              		.text
 1803              		.section	.text.unlikely
 1805              	.LCOLDE15:
 1806              		.text
 1807              	.LHOTE15:
 1808              		.align 2
 1809 0578 0F1F8400 		.p2align 4
 1809      00000000 
 1811              	_ZN12_GLOBAL__N_115SuiteTestSuite144TestSimilarlyNamedTestsInDifferentSuitesWorkD2Ev:
 1812              	.LFB1503:
 1813              		.cfi_startproc
 1814 0580 F30F1EFA 		endbr64
 1815 0584 488D0500 		leaq	16+_ZTVN12_GLOBAL__N_115SuiteTestSuite144TestSimilarlyNamedTestsInDifferentSuitesWorkE(%rip),
 1815      000000
 1816 058b 488907   		movq	%rax, (%rdi)
 1817 058e E9000000 		jmp	_ZN8UnitTest4TestD2Ev@PLT
 1817      00
 1818              		.cfi_endproc
 1819              	.LFE1503:
 1821              		.set	_ZN12_GLOBAL__N_115SuiteTestSuite144TestSimilarlyNamedTestsInDifferentSuitesWorkD1Ev,_ZN12_GL
 1822              		.section	.text.unlikely
 1823              		.align 2
 1824              	.LCOLDB16:
 1825              		.text
 1826              	.LHOTB16:
 1827 0593 90       		.align 2
 1828 0594 66662E0F 		.p2align 4
 1828      1F840000 
 1828      00000090 
 1830              	_ZN12_GLOBAL__N_115SuiteTestSuite144TestSimilarlyNamedTestsInDifferentSuitesWorkD0Ev:
 1831              	.LFB1505:
 1832              		.cfi_startproc
 1833              		.cfi_personality 0x9b,DW.ref.__gxx_personality_v0
 1834              		.cfi_lsda 0x1b,.LLSDA1505
 1835 05a0 F30F1EFA 		endbr64
 1836 05a4 4154     		pushq	%r12
 1837              		.cfi_def_cfa_offset 16
 1838              		.cfi_offset 12, -16
 1839 05a6 488D0500 		leaq	16+_ZTVN12_GLOBAL__N_115SuiteTestSuite144TestSimilarlyNamedTestsInDifferentSuitesWorkE(%rip),
 1839      000000
 1840 05ad 55       		pushq	%rbp
 1841              		.cfi_def_cfa_offset 24
 1842              		.cfi_offset 6, -24
 1843 05ae 4889FD   		movq	%rdi, %rbp
 1844 05b1 4883EC08 		subq	$8, %rsp
 1845              		.cfi_def_cfa_offset 32
 1846 05b5 488907   		movq	%rax, (%rdi)
 1847              	.LEHB35:
 1848 05b8 E8000000 		call	_ZN8UnitTest4TestD2Ev@PLT
 1848      00
 1849              	.LEHE35:
 1850 05bd 4883C408 		addq	$8, %rsp
 1851              		.cfi_remember_state
 1852              		.cfi_def_cfa_offset 24
 1853 05c1 4889EF   		movq	%rbp, %rdi
 1854 05c4 5D       		popq	%rbp
 1855              		.cfi_def_cfa_offset 16
 1856 05c5 415C     		popq	%r12
 1857              		.cfi_def_cfa_offset 8
 1858 05c7 E9000000 		jmp	_ZdlPv@PLT
 1858      00
 1859              	.L93:
 1860              		.cfi_restore_state
 1861 05cc F30F1EFA 		endbr64
 1862 05d0 4989C4   		movq	%rax, %r12
 1863 05d3 E9000000 		jmp	.L92
 1863      00
 1864              		.section	.gcc_except_table
 1865              	.LLSDA1505:
 1866 0114 FF       		.byte	0xff
 1867 0115 FF       		.byte	0xff
 1868 0116 01       		.byte	0x1
 1869 0117 04       		.uleb128 .LLSDACSE1505-.LLSDACSB1505
 1870              	.LLSDACSB1505:
 1871 0118 18       		.uleb128 .LEHB35-.LFB1505
 1872 0119 05       		.uleb128 .LEHE35-.LEHB35
 1873 011a 2C       		.uleb128 .L93-.LFB1505
 1874 011b 00       		.uleb128 0
 1875              	.LLSDACSE1505:
 1876              		.text
 1877              		.cfi_endproc
 1878              		.section	.text.unlikely
 1879              		.cfi_startproc
 1880              		.cfi_personality 0x9b,DW.ref.__gxx_personality_v0
 1881              		.cfi_lsda 0x1b,.LLSDAC1505
 1883              	_ZN12_GLOBAL__N_115SuiteTestSuite144TestSimilarlyNamedTestsInDifferentSuitesWorkD0Ev.cold:
 1884              	.LFSB1505:
 1885              	.L92:
 1886              		.cfi_def_cfa_offset 32
 1887              		.cfi_offset 6, -24
 1888              		.cfi_offset 12, -16
 1889 013e 4889EF   		movq	%rbp, %rdi
 1890 0141 E8000000 		call	_ZdlPv@PLT
 1890      00
 1891 0146 4C89E7   		movq	%r12, %rdi
 1892              	.LEHB36:
 1893 0149 E8000000 		call	_Unwind_Resume@PLT
 1893      00
 1894              	.LEHE36:
 1895              		.cfi_endproc
 1896              	.LFE1505:
 1897              		.section	.gcc_except_table
 1898              	.LLSDAC1505:
 1899 011c FF       		.byte	0xff
 1900 011d FF       		.byte	0xff
 1901 011e 01       		.byte	0x1
 1902 011f 04       		.uleb128 .LLSDACSEC1505-.LLSDACSBC1505
 1903              	.LLSDACSBC1505:
 1904 0120 0B       		.uleb128 .LEHB36-.LCOLDB16
 1905 0121 05       		.uleb128 .LEHE36-.LEHB36
 1906 0122 00       		.uleb128 0
 1907 0123 00       		.uleb128 0
 1908              	.LLSDACSEC1505:
 1909              		.section	.text.unlikely
 1910              		.text
 1912              		.section	.text.unlikely
 1914              	.LCOLDE16:
 1915              		.text
 1916              	.LHOTE16:
 1917              		.align 2
 1918 05d8 0F1F8400 		.p2align 4
 1918      00000000 
 1920              	_ZN12_GLOBAL__N_157TestExceptionsInFixtureAreReportedAsHappeningInTheFixtureD2Ev:
 1921              	.LFB1507:
 1922              		.cfi_startproc
 1923 05e0 F30F1EFA 		endbr64
 1924 05e4 488D0500 		leaq	16+_ZTVN12_GLOBAL__N_157TestExceptionsInFixtureAreReportedAsHappeningInTheFixtureE(%rip), %ra
 1924      000000
 1925 05eb 488907   		movq	%rax, (%rdi)
 1926 05ee E9000000 		jmp	_ZN8UnitTest4TestD2Ev@PLT
 1926      00
 1927              		.cfi_endproc
 1928              	.LFE1507:
 1930              		.set	_ZN12_GLOBAL__N_157TestExceptionsInFixtureAreReportedAsHappeningInTheFixtureD1Ev,_ZN12_GLOBAL
 1931              		.section	.text.unlikely
 1932              		.align 2
 1933              	.LCOLDB17:
 1934              		.text
 1935              	.LHOTB17:
 1936 05f3 90       		.align 2
 1937 05f4 66662E0F 		.p2align 4
 1937      1F840000 
 1937      00000090 
 1939              	_ZN12_GLOBAL__N_157TestExceptionsInFixtureAreReportedAsHappeningInTheFixtureD0Ev:
 1940              	.LFB1509:
 1941              		.cfi_startproc
 1942              		.cfi_personality 0x9b,DW.ref.__gxx_personality_v0
 1943              		.cfi_lsda 0x1b,.LLSDA1509
 1944 0600 F30F1EFA 		endbr64
 1945 0604 4154     		pushq	%r12
 1946              		.cfi_def_cfa_offset 16
 1947              		.cfi_offset 12, -16
 1948 0606 488D0500 		leaq	16+_ZTVN12_GLOBAL__N_157TestExceptionsInFixtureAreReportedAsHappeningInTheFixtureE(%rip), %ra
 1948      000000
 1949 060d 55       		pushq	%rbp
 1950              		.cfi_def_cfa_offset 24
 1951              		.cfi_offset 6, -24
 1952 060e 4889FD   		movq	%rdi, %rbp
 1953 0611 4883EC08 		subq	$8, %rsp
 1954              		.cfi_def_cfa_offset 32
 1955 0615 488907   		movq	%rax, (%rdi)
 1956              	.LEHB37:
 1957 0618 E8000000 		call	_ZN8UnitTest4TestD2Ev@PLT
 1957      00
 1958              	.LEHE37:
 1959 061d 4883C408 		addq	$8, %rsp
 1960              		.cfi_remember_state
 1961              		.cfi_def_cfa_offset 24
 1962 0621 4889EF   		movq	%rbp, %rdi
 1963 0624 5D       		popq	%rbp
 1964              		.cfi_def_cfa_offset 16
 1965 0625 415C     		popq	%r12
 1966              		.cfi_def_cfa_offset 8
 1967 0627 E9000000 		jmp	_ZdlPv@PLT
 1967      00
 1968              	.L98:
 1969              		.cfi_restore_state
 1970 062c F30F1EFA 		endbr64
 1971 0630 4989C4   		movq	%rax, %r12
 1972 0633 E9000000 		jmp	.L97
 1972      00
 1973              		.section	.gcc_except_table
 1974              	.LLSDA1509:
 1975 0124 FF       		.byte	0xff
 1976 0125 FF       		.byte	0xff
 1977 0126 01       		.byte	0x1
 1978 0127 04       		.uleb128 .LLSDACSE1509-.LLSDACSB1509
 1979              	.LLSDACSB1509:
 1980 0128 18       		.uleb128 .LEHB37-.LFB1509
 1981 0129 05       		.uleb128 .LEHE37-.LEHB37
 1982 012a 2C       		.uleb128 .L98-.LFB1509
 1983 012b 00       		.uleb128 0
 1984              	.LLSDACSE1509:
 1985              		.text
 1986              		.cfi_endproc
 1987              		.section	.text.unlikely
 1988              		.cfi_startproc
 1989              		.cfi_personality 0x9b,DW.ref.__gxx_personality_v0
 1990              		.cfi_lsda 0x1b,.LLSDAC1509
 1992              	_ZN12_GLOBAL__N_157TestExceptionsInFixtureAreReportedAsHappeningInTheFixtureD0Ev.cold:
 1993              	.LFSB1509:
 1994              	.L97:
 1995              		.cfi_def_cfa_offset 32
 1996              		.cfi_offset 6, -24
 1997              		.cfi_offset 12, -16
 1998 014e 4889EF   		movq	%rbp, %rdi
 1999 0151 E8000000 		call	_ZdlPv@PLT
 1999      00
 2000 0156 4C89E7   		movq	%r12, %rdi
 2001              	.LEHB38:
 2002 0159 E8000000 		call	_Unwind_Resume@PLT
 2002      00
 2003              	.LEHE38:
 2004              		.cfi_endproc
 2005              	.LFE1509:
 2006              		.section	.gcc_except_table
 2007              	.LLSDAC1509:
 2008 012c FF       		.byte	0xff
 2009 012d FF       		.byte	0xff
 2010 012e 01       		.byte	0x1
 2011 012f 04       		.uleb128 .LLSDACSEC1509-.LLSDACSBC1509
 2012              	.LLSDACSBC1509:
 2013 0130 0B       		.uleb128 .LEHB38-.LCOLDB17
 2014 0131 05       		.uleb128 .LEHE38-.LEHB38
 2015 0132 00       		.uleb128 0
 2016 0133 00       		.uleb128 0
 2017              	.LLSDACSEC1509:
 2018              		.section	.text.unlikely
 2019              		.text
 2021              		.section	.text.unlikely
 2023              	.LCOLDE17:
 2024              		.text
 2025              	.LHOTE17:
 2026              		.align 2
 2027 0638 0F1F8400 		.p2align 4
 2027      00000000 
 2029              	_ZN12_GLOBAL__N_132TestThrowingThingieDummyTestNameD2Ev:
 2030              	.LFB1511:
 2031              		.cfi_startproc
 2032 0640 F30F1EFA 		endbr64
 2033 0644 488D0500 		leaq	16+_ZTVN12_GLOBAL__N_132TestThrowingThingieDummyTestNameE(%rip), %rax
 2033      000000
 2034 064b 488907   		movq	%rax, (%rdi)
 2035 064e E9000000 		jmp	_ZN8UnitTest4TestD2Ev@PLT
 2035      00
 2036              		.cfi_endproc
 2037              	.LFE1511:
 2039              		.set	_ZN12_GLOBAL__N_132TestThrowingThingieDummyTestNameD1Ev,_ZN12_GLOBAL__N_132TestThrowingThingi
 2040              		.section	.text.unlikely
 2041              		.align 2
 2042              	.LCOLDB18:
 2043              		.text
 2044              	.LHOTB18:
 2045 0653 90       		.align 2
 2046 0654 66662E0F 		.p2align 4
 2046      1F840000 
 2046      00000090 
 2048              	_ZN12_GLOBAL__N_132TestThrowingThingieDummyTestNameD0Ev:
 2049              	.LFB1513:
 2050              		.cfi_startproc
 2051              		.cfi_personality 0x9b,DW.ref.__gxx_personality_v0
 2052              		.cfi_lsda 0x1b,.LLSDA1513
 2053 0660 F30F1EFA 		endbr64
 2054 0664 4154     		pushq	%r12
 2055              		.cfi_def_cfa_offset 16
 2056              		.cfi_offset 12, -16
 2057 0666 488D0500 		leaq	16+_ZTVN12_GLOBAL__N_132TestThrowingThingieDummyTestNameE(%rip), %rax
 2057      000000
 2058 066d 55       		pushq	%rbp
 2059              		.cfi_def_cfa_offset 24
 2060              		.cfi_offset 6, -24
 2061 066e 4889FD   		movq	%rdi, %rbp
 2062 0671 4883EC08 		subq	$8, %rsp
 2063              		.cfi_def_cfa_offset 32
 2064 0675 488907   		movq	%rax, (%rdi)
 2065              	.LEHB39:
 2066 0678 E8000000 		call	_ZN8UnitTest4TestD2Ev@PLT
 2066      00
 2067              	.LEHE39:
 2068 067d 4883C408 		addq	$8, %rsp
 2069              		.cfi_remember_state
 2070              		.cfi_def_cfa_offset 24
 2071 0681 4889EF   		movq	%rbp, %rdi
 2072 0684 5D       		popq	%rbp
 2073              		.cfi_def_cfa_offset 16
 2074 0685 415C     		popq	%r12
 2075              		.cfi_def_cfa_offset 8
 2076 0687 E9000000 		jmp	_ZdlPv@PLT
 2076      00
 2077              	.L103:
 2078              		.cfi_restore_state
 2079 068c F30F1EFA 		endbr64
 2080 0690 4989C4   		movq	%rax, %r12
 2081 0693 E9000000 		jmp	.L102
 2081      00
 2082              		.section	.gcc_except_table
 2083              	.LLSDA1513:
 2084 0134 FF       		.byte	0xff
 2085 0135 FF       		.byte	0xff
 2086 0136 01       		.byte	0x1
 2087 0137 04       		.uleb128 .LLSDACSE1513-.LLSDACSB1513
 2088              	.LLSDACSB1513:
 2089 0138 18       		.uleb128 .LEHB39-.LFB1513
 2090 0139 05       		.uleb128 .LEHE39-.LEHB39
 2091 013a 2C       		.uleb128 .L103-.LFB1513
 2092 013b 00       		.uleb128 0
 2093              	.LLSDACSE1513:
 2094              		.text
 2095              		.cfi_endproc
 2096              		.section	.text.unlikely
 2097              		.cfi_startproc
 2098              		.cfi_personality 0x9b,DW.ref.__gxx_personality_v0
 2099              		.cfi_lsda 0x1b,.LLSDAC1513
 2101              	_ZN12_GLOBAL__N_132TestThrowingThingieDummyTestNameD0Ev.cold:
 2102              	.LFSB1513:
 2103              	.L102:
 2104              		.cfi_def_cfa_offset 32
 2105              		.cfi_offset 6, -24
 2106              		.cfi_offset 12, -16
 2107 015e 4889EF   		movq	%rbp, %rdi
 2108 0161 E8000000 		call	_ZdlPv@PLT
 2108      00
 2109 0166 4C89E7   		movq	%r12, %rdi
 2110              	.LEHB40:
 2111 0169 E8000000 		call	_Unwind_Resume@PLT
 2111      00
 2112              	.LEHE40:
 2113              		.cfi_endproc
 2114              	.LFE1513:
 2115              		.section	.gcc_except_table
 2116              	.LLSDAC1513:
 2117 013c FF       		.byte	0xff
 2118 013d FF       		.byte	0xff
 2119 013e 01       		.byte	0x1
 2120 013f 04       		.uleb128 .LLSDACSEC1513-.LLSDACSBC1513
 2121              	.LLSDACSBC1513:
 2122 0140 0B       		.uleb128 .LEHB40-.LCOLDB18
 2123 0141 05       		.uleb128 .LEHE40-.LEHB40
 2124 0142 00       		.uleb128 0
 2125 0143 00       		.uleb128 0
 2126              	.LLSDACSEC1513:
 2127              		.section	.text.unlikely
 2128              		.text
 2130              		.section	.text.unlikely
 2132              	.LCOLDE18:
 2133              		.text
 2134              	.LHOTE18:
 2135              		.align 2
 2136 0698 0F1F8400 		.p2align 4
 2136      00000000 
 2138              	_ZN12_GLOBAL__N_138TestTestsAreAddedToTheListThroughMacroD2Ev:
 2139              	.LFB1515:
 2140              		.cfi_startproc
 2141 06a0 F30F1EFA 		endbr64
 2142 06a4 488D0500 		leaq	16+_ZTVN12_GLOBAL__N_138TestTestsAreAddedToTheListThroughMacroE(%rip), %rax
 2142      000000
 2143 06ab 488907   		movq	%rax, (%rdi)
 2144 06ae E9000000 		jmp	_ZN8UnitTest4TestD2Ev@PLT
 2144      00
 2145              		.cfi_endproc
 2146              	.LFE1515:
 2148              		.set	_ZN12_GLOBAL__N_138TestTestsAreAddedToTheListThroughMacroD1Ev,_ZN12_GLOBAL__N_138TestTestsAre
 2149              		.section	.text.unlikely
 2150              		.align 2
 2151              	.LCOLDB19:
 2152              		.text
 2153              	.LHOTB19:
 2154 06b3 90       		.align 2
 2155 06b4 66662E0F 		.p2align 4
 2155      1F840000 
 2155      00000090 
 2157              	_ZN12_GLOBAL__N_138TestTestsAreAddedToTheListThroughMacroD0Ev:
 2158              	.LFB1517:
 2159              		.cfi_startproc
 2160              		.cfi_personality 0x9b,DW.ref.__gxx_personality_v0
 2161              		.cfi_lsda 0x1b,.LLSDA1517
 2162 06c0 F30F1EFA 		endbr64
 2163 06c4 4154     		pushq	%r12
 2164              		.cfi_def_cfa_offset 16
 2165              		.cfi_offset 12, -16
 2166 06c6 488D0500 		leaq	16+_ZTVN12_GLOBAL__N_138TestTestsAreAddedToTheListThroughMacroE(%rip), %rax
 2166      000000
 2167 06cd 55       		pushq	%rbp
 2168              		.cfi_def_cfa_offset 24
 2169              		.cfi_offset 6, -24
 2170 06ce 4889FD   		movq	%rdi, %rbp
 2171 06d1 4883EC08 		subq	$8, %rsp
 2172              		.cfi_def_cfa_offset 32
 2173 06d5 488907   		movq	%rax, (%rdi)
 2174              	.LEHB41:
 2175 06d8 E8000000 		call	_ZN8UnitTest4TestD2Ev@PLT
 2175      00
 2176              	.LEHE41:
 2177 06dd 4883C408 		addq	$8, %rsp
 2178              		.cfi_remember_state
 2179              		.cfi_def_cfa_offset 24
 2180 06e1 4889EF   		movq	%rbp, %rdi
 2181 06e4 5D       		popq	%rbp
 2182              		.cfi_def_cfa_offset 16
 2183 06e5 415C     		popq	%r12
 2184              		.cfi_def_cfa_offset 8
 2185 06e7 E9000000 		jmp	_ZdlPv@PLT
 2185      00
 2186              	.L108:
 2187              		.cfi_restore_state
 2188 06ec F30F1EFA 		endbr64
 2189 06f0 4989C4   		movq	%rax, %r12
 2190 06f3 E9000000 		jmp	.L107
 2190      00
 2191              		.section	.gcc_except_table
 2192              	.LLSDA1517:
 2193 0144 FF       		.byte	0xff
 2194 0145 FF       		.byte	0xff
 2195 0146 01       		.byte	0x1
 2196 0147 04       		.uleb128 .LLSDACSE1517-.LLSDACSB1517
 2197              	.LLSDACSB1517:
 2198 0148 18       		.uleb128 .LEHB41-.LFB1517
 2199 0149 05       		.uleb128 .LEHE41-.LEHB41
 2200 014a 2C       		.uleb128 .L108-.LFB1517
 2201 014b 00       		.uleb128 0
 2202              	.LLSDACSE1517:
 2203              		.text
 2204              		.cfi_endproc
 2205              		.section	.text.unlikely
 2206              		.cfi_startproc
 2207              		.cfi_personality 0x9b,DW.ref.__gxx_personality_v0
 2208              		.cfi_lsda 0x1b,.LLSDAC1517
 2210              	_ZN12_GLOBAL__N_138TestTestsAreAddedToTheListThroughMacroD0Ev.cold:
 2211              	.LFSB1517:
 2212              	.L107:
 2213              		.cfi_def_cfa_offset 32
 2214              		.cfi_offset 6, -24
 2215              		.cfi_offset 12, -16
 2216 016e 4889EF   		movq	%rbp, %rdi
 2217 0171 E8000000 		call	_ZdlPv@PLT
 2217      00
 2218 0176 4C89E7   		movq	%r12, %rdi
 2219              	.LEHB42:
 2220 0179 E8000000 		call	_Unwind_Resume@PLT
 2220      00
 2221              	.LEHE42:
 2222              		.cfi_endproc
 2223              	.LFE1517:
 2224              		.section	.gcc_except_table
 2225              	.LLSDAC1517:
 2226 014c FF       		.byte	0xff
 2227 014d FF       		.byte	0xff
 2228 014e 01       		.byte	0x1
 2229 014f 04       		.uleb128 .LLSDACSEC1517-.LLSDACSBC1517
 2230              	.LLSDACSBC1517:
 2231 0150 0B       		.uleb128 .LEHB42-.LCOLDB19
 2232 0151 05       		.uleb128 .LEHE42-.LEHB42
 2233 0152 00       		.uleb128 0
 2234 0153 00       		.uleb128 0
 2235              	.LLSDACSEC1517:
 2236              		.section	.text.unlikely
 2237              		.text
 2239              		.section	.text.unlikely
 2241              	.LCOLDE19:
 2242              		.text
 2243              	.LHOTE19:
 2244              		.align 2
 2245 06f8 0F1F8400 		.p2align 4
 2245      00000000 
 2247              	_ZN12_GLOBAL__N_113TestDummyTestD2Ev:
 2248              	.LFB1519:
 2249              		.cfi_startproc
 2250 0700 F30F1EFA 		endbr64
 2251 0704 488D0500 		leaq	16+_ZTVN12_GLOBAL__N_113TestDummyTestE(%rip), %rax
 2251      000000
 2252 070b 488907   		movq	%rax, (%rdi)
 2253 070e E9000000 		jmp	_ZN8UnitTest4TestD2Ev@PLT
 2253      00
 2254              		.cfi_endproc
 2255              	.LFE1519:
 2257              		.set	_ZN12_GLOBAL__N_113TestDummyTestD1Ev,_ZN12_GLOBAL__N_113TestDummyTestD2Ev
 2258              		.section	.text.unlikely
 2259              		.align 2
 2260              	.LCOLDB20:
 2261              		.text
 2262              	.LHOTB20:
 2263 0713 90       		.align 2
 2264 0714 66662E0F 		.p2align 4
 2264      1F840000 
 2264      00000090 
 2266              	_ZN12_GLOBAL__N_113TestDummyTestD0Ev:
 2267              	.LFB1521:
 2268              		.cfi_startproc
 2269              		.cfi_personality 0x9b,DW.ref.__gxx_personality_v0
 2270              		.cfi_lsda 0x1b,.LLSDA1521
 2271 0720 F30F1EFA 		endbr64
 2272 0724 4154     		pushq	%r12
 2273              		.cfi_def_cfa_offset 16
 2274              		.cfi_offset 12, -16
 2275 0726 488D0500 		leaq	16+_ZTVN12_GLOBAL__N_113TestDummyTestE(%rip), %rax
 2275      000000
 2276 072d 55       		pushq	%rbp
 2277              		.cfi_def_cfa_offset 24
 2278              		.cfi_offset 6, -24
 2279 072e 4889FD   		movq	%rdi, %rbp
 2280 0731 4883EC08 		subq	$8, %rsp
 2281              		.cfi_def_cfa_offset 32
 2282 0735 488907   		movq	%rax, (%rdi)
 2283              	.LEHB43:
 2284 0738 E8000000 		call	_ZN8UnitTest4TestD2Ev@PLT
 2284      00
 2285              	.LEHE43:
 2286 073d 4883C408 		addq	$8, %rsp
 2287              		.cfi_remember_state
 2288              		.cfi_def_cfa_offset 24
 2289 0741 4889EF   		movq	%rbp, %rdi
 2290 0744 5D       		popq	%rbp
 2291              		.cfi_def_cfa_offset 16
 2292 0745 415C     		popq	%r12
 2293              		.cfi_def_cfa_offset 8
 2294 0747 E9000000 		jmp	_ZdlPv@PLT
 2294      00
 2295              	.L113:
 2296              		.cfi_restore_state
 2297 074c F30F1EFA 		endbr64
 2298 0750 4989C4   		movq	%rax, %r12
 2299 0753 E9000000 		jmp	.L112
 2299      00
 2300              		.section	.gcc_except_table
 2301              	.LLSDA1521:
 2302 0154 FF       		.byte	0xff
 2303 0155 FF       		.byte	0xff
 2304 0156 01       		.byte	0x1
 2305 0157 04       		.uleb128 .LLSDACSE1521-.LLSDACSB1521
 2306              	.LLSDACSB1521:
 2307 0158 18       		.uleb128 .LEHB43-.LFB1521
 2308 0159 05       		.uleb128 .LEHE43-.LEHB43
 2309 015a 2C       		.uleb128 .L113-.LFB1521
 2310 015b 00       		.uleb128 0
 2311              	.LLSDACSE1521:
 2312              		.text
 2313              		.cfi_endproc
 2314              		.section	.text.unlikely
 2315              		.cfi_startproc
 2316              		.cfi_personality 0x9b,DW.ref.__gxx_personality_v0
 2317              		.cfi_lsda 0x1b,.LLSDAC1521
 2319              	_ZN12_GLOBAL__N_113TestDummyTestD0Ev.cold:
 2320              	.LFSB1521:
 2321              	.L112:
 2322              		.cfi_def_cfa_offset 32
 2323              		.cfi_offset 6, -24
 2324              		.cfi_offset 12, -16
 2325 017e 4889EF   		movq	%rbp, %rdi
 2326 0181 E8000000 		call	_ZdlPv@PLT
 2326      00
 2327 0186 4C89E7   		movq	%r12, %rdi
 2328              	.LEHB44:
 2329 0189 E8000000 		call	_Unwind_Resume@PLT
 2329      00
 2330              	.LEHE44:
 2331              		.cfi_endproc
 2332              	.LFE1521:
 2333              		.section	.gcc_except_table
 2334              	.LLSDAC1521:
 2335 015c FF       		.byte	0xff
 2336 015d FF       		.byte	0xff
 2337 015e 01       		.byte	0x1
 2338 015f 04       		.uleb128 .LLSDACSEC1521-.LLSDACSBC1521
 2339              	.LLSDACSBC1521:
 2340 0160 0B       		.uleb128 .LEHB44-.LCOLDB20
 2341 0161 05       		.uleb128 .LEHE44-.LEHB44
 2342 0162 00       		.uleb128 0
 2343 0163 00       		.uleb128 0
 2344              	.LLSDACSEC1521:
 2345              		.section	.text.unlikely
 2346              		.text
 2348              		.section	.text.unlikely
 2350              	.LCOLDE20:
 2351              		.text
 2352              	.LHOTE20:
 2353              		.section	.rodata.str1.8
 2354              		.align 8
 2355              	.LC21:
 2356 0080 6D616372 		.string	"macroTestList2.GetHead() != NULL"
 2356      6F546573 
 2356      744C6973 
 2356      74322E47 
 2356      65744865 
 2357              		.section	.rodata.str1.1,"aMS",@progbits,1
 2358              	.LC22:
 2359 0000 4D616372 		.string	"MacroTestHelper2"
 2359      6F546573 
 2359      7448656C 
 2359      70657232 
 2359      00
 2360              	.LC23:
 2361 0011 44656661 		.string	"DefaultSuite"
 2361      756C7453 
 2361      75697465 
 2361      00
 2362              		.section	.rodata.str1.8
 2363 00a1 00000000 		.align 8
 2363      000000
 2364              	.LC24:
 2365 00a8 556E6861 		.string	"Unhandled exception in CHECK(macroTestList2.GetHead() != NULL)"
 2365      6E646C65 
 2365      64206578 
 2365      63657074 
 2365      696F6E20 
 2366 00e7 00       		.align 8
 2367              	.LC25:
 2368 00e8 556E6861 		.string	"Unhandled exception in CHECK_EQUAL(\"MacroTestHelper2\", macroTestList2.GetHead()->m_deta
 2368      6E646C65 
 2368      64206578 
 2368      63657074 
 2368      696F6E20 
 2369 014d 000000   		.align 8
 2370              	.LC26:
 2371 0150 556E6861 		.string	"Unhandled exception in CHECK_EQUAL(\"DefaultSuite\", macroTestList2.GetHead()->m_details.
 2371      6E646C65 
 2371      64206578 
 2371      63657074 
 2371      696F6E20 
 2372              		.section	.text.unlikely
 2373              		.align 2
 2374              	.LCOLDB27:
 2375              		.text
 2376              	.LHOTB27:
 2377              		.align 2
 2378 0758 0F1F8400 		.p2align 4
 2378      00000000 
 2380              	_ZNK12_GLOBAL__N_153TestTestAddedWithTEST_FIXTURE_EXMacroGetsDefaultSuite7RunImplEv:
 2381              	.LFB1295:
 2382              		.cfi_startproc
 2383              		.cfi_personality 0x9b,DW.ref.__gxx_personality_v0
 2384              		.cfi_lsda 0x1b,.LLSDA1295
 2385 0760 F30F1EFA 		endbr64
 2386 0764 4155     		pushq	%r13
 2387              		.cfi_def_cfa_offset 16
 2388              		.cfi_offset 13, -16
 2389 0766 4154     		pushq	%r12
 2390              		.cfi_def_cfa_offset 24
 2391              		.cfi_offset 12, -24
 2392 0768 4C8D2500 		leaq	_ZN12_GLOBAL__N_114macroTestList2E(%rip), %r12
 2392      000000
 2393 076f 55       		pushq	%rbp
 2394              		.cfi_def_cfa_offset 32
 2395              		.cfi_offset 6, -32
 2396 0770 4C89E7   		movq	%r12, %rdi
 2397 0773 4883EC30 		subq	$48, %rsp
 2398              		.cfi_def_cfa_offset 80
 2399 0777 64488B04 		movq	%fs:40, %rax
 2399      25280000 
 2399      00
 2400 0780 48894424 		movq	%rax, 40(%rsp)
 2400      28
 2401 0785 31C0     		xorl	%eax, %eax
 2402              	.LEHB45:
 2403 0787 E8000000 		call	_ZNK8UnitTest8TestList7GetHeadEv@PLT
 2403      00
 2404              	.LEHE45:
 2405 078c 4885C0   		testq	%rax, %rax
 2406 078f 0F849B00 		je	.L134
 2406      0000
 2407              	.L116:
 2408              	.LEHB46:
 2409 0795 E8000000 		call	_ZN8UnitTest11CurrentTest7DetailsEv@PLT
 2409      00
 2410 079a 4889E5   		movq	%rsp, %rbp
 2411 079d 488B30   		movq	(%rax), %rsi
 2412 07a0 BA670000 		movl	$103, %edx
 2412      00
 2413 07a5 4889EF   		movq	%rbp, %rdi
 2414 07a8 E8000000 		call	_ZN8UnitTest11TestDetailsC1ERKS0_i@PLT
 2414      00
 2415 07ad 4C89E7   		movq	%r12, %rdi
 2416 07b0 E8000000 		call	_ZNK8UnitTest8TestList7GetHeadEv@PLT
 2416      00
 2417 07b5 4C8B6810 		movq	16(%rax), %r13
 2418 07b9 E8000000 		call	_ZN8UnitTest11CurrentTest7ResultsEv@PLT
 2418      00
 2419 07be 488B38   		movq	(%rax), %rdi
 2420 07c1 4889E9   		movq	%rbp, %rcx
 2421 07c4 4C89EA   		movq	%r13, %rdx
 2422 07c7 488D3500 		leaq	.LC22(%rip), %rsi
 2422      000000
 2423 07ce E8000000 		call	_ZN8UnitTest10CheckEqualERNS_11TestResultsEPKcS3_RKNS_11TestDetailsE@PLT
 2423      00
 2424              	.LEHE46:
 2425              	.L120:
 2426              	.LEHB47:
 2427 07d3 E8000000 		call	_ZN8UnitTest11CurrentTest7DetailsEv@PLT
 2427      00
 2428 07d8 488B30   		movq	(%rax), %rsi
 2429 07db BA680000 		movl	$104, %edx
 2429      00
 2430 07e0 4889EF   		movq	%rbp, %rdi
 2431 07e3 E8000000 		call	_ZN8UnitTest11TestDetailsC1ERKS0_i@PLT
 2431      00
 2432 07e8 4C89E7   		movq	%r12, %rdi
 2433 07eb E8000000 		call	_ZNK8UnitTest8TestList7GetHeadEv@PLT
 2433      00
 2434 07f0 4C8B6008 		movq	8(%rax), %r12
 2435 07f4 E8000000 		call	_ZN8UnitTest11CurrentTest7ResultsEv@PLT
 2435      00
 2436 07f9 488B38   		movq	(%rax), %rdi
 2437 07fc 4889E9   		movq	%rbp, %rcx
 2438 07ff 4C89E2   		movq	%r12, %rdx
 2439 0802 488D3500 		leaq	.LC23(%rip), %rsi
 2439      000000
 2440 0809 E8000000 		call	_ZN8UnitTest10CheckEqualERNS_11TestResultsEPKcS3_RKNS_11TestDetailsE@PLT
 2440      00
 2441              	.LEHE47:
 2442 080e 488B4424 		movq	40(%rsp), %rax
 2442      28
 2443 0813 64482B04 		subq	%fs:40, %rax
 2443      25280000 
 2443      00
 2444 081c 7549     		jne	.L135
 2445 081e 4883C430 		addq	$48, %rsp
 2446              		.cfi_remember_state
 2447              		.cfi_def_cfa_offset 32
 2448 0822 5D       		popq	%rbp
 2449              		.cfi_def_cfa_offset 24
 2450 0823 415C     		popq	%r12
 2451              		.cfi_def_cfa_offset 16
 2452 0825 415D     		popq	%r13
 2453              		.cfi_def_cfa_offset 8
 2454 0827 C3       		ret
 2455 0828 0F1F8400 		.p2align 4,,10
 2455      00000000 
 2456              		.p2align 3
 2457              	.L134:
 2458              		.cfi_restore_state
 2459              	.LEHB48:
 2460 0830 E8000000 		call	_ZN8UnitTest11CurrentTest7ResultsEv@PLT
 2460      00
 2461 0835 4C8B28   		movq	(%rax), %r13
 2462 0838 E8000000 		call	_ZN8UnitTest11CurrentTest7DetailsEv@PLT
 2462      00
 2463 083d 4889E5   		movq	%rsp, %rbp
 2464 0840 488B30   		movq	(%rax), %rsi
 2465 0843 BA660000 		movl	$102, %edx
 2465      00
 2466 0848 4889EF   		movq	%rbp, %rdi
 2467 084b E8000000 		call	_ZN8UnitTest11TestDetailsC1ERKS0_i@PLT
 2467      00
 2468 0850 488D1500 		leaq	.LC21(%rip), %rdx
 2468      000000
 2469 0857 4889EE   		movq	%rbp, %rsi
 2470 085a 4C89EF   		movq	%r13, %rdi
 2471 085d E8000000 		call	_ZN8UnitTest11TestResults13OnTestFailureERKNS_11TestDetailsEPKc@PLT
 2471      00
 2472              	.LEHE48:
 2473 0862 E92EFFFF 		jmp	.L116
 2473      FF
 2474              	.L135:
 2475 0867 E8000000 		call	__stack_chk_fail@PLT
 2475      00
 2476              	.L130:
 2477 086c F30F1EFA 		endbr64
 2478 0870 4889C7   		movq	%rax, %rdi
 2479 0873 E9000000 		jmp	.L122
 2479      00
 2480              	.L128:
 2481 0878 F30F1EFA 		endbr64
 2482 087c 4889C7   		movq	%rax, %rdi
 2483 087f E9000000 		jmp	.L119
 2483      00
 2484              	.L126:
 2485 0884 F30F1EFA 		endbr64
 2486 0888 4889C7   		movq	%rax, %rdi
 2487 088b E9000000 		jmp	.L117
 2487      00
 2488              		.section	.gcc_except_table
 2489              		.align 4
 2490              	.LLSDA1295:
 2491 0164 FF       		.byte	0xff
 2492 0165 9B       		.byte	0x9b
 2493 0166 1D       		.uleb128 .LLSDATT1295-.LLSDATTD1295
 2494              	.LLSDATTD1295:
 2495 0167 01       		.byte	0x1
 2496 0168 15       		.uleb128 .LLSDACSE1295-.LLSDACSB1295
 2497              	.LLSDACSB1295:
 2498 0169 27       		.uleb128 .LEHB45-.LFB1295
 2499 016a 05       		.uleb128 .LEHE45-.LEHB45
 2500 016b A402     		.uleb128 .L126-.LFB1295
 2501 016d 01       		.uleb128 0x1
 2502 016e 35       		.uleb128 .LEHB46-.LFB1295
 2503 016f 3E       		.uleb128 .LEHE46-.LEHB46
 2504 0170 9802     		.uleb128 .L128-.LFB1295
 2505 0172 01       		.uleb128 0x1
 2506 0173 73       		.uleb128 .LEHB47-.LFB1295
 2507 0174 3B       		.uleb128 .LEHE47-.LEHB47
 2508 0175 8C02     		.uleb128 .L130-.LFB1295
 2509 0177 01       		.uleb128 0x1
 2510 0178 D001     		.uleb128 .LEHB48-.LFB1295
 2511 017a 32       		.uleb128 .LEHE48-.LEHB48
 2512 017b A402     		.uleb128 .L126-.LFB1295
 2513 017d 01       		.uleb128 0x1
 2514              	.LLSDACSE1295:
 2515 017e 01       		.byte	0x1
 2516 017f 00       		.byte	0
 2517              		.align 4
 2518 0180 00000000 		.long	0
 2519              	
 2520              	.LLSDATT1295:
 2521              		.text
 2522              		.cfi_endproc
 2523              		.section	.text.unlikely
 2524              		.cfi_startproc
 2525              		.cfi_personality 0x9b,DW.ref.__gxx_personality_v0
 2526              		.cfi_lsda 0x1b,.LLSDAC1295
 2528              	_ZNK12_GLOBAL__N_153TestTestAddedWithTEST_FIXTURE_EXMacroGetsDefaultSuite7RunImplEv.cold:
 2529              	.LFSB1295:
 2530              	.L122:
 2531              		.cfi_def_cfa_offset 80
 2532              		.cfi_offset 6, -32
 2533              		.cfi_offset 12, -24
 2534              		.cfi_offset 13, -16
 2535 018e E8000000 		call	__cxa_begin_catch@PLT
 2535      00
 2536              	.LEHB49:
 2537 0193 E8000000 		call	_ZN8UnitTest11CurrentTest7ResultsEv@PLT
 2537      00
 2538 0198 4C8B20   		movq	(%rax), %r12
 2539 019b E8000000 		call	_ZN8UnitTest11CurrentTest7DetailsEv@PLT
 2539      00
 2540 01a0 488B30   		movq	(%rax), %rsi
 2541 01a3 BA680000 		movl	$104, %edx
 2541      00
 2542 01a8 4889EF   		movq	%rbp, %rdi
 2543 01ab E8000000 		call	_ZN8UnitTest11TestDetailsC1ERKS0_i@PLT
 2543      00
 2544 01b0 488D1500 		leaq	.LC26(%rip), %rdx
 2544      000000
 2545 01b7 4889EE   		movq	%rbp, %rsi
 2546 01ba 4C89E7   		movq	%r12, %rdi
 2547 01bd E8000000 		call	_ZN8UnitTest11TestResults13OnTestFailureERKNS_11TestDetailsEPKc@PLT
 2547      00
 2548              	.LEHE49:
 2549 01c2 488B4424 		movq	40(%rsp), %rax
 2549      28
 2550 01c7 64482B04 		subq	%fs:40, %rax
 2550      25280000 
 2550      00
 2551 01d0 0F859000 		jne	.L136
 2551      0000
 2552 01d6 4883C430 		addq	$48, %rsp
 2553              		.cfi_remember_state
 2554              		.cfi_def_cfa_offset 32
 2555 01da 5D       		popq	%rbp
 2556              		.cfi_def_cfa_offset 24
 2557 01db 415C     		popq	%r12
 2558              		.cfi_def_cfa_offset 16
 2559 01dd 415D     		popq	%r13
 2560              		.cfi_def_cfa_offset 8
 2561              	.LEHB50:
 2562 01df E9000000 		jmp	__cxa_end_catch@PLT
 2562      00
 2563              	.LEHE50:
 2564              	.L119:
 2565              		.cfi_restore_state
 2566 01e4 E8000000 		call	__cxa_begin_catch@PLT
 2566      00
 2567              	.LEHB51:
 2568 01e9 E8000000 		call	_ZN8UnitTest11CurrentTest7ResultsEv@PLT
 2568      00
 2569 01ee 4C8B28   		movq	(%rax), %r13
 2570 01f1 E8000000 		call	_ZN8UnitTest11CurrentTest7DetailsEv@PLT
 2570      00
 2571 01f6 4889E5   		movq	%rsp, %rbp
 2572 01f9 488B30   		movq	(%rax), %rsi
 2573 01fc BA670000 		movl	$103, %edx
 2573      00
 2574 0201 4889EF   		movq	%rbp, %rdi
 2575 0204 E8000000 		call	_ZN8UnitTest11TestDetailsC1ERKS0_i@PLT
 2575      00
 2576 0209 488D1500 		leaq	.LC25(%rip), %rdx
 2576      000000
 2577 0210 4889EE   		movq	%rbp, %rsi
 2578 0213 4C89EF   		movq	%r13, %rdi
 2579 0216 E8000000 		call	_ZN8UnitTest11TestResults13OnTestFailureERKNS_11TestDetailsEPKc@PLT
 2579      00
 2580              	.LEHE51:
 2581              	.LEHB52:
 2582 021b E8000000 		call	__cxa_end_catch@PLT
 2582      00
 2583              	.LEHE52:
 2584 0220 E9000000 		jmp	.L120
 2584      00
 2585              	.L117:
 2586 0225 E8000000 		call	__cxa_begin_catch@PLT
 2586      00
 2587              	.LEHB53:
 2588 022a E8000000 		call	_ZN8UnitTest11CurrentTest7ResultsEv@PLT
 2588      00
 2589 022f 4C8B28   		movq	(%rax), %r13
 2590 0232 E8000000 		call	_ZN8UnitTest11CurrentTest7DetailsEv@PLT
 2590      00
 2591 0237 4889E5   		movq	%rsp, %rbp
 2592 023a 488B30   		movq	(%rax), %rsi
 2593 023d BA660000 		movl	$102, %edx
 2593      00
 2594 0242 4889EF   		movq	%rbp, %rdi
 2595 0245 E8000000 		call	_ZN8UnitTest11TestDetailsC1ERKS0_i@PLT
 2595      00
 2596 024a 488D1500 		leaq	.LC24(%rip), %rdx
 2596      000000
 2597 0251 4889EE   		movq	%rbp, %rsi
 2598 0254 4C89EF   		movq	%r13, %rdi
 2599 0257 E8000000 		call	_ZN8UnitTest11TestResults13OnTestFailureERKNS_11TestDetailsEPKc@PLT
 2599      00
 2600              	.LEHE53:
 2601              	.LEHB54:
 2602 025c E8000000 		call	__cxa_end_catch@PLT
 2602      00
 2603              	.LEHE54:
 2604 0261 E9000000 		jmp	.L116
 2604      00
 2605              	.L136:
 2606 0266 E8000000 		call	__stack_chk_fail@PLT
 2606      00
 2607              	.L129:
 2608 026b F30F1EFA 		endbr64
 2609 026f 4889C5   		movq	%rax, %rbp
 2610 0272 E8000000 		call	__cxa_end_catch@PLT
 2610      00
 2611 0277 4889EF   		movq	%rbp, %rdi
 2612              	.LEHB55:
 2613 027a E8000000 		call	_Unwind_Resume@PLT
 2613      00
 2614              	.LEHE55:
 2615              	.L131:
 2616 027f F30F1EFA 		endbr64
 2617 0283 4889C5   		movq	%rax, %rbp
 2618 0286 E8000000 		call	__cxa_end_catch@PLT
 2618      00
 2619 028b 4889EF   		movq	%rbp, %rdi
 2620              	.LEHB56:
 2621 028e E8000000 		call	_Unwind_Resume@PLT
 2621      00
 2622              	.LEHE56:
 2623              	.L127:
 2624 0293 F30F1EFA 		endbr64
 2625 0297 4889C5   		movq	%rax, %rbp
 2626 029a E8000000 		call	__cxa_end_catch@PLT
 2626      00
 2627 029f 4889EF   		movq	%rbp, %rdi
 2628              	.LEHB57:
 2629 02a2 E8000000 		call	_Unwind_Resume@PLT
 2629      00
 2630              	.LEHE57:
 2631              		.cfi_endproc
 2632              	.LFE1295:
 2633              		.section	.gcc_except_table
 2634              		.align 4
 2635              	.LLSDAC1295:
 2636 0184 FF       		.byte	0xff
 2637 0185 9B       		.byte	0x9b
 2638 0186 35       		.uleb128 .LLSDATTC1295-.LLSDATTDC1295
 2639              	.LLSDATTDC1295:
 2640 0187 01       		.byte	0x1
 2641 0188 2D       		.uleb128 .LLSDACSEC1295-.LLSDACSBC1295
 2642              	.LLSDACSBC1295:
 2643 0189 05       		.uleb128 .LEHB49-.LCOLDB27
 2644 018a 2F       		.uleb128 .LEHE49-.LEHB49
 2645 018b F101     		.uleb128 .L131-.LCOLDB27
 2646 018d 00       		.uleb128 0
 2647 018e 51       		.uleb128 .LEHB50-.LCOLDB27
 2648 018f 05       		.uleb128 .LEHE50-.LEHB50
 2649 0190 00       		.uleb128 0
 2650 0191 00       		.uleb128 0
 2651 0192 5B       		.uleb128 .LEHB51-.LCOLDB27
 2652 0193 32       		.uleb128 .LEHE51-.LEHB51
 2653 0194 DD01     		.uleb128 .L129-.LCOLDB27
 2654 0196 00       		.uleb128 0
 2655 0197 8D01     		.uleb128 .LEHB52-.LCOLDB27
 2656 0199 05       		.uleb128 .LEHE52-.LEHB52
 2657 019a 00       		.uleb128 0
 2658 019b 00       		.uleb128 0
 2659 019c 9C01     		.uleb128 .LEHB53-.LCOLDB27
 2660 019e 32       		.uleb128 .LEHE53-.LEHB53
 2661 019f 8502     		.uleb128 .L127-.LCOLDB27
 2662 01a1 00       		.uleb128 0
 2663 01a2 CE01     		.uleb128 .LEHB54-.LCOLDB27
 2664 01a4 05       		.uleb128 .LEHE54-.LEHB54
 2665 01a5 00       		.uleb128 0
 2666 01a6 00       		.uleb128 0
 2667 01a7 EC01     		.uleb128 .LEHB55-.LCOLDB27
 2668 01a9 05       		.uleb128 .LEHE55-.LEHB55
 2669 01aa 00       		.uleb128 0
 2670 01ab 00       		.uleb128 0
 2671 01ac 8002     		.uleb128 .LEHB56-.LCOLDB27
 2672 01ae 05       		.uleb128 .LEHE56-.LEHB56
 2673 01af 00       		.uleb128 0
 2674 01b0 00       		.uleb128 0
 2675 01b1 9402     		.uleb128 .LEHB57-.LCOLDB27
 2676 01b3 05       		.uleb128 .LEHE57-.LEHB57
 2677 01b4 00       		.uleb128 0
 2678 01b5 00       		.uleb128 0
 2679              	.LLSDACSEC1295:
 2680 01b6 01       		.byte	0x1
 2681 01b7 00       		.byte	0
 2682              		.align 4
 2683 01b8 00000000 		.long	0
 2684              	
 2685              	.LLSDATTC1295:
 2686              		.section	.text.unlikely
 2687              		.text
 2689              		.section	.text.unlikely
 2691              	.LCOLDE27:
 2692              		.text
 2693              	.LHOTE27:
 2694              		.section	.rodata.str1.8
 2695 01b2 00000000 		.align 8
 2695      0000
 2696              	.LC28:
 2697 01b8 6D616372 		.string	"macroTestList1.GetHead() != NULL"
 2697      6F546573 
 2697      744C6973 
 2697      74312E47 
 2697      65744865 
 2698              		.section	.rodata.str1.1
 2699              	.LC29:
 2700 001e 4D616372 		.string	"MacroTestHelper1"
 2700      6F546573 
 2700      7448656C 
 2700      70657231 
 2700      00
 2701              		.section	.rodata.str1.8
 2702 01d9 00000000 		.align 8
 2702      000000
 2703              	.LC30:
 2704 01e0 556E6861 		.string	"Unhandled exception in CHECK(macroTestList1.GetHead() != NULL)"
 2704      6E646C65 
 2704      64206578 
 2704      63657074 
 2704      696F6E20 
 2705 021f 00       		.align 8
 2706              	.LC31:
 2707 0220 556E6861 		.string	"Unhandled exception in CHECK_EQUAL(\"MacroTestHelper1\", macroTestList1.GetHead()->m_deta
 2707      6E646C65 
 2707      64206578 
 2707      63657074 
 2707      696F6E20 
 2708 0285 000000   		.align 8
 2709              	.LC32:
 2710 0288 556E6861 		.string	"Unhandled exception in CHECK_EQUAL(\"DefaultSuite\", macroTestList1.GetHead()->m_details.
 2710      6E646C65 
 2710      64206578 
 2710      63657074 
 2710      696F6E20 
 2711              		.section	.text.unlikely
 2712 02a7 90       		.align 2
 2713              	.LCOLDB33:
 2714              		.text
 2715              	.LHOTB33:
 2716              		.align 2
 2717              		.p2align 4
 2719              	_ZNK12_GLOBAL__N_145TestTestAddedWithTEST_EXMacroGetsDefaultSuite7RunImplEv:
 2720              	.LFB1283:
 2721              		.cfi_startproc
 2722              		.cfi_personality 0x9b,DW.ref.__gxx_personality_v0
 2723              		.cfi_lsda 0x1b,.LLSDA1283
 2724 0890 F30F1EFA 		endbr64
 2725 0894 4155     		pushq	%r13
 2726              		.cfi_def_cfa_offset 16
 2727              		.cfi_offset 13, -16
 2728 0896 4154     		pushq	%r12
 2729              		.cfi_def_cfa_offset 24
 2730              		.cfi_offset 12, -24
 2731 0898 4C8D2500 		leaq	_ZN12_GLOBAL__N_114macroTestList1E(%rip), %r12
 2731      000000
 2732 089f 55       		pushq	%rbp
 2733              		.cfi_def_cfa_offset 32
 2734              		.cfi_offset 6, -32
 2735 08a0 4C89E7   		movq	%r12, %rdi
 2736 08a3 4883EC30 		subq	$48, %rsp
 2737              		.cfi_def_cfa_offset 80
 2738 08a7 64488B04 		movq	%fs:40, %rax
 2738      25280000 
 2738      00
 2739 08b0 48894424 		movq	%rax, 40(%rsp)
 2739      28
 2740 08b5 31C0     		xorl	%eax, %eax
 2741              	.LEHB58:
 2742 08b7 E8000000 		call	_ZNK8UnitTest8TestList7GetHeadEv@PLT
 2742      00
 2743              	.LEHE58:
 2744 08bc 4885C0   		testq	%rax, %rax
 2745 08bf 0F849B00 		je	.L156
 2745      0000
 2746              	.L138:
 2747              	.LEHB59:
 2748 08c5 E8000000 		call	_ZN8UnitTest11CurrentTest7DetailsEv@PLT
 2748      00
 2749 08ca 4889E5   		movq	%rsp, %rbp
 2750 08cd 488B30   		movq	(%rax), %rsi
 2751 08d0 BA5B0000 		movl	$91, %edx
 2751      00
 2752 08d5 4889EF   		movq	%rbp, %rdi
 2753 08d8 E8000000 		call	_ZN8UnitTest11TestDetailsC1ERKS0_i@PLT
 2753      00
 2754 08dd 4C89E7   		movq	%r12, %rdi
 2755 08e0 E8000000 		call	_ZNK8UnitTest8TestList7GetHeadEv@PLT
 2755      00
 2756 08e5 4C8B6810 		movq	16(%rax), %r13
 2757 08e9 E8000000 		call	_ZN8UnitTest11CurrentTest7ResultsEv@PLT
 2757      00
 2758 08ee 488B38   		movq	(%rax), %rdi
 2759 08f1 4889E9   		movq	%rbp, %rcx
 2760 08f4 4C89EA   		movq	%r13, %rdx
 2761 08f7 488D3500 		leaq	.LC29(%rip), %rsi
 2761      000000
 2762 08fe E8000000 		call	_ZN8UnitTest10CheckEqualERNS_11TestResultsEPKcS3_RKNS_11TestDetailsE@PLT
 2762      00
 2763              	.LEHE59:
 2764              	.L142:
 2765              	.LEHB60:
 2766 0903 E8000000 		call	_ZN8UnitTest11CurrentTest7DetailsEv@PLT
 2766      00
 2767 0908 488B30   		movq	(%rax), %rsi
 2768 090b BA5C0000 		movl	$92, %edx
 2768      00
 2769 0910 4889EF   		movq	%rbp, %rdi
 2770 0913 E8000000 		call	_ZN8UnitTest11TestDetailsC1ERKS0_i@PLT
 2770      00
 2771 0918 4C89E7   		movq	%r12, %rdi
 2772 091b E8000000 		call	_ZNK8UnitTest8TestList7GetHeadEv@PLT
 2772      00
 2773 0920 4C8B6008 		movq	8(%rax), %r12
 2774 0924 E8000000 		call	_ZN8UnitTest11CurrentTest7ResultsEv@PLT
 2774      00
 2775 0929 488B38   		movq	(%rax), %rdi
 2776 092c 4889E9   		movq	%rbp, %rcx
 2777 092f 4C89E2   		movq	%r12, %rdx
 2778 0932 488D3500 		leaq	.LC23(%rip), %rsi
 2778      000000
 2779 0939 E8000000 		call	_ZN8UnitTest10CheckEqualERNS_11TestResultsEPKcS3_RKNS_11TestDetailsE@PLT
 2779      00
 2780              	.LEHE60:
 2781 093e 488B4424 		movq	40(%rsp), %rax
 2781      28
 2782 0943 64482B04 		subq	%fs:40, %rax
 2782      25280000 
 2782      00
 2783 094c 7549     		jne	.L157
 2784 094e 4883C430 		addq	$48, %rsp
 2785              		.cfi_remember_state
 2786              		.cfi_def_cfa_offset 32
 2787 0952 5D       		popq	%rbp
 2788              		.cfi_def_cfa_offset 24
 2789 0953 415C     		popq	%r12
 2790              		.cfi_def_cfa_offset 16
 2791 0955 415D     		popq	%r13
 2792              		.cfi_def_cfa_offset 8
 2793 0957 C3       		ret
 2794 0958 0F1F8400 		.p2align 4,,10
 2794      00000000 
 2795              		.p2align 3
 2796              	.L156:
 2797              		.cfi_restore_state
 2798              	.LEHB61:
 2799 0960 E8000000 		call	_ZN8UnitTest11CurrentTest7ResultsEv@PLT
 2799      00
 2800 0965 4C8B28   		movq	(%rax), %r13
 2801 0968 E8000000 		call	_ZN8UnitTest11CurrentTest7DetailsEv@PLT
 2801      00
 2802 096d 4889E5   		movq	%rsp, %rbp
 2803 0970 488B30   		movq	(%rax), %rsi
 2804 0973 BA5A0000 		movl	$90, %edx
 2804      00
 2805 0978 4889EF   		movq	%rbp, %rdi
 2806 097b E8000000 		call	_ZN8UnitTest11TestDetailsC1ERKS0_i@PLT
 2806      00
 2807 0980 488D1500 		leaq	.LC28(%rip), %rdx
 2807      000000
 2808 0987 4889EE   		movq	%rbp, %rsi
 2809 098a 4C89EF   		movq	%r13, %rdi
 2810 098d E8000000 		call	_ZN8UnitTest11TestResults13OnTestFailureERKNS_11TestDetailsEPKc@PLT
 2810      00
 2811              	.LEHE61:
 2812 0992 E92EFFFF 		jmp	.L138
 2812      FF
 2813              	.L157:
 2814 0997 E8000000 		call	__stack_chk_fail@PLT
 2814      00
 2815              	.L152:
 2816 099c F30F1EFA 		endbr64
 2817 09a0 4889C7   		movq	%rax, %rdi
 2818 09a3 E9000000 		jmp	.L144
 2818      00
 2819              	.L150:
 2820 09a8 F30F1EFA 		endbr64
 2821 09ac 4889C7   		movq	%rax, %rdi
 2822 09af E9000000 		jmp	.L141
 2822      00
 2823              	.L148:
 2824 09b4 F30F1EFA 		endbr64
 2825 09b8 4889C7   		movq	%rax, %rdi
 2826 09bb E9000000 		jmp	.L139
 2826      00
 2827              		.section	.gcc_except_table
 2828              		.align 4
 2829              	.LLSDA1283:
 2830 01bc FF       		.byte	0xff
 2831 01bd 9B       		.byte	0x9b
 2832 01be 1D       		.uleb128 .LLSDATT1283-.LLSDATTD1283
 2833              	.LLSDATTD1283:
 2834 01bf 01       		.byte	0x1
 2835 01c0 15       		.uleb128 .LLSDACSE1283-.LLSDACSB1283
 2836              	.LLSDACSB1283:
 2837 01c1 27       		.uleb128 .LEHB58-.LFB1283
 2838 01c2 05       		.uleb128 .LEHE58-.LEHB58
 2839 01c3 A402     		.uleb128 .L148-.LFB1283
 2840 01c5 01       		.uleb128 0x1
 2841 01c6 35       		.uleb128 .LEHB59-.LFB1283
 2842 01c7 3E       		.uleb128 .LEHE59-.LEHB59
 2843 01c8 9802     		.uleb128 .L150-.LFB1283
 2844 01ca 01       		.uleb128 0x1
 2845 01cb 73       		.uleb128 .LEHB60-.LFB1283
 2846 01cc 3B       		.uleb128 .LEHE60-.LEHB60
 2847 01cd 8C02     		.uleb128 .L152-.LFB1283
 2848 01cf 01       		.uleb128 0x1
 2849 01d0 D001     		.uleb128 .LEHB61-.LFB1283
 2850 01d2 32       		.uleb128 .LEHE61-.LEHB61
 2851 01d3 A402     		.uleb128 .L148-.LFB1283
 2852 01d5 01       		.uleb128 0x1
 2853              	.LLSDACSE1283:
 2854 01d6 01       		.byte	0x1
 2855 01d7 00       		.byte	0
 2856              		.align 4
 2857 01d8 00000000 		.long	0
 2858              	
 2859              	.LLSDATT1283:
 2860              		.text
 2861              		.cfi_endproc
 2862              		.section	.text.unlikely
 2863              		.cfi_startproc
 2864              		.cfi_personality 0x9b,DW.ref.__gxx_personality_v0
 2865              		.cfi_lsda 0x1b,.LLSDAC1283
 2867              	_ZNK12_GLOBAL__N_145TestTestAddedWithTEST_EXMacroGetsDefaultSuite7RunImplEv.cold:
 2868              	.LFSB1283:
 2869              	.L144:
 2870              		.cfi_def_cfa_offset 80
 2871              		.cfi_offset 6, -32
 2872              		.cfi_offset 12, -24
 2873              		.cfi_offset 13, -16
 2874 02a8 E8000000 		call	__cxa_begin_catch@PLT
 2874      00
 2875              	.LEHB62:
 2876 02ad E8000000 		call	_ZN8UnitTest11CurrentTest7ResultsEv@PLT
 2876      00
 2877 02b2 4C8B20   		movq	(%rax), %r12
 2878 02b5 E8000000 		call	_ZN8UnitTest11CurrentTest7DetailsEv@PLT
 2878      00
 2879 02ba 488B30   		movq	(%rax), %rsi
 2880 02bd BA5C0000 		movl	$92, %edx
 2880      00
 2881 02c2 4889EF   		movq	%rbp, %rdi
 2882 02c5 E8000000 		call	_ZN8UnitTest11TestDetailsC1ERKS0_i@PLT
 2882      00
 2883 02ca 488D1500 		leaq	.LC32(%rip), %rdx
 2883      000000
 2884 02d1 4889EE   		movq	%rbp, %rsi
 2885 02d4 4C89E7   		movq	%r12, %rdi
 2886 02d7 E8000000 		call	_ZN8UnitTest11TestResults13OnTestFailureERKNS_11TestDetailsEPKc@PLT
 2886      00
 2887              	.LEHE62:
 2888 02dc 488B4424 		movq	40(%rsp), %rax
 2888      28
 2889 02e1 64482B04 		subq	%fs:40, %rax
 2889      25280000 
 2889      00
 2890 02ea 0F859000 		jne	.L158
 2890      0000
 2891 02f0 4883C430 		addq	$48, %rsp
 2892              		.cfi_remember_state
 2893              		.cfi_def_cfa_offset 32
 2894 02f4 5D       		popq	%rbp
 2895              		.cfi_def_cfa_offset 24
 2896 02f5 415C     		popq	%r12
 2897              		.cfi_def_cfa_offset 16
 2898 02f7 415D     		popq	%r13
 2899              		.cfi_def_cfa_offset 8
 2900              	.LEHB63:
 2901 02f9 E9000000 		jmp	__cxa_end_catch@PLT
 2901      00
 2902              	.LEHE63:
 2903              	.L141:
 2904              		.cfi_restore_state
 2905 02fe E8000000 		call	__cxa_begin_catch@PLT
 2905      00
 2906              	.LEHB64:
 2907 0303 E8000000 		call	_ZN8UnitTest11CurrentTest7ResultsEv@PLT
 2907      00
 2908 0308 4C8B28   		movq	(%rax), %r13
 2909 030b E8000000 		call	_ZN8UnitTest11CurrentTest7DetailsEv@PLT
 2909      00
 2910 0310 4889E5   		movq	%rsp, %rbp
 2911 0313 488B30   		movq	(%rax), %rsi
 2912 0316 BA5B0000 		movl	$91, %edx
 2912      00
 2913 031b 4889EF   		movq	%rbp, %rdi
 2914 031e E8000000 		call	_ZN8UnitTest11TestDetailsC1ERKS0_i@PLT
 2914      00
 2915 0323 488D1500 		leaq	.LC31(%rip), %rdx
 2915      000000
 2916 032a 4889EE   		movq	%rbp, %rsi
 2917 032d 4C89EF   		movq	%r13, %rdi
 2918 0330 E8000000 		call	_ZN8UnitTest11TestResults13OnTestFailureERKNS_11TestDetailsEPKc@PLT
 2918      00
 2919              	.LEHE64:
 2920              	.LEHB65:
 2921 0335 E8000000 		call	__cxa_end_catch@PLT
 2921      00
 2922              	.LEHE65:
 2923 033a E9000000 		jmp	.L142
 2923      00
 2924              	.L139:
 2925 033f E8000000 		call	__cxa_begin_catch@PLT
 2925      00
 2926              	.LEHB66:
 2927 0344 E8000000 		call	_ZN8UnitTest11CurrentTest7ResultsEv@PLT
 2927      00
 2928 0349 4C8B28   		movq	(%rax), %r13
 2929 034c E8000000 		call	_ZN8UnitTest11CurrentTest7DetailsEv@PLT
 2929      00
 2930 0351 4889E5   		movq	%rsp, %rbp
 2931 0354 488B30   		movq	(%rax), %rsi
 2932 0357 BA5A0000 		movl	$90, %edx
 2932      00
 2933 035c 4889EF   		movq	%rbp, %rdi
 2934 035f E8000000 		call	_ZN8UnitTest11TestDetailsC1ERKS0_i@PLT
 2934      00
 2935 0364 488D1500 		leaq	.LC30(%rip), %rdx
 2935      000000
 2936 036b 4889EE   		movq	%rbp, %rsi
 2937 036e 4C89EF   		movq	%r13, %rdi
 2938 0371 E8000000 		call	_ZN8UnitTest11TestResults13OnTestFailureERKNS_11TestDetailsEPKc@PLT
 2938      00
 2939              	.LEHE66:
 2940              	.LEHB67:
 2941 0376 E8000000 		call	__cxa_end_catch@PLT
 2941      00
 2942              	.LEHE67:
 2943 037b E9000000 		jmp	.L138
 2943      00
 2944              	.L158:
 2945 0380 E8000000 		call	__stack_chk_fail@PLT
 2945      00
 2946              	.L151:
 2947 0385 F30F1EFA 		endbr64
 2948 0389 4889C5   		movq	%rax, %rbp
 2949 038c E8000000 		call	__cxa_end_catch@PLT
 2949      00
 2950 0391 4889EF   		movq	%rbp, %rdi
 2951              	.LEHB68:
 2952 0394 E8000000 		call	_Unwind_Resume@PLT
 2952      00
 2953              	.LEHE68:
 2954              	.L153:
 2955 0399 F30F1EFA 		endbr64
 2956 039d 4889C5   		movq	%rax, %rbp
 2957 03a0 E8000000 		call	__cxa_end_catch@PLT
 2957      00
 2958 03a5 4889EF   		movq	%rbp, %rdi
 2959              	.LEHB69:
 2960 03a8 E8000000 		call	_Unwind_Resume@PLT
 2960      00
 2961              	.LEHE69:
 2962              	.L149:
 2963 03ad F30F1EFA 		endbr64
 2964 03b1 4889C5   		movq	%rax, %rbp
 2965 03b4 E8000000 		call	__cxa_end_catch@PLT
 2965      00
 2966 03b9 4889EF   		movq	%rbp, %rdi
 2967              	.LEHB70:
 2968 03bc E8000000 		call	_Unwind_Resume@PLT
 2968      00
 2969              	.LEHE70:
 2970              		.cfi_endproc
 2971              	.LFE1283:
 2972              		.section	.gcc_except_table
 2973              		.align 4
 2974              	.LLSDAC1283:
 2975 01dc FF       		.byte	0xff
 2976 01dd 9B       		.byte	0x9b
 2977 01de 35       		.uleb128 .LLSDATTC1283-.LLSDATTDC1283
 2978              	.LLSDATTDC1283:
 2979 01df 01       		.byte	0x1
 2980 01e0 2D       		.uleb128 .LLSDACSEC1283-.LLSDACSBC1283
 2981              	.LLSDACSBC1283:
 2982 01e1 05       		.uleb128 .LEHB62-.LCOLDB33
 2983 01e2 2F       		.uleb128 .LEHE62-.LEHB62
 2984 01e3 F101     		.uleb128 .L153-.LCOLDB33
 2985 01e5 00       		.uleb128 0
 2986 01e6 51       		.uleb128 .LEHB63-.LCOLDB33
 2987 01e7 05       		.uleb128 .LEHE63-.LEHB63
 2988 01e8 00       		.uleb128 0
 2989 01e9 00       		.uleb128 0
 2990 01ea 5B       		.uleb128 .LEHB64-.LCOLDB33
 2991 01eb 32       		.uleb128 .LEHE64-.LEHB64
 2992 01ec DD01     		.uleb128 .L151-.LCOLDB33
 2993 01ee 00       		.uleb128 0
 2994 01ef 8D01     		.uleb128 .LEHB65-.LCOLDB33
 2995 01f1 05       		.uleb128 .LEHE65-.LEHB65
 2996 01f2 00       		.uleb128 0
 2997 01f3 00       		.uleb128 0
 2998 01f4 9C01     		.uleb128 .LEHB66-.LCOLDB33
 2999 01f6 32       		.uleb128 .LEHE66-.LEHB66
 3000 01f7 8502     		.uleb128 .L149-.LCOLDB33
 3001 01f9 00       		.uleb128 0
 3002 01fa CE01     		.uleb128 .LEHB67-.LCOLDB33
 3003 01fc 05       		.uleb128 .LEHE67-.LEHB67
 3004 01fd 00       		.uleb128 0
 3005 01fe 00       		.uleb128 0
 3006 01ff EC01     		.uleb128 .LEHB68-.LCOLDB33
 3007 0201 05       		.uleb128 .LEHE68-.LEHB68
 3008 0202 00       		.uleb128 0
 3009 0203 00       		.uleb128 0
 3010 0204 8002     		.uleb128 .LEHB69-.LCOLDB33
 3011 0206 05       		.uleb128 .LEHE69-.LEHB69
 3012 0207 00       		.uleb128 0
 3013 0208 00       		.uleb128 0
 3014 0209 9402     		.uleb128 .LEHB70-.LCOLDB33
 3015 020b 05       		.uleb128 .LEHE70-.LEHB70
 3016 020c 00       		.uleb128 0
 3017 020d 00       		.uleb128 0
 3018              	.LLSDACSEC1283:
 3019 020e 01       		.byte	0x1
 3020 020f 00       		.byte	0
 3021              		.align 4
 3022 0210 00000000 		.long	0
 3023              	
 3024              	.LLSDATTC1283:
 3025              		.section	.text.unlikely
 3026              		.text
 3028              		.section	.text.unlikely
 3030              	.LCOLDE33:
 3031              		.text
 3032              	.LHOTE33:
 3033              		.section	.rodata.str1.1
 3034              	.LC34:
 3035 002f 6C697374 		.string	"list1.GetHead() != 0"
 3035      312E4765 
 3035      74486561 
 3035      64282920 
 3035      213D2030 
 3036              	.LC35:
 3037 0044 6C697374 		.string	"list1.GetHead()->next == 0"
 3037      312E4765 
 3037      74486561 
 3037      6428292D 
 3037      3E6E6578 
 3038              		.section	.rodata.str1.8
 3039 02ea 00000000 		.align 8
 3039      0000
 3040              	.LC36:
 3041 02f0 556E6861 		.string	"Unhandled exception in CHECK(list1.GetHead() != 0)"
 3041      6E646C65 
 3041      64206578 
 3041      63657074 
 3041      696F6E20 
 3042 0323 00000000 		.align 8
 3042      00
 3043              	.LC37:
 3044 0328 556E6861 		.string	"Unhandled exception in CHECK(list1.GetHead()->next == 0)"
 3044      6E646C65 
 3044      64206578 
 3044      63657074 
 3044      696F6E20 
 3045              		.section	.text.unlikely
 3046 03c1 90       		.align 2
 3047              	.LCOLDB38:
 3048              		.text
 3049              	.LHOTB38:
 3050              		.align 2
 3051              		.p2align 4
 3053              	_ZNK12_GLOBAL__N_138TestTestsAreAddedToTheListThroughMacro7RunImplEv:
 3054              	.LFB1234:
 3055              		.cfi_startproc
 3056              		.cfi_personality 0x9b,DW.ref.__gxx_personality_v0
 3057              		.cfi_lsda 0x1b,.LLSDA1234
 3058 09c0 F30F1EFA 		endbr64
 3059 09c4 4155     		pushq	%r13
 3060              		.cfi_def_cfa_offset 16
 3061              		.cfi_offset 13, -16
 3062 09c6 4154     		pushq	%r12
 3063              		.cfi_def_cfa_offset 24
 3064              		.cfi_offset 12, -24
 3065 09c8 55       		pushq	%rbp
 3066              		.cfi_def_cfa_offset 32
 3067              		.cfi_offset 6, -32
 3068 09c9 488D2D00 		leaq	_ZN12_GLOBAL__N_15list1E(%rip), %rbp
 3068      000000
 3069 09d0 4889EF   		movq	%rbp, %rdi
 3070 09d3 4883EC30 		subq	$48, %rsp
 3071              		.cfi_def_cfa_offset 80
 3072 09d7 64488B04 		movq	%fs:40, %rax
 3072      25280000 
 3072      00
 3073 09e0 48894424 		movq	%rax, 40(%rsp)
 3073      28
 3074 09e5 31C0     		xorl	%eax, %eax
 3075              	.LEHB71:
 3076 09e7 E8000000 		call	_ZNK8UnitTest8TestList7GetHeadEv@PLT
 3076      00
 3077              	.LEHE71:
 3078 09ec 4885C0   		testq	%rax, %rax
 3079 09ef 745F     		je	.L173
 3080              	.L160:
 3081 09f1 4889EF   		movq	%rbp, %rdi
 3082              	.LEHB72:
 3083 09f4 E8000000 		call	_ZNK8UnitTest8TestList7GetHeadEv@PLT
 3083      00
 3084 09f9 48837828 		cmpq	$0, 40(%rax)
 3084      00
 3085 09fe 7432     		je	.L159
 3086 0a00 E8000000 		call	_ZN8UnitTest11CurrentTest7ResultsEv@PLT
 3086      00
 3087 0a05 488B28   		movq	(%rax), %rbp
 3088 0a08 E8000000 		call	_ZN8UnitTest11CurrentTest7DetailsEv@PLT
 3088      00
 3089 0a0d 4989E4   		movq	%rsp, %r12
 3090 0a10 488B30   		movq	(%rax), %rsi
 3091 0a13 BA160000 		movl	$22, %edx
 3091      00
 3092 0a18 4C89E7   		movq	%r12, %rdi
 3093 0a1b E8000000 		call	_ZN8UnitTest11TestDetailsC1ERKS0_i@PLT
 3093      00
 3094 0a20 488D1500 		leaq	.LC35(%rip), %rdx
 3094      000000
 3095 0a27 4C89E6   		movq	%r12, %rsi
 3096 0a2a 4889EF   		movq	%rbp, %rdi
 3097 0a2d E8000000 		call	_ZN8UnitTest11TestResults13OnTestFailureERKNS_11TestDetailsEPKc@PLT
 3097      00
 3098              	.LEHE72:
 3099              	.L159:
 3100 0a32 488B4424 		movq	40(%rsp), %rax
 3100      28
 3101 0a37 64482B04 		subq	%fs:40, %rax
 3101      25280000 
 3101      00
 3102 0a40 7545     		jne	.L174
 3103 0a42 4883C430 		addq	$48, %rsp
 3104              		.cfi_remember_state
 3105              		.cfi_def_cfa_offset 32
 3106 0a46 5D       		popq	%rbp
 3107              		.cfi_def_cfa_offset 24
 3108 0a47 415C     		popq	%r12
 3109              		.cfi_def_cfa_offset 16
 3110 0a49 415D     		popq	%r13
 3111              		.cfi_def_cfa_offset 8
 3112 0a4b C3       		ret
 3113 0a4c 0F1F4000 		.p2align 4,,10
 3114              		.p2align 3
 3115              	.L173:
 3116              		.cfi_restore_state
 3117              	.LEHB73:
 3118 0a50 E8000000 		call	_ZN8UnitTest11CurrentTest7ResultsEv@PLT
 3118      00
 3119 0a55 4C8B28   		movq	(%rax), %r13
 3120 0a58 E8000000 		call	_ZN8UnitTest11CurrentTest7DetailsEv@PLT
 3120      00
 3121 0a5d 4989E4   		movq	%rsp, %r12
 3122 0a60 488B30   		movq	(%rax), %rsi
 3123 0a63 BA150000 		movl	$21, %edx
 3123      00
 3124 0a68 4C89E7   		movq	%r12, %rdi
 3125 0a6b E8000000 		call	_ZN8UnitTest11TestDetailsC1ERKS0_i@PLT
 3125      00
 3126 0a70 488D1500 		leaq	.LC34(%rip), %rdx
 3126      000000
 3127 0a77 4C89E6   		movq	%r12, %rsi
 3128 0a7a 4C89EF   		movq	%r13, %rdi
 3129 0a7d E8000000 		call	_ZN8UnitTest11TestResults13OnTestFailureERKNS_11TestDetailsEPKc@PLT
 3129      00
 3130              	.LEHE73:
 3131 0a82 E96AFFFF 		jmp	.L160
 3131      FF
 3132              	.L174:
 3133 0a87 E8000000 		call	__stack_chk_fail@PLT
 3133      00
 3134              	.L168:
 3135 0a8c F30F1EFA 		endbr64
 3136 0a90 4889C7   		movq	%rax, %rdi
 3137 0a93 E9000000 		jmp	.L162
 3137      00
 3138              	.L170:
 3139 0a98 F30F1EFA 		endbr64
 3140 0a9c 4889C7   		movq	%rax, %rdi
 3141 0a9f E9000000 		jmp	.L164
 3141      00
 3142              		.section	.gcc_except_table
 3143              		.align 4
 3144              	.LLSDA1234:
 3145 0214 FF       		.byte	0xff
 3146 0215 9B       		.byte	0x9b
 3147 0216 19       		.uleb128 .LLSDATT1234-.LLSDATTD1234
 3148              	.LLSDATTD1234:
 3149 0217 01       		.byte	0x1
 3150 0218 10       		.uleb128 .LLSDACSE1234-.LLSDACSB1234
 3151              	.LLSDACSB1234:
 3152 0219 27       		.uleb128 .LEHB71-.LFB1234
 3153 021a 05       		.uleb128 .LEHE71-.LEHB71
 3154 021b CC01     		.uleb128 .L168-.LFB1234
 3155 021d 01       		.uleb128 0x1
 3156 021e 34       		.uleb128 .LEHB72-.LFB1234
 3157 021f 3E       		.uleb128 .LEHE72-.LEHB72
 3158 0220 D801     		.uleb128 .L170-.LFB1234
 3159 0222 01       		.uleb128 0x1
 3160 0223 9001     		.uleb128 .LEHB73-.LFB1234
 3161 0225 32       		.uleb128 .LEHE73-.LEHB73
 3162 0226 CC01     		.uleb128 .L168-.LFB1234
 3163 0228 01       		.uleb128 0x1
 3164              	.LLSDACSE1234:
 3165 0229 01       		.byte	0x1
 3166 022a 00       		.byte	0
 3167 022b 00       		.align 4
 3168 022c 00000000 		.long	0
 3169              	
 3170              	.LLSDATT1234:
 3171              		.text
 3172              		.cfi_endproc
 3173              		.section	.text.unlikely
 3174              		.cfi_startproc
 3175              		.cfi_personality 0x9b,DW.ref.__gxx_personality_v0
 3176              		.cfi_lsda 0x1b,.LLSDAC1234
 3178              	_ZNK12_GLOBAL__N_138TestTestsAreAddedToTheListThroughMacro7RunImplEv.cold:
 3179              	.LFSB1234:
 3180              	.L162:
 3181              		.cfi_def_cfa_offset 80
 3182              		.cfi_offset 6, -32
 3183              		.cfi_offset 12, -24
 3184              		.cfi_offset 13, -16
 3185 03c2 E8000000 		call	__cxa_begin_catch@PLT
 3185      00
 3186              	.LEHB74:
 3187 03c7 E8000000 		call	_ZN8UnitTest11CurrentTest7ResultsEv@PLT
 3187      00
 3188 03cc 4C8B28   		movq	(%rax), %r13
 3189 03cf E8000000 		call	_ZN8UnitTest11CurrentTest7DetailsEv@PLT
 3189      00
 3190 03d4 4989E4   		movq	%rsp, %r12
 3191 03d7 488B30   		movq	(%rax), %rsi
 3192 03da BA150000 		movl	$21, %edx
 3192      00
 3193 03df 4C89E7   		movq	%r12, %rdi
 3194 03e2 E8000000 		call	_ZN8UnitTest11TestDetailsC1ERKS0_i@PLT
 3194      00
 3195 03e7 488D1500 		leaq	.LC36(%rip), %rdx
 3195      000000
 3196 03ee 4C89E6   		movq	%r12, %rsi
 3197 03f1 4C89EF   		movq	%r13, %rdi
 3198 03f4 E8000000 		call	_ZN8UnitTest11TestResults13OnTestFailureERKNS_11TestDetailsEPKc@PLT
 3198      00
 3199              	.LEHE74:
 3200              	.LEHB75:
 3201 03f9 E8000000 		call	__cxa_end_catch@PLT
 3201      00
 3202              	.LEHE75:
 3203 03fe E9000000 		jmp	.L160
 3203      00
 3204              	.L164:
 3205 0403 E8000000 		call	__cxa_begin_catch@PLT
 3205      00
 3206              	.LEHB76:
 3207 0408 E8000000 		call	_ZN8UnitTest11CurrentTest7ResultsEv@PLT
 3207      00
 3208 040d 488B28   		movq	(%rax), %rbp
 3209 0410 E8000000 		call	_ZN8UnitTest11CurrentTest7DetailsEv@PLT
 3209      00
 3210 0415 4989E4   		movq	%rsp, %r12
 3211 0418 488B30   		movq	(%rax), %rsi
 3212 041b BA160000 		movl	$22, %edx
 3212      00
 3213 0420 4C89E7   		movq	%r12, %rdi
 3214 0423 E8000000 		call	_ZN8UnitTest11TestDetailsC1ERKS0_i@PLT
 3214      00
 3215 0428 488D1500 		leaq	.LC37(%rip), %rdx
 3215      000000
 3216 042f 4C89E6   		movq	%r12, %rsi
 3217 0432 4889EF   		movq	%rbp, %rdi
 3218 0435 E8000000 		call	_ZN8UnitTest11TestResults13OnTestFailureERKNS_11TestDetailsEPKc@PLT
 3218      00
 3219              	.LEHE76:
 3220 043a 488B4424 		movq	40(%rsp), %rax
 3220      28
 3221 043f 64482B04 		subq	%fs:40, %rax
 3221      25280000 
 3221      00
 3222 0448 7522     		jne	.L175
 3223 044a 4883C430 		addq	$48, %rsp
 3224              		.cfi_remember_state
 3225              		.cfi_def_cfa_offset 32
 3226 044e 5D       		popq	%rbp
 3227              		.cfi_def_cfa_offset 24
 3228 044f 415C     		popq	%r12
 3229              		.cfi_def_cfa_offset 16
 3230 0451 415D     		popq	%r13
 3231              		.cfi_def_cfa_offset 8
 3232              	.LEHB77:
 3233 0453 E9000000 		jmp	__cxa_end_catch@PLT
 3233      00
 3234              	.LEHE77:
 3235              	.L169:
 3236              		.cfi_restore_state
 3237 0458 F30F1EFA 		endbr64
 3238 045c 4889C5   		movq	%rax, %rbp
 3239 045f E8000000 		call	__cxa_end_catch@PLT
 3239      00
 3240 0464 4889EF   		movq	%rbp, %rdi
 3241              	.LEHB78:
 3242 0467 E8000000 		call	_Unwind_Resume@PLT
 3242      00
 3243              	.LEHE78:
 3244              	.L175:
 3245 046c E8000000 		call	__stack_chk_fail@PLT
 3245      00
 3246              	.L171:
 3247 0471 F30F1EFA 		endbr64
 3248 0475 4889C5   		movq	%rax, %rbp
 3249 0478 E8000000 		call	__cxa_end_catch@PLT
 3249      00
 3250 047d 4889EF   		movq	%rbp, %rdi
 3251              	.LEHB79:
 3252 0480 E8000000 		call	_Unwind_Resume@PLT
 3252      00
 3253              	.LEHE79:
 3254              		.cfi_endproc
 3255              	.LFE1234:
 3256              		.section	.gcc_except_table
 3257              		.align 4
 3258              	.LLSDAC1234:
 3259 0230 FF       		.byte	0xff
 3260 0231 9B       		.byte	0x9b
 3261 0232 25       		.uleb128 .LLSDATTC1234-.LLSDATTDC1234
 3262              	.LLSDATTDC1234:
 3263 0233 01       		.byte	0x1
 3264 0234 1D       		.uleb128 .LLSDACSEC1234-.LLSDACSBC1234
 3265              	.LLSDACSBC1234:
 3266 0235 05       		.uleb128 .LEHB74-.LCOLDB38
 3267 0236 32       		.uleb128 .LEHE74-.LEHB74
 3268 0237 9601     		.uleb128 .L169-.LCOLDB38
 3269 0239 00       		.uleb128 0
 3270 023a 37       		.uleb128 .LEHB75-.LCOLDB38
 3271 023b 05       		.uleb128 .LEHE75-.LEHB75
 3272 023c 00       		.uleb128 0
 3273 023d 00       		.uleb128 0
 3274 023e 46       		.uleb128 .LEHB76-.LCOLDB38
 3275 023f 32       		.uleb128 .LEHE76-.LEHB76
 3276 0240 AF01     		.uleb128 .L171-.LCOLDB38
 3277 0242 00       		.uleb128 0
 3278 0243 9101     		.uleb128 .LEHB77-.LCOLDB38
 3279 0245 05       		.uleb128 .LEHE77-.LEHB77
 3280 0246 00       		.uleb128 0
 3281 0247 00       		.uleb128 0
 3282 0248 A501     		.uleb128 .LEHB78-.LCOLDB38
 3283 024a 05       		.uleb128 .LEHE78-.LEHB78
 3284 024b 00       		.uleb128 0
 3285 024c 00       		.uleb128 0
 3286 024d BE01     		.uleb128 .LEHB79-.LCOLDB38
 3287 024f 05       		.uleb128 .LEHE79-.LEHB79
 3288 0250 00       		.uleb128 0
 3289 0251 00       		.uleb128 0
 3290              	.LLSDACSEC1234:
 3291 0252 01       		.byte	0x1
 3292 0253 00       		.byte	0
 3293              		.align 4
 3294 0254 00000000 		.long	0
 3295              	
 3296              	.LLSDATTC1234:
 3297              		.section	.text.unlikely
 3298              		.text
 3300              		.section	.text.unlikely
 3302              	.LCOLDE38:
 3303              		.text
 3304              	.LHOTE38:
 3305              		.section	.text._ZN17RecordingReporter15ReportTestStartERKN8UnitTest11TestDetailsE,"axG",@progbits,
 3306              		.align 2
 3307              		.p2align 4
 3308              		.weak	_ZN17RecordingReporter15ReportTestStartERKN8UnitTest11TestDetailsE
 3310              	_ZN17RecordingReporter15ReportTestStartERKN8UnitTest11TestDetailsE:
 3311              	.LFB1214:
 3312              		.cfi_startproc
 3313 0000 F30F1EFA 		endbr64
 3314 0004 55       		pushq	%rbp
 3315              		.cfi_def_cfa_offset 16
 3316              		.cfi_offset 6, -16
 3317 0005 4889F5   		movq	%rsi, %rbp
 3318 0008 BA000100 		movl	$256, %edx
 3318      00
 3319 000d 53       		pushq	%rbx
 3320              		.cfi_def_cfa_offset 24
 3321              		.cfi_offset 3, -24
 3322 000e 4889FB   		movq	%rdi, %rbx
 3323 0011 4883EC08 		subq	$8, %rsp
 3324              		.cfi_def_cfa_offset 32
 3325 0015 83470801 		addl	$1, 8(%rdi)
 3326 0019 488B36   		movq	(%rsi), %rsi
 3327 001c 488D7F0C 		leaq	12(%rdi), %rdi
 3328 0020 E8000000 		call	__strcpy_chk@PLT
 3328      00
 3329 0025 488B7508 		movq	8(%rbp), %rsi
 3330 0029 4883C408 		addq	$8, %rsp
 3331              		.cfi_def_cfa_offset 24
 3332 002d 488DBB0C 		leaq	268(%rbx), %rdi
 3332      010000
 3333 0034 BA000100 		movl	$256, %edx
 3333      00
 3334 0039 5B       		popq	%rbx
 3335              		.cfi_def_cfa_offset 16
 3336 003a 5D       		popq	%rbp
 3337              		.cfi_def_cfa_offset 8
 3338 003b E9000000 		jmp	__strcpy_chk@PLT
 3338      00
 3339              		.cfi_endproc
 3340              	.LFE1214:
 3342              		.section	.text._ZN17RecordingReporter13ReportFailureERKN8UnitTest11TestDetailsEPKc,"axG",@progbits
 3343              		.align 2
 3344              		.p2align 4
 3345              		.weak	_ZN17RecordingReporter13ReportFailureERKN8UnitTest11TestDetailsEPKc
 3347              	_ZN17RecordingReporter13ReportFailureERKN8UnitTest11TestDetailsEPKc:
 3348              	.LFB1215:
 3349              		.cfi_startproc
 3350 0000 F30F1EFA 		endbr64
 3351 0004 4154     		pushq	%r12
 3352              		.cfi_def_cfa_offset 16
 3353              		.cfi_offset 12, -16
 3354 0006 4989D4   		movq	%rdx, %r12
 3355 0009 BA000100 		movl	$256, %edx
 3355      00
 3356 000e 55       		pushq	%rbp
 3357              		.cfi_def_cfa_offset 24
 3358              		.cfi_offset 6, -24
 3359 000f 4889F5   		movq	%rsi, %rbp
 3360 0012 53       		pushq	%rbx
 3361              		.cfi_def_cfa_offset 32
 3362              		.cfi_offset 3, -32
 3363 0013 488B7610 		movq	16(%rsi), %rsi
 3364 0017 4889FB   		movq	%rdi, %rbx
 3365 001a 83870C02 		addl	$1, 524(%rdi)
 3365      000001
 3366 0021 488DBF10 		leaq	528(%rdi), %rdi
 3366      020000
 3367 0028 E8000000 		call	__strcpy_chk@PLT
 3367      00
 3368 002d 8B4518   		movl	24(%rbp), %eax
 3369 0030 488B7500 		movq	0(%rbp), %rsi
 3370 0034 488DBB14 		leaq	788(%rbx), %rdi
 3370      030000
 3371 003b BA000100 		movl	$256, %edx
 3371      00
 3372 0040 89831003 		movl	%eax, 784(%rbx)
 3372      0000
 3373 0046 E8000000 		call	__strcpy_chk@PLT
 3373      00
 3374 004b 488B7508 		movq	8(%rbp), %rsi
 3375 004f BA000100 		movl	$256, %edx
 3375      00
 3376 0054 488DBB14 		leaq	1044(%rbx), %rdi
 3376      040000
 3377 005b E8000000 		call	__strcpy_chk@PLT
 3377      00
 3378 0060 488DBB14 		leaq	1300(%rbx), %rdi
 3378      050000
 3379 0067 4C89E6   		movq	%r12, %rsi
 3380 006a 5B       		popq	%rbx
 3381              		.cfi_def_cfa_offset 24
 3382 006b BA000100 		movl	$256, %edx
 3382      00
 3383 0070 5D       		popq	%rbp
 3384              		.cfi_def_cfa_offset 16
 3385 0071 415C     		popq	%r12
 3386              		.cfi_def_cfa_offset 8
 3387 0073 E9000000 		jmp	__strcpy_chk@PLT
 3387      00
 3388              		.cfi_endproc
 3389              	.LFE1215:
 3391              		.section	.text._ZN17RecordingReporter16ReportTestFinishERKN8UnitTest11TestDetailsEf,"axG",@progbit
 3392              		.align 2
 3393              		.p2align 4
 3394              		.weak	_ZN17RecordingReporter16ReportTestFinishERKN8UnitTest11TestDetailsEf
 3396              	_ZN17RecordingReporter16ReportTestFinishERKN8UnitTest11TestDetailsEf:
 3397              	.LFB1216:
 3398              		.cfi_startproc
 3399 0000 F30F1EFA 		endbr64
 3400 0004 55       		pushq	%rbp
 3401              		.cfi_def_cfa_offset 16
 3402              		.cfi_offset 6, -16
 3403 0005 4889F5   		movq	%rsi, %rbp
 3404 0008 BA000100 		movl	$256, %edx
 3404      00
 3405 000d 53       		pushq	%rbx
 3406              		.cfi_def_cfa_offset 24
 3407              		.cfi_offset 3, -24
 3408 000e 4889FB   		movq	%rdi, %rbx
 3409 0011 4883EC18 		subq	$24, %rsp
 3410              		.cfi_def_cfa_offset 48
 3411 0015 83871406 		addl	$1, 1556(%rdi)
 3411      000001
 3412 001c 488B36   		movq	(%rsi), %rsi
 3413 001f 488DBF18 		leaq	1560(%rdi), %rdi
 3413      060000
 3414 0026 F30F1144 		movss	%xmm0, 12(%rsp)
 3414      240C
 3415 002c E8000000 		call	__strcpy_chk@PLT
 3415      00
 3416 0031 488B7508 		movq	8(%rbp), %rsi
 3417 0035 BA000100 		movl	$256, %edx
 3417      00
 3418 003a 488DBB18 		leaq	1816(%rbx), %rdi
 3418      070000
 3419 0041 E8000000 		call	__strcpy_chk@PLT
 3419      00
 3420 0046 F30F1044 		movss	12(%rsp), %xmm0
 3420      240C
 3421 004c F30F1183 		movss	%xmm0, 2072(%rbx)
 3421      18080000 
 3422 0054 4883C418 		addq	$24, %rsp
 3423              		.cfi_def_cfa_offset 24
 3424 0058 5B       		popq	%rbx
 3425              		.cfi_def_cfa_offset 16
 3426 0059 5D       		popq	%rbp
 3427              		.cfi_def_cfa_offset 8
 3428 005a C3       		ret
 3429              		.cfi_endproc
 3430              	.LFE1216:
 3432              		.section	.text._ZN17RecordingReporterD2Ev,"axG",@progbits,_ZN17RecordingReporterD5Ev,comdat
 3433              		.align 2
 3434              		.p2align 4
 3435              		.weak	_ZN17RecordingReporterD2Ev
 3437              	_ZN17RecordingReporterD2Ev:
 3438              	.LFB1523:
 3439              		.cfi_startproc
 3440 0000 F30F1EFA 		endbr64
 3441 0004 488D0500 		leaq	16+_ZTV17RecordingReporter(%rip), %rax
 3441      000000
 3442 000b 488907   		movq	%rax, (%rdi)
 3443 000e E9000000 		jmp	_ZN8UnitTest12TestReporterD2Ev@PLT
 3443      00
 3444              		.cfi_endproc
 3445              	.LFE1523:
 3447              		.weak	_ZN17RecordingReporterD1Ev
 3448              		.set	_ZN17RecordingReporterD1Ev,_ZN17RecordingReporterD2Ev
 3449              		.section	.text._ZN17RecordingReporterD0Ev,"axG",@progbits,_ZN17RecordingReporterD5Ev,comdat
 3450              		.align 2
 3451              		.p2align 4
 3452              		.weak	_ZN17RecordingReporterD0Ev
 3454              	_ZN17RecordingReporterD0Ev:
 3455              	.LFB1525:
 3456              		.cfi_startproc
 3457              		.cfi_personality 0x9b,DW.ref.__gxx_personality_v0
 3458              		.cfi_lsda 0x1b,.LLSDA1525
 3459 0000 F30F1EFA 		endbr64
 3460 0004 4154     		pushq	%r12
 3461              		.cfi_def_cfa_offset 16
 3462              		.cfi_offset 12, -16
 3463 0006 488D0500 		leaq	16+_ZTV17RecordingReporter(%rip), %rax
 3463      000000
 3464 000d 55       		pushq	%rbp
 3465              		.cfi_def_cfa_offset 24
 3466              		.cfi_offset 6, -24
 3467 000e 4889FD   		movq	%rdi, %rbp
 3468 0011 4883EC08 		subq	$8, %rsp
 3469              		.cfi_def_cfa_offset 32
 3470 0015 488907   		movq	%rax, (%rdi)
 3471              	.LEHB80:
 3472 0018 E8000000 		call	_ZN8UnitTest12TestReporterD2Ev@PLT
 3472      00
 3473              	.LEHE80:
 3474 001d 4883C408 		addq	$8, %rsp
 3475              		.cfi_remember_state
 3476              		.cfi_def_cfa_offset 24
 3477 0021 4889EF   		movq	%rbp, %rdi
 3478 0024 5D       		popq	%rbp
 3479              		.cfi_def_cfa_offset 16
 3480 0025 415C     		popq	%r12
 3481              		.cfi_def_cfa_offset 8
 3482 0027 E9000000 		jmp	_ZdlPv@PLT
 3482      00
 3483              	.L185:
 3484              		.cfi_restore_state
 3485 002c F30F1EFA 		endbr64
 3486 0030 4989C4   		movq	%rax, %r12
 3487              	.L184:
 3488 0033 4889EF   		movq	%rbp, %rdi
 3489 0036 E8000000 		call	_ZdlPv@PLT
 3489      00
 3490 003b 4C89E7   		movq	%r12, %rdi
 3491              	.LEHB81:
 3492 003e E8000000 		call	_Unwind_Resume@PLT
 3492      00
 3493              	.LEHE81:
 3494              		.cfi_endproc
 3495              	.LFE1525:
 3496              		.section	.gcc_except_table
 3497              	.LLSDA1525:
 3498 0258 FF       		.byte	0xff
 3499 0259 FF       		.byte	0xff
 3500 025a 01       		.byte	0x1
 3501 025b 08       		.uleb128 .LLSDACSE1525-.LLSDACSB1525
 3502              	.LLSDACSB1525:
 3503 025c 18       		.uleb128 .LEHB80-.LFB1525
 3504 025d 05       		.uleb128 .LEHE80-.LEHB80
 3505 025e 2C       		.uleb128 .L185-.LFB1525
 3506 025f 00       		.uleb128 0
 3507 0260 3E       		.uleb128 .LEHB81-.LFB1525
 3508 0261 05       		.uleb128 .LEHE81-.LEHB81
 3509 0262 00       		.uleb128 0
 3510 0263 00       		.uleb128 0
 3511              	.LLSDACSE1525:
 3512              		.section	.text._ZN17RecordingReporterD0Ev,"axG",@progbits,_ZN17RecordingReporterD5Ev,comdat
 3514              		.section	.rodata.str1.1
 3515              	.LC39:
 3516 005f 65786365 		.string	"exception"
 3516      7074696F 
 3516      6E00
 3517              		.section	.text.unlikely
 3518 0485 90       		.align 2
 3520              	_ZN12_GLOBAL__N_117FixtureDtorThrowsD2Ev.constprop.0:
 3521              	.LFB1535:
 3522              		.cfi_startproc
 3523 0486 50       		pushq	%rax
 3524              		.cfi_def_cfa_offset 16
 3525 0487 58       		popq	%rax
 3526              		.cfi_def_cfa_offset 8
 3527 0488 BF080000 		movl	$8, %edi
 3527      00
 3528 048d 50       		pushq	%rax
 3529              		.cfi_def_cfa_offset 16
 3530 048e E8000000 		call	__cxa_allocate_exception@PLT
 3530      00
 3531 0493 31D2     		xorl	%edx, %edx
 3532 0495 488D3500 		leaq	_ZTIPKc(%rip), %rsi
 3532      000000
 3533 049c 4889C7   		movq	%rax, %rdi
 3534 049f 488D0500 		leaq	.LC39(%rip), %rax
 3534      000000
 3535 04a6 488907   		movq	%rax, (%rdi)
 3536 04a9 E8000000 		call	__cxa_throw@PLT
 3536      00
 3537              		.cfi_endproc
 3538              	.LFE1535:
 3540              		.section	.text._ZN8UnitTest15MemoryOutStreamD1Ev,"axG",@progbits,_ZN8UnitTest15MemoryOutStreamD1Ev
 3541              		.align 2
 3542              		.p2align 4
 3543              		.weak	_ZN8UnitTest15MemoryOutStreamD1Ev
 3545              	_ZN8UnitTest15MemoryOutStreamD1Ev:
 3546              	.LFB1528:
 3547              		.cfi_startproc
 3548 0000 F30F1EFA 		endbr64
 3549 0004 55       		pushq	%rbp
 3550              		.cfi_def_cfa_offset 16
 3551              		.cfi_offset 6, -16
 3552 0005 488D0500 		leaq	24+_ZTVN8UnitTest15MemoryOutStreamE(%rip), %rax
 3552      000000
 3553 000c 53       		pushq	%rbx
 3554              		.cfi_def_cfa_offset 24
 3555              		.cfi_offset 3, -24
 3556 000d 4889FB   		movq	%rdi, %rbx
 3557 0010 4883EC08 		subq	$8, %rsp
 3558              		.cfi_def_cfa_offset 32
 3559 0014 488907   		movq	%rax, (%rdi)
 3560 0017 4883C028 		addq	$40, %rax
 3561 001b 48898790 		movq	%rax, 144(%rdi)
 3561      000000
 3562 0022 488B7F70 		movq	112(%rdi), %rdi
 3563 0026 488D8380 		leaq	128(%rbx), %rax
 3563      000000
 3564 002d 4839C7   		cmpq	%rax, %rdi
 3565 0030 7405     		je	.L190
 3566 0032 E8000000 		call	_ZdlPv@PLT
 3566      00
 3567              	.L190:
 3568 0037 488D0500 		leaq	64+_ZTCN8UnitTest15MemoryOutStreamE0_NSt7__cxx1119basic_ostringstreamIcSt11char_traitsIcESaIc
 3568      000000
 3569 003e 488D1500 		leaq	24+_ZTCN8UnitTest15MemoryOutStreamE0_NSt7__cxx1119basic_ostringstreamIcSt11char_traitsIcESaIc
 3569      000000
 3570 0045 488B7B50 		movq	80(%rbx), %rdi
 3571 0049 48898390 		movq	%rax, 144(%rbx)
 3571      000000
 3572 0050 488D0500 		leaq	16+_ZTVNSt7__cxx1115basic_stringbufIcSt11char_traitsIcESaIcEEE(%rip), %rax
 3572      000000
 3573 0057 66480F6E 		movq	%rdx, %xmm0
 3573      C2
 3574 005c 488DAB90 		leaq	144(%rbx), %rbp
 3574      000000
 3575 0063 66480F6E 		movq	%rax, %xmm1
 3575      C8
 3576 0068 488D4360 		leaq	96(%rbx), %rax
 3577 006c 660F6CC1 		punpcklqdq	%xmm1, %xmm0
 3578 0070 0F1103   		movups	%xmm0, (%rbx)
 3579 0073 4839C7   		cmpq	%rax, %rdi
 3580 0076 7405     		je	.L191
 3581 0078 E8000000 		call	_ZdlPv@PLT
 3581      00
 3582              	.L191:
 3583 007d 488D0500 		leaq	16+_ZTVSt15basic_streambufIcSt11char_traitsIcEE(%rip), %rax
 3583      000000
 3584 0084 488D7B40 		leaq	64(%rbx), %rdi
 3585 0088 48894308 		movq	%rax, 8(%rbx)
 3586 008c E8000000 		call	_ZNSt6localeD1Ev@PLT
 3586      00
 3587 0091 488D0500 		leaq	24+_ZTCN8UnitTest15MemoryOutStreamE0_So(%rip), %rax
 3587      000000
 3588 0098 4889EF   		movq	%rbp, %rdi
 3589 009b 488903   		movq	%rax, (%rbx)
 3590 009e 488D0500 		leaq	16+_ZTVSt9basic_iosIcSt11char_traitsIcEE(%rip), %rax
 3590      000000
 3591 00a5 48898390 		movq	%rax, 144(%rbx)
 3591      000000
 3592 00ac 4883C408 		addq	$8, %rsp
 3593              		.cfi_def_cfa_offset 24
 3594 00b0 5B       		popq	%rbx
 3595              		.cfi_def_cfa_offset 16
 3596 00b1 5D       		popq	%rbp
 3597              		.cfi_def_cfa_offset 8
 3598 00b2 E9000000 		jmp	_ZNSt8ios_baseD2Ev@PLT
 3598      00
 3599              		.cfi_endproc
 3600              	.LFE1528:
 3602 00b7 660F1F84 		.p2align 4
 3602      00000000 
 3602      00
 3603              		.weak	_ZTv0_n24_N8UnitTest15MemoryOutStreamD1Ev
 3605              	_ZTv0_n24_N8UnitTest15MemoryOutStreamD1Ev:
 3606              	.LFB1534:
 3607              		.cfi_startproc
 3608 00c0 F30F1EFA 		endbr64
 3609 00c4 55       		pushq	%rbp
 3610              		.cfi_def_cfa_offset 16
 3611              		.cfi_offset 6, -16
 3612 00c5 53       		pushq	%rbx
 3613              		.cfi_def_cfa_offset 24
 3614              		.cfi_offset 3, -24
 3615 00c6 4889FB   		movq	%rdi, %rbx
 3616 00c9 4883EC08 		subq	$8, %rsp
 3617              		.cfi_def_cfa_offset 32
 3618 00cd 488B07   		movq	(%rdi), %rax
 3619 00d0 480358E8 		addq	-24(%rax), %rbx
 3620 00d4 488D0500 		leaq	24+_ZTVN8UnitTest15MemoryOutStreamE(%rip), %rax
 3620      000000
 3621 00db 488903   		movq	%rax, (%rbx)
 3622 00de 488B7B70 		movq	112(%rbx), %rdi
 3623 00e2 4883C028 		addq	$40, %rax
 3624 00e6 48898390 		movq	%rax, 144(%rbx)
 3624      000000
 3625 00ed 488D8380 		leaq	128(%rbx), %rax
 3625      000000
 3626 00f4 4839C7   		cmpq	%rax, %rdi
 3627 00f7 7405     		je	.L194
 3628 00f9 E8000000 		call	_ZdlPv@PLT
 3628      00
 3629              	.L194:
 3630 00fe 488D0500 		leaq	64+_ZTCN8UnitTest15MemoryOutStreamE0_NSt7__cxx1119basic_ostringstreamIcSt11char_traitsIcESaIc
 3630      000000
 3631 0105 488D1500 		leaq	24+_ZTCN8UnitTest15MemoryOutStreamE0_NSt7__cxx1119basic_ostringstreamIcSt11char_traitsIcESaIc
 3631      000000
 3632 010c 488B7B50 		movq	80(%rbx), %rdi
 3633 0110 48898390 		movq	%rax, 144(%rbx)
 3633      000000
 3634 0117 488D0500 		leaq	16+_ZTVNSt7__cxx1115basic_stringbufIcSt11char_traitsIcESaIcEEE(%rip), %rax
 3634      000000
 3635 011e 66480F6E 		movq	%rdx, %xmm0
 3635      C2
 3636 0123 488DAB90 		leaq	144(%rbx), %rbp
 3636      000000
 3637 012a 66480F6E 		movq	%rax, %xmm1
 3637      C8
 3638 012f 488D4360 		leaq	96(%rbx), %rax
 3639 0133 660F6CC1 		punpcklqdq	%xmm1, %xmm0
 3640 0137 0F1103   		movups	%xmm0, (%rbx)
 3641 013a 4839C7   		cmpq	%rax, %rdi
 3642 013d 7405     		je	.L195
 3643 013f E8000000 		call	_ZdlPv@PLT
 3643      00
 3644              	.L195:
 3645 0144 488D0500 		leaq	16+_ZTVSt15basic_streambufIcSt11char_traitsIcEE(%rip), %rax
 3645      000000
 3646 014b 488D7B40 		leaq	64(%rbx), %rdi
 3647 014f 48894308 		movq	%rax, 8(%rbx)
 3648 0153 E8000000 		call	_ZNSt6localeD1Ev@PLT
 3648      00
 3649 0158 488D0500 		leaq	24+_ZTCN8UnitTest15MemoryOutStreamE0_So(%rip), %rax
 3649      000000
 3650 015f 4889EF   		movq	%rbp, %rdi
 3651 0162 488903   		movq	%rax, (%rbx)
 3652 0165 488D0500 		leaq	16+_ZTVSt9basic_iosIcSt11char_traitsIcEE(%rip), %rax
 3652      000000
 3653 016c 48898390 		movq	%rax, 144(%rbx)
 3653      000000
 3654 0173 4883C408 		addq	$8, %rsp
 3655              		.cfi_def_cfa_offset 24
 3656 0177 5B       		popq	%rbx
 3657              		.cfi_def_cfa_offset 16
 3658 0178 5D       		popq	%rbp
 3659              		.cfi_def_cfa_offset 8
 3660 0179 E9000000 		jmp	_ZNSt8ios_baseD2Ev@PLT
 3660      00
 3661              		.cfi_endproc
 3662              	.LFE1534:
 3664              		.section	.text._ZN8UnitTest15MemoryOutStreamD0Ev,"axG",@progbits,_ZN8UnitTest15MemoryOutStreamD0Ev
 3665              		.align 2
 3666              		.p2align 4
 3667              		.weak	_ZN8UnitTest15MemoryOutStreamD0Ev
 3669              	_ZN8UnitTest15MemoryOutStreamD0Ev:
 3670              	.LFB1529:
 3671              		.cfi_startproc
 3672              		.cfi_personality 0x9b,DW.ref.__gxx_personality_v0
 3673              		.cfi_lsda 0x1b,.LLSDA1529
 3674 0000 F30F1EFA 		endbr64
 3675 0004 4154     		pushq	%r12
 3676              		.cfi_def_cfa_offset 16
 3677              		.cfi_offset 12, -16
 3678 0006 488D0500 		leaq	24+_ZTVN8UnitTest15MemoryOutStreamE(%rip), %rax
 3678      000000
 3679 000d 55       		pushq	%rbp
 3680              		.cfi_def_cfa_offset 24
 3681              		.cfi_offset 6, -24
 3682 000e 4889FD   		movq	%rdi, %rbp
 3683 0011 4883EC08 		subq	$8, %rsp
 3684              		.cfi_def_cfa_offset 32
 3685 0015 488907   		movq	%rax, (%rdi)
 3686 0018 4883C028 		addq	$40, %rax
 3687 001c 48898790 		movq	%rax, 144(%rdi)
 3687      000000
 3688 0023 488B7F70 		movq	112(%rdi), %rdi
 3689 0027 488D8580 		leaq	128(%rbp), %rax
 3689      000000
 3690 002e 4839C7   		cmpq	%rax, %rdi
 3691 0031 7405     		je	.L198
 3692 0033 E8000000 		call	_ZdlPv@PLT
 3692      00
 3693              	.L198:
 3694 0038 488D0500 		leaq	64+_ZTCN8UnitTest15MemoryOutStreamE0_NSt7__cxx1119basic_ostringstreamIcSt11char_traitsIcESaIc
 3694      000000
 3695 003f 488D1500 		leaq	24+_ZTCN8UnitTest15MemoryOutStreamE0_NSt7__cxx1119basic_ostringstreamIcSt11char_traitsIcESaIc
 3695      000000
 3696 0046 488B7D50 		movq	80(%rbp), %rdi
 3697 004a 48898590 		movq	%rax, 144(%rbp)
 3697      000000
 3698 0051 488D0500 		leaq	16+_ZTVNSt7__cxx1115basic_stringbufIcSt11char_traitsIcESaIcEEE(%rip), %rax
 3698      000000
 3699 0058 66480F6E 		movq	%rdx, %xmm0
 3699      C2
 3700 005d 4C8DA590 		leaq	144(%rbp), %r12
 3700      000000
 3701 0064 66480F6E 		movq	%rax, %xmm1
 3701      C8
 3702 0069 488D4560 		leaq	96(%rbp), %rax
 3703 006d 660F6CC1 		punpcklqdq	%xmm1, %xmm0
 3704 0071 0F114500 		movups	%xmm0, 0(%rbp)
 3705 0075 4839C7   		cmpq	%rax, %rdi
 3706 0078 7405     		je	.L199
 3707 007a E8000000 		call	_ZdlPv@PLT
 3707      00
 3708              	.L199:
 3709 007f 488D0500 		leaq	16+_ZTVSt15basic_streambufIcSt11char_traitsIcEE(%rip), %rax
 3709      000000
 3710 0086 488D7D40 		leaq	64(%rbp), %rdi
 3711 008a 48894508 		movq	%rax, 8(%rbp)
 3712 008e E8000000 		call	_ZNSt6localeD1Ev@PLT
 3712      00
 3713 0093 488D0500 		leaq	24+_ZTCN8UnitTest15MemoryOutStreamE0_So(%rip), %rax
 3713      000000
 3714 009a 4C89E7   		movq	%r12, %rdi
 3715 009d 48894500 		movq	%rax, 0(%rbp)
 3716 00a1 488D0500 		leaq	16+_ZTVSt9basic_iosIcSt11char_traitsIcEE(%rip), %rax
 3716      000000
 3717 00a8 48898590 		movq	%rax, 144(%rbp)
 3717      000000
 3718              	.LEHB82:
 3719 00af E8000000 		call	_ZNSt8ios_baseD2Ev@PLT
 3719      00
 3720              	.LEHE82:
 3721 00b4 4883C408 		addq	$8, %rsp
 3722              		.cfi_remember_state
 3723              		.cfi_def_cfa_offset 24
 3724 00b8 4889EF   		movq	%rbp, %rdi
 3725 00bb 5D       		popq	%rbp
 3726              		.cfi_def_cfa_offset 16
 3727 00bc 415C     		popq	%r12
 3728              		.cfi_def_cfa_offset 8
 3729 00be E9000000 		jmp	_ZdlPv@PLT
 3729      00
 3730              	.L201:
 3731              		.cfi_restore_state
 3732 00c3 F30F1EFA 		endbr64
 3733 00c7 4989C4   		movq	%rax, %r12
 3734              	.L200:
 3735 00ca 4889EF   		movq	%rbp, %rdi
 3736 00cd E8000000 		call	_ZdlPv@PLT
 3736      00
 3737 00d2 4C89E7   		movq	%r12, %rdi
 3738              	.LEHB83:
 3739 00d5 E8000000 		call	_Unwind_Resume@PLT
 3739      00
 3740              	.LEHE83:
 3741              		.cfi_endproc
 3742              	.LFE1529:
 3743              		.section	.gcc_except_table
 3744              	.LLSDA1529:
 3745 0264 FF       		.byte	0xff
 3746 0265 FF       		.byte	0xff
 3747 0266 01       		.byte	0x1
 3748 0267 0B       		.uleb128 .LLSDACSE1529-.LLSDACSB1529
 3749              	.LLSDACSB1529:
 3750 0268 AF01     		.uleb128 .LEHB82-.LFB1529
 3751 026a 05       		.uleb128 .LEHE82-.LEHB82
 3752 026b C301     		.uleb128 .L201-.LFB1529
 3753 026d 00       		.uleb128 0
 3754 026e D501     		.uleb128 .LEHB83-.LFB1529
 3755 0270 05       		.uleb128 .LEHE83-.LEHB83
 3756 0271 00       		.uleb128 0
 3757 0272 00       		.uleb128 0
 3758              	.LLSDACSE1529:
 3759              		.section	.text._ZN8UnitTest15MemoryOutStreamD0Ev,"axG",@progbits,_ZN8UnitTest15MemoryOutStreamD0Ev
 3761 00da 660F1F44 		.p2align 4
 3761      0000
 3762              		.weak	_ZTv0_n24_N8UnitTest15MemoryOutStreamD0Ev
 3764              	_ZTv0_n24_N8UnitTest15MemoryOutStreamD0Ev:
 3765              	.LFB1533:
 3766              		.cfi_startproc
 3767              		.cfi_personality 0x9b,DW.ref.__gxx_personality_v0
 3768              		.cfi_lsda 0x1b,.LLSDA1533
 3769 00e0 F30F1EFA 		endbr64
 3770 00e4 4154     		pushq	%r12
 3771              		.cfi_def_cfa_offset 16
 3772              		.cfi_offset 12, -16
 3773 00e6 55       		pushq	%rbp
 3774              		.cfi_def_cfa_offset 24
 3775              		.cfi_offset 6, -24
 3776 00e7 4889FD   		movq	%rdi, %rbp
 3777 00ea 4883EC08 		subq	$8, %rsp
 3778              		.cfi_def_cfa_offset 32
 3779 00ee 488B07   		movq	(%rdi), %rax
 3780 00f1 480368E8 		addq	-24(%rax), %rbp
 3781 00f5 488D0500 		leaq	24+_ZTVN8UnitTest15MemoryOutStreamE(%rip), %rax
 3781      000000
 3782 00fc 48894500 		movq	%rax, 0(%rbp)
 3783 0100 488B7D70 		movq	112(%rbp), %rdi
 3784 0104 4883C028 		addq	$40, %rax
 3785 0108 48898590 		movq	%rax, 144(%rbp)
 3785      000000
 3786 010f 488D8580 		leaq	128(%rbp), %rax
 3786      000000
 3787 0116 4839C7   		cmpq	%rax, %rdi
 3788 0119 7405     		je	.L204
 3789 011b E8000000 		call	_ZdlPv@PLT
 3789      00
 3790              	.L204:
 3791 0120 488D0500 		leaq	64+_ZTCN8UnitTest15MemoryOutStreamE0_NSt7__cxx1119basic_ostringstreamIcSt11char_traitsIcESaIc
 3791      000000
 3792 0127 488D1500 		leaq	24+_ZTCN8UnitTest15MemoryOutStreamE0_NSt7__cxx1119basic_ostringstreamIcSt11char_traitsIcESaIc
 3792      000000
 3793 012e 488B7D50 		movq	80(%rbp), %rdi
 3794 0132 48898590 		movq	%rax, 144(%rbp)
 3794      000000
 3795 0139 488D0500 		leaq	16+_ZTVNSt7__cxx1115basic_stringbufIcSt11char_traitsIcESaIcEEE(%rip), %rax
 3795      000000
 3796 0140 66480F6E 		movq	%rdx, %xmm0
 3796      C2
 3797 0145 4C8DA590 		leaq	144(%rbp), %r12
 3797      000000
 3798 014c 66480F6E 		movq	%rax, %xmm1
 3798      C8
 3799 0151 488D4560 		leaq	96(%rbp), %rax
 3800 0155 660F6CC1 		punpcklqdq	%xmm1, %xmm0
 3801 0159 0F114500 		movups	%xmm0, 0(%rbp)
 3802 015d 4839C7   		cmpq	%rax, %rdi
 3803 0160 7405     		je	.L205
 3804 0162 E8000000 		call	_ZdlPv@PLT
 3804      00
 3805              	.L205:
 3806 0167 488D0500 		leaq	16+_ZTVSt15basic_streambufIcSt11char_traitsIcEE(%rip), %rax
 3806      000000
 3807 016e 488D7D40 		leaq	64(%rbp), %rdi
 3808 0172 48894508 		movq	%rax, 8(%rbp)
 3809 0176 E8000000 		call	_ZNSt6localeD1Ev@PLT
 3809      00
 3810 017b 488D0500 		leaq	24+_ZTCN8UnitTest15MemoryOutStreamE0_So(%rip), %rax
 3810      000000
 3811 0182 4C89E7   		movq	%r12, %rdi
 3812 0185 48894500 		movq	%rax, 0(%rbp)
 3813 0189 488D0500 		leaq	16+_ZTVSt9basic_iosIcSt11char_traitsIcEE(%rip), %rax
 3813      000000
 3814 0190 48898590 		movq	%rax, 144(%rbp)
 3814      000000
 3815              	.LEHB84:
 3816 0197 E8000000 		call	_ZNSt8ios_baseD2Ev@PLT
 3816      00
 3817              	.LEHE84:
 3818 019c 4883C408 		addq	$8, %rsp
 3819              		.cfi_remember_state
 3820              		.cfi_def_cfa_offset 24
 3821 01a0 4889EF   		movq	%rbp, %rdi
 3822 01a3 5D       		popq	%rbp
 3823              		.cfi_def_cfa_offset 16
 3824 01a4 415C     		popq	%r12
 3825              		.cfi_def_cfa_offset 8
 3826 01a6 E9000000 		jmp	_ZdlPv@PLT
 3826      00
 3827              	.L207:
 3828              		.cfi_restore_state
 3829 01ab F30F1EFA 		endbr64
 3830 01af 4989C4   		movq	%rax, %r12
 3831              	.L206:
 3832 01b2 4889EF   		movq	%rbp, %rdi
 3833 01b5 E8000000 		call	_ZdlPv@PLT
 3833      00
 3834 01ba 4C89E7   		movq	%r12, %rdi
 3835              	.LEHB85:
 3836 01bd E8000000 		call	_Unwind_Resume@PLT
 3836      00
 3837              	.LEHE85:
 3838              		.cfi_endproc
 3839              	.LFE1533:
 3840              		.section	.gcc_except_table
 3841              	.LLSDA1533:
 3842 0273 FF       		.byte	0xff
 3843 0274 FF       		.byte	0xff
 3844 0275 01       		.byte	0x1
 3845 0276 0B       		.uleb128 .LLSDACSE1533-.LLSDACSB1533
 3846              	.LLSDACSB1533:
 3847 0277 B701     		.uleb128 .LEHB84-.LFB1533
 3848 0279 05       		.uleb128 .LEHE84-.LEHB84
 3849 027a CB01     		.uleb128 .L207-.LFB1533
 3850 027c 00       		.uleb128 0
 3851 027d DD01     		.uleb128 .LEHB85-.LFB1533
 3852 027f 05       		.uleb128 .LEHE85-.LEHB85
 3853 0280 00       		.uleb128 0
 3854 0281 00       		.uleb128 0
 3855              	.LLSDACSE1533:
 3856              		.section	.text._ZN8UnitTest15MemoryOutStreamD0Ev,"axG",@progbits,_ZN8UnitTest15MemoryOutStreamD0Ev
 3858              		.section	.text._ZN17ScopedCurrentTestD2Ev,"axG",@progbits,_ZN17ScopedCurrentTestD5Ev,comdat
 3859              		.align 2
 3860              		.p2align 4
 3861              		.weak	_ZN17ScopedCurrentTestD2Ev
 3863              	_ZN17ScopedCurrentTestD2Ev:
 3864              	.LFB1225:
 3865              		.cfi_startproc
 3866 0000 F30F1EFA 		endbr64
 3867 0004 53       		pushq	%rbx
 3868              		.cfi_def_cfa_offset 16
 3869              		.cfi_offset 3, -16
 3870 0005 4889FB   		movq	%rdi, %rbx
 3871 0008 E8000000 		call	_ZN8UnitTest11CurrentTest7ResultsEv@PLT
 3871      00
 3872 000d 488B13   		movq	(%rbx), %rdx
 3873 0010 488910   		movq	%rdx, (%rax)
 3874 0013 E8000000 		call	_ZN8UnitTest11CurrentTest7DetailsEv@PLT
 3874      00
 3875 0018 488B5308 		movq	8(%rbx), %rdx
 3876 001c 488910   		movq	%rdx, (%rax)
 3877 001f 5B       		popq	%rbx
 3878              		.cfi_def_cfa_offset 8
 3879 0020 C3       		ret
 3880              		.cfi_endproc
 3881              	.LFE1225:
 3883              		.weak	_ZN17ScopedCurrentTestD1Ev
 3884              		.set	_ZN17ScopedCurrentTestD1Ev,_ZN17ScopedCurrentTestD2Ev
 3885              		.section	.rodata.str1.1
 3886              	.LC41:
 3887 0069 78636570 		.string	"xception"
 3887      74696F6E 
 3887      00
 3888              		.section	.rodata.str1.8
 3889 0361 00000000 		.align 8
 3889      000000
 3890              	.LC42:
 3891 0368 73747273 		.string	"strstr(reporter.lastFailedMessage, \"xception\")"
 3891      74722872 
 3891      65706F72 
 3891      7465722E 
 3891      6C617374 
 3892              		.section	.rodata.str1.1
 3893              	.LC43:
 3894 0072 66697874 		.string	"fixture"
 3894      75726500 
 3895              		.section	.rodata.str1.8
 3896 0397 00       		.align 8
 3897              	.LC44:
 3898 0398 73747273 		.string	"strstr(reporter.lastFailedMessage, \"fixture\")"
 3898      74722872 
 3898      65706F72 
 3898      7465722E 
 3898      6C617374 
 3899              		.section	.rodata.str1.1
 3900              	.LC45:
 3901 007a 5468726F 		.string	"ThrowingThingie"
 3901      77696E67 
 3901      5468696E 
 3901      67696500 
 3902              		.section	.rodata.str1.8
 3903 03c6 0000     		.align 8
 3904              	.LC46:
 3905 03c8 73747273 		.string	"strstr(reporter.lastFailedMessage, \"ThrowingThingie\")"
 3905      74722872 
 3905      65706F72 
 3905      7465722E 
 3905      6C617374 
 3906 03fe 0000     		.align 8
 3907              	.LC47:
 3908 0400 556E6861 		.string	"Unhandled exception in CHECK(strstr(reporter.lastFailedMessage, \"xception\"))"
 3908      6E646C65 
 3908      64206578 
 3908      63657074 
 3908      696F6E20 
 3909 044d 000000   		.align 8
 3910              	.LC48:
 3911 0450 556E6861 		.string	"Unhandled exception in CHECK(strstr(reporter.lastFailedMessage, \"fixture\"))"
 3911      6E646C65 
 3911      64206578 
 3911      63657074 
 3911      696F6E20 
 3912 049c 00000000 		.align 8
 3913              	.LC49:
 3914 04a0 556E6861 		.string	"Unhandled exception in CHECK(strstr(reporter.lastFailedMessage, \"ThrowingThingie\"))"
 3914      6E646C65 
 3914      64206578 
 3914      63657074 
 3914      696F6E20 
 3915              		.section	.text.unlikely
 3916              		.align 2
 3917              	.LCOLDB50:
 3918              		.text
 3919              	.LHOTB50:
 3920              		.align 2
 3921 0aa4 66662E0F 		.p2align 4
 3921      1F840000 
 3921      00000090 
 3923              	_ZNK12_GLOBAL__N_157TestExceptionsInFixtureAreReportedAsHappeningInTheFixture7RunImplEv:
 3924              	.LFB1249:
 3925              		.cfi_startproc
 3926              		.cfi_personality 0x9b,DW.ref.__gxx_personality_v0
 3927              		.cfi_lsda 0x1b,.LLSDA1249
 3928 0ab0 F30F1EFA 		endbr64
 3929 0ab4 4156     		pushq	%r14
 3930              		.cfi_def_cfa_offset 16
 3931              		.cfi_offset 14, -16
 3932 0ab6 4155     		pushq	%r13
 3933              		.cfi_def_cfa_offset 24
 3934              		.cfi_offset 13, -24
 3935 0ab8 4154     		pushq	%r12
 3936              		.cfi_def_cfa_offset 32
 3937              		.cfi_offset 12, -32
 3938 0aba 55       		pushq	%rbp
 3939              		.cfi_def_cfa_offset 40
 3940              		.cfi_offset 6, -40
 3941 0abb 53       		pushq	%rbx
 3942              		.cfi_def_cfa_offset 48
 3943              		.cfi_offset 3, -48
 3944 0abc 488D1D00 		leaq	16+_ZTV17RecordingReporter(%rip), %rbx
 3944      000000
 3945 0ac3 4881EC80 		subq	$2176, %rsp
 3945      080000
 3946              		.cfi_def_cfa_offset 2224
 3947 0aca 64488B04 		movq	%fs:40, %rax
 3947      25280000 
 3947      00
 3948 0ad3 48898424 		movq	%rax, 2168(%rsp)
 3948      78080000 
 3949 0adb 31C0     		xorl	%eax, %eax
 3950 0add 4C8D6424 		leaq	64(%rsp), %r12
 3950      40
 3951 0ae2 4989E6   		movq	%rsp, %r14
 3952 0ae5 48895C24 		movq	%rbx, 64(%rsp)
 3952      40
 3953 0aea 4C89E6   		movq	%r12, %rsi
 3954 0aed 4C89F7   		movq	%r14, %rdi
 3955 0af0 C7442448 		movl	$0, 72(%rsp)
 3955      00000000 
 3956 0af8 C784244C 		movl	$0, 588(%rsp)
 3956      02000000 
 3956      000000
 3957 0b03 C7842450 		movl	$0, 848(%rsp)
 3957      03000000 
 3957      000000
 3958 0b0e C7842454 		movl	$0, 1620(%rsp)
 3958      06000000 
 3958      000000
 3959 0b19 48C78424 		movq	$0, 2136(%rsp)
 3959      58080000 
 3959      00000000 
 3960 0b25 48C78424 		movq	$0, 2144(%rsp)
 3960      60080000 
 3960      00000000 
 3961 0b31 C7842468 		movl	$0x00000000, 2152(%rsp)
 3961      08000000 
 3961      000000
 3962 0b3c C644244C 		movb	$0, 76(%rsp)
 3962      00
 3963 0b41 C684244C 		movb	$0, 332(%rsp)
 3963      01000000 
 3964 0b49 C6842450 		movb	$0, 592(%rsp)
 3964      02000000 
 3965 0b51 C6842454 		movb	$0, 852(%rsp)
 3965      03000000 
 3966 0b59 C6842454 		movb	$0, 1108(%rsp)
 3966      04000000 
 3967 0b61 C6842454 		movb	$0, 1364(%rsp)
 3967      05000000 
 3968 0b69 C6842458 		movb	$0, 1624(%rsp)
 3968      06000000 
 3969 0b71 C6842458 		movb	$0, 1880(%rsp)
 3969      07000000 
 3970              	.LEHB86:
 3971 0b79 E8000000 		call	_ZN8UnitTest11TestResultsC1EPNS_12TestReporterE@PLT
 3971      00
 3972 0b7e E8000000 		call	_ZN8UnitTest11CurrentTest7ResultsEv@PLT
 3972      00
 3973 0b83 4C8B28   		movq	(%rax), %r13
 3974 0b86 4C896C24 		movq	%r13, 32(%rsp)
 3974      20
 3975 0b8b E8000000 		call	_ZN8UnitTest11CurrentTest7DetailsEv@PLT
 3975      00
 3976 0b90 488B28   		movq	(%rax), %rbp
 3977 0b93 48896C24 		movq	%rbp, 40(%rsp)
 3977      28
 3978 0b98 E8000000 		call	_ZN8UnitTest11CurrentTest7ResultsEv@PLT
 3978      00
 3979              	.LEHE86:
 3980 0b9d 4C8930   		movq	%r14, (%rax)
 3981 0ba0 488D3D00 		leaq	_ZN12_GLOBAL__N_15list2E(%rip), %rdi
 3981      000000
 3982              	.LEHB87:
 3983 0ba7 E8000000 		call	_ZNK8UnitTest8TestList7GetHeadEv@PLT
 3983      00
 3984 0bac 4889C7   		movq	%rax, %rdi
 3985 0baf E8000000 		call	_ZN8UnitTest4Test3RunEv@PLT
 3985      00
 3986              	.LEHE87:
 3987              	.LEHB88:
 3988 0bb4 E8000000 		call	_ZN8UnitTest11CurrentTest7ResultsEv@PLT
 3988      00
 3989 0bb9 4C8928   		movq	%r13, (%rax)
 3990 0bbc E8000000 		call	_ZN8UnitTest11CurrentTest7DetailsEv@PLT
 3990      00
 3991              	.LEHE88:
 3992 0bc1 488928   		movq	%rbp, (%rax)
 3993 0bc4 488DAC24 		leaq	1364(%rsp), %rbp
 3993      54050000 
 3994 0bcc 488D3500 		leaq	.LC41(%rip), %rsi
 3994      000000
 3995 0bd3 4889EF   		movq	%rbp, %rdi
 3996 0bd6 E8000000 		call	strstr@PLT
 3996      00
 3997 0bdb 4885C0   		testq	%rax, %rax
 3998 0bde 0F84DC00 		je	.L242
 3998      0000
 3999              	.L213:
 4000 0be4 488D3500 		leaq	.LC43(%rip), %rsi
 4000      000000
 4001 0beb 4889EF   		movq	%rbp, %rdi
 4002 0bee E8000000 		call	strstr@PLT
 4002      00
 4003 0bf3 4885C0   		testq	%rax, %rax
 4004 0bf6 0F848400 		je	.L243
 4004      0000
 4005              	.L215:
 4006 0bfc 488D3500 		leaq	.LC45(%rip), %rsi
 4006      000000
 4007 0c03 4889EF   		movq	%rbp, %rdi
 4008 0c06 E8000000 		call	strstr@PLT
 4008      00
 4009 0c0b 4885C0   		testq	%rax, %rax
 4010 0c0e 7438     		je	.L244
 4011              	.L217:
 4012 0c10 4C89E7   		movq	%r12, %rdi
 4013 0c13 48895C24 		movq	%rbx, 64(%rsp)
 4013      40
 4014              	.LEHB89:
 4015 0c18 E8000000 		call	_ZN8UnitTest12TestReporterD2Ev@PLT
 4015      00
 4016              	.LEHE89:
 4017 0c1d 488B8424 		movq	2168(%rsp), %rax
 4017      78080000 
 4018 0c25 64482B04 		subq	%fs:40, %rax
 4018      25280000 
 4018      00
 4019 0c2e 0F85C500 		jne	.L245
 4019      0000
 4020 0c34 4881C480 		addq	$2176, %rsp
 4020      080000
 4021              		.cfi_remember_state
 4022              		.cfi_def_cfa_offset 48
 4023 0c3b 5B       		popq	%rbx
 4024              		.cfi_def_cfa_offset 40
 4025 0c3c 5D       		popq	%rbp
 4026              		.cfi_def_cfa_offset 32
 4027 0c3d 415C     		popq	%r12
 4028              		.cfi_def_cfa_offset 24
 4029 0c3f 415D     		popq	%r13
 4030              		.cfi_def_cfa_offset 16
 4031 0c41 415E     		popq	%r14
 4032              		.cfi_def_cfa_offset 8
 4033 0c43 C3       		ret
 4034              		.p2align 4,,10
 4035 0c44 0F1F4000 		.p2align 3
 4036              	.L244:
 4037              		.cfi_restore_state
 4038              	.LEHB90:
 4039 0c48 E8000000 		call	_ZN8UnitTest11CurrentTest7ResultsEv@PLT
 4039      00
 4040 0c4d 488B28   		movq	(%rax), %rbp
 4041 0c50 E8000000 		call	_ZN8UnitTest11CurrentTest7DetailsEv@PLT
 4041      00
 4042 0c55 4C8D6C24 		leaq	32(%rsp), %r13
 4042      20
 4043 0c5a 488B30   		movq	(%rax), %rsi
 4044 0c5d BA340000 		movl	$52, %edx
 4044      00
 4045 0c62 4C89EF   		movq	%r13, %rdi
 4046 0c65 E8000000 		call	_ZN8UnitTest11TestDetailsC1ERKS0_i@PLT
 4046      00
 4047 0c6a 488D1500 		leaq	.LC46(%rip), %rdx
 4047      000000
 4048 0c71 4C89EE   		movq	%r13, %rsi
 4049 0c74 4889EF   		movq	%rbp, %rdi
 4050 0c77 E8000000 		call	_ZN8UnitTest11TestResults13OnTestFailureERKNS_11TestDetailsEPKc@PLT
 4050      00
 4051              	.LEHE90:
 4052 0c7c EB92     		jmp	.L217
 4053 0c7e 6690     		.p2align 4,,10
 4054              		.p2align 3
 4055              	.L243:
 4056              	.LEHB91:
 4057 0c80 E8000000 		call	_ZN8UnitTest11CurrentTest7ResultsEv@PLT
 4057      00
 4058 0c85 4C8B30   		movq	(%rax), %r14
 4059 0c88 E8000000 		call	_ZN8UnitTest11CurrentTest7DetailsEv@PLT
 4059      00
 4060 0c8d 4C8D6C24 		leaq	32(%rsp), %r13
 4060      20
 4061 0c92 488B30   		movq	(%rax), %rsi
 4062 0c95 BA330000 		movl	$51, %edx
 4062      00
 4063 0c9a 4C89EF   		movq	%r13, %rdi
 4064 0c9d E8000000 		call	_ZN8UnitTest11TestDetailsC1ERKS0_i@PLT
 4064      00
 4065 0ca2 488D1500 		leaq	.LC44(%rip), %rdx
 4065      000000
 4066 0ca9 4C89EE   		movq	%r13, %rsi
 4067 0cac 4C89F7   		movq	%r14, %rdi
 4068 0caf E8000000 		call	_ZN8UnitTest11TestResults13OnTestFailureERKNS_11TestDetailsEPKc@PLT
 4068      00
 4069              	.LEHE91:
 4070 0cb4 E943FFFF 		jmp	.L215
 4070      FF
 4071 0cb9 0F1F8000 		.p2align 4,,10
 4071      000000
 4072              		.p2align 3
 4073              	.L242:
 4074              	.LEHB92:
 4075 0cc0 E8000000 		call	_ZN8UnitTest11CurrentTest7ResultsEv@PLT
 4075      00
 4076 0cc5 4C8B30   		movq	(%rax), %r14
 4077 0cc8 E8000000 		call	_ZN8UnitTest11CurrentTest7DetailsEv@PLT
 4077      00
 4078 0ccd 4C8D6C24 		leaq	32(%rsp), %r13
 4078      20
 4079 0cd2 488B30   		movq	(%rax), %rsi
 4080 0cd5 BA320000 		movl	$50, %edx
 4080      00
 4081 0cda 4C89EF   		movq	%r13, %rdi
 4082 0cdd E8000000 		call	_ZN8UnitTest11TestDetailsC1ERKS0_i@PLT
 4082      00
 4083 0ce2 488D1500 		leaq	.LC42(%rip), %rdx
 4083      000000
 4084 0ce9 4C89EE   		movq	%r13, %rsi
 4085 0cec 4C89F7   		movq	%r14, %rdi
 4086 0cef E8000000 		call	_ZN8UnitTest11TestResults13OnTestFailureERKNS_11TestDetailsEPKc@PLT
 4086      00
 4087              	.LEHE92:
 4088 0cf4 E9EBFEFF 		jmp	.L213
 4088      FF
 4089              	.L245:
 4090 0cf9 E8000000 		call	__stack_chk_fail@PLT
 4090      00
 4091              	.L232:
 4092 0cfe F30F1EFA 		endbr64
 4093 0d02 4889C7   		movq	%rax, %rdi
 4094 0d05 E9000000 		jmp	.L220
 4094      00
 4095              	.L234:
 4096 0d0a F30F1EFA 		endbr64
 4097 0d0e 4889C7   		movq	%rax, %rdi
 4098 0d11 E9000000 		jmp	.L223
 4098      00
 4099              	.L238:
 4100 0d16 F30F1EFA 		endbr64
 4101 0d1a E9000000 		jmp	.L239
 4101      00
 4102              	.L231:
 4103 0d1f F30F1EFA 		endbr64
 4104 0d23 4889C5   		movq	%rax, %rbp
 4105 0d26 E9000000 		jmp	.L218
 4105      00
 4106              	.L236:
 4107 0d2b F30F1EFA 		endbr64
 4108 0d2f 4889C7   		movq	%rax, %rdi
 4109 0d32 E9000000 		jmp	.L226
 4109      00
 4110              		.section	.gcc_except_table
 4111 0282 0000     		.align 4
 4112              	.LLSDA1249:
 4113 0284 FF       		.byte	0xff
 4114 0285 9B       		.byte	0x9b
 4115 0286 31       		.uleb128 .LLSDATT1249-.LLSDATTD1249
 4116              	.LLSDATTD1249:
 4117 0287 01       		.byte	0x1
 4118 0288 29       		.uleb128 .LLSDACSE1249-.LLSDACSB1249
 4119              	.LLSDACSB1249:
 4120 0289 C901     		.uleb128 .LEHB86-.LFB1249
 4121 028b 24       		.uleb128 .LEHE86-.LEHB86
 4122 028c E604     		.uleb128 .L238-.LFB1249
 4123 028e 00       		.uleb128 0
 4124 028f F701     		.uleb128 .LEHB87-.LFB1249
 4125 0291 0D       		.uleb128 .LEHE87-.LEHB87
 4126 0292 EF04     		.uleb128 .L231-.LFB1249
 4127 0294 00       		.uleb128 0
 4128 0295 8402     		.uleb128 .LEHB88-.LFB1249
 4129 0297 0D       		.uleb128 .LEHE88-.LEHB88
 4130 0298 E604     		.uleb128 .L238-.LFB1249
 4131 029a 00       		.uleb128 0
 4132 029b E802     		.uleb128 .LEHB89-.LFB1249
 4133 029d 05       		.uleb128 .LEHE89-.LEHB89
 4134 029e 00       		.uleb128 0
 4135 029f 00       		.uleb128 0
 4136 02a0 9803     		.uleb128 .LEHB90-.LFB1249
 4137 02a2 34       		.uleb128 .LEHE90-.LEHB90
 4138 02a3 FB04     		.uleb128 .L236-.LFB1249
 4139 02a5 01       		.uleb128 0x1
 4140 02a6 D003     		.uleb128 .LEHB91-.LFB1249
 4141 02a8 34       		.uleb128 .LEHE91-.LEHB91
 4142 02a9 DA04     		.uleb128 .L234-.LFB1249
 4143 02ab 01       		.uleb128 0x1
 4144 02ac 9004     		.uleb128 .LEHB92-.LFB1249
 4145 02ae 34       		.uleb128 .LEHE92-.LEHB92
 4146 02af CE04     		.uleb128 .L232-.LFB1249
 4147 02b1 01       		.uleb128 0x1
 4148              	.LLSDACSE1249:
 4149 02b2 01       		.byte	0x1
 4150 02b3 00       		.byte	0
 4151              		.align 4
 4152 02b4 00000000 		.long	0
 4153              	
 4154              	.LLSDATT1249:
 4155              		.text
 4156              		.cfi_endproc
 4157              		.section	.text.unlikely
 4158              		.cfi_startproc
 4159              		.cfi_personality 0x9b,DW.ref.__gxx_personality_v0
 4160              		.cfi_lsda 0x1b,.LLSDAC1249
 4162              	_ZNK12_GLOBAL__N_157TestExceptionsInFixtureAreReportedAsHappeningInTheFixture7RunImplEv.cold:
 4163              	.LFSB1249:
 4164              	.L220:
 4165              		.cfi_def_cfa_offset 2224
 4166              		.cfi_offset 3, -48
 4167              		.cfi_offset 6, -40
 4168              		.cfi_offset 12, -32
 4169              		.cfi_offset 13, -24
 4170              		.cfi_offset 14, -16
 4171 04ae E8000000 		call	__cxa_begin_catch@PLT
 4171      00
 4172              	.LEHB93:
 4173 04b3 E8000000 		call	_ZN8UnitTest11CurrentTest7ResultsEv@PLT
 4173      00
 4174 04b8 4C8B30   		movq	(%rax), %r14
 4175 04bb E8000000 		call	_ZN8UnitTest11CurrentTest7DetailsEv@PLT
 4175      00
 4176 04c0 4C8D6C24 		leaq	32(%rsp), %r13
 4176      20
 4177 04c5 488B30   		movq	(%rax), %rsi
 4178 04c8 BA320000 		movl	$50, %edx
 4178      00
 4179 04cd 4C89EF   		movq	%r13, %rdi
 4180 04d0 E8000000 		call	_ZN8UnitTest11TestDetailsC1ERKS0_i@PLT
 4180      00
 4181 04d5 488D1500 		leaq	.LC47(%rip), %rdx
 4181      000000
 4182 04dc 4C89EE   		movq	%r13, %rsi
 4183 04df 4C89F7   		movq	%r14, %rdi
 4184 04e2 E8000000 		call	_ZN8UnitTest11TestResults13OnTestFailureERKNS_11TestDetailsEPKc@PLT
 4184      00
 4185              	.LEHE93:
 4186              	.LEHB94:
 4187 04e7 E8000000 		call	__cxa_end_catch@PLT
 4187      00
 4188              	.LEHE94:
 4189 04ec E9000000 		jmp	.L213
 4189      00
 4190              	.L223:
 4191 04f1 E8000000 		call	__cxa_begin_catch@PLT
 4191      00
 4192              	.LEHB95:
 4193 04f6 E8000000 		call	_ZN8UnitTest11CurrentTest7ResultsEv@PLT
 4193      00
 4194 04fb 4C8B30   		movq	(%rax), %r14
 4195 04fe E8000000 		call	_ZN8UnitTest11CurrentTest7DetailsEv@PLT
 4195      00
 4196 0503 4C8D6C24 		leaq	32(%rsp), %r13
 4196      20
 4197 0508 488B30   		movq	(%rax), %rsi
 4198 050b BA330000 		movl	$51, %edx
 4198      00
 4199 0510 4C89EF   		movq	%r13, %rdi
 4200 0513 E8000000 		call	_ZN8UnitTest11TestDetailsC1ERKS0_i@PLT
 4200      00
 4201 0518 488D1500 		leaq	.LC48(%rip), %rdx
 4201      000000
 4202 051f 4C89EE   		movq	%r13, %rsi
 4203 0522 4C89F7   		movq	%r14, %rdi
 4204 0525 E8000000 		call	_ZN8UnitTest11TestResults13OnTestFailureERKNS_11TestDetailsEPKc@PLT
 4204      00
 4205              	.LEHE95:
 4206              	.LEHB96:
 4207 052a E8000000 		call	__cxa_end_catch@PLT
 4207      00
 4208              	.LEHE96:
 4209 052f E9000000 		jmp	.L215
 4209      00
 4210              	.L218:
 4211 0534 488D7C24 		leaq	32(%rsp), %rdi
 4211      20
 4212 0539 E8000000 		call	_ZN17ScopedCurrentTestD1Ev
 4212      00
 4213              	.L219:
 4214 053e 4C89E7   		movq	%r12, %rdi
 4215 0541 48895C24 		movq	%rbx, 64(%rsp)
 4215      40
 4216 0546 E8000000 		call	_ZN8UnitTest12TestReporterD2Ev@PLT
 4216      00
 4217 054b 4889EF   		movq	%rbp, %rdi
 4218              	.LEHB97:
 4219 054e E8000000 		call	_Unwind_Resume@PLT
 4219      00
 4220              	.LEHE97:
 4221              	.L235:
 4222 0553 F30F1EFA 		endbr64
 4223 0557 4889C5   		movq	%rax, %rbp
 4224 055a E8000000 		call	__cxa_end_catch@PLT
 4224      00
 4225 055f EBDD     		jmp	.L219
 4226              	.L230:
 4227 0561 F30F1EFA 		endbr64
 4228              	.L239:
 4229 0565 4889C5   		movq	%rax, %rbp
 4230 0568 EBD4     		jmp	.L219
 4231              	.L226:
 4232 056a E8000000 		call	__cxa_begin_catch@PLT
 4232      00
 4233              	.LEHB98:
 4234 056f E8000000 		call	_ZN8UnitTest11CurrentTest7ResultsEv@PLT
 4234      00
 4235 0574 488B28   		movq	(%rax), %rbp
 4236 0577 E8000000 		call	_ZN8UnitTest11CurrentTest7DetailsEv@PLT
 4236      00
 4237 057c 4C8D6C24 		leaq	32(%rsp), %r13
 4237      20
 4238 0581 488B30   		movq	(%rax), %rsi
 4239 0584 BA340000 		movl	$52, %edx
 4239      00
 4240 0589 4C89EF   		movq	%r13, %rdi
 4241 058c E8000000 		call	_ZN8UnitTest11TestDetailsC1ERKS0_i@PLT
 4241      00
 4242 0591 488D1500 		leaq	.LC49(%rip), %rdx
 4242      000000
 4243 0598 4C89EE   		movq	%r13, %rsi
 4244 059b 4889EF   		movq	%rbp, %rdi
 4245 059e E8000000 		call	_ZN8UnitTest11TestResults13OnTestFailureERKNS_11TestDetailsEPKc@PLT
 4245      00
 4246              	.LEHE98:
 4247              	.LEHB99:
 4248 05a3 E8000000 		call	__cxa_end_catch@PLT
 4248      00
 4249              	.LEHE99:
 4250 05a8 E9000000 		jmp	.L217
 4250      00
 4251              	.L233:
 4252 05ad F30F1EFA 		endbr64
 4253 05b1 4889C5   		movq	%rax, %rbp
 4254 05b4 E8000000 		call	__cxa_end_catch@PLT
 4254      00
 4255 05b9 EB83     		jmp	.L219
 4256              	.L237:
 4257 05bb F30F1EFA 		endbr64
 4258 05bf 4889C5   		movq	%rax, %rbp
 4259 05c2 E8000000 		call	__cxa_end_catch@PLT
 4259      00
 4260 05c7 E972FFFF 		jmp	.L219
 4260      FF
 4261              		.cfi_endproc
 4262              	.LFE1249:
 4263              		.section	.gcc_except_table
 4264              		.align 4
 4265              	.LLSDAC1249:
 4266 02b8 FF       		.byte	0xff
 4267 02b9 9B       		.byte	0x9b
 4268 02ba 2D       		.uleb128 .LLSDATTC1249-.LLSDATTDC1249
 4269              	.LLSDATTDC1249:
 4270 02bb 01       		.byte	0x1
 4271 02bc 25       		.uleb128 .LLSDACSEC1249-.LLSDACSBC1249
 4272              	.LLSDACSBC1249:
 4273 02bd 05       		.uleb128 .LEHB93-.LCOLDB50
 4274 02be 34       		.uleb128 .LEHE93-.LEHB93
 4275 02bf FF01     		.uleb128 .L233-.LCOLDB50
 4276 02c1 00       		.uleb128 0
 4277 02c2 39       		.uleb128 .LEHB94-.LCOLDB50
 4278 02c3 05       		.uleb128 .LEHE94-.LEHB94
 4279 02c4 B301     		.uleb128 .L230-.LCOLDB50
 4280 02c6 00       		.uleb128 0
 4281 02c7 48       		.uleb128 .LEHB95-.LCOLDB50
 4282 02c8 34       		.uleb128 .LEHE95-.LEHB95
 4283 02c9 A501     		.uleb128 .L235-.LCOLDB50
 4284 02cb 00       		.uleb128 0
 4285 02cc 7C       		.uleb128 .LEHB96-.LCOLDB50
 4286 02cd 05       		.uleb128 .LEHE96-.LEHB96
 4287 02ce B301     		.uleb128 .L230-.LCOLDB50
 4288 02d0 00       		.uleb128 0
 4289 02d1 A001     		.uleb128 .LEHB97-.LCOLDB50
 4290 02d3 05       		.uleb128 .LEHE97-.LEHB97
 4291 02d4 00       		.uleb128 0
 4292 02d5 00       		.uleb128 0
 4293 02d6 C101     		.uleb128 .LEHB98-.LCOLDB50
 4294 02d8 34       		.uleb128 .LEHE98-.LEHB98
 4295 02d9 8D02     		.uleb128 .L237-.LCOLDB50
 4296 02db 00       		.uleb128 0
 4297 02dc F501     		.uleb128 .LEHB99-.LCOLDB50
 4298 02de 05       		.uleb128 .LEHE99-.LEHB99
 4299 02df B301     		.uleb128 .L230-.LCOLDB50
 4300 02e1 00       		.uleb128 0
 4301              	.LLSDACSEC1249:
 4302 02e2 01       		.byte	0x1
 4303 02e3 00       		.byte	0
 4304              		.align 4
 4305 02e4 00000000 		.long	0
 4306              	
 4307              	.LLSDATTC1249:
 4308              		.section	.text.unlikely
 4309              		.text
 4311              		.section	.text.unlikely
 4313              	.LCOLDE50:
 4314              		.text
 4315              	.LHOTE50:
 4316              		.section	.text._ZNSt7__cxx1115basic_stringbufIcSt11char_traitsIcESaIcEED2Ev,"axG",@progbits,_ZNSt7
 4317              		.align 2
 4318              		.p2align 4
 4319              		.weak	_ZNSt7__cxx1115basic_stringbufIcSt11char_traitsIcESaIcEED2Ev
 4321              	_ZNSt7__cxx1115basic_stringbufIcSt11char_traitsIcESaIcEED2Ev:
 4322              	.LFB1362:
 4323              		.cfi_startproc
 4324 0000 F30F1EFA 		endbr64
 4325 0004 488D0500 		leaq	16+_ZTVNSt7__cxx1115basic_stringbufIcSt11char_traitsIcESaIcEEE(%rip), %rax
 4325      000000
 4326 000b 53       		pushq	%rbx
 4327              		.cfi_def_cfa_offset 16
 4328              		.cfi_offset 3, -16
 4329 000c 4889FB   		movq	%rdi, %rbx
 4330 000f 488907   		movq	%rax, (%rdi)
 4331 0012 488B7F48 		movq	72(%rdi), %rdi
 4332 0016 488D4358 		leaq	88(%rbx), %rax
 4333 001a 4839C7   		cmpq	%rax, %rdi
 4334 001d 7405     		je	.L247
 4335 001f E8000000 		call	_ZdlPv@PLT
 4335      00
 4336              	.L247:
 4337 0024 488D0500 		leaq	16+_ZTVSt15basic_streambufIcSt11char_traitsIcEE(%rip), %rax
 4337      000000
 4338 002b 488D7B38 		leaq	56(%rbx), %rdi
 4339 002f 488903   		movq	%rax, (%rbx)
 4340 0032 5B       		popq	%rbx
 4341              		.cfi_def_cfa_offset 8
 4342 0033 E9000000 		jmp	_ZNSt6localeD1Ev@PLT
 4342      00
 4343              		.cfi_endproc
 4344              	.LFE1362:
 4346              		.weak	_ZNSt7__cxx1115basic_stringbufIcSt11char_traitsIcESaIcEED1Ev
 4347              		.set	_ZNSt7__cxx1115basic_stringbufIcSt11char_traitsIcESaIcEED1Ev,_ZNSt7__cxx1115basic_stringbufIc
 4348              		.section	.text._ZN8UnitTest15MemoryOutStreamC1Ev,"axG",@progbits,_ZN8UnitTest15MemoryOutStreamC1Ev
 4349              		.align 2
 4350              		.p2align 4
 4351              		.weak	_ZN8UnitTest15MemoryOutStreamC1Ev
 4353              	_ZN8UnitTest15MemoryOutStreamC1Ev:
 4354              	.LFB1156:
 4355              		.cfi_startproc
 4356              		.cfi_personality 0x9b,DW.ref.__gxx_personality_v0
 4357              		.cfi_lsda 0x1b,.LLSDA1156
 4358 0000 F30F1EFA 		endbr64
 4359 0004 4156     		pushq	%r14
 4360              		.cfi_def_cfa_offset 16
 4361              		.cfi_offset 14, -16
 4362 0006 4155     		pushq	%r13
 4363              		.cfi_def_cfa_offset 24
 4364              		.cfi_offset 13, -24
 4365 0008 4154     		pushq	%r12
 4366              		.cfi_def_cfa_offset 32
 4367              		.cfi_offset 12, -32
 4368 000a 4C8D2500 		leaq	24+_ZTCN8UnitTest15MemoryOutStreamE0_So(%rip), %r12
 4368      000000
 4369 0011 55       		pushq	%rbp
 4370              		.cfi_def_cfa_offset 40
 4371              		.cfi_offset 6, -40
 4372 0012 488DAF90 		leaq	144(%rdi), %rbp
 4372      000000
 4373 0019 53       		pushq	%rbx
 4374              		.cfi_def_cfa_offset 48
 4375              		.cfi_offset 3, -48
 4376 001a 4889FB   		movq	%rdi, %rbx
 4377 001d 4889EF   		movq	%rbp, %rdi
 4378 0020 E8000000 		call	_ZNSt8ios_baseC2Ev@PLT
 4378      00
 4379 0025 31C0     		xorl	%eax, %eax
 4380 0027 4C8923   		movq	%r12, (%rbx)
 4381 002a 660FEFC0 		pxor	%xmm0, %xmm0
 4382 002e 66898370 		movw	%ax, 368(%rbx)
 4382      010000
 4383 0035 498D4424 		leaq	40(%r12), %rax
 4383      28
 4384 003a 31F6     		xorl	%esi, %esi
 4385 003c 4889EF   		movq	%rbp, %rdi
 4386 003f 48C78368 		movq	$0, 360(%rbx)
 4386      01000000 
 4386      000000
 4387 004a 48898390 		movq	%rax, 144(%rbx)
 4387      000000
 4388 0051 0F118378 		movups	%xmm0, 376(%rbx)
 4388      010000
 4389 0058 0F118388 		movups	%xmm0, 392(%rbx)
 4389      010000
 4390              	.LEHB100:
 4391 005f E8000000 		call	_ZNSt9basic_iosIcSt11char_traitsIcEE4initEPSt15basic_streambufIcS1_E@PLT
 4391      00
 4392              	.LEHE100:
 4393 0064 488D0500 		leaq	64+_ZTCN8UnitTest15MemoryOutStreamE0_NSt7__cxx1119basic_ostringstreamIcSt11char_traitsIcESaIc
 4393      000000
 4394 006b 488D1500 		leaq	24+_ZTCN8UnitTest15MemoryOutStreamE0_NSt7__cxx1119basic_ostringstreamIcSt11char_traitsIcESaIc
 4394      000000
 4395 0072 48898390 		movq	%rax, 144(%rbx)
 4395      000000
 4396 0079 488D0500 		leaq	16+_ZTVSt15basic_streambufIcSt11char_traitsIcEE(%rip), %rax
 4396      000000
 4397 0080 66480F6E 		movq	%rdx, %xmm0
 4397      C2
 4398 0085 488D7B40 		leaq	64(%rbx), %rdi
 4399 0089 66480F6E 		movq	%rax, %xmm1
 4399      C8
 4400 008e 4C8D6B08 		leaq	8(%rbx), %r13
 4401 0092 660F6CC1 		punpcklqdq	%xmm1, %xmm0
 4402 0096 0F1103   		movups	%xmm0, (%rbx)
 4403 0099 660FEFC0 		pxor	%xmm0, %xmm0
 4404 009d 0F114310 		movups	%xmm0, 16(%rbx)
 4405 00a1 0F114320 		movups	%xmm0, 32(%rbx)
 4406 00a5 0F114330 		movups	%xmm0, 48(%rbx)
 4407 00a9 E8000000 		call	_ZNSt6localeC1Ev@PLT
 4407      00
 4408 00ae 488D0500 		leaq	16+_ZTVNSt7__cxx1115basic_stringbufIcSt11char_traitsIcESaIcEEE(%rip), %rax
 4408      000000
 4409 00b5 C6436000 		movb	$0, 96(%rbx)
 4410 00b9 4C89EE   		movq	%r13, %rsi
 4411 00bc 48894308 		movq	%rax, 8(%rbx)
 4412 00c0 488D4360 		leaq	96(%rbx), %rax
 4413 00c4 48894350 		movq	%rax, 80(%rbx)
 4414 00c8 488B03   		movq	(%rbx), %rax
 4415 00cb 48C74358 		movq	$0, 88(%rbx)
 4415      00000000 
 4416 00d3 C7434810 		movl	$16, 72(%rbx)
 4416      000000
 4417 00da 488B78E8 		movq	-24(%rax), %rdi
 4418 00de 4801DF   		addq	%rbx, %rdi
 4419              	.LEHB101:
 4420 00e1 E8000000 		call	_ZNSt9basic_iosIcSt11char_traitsIcEE4initEPSt15basic_streambufIcS1_E@PLT
 4420      00
 4421              	.LEHE101:
 4422 00e6 488D0500 		leaq	24+_ZTVN8UnitTest15MemoryOutStreamE(%rip), %rax
 4422      000000
 4423 00ed 48C74378 		movq	$0, 120(%rbx)
 4423      00000000 
 4424 00f5 488903   		movq	%rax, (%rbx)
 4425 00f8 4883C028 		addq	$40, %rax
 4426 00fc 48898390 		movq	%rax, 144(%rbx)
 4426      000000
 4427 0103 488D8380 		leaq	128(%rbx), %rax
 4427      000000
 4428 010a 48894370 		movq	%rax, 112(%rbx)
 4429 010e C6838000 		movb	$0, 128(%rbx)
 4429      000000
 4430 0115 5B       		popq	%rbx
 4431              		.cfi_remember_state
 4432              		.cfi_def_cfa_offset 40
 4433 0116 5D       		popq	%rbp
 4434              		.cfi_def_cfa_offset 32
 4435 0117 415C     		popq	%r12
 4436              		.cfi_def_cfa_offset 24
 4437 0119 415D     		popq	%r13
 4438              		.cfi_def_cfa_offset 16
 4439 011b 415E     		popq	%r14
 4440              		.cfi_def_cfa_offset 8
 4441 011d C3       		ret
 4442              	.L253:
 4443              		.cfi_restore_state
 4444 011e F30F1EFA 		endbr64
 4445 0122 4989C6   		movq	%rax, %r14
 4446 0125 EB12     		jmp	.L252
 4447              	.L254:
 4448 0127 F30F1EFA 		endbr64
 4449 012b 4989C6   		movq	%rax, %r14
 4450              	.L251:
 4451 012e 4C89EF   		movq	%r13, %rdi
 4452 0131 E8000000 		call	_ZNSt7__cxx1115basic_stringbufIcSt11char_traitsIcESaIcEED1Ev
 4452      00
 4453 0136 4C8923   		movq	%r12, (%rbx)
 4454              	.L252:
 4455 0139 488D0500 		leaq	16+_ZTVSt9basic_iosIcSt11char_traitsIcEE(%rip), %rax
 4455      000000
 4456 0140 4889EF   		movq	%rbp, %rdi
 4457 0143 48898390 		movq	%rax, 144(%rbx)
 4457      000000
 4458 014a E8000000 		call	_ZNSt8ios_baseD2Ev@PLT
 4458      00
 4459 014f 4C89F7   		movq	%r14, %rdi
 4460              	.LEHB102:
 4461 0152 E8000000 		call	_Unwind_Resume@PLT
 4461      00
 4462              	.LEHE102:
 4463              		.cfi_endproc
 4464              	.LFE1156:
 4465              		.section	.gcc_except_table
 4466              	.LLSDA1156:
 4467 02e8 FF       		.byte	0xff
 4468 02e9 FF       		.byte	0xff
 4469 02ea 01       		.byte	0x1
 4470 02eb 10       		.uleb128 .LLSDACSE1156-.LLSDACSB1156
 4471              	.LLSDACSB1156:
 4472 02ec 5F       		.uleb128 .LEHB100-.LFB1156
 4473 02ed 05       		.uleb128 .LEHE100-.LEHB100
 4474 02ee 9E02     		.uleb128 .L253-.LFB1156
 4475 02f0 00       		.uleb128 0
 4476 02f1 E101     		.uleb128 .LEHB101-.LFB1156
 4477 02f3 05       		.uleb128 .LEHE101-.LEHB101
 4478 02f4 A702     		.uleb128 .L254-.LFB1156
 4479 02f6 00       		.uleb128 0
 4480 02f7 D202     		.uleb128 .LEHB102-.LFB1156
 4481 02f9 05       		.uleb128 .LEHE102-.LEHB102
 4482 02fa 00       		.uleb128 0
 4483 02fb 00       		.uleb128 0
 4484              	.LLSDACSE1156:
 4485              		.section	.text._ZN8UnitTest15MemoryOutStreamC1Ev,"axG",@progbits,_ZN8UnitTest15MemoryOutStreamC1Ev
 4487              		.section	.rodata.str1.1
 4488              	.LC51:
 4489 008a 556E6861 		.string	"Unhandled exception: "
 4489      6E646C65 
 4489      64206578 
 4489      63657074 
 4489      696F6E3A 
 4490              		.section	.rodata.str1.8
 4491 04f4 00000000 		.align 8
 4492              	.LC52:
 4493 04f8 556E6861 		.string	"Unhandled exception while constructing fixture FixtureCtorThrows"
 4493      6E646C65 
 4493      64206578 
 4493      63657074 
 4493      696F6E20 
 4494              		.section	.text.unlikely
 4495              		.align 2
 4497              	_ZNK12_GLOBAL__N_146TestFixtureCtorThrowsFixtureCtorThrowsTestName7RunImplEv:
 4498              	.LFB1305:
 4499              		.cfi_startproc
 4500              		.cfi_personality 0x9b,DW.ref.__gxx_personality_v0
 4501              		.cfi_lsda 0x1b,.LLSDA1305
 4502 05cc F30F1EFA 		endbr64
 4503 05d0 4156     		pushq	%r14
 4504              		.cfi_def_cfa_offset 16
 4505              		.cfi_offset 14, -16
 4506 05d2 4155     		pushq	%r13
 4507              		.cfi_def_cfa_offset 24
 4508              		.cfi_offset 13, -24
 4509 05d4 4C8D6F08 		leaq	8(%rdi), %r13
 4510 05d8 4154     		pushq	%r12
 4511              		.cfi_def_cfa_offset 32
 4512              		.cfi_offset 12, -32
 4513 05da 4989FC   		movq	%rdi, %r12
 4514 05dd BF080000 		movl	$8, %edi
 4514      00
 4515 05e2 55       		pushq	%rbp
 4516              		.cfi_def_cfa_offset 40
 4517              		.cfi_offset 6, -40
 4518 05e3 53       		pushq	%rbx
 4519              		.cfi_def_cfa_offset 48
 4520              		.cfi_offset 3, -48
 4521 05e4 4881ECC0 		subq	$448, %rsp
 4521      010000
 4522              		.cfi_def_cfa_offset 496
 4523 05eb 64488B04 		movq	%fs:40, %rax
 4523      25280000 
 4523      00
 4524 05f4 48898424 		movq	%rax, 440(%rsp)
 4524      B8010000 
 4525 05fc 31C0     		xorl	%eax, %eax
 4526 05fe E8000000 		call	__cxa_allocate_exception@PLT
 4526      00
 4527 0603 31D2     		xorl	%edx, %edx
 4528 0605 488D3500 		leaq	_ZTIPKc(%rip), %rsi
 4528      000000
 4529 060c 4889C7   		movq	%rax, %rdi
 4530 060f 488D0500 		leaq	.LC39(%rip), %rax
 4530      000000
 4531 0616 488907   		movq	%rax, (%rdi)
 4532              	.LEHB103:
 4533 0619 E8000000 		call	__cxa_throw@PLT
 4533      00
 4534              	.LEHE103:
 4535              	.L271:
 4536 061e F30F1EFA 		endbr64
 4537 0622 4889C7   		movq	%rax, %rdi
 4538              	.L259:
 4539 0625 4883FA01 		cmpq	$1, %rdx
 4540 0629 740C     		je	.L260
 4541 062b 4883FA02 		cmpq	$2, %rdx
 4542 062f 0F85E700 		jne	.L276
 4542      0000
 4543 0635 EB5A     		jmp	.L282
 4544              	.L260:
 4545 0637 E8000000 		call	__cxa_begin_catch@PLT
 4545      00
 4546 063c 4889C5   		movq	%rax, %rbp
 4547              	.LEHB104:
 4548 063f E8000000 		call	_ZN8UnitTest11CurrentTest7ResultsEv@PLT
 4548      00
 4549 0644 4C8B30   		movq	(%rax), %r14
 4550 0647 488B4500 		movq	0(%rbp), %rax
 4551 064b 4889EF   		movq	%rbp, %rdi
 4552 064e FF5010   		call	*16(%rax)
 4553 0651 4889EF   		movq	%rbp, %rdi
 4554 0654 4989C5   		movq	%rax, %r13
 4555 0657 E8000000 		call	_ZNK8UnitTest15AssertException10LineNumberEv@PLT
 4555      00
 4556 065c 4889EF   		movq	%rbp, %rdi
 4557 065f 89C3     		movl	%eax, %ebx
 4558 0661 E8000000 		call	_ZNK8UnitTest15AssertException8FilenameEv@PLT
 4558      00
 4559 0666 4889E5   		movq	%rsp, %rbp
 4560 0669 498B5424 		movq	8(%r12), %rdx
 4560      08
 4561 066e 498B7424 		movq	16(%r12), %rsi
 4561      10
 4562 0673 4889C1   		movq	%rax, %rcx
 4563 0676 4189D8   		movl	%ebx, %r8d
 4564 0679 4889EF   		movq	%rbp, %rdi
 4565 067c E8000000 		call	_ZN8UnitTest11TestDetailsC1EPKcS2_S2_i@PLT
 4565      00
 4566 0681 4C89EA   		movq	%r13, %rdx
 4567 0684 4889EE   		movq	%rbp, %rsi
 4568 0687 4C89F7   		movq	%r14, %rdi
 4569 068a E8000000 		call	_ZN8UnitTest11TestResults13OnTestFailureERKNS_11TestDetailsEPKc@PLT
 4569      00
 4570              	.LEHE104:
 4571 068f EB64     		jmp	.L280
 4572              	.L282:
 4573 0691 E8000000 		call	__cxa_begin_catch@PLT
 4573      00
 4574 0696 4C8D6424 		leaq	32(%rsp), %r12
 4574      20
 4575 069b 4C89E7   		movq	%r12, %rdi
 4576 069e 4889C5   		movq	%rax, %rbp
 4577              	.LEHB105:
 4578 06a1 E8000000 		call	_ZN8UnitTest15MemoryOutStreamC1Ev
 4578      00
 4579              	.LEHE105:
 4580 06a6 BA150000 		movl	$21, %edx
 4580      00
 4581 06ab 488D3500 		leaq	.LC51(%rip), %rsi
 4581      000000
 4582 06b2 4C89E7   		movq	%r12, %rdi
 4583              	.LEHB106:
 4584 06b5 E8000000 		call	_ZSt16__ostream_insertIcSt11char_traitsIcEERSt13basic_ostreamIT_T0_ES6_PKS3_l@PLT
 4584      00
 4585 06ba 488B4500 		movq	0(%rbp), %rax
 4586 06be 4889EF   		movq	%rbp, %rdi
 4587 06c1 FF5010   		call	*16(%rax)
 4588 06c4 4C89E7   		movq	%r12, %rdi
 4589 06c7 4889C6   		movq	%rax, %rsi
 4590 06ca E8000000 		call	_ZStlsISt11char_traitsIcEERSt13basic_ostreamIcT_ES5_PKc@PLT
 4590      00
 4591 06cf E8000000 		call	_ZN8UnitTest11CurrentTest7ResultsEv@PLT
 4591      00
 4592 06d4 4C89E7   		movq	%r12, %rdi
 4593 06d7 488B28   		movq	(%rax), %rbp
 4594 06da E8000000 		call	_ZNK8UnitTest15MemoryOutStream7GetTextEv@PLT
 4594      00
 4595 06df 4889C2   		movq	%rax, %rdx
 4596 06e2 4C89EE   		movq	%r13, %rsi
 4597 06e5 4889EF   		movq	%rbp, %rdi
 4598 06e8 E8000000 		call	_ZN8UnitTest11TestResults13OnTestFailureERKNS_11TestDetailsEPKc@PLT
 4598      00
 4599              	.LEHE106:
 4600 06ed 4C89E7   		movq	%r12, %rdi
 4601              	.LEHB107:
 4602 06f0 E8000000 		call	_ZN8UnitTest15MemoryOutStreamD1Ev
 4602      00
 4603              	.LEHE107:
 4604              	.L280:
 4605 06f5 488B8424 		movq	440(%rsp), %rax
 4605      B8010000 
 4606 06fd 64482B04 		subq	%fs:40, %rax
 4606      25280000 
 4606      00
 4607 0706 7559     		jne	.L279
 4608 0708 4881C4C0 		addq	$448, %rsp
 4608      010000
 4609              		.cfi_remember_state
 4610              		.cfi_def_cfa_offset 48
 4611 070f 5B       		popq	%rbx
 4612              		.cfi_def_cfa_offset 40
 4613 0710 5D       		popq	%rbp
 4614              		.cfi_def_cfa_offset 32
 4615 0711 415C     		popq	%r12
 4616              		.cfi_def_cfa_offset 24
 4617 0713 415D     		popq	%r13
 4618              		.cfi_def_cfa_offset 16
 4619 0715 415E     		popq	%r14
 4620              		.cfi_def_cfa_offset 8
 4621 0717 E9000000 		jmp	__cxa_end_catch@PLT
 4621      00
 4622              	.L276:
 4623              		.cfi_restore_state
 4624 071c E8000000 		call	__cxa_begin_catch@PLT
 4624      00
 4625              	.LEHB108:
 4626 0721 E8000000 		call	_ZN8UnitTest11CurrentTest7ResultsEv@PLT
 4626      00
 4627 0726 4889E5   		movq	%rsp, %rbp
 4628 0729 BA710000 		movl	$113, %edx
 4628      00
 4629 072e 4C89EE   		movq	%r13, %rsi
 4630 0731 4C8B20   		movq	(%rax), %r12
 4631 0734 4889EF   		movq	%rbp, %rdi
 4632 0737 E8000000 		call	_ZN8UnitTest11TestDetailsC1ERKS0_i@PLT
 4632      00
 4633 073c 488D1500 		leaq	.LC52(%rip), %rdx
 4633      000000
 4634 0743 4889EE   		movq	%rbp, %rsi
 4635 0746 4C89E7   		movq	%r12, %rdi
 4636 0749 E8000000 		call	_ZN8UnitTest11TestResults13OnTestFailureERKNS_11TestDetailsEPKc@PLT
 4636      00
 4637              	.LEHE108:
 4638 074e 488B8424 		movq	440(%rsp), %rax
 4638      B8010000 
 4639 0756 64482B04 		subq	%fs:40, %rax
 4639      25280000 
 4639      00
 4640 075f 7405     		je	.L265
 4641              	.L279:
 4642 0761 E8000000 		call	__stack_chk_fail@PLT
 4642      00
 4643              	.L265:
 4644 0766 4881C4C0 		addq	$448, %rsp
 4644      010000
 4645              		.cfi_remember_state
 4646              		.cfi_def_cfa_offset 48
 4647 076d 5B       		popq	%rbx
 4648              		.cfi_def_cfa_offset 40
 4649 076e 5D       		popq	%rbp
 4650              		.cfi_def_cfa_offset 32
 4651 076f 415C     		popq	%r12
 4652              		.cfi_def_cfa_offset 24
 4653 0771 415D     		popq	%r13
 4654              		.cfi_def_cfa_offset 16
 4655 0773 415E     		popq	%r14
 4656              		.cfi_def_cfa_offset 8
 4657              	.LEHB109:
 4658 0775 E9000000 		jmp	__cxa_end_catch@PLT
 4658      00
 4659              	.LEHE109:
 4660              	.L272:
 4661              		.cfi_restore_state
 4662 077a F30F1EFA 		endbr64
 4663 077e EB15     		jmp	.L281
 4664              	.L274:
 4665 0780 F30F1EFA 		endbr64
 4666 0784 4889C5   		movq	%rax, %rbp
 4667              	.L267:
 4668 0787 4C89E7   		movq	%r12, %rdi
 4669 078a E8000000 		call	_ZN8UnitTest15MemoryOutStreamD1Ev
 4669      00
 4670 078f EB07     		jmp	.L268
 4671              	.L273:
 4672 0791 F30F1EFA 		endbr64
 4673              	.L281:
 4674 0795 4889C5   		movq	%rax, %rbp
 4675              	.L268:
 4676 0798 E8000000 		call	__cxa_end_catch@PLT
 4676      00
 4677 079d 4889EF   		movq	%rbp, %rdi
 4678              	.LEHB110:
 4679 07a0 E8000000 		call	_Unwind_Resume@PLT
 4679      00
 4680              	.LEHE110:
 4681              	.L275:
 4682 07a5 F30F1EFA 		endbr64
 4683 07a9 4889C5   		movq	%rax, %rbp
 4684              	.L269:
 4685 07ac E8000000 		call	__cxa_end_catch@PLT
 4685      00
 4686 07b1 4889EF   		movq	%rbp, %rdi
 4687              	.LEHB111:
 4688 07b4 E8000000 		call	_Unwind_Resume@PLT
 4688      00
 4689              	.LEHE111:
 4690              		.cfi_endproc
 4691              	.LFE1305:
 4692              		.section	.gcc_except_table
 4693              		.align 4
 4694              	.LLSDA1305:
 4695 02fc FF       		.byte	0xff
 4696 02fd 9B       		.byte	0x9b
 4697 02fe 45       		.uleb128 .LLSDATT1305-.LLSDATTD1305
 4698              	.LLSDATTD1305:
 4699 02ff 01       		.byte	0x1
 4700 0300 30       		.uleb128 .LLSDACSE1305-.LLSDACSB1305
 4701              	.LLSDACSB1305:
 4702 0301 4D       		.uleb128 .LEHB103-.LFB1305
 4703 0302 05       		.uleb128 .LEHE103-.LEHB103
 4704 0303 52       		.uleb128 .L271-.LFB1305
 4705 0304 05       		.uleb128 0x5
 4706 0305 73       		.uleb128 .LEHB104-.LFB1305
 4707 0306 50       		.uleb128 .LEHE104-.LEHB104
 4708 0307 AE03     		.uleb128 .L272-.LFB1305
 4709 0309 00       		.uleb128 0
 4710 030a D501     		.uleb128 .LEHB105-.LFB1305
 4711 030c 05       		.uleb128 .LEHE105-.LEHB105
 4712 030d C503     		.uleb128 .L273-.LFB1305
 4713 030f 00       		.uleb128 0
 4714 0310 E901     		.uleb128 .LEHB106-.LFB1305
 4715 0312 38       		.uleb128 .LEHE106-.LEHB106
 4716 0313 B403     		.uleb128 .L274-.LFB1305
 4717 0315 00       		.uleb128 0
 4718 0316 A402     		.uleb128 .LEHB107-.LFB1305
 4719 0318 05       		.uleb128 .LEHE107-.LEHB107
 4720 0319 C503     		.uleb128 .L273-.LFB1305
 4721 031b 00       		.uleb128 0
 4722 031c D502     		.uleb128 .LEHB108-.LFB1305
 4723 031e 2D       		.uleb128 .LEHE108-.LEHB108
 4724 031f D903     		.uleb128 .L275-.LFB1305
 4725 0321 00       		.uleb128 0
 4726 0322 A903     		.uleb128 .LEHB109-.LFB1305
 4727 0324 05       		.uleb128 .LEHE109-.LEHB109
 4728 0325 00       		.uleb128 0
 4729 0326 00       		.uleb128 0
 4730 0327 D403     		.uleb128 .LEHB110-.LFB1305
 4731 0329 05       		.uleb128 .LEHE110-.LEHB110
 4732 032a 00       		.uleb128 0
 4733 032b 00       		.uleb128 0
 4734 032c E803     		.uleb128 .LEHB111-.LFB1305
 4735 032e 05       		.uleb128 .LEHE111-.LEHB111
 4736 032f 00       		.uleb128 0
 4737 0330 00       		.uleb128 0
 4738              	.LLSDACSE1305:
 4739 0331 03       		.byte	0x3
 4740 0332 00       		.byte	0
 4741 0333 02       		.byte	0x2
 4742 0334 7D       		.byte	0x7d
 4743 0335 01       		.byte	0x1
 4744 0336 7D       		.byte	0x7d
 4745 0337 00       		.align 4
 4746 0338 00000000 		.long	0
 4747              	
 4748 033c 00000000 		.long	DW.ref._ZTISt9exception-.
 4749 0340 00000000 		.long	DW.ref._ZTIN8UnitTest15AssertExceptionE-.
 4750              	.LLSDATT1305:
 4751              		.section	.text.unlikely
 4753              		.section	.rodata.str1.1
 4754              	.LC53:
 4755 00a0 4F6F7073 		.string	"Oops"
 4755      00
 4756              		.section	.rodata.str1.8
 4757 0539 00000000 		.align 8
 4757      000000
 4758              	.LC54:
 4759 0540 556E6861 		.string	"Unhandled exception while constructing fixture ThrowingThingie"
 4759      6E646C65 
 4759      64206578 
 4759      63657074 
 4759      696F6E20 
 4760              		.section	.text.unlikely
 4761 07b9 90       		.align 2
 4763              	_ZNK12_GLOBAL__N_132TestThrowingThingieDummyTestName7RunImplEv:
 4764              	.LFB1244:
 4765              		.cfi_startproc
 4766              		.cfi_personality 0x9b,DW.ref.__gxx_personality_v0
 4767              		.cfi_lsda 0x1b,.LLSDA1244
 4768 07ba F30F1EFA 		endbr64
 4769 07be 4156     		pushq	%r14
 4770              		.cfi_def_cfa_offset 16
 4771              		.cfi_offset 14, -16
 4772 07c0 4155     		pushq	%r13
 4773              		.cfi_def_cfa_offset 24
 4774              		.cfi_offset 13, -24
 4775 07c2 4C8D6F08 		leaq	8(%rdi), %r13
 4776 07c6 4154     		pushq	%r12
 4777              		.cfi_def_cfa_offset 32
 4778              		.cfi_offset 12, -32
 4779 07c8 4989FC   		movq	%rdi, %r12
 4780 07cb BF080000 		movl	$8, %edi
 4780      00
 4781 07d0 55       		pushq	%rbp
 4782              		.cfi_def_cfa_offset 40
 4783              		.cfi_offset 6, -40
 4784 07d1 53       		pushq	%rbx
 4785              		.cfi_def_cfa_offset 48
 4786              		.cfi_offset 3, -48
 4787 07d2 4881ECC0 		subq	$448, %rsp
 4787      010000
 4788              		.cfi_def_cfa_offset 496
 4789 07d9 64488B04 		movq	%fs:40, %rax
 4789      25280000 
 4789      00
 4790 07e2 48898424 		movq	%rax, 440(%rsp)
 4790      B8010000 
 4791 07ea 31C0     		xorl	%eax, %eax
 4792 07ec E8000000 		call	__cxa_allocate_exception@PLT
 4792      00
 4793 07f1 31D2     		xorl	%edx, %edx
 4794 07f3 488D3500 		leaq	_ZTIPKc(%rip), %rsi
 4794      000000
 4795 07fa 4889C7   		movq	%rax, %rdi
 4796 07fd 488D0500 		leaq	.LC53(%rip), %rax
 4796      000000
 4797 0804 488907   		movq	%rax, (%rdi)
 4798              	.LEHB112:
 4799 0807 E8000000 		call	__cxa_throw@PLT
 4799      00
 4800              	.LEHE112:
 4801              	.L296:
 4802 080c F30F1EFA 		endbr64
 4803 0810 4889C7   		movq	%rax, %rdi
 4804              	.L284:
 4805 0813 4883FA01 		cmpq	$1, %rdx
 4806 0817 740C     		je	.L285
 4807 0819 4883FA02 		cmpq	$2, %rdx
 4808 081d 0F85E700 		jne	.L301
 4808      0000
 4809 0823 EB5A     		jmp	.L307
 4810              	.L285:
 4811 0825 E8000000 		call	__cxa_begin_catch@PLT
 4811      00
 4812 082a 4889C5   		movq	%rax, %rbp
 4813              	.LEHB113:
 4814 082d E8000000 		call	_ZN8UnitTest11CurrentTest7ResultsEv@PLT
 4814      00
 4815 0832 4C8B30   		movq	(%rax), %r14
 4816 0835 488B4500 		movq	0(%rbp), %rax
 4817 0839 4889EF   		movq	%rbp, %rdi
 4818 083c FF5010   		call	*16(%rax)
 4819 083f 4889EF   		movq	%rbp, %rdi
 4820 0842 4989C5   		movq	%rax, %r13
 4821 0845 E8000000 		call	_ZNK8UnitTest15AssertException10LineNumberEv@PLT
 4821      00
 4822 084a 4889EF   		movq	%rbp, %rdi
 4823 084d 89C3     		movl	%eax, %ebx
 4824 084f E8000000 		call	_ZNK8UnitTest15AssertException8FilenameEv@PLT
 4824      00
 4825 0854 4889E5   		movq	%rsp, %rbp
 4826 0857 498B5424 		movq	8(%r12), %rdx
 4826      08
 4827 085c 498B7424 		movq	16(%r12), %rsi
 4827      10
 4828 0861 4889C1   		movq	%rax, %rcx
 4829 0864 4189D8   		movl	%ebx, %r8d
 4830 0867 4889EF   		movq	%rbp, %rdi
 4831 086a E8000000 		call	_ZN8UnitTest11TestDetailsC1EPKcS2_S2_i@PLT
 4831      00
 4832 086f 4C89EA   		movq	%r13, %rdx
 4833 0872 4889EE   		movq	%rbp, %rsi
 4834 0875 4C89F7   		movq	%r14, %rdi
 4835 0878 E8000000 		call	_ZN8UnitTest11TestResults13OnTestFailureERKNS_11TestDetailsEPKc@PLT
 4835      00
 4836              	.LEHE113:
 4837 087d EB64     		jmp	.L305
 4838              	.L307:
 4839 087f E8000000 		call	__cxa_begin_catch@PLT
 4839      00
 4840 0884 4C8D6424 		leaq	32(%rsp), %r12
 4840      20
 4841 0889 4C89E7   		movq	%r12, %rdi
 4842 088c 4889C5   		movq	%rax, %rbp
 4843              	.LEHB114:
 4844 088f E8000000 		call	_ZN8UnitTest15MemoryOutStreamC1Ev
 4844      00
 4845              	.LEHE114:
 4846 0894 BA150000 		movl	$21, %edx
 4846      00
 4847 0899 488D3500 		leaq	.LC51(%rip), %rsi
 4847      000000
 4848 08a0 4C89E7   		movq	%r12, %rdi
 4849              	.LEHB115:
 4850 08a3 E8000000 		call	_ZSt16__ostream_insertIcSt11char_traitsIcEERSt13basic_ostreamIT_T0_ES6_PKS3_l@PLT
 4850      00
 4851 08a8 488B4500 		movq	0(%rbp), %rax
 4852 08ac 4889EF   		movq	%rbp, %rdi
 4853 08af FF5010   		call	*16(%rax)
 4854 08b2 4C89E7   		movq	%r12, %rdi
 4855 08b5 4889C6   		movq	%rax, %rsi
 4856 08b8 E8000000 		call	_ZStlsISt11char_traitsIcEERSt13basic_ostreamIcT_ES5_PKc@PLT
 4856      00
 4857 08bd E8000000 		call	_ZN8UnitTest11CurrentTest7ResultsEv@PLT
 4857      00
 4858 08c2 4C89E7   		movq	%r12, %rdi
 4859 08c5 488B28   		movq	(%rax), %rbp
 4860 08c8 E8000000 		call	_ZNK8UnitTest15MemoryOutStream7GetTextEv@PLT
 4860      00
 4861 08cd 4889C2   		movq	%rax, %rdx
 4862 08d0 4C89EE   		movq	%r13, %rsi
 4863 08d3 4889EF   		movq	%rbp, %rdi
 4864 08d6 E8000000 		call	_ZN8UnitTest11TestResults13OnTestFailureERKNS_11TestDetailsEPKc@PLT
 4864      00
 4865              	.LEHE115:
 4866 08db 4C89E7   		movq	%r12, %rdi
 4867              	.LEHB116:
 4868 08de E8000000 		call	_ZN8UnitTest15MemoryOutStreamD1Ev
 4868      00
 4869              	.LEHE116:
 4870              	.L305:
 4871 08e3 488B8424 		movq	440(%rsp), %rax
 4871      B8010000 
 4872 08eb 64482B04 		subq	%fs:40, %rax
 4872      25280000 
 4872      00
 4873 08f4 7559     		jne	.L304
 4874 08f6 4881C4C0 		addq	$448, %rsp
 4874      010000
 4875              		.cfi_remember_state
 4876              		.cfi_def_cfa_offset 48
 4877 08fd 5B       		popq	%rbx
 4878              		.cfi_def_cfa_offset 40
 4879 08fe 5D       		popq	%rbp
 4880              		.cfi_def_cfa_offset 32
 4881 08ff 415C     		popq	%r12
 4882              		.cfi_def_cfa_offset 24
 4883 0901 415D     		popq	%r13
 4884              		.cfi_def_cfa_offset 16
 4885 0903 415E     		popq	%r14
 4886              		.cfi_def_cfa_offset 8
 4887 0905 E9000000 		jmp	__cxa_end_catch@PLT
 4887      00
 4888              	.L301:
 4889              		.cfi_restore_state
 4890 090a E8000000 		call	__cxa_begin_catch@PLT
 4890      00
 4891              	.LEHB117:
 4892 090f E8000000 		call	_ZN8UnitTest11CurrentTest7ResultsEv@PLT
 4892      00
 4893 0914 4889E5   		movq	%rsp, %rbp
 4894 0917 BA250000 		movl	$37, %edx
 4894      00
 4895 091c 4C89EE   		movq	%r13, %rsi
 4896 091f 4C8B20   		movq	(%rax), %r12
 4897 0922 4889EF   		movq	%rbp, %rdi
 4898 0925 E8000000 		call	_ZN8UnitTest11TestDetailsC1ERKS0_i@PLT
 4898      00
 4899 092a 488D1500 		leaq	.LC54(%rip), %rdx
 4899      000000
 4900 0931 4889EE   		movq	%rbp, %rsi
 4901 0934 4C89E7   		movq	%r12, %rdi
 4902 0937 E8000000 		call	_ZN8UnitTest11TestResults13OnTestFailureERKNS_11TestDetailsEPKc@PLT
 4902      00
 4903              	.LEHE117:
 4904 093c 488B8424 		movq	440(%rsp), %rax
 4904      B8010000 
 4905 0944 64482B04 		subq	%fs:40, %rax
 4905      25280000 
 4905      00
 4906 094d 7405     		je	.L290
 4907              	.L304:
 4908 094f E8000000 		call	__stack_chk_fail@PLT
 4908      00
 4909              	.L290:
 4910 0954 4881C4C0 		addq	$448, %rsp
 4910      010000
 4911              		.cfi_remember_state
 4912              		.cfi_def_cfa_offset 48
 4913 095b 5B       		popq	%rbx
 4914              		.cfi_def_cfa_offset 40
 4915 095c 5D       		popq	%rbp
 4916              		.cfi_def_cfa_offset 32
 4917 095d 415C     		popq	%r12
 4918              		.cfi_def_cfa_offset 24
 4919 095f 415D     		popq	%r13
 4920              		.cfi_def_cfa_offset 16
 4921 0961 415E     		popq	%r14
 4922              		.cfi_def_cfa_offset 8
 4923              	.LEHB118:
 4924 0963 E9000000 		jmp	__cxa_end_catch@PLT
 4924      00
 4925              	.LEHE118:
 4926              	.L297:
 4927              		.cfi_restore_state
 4928 0968 F30F1EFA 		endbr64
 4929 096c EB15     		jmp	.L306
 4930              	.L299:
 4931 096e F30F1EFA 		endbr64
 4932 0972 4889C5   		movq	%rax, %rbp
 4933              	.L292:
 4934 0975 4C89E7   		movq	%r12, %rdi
 4935 0978 E8000000 		call	_ZN8UnitTest15MemoryOutStreamD1Ev
 4935      00
 4936 097d EB07     		jmp	.L293
 4937              	.L298:
 4938 097f F30F1EFA 		endbr64
 4939              	.L306:
 4940 0983 4889C5   		movq	%rax, %rbp
 4941              	.L293:
 4942 0986 E8000000 		call	__cxa_end_catch@PLT
 4942      00
 4943 098b 4889EF   		movq	%rbp, %rdi
 4944              	.LEHB119:
 4945 098e E8000000 		call	_Unwind_Resume@PLT
 4945      00
 4946              	.LEHE119:
 4947              	.L300:
 4948 0993 F30F1EFA 		endbr64
 4949 0997 4889C5   		movq	%rax, %rbp
 4950              	.L294:
 4951 099a E8000000 		call	__cxa_end_catch@PLT
 4951      00
 4952 099f 4889EF   		movq	%rbp, %rdi
 4953              	.LEHB120:
 4954 09a2 E8000000 		call	_Unwind_Resume@PLT
 4954      00
 4955              	.LEHE120:
 4956              		.cfi_endproc
 4957              	.LFE1244:
 4958              		.section	.gcc_except_table
 4959              		.align 4
 4960              	.LLSDA1244:
 4961 0344 FF       		.byte	0xff
 4962 0345 9B       		.byte	0x9b
 4963 0346 45       		.uleb128 .LLSDATT1244-.LLSDATTD1244
 4964              	.LLSDATTD1244:
 4965 0347 01       		.byte	0x1
 4966 0348 30       		.uleb128 .LLSDACSE1244-.LLSDACSB1244
 4967              	.LLSDACSB1244:
 4968 0349 4D       		.uleb128 .LEHB112-.LFB1244
 4969 034a 05       		.uleb128 .LEHE112-.LEHB112
 4970 034b 52       		.uleb128 .L296-.LFB1244
 4971 034c 05       		.uleb128 0x5
 4972 034d 73       		.uleb128 .LEHB113-.LFB1244
 4973 034e 50       		.uleb128 .LEHE113-.LEHB113
 4974 034f AE03     		.uleb128 .L297-.LFB1244
 4975 0351 00       		.uleb128 0
 4976 0352 D501     		.uleb128 .LEHB114-.LFB1244
 4977 0354 05       		.uleb128 .LEHE114-.LEHB114
 4978 0355 C503     		.uleb128 .L298-.LFB1244
 4979 0357 00       		.uleb128 0
 4980 0358 E901     		.uleb128 .LEHB115-.LFB1244
 4981 035a 38       		.uleb128 .LEHE115-.LEHB115
 4982 035b B403     		.uleb128 .L299-.LFB1244
 4983 035d 00       		.uleb128 0
 4984 035e A402     		.uleb128 .LEHB116-.LFB1244
 4985 0360 05       		.uleb128 .LEHE116-.LEHB116
 4986 0361 C503     		.uleb128 .L298-.LFB1244
 4987 0363 00       		.uleb128 0
 4988 0364 D502     		.uleb128 .LEHB117-.LFB1244
 4989 0366 2D       		.uleb128 .LEHE117-.LEHB117
 4990 0367 D903     		.uleb128 .L300-.LFB1244
 4991 0369 00       		.uleb128 0
 4992 036a A903     		.uleb128 .LEHB118-.LFB1244
 4993 036c 05       		.uleb128 .LEHE118-.LEHB118
 4994 036d 00       		.uleb128 0
 4995 036e 00       		.uleb128 0
 4996 036f D403     		.uleb128 .LEHB119-.LFB1244
 4997 0371 05       		.uleb128 .LEHE119-.LEHB119
 4998 0372 00       		.uleb128 0
 4999 0373 00       		.uleb128 0
 5000 0374 E803     		.uleb128 .LEHB120-.LFB1244
 5001 0376 05       		.uleb128 .LEHE120-.LEHB120
 5002 0377 00       		.uleb128 0
 5003 0378 00       		.uleb128 0
 5004              	.LLSDACSE1244:
 5005 0379 03       		.byte	0x3
 5006 037a 00       		.byte	0
 5007 037b 02       		.byte	0x2
 5008 037c 7D       		.byte	0x7d
 5009 037d 01       		.byte	0x1
 5010 037e 7D       		.byte	0x7d
 5011 037f 00       		.align 4
 5012 0380 00000000 		.long	0
 5013              	
 5014 0384 00000000 		.long	DW.ref._ZTISt9exception-.
 5015 0388 00000000 		.long	DW.ref._ZTIN8UnitTest15AssertExceptionE-.
 5016              	.LLSDATT1244:
 5017              		.section	.text.unlikely
 5019              		.section	.rodata.str1.1
 5020              	.LC55:
 5021 00a5 556E6861 		.string	"Unhandled system exception"
 5021      6E646C65 
 5021      64207379 
 5021      7374656D 
 5021      20657863 
 5022              	.LC56:
 5023 00c0 556E6861 		.string	"Unhandled exception: Crash!"
 5023      6E646C65 
 5023      64206578 
 5023      63657074 
 5023      696F6E3A 
 5024              		.section	.text.unlikely
 5025              	.LCOLDB57:
 5026              		.text
 5027              	.LHOTB57:
 5028 0d37 660F1F84 		.p2align 4
 5028      00000000 
 5028      00
 5030              	_ZN8UnitTest11ExecuteTestIN12_GLOBAL__N_115SuiteTestSuite165DummyFixtureSimilarlyNamedFixtureTestsI
 5031              	.LFB1543:
 5032              		.cfi_startproc
 5033              		.cfi_personality 0x9b,DW.ref.__gxx_personality_v0
 5034              		.cfi_lsda 0x1b,.LLSDA1543
 5035 0d40 4156     		pushq	%r14
 5036              		.cfi_def_cfa_offset 16
 5037              		.cfi_offset 14, -16
 5038 0d42 4155     		pushq	%r13
 5039              		.cfi_def_cfa_offset 24
 5040              		.cfi_offset 13, -24
 5041 0d44 4154     		pushq	%r12
 5042              		.cfi_def_cfa_offset 32
 5043              		.cfi_offset 12, -32
 5044 0d46 55       		pushq	%rbp
 5045              		.cfi_def_cfa_offset 40
 5046              		.cfi_offset 6, -40
 5047 0d47 53       		pushq	%rbx
 5048              		.cfi_def_cfa_offset 48
 5049              		.cfi_offset 3, -48
 5050 0d48 4889FB   		movq	%rdi, %rbx
 5051 0d4b 4881EC40 		subq	$1600, %rsp
 5051      060000
 5052              		.cfi_def_cfa_offset 1648
 5053 0d52 48897C24 		movq	%rdi, 8(%rsp)
 5053      08
 5054 0d57 64488B04 		movq	%fs:40, %rax
 5054      25280000 
 5054      00
 5055 0d60 48898424 		movq	%rax, 1592(%rsp)
 5055      38060000 
 5056 0d68 31C0     		xorl	%eax, %eax
 5057              	.LEHB121:
 5058 0d6a E8000000 		call	_ZN8UnitTest11CurrentTest7DetailsEv@PLT
 5058      00
 5059              	.LEHE121:
 5060 0d6f 488DBC24 		leaq	464(%rsp), %rdi
 5060      D0010000 
 5061 0d77 488918   		movq	%rbx, (%rax)
 5062              	.LEHB122:
 5063 0d7a E8000000 		call	_ZN8UnitTest16SignalTranslatorC1Ev@PLT
 5063      00
 5064 0d7f 488B3D00 		movq	_ZN8UnitTest16SignalTranslator12s_jumpTargetE(%rip), %rdi
 5064      000000
 5065 0d86 BE010000 		movl	$1, %esi
 5065      00
 5066 0d8b E8000000 		call	__sigsetjmp@PLT
 5066      00
 5067 0d90 F30F1EFA 		endbr64
 5068 0d94 85C0     		testl	%eax, %eax
 5069 0d96 0F850000 		jne	.L329
 5069      0000
 5070 0d9c 488DBC24 		leaq	464(%rsp), %rdi
 5070      D0010000 
 5071 0da4 E8000000 		call	_ZN8UnitTest16SignalTranslatorD1Ev@PLT
 5071      00
 5072              	.LEHE122:
 5073              	.L308:
 5074 0da9 488B8424 		movq	1592(%rsp), %rax
 5074      38060000 
 5075 0db1 64482B04 		subq	%fs:40, %rax
 5075      25280000 
 5075      00
 5076 0dba 7510     		jne	.L332
 5077 0dbc 4881C440 		addq	$1600, %rsp
 5077      060000
 5078              		.cfi_remember_state
 5079              		.cfi_def_cfa_offset 48
 5080 0dc3 5B       		popq	%rbx
 5081              		.cfi_def_cfa_offset 40
 5082 0dc4 5D       		popq	%rbp
 5083              		.cfi_def_cfa_offset 32
 5084 0dc5 415C     		popq	%r12
 5085              		.cfi_def_cfa_offset 24
 5086 0dc7 415D     		popq	%r13
 5087              		.cfi_def_cfa_offset 16
 5088 0dc9 415E     		popq	%r14
 5089              		.cfi_def_cfa_offset 8
 5090 0dcb C3       		ret
 5091              	.L332:
 5092              		.cfi_restore_state
 5093 0dcc E8000000 		call	__stack_chk_fail@PLT
 5093      00
 5094              	.L327:
 5095 0dd1 F30F1EFA 		endbr64
 5096 0dd5 4889C7   		movq	%rax, %rdi
 5097 0dd8 4889D0   		movq	%rdx, %rax
 5098 0ddb E9000000 		jmp	.L312
 5098      00
 5099              		.section	.gcc_except_table
 5100              		.align 4
 5101              	.LLSDA1543:
 5102 038c FF       		.byte	0xff
 5103 038d 9B       		.byte	0x9b
 5104 038e 21       		.uleb128 .LLSDATT1543-.LLSDATTD1543
 5105              	.LLSDATTD1543:
 5106 038f 01       		.byte	0x1
 5107 0390 09       		.uleb128 .LLSDACSE1543-.LLSDACSB1543
 5108              	.LLSDACSB1543:
 5109 0391 2A       		.uleb128 .LEHB121-.LFB1543
 5110 0392 05       		.uleb128 .LEHE121-.LEHB121
 5111 0393 00       		.uleb128 0
 5112 0394 00       		.uleb128 0
 5113 0395 3A       		.uleb128 .LEHB122-.LFB1543
 5114 0396 2F       		.uleb128 .LEHE122-.LEHB122
 5115 0397 9101     		.uleb128 .L327-.LFB1543
 5116 0399 05       		.uleb128 0x5
 5117              	.LLSDACSE1543:
 5118 039a 03       		.byte	0x3
 5119 039b 00       		.byte	0
 5120 039c 02       		.byte	0x2
 5121 039d 7D       		.byte	0x7d
 5122 039e 01       		.byte	0x1
 5123 039f 7D       		.byte	0x7d
 5124 03a0 00       		.byte	0
 5125 03a1 7D       		.byte	0x7d
 5126 03a2 0000     		.align 4
 5127 03a4 00000000 		.long	0
 5128              	
 5129 03a8 00000000 		.long	DW.ref._ZTISt9exception-.
 5130 03ac 00000000 		.long	DW.ref._ZTIN8UnitTest15AssertExceptionE-.
 5131              	.LLSDATT1543:
 5132              		.text
 5133              		.cfi_endproc
 5134              		.section	.text.unlikely
 5135              		.cfi_startproc
 5136              		.cfi_personality 0x9b,DW.ref.__gxx_personality_v0
 5137              		.cfi_lsda 0x1b,.LLSDAC1543
 5139              	_ZN8UnitTest11ExecuteTestIN12_GLOBAL__N_115SuiteTestSuite165DummyFixtureSimilarlyNamedFixtureTestsI
 5140              	.LFSB1543:
 5141              	.L329:
 5142              		.cfi_def_cfa_offset 1648
 5143              		.cfi_offset 3, -48
 5144              		.cfi_offset 6, -40
 5145              		.cfi_offset 12, -32
 5146              		.cfi_offset 13, -24
 5147              		.cfi_offset 14, -16
 5148 09a7 BF080000 		movl	$8, %edi
 5148      00
 5149 09ac E8000000 		call	__cxa_allocate_exception@PLT
 5149      00
 5150 09b1 31D2     		xorl	%edx, %edx
 5151 09b3 488D3500 		leaq	_ZTIPKc(%rip), %rsi
 5151      000000
 5152 09ba 4889C7   		movq	%rax, %rdi
 5153 09bd 488D0500 		leaq	.LC55(%rip), %rax
 5153      000000
 5154 09c4 488907   		movq	%rax, (%rdi)
 5155              	.LEHB123:
 5156 09c7 E8000000 		call	__cxa_throw@PLT
 5156      00
 5157              	.LEHE123:
 5158              	.L328:
 5159 09cc F30F1EFA 		endbr64
 5160 09d0 4889C3   		movq	%rax, %rbx
 5161 09d3 4889D5   		movq	%rdx, %rbp
 5162 09d6 488DBC24 		leaq	464(%rsp), %rdi
 5162      D0010000 
 5163 09de E8000000 		call	_ZN8UnitTest16SignalTranslatorD1Ev@PLT
 5163      00
 5164 09e3 4889DF   		movq	%rbx, %rdi
 5165 09e6 4889E8   		movq	%rbp, %rax
 5166              	.L312:
 5167 09e9 4883F801 		cmpq	$1, %rax
 5168 09ed 7432     		je	.L313
 5169 09ef 4883F802 		cmpq	$2, %rax
 5170 09f3 0F848E00 		je	.L333
 5170      0000
 5171 09f9 E8000000 		call	__cxa_begin_catch@PLT
 5171      00
 5172              	.LEHB124:
 5173 09fe E8000000 		call	_ZN8UnitTest11CurrentTest7ResultsEv@PLT
 5173      00
 5174 0a03 488B7424 		movq	8(%rsp), %rsi
 5174      08
 5175 0a08 488B38   		movq	(%rax), %rdi
 5176 0a0b 488D1500 		leaq	.LC56(%rip), %rdx
 5176      000000
 5177 0a12 E8000000 		call	_ZN8UnitTest11TestResults13OnTestFailureERKNS_11TestDetailsEPKc@PLT
 5177      00
 5178              	.LEHE124:
 5179              	.LEHB125:
 5180 0a17 E8000000 		call	__cxa_end_catch@PLT
 5180      00
 5181              	.LEHE125:
 5182 0a1c E9000000 		jmp	.L308
 5182      00
 5183              	.L313:
 5184 0a21 E8000000 		call	__cxa_begin_catch@PLT
 5184      00
 5185 0a26 4889C5   		movq	%rax, %rbp
 5186              	.LEHB126:
 5187 0a29 E8000000 		call	_ZN8UnitTest11CurrentTest7ResultsEv@PLT
 5187      00
 5188 0a2e 4C8B28   		movq	(%rax), %r13
 5189 0a31 488B4500 		movq	0(%rbp), %rax
 5190 0a35 4889EF   		movq	%rbp, %rdi
 5191 0a38 FF5010   		call	*16(%rax)
 5192 0a3b 4889EF   		movq	%rbp, %rdi
 5193 0a3e 4989C6   		movq	%rax, %r14
 5194 0a41 E8000000 		call	_ZNK8UnitTest15AssertException10LineNumberEv@PLT
 5194      00
 5195 0a46 4889EF   		movq	%rbp, %rdi
 5196 0a49 4189C4   		movl	%eax, %r12d
 5197 0a4c E8000000 		call	_ZNK8UnitTest15AssertException8FilenameEv@PLT
 5197      00
 5198 0a51 4889C1   		movq	%rax, %rcx
 5199 0a54 488B4424 		movq	8(%rsp), %rax
 5199      08
 5200 0a59 488D7C24 		leaq	16(%rsp), %rdi
 5200      10
 5201 0a5e 4589E0   		movl	%r12d, %r8d
 5202 0a61 488B7008 		movq	8(%rax), %rsi
 5203 0a65 488B10   		movq	(%rax), %rdx
 5204 0a68 E8000000 		call	_ZN8UnitTest11TestDetailsC1EPKcS2_S2_i@PLT
 5204      00
 5205 0a6d 488D7424 		leaq	16(%rsp), %rsi
 5205      10
 5206 0a72 4C89F2   		movq	%r14, %rdx
 5207 0a75 4C89EF   		movq	%r13, %rdi
 5208 0a78 E8000000 		call	_ZN8UnitTest11TestResults13OnTestFailureERKNS_11TestDetailsEPKc@PLT
 5208      00
 5209              	.LEHE126:
 5210 0a7d E8000000 		call	__cxa_end_catch@PLT
 5210      00
 5211 0a82 E9000000 		jmp	.L308
 5211      00
 5212              	.L333:
 5213 0a87 E8000000 		call	__cxa_begin_catch@PLT
 5213      00
 5214 0a8c 488D7C24 		leaq	48(%rsp), %rdi
 5214      30
 5215 0a91 4889C5   		movq	%rax, %rbp
 5216              	.LEHB127:
 5217 0a94 E8000000 		call	_ZN8UnitTest15MemoryOutStreamC1Ev
 5217      00
 5218              	.LEHE127:
 5219 0a99 488D7C24 		leaq	48(%rsp), %rdi
 5219      30
 5220 0a9e BA150000 		movl	$21, %edx
 5220      00
 5221 0aa3 488D3500 		leaq	.LC51(%rip), %rsi
 5221      000000
 5222              	.LEHB128:
 5223 0aaa E8000000 		call	_ZSt16__ostream_insertIcSt11char_traitsIcEERSt13basic_ostreamIT_T0_ES6_PKS3_l@PLT
 5223      00
 5224 0aaf 488B4500 		movq	0(%rbp), %rax
 5225 0ab3 4889EF   		movq	%rbp, %rdi
 5226 0ab6 FF5010   		call	*16(%rax)
 5227 0ab9 488D7C24 		leaq	48(%rsp), %rdi
 5227      30
 5228 0abe 4889C6   		movq	%rax, %rsi
 5229 0ac1 E8000000 		call	_ZStlsISt11char_traitsIcEERSt13basic_ostreamIcT_ES5_PKc@PLT
 5229      00
 5230 0ac6 E8000000 		call	_ZN8UnitTest11CurrentTest7ResultsEv@PLT
 5230      00
 5231 0acb 488D7C24 		leaq	48(%rsp), %rdi
 5231      30
 5232 0ad0 488B28   		movq	(%rax), %rbp
 5233 0ad3 E8000000 		call	_ZNK8UnitTest15MemoryOutStream7GetTextEv@PLT
 5233      00
 5234 0ad8 488B7424 		movq	8(%rsp), %rsi
 5234      08
 5235 0add 4889C2   		movq	%rax, %rdx
 5236 0ae0 4889EF   		movq	%rbp, %rdi
 5237 0ae3 E8000000 		call	_ZN8UnitTest11TestResults13OnTestFailureERKNS_11TestDetailsEPKc@PLT
 5237      00
 5238              	.LEHE128:
 5239 0ae8 488D7C24 		leaq	48(%rsp), %rdi
 5239      30
 5240              	.LEHB129:
 5241 0aed E8000000 		call	_ZN8UnitTest15MemoryOutStreamD1Ev
 5241      00
 5242              	.LEHE129:
 5243 0af2 E8000000 		call	__cxa_end_catch@PLT
 5243      00
 5244 0af7 E9000000 		jmp	.L308
 5244      00
 5245              	.L326:
 5246 0afc F30F1EFA 		endbr64
 5247 0b00 4889C5   		movq	%rax, %rbp
 5248 0b03 E8000000 		call	__cxa_end_catch@PLT
 5248      00
 5249 0b08 4889EF   		movq	%rbp, %rdi
 5250              	.LEHB130:
 5251 0b0b E8000000 		call	_Unwind_Resume@PLT
 5251      00
 5252              	.LEHE130:
 5253              	.L323:
 5254 0b10 F30F1EFA 		endbr64
 5255 0b14 4889C5   		movq	%rax, %rbp
 5256 0b17 E8000000 		call	__cxa_end_catch@PLT
 5256      00
 5257 0b1c 4889EF   		movq	%rbp, %rdi
 5258              	.LEHB131:
 5259 0b1f E8000000 		call	_Unwind_Resume@PLT
 5259      00
 5260              	.LEHE131:
 5261              	.L325:
 5262 0b24 F30F1EFA 		endbr64
 5263 0b28 488D7C24 		leaq	48(%rsp), %rdi
 5263      30
 5264 0b2d 4889C5   		movq	%rax, %rbp
 5265 0b30 E8000000 		call	_ZN8UnitTest15MemoryOutStreamD1Ev
 5265      00
 5266              	.L320:
 5267 0b35 E8000000 		call	__cxa_end_catch@PLT
 5267      00
 5268 0b3a 4889EF   		movq	%rbp, %rdi
 5269              	.LEHB132:
 5270 0b3d E8000000 		call	_Unwind_Resume@PLT
 5270      00
 5271              	.LEHE132:
 5272              	.L324:
 5273 0b42 F30F1EFA 		endbr64
 5274 0b46 4889C5   		movq	%rax, %rbp
 5275 0b49 EBEA     		jmp	.L320
 5276              		.cfi_endproc
 5277              	.LFE1543:
 5278              		.section	.gcc_except_table
 5279              		.align 4
 5280              	.LLSDAC1543:
 5281 03b0 FF       		.byte	0xff
 5282 03b1 9B       		.byte	0x9b
 5283 03b2 4D       		.uleb128 .LLSDATTC1543-.LLSDATTDC1543
 5284              	.LLSDATTDC1543:
 5285 03b3 01       		.byte	0x1
 5286 03b4 34       		.uleb128 .LLSDACSEC1543-.LLSDACSBC1543
 5287              	.LLSDACSBC1543:
 5288 03b5 20       		.uleb128 .LEHB123-.LCOLDB57
 5289 03b6 05       		.uleb128 .LEHE123-.LEHB123
 5290 03b7 25       		.uleb128 .L328-.LCOLDB57
 5291 03b8 07       		.uleb128 0x7
 5292 03b9 57       		.uleb128 .LEHB124-.LCOLDB57
 5293 03ba 19       		.uleb128 .LEHE124-.LEHB124
 5294 03bb E902     		.uleb128 .L323-.LCOLDB57
 5295 03bd 00       		.uleb128 0
 5296 03be 70       		.uleb128 .LEHB125-.LCOLDB57
 5297 03bf 05       		.uleb128 .LEHE125-.LEHB125
 5298 03c0 00       		.uleb128 0
 5299 03c1 00       		.uleb128 0
 5300 03c2 8201     		.uleb128 .LEHB126-.LCOLDB57
 5301 03c4 54       		.uleb128 .LEHE126-.LEHB126
 5302 03c5 D502     		.uleb128 .L326-.LCOLDB57
 5303 03c7 00       		.uleb128 0
 5304 03c8 ED01     		.uleb128 .LEHB127-.LCOLDB57
 5305 03ca 05       		.uleb128 .LEHE127-.LEHB127
 5306 03cb 9B03     		.uleb128 .L324-.LCOLDB57
 5307 03cd 00       		.uleb128 0
 5308 03ce 8302     		.uleb128 .LEHB128-.LCOLDB57
 5309 03d0 3E       		.uleb128 .LEHE128-.LEHB128
 5310 03d1 FD02     		.uleb128 .L325-.LCOLDB57
 5311 03d3 00       		.uleb128 0
 5312 03d4 C602     		.uleb128 .LEHB129-.LCOLDB57
 5313 03d6 05       		.uleb128 .LEHE129-.LEHB129
 5314 03d7 9B03     		.uleb128 .L324-.LCOLDB57
 5315 03d9 00       		.uleb128 0
 5316 03da E402     		.uleb128 .LEHB130-.LCOLDB57
 5317 03dc 05       		.uleb128 .LEHE130-.LEHB130
 5318 03dd 00       		.uleb128 0
 5319 03de 00       		.uleb128 0
 5320 03df F802     		.uleb128 .LEHB131-.LCOLDB57
 5321 03e1 05       		.uleb128 .LEHE131-.LEHB131
 5322 03e2 00       		.uleb128 0
 5323 03e3 00       		.uleb128 0
 5324 03e4 9603     		.uleb128 .LEHB132-.LCOLDB57
 5325 03e6 05       		.uleb128 .LEHE132-.LEHB132
 5326 03e7 00       		.uleb128 0
 5327 03e8 00       		.uleb128 0
 5328              	.LLSDACSEC1543:
 5329 03e9 03       		.byte	0x3
 5330 03ea 00       		.byte	0
 5331 03eb 02       		.byte	0x2
 5332 03ec 7D       		.byte	0x7d
 5333 03ed 01       		.byte	0x1
 5334 03ee 7D       		.byte	0x7d
 5335 03ef 00       		.byte	0
 5336 03f0 7D       		.byte	0x7d
 5337 03f1 000000   		.align 4
 5338 03f4 00000000 		.long	0
 5339              	
 5340 03f8 00000000 		.long	DW.ref._ZTISt9exception-.
 5341 03fc 00000000 		.long	DW.ref._ZTIN8UnitTest15AssertExceptionE-.
 5342              	.LLSDATTC1543:
 5343              		.section	.text.unlikely
 5344              		.text
 5346              		.section	.text.unlikely
 5348              	.LCOLDE57:
 5349              		.text
 5350              	.LHOTE57:
 5351              		.section	.rodata.str1.8
 5352 057f 00       		.align 8
 5353              	.LC58:
 5354 0580 556E6861 		.string	"Unhandled exception while destroying fixture DummyFixture"
 5354      6E646C65 
 5354      64206578 
 5354      63657074 
 5354      696F6E20 
 5355              		.section	.text.unlikely
 5356 0b4b 90       		.align 2
 5357              	.LCOLDB59:
 5358              		.text
 5359              	.LHOTB59:
 5360              		.align 2
 5361              		.p2align 4
 5363              	_ZNK12_GLOBAL__N_115SuiteTestSuite163TestDummyFixtureSimilarlyNamedFixtureTestsInDifferentSuitesWor
 5364              	.LFB1261:
 5365              		.cfi_startproc
 5366              		.cfi_personality 0x9b,DW.ref.__gxx_personality_v0
 5367              		.cfi_lsda 0x1b,.LLSDA1261
 5368 0de0 F30F1EFA 		endbr64
 5369 0de4 4157     		pushq	%r15
 5370              		.cfi_def_cfa_offset 16
 5371              		.cfi_offset 15, -16
 5372 0de6 4156     		pushq	%r14
 5373              		.cfi_def_cfa_offset 24
 5374              		.cfi_offset 14, -24
 5375 0de8 4155     		pushq	%r13
 5376              		.cfi_def_cfa_offset 32
 5377              		.cfi_offset 13, -32
 5378 0dea 4154     		pushq	%r12
 5379              		.cfi_def_cfa_offset 40
 5380              		.cfi_offset 12, -40
 5381 0dec 55       		pushq	%rbp
 5382              		.cfi_def_cfa_offset 48
 5383              		.cfi_offset 6, -48
 5384 0ded 488D6F08 		leaq	8(%rdi), %rbp
 5385 0df1 53       		pushq	%rbx
 5386              		.cfi_def_cfa_offset 56
 5387              		.cfi_offset 3, -56
 5388 0df2 4889FB   		movq	%rdi, %rbx
 5389 0df5 4889EF   		movq	%rbp, %rdi
 5390 0df8 4881ECC8 		subq	$456, %rsp
 5390      010000
 5391              		.cfi_def_cfa_offset 512
 5392 0dff 64488B04 		movq	%fs:40, %rax
 5392      25280000 
 5392      00
 5393 0e08 48898424 		movq	%rax, 440(%rsp)
 5393      B8010000 
 5394 0e10 31C0     		xorl	%eax, %eax
 5395              	.LEHB133:
 5396 0e12 E829FFFF 		call	_ZN8UnitTest11ExecuteTestIN12_GLOBAL__N_115SuiteTestSuite165DummyFixtureSimilarlyNamedFixture
 5396      FF
 5397              	.LEHE133:
 5398 0e17 488B8424 		movq	440(%rsp), %rax
 5398      B8010000 
 5399 0e1f 64482B04 		subq	%fs:40, %rax
 5399      25280000 
 5399      00
 5400 0e28 7512     		jne	.L359
 5401 0e2a 4881C4C8 		addq	$456, %rsp
 5401      010000
 5402              		.cfi_remember_state
 5403              		.cfi_def_cfa_offset 56
 5404 0e31 5B       		popq	%rbx
 5405              		.cfi_def_cfa_offset 48
 5406 0e32 5D       		popq	%rbp
 5407              		.cfi_def_cfa_offset 40
 5408 0e33 415C     		popq	%r12
 5409              		.cfi_def_cfa_offset 32
 5410 0e35 415D     		popq	%r13
 5411              		.cfi_def_cfa_offset 24
 5412 0e37 415E     		popq	%r14
 5413              		.cfi_def_cfa_offset 16
 5414 0e39 415F     		popq	%r15
 5415              		.cfi_def_cfa_offset 8
 5416 0e3b C3       		ret
 5417              	.L359:
 5418              		.cfi_restore_state
 5419 0e3c E8000000 		call	__stack_chk_fail@PLT
 5419      00
 5420              	.L347:
 5421 0e41 F30F1EFA 		endbr64
 5422 0e45 4889C7   		movq	%rax, %rdi
 5423 0e48 E9000000 		jmp	.L335
 5423      00
 5424              		.section	.gcc_except_table
 5425              		.align 4
 5426              	.LLSDA1261:
 5427 0400 FF       		.byte	0xff
 5428 0401 9B       		.byte	0x9b
 5429 0402 19       		.uleb128 .LLSDATT1261-.LLSDATTD1261
 5430              	.LLSDATTD1261:
 5431 0403 01       		.byte	0x1
 5432 0404 04       		.uleb128 .LLSDACSE1261-.LLSDACSB1261
 5433              	.LLSDACSB1261:
 5434 0405 32       		.uleb128 .LEHB133-.LFB1261
 5435 0406 05       		.uleb128 .LEHE133-.LEHB133
 5436 0407 61       		.uleb128 .L347-.LFB1261
 5437 0408 05       		.uleb128 0x5
 5438              	.LLSDACSE1261:
 5439 0409 03       		.byte	0x3
 5440 040a 00       		.byte	0
 5441 040b 02       		.byte	0x2
 5442 040c 7D       		.byte	0x7d
 5443 040d 01       		.byte	0x1
 5444 040e 7D       		.byte	0x7d
 5445 040f 00       		.align 4
 5446 0410 00000000 		.long	0
 5447              	
 5448 0414 00000000 		.long	DW.ref._ZTISt9exception-.
 5449 0418 00000000 		.long	DW.ref._ZTIN8UnitTest15AssertExceptionE-.
 5450              	.LLSDATT1261:
 5451              		.text
 5452              		.cfi_endproc
 5453              		.section	.text.unlikely
 5454              		.cfi_startproc
 5455              		.cfi_personality 0x9b,DW.ref.__gxx_personality_v0
 5456              		.cfi_lsda 0x1b,.LLSDAC1261
 5458              	_ZNK12_GLOBAL__N_115SuiteTestSuite163TestDummyFixtureSimilarlyNamedFixtureTestsInDifferentSuitesWor
 5459              	.LFSB1261:
 5460              	.L335:
 5461              		.cfi_def_cfa_offset 512
 5462              		.cfi_offset 3, -56
 5463              		.cfi_offset 6, -48
 5464              		.cfi_offset 12, -40
 5465              		.cfi_offset 13, -32
 5466              		.cfi_offset 14, -24
 5467              		.cfi_offset 15, -16
 5468 0b4c 4883FA01 		cmpq	$1, %rdx
 5469 0b50 7469     		je	.L336
 5470 0b52 4883FA02 		cmpq	$2, %rdx
 5471 0b56 0F84DF00 		je	.L360
 5471      0000
 5472 0b5c E8000000 		call	__cxa_begin_catch@PLT
 5472      00
 5473              	.LEHB134:
 5474 0b61 E8000000 		call	_ZN8UnitTest11CurrentTest7ResultsEv@PLT
 5474      00
 5475 0b66 4989E4   		movq	%rsp, %r12
 5476 0b69 BA430000 		movl	$67, %edx
 5476      00
 5477 0b6e 4889EE   		movq	%rbp, %rsi
 5478 0b71 4C8B28   		movq	(%rax), %r13
 5479 0b74 4C89E7   		movq	%r12, %rdi
 5480 0b77 E8000000 		call	_ZN8UnitTest11TestDetailsC1ERKS0_i@PLT
 5480      00
 5481 0b7c 488D1500 		leaq	.LC58(%rip), %rdx
 5481      000000
 5482 0b83 4C89E6   		movq	%r12, %rsi
 5483 0b86 4C89EF   		movq	%r13, %rdi
 5484 0b89 E8000000 		call	_ZN8UnitTest11TestResults13OnTestFailureERKNS_11TestDetailsEPKc@PLT
 5484      00
 5485              	.LEHE134:
 5486 0b8e 488B8424 		movq	440(%rsp), %rax
 5486      B8010000 
 5487 0b96 64482B04 		subq	%fs:40, %rax
 5487      25280000 
 5487      00
 5488 0b9f 0F85FF00 		jne	.L356
 5488      0000
 5489 0ba5 4881C4C8 		addq	$456, %rsp
 5489      010000
 5490              		.cfi_remember_state
 5491              		.cfi_def_cfa_offset 56
 5492 0bac 5B       		popq	%rbx
 5493              		.cfi_def_cfa_offset 48
 5494 0bad 5D       		popq	%rbp
 5495              		.cfi_def_cfa_offset 40
 5496 0bae 415C     		popq	%r12
 5497              		.cfi_def_cfa_offset 32
 5498 0bb0 415D     		popq	%r13
 5499              		.cfi_def_cfa_offset 24
 5500 0bb2 415E     		popq	%r14
 5501              		.cfi_def_cfa_offset 16
 5502 0bb4 415F     		popq	%r15
 5503              		.cfi_def_cfa_offset 8
 5504              	.LEHB135:
 5505 0bb6 E9000000 		jmp	__cxa_end_catch@PLT
 5505      00
 5506              	.LEHE135:
 5507              	.L336:
 5508              		.cfi_restore_state
 5509 0bbb E8000000 		call	__cxa_begin_catch@PLT
 5509      00
 5510 0bc0 4889C5   		movq	%rax, %rbp
 5511              	.LEHB136:
 5512 0bc3 E8000000 		call	_ZN8UnitTest11CurrentTest7ResultsEv@PLT
 5512      00
 5513 0bc8 4C8B38   		movq	(%rax), %r15
 5514 0bcb 488B4500 		movq	0(%rbp), %rax
 5515 0bcf 4889EF   		movq	%rbp, %rdi
 5516 0bd2 FF5010   		call	*16(%rax)
 5517 0bd5 4889EF   		movq	%rbp, %rdi
 5518 0bd8 4989C5   		movq	%rax, %r13
 5519 0bdb E8000000 		call	_ZNK8UnitTest15AssertException10LineNumberEv@PLT
 5519      00
 5520 0be0 4889EF   		movq	%rbp, %rdi
 5521 0be3 4189C6   		movl	%eax, %r14d
 5522 0be6 E8000000 		call	_ZNK8UnitTest15AssertException8FilenameEv@PLT
 5522      00
 5523 0beb 4989E4   		movq	%rsp, %r12
 5524 0bee 488B5308 		movq	8(%rbx), %rdx
 5525 0bf2 488B7310 		movq	16(%rbx), %rsi
 5526 0bf6 4889C1   		movq	%rax, %rcx
 5527 0bf9 4589F0   		movl	%r14d, %r8d
 5528 0bfc 4C89E7   		movq	%r12, %rdi
 5529 0bff E8000000 		call	_ZN8UnitTest11TestDetailsC1EPKcS2_S2_i@PLT
 5529      00
 5530 0c04 4C89EA   		movq	%r13, %rdx
 5531 0c07 4C89E6   		movq	%r12, %rsi
 5532 0c0a 4C89FF   		movq	%r15, %rdi
 5533 0c0d E8000000 		call	_ZN8UnitTest11TestResults13OnTestFailureERKNS_11TestDetailsEPKc@PLT
 5533      00
 5534              	.LEHE136:
 5535              	.L358:
 5536 0c12 488B8424 		movq	440(%rsp), %rax
 5536      B8010000 
 5537 0c1a 64482B04 		subq	%fs:40, %rax
 5537      25280000 
 5537      00
 5538 0c23 757F     		jne	.L356
 5539 0c25 4881C4C8 		addq	$456, %rsp
 5539      010000
 5540              		.cfi_remember_state
 5541              		.cfi_def_cfa_offset 56
 5542 0c2c 5B       		popq	%rbx
 5543              		.cfi_def_cfa_offset 48
 5544 0c2d 5D       		popq	%rbp
 5545              		.cfi_def_cfa_offset 40
 5546 0c2e 415C     		popq	%r12
 5547              		.cfi_def_cfa_offset 32
 5548 0c30 415D     		popq	%r13
 5549              		.cfi_def_cfa_offset 24
 5550 0c32 415E     		popq	%r14
 5551              		.cfi_def_cfa_offset 16
 5552 0c34 415F     		popq	%r15
 5553              		.cfi_def_cfa_offset 8
 5554 0c36 E9000000 		jmp	__cxa_end_catch@PLT
 5554      00
 5555              	.L360:
 5556              		.cfi_restore_state
 5557 0c3b E8000000 		call	__cxa_begin_catch@PLT
 5557      00
 5558 0c40 4C8D6424 		leaq	32(%rsp), %r12
 5558      20
 5559 0c45 4C89E7   		movq	%r12, %rdi
 5560 0c48 4989C5   		movq	%rax, %r13
 5561              	.LEHB137:
 5562 0c4b E8000000 		call	_ZN8UnitTest15MemoryOutStreamC1Ev
 5562      00
 5563              	.LEHE137:
 5564 0c50 BA150000 		movl	$21, %edx
 5564      00
 5565 0c55 488D3500 		leaq	.LC51(%rip), %rsi
 5565      000000
 5566 0c5c 4C89E7   		movq	%r12, %rdi
 5567              	.LEHB138:
 5568 0c5f E8000000 		call	_ZSt16__ostream_insertIcSt11char_traitsIcEERSt13basic_ostreamIT_T0_ES6_PKS3_l@PLT
 5568      00
 5569 0c64 498B4500 		movq	0(%r13), %rax
 5570 0c68 4C89EF   		movq	%r13, %rdi
 5571 0c6b FF5010   		call	*16(%rax)
 5572 0c6e 4C89E7   		movq	%r12, %rdi
 5573 0c71 4889C6   		movq	%rax, %rsi
 5574 0c74 E8000000 		call	_ZStlsISt11char_traitsIcEERSt13basic_ostreamIcT_ES5_PKc@PLT
 5574      00
 5575 0c79 E8000000 		call	_ZN8UnitTest11CurrentTest7ResultsEv@PLT
 5575      00
 5576 0c7e 4C89E7   		movq	%r12, %rdi
 5577 0c81 4C8B28   		movq	(%rax), %r13
 5578 0c84 E8000000 		call	_ZNK8UnitTest15MemoryOutStream7GetTextEv@PLT
 5578      00
 5579 0c89 4889C2   		movq	%rax, %rdx
 5580 0c8c 4889EE   		movq	%rbp, %rsi
 5581 0c8f 4C89EF   		movq	%r13, %rdi
 5582 0c92 E8000000 		call	_ZN8UnitTest11TestResults13OnTestFailureERKNS_11TestDetailsEPKc@PLT
 5582      00
 5583              	.LEHE138:
 5584 0c97 4C89E7   		movq	%r12, %rdi
 5585              	.LEHB139:
 5586 0c9a E8000000 		call	_ZN8UnitTest15MemoryOutStreamD1Ev
 5586      00
 5587              	.LEHE139:
 5588 0c9f E96EFFFF 		jmp	.L358
 5588      FF
 5589              	.L356:
 5590 0ca4 E8000000 		call	__stack_chk_fail@PLT
 5590      00
 5591              	.L351:
 5592 0ca9 F30F1EFA 		endbr64
 5593 0cad 4889C5   		movq	%rax, %rbp
 5594 0cb0 E8000000 		call	__cxa_end_catch@PLT
 5594      00
 5595 0cb5 4889EF   		movq	%rbp, %rdi
 5596              	.LEHB140:
 5597 0cb8 E8000000 		call	_Unwind_Resume@PLT
 5597      00
 5598              	.LEHE140:
 5599              	.L348:
 5600 0cbd F30F1EFA 		endbr64
 5601              	.L357:
 5602 0cc1 4889C5   		movq	%rax, %rbp
 5603 0cc4 EB0F     		jmp	.L344
 5604              	.L350:
 5605 0cc6 F30F1EFA 		endbr64
 5606 0cca 4C89E7   		movq	%r12, %rdi
 5607 0ccd 4889C5   		movq	%rax, %rbp
 5608 0cd0 E8000000 		call	_ZN8UnitTest15MemoryOutStreamD1Ev
 5608      00
 5609              	.L344:
 5610 0cd5 E8000000 		call	__cxa_end_catch@PLT
 5610      00
 5611 0cda 4889EF   		movq	%rbp, %rdi
 5612              	.LEHB141:
 5613 0cdd E8000000 		call	_Unwind_Resume@PLT
 5613      00
 5614              	.LEHE141:
 5615              	.L349:
 5616 0ce2 F30F1EFA 		endbr64
 5617 0ce6 EBD9     		jmp	.L357
 5618              		.cfi_endproc
 5619              	.LFE1261:
 5620              		.section	.gcc_except_table
 5621              		.align 4
 5622              	.LLSDAC1261:
 5623 041c FF       		.byte	0xff
 5624 041d 9B       		.byte	0x9b
 5625 041e 41       		.uleb128 .LLSDATTC1261-.LLSDATTDC1261
 5626              	.LLSDATTDC1261:
 5627 041f 01       		.byte	0x1
 5628 0420 2A       		.uleb128 .LLSDACSEC1261-.LLSDACSBC1261
 5629              	.LLSDACSBC1261:
 5630 0421 15       		.uleb128 .LEHB134-.LCOLDB59
 5631 0422 2D       		.uleb128 .LEHE134-.LEHB134
 5632 0423 DD02     		.uleb128 .L351-.LCOLDB59
 5633 0425 00       		.uleb128 0
 5634 0426 6A       		.uleb128 .LEHB135-.LCOLDB59
 5635 0427 05       		.uleb128 .LEHE135-.LEHB135
 5636 0428 00       		.uleb128 0
 5637 0429 00       		.uleb128 0
 5638 042a 77       		.uleb128 .LEHB136-.LCOLDB59
 5639 042b 4F       		.uleb128 .LEHE136-.LEHB136
 5640 042c F102     		.uleb128 .L348-.LCOLDB59
 5641 042e 00       		.uleb128 0
 5642 042f FF01     		.uleb128 .LEHB137-.LCOLDB59
 5643 0431 05       		.uleb128 .LEHE137-.LEHB137
 5644 0432 9603     		.uleb128 .L349-.LCOLDB59
 5645 0434 00       		.uleb128 0
 5646 0435 9302     		.uleb128 .LEHB138-.LCOLDB59
 5647 0437 38       		.uleb128 .LEHE138-.LEHB138
 5648 0438 FA02     		.uleb128 .L350-.LCOLDB59
 5649 043a 00       		.uleb128 0
 5650 043b CE02     		.uleb128 .LEHB139-.LCOLDB59
 5651 043d 05       		.uleb128 .LEHE139-.LEHB139
 5652 043e 9603     		.uleb128 .L349-.LCOLDB59
 5653 0440 00       		.uleb128 0
 5654 0441 EC02     		.uleb128 .LEHB140-.LCOLDB59
 5655 0443 05       		.uleb128 .LEHE140-.LEHB140
 5656 0444 00       		.uleb128 0
 5657 0445 00       		.uleb128 0
 5658 0446 9103     		.uleb128 .LEHB141-.LCOLDB59
 5659 0448 05       		.uleb128 .LEHE141-.LEHB141
 5660 0449 00       		.uleb128 0
 5661 044a 00       		.uleb128 0
 5662              	.LLSDACSEC1261:
 5663 044b 03       		.byte	0x3
 5664 044c 00       		.byte	0
 5665 044d 02       		.byte	0x2
 5666 044e 7D       		.byte	0x7d
 5667 044f 01       		.byte	0x1
 5668 0450 7D       		.byte	0x7d
 5669 0451 000000   		.align 4
 5670 0454 00000000 		.long	0
 5671              	
 5672 0458 00000000 		.long	DW.ref._ZTISt9exception-.
 5673 045c 00000000 		.long	DW.ref._ZTIN8UnitTest15AssertExceptionE-.
 5674              	.LLSDATTC1261:
 5675              		.section	.text.unlikely
 5676              		.text
 5678              		.section	.text.unlikely
 5680              	.LCOLDE59:
 5681              		.text
 5682              	.LHOTE59:
 5683              		.section	.rodata.str1.1
 5684              	.LC60:
 5685 00dc 66696C65 		.string	"file"
 5685      00
 5686              	.LC61:
 5687 00e1 61737365 		.string	"assert failure"
 5687      72742066 
 5687      61696C75 
 5687      726500
 5688              		.section	.rodata.str1.8
 5689 05ba 00000000 		.align 8
 5689      0000
 5690              	.LC62:
 5691 05c0 556E6861 		.string	"Unhandled exception while destroying fixture FixtureCtorAsserts"
 5691      6E646C65 
 5691      64206578 
 5691      63657074 
 5691      696F6E20 
 5692              		.align 8
 5693              	.LC63:
 5694 0600 556E6861 		.string	"Unhandled exception while constructing fixture FixtureCtorAsserts"
 5694      6E646C65 
 5694      64206578 
 5694      63657074 
 5694      696F6E20 
 5695              		.section	.text.unlikely
 5696              		.align 2
 5697              	.LCOLDB64:
 5698              		.text
 5699              	.LHOTB64:
 5700 0e4d 90       		.align 2
 5701 0e4e 6690     		.p2align 4
 5703              	_ZNK12_GLOBAL__N_157TestFixtureCtorAssertsCorrectlyReportsAssertFailureInCtor7RunImplEv:
 5704              	.LFB1338:
 5705              		.cfi_startproc
 5706              		.cfi_personality 0x9b,DW.ref.__gxx_personality_v0
 5707              		.cfi_lsda 0x1b,.LLSDA1338
 5708 0e50 F30F1EFA 		endbr64
 5709 0e54 4157     		pushq	%r15
 5710              		.cfi_def_cfa_offset 16
 5711              		.cfi_offset 15, -16
 5712 0e56 BA7B0000 		movl	$123, %edx
 5712      00
 5713 0e5b 488D3500 		leaq	.LC60(%rip), %rsi
 5713      000000
 5714 0e62 4156     		pushq	%r14
 5715              		.cfi_def_cfa_offset 24
 5716              		.cfi_offset 14, -24
 5717 0e64 4155     		pushq	%r13
 5718              		.cfi_def_cfa_offset 32
 5719              		.cfi_offset 13, -32
 5720 0e66 4154     		pushq	%r12
 5721              		.cfi_def_cfa_offset 40
 5722              		.cfi_offset 12, -40
 5723 0e68 55       		pushq	%rbp
 5724              		.cfi_def_cfa_offset 48
 5725              		.cfi_offset 6, -48
 5726 0e69 488D6F08 		leaq	8(%rdi), %rbp
 5727 0e6d 53       		pushq	%rbx
 5728              		.cfi_def_cfa_offset 56
 5729              		.cfi_offset 3, -56
 5730 0e6e 4889FB   		movq	%rdi, %rbx
 5731 0e71 488D3D00 		leaq	.LC61(%rip), %rdi
 5731      000000
 5732 0e78 4881ECC8 		subq	$456, %rsp
 5732      010000
 5733              		.cfi_def_cfa_offset 512
 5734 0e7f 64488B04 		movq	%fs:40, %rax
 5734      25280000 
 5734      00
 5735 0e88 48898424 		movq	%rax, 440(%rsp)
 5735      B8010000 
 5736 0e90 31C0     		xorl	%eax, %eax
 5737              	.LEHB142:
 5738 0e92 E8000000 		call	_ZN8UnitTest12ReportAssertEPKcS1_i@PLT
 5738      00
 5739              	.LEHE142:
 5740 0e97 4889EF   		movq	%rbp, %rdi
 5741              	.LEHB143:
 5742 0e9a E8A1FEFF 		call	_ZN8UnitTest11ExecuteTestIN12_GLOBAL__N_115SuiteTestSuite165DummyFixtureSimilarlyNamedFixture
 5742      FF
 5743              	.LEHE143:
 5744 0e9f 488B8424 		movq	440(%rsp), %rax
 5744      B8010000 
 5745 0ea7 64482B04 		subq	%fs:40, %rax
 5745      25280000 
 5745      00
 5746 0eb0 7512     		jne	.L392
 5747 0eb2 4881C4C8 		addq	$456, %rsp
 5747      010000
 5748              		.cfi_remember_state
 5749              		.cfi_def_cfa_offset 56
 5750 0eb9 5B       		popq	%rbx
 5751              		.cfi_def_cfa_offset 48
 5752 0eba 5D       		popq	%rbp
 5753              		.cfi_def_cfa_offset 40
 5754 0ebb 415C     		popq	%r12
 5755              		.cfi_def_cfa_offset 32
 5756 0ebd 415D     		popq	%r13
 5757              		.cfi_def_cfa_offset 24
 5758 0ebf 415E     		popq	%r14
 5759              		.cfi_def_cfa_offset 16
 5760 0ec1 415F     		popq	%r15
 5761              		.cfi_def_cfa_offset 8
 5762 0ec3 C3       		ret
 5763              	.L392:
 5764              		.cfi_restore_state
 5765 0ec4 E8000000 		call	__stack_chk_fail@PLT
 5765      00
 5766              	.L379:
 5767 0ec9 F30F1EFA 		endbr64
 5768 0ecd 4889C7   		movq	%rax, %rdi
 5769 0ed0 4889D0   		movq	%rdx, %rax
 5770 0ed3 E9000000 		jmp	.L363
 5770      00
 5771              	.L384:
 5772 0ed8 F30F1EFA 		endbr64
 5773 0edc 4889C7   		movq	%rax, %rdi
 5774 0edf 4889D0   		movq	%rdx, %rax
 5775 0ee2 E9000000 		jmp	.L365
 5775      00
 5776              		.section	.gcc_except_table
 5777              		.align 4
 5778              	.LLSDA1338:
 5779 0460 FF       		.byte	0xff
 5780 0461 9B       		.byte	0x9b
 5781 0462 1D       		.uleb128 .LLSDATT1338-.LLSDATTD1338
 5782              	.LLSDATTD1338:
 5783 0463 01       		.byte	0x1
 5784 0464 09       		.uleb128 .LLSDACSE1338-.LLSDACSB1338
 5785              	.LLSDACSB1338:
 5786 0465 42       		.uleb128 .LEHB142-.LFB1338
 5787 0466 05       		.uleb128 .LEHE142-.LEHB142
 5788 0467 8801     		.uleb128 .L384-.LFB1338
 5789 0469 05       		.uleb128 0x5
 5790 046a 4A       		.uleb128 .LEHB143-.LFB1338
 5791 046b 05       		.uleb128 .LEHE143-.LEHB143
 5792 046c 79       		.uleb128 .L379-.LFB1338
 5793 046d 05       		.uleb128 0x5
 5794              	.LLSDACSE1338:
 5795 046e 03       		.byte	0x3
 5796 046f 00       		.byte	0
 5797 0470 02       		.byte	0x2
 5798 0471 7D       		.byte	0x7d
 5799 0472 01       		.byte	0x1
 5800 0473 7D       		.byte	0x7d
 5801              		.align 4
 5802 0474 00000000 		.long	0
 5803              	
 5804 0478 00000000 		.long	DW.ref._ZTISt9exception-.
 5805 047c 00000000 		.long	DW.ref._ZTIN8UnitTest15AssertExceptionE-.
 5806              	.LLSDATT1338:
 5807              		.text
 5808              		.cfi_endproc
 5809              		.section	.text.unlikely
 5810              		.cfi_startproc
 5811              		.cfi_personality 0x9b,DW.ref.__gxx_personality_v0
 5812              		.cfi_lsda 0x1b,.LLSDAC1338
 5814              	_ZNK12_GLOBAL__N_157TestFixtureCtorAssertsCorrectlyReportsAssertFailureInCtor7RunImplEv.cold:
 5815              	.LFSB1338:
 5816              	.L363:
 5817              		.cfi_def_cfa_offset 512
 5818              		.cfi_offset 3, -56
 5819              		.cfi_offset 6, -48
 5820              		.cfi_offset 12, -40
 5821              		.cfi_offset 13, -32
 5822              		.cfi_offset 14, -24
 5823              		.cfi_offset 15, -16
 5824 0ce8 41BC0100 		movl	$1, %r12d
 5824      0000
 5825              	.L364:
 5826 0cee 4883F801 		cmpq	$1, %rax
 5827 0cf2 7477     		je	.L366
 5828 0cf4 4883F802 		cmpq	$2, %rax
 5829 0cf8 0F84ED00 		je	.L393
 5829      0000
 5830 0cfe E8000000 		call	__cxa_begin_catch@PLT
 5830      00
 5831 0d03 4584E4   		testb	%r12b, %r12b
 5832 0d06 0F854D01 		jne	.L394
 5832      0000
 5833              	.LEHB144:
 5834 0d0c E8000000 		call	_ZN8UnitTest11CurrentTest7ResultsEv@PLT
 5834      00
 5835 0d11 4989E4   		movq	%rsp, %r12
 5836 0d14 BAAB0000 		movl	$171, %edx
 5836      00
 5837 0d19 4889EE   		movq	%rbp, %rsi
 5838 0d1c 4C8B28   		movq	(%rax), %r13
 5839 0d1f 4C89E7   		movq	%r12, %rdi
 5840 0d22 E8000000 		call	_ZN8UnitTest11TestDetailsC1ERKS0_i@PLT
 5840      00
 5841 0d27 488D1500 		leaq	.LC63(%rip), %rdx
 5841      000000
 5842 0d2e 4C89E6   		movq	%r12, %rsi
 5843 0d31 4C89EF   		movq	%r13, %rdi
 5844 0d34 E8000000 		call	_ZN8UnitTest11TestResults13OnTestFailureERKNS_11TestDetailsEPKc@PLT
 5844      00
 5845              	.LEHE144:
 5846              	.L372:
 5847 0d39 488B8424 		movq	440(%rsp), %rax
 5847      B8010000 
 5848 0d41 64482B04 		subq	%fs:40, %rax
 5848      25280000 
 5848      00
 5849 0d4a 0F850401 		jne	.L389
 5849      0000
 5850 0d50 4881C4C8 		addq	$456, %rsp
 5850      010000
 5851              		.cfi_remember_state
 5852              		.cfi_def_cfa_offset 56
 5853 0d57 5B       		popq	%rbx
 5854              		.cfi_def_cfa_offset 48
 5855 0d58 5D       		popq	%rbp
 5856              		.cfi_def_cfa_offset 40
 5857 0d59 415C     		popq	%r12
 5858              		.cfi_def_cfa_offset 32
 5859 0d5b 415D     		popq	%r13
 5860              		.cfi_def_cfa_offset 24
 5861 0d5d 415E     		popq	%r14
 5862              		.cfi_def_cfa_offset 16
 5863 0d5f 415F     		popq	%r15
 5864              		.cfi_def_cfa_offset 8
 5865              	.LEHB145:
 5866 0d61 E9000000 		jmp	__cxa_end_catch@PLT
 5866      00
 5867              	.LEHE145:
 5868              	.L365:
 5869              		.cfi_restore_state
 5870 0d66 4531E4   		xorl	%r12d, %r12d
 5871 0d69 EB83     		jmp	.L364
 5872              	.L366:
 5873 0d6b E8000000 		call	__cxa_begin_catch@PLT
 5873      00
 5874 0d70 4889C5   		movq	%rax, %rbp
 5875              	.LEHB146:
 5876 0d73 E8000000 		call	_ZN8UnitTest11CurrentTest7ResultsEv@PLT
 5876      00
 5877 0d78 4C8B38   		movq	(%rax), %r15
 5878 0d7b 488B4500 		movq	0(%rbp), %rax
 5879 0d7f 4889EF   		movq	%rbp, %rdi
 5880 0d82 FF5010   		call	*16(%rax)
 5881 0d85 4889EF   		movq	%rbp, %rdi
 5882 0d88 4989C5   		movq	%rax, %r13
 5883 0d8b E8000000 		call	_ZNK8UnitTest15AssertException10LineNumberEv@PLT
 5883      00
 5884 0d90 4889EF   		movq	%rbp, %rdi
 5885 0d93 4189C6   		movl	%eax, %r14d
 5886 0d96 E8000000 		call	_ZNK8UnitTest15AssertException8FilenameEv@PLT
 5886      00
 5887 0d9b 4989E4   		movq	%rsp, %r12
 5888 0d9e 488B5308 		movq	8(%rbx), %rdx
 5889 0da2 488B7310 		movq	16(%rbx), %rsi
 5890 0da6 4889C1   		movq	%rax, %rcx
 5891 0da9 4589F0   		movl	%r14d, %r8d
 5892 0dac 4C89E7   		movq	%r12, %rdi
 5893 0daf E8000000 		call	_ZN8UnitTest11TestDetailsC1EPKcS2_S2_i@PLT
 5893      00
 5894 0db4 4C89EA   		movq	%r13, %rdx
 5895 0db7 4C89E6   		movq	%r12, %rsi
 5896 0dba 4C89FF   		movq	%r15, %rdi
 5897 0dbd E8000000 		call	_ZN8UnitTest11TestResults13OnTestFailureERKNS_11TestDetailsEPKc@PLT
 5897      00
 5898              	.LEHE146:
 5899              	.L391:
 5900 0dc2 488B8424 		movq	440(%rsp), %rax
 5900      B8010000 
 5901 0dca 64482B04 		subq	%fs:40, %rax
 5901      25280000 
 5901      00
 5902 0dd3 757F     		jne	.L389
 5903 0dd5 4881C4C8 		addq	$456, %rsp
 5903      010000
 5904              		.cfi_remember_state
 5905              		.cfi_def_cfa_offset 56
 5906 0ddc 5B       		popq	%rbx
 5907              		.cfi_def_cfa_offset 48
 5908 0ddd 5D       		popq	%rbp
 5909              		.cfi_def_cfa_offset 40
 5910 0dde 415C     		popq	%r12
 5911              		.cfi_def_cfa_offset 32
 5912 0de0 415D     		popq	%r13
 5913              		.cfi_def_cfa_offset 24
 5914 0de2 415E     		popq	%r14
 5915              		.cfi_def_cfa_offset 16
 5916 0de4 415F     		popq	%r15
 5917              		.cfi_def_cfa_offset 8
 5918 0de6 E9000000 		jmp	__cxa_end_catch@PLT
 5918      00
 5919              	.L393:
 5920              		.cfi_restore_state
 5921 0deb E8000000 		call	__cxa_begin_catch@PLT
 5921      00
 5922 0df0 4C8D6424 		leaq	32(%rsp), %r12
 5922      20
 5923 0df5 4C89E7   		movq	%r12, %rdi
 5924 0df8 4989C5   		movq	%rax, %r13
 5925              	.LEHB147:
 5926 0dfb E8000000 		call	_ZN8UnitTest15MemoryOutStreamC1Ev
 5926      00
 5927              	.LEHE147:
 5928 0e00 BA150000 		movl	$21, %edx
 5928      00
 5929 0e05 488D3500 		leaq	.LC51(%rip), %rsi
 5929      000000
 5930 0e0c 4C89E7   		movq	%r12, %rdi
 5931              	.LEHB148:
 5932 0e0f E8000000 		call	_ZSt16__ostream_insertIcSt11char_traitsIcEERSt13basic_ostreamIT_T0_ES6_PKS3_l@PLT
 5932      00
 5933 0e14 498B4500 		movq	0(%r13), %rax
 5934 0e18 4C89EF   		movq	%r13, %rdi
 5935 0e1b FF5010   		call	*16(%rax)
 5936 0e1e 4C89E7   		movq	%r12, %rdi
 5937 0e21 4889C6   		movq	%rax, %rsi
 5938 0e24 E8000000 		call	_ZStlsISt11char_traitsIcEERSt13basic_ostreamIcT_ES5_PKc@PLT
 5938      00
 5939 0e29 E8000000 		call	_ZN8UnitTest11CurrentTest7ResultsEv@PLT
 5939      00
 5940 0e2e 4C89E7   		movq	%r12, %rdi
 5941 0e31 4C8B28   		movq	(%rax), %r13
 5942 0e34 E8000000 		call	_ZNK8UnitTest15MemoryOutStream7GetTextEv@PLT
 5942      00
 5943 0e39 4889C2   		movq	%rax, %rdx
 5944 0e3c 4889EE   		movq	%rbp, %rsi
 5945 0e3f 4C89EF   		movq	%r13, %rdi
 5946 0e42 E8000000 		call	_ZN8UnitTest11TestResults13OnTestFailureERKNS_11TestDetailsEPKc@PLT
 5946      00
 5947              	.LEHE148:
 5948 0e47 4C89E7   		movq	%r12, %rdi
 5949              	.LEHB149:
 5950 0e4a E8000000 		call	_ZN8UnitTest15MemoryOutStreamD1Ev
 5950      00
 5951              	.LEHE149:
 5952 0e4f E96EFFFF 		jmp	.L391
 5952      FF
 5953              	.L389:
 5954 0e54 E8000000 		call	__stack_chk_fail@PLT
 5954      00
 5955              	.L394:
 5956              	.LEHB150:
 5957 0e59 E8000000 		call	_ZN8UnitTest11CurrentTest7ResultsEv@PLT
 5957      00
 5958 0e5e 4989E4   		movq	%rsp, %r12
 5959 0e61 BAAB0000 		movl	$171, %edx
 5959      00
 5960 0e66 4889EE   		movq	%rbp, %rsi
 5961 0e69 4C8B28   		movq	(%rax), %r13
 5962 0e6c 4C89E7   		movq	%r12, %rdi
 5963 0e6f E8000000 		call	_ZN8UnitTest11TestDetailsC1ERKS0_i@PLT
 5963      00
 5964 0e74 488D1500 		leaq	.LC62(%rip), %rdx
 5964      000000
 5965 0e7b 4C89E6   		movq	%r12, %rsi
 5966 0e7e 4C89EF   		movq	%r13, %rdi
 5967 0e81 E8000000 		call	_ZN8UnitTest11TestResults13OnTestFailureERKNS_11TestDetailsEPKc@PLT
 5967      00
 5968              	.LEHE150:
 5969 0e86 E9AEFEFF 		jmp	.L372
 5969      FF
 5970              	.L383:
 5971 0e8b F30F1EFA 		endbr64
 5972 0e8f 4889C5   		movq	%rax, %rbp
 5973 0e92 E8000000 		call	__cxa_end_catch@PLT
 5973      00
 5974 0e97 4889EF   		movq	%rbp, %rdi
 5975              	.LEHB151:
 5976 0e9a E8000000 		call	_Unwind_Resume@PLT
 5976      00
 5977              	.LEHE151:
 5978              	.L380:
 5979 0e9f F30F1EFA 		endbr64
 5980              	.L390:
 5981 0ea3 4889C5   		movq	%rax, %rbp
 5982 0ea6 EB0F     		jmp	.L376
 5983              	.L382:
 5984 0ea8 F30F1EFA 		endbr64
 5985 0eac 4C89E7   		movq	%r12, %rdi
 5986 0eaf 4889C5   		movq	%rax, %rbp
 5987 0eb2 E8000000 		call	_ZN8UnitTest15MemoryOutStreamD1Ev
 5987      00
 5988              	.L376:
 5989 0eb7 E8000000 		call	__cxa_end_catch@PLT
 5989      00
 5990 0ebc 4889EF   		movq	%rbp, %rdi
 5991              	.LEHB152:
 5992 0ebf E8000000 		call	_Unwind_Resume@PLT
 5992      00
 5993              	.LEHE152:
 5994              	.L381:
 5995 0ec4 F30F1EFA 		endbr64
 5996 0ec8 EBD9     		jmp	.L390
 5997              		.cfi_endproc
 5998              	.LFE1338:
 5999              		.section	.gcc_except_table
 6000              		.align 4
 6001              	.LLSDAC1338:
 6002 0480 FF       		.byte	0xff
 6003 0481 9B       		.byte	0x9b
 6004 0482 45       		.uleb128 .LLSDATTC1338-.LLSDATTDC1338
 6005              	.LLSDATTDC1338:
 6006 0483 01       		.byte	0x1
 6007 0484 31       		.uleb128 .LLSDACSEC1338-.LLSDACSBC1338
 6008              	.LLSDACSBC1338:
 6009 0485 24       		.uleb128 .LEHB144-.LCOLDB64
 6010 0486 2D       		.uleb128 .LEHE144-.LEHB144
 6011 0487 A303     		.uleb128 .L383-.LCOLDB64
 6012 0489 00       		.uleb128 0
 6013 048a 79       		.uleb128 .LEHB145-.LCOLDB64
 6014 048b 05       		.uleb128 .LEHE145-.LEHB145
 6015 048c 00       		.uleb128 0
 6016 048d 00       		.uleb128 0
 6017 048e 8B01     		.uleb128 .LEHB146-.LCOLDB64
 6018 0490 4F       		.uleb128 .LEHE146-.LEHB146
 6019 0491 B703     		.uleb128 .L380-.LCOLDB64
 6020 0493 00       		.uleb128 0
 6021 0494 9302     		.uleb128 .LEHB147-.LCOLDB64
 6022 0496 05       		.uleb128 .LEHE147-.LEHB147
 6023 0497 DC03     		.uleb128 .L381-.LCOLDB64
 6024 0499 00       		.uleb128 0
 6025 049a A702     		.uleb128 .LEHB148-.LCOLDB64
 6026 049c 38       		.uleb128 .LEHE148-.LEHB148
 6027 049d C003     		.uleb128 .L382-.LCOLDB64
 6028 049f 00       		.uleb128 0
 6029 04a0 E202     		.uleb128 .LEHB149-.LCOLDB64
 6030 04a2 05       		.uleb128 .LEHE149-.LEHB149
 6031 04a3 DC03     		.uleb128 .L381-.LCOLDB64
 6032 04a5 00       		.uleb128 0
 6033 04a6 F102     		.uleb128 .LEHB150-.LCOLDB64
 6034 04a8 2D       		.uleb128 .LEHE150-.LEHB150
 6035 04a9 A303     		.uleb128 .L383-.LCOLDB64
 6036 04ab 00       		.uleb128 0
 6037 04ac B203     		.uleb128 .LEHB151-.LCOLDB64
 6038 04ae 05       		.uleb128 .LEHE151-.LEHB151
 6039 04af 00       		.uleb128 0
 6040 04b0 00       		.uleb128 0
 6041 04b1 D703     		.uleb128 .LEHB152-.LCOLDB64
 6042 04b3 05       		.uleb128 .LEHE152-.LEHB152
 6043 04b4 00       		.uleb128 0
 6044 04b5 00       		.uleb128 0
 6045              	.LLSDACSEC1338:
 6046 04b6 03       		.byte	0x3
 6047 04b7 00       		.byte	0
 6048 04b8 02       		.byte	0x2
 6049 04b9 7D       		.byte	0x7d
 6050 04ba 01       		.byte	0x1
 6051 04bb 7D       		.byte	0x7d
 6052              		.align 4
 6053 04bc 00000000 		.long	0
 6054              	
 6055 04c0 00000000 		.long	DW.ref._ZTISt9exception-.
 6056 04c4 00000000 		.long	DW.ref._ZTIN8UnitTest15AssertExceptionE-.
 6057              	.LLSDATTC1338:
 6058              		.section	.text.unlikely
 6059              		.text
 6061              		.section	.text.unlikely
 6063              	.LCOLDE64:
 6064              		.text
 6065              	.LHOTE64:
 6066              		.section	.rodata.str1.8
 6067 0642 00000000 		.align 8
 6067      0000
 6068              	.LC65:
 6069 0648 556E6861 		.string	"Unhandled exception while destroying fixture FixtureDtorThrows"
 6069      6E646C65 
 6069      64206578 
 6069      63657074 
 6069      696F6E20 
 6070              		.section	.text.unlikely
 6071              		.align 2
 6072              	.LCOLDB66:
 6073              		.text
 6074              	.LHOTB66:
 6075 0ee7 90       		.align 2
 6076 0ee8 0F1F8400 		.p2align 4
 6076      00000000 
 6078              	_ZNK12_GLOBAL__N_146TestFixtureDtorThrowsFixtureDtorThrowsTestName7RunImplEv:
 6079              	.LFB1320:
 6080              		.cfi_startproc
 6081              		.cfi_personality 0x9b,DW.ref.__gxx_personality_v0
 6082              		.cfi_lsda 0x1b,.LLSDA1320
 6083 0ef0 F30F1EFA 		endbr64
 6084 0ef4 4157     		pushq	%r15
 6085              		.cfi_def_cfa_offset 16
 6086              		.cfi_offset 15, -16
 6087 0ef6 4156     		pushq	%r14
 6088              		.cfi_def_cfa_offset 24
 6089              		.cfi_offset 14, -24
 6090 0ef8 4155     		pushq	%r13
 6091              		.cfi_def_cfa_offset 32
 6092              		.cfi_offset 13, -32
 6093 0efa 4154     		pushq	%r12
 6094              		.cfi_def_cfa_offset 40
 6095              		.cfi_offset 12, -40
 6096 0efc 55       		pushq	%rbp
 6097              		.cfi_def_cfa_offset 48
 6098              		.cfi_offset 6, -48
 6099 0efd 488D6F08 		leaq	8(%rdi), %rbp
 6100 0f01 53       		pushq	%rbx
 6101              		.cfi_def_cfa_offset 56
 6102              		.cfi_offset 3, -56
 6103 0f02 4889FB   		movq	%rdi, %rbx
 6104 0f05 4889EF   		movq	%rbp, %rdi
 6105 0f08 4881ECC8 		subq	$456, %rsp
 6105      010000
 6106              		.cfi_def_cfa_offset 512
 6107 0f0f 64488B04 		movq	%fs:40, %rax
 6107      25280000 
 6107      00
 6108 0f18 48898424 		movq	%rax, 440(%rsp)
 6108      B8010000 
 6109 0f20 31C0     		xorl	%eax, %eax
 6110              	.LEHB153:
 6111 0f22 E819FEFF 		call	_ZN8UnitTest11ExecuteTestIN12_GLOBAL__N_115SuiteTestSuite165DummyFixtureSimilarlyNamedFixture
 6111      FF
 6112              	.LEHE153:
 6113 0f27 E9000000 		jmp	.L415
 6113      00
 6114              	.L409:
 6115 0f2c F30F1EFA 		endbr64
 6116 0f30 E9000000 		jmp	.L396
 6116      00
 6117              		.section	.gcc_except_table
 6118              		.align 4
 6119              	.LLSDA1320:
 6120 04c8 FF       		.byte	0xff
 6121 04c9 9B       		.byte	0x9b
 6122 04ca 1D       		.uleb128 .LLSDATT1320-.LLSDATTD1320
 6123              	.LLSDATTD1320:
 6124 04cb 01       		.byte	0x1
 6125 04cc 04       		.uleb128 .LLSDACSE1320-.LLSDACSB1320
 6126              	.LLSDACSB1320:
 6127 04cd 32       		.uleb128 .LEHB153-.LFB1320
 6128 04ce 05       		.uleb128 .LEHE153-.LEHB153
 6129 04cf 3C       		.uleb128 .L409-.LFB1320
 6130 04d0 07       		.uleb128 0x7
 6131              	.LLSDACSE1320:
 6132 04d1 03       		.byte	0x3
 6133 04d2 00       		.byte	0
 6134 04d3 02       		.byte	0x2
 6135 04d4 7D       		.byte	0x7d
 6136 04d5 01       		.byte	0x1
 6137 04d6 7D       		.byte	0x7d
 6138 04d7 00       		.byte	0
 6139 04d8 7D       		.byte	0x7d
 6140 04d9 000000   		.align 4
 6141 04dc 00000000 		.long	0
 6142              	
 6143 04e0 00000000 		.long	DW.ref._ZTISt9exception-.
 6144 04e4 00000000 		.long	DW.ref._ZTIN8UnitTest15AssertExceptionE-.
 6145              	.LLSDATT1320:
 6146              		.text
 6147              		.cfi_endproc
 6148              		.section	.text.unlikely
 6149              		.cfi_startproc
 6150              		.cfi_personality 0x9b,DW.ref.__gxx_personality_v0
 6151              		.cfi_lsda 0x1b,.LLSDAC1320
 6153              	_ZNK12_GLOBAL__N_146TestFixtureDtorThrowsFixtureDtorThrowsTestName7RunImplEv.cold:
 6154              	.LFSB1320:
 6155              	.L415:
 6156              		.cfi_def_cfa_offset 512
 6157              		.cfi_offset 3, -56
 6158              		.cfi_offset 6, -48
 6159              		.cfi_offset 12, -40
 6160              		.cfi_offset 13, -32
 6161              		.cfi_offset 14, -24
 6162              		.cfi_offset 15, -16
 6163              	.LEHB154:
 6164 0eca E8B7F5FF 		call	_ZN12_GLOBAL__N_117FixtureDtorThrowsD2Ev.constprop.0
 6164      FF
 6165              	.LEHE154:
 6166              	.L396:
 6167 0ecf E8B2F5FF 		call	_ZN12_GLOBAL__N_117FixtureDtorThrowsD2Ev.constprop.0
 6167      FF
 6168              	.L410:
 6169 0ed4 F30F1EFA 		endbr64
 6170 0ed8 4889C7   		movq	%rax, %rdi
 6171 0edb 4883FA01 		cmpq	$1, %rdx
 6172 0edf 7469     		je	.L398
 6173 0ee1 4883FA02 		cmpq	$2, %rdx
 6174 0ee5 0F84DF00 		je	.L422
 6174      0000
 6175 0eeb E8000000 		call	__cxa_begin_catch@PLT
 6175      00
 6176              	.LEHB155:
 6177 0ef0 E8000000 		call	_ZN8UnitTest11CurrentTest7ResultsEv@PLT
 6177      00
 6178 0ef5 4989E4   		movq	%rsp, %r12
 6179 0ef8 BA8A0000 		movl	$138, %edx
 6179      00
 6180 0efd 4889EE   		movq	%rbp, %rsi
 6181 0f00 4C8B28   		movq	(%rax), %r13
 6182 0f03 4C89E7   		movq	%r12, %rdi
 6183 0f06 E8000000 		call	_ZN8UnitTest11TestDetailsC1ERKS0_i@PLT
 6183      00
 6184 0f0b 488D1500 		leaq	.LC65(%rip), %rdx
 6184      000000
 6185 0f12 4C89E6   		movq	%r12, %rsi
 6186 0f15 4C89EF   		movq	%r13, %rdi
 6187 0f18 E8000000 		call	_ZN8UnitTest11TestResults13OnTestFailureERKNS_11TestDetailsEPKc@PLT
 6187      00
 6188              	.LEHE155:
 6189 0f1d 488B8424 		movq	440(%rsp), %rax
 6189      B8010000 
 6190 0f25 64482B04 		subq	%fs:40, %rax
 6190      25280000 
 6190      00
 6191 0f2e 0F85FF00 		jne	.L419
 6191      0000
 6192 0f34 4881C4C8 		addq	$456, %rsp
 6192      010000
 6193              		.cfi_remember_state
 6194              		.cfi_def_cfa_offset 56
 6195 0f3b 5B       		popq	%rbx
 6196              		.cfi_def_cfa_offset 48
 6197 0f3c 5D       		popq	%rbp
 6198              		.cfi_def_cfa_offset 40
 6199 0f3d 415C     		popq	%r12
 6200              		.cfi_def_cfa_offset 32
 6201 0f3f 415D     		popq	%r13
 6202              		.cfi_def_cfa_offset 24
 6203 0f41 415E     		popq	%r14
 6204              		.cfi_def_cfa_offset 16
 6205 0f43 415F     		popq	%r15
 6206              		.cfi_def_cfa_offset 8
 6207              	.LEHB156:
 6208 0f45 E9000000 		jmp	__cxa_end_catch@PLT
 6208      00
 6209              	.LEHE156:
 6210              	.L398:
 6211              		.cfi_restore_state
 6212 0f4a E8000000 		call	__cxa_begin_catch@PLT
 6212      00
 6213 0f4f 4889C5   		movq	%rax, %rbp
 6214              	.LEHB157:
 6215 0f52 E8000000 		call	_ZN8UnitTest11CurrentTest7ResultsEv@PLT
 6215      00
 6216 0f57 4C8B38   		movq	(%rax), %r15
 6217 0f5a 488B4500 		movq	0(%rbp), %rax
 6218 0f5e 4889EF   		movq	%rbp, %rdi
 6219 0f61 FF5010   		call	*16(%rax)
 6220 0f64 4889EF   		movq	%rbp, %rdi
 6221 0f67 4989C5   		movq	%rax, %r13
 6222 0f6a E8000000 		call	_ZNK8UnitTest15AssertException10LineNumberEv@PLT
 6222      00
 6223 0f6f 4889EF   		movq	%rbp, %rdi
 6224 0f72 4189C6   		movl	%eax, %r14d
 6225 0f75 E8000000 		call	_ZNK8UnitTest15AssertException8FilenameEv@PLT
 6225      00
 6226 0f7a 4989E4   		movq	%rsp, %r12
 6227 0f7d 488B5308 		movq	8(%rbx), %rdx
 6228 0f81 488B7310 		movq	16(%rbx), %rsi
 6229 0f85 4889C1   		movq	%rax, %rcx
 6230 0f88 4589F0   		movl	%r14d, %r8d
 6231 0f8b 4C89E7   		movq	%r12, %rdi
 6232 0f8e E8000000 		call	_ZN8UnitTest11TestDetailsC1EPKcS2_S2_i@PLT
 6232      00
 6233 0f93 4C89EA   		movq	%r13, %rdx
 6234 0f96 4C89E6   		movq	%r12, %rsi
 6235 0f99 4C89FF   		movq	%r15, %rdi
 6236 0f9c E8000000 		call	_ZN8UnitTest11TestResults13OnTestFailureERKNS_11TestDetailsEPKc@PLT
 6236      00
 6237              	.LEHE157:
 6238              	.L421:
 6239 0fa1 488B8424 		movq	440(%rsp), %rax
 6239      B8010000 
 6240 0fa9 64482B04 		subq	%fs:40, %rax
 6240      25280000 
 6240      00
 6241 0fb2 757F     		jne	.L419
 6242 0fb4 4881C4C8 		addq	$456, %rsp
 6242      010000
 6243              		.cfi_remember_state
 6244              		.cfi_def_cfa_offset 56
 6245 0fbb 5B       		popq	%rbx
 6246              		.cfi_def_cfa_offset 48
 6247 0fbc 5D       		popq	%rbp
 6248              		.cfi_def_cfa_offset 40
 6249 0fbd 415C     		popq	%r12
 6250              		.cfi_def_cfa_offset 32
 6251 0fbf 415D     		popq	%r13
 6252              		.cfi_def_cfa_offset 24
 6253 0fc1 415E     		popq	%r14
 6254              		.cfi_def_cfa_offset 16
 6255 0fc3 415F     		popq	%r15
 6256              		.cfi_def_cfa_offset 8
 6257 0fc5 E9000000 		jmp	__cxa_end_catch@PLT
 6257      00
 6258              	.L422:
 6259              		.cfi_restore_state
 6260 0fca E8000000 		call	__cxa_begin_catch@PLT
 6260      00
 6261 0fcf 4C8D6424 		leaq	32(%rsp), %r12
 6261      20
 6262 0fd4 4C89E7   		movq	%r12, %rdi
 6263 0fd7 4989C5   		movq	%rax, %r13
 6264              	.LEHB158:
 6265 0fda E8000000 		call	_ZN8UnitTest15MemoryOutStreamC1Ev
 6265      00
 6266              	.LEHE158:
 6267 0fdf BA150000 		movl	$21, %edx
 6267      00
 6268 0fe4 488D3500 		leaq	.LC51(%rip), %rsi
 6268      000000
 6269 0feb 4C89E7   		movq	%r12, %rdi
 6270              	.LEHB159:
 6271 0fee E8000000 		call	_ZSt16__ostream_insertIcSt11char_traitsIcEERSt13basic_ostreamIT_T0_ES6_PKS3_l@PLT
 6271      00
 6272 0ff3 498B4500 		movq	0(%r13), %rax
 6273 0ff7 4C89EF   		movq	%r13, %rdi
 6274 0ffa FF5010   		call	*16(%rax)
 6275 0ffd 4C89E7   		movq	%r12, %rdi
 6276 1000 4889C6   		movq	%rax, %rsi
 6277 1003 E8000000 		call	_ZStlsISt11char_traitsIcEERSt13basic_ostreamIcT_ES5_PKc@PLT
 6277      00
 6278 1008 E8000000 		call	_ZN8UnitTest11CurrentTest7ResultsEv@PLT
 6278      00
 6279 100d 4C89E7   		movq	%r12, %rdi
 6280 1010 4C8B28   		movq	(%rax), %r13
 6281 1013 E8000000 		call	_ZNK8UnitTest15MemoryOutStream7GetTextEv@PLT
 6281      00
 6282 1018 4889C2   		movq	%rax, %rdx
 6283 101b 4889EE   		movq	%rbp, %rsi
 6284 101e 4C89EF   		movq	%r13, %rdi
 6285 1021 E8000000 		call	_ZN8UnitTest11TestResults13OnTestFailureERKNS_11TestDetailsEPKc@PLT
 6285      00
 6286              	.LEHE159:
 6287 1026 4C89E7   		movq	%r12, %rdi
 6288              	.LEHB160:
 6289 1029 E8000000 		call	_ZN8UnitTest15MemoryOutStreamD1Ev
 6289      00
 6290              	.LEHE160:
 6291 102e E96EFFFF 		jmp	.L421
 6291      FF
 6292              	.L419:
 6293 1033 E8000000 		call	__stack_chk_fail@PLT
 6293      00
 6294              	.L414:
 6295 1038 F30F1EFA 		endbr64
 6296 103c 4889C5   		movq	%rax, %rbp
 6297 103f E8000000 		call	__cxa_end_catch@PLT
 6297      00
 6298 1044 4889EF   		movq	%rbp, %rdi
 6299              	.LEHB161:
 6300 1047 E8000000 		call	_Unwind_Resume@PLT
 6300      00
 6301              	.LEHE161:
 6302              	.L411:
 6303 104c F30F1EFA 		endbr64
 6304              	.L420:
 6305 1050 4889C5   		movq	%rax, %rbp
 6306 1053 EB0F     		jmp	.L406
 6307              	.L413:
 6308 1055 F30F1EFA 		endbr64
 6309 1059 4C89E7   		movq	%r12, %rdi
 6310 105c 4889C5   		movq	%rax, %rbp
 6311 105f E8000000 		call	_ZN8UnitTest15MemoryOutStreamD1Ev
 6311      00
 6312              	.L406:
 6313 1064 E8000000 		call	__cxa_end_catch@PLT
 6313      00
 6314 1069 4889EF   		movq	%rbp, %rdi
 6315              	.LEHB162:
 6316 106c E8000000 		call	_Unwind_Resume@PLT
 6316      00
 6317              	.LEHE162:
 6318              	.L412:
 6319 1071 F30F1EFA 		endbr64
 6320 1075 EBD9     		jmp	.L420
 6321              		.cfi_endproc
 6322              	.LFE1320:
 6323              		.section	.gcc_except_table
 6324              		.align 4
 6325              	.LLSDAC1320:
 6326 04e8 FF       		.byte	0xff
 6327 04e9 9B       		.byte	0x9b
 6328 04ea 45       		.uleb128 .LLSDATTC1320-.LLSDATTDC1320
 6329              	.LLSDATTDC1320:
 6330 04eb 01       		.byte	0x1
 6331 04ec 2F       		.uleb128 .LLSDACSEC1320-.LLSDACSBC1320
 6332              	.LLSDACSBC1320:
 6333 04ed 00       		.uleb128 .LEHB154-.LCOLDB66
 6334 04ee 05       		.uleb128 .LEHE154-.LEHB154
 6335 04ef 0A       		.uleb128 .L410-.LCOLDB66
 6336 04f0 05       		.uleb128 0x5
 6337 04f1 26       		.uleb128 .LEHB155-.LCOLDB66
 6338 04f2 2D       		.uleb128 .LEHE155-.LEHB155
 6339 04f3 EE02     		.uleb128 .L414-.LCOLDB66
 6340 04f5 00       		.uleb128 0
 6341 04f6 7B       		.uleb128 .LEHB156-.LCOLDB66
 6342 04f7 05       		.uleb128 .LEHE156-.LEHB156
 6343 04f8 00       		.uleb128 0
 6344 04f9 00       		.uleb128 0
 6345 04fa 8801     		.uleb128 .LEHB157-.LCOLDB66
 6346 04fc 4F       		.uleb128 .LEHE157-.LEHB157
 6347 04fd 8203     		.uleb128 .L411-.LCOLDB66
 6348 04ff 00       		.uleb128 0
 6349 0500 9002     		.uleb128 .LEHB158-.LCOLDB66
 6350 0502 05       		.uleb128 .LEHE158-.LEHB158
 6351 0503 A703     		.uleb128 .L412-.LCOLDB66
 6352 0505 00       		.uleb128 0
 6353 0506 A402     		.uleb128 .LEHB159-.LCOLDB66
 6354 0508 38       		.uleb128 .LEHE159-.LEHB159
 6355 0509 8B03     		.uleb128 .L413-.LCOLDB66
 6356 050b 00       		.uleb128 0
 6357 050c DF02     		.uleb128 .LEHB160-.LCOLDB66
 6358 050e 05       		.uleb128 .LEHE160-.LEHB160
 6359 050f A703     		.uleb128 .L412-.LCOLDB66
 6360 0511 00       		.uleb128 0
 6361 0512 FD02     		.uleb128 .LEHB161-.LCOLDB66
 6362 0514 05       		.uleb128 .LEHE161-.LEHB161
 6363 0515 00       		.uleb128 0
 6364 0516 00       		.uleb128 0
 6365 0517 A203     		.uleb128 .LEHB162-.LCOLDB66
 6366 0519 05       		.uleb128 .LEHE162-.LEHB162
 6367 051a 00       		.uleb128 0
 6368 051b 00       		.uleb128 0
 6369              	.LLSDACSEC1320:
 6370 051c 03       		.byte	0x3
 6371 051d 00       		.byte	0
 6372 051e 02       		.byte	0x2
 6373 051f 7D       		.byte	0x7d
 6374 0520 01       		.byte	0x1
 6375 0521 7D       		.byte	0x7d
 6376 0522 00       		.byte	0
 6377 0523 7D       		.byte	0x7d
 6378              		.align 4
 6379 0524 00000000 		.long	0
 6380              	
 6381 0528 00000000 		.long	DW.ref._ZTISt9exception-.
 6382 052c 00000000 		.long	DW.ref._ZTIN8UnitTest15AssertExceptionE-.
 6383              	.LLSDATTC1320:
 6384              		.section	.text.unlikely
 6385              		.text
 6387              		.section	.text.unlikely
 6389              	.LCOLDE66:
 6390              		.text
 6391              	.LHOTE66:
 6392              		.section	.text.unlikely
 6393 1077 90       		.align 2
 6394              	.LCOLDB67:
 6395              		.text
 6396              	.LHOTB67:
 6397 0f35 90       		.align 2
 6398 0f36 662E0F1F 		.p2align 4
 6398      84000000 
 6398      0000
 6400              	_ZNK12_GLOBAL__N_132TestDummyFixtureMacroTestHelper27RunImplEv:
 6401              	.LFB1290:
 6402              		.cfi_startproc
 6403              		.cfi_personality 0x9b,DW.ref.__gxx_personality_v0
 6404              		.cfi_lsda 0x1b,.LLSDA1290
 6405 0f40 F30F1EFA 		endbr64
 6406 0f44 4157     		pushq	%r15
 6407              		.cfi_def_cfa_offset 16
 6408              		.cfi_offset 15, -16
 6409 0f46 4156     		pushq	%r14
 6410              		.cfi_def_cfa_offset 24
 6411              		.cfi_offset 14, -24
 6412 0f48 4155     		pushq	%r13
 6413              		.cfi_def_cfa_offset 32
 6414              		.cfi_offset 13, -32
 6415 0f4a 4154     		pushq	%r12
 6416              		.cfi_def_cfa_offset 40
 6417              		.cfi_offset 12, -40
 6418 0f4c 55       		pushq	%rbp
 6419              		.cfi_def_cfa_offset 48
 6420              		.cfi_offset 6, -48
 6421 0f4d 488D6F08 		leaq	8(%rdi), %rbp
 6422 0f51 53       		pushq	%rbx
 6423              		.cfi_def_cfa_offset 56
 6424              		.cfi_offset 3, -56
 6425 0f52 4889FB   		movq	%rdi, %rbx
 6426 0f55 4889EF   		movq	%rbp, %rdi
 6427 0f58 4881ECC8 		subq	$456, %rsp
 6427      010000
 6428              		.cfi_def_cfa_offset 512
 6429 0f5f 64488B04 		movq	%fs:40, %rax
 6429      25280000 
 6429      00
 6430 0f68 48898424 		movq	%rax, 440(%rsp)
 6430      B8010000 
 6431 0f70 31C0     		xorl	%eax, %eax
 6432              	.LEHB163:
 6433 0f72 E8C9FDFF 		call	_ZN8UnitTest11ExecuteTestIN12_GLOBAL__N_115SuiteTestSuite165DummyFixtureSimilarlyNamedFixture
 6433      FF
 6434              	.LEHE163:
 6435 0f77 488B8424 		movq	440(%rsp), %rax
 6435      B8010000 
 6436 0f7f 64482B04 		subq	%fs:40, %rax
 6436      25280000 
 6436      00
 6437 0f88 7512     		jne	.L448
 6438 0f8a 4881C4C8 		addq	$456, %rsp
 6438      010000
 6439              		.cfi_remember_state
 6440              		.cfi_def_cfa_offset 56
 6441 0f91 5B       		popq	%rbx
 6442              		.cfi_def_cfa_offset 48
 6443 0f92 5D       		popq	%rbp
 6444              		.cfi_def_cfa_offset 40
 6445 0f93 415C     		popq	%r12
 6446              		.cfi_def_cfa_offset 32
 6447 0f95 415D     		popq	%r13
 6448              		.cfi_def_cfa_offset 24
 6449 0f97 415E     		popq	%r14
 6450              		.cfi_def_cfa_offset 16
 6451 0f99 415F     		popq	%r15
 6452              		.cfi_def_cfa_offset 8
 6453 0f9b C3       		ret
 6454              	.L448:
 6455              		.cfi_restore_state
 6456 0f9c E8000000 		call	__stack_chk_fail@PLT
 6456      00
 6457              	.L436:
 6458 0fa1 F30F1EFA 		endbr64
 6459 0fa5 4889C7   		movq	%rax, %rdi
 6460 0fa8 E9000000 		jmp	.L424
 6460      00
 6461              		.section	.gcc_except_table
 6462              		.align 4
 6463              	.LLSDA1290:
 6464 0530 FF       		.byte	0xff
 6465 0531 9B       		.byte	0x9b
 6466 0532 19       		.uleb128 .LLSDATT1290-.LLSDATTD1290
 6467              	.LLSDATTD1290:
 6468 0533 01       		.byte	0x1
 6469 0534 04       		.uleb128 .LLSDACSE1290-.LLSDACSB1290
 6470              	.LLSDACSB1290:
 6471 0535 32       		.uleb128 .LEHB163-.LFB1290
 6472 0536 05       		.uleb128 .LEHE163-.LEHB163
 6473 0537 61       		.uleb128 .L436-.LFB1290
 6474 0538 05       		.uleb128 0x5
 6475              	.LLSDACSE1290:
 6476 0539 03       		.byte	0x3
 6477 053a 00       		.byte	0
 6478 053b 02       		.byte	0x2
 6479 053c 7D       		.byte	0x7d
 6480 053d 01       		.byte	0x1
 6481 053e 7D       		.byte	0x7d
 6482 053f 00       		.align 4
 6483 0540 00000000 		.long	0
 6484              	
 6485 0544 00000000 		.long	DW.ref._ZTISt9exception-.
 6486 0548 00000000 		.long	DW.ref._ZTIN8UnitTest15AssertExceptionE-.
 6487              	.LLSDATT1290:
 6488              		.text
 6489              		.cfi_endproc
 6490              		.section	.text.unlikely
 6491              		.cfi_startproc
 6492              		.cfi_personality 0x9b,DW.ref.__gxx_personality_v0
 6493              		.cfi_lsda 0x1b,.LLSDAC1290
 6495              	_ZNK12_GLOBAL__N_132TestDummyFixtureMacroTestHelper27RunImplEv.cold:
 6496              	.LFSB1290:
 6497              	.L424:
 6498              		.cfi_def_cfa_offset 512
 6499              		.cfi_offset 3, -56
 6500              		.cfi_offset 6, -48
 6501              		.cfi_offset 12, -40
 6502              		.cfi_offset 13, -32
 6503              		.cfi_offset 14, -24
 6504              		.cfi_offset 15, -16
 6505 1078 4883FA01 		cmpq	$1, %rdx
 6506 107c 7469     		je	.L425
 6507 107e 4883FA02 		cmpq	$2, %rdx
 6508 1082 0F84DF00 		je	.L449
 6508      0000
 6509 1088 E8000000 		call	__cxa_begin_catch@PLT
 6509      00
 6510              	.LEHB164:
 6511 108d E8000000 		call	_ZN8UnitTest11CurrentTest7ResultsEv@PLT
 6511      00
 6512 1092 4989E4   		movq	%rsp, %r12
 6513 1095 BA600000 		movl	$96, %edx
 6513      00
 6514 109a 4889EE   		movq	%rbp, %rsi
 6515 109d 4C8B28   		movq	(%rax), %r13
 6516 10a0 4C89E7   		movq	%r12, %rdi
 6517 10a3 E8000000 		call	_ZN8UnitTest11TestDetailsC1ERKS0_i@PLT
 6517      00
 6518 10a8 488D1500 		leaq	.LC58(%rip), %rdx
 6518      000000
 6519 10af 4C89E6   		movq	%r12, %rsi
 6520 10b2 4C89EF   		movq	%r13, %rdi
 6521 10b5 E8000000 		call	_ZN8UnitTest11TestResults13OnTestFailureERKNS_11TestDetailsEPKc@PLT
 6521      00
 6522              	.LEHE164:
 6523 10ba 488B8424 		movq	440(%rsp), %rax
 6523      B8010000 
 6524 10c2 64482B04 		subq	%fs:40, %rax
 6524      25280000 
 6524      00
 6525 10cb 0F85FF00 		jne	.L445
 6525      0000
 6526 10d1 4881C4C8 		addq	$456, %rsp
 6526      010000
 6527              		.cfi_remember_state
 6528              		.cfi_def_cfa_offset 56
 6529 10d8 5B       		popq	%rbx
 6530              		.cfi_def_cfa_offset 48
 6531 10d9 5D       		popq	%rbp
 6532              		.cfi_def_cfa_offset 40
 6533 10da 415C     		popq	%r12
 6534              		.cfi_def_cfa_offset 32
 6535 10dc 415D     		popq	%r13
 6536              		.cfi_def_cfa_offset 24
 6537 10de 415E     		popq	%r14
 6538              		.cfi_def_cfa_offset 16
 6539 10e0 415F     		popq	%r15
 6540              		.cfi_def_cfa_offset 8
 6541              	.LEHB165:
 6542 10e2 E9000000 		jmp	__cxa_end_catch@PLT
 6542      00
 6543              	.LEHE165:
 6544              	.L425:
 6545              		.cfi_restore_state
 6546 10e7 E8000000 		call	__cxa_begin_catch@PLT
 6546      00
 6547 10ec 4889C5   		movq	%rax, %rbp
 6548              	.LEHB166:
 6549 10ef E8000000 		call	_ZN8UnitTest11CurrentTest7ResultsEv@PLT
 6549      00
 6550 10f4 4C8B38   		movq	(%rax), %r15
 6551 10f7 488B4500 		movq	0(%rbp), %rax
 6552 10fb 4889EF   		movq	%rbp, %rdi
 6553 10fe FF5010   		call	*16(%rax)
 6554 1101 4889EF   		movq	%rbp, %rdi
 6555 1104 4989C5   		movq	%rax, %r13
 6556 1107 E8000000 		call	_ZNK8UnitTest15AssertException10LineNumberEv@PLT
 6556      00
 6557 110c 4889EF   		movq	%rbp, %rdi
 6558 110f 4189C6   		movl	%eax, %r14d
 6559 1112 E8000000 		call	_ZNK8UnitTest15AssertException8FilenameEv@PLT
 6559      00
 6560 1117 4989E4   		movq	%rsp, %r12
 6561 111a 488B5308 		movq	8(%rbx), %rdx
 6562 111e 488B7310 		movq	16(%rbx), %rsi
 6563 1122 4889C1   		movq	%rax, %rcx
 6564 1125 4589F0   		movl	%r14d, %r8d
 6565 1128 4C89E7   		movq	%r12, %rdi
 6566 112b E8000000 		call	_ZN8UnitTest11TestDetailsC1EPKcS2_S2_i@PLT
 6566      00
 6567 1130 4C89EA   		movq	%r13, %rdx
 6568 1133 4C89E6   		movq	%r12, %rsi
 6569 1136 4C89FF   		movq	%r15, %rdi
 6570 1139 E8000000 		call	_ZN8UnitTest11TestResults13OnTestFailureERKNS_11TestDetailsEPKc@PLT
 6570      00
 6571              	.LEHE166:
 6572              	.L447:
 6573 113e 488B8424 		movq	440(%rsp), %rax
 6573      B8010000 
 6574 1146 64482B04 		subq	%fs:40, %rax
 6574      25280000 
 6574      00
 6575 114f 757F     		jne	.L445
 6576 1151 4881C4C8 		addq	$456, %rsp
 6576      010000
 6577              		.cfi_remember_state
 6578              		.cfi_def_cfa_offset 56
 6579 1158 5B       		popq	%rbx
 6580              		.cfi_def_cfa_offset 48
 6581 1159 5D       		popq	%rbp
 6582              		.cfi_def_cfa_offset 40
 6583 115a 415C     		popq	%r12
 6584              		.cfi_def_cfa_offset 32
 6585 115c 415D     		popq	%r13
 6586              		.cfi_def_cfa_offset 24
 6587 115e 415E     		popq	%r14
 6588              		.cfi_def_cfa_offset 16
 6589 1160 415F     		popq	%r15
 6590              		.cfi_def_cfa_offset 8
 6591 1162 E9000000 		jmp	__cxa_end_catch@PLT
 6591      00
 6592              	.L449:
 6593              		.cfi_restore_state
 6594 1167 E8000000 		call	__cxa_begin_catch@PLT
 6594      00
 6595 116c 4C8D6424 		leaq	32(%rsp), %r12
 6595      20
 6596 1171 4C89E7   		movq	%r12, %rdi
 6597 1174 4989C5   		movq	%rax, %r13
 6598              	.LEHB167:
 6599 1177 E8000000 		call	_ZN8UnitTest15MemoryOutStreamC1Ev
 6599      00
 6600              	.LEHE167:
 6601 117c BA150000 		movl	$21, %edx
 6601      00
 6602 1181 488D3500 		leaq	.LC51(%rip), %rsi
 6602      000000
 6603 1188 4C89E7   		movq	%r12, %rdi
 6604              	.LEHB168:
 6605 118b E8000000 		call	_ZSt16__ostream_insertIcSt11char_traitsIcEERSt13basic_ostreamIT_T0_ES6_PKS3_l@PLT
 6605      00
 6606 1190 498B4500 		movq	0(%r13), %rax
 6607 1194 4C89EF   		movq	%r13, %rdi
 6608 1197 FF5010   		call	*16(%rax)
 6609 119a 4C89E7   		movq	%r12, %rdi
 6610 119d 4889C6   		movq	%rax, %rsi
 6611 11a0 E8000000 		call	_ZStlsISt11char_traitsIcEERSt13basic_ostreamIcT_ES5_PKc@PLT
 6611      00
 6612 11a5 E8000000 		call	_ZN8UnitTest11CurrentTest7ResultsEv@PLT
 6612      00
 6613 11aa 4C89E7   		movq	%r12, %rdi
 6614 11ad 4C8B28   		movq	(%rax), %r13
 6615 11b0 E8000000 		call	_ZNK8UnitTest15MemoryOutStream7GetTextEv@PLT
 6615      00
 6616 11b5 4889C2   		movq	%rax, %rdx
 6617 11b8 4889EE   		movq	%rbp, %rsi
 6618 11bb 4C89EF   		movq	%r13, %rdi
 6619 11be E8000000 		call	_ZN8UnitTest11TestResults13OnTestFailureERKNS_11TestDetailsEPKc@PLT
 6619      00
 6620              	.LEHE168:
 6621 11c3 4C89E7   		movq	%r12, %rdi
 6622              	.LEHB169:
 6623 11c6 E8000000 		call	_ZN8UnitTest15MemoryOutStreamD1Ev
 6623      00
 6624              	.LEHE169:
 6625 11cb E96EFFFF 		jmp	.L447
 6625      FF
 6626              	.L445:
 6627 11d0 E8000000 		call	__stack_chk_fail@PLT
 6627      00
 6628              	.L440:
 6629 11d5 F30F1EFA 		endbr64
 6630 11d9 4889C5   		movq	%rax, %rbp
 6631 11dc E8000000 		call	__cxa_end_catch@PLT
 6631      00
 6632 11e1 4889EF   		movq	%rbp, %rdi
 6633              	.LEHB170:
 6634 11e4 E8000000 		call	_Unwind_Resume@PLT
 6634      00
 6635              	.LEHE170:
 6636              	.L437:
 6637 11e9 F30F1EFA 		endbr64
 6638              	.L446:
 6639 11ed 4889C5   		movq	%rax, %rbp
 6640 11f0 EB0F     		jmp	.L433
 6641              	.L439:
 6642 11f2 F30F1EFA 		endbr64
 6643 11f6 4C89E7   		movq	%r12, %rdi
 6644 11f9 4889C5   		movq	%rax, %rbp
 6645 11fc E8000000 		call	_ZN8UnitTest15MemoryOutStreamD1Ev
 6645      00
 6646              	.L433:
 6647 1201 E8000000 		call	__cxa_end_catch@PLT
 6647      00
 6648 1206 4889EF   		movq	%rbp, %rdi
 6649              	.LEHB171:
 6650 1209 E8000000 		call	_Unwind_Resume@PLT
 6650      00
 6651              	.LEHE171:
 6652              	.L438:
 6653 120e F30F1EFA 		endbr64
 6654 1212 EBD9     		jmp	.L446
 6655              		.cfi_endproc
 6656              	.LFE1290:
 6657              		.section	.gcc_except_table
 6658              		.align 4
 6659              	.LLSDAC1290:
 6660 054c FF       		.byte	0xff
 6661 054d 9B       		.byte	0x9b
 6662 054e 41       		.uleb128 .LLSDATTC1290-.LLSDATTDC1290
 6663              	.LLSDATTDC1290:
 6664 054f 01       		.byte	0x1
 6665 0550 2A       		.uleb128 .LLSDACSEC1290-.LLSDACSBC1290
 6666              	.LLSDACSBC1290:
 6667 0551 15       		.uleb128 .LEHB164-.LCOLDB67
 6668 0552 2D       		.uleb128 .LEHE164-.LEHB164
 6669 0553 DD02     		.uleb128 .L440-.LCOLDB67
 6670 0555 00       		.uleb128 0
 6671 0556 6A       		.uleb128 .LEHB165-.LCOLDB67
 6672 0557 05       		.uleb128 .LEHE165-.LEHB165
 6673 0558 00       		.uleb128 0
 6674 0559 00       		.uleb128 0
 6675 055a 77       		.uleb128 .LEHB166-.LCOLDB67
 6676 055b 4F       		.uleb128 .LEHE166-.LEHB166
 6677 055c F102     		.uleb128 .L437-.LCOLDB67
 6678 055e 00       		.uleb128 0
 6679 055f FF01     		.uleb128 .LEHB167-.LCOLDB67
 6680 0561 05       		.uleb128 .LEHE167-.LEHB167
 6681 0562 9603     		.uleb128 .L438-.LCOLDB67
 6682 0564 00       		.uleb128 0
 6683 0565 9302     		.uleb128 .LEHB168-.LCOLDB67
 6684 0567 38       		.uleb128 .LEHE168-.LEHB168
 6685 0568 FA02     		.uleb128 .L439-.LCOLDB67
 6686 056a 00       		.uleb128 0
 6687 056b CE02     		.uleb128 .LEHB169-.LCOLDB67
 6688 056d 05       		.uleb128 .LEHE169-.LEHB169
 6689 056e 9603     		.uleb128 .L438-.LCOLDB67
 6690 0570 00       		.uleb128 0
 6691 0571 EC02     		.uleb128 .LEHB170-.LCOLDB67
 6692 0573 05       		.uleb128 .LEHE170-.LEHB170
 6693 0574 00       		.uleb128 0
 6694 0575 00       		.uleb128 0
 6695 0576 9103     		.uleb128 .LEHB171-.LCOLDB67
 6696 0578 05       		.uleb128 .LEHE171-.LEHB171
 6697 0579 00       		.uleb128 0
 6698 057a 00       		.uleb128 0
 6699              	.LLSDACSEC1290:
 6700 057b 03       		.byte	0x3
 6701 057c 00       		.byte	0
 6702 057d 02       		.byte	0x2
 6703 057e 7D       		.byte	0x7d
 6704 057f 01       		.byte	0x1
 6705 0580 7D       		.byte	0x7d
 6706 0581 000000   		.align 4
 6707 0584 00000000 		.long	0
 6708              	
 6709 0588 00000000 		.long	DW.ref._ZTISt9exception-.
 6710 058c 00000000 		.long	DW.ref._ZTIN8UnitTest15AssertExceptionE-.
 6711              	.LLSDATTC1290:
 6712              		.section	.text.unlikely
 6713              		.text
 6715              		.section	.text.unlikely
 6717              	.LCOLDE67:
 6718              		.text
 6719              	.LHOTE67:
 6720              		.section	.text.unlikely
 6721              		.align 2
 6722              	.LCOLDB68:
 6723              		.text
 6724              	.LHOTB68:
 6725 0fad 90       		.align 2
 6726 0fae 6690     		.p2align 4
 6728              	_ZNK12_GLOBAL__N_115SuiteTestSuite263TestDummyFixtureSimilarlyNamedFixtureTestsInDifferentSuitesWor
 6729              	.LFB1274:
 6730              		.cfi_startproc
 6731              		.cfi_personality 0x9b,DW.ref.__gxx_personality_v0
 6732              		.cfi_lsda 0x1b,.LLSDA1274
 6733 0fb0 F30F1EFA 		endbr64
 6734 0fb4 4157     		pushq	%r15
 6735              		.cfi_def_cfa_offset 16
 6736              		.cfi_offset 15, -16
 6737 0fb6 4156     		pushq	%r14
 6738              		.cfi_def_cfa_offset 24
 6739              		.cfi_offset 14, -24
 6740 0fb8 4155     		pushq	%r13
 6741              		.cfi_def_cfa_offset 32
 6742              		.cfi_offset 13, -32
 6743 0fba 4154     		pushq	%r12
 6744              		.cfi_def_cfa_offset 40
 6745              		.cfi_offset 12, -40
 6746 0fbc 55       		pushq	%rbp
 6747              		.cfi_def_cfa_offset 48
 6748              		.cfi_offset 6, -48
 6749 0fbd 488D6F08 		leaq	8(%rdi), %rbp
 6750 0fc1 53       		pushq	%rbx
 6751              		.cfi_def_cfa_offset 56
 6752              		.cfi_offset 3, -56
 6753 0fc2 4889FB   		movq	%rdi, %rbx
 6754 0fc5 4889EF   		movq	%rbp, %rdi
 6755 0fc8 4881ECC8 		subq	$456, %rsp
 6755      010000
 6756              		.cfi_def_cfa_offset 512
 6757 0fcf 64488B04 		movq	%fs:40, %rax
 6757      25280000 
 6757      00
 6758 0fd8 48898424 		movq	%rax, 440(%rsp)
 6758      B8010000 
 6759 0fe0 31C0     		xorl	%eax, %eax
 6760              	.LEHB172:
 6761 0fe2 E859FDFF 		call	_ZN8UnitTest11ExecuteTestIN12_GLOBAL__N_115SuiteTestSuite165DummyFixtureSimilarlyNamedFixture
 6761      FF
 6762              	.LEHE172:
 6763 0fe7 488B8424 		movq	440(%rsp), %rax
 6763      B8010000 
 6764 0fef 64482B04 		subq	%fs:40, %rax
 6764      25280000 
 6764      00
 6765 0ff8 7512     		jne	.L475
 6766 0ffa 4881C4C8 		addq	$456, %rsp
 6766      010000
 6767              		.cfi_remember_state
 6768              		.cfi_def_cfa_offset 56
 6769 1001 5B       		popq	%rbx
 6770              		.cfi_def_cfa_offset 48
 6771 1002 5D       		popq	%rbp
 6772              		.cfi_def_cfa_offset 40
 6773 1003 415C     		popq	%r12
 6774              		.cfi_def_cfa_offset 32
 6775 1005 415D     		popq	%r13
 6776              		.cfi_def_cfa_offset 24
 6777 1007 415E     		popq	%r14
 6778              		.cfi_def_cfa_offset 16
 6779 1009 415F     		popq	%r15
 6780              		.cfi_def_cfa_offset 8
 6781 100b C3       		ret
 6782              	.L475:
 6783              		.cfi_restore_state
 6784 100c E8000000 		call	__stack_chk_fail@PLT
 6784      00
 6785              	.L463:
 6786 1011 F30F1EFA 		endbr64
 6787 1015 4889C7   		movq	%rax, %rdi
 6788 1018 E9000000 		jmp	.L451
 6788      00
 6789              		.section	.gcc_except_table
 6790              		.align 4
 6791              	.LLSDA1274:
 6792 0590 FF       		.byte	0xff
 6793 0591 9B       		.byte	0x9b
 6794 0592 19       		.uleb128 .LLSDATT1274-.LLSDATTD1274
 6795              	.LLSDATTD1274:
 6796 0593 01       		.byte	0x1
 6797 0594 04       		.uleb128 .LLSDACSE1274-.LLSDACSB1274
 6798              	.LLSDACSB1274:
 6799 0595 32       		.uleb128 .LEHB172-.LFB1274
 6800 0596 05       		.uleb128 .LEHE172-.LEHB172
 6801 0597 61       		.uleb128 .L463-.LFB1274
 6802 0598 05       		.uleb128 0x5
 6803              	.LLSDACSE1274:
 6804 0599 03       		.byte	0x3
 6805 059a 00       		.byte	0
 6806 059b 02       		.byte	0x2
 6807 059c 7D       		.byte	0x7d
 6808 059d 01       		.byte	0x1
 6809 059e 7D       		.byte	0x7d
 6810 059f 00       		.align 4
 6811 05a0 00000000 		.long	0
 6812              	
 6813 05a4 00000000 		.long	DW.ref._ZTISt9exception-.
 6814 05a8 00000000 		.long	DW.ref._ZTIN8UnitTest15AssertExceptionE-.
 6815              	.LLSDATT1274:
 6816              		.text
 6817              		.cfi_endproc
 6818              		.section	.text.unlikely
 6819              		.cfi_startproc
 6820              		.cfi_personality 0x9b,DW.ref.__gxx_personality_v0
 6821              		.cfi_lsda 0x1b,.LLSDAC1274
 6823              	_ZNK12_GLOBAL__N_115SuiteTestSuite263TestDummyFixtureSimilarlyNamedFixtureTestsInDifferentSuitesWor
 6824              	.LFSB1274:
 6825              	.L451:
 6826              		.cfi_def_cfa_offset 512
 6827              		.cfi_offset 3, -56
 6828              		.cfi_offset 6, -48
 6829              		.cfi_offset 12, -40
 6830              		.cfi_offset 13, -32
 6831              		.cfi_offset 14, -24
 6832              		.cfi_offset 15, -16
 6833 1214 4883FA01 		cmpq	$1, %rdx
 6834 1218 7469     		je	.L452
 6835 121a 4883FA02 		cmpq	$2, %rdx
 6836 121e 0F84DF00 		je	.L476
 6836      0000
 6837 1224 E8000000 		call	__cxa_begin_catch@PLT
 6837      00
 6838              	.LEHB173:
 6839 1229 E8000000 		call	_ZN8UnitTest11CurrentTest7ResultsEv@PLT
 6839      00
 6840 122e 4989E4   		movq	%rsp, %r12
 6841 1231 BA4E0000 		movl	$78, %edx
 6841      00
 6842 1236 4889EE   		movq	%rbp, %rsi
 6843 1239 4C8B28   		movq	(%rax), %r13
 6844 123c 4C89E7   		movq	%r12, %rdi
 6845 123f E8000000 		call	_ZN8UnitTest11TestDetailsC1ERKS0_i@PLT
 6845      00
 6846 1244 488D1500 		leaq	.LC58(%rip), %rdx
 6846      000000
 6847 124b 4C89E6   		movq	%r12, %rsi
 6848 124e 4C89EF   		movq	%r13, %rdi
 6849 1251 E8000000 		call	_ZN8UnitTest11TestResults13OnTestFailureERKNS_11TestDetailsEPKc@PLT
 6849      00
 6850              	.LEHE173:
 6851 1256 488B8424 		movq	440(%rsp), %rax
 6851      B8010000 
 6852 125e 64482B04 		subq	%fs:40, %rax
 6852      25280000 
 6852      00
 6853 1267 0F85FF00 		jne	.L472
 6853      0000
 6854 126d 4881C4C8 		addq	$456, %rsp
 6854      010000
 6855              		.cfi_remember_state
 6856              		.cfi_def_cfa_offset 56
 6857 1274 5B       		popq	%rbx
 6858              		.cfi_def_cfa_offset 48
 6859 1275 5D       		popq	%rbp
 6860              		.cfi_def_cfa_offset 40
 6861 1276 415C     		popq	%r12
 6862              		.cfi_def_cfa_offset 32
 6863 1278 415D     		popq	%r13
 6864              		.cfi_def_cfa_offset 24
 6865 127a 415E     		popq	%r14
 6866              		.cfi_def_cfa_offset 16
 6867 127c 415F     		popq	%r15
 6868              		.cfi_def_cfa_offset 8
 6869              	.LEHB174:
 6870 127e E9000000 		jmp	__cxa_end_catch@PLT
 6870      00
 6871              	.LEHE174:
 6872              	.L452:
 6873              		.cfi_restore_state
 6874 1283 E8000000 		call	__cxa_begin_catch@PLT
 6874      00
 6875 1288 4889C5   		movq	%rax, %rbp
 6876              	.LEHB175:
 6877 128b E8000000 		call	_ZN8UnitTest11CurrentTest7ResultsEv@PLT
 6877      00
 6878 1290 4C8B38   		movq	(%rax), %r15
 6879 1293 488B4500 		movq	0(%rbp), %rax
 6880 1297 4889EF   		movq	%rbp, %rdi
 6881 129a FF5010   		call	*16(%rax)
 6882 129d 4889EF   		movq	%rbp, %rdi
 6883 12a0 4989C5   		movq	%rax, %r13
 6884 12a3 E8000000 		call	_ZNK8UnitTest15AssertException10LineNumberEv@PLT
 6884      00
 6885 12a8 4889EF   		movq	%rbp, %rdi
 6886 12ab 4189C6   		movl	%eax, %r14d
 6887 12ae E8000000 		call	_ZNK8UnitTest15AssertException8FilenameEv@PLT
 6887      00
 6888 12b3 4989E4   		movq	%rsp, %r12
 6889 12b6 488B5308 		movq	8(%rbx), %rdx
 6890 12ba 488B7310 		movq	16(%rbx), %rsi
 6891 12be 4889C1   		movq	%rax, %rcx
 6892 12c1 4589F0   		movl	%r14d, %r8d
 6893 12c4 4C89E7   		movq	%r12, %rdi
 6894 12c7 E8000000 		call	_ZN8UnitTest11TestDetailsC1EPKcS2_S2_i@PLT
 6894      00
 6895 12cc 4C89EA   		movq	%r13, %rdx
 6896 12cf 4C89E6   		movq	%r12, %rsi
 6897 12d2 4C89FF   		movq	%r15, %rdi
 6898 12d5 E8000000 		call	_ZN8UnitTest11TestResults13OnTestFailureERKNS_11TestDetailsEPKc@PLT
 6898      00
 6899              	.LEHE175:
 6900              	.L474:
 6901 12da 488B8424 		movq	440(%rsp), %rax
 6901      B8010000 
 6902 12e2 64482B04 		subq	%fs:40, %rax
 6902      25280000 
 6902      00
 6903 12eb 757F     		jne	.L472
 6904 12ed 4881C4C8 		addq	$456, %rsp
 6904      010000
 6905              		.cfi_remember_state
 6906              		.cfi_def_cfa_offset 56
 6907 12f4 5B       		popq	%rbx
 6908              		.cfi_def_cfa_offset 48
 6909 12f5 5D       		popq	%rbp
 6910              		.cfi_def_cfa_offset 40
 6911 12f6 415C     		popq	%r12
 6912              		.cfi_def_cfa_offset 32
 6913 12f8 415D     		popq	%r13
 6914              		.cfi_def_cfa_offset 24
 6915 12fa 415E     		popq	%r14
 6916              		.cfi_def_cfa_offset 16
 6917 12fc 415F     		popq	%r15
 6918              		.cfi_def_cfa_offset 8
 6919 12fe E9000000 		jmp	__cxa_end_catch@PLT
 6919      00
 6920              	.L476:
 6921              		.cfi_restore_state
 6922 1303 E8000000 		call	__cxa_begin_catch@PLT
 6922      00
 6923 1308 4C8D6424 		leaq	32(%rsp), %r12
 6923      20
 6924 130d 4C89E7   		movq	%r12, %rdi
 6925 1310 4989C5   		movq	%rax, %r13
 6926              	.LEHB176:
 6927 1313 E8000000 		call	_ZN8UnitTest15MemoryOutStreamC1Ev
 6927      00
 6928              	.LEHE176:
 6929 1318 BA150000 		movl	$21, %edx
 6929      00
 6930 131d 488D3500 		leaq	.LC51(%rip), %rsi
 6930      000000
 6931 1324 4C89E7   		movq	%r12, %rdi
 6932              	.LEHB177:
 6933 1327 E8000000 		call	_ZSt16__ostream_insertIcSt11char_traitsIcEERSt13basic_ostreamIT_T0_ES6_PKS3_l@PLT
 6933      00
 6934 132c 498B4500 		movq	0(%r13), %rax
 6935 1330 4C89EF   		movq	%r13, %rdi
 6936 1333 FF5010   		call	*16(%rax)
 6937 1336 4C89E7   		movq	%r12, %rdi
 6938 1339 4889C6   		movq	%rax, %rsi
 6939 133c E8000000 		call	_ZStlsISt11char_traitsIcEERSt13basic_ostreamIcT_ES5_PKc@PLT
 6939      00
 6940 1341 E8000000 		call	_ZN8UnitTest11CurrentTest7ResultsEv@PLT
 6940      00
 6941 1346 4C89E7   		movq	%r12, %rdi
 6942 1349 4C8B28   		movq	(%rax), %r13
 6943 134c E8000000 		call	_ZNK8UnitTest15MemoryOutStream7GetTextEv@PLT
 6943      00
 6944 1351 4889C2   		movq	%rax, %rdx
 6945 1354 4889EE   		movq	%rbp, %rsi
 6946 1357 4C89EF   		movq	%r13, %rdi
 6947 135a E8000000 		call	_ZN8UnitTest11TestResults13OnTestFailureERKNS_11TestDetailsEPKc@PLT
 6947      00
 6948              	.LEHE177:
 6949 135f 4C89E7   		movq	%r12, %rdi
 6950              	.LEHB178:
 6951 1362 E8000000 		call	_ZN8UnitTest15MemoryOutStreamD1Ev
 6951      00
 6952              	.LEHE178:
 6953 1367 E96EFFFF 		jmp	.L474
 6953      FF
 6954              	.L472:
 6955 136c E8000000 		call	__stack_chk_fail@PLT
 6955      00
 6956              	.L467:
 6957 1371 F30F1EFA 		endbr64
 6958 1375 4889C5   		movq	%rax, %rbp
 6959 1378 E8000000 		call	__cxa_end_catch@PLT
 6959      00
 6960 137d 4889EF   		movq	%rbp, %rdi
 6961              	.LEHB179:
 6962 1380 E8000000 		call	_Unwind_Resume@PLT
 6962      00
 6963              	.LEHE179:
 6964              	.L464:
 6965 1385 F30F1EFA 		endbr64
 6966              	.L473:
 6967 1389 4889C5   		movq	%rax, %rbp
 6968 138c EB0F     		jmp	.L460
 6969              	.L466:
 6970 138e F30F1EFA 		endbr64
 6971 1392 4C89E7   		movq	%r12, %rdi
 6972 1395 4889C5   		movq	%rax, %rbp
 6973 1398 E8000000 		call	_ZN8UnitTest15MemoryOutStreamD1Ev
 6973      00
 6974              	.L460:
 6975 139d E8000000 		call	__cxa_end_catch@PLT
 6975      00
 6976 13a2 4889EF   		movq	%rbp, %rdi
 6977              	.LEHB180:
 6978 13a5 E8000000 		call	_Unwind_Resume@PLT
 6978      00
 6979              	.LEHE180:
 6980              	.L465:
 6981 13aa F30F1EFA 		endbr64
 6982 13ae EBD9     		jmp	.L473
 6983              		.cfi_endproc
 6984              	.LFE1274:
 6985              		.section	.gcc_except_table
 6986              		.align 4
 6987              	.LLSDAC1274:
 6988 05ac FF       		.byte	0xff
 6989 05ad 9B       		.byte	0x9b
 6990 05ae 41       		.uleb128 .LLSDATTC1274-.LLSDATTDC1274
 6991              	.LLSDATTDC1274:
 6992 05af 01       		.byte	0x1
 6993 05b0 2A       		.uleb128 .LLSDACSEC1274-.LLSDACSBC1274
 6994              	.LLSDACSBC1274:
 6995 05b1 15       		.uleb128 .LEHB173-.LCOLDB68
 6996 05b2 2D       		.uleb128 .LEHE173-.LEHB173
 6997 05b3 DD02     		.uleb128 .L467-.LCOLDB68
 6998 05b5 00       		.uleb128 0
 6999 05b6 6A       		.uleb128 .LEHB174-.LCOLDB68
 7000 05b7 05       		.uleb128 .LEHE174-.LEHB174
 7001 05b8 00       		.uleb128 0
 7002 05b9 00       		.uleb128 0
 7003 05ba 77       		.uleb128 .LEHB175-.LCOLDB68
 7004 05bb 4F       		.uleb128 .LEHE175-.LEHB175
 7005 05bc F102     		.uleb128 .L464-.LCOLDB68
 7006 05be 00       		.uleb128 0
 7007 05bf FF01     		.uleb128 .LEHB176-.LCOLDB68
 7008 05c1 05       		.uleb128 .LEHE176-.LEHB176
 7009 05c2 9603     		.uleb128 .L465-.LCOLDB68
 7010 05c4 00       		.uleb128 0
 7011 05c5 9302     		.uleb128 .LEHB177-.LCOLDB68
 7012 05c7 38       		.uleb128 .LEHE177-.LEHB177
 7013 05c8 FA02     		.uleb128 .L466-.LCOLDB68
 7014 05ca 00       		.uleb128 0
 7015 05cb CE02     		.uleb128 .LEHB178-.LCOLDB68
 7016 05cd 05       		.uleb128 .LEHE178-.LEHB178
 7017 05ce 9603     		.uleb128 .L465-.LCOLDB68
 7018 05d0 00       		.uleb128 0
 7019 05d1 EC02     		.uleb128 .LEHB179-.LCOLDB68
 7020 05d3 05       		.uleb128 .LEHE179-.LEHB179
 7021 05d4 00       		.uleb128 0
 7022 05d5 00       		.uleb128 0
 7023 05d6 9103     		.uleb128 .LEHB180-.LCOLDB68
 7024 05d8 05       		.uleb128 .LEHE180-.LEHB180
 7025 05d9 00       		.uleb128 0
 7026 05da 00       		.uleb128 0
 7027              	.LLSDACSEC1274:
 7028 05db 03       		.byte	0x3
 7029 05dc 00       		.byte	0
 7030 05dd 02       		.byte	0x2
 7031 05de 7D       		.byte	0x7d
 7032 05df 01       		.byte	0x1
 7033 05e0 7D       		.byte	0x7d
 7034 05e1 000000   		.align 4
 7035 05e4 00000000 		.long	0
 7036              	
 7037 05e8 00000000 		.long	DW.ref._ZTISt9exception-.
 7038 05ec 00000000 		.long	DW.ref._ZTIN8UnitTest15AssertExceptionE-.
 7039              	.LLSDATTC1274:
 7040              		.section	.text.unlikely
 7041              		.text
 7043              		.section	.text.unlikely
 7045              	.LCOLDE68:
 7046              		.text
 7047              	.LHOTE68:
 7048              		.section	.text._ZNSt7__cxx1115basic_stringbufIcSt11char_traitsIcESaIcEED0Ev,"axG",@progbits,_ZNSt7
 7049              		.align 2
 7050              		.p2align 4
 7051              		.weak	_ZNSt7__cxx1115basic_stringbufIcSt11char_traitsIcESaIcEED0Ev
 7053              	_ZNSt7__cxx1115basic_stringbufIcSt11char_traitsIcESaIcEED0Ev:
 7054              	.LFB1364:
 7055              		.cfi_startproc
 7056 0000 F30F1EFA 		endbr64
 7057 0004 488D0500 		leaq	16+_ZTVNSt7__cxx1115basic_stringbufIcSt11char_traitsIcESaIcEEE(%rip), %rax
 7057      000000
 7058 000b 55       		pushq	%rbp
 7059              		.cfi_def_cfa_offset 16
 7060              		.cfi_offset 6, -16
 7061 000c 4889FD   		movq	%rdi, %rbp
 7062 000f 488907   		movq	%rax, (%rdi)
 7063 0012 488B7F48 		movq	72(%rdi), %rdi
 7064 0016 488D4558 		leaq	88(%rbp), %rax
 7065 001a 4839C7   		cmpq	%rax, %rdi
 7066 001d 7405     		je	.L478
 7067 001f E8000000 		call	_ZdlPv@PLT
 7067      00
 7068              	.L478:
 7069 0024 488D0500 		leaq	16+_ZTVSt15basic_streambufIcSt11char_traitsIcEE(%rip), %rax
 7069      000000
 7070 002b 488D7D38 		leaq	56(%rbp), %rdi
 7071 002f 48894500 		movq	%rax, 0(%rbp)
 7072 0033 E8000000 		call	_ZNSt6localeD1Ev@PLT
 7072      00
 7073 0038 4889EF   		movq	%rbp, %rdi
 7074 003b 5D       		popq	%rbp
 7075              		.cfi_def_cfa_offset 8
 7076 003c E9000000 		jmp	_ZdlPv@PLT
 7076      00
 7077              		.cfi_endproc
 7078              	.LFE1364:
 7080              		.section	.rodata._ZN8UnitTest10CheckEqualIiiEEvRNS_11TestResultsERKT_RKT0_RKNS_11TestDetailsE.str1
 7081              	.LC69:
 7082 0000 45787065 		.string	"Expected "
 7082      63746564 
 7082      2000
 7083              	.LC70:
 7084 000a 20627574 		.string	" but was "
 7084      20776173 
 7084      2000
 7085              		.section	.text._ZN8UnitTest10CheckEqualIiiEEvRNS_11TestResultsERKT_RKT0_RKNS_11TestDetailsE,"axG",
 7086              		.p2align 4
 7087              		.weak	_ZN8UnitTest10CheckEqualIiiEEvRNS_11TestResultsERKT_RKT0_RKNS_11TestDetailsE
 7089              	_ZN8UnitTest10CheckEqualIiiEEvRNS_11TestResultsERKT_RKT0_RKNS_11TestDetailsE:
 7090              	.LFB1388:
 7091              		.cfi_startproc
 7092              		.cfi_personality 0x9b,DW.ref.__gxx_personality_v0
 7093              		.cfi_lsda 0x1b,.LLSDA1388
 7094 0000 F30F1EFA 		endbr64
 7095 0004 4157     		pushq	%r15
 7096              		.cfi_def_cfa_offset 16
 7097              		.cfi_offset 15, -16
 7098 0006 4156     		pushq	%r14
 7099              		.cfi_def_cfa_offset 24
 7100              		.cfi_offset 14, -24
 7101 0008 4155     		pushq	%r13
 7102              		.cfi_def_cfa_offset 32
 7103              		.cfi_offset 13, -32
 7104 000a 4154     		pushq	%r12
 7105              		.cfi_def_cfa_offset 40
 7106              		.cfi_offset 12, -40
 7107 000c 55       		pushq	%rbp
 7108              		.cfi_def_cfa_offset 48
 7109              		.cfi_offset 6, -48
 7110 000d 53       		pushq	%rbx
 7111              		.cfi_def_cfa_offset 56
 7112              		.cfi_offset 3, -56
 7113 000e 4881ECD8 		subq	$472, %rsp
 7113      010000
 7114              		.cfi_def_cfa_offset 528
 7115 0015 F30F7E0D 		movq	.LC71(%rip), %xmm1
 7115      00000000 
 7116 001d 48897C24 		movq	%rdi, 16(%rsp)
 7116      10
 7117 0022 48894C24 		movq	%rcx, 24(%rsp)
 7117      18
 7118 0027 0F160D00 		movhps	.LC72(%rip), %xmm1
 7118      000000
 7119 002e 64488B04 		movq	%fs:40, %rax
 7119      25280000 
 7119      00
 7120 0037 48898424 		movq	%rax, 456(%rsp)
 7120      C8010000 
 7121 003f 31C0     		xorl	%eax, %eax
 7122 0041 8B02     		movl	(%rdx), %eax
 7123 0043 0F290C24 		movaps	%xmm1, (%rsp)
 7124 0047 3906     		cmpl	%eax, (%rsi)
 7125 0049 752D     		jne	.L496
 7126              	.L480:
 7127 004b 488B8424 		movq	456(%rsp), %rax
 7127      C8010000 
 7128 0053 64482B04 		subq	%fs:40, %rax
 7128      25280000 
 7128      00
 7129 005c 0F854B02 		jne	.L497
 7129      0000
 7130 0062 4881C4D8 		addq	$472, %rsp
 7130      010000
 7131              		.cfi_remember_state
 7132              		.cfi_def_cfa_offset 56
 7133 0069 5B       		popq	%rbx
 7134              		.cfi_def_cfa_offset 48
 7135 006a 5D       		popq	%rbp
 7136              		.cfi_def_cfa_offset 40
 7137 006b 415C     		popq	%r12
 7138              		.cfi_def_cfa_offset 32
 7139 006d 415D     		popq	%r13
 7140              		.cfi_def_cfa_offset 24
 7141 006f 415E     		popq	%r14
 7142              		.cfi_def_cfa_offset 16
 7143 0071 415F     		popq	%r15
 7144              		.cfi_def_cfa_offset 8
 7145 0073 C3       		ret
 7146              		.p2align 4,,10
 7147 0074 0F1F4000 		.p2align 3
 7148              	.L496:
 7149              		.cfi_restore_state
 7150 0078 4C8DAC24 		leaq	192(%rsp), %r13
 7150      C0000000 
 7151 0080 4889F5   		movq	%rsi, %rbp
 7152 0083 4889D3   		movq	%rdx, %rbx
 7153 0086 4C89EF   		movq	%r13, %rdi
 7154 0089 E8000000 		call	_ZNSt8ios_baseC2Ev@PLT
 7154      00
 7155 008e 31C0     		xorl	%eax, %eax
 7156 0090 660FEFC0 		pxor	%xmm0, %xmm0
 7157 0094 31F6     		xorl	%esi, %esi
 7158 0096 66898424 		movw	%ax, 416(%rsp)
 7158      A0010000 
 7159 009e 488D0500 		leaq	24+_ZTCN8UnitTest15MemoryOutStreamE0_So(%rip), %rax
 7159      000000
 7160 00a5 4C89EF   		movq	%r13, %rdi
 7161 00a8 48894424 		movq	%rax, 48(%rsp)
 7161      30
 7162 00ad 4883C028 		addq	$40, %rax
 7163 00b1 48C78424 		movq	$0, 408(%rsp)
 7163      98010000 
 7163      00000000 
 7164 00bd 48898424 		movq	%rax, 192(%rsp)
 7164      C0000000 
 7165 00c5 0F118424 		movups	%xmm0, 424(%rsp)
 7165      A8010000 
 7166 00cd 0F118424 		movups	%xmm0, 440(%rsp)
 7166      B8010000 
 7167              	.LEHB181:
 7168 00d5 E8000000 		call	_ZNSt9basic_iosIcSt11char_traitsIcEE4initEPSt15basic_streambufIcS1_E@PLT
 7168      00
 7169              	.LEHE181:
 7170 00da 660F6F0C 		movdqa	(%rsp), %xmm1
 7170      24
 7171 00df 4C8D7424 		leaq	112(%rsp), %r14
 7171      70
 7172 00e4 660FEFC0 		pxor	%xmm0, %xmm0
 7173 00e8 488D0500 		leaq	64+_ZTCN8UnitTest15MemoryOutStreamE0_NSt7__cxx1119basic_ostringstreamIcSt11char_traitsIcESaIc
 7173      000000
 7174 00ef 4C89F7   		movq	%r14, %rdi
 7175 00f2 0F294424 		movaps	%xmm0, 64(%rsp)
 7175      40
 7176 00f7 4C8D6424 		leaq	48(%rsp), %r12
 7176      30
 7177 00fc 4C8D7C24 		leaq	56(%rsp), %r15
 7177      38
 7178 0101 48898424 		movq	%rax, 192(%rsp)
 7178      C0000000 
 7179 0109 0F294C24 		movaps	%xmm1, 48(%rsp)
 7179      30
 7180 010e 0F294424 		movaps	%xmm0, 80(%rsp)
 7180      50
 7181 0113 0F294424 		movaps	%xmm0, 96(%rsp)
 7181      60
 7182 0118 E8000000 		call	_ZNSt6localeC1Ev@PLT
 7182      00
 7183 011d 488D0500 		leaq	16+_ZTVNSt7__cxx1115basic_stringbufIcSt11char_traitsIcESaIcEEE(%rip), %rax
 7183      000000
 7184 0124 4C89FE   		movq	%r15, %rsi
 7185 0127 48C78424 		movq	$0, 136(%rsp)
 7185      88000000 
 7185      00000000 
 7186 0133 48894424 		movq	%rax, 56(%rsp)
 7186      38
 7187 0138 488D8424 		leaq	144(%rsp), %rax
 7187      90000000 
 7188 0140 48894424 		movq	%rax, 32(%rsp)
 7188      20
 7189 0145 48898424 		movq	%rax, 128(%rsp)
 7189      80000000 
 7190 014d 488B4424 		movq	48(%rsp), %rax
 7190      30
 7191 0152 C6842490 		movb	$0, 144(%rsp)
 7191      00000000 
 7192 015a 488B78E8 		movq	-24(%rax), %rdi
 7193 015e C7442478 		movl	$16, 120(%rsp)
 7193      10000000 
 7194 0166 4C01E7   		addq	%r12, %rdi
 7195              	.LEHB182:
 7196 0169 E8000000 		call	_ZNSt9basic_iosIcSt11char_traitsIcEE4initEPSt15basic_streambufIcS1_E@PLT
 7196      00
 7197              	.LEHE182:
 7198 016e 4C8D3D00 		leaq	24+_ZTVN8UnitTest15MemoryOutStreamE(%rip), %r15
 7198      000000
 7199 0175 BA090000 		movl	$9, %edx
 7199      00
 7200 017a 4C89E7   		movq	%r12, %rdi
 7201 017d 48C78424 		movq	$0, 168(%rsp)
 7201      A8000000 
 7201      00000000 
 7202 0189 498D4728 		leaq	40(%r15), %rax
 7203 018d 488D3500 		leaq	.LC69(%rip), %rsi
 7203      000000
 7204 0194 4C897C24 		movq	%r15, 48(%rsp)
 7204      30
 7205 0199 48898424 		movq	%rax, 192(%rsp)
 7205      C0000000 
 7206 01a1 488D8424 		leaq	176(%rsp), %rax
 7206      B0000000 
 7207 01a9 48894424 		movq	%rax, 40(%rsp)
 7207      28
 7208 01ae 48898424 		movq	%rax, 160(%rsp)
 7208      A0000000 
 7209 01b6 C68424B0 		movb	$0, 176(%rsp)
 7209      00000000 
 7210              	.LEHB183:
 7211 01be E8000000 		call	_ZSt16__ostream_insertIcSt11char_traitsIcEERSt13basic_ostreamIT_T0_ES6_PKS3_l@PLT
 7211      00
 7212 01c3 8B7500   		movl	0(%rbp), %esi
 7213 01c6 4C89E7   		movq	%r12, %rdi
 7214 01c9 E8000000 		call	_ZNSolsEi@PLT
 7214      00
 7215 01ce BA090000 		movl	$9, %edx
 7215      00
 7216 01d3 488D3500 		leaq	.LC70(%rip), %rsi
 7216      000000
 7217 01da 4889C7   		movq	%rax, %rdi
 7218 01dd 4889C5   		movq	%rax, %rbp
 7219 01e0 E8000000 		call	_ZSt16__ostream_insertIcSt11char_traitsIcEERSt13basic_ostreamIT_T0_ES6_PKS3_l@PLT
 7219      00
 7220 01e5 8B33     		movl	(%rbx), %esi
 7221 01e7 4889EF   		movq	%rbp, %rdi
 7222 01ea E8000000 		call	_ZNSolsEi@PLT
 7222      00
 7223 01ef 4C89E7   		movq	%r12, %rdi
 7224 01f2 E8000000 		call	_ZNK8UnitTest15MemoryOutStream7GetTextEv@PLT
 7224      00
 7225 01f7 488B7424 		movq	24(%rsp), %rsi
 7225      18
 7226 01fc 488B7C24 		movq	16(%rsp), %rdi
 7226      10
 7227 0201 4889C2   		movq	%rax, %rdx
 7228 0204 F30F7E15 		movq	.LC71(%rip), %xmm2
 7228      00000000 
 7229 020c 0F161500 		movhps	.LC73(%rip), %xmm2
 7229      000000
 7230 0213 0F291424 		movaps	%xmm2, (%rsp)
 7231 0217 E8000000 		call	_ZN8UnitTest11TestResults13OnTestFailureERKNS_11TestDetailsEPKc@PLT
 7231      00
 7232              	.LEHE183:
 7233 021c 488D0500 		leaq	64+_ZTVN8UnitTest15MemoryOutStreamE(%rip), %rax
 7233      000000
 7234 0223 4C897C24 		movq	%r15, 48(%rsp)
 7234      30
 7235 0228 488BBC24 		movq	160(%rsp), %rdi
 7235      A0000000 
 7236 0230 48898424 		movq	%rax, 192(%rsp)
 7236      C0000000 
 7237 0238 483B7C24 		cmpq	40(%rsp), %rdi
 7237      28
 7238 023d 7405     		je	.L486
 7239 023f E8000000 		call	_ZdlPv@PLT
 7239      00
 7240              	.L486:
 7241 0244 660F6F1C 		movdqa	(%rsp), %xmm3
 7241      24
 7242 0249 488D0500 		leaq	64+_ZTCN8UnitTest15MemoryOutStreamE0_NSt7__cxx1119basic_ostringstreamIcSt11char_traitsIcESaIc
 7242      000000
 7243 0250 488BBC24 		movq	128(%rsp), %rdi
 7243      80000000 
 7244 0258 48898424 		movq	%rax, 192(%rsp)
 7244      C0000000 
 7245 0260 0F295C24 		movaps	%xmm3, 48(%rsp)
 7245      30
 7246 0265 483B7C24 		cmpq	32(%rsp), %rdi
 7246      20
 7247 026a 7405     		je	.L487
 7248 026c E8000000 		call	_ZdlPv@PLT
 7248      00
 7249              	.L487:
 7250 0271 488D0500 		leaq	16+_ZTVSt15basic_streambufIcSt11char_traitsIcEE(%rip), %rax
 7250      000000
 7251 0278 4C89F7   		movq	%r14, %rdi
 7252 027b 48894424 		movq	%rax, 56(%rsp)
 7252      38
 7253 0280 E8000000 		call	_ZNSt6localeD1Ev@PLT
 7253      00
 7254 0285 488D0500 		leaq	24+_ZTCN8UnitTest15MemoryOutStreamE0_So(%rip), %rax
 7254      000000
 7255 028c 4C89EF   		movq	%r13, %rdi
 7256 028f 48894424 		movq	%rax, 48(%rsp)
 7256      30
 7257 0294 488D0500 		leaq	16+_ZTVSt9basic_iosIcSt11char_traitsIcEE(%rip), %rax
 7257      000000
 7258 029b 48898424 		movq	%rax, 192(%rsp)
 7258      C0000000 
 7259              	.LEHB184:
 7260 02a3 E8000000 		call	_ZNSt8ios_baseD2Ev@PLT
 7260      00
 7261              	.LEHE184:
 7262 02a8 E99EFDFF 		jmp	.L480
 7262      FF
 7263              	.L497:
 7264 02ad E8000000 		call	__stack_chk_fail@PLT
 7264      00
 7265              	.L491:
 7266 02b2 F30F1EFA 		endbr64
 7267 02b6 4889C5   		movq	%rax, %rbp
 7268 02b9 EB26     		jmp	.L484
 7269              	.L492:
 7270 02bb F30F1EFA 		endbr64
 7271 02bf 4889C5   		movq	%rax, %rbp
 7272 02c2 EB09     		jmp	.L483
 7273              	.L490:
 7274 02c4 F30F1EFA 		endbr64
 7275 02c8 4889C5   		movq	%rax, %rbp
 7276 02cb EB33     		jmp	.L488
 7277              	.L483:
 7278 02cd 4C89FF   		movq	%r15, %rdi
 7279 02d0 E8000000 		call	_ZNSt7__cxx1115basic_stringbufIcSt11char_traitsIcESaIcEED1Ev
 7279      00
 7280 02d5 488D0500 		leaq	24+_ZTCN8UnitTest15MemoryOutStreamE0_So(%rip), %rax
 7280      000000
 7281 02dc 48894424 		movq	%rax, 48(%rsp)
 7281      30
 7282              	.L484:
 7283 02e1 488D0500 		leaq	16+_ZTVSt9basic_iosIcSt11char_traitsIcEE(%rip), %rax
 7283      000000
 7284 02e8 4C89EF   		movq	%r13, %rdi
 7285 02eb 48898424 		movq	%rax, 192(%rsp)
 7285      C0000000 
 7286 02f3 E8000000 		call	_ZNSt8ios_baseD2Ev@PLT
 7286      00
 7287 02f8 4889EF   		movq	%rbp, %rdi
 7288              	.LEHB185:
 7289 02fb E8000000 		call	_Unwind_Resume@PLT
 7289      00
 7290              	.LEHE185:
 7291              	.L488:
 7292 0300 4C89E7   		movq	%r12, %rdi
 7293 0303 E8000000 		call	_ZN8UnitTest15MemoryOutStreamD1Ev
 7293      00
 7294 0308 4889EF   		movq	%rbp, %rdi
 7295              	.LEHB186:
 7296 030b E8000000 		call	_Unwind_Resume@PLT
 7296      00
 7297              	.LEHE186:
 7298              		.cfi_endproc
 7299              	.LFE1388:
 7300              		.section	.gcc_except_table
 7301              	.LLSDA1388:
 7302 05f0 FF       		.byte	0xff
 7303 05f1 FF       		.byte	0xff
 7304 05f2 01       		.byte	0x1
 7305 05f3 21       		.uleb128 .LLSDACSE1388-.LLSDACSB1388
 7306              	.LLSDACSB1388:
 7307 05f4 D501     		.uleb128 .LEHB181-.LFB1388
 7308 05f6 05       		.uleb128 .LEHE181-.LEHB181
 7309 05f7 B205     		.uleb128 .L491-.LFB1388
 7310 05f9 00       		.uleb128 0
 7311 05fa E902     		.uleb128 .LEHB182-.LFB1388
 7312 05fc 05       		.uleb128 .LEHE182-.LEHB182
 7313 05fd BB05     		.uleb128 .L492-.LFB1388
 7314 05ff 00       		.uleb128 0
 7315 0600 BE03     		.uleb128 .LEHB183-.LFB1388
 7316 0602 5E       		.uleb128 .LEHE183-.LEHB183
 7317 0603 C405     		.uleb128 .L490-.LFB1388
 7318 0605 00       		.uleb128 0
 7319 0606 A305     		.uleb128 .LEHB184-.LFB1388
 7320 0608 05       		.uleb128 .LEHE184-.LEHB184
 7321 0609 00       		.uleb128 0
 7322 060a 00       		.uleb128 0
 7323 060b FB05     		.uleb128 .LEHB185-.LFB1388
 7324 060d 05       		.uleb128 .LEHE185-.LEHB185
 7325 060e 00       		.uleb128 0
 7326 060f 00       		.uleb128 0
 7327 0610 8B06     		.uleb128 .LEHB186-.LFB1388
 7328 0612 05       		.uleb128 .LEHE186-.LEHB186
 7329 0613 00       		.uleb128 0
 7330 0614 00       		.uleb128 0
 7331              	.LLSDACSE1388:
 7332              		.section	.text._ZN8UnitTest10CheckEqualIiiEEvRNS_11TestResultsERKT_RKT0_RKNS_11TestDetailsE,"axG",
 7334              		.section	.rodata.str1.8
 7335 0687 00       		.align 8
 7336              	.LC74:
 7337 0688 73747273 		.string	"strstr(reporter.lastFailedMessage, \"assert failure\")"
 7337      74722872 
 7337      65706F72 
 7337      7465722E 
 7337      6C617374 
 7338 06bd 000000   		.align 8
 7339              	.LC75:
 7340 06c0 556E6861 		.string	"Unhandled exception in CHECK_EQUAL(1, failureCount)"
 7340      6E646C65 
 7340      64206578 
 7340      63657074 
 7340      696F6E20 
 7341 06f4 00000000 		.align 8
 7342              	.LC76:
 7343 06f8 556E6861 		.string	"Unhandled exception in CHECK_EQUAL(FailingLine, reporter.lastFailedLine)"
 7343      6E646C65 
 7343      64206578 
 7343      63657074 
 7343      696F6E20 
 7344 0741 00000000 		.align 8
 7344      000000
 7345              	.LC77:
 7346 0748 556E6861 		.string	"Unhandled exception in CHECK(strstr(reporter.lastFailedMessage, \"assert failure\"))"
 7346      6E646C65 
 7346      64206578 
 7346      63657074 
 7346      696F6E20 
 7347              		.section	.text.unlikely
 7348              		.align 2
 7349              	.LCOLDB78:
 7350              		.text
 7351              	.LHOTB78:
 7352 101d 90       		.align 2
 7353 101e 6690     		.p2align 4
 7355              	_ZNK12_GLOBAL__N_147TestCorrectlyReportsFixturesWithCtorsThatAssert7RunImplEv:
 7356              	.LFB1343:
 7357              		.cfi_startproc
 7358              		.cfi_personality 0x9b,DW.ref.__gxx_personality_v0
 7359              		.cfi_lsda 0x1b,.LLSDA1343
 7360 1020 F30F1EFA 		endbr64
 7361 1024 4156     		pushq	%r14
 7362              		.cfi_def_cfa_offset 16
 7363              		.cfi_offset 14, -16
 7364 1026 4155     		pushq	%r13
 7365              		.cfi_def_cfa_offset 24
 7366              		.cfi_offset 13, -24
 7367 1028 4154     		pushq	%r12
 7368              		.cfi_def_cfa_offset 32
 7369              		.cfi_offset 12, -32
 7370 102a 55       		pushq	%rbp
 7371              		.cfi_def_cfa_offset 40
 7372              		.cfi_offset 6, -40
 7373 102b 53       		pushq	%rbx
 7374              		.cfi_def_cfa_offset 48
 7375              		.cfi_offset 3, -48
 7376 102c 488D1D00 		leaq	16+_ZTV17RecordingReporter(%rip), %rbx
 7376      000000
 7377 1033 4881EC90 		subq	$2192, %rsp
 7377      080000
 7378              		.cfi_def_cfa_offset 2240
 7379 103a 64488B04 		movq	%fs:40, %rax
 7379      25280000 
 7379      00
 7380 1043 48898424 		movq	%rax, 2184(%rsp)
 7380      88080000 
 7381 104b 31C0     		xorl	%eax, %eax
 7382 104d 4C8D6424 		leaq	80(%rsp), %r12
 7382      50
 7383 1052 488D6C24 		leaq	16(%rsp), %rbp
 7383      10
 7384 1057 48895C24 		movq	%rbx, 80(%rsp)
 7384      50
 7385 105c 4C89E6   		movq	%r12, %rsi
 7386 105f 4889EF   		movq	%rbp, %rdi
 7387 1062 C7442458 		movl	$0, 88(%rsp)
 7387      00000000 
 7388 106a C784245C 		movl	$0, 604(%rsp)
 7388      02000000 
 7388      000000
 7389 1075 C7842460 		movl	$0, 864(%rsp)
 7389      03000000 
 7389      000000
 7390 1080 C7842464 		movl	$0, 1636(%rsp)
 7390      06000000 
 7390      000000
 7391 108b 48C78424 		movq	$0, 2152(%rsp)
 7391      68080000 
 7391      00000000 
 7392 1097 48C78424 		movq	$0, 2160(%rsp)
 7392      70080000 
 7392      00000000 
 7393 10a3 C7842478 		movl	$0x00000000, 2168(%rsp)
 7393      08000000 
 7393      000000
 7394 10ae C644245C 		movb	$0, 92(%rsp)
 7394      00
 7395 10b3 C684245C 		movb	$0, 348(%rsp)
 7395      01000000 
 7396 10bb C6842460 		movb	$0, 608(%rsp)
 7396      02000000 
 7397 10c3 C6842464 		movb	$0, 868(%rsp)
 7397      03000000 
 7398 10cb C6842464 		movb	$0, 1124(%rsp)
 7398      04000000 
 7399 10d3 C6842464 		movb	$0, 1380(%rsp)
 7399      05000000 
 7400 10db C6842468 		movb	$0, 1640(%rsp)
 7400      06000000 
 7401 10e3 C6842468 		movb	$0, 1896(%rsp)
 7401      07000000 
 7402              	.LEHB187:
 7403 10eb E8000000 		call	_ZN8UnitTest11TestResultsC1EPNS_12TestReporterE@PLT
 7403      00
 7404 10f0 E8000000 		call	_ZN8UnitTest11CurrentTest7ResultsEv@PLT
 7404      00
 7405 10f5 4C8B30   		movq	(%rax), %r14
 7406 10f8 4C897424 		movq	%r14, 48(%rsp)
 7406      30
 7407 10fd E8000000 		call	_ZN8UnitTest11CurrentTest7DetailsEv@PLT
 7407      00
 7408 1102 4C8B28   		movq	(%rax), %r13
 7409 1105 4C896C24 		movq	%r13, 56(%rsp)
 7409      38
 7410 110a E8000000 		call	_ZN8UnitTest11CurrentTest7ResultsEv@PLT
 7410      00
 7411              	.LEHE187:
 7412 110f 488928   		movq	%rbp, (%rax)
 7413 1112 488D3D00 		leaq	_ZN12_GLOBAL__N_125ctorAssertFixtureTestListE(%rip), %rdi
 7413      000000
 7414              	.LEHB188:
 7415 1119 E8000000 		call	_ZNK8UnitTest8TestList7GetHeadEv@PLT
 7415      00
 7416 111e 4889C7   		movq	%rax, %rdi
 7417 1121 E8000000 		call	_ZN8UnitTest4Test3RunEv@PLT
 7417      00
 7418              	.LEHE188:
 7419              	.LEHB189:
 7420 1126 E8000000 		call	_ZN8UnitTest11CurrentTest7ResultsEv@PLT
 7420      00
 7421 112b 4C8930   		movq	%r14, (%rax)
 7422 112e E8000000 		call	_ZN8UnitTest11CurrentTest7DetailsEv@PLT
 7422      00
 7423 1133 4C8928   		movq	%r13, (%rax)
 7424 1136 4889EF   		movq	%rbp, %rdi
 7425 1139 E8000000 		call	_ZNK8UnitTest11TestResults18GetFailedTestCountEv@PLT
 7425      00
 7426              	.LEHE189:
 7427 113e 89442408 		movl	%eax, 8(%rsp)
 7428              	.LEHB190:
 7429 1142 E8000000 		call	_ZN8UnitTest11CurrentTest7DetailsEv@PLT
 7429      00
 7430 1147 488D6C24 		leaq	48(%rsp), %rbp
 7430      30
 7431 114c 488B30   		movq	(%rax), %rsi
 7432 114f BAB90000 		movl	$185, %edx
 7432      00
 7433 1154 4889EF   		movq	%rbp, %rdi
 7434 1157 E8000000 		call	_ZN8UnitTest11TestDetailsC1ERKS0_i@PLT
 7434      00
 7435 115c C744240C 		movl	$1, 12(%rsp)
 7435      01000000 
 7436 1164 E8000000 		call	_ZN8UnitTest11CurrentTest7ResultsEv@PLT
 7436      00
 7437 1169 488B38   		movq	(%rax), %rdi
 7438 116c 488D5424 		leaq	8(%rsp), %rdx
 7438      08
 7439 1171 488D7424 		leaq	12(%rsp), %rsi
 7439      0C
 7440 1176 4889E9   		movq	%rbp, %rcx
 7441 1179 E8000000 		call	_ZN8UnitTest10CheckEqualIiiEEvRNS_11TestResultsERKT_RKT0_RKNS_11TestDetailsE
 7441      00
 7442              	.LEHE190:
 7443              	.L504:
 7444              	.LEHB191:
 7445 117e E8000000 		call	_ZN8UnitTest11CurrentTest7DetailsEv@PLT
 7445      00
 7446 1183 488B30   		movq	(%rax), %rsi
 7447 1186 BABA0000 		movl	$186, %edx
 7447      00
 7448 118b 4889EF   		movq	%rbp, %rdi
 7449 118e E8000000 		call	_ZN8UnitTest11TestDetailsC1ERKS0_i@PLT
 7449      00
 7450 1193 E8000000 		call	_ZN8UnitTest11CurrentTest7ResultsEv@PLT
 7450      00
 7451 1198 488B38   		movq	(%rax), %rdi
 7452 119b 488D9424 		leaq	864(%rsp), %rdx
 7452      60030000 
 7453 11a3 4889E9   		movq	%rbp, %rcx
 7454 11a6 488D3500 		leaq	_ZN12_GLOBAL__N_1L11FailingLineE(%rip), %rsi
 7454      000000
 7455 11ad E8000000 		call	_ZN8UnitTest10CheckEqualIiiEEvRNS_11TestResultsERKT_RKT0_RKNS_11TestDetailsE
 7455      00
 7456              	.LEHE191:
 7457              	.L507:
 7458 11b2 488DBC24 		leaq	1380(%rsp), %rdi
 7458      64050000 
 7459 11ba 488D3500 		leaq	.LC61(%rip), %rsi
 7459      000000
 7460 11c1 E8000000 		call	strstr@PLT
 7460      00
 7461 11c6 4885C0   		testq	%rax, %rax
 7462 11c9 7435     		je	.L525
 7463              	.L500:
 7464 11cb 4C89E7   		movq	%r12, %rdi
 7465 11ce 48895C24 		movq	%rbx, 80(%rsp)
 7465      50
 7466              	.LEHB192:
 7467 11d3 E8000000 		call	_ZN8UnitTest12TestReporterD2Ev@PLT
 7467      00
 7468              	.LEHE192:
 7469 11d8 488B8424 		movq	2184(%rsp), %rax
 7469      88080000 
 7470 11e0 64482B04 		subq	%fs:40, %rax
 7470      25280000 
 7470      00
 7471 11e9 7546     		jne	.L526
 7472 11eb 4881C490 		addq	$2192, %rsp
 7472      080000
 7473              		.cfi_remember_state
 7474              		.cfi_def_cfa_offset 48
 7475 11f2 5B       		popq	%rbx
 7476              		.cfi_def_cfa_offset 40
 7477 11f3 5D       		popq	%rbp
 7478              		.cfi_def_cfa_offset 32
 7479 11f4 415C     		popq	%r12
 7480              		.cfi_def_cfa_offset 24
 7481 11f6 415D     		popq	%r13
 7482              		.cfi_def_cfa_offset 16
 7483 11f8 415E     		popq	%r14
 7484              		.cfi_def_cfa_offset 8
 7485 11fa C3       		ret
 7486 11fb 0F1F4400 		.p2align 4,,10
 7486      00
 7487              		.p2align 3
 7488              	.L525:
 7489              		.cfi_restore_state
 7490              	.LEHB193:
 7491 1200 E8000000 		call	_ZN8UnitTest11CurrentTest7ResultsEv@PLT
 7491      00
 7492 1205 4C8B28   		movq	(%rax), %r13
 7493 1208 E8000000 		call	_ZN8UnitTest11CurrentTest7DetailsEv@PLT
 7493      00
 7494 120d 488B30   		movq	(%rax), %rsi
 7495 1210 BABB0000 		movl	$187, %edx
 7495      00
 7496 1215 4889EF   		movq	%rbp, %rdi
 7497 1218 E8000000 		call	_ZN8UnitTest11TestDetailsC1ERKS0_i@PLT
 7497      00
 7498 121d 488D1500 		leaq	.LC74(%rip), %rdx
 7498      000000
 7499 1224 4889EE   		movq	%rbp, %rsi
 7500 1227 4C89EF   		movq	%r13, %rdi
 7501 122a E8000000 		call	_ZN8UnitTest11TestResults13OnTestFailureERKNS_11TestDetailsEPKc@PLT
 7501      00
 7502              	.LEHE193:
 7503 122f EB9A     		jmp	.L500
 7504              	.L526:
 7505 1231 E8000000 		call	__stack_chk_fail@PLT
 7505      00
 7506              	.L517:
 7507 1236 F30F1EFA 		endbr64
 7508 123a 4889C7   		movq	%rax, %rdi
 7509 123d E9000000 		jmp	.L506
 7509      00
 7510              	.L521:
 7511 1242 F30F1EFA 		endbr64
 7512 1246 E9000000 		jmp	.L522
 7512      00
 7513              	.L514:
 7514 124b F30F1EFA 		endbr64
 7515 124f 4889C5   		movq	%rax, %rbp
 7516 1252 E9000000 		jmp	.L501
 7516      00
 7517              	.L515:
 7518 1257 F30F1EFA 		endbr64
 7519 125b 4889C7   		movq	%rax, %rdi
 7520 125e E9000000 		jmp	.L503
 7520      00
 7521              	.L519:
 7522 1263 F30F1EFA 		endbr64
 7523 1267 4889C7   		movq	%rax, %rdi
 7524 126a E9000000 		jmp	.L509
 7524      00
 7525              		.section	.gcc_except_table
 7526 0615 000000   		.align 4
 7527              	.LLSDA1343:
 7528 0618 FF       		.byte	0xff
 7529 0619 9B       		.byte	0x9b
 7530 061a 31       		.uleb128 .LLSDATT1343-.LLSDATTD1343
 7531              	.LLSDATTD1343:
 7532 061b 01       		.byte	0x1
 7533 061c 29       		.uleb128 .LLSDACSE1343-.LLSDACSB1343
 7534              	.LLSDACSB1343:
 7535 061d CB01     		.uleb128 .LEHB187-.LFB1343
 7536 061f 24       		.uleb128 .LEHE187-.LEHB187
 7537 0620 A204     		.uleb128 .L521-.LFB1343
 7538 0622 00       		.uleb128 0
 7539 0623 F901     		.uleb128 .LEHB188-.LFB1343
 7540 0625 0D       		.uleb128 .LEHE188-.LEHB188
 7541 0626 AB04     		.uleb128 .L514-.LFB1343
 7542 0628 00       		.uleb128 0
 7543 0629 8602     		.uleb128 .LEHB189-.LFB1343
 7544 062b 18       		.uleb128 .LEHE189-.LEHB189
 7545 062c A204     		.uleb128 .L521-.LFB1343
 7546 062e 00       		.uleb128 0
 7547 062f A202     		.uleb128 .LEHB190-.LFB1343
 7548 0631 3C       		.uleb128 .LEHE190-.LEHB190
 7549 0632 B704     		.uleb128 .L515-.LFB1343
 7550 0634 01       		.uleb128 0x1
 7551 0635 DE02     		.uleb128 .LEHB191-.LFB1343
 7552 0637 34       		.uleb128 .LEHE191-.LEHB191
 7553 0638 9604     		.uleb128 .L517-.LFB1343
 7554 063a 01       		.uleb128 0x1
 7555 063b B303     		.uleb128 .LEHB192-.LFB1343
 7556 063d 05       		.uleb128 .LEHE192-.LEHB192
 7557 063e 00       		.uleb128 0
 7558 063f 00       		.uleb128 0
 7559 0640 E003     		.uleb128 .LEHB193-.LFB1343
 7560 0642 2F       		.uleb128 .LEHE193-.LEHB193
 7561 0643 C304     		.uleb128 .L519-.LFB1343
 7562 0645 01       		.uleb128 0x1
 7563              	.LLSDACSE1343:
 7564 0646 01       		.byte	0x1
 7565 0647 00       		.byte	0
 7566              		.align 4
 7567 0648 00000000 		.long	0
 7568              	
 7569              	.LLSDATT1343:
 7570              		.text
 7571              		.cfi_endproc
 7572              		.section	.text.unlikely
 7573              		.cfi_startproc
 7574              		.cfi_personality 0x9b,DW.ref.__gxx_personality_v0
 7575              		.cfi_lsda 0x1b,.LLSDAC1343
 7577              	_ZNK12_GLOBAL__N_147TestCorrectlyReportsFixturesWithCtorsThatAssert7RunImplEv.cold:
 7578              	.LFSB1343:
 7579              	.L506:
 7580              		.cfi_def_cfa_offset 2240
 7581              		.cfi_offset 3, -48
 7582              		.cfi_offset 6, -40
 7583              		.cfi_offset 12, -32
 7584              		.cfi_offset 13, -24
 7585              		.cfi_offset 14, -16
 7586 13b0 E8000000 		call	__cxa_begin_catch@PLT
 7586      00
 7587              	.LEHB194:
 7588 13b5 E8000000 		call	_ZN8UnitTest11CurrentTest7ResultsEv@PLT
 7588      00
 7589 13ba 4C8B28   		movq	(%rax), %r13
 7590 13bd E8000000 		call	_ZN8UnitTest11CurrentTest7DetailsEv@PLT
 7590      00
 7591 13c2 488B30   		movq	(%rax), %rsi
 7592 13c5 BABA0000 		movl	$186, %edx
 7592      00
 7593 13ca 4889EF   		movq	%rbp, %rdi
 7594 13cd E8000000 		call	_ZN8UnitTest11TestDetailsC1ERKS0_i@PLT
 7594      00
 7595 13d2 488D1500 		leaq	.LC76(%rip), %rdx
 7595      000000
 7596 13d9 4889EE   		movq	%rbp, %rsi
 7597 13dc 4C89EF   		movq	%r13, %rdi
 7598 13df E8000000 		call	_ZN8UnitTest11TestResults13OnTestFailureERKNS_11TestDetailsEPKc@PLT
 7598      00
 7599              	.LEHE194:
 7600              	.LEHB195:
 7601 13e4 E8000000 		call	__cxa_end_catch@PLT
 7601      00
 7602              	.LEHE195:
 7603 13e9 E9000000 		jmp	.L507
 7603      00
 7604              	.L513:
 7605 13ee F30F1EFA 		endbr64
 7606              	.L522:
 7607 13f2 4889C5   		movq	%rax, %rbp
 7608              	.L502:
 7609 13f5 4C89E7   		movq	%r12, %rdi
 7610 13f8 48895C24 		movq	%rbx, 80(%rsp)
 7610      50
 7611 13fd E8000000 		call	_ZN8UnitTest12TestReporterD2Ev@PLT
 7611      00
 7612 1402 4889EF   		movq	%rbp, %rdi
 7613              	.LEHB196:
 7614 1405 E8000000 		call	_Unwind_Resume@PLT
 7614      00
 7615              	.LEHE196:
 7616              	.L503:
 7617 140a E8000000 		call	__cxa_begin_catch@PLT
 7617      00
 7618              	.LEHB197:
 7619 140f E8000000 		call	_ZN8UnitTest11CurrentTest7ResultsEv@PLT
 7619      00
 7620 1414 4C8B28   		movq	(%rax), %r13
 7621 1417 E8000000 		call	_ZN8UnitTest11CurrentTest7DetailsEv@PLT
 7621      00
 7622 141c 488D6C24 		leaq	48(%rsp), %rbp
 7622      30
 7623 1421 488B30   		movq	(%rax), %rsi
 7624 1424 BAB90000 		movl	$185, %edx
 7624      00
 7625 1429 4889EF   		movq	%rbp, %rdi
 7626 142c E8000000 		call	_ZN8UnitTest11TestDetailsC1ERKS0_i@PLT
 7626      00
 7627 1431 488D1500 		leaq	.LC75(%rip), %rdx
 7627      000000
 7628 1438 4889EE   		movq	%rbp, %rsi
 7629 143b 4C89EF   		movq	%r13, %rdi
 7630 143e E8000000 		call	_ZN8UnitTest11TestResults13OnTestFailureERKNS_11TestDetailsEPKc@PLT
 7630      00
 7631              	.LEHE197:
 7632              	.LEHB198:
 7633 1443 E8000000 		call	__cxa_end_catch@PLT
 7633      00
 7634              	.LEHE198:
 7635 1448 E9000000 		jmp	.L504
 7635      00
 7636              	.L516:
 7637 144d F30F1EFA 		endbr64
 7638 1451 4889C5   		movq	%rax, %rbp
 7639 1454 E8000000 		call	__cxa_end_catch@PLT
 7639      00
 7640 1459 EB9A     		jmp	.L502
 7641              	.L501:
 7642 145b 488D7C24 		leaq	48(%rsp), %rdi
 7642      30
 7643 1460 E8000000 		call	_ZN17ScopedCurrentTestD1Ev
 7643      00
 7644 1465 EB8E     		jmp	.L502
 7645              	.L509:
 7646 1467 E8000000 		call	__cxa_begin_catch@PLT
 7646      00
 7647              	.LEHB199:
 7648 146c E8000000 		call	_ZN8UnitTest11CurrentTest7ResultsEv@PLT
 7648      00
 7649 1471 4C8B28   		movq	(%rax), %r13
 7650 1474 E8000000 		call	_ZN8UnitTest11CurrentTest7DetailsEv@PLT
 7650      00
 7651 1479 488B30   		movq	(%rax), %rsi
 7652 147c BABB0000 		movl	$187, %edx
 7652      00
 7653 1481 4889EF   		movq	%rbp, %rdi
 7654 1484 E8000000 		call	_ZN8UnitTest11TestDetailsC1ERKS0_i@PLT
 7654      00
 7655 1489 488D1500 		leaq	.LC77(%rip), %rdx
 7655      000000
 7656 1490 4889EE   		movq	%rbp, %rsi
 7657 1493 4C89EF   		movq	%r13, %rdi
 7658 1496 E8000000 		call	_ZN8UnitTest11TestResults13OnTestFailureERKNS_11TestDetailsEPKc@PLT
 7658      00
 7659              	.LEHE199:
 7660              	.LEHB200:
 7661 149b E8000000 		call	__cxa_end_catch@PLT
 7661      00
 7662              	.LEHE200:
 7663 14a0 E9000000 		jmp	.L500
 7663      00
 7664              	.L518:
 7665 14a5 F30F1EFA 		endbr64
 7666 14a9 4889C5   		movq	%rax, %rbp
 7667 14ac E8000000 		call	__cxa_end_catch@PLT
 7667      00
 7668 14b1 E93FFFFF 		jmp	.L502
 7668      FF
 7669              	.L520:
 7670 14b6 F30F1EFA 		endbr64
 7671 14ba 4889C5   		movq	%rax, %rbp
 7672 14bd E8000000 		call	__cxa_end_catch@PLT
 7672      00
 7673 14c2 E92EFFFF 		jmp	.L502
 7673      FF
 7674              		.cfi_endproc
 7675              	.LFE1343:
 7676              		.section	.gcc_except_table
 7677              		.align 4
 7678              	.LLSDAC1343:
 7679 064c FF       		.byte	0xff
 7680 064d 9B       		.byte	0x9b
 7681 064e 2D       		.uleb128 .LLSDATTC1343-.LLSDATTDC1343
 7682              	.LLSDATTDC1343:
 7683 064f 01       		.byte	0x1
 7684 0650 22       		.uleb128 .LLSDACSEC1343-.LLSDACSBC1343
 7685              	.LLSDACSBC1343:
 7686 0651 05       		.uleb128 .LEHB194-.LCOLDB78
 7687 0652 2F       		.uleb128 .LEHE194-.LEHB194
 7688 0653 F501     		.uleb128 .L518-.LCOLDB78
 7689 0655 00       		.uleb128 0
 7690 0656 34       		.uleb128 .LEHB195-.LCOLDB78
 7691 0657 05       		.uleb128 .LEHE195-.LEHB195
 7692 0658 3E       		.uleb128 .L513-.LCOLDB78
 7693 0659 00       		.uleb128 0
 7694 065a 55       		.uleb128 .LEHB196-.LCOLDB78
 7695 065b 05       		.uleb128 .LEHE196-.LEHB196
 7696 065c 00       		.uleb128 0
 7697 065d 00       		.uleb128 0
 7698 065e 5F       		.uleb128 .LEHB197-.LCOLDB78
 7699 065f 34       		.uleb128 .LEHE197-.LEHB197
 7700 0660 9D01     		.uleb128 .L516-.LCOLDB78
 7701 0662 00       		.uleb128 0
 7702 0663 9301     		.uleb128 .LEHB198-.LCOLDB78
 7703 0665 05       		.uleb128 .LEHE198-.LEHB198
 7704 0666 3E       		.uleb128 .L513-.LCOLDB78
 7705 0667 00       		.uleb128 0
 7706 0668 BC01     		.uleb128 .LEHB199-.LCOLDB78
 7707 066a 2F       		.uleb128 .LEHE199-.LEHB199
 7708 066b 8602     		.uleb128 .L520-.LCOLDB78
 7709 066d 00       		.uleb128 0
 7710 066e EB01     		.uleb128 .LEHB200-.LCOLDB78
 7711 0670 05       		.uleb128 .LEHE200-.LEHB200
 7712 0671 3E       		.uleb128 .L513-.LCOLDB78
 7713 0672 00       		.uleb128 0
 7714              	.LLSDACSEC1343:
 7715 0673 01       		.byte	0x1
 7716 0674 00       		.byte	0
 7717 0675 000000   		.align 4
 7718 0678 00000000 		.long	0
 7719              	
 7720              	.LLSDATTC1343:
 7721              		.section	.text.unlikely
 7722              		.text
 7724              		.section	.text.unlikely
 7726              	.LCOLDE78:
 7727              		.text
 7728              	.LHOTE78:
 7729              		.section	.rodata.str1.8
 7730 079b 00000000 		.align 8
 7730      00
 7731              	.LC79:
 7732 07a0 7468726F 		.string	"throwingFixtureTestList2.GetHead() != NULL"
 7732      77696E67 
 7732      46697874 
 7732      75726554 
 7732      6573744C 
 7733              		.section	.rodata.str1.1
 7734              	.LC80:
 7735 00f0 7768696C 		.string	"while destroying fixture"
 7735      65206465 
 7735      7374726F 
 7735      79696E67 
 7735      20666978 
 7736              		.section	.rodata.str1.8
 7737 07cb 00000000 		.align 8
 7737      00
 7738              	.LC81:
 7739 07d0 73747273 		.string	"strstr(reporter.lastFailedMessage, \"while destroying fixture\")"
 7739      74722872 
 7739      65706F72 
 7739      7465722E 
 7739      6C617374 
 7740 080f 00       		.align 8
 7741              	.LC82:
 7742 0810 556E6861 		.string	"Unhandled exception in CHECK(throwingFixtureTestList2.GetHead() != NULL)"
 7742      6E646C65 
 7742      64206578 
 7742      63657074 
 7742      696F6E20 
 7743 0859 00000000 		.align 8
 7743      000000
 7744              	.LC83:
 7745 0860 556E6861 		.string	"Unhandled exception in CHECK(strstr(reporter.lastFailedMessage, \"while destroying fixtur
 7745      6E646C65 
 7745      64206578 
 7745      63657074 
 7745      696F6E20 
 7746              		.section	.text.unlikely
 7747 14c7 90       		.align 2
 7748              	.LCOLDB84:
 7749              		.text
 7750              	.LHOTB84:
 7751 126f 90       		.align 2
 7752              		.p2align 4
 7754              	_ZNK12_GLOBAL__N_140TestFixturesWithThrowingDtorsAreFailures7RunImplEv:
 7755              	.LFB1328:
 7756              		.cfi_startproc
 7757              		.cfi_personality 0x9b,DW.ref.__gxx_personality_v0
 7758              		.cfi_lsda 0x1b,.LLSDA1328
 7759 1270 F30F1EFA 		endbr64
 7760 1274 4157     		pushq	%r15
 7761              		.cfi_def_cfa_offset 16
 7762              		.cfi_offset 15, -16
 7763 1276 4156     		pushq	%r14
 7764              		.cfi_def_cfa_offset 24
 7765              		.cfi_offset 14, -24
 7766 1278 4155     		pushq	%r13
 7767              		.cfi_def_cfa_offset 32
 7768              		.cfi_offset 13, -32
 7769 127a 4C8D2D00 		leaq	_ZN12_GLOBAL__N_124throwingFixtureTestList2E(%rip), %r13
 7769      000000
 7770 1281 4154     		pushq	%r12
 7771              		.cfi_def_cfa_offset 40
 7772              		.cfi_offset 12, -40
 7773 1283 4C89EF   		movq	%r13, %rdi
 7774 1286 55       		pushq	%rbp
 7775              		.cfi_def_cfa_offset 48
 7776              		.cfi_offset 6, -48
 7777 1287 53       		pushq	%rbx
 7778              		.cfi_def_cfa_offset 56
 7779              		.cfi_offset 3, -56
 7780 1288 4881EC98 		subq	$2200, %rsp
 7780      080000
 7781              		.cfi_def_cfa_offset 2256
 7782 128f 64488B04 		movq	%fs:40, %rax
 7782      25280000 
 7782      00
 7783 1298 48898424 		movq	%rax, 2184(%rsp)
 7783      88080000 
 7784 12a0 31C0     		xorl	%eax, %eax
 7785              	.LEHB201:
 7786 12a2 E8000000 		call	_ZNK8UnitTest8TestList7GetHeadEv@PLT
 7786      00
 7787              	.LEHE201:
 7788 12a7 4885C0   		testq	%rax, %rax
 7789 12aa 0F84C001 		je	.L554
 7789      0000
 7790              	.L528:
 7791 12b0 4C8D6424 		leaq	80(%rsp), %r12
 7791      50
 7792 12b5 488D6C24 		leaq	16(%rsp), %rbp
 7792      10
 7793 12ba C7442458 		movl	$0, 88(%rsp)
 7793      00000000 
 7794 12c2 488D1D00 		leaq	16+_ZTV17RecordingReporter(%rip), %rbx
 7794      000000
 7795 12c9 4C89E6   		movq	%r12, %rsi
 7796 12cc 4889EF   		movq	%rbp, %rdi
 7797 12cf C784245C 		movl	$0, 604(%rsp)
 7797      02000000 
 7797      000000
 7798 12da 48895C24 		movq	%rbx, 80(%rsp)
 7798      50
 7799 12df C7842460 		movl	$0, 864(%rsp)
 7799      03000000 
 7799      000000
 7800 12ea C7842464 		movl	$0, 1636(%rsp)
 7800      06000000 
 7800      000000
 7801 12f5 48C78424 		movq	$0, 2152(%rsp)
 7801      68080000 
 7801      00000000 
 7802 1301 48C78424 		movq	$0, 2160(%rsp)
 7802      70080000 
 7802      00000000 
 7803 130d C7842478 		movl	$0x00000000, 2168(%rsp)
 7803      08000000 
 7803      000000
 7804 1318 C644245C 		movb	$0, 92(%rsp)
 7804      00
 7805 131d C684245C 		movb	$0, 348(%rsp)
 7805      01000000 
 7806 1325 C6842460 		movb	$0, 608(%rsp)
 7806      02000000 
 7807 132d C6842464 		movb	$0, 868(%rsp)
 7807      03000000 
 7808 1335 C6842464 		movb	$0, 1124(%rsp)
 7808      04000000 
 7809 133d C6842464 		movb	$0, 1380(%rsp)
 7809      05000000 
 7810 1345 C6842468 		movb	$0, 1640(%rsp)
 7810      06000000 
 7811 134d C6842468 		movb	$0, 1896(%rsp)
 7811      07000000 
 7812              	.LEHB202:
 7813 1355 E8000000 		call	_ZN8UnitTest11TestResultsC1EPNS_12TestReporterE@PLT
 7813      00
 7814 135a E8000000 		call	_ZN8UnitTest11CurrentTest7ResultsEv@PLT
 7814      00
 7815 135f 4C8B38   		movq	(%rax), %r15
 7816 1362 4C897C24 		movq	%r15, 48(%rsp)
 7816      30
 7817 1367 E8000000 		call	_ZN8UnitTest11CurrentTest7DetailsEv@PLT
 7817      00
 7818 136c 4C8B30   		movq	(%rax), %r14
 7819 136f 4C897424 		movq	%r14, 56(%rsp)
 7819      38
 7820 1374 E8000000 		call	_ZN8UnitTest11CurrentTest7ResultsEv@PLT
 7820      00
 7821              	.LEHE202:
 7822 1379 488928   		movq	%rbp, (%rax)
 7823 137c 4C89EF   		movq	%r13, %rdi
 7824              	.LEHB203:
 7825 137f E8000000 		call	_ZNK8UnitTest8TestList7GetHeadEv@PLT
 7825      00
 7826 1384 4889C7   		movq	%rax, %rdi
 7827 1387 E8000000 		call	_ZN8UnitTest4Test3RunEv@PLT
 7827      00
 7828              	.LEHE203:
 7829              	.LEHB204:
 7830 138c E8000000 		call	_ZN8UnitTest11CurrentTest7ResultsEv@PLT
 7830      00
 7831 1391 4C8938   		movq	%r15, (%rax)
 7832 1394 E8000000 		call	_ZN8UnitTest11CurrentTest7DetailsEv@PLT
 7832      00
 7833 1399 4C8930   		movq	%r14, (%rax)
 7834 139c 4889EF   		movq	%rbp, %rdi
 7835 139f E8000000 		call	_ZNK8UnitTest11TestResults18GetFailedTestCountEv@PLT
 7835      00
 7836              	.LEHE204:
 7837 13a4 89442408 		movl	%eax, 8(%rsp)
 7838              	.LEHB205:
 7839 13a8 E8000000 		call	_ZN8UnitTest11CurrentTest7DetailsEv@PLT
 7839      00
 7840 13ad 488D6C24 		leaq	48(%rsp), %rbp
 7840      30
 7841 13b2 488B30   		movq	(%rax), %rsi
 7842 13b5 BA9B0000 		movl	$155, %edx
 7842      00
 7843 13ba 4889EF   		movq	%rbp, %rdi
 7844 13bd E8000000 		call	_ZN8UnitTest11TestDetailsC1ERKS0_i@PLT
 7844      00
 7845 13c2 C744240C 		movl	$1, 12(%rsp)
 7845      01000000 
 7846 13ca E8000000 		call	_ZN8UnitTest11CurrentTest7ResultsEv@PLT
 7846      00
 7847 13cf 488B38   		movq	(%rax), %rdi
 7848 13d2 488D5424 		leaq	8(%rsp), %rdx
 7848      08
 7849 13d7 488D7424 		leaq	12(%rsp), %rsi
 7849      0C
 7850 13dc 4889E9   		movq	%rbp, %rcx
 7851 13df E8000000 		call	_ZN8UnitTest10CheckEqualIiiEEvRNS_11TestResultsERKT_RKT0_RKNS_11TestDetailsE
 7851      00
 7852              	.LEHE205:
 7853              	.L536:
 7854 13e4 488DBC24 		leaq	1380(%rsp), %rdi
 7854      64050000 
 7855 13ec 488D3500 		leaq	.LC80(%rip), %rsi
 7855      000000
 7856 13f3 E8000000 		call	strstr@PLT
 7856      00
 7857 13f8 4885C0   		testq	%rax, %rax
 7858 13fb 743B     		je	.L555
 7859              	.L530:
 7860 13fd 4C89E7   		movq	%r12, %rdi
 7861 1400 48895C24 		movq	%rbx, 80(%rsp)
 7861      50
 7862              	.LEHB206:
 7863 1405 E8000000 		call	_ZN8UnitTest12TestReporterD2Ev@PLT
 7863      00
 7864              	.LEHE206:
 7865 140a 488B8424 		movq	2184(%rsp), %rax
 7865      88080000 
 7866 1412 64482B04 		subq	%fs:40, %rax
 7866      25280000 
 7866      00
 7867 141b 0F858800 		jne	.L556
 7867      0000
 7868 1421 4881C498 		addq	$2200, %rsp
 7868      080000
 7869              		.cfi_remember_state
 7870              		.cfi_def_cfa_offset 56
 7871 1428 5B       		popq	%rbx
 7872              		.cfi_def_cfa_offset 48
 7873 1429 5D       		popq	%rbp
 7874              		.cfi_def_cfa_offset 40
 7875 142a 415C     		popq	%r12
 7876              		.cfi_def_cfa_offset 32
 7877 142c 415D     		popq	%r13
 7878              		.cfi_def_cfa_offset 24
 7879 142e 415E     		popq	%r14
 7880              		.cfi_def_cfa_offset 16
 7881 1430 415F     		popq	%r15
 7882              		.cfi_def_cfa_offset 8
 7883 1432 C3       		ret
 7884              		.p2align 4,,10
 7885 1433 0F1F4400 		.p2align 3
 7885      00
 7886              	.L555:
 7887              		.cfi_restore_state
 7888              	.LEHB207:
 7889 1438 E8000000 		call	_ZN8UnitTest11CurrentTest7ResultsEv@PLT
 7889      00
 7890 143d 4C8B28   		movq	(%rax), %r13
 7891 1440 E8000000 		call	_ZN8UnitTest11CurrentTest7DetailsEv@PLT
 7891      00
 7892 1445 488B30   		movq	(%rax), %rsi
 7893 1448 BA9C0000 		movl	$156, %edx
 7893      00
 7894 144d 4889EF   		movq	%rbp, %rdi
 7895 1450 E8000000 		call	_ZN8UnitTest11TestDetailsC1ERKS0_i@PLT
 7895      00
 7896 1455 488D1500 		leaq	.LC81(%rip), %rdx
 7896      000000
 7897 145c 4889EE   		movq	%rbp, %rsi
 7898 145f 4C89EF   		movq	%r13, %rdi
 7899 1462 E8000000 		call	_ZN8UnitTest11TestResults13OnTestFailureERKNS_11TestDetailsEPKc@PLT
 7899      00
 7900              	.LEHE207:
 7901 1467 EB94     		jmp	.L530
 7902 1469 0F1F8000 		.p2align 4,,10
 7902      000000
 7903              		.p2align 3
 7904              	.L554:
 7905              	.LEHB208:
 7906 1470 E8000000 		call	_ZN8UnitTest11CurrentTest7ResultsEv@PLT
 7906      00
 7907 1475 4C8B20   		movq	(%rax), %r12
 7908 1478 E8000000 		call	_ZN8UnitTest11CurrentTest7DetailsEv@PLT
 7908      00
 7909 147d 488D6C24 		leaq	48(%rsp), %rbp
 7909      30
 7910 1482 488B30   		movq	(%rax), %rsi
 7911 1485 BA910000 		movl	$145, %edx
 7911      00
 7912 148a 4889EF   		movq	%rbp, %rdi
 7913 148d E8000000 		call	_ZN8UnitTest11TestDetailsC1ERKS0_i@PLT
 7913      00
 7914 1492 488D1500 		leaq	.LC79(%rip), %rdx
 7914      000000
 7915 1499 4889EE   		movq	%rbp, %rsi
 7916 149c 4C89E7   		movq	%r12, %rdi
 7917 149f E8000000 		call	_ZN8UnitTest11TestResults13OnTestFailureERKNS_11TestDetailsEPKc@PLT
 7917      00
 7918              	.LEHE208:
 7919 14a4 E907FEFF 		jmp	.L528
 7919      FF
 7920              	.L556:
 7921 14a9 E8000000 		call	__stack_chk_fail@PLT
 7921      00
 7922              	.L542:
 7923 14ae F30F1EFA 		endbr64
 7924 14b2 4889C7   		movq	%rax, %rdi
 7925 14b5 E9000000 		jmp	.L531
 7925      00
 7926              	.L546:
 7927 14ba F30F1EFA 		endbr64
 7928 14be 4889C7   		movq	%rax, %rdi
 7929 14c1 E9000000 		jmp	.L535
 7929      00
 7930              	.L548:
 7931 14c6 F30F1EFA 		endbr64
 7932 14ca 4889C7   		movq	%rax, %rdi
 7933 14cd E9000000 		jmp	.L538
 7933      00
 7934              	.L545:
 7935 14d2 F30F1EFA 		endbr64
 7936 14d6 4889C5   		movq	%rax, %rbp
 7937 14d9 E9000000 		jmp	.L533
 7937      00
 7938              	.L550:
 7939 14de F30F1EFA 		endbr64
 7940 14e2 E9000000 		jmp	.L551
 7940      00
 7941              		.section	.gcc_except_table
 7942              		.align 4
 7943              	.LLSDA1328:
 7944 067c FF       		.byte	0xff
 7945 067d 9B       		.byte	0x9b
 7946 067e 39       		.uleb128 .LLSDATT1328-.LLSDATTD1328
 7947              	.LLSDATTD1328:
 7948 067f 01       		.byte	0x1
 7949 0680 2E       		.uleb128 .LLSDACSE1328-.LLSDACSB1328
 7950              	.LLSDACSB1328:
 7951 0681 32       		.uleb128 .LEHB201-.LFB1328
 7952 0682 05       		.uleb128 .LEHE201-.LEHB201
 7953 0683 BE04     		.uleb128 .L542-.LFB1328
 7954 0685 01       		.uleb128 0x1
 7955 0686 E501     		.uleb128 .LEHB202-.LFB1328
 7956 0688 24       		.uleb128 .LEHE202-.LEHB202
 7957 0689 EE04     		.uleb128 .L550-.LFB1328
 7958 068b 00       		.uleb128 0
 7959 068c 8F02     		.uleb128 .LEHB203-.LFB1328
 7960 068e 0D       		.uleb128 .LEHE203-.LEHB203
 7961 068f E204     		.uleb128 .L545-.LFB1328
 7962 0691 00       		.uleb128 0
 7963 0692 9C02     		.uleb128 .LEHB204-.LFB1328
 7964 0694 18       		.uleb128 .LEHE204-.LEHB204
 7965 0695 EE04     		.uleb128 .L550-.LFB1328
 7966 0697 00       		.uleb128 0
 7967 0698 B802     		.uleb128 .LEHB205-.LFB1328
 7968 069a 3C       		.uleb128 .LEHE205-.LEHB205
 7969 069b CA04     		.uleb128 .L546-.LFB1328
 7970 069d 01       		.uleb128 0x1
 7971 069e 9503     		.uleb128 .LEHB206-.LFB1328
 7972 06a0 05       		.uleb128 .LEHE206-.LEHB206
 7973 06a1 00       		.uleb128 0
 7974 06a2 00       		.uleb128 0
 7975 06a3 C803     		.uleb128 .LEHB207-.LFB1328
 7976 06a5 2F       		.uleb128 .LEHE207-.LEHB207
 7977 06a6 D604     		.uleb128 .L548-.LFB1328
 7978 06a8 01       		.uleb128 0x1
 7979 06a9 8004     		.uleb128 .LEHB208-.LFB1328
 7980 06ab 34       		.uleb128 .LEHE208-.LEHB208
 7981 06ac BE04     		.uleb128 .L542-.LFB1328
 7982 06ae 01       		.uleb128 0x1
 7983              	.LLSDACSE1328:
 7984 06af 01       		.byte	0x1
 7985 06b0 00       		.byte	0
 7986 06b1 000000   		.align 4
 7987 06b4 00000000 		.long	0
 7988              	
 7989              	.LLSDATT1328:
 7990              		.text
 7991              		.cfi_endproc
 7992              		.section	.text.unlikely
 7993              		.cfi_startproc
 7994              		.cfi_personality 0x9b,DW.ref.__gxx_personality_v0
 7995              		.cfi_lsda 0x1b,.LLSDAC1328
 7997              	_ZNK12_GLOBAL__N_140TestFixturesWithThrowingDtorsAreFailures7RunImplEv.cold:
 7998              	.LFSB1328:
 7999              	.L531:
 8000              		.cfi_def_cfa_offset 2256
 8001              		.cfi_offset 3, -56
 8002              		.cfi_offset 6, -48
 8003              		.cfi_offset 12, -40
 8004              		.cfi_offset 13, -32
 8005              		.cfi_offset 14, -24
 8006              		.cfi_offset 15, -16
 8007 14c8 E8000000 		call	__cxa_begin_catch@PLT
 8007      00
 8008              	.LEHB209:
 8009 14cd E8000000 		call	_ZN8UnitTest11CurrentTest7ResultsEv@PLT
 8009      00
 8010 14d2 4C8B20   		movq	(%rax), %r12
 8011 14d5 E8000000 		call	_ZN8UnitTest11CurrentTest7DetailsEv@PLT
 8011      00
 8012 14da 488D6C24 		leaq	48(%rsp), %rbp
 8012      30
 8013 14df 488B30   		movq	(%rax), %rsi
 8014 14e2 BA910000 		movl	$145, %edx
 8014      00
 8015 14e7 4889EF   		movq	%rbp, %rdi
 8016 14ea E8000000 		call	_ZN8UnitTest11TestDetailsC1ERKS0_i@PLT
 8016      00
 8017 14ef 488D1500 		leaq	.LC82(%rip), %rdx
 8017      000000
 8018 14f6 4889EE   		movq	%rbp, %rsi
 8019 14f9 4C89E7   		movq	%r12, %rdi
 8020 14fc E8000000 		call	_ZN8UnitTest11TestResults13OnTestFailureERKNS_11TestDetailsEPKc@PLT
 8020      00
 8021              	.LEHE209:
 8022              	.LEHB210:
 8023 1501 E8000000 		call	__cxa_end_catch@PLT
 8023      00
 8024              	.LEHE210:
 8025 1506 E9000000 		jmp	.L528
 8025      00
 8026              	.L535:
 8027 150b E8000000 		call	__cxa_begin_catch@PLT
 8027      00
 8028              	.LEHB211:
 8029 1510 E8000000 		call	_ZN8UnitTest11CurrentTest7ResultsEv@PLT
 8029      00
 8030 1515 4C8B28   		movq	(%rax), %r13
 8031 1518 E8000000 		call	_ZN8UnitTest11CurrentTest7DetailsEv@PLT
 8031      00
 8032 151d 488D6C24 		leaq	48(%rsp), %rbp
 8032      30
 8033 1522 488B30   		movq	(%rax), %rsi
 8034 1525 BA9B0000 		movl	$155, %edx
 8034      00
 8035 152a 4889EF   		movq	%rbp, %rdi
 8036 152d E8000000 		call	_ZN8UnitTest11TestDetailsC1ERKS0_i@PLT
 8036      00
 8037 1532 488D1500 		leaq	.LC75(%rip), %rdx
 8037      000000
 8038 1539 4889EE   		movq	%rbp, %rsi
 8039 153c 4C89EF   		movq	%r13, %rdi
 8040 153f E8000000 		call	_ZN8UnitTest11TestResults13OnTestFailureERKNS_11TestDetailsEPKc@PLT
 8040      00
 8041              	.LEHE211:
 8042              	.LEHB212:
 8043 1544 E8000000 		call	__cxa_end_catch@PLT
 8043      00
 8044              	.LEHE212:
 8045 1549 E9000000 		jmp	.L536
 8045      00
 8046              	.L538:
 8047 154e E8000000 		call	__cxa_begin_catch@PLT
 8047      00
 8048              	.LEHB213:
 8049 1553 E8000000 		call	_ZN8UnitTest11CurrentTest7ResultsEv@PLT
 8049      00
 8050 1558 4C8B28   		movq	(%rax), %r13
 8051 155b E8000000 		call	_ZN8UnitTest11CurrentTest7DetailsEv@PLT
 8051      00
 8052 1560 488B30   		movq	(%rax), %rsi
 8053 1563 BA9C0000 		movl	$156, %edx
 8053      00
 8054 1568 4889EF   		movq	%rbp, %rdi
 8055 156b E8000000 		call	_ZN8UnitTest11TestDetailsC1ERKS0_i@PLT
 8055      00
 8056 1570 488D1500 		leaq	.LC83(%rip), %rdx
 8056      000000
 8057 1577 4889EE   		movq	%rbp, %rsi
 8058 157a 4C89EF   		movq	%r13, %rdi
 8059 157d E8000000 		call	_ZN8UnitTest11TestResults13OnTestFailureERKNS_11TestDetailsEPKc@PLT
 8059      00
 8060              	.LEHE213:
 8061              	.LEHB214:
 8062 1582 E8000000 		call	__cxa_end_catch@PLT
 8062      00
 8063              	.LEHE214:
 8064 1587 E9000000 		jmp	.L530
 8064      00
 8065              	.L544:
 8066 158c F30F1EFA 		endbr64
 8067              	.L551:
 8068 1590 4889C5   		movq	%rax, %rbp
 8069 1593 EB0C     		jmp	.L534
 8070              	.L549:
 8071 1595 F30F1EFA 		endbr64
 8072 1599 4889C5   		movq	%rax, %rbp
 8073 159c E8000000 		call	__cxa_end_catch@PLT
 8073      00
 8074              	.L534:
 8075 15a1 4C89E7   		movq	%r12, %rdi
 8076 15a4 48895C24 		movq	%rbx, 80(%rsp)
 8076      50
 8077 15a9 E8000000 		call	_ZN8UnitTest12TestReporterD2Ev@PLT
 8077      00
 8078 15ae 4889EF   		movq	%rbp, %rdi
 8079              	.LEHB215:
 8080 15b1 E8000000 		call	_Unwind_Resume@PLT
 8080      00
 8081              	.LEHE215:
 8082              	.L533:
 8083 15b6 488D7C24 		leaq	48(%rsp), %rdi
 8083      30
 8084 15bb E8000000 		call	_ZN17ScopedCurrentTestD1Ev
 8084      00
 8085 15c0 EBDF     		jmp	.L534
 8086              	.L543:
 8087 15c2 F30F1EFA 		endbr64
 8088 15c6 4889C5   		movq	%rax, %rbp
 8089 15c9 E8000000 		call	__cxa_end_catch@PLT
 8089      00
 8090 15ce 4889EF   		movq	%rbp, %rdi
 8091              	.LEHB216:
 8092 15d1 E8000000 		call	_Unwind_Resume@PLT
 8092      00
 8093              	.LEHE216:
 8094              	.L547:
 8095 15d6 F30F1EFA 		endbr64
 8096 15da 4889C5   		movq	%rax, %rbp
 8097 15dd E8000000 		call	__cxa_end_catch@PLT
 8097      00
 8098 15e2 EBBD     		jmp	.L534
 8099              		.cfi_endproc
 8100              	.LFE1328:
 8101              		.section	.gcc_except_table
 8102              		.align 4
 8103              	.LLSDAC1328:
 8104 06b8 FF       		.byte	0xff
 8105 06b9 9B       		.byte	0x9b
 8106 06ba 31       		.uleb128 .LLSDATTC1328-.LLSDATTDC1328
 8107              	.LLSDATTDC1328:
 8108 06bb 01       		.byte	0x1
 8109 06bc 29       		.uleb128 .LLSDACSEC1328-.LLSDACSBC1328
 8110              	.LLSDACSBC1328:
 8111 06bd 05       		.uleb128 .LEHB209-.LCOLDB84
 8112 06be 34       		.uleb128 .LEHE209-.LEHB209
 8113 06bf FA01     		.uleb128 .L543-.LCOLDB84
 8114 06c1 00       		.uleb128 0
 8115 06c2 39       		.uleb128 .LEHB210-.LCOLDB84
 8116 06c3 05       		.uleb128 .LEHE210-.LEHB210
 8117 06c4 00       		.uleb128 0
 8118 06c5 00       		.uleb128 0
 8119 06c6 48       		.uleb128 .LEHB211-.LCOLDB84
 8120 06c7 34       		.uleb128 .LEHE211-.LEHB211
 8121 06c8 8E02     		.uleb128 .L547-.LCOLDB84
 8122 06ca 00       		.uleb128 0
 8123 06cb 7C       		.uleb128 .LEHB212-.LCOLDB84
 8124 06cc 05       		.uleb128 .LEHE212-.LEHB212
 8125 06cd C401     		.uleb128 .L544-.LCOLDB84
 8126 06cf 00       		.uleb128 0
 8127 06d0 8B01     		.uleb128 .LEHB213-.LCOLDB84
 8128 06d2 2F       		.uleb128 .LEHE213-.LEHB213
 8129 06d3 CD01     		.uleb128 .L549-.LCOLDB84
 8130 06d5 00       		.uleb128 0
 8131 06d6 BA01     		.uleb128 .LEHB214-.LCOLDB84
 8132 06d8 05       		.uleb128 .LEHE214-.LEHB214
 8133 06d9 C401     		.uleb128 .L544-.LCOLDB84
 8134 06db 00       		.uleb128 0
 8135 06dc E901     		.uleb128 .LEHB215-.LCOLDB84
 8136 06de 05       		.uleb128 .LEHE215-.LEHB215
 8137 06df 00       		.uleb128 0
 8138 06e0 00       		.uleb128 0
 8139 06e1 8902     		.uleb128 .LEHB216-.LCOLDB84
 8140 06e3 05       		.uleb128 .LEHE216-.LEHB216
 8141 06e4 00       		.uleb128 0
 8142 06e5 00       		.uleb128 0
 8143              	.LLSDACSEC1328:
 8144 06e6 01       		.byte	0x1
 8145 06e7 00       		.byte	0
 8146              		.align 4
 8147 06e8 00000000 		.long	0
 8148              	
 8149              	.LLSDATTC1328:
 8150              		.section	.text.unlikely
 8151              		.text
 8153              		.section	.text.unlikely
 8155              	.LCOLDE84:
 8156              		.text
 8157              	.LHOTE84:
 8158              		.section	.rodata.str1.8
 8159 08bd 000000   		.align 8
 8160              	.LC85:
 8161 08c0 7468726F 		.string	"throwingFixtureTestList1.GetHead() != NULL"
 8161      77696E67 
 8161      46697874 
 8161      75726554 
 8161      6573744C 
 8162              		.section	.rodata.str1.1
 8163              	.LC86:
 8164 0109 7768696C 		.string	"while constructing fixture"
 8164      6520636F 
 8164      6E737472 
 8164      75637469 
 8164      6E672066 
 8165              		.section	.rodata.str1.8
 8166 08eb 00000000 		.align 8
 8166      00
 8167              	.LC87:
 8168 08f0 73747273 		.string	"strstr(reporter.lastFailedMessage, \"while constructing fixture\")"
 8168      74722872 
 8168      65706F72 
 8168      7465722E 
 8168      6C617374 
 8169 0931 00000000 		.align 8
 8169      000000
 8170              	.LC88:
 8171 0938 556E6861 		.string	"Unhandled exception in CHECK(throwingFixtureTestList1.GetHead() != NULL)"
 8171      6E646C65 
 8171      64206578 
 8171      63657074 
 8171      696F6E20 
 8172 0981 00000000 		.align 8
 8172      000000
 8173              	.LC89:
 8174 0988 556E6861 		.string	"Unhandled exception in CHECK(strstr(reporter.lastFailedMessage, \"while constructing fixt
 8174      6E646C65 
 8174      64206578 
 8174      63657074 
 8174      696F6E20 
 8175              		.section	.text.unlikely
 8176              		.align 2
 8177              	.LCOLDB90:
 8178              		.text
 8179              	.LHOTB90:
 8180 14e7 90       		.align 2
 8181 14e8 0F1F8400 		.p2align 4
 8181      00000000 
 8183              	_ZNK12_GLOBAL__N_140TestFixturesWithThrowingCtorsAreFailures7RunImplEv:
 8184              	.LFB1310:
 8185              		.cfi_startproc
 8186              		.cfi_personality 0x9b,DW.ref.__gxx_personality_v0
 8187              		.cfi_lsda 0x1b,.LLSDA1310
 8188 14f0 F30F1EFA 		endbr64
 8189 14f4 4157     		pushq	%r15
 8190              		.cfi_def_cfa_offset 16
 8191              		.cfi_offset 15, -16
 8192 14f6 4156     		pushq	%r14
 8193              		.cfi_def_cfa_offset 24
 8194              		.cfi_offset 14, -24
 8195 14f8 4155     		pushq	%r13
 8196              		.cfi_def_cfa_offset 32
 8197              		.cfi_offset 13, -32
 8198 14fa 4C8D2D00 		leaq	_ZN12_GLOBAL__N_124throwingFixtureTestList1E(%rip), %r13
 8198      000000
 8199 1501 4154     		pushq	%r12
 8200              		.cfi_def_cfa_offset 40
 8201              		.cfi_offset 12, -40
 8202 1503 4C89EF   		movq	%r13, %rdi
 8203 1506 55       		pushq	%rbp
 8204              		.cfi_def_cfa_offset 48
 8205              		.cfi_offset 6, -48
 8206 1507 53       		pushq	%rbx
 8207              		.cfi_def_cfa_offset 56
 8208              		.cfi_offset 3, -56
 8209 1508 4881EC98 		subq	$2200, %rsp
 8209      080000
 8210              		.cfi_def_cfa_offset 2256
 8211 150f 64488B04 		movq	%fs:40, %rax
 8211      25280000 
 8211      00
 8212 1518 48898424 		movq	%rax, 2184(%rsp)
 8212      88080000 
 8213 1520 31C0     		xorl	%eax, %eax
 8214              	.LEHB217:
 8215 1522 E8000000 		call	_ZNK8UnitTest8TestList7GetHeadEv@PLT
 8215      00
 8216              	.LEHE217:
 8217 1527 4885C0   		testq	%rax, %rax
 8218 152a 0F84C001 		je	.L584
 8218      0000
 8219              	.L558:
 8220 1530 4C8D6424 		leaq	80(%rsp), %r12
 8220      50
 8221 1535 488D6C24 		leaq	16(%rsp), %rbp
 8221      10
 8222 153a C7442458 		movl	$0, 88(%rsp)
 8222      00000000 
 8223 1542 488D1D00 		leaq	16+_ZTV17RecordingReporter(%rip), %rbx
 8223      000000
 8224 1549 4C89E6   		movq	%r12, %rsi
 8225 154c 4889EF   		movq	%rbp, %rdi
 8226 154f C784245C 		movl	$0, 604(%rsp)
 8226      02000000 
 8226      000000
 8227 155a 48895C24 		movq	%rbx, 80(%rsp)
 8227      50
 8228 155f C7842460 		movl	$0, 864(%rsp)
 8228      03000000 
 8228      000000
 8229 156a C7842464 		movl	$0, 1636(%rsp)
 8229      06000000 
 8229      000000
 8230 1575 48C78424 		movq	$0, 2152(%rsp)
 8230      68080000 
 8230      00000000 
 8231 1581 48C78424 		movq	$0, 2160(%rsp)
 8231      70080000 
 8231      00000000 
 8232 158d C7842478 		movl	$0x00000000, 2168(%rsp)
 8232      08000000 
 8232      000000
 8233 1598 C644245C 		movb	$0, 92(%rsp)
 8233      00
 8234 159d C684245C 		movb	$0, 348(%rsp)
 8234      01000000 
 8235 15a5 C6842460 		movb	$0, 608(%rsp)
 8235      02000000 
 8236 15ad C6842464 		movb	$0, 868(%rsp)
 8236      03000000 
 8237 15b5 C6842464 		movb	$0, 1124(%rsp)
 8237      04000000 
 8238 15bd C6842464 		movb	$0, 1380(%rsp)
 8238      05000000 
 8239 15c5 C6842468 		movb	$0, 1640(%rsp)
 8239      06000000 
 8240 15cd C6842468 		movb	$0, 1896(%rsp)
 8240      07000000 
 8241              	.LEHB218:
 8242 15d5 E8000000 		call	_ZN8UnitTest11TestResultsC1EPNS_12TestReporterE@PLT
 8242      00
 8243 15da E8000000 		call	_ZN8UnitTest11CurrentTest7ResultsEv@PLT
 8243      00
 8244 15df 4C8B38   		movq	(%rax), %r15
 8245 15e2 4C897C24 		movq	%r15, 48(%rsp)
 8245      30
 8246 15e7 E8000000 		call	_ZN8UnitTest11CurrentTest7DetailsEv@PLT
 8246      00
 8247 15ec 4C8B30   		movq	(%rax), %r14
 8248 15ef 4C897424 		movq	%r14, 56(%rsp)
 8248      38
 8249 15f4 E8000000 		call	_ZN8UnitTest11CurrentTest7ResultsEv@PLT
 8249      00
 8250              	.LEHE218:
 8251 15f9 488928   		movq	%rbp, (%rax)
 8252 15fc 4C89EF   		movq	%r13, %rdi
 8253              	.LEHB219:
 8254 15ff E8000000 		call	_ZNK8UnitTest8TestList7GetHeadEv@PLT
 8254      00
 8255 1604 4889C7   		movq	%rax, %rdi
 8256 1607 E8000000 		call	_ZN8UnitTest4Test3RunEv@PLT
 8256      00
 8257              	.LEHE219:
 8258              	.LEHB220:
 8259 160c E8000000 		call	_ZN8UnitTest11CurrentTest7ResultsEv@PLT
 8259      00
 8260 1611 4C8938   		movq	%r15, (%rax)
 8261 1614 E8000000 		call	_ZN8UnitTest11CurrentTest7DetailsEv@PLT
 8261      00
 8262 1619 4C8930   		movq	%r14, (%rax)
 8263 161c 4889EF   		movq	%rbp, %rdi
 8264 161f E8000000 		call	_ZNK8UnitTest11TestResults18GetFailedTestCountEv@PLT
 8264      00
 8265              	.LEHE220:
 8266 1624 89442408 		movl	%eax, 8(%rsp)
 8267              	.LEHB221:
 8268 1628 E8000000 		call	_ZN8UnitTest11CurrentTest7DetailsEv@PLT
 8268      00
 8269 162d 488D6C24 		leaq	48(%rsp), %rbp
 8269      30
 8270 1632 488B30   		movq	(%rax), %rsi
 8271 1635 BA800000 		movl	$128, %edx
 8271      00
 8272 163a 4889EF   		movq	%rbp, %rdi
 8273 163d E8000000 		call	_ZN8UnitTest11TestDetailsC1ERKS0_i@PLT
 8273      00
 8274 1642 C744240C 		movl	$1, 12(%rsp)
 8274      01000000 
 8275 164a E8000000 		call	_ZN8UnitTest11CurrentTest7ResultsEv@PLT
 8275      00
 8276 164f 488B38   		movq	(%rax), %rdi
 8277 1652 488D5424 		leaq	8(%rsp), %rdx
 8277      08
 8278 1657 488D7424 		leaq	12(%rsp), %rsi
 8278      0C
 8279 165c 4889E9   		movq	%rbp, %rcx
 8280 165f E8000000 		call	_ZN8UnitTest10CheckEqualIiiEEvRNS_11TestResultsERKT_RKT0_RKNS_11TestDetailsE
 8280      00
 8281              	.LEHE221:
 8282              	.L566:
 8283 1664 488DBC24 		leaq	1380(%rsp), %rdi
 8283      64050000 
 8284 166c 488D3500 		leaq	.LC86(%rip), %rsi
 8284      000000
 8285 1673 E8000000 		call	strstr@PLT
 8285      00
 8286 1678 4885C0   		testq	%rax, %rax
 8287 167b 743B     		je	.L585
 8288              	.L560:
 8289 167d 4C89E7   		movq	%r12, %rdi
 8290 1680 48895C24 		movq	%rbx, 80(%rsp)
 8290      50
 8291              	.LEHB222:
 8292 1685 E8000000 		call	_ZN8UnitTest12TestReporterD2Ev@PLT
 8292      00
 8293              	.LEHE222:
 8294 168a 488B8424 		movq	2184(%rsp), %rax
 8294      88080000 
 8295 1692 64482B04 		subq	%fs:40, %rax
 8295      25280000 
 8295      00
 8296 169b 0F858800 		jne	.L586
 8296      0000
 8297 16a1 4881C498 		addq	$2200, %rsp
 8297      080000
 8298              		.cfi_remember_state
 8299              		.cfi_def_cfa_offset 56
 8300 16a8 5B       		popq	%rbx
 8301              		.cfi_def_cfa_offset 48
 8302 16a9 5D       		popq	%rbp
 8303              		.cfi_def_cfa_offset 40
 8304 16aa 415C     		popq	%r12
 8305              		.cfi_def_cfa_offset 32
 8306 16ac 415D     		popq	%r13
 8307              		.cfi_def_cfa_offset 24
 8308 16ae 415E     		popq	%r14
 8309              		.cfi_def_cfa_offset 16
 8310 16b0 415F     		popq	%r15
 8311              		.cfi_def_cfa_offset 8
 8312 16b2 C3       		ret
 8313              		.p2align 4,,10
 8314 16b3 0F1F4400 		.p2align 3
 8314      00
 8315              	.L585:
 8316              		.cfi_restore_state
 8317              	.LEHB223:
 8318 16b8 E8000000 		call	_ZN8UnitTest11CurrentTest7ResultsEv@PLT
 8318      00
 8319 16bd 4C8B28   		movq	(%rax), %r13
 8320 16c0 E8000000 		call	_ZN8UnitTest11CurrentTest7DetailsEv@PLT
 8320      00
 8321 16c5 488B30   		movq	(%rax), %rsi
 8322 16c8 BA810000 		movl	$129, %edx
 8322      00
 8323 16cd 4889EF   		movq	%rbp, %rdi
 8324 16d0 E8000000 		call	_ZN8UnitTest11TestDetailsC1ERKS0_i@PLT
 8324      00
 8325 16d5 488D1500 		leaq	.LC87(%rip), %rdx
 8325      000000
 8326 16dc 4889EE   		movq	%rbp, %rsi
 8327 16df 4C89EF   		movq	%r13, %rdi
 8328 16e2 E8000000 		call	_ZN8UnitTest11TestResults13OnTestFailureERKNS_11TestDetailsEPKc@PLT
 8328      00
 8329              	.LEHE223:
 8330 16e7 EB94     		jmp	.L560
 8331 16e9 0F1F8000 		.p2align 4,,10
 8331      000000
 8332              		.p2align 3
 8333              	.L584:
 8334              	.LEHB224:
 8335 16f0 E8000000 		call	_ZN8UnitTest11CurrentTest7ResultsEv@PLT
 8335      00
 8336 16f5 4C8B20   		movq	(%rax), %r12
 8337 16f8 E8000000 		call	_ZN8UnitTest11CurrentTest7DetailsEv@PLT
 8337      00
 8338 16fd 488D6C24 		leaq	48(%rsp), %rbp
 8338      30
 8339 1702 488B30   		movq	(%rax), %rsi
 8340 1705 BA770000 		movl	$119, %edx
 8340      00
 8341 170a 4889EF   		movq	%rbp, %rdi
 8342 170d E8000000 		call	_ZN8UnitTest11TestDetailsC1ERKS0_i@PLT
 8342      00
 8343 1712 488D1500 		leaq	.LC85(%rip), %rdx
 8343      000000
 8344 1719 4889EE   		movq	%rbp, %rsi
 8345 171c 4C89E7   		movq	%r12, %rdi
 8346 171f E8000000 		call	_ZN8UnitTest11TestResults13OnTestFailureERKNS_11TestDetailsEPKc@PLT
 8346      00
 8347              	.LEHE224:
 8348 1724 E907FEFF 		jmp	.L558
 8348      FF
 8349              	.L586:
 8350 1729 E8000000 		call	__stack_chk_fail@PLT
 8350      00
 8351              	.L572:
 8352 172e F30F1EFA 		endbr64
 8353 1732 4889C7   		movq	%rax, %rdi
 8354 1735 E9000000 		jmp	.L561
 8354      00
 8355              	.L576:
 8356 173a F30F1EFA 		endbr64
 8357 173e 4889C7   		movq	%rax, %rdi
 8358 1741 E9000000 		jmp	.L565
 8358      00
 8359              	.L578:
 8360 1746 F30F1EFA 		endbr64
 8361 174a 4889C7   		movq	%rax, %rdi
 8362 174d E9000000 		jmp	.L568
 8362      00
 8363              	.L575:
 8364 1752 F30F1EFA 		endbr64
 8365 1756 4889C5   		movq	%rax, %rbp
 8366 1759 E9000000 		jmp	.L563
 8366      00
 8367              	.L580:
 8368 175e F30F1EFA 		endbr64
 8369 1762 E9000000 		jmp	.L581
 8369      00
 8370              		.section	.gcc_except_table
 8371              		.align 4
 8372              	.LLSDA1310:
 8373 06ec FF       		.byte	0xff
 8374 06ed 9B       		.byte	0x9b
 8375 06ee 39       		.uleb128 .LLSDATT1310-.LLSDATTD1310
 8376              	.LLSDATTD1310:
 8377 06ef 01       		.byte	0x1
 8378 06f0 2E       		.uleb128 .LLSDACSE1310-.LLSDACSB1310
 8379              	.LLSDACSB1310:
 8380 06f1 32       		.uleb128 .LEHB217-.LFB1310
 8381 06f2 05       		.uleb128 .LEHE217-.LEHB217
 8382 06f3 BE04     		.uleb128 .L572-.LFB1310
 8383 06f5 01       		.uleb128 0x1
 8384 06f6 E501     		.uleb128 .LEHB218-.LFB1310
 8385 06f8 24       		.uleb128 .LEHE218-.LEHB218
 8386 06f9 EE04     		.uleb128 .L580-.LFB1310
 8387 06fb 00       		.uleb128 0
 8388 06fc 8F02     		.uleb128 .LEHB219-.LFB1310
 8389 06fe 0D       		.uleb128 .LEHE219-.LEHB219
 8390 06ff E204     		.uleb128 .L575-.LFB1310
 8391 0701 00       		.uleb128 0
 8392 0702 9C02     		.uleb128 .LEHB220-.LFB1310
 8393 0704 18       		.uleb128 .LEHE220-.LEHB220
 8394 0705 EE04     		.uleb128 .L580-.LFB1310
 8395 0707 00       		.uleb128 0
 8396 0708 B802     		.uleb128 .LEHB221-.LFB1310
 8397 070a 3C       		.uleb128 .LEHE221-.LEHB221
 8398 070b CA04     		.uleb128 .L576-.LFB1310
 8399 070d 01       		.uleb128 0x1
 8400 070e 9503     		.uleb128 .LEHB222-.LFB1310
 8401 0710 05       		.uleb128 .LEHE222-.LEHB222
 8402 0711 00       		.uleb128 0
 8403 0712 00       		.uleb128 0
 8404 0713 C803     		.uleb128 .LEHB223-.LFB1310
 8405 0715 2F       		.uleb128 .LEHE223-.LEHB223
 8406 0716 D604     		.uleb128 .L578-.LFB1310
 8407 0718 01       		.uleb128 0x1
 8408 0719 8004     		.uleb128 .LEHB224-.LFB1310
 8409 071b 34       		.uleb128 .LEHE224-.LEHB224
 8410 071c BE04     		.uleb128 .L572-.LFB1310
 8411 071e 01       		.uleb128 0x1
 8412              	.LLSDACSE1310:
 8413 071f 01       		.byte	0x1
 8414 0720 00       		.byte	0
 8415 0721 000000   		.align 4
 8416 0724 00000000 		.long	0
 8417              	
 8418              	.LLSDATT1310:
 8419              		.text
 8420              		.cfi_endproc
 8421              		.section	.text.unlikely
 8422              		.cfi_startproc
 8423              		.cfi_personality 0x9b,DW.ref.__gxx_personality_v0
 8424              		.cfi_lsda 0x1b,.LLSDAC1310
 8426              	_ZNK12_GLOBAL__N_140TestFixturesWithThrowingCtorsAreFailures7RunImplEv.cold:
 8427              	.LFSB1310:
 8428              	.L561:
 8429              		.cfi_def_cfa_offset 2256
 8430              		.cfi_offset 3, -56
 8431              		.cfi_offset 6, -48
 8432              		.cfi_offset 12, -40
 8433              		.cfi_offset 13, -32
 8434              		.cfi_offset 14, -24
 8435              		.cfi_offset 15, -16
 8436 15e4 E8000000 		call	__cxa_begin_catch@PLT
 8436      00
 8437              	.LEHB225:
 8438 15e9 E8000000 		call	_ZN8UnitTest11CurrentTest7ResultsEv@PLT
 8438      00
 8439 15ee 4C8B20   		movq	(%rax), %r12
 8440 15f1 E8000000 		call	_ZN8UnitTest11CurrentTest7DetailsEv@PLT
 8440      00
 8441 15f6 488D6C24 		leaq	48(%rsp), %rbp
 8441      30
 8442 15fb 488B30   		movq	(%rax), %rsi
 8443 15fe BA770000 		movl	$119, %edx
 8443      00
 8444 1603 4889EF   		movq	%rbp, %rdi
 8445 1606 E8000000 		call	_ZN8UnitTest11TestDetailsC1ERKS0_i@PLT
 8445      00
 8446 160b 488D1500 		leaq	.LC88(%rip), %rdx
 8446      000000
 8447 1612 4889EE   		movq	%rbp, %rsi
 8448 1615 4C89E7   		movq	%r12, %rdi
 8449 1618 E8000000 		call	_ZN8UnitTest11TestResults13OnTestFailureERKNS_11TestDetailsEPKc@PLT
 8449      00
 8450              	.LEHE225:
 8451              	.LEHB226:
 8452 161d E8000000 		call	__cxa_end_catch@PLT
 8452      00
 8453              	.LEHE226:
 8454 1622 E9000000 		jmp	.L558
 8454      00
 8455              	.L565:
 8456 1627 E8000000 		call	__cxa_begin_catch@PLT
 8456      00
 8457              	.LEHB227:
 8458 162c E8000000 		call	_ZN8UnitTest11CurrentTest7ResultsEv@PLT
 8458      00
 8459 1631 4C8B28   		movq	(%rax), %r13
 8460 1634 E8000000 		call	_ZN8UnitTest11CurrentTest7DetailsEv@PLT
 8460      00
 8461 1639 488D6C24 		leaq	48(%rsp), %rbp
 8461      30
 8462 163e 488B30   		movq	(%rax), %rsi
 8463 1641 BA800000 		movl	$128, %edx
 8463      00
 8464 1646 4889EF   		movq	%rbp, %rdi
 8465 1649 E8000000 		call	_ZN8UnitTest11TestDetailsC1ERKS0_i@PLT
 8465      00
 8466 164e 488D1500 		leaq	.LC75(%rip), %rdx
 8466      000000
 8467 1655 4889EE   		movq	%rbp, %rsi
 8468 1658 4C89EF   		movq	%r13, %rdi
 8469 165b E8000000 		call	_ZN8UnitTest11TestResults13OnTestFailureERKNS_11TestDetailsEPKc@PLT
 8469      00
 8470              	.LEHE227:
 8471              	.LEHB228:
 8472 1660 E8000000 		call	__cxa_end_catch@PLT
 8472      00
 8473              	.LEHE228:
 8474 1665 E9000000 		jmp	.L566
 8474      00
 8475              	.L568:
 8476 166a E8000000 		call	__cxa_begin_catch@PLT
 8476      00
 8477              	.LEHB229:
 8478 166f E8000000 		call	_ZN8UnitTest11CurrentTest7ResultsEv@PLT
 8478      00
 8479 1674 4C8B28   		movq	(%rax), %r13
 8480 1677 E8000000 		call	_ZN8UnitTest11CurrentTest7DetailsEv@PLT
 8480      00
 8481 167c 488B30   		movq	(%rax), %rsi
 8482 167f BA810000 		movl	$129, %edx
 8482      00
 8483 1684 4889EF   		movq	%rbp, %rdi
 8484 1687 E8000000 		call	_ZN8UnitTest11TestDetailsC1ERKS0_i@PLT
 8484      00
 8485 168c 488D1500 		leaq	.LC89(%rip), %rdx
 8485      000000
 8486 1693 4889EE   		movq	%rbp, %rsi
 8487 1696 4C89EF   		movq	%r13, %rdi
 8488 1699 E8000000 		call	_ZN8UnitTest11TestResults13OnTestFailureERKNS_11TestDetailsEPKc@PLT
 8488      00
 8489              	.LEHE229:
 8490              	.LEHB230:
 8491 169e E8000000 		call	__cxa_end_catch@PLT
 8491      00
 8492              	.LEHE230:
 8493 16a3 E9000000 		jmp	.L560
 8493      00
 8494              	.L574:
 8495 16a8 F30F1EFA 		endbr64
 8496              	.L581:
 8497 16ac 4889C5   		movq	%rax, %rbp
 8498 16af EB0C     		jmp	.L564
 8499              	.L579:
 8500 16b1 F30F1EFA 		endbr64
 8501 16b5 4889C5   		movq	%rax, %rbp
 8502 16b8 E8000000 		call	__cxa_end_catch@PLT
 8502      00
 8503              	.L564:
 8504 16bd 4C89E7   		movq	%r12, %rdi
 8505 16c0 48895C24 		movq	%rbx, 80(%rsp)
 8505      50
 8506 16c5 E8000000 		call	_ZN8UnitTest12TestReporterD2Ev@PLT
 8506      00
 8507 16ca 4889EF   		movq	%rbp, %rdi
 8508              	.LEHB231:
 8509 16cd E8000000 		call	_Unwind_Resume@PLT
 8509      00
 8510              	.LEHE231:
 8511              	.L563:
 8512 16d2 488D7C24 		leaq	48(%rsp), %rdi
 8512      30
 8513 16d7 E8000000 		call	_ZN17ScopedCurrentTestD1Ev
 8513      00
 8514 16dc EBDF     		jmp	.L564
 8515              	.L573:
 8516 16de F30F1EFA 		endbr64
 8517 16e2 4889C5   		movq	%rax, %rbp
 8518 16e5 E8000000 		call	__cxa_end_catch@PLT
 8518      00
 8519 16ea 4889EF   		movq	%rbp, %rdi
 8520              	.LEHB232:
 8521 16ed E8000000 		call	_Unwind_Resume@PLT
 8521      00
 8522              	.LEHE232:
 8523              	.L577:
 8524 16f2 F30F1EFA 		endbr64
 8525 16f6 4889C5   		movq	%rax, %rbp
 8526 16f9 E8000000 		call	__cxa_end_catch@PLT
 8526      00
 8527 16fe EBBD     		jmp	.L564
 8528              		.cfi_endproc
 8529              	.LFE1310:
 8530              		.section	.gcc_except_table
 8531              		.align 4
 8532              	.LLSDAC1310:
 8533 0728 FF       		.byte	0xff
 8534 0729 9B       		.byte	0x9b
 8535 072a 31       		.uleb128 .LLSDATTC1310-.LLSDATTDC1310
 8536              	.LLSDATTDC1310:
 8537 072b 01       		.byte	0x1
 8538 072c 29       		.uleb128 .LLSDACSEC1310-.LLSDACSBC1310
 8539              	.LLSDACSBC1310:
 8540 072d 05       		.uleb128 .LEHB225-.LCOLDB90
 8541 072e 34       		.uleb128 .LEHE225-.LEHB225
 8542 072f FA01     		.uleb128 .L573-.LCOLDB90
 8543 0731 00       		.uleb128 0
 8544 0732 39       		.uleb128 .LEHB226-.LCOLDB90
 8545 0733 05       		.uleb128 .LEHE226-.LEHB226
 8546 0734 00       		.uleb128 0
 8547 0735 00       		.uleb128 0
 8548 0736 48       		.uleb128 .LEHB227-.LCOLDB90
 8549 0737 34       		.uleb128 .LEHE227-.LEHB227
 8550 0738 8E02     		.uleb128 .L577-.LCOLDB90
 8551 073a 00       		.uleb128 0
 8552 073b 7C       		.uleb128 .LEHB228-.LCOLDB90
 8553 073c 05       		.uleb128 .LEHE228-.LEHB228
 8554 073d C401     		.uleb128 .L574-.LCOLDB90
 8555 073f 00       		.uleb128 0
 8556 0740 8B01     		.uleb128 .LEHB229-.LCOLDB90
 8557 0742 2F       		.uleb128 .LEHE229-.LEHB229
 8558 0743 CD01     		.uleb128 .L579-.LCOLDB90
 8559 0745 00       		.uleb128 0
 8560 0746 BA01     		.uleb128 .LEHB230-.LCOLDB90
 8561 0748 05       		.uleb128 .LEHE230-.LEHB230
 8562 0749 C401     		.uleb128 .L574-.LCOLDB90
 8563 074b 00       		.uleb128 0
 8564 074c E901     		.uleb128 .LEHB231-.LCOLDB90
 8565 074e 05       		.uleb128 .LEHE231-.LEHB231
 8566 074f 00       		.uleb128 0
 8567 0750 00       		.uleb128 0
 8568 0751 8902     		.uleb128 .LEHB232-.LCOLDB90
 8569 0753 05       		.uleb128 .LEHE232-.LEHB232
 8570 0754 00       		.uleb128 0
 8571 0755 00       		.uleb128 0
 8572              	.LLSDACSEC1310:
 8573 0756 01       		.byte	0x1
 8574 0757 00       		.byte	0
 8575              		.align 4
 8576 0758 00000000 		.long	0
 8577              	
 8578              	.LLSDATTC1310:
 8579              		.section	.text.unlikely
 8580              		.text
 8582              		.section	.text.unlikely
 8584              	.LCOLDE90:
 8585              		.text
 8586              	.LHOTE90:
 8587              		.section	.rodata.str1.1
 8588              	.LC91:
 8589 0124 54657374 		.string	"TestTestMacros.cpp"
 8589      54657374 
 8589      4D616372 
 8589      6F732E63 
 8589      707000
 8590              	.LC92:
 8591 0137 44756D6D 		.string	"DummyTest"
 8591      79546573 
 8591      7400
 8592              		.section	.rodata.str1.8
 8593 09e7 00       		.align 8
 8594              	.LC93:
 8595 09e8 54657374 		.string	"TestsAreAddedToTheListThroughMacro"
 8595      73417265 
 8595      41646465 
 8595      64546F54 
 8595      68654C69 
 8596              		.section	.rodata.str1.1
 8597              	.LC94:
 8598 0141 44756D6D 		.string	"DummyTestName"
 8598      79546573 
 8598      744E616D 
 8598      6500
 8599              		.section	.rodata.str1.8
 8600 0a0b 00000000 		.align 8
 8600      00
 8601              	.LC95:
 8602 0a10 45786365 		.string	"ExceptionsInFixtureAreReportedAsHappeningInTheFixture"
 8602      7074696F 
 8602      6E73496E 
 8602      46697874 
 8602      75726541 
 8603              		.section	.rodata.str1.1
 8604              	.LC96:
 8605 014f 54657374 		.string	"TestSuite1"
 8605      53756974 
 8605      653100
 8606              		.section	.rodata.str1.8
 8607 0a46 0000     		.align 8
 8608              	.LC97:
 8609 0a48 53696D69 		.string	"SimilarlyNamedTestsInDifferentSuitesWork"
 8609      6C61726C 
 8609      794E616D 
 8609      65645465 
 8609      73747349 
 8610 0a71 00000000 		.align 8
 8610      000000
 8611              	.LC98:
 8612 0a78 53696D69 		.string	"SimilarlyNamedFixtureTestsInDifferentSuitesWork"
 8612      6C61726C 
 8612      794E616D 
 8612      65644669 
 8612      78747572 
 8613              		.section	.rodata.str1.1
 8614              	.LC99:
 8615 015a 54657374 		.string	"TestSuite2"
 8615      53756974 
 8615      653200
 8616              		.section	.rodata.str1.8
 8617              		.align 8
 8618              	.LC100:
 8619 0aa8 54657374 		.string	"TestAddedWithTEST_EXMacroGetsDefaultSuite"
 8619      41646465 
 8619      64576974 
 8619      68544553 
 8619      545F4558 
 8620 0ad2 00000000 		.align 8
 8620      0000
 8621              	.LC101:
 8622 0ad8 54657374 		.string	"TestAddedWithTEST_FIXTURE_EXMacroGetsDefaultSuite"
 8622      41646465 
 8622      64576974 
 8622      68544553 
 8622      545F4649 
 8623              		.section	.rodata.str1.1
 8624              	.LC102:
 8625 0165 46697874 		.string	"FixtureCtorThrowsTestName"
 8625      75726543 
 8625      746F7254 
 8625      68726F77 
 8625      73546573 
 8626              		.section	.rodata.str1.8
 8627 0b0a 00000000 		.align 8
 8627      0000
 8628              	.LC103:
 8629 0b10 46697874 		.string	"FixturesWithThrowingCtorsAreFailures"
 8629      75726573 
 8629      57697468 
 8629      5468726F 
 8629      77696E67 
 8630              		.section	.rodata.str1.1
 8631              	.LC104:
 8632 017f 46697874 		.string	"FixtureDtorThrowsTestName"
 8632      75726544 
 8632      746F7254 
 8632      68726F77 
 8632      73546573 
 8633              		.section	.rodata.str1.8
 8634 0b35 000000   		.align 8
 8635              	.LC105:
 8636 0b38 46697874 		.string	"FixturesWithThrowingDtorsAreFailures"
 8636      75726573 
 8636      57697468 
 8636      5468726F 
 8636      77696E67 
 8637 0b5d 000000   		.align 8
 8638              	.LC106:
 8639 0b60 436F7272 		.string	"CorrectlyReportsAssertFailureInCtor"
 8639      6563746C 
 8639      79526570 
 8639      6F727473 
 8639      41737365 
 8640 0b84 00000000 		.align 8
 8641              	.LC107:
 8642 0b88 436F7272 		.string	"CorrectlyReportsFixturesWithCtorsThatAssert"
 8642      6563746C 
 8642      79526570 
 8642      6F727473 
 8642      46697874 
 8643              		.section	.rodata.str1.1
 8644              	.LC108:
 8645 0199 53616D65 		.string	"SameTestSuite"
 8645      54657374 
 8645      53756974 
 8645      6500
 8646              	.LC109:
 8647 01a7 44756D6D 		.string	"DummyTest1"
 8647      79546573 
 8647      743100
 8648              		.section	.text.startup,"ax",@progbits
 8649              		.p2align 4
 8651              	_GLOBAL__sub_I__ZN18SuiteSameTestSuite22testDummyTest1InstanceE:
 8652              	.LFB1531:
 8653              		.cfi_startproc
 8654 0000 F30F1EFA 		endbr64
 8655 0004 4157     		pushq	%r15
 8656              		.cfi_def_cfa_offset 16
 8657              		.cfi_offset 15, -16
 8658 0006 4C8D3D00 		leaq	_ZN12_GLOBAL__N_121testDummyTestInstanceE(%rip), %r15
 8658      000000
 8659 000d 4156     		pushq	%r14
 8660              		.cfi_def_cfa_offset 24
 8661              		.cfi_offset 14, -24
 8662 000f 4C8D3500 		leaq	.LC23(%rip), %r14
 8662      000000
 8663 0016 4155     		pushq	%r13
 8664              		.cfi_def_cfa_offset 32
 8665              		.cfi_offset 13, -32
 8666 0018 4C8D2D00 		leaq	.LC91(%rip), %r13
 8666      000000
 8667 001f 4154     		pushq	%r12
 8668              		.cfi_def_cfa_offset 40
 8669              		.cfi_offset 12, -40
 8670 0021 4C8D2500 		leaq	__dso_handle(%rip), %r12
 8670      000000
 8671 0028 55       		pushq	%rbp
 8672              		.cfi_def_cfa_offset 48
 8673              		.cfi_offset 6, -48
 8674 0029 488D2D00 		leaq	_ZN12_GLOBAL__N_15list1E(%rip), %rbp
 8674      000000
 8675 0030 53       		pushq	%rbx
 8676              		.cfi_def_cfa_offset 56
 8677              		.cfi_offset 3, -56
 8678 0031 4889EF   		movq	%rbp, %rdi
 8679 0034 488D1D00 		leaq	.LC97(%rip), %rbx
 8679      000000
 8680 003b 4883EC08 		subq	$8, %rsp
 8681              		.cfi_def_cfa_offset 64
 8682 003f E8000000 		call	_ZN8UnitTest8TestListC1Ev@PLT
 8682      00
 8683 0044 4C89E9   		movq	%r13, %rcx
 8684 0047 4C89F2   		movq	%r14, %rdx
 8685 004a 4C89FF   		movq	%r15, %rdi
 8686 004d 41B80F00 		movl	$15, %r8d
 8686      0000
 8687 0053 488D3500 		leaq	.LC92(%rip), %rsi
 8687      000000
 8688 005a E8000000 		call	_ZN8UnitTest4TestC2EPKcS2_S2_i@PLT
 8688      00
 8689 005f 4C89E2   		movq	%r12, %rdx
 8690 0062 4C89FE   		movq	%r15, %rsi
 8691 0065 488D0500 		leaq	16+_ZTVN12_GLOBAL__N_113TestDummyTestE(%rip), %rax
 8691      000000
 8692 006c 488D3D00 		leaq	_ZN12_GLOBAL__N_113TestDummyTestD1Ev(%rip), %rdi
 8692      000000
 8693 0073 48890500 		movq	%rax, _ZN12_GLOBAL__N_121testDummyTestInstanceE(%rip)
 8693      000000
 8694 007a E8000000 		call	__cxa_atexit@PLT
 8694      00
 8695 007f 4C89FA   		movq	%r15, %rdx
 8696 0082 4889EE   		movq	%rbp, %rsi
 8697 0085 4C8D3D00 		leaq	_ZN12_GLOBAL__N_146testTestsAreAddedToTheListThroughMacroInstanceE(%rip), %r15
 8697      000000
 8698 008c 488D3D00 		leaq	_ZN12_GLOBAL__N_114adderDummyTestE(%rip), %rdi
 8698      000000
 8699 0093 488D2D00 		leaq	_ZN12_GLOBAL__N_15list2E(%rip), %rbp
 8699      000000
 8700 009a E8000000 		call	_ZN8UnitTest9ListAdderC1ERNS_8TestListEPNS_4TestE@PLT
 8700      00
 8701 009f 4C89E9   		movq	%r13, %rcx
 8702 00a2 4C89F2   		movq	%r14, %rdx
 8703 00a5 4C89FF   		movq	%r15, %rdi
 8704 00a8 41B81300 		movl	$19, %r8d
 8704      0000
 8705 00ae 488D3500 		leaq	.LC93(%rip), %rsi
 8705      000000
 8706 00b5 E8000000 		call	_ZN8UnitTest4TestC2EPKcS2_S2_i@PLT
 8706      00
 8707 00ba 4C89E2   		movq	%r12, %rdx
 8708 00bd 4C89FE   		movq	%r15, %rsi
 8709 00c0 488D3D00 		leaq	_ZN12_GLOBAL__N_138TestTestsAreAddedToTheListThroughMacroD1Ev(%rip), %rdi
 8709      000000
 8710 00c7 488D0500 		leaq	16+_ZTVN12_GLOBAL__N_138TestTestsAreAddedToTheListThroughMacroE(%rip), %rax
 8710      000000
 8711 00ce 48890500 		movq	%rax, _ZN12_GLOBAL__N_146testTestsAreAddedToTheListThroughMacroInstanceE(%rip)
 8711      000000
 8712 00d5 E8000000 		call	__cxa_atexit@PLT
 8712      00
 8713 00da E8000000 		call	_ZN8UnitTest4Test11GetTestListEv@PLT
 8713      00
 8714 00df 4C89FA   		movq	%r15, %rdx
 8715 00e2 488D3D00 		leaq	_ZN12_GLOBAL__N_139adderTestsAreAddedToTheListThroughMacroE(%rip), %rdi
 8715      000000
 8716 00e9 4C8D3D00 		leaq	_ZN12_GLOBAL__N_140testThrowingThingieDummyTestNameInstanceE(%rip), %r15
 8716      000000
 8717 00f0 4889C6   		movq	%rax, %rsi
 8718 00f3 E8000000 		call	_ZN8UnitTest9ListAdderC1ERNS_8TestListEPNS_4TestE@PLT
 8718      00
 8719 00f8 4889EF   		movq	%rbp, %rdi
 8720 00fb E8000000 		call	_ZN8UnitTest8TestListC1Ev@PLT
 8720      00
 8721 0100 4C89E9   		movq	%r13, %rcx
 8722 0103 4C89F2   		movq	%r14, %rdx
 8723 0106 4C89FF   		movq	%r15, %rdi
 8724 0109 41B82500 		movl	$37, %r8d
 8724      0000
 8725 010f 488D3500 		leaq	.LC94(%rip), %rsi
 8725      000000
 8726 0116 E8000000 		call	_ZN8UnitTest4TestC2EPKcS2_S2_i@PLT
 8726      00
 8727 011b 4C89E2   		movq	%r12, %rdx
 8728 011e 4C89FE   		movq	%r15, %rsi
 8729 0121 488D0500 		leaq	16+_ZTVN12_GLOBAL__N_132TestThrowingThingieDummyTestNameE(%rip), %rax
 8729      000000
 8730 0128 488D3D00 		leaq	_ZN12_GLOBAL__N_132TestThrowingThingieDummyTestNameD1Ev(%rip), %rdi
 8730      000000
 8731 012f 48890500 		movq	%rax, _ZN12_GLOBAL__N_140testThrowingThingieDummyTestNameInstanceE(%rip)
 8731      000000
 8732 0136 E8000000 		call	__cxa_atexit@PLT
 8732      00
 8733 013b 4C89FA   		movq	%r15, %rdx
 8734 013e 4889EE   		movq	%rbp, %rsi
 8735 0141 4C8D3D00 		leaq	_ZN12_GLOBAL__N_165testExceptionsInFixtureAreReportedAsHappeningInTheFixtureInstanceE(%rip), 
 8735      000000
 8736 0148 488D3D00 		leaq	_ZN12_GLOBAL__N_133adderThrowingThingieDummyTestNameE(%rip), %rdi
 8736      000000
 8737 014f 488D2D00 		leaq	.LC96(%rip), %rbp
 8737      000000
 8738 0156 E8000000 		call	_ZN8UnitTest9ListAdderC1ERNS_8TestListEPNS_4TestE@PLT
 8738      00
 8739 015b 4C89E9   		movq	%r13, %rcx
 8740 015e 4C89F2   		movq	%r14, %rdx
 8741 0161 4C89FF   		movq	%r15, %rdi
 8742 0164 41B82900 		movl	$41, %r8d
 8742      0000
 8743 016a 488D3500 		leaq	.LC95(%rip), %rsi
 8743      000000
 8744 0171 E8000000 		call	_ZN8UnitTest4TestC2EPKcS2_S2_i@PLT
 8744      00
 8745 0176 4C89E2   		movq	%r12, %rdx
 8746 0179 4C89FE   		movq	%r15, %rsi
 8747 017c 488D3D00 		leaq	_ZN12_GLOBAL__N_157TestExceptionsInFixtureAreReportedAsHappeningInTheFixtureD1Ev(%rip), %rdi
 8747      000000
 8748 0183 488D0500 		leaq	16+_ZTVN12_GLOBAL__N_157TestExceptionsInFixtureAreReportedAsHappeningInTheFixtureE(%rip), %ra
 8748      000000
 8749 018a 48890500 		movq	%rax, _ZN12_GLOBAL__N_165testExceptionsInFixtureAreReportedAsHappeningInTheFixtureInstanceE(%
 8749      000000
 8750 0191 E8000000 		call	__cxa_atexit@PLT
 8750      00
 8751 0196 E8000000 		call	_ZN8UnitTest4Test11GetTestListEv@PLT
 8751      00
 8752 019b 4C89FA   		movq	%r15, %rdx
 8753 019e 488D3D00 		leaq	_ZN12_GLOBAL__N_158adderExceptionsInFixtureAreReportedAsHappeningInTheFixtureE(%rip), %rdi
 8753      000000
 8754 01a5 4C8D3D00 		leaq	_ZN12_GLOBAL__N_115SuiteTestSuite152testSimilarlyNamedTestsInDifferentSuitesWorkInstanceE(%ri
 8754      000000
 8755 01ac 4889C6   		movq	%rax, %rsi
 8756 01af E8000000 		call	_ZN8UnitTest9ListAdderC1ERNS_8TestListEPNS_4TestE@PLT
 8756      00
 8757 01b4 4C89E9   		movq	%r13, %rcx
 8758 01b7 4889EA   		movq	%rbp, %rdx
 8759 01ba 4889DE   		movq	%rbx, %rsi
 8760 01bd 41B83F00 		movl	$63, %r8d
 8760      0000
 8761 01c3 4C89FF   		movq	%r15, %rdi
 8762 01c6 E8000000 		call	_ZN8UnitTest4TestC2EPKcS2_S2_i@PLT
 8762      00
 8763 01cb 4C89E2   		movq	%r12, %rdx
 8764 01ce 4C89FE   		movq	%r15, %rsi
 8765 01d1 488D3D00 		leaq	_ZN12_GLOBAL__N_115SuiteTestSuite144TestSimilarlyNamedTestsInDifferentSuitesWorkD1Ev(%rip), %
 8765      000000
 8766 01d8 488D0500 		leaq	16+_ZTVN12_GLOBAL__N_115SuiteTestSuite144TestSimilarlyNamedTestsInDifferentSuitesWorkE(%rip),
 8766      000000
 8767 01df 48890500 		movq	%rax, _ZN12_GLOBAL__N_115SuiteTestSuite152testSimilarlyNamedTestsInDifferentSuitesWorkInstanc
 8767      000000
 8768 01e6 E8000000 		call	__cxa_atexit@PLT
 8768      00
 8769 01eb E8000000 		call	_ZN8UnitTest4Test11GetTestListEv@PLT
 8769      00
 8770 01f0 4C89FA   		movq	%r15, %rdx
 8771 01f3 488D3D00 		leaq	_ZN12_GLOBAL__N_115SuiteTestSuite145adderSimilarlyNamedTestsInDifferentSuitesWorkE(%rip), %rd
 8771      000000
 8772 01fa 4C8D3D00 		leaq	_ZN12_GLOBAL__N_115SuiteTestSuite171testDummyFixtureSimilarlyNamedFixtureTestsInDifferentSuit
 8772      000000
 8773 0201 4889C6   		movq	%rax, %rsi
 8774 0204 E8000000 		call	_ZN8UnitTest9ListAdderC1ERNS_8TestListEPNS_4TestE@PLT
 8774      00
 8775 0209 4889EA   		movq	%rbp, %rdx
 8776 020c 4C89E9   		movq	%r13, %rcx
 8777 020f 4C89FF   		movq	%r15, %rdi
 8778 0212 488D2D00 		leaq	.LC98(%rip), %rbp
 8778      000000
 8779 0219 41B84300 		movl	$67, %r8d
 8779      0000
 8780 021f 4889EE   		movq	%rbp, %rsi
 8781 0222 E8000000 		call	_ZN8UnitTest4TestC2EPKcS2_S2_i@PLT
 8781      00
 8782 0227 4C89E2   		movq	%r12, %rdx
 8783 022a 4C89FE   		movq	%r15, %rsi
 8784 022d 488D3D00 		leaq	_ZN12_GLOBAL__N_115SuiteTestSuite163TestDummyFixtureSimilarlyNamedFixtureTestsInDifferentSuit
 8784      000000
 8785 0234 488D0500 		leaq	16+_ZTVN12_GLOBAL__N_115SuiteTestSuite163TestDummyFixtureSimilarlyNamedFixtureTestsInDifferen
 8785      000000
 8786 023b 48890500 		movq	%rax, _ZN12_GLOBAL__N_115SuiteTestSuite171testDummyFixtureSimilarlyNamedFixtureTestsInDiffere
 8786      000000
 8787 0242 E8000000 		call	__cxa_atexit@PLT
 8787      00
 8788 0247 E8000000 		call	_ZN8UnitTest4Test11GetTestListEv@PLT
 8788      00
 8789 024c 4C89FA   		movq	%r15, %rdx
 8790 024f 488D3D00 		leaq	_ZN12_GLOBAL__N_115SuiteTestSuite164adderDummyFixtureSimilarlyNamedFixtureTestsInDifferentSui
 8790      000000
 8791 0256 4C8D3D00 		leaq	_ZN12_GLOBAL__N_115SuiteTestSuite252testSimilarlyNamedTestsInDifferentSuitesWorkInstanceE(%ri
 8791      000000
 8792 025d 4889C6   		movq	%rax, %rsi
 8793 0260 E8000000 		call	_ZN8UnitTest9ListAdderC1ERNS_8TestListEPNS_4TestE@PLT
 8793      00
 8794 0265 4C89E9   		movq	%r13, %rcx
 8795 0268 4889DE   		movq	%rbx, %rsi
 8796 026b 4C89FF   		movq	%r15, %rdi
 8797 026e 4C8D0D00 		leaq	.LC99(%rip), %r9
 8797      000000
 8798 0275 41B84A00 		movl	$74, %r8d
 8798      0000
 8799 027b 4C89CA   		movq	%r9, %rdx
 8800 027e E8000000 		call	_ZN8UnitTest4TestC2EPKcS2_S2_i@PLT
 8800      00
 8801 0283 4C89E2   		movq	%r12, %rdx
 8802 0286 4C89FE   		movq	%r15, %rsi
 8803 0289 488D3D00 		leaq	_ZN12_GLOBAL__N_115SuiteTestSuite244TestSimilarlyNamedTestsInDifferentSuitesWorkD1Ev(%rip), %
 8803      000000
 8804 0290 488D0500 		leaq	16+_ZTVN12_GLOBAL__N_115SuiteTestSuite244TestSimilarlyNamedTestsInDifferentSuitesWorkE(%rip),
 8804      000000
 8805 0297 48890500 		movq	%rax, _ZN12_GLOBAL__N_115SuiteTestSuite252testSimilarlyNamedTestsInDifferentSuitesWorkInstanc
 8805      000000
 8806 029e E8000000 		call	__cxa_atexit@PLT
 8806      00
 8807 02a3 E8000000 		call	_ZN8UnitTest4Test11GetTestListEv@PLT
 8807      00
 8808 02a8 4C89FA   		movq	%r15, %rdx
 8809 02ab 488D3D00 		leaq	_ZN12_GLOBAL__N_115SuiteTestSuite245adderSimilarlyNamedTestsInDifferentSuitesWorkE(%rip), %rd
 8809      000000
 8810 02b2 4C8D3D00 		leaq	_ZN12_GLOBAL__N_115SuiteTestSuite271testDummyFixtureSimilarlyNamedFixtureTestsInDifferentSuit
 8810      000000
 8811 02b9 4889C6   		movq	%rax, %rsi
 8812 02bc E8000000 		call	_ZN8UnitTest9ListAdderC1ERNS_8TestListEPNS_4TestE@PLT
 8812      00
 8813 02c1 4C89E9   		movq	%r13, %rcx
 8814 02c4 4889EE   		movq	%rbp, %rsi
 8815 02c7 4C89FF   		movq	%r15, %rdi
 8816 02ca 4C8D0D00 		leaq	.LC99(%rip), %r9
 8816      000000
 8817 02d1 41B84E00 		movl	$78, %r8d
 8817      0000
 8818 02d7 488D2D00 		leaq	_ZN12_GLOBAL__N_114macroTestList1E(%rip), %rbp
 8818      000000
 8819 02de 4C89CA   		movq	%r9, %rdx
 8820 02e1 E8000000 		call	_ZN8UnitTest4TestC2EPKcS2_S2_i@PLT
 8820      00
 8821 02e6 4C89E2   		movq	%r12, %rdx
 8822 02e9 4C89FE   		movq	%r15, %rsi
 8823 02ec 488D3D00 		leaq	_ZN12_GLOBAL__N_115SuiteTestSuite263TestDummyFixtureSimilarlyNamedFixtureTestsInDifferentSuit
 8823      000000
 8824 02f3 488D0500 		leaq	16+_ZTVN12_GLOBAL__N_115SuiteTestSuite263TestDummyFixtureSimilarlyNamedFixtureTestsInDifferen
 8824      000000
 8825 02fa 48890500 		movq	%rax, _ZN12_GLOBAL__N_115SuiteTestSuite271testDummyFixtureSimilarlyNamedFixtureTestsInDiffere
 8825      000000
 8826 0301 E8000000 		call	__cxa_atexit@PLT
 8826      00
 8827 0306 E8000000 		call	_ZN8UnitTest4Test11GetTestListEv@PLT
 8827      00
 8828 030b 4C89FA   		movq	%r15, %rdx
 8829 030e 488D3D00 		leaq	_ZN12_GLOBAL__N_115SuiteTestSuite264adderDummyFixtureSimilarlyNamedFixtureTestsInDifferentSui
 8829      000000
 8830 0315 4C8D3D00 		leaq	_ZN12_GLOBAL__N_128testMacroTestHelper1InstanceE(%rip), %r15
 8830      000000
 8831 031c 4889C6   		movq	%rax, %rsi
 8832 031f E8000000 		call	_ZN8UnitTest9ListAdderC1ERNS_8TestListEPNS_4TestE@PLT
 8832      00
 8833 0324 4889EF   		movq	%rbp, %rdi
 8834 0327 E8000000 		call	_ZN8UnitTest8TestListC1Ev@PLT
 8834      00
 8835 032c 4C89E9   		movq	%r13, %rcx
 8836 032f 4C89F2   		movq	%r14, %rdx
 8837 0332 4C89FF   		movq	%r15, %rdi
 8838 0335 41B85400 		movl	$84, %r8d
 8838      0000
 8839 033b 488D3500 		leaq	.LC29(%rip), %rsi
 8839      000000
 8840 0342 E8000000 		call	_ZN8UnitTest4TestC2EPKcS2_S2_i@PLT
 8840      00
 8841 0347 4C89E2   		movq	%r12, %rdx
 8842 034a 4C89FE   		movq	%r15, %rsi
 8843 034d 488D0500 		leaq	16+_ZTVN12_GLOBAL__N_120TestMacroTestHelper1E(%rip), %rax
 8843      000000
 8844 0354 488D3D00 		leaq	_ZN12_GLOBAL__N_120TestMacroTestHelper1D1Ev(%rip), %rdi
 8844      000000
 8845 035b 48890500 		movq	%rax, _ZN12_GLOBAL__N_128testMacroTestHelper1InstanceE(%rip)
 8845      000000
 8846 0362 E8000000 		call	__cxa_atexit@PLT
 8846      00
 8847 0367 4C89FA   		movq	%r15, %rdx
 8848 036a 4889EE   		movq	%rbp, %rsi
 8849 036d 4C8D3D00 		leaq	_ZN12_GLOBAL__N_153testTestAddedWithTEST_EXMacroGetsDefaultSuiteInstanceE(%rip), %r15
 8849      000000
 8850 0374 488D3D00 		leaq	_ZN12_GLOBAL__N_121adderMacroTestHelper1E(%rip), %rdi
 8850      000000
 8851 037b 488D2D00 		leaq	_ZN12_GLOBAL__N_114macroTestList2E(%rip), %rbp
 8851      000000
 8852 0382 E8000000 		call	_ZN8UnitTest9ListAdderC1ERNS_8TestListEPNS_4TestE@PLT
 8852      00
 8853 0387 4C89E9   		movq	%r13, %rcx
 8854 038a 4C89F2   		movq	%r14, %rdx
 8855 038d 4C89FF   		movq	%r15, %rdi
 8856 0390 41B85800 		movl	$88, %r8d
 8856      0000
 8857 0396 488D3500 		leaq	.LC100(%rip), %rsi
 8857      000000
 8858 039d E8000000 		call	_ZN8UnitTest4TestC2EPKcS2_S2_i@PLT
 8858      00
 8859 03a2 4C89E2   		movq	%r12, %rdx
 8860 03a5 4C89FE   		movq	%r15, %rsi
 8861 03a8 488D3D00 		leaq	_ZN12_GLOBAL__N_145TestTestAddedWithTEST_EXMacroGetsDefaultSuiteD1Ev(%rip), %rdi
 8861      000000
 8862 03af 488D0500 		leaq	16+_ZTVN12_GLOBAL__N_145TestTestAddedWithTEST_EXMacroGetsDefaultSuiteE(%rip), %rax
 8862      000000
 8863 03b6 48890500 		movq	%rax, _ZN12_GLOBAL__N_153testTestAddedWithTEST_EXMacroGetsDefaultSuiteInstanceE(%rip)
 8863      000000
 8864 03bd E8000000 		call	__cxa_atexit@PLT
 8864      00
 8865 03c2 E8000000 		call	_ZN8UnitTest4Test11GetTestListEv@PLT
 8865      00
 8866 03c7 4C89FA   		movq	%r15, %rdx
 8867 03ca 488D3D00 		leaq	_ZN12_GLOBAL__N_146adderTestAddedWithTEST_EXMacroGetsDefaultSuiteE(%rip), %rdi
 8867      000000
 8868 03d1 4C8D3D00 		leaq	_ZN12_GLOBAL__N_140testDummyFixtureMacroTestHelper2InstanceE(%rip), %r15
 8868      000000
 8869 03d8 4889C6   		movq	%rax, %rsi
 8870 03db E8000000 		call	_ZN8UnitTest9ListAdderC1ERNS_8TestListEPNS_4TestE@PLT
 8870      00
 8871 03e0 4889EF   		movq	%rbp, %rdi
 8872 03e3 E8000000 		call	_ZN8UnitTest8TestListC1Ev@PLT
 8872      00
 8873 03e8 4C89E9   		movq	%r13, %rcx
 8874 03eb 4C89F2   		movq	%r14, %rdx
 8875 03ee 4C89FF   		movq	%r15, %rdi
 8876 03f1 41B86000 		movl	$96, %r8d
 8876      0000
 8877 03f7 488D3500 		leaq	.LC22(%rip), %rsi
 8877      000000
 8878 03fe E8000000 		call	_ZN8UnitTest4TestC2EPKcS2_S2_i@PLT
 8878      00
 8879 0403 4C89E2   		movq	%r12, %rdx
 8880 0406 4C89FE   		movq	%r15, %rsi
 8881 0409 488D0500 		leaq	16+_ZTVN12_GLOBAL__N_132TestDummyFixtureMacroTestHelper2E(%rip), %rax
 8881      000000
 8882 0410 488D3D00 		leaq	_ZN12_GLOBAL__N_132TestDummyFixtureMacroTestHelper2D1Ev(%rip), %rdi
 8882      000000
 8883 0417 48890500 		movq	%rax, _ZN12_GLOBAL__N_140testDummyFixtureMacroTestHelper2InstanceE(%rip)
 8883      000000
 8884 041e E8000000 		call	__cxa_atexit@PLT
 8884      00
 8885 0423 4C89FA   		movq	%r15, %rdx
 8886 0426 4889EE   		movq	%rbp, %rsi
 8887 0429 4C8D3D00 		leaq	_ZN12_GLOBAL__N_161testTestAddedWithTEST_FIXTURE_EXMacroGetsDefaultSuiteInstanceE(%rip), %r15
 8887      000000
 8888 0430 488D3D00 		leaq	_ZN12_GLOBAL__N_133adderDummyFixtureMacroTestHelper2E(%rip), %rdi
 8888      000000
 8889 0437 488D2D00 		leaq	_ZN12_GLOBAL__N_124throwingFixtureTestList1E(%rip), %rbp
 8889      000000
 8890 043e E8000000 		call	_ZN8UnitTest9ListAdderC1ERNS_8TestListEPNS_4TestE@PLT
 8890      00
 8891 0443 4C89E9   		movq	%r13, %rcx
 8892 0446 4C89F2   		movq	%r14, %rdx
 8893 0449 4C89FF   		movq	%r15, %rdi
 8894 044c 41B86400 		movl	$100, %r8d
 8894      0000
 8895 0452 488D3500 		leaq	.LC101(%rip), %rsi
 8895      000000
 8896 0459 E8000000 		call	_ZN8UnitTest4TestC2EPKcS2_S2_i@PLT
 8896      00
 8897 045e 4C89E2   		movq	%r12, %rdx
 8898 0461 4C89FE   		movq	%r15, %rsi
 8899 0464 488D3D00 		leaq	_ZN12_GLOBAL__N_153TestTestAddedWithTEST_FIXTURE_EXMacroGetsDefaultSuiteD1Ev(%rip), %rdi
 8899      000000
 8900 046b 488D0500 		leaq	16+_ZTVN12_GLOBAL__N_153TestTestAddedWithTEST_FIXTURE_EXMacroGetsDefaultSuiteE(%rip), %rax
 8900      000000
 8901 0472 48890500 		movq	%rax, _ZN12_GLOBAL__N_161testTestAddedWithTEST_FIXTURE_EXMacroGetsDefaultSuiteInstanceE(%rip)
 8901      000000
 8902 0479 E8000000 		call	__cxa_atexit@PLT
 8902      00
 8903 047e E8000000 		call	_ZN8UnitTest4Test11GetTestListEv@PLT
 8903      00
 8904 0483 4C89FA   		movq	%r15, %rdx
 8905 0486 488D3D00 		leaq	_ZN12_GLOBAL__N_154adderTestAddedWithTEST_FIXTURE_EXMacroGetsDefaultSuiteE(%rip), %rdi
 8905      000000
 8906 048d 4C8D3D00 		leaq	_ZN12_GLOBAL__N_154testFixtureCtorThrowsFixtureCtorThrowsTestNameInstanceE(%rip), %r15
 8906      000000
 8907 0494 4889C6   		movq	%rax, %rsi
 8908 0497 E8000000 		call	_ZN8UnitTest9ListAdderC1ERNS_8TestListEPNS_4TestE@PLT
 8908      00
 8909 049c 4889EF   		movq	%rbp, %rdi
 8910 049f E8000000 		call	_ZN8UnitTest8TestListC1Ev@PLT
 8910      00
 8911 04a4 4C89E9   		movq	%r13, %rcx
 8912 04a7 4C89F2   		movq	%r14, %rdx
 8913 04aa 4C89FF   		movq	%r15, %rdi
 8914 04ad 41B87100 		movl	$113, %r8d
 8914      0000
 8915 04b3 488D3500 		leaq	.LC102(%rip), %rsi
 8915      000000
 8916 04ba E8000000 		call	_ZN8UnitTest4TestC2EPKcS2_S2_i@PLT
 8916      00
 8917 04bf 4C89E2   		movq	%r12, %rdx
 8918 04c2 4C89FE   		movq	%r15, %rsi
 8919 04c5 488D0500 		leaq	16+_ZTVN12_GLOBAL__N_146TestFixtureCtorThrowsFixtureCtorThrowsTestNameE(%rip), %rax
 8919      000000
 8920 04cc 488D3D00 		leaq	_ZN12_GLOBAL__N_146TestFixtureCtorThrowsFixtureCtorThrowsTestNameD1Ev(%rip), %rdi
 8920      000000
 8921 04d3 48890500 		movq	%rax, _ZN12_GLOBAL__N_154testFixtureCtorThrowsFixtureCtorThrowsTestNameInstanceE(%rip)
 8921      000000
 8922 04da E8000000 		call	__cxa_atexit@PLT
 8922      00
 8923 04df 4C89FA   		movq	%r15, %rdx
 8924 04e2 4889EE   		movq	%rbp, %rsi
 8925 04e5 4C8D3D00 		leaq	_ZN12_GLOBAL__N_148testFixturesWithThrowingCtorsAreFailuresInstanceE(%rip), %r15
 8925      000000
 8926 04ec 488D3D00 		leaq	_ZN12_GLOBAL__N_147adderFixtureCtorThrowsFixtureCtorThrowsTestNameE(%rip), %rdi
 8926      000000
 8927 04f3 488D2D00 		leaq	_ZN12_GLOBAL__N_124throwingFixtureTestList2E(%rip), %rbp
 8927      000000
 8928 04fa E8000000 		call	_ZN8UnitTest9ListAdderC1ERNS_8TestListEPNS_4TestE@PLT
 8928      00
 8929 04ff 4C89E9   		movq	%r13, %rcx
 8930 0502 4C89F2   		movq	%r14, %rdx
 8931 0505 4C89FF   		movq	%r15, %rdi
 8932 0508 41B87500 		movl	$117, %r8d
 8932      0000
 8933 050e 488D3500 		leaq	.LC103(%rip), %rsi
 8933      000000
 8934 0515 E8000000 		call	_ZN8UnitTest4TestC2EPKcS2_S2_i@PLT
 8934      00
 8935 051a 4C89E2   		movq	%r12, %rdx
 8936 051d 4C89FE   		movq	%r15, %rsi
 8937 0520 488D3D00 		leaq	_ZN12_GLOBAL__N_140TestFixturesWithThrowingCtorsAreFailuresD1Ev(%rip), %rdi
 8937      000000
 8938 0527 488D0500 		leaq	16+_ZTVN12_GLOBAL__N_140TestFixturesWithThrowingCtorsAreFailuresE(%rip), %rax
 8938      000000
 8939 052e 48890500 		movq	%rax, _ZN12_GLOBAL__N_148testFixturesWithThrowingCtorsAreFailuresInstanceE(%rip)
 8939      000000
 8940 0535 E8000000 		call	__cxa_atexit@PLT
 8940      00
 8941 053a E8000000 		call	_ZN8UnitTest4Test11GetTestListEv@PLT
 8941      00
 8942 053f 4C89FA   		movq	%r15, %rdx
 8943 0542 488D3D00 		leaq	_ZN12_GLOBAL__N_141adderFixturesWithThrowingCtorsAreFailuresE(%rip), %rdi
 8943      000000
 8944 0549 4C8D3D00 		leaq	_ZN12_GLOBAL__N_154testFixtureDtorThrowsFixtureDtorThrowsTestNameInstanceE(%rip), %r15
 8944      000000
 8945 0550 4889C6   		movq	%rax, %rsi
 8946 0553 E8000000 		call	_ZN8UnitTest9ListAdderC1ERNS_8TestListEPNS_4TestE@PLT
 8946      00
 8947 0558 4889EF   		movq	%rbp, %rdi
 8948 055b E8000000 		call	_ZN8UnitTest8TestListC1Ev@PLT
 8948      00
 8949 0560 4C89E9   		movq	%r13, %rcx
 8950 0563 4C89F2   		movq	%r14, %rdx
 8951 0566 4C89FF   		movq	%r15, %rdi
 8952 0569 41B88A00 		movl	$138, %r8d
 8952      0000
 8953 056f 488D3500 		leaq	.LC104(%rip), %rsi
 8953      000000
 8954 0576 E8000000 		call	_ZN8UnitTest4TestC2EPKcS2_S2_i@PLT
 8954      00
 8955 057b 4C89E2   		movq	%r12, %rdx
 8956 057e 4C89FE   		movq	%r15, %rsi
 8957 0581 488D0500 		leaq	16+_ZTVN12_GLOBAL__N_146TestFixtureDtorThrowsFixtureDtorThrowsTestNameE(%rip), %rax
 8957      000000
 8958 0588 488D3D00 		leaq	_ZN12_GLOBAL__N_146TestFixtureDtorThrowsFixtureDtorThrowsTestNameD1Ev(%rip), %rdi
 8958      000000
 8959 058f 48890500 		movq	%rax, _ZN12_GLOBAL__N_154testFixtureDtorThrowsFixtureDtorThrowsTestNameInstanceE(%rip)
 8959      000000
 8960 0596 E8000000 		call	__cxa_atexit@PLT
 8960      00
 8961 059b 4C89FA   		movq	%r15, %rdx
 8962 059e 4889EE   		movq	%rbp, %rsi
 8963 05a1 4C8D3D00 		leaq	_ZN12_GLOBAL__N_148testFixturesWithThrowingDtorsAreFailuresInstanceE(%rip), %r15
 8963      000000
 8964 05a8 488D3D00 		leaq	_ZN12_GLOBAL__N_147adderFixtureDtorThrowsFixtureDtorThrowsTestNameE(%rip), %rdi
 8964      000000
 8965 05af 488D2D00 		leaq	_ZN12_GLOBAL__N_125ctorAssertFixtureTestListE(%rip), %rbp
 8965      000000
 8966 05b6 E8000000 		call	_ZN8UnitTest9ListAdderC1ERNS_8TestListEPNS_4TestE@PLT
 8966      00
 8967 05bb 4C89E9   		movq	%r13, %rcx
 8968 05be 4C89F2   		movq	%r14, %rdx
 8969 05c1 4C89FF   		movq	%r15, %rdi
 8970 05c4 41B88F00 		movl	$143, %r8d
 8970      0000
 8971 05ca 488D3500 		leaq	.LC105(%rip), %rsi
 8971      000000
 8972 05d1 E8000000 		call	_ZN8UnitTest4TestC2EPKcS2_S2_i@PLT
 8972      00
 8973 05d6 4C89E2   		movq	%r12, %rdx
 8974 05d9 4C89FE   		movq	%r15, %rsi
 8975 05dc 488D3D00 		leaq	_ZN12_GLOBAL__N_140TestFixturesWithThrowingDtorsAreFailuresD1Ev(%rip), %rdi
 8975      000000
 8976 05e3 488D0500 		leaq	16+_ZTVN12_GLOBAL__N_140TestFixturesWithThrowingDtorsAreFailuresE(%rip), %rax
 8976      000000
 8977 05ea 48890500 		movq	%rax, _ZN12_GLOBAL__N_148testFixturesWithThrowingDtorsAreFailuresInstanceE(%rip)
 8977      000000
 8978 05f1 E8000000 		call	__cxa_atexit@PLT
 8978      00
 8979 05f6 E8000000 		call	_ZN8UnitTest4Test11GetTestListEv@PLT
 8979      00
 8980 05fb 4C89FA   		movq	%r15, %rdx
 8981 05fe 488D3D00 		leaq	_ZN12_GLOBAL__N_141adderFixturesWithThrowingDtorsAreFailuresE(%rip), %rdi
 8981      000000
 8982 0605 4C8D3D00 		leaq	_ZN12_GLOBAL__N_165testFixtureCtorAssertsCorrectlyReportsAssertFailureInCtorInstanceE(%rip), 
 8982      000000
 8983 060c 4889C6   		movq	%rax, %rsi
 8984 060f E8000000 		call	_ZN8UnitTest9ListAdderC1ERNS_8TestListEPNS_4TestE@PLT
 8984      00
 8985 0614 4889EF   		movq	%rbp, %rdi
 8986 0617 E8000000 		call	_ZN8UnitTest8TestListC1Ev@PLT
 8986      00
 8987 061c 4C89E9   		movq	%r13, %rcx
 8988 061f 4C89F2   		movq	%r14, %rdx
 8989 0622 4C89FF   		movq	%r15, %rdi
 8990 0625 41B8AB00 		movl	$171, %r8d
 8990      0000
 8991 062b 488D3500 		leaq	.LC106(%rip), %rsi
 8991      000000
 8992 0632 E8000000 		call	_ZN8UnitTest4TestC2EPKcS2_S2_i@PLT
 8992      00
 8993 0637 4C89E2   		movq	%r12, %rdx
 8994 063a 4C89FE   		movq	%r15, %rsi
 8995 063d 488D0500 		leaq	16+_ZTVN12_GLOBAL__N_157TestFixtureCtorAssertsCorrectlyReportsAssertFailureInCtorE(%rip), %ra
 8995      000000
 8996 0644 488D3D00 		leaq	_ZN12_GLOBAL__N_157TestFixtureCtorAssertsCorrectlyReportsAssertFailureInCtorD1Ev(%rip), %rdi
 8996      000000
 8997 064b 48890500 		movq	%rax, _ZN12_GLOBAL__N_165testFixtureCtorAssertsCorrectlyReportsAssertFailureInCtorInstanceE(%
 8997      000000
 8998 0652 E8000000 		call	__cxa_atexit@PLT
 8998      00
 8999 0657 4C89FA   		movq	%r15, %rdx
 9000 065a 4889EE   		movq	%rbp, %rsi
 9001 065d 4C8D3D00 		leaq	_ZN12_GLOBAL__N_155testCorrectlyReportsFixturesWithCtorsThatAssertInstanceE(%rip), %r15
 9001      000000
 9002 0664 488D3D00 		leaq	_ZN12_GLOBAL__N_158adderFixtureCtorAssertsCorrectlyReportsAssertFailureInCtorE(%rip), %rdi
 9002      000000
 9003 066b E8000000 		call	_ZN8UnitTest9ListAdderC1ERNS_8TestListEPNS_4TestE@PLT
 9003      00
 9004 0670 4C89E9   		movq	%r13, %rcx
 9005 0673 4C89F2   		movq	%r14, %rdx
 9006 0676 4C89FF   		movq	%r15, %rdi
 9007 0679 41B8AF00 		movl	$175, %r8d
 9007      0000
 9008 067f 488D3500 		leaq	.LC107(%rip), %rsi
 9008      000000
 9009 0686 E8000000 		call	_ZN8UnitTest4TestC2EPKcS2_S2_i@PLT
 9009      00
 9010 068b 4C89E2   		movq	%r12, %rdx
 9011 068e 4C89FE   		movq	%r15, %rsi
 9012 0691 488D3D00 		leaq	_ZN12_GLOBAL__N_147TestCorrectlyReportsFixturesWithCtorsThatAssertD1Ev(%rip), %rdi
 9012      000000
 9013 0698 488D0500 		leaq	16+_ZTVN12_GLOBAL__N_147TestCorrectlyReportsFixturesWithCtorsThatAssertE(%rip), %rax
 9013      000000
 9014 069f 48890500 		movq	%rax, _ZN12_GLOBAL__N_155testCorrectlyReportsFixturesWithCtorsThatAssertInstanceE(%rip)
 9014      000000
 9015 06a6 E8000000 		call	__cxa_atexit@PLT
 9015      00
 9016 06ab E8000000 		call	_ZN8UnitTest4Test11GetTestListEv@PLT
 9016      00
 9017 06b0 4C89FA   		movq	%r15, %rdx
 9018 06b3 488D3D00 		leaq	_ZN12_GLOBAL__N_148adderCorrectlyReportsFixturesWithCtorsThatAssertE(%rip), %rdi
 9018      000000
 9019 06ba 4C8D3D00 		leaq	_ZN18SuiteSameTestSuite22testDummyTest1InstanceE(%rip), %r15
 9019      000000
 9020 06c1 4889C6   		movq	%rax, %rsi
 9021 06c4 E8000000 		call	_ZN8UnitTest9ListAdderC1ERNS_8TestListEPNS_4TestE@PLT
 9021      00
 9022 06c9 4C89E9   		movq	%r13, %rcx
 9023 06cc 4C89FF   		movq	%r15, %rdi
 9024 06cf 41B8C500 		movl	$197, %r8d
 9024      0000
 9025 06d5 488D1500 		leaq	.LC108(%rip), %rdx
 9025      000000
 9026 06dc 488D3500 		leaq	.LC109(%rip), %rsi
 9026      000000
 9027 06e3 E8000000 		call	_ZN8UnitTest4TestC2EPKcS2_S2_i@PLT
 9027      00
 9028 06e8 4C89E2   		movq	%r12, %rdx
 9029 06eb 4C89FE   		movq	%r15, %rsi
 9030 06ee 488D3D00 		leaq	_ZN18SuiteSameTestSuite14TestDummyTest1D1Ev(%rip), %rdi
 9030      000000
 9031 06f5 488D0500 		leaq	16+_ZTVN18SuiteSameTestSuite14TestDummyTest1E(%rip), %rax
 9031      000000
 9032 06fc 48890500 		movq	%rax, _ZN18SuiteSameTestSuite22testDummyTest1InstanceE(%rip)
 9032      000000
 9033 0703 E8000000 		call	__cxa_atexit@PLT
 9033      00
 9034 0708 E8000000 		call	_ZN8UnitTest4Test11GetTestListEv@PLT
 9034      00
 9035 070d 4C89FA   		movq	%r15, %rdx
 9036 0710 488D3D00 		leaq	_ZN18SuiteSameTestSuite15adderDummyTest1E(%rip), %rdi
 9036      000000
 9037 0717 4889C6   		movq	%rax, %rsi
 9038 071a E8000000 		call	_ZN8UnitTest9ListAdderC1ERNS_8TestListEPNS_4TestE@PLT
 9038      00
 9039 071f 4C89E9   		movq	%r13, %rcx
 9040 0722 4C89F2   		movq	%r14, %rdx
 9041 0725 4C8D2D00 		leaq	testCurrentTestDetailsContainCurrentTestInfoInstance(%rip), %r13
 9041      000000
 9042 072c 41B8CE00 		movl	$206, %r8d
 9042      0000
 9043 0732 4C89EF   		movq	%r13, %rdi
 9044 0735 488D3500 		leaq	.LC0(%rip), %rsi
 9044      000000
 9045 073c E8000000 		call	_ZN8UnitTest4TestC2EPKcS2_S2_i@PLT
 9045      00
 9046 0741 4C89E2   		movq	%r12, %rdx
 9047 0744 4C89EE   		movq	%r13, %rsi
 9048 0747 488D3D00 		leaq	_ZN44TestCurrentTestDetailsContainCurrentTestInfoD1Ev(%rip), %rdi
 9048      000000
 9049 074e 488D0500 		leaq	16+_ZTV44TestCurrentTestDetailsContainCurrentTestInfo(%rip), %rax
 9049      000000
 9050 0755 48890500 		movq	%rax, testCurrentTestDetailsContainCurrentTestInfoInstance(%rip)
 9050      000000
 9051 075c E8000000 		call	__cxa_atexit@PLT
 9051      00
 9052 0761 E8000000 		call	_ZN8UnitTest4Test11GetTestListEv@PLT
 9052      00
 9053 0766 4883C408 		addq	$8, %rsp
 9054              		.cfi_def_cfa_offset 56
 9055 076a 4C89EA   		movq	%r13, %rdx
 9056 076d 488D3D00 		leaq	adderCurrentTestDetailsContainCurrentTestInfo(%rip), %rdi
 9056      000000
 9057 0774 5B       		popq	%rbx
 9058              		.cfi_def_cfa_offset 48
 9059 0775 4889C6   		movq	%rax, %rsi
 9060 0778 5D       		popq	%rbp
 9061              		.cfi_def_cfa_offset 40
 9062 0779 415C     		popq	%r12
 9063              		.cfi_def_cfa_offset 32
 9064 077b 415D     		popq	%r13
 9065              		.cfi_def_cfa_offset 24
 9066 077d 415E     		popq	%r14
 9067              		.cfi_def_cfa_offset 16
 9068 077f 415F     		popq	%r15
 9069              		.cfi_def_cfa_offset 8
 9070 0781 E9000000 		jmp	_ZN8UnitTest9ListAdderC1ERNS_8TestListEPNS_4TestE@PLT
 9070      00
 9071              		.cfi_endproc
 9072              	.LFE1531:
 9074              		.section	.init_array,"aw"
 9075              		.align 8
 9076 0000 00000000 		.quad	_GLOBAL__sub_I__ZN18SuiteSameTestSuite22testDummyTest1InstanceE
 9076      00000000 
 9077              		.weak	_ZTSN8UnitTest15MemoryOutStreamE
 9078              		.section	.rodata._ZTSN8UnitTest15MemoryOutStreamE,"aG",@progbits,_ZTSN8UnitTest15MemoryOutStreamE,
 9079              		.align 16
 9082              	_ZTSN8UnitTest15MemoryOutStreamE:
 9083 0000 4E38556E 		.string	"N8UnitTest15MemoryOutStreamE"
 9083      69745465 
 9083      73743135 
 9083      4D656D6F 
 9083      72794F75 
 9084              		.weak	_ZTIN8UnitTest15MemoryOutStreamE
 9085              		.section	.data.rel.ro._ZTIN8UnitTest15MemoryOutStreamE,"awG",@progbits,_ZTIN8UnitTest15MemoryOutSt
 9086              		.align 8
 9089              	_ZTIN8UnitTest15MemoryOutStreamE:
 9090 0000 00000000 		.quad	_ZTVN10__cxxabiv120__si_class_type_infoE+16
 9090      00000000 
 9091 0008 00000000 		.quad	_ZTSN8UnitTest15MemoryOutStreamE
 9091      00000000 
 9092 0010 00000000 		.quad	_ZTINSt7__cxx1119basic_ostringstreamIcSt11char_traitsIcESaIcEEE
 9092      00000000 
 9093              		.weak	_ZTS17RecordingReporter
 9094              		.section	.rodata._ZTS17RecordingReporter,"aG",@progbits,_ZTS17RecordingReporter,comdat
 9095              		.align 16
 9098              	_ZTS17RecordingReporter:
 9099 0000 31375265 		.string	"17RecordingReporter"
 9099      636F7264 
 9099      696E6752 
 9099      65706F72 
 9099      74657200 
 9100              		.weak	_ZTI17RecordingReporter
 9101              		.section	.data.rel.ro._ZTI17RecordingReporter,"awG",@progbits,_ZTI17RecordingReporter,comdat
 9102              		.align 8
 9105              	_ZTI17RecordingReporter:
 9106 0000 00000000 		.quad	_ZTVN10__cxxabiv120__si_class_type_infoE+16
 9106      00000000 
 9107 0008 00000000 		.quad	_ZTS17RecordingReporter
 9107      00000000 
 9108 0010 00000000 		.quad	_ZTIN8UnitTest12TestReporterE
 9108      00000000 
 9109              		.section	.data.rel.ro,"aw"
 9110              		.align 8
 9113              	_ZTIN12_GLOBAL__N_113TestDummyTestE:
 9114 0000 00000000 		.quad	_ZTVN10__cxxabiv120__si_class_type_infoE+16
 9114      00000000 
 9115 0008 00000000 		.quad	_ZTSN12_GLOBAL__N_113TestDummyTestE
 9115      00000000 
 9116 0010 00000000 		.quad	_ZTIN8UnitTest4TestE
 9116      00000000 
 9117              		.section	.rodata
 9118              		.align 32
 9121              	_ZTSN12_GLOBAL__N_113TestDummyTestE:
 9122 0000 2A4E3132 		.string	"*N12_GLOBAL__N_113TestDummyTestE"
 9122      5F474C4F 
 9122      42414C5F 
 9122      5F4E5F31 
 9122      31335465 
 9123              		.section	.data.rel.ro
 9124              		.align 8
 9127              	_ZTIN12_GLOBAL__N_138TestTestsAreAddedToTheListThroughMacroE:
 9128 0018 00000000 		.quad	_ZTVN10__cxxabiv120__si_class_type_infoE+16
 9128      00000000 
 9129 0020 00000000 		.quad	_ZTSN12_GLOBAL__N_138TestTestsAreAddedToTheListThroughMacroE
 9129      00000000 
 9130 0028 00000000 		.quad	_ZTIN8UnitTest4TestE
 9130      00000000 
 9131              		.section	.rodata
 9132 0021 00000000 		.align 32
 9132      00000000 
 9132      00000000 
 9132      00000000 
 9132      00000000 
 9135              	_ZTSN12_GLOBAL__N_138TestTestsAreAddedToTheListThroughMacroE:
 9136 0040 2A4E3132 		.string	"*N12_GLOBAL__N_138TestTestsAreAddedToTheListThroughMacroE"
 9136      5F474C4F 
 9136      42414C5F 
 9136      5F4E5F31 
 9136      33385465 
 9137              		.section	.data.rel.ro
 9138              		.align 8
 9141              	_ZTIN12_GLOBAL__N_132TestThrowingThingieDummyTestNameE:
 9142 0030 00000000 		.quad	_ZTVN10__cxxabiv120__si_class_type_infoE+16
 9142      00000000 
 9143 0038 00000000 		.quad	_ZTSN12_GLOBAL__N_132TestThrowingThingieDummyTestNameE
 9143      00000000 
 9144 0040 00000000 		.quad	_ZTIN8UnitTest4TestE
 9144      00000000 
 9145              		.section	.rodata
 9146 007a 00000000 		.align 32
 9146      0000
 9149              	_ZTSN12_GLOBAL__N_132TestThrowingThingieDummyTestNameE:
 9150 0080 2A4E3132 		.string	"*N12_GLOBAL__N_132TestThrowingThingieDummyTestNameE"
 9150      5F474C4F 
 9150      42414C5F 
 9150      5F4E5F31 
 9150      33325465 
 9151              		.section	.data.rel.ro
 9152              		.align 8
 9155              	_ZTIN12_GLOBAL__N_157TestExceptionsInFixtureAreReportedAsHappeningInTheFixtureE:
 9156 0048 00000000 		.quad	_ZTVN10__cxxabiv120__si_class_type_infoE+16
 9156      00000000 
 9157 0050 00000000 		.quad	_ZTSN12_GLOBAL__N_157TestExceptionsInFixtureAreReportedAsHappeningInTheFixtureE
 9157      00000000 
 9158 0058 00000000 		.quad	_ZTIN8UnitTest4TestE
 9158      00000000 
 9159              		.section	.rodata
 9160 00b4 00000000 		.align 32
 9160      00000000 
 9160      00000000 
 9163              	_ZTSN12_GLOBAL__N_157TestExceptionsInFixtureAreReportedAsHappeningInTheFixtureE:
 9164 00c0 2A4E3132 		.string	"*N12_GLOBAL__N_157TestExceptionsInFixtureAreReportedAsHappeningInTheFixtureE"
 9164      5F474C4F 
 9164      42414C5F 
 9164      5F4E5F31 
 9164      35375465 
 9165              		.section	.data.rel.ro
 9166              		.align 8
 9169              	_ZTIN12_GLOBAL__N_115SuiteTestSuite144TestSimilarlyNamedTestsInDifferentSuitesWorkE:
 9170 0060 00000000 		.quad	_ZTVN10__cxxabiv120__si_class_type_infoE+16
 9170      00000000 
 9171 0068 00000000 		.quad	_ZTSN12_GLOBAL__N_115SuiteTestSuite144TestSimilarlyNamedTestsInDifferentSuitesWorkE
 9171      00000000 
 9172 0070 00000000 		.quad	_ZTIN8UnitTest4TestE
 9172      00000000 
 9173              		.section	.rodata
 9174 010d 00000000 		.align 32
 9174      00000000 
 9174      00000000 
 9174      00000000 
 9174      000000
 9177              	_ZTSN12_GLOBAL__N_115SuiteTestSuite144TestSimilarlyNamedTestsInDifferentSuitesWorkE:
 9178 0120 2A4E3132 		.string	"*N12_GLOBAL__N_115SuiteTestSuite144TestSimilarlyNamedTestsInDifferentSuitesWorkE"
 9178      5F474C4F 
 9178      42414C5F 
 9178      5F4E5F31 
 9178      31355375 
 9179              		.section	.data.rel.ro
 9180              		.align 8
 9183              	_ZTIN12_GLOBAL__N_115SuiteTestSuite163TestDummyFixtureSimilarlyNamedFixtureTestsInDifferentSuitesWo
 9184 0078 00000000 		.quad	_ZTVN10__cxxabiv120__si_class_type_infoE+16
 9184      00000000 
 9185 0080 00000000 		.quad	_ZTSN12_GLOBAL__N_115SuiteTestSuite163TestDummyFixtureSimilarlyNamedFixtureTestsInDifferentS
 9185      00000000 
 9186 0088 00000000 		.quad	_ZTIN8UnitTest4TestE
 9186      00000000 
 9187              		.section	.rodata
 9188 0171 00000000 		.align 32
 9188      00000000 
 9188      00000000 
 9188      000000
 9191              	_ZTSN12_GLOBAL__N_115SuiteTestSuite163TestDummyFixtureSimilarlyNamedFixtureTestsInDifferentSuitesWo
 9192 0180 2A4E3132 		.string	"*N12_GLOBAL__N_115SuiteTestSuite163TestDummyFixtureSimilarlyNamedFixtureTestsInDifferentS
 9192      5F474C4F 
 9192      42414C5F 
 9192      5F4E5F31 
 9192      31355375 
 9193              		.section	.data.rel.ro
 9194              		.align 8
 9197              	_ZTIN12_GLOBAL__N_115SuiteTestSuite244TestSimilarlyNamedTestsInDifferentSuitesWorkE:
 9198 0090 00000000 		.quad	_ZTVN10__cxxabiv120__si_class_type_infoE+16
 9198      00000000 
 9199 0098 00000000 		.quad	_ZTSN12_GLOBAL__N_115SuiteTestSuite244TestSimilarlyNamedTestsInDifferentSuitesWorkE
 9199      00000000 
 9200 00a0 00000000 		.quad	_ZTIN8UnitTest4TestE
 9200      00000000 
 9201              		.section	.rodata
 9202 01e4 00000000 		.align 32
 9202      00000000 
 9202      00000000 
 9202      00000000 
 9202      00000000 
 9205              	_ZTSN12_GLOBAL__N_115SuiteTestSuite244TestSimilarlyNamedTestsInDifferentSuitesWorkE:
 9206 0200 2A4E3132 		.string	"*N12_GLOBAL__N_115SuiteTestSuite244TestSimilarlyNamedTestsInDifferentSuitesWorkE"
 9206      5F474C4F 
 9206      42414C5F 
 9206      5F4E5F31 
 9206      31355375 
 9207              		.section	.data.rel.ro
 9208              		.align 8
 9211              	_ZTIN12_GLOBAL__N_115SuiteTestSuite263TestDummyFixtureSimilarlyNamedFixtureTestsInDifferentSuitesWo
 9212 00a8 00000000 		.quad	_ZTVN10__cxxabiv120__si_class_type_infoE+16
 9212      00000000 
 9213 00b0 00000000 		.quad	_ZTSN12_GLOBAL__N_115SuiteTestSuite263TestDummyFixtureSimilarlyNamedFixtureTestsInDifferentS
 9213      00000000 
 9214 00b8 00000000 		.quad	_ZTIN8UnitTest4TestE
 9214      00000000 
 9215              		.section	.rodata
 9216 0251 00000000 		.align 32
 9216      00000000 
 9216      00000000 
 9216      000000
 9219              	_ZTSN12_GLOBAL__N_115SuiteTestSuite263TestDummyFixtureSimilarlyNamedFixtureTestsInDifferentSuitesWo
 9220 0260 2A4E3132 		.string	"*N12_GLOBAL__N_115SuiteTestSuite263TestDummyFixtureSimilarlyNamedFixtureTestsInDifferentS
 9220      5F474C4F 
 9220      42414C5F 
 9220      5F4E5F31 
 9220      31355375 
 9221              		.section	.data.rel.ro
 9222              		.align 8
 9225              	_ZTIN12_GLOBAL__N_120TestMacroTestHelper1E:
 9226 00c0 00000000 		.quad	_ZTVN10__cxxabiv120__si_class_type_infoE+16
 9226      00000000 
 9227 00c8 00000000 		.quad	_ZTSN12_GLOBAL__N_120TestMacroTestHelper1E
 9227      00000000 
 9228 00d0 00000000 		.quad	_ZTIN8UnitTest4TestE
 9228      00000000 
 9229              		.section	.rodata
 9230 02c4 00000000 		.align 32
 9230      00000000 
 9230      00000000 
 9230      00000000 
 9230      00000000 
 9233              	_ZTSN12_GLOBAL__N_120TestMacroTestHelper1E:
 9234 02e0 2A4E3132 		.string	"*N12_GLOBAL__N_120TestMacroTestHelper1E"
 9234      5F474C4F 
 9234      42414C5F 
 9234      5F4E5F31 
 9234      32305465 
 9235              		.section	.data.rel.ro
 9236              		.align 8
 9239              	_ZTIN12_GLOBAL__N_145TestTestAddedWithTEST_EXMacroGetsDefaultSuiteE:
 9240 00d8 00000000 		.quad	_ZTVN10__cxxabiv120__si_class_type_infoE+16
 9240      00000000 
 9241 00e0 00000000 		.quad	_ZTSN12_GLOBAL__N_145TestTestAddedWithTEST_EXMacroGetsDefaultSuiteE
 9241      00000000 
 9242 00e8 00000000 		.quad	_ZTIN8UnitTest4TestE
 9242      00000000 
 9243              		.section	.rodata
 9244 0308 00000000 		.align 32
 9244      00000000 
 9244      00000000 
 9244      00000000 
 9244      00000000 
 9247              	_ZTSN12_GLOBAL__N_145TestTestAddedWithTEST_EXMacroGetsDefaultSuiteE:
 9248 0320 2A4E3132 		.string	"*N12_GLOBAL__N_145TestTestAddedWithTEST_EXMacroGetsDefaultSuiteE"
 9248      5F474C4F 
 9248      42414C5F 
 9248      5F4E5F31 
 9248      34355465 
 9249              		.section	.data.rel.ro
 9250              		.align 8
 9253              	_ZTIN12_GLOBAL__N_132TestDummyFixtureMacroTestHelper2E:
 9254 00f0 00000000 		.quad	_ZTVN10__cxxabiv120__si_class_type_infoE+16
 9254      00000000 
 9255 00f8 00000000 		.quad	_ZTSN12_GLOBAL__N_132TestDummyFixtureMacroTestHelper2E
 9255      00000000 
 9256 0100 00000000 		.quad	_ZTIN8UnitTest4TestE
 9256      00000000 
 9257              		.section	.rodata
 9258 0361 00000000 		.align 32
 9258      00000000 
 9258      00000000 
 9258      00000000 
 9258      00000000 
 9261              	_ZTSN12_GLOBAL__N_132TestDummyFixtureMacroTestHelper2E:
 9262 0380 2A4E3132 		.string	"*N12_GLOBAL__N_132TestDummyFixtureMacroTestHelper2E"
 9262      5F474C4F 
 9262      42414C5F 
 9262      5F4E5F31 
 9262      33325465 
 9263              		.section	.data.rel.ro
 9264              		.align 8
 9267              	_ZTIN12_GLOBAL__N_153TestTestAddedWithTEST_FIXTURE_EXMacroGetsDefaultSuiteE:
 9268 0108 00000000 		.quad	_ZTVN10__cxxabiv120__si_class_type_infoE+16
 9268      00000000 
 9269 0110 00000000 		.quad	_ZTSN12_GLOBAL__N_153TestTestAddedWithTEST_FIXTURE_EXMacroGetsDefaultSuiteE
 9269      00000000 
 9270 0118 00000000 		.quad	_ZTIN8UnitTest4TestE
 9270      00000000 
 9271              		.section	.rodata
 9272 03b4 00000000 		.align 32
 9272      00000000 
 9272      00000000 
 9275              	_ZTSN12_GLOBAL__N_153TestTestAddedWithTEST_FIXTURE_EXMacroGetsDefaultSuiteE:
 9276 03c0 2A4E3132 		.string	"*N12_GLOBAL__N_153TestTestAddedWithTEST_FIXTURE_EXMacroGetsDefaultSuiteE"
 9276      5F474C4F 
 9276      42414C5F 
 9276      5F4E5F31 
 9276      35335465 
 9277              		.section	.data.rel.ro
 9278              		.align 8
 9281              	_ZTIN12_GLOBAL__N_146TestFixtureCtorThrowsFixtureCtorThrowsTestNameE:
 9282 0120 00000000 		.quad	_ZTVN10__cxxabiv120__si_class_type_infoE+16
 9282      00000000 
 9283 0128 00000000 		.quad	_ZTSN12_GLOBAL__N_146TestFixtureCtorThrowsFixtureCtorThrowsTestNameE
 9283      00000000 
 9284 0130 00000000 		.quad	_ZTIN8UnitTest4TestE
 9284      00000000 
 9285              		.section	.rodata
 9286 0409 00000000 		.align 32
 9286      00000000 
 9286      00000000 
 9286      00000000 
 9286      00000000 
 9289              	_ZTSN12_GLOBAL__N_146TestFixtureCtorThrowsFixtureCtorThrowsTestNameE:
 9290 0420 2A4E3132 		.string	"*N12_GLOBAL__N_146TestFixtureCtorThrowsFixtureCtorThrowsTestNameE"
 9290      5F474C4F 
 9290      42414C5F 
 9290      5F4E5F31 
 9290      34365465 
 9291              		.section	.data.rel.ro
 9292              		.align 8
 9295              	_ZTIN12_GLOBAL__N_140TestFixturesWithThrowingCtorsAreFailuresE:
 9296 0138 00000000 		.quad	_ZTVN10__cxxabiv120__si_class_type_infoE+16
 9296      00000000 
 9297 0140 00000000 		.quad	_ZTSN12_GLOBAL__N_140TestFixturesWithThrowingCtorsAreFailuresE
 9297      00000000 
 9298 0148 00000000 		.quad	_ZTIN8UnitTest4TestE
 9298      00000000 
 9299              		.section	.rodata
 9300 0462 00000000 		.align 32
 9300      00000000 
 9300      00000000 
 9300      00000000 
 9300      00000000 
 9303              	_ZTSN12_GLOBAL__N_140TestFixturesWithThrowingCtorsAreFailuresE:
 9304 0480 2A4E3132 		.string	"*N12_GLOBAL__N_140TestFixturesWithThrowingCtorsAreFailuresE"
 9304      5F474C4F 
 9304      42414C5F 
 9304      5F4E5F31 
 9304      34305465 
 9305              		.section	.data.rel.ro
 9306              		.align 8
 9309              	_ZTIN12_GLOBAL__N_146TestFixtureDtorThrowsFixtureDtorThrowsTestNameE:
 9310 0150 00000000 		.quad	_ZTVN10__cxxabiv120__si_class_type_infoE+16
 9310      00000000 
 9311 0158 00000000 		.quad	_ZTSN12_GLOBAL__N_146TestFixtureDtorThrowsFixtureDtorThrowsTestNameE
 9311      00000000 
 9312 0160 00000000 		.quad	_ZTIN8UnitTest4TestE
 9312      00000000 
 9313              		.section	.rodata
 9314 04bc 00000000 		.align 32
 9317              	_ZTSN12_GLOBAL__N_146TestFixtureDtorThrowsFixtureDtorThrowsTestNameE:
 9318 04c0 2A4E3132 		.string	"*N12_GLOBAL__N_146TestFixtureDtorThrowsFixtureDtorThrowsTestNameE"
 9318      5F474C4F 
 9318      42414C5F 
 9318      5F4E5F31 
 9318      34365465 
 9319              		.section	.data.rel.ro
 9320              		.align 8
 9323              	_ZTIN12_GLOBAL__N_140TestFixturesWithThrowingDtorsAreFailuresE:
 9324 0168 00000000 		.quad	_ZTVN10__cxxabiv120__si_class_type_infoE+16
 9324      00000000 
 9325 0170 00000000 		.quad	_ZTSN12_GLOBAL__N_140TestFixturesWithThrowingDtorsAreFailuresE
 9325      00000000 
 9326 0178 00000000 		.quad	_ZTIN8UnitTest4TestE
 9326      00000000 
 9327              		.section	.rodata
 9328 0502 00000000 		.align 32
 9328      00000000 
 9328      00000000 
 9328      00000000 
 9328      00000000 
 9331              	_ZTSN12_GLOBAL__N_140TestFixturesWithThrowingDtorsAreFailuresE:
 9332 0520 2A4E3132 		.string	"*N12_GLOBAL__N_140TestFixturesWithThrowingDtorsAreFailuresE"
 9332      5F474C4F 
 9332      42414C5F 
 9332      5F4E5F31 
 9332      34305465 
 9333              		.section	.data.rel.ro
 9334              		.align 8
 9337              	_ZTIN12_GLOBAL__N_157TestFixtureCtorAssertsCorrectlyReportsAssertFailureInCtorE:
 9338 0180 00000000 		.quad	_ZTVN10__cxxabiv120__si_class_type_infoE+16
 9338      00000000 
 9339 0188 00000000 		.quad	_ZTSN12_GLOBAL__N_157TestFixtureCtorAssertsCorrectlyReportsAssertFailureInCtorE
 9339      00000000 
 9340 0190 00000000 		.quad	_ZTIN8UnitTest4TestE
 9340      00000000 
 9341              		.section	.rodata
 9342 055c 00000000 		.align 32
 9345              	_ZTSN12_GLOBAL__N_157TestFixtureCtorAssertsCorrectlyReportsAssertFailureInCtorE:
 9346 0560 2A4E3132 		.string	"*N12_GLOBAL__N_157TestFixtureCtorAssertsCorrectlyReportsAssertFailureInCtorE"
 9346      5F474C4F 
 9346      42414C5F 
 9346      5F4E5F31 
 9346      35375465 
 9347              		.section	.data.rel.ro
 9348              		.align 8
 9351              	_ZTIN12_GLOBAL__N_147TestCorrectlyReportsFixturesWithCtorsThatAssertE:
 9352 0198 00000000 		.quad	_ZTVN10__cxxabiv120__si_class_type_infoE+16
 9352      00000000 
 9353 01a0 00000000 		.quad	_ZTSN12_GLOBAL__N_147TestCorrectlyReportsFixturesWithCtorsThatAssertE
 9353      00000000 
 9354 01a8 00000000 		.quad	_ZTIN8UnitTest4TestE
 9354      00000000 
 9355              		.section	.rodata
 9356 05ad 00000000 		.align 32
 9356      00000000 
 9356      00000000 
 9356      00000000 
 9356      000000
 9359              	_ZTSN12_GLOBAL__N_147TestCorrectlyReportsFixturesWithCtorsThatAssertE:
 9360 05c0 2A4E3132 		.string	"*N12_GLOBAL__N_147TestCorrectlyReportsFixturesWithCtorsThatAssertE"
 9360      5F474C4F 
 9360      42414C5F 
 9360      5F4E5F31 
 9360      34375465 
 9361              		.weak	_ZTSN18SuiteSameTestSuite14TestDummyTest1E
 9362              		.section	.rodata._ZTSN18SuiteSameTestSuite14TestDummyTest1E,"aG",@progbits,_ZTSN18SuiteSameTestSui
 9363              		.align 32
 9366              	_ZTSN18SuiteSameTestSuite14TestDummyTest1E:
 9367 0000 4E313853 		.string	"N18SuiteSameTestSuite14TestDummyTest1E"
 9367      75697465 
 9367      53616D65 
 9367      54657374 
 9367      53756974 
 9368              		.weak	_ZTIN18SuiteSameTestSuite14TestDummyTest1E
 9369              		.section	.data.rel.ro._ZTIN18SuiteSameTestSuite14TestDummyTest1E,"awG",@progbits,_ZTIN18SuiteSameT
 9370              		.align 8
 9373              	_ZTIN18SuiteSameTestSuite14TestDummyTest1E:
 9374 0000 00000000 		.quad	_ZTVN10__cxxabiv120__si_class_type_infoE+16
 9374      00000000 
 9375 0008 00000000 		.quad	_ZTSN18SuiteSameTestSuite14TestDummyTest1E
 9375      00000000 
 9376 0010 00000000 		.quad	_ZTIN8UnitTest4TestE
 9376      00000000 
 9377              		.weak	_ZTS44TestCurrentTestDetailsContainCurrentTestInfo
 9378              		.section	.rodata._ZTS44TestCurrentTestDetailsContainCurrentTestInfo,"aG",@progbits,_ZTS44TestCurre
 9379              		.align 32
 9382              	_ZTS44TestCurrentTestDetailsContainCurrentTestInfo:
 9383 0000 34345465 		.string	"44TestCurrentTestDetailsContainCurrentTestInfo"
 9383      73744375 
 9383      7272656E 
 9383      74546573 
 9383      74446574 
 9384              		.weak	_ZTI44TestCurrentTestDetailsContainCurrentTestInfo
 9385              		.section	.data.rel.ro._ZTI44TestCurrentTestDetailsContainCurrentTestInfo,"awG",@progbits,_ZTI44Tes
 9386              		.align 8
 9389              	_ZTI44TestCurrentTestDetailsContainCurrentTestInfo:
 9390 0000 00000000 		.quad	_ZTVN10__cxxabiv120__si_class_type_infoE+16
 9390      00000000 
 9391 0008 00000000 		.quad	_ZTS44TestCurrentTestDetailsContainCurrentTestInfo
 9391      00000000 
 9392 0010 00000000 		.quad	_ZTIN8UnitTest4TestE
 9392      00000000 
 9393              		.hidden	_ZTCN8UnitTest15MemoryOutStreamE0_So
 9394              		.weak	_ZTCN8UnitTest15MemoryOutStreamE0_So
 9395              		.section	.data.rel.ro._ZTCN8UnitTest15MemoryOutStreamE0_So,"awG",@progbits,_ZTVN8UnitTest15MemoryO
 9396              		.align 8
 9399              	_ZTCN8UnitTest15MemoryOutStreamE0_So:
 9400 0000 90000000 		.quad	144
 9400      00000000 
 9401 0008 00000000 		.quad	0
 9401      00000000 
 9402 0010 00000000 		.quad	_ZTISo
 9402      00000000 
 9403 0018 00000000 		.quad	0
 9403      00000000 
 9404 0020 00000000 		.quad	0
 9404      00000000 
 9405 0028 70FFFFFF 		.quad	-144
 9405      FFFFFFFF 
 9406 0030 70FFFFFF 		.quad	-144
 9406      FFFFFFFF 
 9407 0038 00000000 		.quad	_ZTISo
 9407      00000000 
 9408 0040 00000000 		.quad	0
 9408      00000000 
 9409 0048 00000000 		.quad	0
 9409      00000000 
 9410              		.hidden	_ZTCN8UnitTest15MemoryOutStreamE0_NSt7__cxx1119basic_ostringstreamIcSt11char_traitsIcESaIc
 9411              		.weak	_ZTCN8UnitTest15MemoryOutStreamE0_NSt7__cxx1119basic_ostringstreamIcSt11char_traitsIcESaIcEE
 9412              		.section	.data.rel.ro._ZTCN8UnitTest15MemoryOutStreamE0_NSt7__cxx1119basic_ostringstreamIcSt11char
 9413              		.align 8
 9416              	_ZTCN8UnitTest15MemoryOutStreamE0_NSt7__cxx1119basic_ostringstreamIcSt11char_traitsIcESaIcEEE:
 9417 0000 90000000 		.quad	144
 9417      00000000 
 9418 0008 00000000 		.quad	0
 9418      00000000 
 9419 0010 00000000 		.quad	_ZTINSt7__cxx1119basic_ostringstreamIcSt11char_traitsIcESaIcEEE
 9419      00000000 
 9420 0018 00000000 		.quad	0
 9420      00000000 
 9421 0020 00000000 		.quad	0
 9421      00000000 
 9422 0028 70FFFFFF 		.quad	-144
 9422      FFFFFFFF 
 9423 0030 70FFFFFF 		.quad	-144
 9423      FFFFFFFF 
 9424 0038 00000000 		.quad	_ZTINSt7__cxx1119basic_ostringstreamIcSt11char_traitsIcESaIcEEE
 9424      00000000 
 9425 0040 00000000 		.quad	0
 9425      00000000 
 9426 0048 00000000 		.quad	0
 9426      00000000 
 9427              		.weak	_ZTTN8UnitTest15MemoryOutStreamE
 9428              		.section	.data.rel.ro.local._ZTTN8UnitTest15MemoryOutStreamE,"awG",@progbits,_ZTVN8UnitTest15Memor
 9429              		.align 8
 9432              	_ZTTN8UnitTest15MemoryOutStreamE:
 9433 0000 00000000 		.quad	_ZTVN8UnitTest15MemoryOutStreamE+24
 9433      00000000 
 9434 0008 00000000 		.quad	_ZTCN8UnitTest15MemoryOutStreamE0_NSt7__cxx1119basic_ostringstreamIcSt11char_traitsIcESaIcEE
 9434      00000000 
 9435 0010 00000000 		.quad	_ZTCN8UnitTest15MemoryOutStreamE0_So+24
 9435      00000000 
 9436 0018 00000000 		.quad	_ZTCN8UnitTest15MemoryOutStreamE0_So+64
 9436      00000000 
 9437 0020 00000000 		.quad	_ZTCN8UnitTest15MemoryOutStreamE0_NSt7__cxx1119basic_ostringstreamIcSt11char_traitsIcESaIcEE
 9437      00000000 
 9438 0028 00000000 		.quad	_ZTVN8UnitTest15MemoryOutStreamE+64
 9438      00000000 
 9439              		.weak	_ZTVN8UnitTest15MemoryOutStreamE
 9440              		.section	.data.rel.ro.local._ZTVN8UnitTest15MemoryOutStreamE,"awG",@progbits,_ZTVN8UnitTest15Memor
 9441              		.align 8
 9444              	_ZTVN8UnitTest15MemoryOutStreamE:
 9445 0000 90000000 		.quad	144
 9445      00000000 
 9446 0008 00000000 		.quad	0
 9446      00000000 
 9447 0010 00000000 		.quad	_ZTIN8UnitTest15MemoryOutStreamE
 9447      00000000 
 9448 0018 00000000 		.quad	_ZN8UnitTest15MemoryOutStreamD1Ev
 9448      00000000 
 9449 0020 00000000 		.quad	_ZN8UnitTest15MemoryOutStreamD0Ev
 9449      00000000 
 9450 0028 70FFFFFF 		.quad	-144
 9450      FFFFFFFF 
 9451 0030 70FFFFFF 		.quad	-144
 9451      FFFFFFFF 
 9452 0038 00000000 		.quad	_ZTIN8UnitTest15MemoryOutStreamE
 9452      00000000 
 9453 0040 00000000 		.quad	_ZTv0_n24_N8UnitTest15MemoryOutStreamD1Ev
 9453      00000000 
 9454 0048 00000000 		.quad	_ZTv0_n24_N8UnitTest15MemoryOutStreamD0Ev
 9454      00000000 
 9455              		.weak	_ZTV17RecordingReporter
 9456              		.section	.data.rel.ro.local._ZTV17RecordingReporter,"awG",@progbits,_ZTV17RecordingReporter,comdat
 9457              		.align 8
 9460              	_ZTV17RecordingReporter:
 9461 0000 00000000 		.quad	0
 9461      00000000 
 9462 0008 00000000 		.quad	_ZTI17RecordingReporter
 9462      00000000 
 9463 0010 00000000 		.quad	_ZN17RecordingReporterD1Ev
 9463      00000000 
 9464 0018 00000000 		.quad	_ZN17RecordingReporterD0Ev
 9464      00000000 
 9465 0020 00000000 		.quad	_ZN17RecordingReporter15ReportTestStartERKN8UnitTest11TestDetailsE
 9465      00000000 
 9466 0028 00000000 		.quad	_ZN17RecordingReporter13ReportFailureERKN8UnitTest11TestDetailsEPKc
 9466      00000000 
 9467 0030 00000000 		.quad	_ZN17RecordingReporter16ReportTestFinishERKN8UnitTest11TestDetailsEf
 9467      00000000 
 9468 0038 00000000 		.quad	_ZN17RecordingReporter13ReportSummaryEiiif
 9468      00000000 
 9469              		.section	.data.rel.ro.local,"aw"
 9470              		.align 8
 9473              	_ZTVN12_GLOBAL__N_113TestDummyTestE:
 9474 0000 00000000 		.quad	0
 9474      00000000 
 9475 0008 00000000 		.quad	_ZTIN12_GLOBAL__N_113TestDummyTestE
 9475      00000000 
 9476 0010 00000000 		.quad	_ZN12_GLOBAL__N_113TestDummyTestD1Ev
 9476      00000000 
 9477 0018 00000000 		.quad	_ZN12_GLOBAL__N_113TestDummyTestD0Ev
 9477      00000000 
 9478 0020 00000000 		.quad	_ZNK12_GLOBAL__N_113TestDummyTest7RunImplEv
 9478      00000000 
 9479              		.align 8
 9482              	_ZTVN12_GLOBAL__N_138TestTestsAreAddedToTheListThroughMacroE:
 9483 0028 00000000 		.quad	0
 9483      00000000 
 9484 0030 00000000 		.quad	_ZTIN12_GLOBAL__N_138TestTestsAreAddedToTheListThroughMacroE
 9484      00000000 
 9485 0038 00000000 		.quad	_ZN12_GLOBAL__N_138TestTestsAreAddedToTheListThroughMacroD1Ev
 9485      00000000 
 9486 0040 00000000 		.quad	_ZN12_GLOBAL__N_138TestTestsAreAddedToTheListThroughMacroD0Ev
 9486      00000000 
 9487 0048 00000000 		.quad	_ZNK12_GLOBAL__N_138TestTestsAreAddedToTheListThroughMacro7RunImplEv
 9487      00000000 
 9488              		.align 8
 9491              	_ZTVN12_GLOBAL__N_132TestThrowingThingieDummyTestNameE:
 9492 0050 00000000 		.quad	0
 9492      00000000 
 9493 0058 00000000 		.quad	_ZTIN12_GLOBAL__N_132TestThrowingThingieDummyTestNameE
 9493      00000000 
 9494 0060 00000000 		.quad	_ZN12_GLOBAL__N_132TestThrowingThingieDummyTestNameD1Ev
 9494      00000000 
 9495 0068 00000000 		.quad	_ZN12_GLOBAL__N_132TestThrowingThingieDummyTestNameD0Ev
 9495      00000000 
 9496 0070 00000000 		.quad	_ZNK12_GLOBAL__N_132TestThrowingThingieDummyTestName7RunImplEv
 9496      00000000 
 9497              		.align 8
 9500              	_ZTVN12_GLOBAL__N_157TestExceptionsInFixtureAreReportedAsHappeningInTheFixtureE:
 9501 0078 00000000 		.quad	0
 9501      00000000 
 9502 0080 00000000 		.quad	_ZTIN12_GLOBAL__N_157TestExceptionsInFixtureAreReportedAsHappeningInTheFixtureE
 9502      00000000 
 9503 0088 00000000 		.quad	_ZN12_GLOBAL__N_157TestExceptionsInFixtureAreReportedAsHappeningInTheFixtureD1Ev
 9503      00000000 
 9504 0090 00000000 		.quad	_ZN12_GLOBAL__N_157TestExceptionsInFixtureAreReportedAsHappeningInTheFixtureD0Ev
 9504      00000000 
 9505 0098 00000000 		.quad	_ZNK12_GLOBAL__N_157TestExceptionsInFixtureAreReportedAsHappeningInTheFixture7RunImplEv
 9505      00000000 
 9506              		.align 8
 9509              	_ZTVN12_GLOBAL__N_115SuiteTestSuite144TestSimilarlyNamedTestsInDifferentSuitesWorkE:
 9510 00a0 00000000 		.quad	0
 9510      00000000 
 9511 00a8 00000000 		.quad	_ZTIN12_GLOBAL__N_115SuiteTestSuite144TestSimilarlyNamedTestsInDifferentSuitesWorkE
 9511      00000000 
 9512 00b0 00000000 		.quad	_ZN12_GLOBAL__N_115SuiteTestSuite144TestSimilarlyNamedTestsInDifferentSuitesWorkD1Ev
 9512      00000000 
 9513 00b8 00000000 		.quad	_ZN12_GLOBAL__N_115SuiteTestSuite144TestSimilarlyNamedTestsInDifferentSuitesWorkD0Ev
 9513      00000000 
 9514 00c0 00000000 		.quad	_ZNK12_GLOBAL__N_115SuiteTestSuite144TestSimilarlyNamedTestsInDifferentSuitesWork7RunImplEv
 9514      00000000 
 9515              		.align 8
 9518              	_ZTVN12_GLOBAL__N_115SuiteTestSuite163TestDummyFixtureSimilarlyNamedFixtureTestsInDifferentSuitesWo
 9519 00c8 00000000 		.quad	0
 9519      00000000 
 9520 00d0 00000000 		.quad	_ZTIN12_GLOBAL__N_115SuiteTestSuite163TestDummyFixtureSimilarlyNamedFixtureTestsInDifferentS
 9520      00000000 
 9521 00d8 00000000 		.quad	_ZN12_GLOBAL__N_115SuiteTestSuite163TestDummyFixtureSimilarlyNamedFixtureTestsInDifferentSui
 9521      00000000 
 9522 00e0 00000000 		.quad	_ZN12_GLOBAL__N_115SuiteTestSuite163TestDummyFixtureSimilarlyNamedFixtureTestsInDifferentSui
 9522      00000000 
 9523 00e8 00000000 		.quad	_ZNK12_GLOBAL__N_115SuiteTestSuite163TestDummyFixtureSimilarlyNamedFixtureTestsInDifferentSu
 9523      00000000 
 9524              		.align 8
 9527              	_ZTVN12_GLOBAL__N_115SuiteTestSuite244TestSimilarlyNamedTestsInDifferentSuitesWorkE:
 9528 00f0 00000000 		.quad	0
 9528      00000000 
 9529 00f8 00000000 		.quad	_ZTIN12_GLOBAL__N_115SuiteTestSuite244TestSimilarlyNamedTestsInDifferentSuitesWorkE
 9529      00000000 
 9530 0100 00000000 		.quad	_ZN12_GLOBAL__N_115SuiteTestSuite244TestSimilarlyNamedTestsInDifferentSuitesWorkD1Ev
 9530      00000000 
 9531 0108 00000000 		.quad	_ZN12_GLOBAL__N_115SuiteTestSuite244TestSimilarlyNamedTestsInDifferentSuitesWorkD0Ev
 9531      00000000 
 9532 0110 00000000 		.quad	_ZNK12_GLOBAL__N_115SuiteTestSuite244TestSimilarlyNamedTestsInDifferentSuitesWork7RunImplEv
 9532      00000000 
 9533              		.align 8
 9536              	_ZTVN12_GLOBAL__N_115SuiteTestSuite263TestDummyFixtureSimilarlyNamedFixtureTestsInDifferentSuitesWo
 9537 0118 00000000 		.quad	0
 9537      00000000 
 9538 0120 00000000 		.quad	_ZTIN12_GLOBAL__N_115SuiteTestSuite263TestDummyFixtureSimilarlyNamedFixtureTestsInDifferentS
 9538      00000000 
 9539 0128 00000000 		.quad	_ZN12_GLOBAL__N_115SuiteTestSuite263TestDummyFixtureSimilarlyNamedFixtureTestsInDifferentSui
 9539      00000000 
 9540 0130 00000000 		.quad	_ZN12_GLOBAL__N_115SuiteTestSuite263TestDummyFixtureSimilarlyNamedFixtureTestsInDifferentSui
 9540      00000000 
 9541 0138 00000000 		.quad	_ZNK12_GLOBAL__N_115SuiteTestSuite263TestDummyFixtureSimilarlyNamedFixtureTestsInDifferentSu
 9541      00000000 
 9542              		.align 8
 9545              	_ZTVN12_GLOBAL__N_120TestMacroTestHelper1E:
 9546 0140 00000000 		.quad	0
 9546      00000000 
 9547 0148 00000000 		.quad	_ZTIN12_GLOBAL__N_120TestMacroTestHelper1E
 9547      00000000 
 9548 0150 00000000 		.quad	_ZN12_GLOBAL__N_120TestMacroTestHelper1D1Ev
 9548      00000000 
 9549 0158 00000000 		.quad	_ZN12_GLOBAL__N_120TestMacroTestHelper1D0Ev
 9549      00000000 
 9550 0160 00000000 		.quad	_ZNK12_GLOBAL__N_120TestMacroTestHelper17RunImplEv
 9550      00000000 
 9551              		.align 8
 9554              	_ZTVN12_GLOBAL__N_145TestTestAddedWithTEST_EXMacroGetsDefaultSuiteE:
 9555 0168 00000000 		.quad	0
 9555      00000000 
 9556 0170 00000000 		.quad	_ZTIN12_GLOBAL__N_145TestTestAddedWithTEST_EXMacroGetsDefaultSuiteE
 9556      00000000 
 9557 0178 00000000 		.quad	_ZN12_GLOBAL__N_145TestTestAddedWithTEST_EXMacroGetsDefaultSuiteD1Ev
 9557      00000000 
 9558 0180 00000000 		.quad	_ZN12_GLOBAL__N_145TestTestAddedWithTEST_EXMacroGetsDefaultSuiteD0Ev
 9558      00000000 
 9559 0188 00000000 		.quad	_ZNK12_GLOBAL__N_145TestTestAddedWithTEST_EXMacroGetsDefaultSuite7RunImplEv
 9559      00000000 
 9560              		.align 8
 9563              	_ZTVN12_GLOBAL__N_132TestDummyFixtureMacroTestHelper2E:
 9564 0190 00000000 		.quad	0
 9564      00000000 
 9565 0198 00000000 		.quad	_ZTIN12_GLOBAL__N_132TestDummyFixtureMacroTestHelper2E
 9565      00000000 
 9566 01a0 00000000 		.quad	_ZN12_GLOBAL__N_132TestDummyFixtureMacroTestHelper2D1Ev
 9566      00000000 
 9567 01a8 00000000 		.quad	_ZN12_GLOBAL__N_132TestDummyFixtureMacroTestHelper2D0Ev
 9567      00000000 
 9568 01b0 00000000 		.quad	_ZNK12_GLOBAL__N_132TestDummyFixtureMacroTestHelper27RunImplEv
 9568      00000000 
 9569              		.align 8
 9572              	_ZTVN12_GLOBAL__N_153TestTestAddedWithTEST_FIXTURE_EXMacroGetsDefaultSuiteE:
 9573 01b8 00000000 		.quad	0
 9573      00000000 
 9574 01c0 00000000 		.quad	_ZTIN12_GLOBAL__N_153TestTestAddedWithTEST_FIXTURE_EXMacroGetsDefaultSuiteE
 9574      00000000 
 9575 01c8 00000000 		.quad	_ZN12_GLOBAL__N_153TestTestAddedWithTEST_FIXTURE_EXMacroGetsDefaultSuiteD1Ev
 9575      00000000 
 9576 01d0 00000000 		.quad	_ZN12_GLOBAL__N_153TestTestAddedWithTEST_FIXTURE_EXMacroGetsDefaultSuiteD0Ev
 9576      00000000 
 9577 01d8 00000000 		.quad	_ZNK12_GLOBAL__N_153TestTestAddedWithTEST_FIXTURE_EXMacroGetsDefaultSuite7RunImplEv
 9577      00000000 
 9578              		.align 8
 9581              	_ZTVN12_GLOBAL__N_146TestFixtureCtorThrowsFixtureCtorThrowsTestNameE:
 9582 01e0 00000000 		.quad	0
 9582      00000000 
 9583 01e8 00000000 		.quad	_ZTIN12_GLOBAL__N_146TestFixtureCtorThrowsFixtureCtorThrowsTestNameE
 9583      00000000 
 9584 01f0 00000000 		.quad	_ZN12_GLOBAL__N_146TestFixtureCtorThrowsFixtureCtorThrowsTestNameD1Ev
 9584      00000000 
 9585 01f8 00000000 		.quad	_ZN12_GLOBAL__N_146TestFixtureCtorThrowsFixtureCtorThrowsTestNameD0Ev
 9585      00000000 
 9586 0200 00000000 		.quad	_ZNK12_GLOBAL__N_146TestFixtureCtorThrowsFixtureCtorThrowsTestName7RunImplEv
 9586      00000000 
 9587              		.align 8
 9590              	_ZTVN12_GLOBAL__N_140TestFixturesWithThrowingCtorsAreFailuresE:
 9591 0208 00000000 		.quad	0
 9591      00000000 
 9592 0210 00000000 		.quad	_ZTIN12_GLOBAL__N_140TestFixturesWithThrowingCtorsAreFailuresE
 9592      00000000 
 9593 0218 00000000 		.quad	_ZN12_GLOBAL__N_140TestFixturesWithThrowingCtorsAreFailuresD1Ev
 9593      00000000 
 9594 0220 00000000 		.quad	_ZN12_GLOBAL__N_140TestFixturesWithThrowingCtorsAreFailuresD0Ev
 9594      00000000 
 9595 0228 00000000 		.quad	_ZNK12_GLOBAL__N_140TestFixturesWithThrowingCtorsAreFailures7RunImplEv
 9595      00000000 
 9596              		.align 8
 9599              	_ZTVN12_GLOBAL__N_146TestFixtureDtorThrowsFixtureDtorThrowsTestNameE:
 9600 0230 00000000 		.quad	0
 9600      00000000 
 9601 0238 00000000 		.quad	_ZTIN12_GLOBAL__N_146TestFixtureDtorThrowsFixtureDtorThrowsTestNameE
 9601      00000000 
 9602 0240 00000000 		.quad	_ZN12_GLOBAL__N_146TestFixtureDtorThrowsFixtureDtorThrowsTestNameD1Ev
 9602      00000000 
 9603 0248 00000000 		.quad	_ZN12_GLOBAL__N_146TestFixtureDtorThrowsFixtureDtorThrowsTestNameD0Ev
 9603      00000000 
 9604 0250 00000000 		.quad	_ZNK12_GLOBAL__N_146TestFixtureDtorThrowsFixtureDtorThrowsTestName7RunImplEv
 9604      00000000 
 9605              		.align 8
 9608              	_ZTVN12_GLOBAL__N_140TestFixturesWithThrowingDtorsAreFailuresE:
 9609 0258 00000000 		.quad	0
 9609      00000000 
 9610 0260 00000000 		.quad	_ZTIN12_GLOBAL__N_140TestFixturesWithThrowingDtorsAreFailuresE
 9610      00000000 
 9611 0268 00000000 		.quad	_ZN12_GLOBAL__N_140TestFixturesWithThrowingDtorsAreFailuresD1Ev
 9611      00000000 
 9612 0270 00000000 		.quad	_ZN12_GLOBAL__N_140TestFixturesWithThrowingDtorsAreFailuresD0Ev
 9612      00000000 
 9613 0278 00000000 		.quad	_ZNK12_GLOBAL__N_140TestFixturesWithThrowingDtorsAreFailures7RunImplEv
 9613      00000000 
 9614              		.align 8
 9617              	_ZTVN12_GLOBAL__N_157TestFixtureCtorAssertsCorrectlyReportsAssertFailureInCtorE:
 9618 0280 00000000 		.quad	0
 9618      00000000 
 9619 0288 00000000 		.quad	_ZTIN12_GLOBAL__N_157TestFixtureCtorAssertsCorrectlyReportsAssertFailureInCtorE
 9619      00000000 
 9620 0290 00000000 		.quad	_ZN12_GLOBAL__N_157TestFixtureCtorAssertsCorrectlyReportsAssertFailureInCtorD1Ev
 9620      00000000 
 9621 0298 00000000 		.quad	_ZN12_GLOBAL__N_157TestFixtureCtorAssertsCorrectlyReportsAssertFailureInCtorD0Ev
 9621      00000000 
 9622 02a0 00000000 		.quad	_ZNK12_GLOBAL__N_157TestFixtureCtorAssertsCorrectlyReportsAssertFailureInCtor7RunImplEv
 9622      00000000 
 9623              		.align 8
 9626              	_ZTVN12_GLOBAL__N_147TestCorrectlyReportsFixturesWithCtorsThatAssertE:
 9627 02a8 00000000 		.quad	0
 9627      00000000 
 9628 02b0 00000000 		.quad	_ZTIN12_GLOBAL__N_147TestCorrectlyReportsFixturesWithCtorsThatAssertE
 9628      00000000 
 9629 02b8 00000000 		.quad	_ZN12_GLOBAL__N_147TestCorrectlyReportsFixturesWithCtorsThatAssertD1Ev
 9629      00000000 
 9630 02c0 00000000 		.quad	_ZN12_GLOBAL__N_147TestCorrectlyReportsFixturesWithCtorsThatAssertD0Ev
 9630      00000000 
 9631 02c8 00000000 		.quad	_ZNK12_GLOBAL__N_147TestCorrectlyReportsFixturesWithCtorsThatAssert7RunImplEv
 9631      00000000 
 9632              		.weak	_ZTVN18SuiteSameTestSuite14TestDummyTest1E
 9633              		.section	.data.rel.ro.local._ZTVN18SuiteSameTestSuite14TestDummyTest1E,"awG",@progbits,_ZTVN18Suit
 9634              		.align 8
 9637              	_ZTVN18SuiteSameTestSuite14TestDummyTest1E:
 9638 0000 00000000 		.quad	0
 9638      00000000 
 9639 0008 00000000 		.quad	_ZTIN18SuiteSameTestSuite14TestDummyTest1E
 9639      00000000 
 9640 0010 00000000 		.quad	_ZN18SuiteSameTestSuite14TestDummyTest1D1Ev
 9640      00000000 
 9641 0018 00000000 		.quad	_ZN18SuiteSameTestSuite14TestDummyTest1D0Ev
 9641      00000000 
 9642 0020 00000000 		.quad	_ZNK18SuiteSameTestSuite14TestDummyTest17RunImplEv
 9642      00000000 
 9643              		.weak	_ZTV44TestCurrentTestDetailsContainCurrentTestInfo
 9644              		.section	.data.rel.ro.local._ZTV44TestCurrentTestDetailsContainCurrentTestInfo,"awG",@progbits,_ZT
 9645              		.align 8
 9648              	_ZTV44TestCurrentTestDetailsContainCurrentTestInfo:
 9649 0000 00000000 		.quad	0
 9649      00000000 
 9650 0008 00000000 		.quad	_ZTI44TestCurrentTestDetailsContainCurrentTestInfo
 9650      00000000 
 9651 0010 00000000 		.quad	_ZN44TestCurrentTestDetailsContainCurrentTestInfoD1Ev
 9651      00000000 
 9652 0018 00000000 		.quad	_ZN44TestCurrentTestDetailsContainCurrentTestInfoD0Ev
 9652      00000000 
 9653 0020 00000000 		.quad	_ZNK44TestCurrentTestDetailsContainCurrentTestInfo7RunImplEv
 9653      00000000 
 9654              		.globl	adderCurrentTestDetailsContainCurrentTestInfo
 9655              		.bss
 9658              	adderCurrentTestDetailsContainCurrentTestInfo:
 9659 0000 00       		.zero	1
 9660              		.globl	testCurrentTestDetailsContainCurrentTestInfoInstance
 9661 0001 00000000 		.align 32
 9661      00000000 
 9661      00000000 
 9661      00000000 
 9661      00000000 
 9664              	testCurrentTestDetailsContainCurrentTestInfoInstance:
 9665 0020 00000000 		.zero	56
 9665      00000000 
 9665      00000000 
 9665      00000000 
 9665      00000000 
 9666              		.globl	_ZN18SuiteSameTestSuite15adderDummyTest1E
 9669              	_ZN18SuiteSameTestSuite15adderDummyTest1E:
 9670 0058 00       		.zero	1
 9671              		.globl	_ZN18SuiteSameTestSuite22testDummyTest1InstanceE
 9672 0059 00000000 		.align 32
 9672      000000
 9675              	_ZN18SuiteSameTestSuite22testDummyTest1InstanceE:
 9676 0060 00000000 		.zero	56
 9676      00000000 
 9676      00000000 
 9676      00000000 
 9676      00000000 
 9677              		.local	_ZN12_GLOBAL__N_148adderCorrectlyReportsFixturesWithCtorsThatAssertE
 9678              		.comm	_ZN12_GLOBAL__N_148adderCorrectlyReportsFixturesWithCtorsThatAssertE,1,1
 9679              		.local	_ZN12_GLOBAL__N_155testCorrectlyReportsFixturesWithCtorsThatAssertInstanceE
 9680              		.comm	_ZN12_GLOBAL__N_155testCorrectlyReportsFixturesWithCtorsThatAssertInstanceE,56,32
 9681              		.local	_ZN12_GLOBAL__N_158adderFixtureCtorAssertsCorrectlyReportsAssertFailureInCtorE
 9682              		.comm	_ZN12_GLOBAL__N_158adderFixtureCtorAssertsCorrectlyReportsAssertFailureInCtorE,1,1
 9683              		.local	_ZN12_GLOBAL__N_165testFixtureCtorAssertsCorrectlyReportsAssertFailureInCtorInstanceE
 9684              		.comm	_ZN12_GLOBAL__N_165testFixtureCtorAssertsCorrectlyReportsAssertFailureInCtorInstanceE,56,32
 9685              		.local	_ZN12_GLOBAL__N_125ctorAssertFixtureTestListE
 9686              		.comm	_ZN12_GLOBAL__N_125ctorAssertFixtureTestListE,16,16
 9687              		.section	.rodata
 9688 0603 00       		.align 4
 9691              	_ZN12_GLOBAL__N_1L11FailingLineE:
 9692 0604 7B000000 		.long	123
 9693              		.local	_ZN12_GLOBAL__N_141adderFixturesWithThrowingDtorsAreFailuresE
 9694              		.comm	_ZN12_GLOBAL__N_141adderFixturesWithThrowingDtorsAreFailuresE,1,1
 9695              		.local	_ZN12_GLOBAL__N_148testFixturesWithThrowingDtorsAreFailuresInstanceE
 9696              		.comm	_ZN12_GLOBAL__N_148testFixturesWithThrowingDtorsAreFailuresInstanceE,56,32
 9697              		.local	_ZN12_GLOBAL__N_147adderFixtureDtorThrowsFixtureDtorThrowsTestNameE
 9698              		.comm	_ZN12_GLOBAL__N_147adderFixtureDtorThrowsFixtureDtorThrowsTestNameE,1,1
 9699              		.local	_ZN12_GLOBAL__N_154testFixtureDtorThrowsFixtureDtorThrowsTestNameInstanceE
 9700              		.comm	_ZN12_GLOBAL__N_154testFixtureDtorThrowsFixtureDtorThrowsTestNameInstanceE,56,32
 9701              		.local	_ZN12_GLOBAL__N_124throwingFixtureTestList2E
 9702              		.comm	_ZN12_GLOBAL__N_124throwingFixtureTestList2E,16,16
 9703              		.local	_ZN12_GLOBAL__N_141adderFixturesWithThrowingCtorsAreFailuresE
 9704              		.comm	_ZN12_GLOBAL__N_141adderFixturesWithThrowingCtorsAreFailuresE,1,1
 9705              		.local	_ZN12_GLOBAL__N_148testFixturesWithThrowingCtorsAreFailuresInstanceE
 9706              		.comm	_ZN12_GLOBAL__N_148testFixturesWithThrowingCtorsAreFailuresInstanceE,56,32
 9707              		.local	_ZN12_GLOBAL__N_147adderFixtureCtorThrowsFixtureCtorThrowsTestNameE
 9708              		.comm	_ZN12_GLOBAL__N_147adderFixtureCtorThrowsFixtureCtorThrowsTestNameE,1,1
 9709              		.local	_ZN12_GLOBAL__N_154testFixtureCtorThrowsFixtureCtorThrowsTestNameInstanceE
 9710              		.comm	_ZN12_GLOBAL__N_154testFixtureCtorThrowsFixtureCtorThrowsTestNameInstanceE,56,32
 9711              		.local	_ZN12_GLOBAL__N_124throwingFixtureTestList1E
 9712              		.comm	_ZN12_GLOBAL__N_124throwingFixtureTestList1E,16,16
 9713              		.local	_ZN12_GLOBAL__N_154adderTestAddedWithTEST_FIXTURE_EXMacroGetsDefaultSuiteE
 9714              		.comm	_ZN12_GLOBAL__N_154adderTestAddedWithTEST_FIXTURE_EXMacroGetsDefaultSuiteE,1,1
 9715              		.local	_ZN12_GLOBAL__N_161testTestAddedWithTEST_FIXTURE_EXMacroGetsDefaultSuiteInstanceE
 9716              		.comm	_ZN12_GLOBAL__N_161testTestAddedWithTEST_FIXTURE_EXMacroGetsDefaultSuiteInstanceE,56,32
 9717              		.local	_ZN12_GLOBAL__N_133adderDummyFixtureMacroTestHelper2E
 9718              		.comm	_ZN12_GLOBAL__N_133adderDummyFixtureMacroTestHelper2E,1,1
 9719              		.local	_ZN12_GLOBAL__N_140testDummyFixtureMacroTestHelper2InstanceE
 9720              		.comm	_ZN12_GLOBAL__N_140testDummyFixtureMacroTestHelper2InstanceE,56,32
 9721              		.local	_ZN12_GLOBAL__N_114macroTestList2E
 9722              		.comm	_ZN12_GLOBAL__N_114macroTestList2E,16,16
 9723              		.local	_ZN12_GLOBAL__N_146adderTestAddedWithTEST_EXMacroGetsDefaultSuiteE
 9724              		.comm	_ZN12_GLOBAL__N_146adderTestAddedWithTEST_EXMacroGetsDefaultSuiteE,1,1
 9725              		.local	_ZN12_GLOBAL__N_153testTestAddedWithTEST_EXMacroGetsDefaultSuiteInstanceE
 9726              		.comm	_ZN12_GLOBAL__N_153testTestAddedWithTEST_EXMacroGetsDefaultSuiteInstanceE,56,32
 9727              		.local	_ZN12_GLOBAL__N_121adderMacroTestHelper1E
 9728              		.comm	_ZN12_GLOBAL__N_121adderMacroTestHelper1E,1,1
 9729              		.local	_ZN12_GLOBAL__N_128testMacroTestHelper1InstanceE
 9730              		.comm	_ZN12_GLOBAL__N_128testMacroTestHelper1InstanceE,56,32
 9731              		.local	_ZN12_GLOBAL__N_114macroTestList1E
 9732              		.comm	_ZN12_GLOBAL__N_114macroTestList1E,16,16
 9733              		.local	_ZN12_GLOBAL__N_115SuiteTestSuite264adderDummyFixtureSimilarlyNamedFixtureTestsInDifferentS
 9734              		.comm	_ZN12_GLOBAL__N_115SuiteTestSuite264adderDummyFixtureSimilarlyNamedFixtureTestsInDifferentSu
 9735              		.local	_ZN12_GLOBAL__N_115SuiteTestSuite271testDummyFixtureSimilarlyNamedFixtureTestsInDifferentSu
 9736              		.comm	_ZN12_GLOBAL__N_115SuiteTestSuite271testDummyFixtureSimilarlyNamedFixtureTestsInDifferentSui
 9737              		.local	_ZN12_GLOBAL__N_115SuiteTestSuite245adderSimilarlyNamedTestsInDifferentSuitesWorkE
 9738              		.comm	_ZN12_GLOBAL__N_115SuiteTestSuite245adderSimilarlyNamedTestsInDifferentSuitesWorkE,1,1
 9739              		.local	_ZN12_GLOBAL__N_115SuiteTestSuite252testSimilarlyNamedTestsInDifferentSuitesWorkInstanceE
 9740              		.comm	_ZN12_GLOBAL__N_115SuiteTestSuite252testSimilarlyNamedTestsInDifferentSuitesWorkInstanceE,56
 9741              		.local	_ZN12_GLOBAL__N_115SuiteTestSuite164adderDummyFixtureSimilarlyNamedFixtureTestsInDifferentS
 9742              		.comm	_ZN12_GLOBAL__N_115SuiteTestSuite164adderDummyFixtureSimilarlyNamedFixtureTestsInDifferentSu
 9743              		.local	_ZN12_GLOBAL__N_115SuiteTestSuite171testDummyFixtureSimilarlyNamedFixtureTestsInDifferentSu
 9744              		.comm	_ZN12_GLOBAL__N_115SuiteTestSuite171testDummyFixtureSimilarlyNamedFixtureTestsInDifferentSui
 9745              		.local	_ZN12_GLOBAL__N_115SuiteTestSuite145adderSimilarlyNamedTestsInDifferentSuitesWorkE
 9746              		.comm	_ZN12_GLOBAL__N_115SuiteTestSuite145adderSimilarlyNamedTestsInDifferentSuitesWorkE,1,1
 9747              		.local	_ZN12_GLOBAL__N_115SuiteTestSuite152testSimilarlyNamedTestsInDifferentSuitesWorkInstanceE
 9748              		.comm	_ZN12_GLOBAL__N_115SuiteTestSuite152testSimilarlyNamedTestsInDifferentSuitesWorkInstanceE,56
 9749              		.local	_ZN12_GLOBAL__N_158adderExceptionsInFixtureAreReportedAsHappeningInTheFixtureE
 9750              		.comm	_ZN12_GLOBAL__N_158adderExceptionsInFixtureAreReportedAsHappeningInTheFixtureE,1,1
 9751              		.local	_ZN12_GLOBAL__N_165testExceptionsInFixtureAreReportedAsHappeningInTheFixtureInstanceE
 9752              		.comm	_ZN12_GLOBAL__N_165testExceptionsInFixtureAreReportedAsHappeningInTheFixtureInstanceE,56,32
 9753              		.local	_ZN12_GLOBAL__N_133adderThrowingThingieDummyTestNameE
 9754              		.comm	_ZN12_GLOBAL__N_133adderThrowingThingieDummyTestNameE,1,1
 9755              		.local	_ZN12_GLOBAL__N_140testThrowingThingieDummyTestNameInstanceE
 9756              		.comm	_ZN12_GLOBAL__N_140testThrowingThingieDummyTestNameInstanceE,56,32
 9757              		.local	_ZN12_GLOBAL__N_15list2E
 9758              		.comm	_ZN12_GLOBAL__N_15list2E,16,16
 9759              		.local	_ZN12_GLOBAL__N_139adderTestsAreAddedToTheListThroughMacroE
 9760              		.comm	_ZN12_GLOBAL__N_139adderTestsAreAddedToTheListThroughMacroE,1,1
 9761              		.local	_ZN12_GLOBAL__N_146testTestsAreAddedToTheListThroughMacroInstanceE
 9762              		.comm	_ZN12_GLOBAL__N_146testTestsAreAddedToTheListThroughMacroInstanceE,56,32
 9763              		.local	_ZN12_GLOBAL__N_114adderDummyTestE
 9764              		.comm	_ZN12_GLOBAL__N_114adderDummyTestE,1,1
 9765              		.local	_ZN12_GLOBAL__N_121testDummyTestInstanceE
 9766              		.comm	_ZN12_GLOBAL__N_121testDummyTestInstanceE,56,32
 9767              		.local	_ZN12_GLOBAL__N_15list1E
 9768              		.comm	_ZN12_GLOBAL__N_15list1E,16,16
 9769              		.section	.data.rel.ro.local
 9770              		.align 8
 9771              	.LC71:
 9772 02d0 00000000 		.quad	_ZTCN8UnitTest15MemoryOutStreamE0_NSt7__cxx1119basic_ostringstreamIcSt11char_traitsIcESaIcEE
 9772      00000000 
 9773              		.section	.data.rel.ro
 9774              		.align 8
 9775              	.LC72:
 9776 01b0 00000000 		.quad	_ZTVSt15basic_streambufIcSt11char_traitsIcEE+16
 9776      00000000 
 9777              		.align 8
 9778              	.LC73:
 9779 01b8 00000000 		.quad	_ZTVNSt7__cxx1115basic_stringbufIcSt11char_traitsIcESaIcEEE+16
 9779      00000000 
 9780              		.hidden	DW.ref._ZTIN8UnitTest15AssertExceptionE
 9781              		.weak	DW.ref._ZTIN8UnitTest15AssertExceptionE
 9782              		.section	.data.rel.local.DW.ref._ZTIN8UnitTest15AssertExceptionE,"awG",@progbits,DW.ref._ZTIN8Unit
 9783              		.align 8
 9786              	DW.ref._ZTIN8UnitTest15AssertExceptionE:
 9787 0000 00000000 		.quad	_ZTIN8UnitTest15AssertExceptionE
 9787      00000000 
 9788              		.hidden	DW.ref._ZTISt9exception
 9789              		.weak	DW.ref._ZTISt9exception
 9790              		.section	.data.rel.local.DW.ref._ZTISt9exception,"awG",@progbits,DW.ref._ZTISt9exception,comdat
 9791              		.align 8
 9794              	DW.ref._ZTISt9exception:
 9795 0000 00000000 		.quad	_ZTISt9exception
 9795      00000000 
 9796              		.hidden	DW.ref.__gxx_personality_v0
 9797              		.weak	DW.ref.__gxx_personality_v0
 9798              		.section	.data.rel.local.DW.ref.__gxx_personality_v0,"awG",@progbits,DW.ref.__gxx_personality_v0,c
 9799              		.align 8
 9802              	DW.ref.__gxx_personality_v0:
 9803 0000 00000000 		.quad	__gxx_personality_v0
 9803      00000000 
 9804              		.hidden	__dso_handle
 9805              		.ident	"GCC: (Ubuntu 11.3.0-1ubuntu1~22.04) 11.3.0"
 9806              		.section	.note.GNU-stack,"",@progbits
 9807              		.section	.note.gnu.property,"a"
 9808              		.align 8
 9809 0000 04000000 		.long	1f - 0f
 9810 0004 10000000 		.long	4f - 1f
 9811 0008 05000000 		.long	5
 9812              	0:
 9813 000c 474E5500 		.string	"GNU"
 9814              	1:
 9815              		.align 8
 9816 0010 020000C0 		.long	0xc0000002
 9817 0014 04000000 		.long	3f - 2f
 9818              	2:
 9819 0018 03000000 		.long	0x3
 9820              	3:
 9821 001c 00000000 		.align 8
 9822              	4:
DEFINED SYMBOLS
                            *ABS*:0000000000000000 TestTestMacros.cpp
     /tmp/cc9V3wL4.s:8      .text._ZN17RecordingReporter13ReportSummaryEiiif:0000000000000000 _ZN17RecordingReporter13ReportSummaryEiiif
     /tmp/cc9V3wL4.s:26     .text:0000000000000000 _ZNK12_GLOBAL__N_113TestDummyTest7RunImplEv
     /tmp/cc9V3wL4.s:26     .text:0000000000000000 _ZNK18SuiteSameTestSuite14TestDummyTest17RunImplEv
     /tmp/cc9V3wL4.s:26     .text:0000000000000000 _ZNK12_GLOBAL__N_120TestMacroTestHelper17RunImplEv
     /tmp/cc9V3wL4.s:26     .text:0000000000000000 _ZNK12_GLOBAL__N_115SuiteTestSuite244TestSimilarlyNamedTestsInDifferentSuitesWork7RunImplEv
     /tmp/cc9V3wL4.s:26     .text:0000000000000000 _ZNK12_GLOBAL__N_115SuiteTestSuite144TestSimilarlyNamedTestsInDifferentSuitesWork7RunImplEv
     /tmp/cc9V3wL4.s:55     .text:0000000000000010 _ZNK44TestCurrentTestDetailsContainCurrentTestInfo7RunImplEv
     /tmp/cc9V3wL4.s:9802   .data.rel.local.DW.ref.__gxx_personality_v0:0000000000000000 DW.ref.__gxx_personality_v0
     /tmp/cc9V3wL4.s:142    .text.unlikely:0000000000000000 _ZNK44TestCurrentTestDetailsContainCurrentTestInfo7RunImplEv.cold
     /tmp/cc9V3wL4.s:231    .text._ZN44TestCurrentTestDetailsContainCurrentTestInfoD2Ev:0000000000000000 _ZN44TestCurrentTestDetailsContainCurrentTestInfoD2Ev
     /tmp/cc9V3wL4.s:9648   .data.rel.ro.local._ZTV44TestCurrentTestDetailsContainCurrentTestInfo:0000000000000000 _ZTV44TestCurrentTestDetailsContainCurrentTestInfo
     /tmp/cc9V3wL4.s:231    .text._ZN44TestCurrentTestDetailsContainCurrentTestInfoD2Ev:0000000000000000 _ZN44TestCurrentTestDetailsContainCurrentTestInfoD1Ev
     /tmp/cc9V3wL4.s:248    .text._ZN44TestCurrentTestDetailsContainCurrentTestInfoD0Ev:0000000000000000 _ZN44TestCurrentTestDetailsContainCurrentTestInfoD0Ev
     /tmp/cc9V3wL4.s:313    .text._ZN18SuiteSameTestSuite14TestDummyTest1D2Ev:0000000000000000 _ZN18SuiteSameTestSuite14TestDummyTest1D2Ev
     /tmp/cc9V3wL4.s:9637   .data.rel.ro.local._ZTVN18SuiteSameTestSuite14TestDummyTest1E:0000000000000000 _ZTVN18SuiteSameTestSuite14TestDummyTest1E
     /tmp/cc9V3wL4.s:313    .text._ZN18SuiteSameTestSuite14TestDummyTest1D2Ev:0000000000000000 _ZN18SuiteSameTestSuite14TestDummyTest1D1Ev
     /tmp/cc9V3wL4.s:330    .text._ZN18SuiteSameTestSuite14TestDummyTest1D0Ev:0000000000000000 _ZN18SuiteSameTestSuite14TestDummyTest1D0Ev
     /tmp/cc9V3wL4.s:394    .text:00000000000000a0 _ZN12_GLOBAL__N_147TestCorrectlyReportsFixturesWithCtorsThatAssertD2Ev
     /tmp/cc9V3wL4.s:9626   .data.rel.ro.local:00000000000002a8 _ZTVN12_GLOBAL__N_147TestCorrectlyReportsFixturesWithCtorsThatAssertE
     /tmp/cc9V3wL4.s:394    .text:00000000000000a0 _ZN12_GLOBAL__N_147TestCorrectlyReportsFixturesWithCtorsThatAssertD1Ev
     /tmp/cc9V3wL4.s:413    .text:00000000000000c0 _ZN12_GLOBAL__N_147TestCorrectlyReportsFixturesWithCtorsThatAssertD0Ev
     /tmp/cc9V3wL4.s:466    .text.unlikely:000000000000006e _ZN12_GLOBAL__N_147TestCorrectlyReportsFixturesWithCtorsThatAssertD0Ev.cold
     /tmp/cc9V3wL4.s:503    .text:0000000000000100 _ZN12_GLOBAL__N_157TestFixtureCtorAssertsCorrectlyReportsAssertFailureInCtorD2Ev
     /tmp/cc9V3wL4.s:9617   .data.rel.ro.local:0000000000000280 _ZTVN12_GLOBAL__N_157TestFixtureCtorAssertsCorrectlyReportsAssertFailureInCtorE
     /tmp/cc9V3wL4.s:503    .text:0000000000000100 _ZN12_GLOBAL__N_157TestFixtureCtorAssertsCorrectlyReportsAssertFailureInCtorD1Ev
     /tmp/cc9V3wL4.s:522    .text:0000000000000120 _ZN12_GLOBAL__N_157TestFixtureCtorAssertsCorrectlyReportsAssertFailureInCtorD0Ev
     /tmp/cc9V3wL4.s:575    .text.unlikely:000000000000007e _ZN12_GLOBAL__N_157TestFixtureCtorAssertsCorrectlyReportsAssertFailureInCtorD0Ev.cold
     /tmp/cc9V3wL4.s:612    .text:0000000000000160 _ZN12_GLOBAL__N_140TestFixturesWithThrowingDtorsAreFailuresD2Ev
     /tmp/cc9V3wL4.s:9608   .data.rel.ro.local:0000000000000258 _ZTVN12_GLOBAL__N_140TestFixturesWithThrowingDtorsAreFailuresE
     /tmp/cc9V3wL4.s:612    .text:0000000000000160 _ZN12_GLOBAL__N_140TestFixturesWithThrowingDtorsAreFailuresD1Ev
     /tmp/cc9V3wL4.s:631    .text:0000000000000180 _ZN12_GLOBAL__N_140TestFixturesWithThrowingDtorsAreFailuresD0Ev
     /tmp/cc9V3wL4.s:684    .text.unlikely:000000000000008e _ZN12_GLOBAL__N_140TestFixturesWithThrowingDtorsAreFailuresD0Ev.cold
     /tmp/cc9V3wL4.s:721    .text:00000000000001c0 _ZN12_GLOBAL__N_146TestFixtureDtorThrowsFixtureDtorThrowsTestNameD2Ev
     /tmp/cc9V3wL4.s:9599   .data.rel.ro.local:0000000000000230 _ZTVN12_GLOBAL__N_146TestFixtureDtorThrowsFixtureDtorThrowsTestNameE
     /tmp/cc9V3wL4.s:721    .text:00000000000001c0 _ZN12_GLOBAL__N_146TestFixtureDtorThrowsFixtureDtorThrowsTestNameD1Ev
     /tmp/cc9V3wL4.s:740    .text:00000000000001e0 _ZN12_GLOBAL__N_146TestFixtureDtorThrowsFixtureDtorThrowsTestNameD0Ev
     /tmp/cc9V3wL4.s:793    .text.unlikely:000000000000009e _ZN12_GLOBAL__N_146TestFixtureDtorThrowsFixtureDtorThrowsTestNameD0Ev.cold
     /tmp/cc9V3wL4.s:830    .text:0000000000000220 _ZN12_GLOBAL__N_140TestFixturesWithThrowingCtorsAreFailuresD2Ev
     /tmp/cc9V3wL4.s:9590   .data.rel.ro.local:0000000000000208 _ZTVN12_GLOBAL__N_140TestFixturesWithThrowingCtorsAreFailuresE
     /tmp/cc9V3wL4.s:830    .text:0000000000000220 _ZN12_GLOBAL__N_140TestFixturesWithThrowingCtorsAreFailuresD1Ev
     /tmp/cc9V3wL4.s:849    .text:0000000000000240 _ZN12_GLOBAL__N_140TestFixturesWithThrowingCtorsAreFailuresD0Ev
     /tmp/cc9V3wL4.s:902    .text.unlikely:00000000000000ae _ZN12_GLOBAL__N_140TestFixturesWithThrowingCtorsAreFailuresD0Ev.cold
     /tmp/cc9V3wL4.s:939    .text:0000000000000280 _ZN12_GLOBAL__N_146TestFixtureCtorThrowsFixtureCtorThrowsTestNameD2Ev
     /tmp/cc9V3wL4.s:9581   .data.rel.ro.local:00000000000001e0 _ZTVN12_GLOBAL__N_146TestFixtureCtorThrowsFixtureCtorThrowsTestNameE
     /tmp/cc9V3wL4.s:939    .text:0000000000000280 _ZN12_GLOBAL__N_146TestFixtureCtorThrowsFixtureCtorThrowsTestNameD1Ev
     /tmp/cc9V3wL4.s:958    .text:00000000000002a0 _ZN12_GLOBAL__N_146TestFixtureCtorThrowsFixtureCtorThrowsTestNameD0Ev
     /tmp/cc9V3wL4.s:1011   .text.unlikely:00000000000000be _ZN12_GLOBAL__N_146TestFixtureCtorThrowsFixtureCtorThrowsTestNameD0Ev.cold
     /tmp/cc9V3wL4.s:1048   .text:00000000000002e0 _ZN12_GLOBAL__N_153TestTestAddedWithTEST_FIXTURE_EXMacroGetsDefaultSuiteD2Ev
     /tmp/cc9V3wL4.s:9572   .data.rel.ro.local:00000000000001b8 _ZTVN12_GLOBAL__N_153TestTestAddedWithTEST_FIXTURE_EXMacroGetsDefaultSuiteE
     /tmp/cc9V3wL4.s:1048   .text:00000000000002e0 _ZN12_GLOBAL__N_153TestTestAddedWithTEST_FIXTURE_EXMacroGetsDefaultSuiteD1Ev
     /tmp/cc9V3wL4.s:1067   .text:0000000000000300 _ZN12_GLOBAL__N_153TestTestAddedWithTEST_FIXTURE_EXMacroGetsDefaultSuiteD0Ev
     /tmp/cc9V3wL4.s:1120   .text.unlikely:00000000000000ce _ZN12_GLOBAL__N_153TestTestAddedWithTEST_FIXTURE_EXMacroGetsDefaultSuiteD0Ev.cold
     /tmp/cc9V3wL4.s:1157   .text:0000000000000340 _ZN12_GLOBAL__N_132TestDummyFixtureMacroTestHelper2D2Ev
     /tmp/cc9V3wL4.s:9563   .data.rel.ro.local:0000000000000190 _ZTVN12_GLOBAL__N_132TestDummyFixtureMacroTestHelper2E
     /tmp/cc9V3wL4.s:1157   .text:0000000000000340 _ZN12_GLOBAL__N_132TestDummyFixtureMacroTestHelper2D1Ev
     /tmp/cc9V3wL4.s:1176   .text:0000000000000360 _ZN12_GLOBAL__N_132TestDummyFixtureMacroTestHelper2D0Ev
     /tmp/cc9V3wL4.s:1229   .text.unlikely:00000000000000de _ZN12_GLOBAL__N_132TestDummyFixtureMacroTestHelper2D0Ev.cold
     /tmp/cc9V3wL4.s:1266   .text:00000000000003a0 _ZN12_GLOBAL__N_145TestTestAddedWithTEST_EXMacroGetsDefaultSuiteD2Ev
     /tmp/cc9V3wL4.s:9554   .data.rel.ro.local:0000000000000168 _ZTVN12_GLOBAL__N_145TestTestAddedWithTEST_EXMacroGetsDefaultSuiteE
     /tmp/cc9V3wL4.s:1266   .text:00000000000003a0 _ZN12_GLOBAL__N_145TestTestAddedWithTEST_EXMacroGetsDefaultSuiteD1Ev
     /tmp/cc9V3wL4.s:1285   .text:00000000000003c0 _ZN12_GLOBAL__N_145TestTestAddedWithTEST_EXMacroGetsDefaultSuiteD0Ev
     /tmp/cc9V3wL4.s:1338   .text.unlikely:00000000000000ee _ZN12_GLOBAL__N_145TestTestAddedWithTEST_EXMacroGetsDefaultSuiteD0Ev.cold
     /tmp/cc9V3wL4.s:1375   .text:0000000000000400 _ZN12_GLOBAL__N_120TestMacroTestHelper1D2Ev
     /tmp/cc9V3wL4.s:9545   .data.rel.ro.local:0000000000000140 _ZTVN12_GLOBAL__N_120TestMacroTestHelper1E
     /tmp/cc9V3wL4.s:1375   .text:0000000000000400 _ZN12_GLOBAL__N_120TestMacroTestHelper1D1Ev
     /tmp/cc9V3wL4.s:1394   .text:0000000000000420 _ZN12_GLOBAL__N_120TestMacroTestHelper1D0Ev
     /tmp/cc9V3wL4.s:1447   .text.unlikely:00000000000000fe _ZN12_GLOBAL__N_120TestMacroTestHelper1D0Ev.cold
     /tmp/cc9V3wL4.s:1484   .text:0000000000000460 _ZN12_GLOBAL__N_115SuiteTestSuite263TestDummyFixtureSimilarlyNamedFixtureTestsInDifferentSuitesWorkD2Ev
     /tmp/cc9V3wL4.s:9536   .data.rel.ro.local:0000000000000118 _ZTVN12_GLOBAL__N_115SuiteTestSuite263TestDummyFixtureSimilarlyNamedFixtureTestsInDifferentSuitesWorkE
     /tmp/cc9V3wL4.s:1484   .text:0000000000000460 _ZN12_GLOBAL__N_115SuiteTestSuite263TestDummyFixtureSimilarlyNamedFixtureTestsInDifferentSuitesWorkD1Ev
     /tmp/cc9V3wL4.s:1503   .text:0000000000000480 _ZN12_GLOBAL__N_115SuiteTestSuite263TestDummyFixtureSimilarlyNamedFixtureTestsInDifferentSuitesWorkD0Ev
     /tmp/cc9V3wL4.s:1556   .text.unlikely:000000000000010e _ZN12_GLOBAL__N_115SuiteTestSuite263TestDummyFixtureSimilarlyNamedFixtureTestsInDifferentSuitesWorkD0Ev.cold
     /tmp/cc9V3wL4.s:1593   .text:00000000000004c0 _ZN12_GLOBAL__N_115SuiteTestSuite244TestSimilarlyNamedTestsInDifferentSuitesWorkD2Ev
     /tmp/cc9V3wL4.s:9527   .data.rel.ro.local:00000000000000f0 _ZTVN12_GLOBAL__N_115SuiteTestSuite244TestSimilarlyNamedTestsInDifferentSuitesWorkE
     /tmp/cc9V3wL4.s:1593   .text:00000000000004c0 _ZN12_GLOBAL__N_115SuiteTestSuite244TestSimilarlyNamedTestsInDifferentSuitesWorkD1Ev
     /tmp/cc9V3wL4.s:1612   .text:00000000000004e0 _ZN12_GLOBAL__N_115SuiteTestSuite244TestSimilarlyNamedTestsInDifferentSuitesWorkD0Ev
     /tmp/cc9V3wL4.s:1665   .text.unlikely:000000000000011e _ZN12_GLOBAL__N_115SuiteTestSuite244TestSimilarlyNamedTestsInDifferentSuitesWorkD0Ev.cold
     /tmp/cc9V3wL4.s:1702   .text:0000000000000520 _ZN12_GLOBAL__N_115SuiteTestSuite163TestDummyFixtureSimilarlyNamedFixtureTestsInDifferentSuitesWorkD2Ev
     /tmp/cc9V3wL4.s:9518   .data.rel.ro.local:00000000000000c8 _ZTVN12_GLOBAL__N_115SuiteTestSuite163TestDummyFixtureSimilarlyNamedFixtureTestsInDifferentSuitesWorkE
     /tmp/cc9V3wL4.s:1702   .text:0000000000000520 _ZN12_GLOBAL__N_115SuiteTestSuite163TestDummyFixtureSimilarlyNamedFixtureTestsInDifferentSuitesWorkD1Ev
     /tmp/cc9V3wL4.s:1721   .text:0000000000000540 _ZN12_GLOBAL__N_115SuiteTestSuite163TestDummyFixtureSimilarlyNamedFixtureTestsInDifferentSuitesWorkD0Ev
     /tmp/cc9V3wL4.s:1774   .text.unlikely:000000000000012e _ZN12_GLOBAL__N_115SuiteTestSuite163TestDummyFixtureSimilarlyNamedFixtureTestsInDifferentSuitesWorkD0Ev.cold
     /tmp/cc9V3wL4.s:1811   .text:0000000000000580 _ZN12_GLOBAL__N_115SuiteTestSuite144TestSimilarlyNamedTestsInDifferentSuitesWorkD2Ev
     /tmp/cc9V3wL4.s:9509   .data.rel.ro.local:00000000000000a0 _ZTVN12_GLOBAL__N_115SuiteTestSuite144TestSimilarlyNamedTestsInDifferentSuitesWorkE
     /tmp/cc9V3wL4.s:1811   .text:0000000000000580 _ZN12_GLOBAL__N_115SuiteTestSuite144TestSimilarlyNamedTestsInDifferentSuitesWorkD1Ev
     /tmp/cc9V3wL4.s:1830   .text:00000000000005a0 _ZN12_GLOBAL__N_115SuiteTestSuite144TestSimilarlyNamedTestsInDifferentSuitesWorkD0Ev
     /tmp/cc9V3wL4.s:1883   .text.unlikely:000000000000013e _ZN12_GLOBAL__N_115SuiteTestSuite144TestSimilarlyNamedTestsInDifferentSuitesWorkD0Ev.cold
     /tmp/cc9V3wL4.s:1920   .text:00000000000005e0 _ZN12_GLOBAL__N_157TestExceptionsInFixtureAreReportedAsHappeningInTheFixtureD2Ev
     /tmp/cc9V3wL4.s:9500   .data.rel.ro.local:0000000000000078 _ZTVN12_GLOBAL__N_157TestExceptionsInFixtureAreReportedAsHappeningInTheFixtureE
     /tmp/cc9V3wL4.s:1920   .text:00000000000005e0 _ZN12_GLOBAL__N_157TestExceptionsInFixtureAreReportedAsHappeningInTheFixtureD1Ev
     /tmp/cc9V3wL4.s:1939   .text:0000000000000600 _ZN12_GLOBAL__N_157TestExceptionsInFixtureAreReportedAsHappeningInTheFixtureD0Ev
     /tmp/cc9V3wL4.s:1992   .text.unlikely:000000000000014e _ZN12_GLOBAL__N_157TestExceptionsInFixtureAreReportedAsHappeningInTheFixtureD0Ev.cold
     /tmp/cc9V3wL4.s:2029   .text:0000000000000640 _ZN12_GLOBAL__N_132TestThrowingThingieDummyTestNameD2Ev
     /tmp/cc9V3wL4.s:9491   .data.rel.ro.local:0000000000000050 _ZTVN12_GLOBAL__N_132TestThrowingThingieDummyTestNameE
     /tmp/cc9V3wL4.s:2029   .text:0000000000000640 _ZN12_GLOBAL__N_132TestThrowingThingieDummyTestNameD1Ev
     /tmp/cc9V3wL4.s:2048   .text:0000000000000660 _ZN12_GLOBAL__N_132TestThrowingThingieDummyTestNameD0Ev
     /tmp/cc9V3wL4.s:2101   .text.unlikely:000000000000015e _ZN12_GLOBAL__N_132TestThrowingThingieDummyTestNameD0Ev.cold
     /tmp/cc9V3wL4.s:2138   .text:00000000000006a0 _ZN12_GLOBAL__N_138TestTestsAreAddedToTheListThroughMacroD2Ev
     /tmp/cc9V3wL4.s:9482   .data.rel.ro.local:0000000000000028 _ZTVN12_GLOBAL__N_138TestTestsAreAddedToTheListThroughMacroE
     /tmp/cc9V3wL4.s:2138   .text:00000000000006a0 _ZN12_GLOBAL__N_138TestTestsAreAddedToTheListThroughMacroD1Ev
     /tmp/cc9V3wL4.s:2157   .text:00000000000006c0 _ZN12_GLOBAL__N_138TestTestsAreAddedToTheListThroughMacroD0Ev
     /tmp/cc9V3wL4.s:2210   .text.unlikely:000000000000016e _ZN12_GLOBAL__N_138TestTestsAreAddedToTheListThroughMacroD0Ev.cold
     /tmp/cc9V3wL4.s:2247   .text:0000000000000700 _ZN12_GLOBAL__N_113TestDummyTestD2Ev
     /tmp/cc9V3wL4.s:9473   .data.rel.ro.local:0000000000000000 _ZTVN12_GLOBAL__N_113TestDummyTestE
     /tmp/cc9V3wL4.s:2247   .text:0000000000000700 _ZN12_GLOBAL__N_113TestDummyTestD1Ev
     /tmp/cc9V3wL4.s:2266   .text:0000000000000720 _ZN12_GLOBAL__N_113TestDummyTestD0Ev
     /tmp/cc9V3wL4.s:2319   .text.unlikely:000000000000017e _ZN12_GLOBAL__N_113TestDummyTestD0Ev.cold
     /tmp/cc9V3wL4.s:2380   .text:0000000000000760 _ZNK12_GLOBAL__N_153TestTestAddedWithTEST_FIXTURE_EXMacroGetsDefaultSuite7RunImplEv
     /tmp/cc9V3wL4.s:9722   .bss:0000000000000300 _ZN12_GLOBAL__N_114macroTestList2E
     /tmp/cc9V3wL4.s:2528   .text.unlikely:000000000000018e _ZNK12_GLOBAL__N_153TestTestAddedWithTEST_FIXTURE_EXMacroGetsDefaultSuite7RunImplEv.cold
     /tmp/cc9V3wL4.s:2719   .text:0000000000000890 _ZNK12_GLOBAL__N_145TestTestAddedWithTEST_EXMacroGetsDefaultSuite7RunImplEv
     /tmp/cc9V3wL4.s:9732   .bss:00000000000003a0 _ZN12_GLOBAL__N_114macroTestList1E
     /tmp/cc9V3wL4.s:2867   .text.unlikely:00000000000002a8 _ZNK12_GLOBAL__N_145TestTestAddedWithTEST_EXMacroGetsDefaultSuite7RunImplEv.cold
     /tmp/cc9V3wL4.s:3053   .text:00000000000009c0 _ZNK12_GLOBAL__N_138TestTestsAreAddedToTheListThroughMacro7RunImplEv
     /tmp/cc9V3wL4.s:9768   .bss:00000000000005e0 _ZN12_GLOBAL__N_15list1E
     /tmp/cc9V3wL4.s:3178   .text.unlikely:00000000000003c2 _ZNK12_GLOBAL__N_138TestTestsAreAddedToTheListThroughMacro7RunImplEv.cold
     /tmp/cc9V3wL4.s:3310   .text._ZN17RecordingReporter15ReportTestStartERKN8UnitTest11TestDetailsE:0000000000000000 _ZN17RecordingReporter15ReportTestStartERKN8UnitTest11TestDetailsE
     /tmp/cc9V3wL4.s:3347   .text._ZN17RecordingReporter13ReportFailureERKN8UnitTest11TestDetailsEPKc:0000000000000000 _ZN17RecordingReporter13ReportFailureERKN8UnitTest11TestDetailsEPKc
     /tmp/cc9V3wL4.s:3396   .text._ZN17RecordingReporter16ReportTestFinishERKN8UnitTest11TestDetailsEf:0000000000000000 _ZN17RecordingReporter16ReportTestFinishERKN8UnitTest11TestDetailsEf
     /tmp/cc9V3wL4.s:3437   .text._ZN17RecordingReporterD2Ev:0000000000000000 _ZN17RecordingReporterD2Ev
     /tmp/cc9V3wL4.s:9460   .data.rel.ro.local._ZTV17RecordingReporter:0000000000000000 _ZTV17RecordingReporter
     /tmp/cc9V3wL4.s:3437   .text._ZN17RecordingReporterD2Ev:0000000000000000 _ZN17RecordingReporterD1Ev
     /tmp/cc9V3wL4.s:3454   .text._ZN17RecordingReporterD0Ev:0000000000000000 _ZN17RecordingReporterD0Ev
     /tmp/cc9V3wL4.s:3520   .text.unlikely:0000000000000486 _ZN12_GLOBAL__N_117FixtureDtorThrowsD2Ev.constprop.0
     /tmp/cc9V3wL4.s:3545   .text._ZN8UnitTest15MemoryOutStreamD1Ev:0000000000000000 _ZN8UnitTest15MemoryOutStreamD1Ev
     /tmp/cc9V3wL4.s:9444   .data.rel.ro.local._ZTVN8UnitTest15MemoryOutStreamE:0000000000000000 _ZTVN8UnitTest15MemoryOutStreamE
     /tmp/cc9V3wL4.s:9416   .data.rel.ro._ZTCN8UnitTest15MemoryOutStreamE0_NSt7__cxx1119basic_ostringstreamIcSt11char_traitsIcESaIcEEE:0000000000000000 _ZTCN8UnitTest15MemoryOutStreamE0_NSt7__cxx1119basic_ostringstreamIcSt11char_traitsIcESaIcEEE
     /tmp/cc9V3wL4.s:9399   .data.rel.ro._ZTCN8UnitTest15MemoryOutStreamE0_So:0000000000000000 _ZTCN8UnitTest15MemoryOutStreamE0_So
     /tmp/cc9V3wL4.s:3605   .text._ZN8UnitTest15MemoryOutStreamD1Ev:00000000000000c0 _ZTv0_n24_N8UnitTest15MemoryOutStreamD1Ev
     /tmp/cc9V3wL4.s:3669   .text._ZN8UnitTest15MemoryOutStreamD0Ev:0000000000000000 _ZN8UnitTest15MemoryOutStreamD0Ev
     /tmp/cc9V3wL4.s:3764   .text._ZN8UnitTest15MemoryOutStreamD0Ev:00000000000000e0 _ZTv0_n24_N8UnitTest15MemoryOutStreamD0Ev
     /tmp/cc9V3wL4.s:3863   .text._ZN17ScopedCurrentTestD2Ev:0000000000000000 _ZN17ScopedCurrentTestD2Ev
     /tmp/cc9V3wL4.s:3863   .text._ZN17ScopedCurrentTestD2Ev:0000000000000000 _ZN17ScopedCurrentTestD1Ev
     /tmp/cc9V3wL4.s:3923   .text:0000000000000ab0 _ZNK12_GLOBAL__N_157TestExceptionsInFixtureAreReportedAsHappeningInTheFixture7RunImplEv
     /tmp/cc9V3wL4.s:9758   .bss:0000000000000540 _ZN12_GLOBAL__N_15list2E
     /tmp/cc9V3wL4.s:4162   .text.unlikely:00000000000004ae _ZNK12_GLOBAL__N_157TestExceptionsInFixtureAreReportedAsHappeningInTheFixture7RunImplEv.cold
     /tmp/cc9V3wL4.s:4321   .text._ZNSt7__cxx1115basic_stringbufIcSt11char_traitsIcESaIcEED2Ev:0000000000000000 _ZNSt7__cxx1115basic_stringbufIcSt11char_traitsIcESaIcEED2Ev
     /tmp/cc9V3wL4.s:4321   .text._ZNSt7__cxx1115basic_stringbufIcSt11char_traitsIcESaIcEED2Ev:0000000000000000 _ZNSt7__cxx1115basic_stringbufIcSt11char_traitsIcESaIcEED1Ev
     /tmp/cc9V3wL4.s:4353   .text._ZN8UnitTest15MemoryOutStreamC1Ev:0000000000000000 _ZN8UnitTest15MemoryOutStreamC1Ev
     /tmp/cc9V3wL4.s:4497   .text.unlikely:00000000000005cc _ZNK12_GLOBAL__N_146TestFixtureCtorThrowsFixtureCtorThrowsTestName7RunImplEv
     /tmp/cc9V3wL4.s:9794   .data.rel.local.DW.ref._ZTISt9exception:0000000000000000 DW.ref._ZTISt9exception
     /tmp/cc9V3wL4.s:9786   .data.rel.local.DW.ref._ZTIN8UnitTest15AssertExceptionE:0000000000000000 DW.ref._ZTIN8UnitTest15AssertExceptionE
     /tmp/cc9V3wL4.s:4763   .text.unlikely:00000000000007ba _ZNK12_GLOBAL__N_132TestThrowingThingieDummyTestName7RunImplEv
     /tmp/cc9V3wL4.s:5030   .text:0000000000000d40 _ZN8UnitTest11ExecuteTestIN12_GLOBAL__N_115SuiteTestSuite165DummyFixtureSimilarlyNamedFixtureTestsInDifferentSuitesWorkHelperEEEvRT_RKNS_11TestDetailsE.constprop.0
     /tmp/cc9V3wL4.s:5139   .text.unlikely:00000000000009a7 _ZN8UnitTest11ExecuteTestIN12_GLOBAL__N_115SuiteTestSuite165DummyFixtureSimilarlyNamedFixtureTestsInDifferentSuitesWorkHelperEEEvRT_RKNS_11TestDetailsE.constprop.0.cold
     /tmp/cc9V3wL4.s:5363   .text:0000000000000de0 _ZNK12_GLOBAL__N_115SuiteTestSuite163TestDummyFixtureSimilarlyNamedFixtureTestsInDifferentSuitesWork7RunImplEv
     /tmp/cc9V3wL4.s:5458   .text.unlikely:0000000000000b4c _ZNK12_GLOBAL__N_115SuiteTestSuite163TestDummyFixtureSimilarlyNamedFixtureTestsInDifferentSuitesWork7RunImplEv.cold
     /tmp/cc9V3wL4.s:5703   .text:0000000000000e50 _ZNK12_GLOBAL__N_157TestFixtureCtorAssertsCorrectlyReportsAssertFailureInCtor7RunImplEv
     /tmp/cc9V3wL4.s:5814   .text.unlikely:0000000000000ce8 _ZNK12_GLOBAL__N_157TestFixtureCtorAssertsCorrectlyReportsAssertFailureInCtor7RunImplEv.cold
     /tmp/cc9V3wL4.s:6078   .text:0000000000000ef0 _ZNK12_GLOBAL__N_146TestFixtureDtorThrowsFixtureDtorThrowsTestName7RunImplEv
     /tmp/cc9V3wL4.s:6153   .text.unlikely:0000000000000eca _ZNK12_GLOBAL__N_146TestFixtureDtorThrowsFixtureDtorThrowsTestName7RunImplEv.cold
     /tmp/cc9V3wL4.s:6400   .text:0000000000000f40 _ZNK12_GLOBAL__N_132TestDummyFixtureMacroTestHelper27RunImplEv
     /tmp/cc9V3wL4.s:6495   .text.unlikely:0000000000001078 _ZNK12_GLOBAL__N_132TestDummyFixtureMacroTestHelper27RunImplEv.cold
     /tmp/cc9V3wL4.s:6728   .text:0000000000000fb0 _ZNK12_GLOBAL__N_115SuiteTestSuite263TestDummyFixtureSimilarlyNamedFixtureTestsInDifferentSuitesWork7RunImplEv
     /tmp/cc9V3wL4.s:6823   .text.unlikely:0000000000001214 _ZNK12_GLOBAL__N_115SuiteTestSuite263TestDummyFixtureSimilarlyNamedFixtureTestsInDifferentSuitesWork7RunImplEv.cold
     /tmp/cc9V3wL4.s:7053   .text._ZNSt7__cxx1115basic_stringbufIcSt11char_traitsIcESaIcEED0Ev:0000000000000000 _ZNSt7__cxx1115basic_stringbufIcSt11char_traitsIcESaIcEED0Ev
     /tmp/cc9V3wL4.s:7089   .text._ZN8UnitTest10CheckEqualIiiEEvRNS_11TestResultsERKT_RKT0_RKNS_11TestDetailsE:0000000000000000 _ZN8UnitTest10CheckEqualIiiEEvRNS_11TestResultsERKT_RKT0_RKNS_11TestDetailsE
     /tmp/cc9V3wL4.s:7355   .text:0000000000001020 _ZNK12_GLOBAL__N_147TestCorrectlyReportsFixturesWithCtorsThatAssert7RunImplEv
     /tmp/cc9V3wL4.s:9686   .bss:0000000000000120 _ZN12_GLOBAL__N_125ctorAssertFixtureTestListE
     /tmp/cc9V3wL4.s:9691   .rodata:0000000000000604 _ZN12_GLOBAL__N_1L11FailingLineE
     /tmp/cc9V3wL4.s:7577   .text.unlikely:00000000000013b0 _ZNK12_GLOBAL__N_147TestCorrectlyReportsFixturesWithCtorsThatAssert7RunImplEv.cold
     /tmp/cc9V3wL4.s:7754   .text:0000000000001270 _ZNK12_GLOBAL__N_140TestFixturesWithThrowingDtorsAreFailures7RunImplEv
     /tmp/cc9V3wL4.s:9702   .bss:00000000000001c0 _ZN12_GLOBAL__N_124throwingFixtureTestList2E
     /tmp/cc9V3wL4.s:7997   .text.unlikely:00000000000014c8 _ZNK12_GLOBAL__N_140TestFixturesWithThrowingDtorsAreFailures7RunImplEv.cold
     /tmp/cc9V3wL4.s:8183   .text:00000000000014f0 _ZNK12_GLOBAL__N_140TestFixturesWithThrowingCtorsAreFailures7RunImplEv
     /tmp/cc9V3wL4.s:9712   .bss:0000000000000260 _ZN12_GLOBAL__N_124throwingFixtureTestList1E
     /tmp/cc9V3wL4.s:8426   .text.unlikely:00000000000015e4 _ZNK12_GLOBAL__N_140TestFixturesWithThrowingCtorsAreFailures7RunImplEv.cold
     /tmp/cc9V3wL4.s:8651   .text.startup:0000000000000000 _GLOBAL__sub_I__ZN18SuiteSameTestSuite22testDummyTest1InstanceE
     /tmp/cc9V3wL4.s:9766   .bss:00000000000005a0 _ZN12_GLOBAL__N_121testDummyTestInstanceE
     /tmp/cc9V3wL4.s:9762   .bss:0000000000000560 _ZN12_GLOBAL__N_146testTestsAreAddedToTheListThroughMacroInstanceE
     /tmp/cc9V3wL4.s:9762   .bss:0000000000000598 _ZN12_GLOBAL__N_114adderDummyTestE
     /tmp/cc9V3wL4.s:9758   .bss:0000000000000550 _ZN12_GLOBAL__N_139adderTestsAreAddedToTheListThroughMacroE
     /tmp/cc9V3wL4.s:9756   .bss:0000000000000500 _ZN12_GLOBAL__N_140testThrowingThingieDummyTestNameInstanceE
     /tmp/cc9V3wL4.s:9752   .bss:00000000000004c0 _ZN12_GLOBAL__N_165testExceptionsInFixtureAreReportedAsHappeningInTheFixtureInstanceE
     /tmp/cc9V3wL4.s:9752   .bss:00000000000004f8 _ZN12_GLOBAL__N_133adderThrowingThingieDummyTestNameE
     /tmp/cc9V3wL4.s:9748   .bss:00000000000004b8 _ZN12_GLOBAL__N_158adderExceptionsInFixtureAreReportedAsHappeningInTheFixtureE
     /tmp/cc9V3wL4.s:9748   .bss:0000000000000480 _ZN12_GLOBAL__N_115SuiteTestSuite152testSimilarlyNamedTestsInDifferentSuitesWorkInstanceE
     /tmp/cc9V3wL4.s:9744   .bss:0000000000000478 _ZN12_GLOBAL__N_115SuiteTestSuite145adderSimilarlyNamedTestsInDifferentSuitesWorkE
     /tmp/cc9V3wL4.s:9744   .bss:0000000000000440 _ZN12_GLOBAL__N_115SuiteTestSuite171testDummyFixtureSimilarlyNamedFixtureTestsInDifferentSuitesWorkInstanceE
     /tmp/cc9V3wL4.s:9740   .bss:0000000000000438 _ZN12_GLOBAL__N_115SuiteTestSuite164adderDummyFixtureSimilarlyNamedFixtureTestsInDifferentSuitesWorkE
     /tmp/cc9V3wL4.s:9740   .bss:0000000000000400 _ZN12_GLOBAL__N_115SuiteTestSuite252testSimilarlyNamedTestsInDifferentSuitesWorkInstanceE
     /tmp/cc9V3wL4.s:9736   .bss:00000000000003f8 _ZN12_GLOBAL__N_115SuiteTestSuite245adderSimilarlyNamedTestsInDifferentSuitesWorkE
     /tmp/cc9V3wL4.s:9736   .bss:00000000000003c0 _ZN12_GLOBAL__N_115SuiteTestSuite271testDummyFixtureSimilarlyNamedFixtureTestsInDifferentSuitesWorkInstanceE
     /tmp/cc9V3wL4.s:9732   .bss:00000000000003b0 _ZN12_GLOBAL__N_115SuiteTestSuite264adderDummyFixtureSimilarlyNamedFixtureTestsInDifferentSuitesWorkE
     /tmp/cc9V3wL4.s:9730   .bss:0000000000000360 _ZN12_GLOBAL__N_128testMacroTestHelper1InstanceE
     /tmp/cc9V3wL4.s:9726   .bss:0000000000000320 _ZN12_GLOBAL__N_153testTestAddedWithTEST_EXMacroGetsDefaultSuiteInstanceE
     /tmp/cc9V3wL4.s:9726   .bss:0000000000000358 _ZN12_GLOBAL__N_121adderMacroTestHelper1E
     /tmp/cc9V3wL4.s:9722   .bss:0000000000000310 _ZN12_GLOBAL__N_146adderTestAddedWithTEST_EXMacroGetsDefaultSuiteE
     /tmp/cc9V3wL4.s:9720   .bss:00000000000002c0 _ZN12_GLOBAL__N_140testDummyFixtureMacroTestHelper2InstanceE
     /tmp/cc9V3wL4.s:9716   .bss:0000000000000280 _ZN12_GLOBAL__N_161testTestAddedWithTEST_FIXTURE_EXMacroGetsDefaultSuiteInstanceE
     /tmp/cc9V3wL4.s:9716   .bss:00000000000002b8 _ZN12_GLOBAL__N_133adderDummyFixtureMacroTestHelper2E
     /tmp/cc9V3wL4.s:9712   .bss:0000000000000270 _ZN12_GLOBAL__N_154adderTestAddedWithTEST_FIXTURE_EXMacroGetsDefaultSuiteE
     /tmp/cc9V3wL4.s:9710   .bss:0000000000000220 _ZN12_GLOBAL__N_154testFixtureCtorThrowsFixtureCtorThrowsTestNameInstanceE
     /tmp/cc9V3wL4.s:9706   .bss:00000000000001e0 _ZN12_GLOBAL__N_148testFixturesWithThrowingCtorsAreFailuresInstanceE
     /tmp/cc9V3wL4.s:9706   .bss:0000000000000218 _ZN12_GLOBAL__N_147adderFixtureCtorThrowsFixtureCtorThrowsTestNameE
     /tmp/cc9V3wL4.s:9702   .bss:00000000000001d0 _ZN12_GLOBAL__N_141adderFixturesWithThrowingCtorsAreFailuresE
     /tmp/cc9V3wL4.s:9700   .bss:0000000000000180 _ZN12_GLOBAL__N_154testFixtureDtorThrowsFixtureDtorThrowsTestNameInstanceE
     /tmp/cc9V3wL4.s:9696   .bss:0000000000000140 _ZN12_GLOBAL__N_148testFixturesWithThrowingDtorsAreFailuresInstanceE
     /tmp/cc9V3wL4.s:9696   .bss:0000000000000178 _ZN12_GLOBAL__N_147adderFixtureDtorThrowsFixtureDtorThrowsTestNameE
     /tmp/cc9V3wL4.s:9686   .bss:0000000000000130 _ZN12_GLOBAL__N_141adderFixturesWithThrowingDtorsAreFailuresE
     /tmp/cc9V3wL4.s:9684   .bss:00000000000000e0 _ZN12_GLOBAL__N_165testFixtureCtorAssertsCorrectlyReportsAssertFailureInCtorInstanceE
     /tmp/cc9V3wL4.s:9680   .bss:00000000000000a0 _ZN12_GLOBAL__N_155testCorrectlyReportsFixturesWithCtorsThatAssertInstanceE
     /tmp/cc9V3wL4.s:9680   .bss:00000000000000d8 _ZN12_GLOBAL__N_158adderFixtureCtorAssertsCorrectlyReportsAssertFailureInCtorE
                             .bss:0000000000000098 _ZN12_GLOBAL__N_148adderCorrectlyReportsFixturesWithCtorsThatAssertE
     /tmp/cc9V3wL4.s:9675   .bss:0000000000000060 _ZN18SuiteSameTestSuite22testDummyTest1InstanceE
     /tmp/cc9V3wL4.s:9669   .bss:0000000000000058 _ZN18SuiteSameTestSuite15adderDummyTest1E
     /tmp/cc9V3wL4.s:9664   .bss:0000000000000020 testCurrentTestDetailsContainCurrentTestInfoInstance
     /tmp/cc9V3wL4.s:9658   .bss:0000000000000000 adderCurrentTestDetailsContainCurrentTestInfo
     /tmp/cc9V3wL4.s:9082   .rodata._ZTSN8UnitTest15MemoryOutStreamE:0000000000000000 _ZTSN8UnitTest15MemoryOutStreamE
     /tmp/cc9V3wL4.s:9089   .data.rel.ro._ZTIN8UnitTest15MemoryOutStreamE:0000000000000000 _ZTIN8UnitTest15MemoryOutStreamE
     /tmp/cc9V3wL4.s:9098   .rodata._ZTS17RecordingReporter:0000000000000000 _ZTS17RecordingReporter
     /tmp/cc9V3wL4.s:9105   .data.rel.ro._ZTI17RecordingReporter:0000000000000000 _ZTI17RecordingReporter
     /tmp/cc9V3wL4.s:9113   .data.rel.ro:0000000000000000 _ZTIN12_GLOBAL__N_113TestDummyTestE
     /tmp/cc9V3wL4.s:9121   .rodata:0000000000000000 _ZTSN12_GLOBAL__N_113TestDummyTestE
     /tmp/cc9V3wL4.s:9127   .data.rel.ro:0000000000000018 _ZTIN12_GLOBAL__N_138TestTestsAreAddedToTheListThroughMacroE
     /tmp/cc9V3wL4.s:9135   .rodata:0000000000000040 _ZTSN12_GLOBAL__N_138TestTestsAreAddedToTheListThroughMacroE
     /tmp/cc9V3wL4.s:9141   .data.rel.ro:0000000000000030 _ZTIN12_GLOBAL__N_132TestThrowingThingieDummyTestNameE
     /tmp/cc9V3wL4.s:9149   .rodata:0000000000000080 _ZTSN12_GLOBAL__N_132TestThrowingThingieDummyTestNameE
     /tmp/cc9V3wL4.s:9155   .data.rel.ro:0000000000000048 _ZTIN12_GLOBAL__N_157TestExceptionsInFixtureAreReportedAsHappeningInTheFixtureE
     /tmp/cc9V3wL4.s:9163   .rodata:00000000000000c0 _ZTSN12_GLOBAL__N_157TestExceptionsInFixtureAreReportedAsHappeningInTheFixtureE
     /tmp/cc9V3wL4.s:9169   .data.rel.ro:0000000000000060 _ZTIN12_GLOBAL__N_115SuiteTestSuite144TestSimilarlyNamedTestsInDifferentSuitesWorkE
     /tmp/cc9V3wL4.s:9177   .rodata:0000000000000120 _ZTSN12_GLOBAL__N_115SuiteTestSuite144TestSimilarlyNamedTestsInDifferentSuitesWorkE
     /tmp/cc9V3wL4.s:9183   .data.rel.ro:0000000000000078 _ZTIN12_GLOBAL__N_115SuiteTestSuite163TestDummyFixtureSimilarlyNamedFixtureTestsInDifferentSuitesWorkE
     /tmp/cc9V3wL4.s:9191   .rodata:0000000000000180 _ZTSN12_GLOBAL__N_115SuiteTestSuite163TestDummyFixtureSimilarlyNamedFixtureTestsInDifferentSuitesWorkE
     /tmp/cc9V3wL4.s:9197   .data.rel.ro:0000000000000090 _ZTIN12_GLOBAL__N_115SuiteTestSuite244TestSimilarlyNamedTestsInDifferentSuitesWorkE
     /tmp/cc9V3wL4.s:9205   .rodata:0000000000000200 _ZTSN12_GLOBAL__N_115SuiteTestSuite244TestSimilarlyNamedTestsInDifferentSuitesWorkE
     /tmp/cc9V3wL4.s:9211   .data.rel.ro:00000000000000a8 _ZTIN12_GLOBAL__N_115SuiteTestSuite263TestDummyFixtureSimilarlyNamedFixtureTestsInDifferentSuitesWorkE
     /tmp/cc9V3wL4.s:9219   .rodata:0000000000000260 _ZTSN12_GLOBAL__N_115SuiteTestSuite263TestDummyFixtureSimilarlyNamedFixtureTestsInDifferentSuitesWorkE
     /tmp/cc9V3wL4.s:9225   .data.rel.ro:00000000000000c0 _ZTIN12_GLOBAL__N_120TestMacroTestHelper1E
     /tmp/cc9V3wL4.s:9233   .rodata:00000000000002e0 _ZTSN12_GLOBAL__N_120TestMacroTestHelper1E
     /tmp/cc9V3wL4.s:9239   .data.rel.ro:00000000000000d8 _ZTIN12_GLOBAL__N_145TestTestAddedWithTEST_EXMacroGetsDefaultSuiteE
     /tmp/cc9V3wL4.s:9247   .rodata:0000000000000320 _ZTSN12_GLOBAL__N_145TestTestAddedWithTEST_EXMacroGetsDefaultSuiteE
     /tmp/cc9V3wL4.s:9253   .data.rel.ro:00000000000000f0 _ZTIN12_GLOBAL__N_132TestDummyFixtureMacroTestHelper2E
     /tmp/cc9V3wL4.s:9261   .rodata:0000000000000380 _ZTSN12_GLOBAL__N_132TestDummyFixtureMacroTestHelper2E
     /tmp/cc9V3wL4.s:9267   .data.rel.ro:0000000000000108 _ZTIN12_GLOBAL__N_153TestTestAddedWithTEST_FIXTURE_EXMacroGetsDefaultSuiteE
     /tmp/cc9V3wL4.s:9275   .rodata:00000000000003c0 _ZTSN12_GLOBAL__N_153TestTestAddedWithTEST_FIXTURE_EXMacroGetsDefaultSuiteE
     /tmp/cc9V3wL4.s:9281   .data.rel.ro:0000000000000120 _ZTIN12_GLOBAL__N_146TestFixtureCtorThrowsFixtureCtorThrowsTestNameE
     /tmp/cc9V3wL4.s:9289   .rodata:0000000000000420 _ZTSN12_GLOBAL__N_146TestFixtureCtorThrowsFixtureCtorThrowsTestNameE
     /tmp/cc9V3wL4.s:9295   .data.rel.ro:0000000000000138 _ZTIN12_GLOBAL__N_140TestFixturesWithThrowingCtorsAreFailuresE
     /tmp/cc9V3wL4.s:9303   .rodata:0000000000000480 _ZTSN12_GLOBAL__N_140TestFixturesWithThrowingCtorsAreFailuresE
     /tmp/cc9V3wL4.s:9309   .data.rel.ro:0000000000000150 _ZTIN12_GLOBAL__N_146TestFixtureDtorThrowsFixtureDtorThrowsTestNameE
     /tmp/cc9V3wL4.s:9317   .rodata:00000000000004c0 _ZTSN12_GLOBAL__N_146TestFixtureDtorThrowsFixtureDtorThrowsTestNameE
     /tmp/cc9V3wL4.s:9323   .data.rel.ro:0000000000000168 _ZTIN12_GLOBAL__N_140TestFixturesWithThrowingDtorsAreFailuresE
     /tmp/cc9V3wL4.s:9331   .rodata:0000000000000520 _ZTSN12_GLOBAL__N_140TestFixturesWithThrowingDtorsAreFailuresE
     /tmp/cc9V3wL4.s:9337   .data.rel.ro:0000000000000180 _ZTIN12_GLOBAL__N_157TestFixtureCtorAssertsCorrectlyReportsAssertFailureInCtorE
     /tmp/cc9V3wL4.s:9345   .rodata:0000000000000560 _ZTSN12_GLOBAL__N_157TestFixtureCtorAssertsCorrectlyReportsAssertFailureInCtorE
     /tmp/cc9V3wL4.s:9351   .data.rel.ro:0000000000000198 _ZTIN12_GLOBAL__N_147TestCorrectlyReportsFixturesWithCtorsThatAssertE
     /tmp/cc9V3wL4.s:9359   .rodata:00000000000005c0 _ZTSN12_GLOBAL__N_147TestCorrectlyReportsFixturesWithCtorsThatAssertE
     /tmp/cc9V3wL4.s:9366   .rodata._ZTSN18SuiteSameTestSuite14TestDummyTest1E:0000000000000000 _ZTSN18SuiteSameTestSuite14TestDummyTest1E
     /tmp/cc9V3wL4.s:9373   .data.rel.ro._ZTIN18SuiteSameTestSuite14TestDummyTest1E:0000000000000000 _ZTIN18SuiteSameTestSuite14TestDummyTest1E
     /tmp/cc9V3wL4.s:9382   .rodata._ZTS44TestCurrentTestDetailsContainCurrentTestInfo:0000000000000000 _ZTS44TestCurrentTestDetailsContainCurrentTestInfo
     /tmp/cc9V3wL4.s:9389   .data.rel.ro._ZTI44TestCurrentTestDetailsContainCurrentTestInfo:0000000000000000 _ZTI44TestCurrentTestDetailsContainCurrentTestInfo
     /tmp/cc9V3wL4.s:9432   .data.rel.ro.local._ZTTN8UnitTest15MemoryOutStreamE:0000000000000000 _ZTTN8UnitTest15MemoryOutStreamE
     /tmp/cc9V3wL4.s:41     .rodata.str1.8:0000000000000000 .LC0
     /tmp/cc9V3wL4.s:2358   .rodata.str1.1:0000000000000000 .LC22
     /tmp/cc9V3wL4.s:2360   .rodata.str1.1:0000000000000011 .LC23
     /tmp/cc9V3wL4.s:2355   .rodata.str1.8:0000000000000080 .LC21
     /tmp/cc9V3wL4.s:2699   .rodata.str1.1:000000000000001e .LC29
     /tmp/cc9V3wL4.s:2696   .rodata.str1.8:00000000000001b8 .LC28
     /tmp/cc9V3wL4.s:3036   .rodata.str1.1:0000000000000044 .LC35
     /tmp/cc9V3wL4.s:3034   .rodata.str1.1:000000000000002f .LC34
     /tmp/cc9V3wL4.s:3886   .rodata.str1.1:0000000000000069 .LC41
     /tmp/cc9V3wL4.s:3893   .rodata.str1.1:0000000000000072 .LC43
     /tmp/cc9V3wL4.s:3900   .rodata.str1.1:000000000000007a .LC45
     /tmp/cc9V3wL4.s:3904   .rodata.str1.8:00000000000003c8 .LC46
     /tmp/cc9V3wL4.s:3897   .rodata.str1.8:0000000000000398 .LC44
     /tmp/cc9V3wL4.s:3890   .rodata.str1.8:0000000000000368 .LC42
     /tmp/cc9V3wL4.s:5684   .rodata.str1.1:00000000000000dc .LC60
     /tmp/cc9V3wL4.s:5686   .rodata.str1.1:00000000000000e1 .LC61
     /tmp/cc9V3wL4.s:7336   .rodata.str1.8:0000000000000688 .LC74
     /tmp/cc9V3wL4.s:7734   .rodata.str1.1:00000000000000f0 .LC80
     /tmp/cc9V3wL4.s:7738   .rodata.str1.8:00000000000007d0 .LC81
     /tmp/cc9V3wL4.s:7731   .rodata.str1.8:00000000000007a0 .LC79
     /tmp/cc9V3wL4.s:8163   .rodata.str1.1:0000000000000109 .LC86
     /tmp/cc9V3wL4.s:8167   .rodata.str1.8:00000000000008f0 .LC87
     /tmp/cc9V3wL4.s:8160   .rodata.str1.8:00000000000008c0 .LC85
     /tmp/cc9V3wL4.s:44     .rodata.str1.8:0000000000000030 .LC1
     /tmp/cc9V3wL4.s:2370   .rodata.str1.8:0000000000000150 .LC26
     /tmp/cc9V3wL4.s:2367   .rodata.str1.8:00000000000000e8 .LC25
     /tmp/cc9V3wL4.s:2364   .rodata.str1.8:00000000000000a8 .LC24
     /tmp/cc9V3wL4.s:2709   .rodata.str1.8:0000000000000288 .LC32
     /tmp/cc9V3wL4.s:2706   .rodata.str1.8:0000000000000220 .LC31
     /tmp/cc9V3wL4.s:2703   .rodata.str1.8:00000000000001e0 .LC30
     /tmp/cc9V3wL4.s:3040   .rodata.str1.8:00000000000002f0 .LC36
     /tmp/cc9V3wL4.s:3043   .rodata.str1.8:0000000000000328 .LC37
     /tmp/cc9V3wL4.s:3515   .rodata.str1.1:000000000000005f .LC39
     /tmp/cc9V3wL4.s:3907   .rodata.str1.8:0000000000000400 .LC47
     /tmp/cc9V3wL4.s:3910   .rodata.str1.8:0000000000000450 .LC48
     /tmp/cc9V3wL4.s:3913   .rodata.str1.8:00000000000004a0 .LC49
     /tmp/cc9V3wL4.s:4488   .rodata.str1.1:000000000000008a .LC51
     /tmp/cc9V3wL4.s:4492   .rodata.str1.8:00000000000004f8 .LC52
     /tmp/cc9V3wL4.s:4754   .rodata.str1.1:00000000000000a0 .LC53
     /tmp/cc9V3wL4.s:4758   .rodata.str1.8:0000000000000540 .LC54
     /tmp/cc9V3wL4.s:5020   .rodata.str1.1:00000000000000a5 .LC55
     /tmp/cc9V3wL4.s:5022   .rodata.str1.1:00000000000000c0 .LC56
     /tmp/cc9V3wL4.s:5353   .rodata.str1.8:0000000000000580 .LC58
     /tmp/cc9V3wL4.s:5693   .rodata.str1.8:0000000000000600 .LC63
     /tmp/cc9V3wL4.s:5690   .rodata.str1.8:00000000000005c0 .LC62
     /tmp/cc9V3wL4.s:6068   .rodata.str1.8:0000000000000648 .LC65
     /tmp/cc9V3wL4.s:7342   .rodata.str1.8:00000000000006f8 .LC76
     /tmp/cc9V3wL4.s:7339   .rodata.str1.8:00000000000006c0 .LC75
     /tmp/cc9V3wL4.s:7345   .rodata.str1.8:0000000000000748 .LC77
     /tmp/cc9V3wL4.s:7741   .rodata.str1.8:0000000000000810 .LC82
     /tmp/cc9V3wL4.s:7744   .rodata.str1.8:0000000000000860 .LC83
     /tmp/cc9V3wL4.s:8170   .rodata.str1.8:0000000000000938 .LC88
     /tmp/cc9V3wL4.s:8173   .rodata.str1.8:0000000000000988 .LC89
     /tmp/cc9V3wL4.s:7081   .rodata._ZN8UnitTest10CheckEqualIiiEEvRNS_11TestResultsERKT_RKT0_RKNS_11TestDetailsE.str1.1:0000000000000000 .LC69
     /tmp/cc9V3wL4.s:7083   .rodata._ZN8UnitTest10CheckEqualIiiEEvRNS_11TestResultsERKT_RKT0_RKNS_11TestDetailsE.str1.1:000000000000000a .LC70
     /tmp/cc9V3wL4.s:8588   .rodata.str1.1:0000000000000124 .LC91
     /tmp/cc9V3wL4.s:8608   .rodata.str1.8:0000000000000a48 .LC97
     /tmp/cc9V3wL4.s:8590   .rodata.str1.1:0000000000000137 .LC92
     /tmp/cc9V3wL4.s:8594   .rodata.str1.8:00000000000009e8 .LC93
     /tmp/cc9V3wL4.s:8597   .rodata.str1.1:0000000000000141 .LC94
     /tmp/cc9V3wL4.s:8604   .rodata.str1.1:000000000000014f .LC96
     /tmp/cc9V3wL4.s:8601   .rodata.str1.8:0000000000000a10 .LC95
     /tmp/cc9V3wL4.s:8611   .rodata.str1.8:0000000000000a78 .LC98
     /tmp/cc9V3wL4.s:8614   .rodata.str1.1:000000000000015a .LC99
     /tmp/cc9V3wL4.s:8618   .rodata.str1.8:0000000000000aa8 .LC100
     /tmp/cc9V3wL4.s:8621   .rodata.str1.8:0000000000000ad8 .LC101
     /tmp/cc9V3wL4.s:8624   .rodata.str1.1:0000000000000165 .LC102
     /tmp/cc9V3wL4.s:8628   .rodata.str1.8:0000000000000b10 .LC103
     /tmp/cc9V3wL4.s:8631   .rodata.str1.1:000000000000017f .LC104
     /tmp/cc9V3wL4.s:8635   .rodata.str1.8:0000000000000b38 .LC105
     /tmp/cc9V3wL4.s:8638   .rodata.str1.8:0000000000000b60 .LC106
     /tmp/cc9V3wL4.s:8641   .rodata.str1.8:0000000000000b88 .LC107
     /tmp/cc9V3wL4.s:8644   .rodata.str1.1:0000000000000199 .LC108
     /tmp/cc9V3wL4.s:8646   .rodata.str1.1:00000000000001a7 .LC109
                           .group:0000000000000000 _ZN44TestCurrentTestDetailsContainCurrentTestInfoD5Ev
                           .group:0000000000000000 _ZN18SuiteSameTestSuite14TestDummyTest1D5Ev
                           .group:0000000000000000 _ZN17RecordingReporterD5Ev
                           .group:0000000000000000 _ZN17ScopedCurrentTestD5Ev
                           .group:0000000000000000 _ZNSt7__cxx1115basic_stringbufIcSt11char_traitsIcESaIcEED5Ev

UNDEFINED SYMBOLS
_ZN8UnitTest11CurrentTest7DetailsEv
_ZN8UnitTest11TestDetailsC1ERKS0_i
_ZN8UnitTest11CurrentTest7ResultsEv
_ZN8UnitTest10CheckEqualERNS_11TestResultsEPKcS3_RKNS_11TestDetailsE
__stack_chk_fail
__gxx_personality_v0
__cxa_begin_catch
_ZN8UnitTest11TestResults13OnTestFailureERKNS_11TestDetailsEPKc
__cxa_end_catch
_Unwind_Resume
_ZN8UnitTest4TestD2Ev
_ZdlPv
_ZNK8UnitTest8TestList7GetHeadEv
__strcpy_chk
_ZN8UnitTest12TestReporterD2Ev
__cxa_allocate_exception
_ZTIPKc
__cxa_throw
_ZTVNSt7__cxx1115basic_stringbufIcSt11char_traitsIcESaIcEEE
_ZTVSt15basic_streambufIcSt11char_traitsIcEE
_ZNSt6localeD1Ev
_ZTVSt9basic_iosIcSt11char_traitsIcEE
_ZNSt8ios_baseD2Ev
_ZN8UnitTest11TestResultsC1EPNS_12TestReporterE
_ZN8UnitTest4Test3RunEv
strstr
_ZNSt8ios_baseC2Ev
_ZNSt9basic_iosIcSt11char_traitsIcEE4initEPSt15basic_streambufIcS1_E
_ZNSt6localeC1Ev
_ZNK8UnitTest15AssertException10LineNumberEv
_ZNK8UnitTest15AssertException8FilenameEv
_ZN8UnitTest11TestDetailsC1EPKcS2_S2_i
_ZSt16__ostream_insertIcSt11char_traitsIcEERSt13basic_ostreamIT_T0_ES6_PKS3_l
_ZStlsISt11char_traitsIcEERSt13basic_ostreamIcT_ES5_PKc
_ZNK8UnitTest15MemoryOutStream7GetTextEv
_ZN8UnitTest16SignalTranslatorC1Ev
_ZN8UnitTest16SignalTranslator12s_jumpTargetE
__sigsetjmp
_ZN8UnitTest16SignalTranslatorD1Ev
_ZN8UnitTest12ReportAssertEPKcS1_i
_ZNSolsEi
_ZNK8UnitTest11TestResults18GetFailedTestCountEv
__dso_handle
_ZN8UnitTest8TestListC1Ev
_ZN8UnitTest4TestC2EPKcS2_S2_i
__cxa_atexit
_ZN8UnitTest9ListAdderC1ERNS_8TestListEPNS_4TestE
_ZN8UnitTest4Test11GetTestListEv
_ZTVN10__cxxabiv120__si_class_type_infoE
_ZTINSt7__cxx1119basic_ostringstreamIcSt11char_traitsIcESaIcEEE
_ZTIN8UnitTest12TestReporterE
_ZTIN8UnitTest4TestE
_ZTISo
_ZTIN8UnitTest15AssertExceptionE
_ZTISt9exception
