   1              		.file	"TestTestResults.cpp"
   2              		.text
   3              		.section	.text._ZN17RecordingReporter13ReportSummaryEiiif,"axG",@progbits,_ZN17RecordingReporter13
   4              		.align 2
   5              		.p2align 4
   6              		.weak	_ZN17RecordingReporter13ReportSummaryEiiif
   8              	_ZN17RecordingReporter13ReportSummaryEiiif:
   9              	.LFB1217:
  10              		.cfi_startproc
  11 0000 F30F1EFA 		endbr64
  12 0004 660F6ECE 		movd	%esi, %xmm1
  13 0008 660F6ED2 		movd	%edx, %xmm2
  14 000c 898F2408 		movl	%ecx, 2084(%rdi)
  14      0000
  15 0012 660F62CA 		punpckldq	%xmm2, %xmm1
  16 0016 F30F1187 		movss	%xmm0, 2088(%rdi)
  16      28080000 
  17 001e 660FD68F 		movq	%xmm1, 2076(%rdi)
  17      1C080000 
  18 0026 C3       		ret
  19              		.cfi_endproc
  20              	.LFE1217:
  22              		.text
  23              		.align 2
  24              		.p2align 4
  26              	_ZN12_GLOBAL__N_129TestNotifiesReporterOfTestEndD2Ev:
  27              	.LFB1342:
  28              		.cfi_startproc
  29 0000 F30F1EFA 		endbr64
  30 0004 488D0500 		leaq	16+_ZTVN12_GLOBAL__N_129TestNotifiesReporterOfTestEndE(%rip), %rax
  30      000000
  31 000b 488907   		movq	%rax, (%rdi)
  32 000e E9000000 		jmp	_ZN8UnitTest4TestD2Ev@PLT
  32      00
  33              		.cfi_endproc
  34              	.LFE1342:
  36              		.set	_ZN12_GLOBAL__N_129TestNotifiesReporterOfTestEndD1Ev,_ZN12_GLOBAL__N_129TestNotifiesReporterO
  37 0013 90       		.align 2
  38 0014 66662E0F 		.p2align 4
  38      1F840000 
  38      00000090 
  40              	_ZN12_GLOBAL__N_149TestNotifiesReporterOfCheckFailureWithCorrectInfoD2Ev:
  41              	.LFB1346:
  42              		.cfi_startproc
  43 0020 F30F1EFA 		endbr64
  44 0024 488D0500 		leaq	16+_ZTVN12_GLOBAL__N_149TestNotifiesReporterOfCheckFailureWithCorrectInfoE(%rip), %rax
  44      000000
  45 002b 488907   		movq	%rax, (%rdi)
  46 002e E9000000 		jmp	_ZN8UnitTest4TestD2Ev@PLT
  46      00
  47              		.cfi_endproc
  48              	.LFE1346:
  50              		.set	_ZN12_GLOBAL__N_149TestNotifiesReporterOfCheckFailureWithCorrectInfoD1Ev,_ZN12_GLOBAL__N_149T
  51 0033 90       		.align 2
  52 0034 66662E0F 		.p2align 4
  52      1F840000 
  52      00000090 
  54              	_ZN12_GLOBAL__N_148TestNotifiesReporterOfTestFailureWithCorrectInfoD2Ev:
  55              	.LFB1350:
  56              		.cfi_startproc
  57 0040 F30F1EFA 		endbr64
  58 0044 488D0500 		leaq	16+_ZTVN12_GLOBAL__N_148TestNotifiesReporterOfTestFailureWithCorrectInfoE(%rip), %rax
  58      000000
  59 004b 488907   		movq	%rax, (%rdi)
  60 004e E9000000 		jmp	_ZN8UnitTest4TestD2Ev@PLT
  60      00
  61              		.cfi_endproc
  62              	.LFE1350:
  64              		.set	_ZN12_GLOBAL__N_148TestNotifiesReporterOfTestFailureWithCorrectInfoD1Ev,_ZN12_GLOBAL__N_148Te
  65 0053 90       		.align 2
  66 0054 66662E0F 		.p2align 4
  66      1F840000 
  66      00000090 
  68              	_ZN12_GLOBAL__N_146TestNotifiesReporterOfTestStartWithCorrectInfoD2Ev:
  69              	.LFB1354:
  70              		.cfi_startproc
  71 0060 F30F1EFA 		endbr64
  72 0064 488D0500 		leaq	16+_ZTVN12_GLOBAL__N_146TestNotifiesReporterOfTestStartWithCorrectInfoE(%rip), %rax
  72      000000
  73 006b 488907   		movq	%rax, (%rdi)
  74 006e E9000000 		jmp	_ZN8UnitTest4TestD2Ev@PLT
  74      00
  75              		.cfi_endproc
  76              	.LFE1354:
  78              		.set	_ZN12_GLOBAL__N_146TestNotifiesReporterOfTestStartWithCorrectInfoD1Ev,_ZN12_GLOBAL__N_146Test
  79 0073 90       		.align 2
  80 0074 66662E0F 		.p2align 4
  80      1F840000 
  80      00000090 
  82              	_ZN12_GLOBAL__N_130TestRecordsNumberOfFailedTestsD2Ev:
  83              	.LFB1358:
  84              		.cfi_startproc
  85 0080 F30F1EFA 		endbr64
  86 0084 488D0500 		leaq	16+_ZTVN12_GLOBAL__N_130TestRecordsNumberOfFailedTestsE(%rip), %rax
  86      000000
  87 008b 488907   		movq	%rax, (%rdi)
  88 008e E9000000 		jmp	_ZN8UnitTest4TestD2Ev@PLT
  88      00
  89              		.cfi_endproc
  90              	.LFE1358:
  92              		.set	_ZN12_GLOBAL__N_130TestRecordsNumberOfFailedTestsD1Ev,_ZN12_GLOBAL__N_130TestRecordsNumberOfF
  93 0093 90       		.align 2
  94 0094 66662E0F 		.p2align 4
  94      1F840000 
  94      00000090 
  96              	_ZN12_GLOBAL__N_127TestRecordsNumberOfFailuresD2Ev:
  97              	.LFB1362:
  98              		.cfi_startproc
  99 00a0 F30F1EFA 		endbr64
 100 00a4 488D0500 		leaq	16+_ZTVN12_GLOBAL__N_127TestRecordsNumberOfFailuresE(%rip), %rax
 100      000000
 101 00ab 488907   		movq	%rax, (%rdi)
 102 00ae E9000000 		jmp	_ZN8UnitTest4TestD2Ev@PLT
 102      00
 103              		.cfi_endproc
 104              	.LFE1362:
 106              		.set	_ZN12_GLOBAL__N_127TestRecordsNumberOfFailuresD1Ev,_ZN12_GLOBAL__N_127TestRecordsNumberOfFail
 107 00b3 90       		.align 2
 108 00b4 66662E0F 		.p2align 4
 108      1F840000 
 108      00000090 
 110              	_ZN12_GLOBAL__N_128TestStartsWithNoTestsFailingD2Ev:
 111              	.LFB1366:
 112              		.cfi_startproc
 113 00c0 F30F1EFA 		endbr64
 114 00c4 488D0500 		leaq	16+_ZTVN12_GLOBAL__N_128TestStartsWithNoTestsFailingE(%rip), %rax
 114      000000
 115 00cb 488907   		movq	%rax, (%rdi)
 116 00ce E9000000 		jmp	_ZN8UnitTest4TestD2Ev@PLT
 116      00
 117              		.cfi_endproc
 118              	.LFE1366:
 120              		.set	_ZN12_GLOBAL__N_128TestStartsWithNoTestsFailingD1Ev,_ZN12_GLOBAL__N_128TestStartsWithNoTestsF
 121 00d3 90       		.align 2
 122 00d4 66662E0F 		.p2align 4
 122      1F840000 
 122      00000090 
 124              	_ZN12_GLOBAL__N_125TestRecordsNumbersOfTestsD2Ev:
 125              	.LFB1370:
 126              		.cfi_startproc
 127 00e0 F30F1EFA 		endbr64
 128 00e4 488D0500 		leaq	16+_ZTVN12_GLOBAL__N_125TestRecordsNumbersOfTestsE(%rip), %rax
 128      000000
 129 00eb 488907   		movq	%rax, (%rdi)
 130 00ee E9000000 		jmp	_ZN8UnitTest4TestD2Ev@PLT
 130      00
 131              		.cfi_endproc
 132              	.LFE1370:
 134              		.set	_ZN12_GLOBAL__N_125TestRecordsNumbersOfTestsD1Ev,_ZN12_GLOBAL__N_125TestRecordsNumbersOfTests
 135 00f3 90       		.align 2
 136 00f4 66662E0F 		.p2align 4
 136      1F840000 
 136      00000090 
 138              	_ZN12_GLOBAL__N_124TestStartsWithNoTestsRunD2Ev:
 139              	.LFB1374:
 140              		.cfi_startproc
 141 0100 F30F1EFA 		endbr64
 142 0104 488D0500 		leaq	16+_ZTVN12_GLOBAL__N_124TestStartsWithNoTestsRunE(%rip), %rax
 142      000000
 143 010b 488907   		movq	%rax, (%rdi)
 144 010e E9000000 		jmp	_ZN8UnitTest4TestD2Ev@PLT
 144      00
 145              		.cfi_endproc
 146              	.LFE1374:
 148              		.set	_ZN12_GLOBAL__N_124TestStartsWithNoTestsRunD1Ev,_ZN12_GLOBAL__N_124TestStartsWithNoTestsRunD2
 149              		.section	.text._ZN17RecordingReporter15ReportTestStartERKN8UnitTest11TestDetailsE,"axG",@progbits,
 150              		.align 2
 151              		.p2align 4
 152              		.weak	_ZN17RecordingReporter15ReportTestStartERKN8UnitTest11TestDetailsE
 154              	_ZN17RecordingReporter15ReportTestStartERKN8UnitTest11TestDetailsE:
 155              	.LFB1214:
 156              		.cfi_startproc
 157 0000 F30F1EFA 		endbr64
 158 0004 55       		pushq	%rbp
 159              		.cfi_def_cfa_offset 16
 160              		.cfi_offset 6, -16
 161 0005 4889F5   		movq	%rsi, %rbp
 162 0008 BA000100 		movl	$256, %edx
 162      00
 163 000d 53       		pushq	%rbx
 164              		.cfi_def_cfa_offset 24
 165              		.cfi_offset 3, -24
 166 000e 4889FB   		movq	%rdi, %rbx
 167 0011 4883EC08 		subq	$8, %rsp
 168              		.cfi_def_cfa_offset 32
 169 0015 83470801 		addl	$1, 8(%rdi)
 170 0019 488B36   		movq	(%rsi), %rsi
 171 001c 488D7F0C 		leaq	12(%rdi), %rdi
 172 0020 E8000000 		call	__strcpy_chk@PLT
 172      00
 173 0025 488B7508 		movq	8(%rbp), %rsi
 174 0029 4883C408 		addq	$8, %rsp
 175              		.cfi_def_cfa_offset 24
 176 002d 488DBB0C 		leaq	268(%rbx), %rdi
 176      010000
 177 0034 BA000100 		movl	$256, %edx
 177      00
 178 0039 5B       		popq	%rbx
 179              		.cfi_def_cfa_offset 16
 180 003a 5D       		popq	%rbp
 181              		.cfi_def_cfa_offset 8
 182 003b E9000000 		jmp	__strcpy_chk@PLT
 182      00
 183              		.cfi_endproc
 184              	.LFE1214:
 186              		.section	.text._ZN17RecordingReporter13ReportFailureERKN8UnitTest11TestDetailsEPKc,"axG",@progbits
 187              		.align 2
 188              		.p2align 4
 189              		.weak	_ZN17RecordingReporter13ReportFailureERKN8UnitTest11TestDetailsEPKc
 191              	_ZN17RecordingReporter13ReportFailureERKN8UnitTest11TestDetailsEPKc:
 192              	.LFB1215:
 193              		.cfi_startproc
 194 0000 F30F1EFA 		endbr64
 195 0004 4154     		pushq	%r12
 196              		.cfi_def_cfa_offset 16
 197              		.cfi_offset 12, -16
 198 0006 4989D4   		movq	%rdx, %r12
 199 0009 BA000100 		movl	$256, %edx
 199      00
 200 000e 55       		pushq	%rbp
 201              		.cfi_def_cfa_offset 24
 202              		.cfi_offset 6, -24
 203 000f 4889F5   		movq	%rsi, %rbp
 204 0012 53       		pushq	%rbx
 205              		.cfi_def_cfa_offset 32
 206              		.cfi_offset 3, -32
 207 0013 488B7610 		movq	16(%rsi), %rsi
 208 0017 4889FB   		movq	%rdi, %rbx
 209 001a 83870C02 		addl	$1, 524(%rdi)
 209      000001
 210 0021 488DBF10 		leaq	528(%rdi), %rdi
 210      020000
 211 0028 E8000000 		call	__strcpy_chk@PLT
 211      00
 212 002d 8B4518   		movl	24(%rbp), %eax
 213 0030 488B7500 		movq	0(%rbp), %rsi
 214 0034 488DBB14 		leaq	788(%rbx), %rdi
 214      030000
 215 003b BA000100 		movl	$256, %edx
 215      00
 216 0040 89831003 		movl	%eax, 784(%rbx)
 216      0000
 217 0046 E8000000 		call	__strcpy_chk@PLT
 217      00
 218 004b 488B7508 		movq	8(%rbp), %rsi
 219 004f BA000100 		movl	$256, %edx
 219      00
 220 0054 488DBB14 		leaq	1044(%rbx), %rdi
 220      040000
 221 005b E8000000 		call	__strcpy_chk@PLT
 221      00
 222 0060 488DBB14 		leaq	1300(%rbx), %rdi
 222      050000
 223 0067 4C89E6   		movq	%r12, %rsi
 224 006a 5B       		popq	%rbx
 225              		.cfi_def_cfa_offset 24
 226 006b BA000100 		movl	$256, %edx
 226      00
 227 0070 5D       		popq	%rbp
 228              		.cfi_def_cfa_offset 16
 229 0071 415C     		popq	%r12
 230              		.cfi_def_cfa_offset 8
 231 0073 E9000000 		jmp	__strcpy_chk@PLT
 231      00
 232              		.cfi_endproc
 233              	.LFE1215:
 235              		.section	.text._ZN17RecordingReporter16ReportTestFinishERKN8UnitTest11TestDetailsEf,"axG",@progbit
 236              		.align 2
 237              		.p2align 4
 238              		.weak	_ZN17RecordingReporter16ReportTestFinishERKN8UnitTest11TestDetailsEf
 240              	_ZN17RecordingReporter16ReportTestFinishERKN8UnitTest11TestDetailsEf:
 241              	.LFB1216:
 242              		.cfi_startproc
 243 0000 F30F1EFA 		endbr64
 244 0004 55       		pushq	%rbp
 245              		.cfi_def_cfa_offset 16
 246              		.cfi_offset 6, -16
 247 0005 4889F5   		movq	%rsi, %rbp
 248 0008 BA000100 		movl	$256, %edx
 248      00
 249 000d 53       		pushq	%rbx
 250              		.cfi_def_cfa_offset 24
 251              		.cfi_offset 3, -24
 252 000e 4889FB   		movq	%rdi, %rbx
 253 0011 4883EC18 		subq	$24, %rsp
 254              		.cfi_def_cfa_offset 48
 255 0015 83871406 		addl	$1, 1556(%rdi)
 255      000001
 256 001c 488B36   		movq	(%rsi), %rsi
 257 001f 488DBF18 		leaq	1560(%rdi), %rdi
 257      060000
 258 0026 F30F1144 		movss	%xmm0, 12(%rsp)
 258      240C
 259 002c E8000000 		call	__strcpy_chk@PLT
 259      00
 260 0031 488B7508 		movq	8(%rbp), %rsi
 261 0035 BA000100 		movl	$256, %edx
 261      00
 262 003a 488DBB18 		leaq	1816(%rbx), %rdi
 262      070000
 263 0041 E8000000 		call	__strcpy_chk@PLT
 263      00
 264 0046 F30F1044 		movss	12(%rsp), %xmm0
 264      240C
 265 004c F30F1183 		movss	%xmm0, 2072(%rbx)
 265      18080000 
 266 0054 4883C418 		addq	$24, %rsp
 267              		.cfi_def_cfa_offset 24
 268 0058 5B       		popq	%rbx
 269              		.cfi_def_cfa_offset 16
 270 0059 5D       		popq	%rbp
 271              		.cfi_def_cfa_offset 8
 272 005a C3       		ret
 273              		.cfi_endproc
 274              	.LFE1216:
 276              		.section	.text.unlikely,"ax",@progbits
 277              		.align 2
 278              	.LCOLDB0:
 279              		.text
 280              	.LHOTB0:
 281 0113 90       		.align 2
 282 0114 66662E0F 		.p2align 4
 282      1F840000 
 282      00000090 
 284              	_ZN12_GLOBAL__N_129TestNotifiesReporterOfTestEndD0Ev:
 285              	.LFB1344:
 286              		.cfi_startproc
 287              		.cfi_personality 0x9b,DW.ref.__gxx_personality_v0
 288              		.cfi_lsda 0x1b,.LLSDA1344
 289 0120 F30F1EFA 		endbr64
 290 0124 4154     		pushq	%r12
 291              		.cfi_def_cfa_offset 16
 292              		.cfi_offset 12, -16
 293 0126 488D0500 		leaq	16+_ZTVN12_GLOBAL__N_129TestNotifiesReporterOfTestEndE(%rip), %rax
 293      000000
 294 012d 55       		pushq	%rbp
 295              		.cfi_def_cfa_offset 24
 296              		.cfi_offset 6, -24
 297 012e 4889FD   		movq	%rdi, %rbp
 298 0131 4883EC08 		subq	$8, %rsp
 299              		.cfi_def_cfa_offset 32
 300 0135 488907   		movq	%rax, (%rdi)
 301              	.LEHB0:
 302 0138 E8000000 		call	_ZN8UnitTest4TestD2Ev@PLT
 302      00
 303              	.LEHE0:
 304 013d 4883C408 		addq	$8, %rsp
 305              		.cfi_remember_state
 306              		.cfi_def_cfa_offset 24
 307 0141 4889EF   		movq	%rbp, %rdi
 308 0144 5D       		popq	%rbp
 309              		.cfi_def_cfa_offset 16
 310 0145 415C     		popq	%r12
 311              		.cfi_def_cfa_offset 8
 312 0147 E9000000 		jmp	_ZdlPv@PLT
 312      00
 313              	.L20:
 314              		.cfi_restore_state
 315 014c F30F1EFA 		endbr64
 316 0150 4989C4   		movq	%rax, %r12
 317 0153 E9000000 		jmp	.L19
 317      00
 318              		.globl	__gxx_personality_v0
 319              		.section	.gcc_except_table,"a",@progbits
 320              	.LLSDA1344:
 321 0000 FF       		.byte	0xff
 322 0001 FF       		.byte	0xff
 323 0002 01       		.byte	0x1
 324 0003 04       		.uleb128 .LLSDACSE1344-.LLSDACSB1344
 325              	.LLSDACSB1344:
 326 0004 18       		.uleb128 .LEHB0-.LFB1344
 327 0005 05       		.uleb128 .LEHE0-.LEHB0
 328 0006 2C       		.uleb128 .L20-.LFB1344
 329 0007 00       		.uleb128 0
 330              	.LLSDACSE1344:
 331              		.text
 332              		.cfi_endproc
 333              		.section	.text.unlikely
 334              		.cfi_startproc
 335              		.cfi_personality 0x9b,DW.ref.__gxx_personality_v0
 336              		.cfi_lsda 0x1b,.LLSDAC1344
 338              	_ZN12_GLOBAL__N_129TestNotifiesReporterOfTestEndD0Ev.cold:
 339              	.LFSB1344:
 340              	.L19:
 341              		.cfi_def_cfa_offset 32
 342              		.cfi_offset 6, -24
 343              		.cfi_offset 12, -16
 344 0000 4889EF   		movq	%rbp, %rdi
 345 0003 E8000000 		call	_ZdlPv@PLT
 345      00
 346 0008 4C89E7   		movq	%r12, %rdi
 347              	.LEHB1:
 348 000b E8000000 		call	_Unwind_Resume@PLT
 348      00
 349              	.LEHE1:
 350              		.cfi_endproc
 351              	.LFE1344:
 352              		.section	.gcc_except_table
 353              	.LLSDAC1344:
 354 0008 FF       		.byte	0xff
 355 0009 FF       		.byte	0xff
 356 000a 01       		.byte	0x1
 357 000b 04       		.uleb128 .LLSDACSEC1344-.LLSDACSBC1344
 358              	.LLSDACSBC1344:
 359 000c 0B       		.uleb128 .LEHB1-.LCOLDB0
 360 000d 05       		.uleb128 .LEHE1-.LEHB1
 361 000e 00       		.uleb128 0
 362 000f 00       		.uleb128 0
 363              	.LLSDACSEC1344:
 364              		.section	.text.unlikely
 365              		.text
 367              		.section	.text.unlikely
 369              	.LCOLDE0:
 370              		.text
 371              	.LHOTE0:
 372              		.section	.text.unlikely
 373              		.align 2
 374              	.LCOLDB1:
 375              		.text
 376              	.LHOTB1:
 377              		.align 2
 378 0158 0F1F8400 		.p2align 4
 378      00000000 
 380              	_ZN12_GLOBAL__N_149TestNotifiesReporterOfCheckFailureWithCorrectInfoD0Ev:
 381              	.LFB1348:
 382              		.cfi_startproc
 383              		.cfi_personality 0x9b,DW.ref.__gxx_personality_v0
 384              		.cfi_lsda 0x1b,.LLSDA1348
 385 0160 F30F1EFA 		endbr64
 386 0164 4154     		pushq	%r12
 387              		.cfi_def_cfa_offset 16
 388              		.cfi_offset 12, -16
 389 0166 488D0500 		leaq	16+_ZTVN12_GLOBAL__N_149TestNotifiesReporterOfCheckFailureWithCorrectInfoE(%rip), %rax
 389      000000
 390 016d 55       		pushq	%rbp
 391              		.cfi_def_cfa_offset 24
 392              		.cfi_offset 6, -24
 393 016e 4889FD   		movq	%rdi, %rbp
 394 0171 4883EC08 		subq	$8, %rsp
 395              		.cfi_def_cfa_offset 32
 396 0175 488907   		movq	%rax, (%rdi)
 397              	.LEHB2:
 398 0178 E8000000 		call	_ZN8UnitTest4TestD2Ev@PLT
 398      00
 399              	.LEHE2:
 400 017d 4883C408 		addq	$8, %rsp
 401              		.cfi_remember_state
 402              		.cfi_def_cfa_offset 24
 403 0181 4889EF   		movq	%rbp, %rdi
 404 0184 5D       		popq	%rbp
 405              		.cfi_def_cfa_offset 16
 406 0185 415C     		popq	%r12
 407              		.cfi_def_cfa_offset 8
 408 0187 E9000000 		jmp	_ZdlPv@PLT
 408      00
 409              	.L24:
 410              		.cfi_restore_state
 411 018c F30F1EFA 		endbr64
 412 0190 4989C4   		movq	%rax, %r12
 413 0193 E9000000 		jmp	.L23
 413      00
 414              		.section	.gcc_except_table
 415              	.LLSDA1348:
 416 0010 FF       		.byte	0xff
 417 0011 FF       		.byte	0xff
 418 0012 01       		.byte	0x1
 419 0013 04       		.uleb128 .LLSDACSE1348-.LLSDACSB1348
 420              	.LLSDACSB1348:
 421 0014 18       		.uleb128 .LEHB2-.LFB1348
 422 0015 05       		.uleb128 .LEHE2-.LEHB2
 423 0016 2C       		.uleb128 .L24-.LFB1348
 424 0017 00       		.uleb128 0
 425              	.LLSDACSE1348:
 426              		.text
 427              		.cfi_endproc
 428              		.section	.text.unlikely
 429              		.cfi_startproc
 430              		.cfi_personality 0x9b,DW.ref.__gxx_personality_v0
 431              		.cfi_lsda 0x1b,.LLSDAC1348
 433              	_ZN12_GLOBAL__N_149TestNotifiesReporterOfCheckFailureWithCorrectInfoD0Ev.cold:
 434              	.LFSB1348:
 435              	.L23:
 436              		.cfi_def_cfa_offset 32
 437              		.cfi_offset 6, -24
 438              		.cfi_offset 12, -16
 439 0010 4889EF   		movq	%rbp, %rdi
 440 0013 E8000000 		call	_ZdlPv@PLT
 440      00
 441 0018 4C89E7   		movq	%r12, %rdi
 442              	.LEHB3:
 443 001b E8000000 		call	_Unwind_Resume@PLT
 443      00
 444              	.LEHE3:
 445              		.cfi_endproc
 446              	.LFE1348:
 447              		.section	.gcc_except_table
 448              	.LLSDAC1348:
 449 0018 FF       		.byte	0xff
 450 0019 FF       		.byte	0xff
 451 001a 01       		.byte	0x1
 452 001b 04       		.uleb128 .LLSDACSEC1348-.LLSDACSBC1348
 453              	.LLSDACSBC1348:
 454 001c 0B       		.uleb128 .LEHB3-.LCOLDB1
 455 001d 05       		.uleb128 .LEHE3-.LEHB3
 456 001e 00       		.uleb128 0
 457 001f 00       		.uleb128 0
 458              	.LLSDACSEC1348:
 459              		.section	.text.unlikely
 460              		.text
 462              		.section	.text.unlikely
 464              	.LCOLDE1:
 465              		.text
 466              	.LHOTE1:
 467              		.section	.text.unlikely
 468              		.align 2
 469              	.LCOLDB2:
 470              		.text
 471              	.LHOTB2:
 472              		.align 2
 473 0198 0F1F8400 		.p2align 4
 473      00000000 
 475              	_ZN12_GLOBAL__N_148TestNotifiesReporterOfTestFailureWithCorrectInfoD0Ev:
 476              	.LFB1352:
 477              		.cfi_startproc
 478              		.cfi_personality 0x9b,DW.ref.__gxx_personality_v0
 479              		.cfi_lsda 0x1b,.LLSDA1352
 480 01a0 F30F1EFA 		endbr64
 481 01a4 4154     		pushq	%r12
 482              		.cfi_def_cfa_offset 16
 483              		.cfi_offset 12, -16
 484 01a6 488D0500 		leaq	16+_ZTVN12_GLOBAL__N_148TestNotifiesReporterOfTestFailureWithCorrectInfoE(%rip), %rax
 484      000000
 485 01ad 55       		pushq	%rbp
 486              		.cfi_def_cfa_offset 24
 487              		.cfi_offset 6, -24
 488 01ae 4889FD   		movq	%rdi, %rbp
 489 01b1 4883EC08 		subq	$8, %rsp
 490              		.cfi_def_cfa_offset 32
 491 01b5 488907   		movq	%rax, (%rdi)
 492              	.LEHB4:
 493 01b8 E8000000 		call	_ZN8UnitTest4TestD2Ev@PLT
 493      00
 494              	.LEHE4:
 495 01bd 4883C408 		addq	$8, %rsp
 496              		.cfi_remember_state
 497              		.cfi_def_cfa_offset 24
 498 01c1 4889EF   		movq	%rbp, %rdi
 499 01c4 5D       		popq	%rbp
 500              		.cfi_def_cfa_offset 16
 501 01c5 415C     		popq	%r12
 502              		.cfi_def_cfa_offset 8
 503 01c7 E9000000 		jmp	_ZdlPv@PLT
 503      00
 504              	.L28:
 505              		.cfi_restore_state
 506 01cc F30F1EFA 		endbr64
 507 01d0 4989C4   		movq	%rax, %r12
 508 01d3 E9000000 		jmp	.L27
 508      00
 509              		.section	.gcc_except_table
 510              	.LLSDA1352:
 511 0020 FF       		.byte	0xff
 512 0021 FF       		.byte	0xff
 513 0022 01       		.byte	0x1
 514 0023 04       		.uleb128 .LLSDACSE1352-.LLSDACSB1352
 515              	.LLSDACSB1352:
 516 0024 18       		.uleb128 .LEHB4-.LFB1352
 517 0025 05       		.uleb128 .LEHE4-.LEHB4
 518 0026 2C       		.uleb128 .L28-.LFB1352
 519 0027 00       		.uleb128 0
 520              	.LLSDACSE1352:
 521              		.text
 522              		.cfi_endproc
 523              		.section	.text.unlikely
 524              		.cfi_startproc
 525              		.cfi_personality 0x9b,DW.ref.__gxx_personality_v0
 526              		.cfi_lsda 0x1b,.LLSDAC1352
 528              	_ZN12_GLOBAL__N_148TestNotifiesReporterOfTestFailureWithCorrectInfoD0Ev.cold:
 529              	.LFSB1352:
 530              	.L27:
 531              		.cfi_def_cfa_offset 32
 532              		.cfi_offset 6, -24
 533              		.cfi_offset 12, -16
 534 0020 4889EF   		movq	%rbp, %rdi
 535 0023 E8000000 		call	_ZdlPv@PLT
 535      00
 536 0028 4C89E7   		movq	%r12, %rdi
 537              	.LEHB5:
 538 002b E8000000 		call	_Unwind_Resume@PLT
 538      00
 539              	.LEHE5:
 540              		.cfi_endproc
 541              	.LFE1352:
 542              		.section	.gcc_except_table
 543              	.LLSDAC1352:
 544 0028 FF       		.byte	0xff
 545 0029 FF       		.byte	0xff
 546 002a 01       		.byte	0x1
 547 002b 04       		.uleb128 .LLSDACSEC1352-.LLSDACSBC1352
 548              	.LLSDACSBC1352:
 549 002c 0B       		.uleb128 .LEHB5-.LCOLDB2
 550 002d 05       		.uleb128 .LEHE5-.LEHB5
 551 002e 00       		.uleb128 0
 552 002f 00       		.uleb128 0
 553              	.LLSDACSEC1352:
 554              		.section	.text.unlikely
 555              		.text
 557              		.section	.text.unlikely
 559              	.LCOLDE2:
 560              		.text
 561              	.LHOTE2:
 562              		.section	.text.unlikely
 563              		.align 2
 564              	.LCOLDB3:
 565              		.text
 566              	.LHOTB3:
 567              		.align 2
 568 01d8 0F1F8400 		.p2align 4
 568      00000000 
 570              	_ZN12_GLOBAL__N_146TestNotifiesReporterOfTestStartWithCorrectInfoD0Ev:
 571              	.LFB1356:
 572              		.cfi_startproc
 573              		.cfi_personality 0x9b,DW.ref.__gxx_personality_v0
 574              		.cfi_lsda 0x1b,.LLSDA1356
 575 01e0 F30F1EFA 		endbr64
 576 01e4 4154     		pushq	%r12
 577              		.cfi_def_cfa_offset 16
 578              		.cfi_offset 12, -16
 579 01e6 488D0500 		leaq	16+_ZTVN12_GLOBAL__N_146TestNotifiesReporterOfTestStartWithCorrectInfoE(%rip), %rax
 579      000000
 580 01ed 55       		pushq	%rbp
 581              		.cfi_def_cfa_offset 24
 582              		.cfi_offset 6, -24
 583 01ee 4889FD   		movq	%rdi, %rbp
 584 01f1 4883EC08 		subq	$8, %rsp
 585              		.cfi_def_cfa_offset 32
 586 01f5 488907   		movq	%rax, (%rdi)
 587              	.LEHB6:
 588 01f8 E8000000 		call	_ZN8UnitTest4TestD2Ev@PLT
 588      00
 589              	.LEHE6:
 590 01fd 4883C408 		addq	$8, %rsp
 591              		.cfi_remember_state
 592              		.cfi_def_cfa_offset 24
 593 0201 4889EF   		movq	%rbp, %rdi
 594 0204 5D       		popq	%rbp
 595              		.cfi_def_cfa_offset 16
 596 0205 415C     		popq	%r12
 597              		.cfi_def_cfa_offset 8
 598 0207 E9000000 		jmp	_ZdlPv@PLT
 598      00
 599              	.L32:
 600              		.cfi_restore_state
 601 020c F30F1EFA 		endbr64
 602 0210 4989C4   		movq	%rax, %r12
 603 0213 E9000000 		jmp	.L31
 603      00
 604              		.section	.gcc_except_table
 605              	.LLSDA1356:
 606 0030 FF       		.byte	0xff
 607 0031 FF       		.byte	0xff
 608 0032 01       		.byte	0x1
 609 0033 04       		.uleb128 .LLSDACSE1356-.LLSDACSB1356
 610              	.LLSDACSB1356:
 611 0034 18       		.uleb128 .LEHB6-.LFB1356
 612 0035 05       		.uleb128 .LEHE6-.LEHB6
 613 0036 2C       		.uleb128 .L32-.LFB1356
 614 0037 00       		.uleb128 0
 615              	.LLSDACSE1356:
 616              		.text
 617              		.cfi_endproc
 618              		.section	.text.unlikely
 619              		.cfi_startproc
 620              		.cfi_personality 0x9b,DW.ref.__gxx_personality_v0
 621              		.cfi_lsda 0x1b,.LLSDAC1356
 623              	_ZN12_GLOBAL__N_146TestNotifiesReporterOfTestStartWithCorrectInfoD0Ev.cold:
 624              	.LFSB1356:
 625              	.L31:
 626              		.cfi_def_cfa_offset 32
 627              		.cfi_offset 6, -24
 628              		.cfi_offset 12, -16
 629 0030 4889EF   		movq	%rbp, %rdi
 630 0033 E8000000 		call	_ZdlPv@PLT
 630      00
 631 0038 4C89E7   		movq	%r12, %rdi
 632              	.LEHB7:
 633 003b E8000000 		call	_Unwind_Resume@PLT
 633      00
 634              	.LEHE7:
 635              		.cfi_endproc
 636              	.LFE1356:
 637              		.section	.gcc_except_table
 638              	.LLSDAC1356:
 639 0038 FF       		.byte	0xff
 640 0039 FF       		.byte	0xff
 641 003a 01       		.byte	0x1
 642 003b 04       		.uleb128 .LLSDACSEC1356-.LLSDACSBC1356
 643              	.LLSDACSBC1356:
 644 003c 0B       		.uleb128 .LEHB7-.LCOLDB3
 645 003d 05       		.uleb128 .LEHE7-.LEHB7
 646 003e 00       		.uleb128 0
 647 003f 00       		.uleb128 0
 648              	.LLSDACSEC1356:
 649              		.section	.text.unlikely
 650              		.text
 652              		.section	.text.unlikely
 654              	.LCOLDE3:
 655              		.text
 656              	.LHOTE3:
 657              		.section	.text.unlikely
 658              		.align 2
 659              	.LCOLDB4:
 660              		.text
 661              	.LHOTB4:
 662              		.align 2
 663 0218 0F1F8400 		.p2align 4
 663      00000000 
 665              	_ZN12_GLOBAL__N_130TestRecordsNumberOfFailedTestsD0Ev:
 666              	.LFB1360:
 667              		.cfi_startproc
 668              		.cfi_personality 0x9b,DW.ref.__gxx_personality_v0
 669              		.cfi_lsda 0x1b,.LLSDA1360
 670 0220 F30F1EFA 		endbr64
 671 0224 4154     		pushq	%r12
 672              		.cfi_def_cfa_offset 16
 673              		.cfi_offset 12, -16
 674 0226 488D0500 		leaq	16+_ZTVN12_GLOBAL__N_130TestRecordsNumberOfFailedTestsE(%rip), %rax
 674      000000
 675 022d 55       		pushq	%rbp
 676              		.cfi_def_cfa_offset 24
 677              		.cfi_offset 6, -24
 678 022e 4889FD   		movq	%rdi, %rbp
 679 0231 4883EC08 		subq	$8, %rsp
 680              		.cfi_def_cfa_offset 32
 681 0235 488907   		movq	%rax, (%rdi)
 682              	.LEHB8:
 683 0238 E8000000 		call	_ZN8UnitTest4TestD2Ev@PLT
 683      00
 684              	.LEHE8:
 685 023d 4883C408 		addq	$8, %rsp
 686              		.cfi_remember_state
 687              		.cfi_def_cfa_offset 24
 688 0241 4889EF   		movq	%rbp, %rdi
 689 0244 5D       		popq	%rbp
 690              		.cfi_def_cfa_offset 16
 691 0245 415C     		popq	%r12
 692              		.cfi_def_cfa_offset 8
 693 0247 E9000000 		jmp	_ZdlPv@PLT
 693      00
 694              	.L36:
 695              		.cfi_restore_state
 696 024c F30F1EFA 		endbr64
 697 0250 4989C4   		movq	%rax, %r12
 698 0253 E9000000 		jmp	.L35
 698      00
 699              		.section	.gcc_except_table
 700              	.LLSDA1360:
 701 0040 FF       		.byte	0xff
 702 0041 FF       		.byte	0xff
 703 0042 01       		.byte	0x1
 704 0043 04       		.uleb128 .LLSDACSE1360-.LLSDACSB1360
 705              	.LLSDACSB1360:
 706 0044 18       		.uleb128 .LEHB8-.LFB1360
 707 0045 05       		.uleb128 .LEHE8-.LEHB8
 708 0046 2C       		.uleb128 .L36-.LFB1360
 709 0047 00       		.uleb128 0
 710              	.LLSDACSE1360:
 711              		.text
 712              		.cfi_endproc
 713              		.section	.text.unlikely
 714              		.cfi_startproc
 715              		.cfi_personality 0x9b,DW.ref.__gxx_personality_v0
 716              		.cfi_lsda 0x1b,.LLSDAC1360
 718              	_ZN12_GLOBAL__N_130TestRecordsNumberOfFailedTestsD0Ev.cold:
 719              	.LFSB1360:
 720              	.L35:
 721              		.cfi_def_cfa_offset 32
 722              		.cfi_offset 6, -24
 723              		.cfi_offset 12, -16
 724 0040 4889EF   		movq	%rbp, %rdi
 725 0043 E8000000 		call	_ZdlPv@PLT
 725      00
 726 0048 4C89E7   		movq	%r12, %rdi
 727              	.LEHB9:
 728 004b E8000000 		call	_Unwind_Resume@PLT
 728      00
 729              	.LEHE9:
 730              		.cfi_endproc
 731              	.LFE1360:
 732              		.section	.gcc_except_table
 733              	.LLSDAC1360:
 734 0048 FF       		.byte	0xff
 735 0049 FF       		.byte	0xff
 736 004a 01       		.byte	0x1
 737 004b 04       		.uleb128 .LLSDACSEC1360-.LLSDACSBC1360
 738              	.LLSDACSBC1360:
 739 004c 0B       		.uleb128 .LEHB9-.LCOLDB4
 740 004d 05       		.uleb128 .LEHE9-.LEHB9
 741 004e 00       		.uleb128 0
 742 004f 00       		.uleb128 0
 743              	.LLSDACSEC1360:
 744              		.section	.text.unlikely
 745              		.text
 747              		.section	.text.unlikely
 749              	.LCOLDE4:
 750              		.text
 751              	.LHOTE4:
 752              		.section	.text.unlikely
 753              		.align 2
 754              	.LCOLDB5:
 755              		.text
 756              	.LHOTB5:
 757              		.align 2
 758 0258 0F1F8400 		.p2align 4
 758      00000000 
 760              	_ZN12_GLOBAL__N_127TestRecordsNumberOfFailuresD0Ev:
 761              	.LFB1364:
 762              		.cfi_startproc
 763              		.cfi_personality 0x9b,DW.ref.__gxx_personality_v0
 764              		.cfi_lsda 0x1b,.LLSDA1364
 765 0260 F30F1EFA 		endbr64
 766 0264 4154     		pushq	%r12
 767              		.cfi_def_cfa_offset 16
 768              		.cfi_offset 12, -16
 769 0266 488D0500 		leaq	16+_ZTVN12_GLOBAL__N_127TestRecordsNumberOfFailuresE(%rip), %rax
 769      000000
 770 026d 55       		pushq	%rbp
 771              		.cfi_def_cfa_offset 24
 772              		.cfi_offset 6, -24
 773 026e 4889FD   		movq	%rdi, %rbp
 774 0271 4883EC08 		subq	$8, %rsp
 775              		.cfi_def_cfa_offset 32
 776 0275 488907   		movq	%rax, (%rdi)
 777              	.LEHB10:
 778 0278 E8000000 		call	_ZN8UnitTest4TestD2Ev@PLT
 778      00
 779              	.LEHE10:
 780 027d 4883C408 		addq	$8, %rsp
 781              		.cfi_remember_state
 782              		.cfi_def_cfa_offset 24
 783 0281 4889EF   		movq	%rbp, %rdi
 784 0284 5D       		popq	%rbp
 785              		.cfi_def_cfa_offset 16
 786 0285 415C     		popq	%r12
 787              		.cfi_def_cfa_offset 8
 788 0287 E9000000 		jmp	_ZdlPv@PLT
 788      00
 789              	.L40:
 790              		.cfi_restore_state
 791 028c F30F1EFA 		endbr64
 792 0290 4989C4   		movq	%rax, %r12
 793 0293 E9000000 		jmp	.L39
 793      00
 794              		.section	.gcc_except_table
 795              	.LLSDA1364:
 796 0050 FF       		.byte	0xff
 797 0051 FF       		.byte	0xff
 798 0052 01       		.byte	0x1
 799 0053 04       		.uleb128 .LLSDACSE1364-.LLSDACSB1364
 800              	.LLSDACSB1364:
 801 0054 18       		.uleb128 .LEHB10-.LFB1364
 802 0055 05       		.uleb128 .LEHE10-.LEHB10
 803 0056 2C       		.uleb128 .L40-.LFB1364
 804 0057 00       		.uleb128 0
 805              	.LLSDACSE1364:
 806              		.text
 807              		.cfi_endproc
 808              		.section	.text.unlikely
 809              		.cfi_startproc
 810              		.cfi_personality 0x9b,DW.ref.__gxx_personality_v0
 811              		.cfi_lsda 0x1b,.LLSDAC1364
 813              	_ZN12_GLOBAL__N_127TestRecordsNumberOfFailuresD0Ev.cold:
 814              	.LFSB1364:
 815              	.L39:
 816              		.cfi_def_cfa_offset 32
 817              		.cfi_offset 6, -24
 818              		.cfi_offset 12, -16
 819 0050 4889EF   		movq	%rbp, %rdi
 820 0053 E8000000 		call	_ZdlPv@PLT
 820      00
 821 0058 4C89E7   		movq	%r12, %rdi
 822              	.LEHB11:
 823 005b E8000000 		call	_Unwind_Resume@PLT
 823      00
 824              	.LEHE11:
 825              		.cfi_endproc
 826              	.LFE1364:
 827              		.section	.gcc_except_table
 828              	.LLSDAC1364:
 829 0058 FF       		.byte	0xff
 830 0059 FF       		.byte	0xff
 831 005a 01       		.byte	0x1
 832 005b 04       		.uleb128 .LLSDACSEC1364-.LLSDACSBC1364
 833              	.LLSDACSBC1364:
 834 005c 0B       		.uleb128 .LEHB11-.LCOLDB5
 835 005d 05       		.uleb128 .LEHE11-.LEHB11
 836 005e 00       		.uleb128 0
 837 005f 00       		.uleb128 0
 838              	.LLSDACSEC1364:
 839              		.section	.text.unlikely
 840              		.text
 842              		.section	.text.unlikely
 844              	.LCOLDE5:
 845              		.text
 846              	.LHOTE5:
 847              		.section	.text.unlikely
 848              		.align 2
 849              	.LCOLDB6:
 850              		.text
 851              	.LHOTB6:
 852              		.align 2
 853 0298 0F1F8400 		.p2align 4
 853      00000000 
 855              	_ZN12_GLOBAL__N_128TestStartsWithNoTestsFailingD0Ev:
 856              	.LFB1368:
 857              		.cfi_startproc
 858              		.cfi_personality 0x9b,DW.ref.__gxx_personality_v0
 859              		.cfi_lsda 0x1b,.LLSDA1368
 860 02a0 F30F1EFA 		endbr64
 861 02a4 4154     		pushq	%r12
 862              		.cfi_def_cfa_offset 16
 863              		.cfi_offset 12, -16
 864 02a6 488D0500 		leaq	16+_ZTVN12_GLOBAL__N_128TestStartsWithNoTestsFailingE(%rip), %rax
 864      000000
 865 02ad 55       		pushq	%rbp
 866              		.cfi_def_cfa_offset 24
 867              		.cfi_offset 6, -24
 868 02ae 4889FD   		movq	%rdi, %rbp
 869 02b1 4883EC08 		subq	$8, %rsp
 870              		.cfi_def_cfa_offset 32
 871 02b5 488907   		movq	%rax, (%rdi)
 872              	.LEHB12:
 873 02b8 E8000000 		call	_ZN8UnitTest4TestD2Ev@PLT
 873      00
 874              	.LEHE12:
 875 02bd 4883C408 		addq	$8, %rsp
 876              		.cfi_remember_state
 877              		.cfi_def_cfa_offset 24
 878 02c1 4889EF   		movq	%rbp, %rdi
 879 02c4 5D       		popq	%rbp
 880              		.cfi_def_cfa_offset 16
 881 02c5 415C     		popq	%r12
 882              		.cfi_def_cfa_offset 8
 883 02c7 E9000000 		jmp	_ZdlPv@PLT
 883      00
 884              	.L44:
 885              		.cfi_restore_state
 886 02cc F30F1EFA 		endbr64
 887 02d0 4989C4   		movq	%rax, %r12
 888 02d3 E9000000 		jmp	.L43
 888      00
 889              		.section	.gcc_except_table
 890              	.LLSDA1368:
 891 0060 FF       		.byte	0xff
 892 0061 FF       		.byte	0xff
 893 0062 01       		.byte	0x1
 894 0063 04       		.uleb128 .LLSDACSE1368-.LLSDACSB1368
 895              	.LLSDACSB1368:
 896 0064 18       		.uleb128 .LEHB12-.LFB1368
 897 0065 05       		.uleb128 .LEHE12-.LEHB12
 898 0066 2C       		.uleb128 .L44-.LFB1368
 899 0067 00       		.uleb128 0
 900              	.LLSDACSE1368:
 901              		.text
 902              		.cfi_endproc
 903              		.section	.text.unlikely
 904              		.cfi_startproc
 905              		.cfi_personality 0x9b,DW.ref.__gxx_personality_v0
 906              		.cfi_lsda 0x1b,.LLSDAC1368
 908              	_ZN12_GLOBAL__N_128TestStartsWithNoTestsFailingD0Ev.cold:
 909              	.LFSB1368:
 910              	.L43:
 911              		.cfi_def_cfa_offset 32
 912              		.cfi_offset 6, -24
 913              		.cfi_offset 12, -16
 914 0060 4889EF   		movq	%rbp, %rdi
 915 0063 E8000000 		call	_ZdlPv@PLT
 915      00
 916 0068 4C89E7   		movq	%r12, %rdi
 917              	.LEHB13:
 918 006b E8000000 		call	_Unwind_Resume@PLT
 918      00
 919              	.LEHE13:
 920              		.cfi_endproc
 921              	.LFE1368:
 922              		.section	.gcc_except_table
 923              	.LLSDAC1368:
 924 0068 FF       		.byte	0xff
 925 0069 FF       		.byte	0xff
 926 006a 01       		.byte	0x1
 927 006b 04       		.uleb128 .LLSDACSEC1368-.LLSDACSBC1368
 928              	.LLSDACSBC1368:
 929 006c 0B       		.uleb128 .LEHB13-.LCOLDB6
 930 006d 05       		.uleb128 .LEHE13-.LEHB13
 931 006e 00       		.uleb128 0
 932 006f 00       		.uleb128 0
 933              	.LLSDACSEC1368:
 934              		.section	.text.unlikely
 935              		.text
 937              		.section	.text.unlikely
 939              	.LCOLDE6:
 940              		.text
 941              	.LHOTE6:
 942              		.section	.text.unlikely
 943              		.align 2
 944              	.LCOLDB7:
 945              		.text
 946              	.LHOTB7:
 947              		.align 2
 948 02d8 0F1F8400 		.p2align 4
 948      00000000 
 950              	_ZN12_GLOBAL__N_125TestRecordsNumbersOfTestsD0Ev:
 951              	.LFB1372:
 952              		.cfi_startproc
 953              		.cfi_personality 0x9b,DW.ref.__gxx_personality_v0
 954              		.cfi_lsda 0x1b,.LLSDA1372
 955 02e0 F30F1EFA 		endbr64
 956 02e4 4154     		pushq	%r12
 957              		.cfi_def_cfa_offset 16
 958              		.cfi_offset 12, -16
 959 02e6 488D0500 		leaq	16+_ZTVN12_GLOBAL__N_125TestRecordsNumbersOfTestsE(%rip), %rax
 959      000000
 960 02ed 55       		pushq	%rbp
 961              		.cfi_def_cfa_offset 24
 962              		.cfi_offset 6, -24
 963 02ee 4889FD   		movq	%rdi, %rbp
 964 02f1 4883EC08 		subq	$8, %rsp
 965              		.cfi_def_cfa_offset 32
 966 02f5 488907   		movq	%rax, (%rdi)
 967              	.LEHB14:
 968 02f8 E8000000 		call	_ZN8UnitTest4TestD2Ev@PLT
 968      00
 969              	.LEHE14:
 970 02fd 4883C408 		addq	$8, %rsp
 971              		.cfi_remember_state
 972              		.cfi_def_cfa_offset 24
 973 0301 4889EF   		movq	%rbp, %rdi
 974 0304 5D       		popq	%rbp
 975              		.cfi_def_cfa_offset 16
 976 0305 415C     		popq	%r12
 977              		.cfi_def_cfa_offset 8
 978 0307 E9000000 		jmp	_ZdlPv@PLT
 978      00
 979              	.L48:
 980              		.cfi_restore_state
 981 030c F30F1EFA 		endbr64
 982 0310 4989C4   		movq	%rax, %r12
 983 0313 E9000000 		jmp	.L47
 983      00
 984              		.section	.gcc_except_table
 985              	.LLSDA1372:
 986 0070 FF       		.byte	0xff
 987 0071 FF       		.byte	0xff
 988 0072 01       		.byte	0x1
 989 0073 04       		.uleb128 .LLSDACSE1372-.LLSDACSB1372
 990              	.LLSDACSB1372:
 991 0074 18       		.uleb128 .LEHB14-.LFB1372
 992 0075 05       		.uleb128 .LEHE14-.LEHB14
 993 0076 2C       		.uleb128 .L48-.LFB1372
 994 0077 00       		.uleb128 0
 995              	.LLSDACSE1372:
 996              		.text
 997              		.cfi_endproc
 998              		.section	.text.unlikely
 999              		.cfi_startproc
 1000              		.cfi_personality 0x9b,DW.ref.__gxx_personality_v0
 1001              		.cfi_lsda 0x1b,.LLSDAC1372
 1003              	_ZN12_GLOBAL__N_125TestRecordsNumbersOfTestsD0Ev.cold:
 1004              	.LFSB1372:
 1005              	.L47:
 1006              		.cfi_def_cfa_offset 32
 1007              		.cfi_offset 6, -24
 1008              		.cfi_offset 12, -16
 1009 0070 4889EF   		movq	%rbp, %rdi
 1010 0073 E8000000 		call	_ZdlPv@PLT
 1010      00
 1011 0078 4C89E7   		movq	%r12, %rdi
 1012              	.LEHB15:
 1013 007b E8000000 		call	_Unwind_Resume@PLT
 1013      00
 1014              	.LEHE15:
 1015              		.cfi_endproc
 1016              	.LFE1372:
 1017              		.section	.gcc_except_table
 1018              	.LLSDAC1372:
 1019 0078 FF       		.byte	0xff
 1020 0079 FF       		.byte	0xff
 1021 007a 01       		.byte	0x1
 1022 007b 04       		.uleb128 .LLSDACSEC1372-.LLSDACSBC1372
 1023              	.LLSDACSBC1372:
 1024 007c 0B       		.uleb128 .LEHB15-.LCOLDB7
 1025 007d 05       		.uleb128 .LEHE15-.LEHB15
 1026 007e 00       		.uleb128 0
 1027 007f 00       		.uleb128 0
 1028              	.LLSDACSEC1372:
 1029              		.section	.text.unlikely
 1030              		.text
 1032              		.section	.text.unlikely
 1034              	.LCOLDE7:
 1035              		.text
 1036              	.LHOTE7:
 1037              		.section	.text.unlikely
 1038              		.align 2
 1039              	.LCOLDB8:
 1040              		.text
 1041              	.LHOTB8:
 1042              		.align 2
 1043 0318 0F1F8400 		.p2align 4
 1043      00000000 
 1045              	_ZN12_GLOBAL__N_124TestStartsWithNoTestsRunD0Ev:
 1046              	.LFB1376:
 1047              		.cfi_startproc
 1048              		.cfi_personality 0x9b,DW.ref.__gxx_personality_v0
 1049              		.cfi_lsda 0x1b,.LLSDA1376
 1050 0320 F30F1EFA 		endbr64
 1051 0324 4154     		pushq	%r12
 1052              		.cfi_def_cfa_offset 16
 1053              		.cfi_offset 12, -16
 1054 0326 488D0500 		leaq	16+_ZTVN12_GLOBAL__N_124TestStartsWithNoTestsRunE(%rip), %rax
 1054      000000
 1055 032d 55       		pushq	%rbp
 1056              		.cfi_def_cfa_offset 24
 1057              		.cfi_offset 6, -24
 1058 032e 4889FD   		movq	%rdi, %rbp
 1059 0331 4883EC08 		subq	$8, %rsp
 1060              		.cfi_def_cfa_offset 32
 1061 0335 488907   		movq	%rax, (%rdi)
 1062              	.LEHB16:
 1063 0338 E8000000 		call	_ZN8UnitTest4TestD2Ev@PLT
 1063      00
 1064              	.LEHE16:
 1065 033d 4883C408 		addq	$8, %rsp
 1066              		.cfi_remember_state
 1067              		.cfi_def_cfa_offset 24
 1068 0341 4889EF   		movq	%rbp, %rdi
 1069 0344 5D       		popq	%rbp
 1070              		.cfi_def_cfa_offset 16
 1071 0345 415C     		popq	%r12
 1072              		.cfi_def_cfa_offset 8
 1073 0347 E9000000 		jmp	_ZdlPv@PLT
 1073      00
 1074              	.L52:
 1075              		.cfi_restore_state
 1076 034c F30F1EFA 		endbr64
 1077 0350 4989C4   		movq	%rax, %r12
 1078 0353 E9000000 		jmp	.L51
 1078      00
 1079              		.section	.gcc_except_table
 1080              	.LLSDA1376:
 1081 0080 FF       		.byte	0xff
 1082 0081 FF       		.byte	0xff
 1083 0082 01       		.byte	0x1
 1084 0083 04       		.uleb128 .LLSDACSE1376-.LLSDACSB1376
 1085              	.LLSDACSB1376:
 1086 0084 18       		.uleb128 .LEHB16-.LFB1376
 1087 0085 05       		.uleb128 .LEHE16-.LEHB16
 1088 0086 2C       		.uleb128 .L52-.LFB1376
 1089 0087 00       		.uleb128 0
 1090              	.LLSDACSE1376:
 1091              		.text
 1092              		.cfi_endproc
 1093              		.section	.text.unlikely
 1094              		.cfi_startproc
 1095              		.cfi_personality 0x9b,DW.ref.__gxx_personality_v0
 1096              		.cfi_lsda 0x1b,.LLSDAC1376
 1098              	_ZN12_GLOBAL__N_124TestStartsWithNoTestsRunD0Ev.cold:
 1099              	.LFSB1376:
 1100              	.L51:
 1101              		.cfi_def_cfa_offset 32
 1102              		.cfi_offset 6, -24
 1103              		.cfi_offset 12, -16
 1104 0080 4889EF   		movq	%rbp, %rdi
 1105 0083 E8000000 		call	_ZdlPv@PLT
 1105      00
 1106 0088 4C89E7   		movq	%r12, %rdi
 1107              	.LEHB17:
 1108 008b E8000000 		call	_Unwind_Resume@PLT
 1108      00
 1109              	.LEHE17:
 1110              		.cfi_endproc
 1111              	.LFE1376:
 1112              		.section	.gcc_except_table
 1113              	.LLSDAC1376:
 1114 0088 FF       		.byte	0xff
 1115 0089 FF       		.byte	0xff
 1116 008a 01       		.byte	0x1
 1117 008b 04       		.uleb128 .LLSDACSEC1376-.LLSDACSBC1376
 1118              	.LLSDACSBC1376:
 1119 008c 0B       		.uleb128 .LEHB17-.LCOLDB8
 1120 008d 05       		.uleb128 .LEHE17-.LEHB17
 1121 008e 00       		.uleb128 0
 1122 008f 00       		.uleb128 0
 1123              	.LLSDACSEC1376:
 1124              		.section	.text.unlikely
 1125              		.text
 1127              		.section	.text.unlikely
 1129              	.LCOLDE8:
 1130              		.text
 1131              	.LHOTE8:
 1132              		.section	.text._ZN17RecordingReporterD2Ev,"axG",@progbits,_ZN17RecordingReporterD5Ev,comdat
 1133              		.align 2
 1134              		.p2align 4
 1135              		.weak	_ZN17RecordingReporterD2Ev
 1137              	_ZN17RecordingReporterD2Ev:
 1138              	.LFB1378:
 1139              		.cfi_startproc
 1140 0000 F30F1EFA 		endbr64
 1141 0004 488D0500 		leaq	16+_ZTV17RecordingReporter(%rip), %rax
 1141      000000
 1142 000b 488907   		movq	%rax, (%rdi)
 1143 000e E9000000 		jmp	_ZN8UnitTest12TestReporterD2Ev@PLT
 1143      00
 1144              		.cfi_endproc
 1145              	.LFE1378:
 1147              		.weak	_ZN17RecordingReporterD1Ev
 1148              		.set	_ZN17RecordingReporterD1Ev,_ZN17RecordingReporterD2Ev
 1149              		.section	.text._ZN17RecordingReporterD0Ev,"axG",@progbits,_ZN17RecordingReporterD5Ev,comdat
 1150              		.align 2
 1151              		.p2align 4
 1152              		.weak	_ZN17RecordingReporterD0Ev
 1154              	_ZN17RecordingReporterD0Ev:
 1155              	.LFB1380:
 1156              		.cfi_startproc
 1157              		.cfi_personality 0x9b,DW.ref.__gxx_personality_v0
 1158              		.cfi_lsda 0x1b,.LLSDA1380
 1159 0000 F30F1EFA 		endbr64
 1160 0004 4154     		pushq	%r12
 1161              		.cfi_def_cfa_offset 16
 1162              		.cfi_offset 12, -16
 1163 0006 488D0500 		leaq	16+_ZTV17RecordingReporter(%rip), %rax
 1163      000000
 1164 000d 55       		pushq	%rbp
 1165              		.cfi_def_cfa_offset 24
 1166              		.cfi_offset 6, -24
 1167 000e 4889FD   		movq	%rdi, %rbp
 1168 0011 4883EC08 		subq	$8, %rsp
 1169              		.cfi_def_cfa_offset 32
 1170 0015 488907   		movq	%rax, (%rdi)
 1171              	.LEHB18:
 1172 0018 E8000000 		call	_ZN8UnitTest12TestReporterD2Ev@PLT
 1172      00
 1173              	.LEHE18:
 1174 001d 4883C408 		addq	$8, %rsp
 1175              		.cfi_remember_state
 1176              		.cfi_def_cfa_offset 24
 1177 0021 4889EF   		movq	%rbp, %rdi
 1178 0024 5D       		popq	%rbp
 1179              		.cfi_def_cfa_offset 16
 1180 0025 415C     		popq	%r12
 1181              		.cfi_def_cfa_offset 8
 1182 0027 E9000000 		jmp	_ZdlPv@PLT
 1182      00
 1183              	.L57:
 1184              		.cfi_restore_state
 1185 002c F30F1EFA 		endbr64
 1186 0030 4989C4   		movq	%rax, %r12
 1187              	.L56:
 1188 0033 4889EF   		movq	%rbp, %rdi
 1189 0036 E8000000 		call	_ZdlPv@PLT
 1189      00
 1190 003b 4C89E7   		movq	%r12, %rdi
 1191              	.LEHB19:
 1192 003e E8000000 		call	_Unwind_Resume@PLT
 1192      00
 1193              	.LEHE19:
 1194              		.cfi_endproc
 1195              	.LFE1380:
 1196              		.section	.gcc_except_table
 1197              	.LLSDA1380:
 1198 0090 FF       		.byte	0xff
 1199 0091 FF       		.byte	0xff
 1200 0092 01       		.byte	0x1
 1201 0093 08       		.uleb128 .LLSDACSE1380-.LLSDACSB1380
 1202              	.LLSDACSB1380:
 1203 0094 18       		.uleb128 .LEHB18-.LFB1380
 1204 0095 05       		.uleb128 .LEHE18-.LEHB18
 1205 0096 2C       		.uleb128 .L57-.LFB1380
 1206 0097 00       		.uleb128 0
 1207 0098 3E       		.uleb128 .LEHB19-.LFB1380
 1208 0099 05       		.uleb128 .LEHE19-.LEHB19
 1209 009a 00       		.uleb128 0
 1210 009b 00       		.uleb128 0
 1211              	.LLSDACSE1380:
 1212              		.section	.text._ZN17RecordingReporterD0Ev,"axG",@progbits,_ZN17RecordingReporterD5Ev,comdat
 1214              		.section	.text._ZN8UnitTest15MemoryOutStreamD1Ev,"axG",@progbits,_ZN8UnitTest15MemoryOutStreamD1Ev
 1215              		.align 2
 1216              		.p2align 4
 1217              		.weak	_ZN8UnitTest15MemoryOutStreamD1Ev
 1219              	_ZN8UnitTest15MemoryOutStreamD1Ev:
 1220              	.LFB1284:
 1221              		.cfi_startproc
 1222 0000 F30F1EFA 		endbr64
 1223 0004 55       		pushq	%rbp
 1224              		.cfi_def_cfa_offset 16
 1225              		.cfi_offset 6, -16
 1226 0005 488D0500 		leaq	24+_ZTVN8UnitTest15MemoryOutStreamE(%rip), %rax
 1226      000000
 1227 000c 53       		pushq	%rbx
 1228              		.cfi_def_cfa_offset 24
 1229              		.cfi_offset 3, -24
 1230 000d 4889FB   		movq	%rdi, %rbx
 1231 0010 4883EC08 		subq	$8, %rsp
 1232              		.cfi_def_cfa_offset 32
 1233 0014 488907   		movq	%rax, (%rdi)
 1234 0017 4883C028 		addq	$40, %rax
 1235 001b 48898790 		movq	%rax, 144(%rdi)
 1235      000000
 1236 0022 488B7F70 		movq	112(%rdi), %rdi
 1237 0026 488D8380 		leaq	128(%rbx), %rax
 1237      000000
 1238 002d 4839C7   		cmpq	%rax, %rdi
 1239 0030 7405     		je	.L60
 1240 0032 E8000000 		call	_ZdlPv@PLT
 1240      00
 1241              	.L60:
 1242 0037 488D0500 		leaq	64+_ZTCN8UnitTest15MemoryOutStreamE0_NSt7__cxx1119basic_ostringstreamIcSt11char_traitsIcESaIc
 1242      000000
 1243 003e 488D1500 		leaq	24+_ZTCN8UnitTest15MemoryOutStreamE0_NSt7__cxx1119basic_ostringstreamIcSt11char_traitsIcESaIc
 1243      000000
 1244 0045 488B7B50 		movq	80(%rbx), %rdi
 1245 0049 48898390 		movq	%rax, 144(%rbx)
 1245      000000
 1246 0050 488D0500 		leaq	16+_ZTVNSt7__cxx1115basic_stringbufIcSt11char_traitsIcESaIcEEE(%rip), %rax
 1246      000000
 1247 0057 66480F6E 		movq	%rdx, %xmm0
 1247      C2
 1248 005c 488DAB90 		leaq	144(%rbx), %rbp
 1248      000000
 1249 0063 66480F6E 		movq	%rax, %xmm1
 1249      C8
 1250 0068 488D4360 		leaq	96(%rbx), %rax
 1251 006c 660F6CC1 		punpcklqdq	%xmm1, %xmm0
 1252 0070 0F1103   		movups	%xmm0, (%rbx)
 1253 0073 4839C7   		cmpq	%rax, %rdi
 1254 0076 7405     		je	.L61
 1255 0078 E8000000 		call	_ZdlPv@PLT
 1255      00
 1256              	.L61:
 1257 007d 488D0500 		leaq	16+_ZTVSt15basic_streambufIcSt11char_traitsIcEE(%rip), %rax
 1257      000000
 1258 0084 488D7B40 		leaq	64(%rbx), %rdi
 1259 0088 48894308 		movq	%rax, 8(%rbx)
 1260 008c E8000000 		call	_ZNSt6localeD1Ev@PLT
 1260      00
 1261 0091 488D0500 		leaq	24+_ZTCN8UnitTest15MemoryOutStreamE0_So(%rip), %rax
 1261      000000
 1262 0098 4889EF   		movq	%rbp, %rdi
 1263 009b 488903   		movq	%rax, (%rbx)
 1264 009e 488D0500 		leaq	16+_ZTVSt9basic_iosIcSt11char_traitsIcEE(%rip), %rax
 1264      000000
 1265 00a5 48898390 		movq	%rax, 144(%rbx)
 1265      000000
 1266 00ac 4883C408 		addq	$8, %rsp
 1267              		.cfi_def_cfa_offset 24
 1268 00b0 5B       		popq	%rbx
 1269              		.cfi_def_cfa_offset 16
 1270 00b1 5D       		popq	%rbp
 1271              		.cfi_def_cfa_offset 8
 1272 00b2 E9000000 		jmp	_ZNSt8ios_baseD2Ev@PLT
 1272      00
 1273              		.cfi_endproc
 1274              	.LFE1284:
 1276 00b7 660F1F84 		.p2align 4
 1276      00000000 
 1276      00
 1277              		.weak	_ZTv0_n24_N8UnitTest15MemoryOutStreamD1Ev
 1279              	_ZTv0_n24_N8UnitTest15MemoryOutStreamD1Ev:
 1280              	.LFB1385:
 1281              		.cfi_startproc
 1282 00c0 F30F1EFA 		endbr64
 1283 00c4 55       		pushq	%rbp
 1284              		.cfi_def_cfa_offset 16
 1285              		.cfi_offset 6, -16
 1286 00c5 53       		pushq	%rbx
 1287              		.cfi_def_cfa_offset 24
 1288              		.cfi_offset 3, -24
 1289 00c6 4889FB   		movq	%rdi, %rbx
 1290 00c9 4883EC08 		subq	$8, %rsp
 1291              		.cfi_def_cfa_offset 32
 1292 00cd 488B07   		movq	(%rdi), %rax
 1293 00d0 480358E8 		addq	-24(%rax), %rbx
 1294 00d4 488D0500 		leaq	24+_ZTVN8UnitTest15MemoryOutStreamE(%rip), %rax
 1294      000000
 1295 00db 488903   		movq	%rax, (%rbx)
 1296 00de 488B7B70 		movq	112(%rbx), %rdi
 1297 00e2 4883C028 		addq	$40, %rax
 1298 00e6 48898390 		movq	%rax, 144(%rbx)
 1298      000000
 1299 00ed 488D8380 		leaq	128(%rbx), %rax
 1299      000000
 1300 00f4 4839C7   		cmpq	%rax, %rdi
 1301 00f7 7405     		je	.L64
 1302 00f9 E8000000 		call	_ZdlPv@PLT
 1302      00
 1303              	.L64:
 1304 00fe 488D0500 		leaq	64+_ZTCN8UnitTest15MemoryOutStreamE0_NSt7__cxx1119basic_ostringstreamIcSt11char_traitsIcESaIc
 1304      000000
 1305 0105 488D1500 		leaq	24+_ZTCN8UnitTest15MemoryOutStreamE0_NSt7__cxx1119basic_ostringstreamIcSt11char_traitsIcESaIc
 1305      000000
 1306 010c 488B7B50 		movq	80(%rbx), %rdi
 1307 0110 48898390 		movq	%rax, 144(%rbx)
 1307      000000
 1308 0117 488D0500 		leaq	16+_ZTVNSt7__cxx1115basic_stringbufIcSt11char_traitsIcESaIcEEE(%rip), %rax
 1308      000000
 1309 011e 66480F6E 		movq	%rdx, %xmm0
 1309      C2
 1310 0123 488DAB90 		leaq	144(%rbx), %rbp
 1310      000000
 1311 012a 66480F6E 		movq	%rax, %xmm1
 1311      C8
 1312 012f 488D4360 		leaq	96(%rbx), %rax
 1313 0133 660F6CC1 		punpcklqdq	%xmm1, %xmm0
 1314 0137 0F1103   		movups	%xmm0, (%rbx)
 1315 013a 4839C7   		cmpq	%rax, %rdi
 1316 013d 7405     		je	.L65
 1317 013f E8000000 		call	_ZdlPv@PLT
 1317      00
 1318              	.L65:
 1319 0144 488D0500 		leaq	16+_ZTVSt15basic_streambufIcSt11char_traitsIcEE(%rip), %rax
 1319      000000
 1320 014b 488D7B40 		leaq	64(%rbx), %rdi
 1321 014f 48894308 		movq	%rax, 8(%rbx)
 1322 0153 E8000000 		call	_ZNSt6localeD1Ev@PLT
 1322      00
 1323 0158 488D0500 		leaq	24+_ZTCN8UnitTest15MemoryOutStreamE0_So(%rip), %rax
 1323      000000
 1324 015f 4889EF   		movq	%rbp, %rdi
 1325 0162 488903   		movq	%rax, (%rbx)
 1326 0165 488D0500 		leaq	16+_ZTVSt9basic_iosIcSt11char_traitsIcEE(%rip), %rax
 1326      000000
 1327 016c 48898390 		movq	%rax, 144(%rbx)
 1327      000000
 1328 0173 4883C408 		addq	$8, %rsp
 1329              		.cfi_def_cfa_offset 24
 1330 0177 5B       		popq	%rbx
 1331              		.cfi_def_cfa_offset 16
 1332 0178 5D       		popq	%rbp
 1333              		.cfi_def_cfa_offset 8
 1334 0179 E9000000 		jmp	_ZNSt8ios_baseD2Ev@PLT
 1334      00
 1335              		.cfi_endproc
 1336              	.LFE1385:
 1338              		.section	.text._ZN8UnitTest15MemoryOutStreamD0Ev,"axG",@progbits,_ZN8UnitTest15MemoryOutStreamD0Ev
 1339              		.align 2
 1340              		.p2align 4
 1341              		.weak	_ZN8UnitTest15MemoryOutStreamD0Ev
 1343              	_ZN8UnitTest15MemoryOutStreamD0Ev:
 1344              	.LFB1285:
 1345              		.cfi_startproc
 1346              		.cfi_personality 0x9b,DW.ref.__gxx_personality_v0
 1347              		.cfi_lsda 0x1b,.LLSDA1285
 1348 0000 F30F1EFA 		endbr64
 1349 0004 4154     		pushq	%r12
 1350              		.cfi_def_cfa_offset 16
 1351              		.cfi_offset 12, -16
 1352 0006 488D0500 		leaq	24+_ZTVN8UnitTest15MemoryOutStreamE(%rip), %rax
 1352      000000
 1353 000d 55       		pushq	%rbp
 1354              		.cfi_def_cfa_offset 24
 1355              		.cfi_offset 6, -24
 1356 000e 4889FD   		movq	%rdi, %rbp
 1357 0011 4883EC08 		subq	$8, %rsp
 1358              		.cfi_def_cfa_offset 32
 1359 0015 488907   		movq	%rax, (%rdi)
 1360 0018 4883C028 		addq	$40, %rax
 1361 001c 48898790 		movq	%rax, 144(%rdi)
 1361      000000
 1362 0023 488B7F70 		movq	112(%rdi), %rdi
 1363 0027 488D8580 		leaq	128(%rbp), %rax
 1363      000000
 1364 002e 4839C7   		cmpq	%rax, %rdi
 1365 0031 7405     		je	.L68
 1366 0033 E8000000 		call	_ZdlPv@PLT
 1366      00
 1367              	.L68:
 1368 0038 488D0500 		leaq	64+_ZTCN8UnitTest15MemoryOutStreamE0_NSt7__cxx1119basic_ostringstreamIcSt11char_traitsIcESaIc
 1368      000000
 1369 003f 488D1500 		leaq	24+_ZTCN8UnitTest15MemoryOutStreamE0_NSt7__cxx1119basic_ostringstreamIcSt11char_traitsIcESaIc
 1369      000000
 1370 0046 488B7D50 		movq	80(%rbp), %rdi
 1371 004a 48898590 		movq	%rax, 144(%rbp)
 1371      000000
 1372 0051 488D0500 		leaq	16+_ZTVNSt7__cxx1115basic_stringbufIcSt11char_traitsIcESaIcEEE(%rip), %rax
 1372      000000
 1373 0058 66480F6E 		movq	%rdx, %xmm0
 1373      C2
 1374 005d 4C8DA590 		leaq	144(%rbp), %r12
 1374      000000
 1375 0064 66480F6E 		movq	%rax, %xmm1
 1375      C8
 1376 0069 488D4560 		leaq	96(%rbp), %rax
 1377 006d 660F6CC1 		punpcklqdq	%xmm1, %xmm0
 1378 0071 0F114500 		movups	%xmm0, 0(%rbp)
 1379 0075 4839C7   		cmpq	%rax, %rdi
 1380 0078 7405     		je	.L69
 1381 007a E8000000 		call	_ZdlPv@PLT
 1381      00
 1382              	.L69:
 1383 007f 488D0500 		leaq	16+_ZTVSt15basic_streambufIcSt11char_traitsIcEE(%rip), %rax
 1383      000000
 1384 0086 488D7D40 		leaq	64(%rbp), %rdi
 1385 008a 48894508 		movq	%rax, 8(%rbp)
 1386 008e E8000000 		call	_ZNSt6localeD1Ev@PLT
 1386      00
 1387 0093 488D0500 		leaq	24+_ZTCN8UnitTest15MemoryOutStreamE0_So(%rip), %rax
 1387      000000
 1388 009a 4C89E7   		movq	%r12, %rdi
 1389 009d 48894500 		movq	%rax, 0(%rbp)
 1390 00a1 488D0500 		leaq	16+_ZTVSt9basic_iosIcSt11char_traitsIcEE(%rip), %rax
 1390      000000
 1391 00a8 48898590 		movq	%rax, 144(%rbp)
 1391      000000
 1392              	.LEHB20:
 1393 00af E8000000 		call	_ZNSt8ios_baseD2Ev@PLT
 1393      00
 1394              	.LEHE20:
 1395 00b4 4883C408 		addq	$8, %rsp
 1396              		.cfi_remember_state
 1397              		.cfi_def_cfa_offset 24
 1398 00b8 4889EF   		movq	%rbp, %rdi
 1399 00bb 5D       		popq	%rbp
 1400              		.cfi_def_cfa_offset 16
 1401 00bc 415C     		popq	%r12
 1402              		.cfi_def_cfa_offset 8
 1403 00be E9000000 		jmp	_ZdlPv@PLT
 1403      00
 1404              	.L71:
 1405              		.cfi_restore_state
 1406 00c3 F30F1EFA 		endbr64
 1407 00c7 4989C4   		movq	%rax, %r12
 1408              	.L70:
 1409 00ca 4889EF   		movq	%rbp, %rdi
 1410 00cd E8000000 		call	_ZdlPv@PLT
 1410      00
 1411 00d2 4C89E7   		movq	%r12, %rdi
 1412              	.LEHB21:
 1413 00d5 E8000000 		call	_Unwind_Resume@PLT
 1413      00
 1414              	.LEHE21:
 1415              		.cfi_endproc
 1416              	.LFE1285:
 1417              		.section	.gcc_except_table
 1418              	.LLSDA1285:
 1419 009c FF       		.byte	0xff
 1420 009d FF       		.byte	0xff
 1421 009e 01       		.byte	0x1
 1422 009f 0B       		.uleb128 .LLSDACSE1285-.LLSDACSB1285
 1423              	.LLSDACSB1285:
 1424 00a0 AF01     		.uleb128 .LEHB20-.LFB1285
 1425 00a2 05       		.uleb128 .LEHE20-.LEHB20
 1426 00a3 C301     		.uleb128 .L71-.LFB1285
 1427 00a5 00       		.uleb128 0
 1428 00a6 D501     		.uleb128 .LEHB21-.LFB1285
 1429 00a8 05       		.uleb128 .LEHE21-.LEHB21
 1430 00a9 00       		.uleb128 0
 1431 00aa 00       		.uleb128 0
 1432              	.LLSDACSE1285:
 1433              		.section	.text._ZN8UnitTest15MemoryOutStreamD0Ev,"axG",@progbits,_ZN8UnitTest15MemoryOutStreamD0Ev
 1435 00da 660F1F44 		.p2align 4
 1435      0000
 1436              		.weak	_ZTv0_n24_N8UnitTest15MemoryOutStreamD0Ev
 1438              	_ZTv0_n24_N8UnitTest15MemoryOutStreamD0Ev:
 1439              	.LFB1384:
 1440              		.cfi_startproc
 1441              		.cfi_personality 0x9b,DW.ref.__gxx_personality_v0
 1442              		.cfi_lsda 0x1b,.LLSDA1384
 1443 00e0 F30F1EFA 		endbr64
 1444 00e4 4154     		pushq	%r12
 1445              		.cfi_def_cfa_offset 16
 1446              		.cfi_offset 12, -16
 1447 00e6 55       		pushq	%rbp
 1448              		.cfi_def_cfa_offset 24
 1449              		.cfi_offset 6, -24
 1450 00e7 4889FD   		movq	%rdi, %rbp
 1451 00ea 4883EC08 		subq	$8, %rsp
 1452              		.cfi_def_cfa_offset 32
 1453 00ee 488B07   		movq	(%rdi), %rax
 1454 00f1 480368E8 		addq	-24(%rax), %rbp
 1455 00f5 488D0500 		leaq	24+_ZTVN8UnitTest15MemoryOutStreamE(%rip), %rax
 1455      000000
 1456 00fc 48894500 		movq	%rax, 0(%rbp)
 1457 0100 488B7D70 		movq	112(%rbp), %rdi
 1458 0104 4883C028 		addq	$40, %rax
 1459 0108 48898590 		movq	%rax, 144(%rbp)
 1459      000000
 1460 010f 488D8580 		leaq	128(%rbp), %rax
 1460      000000
 1461 0116 4839C7   		cmpq	%rax, %rdi
 1462 0119 7405     		je	.L74
 1463 011b E8000000 		call	_ZdlPv@PLT
 1463      00
 1464              	.L74:
 1465 0120 488D0500 		leaq	64+_ZTCN8UnitTest15MemoryOutStreamE0_NSt7__cxx1119basic_ostringstreamIcSt11char_traitsIcESaIc
 1465      000000
 1466 0127 488D1500 		leaq	24+_ZTCN8UnitTest15MemoryOutStreamE0_NSt7__cxx1119basic_ostringstreamIcSt11char_traitsIcESaIc
 1466      000000
 1467 012e 488B7D50 		movq	80(%rbp), %rdi
 1468 0132 48898590 		movq	%rax, 144(%rbp)
 1468      000000
 1469 0139 488D0500 		leaq	16+_ZTVNSt7__cxx1115basic_stringbufIcSt11char_traitsIcESaIcEEE(%rip), %rax
 1469      000000
 1470 0140 66480F6E 		movq	%rdx, %xmm0
 1470      C2
 1471 0145 4C8DA590 		leaq	144(%rbp), %r12
 1471      000000
 1472 014c 66480F6E 		movq	%rax, %xmm1
 1472      C8
 1473 0151 488D4560 		leaq	96(%rbp), %rax
 1474 0155 660F6CC1 		punpcklqdq	%xmm1, %xmm0
 1475 0159 0F114500 		movups	%xmm0, 0(%rbp)
 1476 015d 4839C7   		cmpq	%rax, %rdi
 1477 0160 7405     		je	.L75
 1478 0162 E8000000 		call	_ZdlPv@PLT
 1478      00
 1479              	.L75:
 1480 0167 488D0500 		leaq	16+_ZTVSt15basic_streambufIcSt11char_traitsIcEE(%rip), %rax
 1480      000000
 1481 016e 488D7D40 		leaq	64(%rbp), %rdi
 1482 0172 48894508 		movq	%rax, 8(%rbp)
 1483 0176 E8000000 		call	_ZNSt6localeD1Ev@PLT
 1483      00
 1484 017b 488D0500 		leaq	24+_ZTCN8UnitTest15MemoryOutStreamE0_So(%rip), %rax
 1484      000000
 1485 0182 4C89E7   		movq	%r12, %rdi
 1486 0185 48894500 		movq	%rax, 0(%rbp)
 1487 0189 488D0500 		leaq	16+_ZTVSt9basic_iosIcSt11char_traitsIcEE(%rip), %rax
 1487      000000
 1488 0190 48898590 		movq	%rax, 144(%rbp)
 1488      000000
 1489              	.LEHB22:
 1490 0197 E8000000 		call	_ZNSt8ios_baseD2Ev@PLT
 1490      00
 1491              	.LEHE22:
 1492 019c 4883C408 		addq	$8, %rsp
 1493              		.cfi_remember_state
 1494              		.cfi_def_cfa_offset 24
 1495 01a0 4889EF   		movq	%rbp, %rdi
 1496 01a3 5D       		popq	%rbp
 1497              		.cfi_def_cfa_offset 16
 1498 01a4 415C     		popq	%r12
 1499              		.cfi_def_cfa_offset 8
 1500 01a6 E9000000 		jmp	_ZdlPv@PLT
 1500      00
 1501              	.L77:
 1502              		.cfi_restore_state
 1503 01ab F30F1EFA 		endbr64
 1504 01af 4989C4   		movq	%rax, %r12
 1505              	.L76:
 1506 01b2 4889EF   		movq	%rbp, %rdi
 1507 01b5 E8000000 		call	_ZdlPv@PLT
 1507      00
 1508 01ba 4C89E7   		movq	%r12, %rdi
 1509              	.LEHB23:
 1510 01bd E8000000 		call	_Unwind_Resume@PLT
 1510      00
 1511              	.LEHE23:
 1512              		.cfi_endproc
 1513              	.LFE1384:
 1514              		.section	.gcc_except_table
 1515              	.LLSDA1384:
 1516 00ab FF       		.byte	0xff
 1517 00ac FF       		.byte	0xff
 1518 00ad 01       		.byte	0x1
 1519 00ae 0B       		.uleb128 .LLSDACSE1384-.LLSDACSB1384
 1520              	.LLSDACSB1384:
 1521 00af B701     		.uleb128 .LEHB22-.LFB1384
 1522 00b1 05       		.uleb128 .LEHE22-.LEHB22
 1523 00b2 CB01     		.uleb128 .L77-.LFB1384
 1524 00b4 00       		.uleb128 0
 1525 00b5 DD01     		.uleb128 .LEHB23-.LFB1384
 1526 00b7 05       		.uleb128 .LEHE23-.LEHB23
 1527 00b8 00       		.uleb128 0
 1528 00b9 00       		.uleb128 0
 1529              	.LLSDACSE1384:
 1530              		.section	.text._ZN8UnitTest15MemoryOutStreamD0Ev,"axG",@progbits,_ZN8UnitTest15MemoryOutStreamD0Ev
 1532              		.section	.text._ZNSt7__cxx1115basic_stringbufIcSt11char_traitsIcESaIcEED2Ev,"axG",@progbits,_ZNSt7
 1533              		.align 2
 1534              		.p2align 4
 1535              		.weak	_ZNSt7__cxx1115basic_stringbufIcSt11char_traitsIcESaIcEED2Ev
 1537              	_ZNSt7__cxx1115basic_stringbufIcSt11char_traitsIcESaIcEED2Ev:
 1538              	.LFB1263:
 1539              		.cfi_startproc
 1540 0000 F30F1EFA 		endbr64
 1541 0004 488D0500 		leaq	16+_ZTVNSt7__cxx1115basic_stringbufIcSt11char_traitsIcESaIcEEE(%rip), %rax
 1541      000000
 1542 000b 53       		pushq	%rbx
 1543              		.cfi_def_cfa_offset 16
 1544              		.cfi_offset 3, -16
 1545 000c 4889FB   		movq	%rdi, %rbx
 1546 000f 488907   		movq	%rax, (%rdi)
 1547 0012 488B7F48 		movq	72(%rdi), %rdi
 1548 0016 488D4358 		leaq	88(%rbx), %rax
 1549 001a 4839C7   		cmpq	%rax, %rdi
 1550 001d 7405     		je	.L80
 1551 001f E8000000 		call	_ZdlPv@PLT
 1551      00
 1552              	.L80:
 1553 0024 488D0500 		leaq	16+_ZTVSt15basic_streambufIcSt11char_traitsIcEE(%rip), %rax
 1553      000000
 1554 002b 488D7B38 		leaq	56(%rbx), %rdi
 1555 002f 488903   		movq	%rax, (%rbx)
 1556 0032 5B       		popq	%rbx
 1557              		.cfi_def_cfa_offset 8
 1558 0033 E9000000 		jmp	_ZNSt6localeD1Ev@PLT
 1558      00
 1559              		.cfi_endproc
 1560              	.LFE1263:
 1562              		.weak	_ZNSt7__cxx1115basic_stringbufIcSt11char_traitsIcESaIcEED1Ev
 1563              		.set	_ZNSt7__cxx1115basic_stringbufIcSt11char_traitsIcESaIcEED1Ev,_ZNSt7__cxx1115basic_stringbufIc
 1564              		.section	.text._ZNSt7__cxx1115basic_stringbufIcSt11char_traitsIcESaIcEED0Ev,"axG",@progbits,_ZNSt7
 1565              		.align 2
 1566              		.p2align 4
 1567              		.weak	_ZNSt7__cxx1115basic_stringbufIcSt11char_traitsIcESaIcEED0Ev
 1569              	_ZNSt7__cxx1115basic_stringbufIcSt11char_traitsIcESaIcEED0Ev:
 1570              	.LFB1265:
 1571              		.cfi_startproc
 1572 0000 F30F1EFA 		endbr64
 1573 0004 488D0500 		leaq	16+_ZTVNSt7__cxx1115basic_stringbufIcSt11char_traitsIcESaIcEEE(%rip), %rax
 1573      000000
 1574 000b 55       		pushq	%rbp
 1575              		.cfi_def_cfa_offset 16
 1576              		.cfi_offset 6, -16
 1577 000c 4889FD   		movq	%rdi, %rbp
 1578 000f 488907   		movq	%rax, (%rdi)
 1579 0012 488B7F48 		movq	72(%rdi), %rdi
 1580 0016 488D4558 		leaq	88(%rbp), %rax
 1581 001a 4839C7   		cmpq	%rax, %rdi
 1582 001d 7405     		je	.L83
 1583 001f E8000000 		call	_ZdlPv@PLT
 1583      00
 1584              	.L83:
 1585 0024 488D0500 		leaq	16+_ZTVSt15basic_streambufIcSt11char_traitsIcEE(%rip), %rax
 1585      000000
 1586 002b 488D7D38 		leaq	56(%rbp), %rdi
 1587 002f 48894500 		movq	%rax, 0(%rbp)
 1588 0033 E8000000 		call	_ZNSt6localeD1Ev@PLT
 1588      00
 1589 0038 4889EF   		movq	%rbp, %rdi
 1590 003b 5D       		popq	%rbp
 1591              		.cfi_def_cfa_offset 8
 1592 003c E9000000 		jmp	_ZdlPv@PLT
 1592      00
 1593              		.cfi_endproc
 1594              	.LFE1265:
 1596              		.section	.rodata._ZN8UnitTest10CheckEqualIiiEEvRNS_11TestResultsERKT_RKT0_RKNS_11TestDetailsE.str1
 1597              	.LC9:
 1598 0000 45787065 		.string	"Expected "
 1598      63746564 
 1598      2000
 1599              	.LC10:
 1600 000a 20627574 		.string	" but was "
 1600      20776173 
 1600      2000
 1601              		.section	.text._ZN8UnitTest10CheckEqualIiiEEvRNS_11TestResultsERKT_RKT0_RKNS_11TestDetailsE,"axG",
 1602              		.p2align 4
 1603              		.weak	_ZN8UnitTest10CheckEqualIiiEEvRNS_11TestResultsERKT_RKT0_RKNS_11TestDetailsE
 1605              	_ZN8UnitTest10CheckEqualIiiEEvRNS_11TestResultsERKT_RKT0_RKNS_11TestDetailsE:
 1606              	.LFB1281:
 1607              		.cfi_startproc
 1608              		.cfi_personality 0x9b,DW.ref.__gxx_personality_v0
 1609              		.cfi_lsda 0x1b,.LLSDA1281
 1610 0000 F30F1EFA 		endbr64
 1611 0004 4157     		pushq	%r15
 1612              		.cfi_def_cfa_offset 16
 1613              		.cfi_offset 15, -16
 1614 0006 4156     		pushq	%r14
 1615              		.cfi_def_cfa_offset 24
 1616              		.cfi_offset 14, -24
 1617 0008 4155     		pushq	%r13
 1618              		.cfi_def_cfa_offset 32
 1619              		.cfi_offset 13, -32
 1620 000a 4154     		pushq	%r12
 1621              		.cfi_def_cfa_offset 40
 1622              		.cfi_offset 12, -40
 1623 000c 55       		pushq	%rbp
 1624              		.cfi_def_cfa_offset 48
 1625              		.cfi_offset 6, -48
 1626 000d 53       		pushq	%rbx
 1627              		.cfi_def_cfa_offset 56
 1628              		.cfi_offset 3, -56
 1629 000e 4881ECD8 		subq	$472, %rsp
 1629      010000
 1630              		.cfi_def_cfa_offset 528
 1631 0015 F30F7E0D 		movq	.LC11(%rip), %xmm1
 1631      00000000 
 1632 001d 48897C24 		movq	%rdi, 16(%rsp)
 1632      10
 1633 0022 48894C24 		movq	%rcx, 24(%rsp)
 1633      18
 1634 0027 0F160D00 		movhps	.LC12(%rip), %xmm1
 1634      000000
 1635 002e 64488B04 		movq	%fs:40, %rax
 1635      25280000 
 1635      00
 1636 0037 48898424 		movq	%rax, 456(%rsp)
 1636      C8010000 
 1637 003f 31C0     		xorl	%eax, %eax
 1638 0041 8B02     		movl	(%rdx), %eax
 1639 0043 0F290C24 		movaps	%xmm1, (%rsp)
 1640 0047 3906     		cmpl	%eax, (%rsi)
 1641 0049 752D     		jne	.L101
 1642              	.L85:
 1643 004b 488B8424 		movq	456(%rsp), %rax
 1643      C8010000 
 1644 0053 64482B04 		subq	%fs:40, %rax
 1644      25280000 
 1644      00
 1645 005c 0F854B02 		jne	.L102
 1645      0000
 1646 0062 4881C4D8 		addq	$472, %rsp
 1646      010000
 1647              		.cfi_remember_state
 1648              		.cfi_def_cfa_offset 56
 1649 0069 5B       		popq	%rbx
 1650              		.cfi_def_cfa_offset 48
 1651 006a 5D       		popq	%rbp
 1652              		.cfi_def_cfa_offset 40
 1653 006b 415C     		popq	%r12
 1654              		.cfi_def_cfa_offset 32
 1655 006d 415D     		popq	%r13
 1656              		.cfi_def_cfa_offset 24
 1657 006f 415E     		popq	%r14
 1658              		.cfi_def_cfa_offset 16
 1659 0071 415F     		popq	%r15
 1660              		.cfi_def_cfa_offset 8
 1661 0073 C3       		ret
 1662              		.p2align 4,,10
 1663 0074 0F1F4000 		.p2align 3
 1664              	.L101:
 1665              		.cfi_restore_state
 1666 0078 4C8DAC24 		leaq	192(%rsp), %r13
 1666      C0000000 
 1667 0080 4889F5   		movq	%rsi, %rbp
 1668 0083 4889D3   		movq	%rdx, %rbx
 1669 0086 4C89EF   		movq	%r13, %rdi
 1670 0089 E8000000 		call	_ZNSt8ios_baseC2Ev@PLT
 1670      00
 1671 008e 31C0     		xorl	%eax, %eax
 1672 0090 660FEFC0 		pxor	%xmm0, %xmm0
 1673 0094 31F6     		xorl	%esi, %esi
 1674 0096 66898424 		movw	%ax, 416(%rsp)
 1674      A0010000 
 1675 009e 488D0500 		leaq	24+_ZTCN8UnitTest15MemoryOutStreamE0_So(%rip), %rax
 1675      000000
 1676 00a5 4C89EF   		movq	%r13, %rdi
 1677 00a8 48894424 		movq	%rax, 48(%rsp)
 1677      30
 1678 00ad 4883C028 		addq	$40, %rax
 1679 00b1 48C78424 		movq	$0, 408(%rsp)
 1679      98010000 
 1679      00000000 
 1680 00bd 48898424 		movq	%rax, 192(%rsp)
 1680      C0000000 
 1681 00c5 0F118424 		movups	%xmm0, 424(%rsp)
 1681      A8010000 
 1682 00cd 0F118424 		movups	%xmm0, 440(%rsp)
 1682      B8010000 
 1683              	.LEHB24:
 1684 00d5 E8000000 		call	_ZNSt9basic_iosIcSt11char_traitsIcEE4initEPSt15basic_streambufIcS1_E@PLT
 1684      00
 1685              	.LEHE24:
 1686 00da 660F6F0C 		movdqa	(%rsp), %xmm1
 1686      24
 1687 00df 4C8D7424 		leaq	112(%rsp), %r14
 1687      70
 1688 00e4 660FEFC0 		pxor	%xmm0, %xmm0
 1689 00e8 488D0500 		leaq	64+_ZTCN8UnitTest15MemoryOutStreamE0_NSt7__cxx1119basic_ostringstreamIcSt11char_traitsIcESaIc
 1689      000000
 1690 00ef 4C89F7   		movq	%r14, %rdi
 1691 00f2 0F294424 		movaps	%xmm0, 64(%rsp)
 1691      40
 1692 00f7 4C8D6424 		leaq	48(%rsp), %r12
 1692      30
 1693 00fc 4C8D7C24 		leaq	56(%rsp), %r15
 1693      38
 1694 0101 48898424 		movq	%rax, 192(%rsp)
 1694      C0000000 
 1695 0109 0F294C24 		movaps	%xmm1, 48(%rsp)
 1695      30
 1696 010e 0F294424 		movaps	%xmm0, 80(%rsp)
 1696      50
 1697 0113 0F294424 		movaps	%xmm0, 96(%rsp)
 1697      60
 1698 0118 E8000000 		call	_ZNSt6localeC1Ev@PLT
 1698      00
 1699 011d 488D0500 		leaq	16+_ZTVNSt7__cxx1115basic_stringbufIcSt11char_traitsIcESaIcEEE(%rip), %rax
 1699      000000
 1700 0124 4C89FE   		movq	%r15, %rsi
 1701 0127 48C78424 		movq	$0, 136(%rsp)
 1701      88000000 
 1701      00000000 
 1702 0133 48894424 		movq	%rax, 56(%rsp)
 1702      38
 1703 0138 488D8424 		leaq	144(%rsp), %rax
 1703      90000000 
 1704 0140 48894424 		movq	%rax, 32(%rsp)
 1704      20
 1705 0145 48898424 		movq	%rax, 128(%rsp)
 1705      80000000 
 1706 014d 488B4424 		movq	48(%rsp), %rax
 1706      30
 1707 0152 C6842490 		movb	$0, 144(%rsp)
 1707      00000000 
 1708 015a 488B78E8 		movq	-24(%rax), %rdi
 1709 015e C7442478 		movl	$16, 120(%rsp)
 1709      10000000 
 1710 0166 4C01E7   		addq	%r12, %rdi
 1711              	.LEHB25:
 1712 0169 E8000000 		call	_ZNSt9basic_iosIcSt11char_traitsIcEE4initEPSt15basic_streambufIcS1_E@PLT
 1712      00
 1713              	.LEHE25:
 1714 016e 4C8D3D00 		leaq	24+_ZTVN8UnitTest15MemoryOutStreamE(%rip), %r15
 1714      000000
 1715 0175 BA090000 		movl	$9, %edx
 1715      00
 1716 017a 4C89E7   		movq	%r12, %rdi
 1717 017d 48C78424 		movq	$0, 168(%rsp)
 1717      A8000000 
 1717      00000000 
 1718 0189 498D4728 		leaq	40(%r15), %rax
 1719 018d 488D3500 		leaq	.LC9(%rip), %rsi
 1719      000000
 1720 0194 4C897C24 		movq	%r15, 48(%rsp)
 1720      30
 1721 0199 48898424 		movq	%rax, 192(%rsp)
 1721      C0000000 
 1722 01a1 488D8424 		leaq	176(%rsp), %rax
 1722      B0000000 
 1723 01a9 48894424 		movq	%rax, 40(%rsp)
 1723      28
 1724 01ae 48898424 		movq	%rax, 160(%rsp)
 1724      A0000000 
 1725 01b6 C68424B0 		movb	$0, 176(%rsp)
 1725      00000000 
 1726              	.LEHB26:
 1727 01be E8000000 		call	_ZSt16__ostream_insertIcSt11char_traitsIcEERSt13basic_ostreamIT_T0_ES6_PKS3_l@PLT
 1727      00
 1728 01c3 8B7500   		movl	0(%rbp), %esi
 1729 01c6 4C89E7   		movq	%r12, %rdi
 1730 01c9 E8000000 		call	_ZNSolsEi@PLT
 1730      00
 1731 01ce BA090000 		movl	$9, %edx
 1731      00
 1732 01d3 488D3500 		leaq	.LC10(%rip), %rsi
 1732      000000
 1733 01da 4889C7   		movq	%rax, %rdi
 1734 01dd 4889C5   		movq	%rax, %rbp
 1735 01e0 E8000000 		call	_ZSt16__ostream_insertIcSt11char_traitsIcEERSt13basic_ostreamIT_T0_ES6_PKS3_l@PLT
 1735      00
 1736 01e5 8B33     		movl	(%rbx), %esi
 1737 01e7 4889EF   		movq	%rbp, %rdi
 1738 01ea E8000000 		call	_ZNSolsEi@PLT
 1738      00
 1739 01ef 4C89E7   		movq	%r12, %rdi
 1740 01f2 E8000000 		call	_ZNK8UnitTest15MemoryOutStream7GetTextEv@PLT
 1740      00
 1741 01f7 488B7424 		movq	24(%rsp), %rsi
 1741      18
 1742 01fc 488B7C24 		movq	16(%rsp), %rdi
 1742      10
 1743 0201 4889C2   		movq	%rax, %rdx
 1744 0204 F30F7E15 		movq	.LC11(%rip), %xmm2
 1744      00000000 
 1745 020c 0F161500 		movhps	.LC13(%rip), %xmm2
 1745      000000
 1746 0213 0F291424 		movaps	%xmm2, (%rsp)
 1747 0217 E8000000 		call	_ZN8UnitTest11TestResults13OnTestFailureERKNS_11TestDetailsEPKc@PLT
 1747      00
 1748              	.LEHE26:
 1749 021c 488D0500 		leaq	64+_ZTVN8UnitTest15MemoryOutStreamE(%rip), %rax
 1749      000000
 1750 0223 4C897C24 		movq	%r15, 48(%rsp)
 1750      30
 1751 0228 488BBC24 		movq	160(%rsp), %rdi
 1751      A0000000 
 1752 0230 48898424 		movq	%rax, 192(%rsp)
 1752      C0000000 
 1753 0238 483B7C24 		cmpq	40(%rsp), %rdi
 1753      28
 1754 023d 7405     		je	.L91
 1755 023f E8000000 		call	_ZdlPv@PLT
 1755      00
 1756              	.L91:
 1757 0244 660F6F1C 		movdqa	(%rsp), %xmm3
 1757      24
 1758 0249 488D0500 		leaq	64+_ZTCN8UnitTest15MemoryOutStreamE0_NSt7__cxx1119basic_ostringstreamIcSt11char_traitsIcESaIc
 1758      000000
 1759 0250 488BBC24 		movq	128(%rsp), %rdi
 1759      80000000 
 1760 0258 48898424 		movq	%rax, 192(%rsp)
 1760      C0000000 
 1761 0260 0F295C24 		movaps	%xmm3, 48(%rsp)
 1761      30
 1762 0265 483B7C24 		cmpq	32(%rsp), %rdi
 1762      20
 1763 026a 7405     		je	.L92
 1764 026c E8000000 		call	_ZdlPv@PLT
 1764      00
 1765              	.L92:
 1766 0271 488D0500 		leaq	16+_ZTVSt15basic_streambufIcSt11char_traitsIcEE(%rip), %rax
 1766      000000
 1767 0278 4C89F7   		movq	%r14, %rdi
 1768 027b 48894424 		movq	%rax, 56(%rsp)
 1768      38
 1769 0280 E8000000 		call	_ZNSt6localeD1Ev@PLT
 1769      00
 1770 0285 488D0500 		leaq	24+_ZTCN8UnitTest15MemoryOutStreamE0_So(%rip), %rax
 1770      000000
 1771 028c 4C89EF   		movq	%r13, %rdi
 1772 028f 48894424 		movq	%rax, 48(%rsp)
 1772      30
 1773 0294 488D0500 		leaq	16+_ZTVSt9basic_iosIcSt11char_traitsIcEE(%rip), %rax
 1773      000000
 1774 029b 48898424 		movq	%rax, 192(%rsp)
 1774      C0000000 
 1775              	.LEHB27:
 1776 02a3 E8000000 		call	_ZNSt8ios_baseD2Ev@PLT
 1776      00
 1777              	.LEHE27:
 1778 02a8 E99EFDFF 		jmp	.L85
 1778      FF
 1779              	.L102:
 1780 02ad E8000000 		call	__stack_chk_fail@PLT
 1780      00
 1781              	.L96:
 1782 02b2 F30F1EFA 		endbr64
 1783 02b6 4889C5   		movq	%rax, %rbp
 1784 02b9 EB26     		jmp	.L89
 1785              	.L97:
 1786 02bb F30F1EFA 		endbr64
 1787 02bf 4889C5   		movq	%rax, %rbp
 1788 02c2 EB09     		jmp	.L88
 1789              	.L95:
 1790 02c4 F30F1EFA 		endbr64
 1791 02c8 4889C5   		movq	%rax, %rbp
 1792 02cb EB33     		jmp	.L93
 1793              	.L88:
 1794 02cd 4C89FF   		movq	%r15, %rdi
 1795 02d0 E8000000 		call	_ZNSt7__cxx1115basic_stringbufIcSt11char_traitsIcESaIcEED1Ev
 1795      00
 1796 02d5 488D0500 		leaq	24+_ZTCN8UnitTest15MemoryOutStreamE0_So(%rip), %rax
 1796      000000
 1797 02dc 48894424 		movq	%rax, 48(%rsp)
 1797      30
 1798              	.L89:
 1799 02e1 488D0500 		leaq	16+_ZTVSt9basic_iosIcSt11char_traitsIcEE(%rip), %rax
 1799      000000
 1800 02e8 4C89EF   		movq	%r13, %rdi
 1801 02eb 48898424 		movq	%rax, 192(%rsp)
 1801      C0000000 
 1802 02f3 E8000000 		call	_ZNSt8ios_baseD2Ev@PLT
 1802      00
 1803 02f8 4889EF   		movq	%rbp, %rdi
 1804              	.LEHB28:
 1805 02fb E8000000 		call	_Unwind_Resume@PLT
 1805      00
 1806              	.LEHE28:
 1807              	.L93:
 1808 0300 4C89E7   		movq	%r12, %rdi
 1809 0303 E8000000 		call	_ZN8UnitTest15MemoryOutStreamD1Ev
 1809      00
 1810 0308 4889EF   		movq	%rbp, %rdi
 1811              	.LEHB29:
 1812 030b E8000000 		call	_Unwind_Resume@PLT
 1812      00
 1813              	.LEHE29:
 1814              		.cfi_endproc
 1815              	.LFE1281:
 1816              		.section	.gcc_except_table
 1817              	.LLSDA1281:
 1818 00ba FF       		.byte	0xff
 1819 00bb FF       		.byte	0xff
 1820 00bc 01       		.byte	0x1
 1821 00bd 21       		.uleb128 .LLSDACSE1281-.LLSDACSB1281
 1822              	.LLSDACSB1281:
 1823 00be D501     		.uleb128 .LEHB24-.LFB1281
 1824 00c0 05       		.uleb128 .LEHE24-.LEHB24
 1825 00c1 B205     		.uleb128 .L96-.LFB1281
 1826 00c3 00       		.uleb128 0
 1827 00c4 E902     		.uleb128 .LEHB25-.LFB1281
 1828 00c6 05       		.uleb128 .LEHE25-.LEHB25
 1829 00c7 BB05     		.uleb128 .L97-.LFB1281
 1830 00c9 00       		.uleb128 0
 1831 00ca BE03     		.uleb128 .LEHB26-.LFB1281
 1832 00cc 5E       		.uleb128 .LEHE26-.LEHB26
 1833 00cd C405     		.uleb128 .L95-.LFB1281
 1834 00cf 00       		.uleb128 0
 1835 00d0 A305     		.uleb128 .LEHB27-.LFB1281
 1836 00d2 05       		.uleb128 .LEHE27-.LEHB27
 1837 00d3 00       		.uleb128 0
 1838 00d4 00       		.uleb128 0
 1839 00d5 FB05     		.uleb128 .LEHB28-.LFB1281
 1840 00d7 05       		.uleb128 .LEHE28-.LEHB28
 1841 00d8 00       		.uleb128 0
 1842 00d9 00       		.uleb128 0
 1843 00da 8B06     		.uleb128 .LEHB29-.LFB1281
 1844 00dc 05       		.uleb128 .LEHE29-.LEHB29
 1845 00dd 00       		.uleb128 0
 1846 00de 00       		.uleb128 0
 1847              	.LLSDACSE1281:
 1848              		.section	.text._ZN8UnitTest10CheckEqualIiiEEvRNS_11TestResultsERKT_RKT0_RKNS_11TestDetailsE,"axG",
 1850              		.section	.rodata.str1.1,"aMS",@progbits,1
 1851              	.LC15:
 1852 0000 6661696C 		.string	"failurestring"
 1852      75726573 
 1852      7472696E 
 1852      6700
 1853              	.LC16:
 1854 000e 66696C65 		.string	"filename"
 1854      6E616D65 
 1854      00
 1855              	.LC17:
 1856 0017 74657374 		.string	"testname"
 1856      6E616D65 
 1856      00
 1857              	.LC18:
 1858 0020 73756974 		.string	"suitename"
 1858      656E616D 
 1858      6500
 1859              		.section	.rodata.str1.8,"aMS",@progbits,1
 1860              		.align 8
 1861              	.LC19:
 1862 0000 556E6861 		.string	"Unhandled exception in CHECK_EQUAL(1, reporter.testFailedCount)"
 1862      6E646C65 
 1862      64206578 
 1862      63657074 
 1862      696F6E20 
 1863              		.align 8
 1864              	.LC20:
 1865 0040 556E6861 		.string	"Unhandled exception in CHECK_EQUAL(\"filename\", reporter.lastFailedFile)"
 1865      6E646C65 
 1865      64206578 
 1865      63657074 
 1865      696F6E20 
 1866              		.align 8
 1867              	.LC21:
 1868 0088 556E6861 		.string	"Unhandled exception in CHECK_EQUAL(123, reporter.lastFailedLine)"
 1868      6E646C65 
 1868      64206578 
 1868      63657074 
 1868      696F6E20 
 1869 00c9 00000000 		.align 8
 1869      000000
 1870              	.LC22:
 1871 00d0 556E6861 		.string	"Unhandled exception in CHECK_EQUAL(\"testname\", reporter.lastFailedTest)"
 1871      6E646C65 
 1871      64206578 
 1871      63657074 
 1871      696F6E20 
 1872              		.align 8
 1873              	.LC23:
 1874 0118 556E6861 		.string	"Unhandled exception in CHECK_EQUAL(\"suitename\", reporter.lastFailedSuite)"
 1874      6E646C65 
 1874      64206578 
 1874      63657074 
 1874      696F6E20 
 1875 0162 00000000 		.align 8
 1875      0000
 1876              	.LC24:
 1877 0168 556E6861 		.string	"Unhandled exception in CHECK_EQUAL(\"failurestring\", reporter.lastFailedMessage)"
 1877      6E646C65 
 1877      64206578 
 1877      63657074 
 1877      696F6E20 
 1878              		.section	.text.unlikely
 1879              		.align 2
 1880              	.LCOLDB25:
 1881              		.text
 1882              	.LHOTB25:
 1883              		.align 2
 1884 0358 0F1F8400 		.p2align 4
 1884      00000000 
 1886              	_ZNK12_GLOBAL__N_149TestNotifiesReporterOfCheckFailureWithCorrectInfo7RunImplEv:
 1887              	.LFB1249:
 1888              		.cfi_startproc
 1889              		.cfi_personality 0x9b,DW.ref.__gxx_personality_v0
 1890              		.cfi_lsda 0x1b,.LLSDA1249
 1891 0360 F30F1EFA 		endbr64
 1892 0364 4156     		pushq	%r14
 1893              		.cfi_def_cfa_offset 16
 1894              		.cfi_offset 14, -16
 1895 0366 4155     		pushq	%r13
 1896              		.cfi_def_cfa_offset 24
 1897              		.cfi_offset 13, -24
 1898 0368 4154     		pushq	%r12
 1899              		.cfi_def_cfa_offset 32
 1900              		.cfi_offset 12, -32
 1901 036a 55       		pushq	%rbp
 1902              		.cfi_def_cfa_offset 40
 1903              		.cfi_offset 6, -40
 1904 036b 53       		pushq	%rbx
 1905              		.cfi_def_cfa_offset 48
 1906              		.cfi_offset 3, -48
 1907 036c 488D1D00 		leaq	16+_ZTV17RecordingReporter(%rip), %rbx
 1907      000000
 1908 0373 4881EC90 		subq	$2192, %rsp
 1908      080000
 1909              		.cfi_def_cfa_offset 2240
 1910 037a 64488B04 		movq	%fs:40, %rax
 1910      25280000 
 1910      00
 1911 0383 48898424 		movq	%rax, 2184(%rsp)
 1911      88080000 
 1912 038b 31C0     		xorl	%eax, %eax
 1913 038d 4C8D6424 		leaq	80(%rsp), %r12
 1913      50
 1914 0392 488D6C24 		leaq	16(%rsp), %rbp
 1914      10
 1915 0397 48895C24 		movq	%rbx, 80(%rsp)
 1915      50
 1916 039c 4C89E6   		movq	%r12, %rsi
 1917 039f 4889EF   		movq	%rbp, %rdi
 1918 03a2 C7442458 		movl	$0, 88(%rsp)
 1918      00000000 
 1919 03aa C784245C 		movl	$0, 604(%rsp)
 1919      02000000 
 1919      000000
 1920 03b5 C7842460 		movl	$0, 864(%rsp)
 1920      03000000 
 1920      000000
 1921 03c0 C7842464 		movl	$0, 1636(%rsp)
 1921      06000000 
 1921      000000
 1922 03cb 48C78424 		movq	$0, 2152(%rsp)
 1922      68080000 
 1922      00000000 
 1923 03d7 48C78424 		movq	$0, 2160(%rsp)
 1923      70080000 
 1923      00000000 
 1924 03e3 C7842478 		movl	$0x00000000, 2168(%rsp)
 1924      08000000 
 1924      000000
 1925 03ee C644245C 		movb	$0, 92(%rsp)
 1925      00
 1926 03f3 C684245C 		movb	$0, 348(%rsp)
 1926      01000000 
 1927 03fb C6842460 		movb	$0, 608(%rsp)
 1927      02000000 
 1928 0403 C6842464 		movb	$0, 868(%rsp)
 1928      03000000 
 1929 040b C6842464 		movb	$0, 1124(%rsp)
 1929      04000000 
 1930 0413 C6842464 		movb	$0, 1380(%rsp)
 1930      05000000 
 1931 041b C6842468 		movb	$0, 1640(%rsp)
 1931      06000000 
 1932 0423 C6842468 		movb	$0, 1896(%rsp)
 1932      07000000 
 1933              	.LEHB30:
 1934 042b E8000000 		call	_ZN8UnitTest11TestResultsC1EPNS_12TestReporterE@PLT
 1934      00
 1935 0430 4C8D2D00 		leaq	.LC15(%rip), %r13
 1935      000000
 1936 0437 488D3500 		leaq	_ZN12_GLOBAL__N_1L7detailsE(%rip), %rsi
 1936      000000
 1937 043e 4889EF   		movq	%rbp, %rdi
 1938 0441 4C89EA   		movq	%r13, %rdx
 1939 0444 E8000000 		call	_ZN8UnitTest11TestResults13OnTestFailureERKNS_11TestDetailsEPKc@PLT
 1939      00
 1940              	.LEHE30:
 1941              	.LEHB31:
 1942 0449 E8000000 		call	_ZN8UnitTest11CurrentTest7DetailsEv@PLT
 1942      00
 1943 044e 488D6C24 		leaq	48(%rsp), %rbp
 1943      30
 1944 0453 488B30   		movq	(%rax), %rsi
 1945 0456 BA590000 		movl	$89, %edx
 1945      00
 1946 045b 4889EF   		movq	%rbp, %rdi
 1947 045e E8000000 		call	_ZN8UnitTest11TestDetailsC1ERKS0_i@PLT
 1947      00
 1948 0463 C744240C 		movl	$1, 12(%rsp)
 1948      01000000 
 1949 046b E8000000 		call	_ZN8UnitTest11CurrentTest7ResultsEv@PLT
 1949      00
 1950 0470 488B38   		movq	(%rax), %rdi
 1951 0473 488D9424 		leaq	604(%rsp), %rdx
 1951      5C020000 
 1952 047b 488D7424 		leaq	12(%rsp), %rsi
 1952      0C
 1953 0480 4889E9   		movq	%rbp, %rcx
 1954 0483 E8000000 		call	_ZN8UnitTest10CheckEqualIiiEEvRNS_11TestResultsERKT_RKT0_RKNS_11TestDetailsE
 1954      00
 1955              	.LEHE31:
 1956              	.L105:
 1957              	.LEHB32:
 1958 0488 E8000000 		call	_ZN8UnitTest11CurrentTest7DetailsEv@PLT
 1958      00
 1959 048d 488B30   		movq	(%rax), %rsi
 1960 0490 BA5B0000 		movl	$91, %edx
 1960      00
 1961 0495 4889EF   		movq	%rbp, %rdi
 1962 0498 E8000000 		call	_ZN8UnitTest11TestDetailsC1ERKS0_i@PLT
 1962      00
 1963 049d E8000000 		call	_ZN8UnitTest11CurrentTest7ResultsEv@PLT
 1963      00
 1964 04a2 488B38   		movq	(%rax), %rdi
 1965 04a5 488D9424 		leaq	608(%rsp), %rdx
 1965      60020000 
 1966 04ad 4889E9   		movq	%rbp, %rcx
 1967 04b0 488D3500 		leaq	.LC16(%rip), %rsi
 1967      000000
 1968 04b7 E8000000 		call	_ZN8UnitTest10CheckEqualERNS_11TestResultsEPKcPcRKNS_11TestDetailsE@PLT
 1968      00
 1969              	.LEHE32:
 1970              	.L109:
 1971              	.LEHB33:
 1972 04bc E8000000 		call	_ZN8UnitTest11CurrentTest7DetailsEv@PLT
 1972      00
 1973 04c1 488B30   		movq	(%rax), %rsi
 1974 04c4 BA5C0000 		movl	$92, %edx
 1974      00
 1975 04c9 4889EF   		movq	%rbp, %rdi
 1976 04cc E8000000 		call	_ZN8UnitTest11TestDetailsC1ERKS0_i@PLT
 1976      00
 1977 04d1 C744240C 		movl	$123, 12(%rsp)
 1977      7B000000 
 1978 04d9 E8000000 		call	_ZN8UnitTest11CurrentTest7ResultsEv@PLT
 1978      00
 1979 04de 488B38   		movq	(%rax), %rdi
 1980 04e1 488D9424 		leaq	864(%rsp), %rdx
 1980      60030000 
 1981 04e9 488D7424 		leaq	12(%rsp), %rsi
 1981      0C
 1982 04ee 4889E9   		movq	%rbp, %rcx
 1983 04f1 E8000000 		call	_ZN8UnitTest10CheckEqualIiiEEvRNS_11TestResultsERKT_RKT0_RKNS_11TestDetailsE
 1983      00
 1984              	.LEHE33:
 1985              	.L112:
 1986              	.LEHB34:
 1987 04f6 E8000000 		call	_ZN8UnitTest11CurrentTest7DetailsEv@PLT
 1987      00
 1988 04fb 488B30   		movq	(%rax), %rsi
 1989 04fe BA5D0000 		movl	$93, %edx
 1989      00
 1990 0503 4889EF   		movq	%rbp, %rdi
 1991 0506 E8000000 		call	_ZN8UnitTest11TestDetailsC1ERKS0_i@PLT
 1991      00
 1992 050b E8000000 		call	_ZN8UnitTest11CurrentTest7ResultsEv@PLT
 1992      00
 1993 0510 488B38   		movq	(%rax), %rdi
 1994 0513 488D9424 		leaq	1124(%rsp), %rdx
 1994      64040000 
 1995 051b 4889E9   		movq	%rbp, %rcx
 1996 051e 488D3500 		leaq	.LC17(%rip), %rsi
 1996      000000
 1997 0525 E8000000 		call	_ZN8UnitTest10CheckEqualERNS_11TestResultsEPKcPcRKNS_11TestDetailsE@PLT
 1997      00
 1998              	.LEHE34:
 1999              	.L115:
 2000              	.LEHB35:
 2001 052a E8000000 		call	_ZN8UnitTest11CurrentTest7DetailsEv@PLT
 2001      00
 2002 052f 488B30   		movq	(%rax), %rsi
 2003 0532 BA5E0000 		movl	$94, %edx
 2003      00
 2004 0537 4889EF   		movq	%rbp, %rdi
 2005 053a E8000000 		call	_ZN8UnitTest11TestDetailsC1ERKS0_i@PLT
 2005      00
 2006 053f E8000000 		call	_ZN8UnitTest11CurrentTest7ResultsEv@PLT
 2006      00
 2007 0544 488B38   		movq	(%rax), %rdi
 2008 0547 488D9424 		leaq	868(%rsp), %rdx
 2008      64030000 
 2009 054f 4889E9   		movq	%rbp, %rcx
 2010 0552 488D3500 		leaq	.LC18(%rip), %rsi
 2010      000000
 2011 0559 E8000000 		call	_ZN8UnitTest10CheckEqualERNS_11TestResultsEPKcPcRKNS_11TestDetailsE@PLT
 2011      00
 2012              	.LEHE35:
 2013              	.L118:
 2014              	.LEHB36:
 2015 055e E8000000 		call	_ZN8UnitTest11CurrentTest7DetailsEv@PLT
 2015      00
 2016 0563 488B30   		movq	(%rax), %rsi
 2017 0566 BA5F0000 		movl	$95, %edx
 2017      00
 2018 056b 4889EF   		movq	%rbp, %rdi
 2019 056e E8000000 		call	_ZN8UnitTest11TestDetailsC1ERKS0_i@PLT
 2019      00
 2020 0573 E8000000 		call	_ZN8UnitTest11CurrentTest7ResultsEv@PLT
 2020      00
 2021 0578 488B38   		movq	(%rax), %rdi
 2022 057b 488D9424 		leaq	1380(%rsp), %rdx
 2022      64050000 
 2023 0583 4889E9   		movq	%rbp, %rcx
 2024 0586 4C89EE   		movq	%r13, %rsi
 2025 0589 E8000000 		call	_ZN8UnitTest10CheckEqualERNS_11TestResultsEPKcPcRKNS_11TestDetailsE@PLT
 2025      00
 2026              	.LEHE36:
 2027              	.L121:
 2028 058e 4C89E7   		movq	%r12, %rdi
 2029 0591 48895C24 		movq	%rbx, 80(%rsp)
 2029      50
 2030              	.LEHB37:
 2031 0596 E8000000 		call	_ZN8UnitTest12TestReporterD2Ev@PLT
 2031      00
 2032              	.LEHE37:
 2033 059b 488B8424 		movq	2184(%rsp), %rax
 2033      88080000 
 2034 05a3 64482B04 		subq	%fs:40, %rax
 2034      25280000 
 2034      00
 2035 05ac 7510     		jne	.L141
 2036 05ae 4881C490 		addq	$2192, %rsp
 2036      080000
 2037              		.cfi_remember_state
 2038              		.cfi_def_cfa_offset 48
 2039 05b5 5B       		popq	%rbx
 2040              		.cfi_def_cfa_offset 40
 2041 05b6 5D       		popq	%rbp
 2042              		.cfi_def_cfa_offset 32
 2043 05b7 415C     		popq	%r12
 2044              		.cfi_def_cfa_offset 24
 2045 05b9 415D     		popq	%r13
 2046              		.cfi_def_cfa_offset 16
 2047 05bb 415E     		popq	%r14
 2048              		.cfi_def_cfa_offset 8
 2049 05bd C3       		ret
 2050              	.L141:
 2051              		.cfi_restore_state
 2052 05be E8000000 		call	__stack_chk_fail@PLT
 2052      00
 2053              	.L135:
 2054 05c3 F30F1EFA 		endbr64
 2055 05c7 4889C7   		movq	%rax, %rdi
 2056 05ca E9000000 		jmp	.L120
 2056      00
 2057              	.L133:
 2058 05cf F30F1EFA 		endbr64
 2059 05d3 4889C7   		movq	%rax, %rdi
 2060 05d6 E9000000 		jmp	.L117
 2060      00
 2061              	.L131:
 2062 05db F30F1EFA 		endbr64
 2063 05df 4889C7   		movq	%rax, %rdi
 2064 05e2 E9000000 		jmp	.L114
 2064      00
 2065              	.L129:
 2066 05e7 F30F1EFA 		endbr64
 2067 05eb 4889C7   		movq	%rax, %rdi
 2068 05ee E9000000 		jmp	.L111
 2068      00
 2069              	.L127:
 2070 05f3 F30F1EFA 		endbr64
 2071 05f7 4889C7   		movq	%rax, %rdi
 2072 05fa E9000000 		jmp	.L108
 2072      00
 2073              	.L125:
 2074 05ff F30F1EFA 		endbr64
 2075 0603 4889C7   		movq	%rax, %rdi
 2076 0606 E9000000 		jmp	.L104
 2076      00
 2077              	.L137:
 2078 060b F30F1EFA 		endbr64
 2079 060f E9000000 		jmp	.L138
 2079      00
 2080              		.section	.gcc_except_table
 2081 00df 00       		.align 4
 2082              	.LLSDA1249:
 2083 00e0 FF       		.byte	0xff
 2084 00e1 9B       		.byte	0x9b
 2085 00e2 39       		.uleb128 .LLSDATT1249-.LLSDATTD1249
 2086              	.LLSDATTD1249:
 2087 00e3 01       		.byte	0x1
 2088 00e4 2F       		.uleb128 .LLSDACSE1249-.LLSDACSB1249
 2089              	.LLSDACSB1249:
 2090 00e5 CB01     		.uleb128 .LEHB30-.LFB1249
 2091 00e7 1E       		.uleb128 .LEHE30-.LEHB30
 2092 00e8 AB05     		.uleb128 .L137-.LFB1249
 2093 00ea 00       		.uleb128 0
 2094 00eb E901     		.uleb128 .LEHB31-.LFB1249
 2095 00ed 3F       		.uleb128 .LEHE31-.LEHB31
 2096 00ee 9F05     		.uleb128 .L125-.LFB1249
 2097 00f0 01       		.uleb128 0x1
 2098 00f1 A802     		.uleb128 .LEHB32-.LFB1249
 2099 00f3 34       		.uleb128 .LEHE32-.LEHB32
 2100 00f4 9305     		.uleb128 .L127-.LFB1249
 2101 00f6 01       		.uleb128 0x1
 2102 00f7 DC02     		.uleb128 .LEHB33-.LFB1249
 2103 00f9 3A       		.uleb128 .LEHE33-.LEHB33
 2104 00fa 8705     		.uleb128 .L129-.LFB1249
 2105 00fc 01       		.uleb128 0x1
 2106 00fd 9603     		.uleb128 .LEHB34-.LFB1249
 2107 00ff 34       		.uleb128 .LEHE34-.LEHB34
 2108 0100 FB04     		.uleb128 .L131-.LFB1249
 2109 0102 01       		.uleb128 0x1
 2110 0103 CA03     		.uleb128 .LEHB35-.LFB1249
 2111 0105 34       		.uleb128 .LEHE35-.LEHB35
 2112 0106 EF04     		.uleb128 .L133-.LFB1249
 2113 0108 01       		.uleb128 0x1
 2114 0109 FE03     		.uleb128 .LEHB36-.LFB1249
 2115 010b 30       		.uleb128 .LEHE36-.LEHB36
 2116 010c E304     		.uleb128 .L135-.LFB1249
 2117 010e 01       		.uleb128 0x1
 2118 010f B604     		.uleb128 .LEHB37-.LFB1249
 2119 0111 05       		.uleb128 .LEHE37-.LEHB37
 2120 0112 00       		.uleb128 0
 2121 0113 00       		.uleb128 0
 2122              	.LLSDACSE1249:
 2123 0114 01       		.byte	0x1
 2124 0115 00       		.byte	0
 2125 0116 0000     		.align 4
 2126 0118 00000000 		.long	0
 2127              	
 2128              	.LLSDATT1249:
 2129              		.text
 2130              		.cfi_endproc
 2131              		.section	.text.unlikely
 2132              		.cfi_startproc
 2133              		.cfi_personality 0x9b,DW.ref.__gxx_personality_v0
 2134              		.cfi_lsda 0x1b,.LLSDAC1249
 2136              	_ZNK12_GLOBAL__N_149TestNotifiesReporterOfCheckFailureWithCorrectInfo7RunImplEv.cold:
 2137              	.LFSB1249:
 2138              	.L120:
 2139              		.cfi_def_cfa_offset 2240
 2140              		.cfi_offset 3, -48
 2141              		.cfi_offset 6, -40
 2142              		.cfi_offset 12, -32
 2143              		.cfi_offset 13, -24
 2144              		.cfi_offset 14, -16
 2145 0090 E8000000 		call	__cxa_begin_catch@PLT
 2145      00
 2146              	.LEHB38:
 2147 0095 E8000000 		call	_ZN8UnitTest11CurrentTest7ResultsEv@PLT
 2147      00
 2148 009a 4C8B28   		movq	(%rax), %r13
 2149 009d E8000000 		call	_ZN8UnitTest11CurrentTest7DetailsEv@PLT
 2149      00
 2150 00a2 488B30   		movq	(%rax), %rsi
 2151 00a5 BA5F0000 		movl	$95, %edx
 2151      00
 2152 00aa 4889EF   		movq	%rbp, %rdi
 2153 00ad E8000000 		call	_ZN8UnitTest11TestDetailsC1ERKS0_i@PLT
 2153      00
 2154 00b2 488D1500 		leaq	.LC24(%rip), %rdx
 2154      000000
 2155 00b9 4889EE   		movq	%rbp, %rsi
 2156 00bc 4C89EF   		movq	%r13, %rdi
 2157 00bf E8000000 		call	_ZN8UnitTest11TestResults13OnTestFailureERKNS_11TestDetailsEPKc@PLT
 2157      00
 2158              	.LEHE38:
 2159              	.LEHB39:
 2160 00c4 E8000000 		call	__cxa_end_catch@PLT
 2160      00
 2161              	.LEHE39:
 2162 00c9 E9000000 		jmp	.L121
 2162      00
 2163              	.L117:
 2164 00ce E8000000 		call	__cxa_begin_catch@PLT
 2164      00
 2165              	.LEHB40:
 2166 00d3 E8000000 		call	_ZN8UnitTest11CurrentTest7ResultsEv@PLT
 2166      00
 2167 00d8 4C8B30   		movq	(%rax), %r14
 2168 00db E8000000 		call	_ZN8UnitTest11CurrentTest7DetailsEv@PLT
 2168      00
 2169 00e0 488B30   		movq	(%rax), %rsi
 2170 00e3 BA5E0000 		movl	$94, %edx
 2170      00
 2171 00e8 4889EF   		movq	%rbp, %rdi
 2172 00eb E8000000 		call	_ZN8UnitTest11TestDetailsC1ERKS0_i@PLT
 2172      00
 2173 00f0 488D1500 		leaq	.LC23(%rip), %rdx
 2173      000000
 2174 00f7 4889EE   		movq	%rbp, %rsi
 2175 00fa 4C89F7   		movq	%r14, %rdi
 2176 00fd E8000000 		call	_ZN8UnitTest11TestResults13OnTestFailureERKNS_11TestDetailsEPKc@PLT
 2176      00
 2177              	.LEHE40:
 2178              	.LEHB41:
 2179 0102 E8000000 		call	__cxa_end_catch@PLT
 2179      00
 2180              	.LEHE41:
 2181 0107 E9000000 		jmp	.L118
 2181      00
 2182              	.L114:
 2183 010c E8000000 		call	__cxa_begin_catch@PLT
 2183      00
 2184              	.LEHB42:
 2185 0111 E8000000 		call	_ZN8UnitTest11CurrentTest7ResultsEv@PLT
 2185      00
 2186 0116 4C8B30   		movq	(%rax), %r14
 2187 0119 E8000000 		call	_ZN8UnitTest11CurrentTest7DetailsEv@PLT
 2187      00
 2188 011e 488B30   		movq	(%rax), %rsi
 2189 0121 BA5D0000 		movl	$93, %edx
 2189      00
 2190 0126 4889EF   		movq	%rbp, %rdi
 2191 0129 E8000000 		call	_ZN8UnitTest11TestDetailsC1ERKS0_i@PLT
 2191      00
 2192 012e 488D1500 		leaq	.LC22(%rip), %rdx
 2192      000000
 2193 0135 4889EE   		movq	%rbp, %rsi
 2194 0138 4C89F7   		movq	%r14, %rdi
 2195 013b E8000000 		call	_ZN8UnitTest11TestResults13OnTestFailureERKNS_11TestDetailsEPKc@PLT
 2195      00
 2196              	.LEHE42:
 2197              	.LEHB43:
 2198 0140 E8000000 		call	__cxa_end_catch@PLT
 2198      00
 2199              	.LEHE43:
 2200 0145 E9000000 		jmp	.L115
 2200      00
 2201              	.L134:
 2202 014a F30F1EFA 		endbr64
 2203 014e 4889C5   		movq	%rax, %rbp
 2204 0151 E8000000 		call	__cxa_end_catch@PLT
 2204      00
 2205              	.L107:
 2206 0156 4C89E7   		movq	%r12, %rdi
 2207 0159 48895C24 		movq	%rbx, 80(%rsp)
 2207      50
 2208 015e E8000000 		call	_ZN8UnitTest12TestReporterD2Ev@PLT
 2208      00
 2209 0163 4889EF   		movq	%rbp, %rdi
 2210              	.LEHB44:
 2211 0166 E8000000 		call	_Unwind_Resume@PLT
 2211      00
 2212              	.LEHE44:
 2213              	.L132:
 2214 016b F30F1EFA 		endbr64
 2215 016f 4889C5   		movq	%rax, %rbp
 2216 0172 E8000000 		call	__cxa_end_catch@PLT
 2216      00
 2217 0177 EBDD     		jmp	.L107
 2218              	.L124:
 2219 0179 F30F1EFA 		endbr64
 2220              	.L138:
 2221 017d 4889C5   		movq	%rax, %rbp
 2222 0180 EBD4     		jmp	.L107
 2223              	.L136:
 2224 0182 F30F1EFA 		endbr64
 2225 0186 4889C5   		movq	%rax, %rbp
 2226 0189 E8000000 		call	__cxa_end_catch@PLT
 2226      00
 2227 018e EBC6     		jmp	.L107
 2228              	.L111:
 2229 0190 E8000000 		call	__cxa_begin_catch@PLT
 2229      00
 2230              	.LEHB45:
 2231 0195 E8000000 		call	_ZN8UnitTest11CurrentTest7ResultsEv@PLT
 2231      00
 2232 019a 4C8B30   		movq	(%rax), %r14
 2233 019d E8000000 		call	_ZN8UnitTest11CurrentTest7DetailsEv@PLT
 2233      00
 2234 01a2 488B30   		movq	(%rax), %rsi
 2235 01a5 BA5C0000 		movl	$92, %edx
 2235      00
 2236 01aa 4889EF   		movq	%rbp, %rdi
 2237 01ad E8000000 		call	_ZN8UnitTest11TestDetailsC1ERKS0_i@PLT
 2237      00
 2238 01b2 488D1500 		leaq	.LC21(%rip), %rdx
 2238      000000
 2239 01b9 4889EE   		movq	%rbp, %rsi
 2240 01bc 4C89F7   		movq	%r14, %rdi
 2241 01bf E8000000 		call	_ZN8UnitTest11TestResults13OnTestFailureERKNS_11TestDetailsEPKc@PLT
 2241      00
 2242              	.LEHE45:
 2243              	.LEHB46:
 2244 01c4 E8000000 		call	__cxa_end_catch@PLT
 2244      00
 2245              	.LEHE46:
 2246 01c9 E9000000 		jmp	.L112
 2246      00
 2247              	.L108:
 2248 01ce E8000000 		call	__cxa_begin_catch@PLT
 2248      00
 2249              	.LEHB47:
 2250 01d3 E8000000 		call	_ZN8UnitTest11CurrentTest7ResultsEv@PLT
 2250      00
 2251 01d8 4C8B30   		movq	(%rax), %r14
 2252 01db E8000000 		call	_ZN8UnitTest11CurrentTest7DetailsEv@PLT
 2252      00
 2253 01e0 488B30   		movq	(%rax), %rsi
 2254 01e3 BA5B0000 		movl	$91, %edx
 2254      00
 2255 01e8 4889EF   		movq	%rbp, %rdi
 2256 01eb E8000000 		call	_ZN8UnitTest11TestDetailsC1ERKS0_i@PLT
 2256      00
 2257 01f0 488D1500 		leaq	.LC20(%rip), %rdx
 2257      000000
 2258 01f7 4889EE   		movq	%rbp, %rsi
 2259 01fa 4C89F7   		movq	%r14, %rdi
 2260 01fd E8000000 		call	_ZN8UnitTest11TestResults13OnTestFailureERKNS_11TestDetailsEPKc@PLT
 2260      00
 2261              	.LEHE47:
 2262              	.LEHB48:
 2263 0202 E8000000 		call	__cxa_end_catch@PLT
 2263      00
 2264              	.LEHE48:
 2265 0207 E9000000 		jmp	.L109
 2265      00
 2266              	.L130:
 2267 020c F30F1EFA 		endbr64
 2268 0210 4889C5   		movq	%rax, %rbp
 2269 0213 E8000000 		call	__cxa_end_catch@PLT
 2269      00
 2270 0218 E939FFFF 		jmp	.L107
 2270      FF
 2271              	.L128:
 2272 021d F30F1EFA 		endbr64
 2273 0221 4889C5   		movq	%rax, %rbp
 2274 0224 E8000000 		call	__cxa_end_catch@PLT
 2274      00
 2275 0229 E928FFFF 		jmp	.L107
 2275      FF
 2276              	.L104:
 2277 022e E8000000 		call	__cxa_begin_catch@PLT
 2277      00
 2278              	.LEHB49:
 2279 0233 E8000000 		call	_ZN8UnitTest11CurrentTest7ResultsEv@PLT
 2279      00
 2280 0238 4C8B30   		movq	(%rax), %r14
 2281 023b E8000000 		call	_ZN8UnitTest11CurrentTest7DetailsEv@PLT
 2281      00
 2282 0240 488D6C24 		leaq	48(%rsp), %rbp
 2282      30
 2283 0245 488B30   		movq	(%rax), %rsi
 2284 0248 BA590000 		movl	$89, %edx
 2284      00
 2285 024d 4889EF   		movq	%rbp, %rdi
 2286 0250 E8000000 		call	_ZN8UnitTest11TestDetailsC1ERKS0_i@PLT
 2286      00
 2287 0255 488D1500 		leaq	.LC19(%rip), %rdx
 2287      000000
 2288 025c 4889EE   		movq	%rbp, %rsi
 2289 025f 4C89F7   		movq	%r14, %rdi
 2290 0262 E8000000 		call	_ZN8UnitTest11TestResults13OnTestFailureERKNS_11TestDetailsEPKc@PLT
 2290      00
 2291              	.LEHE49:
 2292              	.LEHB50:
 2293 0267 E8000000 		call	__cxa_end_catch@PLT
 2293      00
 2294              	.LEHE50:
 2295 026c E9000000 		jmp	.L105
 2295      00
 2296              	.L126:
 2297 0271 F30F1EFA 		endbr64
 2298 0275 4889C5   		movq	%rax, %rbp
 2299 0278 E8000000 		call	__cxa_end_catch@PLT
 2299      00
 2300 027d E9D4FEFF 		jmp	.L107
 2300      FF
 2301              		.cfi_endproc
 2302              	.LFE1249:
 2303              		.section	.gcc_except_table
 2304              		.align 4
 2305              	.LLSDAC1249:
 2306 011c FF       		.byte	0xff
 2307 011d 9B       		.byte	0x9b
 2308 011e 51       		.uleb128 .LLSDATTC1249-.LLSDATTDC1249
 2309              	.LLSDATTDC1249:
 2310 011f 01       		.byte	0x1
 2311 0120 49       		.uleb128 .LLSDACSEC1249-.LLSDACSBC1249
 2312              	.LLSDACSBC1249:
 2313 0121 05       		.uleb128 .LEHB38-.LCOLDB25
 2314 0122 2F       		.uleb128 .LEHE38-.LEHB38
 2315 0123 F201     		.uleb128 .L136-.LCOLDB25
 2316 0125 00       		.uleb128 0
 2317 0126 34       		.uleb128 .LEHB39-.LCOLDB25
 2318 0127 05       		.uleb128 .LEHE39-.LEHB39
 2319 0128 E901     		.uleb128 .L124-.LCOLDB25
 2320 012a 00       		.uleb128 0
 2321 012b 43       		.uleb128 .LEHB40-.LCOLDB25
 2322 012c 2F       		.uleb128 .LEHE40-.LEHB40
 2323 012d BA01     		.uleb128 .L134-.LCOLDB25
 2324 012f 00       		.uleb128 0
 2325 0130 72       		.uleb128 .LEHB41-.LCOLDB25
 2326 0131 05       		.uleb128 .LEHE41-.LEHB41
 2327 0132 E901     		.uleb128 .L124-.LCOLDB25
 2328 0134 00       		.uleb128 0
 2329 0135 8101     		.uleb128 .LEHB42-.LCOLDB25
 2330 0137 2F       		.uleb128 .LEHE42-.LEHB42
 2331 0138 DB01     		.uleb128 .L132-.LCOLDB25
 2332 013a 00       		.uleb128 0
 2333 013b B001     		.uleb128 .LEHB43-.LCOLDB25
 2334 013d 05       		.uleb128 .LEHE43-.LEHB43
 2335 013e E901     		.uleb128 .L124-.LCOLDB25
 2336 0140 00       		.uleb128 0
 2337 0141 D601     		.uleb128 .LEHB44-.LCOLDB25
 2338 0143 05       		.uleb128 .LEHE44-.LEHB44
 2339 0144 00       		.uleb128 0
 2340 0145 00       		.uleb128 0
 2341 0146 8502     		.uleb128 .LEHB45-.LCOLDB25
 2342 0148 2F       		.uleb128 .LEHE45-.LEHB45
 2343 0149 FC02     		.uleb128 .L130-.LCOLDB25
 2344 014b 00       		.uleb128 0
 2345 014c B402     		.uleb128 .LEHB46-.LCOLDB25
 2346 014e 05       		.uleb128 .LEHE46-.LEHB46
 2347 014f E901     		.uleb128 .L124-.LCOLDB25
 2348 0151 00       		.uleb128 0
 2349 0152 C302     		.uleb128 .LEHB47-.LCOLDB25
 2350 0154 2F       		.uleb128 .LEHE47-.LEHB47
 2351 0155 8D03     		.uleb128 .L128-.LCOLDB25
 2352 0157 00       		.uleb128 0
 2353 0158 F202     		.uleb128 .LEHB48-.LCOLDB25
 2354 015a 05       		.uleb128 .LEHE48-.LEHB48
 2355 015b E901     		.uleb128 .L124-.LCOLDB25
 2356 015d 00       		.uleb128 0
 2357 015e A303     		.uleb128 .LEHB49-.LCOLDB25
 2358 0160 34       		.uleb128 .LEHE49-.LEHB49
 2359 0161 E103     		.uleb128 .L126-.LCOLDB25
 2360 0163 00       		.uleb128 0
 2361 0164 D703     		.uleb128 .LEHB50-.LCOLDB25
 2362 0166 05       		.uleb128 .LEHE50-.LEHB50
 2363 0167 E901     		.uleb128 .L124-.LCOLDB25
 2364 0169 00       		.uleb128 0
 2365              	.LLSDACSEC1249:
 2366 016a 01       		.byte	0x1
 2367 016b 00       		.byte	0
 2368              		.align 4
 2369 016c 00000000 		.long	0
 2370              	
 2371              	.LLSDATTC1249:
 2372              		.section	.text.unlikely
 2373              		.text
 2375              		.section	.text.unlikely
 2377              	.LCOLDE25:
 2378              		.text
 2379              	.LHOTE25:
 2380              		.section	.text.unlikely
 2381              		.align 2
 2382              	.LCOLDB26:
 2383              		.text
 2384              	.LHOTB26:
 2385              		.align 2
 2386 0614 66662E0F 		.p2align 4
 2386      1F840000 
 2386      00000090 
 2388              	_ZNK12_GLOBAL__N_148TestNotifiesReporterOfTestFailureWithCorrectInfo7RunImplEv:
 2389              	.LFB1245:
 2390              		.cfi_startproc
 2391              		.cfi_personality 0x9b,DW.ref.__gxx_personality_v0
 2392              		.cfi_lsda 0x1b,.LLSDA1245
 2393 0620 F30F1EFA 		endbr64
 2394 0624 4156     		pushq	%r14
 2395              		.cfi_def_cfa_offset 16
 2396              		.cfi_offset 14, -16
 2397 0626 4155     		pushq	%r13
 2398              		.cfi_def_cfa_offset 24
 2399              		.cfi_offset 13, -24
 2400 0628 4154     		pushq	%r12
 2401              		.cfi_def_cfa_offset 32
 2402              		.cfi_offset 12, -32
 2403 062a 55       		pushq	%rbp
 2404              		.cfi_def_cfa_offset 40
 2405              		.cfi_offset 6, -40
 2406 062b 53       		pushq	%rbx
 2407              		.cfi_def_cfa_offset 48
 2408              		.cfi_offset 3, -48
 2409 062c 488D1D00 		leaq	16+_ZTV17RecordingReporter(%rip), %rbx
 2409      000000
 2410 0633 4881EC90 		subq	$2192, %rsp
 2410      080000
 2411              		.cfi_def_cfa_offset 2240
 2412 063a 64488B04 		movq	%fs:40, %rax
 2412      25280000 
 2412      00
 2413 0643 48898424 		movq	%rax, 2184(%rsp)
 2413      88080000 
 2414 064b 31C0     		xorl	%eax, %eax
 2415 064d 4C8D6424 		leaq	80(%rsp), %r12
 2415      50
 2416 0652 488D6C24 		leaq	16(%rsp), %rbp
 2416      10
 2417 0657 48895C24 		movq	%rbx, 80(%rsp)
 2417      50
 2418 065c 4C89E6   		movq	%r12, %rsi
 2419 065f 4889EF   		movq	%rbp, %rdi
 2420 0662 C7442458 		movl	$0, 88(%rsp)
 2420      00000000 
 2421 066a C784245C 		movl	$0, 604(%rsp)
 2421      02000000 
 2421      000000
 2422 0675 C7842460 		movl	$0, 864(%rsp)
 2422      03000000 
 2422      000000
 2423 0680 C7842464 		movl	$0, 1636(%rsp)
 2423      06000000 
 2423      000000
 2424 068b 48C78424 		movq	$0, 2152(%rsp)
 2424      68080000 
 2424      00000000 
 2425 0697 48C78424 		movq	$0, 2160(%rsp)
 2425      70080000 
 2425      00000000 
 2426 06a3 C7842478 		movl	$0x00000000, 2168(%rsp)
 2426      08000000 
 2426      000000
 2427 06ae C644245C 		movb	$0, 92(%rsp)
 2427      00
 2428 06b3 C684245C 		movb	$0, 348(%rsp)
 2428      01000000 
 2429 06bb C6842460 		movb	$0, 608(%rsp)
 2429      02000000 
 2430 06c3 C6842464 		movb	$0, 868(%rsp)
 2430      03000000 
 2431 06cb C6842464 		movb	$0, 1124(%rsp)
 2431      04000000 
 2432 06d3 C6842464 		movb	$0, 1380(%rsp)
 2432      05000000 
 2433 06db C6842468 		movb	$0, 1640(%rsp)
 2433      06000000 
 2434 06e3 C6842468 		movb	$0, 1896(%rsp)
 2434      07000000 
 2435              	.LEHB51:
 2436 06eb E8000000 		call	_ZN8UnitTest11TestResultsC1EPNS_12TestReporterE@PLT
 2436      00
 2437 06f0 4C8D2D00 		leaq	.LC15(%rip), %r13
 2437      000000
 2438 06f7 488D3500 		leaq	_ZN12_GLOBAL__N_1L7detailsE(%rip), %rsi
 2438      000000
 2439 06fe 4889EF   		movq	%rbp, %rdi
 2440 0701 4C89EA   		movq	%r13, %rdx
 2441 0704 E8000000 		call	_ZN8UnitTest11TestResults13OnTestFailureERKNS_11TestDetailsEPKc@PLT
 2441      00
 2442              	.LEHE51:
 2443              	.LEHB52:
 2444 0709 E8000000 		call	_ZN8UnitTest11CurrentTest7DetailsEv@PLT
 2444      00
 2445 070e 488D6C24 		leaq	48(%rsp), %rbp
 2445      30
 2446 0713 488B30   		movq	(%rax), %rsi
 2447 0716 BA4B0000 		movl	$75, %edx
 2447      00
 2448 071b 4889EF   		movq	%rbp, %rdi
 2449 071e E8000000 		call	_ZN8UnitTest11TestDetailsC1ERKS0_i@PLT
 2449      00
 2450 0723 C744240C 		movl	$1, 12(%rsp)
 2450      01000000 
 2451 072b E8000000 		call	_ZN8UnitTest11CurrentTest7ResultsEv@PLT
 2451      00
 2452 0730 488B38   		movq	(%rax), %rdi
 2453 0733 488D9424 		leaq	604(%rsp), %rdx
 2453      5C020000 
 2454 073b 488D7424 		leaq	12(%rsp), %rsi
 2454      0C
 2455 0740 4889E9   		movq	%rbp, %rcx
 2456 0743 E8000000 		call	_ZN8UnitTest10CheckEqualIiiEEvRNS_11TestResultsERKT_RKT0_RKNS_11TestDetailsE
 2456      00
 2457              	.LEHE52:
 2458              	.L144:
 2459              	.LEHB53:
 2460 0748 E8000000 		call	_ZN8UnitTest11CurrentTest7DetailsEv@PLT
 2460      00
 2461 074d 488B30   		movq	(%rax), %rsi
 2462 0750 BA4C0000 		movl	$76, %edx
 2462      00
 2463 0755 4889EF   		movq	%rbp, %rdi
 2464 0758 E8000000 		call	_ZN8UnitTest11TestDetailsC1ERKS0_i@PLT
 2464      00
 2465 075d E8000000 		call	_ZN8UnitTest11CurrentTest7ResultsEv@PLT
 2465      00
 2466 0762 488B38   		movq	(%rax), %rdi
 2467 0765 488D9424 		leaq	608(%rsp), %rdx
 2467      60020000 
 2468 076d 4889E9   		movq	%rbp, %rcx
 2469 0770 488D3500 		leaq	.LC16(%rip), %rsi
 2469      000000
 2470 0777 E8000000 		call	_ZN8UnitTest10CheckEqualERNS_11TestResultsEPKcPcRKNS_11TestDetailsE@PLT
 2470      00
 2471              	.LEHE53:
 2472              	.L148:
 2473              	.LEHB54:
 2474 077c E8000000 		call	_ZN8UnitTest11CurrentTest7DetailsEv@PLT
 2474      00
 2475 0781 488B30   		movq	(%rax), %rsi
 2476 0784 BA4D0000 		movl	$77, %edx
 2476      00
 2477 0789 4889EF   		movq	%rbp, %rdi
 2478 078c E8000000 		call	_ZN8UnitTest11TestDetailsC1ERKS0_i@PLT
 2478      00
 2479 0791 C744240C 		movl	$123, 12(%rsp)
 2479      7B000000 
 2480 0799 E8000000 		call	_ZN8UnitTest11CurrentTest7ResultsEv@PLT
 2480      00
 2481 079e 488B38   		movq	(%rax), %rdi
 2482 07a1 488D9424 		leaq	864(%rsp), %rdx
 2482      60030000 
 2483 07a9 488D7424 		leaq	12(%rsp), %rsi
 2483      0C
 2484 07ae 4889E9   		movq	%rbp, %rcx
 2485 07b1 E8000000 		call	_ZN8UnitTest10CheckEqualIiiEEvRNS_11TestResultsERKT_RKT0_RKNS_11TestDetailsE
 2485      00
 2486              	.LEHE54:
 2487              	.L151:
 2488              	.LEHB55:
 2489 07b6 E8000000 		call	_ZN8UnitTest11CurrentTest7DetailsEv@PLT
 2489      00
 2490 07bb 488B30   		movq	(%rax), %rsi
 2491 07be BA4E0000 		movl	$78, %edx
 2491      00
 2492 07c3 4889EF   		movq	%rbp, %rdi
 2493 07c6 E8000000 		call	_ZN8UnitTest11TestDetailsC1ERKS0_i@PLT
 2493      00
 2494 07cb E8000000 		call	_ZN8UnitTest11CurrentTest7ResultsEv@PLT
 2494      00
 2495 07d0 488B38   		movq	(%rax), %rdi
 2496 07d3 488D9424 		leaq	868(%rsp), %rdx
 2496      64030000 
 2497 07db 4889E9   		movq	%rbp, %rcx
 2498 07de 488D3500 		leaq	.LC18(%rip), %rsi
 2498      000000
 2499 07e5 E8000000 		call	_ZN8UnitTest10CheckEqualERNS_11TestResultsEPKcPcRKNS_11TestDetailsE@PLT
 2499      00
 2500              	.LEHE55:
 2501              	.L154:
 2502              	.LEHB56:
 2503 07ea E8000000 		call	_ZN8UnitTest11CurrentTest7DetailsEv@PLT
 2503      00
 2504 07ef 488B30   		movq	(%rax), %rsi
 2505 07f2 BA4F0000 		movl	$79, %edx
 2505      00
 2506 07f7 4889EF   		movq	%rbp, %rdi
 2507 07fa E8000000 		call	_ZN8UnitTest11TestDetailsC1ERKS0_i@PLT
 2507      00
 2508 07ff E8000000 		call	_ZN8UnitTest11CurrentTest7ResultsEv@PLT
 2508      00
 2509 0804 488B38   		movq	(%rax), %rdi
 2510 0807 488D9424 		leaq	1124(%rsp), %rdx
 2510      64040000 
 2511 080f 4889E9   		movq	%rbp, %rcx
 2512 0812 488D3500 		leaq	.LC17(%rip), %rsi
 2512      000000
 2513 0819 E8000000 		call	_ZN8UnitTest10CheckEqualERNS_11TestResultsEPKcPcRKNS_11TestDetailsE@PLT
 2513      00
 2514              	.LEHE56:
 2515              	.L157:
 2516              	.LEHB57:
 2517 081e E8000000 		call	_ZN8UnitTest11CurrentTest7DetailsEv@PLT
 2517      00
 2518 0823 488B30   		movq	(%rax), %rsi
 2519 0826 BA500000 		movl	$80, %edx
 2519      00
 2520 082b 4889EF   		movq	%rbp, %rdi
 2521 082e E8000000 		call	_ZN8UnitTest11TestDetailsC1ERKS0_i@PLT
 2521      00
 2522 0833 E8000000 		call	_ZN8UnitTest11CurrentTest7ResultsEv@PLT
 2522      00
 2523 0838 488B38   		movq	(%rax), %rdi
 2524 083b 488D9424 		leaq	1380(%rsp), %rdx
 2524      64050000 
 2525 0843 4889E9   		movq	%rbp, %rcx
 2526 0846 4C89EE   		movq	%r13, %rsi
 2527 0849 E8000000 		call	_ZN8UnitTest10CheckEqualERNS_11TestResultsEPKcPcRKNS_11TestDetailsE@PLT
 2527      00
 2528              	.LEHE57:
 2529              	.L160:
 2530 084e 4C89E7   		movq	%r12, %rdi
 2531 0851 48895C24 		movq	%rbx, 80(%rsp)
 2531      50
 2532              	.LEHB58:
 2533 0856 E8000000 		call	_ZN8UnitTest12TestReporterD2Ev@PLT
 2533      00
 2534              	.LEHE58:
 2535 085b 488B8424 		movq	2184(%rsp), %rax
 2535      88080000 
 2536 0863 64482B04 		subq	%fs:40, %rax
 2536      25280000 
 2536      00
 2537 086c 7510     		jne	.L180
 2538 086e 4881C490 		addq	$2192, %rsp
 2538      080000
 2539              		.cfi_remember_state
 2540              		.cfi_def_cfa_offset 48
 2541 0875 5B       		popq	%rbx
 2542              		.cfi_def_cfa_offset 40
 2543 0876 5D       		popq	%rbp
 2544              		.cfi_def_cfa_offset 32
 2545 0877 415C     		popq	%r12
 2546              		.cfi_def_cfa_offset 24
 2547 0879 415D     		popq	%r13
 2548              		.cfi_def_cfa_offset 16
 2549 087b 415E     		popq	%r14
 2550              		.cfi_def_cfa_offset 8
 2551 087d C3       		ret
 2552              	.L180:
 2553              		.cfi_restore_state
 2554 087e E8000000 		call	__stack_chk_fail@PLT
 2554      00
 2555              	.L174:
 2556 0883 F30F1EFA 		endbr64
 2557 0887 4889C7   		movq	%rax, %rdi
 2558 088a E9000000 		jmp	.L159
 2558      00
 2559              	.L172:
 2560 088f F30F1EFA 		endbr64
 2561 0893 4889C7   		movq	%rax, %rdi
 2562 0896 E9000000 		jmp	.L156
 2562      00
 2563              	.L170:
 2564 089b F30F1EFA 		endbr64
 2565 089f 4889C7   		movq	%rax, %rdi
 2566 08a2 E9000000 		jmp	.L153
 2566      00
 2567              	.L168:
 2568 08a7 F30F1EFA 		endbr64
 2569 08ab 4889C7   		movq	%rax, %rdi
 2570 08ae E9000000 		jmp	.L150
 2570      00
 2571              	.L166:
 2572 08b3 F30F1EFA 		endbr64
 2573 08b7 4889C7   		movq	%rax, %rdi
 2574 08ba E9000000 		jmp	.L147
 2574      00
 2575              	.L164:
 2576 08bf F30F1EFA 		endbr64
 2577 08c3 4889C7   		movq	%rax, %rdi
 2578 08c6 E9000000 		jmp	.L143
 2578      00
 2579              	.L176:
 2580 08cb F30F1EFA 		endbr64
 2581 08cf E9000000 		jmp	.L177
 2581      00
 2582              		.section	.gcc_except_table
 2583              		.align 4
 2584              	.LLSDA1245:
 2585 0170 FF       		.byte	0xff
 2586 0171 9B       		.byte	0x9b
 2587 0172 39       		.uleb128 .LLSDATT1245-.LLSDATTD1245
 2588              	.LLSDATTD1245:
 2589 0173 01       		.byte	0x1
 2590 0174 2F       		.uleb128 .LLSDACSE1245-.LLSDACSB1245
 2591              	.LLSDACSB1245:
 2592 0175 CB01     		.uleb128 .LEHB51-.LFB1245
 2593 0177 1E       		.uleb128 .LEHE51-.LEHB51
 2594 0178 AB05     		.uleb128 .L176-.LFB1245
 2595 017a 00       		.uleb128 0
 2596 017b E901     		.uleb128 .LEHB52-.LFB1245
 2597 017d 3F       		.uleb128 .LEHE52-.LEHB52
 2598 017e 9F05     		.uleb128 .L164-.LFB1245
 2599 0180 01       		.uleb128 0x1
 2600 0181 A802     		.uleb128 .LEHB53-.LFB1245
 2601 0183 34       		.uleb128 .LEHE53-.LEHB53
 2602 0184 9305     		.uleb128 .L166-.LFB1245
 2603 0186 01       		.uleb128 0x1
 2604 0187 DC02     		.uleb128 .LEHB54-.LFB1245
 2605 0189 3A       		.uleb128 .LEHE54-.LEHB54
 2606 018a 8705     		.uleb128 .L168-.LFB1245
 2607 018c 01       		.uleb128 0x1
 2608 018d 9603     		.uleb128 .LEHB55-.LFB1245
 2609 018f 34       		.uleb128 .LEHE55-.LEHB55
 2610 0190 FB04     		.uleb128 .L170-.LFB1245
 2611 0192 01       		.uleb128 0x1
 2612 0193 CA03     		.uleb128 .LEHB56-.LFB1245
 2613 0195 34       		.uleb128 .LEHE56-.LEHB56
 2614 0196 EF04     		.uleb128 .L172-.LFB1245
 2615 0198 01       		.uleb128 0x1
 2616 0199 FE03     		.uleb128 .LEHB57-.LFB1245
 2617 019b 30       		.uleb128 .LEHE57-.LEHB57
 2618 019c E304     		.uleb128 .L174-.LFB1245
 2619 019e 01       		.uleb128 0x1
 2620 019f B604     		.uleb128 .LEHB58-.LFB1245
 2621 01a1 05       		.uleb128 .LEHE58-.LEHB58
 2622 01a2 00       		.uleb128 0
 2623 01a3 00       		.uleb128 0
 2624              	.LLSDACSE1245:
 2625 01a4 01       		.byte	0x1
 2626 01a5 00       		.byte	0
 2627 01a6 0000     		.align 4
 2628 01a8 00000000 		.long	0
 2629              	
 2630              	.LLSDATT1245:
 2631              		.text
 2632              		.cfi_endproc
 2633              		.section	.text.unlikely
 2634              		.cfi_startproc
 2635              		.cfi_personality 0x9b,DW.ref.__gxx_personality_v0
 2636              		.cfi_lsda 0x1b,.LLSDAC1245
 2638              	_ZNK12_GLOBAL__N_148TestNotifiesReporterOfTestFailureWithCorrectInfo7RunImplEv.cold:
 2639              	.LFSB1245:
 2640              	.L159:
 2641              		.cfi_def_cfa_offset 2240
 2642              		.cfi_offset 3, -48
 2643              		.cfi_offset 6, -40
 2644              		.cfi_offset 12, -32
 2645              		.cfi_offset 13, -24
 2646              		.cfi_offset 14, -16
 2647 0282 E8000000 		call	__cxa_begin_catch@PLT
 2647      00
 2648              	.LEHB59:
 2649 0287 E8000000 		call	_ZN8UnitTest11CurrentTest7ResultsEv@PLT
 2649      00
 2650 028c 4C8B28   		movq	(%rax), %r13
 2651 028f E8000000 		call	_ZN8UnitTest11CurrentTest7DetailsEv@PLT
 2651      00
 2652 0294 488B30   		movq	(%rax), %rsi
 2653 0297 BA500000 		movl	$80, %edx
 2653      00
 2654 029c 4889EF   		movq	%rbp, %rdi
 2655 029f E8000000 		call	_ZN8UnitTest11TestDetailsC1ERKS0_i@PLT
 2655      00
 2656 02a4 488D1500 		leaq	.LC24(%rip), %rdx
 2656      000000
 2657 02ab 4889EE   		movq	%rbp, %rsi
 2658 02ae 4C89EF   		movq	%r13, %rdi
 2659 02b1 E8000000 		call	_ZN8UnitTest11TestResults13OnTestFailureERKNS_11TestDetailsEPKc@PLT
 2659      00
 2660              	.LEHE59:
 2661              	.LEHB60:
 2662 02b6 E8000000 		call	__cxa_end_catch@PLT
 2662      00
 2663              	.LEHE60:
 2664 02bb E9000000 		jmp	.L160
 2664      00
 2665              	.L156:
 2666 02c0 E8000000 		call	__cxa_begin_catch@PLT
 2666      00
 2667              	.LEHB61:
 2668 02c5 E8000000 		call	_ZN8UnitTest11CurrentTest7ResultsEv@PLT
 2668      00
 2669 02ca 4C8B30   		movq	(%rax), %r14
 2670 02cd E8000000 		call	_ZN8UnitTest11CurrentTest7DetailsEv@PLT
 2670      00
 2671 02d2 488B30   		movq	(%rax), %rsi
 2672 02d5 BA4F0000 		movl	$79, %edx
 2672      00
 2673 02da 4889EF   		movq	%rbp, %rdi
 2674 02dd E8000000 		call	_ZN8UnitTest11TestDetailsC1ERKS0_i@PLT
 2674      00
 2675 02e2 488D1500 		leaq	.LC22(%rip), %rdx
 2675      000000
 2676 02e9 4889EE   		movq	%rbp, %rsi
 2677 02ec 4C89F7   		movq	%r14, %rdi
 2678 02ef E8000000 		call	_ZN8UnitTest11TestResults13OnTestFailureERKNS_11TestDetailsEPKc@PLT
 2678      00
 2679              	.LEHE61:
 2680              	.LEHB62:
 2681 02f4 E8000000 		call	__cxa_end_catch@PLT
 2681      00
 2682              	.LEHE62:
 2683 02f9 E9000000 		jmp	.L157
 2683      00
 2684              	.L153:
 2685 02fe E8000000 		call	__cxa_begin_catch@PLT
 2685      00
 2686              	.LEHB63:
 2687 0303 E8000000 		call	_ZN8UnitTest11CurrentTest7ResultsEv@PLT
 2687      00
 2688 0308 4C8B30   		movq	(%rax), %r14
 2689 030b E8000000 		call	_ZN8UnitTest11CurrentTest7DetailsEv@PLT
 2689      00
 2690 0310 488B30   		movq	(%rax), %rsi
 2691 0313 BA4E0000 		movl	$78, %edx
 2691      00
 2692 0318 4889EF   		movq	%rbp, %rdi
 2693 031b E8000000 		call	_ZN8UnitTest11TestDetailsC1ERKS0_i@PLT
 2693      00
 2694 0320 488D1500 		leaq	.LC23(%rip), %rdx
 2694      000000
 2695 0327 4889EE   		movq	%rbp, %rsi
 2696 032a 4C89F7   		movq	%r14, %rdi
 2697 032d E8000000 		call	_ZN8UnitTest11TestResults13OnTestFailureERKNS_11TestDetailsEPKc@PLT
 2697      00
 2698              	.LEHE63:
 2699              	.LEHB64:
 2700 0332 E8000000 		call	__cxa_end_catch@PLT
 2700      00
 2701              	.LEHE64:
 2702 0337 E9000000 		jmp	.L154
 2702      00
 2703              	.L173:
 2704 033c F30F1EFA 		endbr64
 2705 0340 4889C5   		movq	%rax, %rbp
 2706 0343 E8000000 		call	__cxa_end_catch@PLT
 2706      00
 2707              	.L146:
 2708 0348 4C89E7   		movq	%r12, %rdi
 2709 034b 48895C24 		movq	%rbx, 80(%rsp)
 2709      50
 2710 0350 E8000000 		call	_ZN8UnitTest12TestReporterD2Ev@PLT
 2710      00
 2711 0355 4889EF   		movq	%rbp, %rdi
 2712              	.LEHB65:
 2713 0358 E8000000 		call	_Unwind_Resume@PLT
 2713      00
 2714              	.LEHE65:
 2715              	.L171:
 2716 035d F30F1EFA 		endbr64
 2717 0361 4889C5   		movq	%rax, %rbp
 2718 0364 E8000000 		call	__cxa_end_catch@PLT
 2718      00
 2719 0369 EBDD     		jmp	.L146
 2720              	.L163:
 2721 036b F30F1EFA 		endbr64
 2722              	.L177:
 2723 036f 4889C5   		movq	%rax, %rbp
 2724 0372 EBD4     		jmp	.L146
 2725              	.L175:
 2726 0374 F30F1EFA 		endbr64
 2727 0378 4889C5   		movq	%rax, %rbp
 2728 037b E8000000 		call	__cxa_end_catch@PLT
 2728      00
 2729 0380 EBC6     		jmp	.L146
 2730              	.L150:
 2731 0382 E8000000 		call	__cxa_begin_catch@PLT
 2731      00
 2732              	.LEHB66:
 2733 0387 E8000000 		call	_ZN8UnitTest11CurrentTest7ResultsEv@PLT
 2733      00
 2734 038c 4C8B30   		movq	(%rax), %r14
 2735 038f E8000000 		call	_ZN8UnitTest11CurrentTest7DetailsEv@PLT
 2735      00
 2736 0394 488B30   		movq	(%rax), %rsi
 2737 0397 BA4D0000 		movl	$77, %edx
 2737      00
 2738 039c 4889EF   		movq	%rbp, %rdi
 2739 039f E8000000 		call	_ZN8UnitTest11TestDetailsC1ERKS0_i@PLT
 2739      00
 2740 03a4 488D1500 		leaq	.LC21(%rip), %rdx
 2740      000000
 2741 03ab 4889EE   		movq	%rbp, %rsi
 2742 03ae 4C89F7   		movq	%r14, %rdi
 2743 03b1 E8000000 		call	_ZN8UnitTest11TestResults13OnTestFailureERKNS_11TestDetailsEPKc@PLT
 2743      00
 2744              	.LEHE66:
 2745              	.LEHB67:
 2746 03b6 E8000000 		call	__cxa_end_catch@PLT
 2746      00
 2747              	.LEHE67:
 2748 03bb E9000000 		jmp	.L151
 2748      00
 2749              	.L147:
 2750 03c0 E8000000 		call	__cxa_begin_catch@PLT
 2750      00
 2751              	.LEHB68:
 2752 03c5 E8000000 		call	_ZN8UnitTest11CurrentTest7ResultsEv@PLT
 2752      00
 2753 03ca 4C8B30   		movq	(%rax), %r14
 2754 03cd E8000000 		call	_ZN8UnitTest11CurrentTest7DetailsEv@PLT
 2754      00
 2755 03d2 488B30   		movq	(%rax), %rsi
 2756 03d5 BA4C0000 		movl	$76, %edx
 2756      00
 2757 03da 4889EF   		movq	%rbp, %rdi
 2758 03dd E8000000 		call	_ZN8UnitTest11TestDetailsC1ERKS0_i@PLT
 2758      00
 2759 03e2 488D1500 		leaq	.LC20(%rip), %rdx
 2759      000000
 2760 03e9 4889EE   		movq	%rbp, %rsi
 2761 03ec 4C89F7   		movq	%r14, %rdi
 2762 03ef E8000000 		call	_ZN8UnitTest11TestResults13OnTestFailureERKNS_11TestDetailsEPKc@PLT
 2762      00
 2763              	.LEHE68:
 2764              	.LEHB69:
 2765 03f4 E8000000 		call	__cxa_end_catch@PLT
 2765      00
 2766              	.LEHE69:
 2767 03f9 E9000000 		jmp	.L148
 2767      00
 2768              	.L169:
 2769 03fe F30F1EFA 		endbr64
 2770 0402 4889C5   		movq	%rax, %rbp
 2771 0405 E8000000 		call	__cxa_end_catch@PLT
 2771      00
 2772 040a E939FFFF 		jmp	.L146
 2772      FF
 2773              	.L167:
 2774 040f F30F1EFA 		endbr64
 2775 0413 4889C5   		movq	%rax, %rbp
 2776 0416 E8000000 		call	__cxa_end_catch@PLT
 2776      00
 2777 041b E928FFFF 		jmp	.L146
 2777      FF
 2778              	.L143:
 2779 0420 E8000000 		call	__cxa_begin_catch@PLT
 2779      00
 2780              	.LEHB70:
 2781 0425 E8000000 		call	_ZN8UnitTest11CurrentTest7ResultsEv@PLT
 2781      00
 2782 042a 4C8B30   		movq	(%rax), %r14
 2783 042d E8000000 		call	_ZN8UnitTest11CurrentTest7DetailsEv@PLT
 2783      00
 2784 0432 488D6C24 		leaq	48(%rsp), %rbp
 2784      30
 2785 0437 488B30   		movq	(%rax), %rsi
 2786 043a BA4B0000 		movl	$75, %edx
 2786      00
 2787 043f 4889EF   		movq	%rbp, %rdi
 2788 0442 E8000000 		call	_ZN8UnitTest11TestDetailsC1ERKS0_i@PLT
 2788      00
 2789 0447 488D1500 		leaq	.LC19(%rip), %rdx
 2789      000000
 2790 044e 4889EE   		movq	%rbp, %rsi
 2791 0451 4C89F7   		movq	%r14, %rdi
 2792 0454 E8000000 		call	_ZN8UnitTest11TestResults13OnTestFailureERKNS_11TestDetailsEPKc@PLT
 2792      00
 2793              	.LEHE70:
 2794              	.LEHB71:
 2795 0459 E8000000 		call	__cxa_end_catch@PLT
 2795      00
 2796              	.LEHE71:
 2797 045e E9000000 		jmp	.L144
 2797      00
 2798              	.L165:
 2799 0463 F30F1EFA 		endbr64
 2800 0467 4889C5   		movq	%rax, %rbp
 2801 046a E8000000 		call	__cxa_end_catch@PLT
 2801      00
 2802 046f E9D4FEFF 		jmp	.L146
 2802      FF
 2803              		.cfi_endproc
 2804              	.LFE1245:
 2805              		.section	.gcc_except_table
 2806              		.align 4
 2807              	.LLSDAC1245:
 2808 01ac FF       		.byte	0xff
 2809 01ad 9B       		.byte	0x9b
 2810 01ae 51       		.uleb128 .LLSDATTC1245-.LLSDATTDC1245
 2811              	.LLSDATTDC1245:
 2812 01af 01       		.byte	0x1
 2813 01b0 49       		.uleb128 .LLSDACSEC1245-.LLSDACSBC1245
 2814              	.LLSDACSBC1245:
 2815 01b1 05       		.uleb128 .LEHB59-.LCOLDB26
 2816 01b2 2F       		.uleb128 .LEHE59-.LEHB59
 2817 01b3 F201     		.uleb128 .L175-.LCOLDB26
 2818 01b5 00       		.uleb128 0
 2819 01b6 34       		.uleb128 .LEHB60-.LCOLDB26
 2820 01b7 05       		.uleb128 .LEHE60-.LEHB60
 2821 01b8 E901     		.uleb128 .L163-.LCOLDB26
 2822 01ba 00       		.uleb128 0
 2823 01bb 43       		.uleb128 .LEHB61-.LCOLDB26
 2824 01bc 2F       		.uleb128 .LEHE61-.LEHB61
 2825 01bd BA01     		.uleb128 .L173-.LCOLDB26
 2826 01bf 00       		.uleb128 0
 2827 01c0 72       		.uleb128 .LEHB62-.LCOLDB26
 2828 01c1 05       		.uleb128 .LEHE62-.LEHB62
 2829 01c2 E901     		.uleb128 .L163-.LCOLDB26
 2830 01c4 00       		.uleb128 0
 2831 01c5 8101     		.uleb128 .LEHB63-.LCOLDB26
 2832 01c7 2F       		.uleb128 .LEHE63-.LEHB63
 2833 01c8 DB01     		.uleb128 .L171-.LCOLDB26
 2834 01ca 00       		.uleb128 0
 2835 01cb B001     		.uleb128 .LEHB64-.LCOLDB26
 2836 01cd 05       		.uleb128 .LEHE64-.LEHB64
 2837 01ce E901     		.uleb128 .L163-.LCOLDB26
 2838 01d0 00       		.uleb128 0
 2839 01d1 D601     		.uleb128 .LEHB65-.LCOLDB26
 2840 01d3 05       		.uleb128 .LEHE65-.LEHB65
 2841 01d4 00       		.uleb128 0
 2842 01d5 00       		.uleb128 0
 2843 01d6 8502     		.uleb128 .LEHB66-.LCOLDB26
 2844 01d8 2F       		.uleb128 .LEHE66-.LEHB66
 2845 01d9 FC02     		.uleb128 .L169-.LCOLDB26
 2846 01db 00       		.uleb128 0
 2847 01dc B402     		.uleb128 .LEHB67-.LCOLDB26
 2848 01de 05       		.uleb128 .LEHE67-.LEHB67
 2849 01df E901     		.uleb128 .L163-.LCOLDB26
 2850 01e1 00       		.uleb128 0
 2851 01e2 C302     		.uleb128 .LEHB68-.LCOLDB26
 2852 01e4 2F       		.uleb128 .LEHE68-.LEHB68
 2853 01e5 8D03     		.uleb128 .L167-.LCOLDB26
 2854 01e7 00       		.uleb128 0
 2855 01e8 F202     		.uleb128 .LEHB69-.LCOLDB26
 2856 01ea 05       		.uleb128 .LEHE69-.LEHB69
 2857 01eb E901     		.uleb128 .L163-.LCOLDB26
 2858 01ed 00       		.uleb128 0
 2859 01ee A303     		.uleb128 .LEHB70-.LCOLDB26
 2860 01f0 34       		.uleb128 .LEHE70-.LEHB70
 2861 01f1 E103     		.uleb128 .L165-.LCOLDB26
 2862 01f3 00       		.uleb128 0
 2863 01f4 D703     		.uleb128 .LEHB71-.LCOLDB26
 2864 01f6 05       		.uleb128 .LEHE71-.LEHB71
 2865 01f7 E901     		.uleb128 .L163-.LCOLDB26
 2866 01f9 00       		.uleb128 0
 2867              	.LLSDACSEC1245:
 2868 01fa 01       		.byte	0x1
 2869 01fb 00       		.byte	0
 2870              		.align 4
 2871 01fc 00000000 		.long	0
 2872              	
 2873              	.LLSDATTC1245:
 2874              		.section	.text.unlikely
 2875              		.text
 2877              		.section	.text.unlikely
 2879              	.LCOLDE26:
 2880              		.text
 2881              	.LHOTE26:
 2882              		.section	.rodata.str1.8
 2883              		.align 8
 2884              	.LC27:
 2885 01b8 556E6861 		.string	"Unhandled exception in CHECK_EQUAL(1, reporter.testRunCount)"
 2885      6E646C65 
 2885      64206578 
 2885      63657074 
 2885      696F6E20 
 2886 01f5 000000   		.align 8
 2887              	.LC28:
 2888 01f8 556E6861 		.string	"Unhandled exception in CHECK_EQUAL(\"suitename\", reporter.lastStartedSuite)"
 2888      6E646C65 
 2888      64206578 
 2888      63657074 
 2888      696F6E20 
 2889 0243 00000000 		.align 8
 2889      00
 2890              	.LC29:
 2891 0248 556E6861 		.string	"Unhandled exception in CHECK_EQUAL(\"testname\", reporter.lastStartedTest)"
 2891      6E646C65 
 2891      64206578 
 2891      63657074 
 2891      696F6E20 
 2892              		.section	.text.unlikely
 2893              		.align 2
 2894              	.LCOLDB30:
 2895              		.text
 2896              	.LHOTB30:
 2897              		.align 2
 2898 08d4 66662E0F 		.p2align 4
 2898      1F840000 
 2898      00000090 
 2900              	_ZNK12_GLOBAL__N_146TestNotifiesReporterOfTestStartWithCorrectInfo7RunImplEv:
 2901              	.LFB1241:
 2902              		.cfi_startproc
 2903              		.cfi_personality 0x9b,DW.ref.__gxx_personality_v0
 2904              		.cfi_lsda 0x1b,.LLSDA1241
 2905 08e0 F30F1EFA 		endbr64
 2906 08e4 4155     		pushq	%r13
 2907              		.cfi_def_cfa_offset 16
 2908              		.cfi_offset 13, -16
 2909 08e6 4154     		pushq	%r12
 2910              		.cfi_def_cfa_offset 24
 2911              		.cfi_offset 12, -24
 2912 08e8 55       		pushq	%rbp
 2913              		.cfi_def_cfa_offset 32
 2914              		.cfi_offset 6, -32
 2915 08e9 53       		pushq	%rbx
 2916              		.cfi_def_cfa_offset 40
 2917              		.cfi_offset 3, -40
 2918 08ea 488D1D00 		leaq	16+_ZTV17RecordingReporter(%rip), %rbx
 2918      000000
 2919 08f1 4881EC98 		subq	$2200, %rsp
 2919      080000
 2920              		.cfi_def_cfa_offset 2240
 2921 08f8 64488B04 		movq	%fs:40, %rax
 2921      25280000 
 2921      00
 2922 0901 48898424 		movq	%rax, 2184(%rsp)
 2922      88080000 
 2923 0909 31C0     		xorl	%eax, %eax
 2924 090b 4C8D6424 		leaq	80(%rsp), %r12
 2924      50
 2925 0910 488D6C24 		leaq	16(%rsp), %rbp
 2925      10
 2926 0915 48895C24 		movq	%rbx, 80(%rsp)
 2926      50
 2927 091a 4C89E6   		movq	%r12, %rsi
 2928 091d 4889EF   		movq	%rbp, %rdi
 2929 0920 C7442458 		movl	$0, 88(%rsp)
 2929      00000000 
 2930 0928 C784245C 		movl	$0, 604(%rsp)
 2930      02000000 
 2930      000000
 2931 0933 C7842460 		movl	$0, 864(%rsp)
 2931      03000000 
 2931      000000
 2932 093e C7842464 		movl	$0, 1636(%rsp)
 2932      06000000 
 2932      000000
 2933 0949 48C78424 		movq	$0, 2152(%rsp)
 2933      68080000 
 2933      00000000 
 2934 0955 48C78424 		movq	$0, 2160(%rsp)
 2934      70080000 
 2934      00000000 
 2935 0961 C7842478 		movl	$0x00000000, 2168(%rsp)
 2935      08000000 
 2935      000000
 2936 096c C644245C 		movb	$0, 92(%rsp)
 2936      00
 2937 0971 C684245C 		movb	$0, 348(%rsp)
 2937      01000000 
 2938 0979 C6842460 		movb	$0, 608(%rsp)
 2938      02000000 
 2939 0981 C6842464 		movb	$0, 868(%rsp)
 2939      03000000 
 2940 0989 C6842464 		movb	$0, 1124(%rsp)
 2940      04000000 
 2941 0991 C6842464 		movb	$0, 1380(%rsp)
 2941      05000000 
 2942 0999 C6842468 		movb	$0, 1640(%rsp)
 2942      06000000 
 2943 09a1 C6842468 		movb	$0, 1896(%rsp)
 2943      07000000 
 2944              	.LEHB72:
 2945 09a9 E8000000 		call	_ZN8UnitTest11TestResultsC1EPNS_12TestReporterE@PLT
 2945      00
 2946 09ae 488D3500 		leaq	_ZN12_GLOBAL__N_1L7detailsE(%rip), %rsi
 2946      000000
 2947 09b5 4889EF   		movq	%rbp, %rdi
 2948 09b8 E8000000 		call	_ZN8UnitTest11TestResults11OnTestStartERKNS_11TestDetailsE@PLT
 2948      00
 2949              	.LEHE72:
 2950              	.LEHB73:
 2951 09bd E8000000 		call	_ZN8UnitTest11CurrentTest7DetailsEv@PLT
 2951      00
 2952 09c2 488D6C24 		leaq	48(%rsp), %rbp
 2952      30
 2953 09c7 488B30   		movq	(%rax), %rsi
 2954 09ca BA400000 		movl	$64, %edx
 2954      00
 2955 09cf 4889EF   		movq	%rbp, %rdi
 2956 09d2 E8000000 		call	_ZN8UnitTest11TestDetailsC1ERKS0_i@PLT
 2956      00
 2957 09d7 C744240C 		movl	$1, 12(%rsp)
 2957      01000000 
 2958 09df E8000000 		call	_ZN8UnitTest11CurrentTest7ResultsEv@PLT
 2958      00
 2959 09e4 488B38   		movq	(%rax), %rdi
 2960 09e7 488D5424 		leaq	88(%rsp), %rdx
 2960      58
 2961 09ec 488D7424 		leaq	12(%rsp), %rsi
 2961      0C
 2962 09f1 4889E9   		movq	%rbp, %rcx
 2963 09f4 E8000000 		call	_ZN8UnitTest10CheckEqualIiiEEvRNS_11TestResultsERKT_RKT0_RKNS_11TestDetailsE
 2963      00
 2964              	.LEHE73:
 2965              	.L183:
 2966              	.LEHB74:
 2967 09f9 E8000000 		call	_ZN8UnitTest11CurrentTest7DetailsEv@PLT
 2967      00
 2968 09fe 488B30   		movq	(%rax), %rsi
 2969 0a01 BA410000 		movl	$65, %edx
 2969      00
 2970 0a06 4889EF   		movq	%rbp, %rdi
 2971 0a09 E8000000 		call	_ZN8UnitTest11TestDetailsC1ERKS0_i@PLT
 2971      00
 2972 0a0e E8000000 		call	_ZN8UnitTest11CurrentTest7ResultsEv@PLT
 2972      00
 2973 0a13 488B38   		movq	(%rax), %rdi
 2974 0a16 488D5424 		leaq	92(%rsp), %rdx
 2974      5C
 2975 0a1b 4889E9   		movq	%rbp, %rcx
 2976 0a1e 488D3500 		leaq	.LC18(%rip), %rsi
 2976      000000
 2977 0a25 E8000000 		call	_ZN8UnitTest10CheckEqualERNS_11TestResultsEPKcPcRKNS_11TestDetailsE@PLT
 2977      00
 2978              	.LEHE74:
 2979              	.L187:
 2980              	.LEHB75:
 2981 0a2a E8000000 		call	_ZN8UnitTest11CurrentTest7DetailsEv@PLT
 2981      00
 2982 0a2f 488B30   		movq	(%rax), %rsi
 2983 0a32 BA420000 		movl	$66, %edx
 2983      00
 2984 0a37 4889EF   		movq	%rbp, %rdi
 2985 0a3a E8000000 		call	_ZN8UnitTest11TestDetailsC1ERKS0_i@PLT
 2985      00
 2986 0a3f E8000000 		call	_ZN8UnitTest11CurrentTest7ResultsEv@PLT
 2986      00
 2987 0a44 488B38   		movq	(%rax), %rdi
 2988 0a47 488D9424 		leaq	348(%rsp), %rdx
 2988      5C010000 
 2989 0a4f 4889E9   		movq	%rbp, %rcx
 2990 0a52 488D3500 		leaq	.LC17(%rip), %rsi
 2990      000000
 2991 0a59 E8000000 		call	_ZN8UnitTest10CheckEqualERNS_11TestResultsEPKcPcRKNS_11TestDetailsE@PLT
 2991      00
 2992              	.LEHE75:
 2993              	.L190:
 2994 0a5e 4C89E7   		movq	%r12, %rdi
 2995 0a61 48895C24 		movq	%rbx, 80(%rsp)
 2995      50
 2996              	.LEHB76:
 2997 0a66 E8000000 		call	_ZN8UnitTest12TestReporterD2Ev@PLT
 2997      00
 2998              	.LEHE76:
 2999 0a6b 488B8424 		movq	2184(%rsp), %rax
 2999      88080000 
 3000 0a73 64482B04 		subq	%fs:40, %rax
 3000      25280000 
 3000      00
 3001 0a7c 750E     		jne	.L204
 3002 0a7e 4881C498 		addq	$2200, %rsp
 3002      080000
 3003              		.cfi_remember_state
 3004              		.cfi_def_cfa_offset 40
 3005 0a85 5B       		popq	%rbx
 3006              		.cfi_def_cfa_offset 32
 3007 0a86 5D       		popq	%rbp
 3008              		.cfi_def_cfa_offset 24
 3009 0a87 415C     		popq	%r12
 3010              		.cfi_def_cfa_offset 16
 3011 0a89 415D     		popq	%r13
 3012              		.cfi_def_cfa_offset 8
 3013 0a8b C3       		ret
 3014              	.L204:
 3015              		.cfi_restore_state
 3016 0a8c E8000000 		call	__stack_chk_fail@PLT
 3016      00
 3017              	.L198:
 3018 0a91 F30F1EFA 		endbr64
 3019 0a95 4889C7   		movq	%rax, %rdi
 3020 0a98 E9000000 		jmp	.L189
 3020      00
 3021              	.L196:
 3022 0a9d F30F1EFA 		endbr64
 3023 0aa1 4889C7   		movq	%rax, %rdi
 3024 0aa4 E9000000 		jmp	.L186
 3024      00
 3025              	.L194:
 3026 0aa9 F30F1EFA 		endbr64
 3027 0aad 4889C7   		movq	%rax, %rdi
 3028 0ab0 E9000000 		jmp	.L182
 3028      00
 3029              	.L200:
 3030 0ab5 F30F1EFA 		endbr64
 3031 0ab9 E9000000 		jmp	.L201
 3031      00
 3032              		.section	.gcc_except_table
 3033              		.align 4
 3034              	.LLSDA1241:
 3035 0200 FF       		.byte	0xff
 3036 0201 9B       		.byte	0x9b
 3037 0202 25       		.uleb128 .LLSDATT1241-.LLSDATTD1241
 3038              	.LLSDATTD1241:
 3039 0203 01       		.byte	0x1
 3040 0204 1D       		.uleb128 .LLSDACSE1241-.LLSDACSB1241
 3041              	.LLSDACSB1241:
 3042 0205 C901     		.uleb128 .LEHB72-.LFB1241
 3043 0207 14       		.uleb128 .LEHE72-.LEHB72
 3044 0208 D503     		.uleb128 .L200-.LFB1241
 3045 020a 00       		.uleb128 0
 3046 020b DD01     		.uleb128 .LEHB73-.LFB1241
 3047 020d 3C       		.uleb128 .LEHE73-.LEHB73
 3048 020e C903     		.uleb128 .L194-.LFB1241
 3049 0210 01       		.uleb128 0x1
 3050 0211 9902     		.uleb128 .LEHB74-.LFB1241
 3051 0213 31       		.uleb128 .LEHE74-.LEHB74
 3052 0214 BD03     		.uleb128 .L196-.LFB1241
 3053 0216 01       		.uleb128 0x1
 3054 0217 CA02     		.uleb128 .LEHB75-.LFB1241
 3055 0219 34       		.uleb128 .LEHE75-.LEHB75
 3056 021a B103     		.uleb128 .L198-.LFB1241
 3057 021c 01       		.uleb128 0x1
 3058 021d 8603     		.uleb128 .LEHB76-.LFB1241
 3059 021f 05       		.uleb128 .LEHE76-.LEHB76
 3060 0220 00       		.uleb128 0
 3061 0221 00       		.uleb128 0
 3062              	.LLSDACSE1241:
 3063 0222 01       		.byte	0x1
 3064 0223 00       		.byte	0
 3065              		.align 4
 3066 0224 00000000 		.long	0
 3067              	
 3068              	.LLSDATT1241:
 3069              		.text
 3070              		.cfi_endproc
 3071              		.section	.text.unlikely
 3072              		.cfi_startproc
 3073              		.cfi_personality 0x9b,DW.ref.__gxx_personality_v0
 3074              		.cfi_lsda 0x1b,.LLSDAC1241
 3076              	_ZNK12_GLOBAL__N_146TestNotifiesReporterOfTestStartWithCorrectInfo7RunImplEv.cold:
 3077              	.LFSB1241:
 3078              	.L189:
 3079              		.cfi_def_cfa_offset 2240
 3080              		.cfi_offset 3, -40
 3081              		.cfi_offset 6, -32
 3082              		.cfi_offset 12, -24
 3083              		.cfi_offset 13, -16
 3084 0474 E8000000 		call	__cxa_begin_catch@PLT
 3084      00
 3085              	.LEHB77:
 3086 0479 E8000000 		call	_ZN8UnitTest11CurrentTest7ResultsEv@PLT
 3086      00
 3087 047e 4C8B28   		movq	(%rax), %r13
 3088 0481 E8000000 		call	_ZN8UnitTest11CurrentTest7DetailsEv@PLT
 3088      00
 3089 0486 488B30   		movq	(%rax), %rsi
 3090 0489 BA420000 		movl	$66, %edx
 3090      00
 3091 048e 4889EF   		movq	%rbp, %rdi
 3092 0491 E8000000 		call	_ZN8UnitTest11TestDetailsC1ERKS0_i@PLT
 3092      00
 3093 0496 488D1500 		leaq	.LC29(%rip), %rdx
 3093      000000
 3094 049d 4889EE   		movq	%rbp, %rsi
 3095 04a0 4C89EF   		movq	%r13, %rdi
 3096 04a3 E8000000 		call	_ZN8UnitTest11TestResults13OnTestFailureERKNS_11TestDetailsEPKc@PLT
 3096      00
 3097              	.LEHE77:
 3098              	.LEHB78:
 3099 04a8 E8000000 		call	__cxa_end_catch@PLT
 3099      00
 3100              	.LEHE78:
 3101 04ad E9000000 		jmp	.L190
 3101      00
 3102              	.L186:
 3103 04b2 E8000000 		call	__cxa_begin_catch@PLT
 3103      00
 3104              	.LEHB79:
 3105 04b7 E8000000 		call	_ZN8UnitTest11CurrentTest7ResultsEv@PLT
 3105      00
 3106 04bc 4C8B28   		movq	(%rax), %r13
 3107 04bf E8000000 		call	_ZN8UnitTest11CurrentTest7DetailsEv@PLT
 3107      00
 3108 04c4 488B30   		movq	(%rax), %rsi
 3109 04c7 BA410000 		movl	$65, %edx
 3109      00
 3110 04cc 4889EF   		movq	%rbp, %rdi
 3111 04cf E8000000 		call	_ZN8UnitTest11TestDetailsC1ERKS0_i@PLT
 3111      00
 3112 04d4 488D1500 		leaq	.LC28(%rip), %rdx
 3112      000000
 3113 04db 4889EE   		movq	%rbp, %rsi
 3114 04de 4C89EF   		movq	%r13, %rdi
 3115 04e1 E8000000 		call	_ZN8UnitTest11TestResults13OnTestFailureERKNS_11TestDetailsEPKc@PLT
 3115      00
 3116              	.LEHE79:
 3117              	.LEHB80:
 3118 04e6 E8000000 		call	__cxa_end_catch@PLT
 3118      00
 3119              	.LEHE80:
 3120 04eb E9000000 		jmp	.L187
 3120      00
 3121              	.L193:
 3122 04f0 F30F1EFA 		endbr64
 3123              	.L201:
 3124 04f4 4889C5   		movq	%rax, %rbp
 3125 04f7 EB0C     		jmp	.L185
 3126              	.L199:
 3127 04f9 F30F1EFA 		endbr64
 3128 04fd 4889C5   		movq	%rax, %rbp
 3129 0500 E8000000 		call	__cxa_end_catch@PLT
 3129      00
 3130              	.L185:
 3131 0505 4C89E7   		movq	%r12, %rdi
 3132 0508 48895C24 		movq	%rbx, 80(%rsp)
 3132      50
 3133 050d E8000000 		call	_ZN8UnitTest12TestReporterD2Ev@PLT
 3133      00
 3134 0512 4889EF   		movq	%rbp, %rdi
 3135              	.LEHB81:
 3136 0515 E8000000 		call	_Unwind_Resume@PLT
 3136      00
 3137              	.LEHE81:
 3138              	.L197:
 3139 051a F30F1EFA 		endbr64
 3140 051e 4889C5   		movq	%rax, %rbp
 3141 0521 E8000000 		call	__cxa_end_catch@PLT
 3141      00
 3142 0526 EBDD     		jmp	.L185
 3143              	.L182:
 3144 0528 E8000000 		call	__cxa_begin_catch@PLT
 3144      00
 3145              	.LEHB82:
 3146 052d E8000000 		call	_ZN8UnitTest11CurrentTest7ResultsEv@PLT
 3146      00
 3147 0532 4C8B28   		movq	(%rax), %r13
 3148 0535 E8000000 		call	_ZN8UnitTest11CurrentTest7DetailsEv@PLT
 3148      00
 3149 053a 488D6C24 		leaq	48(%rsp), %rbp
 3149      30
 3150 053f 488B30   		movq	(%rax), %rsi
 3151 0542 BA400000 		movl	$64, %edx
 3151      00
 3152 0547 4889EF   		movq	%rbp, %rdi
 3153 054a E8000000 		call	_ZN8UnitTest11TestDetailsC1ERKS0_i@PLT
 3153      00
 3154 054f 488D1500 		leaq	.LC27(%rip), %rdx
 3154      000000
 3155 0556 4889EE   		movq	%rbp, %rsi
 3156 0559 4C89EF   		movq	%r13, %rdi
 3157 055c E8000000 		call	_ZN8UnitTest11TestResults13OnTestFailureERKNS_11TestDetailsEPKc@PLT
 3157      00
 3158              	.LEHE82:
 3159              	.LEHB83:
 3160 0561 E8000000 		call	__cxa_end_catch@PLT
 3160      00
 3161              	.LEHE83:
 3162 0566 E9000000 		jmp	.L183
 3162      00
 3163              	.L195:
 3164 056b F30F1EFA 		endbr64
 3165 056f 4889C5   		movq	%rax, %rbp
 3166 0572 E8000000 		call	__cxa_end_catch@PLT
 3166      00
 3167 0577 EB8C     		jmp	.L185
 3168              		.cfi_endproc
 3169              	.LFE1241:
 3170              		.section	.gcc_except_table
 3171              		.align 4
 3172              	.LLSDAC1241:
 3173 0228 FF       		.byte	0xff
 3174 0229 9B       		.byte	0x9b
 3175 022a 2D       		.uleb128 .LLSDATTC1241-.LLSDATTDC1241
 3176              	.LLSDATTDC1241:
 3177 022b 01       		.byte	0x1
 3178 022c 22       		.uleb128 .LLSDACSEC1241-.LLSDACSBC1241
 3179              	.LLSDACSBC1241:
 3180 022d 05       		.uleb128 .LEHB77-.LCOLDB30
 3181 022e 2F       		.uleb128 .LEHE77-.LEHB77
 3182 022f 8501     		.uleb128 .L199-.LCOLDB30
 3183 0231 00       		.uleb128 0
 3184 0232 34       		.uleb128 .LEHB78-.LCOLDB30
 3185 0233 05       		.uleb128 .LEHE78-.LEHB78
 3186 0234 7C       		.uleb128 .L193-.LCOLDB30
 3187 0235 00       		.uleb128 0
 3188 0236 43       		.uleb128 .LEHB79-.LCOLDB30
 3189 0237 2F       		.uleb128 .LEHE79-.LEHB79
 3190 0238 A601     		.uleb128 .L197-.LCOLDB30
 3191 023a 00       		.uleb128 0
 3192 023b 72       		.uleb128 .LEHB80-.LCOLDB30
 3193 023c 05       		.uleb128 .LEHE80-.LEHB80
 3194 023d 7C       		.uleb128 .L193-.LCOLDB30
 3195 023e 00       		.uleb128 0
 3196 023f A101     		.uleb128 .LEHB81-.LCOLDB30
 3197 0241 05       		.uleb128 .LEHE81-.LEHB81
 3198 0242 00       		.uleb128 0
 3199 0243 00       		.uleb128 0
 3200 0244 B901     		.uleb128 .LEHB82-.LCOLDB30
 3201 0246 34       		.uleb128 .LEHE82-.LEHB82
 3202 0247 F701     		.uleb128 .L195-.LCOLDB30
 3203 0249 00       		.uleb128 0
 3204 024a ED01     		.uleb128 .LEHB83-.LCOLDB30
 3205 024c 05       		.uleb128 .LEHE83-.LEHB83
 3206 024d 7C       		.uleb128 .L193-.LCOLDB30
 3207 024e 00       		.uleb128 0
 3208              	.LLSDACSEC1241:
 3209 024f 01       		.byte	0x1
 3210 0250 00       		.byte	0
 3211 0251 000000   		.align 4
 3212 0254 00000000 		.long	0
 3213              	
 3214              	.LLSDATTC1241:
 3215              		.section	.text.unlikely
 3216              		.text
 3218              		.section	.text.unlikely
 3220              	.LCOLDE30:
 3221              		.text
 3222              	.LHOTE30:
 3223              		.section	.rodata.str1.1
 3224              	.LC31:
 3225 002a 00       		.string	""
 3226              		.section	.rodata.str1.8
 3227 0291 00000000 		.align 8
 3227      000000
 3228              	.LC32:
 3229 0298 556E6861 		.string	"Unhandled exception in CHECK_EQUAL(2, results.GetFailedTestCount())"
 3229      6E646C65 
 3229      64206578 
 3229      63657074 
 3229      696F6E20 
 3230              		.section	.text.unlikely
 3231 0579 90       		.align 2
 3232              	.LCOLDB33:
 3233              		.text
 3234              	.LHOTB33:
 3235              		.align 2
 3236 0abe 6690     		.p2align 4
 3238              	_ZNK12_GLOBAL__N_130TestRecordsNumberOfFailedTests7RunImplEv:
 3239              	.LFB1237:
 3240              		.cfi_startproc
 3241              		.cfi_personality 0x9b,DW.ref.__gxx_personality_v0
 3242              		.cfi_lsda 0x1b,.LLSDA1237
 3243 0ac0 F30F1EFA 		endbr64
 3244 0ac4 4155     		pushq	%r13
 3245              		.cfi_def_cfa_offset 16
 3246              		.cfi_offset 13, -16
 3247 0ac6 31F6     		xorl	%esi, %esi
 3248 0ac8 4C8D2D00 		leaq	.LC31(%rip), %r13
 3248      000000
 3249 0acf 4154     		pushq	%r12
 3250              		.cfi_def_cfa_offset 24
 3251              		.cfi_offset 12, -24
 3252 0ad1 4C8D2500 		leaq	_ZN12_GLOBAL__N_1L7detailsE(%rip), %r12
 3252      000000
 3253 0ad8 55       		pushq	%rbp
 3254              		.cfi_def_cfa_offset 32
 3255              		.cfi_offset 6, -32
 3256 0ad9 4883EC60 		subq	$96, %rsp
 3257              		.cfi_def_cfa_offset 128
 3258 0add 64488B04 		movq	%fs:40, %rax
 3258      25280000 
 3258      00
 3259 0ae6 48894424 		movq	%rax, 88(%rsp)
 3259      58
 3260 0aeb 31C0     		xorl	%eax, %eax
 3261 0aed 488D6C24 		leaq	16(%rsp), %rbp
 3261      10
 3262 0af2 4889EF   		movq	%rbp, %rdi
 3263              	.LEHB84:
 3264 0af5 E8000000 		call	_ZN8UnitTest11TestResultsC1EPNS_12TestReporterE@PLT
 3264      00
 3265 0afa 4C89E6   		movq	%r12, %rsi
 3266 0afd 4889EF   		movq	%rbp, %rdi
 3267 0b00 E8000000 		call	_ZN8UnitTest11TestResults11OnTestStartERKNS_11TestDetailsE@PLT
 3267      00
 3268 0b05 4C89EA   		movq	%r13, %rdx
 3269 0b08 4C89E6   		movq	%r12, %rsi
 3270 0b0b 4889EF   		movq	%rbp, %rdi
 3271 0b0e E8000000 		call	_ZN8UnitTest11TestResults13OnTestFailureERKNS_11TestDetailsEPKc@PLT
 3271      00
 3272 0b13 660FEFC0 		pxor	%xmm0, %xmm0
 3273 0b17 4C89E6   		movq	%r12, %rsi
 3274 0b1a 4889EF   		movq	%rbp, %rdi
 3275 0b1d E8000000 		call	_ZN8UnitTest11TestResults12OnTestFinishERKNS_11TestDetailsEf@PLT
 3275      00
 3276 0b22 4C89E6   		movq	%r12, %rsi
 3277 0b25 4889EF   		movq	%rbp, %rdi
 3278 0b28 E8000000 		call	_ZN8UnitTest11TestResults11OnTestStartERKNS_11TestDetailsE@PLT
 3278      00
 3279 0b2d 4C89EA   		movq	%r13, %rdx
 3280 0b30 4C89E6   		movq	%r12, %rsi
 3281 0b33 4889EF   		movq	%rbp, %rdi
 3282 0b36 E8000000 		call	_ZN8UnitTest11TestResults13OnTestFailureERKNS_11TestDetailsEPKc@PLT
 3282      00
 3283 0b3b 4C89EA   		movq	%r13, %rdx
 3284 0b3e 4C89E6   		movq	%r12, %rsi
 3285 0b41 4889EF   		movq	%rbp, %rdi
 3286 0b44 E8000000 		call	_ZN8UnitTest11TestResults13OnTestFailureERKNS_11TestDetailsEPKc@PLT
 3286      00
 3287 0b49 4C89E6   		movq	%r12, %rsi
 3288 0b4c 4889EF   		movq	%rbp, %rdi
 3289 0b4f 4C89EA   		movq	%r13, %rdx
 3290 0b52 E8000000 		call	_ZN8UnitTest11TestResults13OnTestFailureERKNS_11TestDetailsEPKc@PLT
 3290      00
 3291 0b57 660FEFC0 		pxor	%xmm0, %xmm0
 3292 0b5b 4C89E6   		movq	%r12, %rsi
 3293 0b5e 4889EF   		movq	%rbp, %rdi
 3294 0b61 E8000000 		call	_ZN8UnitTest11TestResults12OnTestFinishERKNS_11TestDetailsEf@PLT
 3294      00
 3295              	.LEHE84:
 3296              	.LEHB85:
 3297 0b66 E8000000 		call	_ZN8UnitTest11CurrentTest7DetailsEv@PLT
 3297      00
 3298 0b6b 4C8D6424 		leaq	48(%rsp), %r12
 3298      30
 3299 0b70 488B30   		movq	(%rax), %rsi
 3300 0b73 BA370000 		movl	$55, %edx
 3300      00
 3301 0b78 4C89E7   		movq	%r12, %rdi
 3302 0b7b E8000000 		call	_ZN8UnitTest11TestDetailsC1ERKS0_i@PLT
 3302      00
 3303 0b80 4889EF   		movq	%rbp, %rdi
 3304 0b83 E8000000 		call	_ZNK8UnitTest11TestResults18GetFailedTestCountEv@PLT
 3304      00
 3305 0b88 8944240C 		movl	%eax, 12(%rsp)
 3306 0b8c C7442408 		movl	$2, 8(%rsp)
 3306      02000000 
 3307 0b94 E8000000 		call	_ZN8UnitTest11CurrentTest7ResultsEv@PLT
 3307      00
 3308 0b99 488B38   		movq	(%rax), %rdi
 3309 0b9c 488D5424 		leaq	12(%rsp), %rdx
 3309      0C
 3310 0ba1 488D7424 		leaq	8(%rsp), %rsi
 3310      08
 3311 0ba6 4C89E1   		movq	%r12, %rcx
 3312 0ba9 E8000000 		call	_ZN8UnitTest10CheckEqualIiiEEvRNS_11TestResultsERKT_RKT0_RKNS_11TestDetailsE
 3312      00
 3313              	.LEHE85:
 3314              	.L205:
 3315 0bae 488B4424 		movq	88(%rsp), %rax
 3315      58
 3316 0bb3 64482B04 		subq	%fs:40, %rax
 3316      25280000 
 3316      00
 3317 0bbc 750A     		jne	.L213
 3318 0bbe 4883C460 		addq	$96, %rsp
 3319              		.cfi_remember_state
 3320              		.cfi_def_cfa_offset 32
 3321 0bc2 5D       		popq	%rbp
 3322              		.cfi_def_cfa_offset 24
 3323 0bc3 415C     		popq	%r12
 3324              		.cfi_def_cfa_offset 16
 3325 0bc5 415D     		popq	%r13
 3326              		.cfi_def_cfa_offset 8
 3327 0bc7 C3       		ret
 3328              	.L213:
 3329              		.cfi_restore_state
 3330 0bc8 E8000000 		call	__stack_chk_fail@PLT
 3330      00
 3331              	.L210:
 3332 0bcd F30F1EFA 		endbr64
 3333 0bd1 4889C7   		movq	%rax, %rdi
 3334 0bd4 E9000000 		jmp	.L206
 3334      00
 3335              		.section	.gcc_except_table
 3336              		.align 4
 3337              	.LLSDA1237:
 3338 0258 FF       		.byte	0xff
 3339 0259 9B       		.byte	0x9b
 3340 025a 15       		.uleb128 .LLSDATT1237-.LLSDATTD1237
 3341              	.LLSDATTD1237:
 3342 025b 01       		.byte	0x1
 3343 025c 0A       		.uleb128 .LLSDACSE1237-.LLSDACSB1237
 3344              	.LLSDACSB1237:
 3345 025d 35       		.uleb128 .LEHB84-.LFB1237
 3346 025e 71       		.uleb128 .LEHE84-.LEHB84
 3347 025f 00       		.uleb128 0
 3348 0260 00       		.uleb128 0
 3349 0261 A601     		.uleb128 .LEHB85-.LFB1237
 3350 0263 48       		.uleb128 .LEHE85-.LEHB85
 3351 0264 8D02     		.uleb128 .L210-.LFB1237
 3352 0266 01       		.uleb128 0x1
 3353              	.LLSDACSE1237:
 3354 0267 01       		.byte	0x1
 3355 0268 00       		.byte	0
 3356 0269 000000   		.align 4
 3357 026c 00000000 		.long	0
 3358              	
 3359              	.LLSDATT1237:
 3360              		.text
 3361              		.cfi_endproc
 3362              		.section	.text.unlikely
 3363              		.cfi_startproc
 3364              		.cfi_personality 0x9b,DW.ref.__gxx_personality_v0
 3365              		.cfi_lsda 0x1b,.LLSDAC1237
 3367              	_ZNK12_GLOBAL__N_130TestRecordsNumberOfFailedTests7RunImplEv.cold:
 3368              	.LFSB1237:
 3369              	.L206:
 3370              		.cfi_def_cfa_offset 128
 3371              		.cfi_offset 6, -32
 3372              		.cfi_offset 12, -24
 3373              		.cfi_offset 13, -16
 3374 057a E8000000 		call	__cxa_begin_catch@PLT
 3374      00
 3375              	.LEHB86:
 3376 057f E8000000 		call	_ZN8UnitTest11CurrentTest7ResultsEv@PLT
 3376      00
 3377 0584 488B28   		movq	(%rax), %rbp
 3378 0587 E8000000 		call	_ZN8UnitTest11CurrentTest7DetailsEv@PLT
 3378      00
 3379 058c 4C8D6424 		leaq	48(%rsp), %r12
 3379      30
 3380 0591 488B30   		movq	(%rax), %rsi
 3381 0594 BA370000 		movl	$55, %edx
 3381      00
 3382 0599 4C89E7   		movq	%r12, %rdi
 3383 059c E8000000 		call	_ZN8UnitTest11TestDetailsC1ERKS0_i@PLT
 3383      00
 3384 05a1 488D1500 		leaq	.LC32(%rip), %rdx
 3384      000000
 3385 05a8 4C89E6   		movq	%r12, %rsi
 3386 05ab 4889EF   		movq	%rbp, %rdi
 3387 05ae E8000000 		call	_ZN8UnitTest11TestResults13OnTestFailureERKNS_11TestDetailsEPKc@PLT
 3387      00
 3388              	.LEHE86:
 3389              	.LEHB87:
 3390 05b3 E8000000 		call	__cxa_end_catch@PLT
 3390      00
 3391              	.LEHE87:
 3392 05b8 E9000000 		jmp	.L205
 3392      00
 3393              	.L211:
 3394 05bd F30F1EFA 		endbr64
 3395 05c1 4889C5   		movq	%rax, %rbp
 3396 05c4 E8000000 		call	__cxa_end_catch@PLT
 3396      00
 3397 05c9 4889EF   		movq	%rbp, %rdi
 3398              	.LEHB88:
 3399 05cc E8000000 		call	_Unwind_Resume@PLT
 3399      00
 3400              	.LEHE88:
 3401              		.cfi_endproc
 3402              	.LFE1237:
 3403              		.section	.gcc_except_table
 3404              		.align 4
 3405              	.LLSDAC1237:
 3406 0270 FF       		.byte	0xff
 3407 0271 9B       		.byte	0x9b
 3408 0272 15       		.uleb128 .LLSDATTC1237-.LLSDATTDC1237
 3409              	.LLSDATTDC1237:
 3410 0273 01       		.byte	0x1
 3411 0274 0C       		.uleb128 .LLSDACSEC1237-.LLSDACSBC1237
 3412              	.LLSDACSBC1237:
 3413 0275 05       		.uleb128 .LEHB86-.LCOLDB33
 3414 0276 34       		.uleb128 .LEHE86-.LEHB86
 3415 0277 43       		.uleb128 .L211-.LCOLDB33
 3416 0278 00       		.uleb128 0
 3417 0279 39       		.uleb128 .LEHB87-.LCOLDB33
 3418 027a 05       		.uleb128 .LEHE87-.LEHB87
 3419 027b 00       		.uleb128 0
 3420 027c 00       		.uleb128 0
 3421 027d 52       		.uleb128 .LEHB88-.LCOLDB33
 3422 027e 05       		.uleb128 .LEHE88-.LEHB88
 3423 027f 00       		.uleb128 0
 3424 0280 00       		.uleb128 0
 3425              	.LLSDACSEC1237:
 3426 0281 01       		.byte	0x1
 3427 0282 00       		.byte	0
 3428 0283 00       		.align 4
 3429 0284 00000000 		.long	0
 3430              	
 3431              	.LLSDATTC1237:
 3432              		.section	.text.unlikely
 3433              		.text
 3435              		.section	.text.unlikely
 3437              	.LCOLDE33:
 3438              		.text
 3439              	.LHOTE33:
 3440              		.section	.rodata.str1.8
 3441 02dc 00000000 		.align 8
 3442              	.LC34:
 3443 02e0 556E6861 		.string	"Unhandled exception in CHECK_EQUAL(2, results.GetFailureCount())"
 3443      6E646C65 
 3443      64206578 
 3443      63657074 
 3443      696F6E20 
 3444              		.section	.text.unlikely
 3445 05d1 90       		.align 2
 3446              	.LCOLDB35:
 3447              		.text
 3448              	.LHOTB35:
 3449 0bd9 90       		.align 2
 3450 0bda 660F1F44 		.p2align 4
 3450      0000
 3452              	_ZNK12_GLOBAL__N_127TestRecordsNumberOfFailures7RunImplEv:
 3453              	.LFB1233:
 3454              		.cfi_startproc
 3455              		.cfi_personality 0x9b,DW.ref.__gxx_personality_v0
 3456              		.cfi_lsda 0x1b,.LLSDA1233
 3457 0be0 F30F1EFA 		endbr64
 3458 0be4 4155     		pushq	%r13
 3459              		.cfi_def_cfa_offset 16
 3460              		.cfi_offset 13, -16
 3461 0be6 31F6     		xorl	%esi, %esi
 3462 0be8 4C8D2D00 		leaq	.LC31(%rip), %r13
 3462      000000
 3463 0bef 4154     		pushq	%r12
 3464              		.cfi_def_cfa_offset 24
 3465              		.cfi_offset 12, -24
 3466 0bf1 4C8D2500 		leaq	_ZN12_GLOBAL__N_1L7detailsE(%rip), %r12
 3466      000000
 3467 0bf8 55       		pushq	%rbp
 3468              		.cfi_def_cfa_offset 32
 3469              		.cfi_offset 6, -32
 3470 0bf9 4883EC60 		subq	$96, %rsp
 3471              		.cfi_def_cfa_offset 128
 3472 0bfd 64488B04 		movq	%fs:40, %rax
 3472      25280000 
 3472      00
 3473 0c06 48894424 		movq	%rax, 88(%rsp)
 3473      58
 3474 0c0b 31C0     		xorl	%eax, %eax
 3475 0c0d 488D6C24 		leaq	16(%rsp), %rbp
 3475      10
 3476 0c12 4889EF   		movq	%rbp, %rdi
 3477              	.LEHB89:
 3478 0c15 E8000000 		call	_ZN8UnitTest11TestResultsC1EPNS_12TestReporterE@PLT
 3478      00
 3479 0c1a 4C89EA   		movq	%r13, %rdx
 3480 0c1d 4C89E6   		movq	%r12, %rsi
 3481 0c20 4889EF   		movq	%rbp, %rdi
 3482 0c23 E8000000 		call	_ZN8UnitTest11TestResults13OnTestFailureERKNS_11TestDetailsEPKc@PLT
 3482      00
 3483 0c28 4C89EA   		movq	%r13, %rdx
 3484 0c2b 4C89E6   		movq	%r12, %rsi
 3485 0c2e 4889EF   		movq	%rbp, %rdi
 3486 0c31 E8000000 		call	_ZN8UnitTest11TestResults13OnTestFailureERKNS_11TestDetailsEPKc@PLT
 3486      00
 3487              	.LEHE89:
 3488              	.LEHB90:
 3489 0c36 E8000000 		call	_ZN8UnitTest11CurrentTest7DetailsEv@PLT
 3489      00
 3490 0c3b 4C8D6424 		leaq	48(%rsp), %r12
 3490      30
 3491 0c40 488B30   		movq	(%rax), %rsi
 3492 0c43 BA260000 		movl	$38, %edx
 3492      00
 3493 0c48 4C89E7   		movq	%r12, %rdi
 3494 0c4b E8000000 		call	_ZN8UnitTest11TestDetailsC1ERKS0_i@PLT
 3494      00
 3495 0c50 4889EF   		movq	%rbp, %rdi
 3496 0c53 E8000000 		call	_ZNK8UnitTest11TestResults15GetFailureCountEv@PLT
 3496      00
 3497 0c58 8944240C 		movl	%eax, 12(%rsp)
 3498 0c5c C7442408 		movl	$2, 8(%rsp)
 3498      02000000 
 3499 0c64 E8000000 		call	_ZN8UnitTest11CurrentTest7ResultsEv@PLT
 3499      00
 3500 0c69 488B38   		movq	(%rax), %rdi
 3501 0c6c 488D5424 		leaq	12(%rsp), %rdx
 3501      0C
 3502 0c71 488D7424 		leaq	8(%rsp), %rsi
 3502      08
 3503 0c76 4C89E1   		movq	%r12, %rcx
 3504 0c79 E8000000 		call	_ZN8UnitTest10CheckEqualIiiEEvRNS_11TestResultsERKT_RKT0_RKNS_11TestDetailsE
 3504      00
 3505              	.LEHE90:
 3506              	.L214:
 3507 0c7e 488B4424 		movq	88(%rsp), %rax
 3507      58
 3508 0c83 64482B04 		subq	%fs:40, %rax
 3508      25280000 
 3508      00
 3509 0c8c 750A     		jne	.L222
 3510 0c8e 4883C460 		addq	$96, %rsp
 3511              		.cfi_remember_state
 3512              		.cfi_def_cfa_offset 32
 3513 0c92 5D       		popq	%rbp
 3514              		.cfi_def_cfa_offset 24
 3515 0c93 415C     		popq	%r12
 3516              		.cfi_def_cfa_offset 16
 3517 0c95 415D     		popq	%r13
 3518              		.cfi_def_cfa_offset 8
 3519 0c97 C3       		ret
 3520              	.L222:
 3521              		.cfi_restore_state
 3522 0c98 E8000000 		call	__stack_chk_fail@PLT
 3522      00
 3523              	.L219:
 3524 0c9d F30F1EFA 		endbr64
 3525 0ca1 4889C7   		movq	%rax, %rdi
 3526 0ca4 E9000000 		jmp	.L215
 3526      00
 3527              		.section	.gcc_except_table
 3528              		.align 4
 3529              	.LLSDA1233:
 3530 0288 FF       		.byte	0xff
 3531 0289 9B       		.byte	0x9b
 3532 028a 11       		.uleb128 .LLSDATT1233-.LLSDATTD1233
 3533              	.LLSDATTD1233:
 3534 028b 01       		.byte	0x1
 3535 028c 09       		.uleb128 .LLSDACSE1233-.LLSDACSB1233
 3536              	.LLSDACSB1233:
 3537 028d 35       		.uleb128 .LEHB89-.LFB1233
 3538 028e 21       		.uleb128 .LEHE89-.LEHB89
 3539 028f 00       		.uleb128 0
 3540 0290 00       		.uleb128 0
 3541 0291 56       		.uleb128 .LEHB90-.LFB1233
 3542 0292 48       		.uleb128 .LEHE90-.LEHB90
 3543 0293 BD01     		.uleb128 .L219-.LFB1233
 3544 0295 01       		.uleb128 0x1
 3545              	.LLSDACSE1233:
 3546 0296 01       		.byte	0x1
 3547 0297 00       		.byte	0
 3548              		.align 4
 3549 0298 00000000 		.long	0
 3550              	
 3551              	.LLSDATT1233:
 3552              		.text
 3553              		.cfi_endproc
 3554              		.section	.text.unlikely
 3555              		.cfi_startproc
 3556              		.cfi_personality 0x9b,DW.ref.__gxx_personality_v0
 3557              		.cfi_lsda 0x1b,.LLSDAC1233
 3559              	_ZNK12_GLOBAL__N_127TestRecordsNumberOfFailures7RunImplEv.cold:
 3560              	.LFSB1233:
 3561              	.L215:
 3562              		.cfi_def_cfa_offset 128
 3563              		.cfi_offset 6, -32
 3564              		.cfi_offset 12, -24
 3565              		.cfi_offset 13, -16
 3566 05d2 E8000000 		call	__cxa_begin_catch@PLT
 3566      00
 3567              	.LEHB91:
 3568 05d7 E8000000 		call	_ZN8UnitTest11CurrentTest7ResultsEv@PLT
 3568      00
 3569 05dc 488B28   		movq	(%rax), %rbp
 3570 05df E8000000 		call	_ZN8UnitTest11CurrentTest7DetailsEv@PLT
 3570      00
 3571 05e4 4C8D6424 		leaq	48(%rsp), %r12
 3571      30
 3572 05e9 488B30   		movq	(%rax), %rsi
 3573 05ec BA260000 		movl	$38, %edx
 3573      00
 3574 05f1 4C89E7   		movq	%r12, %rdi
 3575 05f4 E8000000 		call	_ZN8UnitTest11TestDetailsC1ERKS0_i@PLT
 3575      00
 3576 05f9 488D1500 		leaq	.LC34(%rip), %rdx
 3576      000000
 3577 0600 4C89E6   		movq	%r12, %rsi
 3578 0603 4889EF   		movq	%rbp, %rdi
 3579 0606 E8000000 		call	_ZN8UnitTest11TestResults13OnTestFailureERKNS_11TestDetailsEPKc@PLT
 3579      00
 3580              	.LEHE91:
 3581              	.LEHB92:
 3582 060b E8000000 		call	__cxa_end_catch@PLT
 3582      00
 3583              	.LEHE92:
 3584 0610 E9000000 		jmp	.L214
 3584      00
 3585              	.L220:
 3586 0615 F30F1EFA 		endbr64
 3587 0619 4889C5   		movq	%rax, %rbp
 3588 061c E8000000 		call	__cxa_end_catch@PLT
 3588      00
 3589 0621 4889EF   		movq	%rbp, %rdi
 3590              	.LEHB93:
 3591 0624 E8000000 		call	_Unwind_Resume@PLT
 3591      00
 3592              	.LEHE93:
 3593              		.cfi_endproc
 3594              	.LFE1233:
 3595              		.section	.gcc_except_table
 3596              		.align 4
 3597              	.LLSDAC1233:
 3598 029c FF       		.byte	0xff
 3599 029d 9B       		.byte	0x9b
 3600 029e 15       		.uleb128 .LLSDATTC1233-.LLSDATTDC1233
 3601              	.LLSDATTDC1233:
 3602 029f 01       		.byte	0x1
 3603 02a0 0C       		.uleb128 .LLSDACSEC1233-.LLSDACSBC1233
 3604              	.LLSDACSBC1233:
 3605 02a1 05       		.uleb128 .LEHB91-.LCOLDB35
 3606 02a2 34       		.uleb128 .LEHE91-.LEHB91
 3607 02a3 43       		.uleb128 .L220-.LCOLDB35
 3608 02a4 00       		.uleb128 0
 3609 02a5 39       		.uleb128 .LEHB92-.LCOLDB35
 3610 02a6 05       		.uleb128 .LEHE92-.LEHB92
 3611 02a7 00       		.uleb128 0
 3612 02a8 00       		.uleb128 0
 3613 02a9 52       		.uleb128 .LEHB93-.LCOLDB35
 3614 02aa 05       		.uleb128 .LEHE93-.LEHB93
 3615 02ab 00       		.uleb128 0
 3616 02ac 00       		.uleb128 0
 3617              	.LLSDACSEC1233:
 3618 02ad 01       		.byte	0x1
 3619 02ae 00       		.byte	0
 3620 02af 00       		.align 4
 3621 02b0 00000000 		.long	0
 3622              	
 3623              	.LLSDATTC1233:
 3624              		.section	.text.unlikely
 3625              		.text
 3627              		.section	.text.unlikely
 3629              	.LCOLDE35:
 3630              		.text
 3631              	.LHOTE35:
 3632              		.section	.rodata.str1.8
 3633 0321 00000000 		.align 8
 3633      000000
 3634              	.LC36:
 3635 0328 556E6861 		.string	"Unhandled exception in CHECK_EQUAL(0, results.GetFailureCount())"
 3635      6E646C65 
 3635      64206578 
 3635      63657074 
 3635      696F6E20 
 3636              		.section	.text.unlikely
 3637 0629 90       		.align 2
 3638              	.LCOLDB37:
 3639              		.text
 3640              	.LHOTB37:
 3641 0ca9 90       		.align 2
 3642 0caa 660F1F44 		.p2align 4
 3642      0000
 3644              	_ZNK12_GLOBAL__N_128TestStartsWithNoTestsFailing7RunImplEv:
 3645              	.LFB1229:
 3646              		.cfi_startproc
 3647              		.cfi_personality 0x9b,DW.ref.__gxx_personality_v0
 3648              		.cfi_lsda 0x1b,.LLSDA1229
 3649 0cb0 F30F1EFA 		endbr64
 3650 0cb4 4154     		pushq	%r12
 3651              		.cfi_def_cfa_offset 16
 3652              		.cfi_offset 12, -16
 3653 0cb6 31F6     		xorl	%esi, %esi
 3654 0cb8 55       		pushq	%rbp
 3655              		.cfi_def_cfa_offset 24
 3656              		.cfi_offset 6, -24
 3657 0cb9 4883EC68 		subq	$104, %rsp
 3658              		.cfi_def_cfa_offset 128
 3659 0cbd 64488B04 		movq	%fs:40, %rax
 3659      25280000 
 3659      00
 3660 0cc6 48894424 		movq	%rax, 88(%rsp)
 3660      58
 3661 0ccb 31C0     		xorl	%eax, %eax
 3662 0ccd 488D6C24 		leaq	16(%rsp), %rbp
 3662      10
 3663 0cd2 4889EF   		movq	%rbp, %rdi
 3664              	.LEHB94:
 3665 0cd5 E8000000 		call	_ZN8UnitTest11TestResultsC1EPNS_12TestReporterE@PLT
 3665      00
 3666              	.LEHE94:
 3667              	.LEHB95:
 3668 0cda E8000000 		call	_ZN8UnitTest11CurrentTest7DetailsEv@PLT
 3668      00
 3669 0cdf 4C8D6424 		leaq	48(%rsp), %r12
 3669      30
 3670 0ce4 488B30   		movq	(%rax), %rsi
 3671 0ce7 BA1E0000 		movl	$30, %edx
 3671      00
 3672 0cec 4C89E7   		movq	%r12, %rdi
 3673 0cef E8000000 		call	_ZN8UnitTest11TestDetailsC1ERKS0_i@PLT
 3673      00
 3674 0cf4 4889EF   		movq	%rbp, %rdi
 3675 0cf7 E8000000 		call	_ZNK8UnitTest11TestResults15GetFailureCountEv@PLT
 3675      00
 3676 0cfc 8944240C 		movl	%eax, 12(%rsp)
 3677 0d00 C7442408 		movl	$0, 8(%rsp)
 3677      00000000 
 3678 0d08 E8000000 		call	_ZN8UnitTest11CurrentTest7ResultsEv@PLT
 3678      00
 3679 0d0d 488B38   		movq	(%rax), %rdi
 3680 0d10 488D5424 		leaq	12(%rsp), %rdx
 3680      0C
 3681 0d15 488D7424 		leaq	8(%rsp), %rsi
 3681      08
 3682 0d1a 4C89E1   		movq	%r12, %rcx
 3683 0d1d E8000000 		call	_ZN8UnitTest10CheckEqualIiiEEvRNS_11TestResultsERKT_RKT0_RKNS_11TestDetailsE
 3683      00
 3684              	.LEHE95:
 3685              	.L223:
 3686 0d22 488B4424 		movq	88(%rsp), %rax
 3686      58
 3687 0d27 64482B04 		subq	%fs:40, %rax
 3687      25280000 
 3687      00
 3688 0d30 7508     		jne	.L231
 3689 0d32 4883C468 		addq	$104, %rsp
 3690              		.cfi_remember_state
 3691              		.cfi_def_cfa_offset 24
 3692 0d36 5D       		popq	%rbp
 3693              		.cfi_def_cfa_offset 16
 3694 0d37 415C     		popq	%r12
 3695              		.cfi_def_cfa_offset 8
 3696 0d39 C3       		ret
 3697              	.L231:
 3698              		.cfi_restore_state
 3699 0d3a E8000000 		call	__stack_chk_fail@PLT
 3699      00
 3700              	.L228:
 3701 0d3f F30F1EFA 		endbr64
 3702 0d43 4889C7   		movq	%rax, %rdi
 3703 0d46 E9000000 		jmp	.L224
 3703      00
 3704              		.section	.gcc_except_table
 3705              		.align 4
 3706              	.LLSDA1229:
 3707 02b4 FF       		.byte	0xff
 3708 02b5 9B       		.byte	0x9b
 3709 02b6 11       		.uleb128 .LLSDATT1229-.LLSDATTD1229
 3710              	.LLSDATTD1229:
 3711 02b7 01       		.byte	0x1
 3712 02b8 09       		.uleb128 .LLSDACSE1229-.LLSDACSB1229
 3713              	.LLSDACSB1229:
 3714 02b9 25       		.uleb128 .LEHB94-.LFB1229
 3715 02ba 05       		.uleb128 .LEHE94-.LEHB94
 3716 02bb 00       		.uleb128 0
 3717 02bc 00       		.uleb128 0
 3718 02bd 2A       		.uleb128 .LEHB95-.LFB1229
 3719 02be 48       		.uleb128 .LEHE95-.LEHB95
 3720 02bf 8F01     		.uleb128 .L228-.LFB1229
 3721 02c1 01       		.uleb128 0x1
 3722              	.LLSDACSE1229:
 3723 02c2 01       		.byte	0x1
 3724 02c3 00       		.byte	0
 3725              		.align 4
 3726 02c4 00000000 		.long	0
 3727              	
 3728              	.LLSDATT1229:
 3729              		.text
 3730              		.cfi_endproc
 3731              		.section	.text.unlikely
 3732              		.cfi_startproc
 3733              		.cfi_personality 0x9b,DW.ref.__gxx_personality_v0
 3734              		.cfi_lsda 0x1b,.LLSDAC1229
 3736              	_ZNK12_GLOBAL__N_128TestStartsWithNoTestsFailing7RunImplEv.cold:
 3737              	.LFSB1229:
 3738              	.L224:
 3739              		.cfi_def_cfa_offset 128
 3740              		.cfi_offset 6, -24
 3741              		.cfi_offset 12, -16
 3742 062a E8000000 		call	__cxa_begin_catch@PLT
 3742      00
 3743              	.LEHB96:
 3744 062f E8000000 		call	_ZN8UnitTest11CurrentTest7ResultsEv@PLT
 3744      00
 3745 0634 488B28   		movq	(%rax), %rbp
 3746 0637 E8000000 		call	_ZN8UnitTest11CurrentTest7DetailsEv@PLT
 3746      00
 3747 063c 4C8D6424 		leaq	48(%rsp), %r12
 3747      30
 3748 0641 488B30   		movq	(%rax), %rsi
 3749 0644 BA1E0000 		movl	$30, %edx
 3749      00
 3750 0649 4C89E7   		movq	%r12, %rdi
 3751 064c E8000000 		call	_ZN8UnitTest11TestDetailsC1ERKS0_i@PLT
 3751      00
 3752 0651 488D1500 		leaq	.LC36(%rip), %rdx
 3752      000000
 3753 0658 4C89E6   		movq	%r12, %rsi
 3754 065b 4889EF   		movq	%rbp, %rdi
 3755 065e E8000000 		call	_ZN8UnitTest11TestResults13OnTestFailureERKNS_11TestDetailsEPKc@PLT
 3755      00
 3756              	.LEHE96:
 3757              	.LEHB97:
 3758 0663 E8000000 		call	__cxa_end_catch@PLT
 3758      00
 3759              	.LEHE97:
 3760 0668 E9000000 		jmp	.L223
 3760      00
 3761              	.L229:
 3762 066d F30F1EFA 		endbr64
 3763 0671 4889C5   		movq	%rax, %rbp
 3764 0674 E8000000 		call	__cxa_end_catch@PLT
 3764      00
 3765 0679 4889EF   		movq	%rbp, %rdi
 3766              	.LEHB98:
 3767 067c E8000000 		call	_Unwind_Resume@PLT
 3767      00
 3768              	.LEHE98:
 3769              		.cfi_endproc
 3770              	.LFE1229:
 3771              		.section	.gcc_except_table
 3772              		.align 4
 3773              	.LLSDAC1229:
 3774 02c8 FF       		.byte	0xff
 3775 02c9 9B       		.byte	0x9b
 3776 02ca 15       		.uleb128 .LLSDATTC1229-.LLSDATTDC1229
 3777              	.LLSDATTDC1229:
 3778 02cb 01       		.byte	0x1
 3779 02cc 0C       		.uleb128 .LLSDACSEC1229-.LLSDACSBC1229
 3780              	.LLSDACSBC1229:
 3781 02cd 05       		.uleb128 .LEHB96-.LCOLDB37
 3782 02ce 34       		.uleb128 .LEHE96-.LEHB96
 3783 02cf 43       		.uleb128 .L229-.LCOLDB37
 3784 02d0 00       		.uleb128 0
 3785 02d1 39       		.uleb128 .LEHB97-.LCOLDB37
 3786 02d2 05       		.uleb128 .LEHE97-.LEHB97
 3787 02d3 00       		.uleb128 0
 3788 02d4 00       		.uleb128 0
 3789 02d5 52       		.uleb128 .LEHB98-.LCOLDB37
 3790 02d6 05       		.uleb128 .LEHE98-.LEHB98
 3791 02d7 00       		.uleb128 0
 3792 02d8 00       		.uleb128 0
 3793              	.LLSDACSEC1229:
 3794 02d9 01       		.byte	0x1
 3795 02da 00       		.byte	0
 3796 02db 00       		.align 4
 3797 02dc 00000000 		.long	0
 3798              	
 3799              	.LLSDATTC1229:
 3800              		.section	.text.unlikely
 3801              		.text
 3803              		.section	.text.unlikely
 3805              	.LCOLDE37:
 3806              		.text
 3807              	.LHOTE37:
 3808              		.section	.rodata.str1.8
 3809 0369 00000000 		.align 8
 3809      000000
 3810              	.LC38:
 3811 0370 556E6861 		.string	"Unhandled exception in CHECK_EQUAL(3, results.GetTotalTestCount())"
 3811      6E646C65 
 3811      64206578 
 3811      63657074 
 3811      696F6E20 
 3812              		.section	.text.unlikely
 3813 0681 90       		.align 2
 3814              	.LCOLDB39:
 3815              		.text
 3816              	.LHOTB39:
 3817 0d4b 90       		.align 2
 3818 0d4c 0F1F4000 		.p2align 4
 3820              	_ZNK12_GLOBAL__N_125TestRecordsNumbersOfTests7RunImplEv:
 3821              	.LFB1225:
 3822              		.cfi_startproc
 3823              		.cfi_personality 0x9b,DW.ref.__gxx_personality_v0
 3824              		.cfi_lsda 0x1b,.LLSDA1225
 3825 0d50 F30F1EFA 		endbr64
 3826 0d54 4154     		pushq	%r12
 3827              		.cfi_def_cfa_offset 16
 3828              		.cfi_offset 12, -16
 3829 0d56 31F6     		xorl	%esi, %esi
 3830 0d58 4C8D2500 		leaq	_ZN12_GLOBAL__N_1L7detailsE(%rip), %r12
 3830      000000
 3831 0d5f 55       		pushq	%rbp
 3832              		.cfi_def_cfa_offset 24
 3833              		.cfi_offset 6, -24
 3834 0d60 4883EC68 		subq	$104, %rsp
 3835              		.cfi_def_cfa_offset 128
 3836 0d64 64488B04 		movq	%fs:40, %rax
 3836      25280000 
 3836      00
 3837 0d6d 48894424 		movq	%rax, 88(%rsp)
 3837      58
 3838 0d72 31C0     		xorl	%eax, %eax
 3839 0d74 488D6C24 		leaq	16(%rsp), %rbp
 3839      10
 3840 0d79 4889EF   		movq	%rbp, %rdi
 3841              	.LEHB99:
 3842 0d7c E8000000 		call	_ZN8UnitTest11TestResultsC1EPNS_12TestReporterE@PLT
 3842      00
 3843 0d81 4C89E6   		movq	%r12, %rsi
 3844 0d84 4889EF   		movq	%rbp, %rdi
 3845 0d87 E8000000 		call	_ZN8UnitTest11TestResults11OnTestStartERKNS_11TestDetailsE@PLT
 3845      00
 3846 0d8c 4C89E6   		movq	%r12, %rsi
 3847 0d8f 4889EF   		movq	%rbp, %rdi
 3848 0d92 E8000000 		call	_ZN8UnitTest11TestResults11OnTestStartERKNS_11TestDetailsE@PLT
 3848      00
 3849 0d97 4C89E6   		movq	%r12, %rsi
 3850 0d9a 4889EF   		movq	%rbp, %rdi
 3851 0d9d E8000000 		call	_ZN8UnitTest11TestResults11OnTestStartERKNS_11TestDetailsE@PLT
 3851      00
 3852              	.LEHE99:
 3853              	.LEHB100:
 3854 0da2 E8000000 		call	_ZN8UnitTest11CurrentTest7DetailsEv@PLT
 3854      00
 3855 0da7 4C8D6424 		leaq	48(%rsp), %r12
 3855      30
 3856 0dac 488B30   		movq	(%rax), %rsi
 3857 0daf BA180000 		movl	$24, %edx
 3857      00
 3858 0db4 4C89E7   		movq	%r12, %rdi
 3859 0db7 E8000000 		call	_ZN8UnitTest11TestDetailsC1ERKS0_i@PLT
 3859      00
 3860 0dbc 4889EF   		movq	%rbp, %rdi
 3861 0dbf E8000000 		call	_ZNK8UnitTest11TestResults17GetTotalTestCountEv@PLT
 3861      00
 3862 0dc4 8944240C 		movl	%eax, 12(%rsp)
 3863 0dc8 C7442408 		movl	$3, 8(%rsp)
 3863      03000000 
 3864 0dd0 E8000000 		call	_ZN8UnitTest11CurrentTest7ResultsEv@PLT
 3864      00
 3865 0dd5 488B38   		movq	(%rax), %rdi
 3866 0dd8 488D5424 		leaq	12(%rsp), %rdx
 3866      0C
 3867 0ddd 488D7424 		leaq	8(%rsp), %rsi
 3867      08
 3868 0de2 4C89E1   		movq	%r12, %rcx
 3869 0de5 E8000000 		call	_ZN8UnitTest10CheckEqualIiiEEvRNS_11TestResultsERKT_RKT0_RKNS_11TestDetailsE
 3869      00
 3870              	.LEHE100:
 3871              	.L232:
 3872 0dea 488B4424 		movq	88(%rsp), %rax
 3872      58
 3873 0def 64482B04 		subq	%fs:40, %rax
 3873      25280000 
 3873      00
 3874 0df8 7508     		jne	.L240
 3875 0dfa 4883C468 		addq	$104, %rsp
 3876              		.cfi_remember_state
 3877              		.cfi_def_cfa_offset 24
 3878 0dfe 5D       		popq	%rbp
 3879              		.cfi_def_cfa_offset 16
 3880 0dff 415C     		popq	%r12
 3881              		.cfi_def_cfa_offset 8
 3882 0e01 C3       		ret
 3883              	.L240:
 3884              		.cfi_restore_state
 3885 0e02 E8000000 		call	__stack_chk_fail@PLT
 3885      00
 3886              	.L237:
 3887 0e07 F30F1EFA 		endbr64
 3888 0e0b 4889C7   		movq	%rax, %rdi
 3889 0e0e E9000000 		jmp	.L233
 3889      00
 3890              		.section	.gcc_except_table
 3891              		.align 4
 3892              	.LLSDA1225:
 3893 02e0 FF       		.byte	0xff
 3894 02e1 9B       		.byte	0x9b
 3895 02e2 11       		.uleb128 .LLSDATT1225-.LLSDATTD1225
 3896              	.LLSDATTD1225:
 3897 02e3 01       		.byte	0x1
 3898 02e4 09       		.uleb128 .LLSDACSE1225-.LLSDACSB1225
 3899              	.LLSDACSB1225:
 3900 02e5 2C       		.uleb128 .LEHB99-.LFB1225
 3901 02e6 26       		.uleb128 .LEHE99-.LEHB99
 3902 02e7 00       		.uleb128 0
 3903 02e8 00       		.uleb128 0
 3904 02e9 52       		.uleb128 .LEHB100-.LFB1225
 3905 02ea 48       		.uleb128 .LEHE100-.LEHB100
 3906 02eb B701     		.uleb128 .L237-.LFB1225
 3907 02ed 01       		.uleb128 0x1
 3908              	.LLSDACSE1225:
 3909 02ee 01       		.byte	0x1
 3910 02ef 00       		.byte	0
 3911              		.align 4
 3912 02f0 00000000 		.long	0
 3913              	
 3914              	.LLSDATT1225:
 3915              		.text
 3916              		.cfi_endproc
 3917              		.section	.text.unlikely
 3918              		.cfi_startproc
 3919              		.cfi_personality 0x9b,DW.ref.__gxx_personality_v0
 3920              		.cfi_lsda 0x1b,.LLSDAC1225
 3922              	_ZNK12_GLOBAL__N_125TestRecordsNumbersOfTests7RunImplEv.cold:
 3923              	.LFSB1225:
 3924              	.L233:
 3925              		.cfi_def_cfa_offset 128
 3926              		.cfi_offset 6, -24
 3927              		.cfi_offset 12, -16
 3928 0682 E8000000 		call	__cxa_begin_catch@PLT
 3928      00
 3929              	.LEHB101:
 3930 0687 E8000000 		call	_ZN8UnitTest11CurrentTest7ResultsEv@PLT
 3930      00
 3931 068c 488B28   		movq	(%rax), %rbp
 3932 068f E8000000 		call	_ZN8UnitTest11CurrentTest7DetailsEv@PLT
 3932      00
 3933 0694 4C8D6424 		leaq	48(%rsp), %r12
 3933      30
 3934 0699 488B30   		movq	(%rax), %rsi
 3935 069c BA180000 		movl	$24, %edx
 3935      00
 3936 06a1 4C89E7   		movq	%r12, %rdi
 3937 06a4 E8000000 		call	_ZN8UnitTest11TestDetailsC1ERKS0_i@PLT
 3937      00
 3938 06a9 488D1500 		leaq	.LC38(%rip), %rdx
 3938      000000
 3939 06b0 4C89E6   		movq	%r12, %rsi
 3940 06b3 4889EF   		movq	%rbp, %rdi
 3941 06b6 E8000000 		call	_ZN8UnitTest11TestResults13OnTestFailureERKNS_11TestDetailsEPKc@PLT
 3941      00
 3942              	.LEHE101:
 3943              	.LEHB102:
 3944 06bb E8000000 		call	__cxa_end_catch@PLT
 3944      00
 3945              	.LEHE102:
 3946 06c0 E9000000 		jmp	.L232
 3946      00
 3947              	.L238:
 3948 06c5 F30F1EFA 		endbr64
 3949 06c9 4889C5   		movq	%rax, %rbp
 3950 06cc E8000000 		call	__cxa_end_catch@PLT
 3950      00
 3951 06d1 4889EF   		movq	%rbp, %rdi
 3952              	.LEHB103:
 3953 06d4 E8000000 		call	_Unwind_Resume@PLT
 3953      00
 3954              	.LEHE103:
 3955              		.cfi_endproc
 3956              	.LFE1225:
 3957              		.section	.gcc_except_table
 3958              		.align 4
 3959              	.LLSDAC1225:
 3960 02f4 FF       		.byte	0xff
 3961 02f5 9B       		.byte	0x9b
 3962 02f6 15       		.uleb128 .LLSDATTC1225-.LLSDATTDC1225
 3963              	.LLSDATTDC1225:
 3964 02f7 01       		.byte	0x1
 3965 02f8 0C       		.uleb128 .LLSDACSEC1225-.LLSDACSBC1225
 3966              	.LLSDACSBC1225:
 3967 02f9 05       		.uleb128 .LEHB101-.LCOLDB39
 3968 02fa 34       		.uleb128 .LEHE101-.LEHB101
 3969 02fb 43       		.uleb128 .L238-.LCOLDB39
 3970 02fc 00       		.uleb128 0
 3971 02fd 39       		.uleb128 .LEHB102-.LCOLDB39
 3972 02fe 05       		.uleb128 .LEHE102-.LEHB102
 3973 02ff 00       		.uleb128 0
 3974 0300 00       		.uleb128 0
 3975 0301 52       		.uleb128 .LEHB103-.LCOLDB39
 3976 0302 05       		.uleb128 .LEHE103-.LEHB103
 3977 0303 00       		.uleb128 0
 3978 0304 00       		.uleb128 0
 3979              	.LLSDACSEC1225:
 3980 0305 01       		.byte	0x1
 3981 0306 00       		.byte	0
 3982 0307 00       		.align 4
 3983 0308 00000000 		.long	0
 3984              	
 3985              	.LLSDATTC1225:
 3986              		.section	.text.unlikely
 3987              		.text
 3989              		.section	.text.unlikely
 3991              	.LCOLDE39:
 3992              		.text
 3993              	.LHOTE39:
 3994              		.section	.rodata.str1.8
 3995 03b3 00000000 		.align 8
 3995      00
 3996              	.LC40:
 3997 03b8 556E6861 		.string	"Unhandled exception in CHECK_EQUAL(0, results.GetTotalTestCount())"
 3997      6E646C65 
 3997      64206578 
 3997      63657074 
 3997      696F6E20 
 3998              		.section	.text.unlikely
 3999 06d9 90       		.align 2
 4000              	.LCOLDB41:
 4001              		.text
 4002              	.LHOTB41:
 4003 0e13 90       		.align 2
 4004 0e14 66662E0F 		.p2align 4
 4004      1F840000 
 4004      00000090 
 4006              	_ZNK12_GLOBAL__N_124TestStartsWithNoTestsRun7RunImplEv:
 4007              	.LFB1221:
 4008              		.cfi_startproc
 4009              		.cfi_personality 0x9b,DW.ref.__gxx_personality_v0
 4010              		.cfi_lsda 0x1b,.LLSDA1221
 4011 0e20 F30F1EFA 		endbr64
 4012 0e24 4154     		pushq	%r12
 4013              		.cfi_def_cfa_offset 16
 4014              		.cfi_offset 12, -16
 4015 0e26 31F6     		xorl	%esi, %esi
 4016 0e28 55       		pushq	%rbp
 4017              		.cfi_def_cfa_offset 24
 4018              		.cfi_offset 6, -24
 4019 0e29 4883EC68 		subq	$104, %rsp
 4020              		.cfi_def_cfa_offset 128
 4021 0e2d 64488B04 		movq	%fs:40, %rax
 4021      25280000 
 4021      00
 4022 0e36 48894424 		movq	%rax, 88(%rsp)
 4022      58
 4023 0e3b 31C0     		xorl	%eax, %eax
 4024 0e3d 488D6C24 		leaq	16(%rsp), %rbp
 4024      10
 4025 0e42 4889EF   		movq	%rbp, %rdi
 4026              	.LEHB104:
 4027 0e45 E8000000 		call	_ZN8UnitTest11TestResultsC1EPNS_12TestReporterE@PLT
 4027      00
 4028              	.LEHE104:
 4029              	.LEHB105:
 4030 0e4a E8000000 		call	_ZN8UnitTest11CurrentTest7DetailsEv@PLT
 4030      00
 4031 0e4f 4C8D6424 		leaq	48(%rsp), %r12
 4031      30
 4032 0e54 488B30   		movq	(%rax), %rsi
 4033 0e57 BA0F0000 		movl	$15, %edx
 4033      00
 4034 0e5c 4C89E7   		movq	%r12, %rdi
 4035 0e5f E8000000 		call	_ZN8UnitTest11TestDetailsC1ERKS0_i@PLT
 4035      00
 4036 0e64 4889EF   		movq	%rbp, %rdi
 4037 0e67 E8000000 		call	_ZNK8UnitTest11TestResults17GetTotalTestCountEv@PLT
 4037      00
 4038 0e6c 8944240C 		movl	%eax, 12(%rsp)
 4039 0e70 C7442408 		movl	$0, 8(%rsp)
 4039      00000000 
 4040 0e78 E8000000 		call	_ZN8UnitTest11CurrentTest7ResultsEv@PLT
 4040      00
 4041 0e7d 488B38   		movq	(%rax), %rdi
 4042 0e80 488D5424 		leaq	12(%rsp), %rdx
 4042      0C
 4043 0e85 488D7424 		leaq	8(%rsp), %rsi
 4043      08
 4044 0e8a 4C89E1   		movq	%r12, %rcx
 4045 0e8d E8000000 		call	_ZN8UnitTest10CheckEqualIiiEEvRNS_11TestResultsERKT_RKT0_RKNS_11TestDetailsE
 4045      00
 4046              	.LEHE105:
 4047              	.L241:
 4048 0e92 488B4424 		movq	88(%rsp), %rax
 4048      58
 4049 0e97 64482B04 		subq	%fs:40, %rax
 4049      25280000 
 4049      00
 4050 0ea0 7508     		jne	.L249
 4051 0ea2 4883C468 		addq	$104, %rsp
 4052              		.cfi_remember_state
 4053              		.cfi_def_cfa_offset 24
 4054 0ea6 5D       		popq	%rbp
 4055              		.cfi_def_cfa_offset 16
 4056 0ea7 415C     		popq	%r12
 4057              		.cfi_def_cfa_offset 8
 4058 0ea9 C3       		ret
 4059              	.L249:
 4060              		.cfi_restore_state
 4061 0eaa E8000000 		call	__stack_chk_fail@PLT
 4061      00
 4062              	.L246:
 4063 0eaf F30F1EFA 		endbr64
 4064 0eb3 4889C7   		movq	%rax, %rdi
 4065 0eb6 E9000000 		jmp	.L242
 4065      00
 4066              		.section	.gcc_except_table
 4067              		.align 4
 4068              	.LLSDA1221:
 4069 030c FF       		.byte	0xff
 4070 030d 9B       		.byte	0x9b
 4071 030e 11       		.uleb128 .LLSDATT1221-.LLSDATTD1221
 4072              	.LLSDATTD1221:
 4073 030f 01       		.byte	0x1
 4074 0310 09       		.uleb128 .LLSDACSE1221-.LLSDACSB1221
 4075              	.LLSDACSB1221:
 4076 0311 25       		.uleb128 .LEHB104-.LFB1221
 4077 0312 05       		.uleb128 .LEHE104-.LEHB104
 4078 0313 00       		.uleb128 0
 4079 0314 00       		.uleb128 0
 4080 0315 2A       		.uleb128 .LEHB105-.LFB1221
 4081 0316 48       		.uleb128 .LEHE105-.LEHB105
 4082 0317 8F01     		.uleb128 .L246-.LFB1221
 4083 0319 01       		.uleb128 0x1
 4084              	.LLSDACSE1221:
 4085 031a 01       		.byte	0x1
 4086 031b 00       		.byte	0
 4087              		.align 4
 4088 031c 00000000 		.long	0
 4089              	
 4090              	.LLSDATT1221:
 4091              		.text
 4092              		.cfi_endproc
 4093              		.section	.text.unlikely
 4094              		.cfi_startproc
 4095              		.cfi_personality 0x9b,DW.ref.__gxx_personality_v0
 4096              		.cfi_lsda 0x1b,.LLSDAC1221
 4098              	_ZNK12_GLOBAL__N_124TestStartsWithNoTestsRun7RunImplEv.cold:
 4099              	.LFSB1221:
 4100              	.L242:
 4101              		.cfi_def_cfa_offset 128
 4102              		.cfi_offset 6, -24
 4103              		.cfi_offset 12, -16
 4104 06da E8000000 		call	__cxa_begin_catch@PLT
 4104      00
 4105              	.LEHB106:
 4106 06df E8000000 		call	_ZN8UnitTest11CurrentTest7ResultsEv@PLT
 4106      00
 4107 06e4 488B28   		movq	(%rax), %rbp
 4108 06e7 E8000000 		call	_ZN8UnitTest11CurrentTest7DetailsEv@PLT
 4108      00
 4109 06ec 4C8D6424 		leaq	48(%rsp), %r12
 4109      30
 4110 06f1 488B30   		movq	(%rax), %rsi
 4111 06f4 BA0F0000 		movl	$15, %edx
 4111      00
 4112 06f9 4C89E7   		movq	%r12, %rdi
 4113 06fc E8000000 		call	_ZN8UnitTest11TestDetailsC1ERKS0_i@PLT
 4113      00
 4114 0701 488D1500 		leaq	.LC40(%rip), %rdx
 4114      000000
 4115 0708 4C89E6   		movq	%r12, %rsi
 4116 070b 4889EF   		movq	%rbp, %rdi
 4117 070e E8000000 		call	_ZN8UnitTest11TestResults13OnTestFailureERKNS_11TestDetailsEPKc@PLT
 4117      00
 4118              	.LEHE106:
 4119              	.LEHB107:
 4120 0713 E8000000 		call	__cxa_end_catch@PLT
 4120      00
 4121              	.LEHE107:
 4122 0718 E9000000 		jmp	.L241
 4122      00
 4123              	.L247:
 4124 071d F30F1EFA 		endbr64
 4125 0721 4889C5   		movq	%rax, %rbp
 4126 0724 E8000000 		call	__cxa_end_catch@PLT
 4126      00
 4127 0729 4889EF   		movq	%rbp, %rdi
 4128              	.LEHB108:
 4129 072c E8000000 		call	_Unwind_Resume@PLT
 4129      00
 4130              	.LEHE108:
 4131              		.cfi_endproc
 4132              	.LFE1221:
 4133              		.section	.gcc_except_table
 4134              		.align 4
 4135              	.LLSDAC1221:
 4136 0320 FF       		.byte	0xff
 4137 0321 9B       		.byte	0x9b
 4138 0322 15       		.uleb128 .LLSDATTC1221-.LLSDATTDC1221
 4139              	.LLSDATTDC1221:
 4140 0323 01       		.byte	0x1
 4141 0324 0C       		.uleb128 .LLSDACSEC1221-.LLSDACSBC1221
 4142              	.LLSDACSBC1221:
 4143 0325 05       		.uleb128 .LEHB106-.LCOLDB41
 4144 0326 34       		.uleb128 .LEHE106-.LEHB106
 4145 0327 43       		.uleb128 .L247-.LCOLDB41
 4146 0328 00       		.uleb128 0
 4147 0329 39       		.uleb128 .LEHB107-.LCOLDB41
 4148 032a 05       		.uleb128 .LEHE107-.LEHB107
 4149 032b 00       		.uleb128 0
 4150 032c 00       		.uleb128 0
 4151 032d 52       		.uleb128 .LEHB108-.LCOLDB41
 4152 032e 05       		.uleb128 .LEHE108-.LEHB108
 4153 032f 00       		.uleb128 0
 4154 0330 00       		.uleb128 0
 4155              	.LLSDACSEC1221:
 4156 0331 01       		.byte	0x1
 4157 0332 00       		.byte	0
 4158 0333 00       		.align 4
 4159 0334 00000000 		.long	0
 4160              	
 4161              	.LLSDATTC1221:
 4162              		.section	.text.unlikely
 4163              		.text
 4165              		.section	.text.unlikely
 4167              	.LCOLDE41:
 4168              		.text
 4169              	.LHOTE41:
 4170              		.section	.rodata.str1.1
 4171              	.LC46:
 4172 002b 202B2F2D 		.string	" +/- "
 4172      2000
 4173              		.section	.rodata.str1.8
 4174 03fb 00000000 		.align 8
 4174      00
 4175              	.LC48:
 4176 0400 556E6861 		.string	"Unhandled exception in CHECK_EQUAL(1, reporter.testFinishedCount)"
 4176      6E646C65 
 4176      64206578 
 4176      63657074 
 4176      696F6E20 
 4177 0442 00000000 		.align 8
 4177      0000
 4178              	.LC49:
 4179 0448 556E6861 		.string	"Unhandled exception in CHECK_EQUAL(\"testname\", reporter.lastFinishedTest)"
 4179      6E646C65 
 4179      64206578 
 4179      63657074 
 4179      696F6E20 
 4180 0492 00000000 		.align 8
 4180      0000
 4181              	.LC50:
 4182 0498 556E6861 		.string	"Unhandled exception in CHECK_EQUAL(\"suitename\", reporter.lastFinishedSuite)"
 4182      6E646C65 
 4182      64206578 
 4182      63657074 
 4182      696F6E20 
 4183 04e4 00000000 		.align 8
 4184              	.LC51:
 4185 04e8 556E6861 		.string	"Unhandled exception in CHECK_CLOSE(0.1234f, reporter.lastFinishedTestTime)"
 4185      6E646C65 
 4185      64206578 
 4185      63657074 
 4185      696F6E20 
 4186              		.section	.text.unlikely
 4187 0731 90       		.align 2
 4188              	.LCOLDB52:
 4189              		.text
 4190              	.LHOTB52:
 4191 0ebb 90       		.align 2
 4192 0ebc 0F1F4000 		.p2align 4
 4194              	_ZNK12_GLOBAL__N_129TestNotifiesReporterOfTestEnd7RunImplEv:
 4195              	.LFB1253:
 4196              		.cfi_startproc
 4197              		.cfi_personality 0x9b,DW.ref.__gxx_personality_v0
 4198              		.cfi_lsda 0x1b,.LLSDA1253
 4199 0ec0 F30F1EFA 		endbr64
 4200 0ec4 4157     		pushq	%r15
 4201              		.cfi_def_cfa_offset 16
 4202              		.cfi_offset 15, -16
 4203 0ec6 4156     		pushq	%r14
 4204              		.cfi_def_cfa_offset 24
 4205              		.cfi_offset 14, -24
 4206 0ec8 4155     		pushq	%r13
 4207              		.cfi_def_cfa_offset 32
 4208              		.cfi_offset 13, -32
 4209 0eca 4154     		pushq	%r12
 4210              		.cfi_def_cfa_offset 40
 4211              		.cfi_offset 12, -40
 4212 0ecc 55       		pushq	%rbp
 4213              		.cfi_def_cfa_offset 48
 4214              		.cfi_offset 6, -48
 4215 0ecd 53       		pushq	%rbx
 4216              		.cfi_def_cfa_offset 56
 4217              		.cfi_offset 3, -56
 4218 0ece 488D1D00 		leaq	16+_ZTV17RecordingReporter(%rip), %rbx
 4218      000000
 4219 0ed5 4881EC68 		subq	$2664, %rsp
 4219      0A0000
 4220              		.cfi_def_cfa_offset 2720
 4221 0edc 64488B04 		movq	%fs:40, %rax
 4221      25280000 
 4221      00
 4222 0ee5 48898424 		movq	%rax, 2648(%rsp)
 4222      580A0000 
 4223 0eed 31C0     		xorl	%eax, %eax
 4224 0eef 4C8DB424 		leaq	544(%rsp), %r14
 4224      20020000 
 4225 0ef7 488D6C24 		leaq	64(%rsp), %rbp
 4225      40
 4226 0efc 48899C24 		movq	%rbx, 544(%rsp)
 4226      20020000 
 4227 0f04 4C89F6   		movq	%r14, %rsi
 4228 0f07 4889EF   		movq	%rbp, %rdi
 4229 0f0a C7842428 		movl	$0, 552(%rsp)
 4229      02000000 
 4229      000000
 4230 0f15 C784242C 		movl	$0, 1068(%rsp)
 4230      04000000 
 4230      000000
 4231 0f20 C7842430 		movl	$0, 1328(%rsp)
 4231      05000000 
 4231      000000
 4232 0f2b C7842434 		movl	$0, 2100(%rsp)
 4232      08000000 
 4232      000000
 4233 0f36 48C78424 		movq	$0, 2616(%rsp)
 4233      380A0000 
 4233      00000000 
 4234 0f42 48C78424 		movq	$0, 2624(%rsp)
 4234      400A0000 
 4234      00000000 
 4235 0f4e C7842448 		movl	$0x00000000, 2632(%rsp)
 4235      0A000000 
 4235      000000
 4236 0f59 C684242C 		movb	$0, 556(%rsp)
 4236      02000000 
 4237 0f61 C684242C 		movb	$0, 812(%rsp)
 4237      03000000 
 4238 0f69 C6842430 		movb	$0, 1072(%rsp)
 4238      04000000 
 4239 0f71 C6842434 		movb	$0, 1332(%rsp)
 4239      05000000 
 4240 0f79 C6842434 		movb	$0, 1588(%rsp)
 4240      06000000 
 4241 0f81 C6842434 		movb	$0, 1844(%rsp)
 4241      07000000 
 4242 0f89 C6842438 		movb	$0, 2104(%rsp)
 4242      08000000 
 4243 0f91 C6842438 		movb	$0, 2360(%rsp)
 4243      09000000 
 4244              	.LEHB109:
 4245 0f99 E8000000 		call	_ZN8UnitTest11TestResultsC1EPNS_12TestReporterE@PLT
 4245      00
 4246 0f9e F30F1005 		movss	.LC42(%rip), %xmm0
 4246      00000000 
 4247 0fa6 488D3500 		leaq	_ZN12_GLOBAL__N_1L7detailsE(%rip), %rsi
 4247      000000
 4248 0fad 4889EF   		movq	%rbp, %rdi
 4249 0fb0 E8000000 		call	_ZN8UnitTest11TestResults12OnTestFinishERKNS_11TestDetailsEf@PLT
 4249      00
 4250              	.LEHE109:
 4251              	.LEHB110:
 4252 0fb5 E8000000 		call	_ZN8UnitTest11CurrentTest7DetailsEv@PLT
 4252      00
 4253 0fba 488D6C24 		leaq	96(%rsp), %rbp
 4253      60
 4254 0fbf 488B30   		movq	(%rax), %rsi
 4255 0fc2 BA680000 		movl	$104, %edx
 4255      00
 4256 0fc7 4889EF   		movq	%rbp, %rdi
 4257 0fca E8000000 		call	_ZN8UnitTest11TestDetailsC1ERKS0_i@PLT
 4257      00
 4258 0fcf C744243C 		movl	$1, 60(%rsp)
 4258      01000000 
 4259 0fd7 E8000000 		call	_ZN8UnitTest11CurrentTest7ResultsEv@PLT
 4259      00
 4260 0fdc 488B38   		movq	(%rax), %rdi
 4261 0fdf 488D9424 		leaq	2100(%rsp), %rdx
 4261      34080000 
 4262 0fe7 488D7424 		leaq	60(%rsp), %rsi
 4262      3C
 4263 0fec 4889E9   		movq	%rbp, %rcx
 4264 0fef E8000000 		call	_ZN8UnitTest10CheckEqualIiiEEvRNS_11TestResultsERKT_RKT0_RKNS_11TestDetailsE
 4264      00
 4265              	.LEHE110:
 4266              	.L264:
 4267              	.LEHB111:
 4268 0ff4 E8000000 		call	_ZN8UnitTest11CurrentTest7DetailsEv@PLT
 4268      00
 4269 0ff9 488B30   		movq	(%rax), %rsi
 4270 0ffc BA690000 		movl	$105, %edx
 4270      00
 4271 1001 4889EF   		movq	%rbp, %rdi
 4272 1004 E8000000 		call	_ZN8UnitTest11TestDetailsC1ERKS0_i@PLT
 4272      00
 4273 1009 E8000000 		call	_ZN8UnitTest11CurrentTest7ResultsEv@PLT
 4273      00
 4274 100e 488B38   		movq	(%rax), %rdi
 4275 1011 488D9424 		leaq	2360(%rsp), %rdx
 4275      38090000 
 4276 1019 4889E9   		movq	%rbp, %rcx
 4277 101c 488D3500 		leaq	.LC17(%rip), %rsi
 4277      000000
 4278 1023 E8000000 		call	_ZN8UnitTest10CheckEqualERNS_11TestResultsEPKcPcRKNS_11TestDetailsE@PLT
 4278      00
 4279              	.LEHE111:
 4280              	.L268:
 4281              	.LEHB112:
 4282 1028 E8000000 		call	_ZN8UnitTest11CurrentTest7DetailsEv@PLT
 4282      00
 4283 102d 488B30   		movq	(%rax), %rsi
 4284 1030 BA6A0000 		movl	$106, %edx
 4284      00
 4285 1035 4889EF   		movq	%rbp, %rdi
 4286 1038 E8000000 		call	_ZN8UnitTest11TestDetailsC1ERKS0_i@PLT
 4286      00
 4287 103d E8000000 		call	_ZN8UnitTest11CurrentTest7ResultsEv@PLT
 4287      00
 4288 1042 488B38   		movq	(%rax), %rdi
 4289 1045 488D9424 		leaq	2104(%rsp), %rdx
 4289      38080000 
 4290 104d 4889E9   		movq	%rbp, %rcx
 4291 1050 488D3500 		leaq	.LC18(%rip), %rsi
 4291      000000
 4292 1057 E8000000 		call	_ZN8UnitTest10CheckEqualERNS_11TestResultsEPKcPcRKNS_11TestDetailsE@PLT
 4292      00
 4293              	.LEHE112:
 4294              	.L271:
 4295              	.LEHB113:
 4296 105c E8000000 		call	_ZN8UnitTest11CurrentTest7DetailsEv@PLT
 4296      00
 4297 1061 488B30   		movq	(%rax), %rsi
 4298 1064 BA6B0000 		movl	$107, %edx
 4298      00
 4299 1069 4889EF   		movq	%rbp, %rdi
 4300 106c E8000000 		call	_ZN8UnitTest11TestDetailsC1ERKS0_i@PLT
 4300      00
 4301 1071 E8000000 		call	_ZN8UnitTest11CurrentTest7ResultsEv@PLT
 4301      00
 4302              	.LEHE113:
 4303 1076 F30F7E15 		movq	.LC11(%rip), %xmm2
 4303      00000000 
 4304 107e 488B00   		movq	(%rax), %rax
 4305 1081 F30F1084 		movss	2616(%rsp), %xmm0
 4305      24380A00 
 4305      00
 4306 108a 0F2F0500 		comiss	.LC43(%rip), %xmm0
 4306      000000
 4307 1091 0F161500 		movhps	.LC12(%rip), %xmm2
 4307      000000
 4308 1098 48890424 		movq	%rax, (%rsp)
 4309 109c 0F295424 		movaps	%xmm2, 16(%rsp)
 4309      10
 4310 10a1 7211     		jb	.L251
 4311 10a3 F30F100D 		movss	.LC44(%rip), %xmm1
 4311      00000000 
 4312 10ab 0F2FC8   		comiss	%xmm0, %xmm1
 4313 10ae 0F839A02 		jnb	.L261
 4313      0000
 4314              	.L251:
 4315 10b4 4C8DBC24 		leaq	272(%rsp), %r15
 4315      10010000 
 4316 10bc 4C89FF   		movq	%r15, %rdi
 4317 10bf E8000000 		call	_ZNSt8ios_baseC2Ev@PLT
 4317      00
 4318 10c4 31C0     		xorl	%eax, %eax
 4319 10c6 660FEFC0 		pxor	%xmm0, %xmm0
 4320 10ca 31F6     		xorl	%esi, %esi
 4321 10cc 66898424 		movw	%ax, 496(%rsp)
 4321      F0010000 
 4322 10d4 488D0500 		leaq	24+_ZTCN8UnitTest15MemoryOutStreamE0_So(%rip), %rax
 4322      000000
 4323 10db 4C89FF   		movq	%r15, %rdi
 4324 10de 48898424 		movq	%rax, 128(%rsp)
 4324      80000000 
 4325 10e6 4883C028 		addq	$40, %rax
 4326 10ea 48C78424 		movq	$0, 488(%rsp)
 4326      E8010000 
 4326      00000000 
 4327 10f6 48898424 		movq	%rax, 272(%rsp)
 4327      10010000 
 4328 10fe 0F118424 		movups	%xmm0, 504(%rsp)
 4328      F8010000 
 4329 1106 0F118424 		movups	%xmm0, 520(%rsp)
 4329      08020000 
 4330              	.LEHB114:
 4331 110e E8000000 		call	_ZNSt9basic_iosIcSt11char_traitsIcEE4initEPSt15basic_streambufIcS1_E@PLT
 4331      00
 4332              	.LEHE114:
 4333 1113 488D0500 		leaq	64+_ZTCN8UnitTest15MemoryOutStreamE0_NSt7__cxx1119basic_ostringstreamIcSt11char_traitsIcESaIc
 4333      000000
 4334 111a 660F6F5C 		movdqa	16(%rsp), %xmm3
 4334      2410
 4335 1120 660FEFC0 		pxor	%xmm0, %xmm0
 4336 1124 4C8DA424 		leaq	128(%rsp), %r12
 4336      80000000 
 4337 112c 48898424 		movq	%rax, 272(%rsp)
 4337      10010000 
 4338 1134 488D8424 		leaq	192(%rsp), %rax
 4338      C0000000 
 4339 113c 4C8DAC24 		leaq	136(%rsp), %r13
 4339      88000000 
 4340 1144 4889C7   		movq	%rax, %rdi
 4341 1147 48894424 		movq	%rax, 40(%rsp)
 4341      28
 4342 114c 0F299C24 		movaps	%xmm3, 128(%rsp)
 4342      80000000 
 4343 1154 0F298424 		movaps	%xmm0, 144(%rsp)
 4343      90000000 
 4344 115c 0F298424 		movaps	%xmm0, 160(%rsp)
 4344      A0000000 
 4345 1164 0F298424 		movaps	%xmm0, 176(%rsp)
 4345      B0000000 
 4346 116c E8000000 		call	_ZNSt6localeC1Ev@PLT
 4346      00
 4347 1171 488D0500 		leaq	16+_ZTVNSt7__cxx1115basic_stringbufIcSt11char_traitsIcESaIcEEE(%rip), %rax
 4347      000000
 4348 1178 C68424E0 		movb	$0, 224(%rsp)
 4348      00000000 
 4349 1180 4C89EE   		movq	%r13, %rsi
 4350 1183 48898424 		movq	%rax, 136(%rsp)
 4350      88000000 
 4351 118b 488D8424 		leaq	224(%rsp), %rax
 4351      E0000000 
 4352 1193 48894424 		movq	%rax, 16(%rsp)
 4352      10
 4353 1198 48898424 		movq	%rax, 208(%rsp)
 4353      D0000000 
 4354 11a0 488B8424 		movq	128(%rsp), %rax
 4354      80000000 
 4355 11a8 48C78424 		movq	$0, 216(%rsp)
 4355      D8000000 
 4355      00000000 
 4356 11b4 C78424C8 		movl	$16, 200(%rsp)
 4356      00000010 
 4356      000000
 4357 11bf 488B78E8 		movq	-24(%rax), %rdi
 4358 11c3 4C01E7   		addq	%r12, %rdi
 4359              	.LEHB115:
 4360 11c6 E8000000 		call	_ZNSt9basic_iosIcSt11char_traitsIcEE4initEPSt15basic_streambufIcS1_E@PLT
 4360      00
 4361              	.LEHE115:
 4362 11cb 488D0500 		leaq	24+_ZTVN8UnitTest15MemoryOutStreamE(%rip), %rax
 4362      000000
 4363 11d2 BA090000 		movl	$9, %edx
 4363      00
 4364 11d7 4C89E7   		movq	%r12, %rdi
 4365 11da 48C78424 		movq	$0, 248(%rsp)
 4365      F8000000 
 4365      00000000 
 4366 11e6 48898424 		movq	%rax, 128(%rsp)
 4366      80000000 
 4367 11ee 4883C028 		addq	$40, %rax
 4368 11f2 488D3500 		leaq	.LC9(%rip), %rsi
 4368      000000
 4369 11f9 48898424 		movq	%rax, 272(%rsp)
 4369      10010000 
 4370 1201 488D8424 		leaq	256(%rsp), %rax
 4370      00010000 
 4371 1209 48894424 		movq	%rax, 32(%rsp)
 4371      20
 4372 120e 48898424 		movq	%rax, 240(%rsp)
 4372      F0000000 
 4373 1216 C6842400 		movb	$0, 256(%rsp)
 4373      01000000 
 4374              	.LEHB116:
 4375 121e E8000000 		call	_ZSt16__ostream_insertIcSt11char_traitsIcEERSt13basic_ostreamIT_T0_ES6_PKS3_l@PLT
 4375      00
 4376 1223 F20F1005 		movsd	.LC45(%rip), %xmm0
 4376      00000000 
 4377 122b 4C89E7   		movq	%r12, %rdi
 4378 122e E8000000 		call	_ZNSo9_M_insertIdEERSoT_@PLT
 4378      00
 4379 1233 BA050000 		movl	$5, %edx
 4379      00
 4380 1238 488D3500 		leaq	.LC46(%rip), %rsi
 4380      000000
 4381 123f 4889C7   		movq	%rax, %rdi
 4382 1242 4989C5   		movq	%rax, %r13
 4383 1245 E8000000 		call	_ZSt16__ostream_insertIcSt11char_traitsIcEERSt13basic_ostreamIT_T0_ES6_PKS3_l@PLT
 4383      00
 4384 124a F20F1005 		movsd	.LC47(%rip), %xmm0
 4384      00000000 
 4385 1252 4C89EF   		movq	%r13, %rdi
 4386 1255 E8000000 		call	_ZNSo9_M_insertIdEERSoT_@PLT
 4386      00
 4387 125a BA090000 		movl	$9, %edx
 4387      00
 4388 125f 488D3500 		leaq	.LC10(%rip), %rsi
 4388      000000
 4389 1266 4889C7   		movq	%rax, %rdi
 4390 1269 4989C5   		movq	%rax, %r13
 4391 126c E8000000 		call	_ZSt16__ostream_insertIcSt11char_traitsIcEERSt13basic_ostreamIT_T0_ES6_PKS3_l@PLT
 4391      00
 4392 1271 660FEFC0 		pxor	%xmm0, %xmm0
 4393 1275 4C89EF   		movq	%r13, %rdi
 4394 1278 F30F5A84 		cvtss2sd	2616(%rsp), %xmm0
 4394      24380A00 
 4394      00
 4395 1281 E8000000 		call	_ZNSo9_M_insertIdEERSoT_@PLT
 4395      00
 4396 1286 4C89E7   		movq	%r12, %rdi
 4397 1289 E8000000 		call	_ZNK8UnitTest15MemoryOutStream7GetTextEv@PLT
 4397      00
 4398 128e 488B3C24 		movq	(%rsp), %rdi
 4399 1292 4889C2   		movq	%rax, %rdx
 4400 1295 4889EE   		movq	%rbp, %rsi
 4401 1298 E8000000 		call	_ZN8UnitTest11TestResults13OnTestFailureERKNS_11TestDetailsEPKc@PLT
 4401      00
 4402              	.LEHE116:
 4403 129d 488D0500 		leaq	24+_ZTVN8UnitTest15MemoryOutStreamE(%rip), %rax
 4403      000000
 4404 12a4 488BBC24 		movq	240(%rsp), %rdi
 4404      F0000000 
 4405 12ac F30F7E05 		movq	.LC11(%rip), %xmm0
 4405      00000000 
 4406 12b4 48898424 		movq	%rax, 128(%rsp)
 4406      80000000 
 4407 12bc 4883C028 		addq	$40, %rax
 4408 12c0 48898424 		movq	%rax, 272(%rsp)
 4408      10010000 
 4409 12c8 0F160500 		movhps	.LC13(%rip), %xmm0
 4409      000000
 4410 12cf 483B7C24 		cmpq	32(%rsp), %rdi
 4410      20
 4411 12d4 740E     		je	.L259
 4412 12d6 0F290424 		movaps	%xmm0, (%rsp)
 4413 12da E8000000 		call	_ZdlPv@PLT
 4413      00
 4414 12df 660F6F04 		movdqa	(%rsp), %xmm0
 4414      24
 4415              	.L259:
 4416 12e4 488D0500 		leaq	64+_ZTCN8UnitTest15MemoryOutStreamE0_NSt7__cxx1119basic_ostringstreamIcSt11char_traitsIcESaIc
 4416      000000
 4417 12eb 488BBC24 		movq	208(%rsp), %rdi
 4417      D0000000 
 4418 12f3 0F298424 		movaps	%xmm0, 128(%rsp)
 4418      80000000 
 4419 12fb 48898424 		movq	%rax, 272(%rsp)
 4419      10010000 
 4420 1303 483B7C24 		cmpq	16(%rsp), %rdi
 4420      10
 4421 1308 7405     		je	.L260
 4422 130a E8000000 		call	_ZdlPv@PLT
 4422      00
 4423              	.L260:
 4424 130f 488B7C24 		movq	40(%rsp), %rdi
 4424      28
 4425 1314 488D0500 		leaq	16+_ZTVSt15basic_streambufIcSt11char_traitsIcEE(%rip), %rax
 4425      000000
 4426 131b 48898424 		movq	%rax, 136(%rsp)
 4426      88000000 
 4427 1323 E8000000 		call	_ZNSt6localeD1Ev@PLT
 4427      00
 4428 1328 488D0500 		leaq	24+_ZTCN8UnitTest15MemoryOutStreamE0_So(%rip), %rax
 4428      000000
 4429 132f 4C89FF   		movq	%r15, %rdi
 4430 1332 48898424 		movq	%rax, 128(%rsp)
 4430      80000000 
 4431 133a 488D0500 		leaq	16+_ZTVSt9basic_iosIcSt11char_traitsIcEE(%rip), %rax
 4431      000000
 4432 1341 48898424 		movq	%rax, 272(%rsp)
 4432      10010000 
 4433              	.LEHB117:
 4434 1349 E8000000 		call	_ZNSt8ios_baseD2Ev@PLT
 4434      00
 4435              	.LEHE117:
 4436              	.L261:
 4437 134e 4C89F7   		movq	%r14, %rdi
 4438 1351 48899C24 		movq	%rbx, 544(%rsp)
 4438      20020000 
 4439              	.LEHB118:
 4440 1359 E8000000 		call	_ZN8UnitTest12TestReporterD2Ev@PLT
 4440      00
 4441              	.LEHE118:
 4442 135e 488B8424 		movq	2648(%rsp), %rax
 4442      580A0000 
 4443 1366 64482B04 		subq	%fs:40, %rax
 4443      25280000 
 4443      00
 4444 136f 7512     		jne	.L294
 4445 1371 4881C468 		addq	$2664, %rsp
 4445      0A0000
 4446              		.cfi_remember_state
 4447              		.cfi_def_cfa_offset 56
 4448 1378 5B       		popq	%rbx
 4449              		.cfi_def_cfa_offset 48
 4450 1379 5D       		popq	%rbp
 4451              		.cfi_def_cfa_offset 40
 4452 137a 415C     		popq	%r12
 4453              		.cfi_def_cfa_offset 32
 4454 137c 415D     		popq	%r13
 4455              		.cfi_def_cfa_offset 24
 4456 137e 415E     		popq	%r14
 4457              		.cfi_def_cfa_offset 16
 4458 1380 415F     		popq	%r15
 4459              		.cfi_def_cfa_offset 8
 4460 1382 C3       		ret
 4461              	.L294:
 4462              		.cfi_restore_state
 4463 1383 E8000000 		call	__stack_chk_fail@PLT
 4463      00
 4464              	.L284:
 4465 1388 F30F1EFA 		endbr64
 4466 138c 4989C5   		movq	%rax, %r13
 4467 138f E9000000 		jmp	.L262
 4467      00
 4468              	.L282:
 4469 1394 F30F1EFA 		endbr64
 4470 1398 4889C7   		movq	%rax, %rdi
 4471 139b E9000000 		jmp	.L258
 4471      00
 4472              	.L286:
 4473 13a0 F30F1EFA 		endbr64
 4474 13a4 4989C4   		movq	%rax, %r12
 4475 13a7 E9000000 		jmp	.L255
 4475      00
 4476              	.L285:
 4477 13ac F30F1EFA 		endbr64
 4478 13b0 4989C4   		movq	%rax, %r12
 4479 13b3 E9000000 		jmp	.L256
 4479      00
 4480              	.L280:
 4481 13b8 F30F1EFA 		endbr64
 4482 13bc 4889C7   		movq	%rax, %rdi
 4483 13bf E9000000 		jmp	.L270
 4483      00
 4484              	.L278:
 4485 13c4 F30F1EFA 		endbr64
 4486 13c8 4889C7   		movq	%rax, %rdi
 4487 13cb E9000000 		jmp	.L267
 4487      00
 4488              	.L276:
 4489 13d0 F30F1EFA 		endbr64
 4490 13d4 4889C7   		movq	%rax, %rdi
 4491 13d7 E9000000 		jmp	.L263
 4491      00
 4492              	.L288:
 4493 13dc F30F1EFA 		endbr64
 4494 13e0 E9000000 		jmp	.L289
 4494      00
 4495              		.section	.gcc_except_table
 4496              		.align 4
 4497              	.LLSDA1253:
 4498 0338 FF       		.byte	0xff
 4499 0339 9B       		.byte	0x9b
 4500 033a 45       		.uleb128 .LLSDATT1253-.LLSDATTD1253
 4501              	.LLSDATTD1253:
 4502 033b 01       		.byte	0x1
 4503 033c 3B       		.uleb128 .LLSDACSE1253-.LLSDACSB1253
 4504              	.LLSDACSB1253:
 4505 033d D901     		.uleb128 .LEHB109-.LFB1253
 4506 033f 1C       		.uleb128 .LEHE109-.LEHB109
 4507 0340 9C0A     		.uleb128 .L288-.LFB1253
 4508 0342 00       		.uleb128 0
 4509 0343 F501     		.uleb128 .LEHB110-.LFB1253
 4510 0345 3F       		.uleb128 .LEHE110-.LEHB110
 4511 0346 900A     		.uleb128 .L276-.LFB1253
 4512 0348 01       		.uleb128 0x1
 4513 0349 B402     		.uleb128 .LEHB111-.LFB1253
 4514 034b 34       		.uleb128 .LEHE111-.LEHB111
 4515 034c 840A     		.uleb128 .L278-.LFB1253
 4516 034e 01       		.uleb128 0x1
 4517 034f E802     		.uleb128 .LEHB112-.LFB1253
 4518 0351 34       		.uleb128 .LEHE112-.LEHB112
 4519 0352 F809     		.uleb128 .L280-.LFB1253
 4520 0354 01       		.uleb128 0x1
 4521 0355 9C03     		.uleb128 .LEHB113-.LFB1253
 4522 0357 1A       		.uleb128 .LEHE113-.LEHB113
 4523 0358 D409     		.uleb128 .L282-.LFB1253
 4524 035a 01       		.uleb128 0x1
 4525 035b CE04     		.uleb128 .LEHB114-.LFB1253
 4526 035d 05       		.uleb128 .LEHE114-.LEHB114
 4527 035e EC09     		.uleb128 .L285-.LFB1253
 4528 0360 01       		.uleb128 0x1
 4529 0361 8606     		.uleb128 .LEHB115-.LFB1253
 4530 0363 05       		.uleb128 .LEHE115-.LEHB115
 4531 0364 E009     		.uleb128 .L286-.LFB1253
 4532 0366 01       		.uleb128 0x1
 4533 0367 DE06     		.uleb128 .LEHB116-.LFB1253
 4534 0369 7F       		.uleb128 .LEHE116-.LEHB116
 4535 036a C809     		.uleb128 .L284-.LFB1253
 4536 036c 01       		.uleb128 0x1
 4537 036d 8909     		.uleb128 .LEHB117-.LFB1253
 4538 036f 05       		.uleb128 .LEHE117-.LEHB117
 4539 0370 D409     		.uleb128 .L282-.LFB1253
 4540 0372 01       		.uleb128 0x1
 4541 0373 9909     		.uleb128 .LEHB118-.LFB1253
 4542 0375 05       		.uleb128 .LEHE118-.LEHB118
 4543 0376 00       		.uleb128 0
 4544 0377 00       		.uleb128 0
 4545              	.LLSDACSE1253:
 4546 0378 01       		.byte	0x1
 4547 0379 00       		.byte	0
 4548 037a 0000     		.align 4
 4549 037c 00000000 		.long	0
 4550              	
 4551              	.LLSDATT1253:
 4552              		.text
 4553              		.cfi_endproc
 4554              		.section	.text.unlikely
 4555              		.cfi_startproc
 4556              		.cfi_personality 0x9b,DW.ref.__gxx_personality_v0
 4557              		.cfi_lsda 0x1b,.LLSDAC1253
 4559              	_ZNK12_GLOBAL__N_129TestNotifiesReporterOfTestEnd7RunImplEv.cold:
 4560              	.LFSB1253:
 4561              	.L262:
 4562              		.cfi_def_cfa_offset 2720
 4563              		.cfi_offset 3, -56
 4564              		.cfi_offset 6, -48
 4565              		.cfi_offset 12, -40
 4566              		.cfi_offset 13, -32
 4567              		.cfi_offset 14, -24
 4568              		.cfi_offset 15, -16
 4569 0732 4C89E7   		movq	%r12, %rdi
 4570 0735 E8000000 		call	_ZN8UnitTest15MemoryOutStreamD1Ev
 4570      00
 4571 073a 4C89EF   		movq	%r13, %rdi
 4572              	.L258:
 4573 073d E8000000 		call	__cxa_begin_catch@PLT
 4573      00
 4574              	.LEHB119:
 4575 0742 E8000000 		call	_ZN8UnitTest11CurrentTest7ResultsEv@PLT
 4575      00
 4576 0747 4C8B20   		movq	(%rax), %r12
 4577 074a E8000000 		call	_ZN8UnitTest11CurrentTest7DetailsEv@PLT
 4577      00
 4578 074f 488B30   		movq	(%rax), %rsi
 4579 0752 BA6B0000 		movl	$107, %edx
 4579      00
 4580 0757 4889EF   		movq	%rbp, %rdi
 4581 075a E8000000 		call	_ZN8UnitTest11TestDetailsC1ERKS0_i@PLT
 4581      00
 4582 075f 488D1500 		leaq	.LC51(%rip), %rdx
 4582      000000
 4583 0766 4889EE   		movq	%rbp, %rsi
 4584 0769 4C89E7   		movq	%r12, %rdi
 4585 076c E8000000 		call	_ZN8UnitTest11TestResults13OnTestFailureERKNS_11TestDetailsEPKc@PLT
 4585      00
 4586              	.LEHE119:
 4587              	.LEHB120:
 4588 0771 E8000000 		call	__cxa_end_catch@PLT
 4588      00
 4589              	.LEHE120:
 4590 0776 E9000000 		jmp	.L261
 4590      00
 4591              	.L255:
 4592 077b 4C89EF   		movq	%r13, %rdi
 4593 077e E8000000 		call	_ZNSt7__cxx1115basic_stringbufIcSt11char_traitsIcESaIcEED1Ev
 4593      00
 4594 0783 488D0500 		leaq	24+_ZTCN8UnitTest15MemoryOutStreamE0_So(%rip), %rax
 4594      000000
 4595 078a 48898424 		movq	%rax, 128(%rsp)
 4595      80000000 
 4596              	.L256:
 4597 0792 488D0500 		leaq	16+_ZTVSt9basic_iosIcSt11char_traitsIcEE(%rip), %rax
 4597      000000
 4598 0799 4C89FF   		movq	%r15, %rdi
 4599 079c 48898424 		movq	%rax, 272(%rsp)
 4599      10010000 
 4600 07a4 E8000000 		call	_ZNSt8ios_baseD2Ev@PLT
 4600      00
 4601 07a9 4C89E7   		movq	%r12, %rdi
 4602 07ac EB8F     		jmp	.L258
 4603              	.L275:
 4604 07ae F30F1EFA 		endbr64
 4605              	.L289:
 4606 07b2 4889C5   		movq	%rax, %rbp
 4607 07b5 EB0C     		jmp	.L266
 4608              	.L283:
 4609 07b7 F30F1EFA 		endbr64
 4610 07bb 4889C5   		movq	%rax, %rbp
 4611 07be E8000000 		call	__cxa_end_catch@PLT
 4611      00
 4612              	.L266:
 4613 07c3 4C89F7   		movq	%r14, %rdi
 4614 07c6 48899C24 		movq	%rbx, 544(%rsp)
 4614      20020000 
 4615 07ce E8000000 		call	_ZN8UnitTest12TestReporterD2Ev@PLT
 4615      00
 4616 07d3 4889EF   		movq	%rbp, %rdi
 4617              	.LEHB121:
 4618 07d6 E8000000 		call	_Unwind_Resume@PLT
 4618      00
 4619              	.LEHE121:
 4620              	.L270:
 4621 07db E8000000 		call	__cxa_begin_catch@PLT
 4621      00
 4622              	.LEHB122:
 4623 07e0 E8000000 		call	_ZN8UnitTest11CurrentTest7ResultsEv@PLT
 4623      00
 4624 07e5 4C8B20   		movq	(%rax), %r12
 4625 07e8 E8000000 		call	_ZN8UnitTest11CurrentTest7DetailsEv@PLT
 4625      00
 4626 07ed 488B30   		movq	(%rax), %rsi
 4627 07f0 BA6A0000 		movl	$106, %edx
 4627      00
 4628 07f5 4889EF   		movq	%rbp, %rdi
 4629 07f8 E8000000 		call	_ZN8UnitTest11TestDetailsC1ERKS0_i@PLT
 4629      00
 4630 07fd 488D1500 		leaq	.LC50(%rip), %rdx
 4630      000000
 4631 0804 4889EE   		movq	%rbp, %rsi
 4632 0807 4C89E7   		movq	%r12, %rdi
 4633 080a E8000000 		call	_ZN8UnitTest11TestResults13OnTestFailureERKNS_11TestDetailsEPKc@PLT
 4633      00
 4634              	.LEHE122:
 4635              	.LEHB123:
 4636 080f E8000000 		call	__cxa_end_catch@PLT
 4636      00
 4637              	.LEHE123:
 4638 0814 E9000000 		jmp	.L271
 4638      00
 4639              	.L267:
 4640 0819 E8000000 		call	__cxa_begin_catch@PLT
 4640      00
 4641              	.LEHB124:
 4642 081e E8000000 		call	_ZN8UnitTest11CurrentTest7ResultsEv@PLT
 4642      00
 4643 0823 4C8B20   		movq	(%rax), %r12
 4644 0826 E8000000 		call	_ZN8UnitTest11CurrentTest7DetailsEv@PLT
 4644      00
 4645 082b 488B30   		movq	(%rax), %rsi
 4646 082e BA690000 		movl	$105, %edx
 4646      00
 4647 0833 4889EF   		movq	%rbp, %rdi
 4648 0836 E8000000 		call	_ZN8UnitTest11TestDetailsC1ERKS0_i@PLT
 4648      00
 4649 083b 488D1500 		leaq	.LC49(%rip), %rdx
 4649      000000
 4650 0842 4889EE   		movq	%rbp, %rsi
 4651 0845 4C89E7   		movq	%r12, %rdi
 4652 0848 E8000000 		call	_ZN8UnitTest11TestResults13OnTestFailureERKNS_11TestDetailsEPKc@PLT
 4652      00
 4653              	.LEHE124:
 4654              	.LEHB125:
 4655 084d E8000000 		call	__cxa_end_catch@PLT
 4655      00
 4656              	.LEHE125:
 4657 0852 E9000000 		jmp	.L268
 4657      00
 4658              	.L281:
 4659 0857 F30F1EFA 		endbr64
 4660 085b 4889C5   		movq	%rax, %rbp
 4661 085e E8000000 		call	__cxa_end_catch@PLT
 4661      00
 4662 0863 E95BFFFF 		jmp	.L266
 4662      FF
 4663              	.L279:
 4664 0868 F30F1EFA 		endbr64
 4665 086c 4889C5   		movq	%rax, %rbp
 4666 086f E8000000 		call	__cxa_end_catch@PLT
 4666      00
 4667 0874 E94AFFFF 		jmp	.L266
 4667      FF
 4668              	.L263:
 4669 0879 E8000000 		call	__cxa_begin_catch@PLT
 4669      00
 4670              	.LEHB126:
 4671 087e E8000000 		call	_ZN8UnitTest11CurrentTest7ResultsEv@PLT
 4671      00
 4672 0883 4C8B20   		movq	(%rax), %r12
 4673 0886 E8000000 		call	_ZN8UnitTest11CurrentTest7DetailsEv@PLT
 4673      00
 4674 088b 488D6C24 		leaq	96(%rsp), %rbp
 4674      60
 4675 0890 488B30   		movq	(%rax), %rsi
 4676 0893 BA680000 		movl	$104, %edx
 4676      00
 4677 0898 4889EF   		movq	%rbp, %rdi
 4678 089b E8000000 		call	_ZN8UnitTest11TestDetailsC1ERKS0_i@PLT
 4678      00
 4679 08a0 488D1500 		leaq	.LC48(%rip), %rdx
 4679      000000
 4680 08a7 4889EE   		movq	%rbp, %rsi
 4681 08aa 4C89E7   		movq	%r12, %rdi
 4682 08ad E8000000 		call	_ZN8UnitTest11TestResults13OnTestFailureERKNS_11TestDetailsEPKc@PLT
 4682      00
 4683              	.LEHE126:
 4684              	.LEHB127:
 4685 08b2 E8000000 		call	__cxa_end_catch@PLT
 4685      00
 4686              	.LEHE127:
 4687 08b7 E9000000 		jmp	.L264
 4687      00
 4688              	.L277:
 4689 08bc F30F1EFA 		endbr64
 4690 08c0 4889C5   		movq	%rax, %rbp
 4691 08c3 E8000000 		call	__cxa_end_catch@PLT
 4691      00
 4692 08c8 E9F6FEFF 		jmp	.L266
 4692      FF
 4693              		.cfi_endproc
 4694              	.LFE1253:
 4695              		.section	.gcc_except_table
 4696              		.align 4
 4697              	.LLSDAC1253:
 4698 0380 FF       		.byte	0xff
 4699 0381 9B       		.byte	0x9b
 4700 0382 39       		.uleb128 .LLSDATTC1253-.LLSDATTDC1253
 4701              	.LLSDATTDC1253:
 4702 0383 01       		.byte	0x1
 4703 0384 2F       		.uleb128 .LLSDACSEC1253-.LLSDACSBC1253
 4704              	.LLSDACSBC1253:
 4705 0385 10       		.uleb128 .LEHB119-.LCOLDB52
 4706 0386 2F       		.uleb128 .LEHE119-.LEHB119
 4707 0387 8501     		.uleb128 .L283-.LCOLDB52
 4708 0389 00       		.uleb128 0
 4709 038a 3F       		.uleb128 .LEHB120-.LCOLDB52
 4710 038b 05       		.uleb128 .LEHE120-.LEHB120
 4711 038c 7C       		.uleb128 .L275-.LCOLDB52
 4712 038d 00       		.uleb128 0
 4713 038e A401     		.uleb128 .LEHB121-.LCOLDB52
 4714 0390 05       		.uleb128 .LEHE121-.LEHB121
 4715 0391 00       		.uleb128 0
 4716 0392 00       		.uleb128 0
 4717 0393 AE01     		.uleb128 .LEHB122-.LCOLDB52
 4718 0395 2F       		.uleb128 .LEHE122-.LEHB122
 4719 0396 A502     		.uleb128 .L281-.LCOLDB52
 4720 0398 00       		.uleb128 0
 4721 0399 DD01     		.uleb128 .LEHB123-.LCOLDB52
 4722 039b 05       		.uleb128 .LEHE123-.LEHB123
 4723 039c 7C       		.uleb128 .L275-.LCOLDB52
 4724 039d 00       		.uleb128 0
 4725 039e EC01     		.uleb128 .LEHB124-.LCOLDB52
 4726 03a0 2F       		.uleb128 .LEHE124-.LEHB124
 4727 03a1 B602     		.uleb128 .L279-.LCOLDB52
 4728 03a3 00       		.uleb128 0
 4729 03a4 9B02     		.uleb128 .LEHB125-.LCOLDB52
 4730 03a6 05       		.uleb128 .LEHE125-.LEHB125
 4731 03a7 7C       		.uleb128 .L275-.LCOLDB52
 4732 03a8 00       		.uleb128 0
 4733 03a9 CC02     		.uleb128 .LEHB126-.LCOLDB52
 4734 03ab 34       		.uleb128 .LEHE126-.LEHB126
 4735 03ac 8A03     		.uleb128 .L277-.LCOLDB52
 4736 03ae 00       		.uleb128 0
 4737 03af 8003     		.uleb128 .LEHB127-.LCOLDB52
 4738 03b1 05       		.uleb128 .LEHE127-.LEHB127
 4739 03b2 7C       		.uleb128 .L275-.LCOLDB52
 4740 03b3 00       		.uleb128 0
 4741              	.LLSDACSEC1253:
 4742 03b4 01       		.byte	0x1
 4743 03b5 00       		.byte	0
 4744 03b6 0000     		.align 4
 4745 03b8 00000000 		.long	0
 4746              	
 4747              	.LLSDATTC1253:
 4748              		.section	.text.unlikely
 4749              		.text
 4751              		.section	.text.unlikely
 4753              	.LCOLDE52:
 4754              		.text
 4755              	.LHOTE52:
 4756              		.section	.rodata.str1.1
 4757              	.LC53:
 4758 0031 54657374 		.string	"TestTestResults.cpp"
 4758      54657374 
 4758      52657375 
 4758      6C74732E 
 4758      63707000 
 4759              	.LC54:
 4760 0045 44656661 		.string	"DefaultSuite"
 4760      756C7453 
 4760      75697465 
 4760      00
 4761              	.LC55:
 4762 0052 53746172 		.string	"StartsWithNoTestsRun"
 4762      74735769 
 4762      74684E6F 
 4762      54657374 
 4762      7352756E 
 4763              	.LC56:
 4764 0067 5265636F 		.string	"RecordsNumbersOfTests"
 4764      7264734E 
 4764      756D6265 
 4764      72734F66 
 4764      54657374 
 4765              	.LC57:
 4766 007d 53746172 		.string	"StartsWithNoTestsFailing"
 4766      74735769 
 4766      74684E6F 
 4766      54657374 
 4766      73466169 
 4767              	.LC58:
 4768 0096 5265636F 		.string	"RecordsNumberOfFailures"
 4768      7264734E 
 4768      756D6265 
 4768      724F6646 
 4768      61696C75 
 4769              	.LC59:
 4770 00ae 5265636F 		.string	"RecordsNumberOfFailedTests"
 4770      7264734E 
 4770      756D6265 
 4770      724F6646 
 4770      61696C65 
 4771              		.section	.rodata.str1.8
 4772 0533 00000000 		.align 8
 4772      00
 4773              	.LC60:
 4774 0538 4E6F7469 		.string	"NotifiesReporterOfTestStartWithCorrectInfo"
 4774      66696573 
 4774      5265706F 
 4774      72746572 
 4774      4F665465 
 4775 0563 00000000 		.align 8
 4775      00
 4776              	.LC61:
 4777 0568 4E6F7469 		.string	"NotifiesReporterOfTestFailureWithCorrectInfo"
 4777      66696573 
 4777      5265706F 
 4777      72746572 
 4777      4F665465 
 4778 0595 000000   		.align 8
 4779              	.LC62:
 4780 0598 4E6F7469 		.string	"NotifiesReporterOfCheckFailureWithCorrectInfo"
 4780      66696573 
 4780      5265706F 
 4780      72746572 
 4780      4F664368 
 4781              		.section	.rodata.str1.1
 4782              	.LC63:
 4783 00c9 4E6F7469 		.string	"NotifiesReporterOfTestEnd"
 4783      66696573 
 4783      5265706F 
 4783      72746572 
 4783      4F665465 
 4784              		.section	.text.startup,"ax",@progbits
 4785              		.p2align 4
 4787              	_GLOBAL__sub_I_TestTestResults.cpp:
 4788              	.LFB1382:
 4789              		.cfi_startproc
 4790 0000 F30F1EFA 		endbr64
 4791 0004 4157     		pushq	%r15
 4792              		.cfi_def_cfa_offset 16
 4793              		.cfi_offset 15, -16
 4794 0006 41B87B00 		movl	$123, %r8d
 4794      0000
 4795 000c 4C8D3D00 		leaq	_ZN12_GLOBAL__N_132testStartsWithNoTestsRunInstanceE(%rip), %r15
 4795      000000
 4796 0013 488D0D00 		leaq	.LC16(%rip), %rcx
 4796      000000
 4797 001a 4156     		pushq	%r14
 4798              		.cfi_def_cfa_offset 24
 4799              		.cfi_offset 14, -24
 4800 001c 488D1500 		leaq	.LC18(%rip), %rdx
 4800      000000
 4801 0023 4C8D3500 		leaq	.LC53(%rip), %r14
 4801      000000
 4802 002a 4155     		pushq	%r13
 4803              		.cfi_def_cfa_offset 32
 4804              		.cfi_offset 13, -32
 4805 002c 488D3500 		leaq	.LC17(%rip), %rsi
 4805      000000
 4806 0033 4C8D2D00 		leaq	.LC54(%rip), %r13
 4806      000000
 4807 003a 4154     		pushq	%r12
 4808              		.cfi_def_cfa_offset 40
 4809              		.cfi_offset 12, -40
 4810 003c 488D3D00 		leaq	_ZN12_GLOBAL__N_1L7detailsE(%rip), %rdi
 4810      000000
 4811 0043 4C8D2500 		leaq	__dso_handle(%rip), %r12
 4811      000000
 4812 004a 4883EC08 		subq	$8, %rsp
 4813              		.cfi_def_cfa_offset 48
 4814 004e E8000000 		call	_ZN8UnitTest11TestDetailsC1EPKcS2_S2_i@PLT
 4814      00
 4815 0053 4C89F1   		movq	%r14, %rcx
 4816 0056 4C89EA   		movq	%r13, %rdx
 4817 0059 4C89FF   		movq	%r15, %rdi
 4818 005c 41B80C00 		movl	$12, %r8d
 4818      0000
 4819 0062 488D3500 		leaq	.LC55(%rip), %rsi
 4819      000000
 4820 0069 E8000000 		call	_ZN8UnitTest4TestC2EPKcS2_S2_i@PLT
 4820      00
 4821 006e 4C89E2   		movq	%r12, %rdx
 4822 0071 4C89FE   		movq	%r15, %rsi
 4823 0074 488D3D00 		leaq	_ZN12_GLOBAL__N_124TestStartsWithNoTestsRunD1Ev(%rip), %rdi
 4823      000000
 4824 007b 488D0500 		leaq	16+_ZTVN12_GLOBAL__N_124TestStartsWithNoTestsRunE(%rip), %rax
 4824      000000
 4825 0082 48890500 		movq	%rax, _ZN12_GLOBAL__N_132testStartsWithNoTestsRunInstanceE(%rip)
 4825      000000
 4826 0089 E8000000 		call	__cxa_atexit@PLT
 4826      00
 4827 008e E8000000 		call	_ZN8UnitTest4Test11GetTestListEv@PLT
 4827      00
 4828 0093 4C89FA   		movq	%r15, %rdx
 4829 0096 488D3D00 		leaq	_ZN12_GLOBAL__N_125adderStartsWithNoTestsRunE(%rip), %rdi
 4829      000000
 4830 009d 4C8D3D00 		leaq	_ZN12_GLOBAL__N_133testRecordsNumbersOfTestsInstanceE(%rip), %r15
 4830      000000
 4831 00a4 4889C6   		movq	%rax, %rsi
 4832 00a7 E8000000 		call	_ZN8UnitTest9ListAdderC1ERNS_8TestListEPNS_4TestE@PLT
 4832      00
 4833 00ac 4C89F1   		movq	%r14, %rcx
 4834 00af 4C89EA   		movq	%r13, %rdx
 4835 00b2 4C89FF   		movq	%r15, %rdi
 4836 00b5 41B81200 		movl	$18, %r8d
 4836      0000
 4837 00bb 488D3500 		leaq	.LC56(%rip), %rsi
 4837      000000
 4838 00c2 E8000000 		call	_ZN8UnitTest4TestC2EPKcS2_S2_i@PLT
 4838      00
 4839 00c7 4C89E2   		movq	%r12, %rdx
 4840 00ca 4C89FE   		movq	%r15, %rsi
 4841 00cd 488D3D00 		leaq	_ZN12_GLOBAL__N_125TestRecordsNumbersOfTestsD1Ev(%rip), %rdi
 4841      000000
 4842 00d4 488D0500 		leaq	16+_ZTVN12_GLOBAL__N_125TestRecordsNumbersOfTestsE(%rip), %rax
 4842      000000
 4843 00db 48890500 		movq	%rax, _ZN12_GLOBAL__N_133testRecordsNumbersOfTestsInstanceE(%rip)
 4843      000000
 4844 00e2 E8000000 		call	__cxa_atexit@PLT
 4844      00
 4845 00e7 E8000000 		call	_ZN8UnitTest4Test11GetTestListEv@PLT
 4845      00
 4846 00ec 4C89FA   		movq	%r15, %rdx
 4847 00ef 488D3D00 		leaq	_ZN12_GLOBAL__N_126adderRecordsNumbersOfTestsE(%rip), %rdi
 4847      000000
 4848 00f6 4C8D3D00 		leaq	_ZN12_GLOBAL__N_136testStartsWithNoTestsFailingInstanceE(%rip), %r15
 4848      000000
 4849 00fd 4889C6   		movq	%rax, %rsi
 4850 0100 E8000000 		call	_ZN8UnitTest9ListAdderC1ERNS_8TestListEPNS_4TestE@PLT
 4850      00
 4851 0105 4C89F1   		movq	%r14, %rcx
 4852 0108 4C89EA   		movq	%r13, %rdx
 4853 010b 4C89FF   		movq	%r15, %rdi
 4854 010e 41B81B00 		movl	$27, %r8d
 4854      0000
 4855 0114 488D3500 		leaq	.LC57(%rip), %rsi
 4855      000000
 4856 011b E8000000 		call	_ZN8UnitTest4TestC2EPKcS2_S2_i@PLT
 4856      00
 4857 0120 4C89E2   		movq	%r12, %rdx
 4858 0123 4C89FE   		movq	%r15, %rsi
 4859 0126 488D3D00 		leaq	_ZN12_GLOBAL__N_128TestStartsWithNoTestsFailingD1Ev(%rip), %rdi
 4859      000000
 4860 012d 488D0500 		leaq	16+_ZTVN12_GLOBAL__N_128TestStartsWithNoTestsFailingE(%rip), %rax
 4860      000000
 4861 0134 48890500 		movq	%rax, _ZN12_GLOBAL__N_136testStartsWithNoTestsFailingInstanceE(%rip)
 4861      000000
 4862 013b E8000000 		call	__cxa_atexit@PLT
 4862      00
 4863 0140 E8000000 		call	_ZN8UnitTest4Test11GetTestListEv@PLT
 4863      00
 4864 0145 4C89FA   		movq	%r15, %rdx
 4865 0148 488D3D00 		leaq	_ZN12_GLOBAL__N_129adderStartsWithNoTestsFailingE(%rip), %rdi
 4865      000000
 4866 014f 4C8D3D00 		leaq	_ZN12_GLOBAL__N_135testRecordsNumberOfFailuresInstanceE(%rip), %r15
 4866      000000
 4867 0156 4889C6   		movq	%rax, %rsi
 4868 0159 E8000000 		call	_ZN8UnitTest9ListAdderC1ERNS_8TestListEPNS_4TestE@PLT
 4868      00
 4869 015e 4C89F1   		movq	%r14, %rcx
 4870 0161 4C89EA   		movq	%r13, %rdx
 4871 0164 4C89FF   		movq	%r15, %rdi
 4872 0167 41B82100 		movl	$33, %r8d
 4872      0000
 4873 016d 488D3500 		leaq	.LC58(%rip), %rsi
 4873      000000
 4874 0174 E8000000 		call	_ZN8UnitTest4TestC2EPKcS2_S2_i@PLT
 4874      00
 4875 0179 4C89E2   		movq	%r12, %rdx
 4876 017c 4C89FE   		movq	%r15, %rsi
 4877 017f 488D3D00 		leaq	_ZN12_GLOBAL__N_127TestRecordsNumberOfFailuresD1Ev(%rip), %rdi
 4877      000000
 4878 0186 488D0500 		leaq	16+_ZTVN12_GLOBAL__N_127TestRecordsNumberOfFailuresE(%rip), %rax
 4878      000000
 4879 018d 48890500 		movq	%rax, _ZN12_GLOBAL__N_135testRecordsNumberOfFailuresInstanceE(%rip)
 4879      000000
 4880 0194 E8000000 		call	__cxa_atexit@PLT
 4880      00
 4881 0199 E8000000 		call	_ZN8UnitTest4Test11GetTestListEv@PLT
 4881      00
 4882 019e 4C89FA   		movq	%r15, %rdx
 4883 01a1 488D3D00 		leaq	_ZN12_GLOBAL__N_128adderRecordsNumberOfFailuresE(%rip), %rdi
 4883      000000
 4884 01a8 4C8D3D00 		leaq	_ZN12_GLOBAL__N_138testRecordsNumberOfFailedTestsInstanceE(%rip), %r15
 4884      000000
 4885 01af 4889C6   		movq	%rax, %rsi
 4886 01b2 E8000000 		call	_ZN8UnitTest9ListAdderC1ERNS_8TestListEPNS_4TestE@PLT
 4886      00
 4887 01b7 4C89F1   		movq	%r14, %rcx
 4888 01ba 4C89EA   		movq	%r13, %rdx
 4889 01bd 4C89FF   		movq	%r15, %rdi
 4890 01c0 41B82900 		movl	$41, %r8d
 4890      0000
 4891 01c6 488D3500 		leaq	.LC59(%rip), %rsi
 4891      000000
 4892 01cd E8000000 		call	_ZN8UnitTest4TestC2EPKcS2_S2_i@PLT
 4892      00
 4893 01d2 4C89E2   		movq	%r12, %rdx
 4894 01d5 4C89FE   		movq	%r15, %rsi
 4895 01d8 488D3D00 		leaq	_ZN12_GLOBAL__N_130TestRecordsNumberOfFailedTestsD1Ev(%rip), %rdi
 4895      000000
 4896 01df 488D0500 		leaq	16+_ZTVN12_GLOBAL__N_130TestRecordsNumberOfFailedTestsE(%rip), %rax
 4896      000000
 4897 01e6 48890500 		movq	%rax, _ZN12_GLOBAL__N_138testRecordsNumberOfFailedTestsInstanceE(%rip)
 4897      000000
 4898 01ed E8000000 		call	__cxa_atexit@PLT
 4898      00
 4899 01f2 E8000000 		call	_ZN8UnitTest4Test11GetTestListEv@PLT
 4899      00
 4900 01f7 4C89FA   		movq	%r15, %rdx
 4901 01fa 488D3D00 		leaq	_ZN12_GLOBAL__N_131adderRecordsNumberOfFailedTestsE(%rip), %rdi
 4901      000000
 4902 0201 4C8D3D00 		leaq	_ZN12_GLOBAL__N_154testNotifiesReporterOfTestStartWithCorrectInfoInstanceE(%rip), %r15
 4902      000000
 4903 0208 4889C6   		movq	%rax, %rsi
 4904 020b E8000000 		call	_ZN8UnitTest9ListAdderC1ERNS_8TestListEPNS_4TestE@PLT
 4904      00
 4905 0210 4C89F1   		movq	%r14, %rcx
 4906 0213 4C89EA   		movq	%r13, %rdx
 4907 0216 4C89FF   		movq	%r15, %rdi
 4908 0219 41B83A00 		movl	$58, %r8d
 4908      0000
 4909 021f 488D3500 		leaq	.LC60(%rip), %rsi
 4909      000000
 4910 0226 E8000000 		call	_ZN8UnitTest4TestC2EPKcS2_S2_i@PLT
 4910      00
 4911 022b 4C89E2   		movq	%r12, %rdx
 4912 022e 4C89FE   		movq	%r15, %rsi
 4913 0231 488D3D00 		leaq	_ZN12_GLOBAL__N_146TestNotifiesReporterOfTestStartWithCorrectInfoD1Ev(%rip), %rdi
 4913      000000
 4914 0238 488D0500 		leaq	16+_ZTVN12_GLOBAL__N_146TestNotifiesReporterOfTestStartWithCorrectInfoE(%rip), %rax
 4914      000000
 4915 023f 48890500 		movq	%rax, _ZN12_GLOBAL__N_154testNotifiesReporterOfTestStartWithCorrectInfoInstanceE(%rip)
 4915      000000
 4916 0246 E8000000 		call	__cxa_atexit@PLT
 4916      00
 4917 024b E8000000 		call	_ZN8UnitTest4Test11GetTestListEv@PLT
 4917      00
 4918 0250 4C89FA   		movq	%r15, %rdx
 4919 0253 488D3D00 		leaq	_ZN12_GLOBAL__N_147adderNotifiesReporterOfTestStartWithCorrectInfoE(%rip), %rdi
 4919      000000
 4920 025a 4C8D3D00 		leaq	_ZN12_GLOBAL__N_156testNotifiesReporterOfTestFailureWithCorrectInfoInstanceE(%rip), %r15
 4920      000000
 4921 0261 4889C6   		movq	%rax, %rsi
 4922 0264 E8000000 		call	_ZN8UnitTest9ListAdderC1ERNS_8TestListEPNS_4TestE@PLT
 4922      00
 4923 0269 4C89F1   		movq	%r14, %rcx
 4924 026c 4C89EA   		movq	%r13, %rdx
 4925 026f 4C89FF   		movq	%r15, %rdi
 4926 0272 41B84500 		movl	$69, %r8d
 4926      0000
 4927 0278 488D3500 		leaq	.LC61(%rip), %rsi
 4927      000000
 4928 027f E8000000 		call	_ZN8UnitTest4TestC2EPKcS2_S2_i@PLT
 4928      00
 4929 0284 4C89E2   		movq	%r12, %rdx
 4930 0287 4C89FE   		movq	%r15, %rsi
 4931 028a 488D3D00 		leaq	_ZN12_GLOBAL__N_148TestNotifiesReporterOfTestFailureWithCorrectInfoD1Ev(%rip), %rdi
 4931      000000
 4932 0291 488D0500 		leaq	16+_ZTVN12_GLOBAL__N_148TestNotifiesReporterOfTestFailureWithCorrectInfoE(%rip), %rax
 4932      000000
 4933 0298 48890500 		movq	%rax, _ZN12_GLOBAL__N_156testNotifiesReporterOfTestFailureWithCorrectInfoInstanceE(%rip)
 4933      000000
 4934 029f E8000000 		call	__cxa_atexit@PLT
 4934      00
 4935 02a4 E8000000 		call	_ZN8UnitTest4Test11GetTestListEv@PLT
 4935      00
 4936 02a9 4C89FA   		movq	%r15, %rdx
 4937 02ac 488D3D00 		leaq	_ZN12_GLOBAL__N_149adderNotifiesReporterOfTestFailureWithCorrectInfoE(%rip), %rdi
 4937      000000
 4938 02b3 4C8D3D00 		leaq	_ZN12_GLOBAL__N_157testNotifiesReporterOfCheckFailureWithCorrectInfoInstanceE(%rip), %r15
 4938      000000
 4939 02ba 4889C6   		movq	%rax, %rsi
 4940 02bd E8000000 		call	_ZN8UnitTest9ListAdderC1ERNS_8TestListEPNS_4TestE@PLT
 4940      00
 4941 02c2 4C89F1   		movq	%r14, %rcx
 4942 02c5 4C89EA   		movq	%r13, %rdx
 4943 02c8 4C89FF   		movq	%r15, %rdi
 4944 02cb 41B85300 		movl	$83, %r8d
 4944      0000
 4945 02d1 488D3500 		leaq	.LC62(%rip), %rsi
 4945      000000
 4946 02d8 E8000000 		call	_ZN8UnitTest4TestC2EPKcS2_S2_i@PLT
 4946      00
 4947 02dd 4C89E2   		movq	%r12, %rdx
 4948 02e0 4C89FE   		movq	%r15, %rsi
 4949 02e3 488D3D00 		leaq	_ZN12_GLOBAL__N_149TestNotifiesReporterOfCheckFailureWithCorrectInfoD1Ev(%rip), %rdi
 4949      000000
 4950 02ea 488D0500 		leaq	16+_ZTVN12_GLOBAL__N_149TestNotifiesReporterOfCheckFailureWithCorrectInfoE(%rip), %rax
 4950      000000
 4951 02f1 48890500 		movq	%rax, _ZN12_GLOBAL__N_157testNotifiesReporterOfCheckFailureWithCorrectInfoInstanceE(%rip)
 4951      000000
 4952 02f8 E8000000 		call	__cxa_atexit@PLT
 4952      00
 4953 02fd E8000000 		call	_ZN8UnitTest4Test11GetTestListEv@PLT
 4953      00
 4954 0302 4C89FA   		movq	%r15, %rdx
 4955 0305 488D3D00 		leaq	_ZN12_GLOBAL__N_150adderNotifiesReporterOfCheckFailureWithCorrectInfoE(%rip), %rdi
 4955      000000
 4956 030c 4889C6   		movq	%rax, %rsi
 4957 030f E8000000 		call	_ZN8UnitTest9ListAdderC1ERNS_8TestListEPNS_4TestE@PLT
 4957      00
 4958 0314 4C89EA   		movq	%r13, %rdx
 4959 0317 4C89F1   		movq	%r14, %rcx
 4960 031a 4C8D2D00 		leaq	_ZN12_GLOBAL__N_137testNotifiesReporterOfTestEndInstanceE(%rip), %r13
 4960      000000
 4961 0321 41B86200 		movl	$98, %r8d
 4961      0000
 4962 0327 4C89EF   		movq	%r13, %rdi
 4963 032a 488D3500 		leaq	.LC63(%rip), %rsi
 4963      000000
 4964 0331 E8000000 		call	_ZN8UnitTest4TestC2EPKcS2_S2_i@PLT
 4964      00
 4965 0336 4C89E2   		movq	%r12, %rdx
 4966 0339 4C89EE   		movq	%r13, %rsi
 4967 033c 488D3D00 		leaq	_ZN12_GLOBAL__N_129TestNotifiesReporterOfTestEndD1Ev(%rip), %rdi
 4967      000000
 4968 0343 488D0500 		leaq	16+_ZTVN12_GLOBAL__N_129TestNotifiesReporterOfTestEndE(%rip), %rax
 4968      000000
 4969 034a 48890500 		movq	%rax, _ZN12_GLOBAL__N_137testNotifiesReporterOfTestEndInstanceE(%rip)
 4969      000000
 4970 0351 E8000000 		call	__cxa_atexit@PLT
 4970      00
 4971 0356 E8000000 		call	_ZN8UnitTest4Test11GetTestListEv@PLT
 4971      00
 4972 035b 4883C408 		addq	$8, %rsp
 4973              		.cfi_def_cfa_offset 40
 4974 035f 4C89EA   		movq	%r13, %rdx
 4975 0362 488D3D00 		leaq	_ZN12_GLOBAL__N_130adderNotifiesReporterOfTestEndE(%rip), %rdi
 4975      000000
 4976 0369 415C     		popq	%r12
 4977              		.cfi_def_cfa_offset 32
 4978 036b 4889C6   		movq	%rax, %rsi
 4979 036e 415D     		popq	%r13
 4980              		.cfi_def_cfa_offset 24
 4981 0370 415E     		popq	%r14
 4982              		.cfi_def_cfa_offset 16
 4983 0372 415F     		popq	%r15
 4984              		.cfi_def_cfa_offset 8
 4985 0374 E9000000 		jmp	_ZN8UnitTest9ListAdderC1ERNS_8TestListEPNS_4TestE@PLT
 4985      00
 4986              		.cfi_endproc
 4987              	.LFE1382:
 4989              		.section	.init_array,"aw"
 4990              		.align 8
 4991 0000 00000000 		.quad	_GLOBAL__sub_I_TestTestResults.cpp
 4991      00000000 
 4992              		.weak	_ZTSN8UnitTest15MemoryOutStreamE
 4993              		.section	.rodata._ZTSN8UnitTest15MemoryOutStreamE,"aG",@progbits,_ZTSN8UnitTest15MemoryOutStreamE,
 4994              		.align 16
 4997              	_ZTSN8UnitTest15MemoryOutStreamE:
 4998 0000 4E38556E 		.string	"N8UnitTest15MemoryOutStreamE"
 4998      69745465 
 4998      73743135 
 4998      4D656D6F 
 4998      72794F75 
 4999              		.weak	_ZTIN8UnitTest15MemoryOutStreamE
 5000              		.section	.data.rel.ro._ZTIN8UnitTest15MemoryOutStreamE,"awG",@progbits,_ZTIN8UnitTest15MemoryOutSt
 5001              		.align 8
 5004              	_ZTIN8UnitTest15MemoryOutStreamE:
 5005 0000 00000000 		.quad	_ZTVN10__cxxabiv120__si_class_type_infoE+16
 5005      00000000 
 5006 0008 00000000 		.quad	_ZTSN8UnitTest15MemoryOutStreamE
 5006      00000000 
 5007 0010 00000000 		.quad	_ZTINSt7__cxx1119basic_ostringstreamIcSt11char_traitsIcESaIcEEE
 5007      00000000 
 5008              		.weak	_ZTS17RecordingReporter
 5009              		.section	.rodata._ZTS17RecordingReporter,"aG",@progbits,_ZTS17RecordingReporter,comdat
 5010              		.align 16
 5013              	_ZTS17RecordingReporter:
 5014 0000 31375265 		.string	"17RecordingReporter"
 5014      636F7264 
 5014      696E6752 
 5014      65706F72 
 5014      74657200 
 5015              		.weak	_ZTI17RecordingReporter
 5016              		.section	.data.rel.ro._ZTI17RecordingReporter,"awG",@progbits,_ZTI17RecordingReporter,comdat
 5017              		.align 8
 5020              	_ZTI17RecordingReporter:
 5021 0000 00000000 		.quad	_ZTVN10__cxxabiv120__si_class_type_infoE+16
 5021      00000000 
 5022 0008 00000000 		.quad	_ZTS17RecordingReporter
 5022      00000000 
 5023 0010 00000000 		.quad	_ZTIN8UnitTest12TestReporterE
 5023      00000000 
 5024              		.section	.data.rel.ro,"aw"
 5025              		.align 8
 5028              	_ZTIN12_GLOBAL__N_124TestStartsWithNoTestsRunE:
 5029 0000 00000000 		.quad	_ZTVN10__cxxabiv120__si_class_type_infoE+16
 5029      00000000 
 5030 0008 00000000 		.quad	_ZTSN12_GLOBAL__N_124TestStartsWithNoTestsRunE
 5030      00000000 
 5031 0010 00000000 		.quad	_ZTIN8UnitTest4TestE
 5031      00000000 
 5032              		.section	.rodata
 5033              		.align 32
 5036              	_ZTSN12_GLOBAL__N_124TestStartsWithNoTestsRunE:
 5037 0000 2A4E3132 		.string	"*N12_GLOBAL__N_124TestStartsWithNoTestsRunE"
 5037      5F474C4F 
 5037      42414C5F 
 5037      5F4E5F31 
 5037      32345465 
 5038              		.section	.data.rel.ro
 5039              		.align 8
 5042              	_ZTIN12_GLOBAL__N_125TestRecordsNumbersOfTestsE:
 5043 0018 00000000 		.quad	_ZTVN10__cxxabiv120__si_class_type_infoE+16
 5043      00000000 
 5044 0020 00000000 		.quad	_ZTSN12_GLOBAL__N_125TestRecordsNumbersOfTestsE
 5044      00000000 
 5045 0028 00000000 		.quad	_ZTIN8UnitTest4TestE
 5045      00000000 
 5046              		.section	.rodata
 5047 002c 00000000 		.align 32
 5047      00000000 
 5047      00000000 
 5047      00000000 
 5047      00000000 
 5050              	_ZTSN12_GLOBAL__N_125TestRecordsNumbersOfTestsE:
 5051 0040 2A4E3132 		.string	"*N12_GLOBAL__N_125TestRecordsNumbersOfTestsE"
 5051      5F474C4F 
 5051      42414C5F 
 5051      5F4E5F31 
 5051      32355465 
 5052              		.section	.data.rel.ro
 5053              		.align 8
 5056              	_ZTIN12_GLOBAL__N_128TestStartsWithNoTestsFailingE:
 5057 0030 00000000 		.quad	_ZTVN10__cxxabiv120__si_class_type_infoE+16
 5057      00000000 
 5058 0038 00000000 		.quad	_ZTSN12_GLOBAL__N_128TestStartsWithNoTestsFailingE
 5058      00000000 
 5059 0040 00000000 		.quad	_ZTIN8UnitTest4TestE
 5059      00000000 
 5060              		.section	.rodata
 5061 006d 00000000 		.align 32
 5061      00000000 
 5061      00000000 
 5061      00000000 
 5061      000000
 5064              	_ZTSN12_GLOBAL__N_128TestStartsWithNoTestsFailingE:
 5065 0080 2A4E3132 		.string	"*N12_GLOBAL__N_128TestStartsWithNoTestsFailingE"
 5065      5F474C4F 
 5065      42414C5F 
 5065      5F4E5F31 
 5065      32385465 
 5066              		.section	.data.rel.ro
 5067              		.align 8
 5070              	_ZTIN12_GLOBAL__N_127TestRecordsNumberOfFailuresE:
 5071 0048 00000000 		.quad	_ZTVN10__cxxabiv120__si_class_type_infoE+16
 5071      00000000 
 5072 0050 00000000 		.quad	_ZTSN12_GLOBAL__N_127TestRecordsNumberOfFailuresE
 5072      00000000 
 5073 0058 00000000 		.quad	_ZTIN8UnitTest4TestE
 5073      00000000 
 5074              		.section	.rodata
 5075 00b0 00000000 		.align 32
 5075      00000000 
 5075      00000000 
 5075      00000000 
 5078              	_ZTSN12_GLOBAL__N_127TestRecordsNumberOfFailuresE:
 5079 00c0 2A4E3132 		.string	"*N12_GLOBAL__N_127TestRecordsNumberOfFailuresE"
 5079      5F474C4F 
 5079      42414C5F 
 5079      5F4E5F31 
 5079      32375465 
 5080              		.section	.data.rel.ro
 5081              		.align 8
 5084              	_ZTIN12_GLOBAL__N_130TestRecordsNumberOfFailedTestsE:
 5085 0060 00000000 		.quad	_ZTVN10__cxxabiv120__si_class_type_infoE+16
 5085      00000000 
 5086 0068 00000000 		.quad	_ZTSN12_GLOBAL__N_130TestRecordsNumberOfFailedTestsE
 5086      00000000 
 5087 0070 00000000 		.quad	_ZTIN8UnitTest4TestE
 5087      00000000 
 5088              		.section	.rodata
 5089 00ef 00000000 		.align 32
 5089      00000000 
 5089      00000000 
 5089      00000000 
 5089      00
 5092              	_ZTSN12_GLOBAL__N_130TestRecordsNumberOfFailedTestsE:
 5093 0100 2A4E3132 		.string	"*N12_GLOBAL__N_130TestRecordsNumberOfFailedTestsE"
 5093      5F474C4F 
 5093      42414C5F 
 5093      5F4E5F31 
 5093      33305465 
 5094              		.section	.data.rel.ro
 5095              		.align 8
 5098              	_ZTIN12_GLOBAL__N_146TestNotifiesReporterOfTestStartWithCorrectInfoE:
 5099 0078 00000000 		.quad	_ZTVN10__cxxabiv120__si_class_type_infoE+16
 5099      00000000 
 5100 0080 00000000 		.quad	_ZTSN12_GLOBAL__N_146TestNotifiesReporterOfTestStartWithCorrectInfoE
 5100      00000000 
 5101 0088 00000000 		.quad	_ZTIN8UnitTest4TestE
 5101      00000000 
 5102              		.section	.rodata
 5103 0132 00000000 		.align 32
 5103      00000000 
 5103      00000000 
 5103      0000
 5106              	_ZTSN12_GLOBAL__N_146TestNotifiesReporterOfTestStartWithCorrectInfoE:
 5107 0140 2A4E3132 		.string	"*N12_GLOBAL__N_146TestNotifiesReporterOfTestStartWithCorrectInfoE"
 5107      5F474C4F 
 5107      42414C5F 
 5107      5F4E5F31 
 5107      34365465 
 5108              		.section	.data.rel.ro
 5109              		.align 8
 5112              	_ZTIN12_GLOBAL__N_148TestNotifiesReporterOfTestFailureWithCorrectInfoE:
 5113 0090 00000000 		.quad	_ZTVN10__cxxabiv120__si_class_type_infoE+16
 5113      00000000 
 5114 0098 00000000 		.quad	_ZTSN12_GLOBAL__N_148TestNotifiesReporterOfTestFailureWithCorrectInfoE
 5114      00000000 
 5115 00a0 00000000 		.quad	_ZTIN8UnitTest4TestE
 5115      00000000 
 5116              		.section	.rodata
 5117 0182 00000000 		.align 32
 5117      00000000 
 5117      00000000 
 5117      00000000 
 5117      00000000 
 5120              	_ZTSN12_GLOBAL__N_148TestNotifiesReporterOfTestFailureWithCorrectInfoE:
 5121 01a0 2A4E3132 		.string	"*N12_GLOBAL__N_148TestNotifiesReporterOfTestFailureWithCorrectInfoE"
 5121      5F474C4F 
 5121      42414C5F 
 5121      5F4E5F31 
 5121      34385465 
 5122              		.section	.data.rel.ro
 5123              		.align 8
 5126              	_ZTIN12_GLOBAL__N_149TestNotifiesReporterOfCheckFailureWithCorrectInfoE:
 5127 00a8 00000000 		.quad	_ZTVN10__cxxabiv120__si_class_type_infoE+16
 5127      00000000 
 5128 00b0 00000000 		.quad	_ZTSN12_GLOBAL__N_149TestNotifiesReporterOfCheckFailureWithCorrectInfoE
 5128      00000000 
 5129 00b8 00000000 		.quad	_ZTIN8UnitTest4TestE
 5129      00000000 
 5130              		.section	.rodata
 5131 01e4 00000000 		.align 32
 5131      00000000 
 5131      00000000 
 5131      00000000 
 5131      00000000 
 5134              	_ZTSN12_GLOBAL__N_149TestNotifiesReporterOfCheckFailureWithCorrectInfoE:
 5135 0200 2A4E3132 		.string	"*N12_GLOBAL__N_149TestNotifiesReporterOfCheckFailureWithCorrectInfoE"
 5135      5F474C4F 
 5135      42414C5F 
 5135      5F4E5F31 
 5135      34395465 
 5136              		.section	.data.rel.ro
 5137              		.align 8
 5140              	_ZTIN12_GLOBAL__N_129TestNotifiesReporterOfTestEndE:
 5141 00c0 00000000 		.quad	_ZTVN10__cxxabiv120__si_class_type_infoE+16
 5141      00000000 
 5142 00c8 00000000 		.quad	_ZTSN12_GLOBAL__N_129TestNotifiesReporterOfTestEndE
 5142      00000000 
 5143 00d0 00000000 		.quad	_ZTIN8UnitTest4TestE
 5143      00000000 
 5144              		.section	.rodata
 5145 0245 00000000 		.align 32
 5145      00000000 
 5145      00000000 
 5145      00000000 
 5145      00000000 
 5148              	_ZTSN12_GLOBAL__N_129TestNotifiesReporterOfTestEndE:
 5149 0260 2A4E3132 		.string	"*N12_GLOBAL__N_129TestNotifiesReporterOfTestEndE"
 5149      5F474C4F 
 5149      42414C5F 
 5149      5F4E5F31 
 5149      32395465 
 5150              		.hidden	_ZTCN8UnitTest15MemoryOutStreamE0_So
 5151              		.weak	_ZTCN8UnitTest15MemoryOutStreamE0_So
 5152              		.section	.data.rel.ro._ZTCN8UnitTest15MemoryOutStreamE0_So,"awG",@progbits,_ZTVN8UnitTest15MemoryO
 5153              		.align 8
 5156              	_ZTCN8UnitTest15MemoryOutStreamE0_So:
 5157 0000 90000000 		.quad	144
 5157      00000000 
 5158 0008 00000000 		.quad	0
 5158      00000000 
 5159 0010 00000000 		.quad	_ZTISo
 5159      00000000 
 5160 0018 00000000 		.quad	0
 5160      00000000 
 5161 0020 00000000 		.quad	0
 5161      00000000 
 5162 0028 70FFFFFF 		.quad	-144
 5162      FFFFFFFF 
 5163 0030 70FFFFFF 		.quad	-144
 5163      FFFFFFFF 
 5164 0038 00000000 		.quad	_ZTISo
 5164      00000000 
 5165 0040 00000000 		.quad	0
 5165      00000000 
 5166 0048 00000000 		.quad	0
 5166      00000000 
 5167              		.hidden	_ZTCN8UnitTest15MemoryOutStreamE0_NSt7__cxx1119basic_ostringstreamIcSt11char_traitsIcESaIc
 5168              		.weak	_ZTCN8UnitTest15MemoryOutStreamE0_NSt7__cxx1119basic_ostringstreamIcSt11char_traitsIcESaIcEE
 5169              		.section	.data.rel.ro._ZTCN8UnitTest15MemoryOutStreamE0_NSt7__cxx1119basic_ostringstreamIcSt11char
 5170              		.align 8
 5173              	_ZTCN8UnitTest15MemoryOutStreamE0_NSt7__cxx1119basic_ostringstreamIcSt11char_traitsIcESaIcEEE:
 5174 0000 90000000 		.quad	144
 5174      00000000 
 5175 0008 00000000 		.quad	0
 5175      00000000 
 5176 0010 00000000 		.quad	_ZTINSt7__cxx1119basic_ostringstreamIcSt11char_traitsIcESaIcEEE
 5176      00000000 
 5177 0018 00000000 		.quad	0
 5177      00000000 
 5178 0020 00000000 		.quad	0
 5178      00000000 
 5179 0028 70FFFFFF 		.quad	-144
 5179      FFFFFFFF 
 5180 0030 70FFFFFF 		.quad	-144
 5180      FFFFFFFF 
 5181 0038 00000000 		.quad	_ZTINSt7__cxx1119basic_ostringstreamIcSt11char_traitsIcESaIcEEE
 5181      00000000 
 5182 0040 00000000 		.quad	0
 5182      00000000 
 5183 0048 00000000 		.quad	0
 5183      00000000 
 5184              		.weak	_ZTTN8UnitTest15MemoryOutStreamE
 5185              		.section	.data.rel.ro.local._ZTTN8UnitTest15MemoryOutStreamE,"awG",@progbits,_ZTVN8UnitTest15Memor
 5186              		.align 8
 5189              	_ZTTN8UnitTest15MemoryOutStreamE:
 5190 0000 00000000 		.quad	_ZTVN8UnitTest15MemoryOutStreamE+24
 5190      00000000 
 5191 0008 00000000 		.quad	_ZTCN8UnitTest15MemoryOutStreamE0_NSt7__cxx1119basic_ostringstreamIcSt11char_traitsIcESaIcEE
 5191      00000000 
 5192 0010 00000000 		.quad	_ZTCN8UnitTest15MemoryOutStreamE0_So+24
 5192      00000000 
 5193 0018 00000000 		.quad	_ZTCN8UnitTest15MemoryOutStreamE0_So+64
 5193      00000000 
 5194 0020 00000000 		.quad	_ZTCN8UnitTest15MemoryOutStreamE0_NSt7__cxx1119basic_ostringstreamIcSt11char_traitsIcESaIcEE
 5194      00000000 
 5195 0028 00000000 		.quad	_ZTVN8UnitTest15MemoryOutStreamE+64
 5195      00000000 
 5196              		.weak	_ZTVN8UnitTest15MemoryOutStreamE
 5197              		.section	.data.rel.ro.local._ZTVN8UnitTest15MemoryOutStreamE,"awG",@progbits,_ZTVN8UnitTest15Memor
 5198              		.align 8
 5201              	_ZTVN8UnitTest15MemoryOutStreamE:
 5202 0000 90000000 		.quad	144
 5202      00000000 
 5203 0008 00000000 		.quad	0
 5203      00000000 
 5204 0010 00000000 		.quad	_ZTIN8UnitTest15MemoryOutStreamE
 5204      00000000 
 5205 0018 00000000 		.quad	_ZN8UnitTest15MemoryOutStreamD1Ev
 5205      00000000 
 5206 0020 00000000 		.quad	_ZN8UnitTest15MemoryOutStreamD0Ev
 5206      00000000 
 5207 0028 70FFFFFF 		.quad	-144
 5207      FFFFFFFF 
 5208 0030 70FFFFFF 		.quad	-144
 5208      FFFFFFFF 
 5209 0038 00000000 		.quad	_ZTIN8UnitTest15MemoryOutStreamE
 5209      00000000 
 5210 0040 00000000 		.quad	_ZTv0_n24_N8UnitTest15MemoryOutStreamD1Ev
 5210      00000000 
 5211 0048 00000000 		.quad	_ZTv0_n24_N8UnitTest15MemoryOutStreamD0Ev
 5211      00000000 
 5212              		.weak	_ZTV17RecordingReporter
 5213              		.section	.data.rel.ro.local._ZTV17RecordingReporter,"awG",@progbits,_ZTV17RecordingReporter,comdat
 5214              		.align 8
 5217              	_ZTV17RecordingReporter:
 5218 0000 00000000 		.quad	0
 5218      00000000 
 5219 0008 00000000 		.quad	_ZTI17RecordingReporter
 5219      00000000 
 5220 0010 00000000 		.quad	_ZN17RecordingReporterD1Ev
 5220      00000000 
 5221 0018 00000000 		.quad	_ZN17RecordingReporterD0Ev
 5221      00000000 
 5222 0020 00000000 		.quad	_ZN17RecordingReporter15ReportTestStartERKN8UnitTest11TestDetailsE
 5222      00000000 
 5223 0028 00000000 		.quad	_ZN17RecordingReporter13ReportFailureERKN8UnitTest11TestDetailsEPKc
 5223      00000000 
 5224 0030 00000000 		.quad	_ZN17RecordingReporter16ReportTestFinishERKN8UnitTest11TestDetailsEf
 5224      00000000 
 5225 0038 00000000 		.quad	_ZN17RecordingReporter13ReportSummaryEiiif
 5225      00000000 
 5226              		.section	.data.rel.ro.local,"aw"
 5227              		.align 8
 5230              	_ZTVN12_GLOBAL__N_124TestStartsWithNoTestsRunE:
 5231 0000 00000000 		.quad	0
 5231      00000000 
 5232 0008 00000000 		.quad	_ZTIN12_GLOBAL__N_124TestStartsWithNoTestsRunE
 5232      00000000 
 5233 0010 00000000 		.quad	_ZN12_GLOBAL__N_124TestStartsWithNoTestsRunD1Ev
 5233      00000000 
 5234 0018 00000000 		.quad	_ZN12_GLOBAL__N_124TestStartsWithNoTestsRunD0Ev
 5234      00000000 
 5235 0020 00000000 		.quad	_ZNK12_GLOBAL__N_124TestStartsWithNoTestsRun7RunImplEv
 5235      00000000 
 5236              		.align 8
 5239              	_ZTVN12_GLOBAL__N_125TestRecordsNumbersOfTestsE:
 5240 0028 00000000 		.quad	0
 5240      00000000 
 5241 0030 00000000 		.quad	_ZTIN12_GLOBAL__N_125TestRecordsNumbersOfTestsE
 5241      00000000 
 5242 0038 00000000 		.quad	_ZN12_GLOBAL__N_125TestRecordsNumbersOfTestsD1Ev
 5242      00000000 
 5243 0040 00000000 		.quad	_ZN12_GLOBAL__N_125TestRecordsNumbersOfTestsD0Ev
 5243      00000000 
 5244 0048 00000000 		.quad	_ZNK12_GLOBAL__N_125TestRecordsNumbersOfTests7RunImplEv
 5244      00000000 
 5245              		.align 8
 5248              	_ZTVN12_GLOBAL__N_128TestStartsWithNoTestsFailingE:
 5249 0050 00000000 		.quad	0
 5249      00000000 
 5250 0058 00000000 		.quad	_ZTIN12_GLOBAL__N_128TestStartsWithNoTestsFailingE
 5250      00000000 
 5251 0060 00000000 		.quad	_ZN12_GLOBAL__N_128TestStartsWithNoTestsFailingD1Ev
 5251      00000000 
 5252 0068 00000000 		.quad	_ZN12_GLOBAL__N_128TestStartsWithNoTestsFailingD0Ev
 5252      00000000 
 5253 0070 00000000 		.quad	_ZNK12_GLOBAL__N_128TestStartsWithNoTestsFailing7RunImplEv
 5253      00000000 
 5254              		.align 8
 5257              	_ZTVN12_GLOBAL__N_127TestRecordsNumberOfFailuresE:
 5258 0078 00000000 		.quad	0
 5258      00000000 
 5259 0080 00000000 		.quad	_ZTIN12_GLOBAL__N_127TestRecordsNumberOfFailuresE
 5259      00000000 
 5260 0088 00000000 		.quad	_ZN12_GLOBAL__N_127TestRecordsNumberOfFailuresD1Ev
 5260      00000000 
 5261 0090 00000000 		.quad	_ZN12_GLOBAL__N_127TestRecordsNumberOfFailuresD0Ev
 5261      00000000 
 5262 0098 00000000 		.quad	_ZNK12_GLOBAL__N_127TestRecordsNumberOfFailures7RunImplEv
 5262      00000000 
 5263              		.align 8
 5266              	_ZTVN12_GLOBAL__N_130TestRecordsNumberOfFailedTestsE:
 5267 00a0 00000000 		.quad	0
 5267      00000000 
 5268 00a8 00000000 		.quad	_ZTIN12_GLOBAL__N_130TestRecordsNumberOfFailedTestsE
 5268      00000000 
 5269 00b0 00000000 		.quad	_ZN12_GLOBAL__N_130TestRecordsNumberOfFailedTestsD1Ev
 5269      00000000 
 5270 00b8 00000000 		.quad	_ZN12_GLOBAL__N_130TestRecordsNumberOfFailedTestsD0Ev
 5270      00000000 
 5271 00c0 00000000 		.quad	_ZNK12_GLOBAL__N_130TestRecordsNumberOfFailedTests7RunImplEv
 5271      00000000 
 5272              		.align 8
 5275              	_ZTVN12_GLOBAL__N_146TestNotifiesReporterOfTestStartWithCorrectInfoE:
 5276 00c8 00000000 		.quad	0
 5276      00000000 
 5277 00d0 00000000 		.quad	_ZTIN12_GLOBAL__N_146TestNotifiesReporterOfTestStartWithCorrectInfoE
 5277      00000000 
 5278 00d8 00000000 		.quad	_ZN12_GLOBAL__N_146TestNotifiesReporterOfTestStartWithCorrectInfoD1Ev
 5278      00000000 
 5279 00e0 00000000 		.quad	_ZN12_GLOBAL__N_146TestNotifiesReporterOfTestStartWithCorrectInfoD0Ev
 5279      00000000 
 5280 00e8 00000000 		.quad	_ZNK12_GLOBAL__N_146TestNotifiesReporterOfTestStartWithCorrectInfo7RunImplEv
 5280      00000000 
 5281              		.align 8
 5284              	_ZTVN12_GLOBAL__N_148TestNotifiesReporterOfTestFailureWithCorrectInfoE:
 5285 00f0 00000000 		.quad	0
 5285      00000000 
 5286 00f8 00000000 		.quad	_ZTIN12_GLOBAL__N_148TestNotifiesReporterOfTestFailureWithCorrectInfoE
 5286      00000000 
 5287 0100 00000000 		.quad	_ZN12_GLOBAL__N_148TestNotifiesReporterOfTestFailureWithCorrectInfoD1Ev
 5287      00000000 
 5288 0108 00000000 		.quad	_ZN12_GLOBAL__N_148TestNotifiesReporterOfTestFailureWithCorrectInfoD0Ev
 5288      00000000 
 5289 0110 00000000 		.quad	_ZNK12_GLOBAL__N_148TestNotifiesReporterOfTestFailureWithCorrectInfo7RunImplEv
 5289      00000000 
 5290              		.align 8
 5293              	_ZTVN12_GLOBAL__N_149TestNotifiesReporterOfCheckFailureWithCorrectInfoE:
 5294 0118 00000000 		.quad	0
 5294      00000000 
 5295 0120 00000000 		.quad	_ZTIN12_GLOBAL__N_149TestNotifiesReporterOfCheckFailureWithCorrectInfoE
 5295      00000000 
 5296 0128 00000000 		.quad	_ZN12_GLOBAL__N_149TestNotifiesReporterOfCheckFailureWithCorrectInfoD1Ev
 5296      00000000 
 5297 0130 00000000 		.quad	_ZN12_GLOBAL__N_149TestNotifiesReporterOfCheckFailureWithCorrectInfoD0Ev
