   1              		.file	"TestChecks.cpp"
   2              		.text
   3              		.section	.text._ZN17RecordingReporter13ReportSummaryEiiif,"axG",@progbits,_ZN17RecordingReporter13
   4              		.align 2
   5              		.p2align 4
   6              		.weak	_ZN17RecordingReporter13ReportSummaryEiiif
   8              	_ZN17RecordingReporter13ReportSummaryEiiif:
   9              	.LFB1217:
  10              		.cfi_startproc
  11 0000 F30F1EFA 		endbr64
  12 0004 660F6ECE 		movd	%esi, %xmm1
  13 0008 660F6ED2 		movd	%edx, %xmm2
  14 000c 898F2408 		movl	%ecx, 2084(%rdi)
  14      0000
  15 0012 660F62CA 		punpckldq	%xmm2, %xmm1
  16 0016 F30F1187 		movss	%xmm0, 2088(%rdi)
  16      28080000 
  17 001e 660FD68F 		movq	%xmm1, 2076(%rdi)
  17      1C080000 
  18 0026 C3       		ret
  19              		.cfi_endproc
  20              	.LFE1217:
  22              		.text
  23              		.align 2
  24              		.p2align 4
  26              	_ZN12_GLOBAL__N_143TestCheckArray2DCloseFailureIncludesDetailsD2Ev:
  27              	.LFB1424:
  28              		.cfi_startproc
  29 0000 F30F1EFA 		endbr64
  30 0004 488D0500 		leaq	16+_ZTVN12_GLOBAL__N_143TestCheckArray2DCloseFailureIncludesDetailsE(%rip), %rax
  30      000000
  31 000b 488907   		movq	%rax, (%rdi)
  32 000e E9000000 		jmp	_ZN8UnitTest4TestD2Ev@PLT
  32      00
  33              		.cfi_endproc
  34              	.LFE1424:
  36              		.set	_ZN12_GLOBAL__N_143TestCheckArray2DCloseFailureIncludesDetailsD1Ev,_ZN12_GLOBAL__N_143TestChe
  37 0013 90       		.align 2
  38 0014 66662E0F 		.p2align 4
  38      1F840000 
  38      00000090 
  40              	_ZN12_GLOBAL__N_133TestCheckCloseWithDoublesSucceedsD2Ev:
  41              	.LFB1428:
  42              		.cfi_startproc
  43 0020 F30F1EFA 		endbr64
  44 0024 488D0500 		leaq	16+_ZTVN12_GLOBAL__N_133TestCheckCloseWithDoublesSucceedsE(%rip), %rax
  44      000000
  45 002b 488907   		movq	%rax, (%rdi)
  46 002e E9000000 		jmp	_ZN8UnitTest4TestD2Ev@PLT
  46      00
  47              		.cfi_endproc
  48              	.LFE1428:
  50              		.set	_ZN12_GLOBAL__N_133TestCheckCloseWithDoublesSucceedsD1Ev,_ZN12_GLOBAL__N_133TestCheckCloseWit
  51 0033 90       		.align 2
  52 0034 66662E0F 		.p2align 4
  52      1F840000 
  52      00000090 
  54              	_ZN12_GLOBAL__N_126TestCheckArray2DCloseFalseD2Ev:
  55              	.LFB1432:
  56              		.cfi_startproc
  57 0040 F30F1EFA 		endbr64
  58 0044 488D0500 		leaq	16+_ZTVN12_GLOBAL__N_126TestCheckArray2DCloseFalseE(%rip), %rax
  58      000000
  59 004b 488907   		movq	%rax, (%rdi)
  60 004e E9000000 		jmp	_ZN8UnitTest4TestD2Ev@PLT
  60      00
  61              		.cfi_endproc
  62              	.LFE1432:
  64              		.set	_ZN12_GLOBAL__N_126TestCheckArray2DCloseFalseD1Ev,_ZN12_GLOBAL__N_126TestCheckArray2DCloseFal
  65 0053 90       		.align 2
  66 0054 66662E0F 		.p2align 4
  66      1F840000 
  66      00000090 
  68              	_ZN12_GLOBAL__N_125TestCheckArray2DCloseTrueD2Ev:
  69              	.LFB1436:
  70              		.cfi_startproc
  71 0060 F30F1EFA 		endbr64
  72 0064 488D0500 		leaq	16+_ZTVN12_GLOBAL__N_125TestCheckArray2DCloseTrueE(%rip), %rax
  72      000000
  73 006b 488907   		movq	%rax, (%rdi)
  74 006e E9000000 		jmp	_ZN8UnitTest4TestD2Ev@PLT
  74      00
  75              		.cfi_endproc
  76              	.LFE1436:
  78              		.set	_ZN12_GLOBAL__N_125TestCheckArray2DCloseTrueD1Ev,_ZN12_GLOBAL__N_125TestCheckArray2DCloseTrue
  79 0073 90       		.align 2
  80 0074 66662E0F 		.p2align 4
  80      1F840000 
  80      00000090 
  82              	_ZN12_GLOBAL__N_141TestCheckArrayCloseFailureIncludesDetailsD2Ev:
  83              	.LFB1440:
  84              		.cfi_startproc
  85 0080 F30F1EFA 		endbr64
  86 0084 488D0500 		leaq	16+_ZTVN12_GLOBAL__N_141TestCheckArrayCloseFailureIncludesDetailsE(%rip), %rax
  86      000000
  87 008b 488907   		movq	%rax, (%rdi)
  88 008e E9000000 		jmp	_ZN8UnitTest4TestD2Ev@PLT
  88      00
  89              		.cfi_endproc
  90              	.LFE1440:
  92              		.set	_ZN12_GLOBAL__N_141TestCheckArrayCloseFailureIncludesDetailsD1Ev,_ZN12_GLOBAL__N_141TestCheck
  93 0093 90       		.align 2
  94 0094 66662E0F 		.p2align 4
  94      1F840000 
  94      00000090 
  96              	_ZN12_GLOBAL__N_124TestCheckArrayCloseFalseD2Ev:
  97              	.LFB1444:
  98              		.cfi_startproc
  99 00a0 F30F1EFA 		endbr64
 100 00a4 488D0500 		leaq	16+_ZTVN12_GLOBAL__N_124TestCheckArrayCloseFalseE(%rip), %rax
 100      000000
 101 00ab 488907   		movq	%rax, (%rdi)
 102 00ae E9000000 		jmp	_ZN8UnitTest4TestD2Ev@PLT
 102      00
 103              		.cfi_endproc
 104              	.LFE1444:
 106              		.set	_ZN12_GLOBAL__N_124TestCheckArrayCloseFalseD1Ev,_ZN12_GLOBAL__N_124TestCheckArrayCloseFalseD2
 107 00b3 90       		.align 2
 108 00b4 66662E0F 		.p2align 4
 108      1F840000 
 108      00000090 
 110              	_ZN12_GLOBAL__N_123TestCheckArrayCloseTrueD2Ev:
 111              	.LFB1448:
 112              		.cfi_startproc
 113 00c0 F30F1EFA 		endbr64
 114 00c4 488D0500 		leaq	16+_ZTVN12_GLOBAL__N_123TestCheckArrayCloseTrueE(%rip), %rax
 114      000000
 115 00cb 488907   		movq	%rax, (%rdi)
 116 00ce E9000000 		jmp	_ZN8UnitTest4TestD2Ev@PLT
 116      00
 117              		.cfi_endproc
 118              	.LFE1448:
 120              		.set	_ZN12_GLOBAL__N_123TestCheckArrayCloseTrueD1Ev,_ZN12_GLOBAL__N_123TestCheckArrayCloseTrueD2Ev
 121 00d3 90       		.align 2
 122 00d4 66662E0F 		.p2align 4
 122      1F840000 
 122      00000090 
 124              	_ZN12_GLOBAL__N_124TestCheckArrayEqualFalseD2Ev:
 125              	.LFB1452:
 126              		.cfi_startproc
 127 00e0 F30F1EFA 		endbr64
 128 00e4 488D0500 		leaq	16+_ZTVN12_GLOBAL__N_124TestCheckArrayEqualFalseE(%rip), %rax
 128      000000
 129 00eb 488907   		movq	%rax, (%rdi)
 130 00ee E9000000 		jmp	_ZN8UnitTest4TestD2Ev@PLT
 130      00
 131              		.cfi_endproc
 132              	.LFE1452:
 134              		.set	_ZN12_GLOBAL__N_124TestCheckArrayEqualFalseD1Ev,_ZN12_GLOBAL__N_124TestCheckArrayEqualFalseD2
 135 00f3 90       		.align 2
 136 00f4 66662E0F 		.p2align 4
 136      1F840000 
 136      00000090 
 138              	_ZN12_GLOBAL__N_123TestCheckArrayEqualTrueD2Ev:
 139              	.LFB1456:
 140              		.cfi_startproc
 141 0100 F30F1EFA 		endbr64
 142 0104 488D0500 		leaq	16+_ZTVN12_GLOBAL__N_123TestCheckArrayEqualTrueE(%rip), %rax
 142      000000
 143 010b 488907   		movq	%rax, (%rdi)
 144 010e E9000000 		jmp	_ZN8UnitTest4TestD2Ev@PLT
 144      00
 145              		.cfi_endproc
 146              	.LFE1456:
 148              		.set	_ZN12_GLOBAL__N_123TestCheckArrayEqualTrueD1Ev,_ZN12_GLOBAL__N_123TestCheckArrayEqualTrueD2Ev
 149 0113 90       		.align 2
 150 0114 66662E0F 		.p2align 4
 150      1F840000 
 150      00000090 
 152              	_ZN12_GLOBAL__N_136TestCheckCloseFailureIncludesDetailsD2Ev:
 153              	.LFB1460:
 154              		.cfi_startproc
 155 0120 F30F1EFA 		endbr64
 156 0124 488D0500 		leaq	16+_ZTVN12_GLOBAL__N_136TestCheckCloseFailureIncludesDetailsE(%rip), %rax
 156      000000
 157 012b 488907   		movq	%rax, (%rdi)
 158 012e E9000000 		jmp	_ZN8UnitTest4TestD2Ev@PLT
 158      00
 159              		.cfi_endproc
 160              	.LFE1460:
 162              		.set	_ZN12_GLOBAL__N_136TestCheckCloseFailureIncludesDetailsD1Ev,_ZN12_GLOBAL__N_136TestCheckClose
 163 0133 90       		.align 2
 164 0134 66662E0F 		.p2align 4
 164      1F840000 
 164      00000090 
 166              	_ZN12_GLOBAL__N_138TestCheckCloseFailureIncludesToleranceD2Ev:
 167              	.LFB1464:
 168              		.cfi_startproc
 169 0140 F30F1EFA 		endbr64
 170 0144 488D0500 		leaq	16+_ZTVN12_GLOBAL__N_138TestCheckCloseFailureIncludesToleranceE(%rip), %rax
 170      000000
 171 014b 488907   		movq	%rax, (%rdi)
 172 014e E9000000 		jmp	_ZN8UnitTest4TestD2Ev@PLT
 172      00
 173              		.cfi_endproc
 174              	.LFE1464:
 176              		.set	_ZN12_GLOBAL__N_138TestCheckCloseFailureIncludesToleranceD1Ev,_ZN12_GLOBAL__N_138TestCheckClo
 177 0153 90       		.align 2
 178 0154 66662E0F 		.p2align 4
 178      1F840000 
 178      00000090 
 180              	_ZN12_GLOBAL__N_151TestCheckCloseFailureIncludesCheckExpectedAndActualD2Ev:
 181              	.LFB1468:
 182              		.cfi_startproc
 183 0160 F30F1EFA 		endbr64
 184 0164 488D0500 		leaq	16+_ZTVN12_GLOBAL__N_151TestCheckCloseFailureIncludesCheckExpectedAndActualE(%rip), %rax
 184      000000
 185 016b 488907   		movq	%rax, (%rdi)
 186 016e E9000000 		jmp	_ZN8UnitTest4TestD2Ev@PLT
 186      00
 187              		.cfi_endproc
 188              	.LFE1468:
 190              		.set	_ZN12_GLOBAL__N_151TestCheckCloseFailureIncludesCheckExpectedAndActualD1Ev,_ZN12_GLOBAL__N_15
 191 0173 90       		.align 2
 192 0174 66662E0F 		.p2align 4
 192      1F840000 
 192      00000090 
 194              	_ZN12_GLOBAL__N_139TestCheckCloseWithNaNAgainstItselfFailsD2Ev:
 195              	.LFB1472:
 196              		.cfi_startproc
 197 0180 F30F1EFA 		endbr64
 198 0184 488D0500 		leaq	16+_ZTVN12_GLOBAL__N_139TestCheckCloseWithNaNAgainstItselfFailsE(%rip), %rax
 198      000000
 199 018b 488907   		movq	%rax, (%rdi)
 200 018e E9000000 		jmp	_ZN8UnitTest4TestD2Ev@PLT
 200      00
 201              		.cfi_endproc
 202              	.LFE1472:
 204              		.set	_ZN12_GLOBAL__N_139TestCheckCloseWithNaNAgainstItselfFailsD1Ev,_ZN12_GLOBAL__N_139TestCheckCl
 205 0193 90       		.align 2
 206 0194 66662E0F 		.p2align 4
 206      1F840000 
 206      00000090 
 208              	_ZN12_GLOBAL__N_126TestCheckCloseWithNaNFailsD2Ev:
 209              	.LFB1476:
 210              		.cfi_startproc
 211 01a0 F30F1EFA 		endbr64
 212 01a4 488D0500 		leaq	16+_ZTVN12_GLOBAL__N_126TestCheckCloseWithNaNFailsE(%rip), %rax
 212      000000
 213 01ab 488907   		movq	%rax, (%rdi)
 214 01ae E9000000 		jmp	_ZN8UnitTest4TestD2Ev@PLT
 214      00
 215              		.cfi_endproc
 216              	.LFE1476:
 218              		.set	_ZN12_GLOBAL__N_126TestCheckCloseWithNaNFailsD1Ev,_ZN12_GLOBAL__N_126TestCheckCloseWithNaNFai
 219 01b3 90       		.align 2
 220 01b4 66662E0F 		.p2align 4
 220      1F840000 
 220      00000090 
 222              	_ZN12_GLOBAL__N_147TestCheckCloseWithZeroEpsilonWorksForSameNumberD2Ev:
 223              	.LFB1480:
 224              		.cfi_startproc
 225 01c0 F30F1EFA 		endbr64
 226 01c4 488D0500 		leaq	16+_ZTVN12_GLOBAL__N_147TestCheckCloseWithZeroEpsilonWorksForSameNumberE(%rip), %rax
 226      000000
 227 01cb 488907   		movq	%rax, (%rdi)
 228 01ce E9000000 		jmp	_ZN8UnitTest4TestD2Ev@PLT
 228      00
 229              		.cfi_endproc
 230              	.LFE1480:
 232              		.set	_ZN12_GLOBAL__N_147TestCheckCloseWithZeroEpsilonWorksForSameNumberD1Ev,_ZN12_GLOBAL__N_147Tes
 233 01d3 90       		.align 2
 234 01d4 66662E0F 		.p2align 4
 234      1F840000 
 234      00000090 
 236              	_ZN12_GLOBAL__N_119TestCheckCloseFalseD2Ev:
 237              	.LFB1484:
 238              		.cfi_startproc
 239 01e0 F30F1EFA 		endbr64
 240 01e4 488D0500 		leaq	16+_ZTVN12_GLOBAL__N_119TestCheckCloseFalseE(%rip), %rax
 240      000000
 241 01eb 488907   		movq	%rax, (%rdi)
 242 01ee E9000000 		jmp	_ZN8UnitTest4TestD2Ev@PLT
 242      00
 243              		.cfi_endproc
 244              	.LFE1484:
 246              		.set	_ZN12_GLOBAL__N_119TestCheckCloseFalseD1Ev,_ZN12_GLOBAL__N_119TestCheckCloseFalseD2Ev
 247 01f3 90       		.align 2
 248 01f4 66662E0F 		.p2align 4
 248      1F840000 
 248      00000090 
 250              	_ZN12_GLOBAL__N_118TestCheckCloseTrueD2Ev:
 251              	.LFB1488:
 252              		.cfi_startproc
 253 0200 F30F1EFA 		endbr64
 254 0204 488D0500 		leaq	16+_ZTVN12_GLOBAL__N_118TestCheckCloseTrueE(%rip), %rax
 254      000000
 255 020b 488907   		movq	%rax, (%rdi)
 256 020e E9000000 		jmp	_ZN8UnitTest4TestD2Ev@PLT
 256      00
 257              		.cfi_endproc
 258              	.LFE1488:
 260              		.set	_ZN12_GLOBAL__N_118TestCheckCloseTrueD1Ev,_ZN12_GLOBAL__N_118TestCheckCloseTrueD2Ev
 261 0213 90       		.align 2
 262 0214 66662E0F 		.p2align 4
 262      1F840000 
 262      00000090 
 264              	_ZN12_GLOBAL__N_136TestCheckEqualFailureIncludesDetailsD2Ev:
 265              	.LFB1492:
 266              		.cfi_startproc
 267 0220 F30F1EFA 		endbr64
 268 0224 488D0500 		leaq	16+_ZTVN12_GLOBAL__N_136TestCheckEqualFailureIncludesDetailsE(%rip), %rax
 268      000000
 269 022b 488907   		movq	%rax, (%rdi)
 270 022e E9000000 		jmp	_ZN8UnitTest4TestD2Ev@PLT
 270      00
 271              		.cfi_endproc
 272              	.LFE1492:
 274              		.set	_ZN12_GLOBAL__N_136TestCheckEqualFailureIncludesDetailsD1Ev,_ZN12_GLOBAL__N_136TestCheckEqual
 275 0233 90       		.align 2
 276 0234 66662E0F 		.p2align 4
 276      1F840000 
 276      00000090 
 278              	_ZN12_GLOBAL__N_151TestCheckEqualFailureIncludesCheckExpectedAndActualD2Ev:
 279              	.LFB1496:
 280              		.cfi_startproc
 281 0240 F30F1EFA 		endbr64
 282 0244 488D0500 		leaq	16+_ZTVN12_GLOBAL__N_151TestCheckEqualFailureIncludesCheckExpectedAndActualE(%rip), %rax
 282      000000
 283 024b 488907   		movq	%rax, (%rdi)
 284 024e E9000000 		jmp	_ZN8UnitTest4TestD2Ev@PLT
 284      00
 285              		.cfi_endproc
 286              	.LFE1496:
 288              		.set	_ZN12_GLOBAL__N_151TestCheckEqualFailureIncludesCheckExpectedAndActualD1Ev,_ZN12_GLOBAL__N_15
 289 0253 90       		.align 2
 290 0254 66662E0F 		.p2align 4
 290      1F840000 
 290      00000090 
 292              	_ZN12_GLOBAL__N_153TestCheckEqualsWithStringsWorksOnContentsWithALiteralD2Ev:
 293              	.LFB1500:
 294              		.cfi_startproc
 295 0260 F30F1EFA 		endbr64
 296 0264 488D0500 		leaq	16+_ZTVN12_GLOBAL__N_153TestCheckEqualsWithStringsWorksOnContentsWithALiteralE(%rip), %rax
 296      000000
 297 026b 488907   		movq	%rax, (%rdi)
 298 026e E9000000 		jmp	_ZN8UnitTest4TestD2Ev@PLT
 298      00
 299              		.cfi_endproc
 300              	.LFE1500:
 302              		.set	_ZN12_GLOBAL__N_153TestCheckEqualsWithStringsWorksOnContentsWithALiteralD1Ev,_ZN12_GLOBAL__N_
 303 0273 90       		.align 2
 304 0274 66662E0F 		.p2align 4
 304      1F840000 
 304      00000090 
 306              	_ZN12_GLOBAL__N_154TestCheckEqualsWithStringsWorksOnContentsConstNonConstD2Ev:
 307              	.LFB1504:
 308              		.cfi_startproc
 309 0280 F30F1EFA 		endbr64
 310 0284 488D0500 		leaq	16+_ZTVN12_GLOBAL__N_154TestCheckEqualsWithStringsWorksOnContentsConstNonConstE(%rip), %rax
 310      000000
 311 028b 488907   		movq	%rax, (%rdi)
 312 028e E9000000 		jmp	_ZN8UnitTest4TestD2Ev@PLT
 312      00
 313              		.cfi_endproc
 314              	.LFE1504:
 316              		.set	_ZN12_GLOBAL__N_154TestCheckEqualsWithStringsWorksOnContentsConstNonConstD1Ev,_ZN12_GLOBAL__N
 317 0293 90       		.align 2
 318 0294 66662E0F 		.p2align 4
 318      1F840000 
 318      00000090 
 320              	_ZN12_GLOBAL__N_154TestCheckEqualsWithStringsWorksOnContentsNonConstConstD2Ev:
 321              	.LFB1508:
 322              		.cfi_startproc
 323 02a0 F30F1EFA 		endbr64
 324 02a4 488D0500 		leaq	16+_ZTVN12_GLOBAL__N_154TestCheckEqualsWithStringsWorksOnContentsNonConstConstE(%rip), %rax
 324      000000
 325 02ab 488907   		movq	%rax, (%rdi)
 326 02ae E9000000 		jmp	_ZN8UnitTest4TestD2Ev@PLT
 326      00
 327              		.cfi_endproc
 328              	.LFE1508:
 330              		.set	_ZN12_GLOBAL__N_154TestCheckEqualsWithStringsWorksOnContentsNonConstConstD1Ev,_ZN12_GLOBAL__N
 331 02b3 90       		.align 2
 332 02b4 66662E0F 		.p2align 4
 332      1F840000 
 332      00000090 
 334              	_ZN12_GLOBAL__N_151TestCheckEqualsWithStringsWorksOnContentsConstConstD2Ev:
 335              	.LFB1512:
 336              		.cfi_startproc
 337 02c0 F30F1EFA 		endbr64
 338 02c4 488D0500 		leaq	16+_ZTVN12_GLOBAL__N_151TestCheckEqualsWithStringsWorksOnContentsConstConstE(%rip), %rax
 338      000000
 339 02cb 488907   		movq	%rax, (%rdi)
 340 02ce E9000000 		jmp	_ZN8UnitTest4TestD2Ev@PLT
 340      00
 341              		.cfi_endproc
 342              	.LFE1512:
 344              		.set	_ZN12_GLOBAL__N_151TestCheckEqualsWithStringsWorksOnContentsConstConstD1Ev,_ZN12_GLOBAL__N_15
 345 02d3 90       		.align 2
 346 02d4 66662E0F 		.p2align 4
 346      1F840000 
 346      00000090 
 348              	_ZN12_GLOBAL__N_157TestCheckEqualsWithStringsWorksOnContentsNonConstNonConstD2Ev:
 349              	.LFB1516:
 350              		.cfi_startproc
 351 02e0 F30F1EFA 		endbr64
 352 02e4 488D0500 		leaq	16+_ZTVN12_GLOBAL__N_157TestCheckEqualsWithStringsWorksOnContentsNonConstNonConstE(%rip), %ra
 352      000000
 353 02eb 488907   		movq	%rax, (%rdi)
 354 02ee E9000000 		jmp	_ZN8UnitTest4TestD2Ev@PLT
 354      00
 355              		.cfi_endproc
 356              	.LFE1516:
 358              		.set	_ZN12_GLOBAL__N_157TestCheckEqualsWithStringsWorksOnContentsNonConstNonConstD1Ev,_ZN12_GLOBAL
 359 02f3 90       		.align 2
 360 02f4 66662E0F 		.p2align 4
 360      1F840000 
 360      00000090 
 362              	_ZN12_GLOBAL__N_149TestCheckEqualsWithStringsFailsOnDifferentStringsD2Ev:
 363              	.LFB1520:
 364              		.cfi_startproc
 365 0300 F30F1EFA 		endbr64
 366 0304 488D0500 		leaq	16+_ZTVN12_GLOBAL__N_149TestCheckEqualsWithStringsFailsOnDifferentStringsE(%rip), %rax
 366      000000
 367 030b 488907   		movq	%rax, (%rdi)
 368 030e E9000000 		jmp	_ZN8UnitTest4TestD2Ev@PLT
 368      00
 369              		.cfi_endproc
 370              	.LFE1520:
 372              		.set	_ZN12_GLOBAL__N_149TestCheckEqualsWithStringsFailsOnDifferentStringsD1Ev,_ZN12_GLOBAL__N_149T
 373 0313 90       		.align 2
 374 0314 66662E0F 		.p2align 4
 374      1F840000 
 374      00000090 
 376              	_ZN12_GLOBAL__N_130TestCheckEqualWithUnsignedLongD2Ev:
 377              	.LFB1524:
 378              		.cfi_startproc
 379 0320 F30F1EFA 		endbr64
 380 0324 488D0500 		leaq	16+_ZTVN12_GLOBAL__N_130TestCheckEqualWithUnsignedLongE(%rip), %rax
 380      000000
 381 032b 488907   		movq	%rax, (%rdi)
 382 032e E9000000 		jmp	_ZN8UnitTest4TestD2Ev@PLT
 382      00
 383              		.cfi_endproc
 384              	.LFE1524:
 386              		.set	_ZN12_GLOBAL__N_130TestCheckEqualWithUnsignedLongD1Ev,_ZN12_GLOBAL__N_130TestCheckEqualWithUn
 387              		.section	.text._ZN17RecordingReporter15ReportTestStartERKN8UnitTest11TestDetailsE,"axG",@progbits,
 388              		.align 2
 389              		.p2align 4
 390              		.weak	_ZN17RecordingReporter15ReportTestStartERKN8UnitTest11TestDetailsE
 392              	_ZN17RecordingReporter15ReportTestStartERKN8UnitTest11TestDetailsE:
 393              	.LFB1214:
 394              		.cfi_startproc
 395 0000 F30F1EFA 		endbr64
 396 0004 55       		pushq	%rbp
 397              		.cfi_def_cfa_offset 16
 398              		.cfi_offset 6, -16
 399 0005 4889F5   		movq	%rsi, %rbp
 400 0008 BA000100 		movl	$256, %edx
 400      00
 401 000d 53       		pushq	%rbx
 402              		.cfi_def_cfa_offset 24
 403              		.cfi_offset 3, -24
 404 000e 4889FB   		movq	%rdi, %rbx
 405 0011 4883EC08 		subq	$8, %rsp
 406              		.cfi_def_cfa_offset 32
 407 0015 83470801 		addl	$1, 8(%rdi)
 408 0019 488B36   		movq	(%rsi), %rsi
 409 001c 488D7F0C 		leaq	12(%rdi), %rdi
 410 0020 E8000000 		call	__strcpy_chk@PLT
 410      00
 411 0025 488B7508 		movq	8(%rbp), %rsi
 412 0029 4883C408 		addq	$8, %rsp
 413              		.cfi_def_cfa_offset 24
 414 002d 488DBB0C 		leaq	268(%rbx), %rdi
 414      010000
 415 0034 BA000100 		movl	$256, %edx
 415      00
 416 0039 5B       		popq	%rbx
 417              		.cfi_def_cfa_offset 16
 418 003a 5D       		popq	%rbp
 419              		.cfi_def_cfa_offset 8
 420 003b E9000000 		jmp	__strcpy_chk@PLT
 420      00
 421              		.cfi_endproc
 422              	.LFE1214:
 424              		.section	.text._ZN17RecordingReporter13ReportFailureERKN8UnitTest11TestDetailsEPKc,"axG",@progbits
 425              		.align 2
 426              		.p2align 4
 427              		.weak	_ZN17RecordingReporter13ReportFailureERKN8UnitTest11TestDetailsEPKc
 429              	_ZN17RecordingReporter13ReportFailureERKN8UnitTest11TestDetailsEPKc:
 430              	.LFB1215:
 431              		.cfi_startproc
 432 0000 F30F1EFA 		endbr64
 433 0004 4154     		pushq	%r12
 434              		.cfi_def_cfa_offset 16
 435              		.cfi_offset 12, -16
 436 0006 4989D4   		movq	%rdx, %r12
 437 0009 BA000100 		movl	$256, %edx
 437      00
 438 000e 55       		pushq	%rbp
 439              		.cfi_def_cfa_offset 24
 440              		.cfi_offset 6, -24
 441 000f 4889F5   		movq	%rsi, %rbp
 442 0012 53       		pushq	%rbx
 443              		.cfi_def_cfa_offset 32
 444              		.cfi_offset 3, -32
 445 0013 488B7610 		movq	16(%rsi), %rsi
 446 0017 4889FB   		movq	%rdi, %rbx
 447 001a 83870C02 		addl	$1, 524(%rdi)
 447      000001
 448 0021 488DBF10 		leaq	528(%rdi), %rdi
 448      020000
 449 0028 E8000000 		call	__strcpy_chk@PLT
 449      00
 450 002d 8B4518   		movl	24(%rbp), %eax
 451 0030 488B7500 		movq	0(%rbp), %rsi
 452 0034 488DBB14 		leaq	788(%rbx), %rdi
 452      030000
 453 003b BA000100 		movl	$256, %edx
 453      00
 454 0040 89831003 		movl	%eax, 784(%rbx)
 454      0000
 455 0046 E8000000 		call	__strcpy_chk@PLT
 455      00
 456 004b 488B7508 		movq	8(%rbp), %rsi
 457 004f BA000100 		movl	$256, %edx
 457      00
 458 0054 488DBB14 		leaq	1044(%rbx), %rdi
 458      040000
 459 005b E8000000 		call	__strcpy_chk@PLT
 459      00
 460 0060 488DBB14 		leaq	1300(%rbx), %rdi
 460      050000
 461 0067 4C89E6   		movq	%r12, %rsi
 462 006a 5B       		popq	%rbx
 463              		.cfi_def_cfa_offset 24
 464 006b BA000100 		movl	$256, %edx
 464      00
 465 0070 5D       		popq	%rbp
 466              		.cfi_def_cfa_offset 16
 467 0071 415C     		popq	%r12
 468              		.cfi_def_cfa_offset 8
 469 0073 E9000000 		jmp	__strcpy_chk@PLT
 469      00
 470              		.cfi_endproc
 471              	.LFE1215:
 473              		.section	.text._ZN17RecordingReporter16ReportTestFinishERKN8UnitTest11TestDetailsEf,"axG",@progbit
 474              		.align 2
 475              		.p2align 4
 476              		.weak	_ZN17RecordingReporter16ReportTestFinishERKN8UnitTest11TestDetailsEf
 478              	_ZN17RecordingReporter16ReportTestFinishERKN8UnitTest11TestDetailsEf:
 479              	.LFB1216:
 480              		.cfi_startproc
 481 0000 F30F1EFA 		endbr64
 482 0004 55       		pushq	%rbp
 483              		.cfi_def_cfa_offset 16
 484              		.cfi_offset 6, -16
 485 0005 4889F5   		movq	%rsi, %rbp
 486 0008 BA000100 		movl	$256, %edx
 486      00
 487 000d 53       		pushq	%rbx
 488              		.cfi_def_cfa_offset 24
 489              		.cfi_offset 3, -24
 490 000e 4889FB   		movq	%rdi, %rbx
 491 0011 4883EC18 		subq	$24, %rsp
 492              		.cfi_def_cfa_offset 48
 493 0015 83871406 		addl	$1, 1556(%rdi)
 493      000001
 494 001c 488B36   		movq	(%rsi), %rsi
 495 001f 488DBF18 		leaq	1560(%rdi), %rdi
 495      060000
 496 0026 F30F1144 		movss	%xmm0, 12(%rsp)
 496      240C
 497 002c E8000000 		call	__strcpy_chk@PLT
 497      00
 498 0031 488B7508 		movq	8(%rbp), %rsi
 499 0035 BA000100 		movl	$256, %edx
 499      00
 500 003a 488DBB18 		leaq	1816(%rbx), %rdi
 500      070000
 501 0041 E8000000 		call	__strcpy_chk@PLT
 501      00
 502 0046 F30F1044 		movss	12(%rsp), %xmm0
 502      240C
 503 004c F30F1183 		movss	%xmm0, 2072(%rbx)
 503      18080000 
 504 0054 4883C418 		addq	$24, %rsp
 505              		.cfi_def_cfa_offset 24
 506 0058 5B       		popq	%rbx
 507              		.cfi_def_cfa_offset 16
 508 0059 5D       		popq	%rbp
 509              		.cfi_def_cfa_offset 8
 510 005a C3       		ret
 511              		.cfi_endproc
 512              	.LFE1216:
 514              		.section	.text.unlikely,"ax",@progbits
 515              		.align 2
 516              	.LCOLDB0:
 517              		.text
 518              	.LHOTB0:
 519 0333 90       		.align 2
 520 0334 66662E0F 		.p2align 4
 520      1F840000 
 520      00000090 
 522              	_ZN12_GLOBAL__N_143TestCheckArray2DCloseFailureIncludesDetailsD0Ev:
 523              	.LFB1426:
 524              		.cfi_startproc
 525              		.cfi_personality 0x9b,DW.ref.__gxx_personality_v0
 526              		.cfi_lsda 0x1b,.LLSDA1426
 527 0340 F30F1EFA 		endbr64
 528 0344 4154     		pushq	%r12
 529              		.cfi_def_cfa_offset 16
 530              		.cfi_offset 12, -16
 531 0346 488D0500 		leaq	16+_ZTVN12_GLOBAL__N_143TestCheckArray2DCloseFailureIncludesDetailsE(%rip), %rax
 531      000000
 532 034d 55       		pushq	%rbp
 533              		.cfi_def_cfa_offset 24
 534              		.cfi_offset 6, -24
 535 034e 4889FD   		movq	%rdi, %rbp
 536 0351 4883EC08 		subq	$8, %rsp
 537              		.cfi_def_cfa_offset 32
 538 0355 488907   		movq	%rax, (%rdi)
 539              	.LEHB0:
 540 0358 E8000000 		call	_ZN8UnitTest4TestD2Ev@PLT
 540      00
 541              	.LEHE0:
 542 035d 4883C408 		addq	$8, %rsp
 543              		.cfi_remember_state
 544              		.cfi_def_cfa_offset 24
 545 0361 4889EF   		movq	%rbp, %rdi
 546 0364 5D       		popq	%rbp
 547              		.cfi_def_cfa_offset 16
 548 0365 415C     		popq	%r12
 549              		.cfi_def_cfa_offset 8
 550 0367 E9000000 		jmp	_ZdlPv@PLT
 550      00
 551              	.L37:
 552              		.cfi_restore_state
 553 036c F30F1EFA 		endbr64
 554 0370 4989C4   		movq	%rax, %r12
 555 0373 E9000000 		jmp	.L36
 555      00
 556              		.globl	__gxx_personality_v0
 557              		.section	.gcc_except_table,"a",@progbits
 558              	.LLSDA1426:
 559 0000 FF       		.byte	0xff
 560 0001 FF       		.byte	0xff
 561 0002 01       		.byte	0x1
 562 0003 04       		.uleb128 .LLSDACSE1426-.LLSDACSB1426
 563              	.LLSDACSB1426:
 564 0004 18       		.uleb128 .LEHB0-.LFB1426
 565 0005 05       		.uleb128 .LEHE0-.LEHB0
 566 0006 2C       		.uleb128 .L37-.LFB1426
 567 0007 00       		.uleb128 0
 568              	.LLSDACSE1426:
 569              		.text
 570              		.cfi_endproc
 571              		.section	.text.unlikely
 572              		.cfi_startproc
 573              		.cfi_personality 0x9b,DW.ref.__gxx_personality_v0
 574              		.cfi_lsda 0x1b,.LLSDAC1426
 576              	_ZN12_GLOBAL__N_143TestCheckArray2DCloseFailureIncludesDetailsD0Ev.cold:
 577              	.LFSB1426:
 578              	.L36:
 579              		.cfi_def_cfa_offset 32
 580              		.cfi_offset 6, -24
 581              		.cfi_offset 12, -16
 582 0000 4889EF   		movq	%rbp, %rdi
 583 0003 E8000000 		call	_ZdlPv@PLT
 583      00
 584 0008 4C89E7   		movq	%r12, %rdi
 585              	.LEHB1:
 586 000b E8000000 		call	_Unwind_Resume@PLT
 586      00
 587              	.LEHE1:
 588              		.cfi_endproc
 589              	.LFE1426:
 590              		.section	.gcc_except_table
 591              	.LLSDAC1426:
 592 0008 FF       		.byte	0xff
 593 0009 FF       		.byte	0xff
 594 000a 01       		.byte	0x1
 595 000b 04       		.uleb128 .LLSDACSEC1426-.LLSDACSBC1426
 596              	.LLSDACSBC1426:
 597 000c 0B       		.uleb128 .LEHB1-.LCOLDB0
 598 000d 05       		.uleb128 .LEHE1-.LEHB1
 599 000e 00       		.uleb128 0
 600 000f 00       		.uleb128 0
 601              	.LLSDACSEC1426:
 602              		.section	.text.unlikely
 603              		.text
 605              		.section	.text.unlikely
 607              	.LCOLDE0:
 608              		.text
 609              	.LHOTE0:
 610              		.section	.text.unlikely
 611              		.align 2
 612              	.LCOLDB1:
 613              		.text
 614              	.LHOTB1:
 615              		.align 2
 616 0378 0F1F8400 		.p2align 4
 616      00000000 
 618              	_ZN12_GLOBAL__N_133TestCheckCloseWithDoublesSucceedsD0Ev:
 619              	.LFB1430:
 620              		.cfi_startproc
 621              		.cfi_personality 0x9b,DW.ref.__gxx_personality_v0
 622              		.cfi_lsda 0x1b,.LLSDA1430
 623 0380 F30F1EFA 		endbr64
 624 0384 4154     		pushq	%r12
 625              		.cfi_def_cfa_offset 16
 626              		.cfi_offset 12, -16
 627 0386 488D0500 		leaq	16+_ZTVN12_GLOBAL__N_133TestCheckCloseWithDoublesSucceedsE(%rip), %rax
 627      000000
 628 038d 55       		pushq	%rbp
 629              		.cfi_def_cfa_offset 24
 630              		.cfi_offset 6, -24
 631 038e 4889FD   		movq	%rdi, %rbp
 632 0391 4883EC08 		subq	$8, %rsp
 633              		.cfi_def_cfa_offset 32
 634 0395 488907   		movq	%rax, (%rdi)
 635              	.LEHB2:
 636 0398 E8000000 		call	_ZN8UnitTest4TestD2Ev@PLT
 636      00
 637              	.LEHE2:
 638 039d 4883C408 		addq	$8, %rsp
 639              		.cfi_remember_state
 640              		.cfi_def_cfa_offset 24
 641 03a1 4889EF   		movq	%rbp, %rdi
 642 03a4 5D       		popq	%rbp
 643              		.cfi_def_cfa_offset 16
 644 03a5 415C     		popq	%r12
 645              		.cfi_def_cfa_offset 8
 646 03a7 E9000000 		jmp	_ZdlPv@PLT
 646      00
 647              	.L41:
 648              		.cfi_restore_state
 649 03ac F30F1EFA 		endbr64
 650 03b0 4989C4   		movq	%rax, %r12
 651 03b3 E9000000 		jmp	.L40
 651      00
 652              		.section	.gcc_except_table
 653              	.LLSDA1430:
 654 0010 FF       		.byte	0xff
 655 0011 FF       		.byte	0xff
 656 0012 01       		.byte	0x1
 657 0013 04       		.uleb128 .LLSDACSE1430-.LLSDACSB1430
 658              	.LLSDACSB1430:
 659 0014 18       		.uleb128 .LEHB2-.LFB1430
 660 0015 05       		.uleb128 .LEHE2-.LEHB2
 661 0016 2C       		.uleb128 .L41-.LFB1430
 662 0017 00       		.uleb128 0
 663              	.LLSDACSE1430:
 664              		.text
 665              		.cfi_endproc
 666              		.section	.text.unlikely
 667              		.cfi_startproc
 668              		.cfi_personality 0x9b,DW.ref.__gxx_personality_v0
 669              		.cfi_lsda 0x1b,.LLSDAC1430
 671              	_ZN12_GLOBAL__N_133TestCheckCloseWithDoublesSucceedsD0Ev.cold:
 672              	.LFSB1430:
 673              	.L40:
 674              		.cfi_def_cfa_offset 32
 675              		.cfi_offset 6, -24
 676              		.cfi_offset 12, -16
 677 0010 4889EF   		movq	%rbp, %rdi
 678 0013 E8000000 		call	_ZdlPv@PLT
 678      00
 679 0018 4C89E7   		movq	%r12, %rdi
 680              	.LEHB3:
 681 001b E8000000 		call	_Unwind_Resume@PLT
 681      00
 682              	.LEHE3:
 683              		.cfi_endproc
 684              	.LFE1430:
 685              		.section	.gcc_except_table
 686              	.LLSDAC1430:
 687 0018 FF       		.byte	0xff
 688 0019 FF       		.byte	0xff
 689 001a 01       		.byte	0x1
 690 001b 04       		.uleb128 .LLSDACSEC1430-.LLSDACSBC1430
 691              	.LLSDACSBC1430:
 692 001c 0B       		.uleb128 .LEHB3-.LCOLDB1
 693 001d 05       		.uleb128 .LEHE3-.LEHB3
 694 001e 00       		.uleb128 0
 695 001f 00       		.uleb128 0
 696              	.LLSDACSEC1430:
 697              		.section	.text.unlikely
 698              		.text
 700              		.section	.text.unlikely
 702              	.LCOLDE1:
 703              		.text
 704              	.LHOTE1:
 705              		.section	.text.unlikely
 706              		.align 2
 707              	.LCOLDB2:
 708              		.text
 709              	.LHOTB2:
 710              		.align 2
 711 03b8 0F1F8400 		.p2align 4
 711      00000000 
 713              	_ZN12_GLOBAL__N_126TestCheckArray2DCloseFalseD0Ev:
 714              	.LFB1434:
 715              		.cfi_startproc
 716              		.cfi_personality 0x9b,DW.ref.__gxx_personality_v0
 717              		.cfi_lsda 0x1b,.LLSDA1434
 718 03c0 F30F1EFA 		endbr64
 719 03c4 4154     		pushq	%r12
 720              		.cfi_def_cfa_offset 16
 721              		.cfi_offset 12, -16
 722 03c6 488D0500 		leaq	16+_ZTVN12_GLOBAL__N_126TestCheckArray2DCloseFalseE(%rip), %rax
 722      000000
 723 03cd 55       		pushq	%rbp
 724              		.cfi_def_cfa_offset 24
 725              		.cfi_offset 6, -24
 726 03ce 4889FD   		movq	%rdi, %rbp
 727 03d1 4883EC08 		subq	$8, %rsp
 728              		.cfi_def_cfa_offset 32
 729 03d5 488907   		movq	%rax, (%rdi)
 730              	.LEHB4:
 731 03d8 E8000000 		call	_ZN8UnitTest4TestD2Ev@PLT
 731      00
 732              	.LEHE4:
 733 03dd 4883C408 		addq	$8, %rsp
 734              		.cfi_remember_state
 735              		.cfi_def_cfa_offset 24
 736 03e1 4889EF   		movq	%rbp, %rdi
 737 03e4 5D       		popq	%rbp
 738              		.cfi_def_cfa_offset 16
 739 03e5 415C     		popq	%r12
 740              		.cfi_def_cfa_offset 8
 741 03e7 E9000000 		jmp	_ZdlPv@PLT
 741      00
 742              	.L45:
 743              		.cfi_restore_state
 744 03ec F30F1EFA 		endbr64
 745 03f0 4989C4   		movq	%rax, %r12
 746 03f3 E9000000 		jmp	.L44
 746      00
 747              		.section	.gcc_except_table
 748              	.LLSDA1434:
 749 0020 FF       		.byte	0xff
 750 0021 FF       		.byte	0xff
 751 0022 01       		.byte	0x1
 752 0023 04       		.uleb128 .LLSDACSE1434-.LLSDACSB1434
 753              	.LLSDACSB1434:
 754 0024 18       		.uleb128 .LEHB4-.LFB1434
 755 0025 05       		.uleb128 .LEHE4-.LEHB4
 756 0026 2C       		.uleb128 .L45-.LFB1434
 757 0027 00       		.uleb128 0
 758              	.LLSDACSE1434:
 759              		.text
 760              		.cfi_endproc
 761              		.section	.text.unlikely
 762              		.cfi_startproc
 763              		.cfi_personality 0x9b,DW.ref.__gxx_personality_v0
 764              		.cfi_lsda 0x1b,.LLSDAC1434
 766              	_ZN12_GLOBAL__N_126TestCheckArray2DCloseFalseD0Ev.cold:
 767              	.LFSB1434:
 768              	.L44:
 769              		.cfi_def_cfa_offset 32
 770              		.cfi_offset 6, -24
 771              		.cfi_offset 12, -16
 772 0020 4889EF   		movq	%rbp, %rdi
 773 0023 E8000000 		call	_ZdlPv@PLT
 773      00
 774 0028 4C89E7   		movq	%r12, %rdi
 775              	.LEHB5:
 776 002b E8000000 		call	_Unwind_Resume@PLT
 776      00
 777              	.LEHE5:
 778              		.cfi_endproc
 779              	.LFE1434:
 780              		.section	.gcc_except_table
 781              	.LLSDAC1434:
 782 0028 FF       		.byte	0xff
 783 0029 FF       		.byte	0xff
 784 002a 01       		.byte	0x1
 785 002b 04       		.uleb128 .LLSDACSEC1434-.LLSDACSBC1434
 786              	.LLSDACSBC1434:
 787 002c 0B       		.uleb128 .LEHB5-.LCOLDB2
 788 002d 05       		.uleb128 .LEHE5-.LEHB5
 789 002e 00       		.uleb128 0
 790 002f 00       		.uleb128 0
 791              	.LLSDACSEC1434:
 792              		.section	.text.unlikely
 793              		.text
 795              		.section	.text.unlikely
 797              	.LCOLDE2:
 798              		.text
 799              	.LHOTE2:
 800              		.section	.text.unlikely
 801              		.align 2
 802              	.LCOLDB3:
 803              		.text
 804              	.LHOTB3:
 805              		.align 2
 806 03f8 0F1F8400 		.p2align 4
 806      00000000 
 808              	_ZN12_GLOBAL__N_125TestCheckArray2DCloseTrueD0Ev:
 809              	.LFB1438:
 810              		.cfi_startproc
 811              		.cfi_personality 0x9b,DW.ref.__gxx_personality_v0
 812              		.cfi_lsda 0x1b,.LLSDA1438
 813 0400 F30F1EFA 		endbr64
 814 0404 4154     		pushq	%r12
 815              		.cfi_def_cfa_offset 16
 816              		.cfi_offset 12, -16
 817 0406 488D0500 		leaq	16+_ZTVN12_GLOBAL__N_125TestCheckArray2DCloseTrueE(%rip), %rax
 817      000000
 818 040d 55       		pushq	%rbp
 819              		.cfi_def_cfa_offset 24
 820              		.cfi_offset 6, -24
 821 040e 4889FD   		movq	%rdi, %rbp
 822 0411 4883EC08 		subq	$8, %rsp
 823              		.cfi_def_cfa_offset 32
 824 0415 488907   		movq	%rax, (%rdi)
 825              	.LEHB6:
 826 0418 E8000000 		call	_ZN8UnitTest4TestD2Ev@PLT
 826      00
 827              	.LEHE6:
 828 041d 4883C408 		addq	$8, %rsp
 829              		.cfi_remember_state
 830              		.cfi_def_cfa_offset 24
 831 0421 4889EF   		movq	%rbp, %rdi
 832 0424 5D       		popq	%rbp
 833              		.cfi_def_cfa_offset 16
 834 0425 415C     		popq	%r12
 835              		.cfi_def_cfa_offset 8
 836 0427 E9000000 		jmp	_ZdlPv@PLT
 836      00
 837              	.L49:
 838              		.cfi_restore_state
 839 042c F30F1EFA 		endbr64
 840 0430 4989C4   		movq	%rax, %r12
 841 0433 E9000000 		jmp	.L48
 841      00
 842              		.section	.gcc_except_table
 843              	.LLSDA1438:
 844 0030 FF       		.byte	0xff
 845 0031 FF       		.byte	0xff
 846 0032 01       		.byte	0x1
 847 0033 04       		.uleb128 .LLSDACSE1438-.LLSDACSB1438
 848              	.LLSDACSB1438:
 849 0034 18       		.uleb128 .LEHB6-.LFB1438
 850 0035 05       		.uleb128 .LEHE6-.LEHB6
 851 0036 2C       		.uleb128 .L49-.LFB1438
 852 0037 00       		.uleb128 0
 853              	.LLSDACSE1438:
 854              		.text
 855              		.cfi_endproc
 856              		.section	.text.unlikely
 857              		.cfi_startproc
 858              		.cfi_personality 0x9b,DW.ref.__gxx_personality_v0
 859              		.cfi_lsda 0x1b,.LLSDAC1438
 861              	_ZN12_GLOBAL__N_125TestCheckArray2DCloseTrueD0Ev.cold:
 862              	.LFSB1438:
 863              	.L48:
 864              		.cfi_def_cfa_offset 32
 865              		.cfi_offset 6, -24
 866              		.cfi_offset 12, -16
 867 0030 4889EF   		movq	%rbp, %rdi
 868 0033 E8000000 		call	_ZdlPv@PLT
 868      00
 869 0038 4C89E7   		movq	%r12, %rdi
 870              	.LEHB7:
 871 003b E8000000 		call	_Unwind_Resume@PLT
 871      00
 872              	.LEHE7:
 873              		.cfi_endproc
 874              	.LFE1438:
 875              		.section	.gcc_except_table
 876              	.LLSDAC1438:
 877 0038 FF       		.byte	0xff
 878 0039 FF       		.byte	0xff
 879 003a 01       		.byte	0x1
 880 003b 04       		.uleb128 .LLSDACSEC1438-.LLSDACSBC1438
 881              	.LLSDACSBC1438:
 882 003c 0B       		.uleb128 .LEHB7-.LCOLDB3
 883 003d 05       		.uleb128 .LEHE7-.LEHB7
 884 003e 00       		.uleb128 0
 885 003f 00       		.uleb128 0
 886              	.LLSDACSEC1438:
 887              		.section	.text.unlikely
 888              		.text
 890              		.section	.text.unlikely
 892              	.LCOLDE3:
 893              		.text
 894              	.LHOTE3:
 895              		.section	.text.unlikely
 896              		.align 2
 897              	.LCOLDB4:
 898              		.text
 899              	.LHOTB4:
 900              		.align 2
 901 0438 0F1F8400 		.p2align 4
 901      00000000 
 903              	_ZN12_GLOBAL__N_141TestCheckArrayCloseFailureIncludesDetailsD0Ev:
 904              	.LFB1442:
 905              		.cfi_startproc
 906              		.cfi_personality 0x9b,DW.ref.__gxx_personality_v0
 907              		.cfi_lsda 0x1b,.LLSDA1442
 908 0440 F30F1EFA 		endbr64
 909 0444 4154     		pushq	%r12
 910              		.cfi_def_cfa_offset 16
 911              		.cfi_offset 12, -16
 912 0446 488D0500 		leaq	16+_ZTVN12_GLOBAL__N_141TestCheckArrayCloseFailureIncludesDetailsE(%rip), %rax
 912      000000
 913 044d 55       		pushq	%rbp
 914              		.cfi_def_cfa_offset 24
 915              		.cfi_offset 6, -24
 916 044e 4889FD   		movq	%rdi, %rbp
 917 0451 4883EC08 		subq	$8, %rsp
 918              		.cfi_def_cfa_offset 32
 919 0455 488907   		movq	%rax, (%rdi)
 920              	.LEHB8:
 921 0458 E8000000 		call	_ZN8UnitTest4TestD2Ev@PLT
 921      00
 922              	.LEHE8:
 923 045d 4883C408 		addq	$8, %rsp
 924              		.cfi_remember_state
 925              		.cfi_def_cfa_offset 24
 926 0461 4889EF   		movq	%rbp, %rdi
 927 0464 5D       		popq	%rbp
 928              		.cfi_def_cfa_offset 16
 929 0465 415C     		popq	%r12
 930              		.cfi_def_cfa_offset 8
 931 0467 E9000000 		jmp	_ZdlPv@PLT
 931      00
 932              	.L53:
 933              		.cfi_restore_state
 934 046c F30F1EFA 		endbr64
 935 0470 4989C4   		movq	%rax, %r12
 936 0473 E9000000 		jmp	.L52
 936      00
 937              		.section	.gcc_except_table
 938              	.LLSDA1442:
 939 0040 FF       		.byte	0xff
 940 0041 FF       		.byte	0xff
 941 0042 01       		.byte	0x1
 942 0043 04       		.uleb128 .LLSDACSE1442-.LLSDACSB1442
 943              	.LLSDACSB1442:
 944 0044 18       		.uleb128 .LEHB8-.LFB1442
 945 0045 05       		.uleb128 .LEHE8-.LEHB8
 946 0046 2C       		.uleb128 .L53-.LFB1442
 947 0047 00       		.uleb128 0
 948              	.LLSDACSE1442:
 949              		.text
 950              		.cfi_endproc
 951              		.section	.text.unlikely
 952              		.cfi_startproc
 953              		.cfi_personality 0x9b,DW.ref.__gxx_personality_v0
 954              		.cfi_lsda 0x1b,.LLSDAC1442
 956              	_ZN12_GLOBAL__N_141TestCheckArrayCloseFailureIncludesDetailsD0Ev.cold:
 957              	.LFSB1442:
 958              	.L52:
 959              		.cfi_def_cfa_offset 32
 960              		.cfi_offset 6, -24
 961              		.cfi_offset 12, -16
 962 0040 4889EF   		movq	%rbp, %rdi
 963 0043 E8000000 		call	_ZdlPv@PLT
 963      00
 964 0048 4C89E7   		movq	%r12, %rdi
 965              	.LEHB9:
 966 004b E8000000 		call	_Unwind_Resume@PLT
 966      00
 967              	.LEHE9:
 968              		.cfi_endproc
 969              	.LFE1442:
 970              		.section	.gcc_except_table
 971              	.LLSDAC1442:
 972 0048 FF       		.byte	0xff
 973 0049 FF       		.byte	0xff
 974 004a 01       		.byte	0x1
 975 004b 04       		.uleb128 .LLSDACSEC1442-.LLSDACSBC1442
 976              	.LLSDACSBC1442:
 977 004c 0B       		.uleb128 .LEHB9-.LCOLDB4
 978 004d 05       		.uleb128 .LEHE9-.LEHB9
 979 004e 00       		.uleb128 0
 980 004f 00       		.uleb128 0
 981              	.LLSDACSEC1442:
 982              		.section	.text.unlikely
 983              		.text
 985              		.section	.text.unlikely
 987              	.LCOLDE4:
 988              		.text
 989              	.LHOTE4:
 990              		.section	.text.unlikely
 991              		.align 2
 992              	.LCOLDB5:
 993              		.text
 994              	.LHOTB5:
 995              		.align 2
 996 0478 0F1F8400 		.p2align 4
 996      00000000 
 998              	_ZN12_GLOBAL__N_124TestCheckArrayCloseFalseD0Ev:
 999              	.LFB1446:
 1000              		.cfi_startproc
 1001              		.cfi_personality 0x9b,DW.ref.__gxx_personality_v0
 1002              		.cfi_lsda 0x1b,.LLSDA1446
 1003 0480 F30F1EFA 		endbr64
 1004 0484 4154     		pushq	%r12
 1005              		.cfi_def_cfa_offset 16
 1006              		.cfi_offset 12, -16
 1007 0486 488D0500 		leaq	16+_ZTVN12_GLOBAL__N_124TestCheckArrayCloseFalseE(%rip), %rax
 1007      000000
 1008 048d 55       		pushq	%rbp
 1009              		.cfi_def_cfa_offset 24
 1010              		.cfi_offset 6, -24
 1011 048e 4889FD   		movq	%rdi, %rbp
 1012 0491 4883EC08 		subq	$8, %rsp
 1013              		.cfi_def_cfa_offset 32
 1014 0495 488907   		movq	%rax, (%rdi)
 1015              	.LEHB10:
 1016 0498 E8000000 		call	_ZN8UnitTest4TestD2Ev@PLT
 1016      00
 1017              	.LEHE10:
 1018 049d 4883C408 		addq	$8, %rsp
 1019              		.cfi_remember_state
 1020              		.cfi_def_cfa_offset 24
 1021 04a1 4889EF   		movq	%rbp, %rdi
 1022 04a4 5D       		popq	%rbp
 1023              		.cfi_def_cfa_offset 16
 1024 04a5 415C     		popq	%r12
 1025              		.cfi_def_cfa_offset 8
 1026 04a7 E9000000 		jmp	_ZdlPv@PLT
 1026      00
 1027              	.L57:
 1028              		.cfi_restore_state
 1029 04ac F30F1EFA 		endbr64
 1030 04b0 4989C4   		movq	%rax, %r12
 1031 04b3 E9000000 		jmp	.L56
 1031      00
 1032              		.section	.gcc_except_table
 1033              	.LLSDA1446:
 1034 0050 FF       		.byte	0xff
 1035 0051 FF       		.byte	0xff
 1036 0052 01       		.byte	0x1
 1037 0053 04       		.uleb128 .LLSDACSE1446-.LLSDACSB1446
 1038              	.LLSDACSB1446:
 1039 0054 18       		.uleb128 .LEHB10-.LFB1446
 1040 0055 05       		.uleb128 .LEHE10-.LEHB10
 1041 0056 2C       		.uleb128 .L57-.LFB1446
 1042 0057 00       		.uleb128 0
 1043              	.LLSDACSE1446:
 1044              		.text
 1045              		.cfi_endproc
 1046              		.section	.text.unlikely
 1047              		.cfi_startproc
 1048              		.cfi_personality 0x9b,DW.ref.__gxx_personality_v0
 1049              		.cfi_lsda 0x1b,.LLSDAC1446
 1051              	_ZN12_GLOBAL__N_124TestCheckArrayCloseFalseD0Ev.cold:
 1052              	.LFSB1446:
 1053              	.L56:
 1054              		.cfi_def_cfa_offset 32
 1055              		.cfi_offset 6, -24
 1056              		.cfi_offset 12, -16
 1057 0050 4889EF   		movq	%rbp, %rdi
 1058 0053 E8000000 		call	_ZdlPv@PLT
 1058      00
 1059 0058 4C89E7   		movq	%r12, %rdi
 1060              	.LEHB11:
 1061 005b E8000000 		call	_Unwind_Resume@PLT
 1061      00
 1062              	.LEHE11:
 1063              		.cfi_endproc
 1064              	.LFE1446:
 1065              		.section	.gcc_except_table
 1066              	.LLSDAC1446:
 1067 0058 FF       		.byte	0xff
 1068 0059 FF       		.byte	0xff
 1069 005a 01       		.byte	0x1
 1070 005b 04       		.uleb128 .LLSDACSEC1446-.LLSDACSBC1446
 1071              	.LLSDACSBC1446:
 1072 005c 0B       		.uleb128 .LEHB11-.LCOLDB5
 1073 005d 05       		.uleb128 .LEHE11-.LEHB11
 1074 005e 00       		.uleb128 0
 1075 005f 00       		.uleb128 0
 1076              	.LLSDACSEC1446:
 1077              		.section	.text.unlikely
 1078              		.text
 1080              		.section	.text.unlikely
 1082              	.LCOLDE5:
 1083              		.text
 1084              	.LHOTE5:
 1085              		.section	.text.unlikely
 1086              		.align 2
 1087              	.LCOLDB6:
 1088              		.text
 1089              	.LHOTB6:
 1090              		.align 2
 1091 04b8 0F1F8400 		.p2align 4
 1091      00000000 
 1093              	_ZN12_GLOBAL__N_123TestCheckArrayCloseTrueD0Ev:
 1094              	.LFB1450:
 1095              		.cfi_startproc
 1096              		.cfi_personality 0x9b,DW.ref.__gxx_personality_v0
 1097              		.cfi_lsda 0x1b,.LLSDA1450
 1098 04c0 F30F1EFA 		endbr64
 1099 04c4 4154     		pushq	%r12
 1100              		.cfi_def_cfa_offset 16
 1101              		.cfi_offset 12, -16
 1102 04c6 488D0500 		leaq	16+_ZTVN12_GLOBAL__N_123TestCheckArrayCloseTrueE(%rip), %rax
 1102      000000
 1103 04cd 55       		pushq	%rbp
 1104              		.cfi_def_cfa_offset 24
 1105              		.cfi_offset 6, -24
 1106 04ce 4889FD   		movq	%rdi, %rbp
 1107 04d1 4883EC08 		subq	$8, %rsp
 1108              		.cfi_def_cfa_offset 32
 1109 04d5 488907   		movq	%rax, (%rdi)
 1110              	.LEHB12:
 1111 04d8 E8000000 		call	_ZN8UnitTest4TestD2Ev@PLT
 1111      00
 1112              	.LEHE12:
 1113 04dd 4883C408 		addq	$8, %rsp
 1114              		.cfi_remember_state
 1115              		.cfi_def_cfa_offset 24
 1116 04e1 4889EF   		movq	%rbp, %rdi
 1117 04e4 5D       		popq	%rbp
 1118              		.cfi_def_cfa_offset 16
 1119 04e5 415C     		popq	%r12
 1120              		.cfi_def_cfa_offset 8
 1121 04e7 E9000000 		jmp	_ZdlPv@PLT
 1121      00
 1122              	.L61:
 1123              		.cfi_restore_state
 1124 04ec F30F1EFA 		endbr64
 1125 04f0 4989C4   		movq	%rax, %r12
 1126 04f3 E9000000 		jmp	.L60
 1126      00
 1127              		.section	.gcc_except_table
 1128              	.LLSDA1450:
 1129 0060 FF       		.byte	0xff
 1130 0061 FF       		.byte	0xff
 1131 0062 01       		.byte	0x1
 1132 0063 04       		.uleb128 .LLSDACSE1450-.LLSDACSB1450
 1133              	.LLSDACSB1450:
 1134 0064 18       		.uleb128 .LEHB12-.LFB1450
 1135 0065 05       		.uleb128 .LEHE12-.LEHB12
 1136 0066 2C       		.uleb128 .L61-.LFB1450
 1137 0067 00       		.uleb128 0
 1138              	.LLSDACSE1450:
 1139              		.text
 1140              		.cfi_endproc
 1141              		.section	.text.unlikely
 1142              		.cfi_startproc
 1143              		.cfi_personality 0x9b,DW.ref.__gxx_personality_v0
 1144              		.cfi_lsda 0x1b,.LLSDAC1450
 1146              	_ZN12_GLOBAL__N_123TestCheckArrayCloseTrueD0Ev.cold:
 1147              	.LFSB1450:
 1148              	.L60:
 1149              		.cfi_def_cfa_offset 32
 1150              		.cfi_offset 6, -24
 1151              		.cfi_offset 12, -16
 1152 0060 4889EF   		movq	%rbp, %rdi
 1153 0063 E8000000 		call	_ZdlPv@PLT
 1153      00
 1154 0068 4C89E7   		movq	%r12, %rdi
 1155              	.LEHB13:
 1156 006b E8000000 		call	_Unwind_Resume@PLT
 1156      00
 1157              	.LEHE13:
 1158              		.cfi_endproc
 1159              	.LFE1450:
 1160              		.section	.gcc_except_table
 1161              	.LLSDAC1450:
 1162 0068 FF       		.byte	0xff
 1163 0069 FF       		.byte	0xff
 1164 006a 01       		.byte	0x1
 1165 006b 04       		.uleb128 .LLSDACSEC1450-.LLSDACSBC1450
 1166              	.LLSDACSBC1450:
 1167 006c 0B       		.uleb128 .LEHB13-.LCOLDB6
 1168 006d 05       		.uleb128 .LEHE13-.LEHB13
 1169 006e 00       		.uleb128 0
 1170 006f 00       		.uleb128 0
 1171              	.LLSDACSEC1450:
 1172              		.section	.text.unlikely
 1173              		.text
 1175              		.section	.text.unlikely
 1177              	.LCOLDE6:
 1178              		.text
 1179              	.LHOTE6:
 1180              		.section	.text.unlikely
 1181              		.align 2
 1182              	.LCOLDB7:
 1183              		.text
 1184              	.LHOTB7:
 1185              		.align 2
 1186 04f8 0F1F8400 		.p2align 4
 1186      00000000 
 1188              	_ZN12_GLOBAL__N_124TestCheckArrayEqualFalseD0Ev:
 1189              	.LFB1454:
 1190              		.cfi_startproc
 1191              		.cfi_personality 0x9b,DW.ref.__gxx_personality_v0
 1192              		.cfi_lsda 0x1b,.LLSDA1454
 1193 0500 F30F1EFA 		endbr64
 1194 0504 4154     		pushq	%r12
 1195              		.cfi_def_cfa_offset 16
 1196              		.cfi_offset 12, -16
 1197 0506 488D0500 		leaq	16+_ZTVN12_GLOBAL__N_124TestCheckArrayEqualFalseE(%rip), %rax
 1197      000000
 1198 050d 55       		pushq	%rbp
 1199              		.cfi_def_cfa_offset 24
 1200              		.cfi_offset 6, -24
 1201 050e 4889FD   		movq	%rdi, %rbp
 1202 0511 4883EC08 		subq	$8, %rsp
 1203              		.cfi_def_cfa_offset 32
 1204 0515 488907   		movq	%rax, (%rdi)
 1205              	.LEHB14:
 1206 0518 E8000000 		call	_ZN8UnitTest4TestD2Ev@PLT
 1206      00
 1207              	.LEHE14:
 1208 051d 4883C408 		addq	$8, %rsp
 1209              		.cfi_remember_state
 1210              		.cfi_def_cfa_offset 24
 1211 0521 4889EF   		movq	%rbp, %rdi
 1212 0524 5D       		popq	%rbp
 1213              		.cfi_def_cfa_offset 16
 1214 0525 415C     		popq	%r12
 1215              		.cfi_def_cfa_offset 8
 1216 0527 E9000000 		jmp	_ZdlPv@PLT
 1216      00
 1217              	.L65:
 1218              		.cfi_restore_state
 1219 052c F30F1EFA 		endbr64
 1220 0530 4989C4   		movq	%rax, %r12
 1221 0533 E9000000 		jmp	.L64
 1221      00
 1222              		.section	.gcc_except_table
 1223              	.LLSDA1454:
 1224 0070 FF       		.byte	0xff
 1225 0071 FF       		.byte	0xff
 1226 0072 01       		.byte	0x1
 1227 0073 04       		.uleb128 .LLSDACSE1454-.LLSDACSB1454
 1228              	.LLSDACSB1454:
 1229 0074 18       		.uleb128 .LEHB14-.LFB1454
 1230 0075 05       		.uleb128 .LEHE14-.LEHB14
 1231 0076 2C       		.uleb128 .L65-.LFB1454
 1232 0077 00       		.uleb128 0
 1233              	.LLSDACSE1454:
 1234              		.text
 1235              		.cfi_endproc
 1236              		.section	.text.unlikely
 1237              		.cfi_startproc
 1238              		.cfi_personality 0x9b,DW.ref.__gxx_personality_v0
 1239              		.cfi_lsda 0x1b,.LLSDAC1454
 1241              	_ZN12_GLOBAL__N_124TestCheckArrayEqualFalseD0Ev.cold:
 1242              	.LFSB1454:
 1243              	.L64:
 1244              		.cfi_def_cfa_offset 32
 1245              		.cfi_offset 6, -24
 1246              		.cfi_offset 12, -16
 1247 0070 4889EF   		movq	%rbp, %rdi
 1248 0073 E8000000 		call	_ZdlPv@PLT
 1248      00
 1249 0078 4C89E7   		movq	%r12, %rdi
 1250              	.LEHB15:
 1251 007b E8000000 		call	_Unwind_Resume@PLT
 1251      00
 1252              	.LEHE15:
 1253              		.cfi_endproc
 1254              	.LFE1454:
 1255              		.section	.gcc_except_table
 1256              	.LLSDAC1454:
 1257 0078 FF       		.byte	0xff
 1258 0079 FF       		.byte	0xff
 1259 007a 01       		.byte	0x1
 1260 007b 04       		.uleb128 .LLSDACSEC1454-.LLSDACSBC1454
 1261              	.LLSDACSBC1454:
 1262 007c 0B       		.uleb128 .LEHB15-.LCOLDB7
 1263 007d 05       		.uleb128 .LEHE15-.LEHB15
 1264 007e 00       		.uleb128 0
 1265 007f 00       		.uleb128 0
 1266              	.LLSDACSEC1454:
 1267              		.section	.text.unlikely
 1268              		.text
 1270              		.section	.text.unlikely
 1272              	.LCOLDE7:
 1273              		.text
 1274              	.LHOTE7:
 1275              		.section	.text.unlikely
 1276              		.align 2
 1277              	.LCOLDB8:
 1278              		.text
 1279              	.LHOTB8:
 1280              		.align 2
 1281 0538 0F1F8400 		.p2align 4
 1281      00000000 
 1283              	_ZN12_GLOBAL__N_123TestCheckArrayEqualTrueD0Ev:
 1284              	.LFB1458:
 1285              		.cfi_startproc
 1286              		.cfi_personality 0x9b,DW.ref.__gxx_personality_v0
 1287              		.cfi_lsda 0x1b,.LLSDA1458
 1288 0540 F30F1EFA 		endbr64
 1289 0544 4154     		pushq	%r12
 1290              		.cfi_def_cfa_offset 16
 1291              		.cfi_offset 12, -16
 1292 0546 488D0500 		leaq	16+_ZTVN12_GLOBAL__N_123TestCheckArrayEqualTrueE(%rip), %rax
 1292      000000
 1293 054d 55       		pushq	%rbp
 1294              		.cfi_def_cfa_offset 24
 1295              		.cfi_offset 6, -24
 1296 054e 4889FD   		movq	%rdi, %rbp
 1297 0551 4883EC08 		subq	$8, %rsp
 1298              		.cfi_def_cfa_offset 32
 1299 0555 488907   		movq	%rax, (%rdi)
 1300              	.LEHB16:
 1301 0558 E8000000 		call	_ZN8UnitTest4TestD2Ev@PLT
 1301      00
 1302              	.LEHE16:
 1303 055d 4883C408 		addq	$8, %rsp
 1304              		.cfi_remember_state
 1305              		.cfi_def_cfa_offset 24
 1306 0561 4889EF   		movq	%rbp, %rdi
 1307 0564 5D       		popq	%rbp
 1308              		.cfi_def_cfa_offset 16
 1309 0565 415C     		popq	%r12
 1310              		.cfi_def_cfa_offset 8
 1311 0567 E9000000 		jmp	_ZdlPv@PLT
 1311      00
 1312              	.L69:
 1313              		.cfi_restore_state
 1314 056c F30F1EFA 		endbr64
 1315 0570 4989C4   		movq	%rax, %r12
 1316 0573 E9000000 		jmp	.L68
 1316      00
 1317              		.section	.gcc_except_table
 1318              	.LLSDA1458:
 1319 0080 FF       		.byte	0xff
 1320 0081 FF       		.byte	0xff
 1321 0082 01       		.byte	0x1
 1322 0083 04       		.uleb128 .LLSDACSE1458-.LLSDACSB1458
 1323              	.LLSDACSB1458:
 1324 0084 18       		.uleb128 .LEHB16-.LFB1458
 1325 0085 05       		.uleb128 .LEHE16-.LEHB16
 1326 0086 2C       		.uleb128 .L69-.LFB1458
 1327 0087 00       		.uleb128 0
 1328              	.LLSDACSE1458:
 1329              		.text
 1330              		.cfi_endproc
 1331              		.section	.text.unlikely
 1332              		.cfi_startproc
 1333              		.cfi_personality 0x9b,DW.ref.__gxx_personality_v0
 1334              		.cfi_lsda 0x1b,.LLSDAC1458
 1336              	_ZN12_GLOBAL__N_123TestCheckArrayEqualTrueD0Ev.cold:
 1337              	.LFSB1458:
 1338              	.L68:
 1339              		.cfi_def_cfa_offset 32
 1340              		.cfi_offset 6, -24
 1341              		.cfi_offset 12, -16
 1342 0080 4889EF   		movq	%rbp, %rdi
 1343 0083 E8000000 		call	_ZdlPv@PLT
 1343      00
 1344 0088 4C89E7   		movq	%r12, %rdi
 1345              	.LEHB17:
 1346 008b E8000000 		call	_Unwind_Resume@PLT
 1346      00
 1347              	.LEHE17:
 1348              		.cfi_endproc
 1349              	.LFE1458:
 1350              		.section	.gcc_except_table
 1351              	.LLSDAC1458:
 1352 0088 FF       		.byte	0xff
 1353 0089 FF       		.byte	0xff
 1354 008a 01       		.byte	0x1
 1355 008b 04       		.uleb128 .LLSDACSEC1458-.LLSDACSBC1458
 1356              	.LLSDACSBC1458:
 1357 008c 0B       		.uleb128 .LEHB17-.LCOLDB8
 1358 008d 05       		.uleb128 .LEHE17-.LEHB17
 1359 008e 00       		.uleb128 0
 1360 008f 00       		.uleb128 0
 1361              	.LLSDACSEC1458:
 1362              		.section	.text.unlikely
 1363              		.text
 1365              		.section	.text.unlikely
 1367              	.LCOLDE8:
 1368              		.text
 1369              	.LHOTE8:
 1370              		.section	.text.unlikely
 1371              		.align 2
 1372              	.LCOLDB9:
 1373              		.text
 1374              	.LHOTB9:
 1375              		.align 2
 1376 0578 0F1F8400 		.p2align 4
 1376      00000000 
 1378              	_ZN12_GLOBAL__N_136TestCheckCloseFailureIncludesDetailsD0Ev:
 1379              	.LFB1462:
 1380              		.cfi_startproc
 1381              		.cfi_personality 0x9b,DW.ref.__gxx_personality_v0
 1382              		.cfi_lsda 0x1b,.LLSDA1462
 1383 0580 F30F1EFA 		endbr64
 1384 0584 4154     		pushq	%r12
 1385              		.cfi_def_cfa_offset 16
 1386              		.cfi_offset 12, -16
 1387 0586 488D0500 		leaq	16+_ZTVN12_GLOBAL__N_136TestCheckCloseFailureIncludesDetailsE(%rip), %rax
 1387      000000
 1388 058d 55       		pushq	%rbp
 1389              		.cfi_def_cfa_offset 24
 1390              		.cfi_offset 6, -24
 1391 058e 4889FD   		movq	%rdi, %rbp
 1392 0591 4883EC08 		subq	$8, %rsp
 1393              		.cfi_def_cfa_offset 32
 1394 0595 488907   		movq	%rax, (%rdi)
 1395              	.LEHB18:
 1396 0598 E8000000 		call	_ZN8UnitTest4TestD2Ev@PLT
 1396      00
 1397              	.LEHE18:
 1398 059d 4883C408 		addq	$8, %rsp
 1399              		.cfi_remember_state
 1400              		.cfi_def_cfa_offset 24
 1401 05a1 4889EF   		movq	%rbp, %rdi
 1402 05a4 5D       		popq	%rbp
 1403              		.cfi_def_cfa_offset 16
 1404 05a5 415C     		popq	%r12
 1405              		.cfi_def_cfa_offset 8
 1406 05a7 E9000000 		jmp	_ZdlPv@PLT
 1406      00
 1407              	.L73:
 1408              		.cfi_restore_state
 1409 05ac F30F1EFA 		endbr64
 1410 05b0 4989C4   		movq	%rax, %r12
 1411 05b3 E9000000 		jmp	.L72
 1411      00
 1412              		.section	.gcc_except_table
 1413              	.LLSDA1462:
 1414 0090 FF       		.byte	0xff
 1415 0091 FF       		.byte	0xff
 1416 0092 01       		.byte	0x1
 1417 0093 04       		.uleb128 .LLSDACSE1462-.LLSDACSB1462
 1418              	.LLSDACSB1462:
 1419 0094 18       		.uleb128 .LEHB18-.LFB1462
 1420 0095 05       		.uleb128 .LEHE18-.LEHB18
 1421 0096 2C       		.uleb128 .L73-.LFB1462
 1422 0097 00       		.uleb128 0
 1423              	.LLSDACSE1462:
 1424              		.text
 1425              		.cfi_endproc
 1426              		.section	.text.unlikely
 1427              		.cfi_startproc
 1428              		.cfi_personality 0x9b,DW.ref.__gxx_personality_v0
 1429              		.cfi_lsda 0x1b,.LLSDAC1462
 1431              	_ZN12_GLOBAL__N_136TestCheckCloseFailureIncludesDetailsD0Ev.cold:
 1432              	.LFSB1462:
 1433              	.L72:
 1434              		.cfi_def_cfa_offset 32
 1435              		.cfi_offset 6, -24
 1436              		.cfi_offset 12, -16
 1437 0090 4889EF   		movq	%rbp, %rdi
 1438 0093 E8000000 		call	_ZdlPv@PLT
 1438      00
 1439 0098 4C89E7   		movq	%r12, %rdi
 1440              	.LEHB19:
 1441 009b E8000000 		call	_Unwind_Resume@PLT
 1441      00
 1442              	.LEHE19:
 1443              		.cfi_endproc
 1444              	.LFE1462:
 1445              		.section	.gcc_except_table
 1446              	.LLSDAC1462:
 1447 0098 FF       		.byte	0xff
 1448 0099 FF       		.byte	0xff
 1449 009a 01       		.byte	0x1
 1450 009b 04       		.uleb128 .LLSDACSEC1462-.LLSDACSBC1462
 1451              	.LLSDACSBC1462:
 1452 009c 0B       		.uleb128 .LEHB19-.LCOLDB9
 1453 009d 05       		.uleb128 .LEHE19-.LEHB19
 1454 009e 00       		.uleb128 0
 1455 009f 00       		.uleb128 0
 1456              	.LLSDACSEC1462:
 1457              		.section	.text.unlikely
 1458              		.text
 1460              		.section	.text.unlikely
 1462              	.LCOLDE9:
 1463              		.text
 1464              	.LHOTE9:
 1465              		.section	.text.unlikely
 1466              		.align 2
 1467              	.LCOLDB10:
 1468              		.text
 1469              	.LHOTB10:
 1470              		.align 2
 1471 05b8 0F1F8400 		.p2align 4
 1471      00000000 
 1473              	_ZN12_GLOBAL__N_138TestCheckCloseFailureIncludesToleranceD0Ev:
 1474              	.LFB1466:
 1475              		.cfi_startproc
 1476              		.cfi_personality 0x9b,DW.ref.__gxx_personality_v0
 1477              		.cfi_lsda 0x1b,.LLSDA1466
 1478 05c0 F30F1EFA 		endbr64
 1479 05c4 4154     		pushq	%r12
 1480              		.cfi_def_cfa_offset 16
 1481              		.cfi_offset 12, -16
 1482 05c6 488D0500 		leaq	16+_ZTVN12_GLOBAL__N_138TestCheckCloseFailureIncludesToleranceE(%rip), %rax
 1482      000000
 1483 05cd 55       		pushq	%rbp
 1484              		.cfi_def_cfa_offset 24
 1485              		.cfi_offset 6, -24
 1486 05ce 4889FD   		movq	%rdi, %rbp
 1487 05d1 4883EC08 		subq	$8, %rsp
 1488              		.cfi_def_cfa_offset 32
 1489 05d5 488907   		movq	%rax, (%rdi)
 1490              	.LEHB20:
 1491 05d8 E8000000 		call	_ZN8UnitTest4TestD2Ev@PLT
 1491      00
 1492              	.LEHE20:
 1493 05dd 4883C408 		addq	$8, %rsp
 1494              		.cfi_remember_state
 1495              		.cfi_def_cfa_offset 24
 1496 05e1 4889EF   		movq	%rbp, %rdi
 1497 05e4 5D       		popq	%rbp
 1498              		.cfi_def_cfa_offset 16
 1499 05e5 415C     		popq	%r12
 1500              		.cfi_def_cfa_offset 8
 1501 05e7 E9000000 		jmp	_ZdlPv@PLT
 1501      00
 1502              	.L77:
 1503              		.cfi_restore_state
 1504 05ec F30F1EFA 		endbr64
 1505 05f0 4989C4   		movq	%rax, %r12
 1506 05f3 E9000000 		jmp	.L76
 1506      00
 1507              		.section	.gcc_except_table
 1508              	.LLSDA1466:
 1509 00a0 FF       		.byte	0xff
 1510 00a1 FF       		.byte	0xff
 1511 00a2 01       		.byte	0x1
 1512 00a3 04       		.uleb128 .LLSDACSE1466-.LLSDACSB1466
 1513              	.LLSDACSB1466:
 1514 00a4 18       		.uleb128 .LEHB20-.LFB1466
 1515 00a5 05       		.uleb128 .LEHE20-.LEHB20
 1516 00a6 2C       		.uleb128 .L77-.LFB1466
 1517 00a7 00       		.uleb128 0
 1518              	.LLSDACSE1466:
 1519              		.text
 1520              		.cfi_endproc
 1521              		.section	.text.unlikely
 1522              		.cfi_startproc
 1523              		.cfi_personality 0x9b,DW.ref.__gxx_personality_v0
 1524              		.cfi_lsda 0x1b,.LLSDAC1466
 1526              	_ZN12_GLOBAL__N_138TestCheckCloseFailureIncludesToleranceD0Ev.cold:
 1527              	.LFSB1466:
 1528              	.L76:
 1529              		.cfi_def_cfa_offset 32
 1530              		.cfi_offset 6, -24
 1531              		.cfi_offset 12, -16
 1532 00a0 4889EF   		movq	%rbp, %rdi
 1533 00a3 E8000000 		call	_ZdlPv@PLT
 1533      00
 1534 00a8 4C89E7   		movq	%r12, %rdi
 1535              	.LEHB21:
 1536 00ab E8000000 		call	_Unwind_Resume@PLT
 1536      00
 1537              	.LEHE21:
 1538              		.cfi_endproc
 1539              	.LFE1466:
 1540              		.section	.gcc_except_table
 1541              	.LLSDAC1466:
 1542 00a8 FF       		.byte	0xff
 1543 00a9 FF       		.byte	0xff
 1544 00aa 01       		.byte	0x1
 1545 00ab 04       		.uleb128 .LLSDACSEC1466-.LLSDACSBC1466
 1546              	.LLSDACSBC1466:
 1547 00ac 0B       		.uleb128 .LEHB21-.LCOLDB10
 1548 00ad 05       		.uleb128 .LEHE21-.LEHB21
 1549 00ae 00       		.uleb128 0
 1550 00af 00       		.uleb128 0
 1551              	.LLSDACSEC1466:
 1552              		.section	.text.unlikely
 1553              		.text
 1555              		.section	.text.unlikely
 1557              	.LCOLDE10:
 1558              		.text
 1559              	.LHOTE10:
 1560              		.section	.text.unlikely
 1561              		.align 2
 1562              	.LCOLDB11:
 1563              		.text
 1564              	.LHOTB11:
 1565              		.align 2
 1566 05f8 0F1F8400 		.p2align 4
 1566      00000000 
 1568              	_ZN12_GLOBAL__N_151TestCheckCloseFailureIncludesCheckExpectedAndActualD0Ev:
 1569              	.LFB1470:
 1570              		.cfi_startproc
 1571              		.cfi_personality 0x9b,DW.ref.__gxx_personality_v0
 1572              		.cfi_lsda 0x1b,.LLSDA1470
 1573 0600 F30F1EFA 		endbr64
 1574 0604 4154     		pushq	%r12
 1575              		.cfi_def_cfa_offset 16
 1576              		.cfi_offset 12, -16
 1577 0606 488D0500 		leaq	16+_ZTVN12_GLOBAL__N_151TestCheckCloseFailureIncludesCheckExpectedAndActualE(%rip), %rax
 1577      000000
 1578 060d 55       		pushq	%rbp
 1579              		.cfi_def_cfa_offset 24
 1580              		.cfi_offset 6, -24
 1581 060e 4889FD   		movq	%rdi, %rbp
 1582 0611 4883EC08 		subq	$8, %rsp
 1583              		.cfi_def_cfa_offset 32
 1584 0615 488907   		movq	%rax, (%rdi)
 1585              	.LEHB22:
 1586 0618 E8000000 		call	_ZN8UnitTest4TestD2Ev@PLT
 1586      00
 1587              	.LEHE22:
 1588 061d 4883C408 		addq	$8, %rsp
 1589              		.cfi_remember_state
 1590              		.cfi_def_cfa_offset 24
 1591 0621 4889EF   		movq	%rbp, %rdi
 1592 0624 5D       		popq	%rbp
 1593              		.cfi_def_cfa_offset 16
 1594 0625 415C     		popq	%r12
 1595              		.cfi_def_cfa_offset 8
 1596 0627 E9000000 		jmp	_ZdlPv@PLT
 1596      00
 1597              	.L81:
 1598              		.cfi_restore_state
 1599 062c F30F1EFA 		endbr64
 1600 0630 4989C4   		movq	%rax, %r12
 1601 0633 E9000000 		jmp	.L80
 1601      00
 1602              		.section	.gcc_except_table
 1603              	.LLSDA1470:
 1604 00b0 FF       		.byte	0xff
 1605 00b1 FF       		.byte	0xff
 1606 00b2 01       		.byte	0x1
 1607 00b3 04       		.uleb128 .LLSDACSE1470-.LLSDACSB1470
 1608              	.LLSDACSB1470:
 1609 00b4 18       		.uleb128 .LEHB22-.LFB1470
 1610 00b5 05       		.uleb128 .LEHE22-.LEHB22
 1611 00b6 2C       		.uleb128 .L81-.LFB1470
 1612 00b7 00       		.uleb128 0
 1613              	.LLSDACSE1470:
 1614              		.text
 1615              		.cfi_endproc
 1616              		.section	.text.unlikely
 1617              		.cfi_startproc
 1618              		.cfi_personality 0x9b,DW.ref.__gxx_personality_v0
 1619              		.cfi_lsda 0x1b,.LLSDAC1470
 1621              	_ZN12_GLOBAL__N_151TestCheckCloseFailureIncludesCheckExpectedAndActualD0Ev.cold:
 1622              	.LFSB1470:
 1623              	.L80:
 1624              		.cfi_def_cfa_offset 32
 1625              		.cfi_offset 6, -24
 1626              		.cfi_offset 12, -16
 1627 00b0 4889EF   		movq	%rbp, %rdi
 1628 00b3 E8000000 		call	_ZdlPv@PLT
 1628      00
 1629 00b8 4C89E7   		movq	%r12, %rdi
 1630              	.LEHB23:
 1631 00bb E8000000 		call	_Unwind_Resume@PLT
 1631      00
 1632              	.LEHE23:
 1633              		.cfi_endproc
 1634              	.LFE1470:
 1635              		.section	.gcc_except_table
 1636              	.LLSDAC1470:
 1637 00b8 FF       		.byte	0xff
 1638 00b9 FF       		.byte	0xff
 1639 00ba 01       		.byte	0x1
 1640 00bb 04       		.uleb128 .LLSDACSEC1470-.LLSDACSBC1470
 1641              	.LLSDACSBC1470:
 1642 00bc 0B       		.uleb128 .LEHB23-.LCOLDB11
 1643 00bd 05       		.uleb128 .LEHE23-.LEHB23
 1644 00be 00       		.uleb128 0
 1645 00bf 00       		.uleb128 0
 1646              	.LLSDACSEC1470:
 1647              		.section	.text.unlikely
 1648              		.text
 1650              		.section	.text.unlikely
 1652              	.LCOLDE11:
 1653              		.text
 1654              	.LHOTE11:
 1655              		.section	.text.unlikely
 1656              		.align 2
 1657              	.LCOLDB12:
 1658              		.text
 1659              	.LHOTB12:
 1660              		.align 2
 1661 0638 0F1F8400 		.p2align 4
 1661      00000000 
 1663              	_ZN12_GLOBAL__N_139TestCheckCloseWithNaNAgainstItselfFailsD0Ev:
 1664              	.LFB1474:
 1665              		.cfi_startproc
 1666              		.cfi_personality 0x9b,DW.ref.__gxx_personality_v0
 1667              		.cfi_lsda 0x1b,.LLSDA1474
 1668 0640 F30F1EFA 		endbr64
 1669 0644 4154     		pushq	%r12
 1670              		.cfi_def_cfa_offset 16
 1671              		.cfi_offset 12, -16
 1672 0646 488D0500 		leaq	16+_ZTVN12_GLOBAL__N_139TestCheckCloseWithNaNAgainstItselfFailsE(%rip), %rax
 1672      000000
 1673 064d 55       		pushq	%rbp
 1674              		.cfi_def_cfa_offset 24
 1675              		.cfi_offset 6, -24
 1676 064e 4889FD   		movq	%rdi, %rbp
 1677 0651 4883EC08 		subq	$8, %rsp
 1678              		.cfi_def_cfa_offset 32
 1679 0655 488907   		movq	%rax, (%rdi)
 1680              	.LEHB24:
 1681 0658 E8000000 		call	_ZN8UnitTest4TestD2Ev@PLT
 1681      00
 1682              	.LEHE24:
 1683 065d 4883C408 		addq	$8, %rsp
 1684              		.cfi_remember_state
 1685              		.cfi_def_cfa_offset 24
 1686 0661 4889EF   		movq	%rbp, %rdi
 1687 0664 5D       		popq	%rbp
 1688              		.cfi_def_cfa_offset 16
 1689 0665 415C     		popq	%r12
 1690              		.cfi_def_cfa_offset 8
 1691 0667 E9000000 		jmp	_ZdlPv@PLT
 1691      00
 1692              	.L85:
 1693              		.cfi_restore_state
 1694 066c F30F1EFA 		endbr64
 1695 0670 4989C4   		movq	%rax, %r12
 1696 0673 E9000000 		jmp	.L84
 1696      00
 1697              		.section	.gcc_except_table
 1698              	.LLSDA1474:
 1699 00c0 FF       		.byte	0xff
 1700 00c1 FF       		.byte	0xff
 1701 00c2 01       		.byte	0x1
 1702 00c3 04       		.uleb128 .LLSDACSE1474-.LLSDACSB1474
 1703              	.LLSDACSB1474:
 1704 00c4 18       		.uleb128 .LEHB24-.LFB1474
 1705 00c5 05       		.uleb128 .LEHE24-.LEHB24
 1706 00c6 2C       		.uleb128 .L85-.LFB1474
 1707 00c7 00       		.uleb128 0
 1708              	.LLSDACSE1474:
 1709              		.text
 1710              		.cfi_endproc
 1711              		.section	.text.unlikely
 1712              		.cfi_startproc
 1713              		.cfi_personality 0x9b,DW.ref.__gxx_personality_v0
 1714              		.cfi_lsda 0x1b,.LLSDAC1474
 1716              	_ZN12_GLOBAL__N_139TestCheckCloseWithNaNAgainstItselfFailsD0Ev.cold:
 1717              	.LFSB1474:
 1718              	.L84:
 1719              		.cfi_def_cfa_offset 32
 1720              		.cfi_offset 6, -24
 1721              		.cfi_offset 12, -16
 1722 00c0 4889EF   		movq	%rbp, %rdi
 1723 00c3 E8000000 		call	_ZdlPv@PLT
 1723      00
 1724 00c8 4C89E7   		movq	%r12, %rdi
 1725              	.LEHB25:
 1726 00cb E8000000 		call	_Unwind_Resume@PLT
 1726      00
 1727              	.LEHE25:
 1728              		.cfi_endproc
 1729              	.LFE1474:
 1730              		.section	.gcc_except_table
 1731              	.LLSDAC1474:
 1732 00c8 FF       		.byte	0xff
 1733 00c9 FF       		.byte	0xff
 1734 00ca 01       		.byte	0x1
 1735 00cb 04       		.uleb128 .LLSDACSEC1474-.LLSDACSBC1474
 1736              	.LLSDACSBC1474:
 1737 00cc 0B       		.uleb128 .LEHB25-.LCOLDB12
 1738 00cd 05       		.uleb128 .LEHE25-.LEHB25
 1739 00ce 00       		.uleb128 0
 1740 00cf 00       		.uleb128 0
 1741              	.LLSDACSEC1474:
 1742              		.section	.text.unlikely
 1743              		.text
 1745              		.section	.text.unlikely
 1747              	.LCOLDE12:
 1748              		.text
 1749              	.LHOTE12:
 1750              		.section	.text.unlikely
 1751              		.align 2
 1752              	.LCOLDB13:
 1753              		.text
 1754              	.LHOTB13:
 1755              		.align 2
 1756 0678 0F1F8400 		.p2align 4
 1756      00000000 
 1758              	_ZN12_GLOBAL__N_126TestCheckCloseWithNaNFailsD0Ev:
 1759              	.LFB1478:
 1760              		.cfi_startproc
 1761              		.cfi_personality 0x9b,DW.ref.__gxx_personality_v0
 1762              		.cfi_lsda 0x1b,.LLSDA1478
 1763 0680 F30F1EFA 		endbr64
 1764 0684 4154     		pushq	%r12
 1765              		.cfi_def_cfa_offset 16
 1766              		.cfi_offset 12, -16
 1767 0686 488D0500 		leaq	16+_ZTVN12_GLOBAL__N_126TestCheckCloseWithNaNFailsE(%rip), %rax
 1767      000000
 1768 068d 55       		pushq	%rbp
 1769              		.cfi_def_cfa_offset 24
 1770              		.cfi_offset 6, -24
 1771 068e 4889FD   		movq	%rdi, %rbp
 1772 0691 4883EC08 		subq	$8, %rsp
 1773              		.cfi_def_cfa_offset 32
 1774 0695 488907   		movq	%rax, (%rdi)
 1775              	.LEHB26:
 1776 0698 E8000000 		call	_ZN8UnitTest4TestD2Ev@PLT
 1776      00
 1777              	.LEHE26:
 1778 069d 4883C408 		addq	$8, %rsp
 1779              		.cfi_remember_state
 1780              		.cfi_def_cfa_offset 24
 1781 06a1 4889EF   		movq	%rbp, %rdi
 1782 06a4 5D       		popq	%rbp
 1783              		.cfi_def_cfa_offset 16
 1784 06a5 415C     		popq	%r12
 1785              		.cfi_def_cfa_offset 8
 1786 06a7 E9000000 		jmp	_ZdlPv@PLT
 1786      00
 1787              	.L89:
 1788              		.cfi_restore_state
 1789 06ac F30F1EFA 		endbr64
 1790 06b0 4989C4   		movq	%rax, %r12
 1791 06b3 E9000000 		jmp	.L88
 1791      00
 1792              		.section	.gcc_except_table
 1793              	.LLSDA1478:
 1794 00d0 FF       		.byte	0xff
 1795 00d1 FF       		.byte	0xff
 1796 00d2 01       		.byte	0x1
 1797 00d3 04       		.uleb128 .LLSDACSE1478-.LLSDACSB1478
 1798              	.LLSDACSB1478:
 1799 00d4 18       		.uleb128 .LEHB26-.LFB1478
 1800 00d5 05       		.uleb128 .LEHE26-.LEHB26
 1801 00d6 2C       		.uleb128 .L89-.LFB1478
 1802 00d7 00       		.uleb128 0
 1803              	.LLSDACSE1478:
 1804              		.text
 1805              		.cfi_endproc
 1806              		.section	.text.unlikely
 1807              		.cfi_startproc
 1808              		.cfi_personality 0x9b,DW.ref.__gxx_personality_v0
 1809              		.cfi_lsda 0x1b,.LLSDAC1478
 1811              	_ZN12_GLOBAL__N_126TestCheckCloseWithNaNFailsD0Ev.cold:
 1812              	.LFSB1478:
 1813              	.L88:
 1814              		.cfi_def_cfa_offset 32
 1815              		.cfi_offset 6, -24
 1816              		.cfi_offset 12, -16
 1817 00d0 4889EF   		movq	%rbp, %rdi
 1818 00d3 E8000000 		call	_ZdlPv@PLT
 1818      00
 1819 00d8 4C89E7   		movq	%r12, %rdi
 1820              	.LEHB27:
 1821 00db E8000000 		call	_Unwind_Resume@PLT
 1821      00
 1822              	.LEHE27:
 1823              		.cfi_endproc
 1824              	.LFE1478:
 1825              		.section	.gcc_except_table
 1826              	.LLSDAC1478:
 1827 00d8 FF       		.byte	0xff
 1828 00d9 FF       		.byte	0xff
 1829 00da 01       		.byte	0x1
 1830 00db 04       		.uleb128 .LLSDACSEC1478-.LLSDACSBC1478
 1831              	.LLSDACSBC1478:
 1832 00dc 0B       		.uleb128 .LEHB27-.LCOLDB13
 1833 00dd 05       		.uleb128 .LEHE27-.LEHB27
 1834 00de 00       		.uleb128 0
 1835 00df 00       		.uleb128 0
 1836              	.LLSDACSEC1478:
 1837              		.section	.text.unlikely
 1838              		.text
 1840              		.section	.text.unlikely
 1842              	.LCOLDE13:
 1843              		.text
 1844              	.LHOTE13:
 1845              		.section	.text.unlikely
 1846              		.align 2
 1847              	.LCOLDB14:
 1848              		.text
 1849              	.LHOTB14:
 1850              		.align 2
 1851 06b8 0F1F8400 		.p2align 4
 1851      00000000 
 1853              	_ZN12_GLOBAL__N_147TestCheckCloseWithZeroEpsilonWorksForSameNumberD0Ev:
 1854              	.LFB1482:
 1855              		.cfi_startproc
 1856              		.cfi_personality 0x9b,DW.ref.__gxx_personality_v0
 1857              		.cfi_lsda 0x1b,.LLSDA1482
 1858 06c0 F30F1EFA 		endbr64
 1859 06c4 4154     		pushq	%r12
 1860              		.cfi_def_cfa_offset 16
 1861              		.cfi_offset 12, -16
 1862 06c6 488D0500 		leaq	16+_ZTVN12_GLOBAL__N_147TestCheckCloseWithZeroEpsilonWorksForSameNumberE(%rip), %rax
 1862      000000
 1863 06cd 55       		pushq	%rbp
 1864              		.cfi_def_cfa_offset 24
 1865              		.cfi_offset 6, -24
 1866 06ce 4889FD   		movq	%rdi, %rbp
 1867 06d1 4883EC08 		subq	$8, %rsp
 1868              		.cfi_def_cfa_offset 32
 1869 06d5 488907   		movq	%rax, (%rdi)
 1870              	.LEHB28:
 1871 06d8 E8000000 		call	_ZN8UnitTest4TestD2Ev@PLT
 1871      00
 1872              	.LEHE28:
 1873 06dd 4883C408 		addq	$8, %rsp
 1874              		.cfi_remember_state
 1875              		.cfi_def_cfa_offset 24
 1876 06e1 4889EF   		movq	%rbp, %rdi
 1877 06e4 5D       		popq	%rbp
 1878              		.cfi_def_cfa_offset 16
 1879 06e5 415C     		popq	%r12
 1880              		.cfi_def_cfa_offset 8
 1881 06e7 E9000000 		jmp	_ZdlPv@PLT
 1881      00
 1882              	.L93:
 1883              		.cfi_restore_state
 1884 06ec F30F1EFA 		endbr64
 1885 06f0 4989C4   		movq	%rax, %r12
 1886 06f3 E9000000 		jmp	.L92
 1886      00
 1887              		.section	.gcc_except_table
 1888              	.LLSDA1482:
 1889 00e0 FF       		.byte	0xff
 1890 00e1 FF       		.byte	0xff
 1891 00e2 01       		.byte	0x1
 1892 00e3 04       		.uleb128 .LLSDACSE1482-.LLSDACSB1482
 1893              	.LLSDACSB1482:
 1894 00e4 18       		.uleb128 .LEHB28-.LFB1482
 1895 00e5 05       		.uleb128 .LEHE28-.LEHB28
 1896 00e6 2C       		.uleb128 .L93-.LFB1482
 1897 00e7 00       		.uleb128 0
 1898              	.LLSDACSE1482:
 1899              		.text
 1900              		.cfi_endproc
 1901              		.section	.text.unlikely
 1902              		.cfi_startproc
 1903              		.cfi_personality 0x9b,DW.ref.__gxx_personality_v0
 1904              		.cfi_lsda 0x1b,.LLSDAC1482
 1906              	_ZN12_GLOBAL__N_147TestCheckCloseWithZeroEpsilonWorksForSameNumberD0Ev.cold:
 1907              	.LFSB1482:
 1908              	.L92:
 1909              		.cfi_def_cfa_offset 32
 1910              		.cfi_offset 6, -24
 1911              		.cfi_offset 12, -16
 1912 00e0 4889EF   		movq	%rbp, %rdi
 1913 00e3 E8000000 		call	_ZdlPv@PLT
 1913      00
 1914 00e8 4C89E7   		movq	%r12, %rdi
 1915              	.LEHB29:
 1916 00eb E8000000 		call	_Unwind_Resume@PLT
 1916      00
 1917              	.LEHE29:
 1918              		.cfi_endproc
 1919              	.LFE1482:
 1920              		.section	.gcc_except_table
 1921              	.LLSDAC1482:
 1922 00e8 FF       		.byte	0xff
 1923 00e9 FF       		.byte	0xff
 1924 00ea 01       		.byte	0x1
 1925 00eb 04       		.uleb128 .LLSDACSEC1482-.LLSDACSBC1482
 1926              	.LLSDACSBC1482:
 1927 00ec 0B       		.uleb128 .LEHB29-.LCOLDB14
 1928 00ed 05       		.uleb128 .LEHE29-.LEHB29
 1929 00ee 00       		.uleb128 0
 1930 00ef 00       		.uleb128 0
 1931              	.LLSDACSEC1482:
 1932              		.section	.text.unlikely
 1933              		.text
 1935              		.section	.text.unlikely
 1937              	.LCOLDE14:
 1938              		.text
 1939              	.LHOTE14:
 1940              		.section	.text.unlikely
 1941              		.align 2
 1942              	.LCOLDB15:
 1943              		.text
 1944              	.LHOTB15:
 1945              		.align 2
 1946 06f8 0F1F8400 		.p2align 4
 1946      00000000 
 1948              	_ZN12_GLOBAL__N_119TestCheckCloseFalseD0Ev:
 1949              	.LFB1486:
 1950              		.cfi_startproc
 1951              		.cfi_personality 0x9b,DW.ref.__gxx_personality_v0
 1952              		.cfi_lsda 0x1b,.LLSDA1486
 1953 0700 F30F1EFA 		endbr64
 1954 0704 4154     		pushq	%r12
 1955              		.cfi_def_cfa_offset 16
 1956              		.cfi_offset 12, -16
 1957 0706 488D0500 		leaq	16+_ZTVN12_GLOBAL__N_119TestCheckCloseFalseE(%rip), %rax
 1957      000000
 1958 070d 55       		pushq	%rbp
 1959              		.cfi_def_cfa_offset 24
 1960              		.cfi_offset 6, -24
 1961 070e 4889FD   		movq	%rdi, %rbp
 1962 0711 4883EC08 		subq	$8, %rsp
 1963              		.cfi_def_cfa_offset 32
 1964 0715 488907   		movq	%rax, (%rdi)
 1965              	.LEHB30:
 1966 0718 E8000000 		call	_ZN8UnitTest4TestD2Ev@PLT
 1966      00
 1967              	.LEHE30:
 1968 071d 4883C408 		addq	$8, %rsp
 1969              		.cfi_remember_state
 1970              		.cfi_def_cfa_offset 24
 1971 0721 4889EF   		movq	%rbp, %rdi
 1972 0724 5D       		popq	%rbp
 1973              		.cfi_def_cfa_offset 16
 1974 0725 415C     		popq	%r12
 1975              		.cfi_def_cfa_offset 8
 1976 0727 E9000000 		jmp	_ZdlPv@PLT
 1976      00
 1977              	.L97:
 1978              		.cfi_restore_state
 1979 072c F30F1EFA 		endbr64
 1980 0730 4989C4   		movq	%rax, %r12
 1981 0733 E9000000 		jmp	.L96
 1981      00
 1982              		.section	.gcc_except_table
 1983              	.LLSDA1486:
 1984 00f0 FF       		.byte	0xff
 1985 00f1 FF       		.byte	0xff
 1986 00f2 01       		.byte	0x1
 1987 00f3 04       		.uleb128 .LLSDACSE1486-.LLSDACSB1486
 1988              	.LLSDACSB1486:
 1989 00f4 18       		.uleb128 .LEHB30-.LFB1486
 1990 00f5 05       		.uleb128 .LEHE30-.LEHB30
 1991 00f6 2C       		.uleb128 .L97-.LFB1486
 1992 00f7 00       		.uleb128 0
 1993              	.LLSDACSE1486:
 1994              		.text
 1995              		.cfi_endproc
 1996              		.section	.text.unlikely
 1997              		.cfi_startproc
 1998              		.cfi_personality 0x9b,DW.ref.__gxx_personality_v0
 1999              		.cfi_lsda 0x1b,.LLSDAC1486
 2001              	_ZN12_GLOBAL__N_119TestCheckCloseFalseD0Ev.cold:
 2002              	.LFSB1486:
 2003              	.L96:
 2004              		.cfi_def_cfa_offset 32
 2005              		.cfi_offset 6, -24
 2006              		.cfi_offset 12, -16
 2007 00f0 4889EF   		movq	%rbp, %rdi
 2008 00f3 E8000000 		call	_ZdlPv@PLT
 2008      00
 2009 00f8 4C89E7   		movq	%r12, %rdi
 2010              	.LEHB31:
 2011 00fb E8000000 		call	_Unwind_Resume@PLT
 2011      00
 2012              	.LEHE31:
 2013              		.cfi_endproc
 2014              	.LFE1486:
 2015              		.section	.gcc_except_table
 2016              	.LLSDAC1486:
 2017 00f8 FF       		.byte	0xff
 2018 00f9 FF       		.byte	0xff
 2019 00fa 01       		.byte	0x1
 2020 00fb 04       		.uleb128 .LLSDACSEC1486-.LLSDACSBC1486
 2021              	.LLSDACSBC1486:
 2022 00fc 0B       		.uleb128 .LEHB31-.LCOLDB15
 2023 00fd 05       		.uleb128 .LEHE31-.LEHB31
 2024 00fe 00       		.uleb128 0
 2025 00ff 00       		.uleb128 0
 2026              	.LLSDACSEC1486:
 2027              		.section	.text.unlikely
 2028              		.text
 2030              		.section	.text.unlikely
 2032              	.LCOLDE15:
 2033              		.text
 2034              	.LHOTE15:
 2035              		.section	.text.unlikely
 2036              		.align 2
 2037              	.LCOLDB16:
 2038              		.text
 2039              	.LHOTB16:
 2040              		.align 2
 2041 0738 0F1F8400 		.p2align 4
 2041      00000000 
 2043              	_ZN12_GLOBAL__N_118TestCheckCloseTrueD0Ev:
 2044              	.LFB1490:
 2045              		.cfi_startproc
 2046              		.cfi_personality 0x9b,DW.ref.__gxx_personality_v0
 2047              		.cfi_lsda 0x1b,.LLSDA1490
 2048 0740 F30F1EFA 		endbr64
 2049 0744 4154     		pushq	%r12
 2050              		.cfi_def_cfa_offset 16
 2051              		.cfi_offset 12, -16
 2052 0746 488D0500 		leaq	16+_ZTVN12_GLOBAL__N_118TestCheckCloseTrueE(%rip), %rax
 2052      000000
 2053 074d 55       		pushq	%rbp
 2054              		.cfi_def_cfa_offset 24
 2055              		.cfi_offset 6, -24
 2056 074e 4889FD   		movq	%rdi, %rbp
 2057 0751 4883EC08 		subq	$8, %rsp
 2058              		.cfi_def_cfa_offset 32
 2059 0755 488907   		movq	%rax, (%rdi)
 2060              	.LEHB32:
 2061 0758 E8000000 		call	_ZN8UnitTest4TestD2Ev@PLT
 2061      00
 2062              	.LEHE32:
 2063 075d 4883C408 		addq	$8, %rsp
 2064              		.cfi_remember_state
 2065              		.cfi_def_cfa_offset 24
 2066 0761 4889EF   		movq	%rbp, %rdi
 2067 0764 5D       		popq	%rbp
 2068              		.cfi_def_cfa_offset 16
 2069 0765 415C     		popq	%r12
 2070              		.cfi_def_cfa_offset 8
 2071 0767 E9000000 		jmp	_ZdlPv@PLT
 2071      00
 2072              	.L101:
 2073              		.cfi_restore_state
 2074 076c F30F1EFA 		endbr64
 2075 0770 4989C4   		movq	%rax, %r12
 2076 0773 E9000000 		jmp	.L100
 2076      00
 2077              		.section	.gcc_except_table
 2078              	.LLSDA1490:
 2079 0100 FF       		.byte	0xff
 2080 0101 FF       		.byte	0xff
 2081 0102 01       		.byte	0x1
 2082 0103 04       		.uleb128 .LLSDACSE1490-.LLSDACSB1490
 2083              	.LLSDACSB1490:
 2084 0104 18       		.uleb128 .LEHB32-.LFB1490
 2085 0105 05       		.uleb128 .LEHE32-.LEHB32
 2086 0106 2C       		.uleb128 .L101-.LFB1490
 2087 0107 00       		.uleb128 0
 2088              	.LLSDACSE1490:
 2089              		.text
 2090              		.cfi_endproc
 2091              		.section	.text.unlikely
 2092              		.cfi_startproc
 2093              		.cfi_personality 0x9b,DW.ref.__gxx_personality_v0
 2094              		.cfi_lsda 0x1b,.LLSDAC1490
 2096              	_ZN12_GLOBAL__N_118TestCheckCloseTrueD0Ev.cold:
 2097              	.LFSB1490:
 2098              	.L100:
 2099              		.cfi_def_cfa_offset 32
 2100              		.cfi_offset 6, -24
 2101              		.cfi_offset 12, -16
 2102 0100 4889EF   		movq	%rbp, %rdi
 2103 0103 E8000000 		call	_ZdlPv@PLT
 2103      00
 2104 0108 4C89E7   		movq	%r12, %rdi
 2105              	.LEHB33:
 2106 010b E8000000 		call	_Unwind_Resume@PLT
 2106      00
 2107              	.LEHE33:
 2108              		.cfi_endproc
 2109              	.LFE1490:
 2110              		.section	.gcc_except_table
 2111              	.LLSDAC1490:
 2112 0108 FF       		.byte	0xff
 2113 0109 FF       		.byte	0xff
 2114 010a 01       		.byte	0x1
 2115 010b 04       		.uleb128 .LLSDACSEC1490-.LLSDACSBC1490
 2116              	.LLSDACSBC1490:
 2117 010c 0B       		.uleb128 .LEHB33-.LCOLDB16
 2118 010d 05       		.uleb128 .LEHE33-.LEHB33
 2119 010e 00       		.uleb128 0
 2120 010f 00       		.uleb128 0
 2121              	.LLSDACSEC1490:
 2122              		.section	.text.unlikely
 2123              		.text
 2125              		.section	.text.unlikely
 2127              	.LCOLDE16:
 2128              		.text
 2129              	.LHOTE16:
 2130              		.section	.text.unlikely
 2131              		.align 2
 2132              	.LCOLDB17:
 2133              		.text
 2134              	.LHOTB17:
 2135              		.align 2
 2136 0778 0F1F8400 		.p2align 4
 2136      00000000 
 2138              	_ZN12_GLOBAL__N_136TestCheckEqualFailureIncludesDetailsD0Ev:
 2139              	.LFB1494:
 2140              		.cfi_startproc
 2141              		.cfi_personality 0x9b,DW.ref.__gxx_personality_v0
 2142              		.cfi_lsda 0x1b,.LLSDA1494
 2143 0780 F30F1EFA 		endbr64
 2144 0784 4154     		pushq	%r12
 2145              		.cfi_def_cfa_offset 16
 2146              		.cfi_offset 12, -16
 2147 0786 488D0500 		leaq	16+_ZTVN12_GLOBAL__N_136TestCheckEqualFailureIncludesDetailsE(%rip), %rax
 2147      000000
 2148 078d 55       		pushq	%rbp
 2149              		.cfi_def_cfa_offset 24
 2150              		.cfi_offset 6, -24
 2151 078e 4889FD   		movq	%rdi, %rbp
 2152 0791 4883EC08 		subq	$8, %rsp
 2153              		.cfi_def_cfa_offset 32
 2154 0795 488907   		movq	%rax, (%rdi)
 2155              	.LEHB34:
 2156 0798 E8000000 		call	_ZN8UnitTest4TestD2Ev@PLT
 2156      00
 2157              	.LEHE34:
 2158 079d 4883C408 		addq	$8, %rsp
 2159              		.cfi_remember_state
 2160              		.cfi_def_cfa_offset 24
 2161 07a1 4889EF   		movq	%rbp, %rdi
 2162 07a4 5D       		popq	%rbp
 2163              		.cfi_def_cfa_offset 16
 2164 07a5 415C     		popq	%r12
 2165              		.cfi_def_cfa_offset 8
 2166 07a7 E9000000 		jmp	_ZdlPv@PLT
 2166      00
 2167              	.L105:
 2168              		.cfi_restore_state
 2169 07ac F30F1EFA 		endbr64
 2170 07b0 4989C4   		movq	%rax, %r12
 2171 07b3 E9000000 		jmp	.L104
 2171      00
 2172              		.section	.gcc_except_table
 2173              	.LLSDA1494:
 2174 0110 FF       		.byte	0xff
 2175 0111 FF       		.byte	0xff
 2176 0112 01       		.byte	0x1
 2177 0113 04       		.uleb128 .LLSDACSE1494-.LLSDACSB1494
 2178              	.LLSDACSB1494:
 2179 0114 18       		.uleb128 .LEHB34-.LFB1494
 2180 0115 05       		.uleb128 .LEHE34-.LEHB34
 2181 0116 2C       		.uleb128 .L105-.LFB1494
 2182 0117 00       		.uleb128 0
 2183              	.LLSDACSE1494:
 2184              		.text
 2185              		.cfi_endproc
 2186              		.section	.text.unlikely
 2187              		.cfi_startproc
 2188              		.cfi_personality 0x9b,DW.ref.__gxx_personality_v0
 2189              		.cfi_lsda 0x1b,.LLSDAC1494
 2191              	_ZN12_GLOBAL__N_136TestCheckEqualFailureIncludesDetailsD0Ev.cold:
 2192              	.LFSB1494:
 2193              	.L104:
 2194              		.cfi_def_cfa_offset 32
 2195              		.cfi_offset 6, -24
 2196              		.cfi_offset 12, -16
 2197 0110 4889EF   		movq	%rbp, %rdi
 2198 0113 E8000000 		call	_ZdlPv@PLT
 2198      00
 2199 0118 4C89E7   		movq	%r12, %rdi
 2200              	.LEHB35:
 2201 011b E8000000 		call	_Unwind_Resume@PLT
 2201      00
 2202              	.LEHE35:
 2203              		.cfi_endproc
 2204              	.LFE1494:
 2205              		.section	.gcc_except_table
 2206              	.LLSDAC1494:
 2207 0118 FF       		.byte	0xff
 2208 0119 FF       		.byte	0xff
 2209 011a 01       		.byte	0x1
 2210 011b 04       		.uleb128 .LLSDACSEC1494-.LLSDACSBC1494
 2211              	.LLSDACSBC1494:
 2212 011c 0B       		.uleb128 .LEHB35-.LCOLDB17
 2213 011d 05       		.uleb128 .LEHE35-.LEHB35
 2214 011e 00       		.uleb128 0
 2215 011f 00       		.uleb128 0
 2216              	.LLSDACSEC1494:
 2217              		.section	.text.unlikely
 2218              		.text
 2220              		.section	.text.unlikely
 2222              	.LCOLDE17:
 2223              		.text
 2224              	.LHOTE17:
 2225              		.section	.text.unlikely
 2226              		.align 2
 2227              	.LCOLDB18:
 2228              		.text
 2229              	.LHOTB18:
 2230              		.align 2
 2231 07b8 0F1F8400 		.p2align 4
 2231      00000000 
 2233              	_ZN12_GLOBAL__N_151TestCheckEqualFailureIncludesCheckExpectedAndActualD0Ev:
 2234              	.LFB1498:
 2235              		.cfi_startproc
 2236              		.cfi_personality 0x9b,DW.ref.__gxx_personality_v0
 2237              		.cfi_lsda 0x1b,.LLSDA1498
 2238 07c0 F30F1EFA 		endbr64
 2239 07c4 4154     		pushq	%r12
 2240              		.cfi_def_cfa_offset 16
 2241              		.cfi_offset 12, -16
 2242 07c6 488D0500 		leaq	16+_ZTVN12_GLOBAL__N_151TestCheckEqualFailureIncludesCheckExpectedAndActualE(%rip), %rax
 2242      000000
 2243 07cd 55       		pushq	%rbp
 2244              		.cfi_def_cfa_offset 24
 2245              		.cfi_offset 6, -24
 2246 07ce 4889FD   		movq	%rdi, %rbp
 2247 07d1 4883EC08 		subq	$8, %rsp
 2248              		.cfi_def_cfa_offset 32
 2249 07d5 488907   		movq	%rax, (%rdi)
 2250              	.LEHB36:
 2251 07d8 E8000000 		call	_ZN8UnitTest4TestD2Ev@PLT
 2251      00
 2252              	.LEHE36:
 2253 07dd 4883C408 		addq	$8, %rsp
 2254              		.cfi_remember_state
 2255              		.cfi_def_cfa_offset 24
 2256 07e1 4889EF   		movq	%rbp, %rdi
 2257 07e4 5D       		popq	%rbp
 2258              		.cfi_def_cfa_offset 16
 2259 07e5 415C     		popq	%r12
 2260              		.cfi_def_cfa_offset 8
 2261 07e7 E9000000 		jmp	_ZdlPv@PLT
 2261      00
 2262              	.L109:
 2263              		.cfi_restore_state
 2264 07ec F30F1EFA 		endbr64
 2265 07f0 4989C4   		movq	%rax, %r12
 2266 07f3 E9000000 		jmp	.L108
 2266      00
 2267              		.section	.gcc_except_table
 2268              	.LLSDA1498:
 2269 0120 FF       		.byte	0xff
 2270 0121 FF       		.byte	0xff
 2271 0122 01       		.byte	0x1
 2272 0123 04       		.uleb128 .LLSDACSE1498-.LLSDACSB1498
 2273              	.LLSDACSB1498:
 2274 0124 18       		.uleb128 .LEHB36-.LFB1498
 2275 0125 05       		.uleb128 .LEHE36-.LEHB36
 2276 0126 2C       		.uleb128 .L109-.LFB1498
 2277 0127 00       		.uleb128 0
 2278              	.LLSDACSE1498:
 2279              		.text
 2280              		.cfi_endproc
 2281              		.section	.text.unlikely
 2282              		.cfi_startproc
 2283              		.cfi_personality 0x9b,DW.ref.__gxx_personality_v0
 2284              		.cfi_lsda 0x1b,.LLSDAC1498
 2286              	_ZN12_GLOBAL__N_151TestCheckEqualFailureIncludesCheckExpectedAndActualD0Ev.cold:
 2287              	.LFSB1498:
 2288              	.L108:
 2289              		.cfi_def_cfa_offset 32
 2290              		.cfi_offset 6, -24
 2291              		.cfi_offset 12, -16
 2292 0120 4889EF   		movq	%rbp, %rdi
 2293 0123 E8000000 		call	_ZdlPv@PLT
 2293      00
 2294 0128 4C89E7   		movq	%r12, %rdi
 2295              	.LEHB37:
 2296 012b E8000000 		call	_Unwind_Resume@PLT
 2296      00
 2297              	.LEHE37:
 2298              		.cfi_endproc
 2299              	.LFE1498:
 2300              		.section	.gcc_except_table
 2301              	.LLSDAC1498:
 2302 0128 FF       		.byte	0xff
 2303 0129 FF       		.byte	0xff
 2304 012a 01       		.byte	0x1
 2305 012b 04       		.uleb128 .LLSDACSEC1498-.LLSDACSBC1498
 2306              	.LLSDACSBC1498:
 2307 012c 0B       		.uleb128 .LEHB37-.LCOLDB18
 2308 012d 05       		.uleb128 .LEHE37-.LEHB37
 2309 012e 00       		.uleb128 0
 2310 012f 00       		.uleb128 0
 2311              	.LLSDACSEC1498:
 2312              		.section	.text.unlikely
 2313              		.text
 2315              		.section	.text.unlikely
 2317              	.LCOLDE18:
 2318              		.text
 2319              	.LHOTE18:
 2320              		.section	.text.unlikely
 2321              		.align 2
 2322              	.LCOLDB19:
 2323              		.text
 2324              	.LHOTB19:
 2325              		.align 2
 2326 07f8 0F1F8400 		.p2align 4
 2326      00000000 
 2328              	_ZN12_GLOBAL__N_153TestCheckEqualsWithStringsWorksOnContentsWithALiteralD0Ev:
 2329              	.LFB1502:
 2330              		.cfi_startproc
 2331              		.cfi_personality 0x9b,DW.ref.__gxx_personality_v0
 2332              		.cfi_lsda 0x1b,.LLSDA1502
 2333 0800 F30F1EFA 		endbr64
 2334 0804 4154     		pushq	%r12
 2335              		.cfi_def_cfa_offset 16
 2336              		.cfi_offset 12, -16
 2337 0806 488D0500 		leaq	16+_ZTVN12_GLOBAL__N_153TestCheckEqualsWithStringsWorksOnContentsWithALiteralE(%rip), %rax
 2337      000000
 2338 080d 55       		pushq	%rbp
 2339              		.cfi_def_cfa_offset 24
 2340              		.cfi_offset 6, -24
 2341 080e 4889FD   		movq	%rdi, %rbp
 2342 0811 4883EC08 		subq	$8, %rsp
 2343              		.cfi_def_cfa_offset 32
 2344 0815 488907   		movq	%rax, (%rdi)
 2345              	.LEHB38:
 2346 0818 E8000000 		call	_ZN8UnitTest4TestD2Ev@PLT
 2346      00
 2347              	.LEHE38:
 2348 081d 4883C408 		addq	$8, %rsp
 2349              		.cfi_remember_state
 2350              		.cfi_def_cfa_offset 24
 2351 0821 4889EF   		movq	%rbp, %rdi
 2352 0824 5D       		popq	%rbp
 2353              		.cfi_def_cfa_offset 16
 2354 0825 415C     		popq	%r12
 2355              		.cfi_def_cfa_offset 8
 2356 0827 E9000000 		jmp	_ZdlPv@PLT
 2356      00
 2357              	.L113:
 2358              		.cfi_restore_state
 2359 082c F30F1EFA 		endbr64
 2360 0830 4989C4   		movq	%rax, %r12
 2361 0833 E9000000 		jmp	.L112
 2361      00
 2362              		.section	.gcc_except_table
 2363              	.LLSDA1502:
 2364 0130 FF       		.byte	0xff
 2365 0131 FF       		.byte	0xff
 2366 0132 01       		.byte	0x1
 2367 0133 04       		.uleb128 .LLSDACSE1502-.LLSDACSB1502
 2368              	.LLSDACSB1502:
 2369 0134 18       		.uleb128 .LEHB38-.LFB1502
 2370 0135 05       		.uleb128 .LEHE38-.LEHB38
 2371 0136 2C       		.uleb128 .L113-.LFB1502
 2372 0137 00       		.uleb128 0
 2373              	.LLSDACSE1502:
 2374              		.text
 2375              		.cfi_endproc
 2376              		.section	.text.unlikely
 2377              		.cfi_startproc
 2378              		.cfi_personality 0x9b,DW.ref.__gxx_personality_v0
 2379              		.cfi_lsda 0x1b,.LLSDAC1502
 2381              	_ZN12_GLOBAL__N_153TestCheckEqualsWithStringsWorksOnContentsWithALiteralD0Ev.cold:
 2382              	.LFSB1502:
 2383              	.L112:
 2384              		.cfi_def_cfa_offset 32
 2385              		.cfi_offset 6, -24
 2386              		.cfi_offset 12, -16
 2387 0130 4889EF   		movq	%rbp, %rdi
 2388 0133 E8000000 		call	_ZdlPv@PLT
 2388      00
 2389 0138 4C89E7   		movq	%r12, %rdi
 2390              	.LEHB39:
 2391 013b E8000000 		call	_Unwind_Resume@PLT
 2391      00
 2392              	.LEHE39:
 2393              		.cfi_endproc
 2394              	.LFE1502:
 2395              		.section	.gcc_except_table
 2396              	.LLSDAC1502:
 2397 0138 FF       		.byte	0xff
 2398 0139 FF       		.byte	0xff
 2399 013a 01       		.byte	0x1
 2400 013b 04       		.uleb128 .LLSDACSEC1502-.LLSDACSBC1502
 2401              	.LLSDACSBC1502:
 2402 013c 0B       		.uleb128 .LEHB39-.LCOLDB19
 2403 013d 05       		.uleb128 .LEHE39-.LEHB39
 2404 013e 00       		.uleb128 0
 2405 013f 00       		.uleb128 0
 2406              	.LLSDACSEC1502:
 2407              		.section	.text.unlikely
 2408              		.text
 2410              		.section	.text.unlikely
 2412              	.LCOLDE19:
 2413              		.text
 2414              	.LHOTE19:
 2415              		.section	.text.unlikely
 2416              		.align 2
 2417              	.LCOLDB20:
 2418              		.text
 2419              	.LHOTB20:
 2420              		.align 2
 2421 0838 0F1F8400 		.p2align 4
 2421      00000000 
 2423              	_ZN12_GLOBAL__N_154TestCheckEqualsWithStringsWorksOnContentsConstNonConstD0Ev:
 2424              	.LFB1506:
 2425              		.cfi_startproc
 2426              		.cfi_personality 0x9b,DW.ref.__gxx_personality_v0
 2427              		.cfi_lsda 0x1b,.LLSDA1506
 2428 0840 F30F1EFA 		endbr64
 2429 0844 4154     		pushq	%r12
 2430              		.cfi_def_cfa_offset 16
 2431              		.cfi_offset 12, -16
 2432 0846 488D0500 		leaq	16+_ZTVN12_GLOBAL__N_154TestCheckEqualsWithStringsWorksOnContentsConstNonConstE(%rip), %rax
 2432      000000
 2433 084d 55       		pushq	%rbp
 2434              		.cfi_def_cfa_offset 24
 2435              		.cfi_offset 6, -24
 2436 084e 4889FD   		movq	%rdi, %rbp
 2437 0851 4883EC08 		subq	$8, %rsp
 2438              		.cfi_def_cfa_offset 32
 2439 0855 488907   		movq	%rax, (%rdi)
 2440              	.LEHB40:
 2441 0858 E8000000 		call	_ZN8UnitTest4TestD2Ev@PLT
 2441      00
 2442              	.LEHE40:
 2443 085d 4883C408 		addq	$8, %rsp
 2444              		.cfi_remember_state
 2445              		.cfi_def_cfa_offset 24
 2446 0861 4889EF   		movq	%rbp, %rdi
 2447 0864 5D       		popq	%rbp
 2448              		.cfi_def_cfa_offset 16
 2449 0865 415C     		popq	%r12
 2450              		.cfi_def_cfa_offset 8
 2451 0867 E9000000 		jmp	_ZdlPv@PLT
 2451      00
 2452              	.L117:
 2453              		.cfi_restore_state
 2454 086c F30F1EFA 		endbr64
 2455 0870 4989C4   		movq	%rax, %r12
 2456 0873 E9000000 		jmp	.L116
 2456      00
 2457              		.section	.gcc_except_table
 2458              	.LLSDA1506:
 2459 0140 FF       		.byte	0xff
 2460 0141 FF       		.byte	0xff
 2461 0142 01       		.byte	0x1
 2462 0143 04       		.uleb128 .LLSDACSE1506-.LLSDACSB1506
 2463              	.LLSDACSB1506:
 2464 0144 18       		.uleb128 .LEHB40-.LFB1506
 2465 0145 05       		.uleb128 .LEHE40-.LEHB40
 2466 0146 2C       		.uleb128 .L117-.LFB1506
 2467 0147 00       		.uleb128 0
 2468              	.LLSDACSE1506:
 2469              		.text
 2470              		.cfi_endproc
 2471              		.section	.text.unlikely
 2472              		.cfi_startproc
 2473              		.cfi_personality 0x9b,DW.ref.__gxx_personality_v0
 2474              		.cfi_lsda 0x1b,.LLSDAC1506
 2476              	_ZN12_GLOBAL__N_154TestCheckEqualsWithStringsWorksOnContentsConstNonConstD0Ev.cold:
 2477              	.LFSB1506:
 2478              	.L116:
 2479              		.cfi_def_cfa_offset 32
 2480              		.cfi_offset 6, -24
 2481              		.cfi_offset 12, -16
 2482 0140 4889EF   		movq	%rbp, %rdi
 2483 0143 E8000000 		call	_ZdlPv@PLT
 2483      00
 2484 0148 4C89E7   		movq	%r12, %rdi
 2485              	.LEHB41:
 2486 014b E8000000 		call	_Unwind_Resume@PLT
 2486      00
 2487              	.LEHE41:
 2488              		.cfi_endproc
 2489              	.LFE1506:
 2490              		.section	.gcc_except_table
 2491              	.LLSDAC1506:
 2492 0148 FF       		.byte	0xff
 2493 0149 FF       		.byte	0xff
 2494 014a 01       		.byte	0x1
 2495 014b 04       		.uleb128 .LLSDACSEC1506-.LLSDACSBC1506
 2496              	.LLSDACSBC1506:
 2497 014c 0B       		.uleb128 .LEHB41-.LCOLDB20
 2498 014d 05       		.uleb128 .LEHE41-.LEHB41
 2499 014e 00       		.uleb128 0
 2500 014f 00       		.uleb128 0
 2501              	.LLSDACSEC1506:
 2502              		.section	.text.unlikely
 2503              		.text
 2505              		.section	.text.unlikely
 2507              	.LCOLDE20:
 2508              		.text
 2509              	.LHOTE20:
 2510              		.section	.text.unlikely
 2511              		.align 2
 2512              	.LCOLDB21:
 2513              		.text
 2514              	.LHOTB21:
 2515              		.align 2
 2516 0878 0F1F8400 		.p2align 4
 2516      00000000 
 2518              	_ZN12_GLOBAL__N_154TestCheckEqualsWithStringsWorksOnContentsNonConstConstD0Ev:
 2519              	.LFB1510:
 2520              		.cfi_startproc
 2521              		.cfi_personality 0x9b,DW.ref.__gxx_personality_v0
 2522              		.cfi_lsda 0x1b,.LLSDA1510
 2523 0880 F30F1EFA 		endbr64
 2524 0884 4154     		pushq	%r12
 2525              		.cfi_def_cfa_offset 16
 2526              		.cfi_offset 12, -16
 2527 0886 488D0500 		leaq	16+_ZTVN12_GLOBAL__N_154TestCheckEqualsWithStringsWorksOnContentsNonConstConstE(%rip), %rax
 2527      000000
 2528 088d 55       		pushq	%rbp
 2529              		.cfi_def_cfa_offset 24
 2530              		.cfi_offset 6, -24
 2531 088e 4889FD   		movq	%rdi, %rbp
 2532 0891 4883EC08 		subq	$8, %rsp
 2533              		.cfi_def_cfa_offset 32
 2534 0895 488907   		movq	%rax, (%rdi)
 2535              	.LEHB42:
 2536 0898 E8000000 		call	_ZN8UnitTest4TestD2Ev@PLT
 2536      00
 2537              	.LEHE42:
 2538 089d 4883C408 		addq	$8, %rsp
 2539              		.cfi_remember_state
 2540              		.cfi_def_cfa_offset 24
 2541 08a1 4889EF   		movq	%rbp, %rdi
 2542 08a4 5D       		popq	%rbp
 2543              		.cfi_def_cfa_offset 16
 2544 08a5 415C     		popq	%r12
 2545              		.cfi_def_cfa_offset 8
 2546 08a7 E9000000 		jmp	_ZdlPv@PLT
 2546      00
 2547              	.L121:
 2548              		.cfi_restore_state
 2549 08ac F30F1EFA 		endbr64
 2550 08b0 4989C4   		movq	%rax, %r12
 2551 08b3 E9000000 		jmp	.L120
 2551      00
 2552              		.section	.gcc_except_table
 2553              	.LLSDA1510:
 2554 0150 FF       		.byte	0xff
 2555 0151 FF       		.byte	0xff
 2556 0152 01       		.byte	0x1
 2557 0153 04       		.uleb128 .LLSDACSE1510-.LLSDACSB1510
 2558              	.LLSDACSB1510:
 2559 0154 18       		.uleb128 .LEHB42-.LFB1510
 2560 0155 05       		.uleb128 .LEHE42-.LEHB42
 2561 0156 2C       		.uleb128 .L121-.LFB1510
 2562 0157 00       		.uleb128 0
 2563              	.LLSDACSE1510:
 2564              		.text
 2565              		.cfi_endproc
 2566              		.section	.text.unlikely
 2567              		.cfi_startproc
 2568              		.cfi_personality 0x9b,DW.ref.__gxx_personality_v0
 2569              		.cfi_lsda 0x1b,.LLSDAC1510
 2571              	_ZN12_GLOBAL__N_154TestCheckEqualsWithStringsWorksOnContentsNonConstConstD0Ev.cold:
 2572              	.LFSB1510:
 2573              	.L120:
 2574              		.cfi_def_cfa_offset 32
 2575              		.cfi_offset 6, -24
 2576              		.cfi_offset 12, -16
 2577 0150 4889EF   		movq	%rbp, %rdi
 2578 0153 E8000000 		call	_ZdlPv@PLT
 2578      00
 2579 0158 4C89E7   		movq	%r12, %rdi
 2580              	.LEHB43:
 2581 015b E8000000 		call	_Unwind_Resume@PLT
 2581      00
 2582              	.LEHE43:
 2583              		.cfi_endproc
 2584              	.LFE1510:
 2585              		.section	.gcc_except_table
 2586              	.LLSDAC1510:
 2587 0158 FF       		.byte	0xff
 2588 0159 FF       		.byte	0xff
 2589 015a 01       		.byte	0x1
 2590 015b 04       		.uleb128 .LLSDACSEC1510-.LLSDACSBC1510
 2591              	.LLSDACSBC1510:
 2592 015c 0B       		.uleb128 .LEHB43-.LCOLDB21
 2593 015d 05       		.uleb128 .LEHE43-.LEHB43
 2594 015e 00       		.uleb128 0
 2595 015f 00       		.uleb128 0
 2596              	.LLSDACSEC1510:
 2597              		.section	.text.unlikely
 2598              		.text
 2600              		.section	.text.unlikely
 2602              	.LCOLDE21:
 2603              		.text
 2604              	.LHOTE21:
 2605              		.section	.text.unlikely
 2606              		.align 2
 2607              	.LCOLDB22:
 2608              		.text
 2609              	.LHOTB22:
 2610              		.align 2
 2611 08b8 0F1F8400 		.p2align 4
 2611      00000000 
 2613              	_ZN12_GLOBAL__N_151TestCheckEqualsWithStringsWorksOnContentsConstConstD0Ev:
 2614              	.LFB1514:
 2615              		.cfi_startproc
 2616              		.cfi_personality 0x9b,DW.ref.__gxx_personality_v0
 2617              		.cfi_lsda 0x1b,.LLSDA1514
 2618 08c0 F30F1EFA 		endbr64
 2619 08c4 4154     		pushq	%r12
 2620              		.cfi_def_cfa_offset 16
 2621              		.cfi_offset 12, -16
 2622 08c6 488D0500 		leaq	16+_ZTVN12_GLOBAL__N_151TestCheckEqualsWithStringsWorksOnContentsConstConstE(%rip), %rax
 2622      000000
 2623 08cd 55       		pushq	%rbp
 2624              		.cfi_def_cfa_offset 24
 2625              		.cfi_offset 6, -24
 2626 08ce 4889FD   		movq	%rdi, %rbp
 2627 08d1 4883EC08 		subq	$8, %rsp
 2628              		.cfi_def_cfa_offset 32
 2629 08d5 488907   		movq	%rax, (%rdi)
 2630              	.LEHB44:
 2631 08d8 E8000000 		call	_ZN8UnitTest4TestD2Ev@PLT
 2631      00
 2632              	.LEHE44:
 2633 08dd 4883C408 		addq	$8, %rsp
 2634              		.cfi_remember_state
 2635              		.cfi_def_cfa_offset 24
 2636 08e1 4889EF   		movq	%rbp, %rdi
 2637 08e4 5D       		popq	%rbp
 2638              		.cfi_def_cfa_offset 16
 2639 08e5 415C     		popq	%r12
 2640              		.cfi_def_cfa_offset 8
 2641 08e7 E9000000 		jmp	_ZdlPv@PLT
 2641      00
 2642              	.L125:
 2643              		.cfi_restore_state
 2644 08ec F30F1EFA 		endbr64
 2645 08f0 4989C4   		movq	%rax, %r12
 2646 08f3 E9000000 		jmp	.L124
 2646      00
 2647              		.section	.gcc_except_table
 2648              	.LLSDA1514:
 2649 0160 FF       		.byte	0xff
 2650 0161 FF       		.byte	0xff
 2651 0162 01       		.byte	0x1
 2652 0163 04       		.uleb128 .LLSDACSE1514-.LLSDACSB1514
 2653              	.LLSDACSB1514:
 2654 0164 18       		.uleb128 .LEHB44-.LFB1514
 2655 0165 05       		.uleb128 .LEHE44-.LEHB44
 2656 0166 2C       		.uleb128 .L125-.LFB1514
 2657 0167 00       		.uleb128 0
 2658              	.LLSDACSE1514:
 2659              		.text
 2660              		.cfi_endproc
 2661              		.section	.text.unlikely
 2662              		.cfi_startproc
 2663              		.cfi_personality 0x9b,DW.ref.__gxx_personality_v0
 2664              		.cfi_lsda 0x1b,.LLSDAC1514
 2666              	_ZN12_GLOBAL__N_151TestCheckEqualsWithStringsWorksOnContentsConstConstD0Ev.cold:
 2667              	.LFSB1514:
 2668              	.L124:
 2669              		.cfi_def_cfa_offset 32
 2670              		.cfi_offset 6, -24
 2671              		.cfi_offset 12, -16
 2672 0160 4889EF   		movq	%rbp, %rdi
 2673 0163 E8000000 		call	_ZdlPv@PLT
 2673      00
 2674 0168 4C89E7   		movq	%r12, %rdi
 2675              	.LEHB45:
 2676 016b E8000000 		call	_Unwind_Resume@PLT
 2676      00
 2677              	.LEHE45:
 2678              		.cfi_endproc
 2679              	.LFE1514:
 2680              		.section	.gcc_except_table
 2681              	.LLSDAC1514:
 2682 0168 FF       		.byte	0xff
 2683 0169 FF       		.byte	0xff
 2684 016a 01       		.byte	0x1
 2685 016b 04       		.uleb128 .LLSDACSEC1514-.LLSDACSBC1514
 2686              	.LLSDACSBC1514:
 2687 016c 0B       		.uleb128 .LEHB45-.LCOLDB22
 2688 016d 05       		.uleb128 .LEHE45-.LEHB45
 2689 016e 00       		.uleb128 0
 2690 016f 00       		.uleb128 0
 2691              	.LLSDACSEC1514:
 2692              		.section	.text.unlikely
 2693              		.text
 2695              		.section	.text.unlikely
 2697              	.LCOLDE22:
 2698              		.text
 2699              	.LHOTE22:
 2700              		.section	.text.unlikely
 2701              		.align 2
 2702              	.LCOLDB23:
 2703              		.text
 2704              	.LHOTB23:
 2705              		.align 2
 2706 08f8 0F1F8400 		.p2align 4
 2706      00000000 
 2708              	_ZN12_GLOBAL__N_157TestCheckEqualsWithStringsWorksOnContentsNonConstNonConstD0Ev:
 2709              	.LFB1518:
 2710              		.cfi_startproc
 2711              		.cfi_personality 0x9b,DW.ref.__gxx_personality_v0
 2712              		.cfi_lsda 0x1b,.LLSDA1518
 2713 0900 F30F1EFA 		endbr64
 2714 0904 4154     		pushq	%r12
 2715              		.cfi_def_cfa_offset 16
 2716              		.cfi_offset 12, -16
 2717 0906 488D0500 		leaq	16+_ZTVN12_GLOBAL__N_157TestCheckEqualsWithStringsWorksOnContentsNonConstNonConstE(%rip), %ra
 2717      000000
 2718 090d 55       		pushq	%rbp
 2719              		.cfi_def_cfa_offset 24
 2720              		.cfi_offset 6, -24
 2721 090e 4889FD   		movq	%rdi, %rbp
 2722 0911 4883EC08 		subq	$8, %rsp
 2723              		.cfi_def_cfa_offset 32
 2724 0915 488907   		movq	%rax, (%rdi)
 2725              	.LEHB46:
 2726 0918 E8000000 		call	_ZN8UnitTest4TestD2Ev@PLT
 2726      00
 2727              	.LEHE46:
 2728 091d 4883C408 		addq	$8, %rsp
 2729              		.cfi_remember_state
 2730              		.cfi_def_cfa_offset 24
 2731 0921 4889EF   		movq	%rbp, %rdi
 2732 0924 5D       		popq	%rbp
 2733              		.cfi_def_cfa_offset 16
 2734 0925 415C     		popq	%r12
 2735              		.cfi_def_cfa_offset 8
 2736 0927 E9000000 		jmp	_ZdlPv@PLT
 2736      00
 2737              	.L129:
 2738              		.cfi_restore_state
 2739 092c F30F1EFA 		endbr64
 2740 0930 4989C4   		movq	%rax, %r12
 2741 0933 E9000000 		jmp	.L128
 2741      00
 2742              		.section	.gcc_except_table
 2743              	.LLSDA1518:
 2744 0170 FF       		.byte	0xff
 2745 0171 FF       		.byte	0xff
 2746 0172 01       		.byte	0x1
 2747 0173 04       		.uleb128 .LLSDACSE1518-.LLSDACSB1518
 2748              	.LLSDACSB1518:
 2749 0174 18       		.uleb128 .LEHB46-.LFB1518
 2750 0175 05       		.uleb128 .LEHE46-.LEHB46
 2751 0176 2C       		.uleb128 .L129-.LFB1518
 2752 0177 00       		.uleb128 0
 2753              	.LLSDACSE1518:
 2754              		.text
 2755              		.cfi_endproc
 2756              		.section	.text.unlikely
 2757              		.cfi_startproc
 2758              		.cfi_personality 0x9b,DW.ref.__gxx_personality_v0
 2759              		.cfi_lsda 0x1b,.LLSDAC1518
 2761              	_ZN12_GLOBAL__N_157TestCheckEqualsWithStringsWorksOnContentsNonConstNonConstD0Ev.cold:
 2762              	.LFSB1518:
 2763              	.L128:
 2764              		.cfi_def_cfa_offset 32
 2765              		.cfi_offset 6, -24
 2766              		.cfi_offset 12, -16
 2767 0170 4889EF   		movq	%rbp, %rdi
 2768 0173 E8000000 		call	_ZdlPv@PLT
 2768      00
 2769 0178 4C89E7   		movq	%r12, %rdi
 2770              	.LEHB47:
 2771 017b E8000000 		call	_Unwind_Resume@PLT
 2771      00
 2772              	.LEHE47:
 2773              		.cfi_endproc
 2774              	.LFE1518:
 2775              		.section	.gcc_except_table
 2776              	.LLSDAC1518:
 2777 0178 FF       		.byte	0xff
 2778 0179 FF       		.byte	0xff
 2779 017a 01       		.byte	0x1
 2780 017b 04       		.uleb128 .LLSDACSEC1518-.LLSDACSBC1518
 2781              	.LLSDACSBC1518:
 2782 017c 0B       		.uleb128 .LEHB47-.LCOLDB23
 2783 017d 05       		.uleb128 .LEHE47-.LEHB47
 2784 017e 00       		.uleb128 0
 2785 017f 00       		.uleb128 0
 2786              	.LLSDACSEC1518:
 2787              		.section	.text.unlikely
 2788              		.text
 2790              		.section	.text.unlikely
 2792              	.LCOLDE23:
 2793              		.text
 2794              	.LHOTE23:
 2795              		.section	.text.unlikely
 2796              		.align 2
 2797              	.LCOLDB24:
 2798              		.text
 2799              	.LHOTB24:
 2800              		.align 2
 2801 0938 0F1F8400 		.p2align 4
 2801      00000000 
 2803              	_ZN12_GLOBAL__N_149TestCheckEqualsWithStringsFailsOnDifferentStringsD0Ev:
 2804              	.LFB1522:
 2805              		.cfi_startproc
 2806              		.cfi_personality 0x9b,DW.ref.__gxx_personality_v0
 2807              		.cfi_lsda 0x1b,.LLSDA1522
 2808 0940 F30F1EFA 		endbr64
 2809 0944 4154     		pushq	%r12
 2810              		.cfi_def_cfa_offset 16
 2811              		.cfi_offset 12, -16
 2812 0946 488D0500 		leaq	16+_ZTVN12_GLOBAL__N_149TestCheckEqualsWithStringsFailsOnDifferentStringsE(%rip), %rax
 2812      000000
 2813 094d 55       		pushq	%rbp
 2814              		.cfi_def_cfa_offset 24
 2815              		.cfi_offset 6, -24
 2816 094e 4889FD   		movq	%rdi, %rbp
 2817 0951 4883EC08 		subq	$8, %rsp
 2818              		.cfi_def_cfa_offset 32
 2819 0955 488907   		movq	%rax, (%rdi)
 2820              	.LEHB48:
 2821 0958 E8000000 		call	_ZN8UnitTest4TestD2Ev@PLT
 2821      00
 2822              	.LEHE48:
 2823 095d 4883C408 		addq	$8, %rsp
 2824              		.cfi_remember_state
 2825              		.cfi_def_cfa_offset 24
 2826 0961 4889EF   		movq	%rbp, %rdi
 2827 0964 5D       		popq	%rbp
 2828              		.cfi_def_cfa_offset 16
 2829 0965 415C     		popq	%r12
 2830              		.cfi_def_cfa_offset 8
 2831 0967 E9000000 		jmp	_ZdlPv@PLT
 2831      00
 2832              	.L133:
 2833              		.cfi_restore_state
 2834 096c F30F1EFA 		endbr64
 2835 0970 4989C4   		movq	%rax, %r12
 2836 0973 E9000000 		jmp	.L132
 2836      00
 2837              		.section	.gcc_except_table
 2838              	.LLSDA1522:
 2839 0180 FF       		.byte	0xff
 2840 0181 FF       		.byte	0xff
 2841 0182 01       		.byte	0x1
 2842 0183 04       		.uleb128 .LLSDACSE1522-.LLSDACSB1522
 2843              	.LLSDACSB1522:
 2844 0184 18       		.uleb128 .LEHB48-.LFB1522
 2845 0185 05       		.uleb128 .LEHE48-.LEHB48
 2846 0186 2C       		.uleb128 .L133-.LFB1522
 2847 0187 00       		.uleb128 0
 2848              	.LLSDACSE1522:
 2849              		.text
 2850              		.cfi_endproc
 2851              		.section	.text.unlikely
 2852              		.cfi_startproc
 2853              		.cfi_personality 0x9b,DW.ref.__gxx_personality_v0
 2854              		.cfi_lsda 0x1b,.LLSDAC1522
 2856              	_ZN12_GLOBAL__N_149TestCheckEqualsWithStringsFailsOnDifferentStringsD0Ev.cold:
 2857              	.LFSB1522:
 2858              	.L132:
 2859              		.cfi_def_cfa_offset 32
 2860              		.cfi_offset 6, -24
 2861              		.cfi_offset 12, -16
 2862 0180 4889EF   		movq	%rbp, %rdi
 2863 0183 E8000000 		call	_ZdlPv@PLT
 2863      00
 2864 0188 4C89E7   		movq	%r12, %rdi
 2865              	.LEHB49:
 2866 018b E8000000 		call	_Unwind_Resume@PLT
 2866      00
 2867              	.LEHE49:
 2868              		.cfi_endproc
 2869              	.LFE1522:
 2870              		.section	.gcc_except_table
 2871              	.LLSDAC1522:
 2872 0188 FF       		.byte	0xff
 2873 0189 FF       		.byte	0xff
 2874 018a 01       		.byte	0x1
 2875 018b 04       		.uleb128 .LLSDACSEC1522-.LLSDACSBC1522
 2876              	.LLSDACSBC1522:
 2877 018c 0B       		.uleb128 .LEHB49-.LCOLDB24
 2878 018d 05       		.uleb128 .LEHE49-.LEHB49
 2879 018e 00       		.uleb128 0
 2880 018f 00       		.uleb128 0
 2881              	.LLSDACSEC1522:
 2882              		.section	.text.unlikely
 2883              		.text
 2885              		.section	.text.unlikely
 2887              	.LCOLDE24:
 2888              		.text
 2889              	.LHOTE24:
 2890              		.section	.text.unlikely
 2891              		.align 2
 2892              	.LCOLDB25:
 2893              		.text
 2894              	.LHOTB25:
 2895              		.align 2
 2896 0978 0F1F8400 		.p2align 4
 2896      00000000 
 2898              	_ZN12_GLOBAL__N_130TestCheckEqualWithUnsignedLongD0Ev:
 2899              	.LFB1526:
 2900              		.cfi_startproc
 2901              		.cfi_personality 0x9b,DW.ref.__gxx_personality_v0
 2902              		.cfi_lsda 0x1b,.LLSDA1526
 2903 0980 F30F1EFA 		endbr64
 2904 0984 4154     		pushq	%r12
 2905              		.cfi_def_cfa_offset 16
 2906              		.cfi_offset 12, -16
 2907 0986 488D0500 		leaq	16+_ZTVN12_GLOBAL__N_130TestCheckEqualWithUnsignedLongE(%rip), %rax
 2907      000000
 2908 098d 55       		pushq	%rbp
 2909              		.cfi_def_cfa_offset 24
 2910              		.cfi_offset 6, -24
 2911 098e 4889FD   		movq	%rdi, %rbp
 2912 0991 4883EC08 		subq	$8, %rsp
 2913              		.cfi_def_cfa_offset 32
 2914 0995 488907   		movq	%rax, (%rdi)
 2915              	.LEHB50:
 2916 0998 E8000000 		call	_ZN8UnitTest4TestD2Ev@PLT
 2916      00
 2917              	.LEHE50:
 2918 099d 4883C408 		addq	$8, %rsp
 2919              		.cfi_remember_state
 2920              		.cfi_def_cfa_offset 24
 2921 09a1 4889EF   		movq	%rbp, %rdi
 2922 09a4 5D       		popq	%rbp
 2923              		.cfi_def_cfa_offset 16
 2924 09a5 415C     		popq	%r12
 2925              		.cfi_def_cfa_offset 8
 2926 09a7 E9000000 		jmp	_ZdlPv@PLT
 2926      00
 2927              	.L137:
 2928              		.cfi_restore_state
 2929 09ac F30F1EFA 		endbr64
 2930 09b0 4989C4   		movq	%rax, %r12
 2931 09b3 E9000000 		jmp	.L136
 2931      00
 2932              		.section	.gcc_except_table
 2933              	.LLSDA1526:
 2934 0190 FF       		.byte	0xff
 2935 0191 FF       		.byte	0xff
 2936 0192 01       		.byte	0x1
 2937 0193 04       		.uleb128 .LLSDACSE1526-.LLSDACSB1526
 2938              	.LLSDACSB1526:
 2939 0194 18       		.uleb128 .LEHB50-.LFB1526
 2940 0195 05       		.uleb128 .LEHE50-.LEHB50
 2941 0196 2C       		.uleb128 .L137-.LFB1526
 2942 0197 00       		.uleb128 0
 2943              	.LLSDACSE1526:
 2944              		.text
 2945              		.cfi_endproc
 2946              		.section	.text.unlikely
 2947              		.cfi_startproc
 2948              		.cfi_personality 0x9b,DW.ref.__gxx_personality_v0
 2949              		.cfi_lsda 0x1b,.LLSDAC1526
 2951              	_ZN12_GLOBAL__N_130TestCheckEqualWithUnsignedLongD0Ev.cold:
 2952              	.LFSB1526:
 2953              	.L136:
 2954              		.cfi_def_cfa_offset 32
 2955              		.cfi_offset 6, -24
 2956              		.cfi_offset 12, -16
 2957 0190 4889EF   		movq	%rbp, %rdi
 2958 0193 E8000000 		call	_ZdlPv@PLT
 2958      00
 2959 0198 4C89E7   		movq	%r12, %rdi
 2960              	.LEHB51:
 2961 019b E8000000 		call	_Unwind_Resume@PLT
 2961      00
 2962              	.LEHE51:
 2963              		.cfi_endproc
 2964              	.LFE1526:
 2965              		.section	.gcc_except_table
 2966              	.LLSDAC1526:
 2967 0198 FF       		.byte	0xff
 2968 0199 FF       		.byte	0xff
 2969 019a 01       		.byte	0x1
 2970 019b 04       		.uleb128 .LLSDACSEC1526-.LLSDACSBC1526
 2971              	.LLSDACSBC1526:
 2972 019c 0B       		.uleb128 .LEHB51-.LCOLDB25
 2973 019d 05       		.uleb128 .LEHE51-.LEHB51
 2974 019e 00       		.uleb128 0
 2975 019f 00       		.uleb128 0
 2976              	.LLSDACSEC1526:
 2977              		.section	.text.unlikely
 2978              		.text
 2980              		.section	.text.unlikely
 2982              	.LCOLDE25:
 2983              		.text
 2984              	.LHOTE25:
 2985              		.section	.text._ZN17RecordingReporterD2Ev,"axG",@progbits,_ZN17RecordingReporterD5Ev,comdat
 2986              		.align 2
 2987              		.p2align 4
 2988              		.weak	_ZN17RecordingReporterD2Ev
 2990              	_ZN17RecordingReporterD2Ev:
 2991              	.LFB1528:
 2992              		.cfi_startproc
 2993 0000 F30F1EFA 		endbr64
 2994 0004 488D0500 		leaq	16+_ZTV17RecordingReporter(%rip), %rax
 2994      000000
 2995 000b 488907   		movq	%rax, (%rdi)
 2996 000e E9000000 		jmp	_ZN8UnitTest12TestReporterD2Ev@PLT
 2996      00
 2997              		.cfi_endproc
 2998              	.LFE1528:
 3000              		.weak	_ZN17RecordingReporterD1Ev
 3001              		.set	_ZN17RecordingReporterD1Ev,_ZN17RecordingReporterD2Ev
 3002              		.section	.text._ZN17RecordingReporterD0Ev,"axG",@progbits,_ZN17RecordingReporterD5Ev,comdat
 3003              		.align 2
 3004              		.p2align 4
 3005              		.weak	_ZN17RecordingReporterD0Ev
 3007              	_ZN17RecordingReporterD0Ev:
 3008              	.LFB1530:
 3009              		.cfi_startproc
 3010              		.cfi_personality 0x9b,DW.ref.__gxx_personality_v0
 3011              		.cfi_lsda 0x1b,.LLSDA1530
 3012 0000 F30F1EFA 		endbr64
 3013 0004 4154     		pushq	%r12
 3014              		.cfi_def_cfa_offset 16
 3015              		.cfi_offset 12, -16
 3016 0006 488D0500 		leaq	16+_ZTV17RecordingReporter(%rip), %rax
 3016      000000
 3017 000d 55       		pushq	%rbp
 3018              		.cfi_def_cfa_offset 24
 3019              		.cfi_offset 6, -24
 3020 000e 4889FD   		movq	%rdi, %rbp
 3021 0011 4883EC08 		subq	$8, %rsp
 3022              		.cfi_def_cfa_offset 32
 3023 0015 488907   		movq	%rax, (%rdi)
 3024              	.LEHB52:
 3025 0018 E8000000 		call	_ZN8UnitTest12TestReporterD2Ev@PLT
 3025      00
 3026              	.LEHE52:
 3027 001d 4883C408 		addq	$8, %rsp
 3028              		.cfi_remember_state
 3029              		.cfi_def_cfa_offset 24
 3030 0021 4889EF   		movq	%rbp, %rdi
 3031 0024 5D       		popq	%rbp
 3032              		.cfi_def_cfa_offset 16
 3033 0025 415C     		popq	%r12
 3034              		.cfi_def_cfa_offset 8
 3035 0027 E9000000 		jmp	_ZdlPv@PLT
 3035      00
 3036              	.L142:
 3037              		.cfi_restore_state
 3038 002c F30F1EFA 		endbr64
 3039 0030 4989C4   		movq	%rax, %r12
 3040              	.L141:
 3041 0033 4889EF   		movq	%rbp, %rdi
 3042 0036 E8000000 		call	_ZdlPv@PLT
 3042      00
 3043 003b 4C89E7   		movq	%r12, %rdi
 3044              	.LEHB53:
 3045 003e E8000000 		call	_Unwind_Resume@PLT
 3045      00
 3046              	.LEHE53:
 3047              		.cfi_endproc
 3048              	.LFE1530:
 3049              		.section	.gcc_except_table
 3050              	.LLSDA1530:
 3051 01a0 FF       		.byte	0xff
 3052 01a1 FF       		.byte	0xff
 3053 01a2 01       		.byte	0x1
 3054 01a3 08       		.uleb128 .LLSDACSE1530-.LLSDACSB1530
 3055              	.LLSDACSB1530:
 3056 01a4 18       		.uleb128 .LEHB52-.LFB1530
 3057 01a5 05       		.uleb128 .LEHE52-.LEHB52
 3058 01a6 2C       		.uleb128 .L142-.LFB1530
 3059 01a7 00       		.uleb128 0
 3060 01a8 3E       		.uleb128 .LEHB53-.LFB1530
 3061 01a9 05       		.uleb128 .LEHE53-.LEHB53
 3062 01aa 00       		.uleb128 0
 3063 01ab 00       		.uleb128 0
 3064              	.LLSDACSE1530:
 3065              		.section	.text._ZN17RecordingReporterD0Ev,"axG",@progbits,_ZN17RecordingReporterD5Ev,comdat
 3067              		.section	.text._ZN8UnitTest15MemoryOutStreamD1Ev,"axG",@progbits,_ZN8UnitTest15MemoryOutStreamD1Ev
 3068              		.align 2
 3069              		.p2align 4
 3070              		.weak	_ZN8UnitTest15MemoryOutStreamD1Ev
 3072              	_ZN8UnitTest15MemoryOutStreamD1Ev:
 3073              	.LFB1352:
 3074              		.cfi_startproc
 3075 0000 F30F1EFA 		endbr64
 3076 0004 55       		pushq	%rbp
 3077              		.cfi_def_cfa_offset 16
 3078              		.cfi_offset 6, -16
 3079 0005 488D0500 		leaq	24+_ZTVN8UnitTest15MemoryOutStreamE(%rip), %rax
 3079      000000
 3080 000c 53       		pushq	%rbx
 3081              		.cfi_def_cfa_offset 24
 3082              		.cfi_offset 3, -24
 3083 000d 4889FB   		movq	%rdi, %rbx
 3084 0010 4883EC08 		subq	$8, %rsp
 3085              		.cfi_def_cfa_offset 32
 3086 0014 488907   		movq	%rax, (%rdi)
 3087 0017 4883C028 		addq	$40, %rax
 3088 001b 48898790 		movq	%rax, 144(%rdi)
 3088      000000
 3089 0022 488B7F70 		movq	112(%rdi), %rdi
 3090 0026 488D8380 		leaq	128(%rbx), %rax
 3090      000000
 3091 002d 4839C7   		cmpq	%rax, %rdi
 3092 0030 7405     		je	.L145
 3093 0032 E8000000 		call	_ZdlPv@PLT
 3093      00
 3094              	.L145:
 3095 0037 488D0500 		leaq	64+_ZTCN8UnitTest15MemoryOutStreamE0_NSt7__cxx1119basic_ostringstreamIcSt11char_traitsIcESaIc
 3095      000000
 3096 003e 488D1500 		leaq	24+_ZTCN8UnitTest15MemoryOutStreamE0_NSt7__cxx1119basic_ostringstreamIcSt11char_traitsIcESaIc
 3096      000000
 3097 0045 488B7B50 		movq	80(%rbx), %rdi
 3098 0049 48898390 		movq	%rax, 144(%rbx)
 3098      000000
 3099 0050 488D0500 		leaq	16+_ZTVNSt7__cxx1115basic_stringbufIcSt11char_traitsIcESaIcEEE(%rip), %rax
 3099      000000
 3100 0057 66480F6E 		movq	%rdx, %xmm0
 3100      C2
 3101 005c 488DAB90 		leaq	144(%rbx), %rbp
 3101      000000
 3102 0063 66480F6E 		movq	%rax, %xmm1
 3102      C8
 3103 0068 488D4360 		leaq	96(%rbx), %rax
 3104 006c 660F6CC1 		punpcklqdq	%xmm1, %xmm0
 3105 0070 0F1103   		movups	%xmm0, (%rbx)
 3106 0073 4839C7   		cmpq	%rax, %rdi
 3107 0076 7405     		je	.L146
 3108 0078 E8000000 		call	_ZdlPv@PLT
 3108      00
 3109              	.L146:
 3110 007d 488D0500 		leaq	16+_ZTVSt15basic_streambufIcSt11char_traitsIcEE(%rip), %rax
 3110      000000
 3111 0084 488D7B40 		leaq	64(%rbx), %rdi
 3112 0088 48894308 		movq	%rax, 8(%rbx)
 3113 008c E8000000 		call	_ZNSt6localeD1Ev@PLT
 3113      00
 3114 0091 488D0500 		leaq	24+_ZTCN8UnitTest15MemoryOutStreamE0_So(%rip), %rax
 3114      000000
 3115 0098 4889EF   		movq	%rbp, %rdi
 3116 009b 488903   		movq	%rax, (%rbx)
 3117 009e 488D0500 		leaq	16+_ZTVSt9basic_iosIcSt11char_traitsIcEE(%rip), %rax
 3117      000000
 3118 00a5 48898390 		movq	%rax, 144(%rbx)
 3118      000000
 3119 00ac 4883C408 		addq	$8, %rsp
 3120              		.cfi_def_cfa_offset 24
 3121 00b0 5B       		popq	%rbx
 3122              		.cfi_def_cfa_offset 16
 3123 00b1 5D       		popq	%rbp
 3124              		.cfi_def_cfa_offset 8
 3125 00b2 E9000000 		jmp	_ZNSt8ios_baseD2Ev@PLT
 3125      00
 3126              		.cfi_endproc
 3127              	.LFE1352:
 3129 00b7 660F1F84 		.p2align 4
 3129      00000000 
 3129      00
 3130              		.weak	_ZTv0_n24_N8UnitTest15MemoryOutStreamD1Ev
 3132              	_ZTv0_n24_N8UnitTest15MemoryOutStreamD1Ev:
 3133              	.LFB1535:
 3134              		.cfi_startproc
 3135 00c0 F30F1EFA 		endbr64
 3136 00c4 55       		pushq	%rbp
 3137              		.cfi_def_cfa_offset 16
 3138              		.cfi_offset 6, -16
 3139 00c5 53       		pushq	%rbx
 3140              		.cfi_def_cfa_offset 24
 3141              		.cfi_offset 3, -24
 3142 00c6 4889FB   		movq	%rdi, %rbx
 3143 00c9 4883EC08 		subq	$8, %rsp
 3144              		.cfi_def_cfa_offset 32
 3145 00cd 488B07   		movq	(%rdi), %rax
 3146 00d0 480358E8 		addq	-24(%rax), %rbx
 3147 00d4 488D0500 		leaq	24+_ZTVN8UnitTest15MemoryOutStreamE(%rip), %rax
 3147      000000
 3148 00db 488903   		movq	%rax, (%rbx)
 3149 00de 488B7B70 		movq	112(%rbx), %rdi
 3150 00e2 4883C028 		addq	$40, %rax
 3151 00e6 48898390 		movq	%rax, 144(%rbx)
 3151      000000
 3152 00ed 488D8380 		leaq	128(%rbx), %rax
 3152      000000
 3153 00f4 4839C7   		cmpq	%rax, %rdi
 3154 00f7 7405     		je	.L149
 3155 00f9 E8000000 		call	_ZdlPv@PLT
 3155      00
 3156              	.L149:
 3157 00fe 488D0500 		leaq	64+_ZTCN8UnitTest15MemoryOutStreamE0_NSt7__cxx1119basic_ostringstreamIcSt11char_traitsIcESaIc
 3157      000000
 3158 0105 488D1500 		leaq	24+_ZTCN8UnitTest15MemoryOutStreamE0_NSt7__cxx1119basic_ostringstreamIcSt11char_traitsIcESaIc
 3158      000000
 3159 010c 488B7B50 		movq	80(%rbx), %rdi
 3160 0110 48898390 		movq	%rax, 144(%rbx)
 3160      000000
 3161 0117 488D0500 		leaq	16+_ZTVNSt7__cxx1115basic_stringbufIcSt11char_traitsIcESaIcEEE(%rip), %rax
 3161      000000
 3162 011e 66480F6E 		movq	%rdx, %xmm0
 3162      C2
 3163 0123 488DAB90 		leaq	144(%rbx), %rbp
 3163      000000
 3164 012a 66480F6E 		movq	%rax, %xmm1
 3164      C8
 3165 012f 488D4360 		leaq	96(%rbx), %rax
 3166 0133 660F6CC1 		punpcklqdq	%xmm1, %xmm0
 3167 0137 0F1103   		movups	%xmm0, (%rbx)
 3168 013a 4839C7   		cmpq	%rax, %rdi
 3169 013d 7405     		je	.L150
 3170 013f E8000000 		call	_ZdlPv@PLT
 3170      00
 3171              	.L150:
 3172 0144 488D0500 		leaq	16+_ZTVSt15basic_streambufIcSt11char_traitsIcEE(%rip), %rax
 3172      000000
 3173 014b 488D7B40 		leaq	64(%rbx), %rdi
 3174 014f 48894308 		movq	%rax, 8(%rbx)
 3175 0153 E8000000 		call	_ZNSt6localeD1Ev@PLT
 3175      00
 3176 0158 488D0500 		leaq	24+_ZTCN8UnitTest15MemoryOutStreamE0_So(%rip), %rax
 3176      000000
 3177 015f 4889EF   		movq	%rbp, %rdi
 3178 0162 488903   		movq	%rax, (%rbx)
 3179 0165 488D0500 		leaq	16+_ZTVSt9basic_iosIcSt11char_traitsIcEE(%rip), %rax
 3179      000000
 3180 016c 48898390 		movq	%rax, 144(%rbx)
 3180      000000
 3181 0173 4883C408 		addq	$8, %rsp
 3182              		.cfi_def_cfa_offset 24
 3183 0177 5B       		popq	%rbx
 3184              		.cfi_def_cfa_offset 16
 3185 0178 5D       		popq	%rbp
 3186              		.cfi_def_cfa_offset 8
 3187 0179 E9000000 		jmp	_ZNSt8ios_baseD2Ev@PLT
 3187      00
 3188              		.cfi_endproc
 3189              	.LFE1535:
 3191              		.section	.text._ZN8UnitTest15MemoryOutStreamD0Ev,"axG",@progbits,_ZN8UnitTest15MemoryOutStreamD0Ev
 3192              		.align 2
 3193              		.p2align 4
 3194              		.weak	_ZN8UnitTest15MemoryOutStreamD0Ev
 3196              	_ZN8UnitTest15MemoryOutStreamD0Ev:
 3197              	.LFB1353:
 3198              		.cfi_startproc
 3199              		.cfi_personality 0x9b,DW.ref.__gxx_personality_v0
 3200              		.cfi_lsda 0x1b,.LLSDA1353
 3201 0000 F30F1EFA 		endbr64
 3202 0004 4154     		pushq	%r12
 3203              		.cfi_def_cfa_offset 16
 3204              		.cfi_offset 12, -16
 3205 0006 488D0500 		leaq	24+_ZTVN8UnitTest15MemoryOutStreamE(%rip), %rax
 3205      000000
 3206 000d 55       		pushq	%rbp
 3207              		.cfi_def_cfa_offset 24
 3208              		.cfi_offset 6, -24
 3209 000e 4889FD   		movq	%rdi, %rbp
 3210 0011 4883EC08 		subq	$8, %rsp
 3211              		.cfi_def_cfa_offset 32
 3212 0015 488907   		movq	%rax, (%rdi)
 3213 0018 4883C028 		addq	$40, %rax
 3214 001c 48898790 		movq	%rax, 144(%rdi)
 3214      000000
 3215 0023 488B7F70 		movq	112(%rdi), %rdi
 3216 0027 488D8580 		leaq	128(%rbp), %rax
 3216      000000
 3217 002e 4839C7   		cmpq	%rax, %rdi
 3218 0031 7405     		je	.L153
 3219 0033 E8000000 		call	_ZdlPv@PLT
 3219      00
 3220              	.L153:
 3221 0038 488D0500 		leaq	64+_ZTCN8UnitTest15MemoryOutStreamE0_NSt7__cxx1119basic_ostringstreamIcSt11char_traitsIcESaIc
 3221      000000
 3222 003f 488D1500 		leaq	24+_ZTCN8UnitTest15MemoryOutStreamE0_NSt7__cxx1119basic_ostringstreamIcSt11char_traitsIcESaIc
 3222      000000
 3223 0046 488B7D50 		movq	80(%rbp), %rdi
 3224 004a 48898590 		movq	%rax, 144(%rbp)
 3224      000000
 3225 0051 488D0500 		leaq	16+_ZTVNSt7__cxx1115basic_stringbufIcSt11char_traitsIcESaIcEEE(%rip), %rax
 3225      000000
 3226 0058 66480F6E 		movq	%rdx, %xmm0
 3226      C2
 3227 005d 4C8DA590 		leaq	144(%rbp), %r12
 3227      000000
 3228 0064 66480F6E 		movq	%rax, %xmm1
 3228      C8
 3229 0069 488D4560 		leaq	96(%rbp), %rax
 3230 006d 660F6CC1 		punpcklqdq	%xmm1, %xmm0
 3231 0071 0F114500 		movups	%xmm0, 0(%rbp)
 3232 0075 4839C7   		cmpq	%rax, %rdi
 3233 0078 7405     		je	.L154
 3234 007a E8000000 		call	_ZdlPv@PLT
 3234      00
 3235              	.L154:
 3236 007f 488D0500 		leaq	16+_ZTVSt15basic_streambufIcSt11char_traitsIcEE(%rip), %rax
 3236      000000
 3237 0086 488D7D40 		leaq	64(%rbp), %rdi
 3238 008a 48894508 		movq	%rax, 8(%rbp)
 3239 008e E8000000 		call	_ZNSt6localeD1Ev@PLT
 3239      00
 3240 0093 488D0500 		leaq	24+_ZTCN8UnitTest15MemoryOutStreamE0_So(%rip), %rax
 3240      000000
 3241 009a 4C89E7   		movq	%r12, %rdi
 3242 009d 48894500 		movq	%rax, 0(%rbp)
 3243 00a1 488D0500 		leaq	16+_ZTVSt9basic_iosIcSt11char_traitsIcEE(%rip), %rax
 3243      000000
 3244 00a8 48898590 		movq	%rax, 144(%rbp)
 3244      000000
 3245              	.LEHB54:
 3246 00af E8000000 		call	_ZNSt8ios_baseD2Ev@PLT
 3246      00
 3247              	.LEHE54:
 3248 00b4 4883C408 		addq	$8, %rsp
 3249              		.cfi_remember_state
 3250              		.cfi_def_cfa_offset 24
 3251 00b8 4889EF   		movq	%rbp, %rdi
 3252 00bb 5D       		popq	%rbp
 3253              		.cfi_def_cfa_offset 16
 3254 00bc 415C     		popq	%r12
 3255              		.cfi_def_cfa_offset 8
 3256 00be E9000000 		jmp	_ZdlPv@PLT
 3256      00
 3257              	.L156:
 3258              		.cfi_restore_state
 3259 00c3 F30F1EFA 		endbr64
 3260 00c7 4989C4   		movq	%rax, %r12
 3261              	.L155:
 3262 00ca 4889EF   		movq	%rbp, %rdi
 3263 00cd E8000000 		call	_ZdlPv@PLT
 3263      00
 3264 00d2 4C89E7   		movq	%r12, %rdi
 3265              	.LEHB55:
 3266 00d5 E8000000 		call	_Unwind_Resume@PLT
 3266      00
 3267              	.LEHE55:
 3268              		.cfi_endproc
 3269              	.LFE1353:
 3270              		.section	.gcc_except_table
 3271              	.LLSDA1353:
 3272 01ac FF       		.byte	0xff
 3273 01ad FF       		.byte	0xff
 3274 01ae 01       		.byte	0x1
 3275 01af 0B       		.uleb128 .LLSDACSE1353-.LLSDACSB1353
 3276              	.LLSDACSB1353:
 3277 01b0 AF01     		.uleb128 .LEHB54-.LFB1353
 3278 01b2 05       		.uleb128 .LEHE54-.LEHB54
 3279 01b3 C301     		.uleb128 .L156-.LFB1353
 3280 01b5 00       		.uleb128 0
 3281 01b6 D501     		.uleb128 .LEHB55-.LFB1353
 3282 01b8 05       		.uleb128 .LEHE55-.LEHB55
 3283 01b9 00       		.uleb128 0
 3284 01ba 00       		.uleb128 0
 3285              	.LLSDACSE1353:
 3286              		.section	.text._ZN8UnitTest15MemoryOutStreamD0Ev,"axG",@progbits,_ZN8UnitTest15MemoryOutStreamD0Ev
 3288 00da 660F1F44 		.p2align 4
 3288      0000
 3289              		.weak	_ZTv0_n24_N8UnitTest15MemoryOutStreamD0Ev
 3291              	_ZTv0_n24_N8UnitTest15MemoryOutStreamD0Ev:
 3292              	.LFB1534:
 3293              		.cfi_startproc
 3294              		.cfi_personality 0x9b,DW.ref.__gxx_personality_v0
 3295              		.cfi_lsda 0x1b,.LLSDA1534
 3296 00e0 F30F1EFA 		endbr64
 3297 00e4 4154     		pushq	%r12
 3298              		.cfi_def_cfa_offset 16
 3299              		.cfi_offset 12, -16
 3300 00e6 55       		pushq	%rbp
 3301              		.cfi_def_cfa_offset 24
 3302              		.cfi_offset 6, -24
 3303 00e7 4889FD   		movq	%rdi, %rbp
 3304 00ea 4883EC08 		subq	$8, %rsp
 3305              		.cfi_def_cfa_offset 32
 3306 00ee 488B07   		movq	(%rdi), %rax
 3307 00f1 480368E8 		addq	-24(%rax), %rbp
 3308 00f5 488D0500 		leaq	24+_ZTVN8UnitTest15MemoryOutStreamE(%rip), %rax
 3308      000000
 3309 00fc 48894500 		movq	%rax, 0(%rbp)
 3310 0100 488B7D70 		movq	112(%rbp), %rdi
 3311 0104 4883C028 		addq	$40, %rax
 3312 0108 48898590 		movq	%rax, 144(%rbp)
 3312      000000
 3313 010f 488D8580 		leaq	128(%rbp), %rax
 3313      000000
 3314 0116 4839C7   		cmpq	%rax, %rdi
 3315 0119 7405     		je	.L159
 3316 011b E8000000 		call	_ZdlPv@PLT
 3316      00
 3317              	.L159:
 3318 0120 488D0500 		leaq	64+_ZTCN8UnitTest15MemoryOutStreamE0_NSt7__cxx1119basic_ostringstreamIcSt11char_traitsIcESaIc
 3318      000000
 3319 0127 488D1500 		leaq	24+_ZTCN8UnitTest15MemoryOutStreamE0_NSt7__cxx1119basic_ostringstreamIcSt11char_traitsIcESaIc
 3319      000000
 3320 012e 488B7D50 		movq	80(%rbp), %rdi
 3321 0132 48898590 		movq	%rax, 144(%rbp)
 3321      000000
 3322 0139 488D0500 		leaq	16+_ZTVNSt7__cxx1115basic_stringbufIcSt11char_traitsIcESaIcEEE(%rip), %rax
 3322      000000
 3323 0140 66480F6E 		movq	%rdx, %xmm0
 3323      C2
 3324 0145 4C8DA590 		leaq	144(%rbp), %r12
 3324      000000
 3325 014c 66480F6E 		movq	%rax, %xmm1
 3325      C8
 3326 0151 488D4560 		leaq	96(%rbp), %rax
 3327 0155 660F6CC1 		punpcklqdq	%xmm1, %xmm0
 3328 0159 0F114500 		movups	%xmm0, 0(%rbp)
 3329 015d 4839C7   		cmpq	%rax, %rdi
 3330 0160 7405     		je	.L160
 3331 0162 E8000000 		call	_ZdlPv@PLT
 3331      00
 3332              	.L160:
 3333 0167 488D0500 		leaq	16+_ZTVSt15basic_streambufIcSt11char_traitsIcEE(%rip), %rax
 3333      000000
 3334 016e 488D7D40 		leaq	64(%rbp), %rdi
 3335 0172 48894508 		movq	%rax, 8(%rbp)
 3336 0176 E8000000 		call	_ZNSt6localeD1Ev@PLT
 3336      00
 3337 017b 488D0500 		leaq	24+_ZTCN8UnitTest15MemoryOutStreamE0_So(%rip), %rax
 3337      000000
 3338 0182 4C89E7   		movq	%r12, %rdi
 3339 0185 48894500 		movq	%rax, 0(%rbp)
 3340 0189 488D0500 		leaq	16+_ZTVSt9basic_iosIcSt11char_traitsIcEE(%rip), %rax
 3340      000000
 3341 0190 48898590 		movq	%rax, 144(%rbp)
 3341      000000
 3342              	.LEHB56:
 3343 0197 E8000000 		call	_ZNSt8ios_baseD2Ev@PLT
 3343      00
 3344              	.LEHE56:
 3345 019c 4883C408 		addq	$8, %rsp
 3346              		.cfi_remember_state
 3347              		.cfi_def_cfa_offset 24
 3348 01a0 4889EF   		movq	%rbp, %rdi
 3349 01a3 5D       		popq	%rbp
 3350              		.cfi_def_cfa_offset 16
 3351 01a4 415C     		popq	%r12
 3352              		.cfi_def_cfa_offset 8
 3353 01a6 E9000000 		jmp	_ZdlPv@PLT
 3353      00
 3354              	.L162:
 3355              		.cfi_restore_state
 3356 01ab F30F1EFA 		endbr64
 3357 01af 4989C4   		movq	%rax, %r12
 3358              	.L161:
 3359 01b2 4889EF   		movq	%rbp, %rdi
 3360 01b5 E8000000 		call	_ZdlPv@PLT
 3360      00
 3361 01ba 4C89E7   		movq	%r12, %rdi
 3362              	.LEHB57:
 3363 01bd E8000000 		call	_Unwind_Resume@PLT
 3363      00
 3364              	.LEHE57:
 3365              		.cfi_endproc
 3366              	.LFE1534:
 3367              		.section	.gcc_except_table
 3368              	.LLSDA1534:
 3369 01bb FF       		.byte	0xff
 3370 01bc FF       		.byte	0xff
 3371 01bd 01       		.byte	0x1
 3372 01be 0B       		.uleb128 .LLSDACSE1534-.LLSDACSB1534
 3373              	.LLSDACSB1534:
 3374 01bf B701     		.uleb128 .LEHB56-.LFB1534
 3375 01c1 05       		.uleb128 .LEHE56-.LEHB56
 3376 01c2 CB01     		.uleb128 .L162-.LFB1534
 3377 01c4 00       		.uleb128 0
 3378 01c5 DD01     		.uleb128 .LEHB57-.LFB1534
 3379 01c7 05       		.uleb128 .LEHE57-.LEHB57
 3380 01c8 00       		.uleb128 0
 3381 01c9 00       		.uleb128 0
 3382              	.LLSDACSE1534:
 3383              		.section	.text._ZN8UnitTest15MemoryOutStreamD0Ev,"axG",@progbits,_ZN8UnitTest15MemoryOutStreamD0Ev
 3385              		.section	.text._ZNSt7__cxx1115basic_stringbufIcSt11char_traitsIcESaIcEED2Ev,"axG",@progbits,_ZNSt7
 3386              		.align 2
 3387              		.p2align 4
 3388              		.weak	_ZNSt7__cxx1115basic_stringbufIcSt11char_traitsIcESaIcEED2Ev
 3390              	_ZNSt7__cxx1115basic_stringbufIcSt11char_traitsIcESaIcEED2Ev:
 3391              	.LFB1331:
 3392              		.cfi_startproc
 3393 0000 F30F1EFA 		endbr64
 3394 0004 488D0500 		leaq	16+_ZTVNSt7__cxx1115basic_stringbufIcSt11char_traitsIcESaIcEEE(%rip), %rax
 3394      000000
 3395 000b 53       		pushq	%rbx
 3396              		.cfi_def_cfa_offset 16
 3397              		.cfi_offset 3, -16
 3398 000c 4889FB   		movq	%rdi, %rbx
 3399 000f 488907   		movq	%rax, (%rdi)
 3400 0012 488B7F48 		movq	72(%rdi), %rdi
 3401 0016 488D4358 		leaq	88(%rbx), %rax
 3402 001a 4839C7   		cmpq	%rax, %rdi
 3403 001d 7405     		je	.L165
 3404 001f E8000000 		call	_ZdlPv@PLT
 3404      00
 3405              	.L165:
 3406 0024 488D0500 		leaq	16+_ZTVSt15basic_streambufIcSt11char_traitsIcEE(%rip), %rax
 3406      000000
 3407 002b 488D7B38 		leaq	56(%rbx), %rdi
 3408 002f 488903   		movq	%rax, (%rbx)
 3409 0032 5B       		popq	%rbx
 3410              		.cfi_def_cfa_offset 8
 3411 0033 E9000000 		jmp	_ZNSt6localeD1Ev@PLT
 3411      00
 3412              		.cfi_endproc
 3413              	.LFE1331:
 3415              		.weak	_ZNSt7__cxx1115basic_stringbufIcSt11char_traitsIcESaIcEED1Ev
 3416              		.set	_ZNSt7__cxx1115basic_stringbufIcSt11char_traitsIcESaIcEED1Ev,_ZNSt7__cxx1115basic_stringbufIc
 3417              		.section	.rodata.str1.1,"aMS",@progbits,1
 3418              	.LC26:
 3419 0000 45787065 		.string	"Expected [ "
 3419      63746564 
 3419      205B2000 
 3420              	.LC27:
 3421 000c 5B2000   		.string	"[ "
 3422              	.LC28:
 3423 000f 2000     		.string	" "
 3424              	.LC29:
 3425 0011 5D2000   		.string	"] "
 3426              	.LC30:
 3427 0014 5D202B2F 		.string	"] +/- "
 3427      2D2000
 3428              	.LC31:
 3429 001b 20627574 		.string	" but was [ "
 3429      20776173 
 3429      205B2000 
 3430              	.LC32:
 3431 0027 5D00     		.string	"]"
 3432              		.section	.text.unlikely
 3433              	.LCOLDB36:
 3434              		.text
 3435              	.LHOTB36:
 3436 09b8 0F1F8400 		.p2align 4
 3436      00000000 
 3438              	_ZN8UnitTest17CheckArray2DCloseIA3_A3_fS2_fEEvRNS_11TestResultsERKT_RKT0_iiRKT1_RKNS_11TestDetailsE
 3439              	.LFB1539:
 3440              		.cfi_startproc
 3441              		.cfi_personality 0x9b,DW.ref.__gxx_personality_v0
 3442              		.cfi_lsda 0x1b,.LLSDA1539
 3443 09c0 4157     		pushq	%r15
 3444              		.cfi_def_cfa_offset 16
 3445              		.cfi_offset 15, -16
 3446 09c2 4156     		pushq	%r14
 3447              		.cfi_def_cfa_offset 24
 3448              		.cfi_offset 14, -24
 3449 09c4 4155     		pushq	%r13
 3450              		.cfi_def_cfa_offset 32
 3451              		.cfi_offset 13, -32
 3452 09c6 4154     		pushq	%r12
 3453              		.cfi_def_cfa_offset 40
 3454              		.cfi_offset 12, -40
 3455 09c8 55       		pushq	%rbp
 3456              		.cfi_def_cfa_offset 48
 3457              		.cfi_offset 6, -48
 3458 09c9 4889F5   		movq	%rsi, %rbp
 3459 09cc 53       		pushq	%rbx
 3460              		.cfi_def_cfa_offset 56
 3461              		.cfi_offset 3, -56
 3462 09cd 4889D3   		movq	%rdx, %rbx
 3463 09d0 4881ECF8 		subq	$504, %rsp
 3463      010000
 3464              		.cfi_def_cfa_offset 560
 3465 09d7 F30F100E 		movss	(%rsi), %xmm1
 3466 09db F30F1001 		movss	(%rcx), %xmm0
 3467 09df 48897C24 		movq	%rdi, 24(%rsp)
 3467      18
 3468 09e4 F30F1012 		movss	(%rdx), %xmm2
 3469 09e8 0F28D9   		movaps	%xmm1, %xmm3
 3470 09eb 48894C24 		movq	%rcx, 32(%rsp)
 3470      20
 3471 09f0 F30F7E25 		movq	.LC33(%rip), %xmm4
 3471      00000000 
 3472 09f8 4C894424 		movq	%r8, 40(%rsp)
 3472      28
 3473 09fd F30F5CD8 		subss	%xmm0, %xmm3
 3474 0a01 0F162500 		movhps	.LC34(%rip), %xmm4
 3474      000000
 3475 0a08 64488B04 		movq	%fs:40, %rax
 3475      25280000 
 3475      00
 3476 0a11 48898424 		movq	%rax, 488(%rsp)
 3476      E8010000 
 3477 0a19 31C0     		xorl	%eax, %eax
 3478 0a1b 31C0     		xorl	%eax, %eax
 3479 0a1d 0F2FD3   		comiss	%xmm3, %xmm2
 3480 0a20 0F292424 		movaps	%xmm4, (%rsp)
 3481 0a24 720A     		jb	.L168
 3482 0a26 F30F58C8 		addss	%xmm0, %xmm1
 3483 0a2a 0F2FCA   		comiss	%xmm2, %xmm1
 3484 0a2d 0F93C0   		setnb	%al
 3485              	.L168:
 3486 0a30 F30F104D 		movss	4(%rbp), %xmm1
 3486      04
 3487 0a35 F30F1053 		movss	4(%rbx), %xmm2
 3487      04
 3488 0a3a 0F28D9   		movaps	%xmm1, %xmm3
 3489 0a3d F30F5CD8 		subss	%xmm0, %xmm3
 3490 0a41 0F2FD3   		comiss	%xmm3, %xmm2
 3491 0a44 0F82C604 		jb	.L237
 3491      0000
 3492 0a4a F30F58C8 		addss	%xmm0, %xmm1
 3493 0a4e 31D2     		xorl	%edx, %edx
 3494 0a50 0F2FCA   		comiss	%xmm2, %xmm1
 3495 0a53 0F42C2   		cmovb	%edx, %eax
 3496              	.L170:
 3497 0a56 F30F104D 		movss	8(%rbp), %xmm1
 3497      08
 3498 0a5b F30F1053 		movss	8(%rbx), %xmm2
 3498      08
 3499 0a60 0F28D9   		movaps	%xmm1, %xmm3
 3500 0a63 F30F5CD8 		subss	%xmm0, %xmm3
 3501 0a67 0F2FD3   		comiss	%xmm3, %xmm2
 3502 0a6a 0F829004 		jb	.L238
 3502      0000
 3503 0a70 F30F58C8 		addss	%xmm0, %xmm1
 3504 0a74 31D2     		xorl	%edx, %edx
 3505 0a76 0F2FCA   		comiss	%xmm2, %xmm1
 3506 0a79 0F42C2   		cmovb	%edx, %eax
 3507              	.L173:
 3508 0a7c F30F104D 		movss	12(%rbp), %xmm1
 3508      0C
 3509 0a81 F30F1053 		movss	12(%rbx), %xmm2
 3509      0C
 3510 0a86 31D2     		xorl	%edx, %edx
 3511 0a88 0F28D9   		movaps	%xmm1, %xmm3
 3512 0a8b F30F5CD8 		subss	%xmm0, %xmm3
 3513 0a8f 0F2FD3   		comiss	%xmm3, %xmm2
 3514 0a92 720A     		jb	.L175
 3515 0a94 F30F58C8 		addss	%xmm0, %xmm1
 3516 0a98 0F2FCA   		comiss	%xmm2, %xmm1
 3517 0a9b 0F93C2   		setnb	%dl
 3518              	.L175:
 3519 0a9e F30F104D 		movss	16(%rbp), %xmm1
 3519      10
 3520 0aa3 F30F1053 		movss	16(%rbx), %xmm2
 3520      10
 3521 0aa8 0F28D9   		movaps	%xmm1, %xmm3
 3522 0aab F30F5CD8 		subss	%xmm0, %xmm3
 3523 0aaf 0F2FD3   		comiss	%xmm3, %xmm2
 3524 0ab2 0F823804 		jb	.L240
 3524      0000
 3525 0ab8 F30F58C8 		addss	%xmm0, %xmm1
 3526 0abc 31C9     		xorl	%ecx, %ecx
 3527 0abe 0F2FCA   		comiss	%xmm2, %xmm1
 3528 0ac1 0F42D1   		cmovb	%ecx, %edx
 3529              	.L177:
 3530 0ac4 F30F104D 		movss	20(%rbp), %xmm1
 3530      14
 3531 0ac9 F30F1053 		movss	20(%rbx), %xmm2
 3531      14
 3532 0ace 0F28D9   		movaps	%xmm1, %xmm3
 3533 0ad1 F30F5CD8 		subss	%xmm0, %xmm3
 3534 0ad5 0F2FD3   		comiss	%xmm3, %xmm2
 3535 0ad8 0F820204 		jb	.L241
 3535      0000
 3536 0ade F30F58C8 		addss	%xmm0, %xmm1
 3537 0ae2 21D0     		andl	%edx, %eax
 3538 0ae4 31D2     		xorl	%edx, %edx
 3539 0ae6 0F2FCA   		comiss	%xmm2, %xmm1
 3540 0ae9 0F42C2   		cmovb	%edx, %eax
 3541              	.L180:
 3542 0aec F30F104D 		movss	24(%rbp), %xmm1
 3542      18
 3543 0af1 F30F1053 		movss	24(%rbx), %xmm2
 3543      18
 3544 0af6 31D2     		xorl	%edx, %edx
 3545 0af8 0F28D9   		movaps	%xmm1, %xmm3
 3546 0afb F30F5CD8 		subss	%xmm0, %xmm3
 3547 0aff 0F2FD3   		comiss	%xmm3, %xmm2
 3548 0b02 720A     		jb	.L183
 3549 0b04 F30F58C8 		addss	%xmm0, %xmm1
 3550 0b08 0F2FCA   		comiss	%xmm2, %xmm1
 3551 0b0b 0F93C2   		setnb	%dl
 3552              	.L183:
 3553 0b0e F30F104D 		movss	28(%rbp), %xmm1
 3553      1C
 3554 0b13 F30F1053 		movss	28(%rbx), %xmm2
 3554      1C
 3555 0b18 0F28D9   		movaps	%xmm1, %xmm3
 3556 0b1b F30F5CD8 		subss	%xmm0, %xmm3
 3557 0b1f 0F2FD3   		comiss	%xmm3, %xmm2
 3558 0b22 0F82B003 		jb	.L243
 3558      0000
 3559 0b28 F30F58C8 		addss	%xmm0, %xmm1
 3560 0b2c 31C9     		xorl	%ecx, %ecx
 3561 0b2e 0F2FCA   		comiss	%xmm2, %xmm1
 3562 0b31 0F42D1   		cmovb	%ecx, %edx
 3563              	.L185:
 3564 0b34 F30F1055 		movss	32(%rbp), %xmm2
 3564      20
 3565 0b39 F30F104B 		movss	32(%rbx), %xmm1
 3565      20
 3566 0b3e 0F28DA   		movaps	%xmm2, %xmm3
 3567 0b41 F30F5CD8 		subss	%xmm0, %xmm3
 3568 0b45 0F2FCB   		comiss	%xmm3, %xmm1
 3569 0b48 0F834203 		jnb	.L247
 3569      0000
 3570              	.L187:
 3571 0b4e 4C8DBC24 		leaq	224(%rsp), %r15
 3571      E0000000 
 3572 0b56 4C89FF   		movq	%r15, %rdi
 3573 0b59 4C897C24 		movq	%r15, 48(%rsp)
 3573      30
 3574 0b5e E8000000 		call	_ZNSt8ios_baseC2Ev@PLT
 3574      00
 3575 0b63 31C0     		xorl	%eax, %eax
 3576 0b65 660FEFC0 		pxor	%xmm0, %xmm0
 3577 0b69 31F6     		xorl	%esi, %esi
 3578 0b6b 66898424 		movw	%ax, 448(%rsp)
 3578      C0010000 
 3579 0b73 488D0500 		leaq	24+_ZTCN8UnitTest15MemoryOutStreamE0_So(%rip), %rax
 3579      000000
 3580 0b7a 4C89FF   		movq	%r15, %rdi
 3581 0b7d 48894424 		movq	%rax, 80(%rsp)
 3581      50
 3582 0b82 4883C028 		addq	$40, %rax
 3583 0b86 48C78424 		movq	$0, 440(%rsp)
 3583      B8010000 
 3583      00000000 
 3584 0b92 48898424 		movq	%rax, 224(%rsp)
 3584      E0000000 
 3585 0b9a 0F118424 		movups	%xmm0, 456(%rsp)
 3585      C8010000 
 3586 0ba2 0F118424 		movups	%xmm0, 472(%rsp)
 3586      D8010000 
 3587              	.LEHB58:
 3588 0baa E8000000 		call	_ZNSt9basic_iosIcSt11char_traitsIcEE4initEPSt15basic_streambufIcS1_E@PLT
 3588      00
 3589              	.LEHE58:
 3590 0baf 488D0500 		leaq	64+_ZTCN8UnitTest15MemoryOutStreamE0_NSt7__cxx1119basic_ostringstreamIcSt11char_traitsIcESaIc
 3590      000000
 3591 0bb6 660F6F2C 		movdqa	(%rsp), %xmm5
 3591      24
 3592 0bbb 660FEFC0 		pxor	%xmm0, %xmm0
 3593 0bbf 4C8D6C24 		leaq	80(%rsp), %r13
 3593      50
 3594 0bc4 48898424 		movq	%rax, 224(%rsp)
 3594      E0000000 
 3595 0bcc 488D8424 		leaq	144(%rsp), %rax
 3595      90000000 
 3596 0bd4 4C8D6424 		leaq	88(%rsp), %r12
 3596      58
 3597 0bd9 4889C7   		movq	%rax, %rdi
 3598 0bdc 48894424 		movq	%rax, 56(%rsp)
 3598      38
 3599 0be1 0F296C24 		movaps	%xmm5, 80(%rsp)
 3599      50
 3600 0be6 0F294424 		movaps	%xmm0, 96(%rsp)
 3600      60
 3601 0beb 0F294424 		movaps	%xmm0, 112(%rsp)
 3601      70
 3602 0bf0 0F298424 		movaps	%xmm0, 128(%rsp)
 3602      80000000 
 3603 0bf8 E8000000 		call	_ZNSt6localeC1Ev@PLT
 3603      00
 3604 0bfd 488D0500 		leaq	16+_ZTVNSt7__cxx1115basic_stringbufIcSt11char_traitsIcESaIcEEE(%rip), %rax
 3604      000000
 3605 0c04 C68424B0 		movb	$0, 176(%rsp)
 3605      00000000 
 3606 0c0c 4C89E6   		movq	%r12, %rsi
 3607 0c0f 48894424 		movq	%rax, 88(%rsp)
 3607      58
 3608 0c14 488D8424 		leaq	176(%rsp), %rax
 3608      B0000000 
 3609 0c1c 48894424 		movq	%rax, 64(%rsp)
 3609      40
 3610 0c21 48898424 		movq	%rax, 160(%rsp)
 3610      A0000000 
 3611 0c29 488B4424 		movq	80(%rsp), %rax
 3611      50
 3612 0c2e 48C78424 		movq	$0, 168(%rsp)
 3612      A8000000 
 3612      00000000 
 3613 0c3a C7842498 		movl	$16, 152(%rsp)
 3613      00000010 
 3613      000000
 3614 0c45 488B78E8 		movq	-24(%rax), %rdi
 3615 0c49 4C01EF   		addq	%r13, %rdi
 3616              	.LEHB59:
 3617 0c4c E8000000 		call	_ZNSt9basic_iosIcSt11char_traitsIcEE4initEPSt15basic_streambufIcS1_E@PLT
 3617      00
 3618              	.LEHE59:
 3619 0c51 488D0500 		leaq	24+_ZTVN8UnitTest15MemoryOutStreamE(%rip), %rax
 3619      000000
 3620 0c58 BA0B0000 		movl	$11, %edx
 3620      00
 3621 0c5d 4C89EF   		movq	%r13, %rdi
 3622 0c60 48C78424 		movq	$0, 200(%rsp)
 3622      C8000000 
 3622      00000000 
 3623 0c6c 48894424 		movq	%rax, 80(%rsp)
 3623      50
 3624 0c71 4883C028 		addq	$40, %rax
 3625 0c75 488D3500 		leaq	.LC26(%rip), %rsi
 3625      000000
 3626 0c7c 48898424 		movq	%rax, 224(%rsp)
 3626      E0000000 
 3627 0c84 488D8424 		leaq	208(%rsp), %rax
 3627      D0000000 
 3628 0c8c 48894424 		movq	%rax, 72(%rsp)
 3628      48
 3629 0c91 48898424 		movq	%rax, 192(%rsp)
 3629      C0000000 
 3630 0c99 C68424D0 		movb	$0, 208(%rsp)
 3630      00000000 
 3631              	.LEHB60:
 3632 0ca1 E8000000 		call	_ZSt16__ostream_insertIcSt11char_traitsIcEERSt13basic_ostreamIT_T0_ES6_PKS3_l@PLT
 3632      00
 3633 0ca6 488D4524 		leaq	36(%rbp), %rax
 3634 0caa 4C8D3500 		leaq	.LC28(%rip), %r14
 3634      000000
 3635 0cb1 48890424 		movq	%rax, (%rsp)
 3636 0cb5 4C8D3D00 		leaq	.LC29(%rip), %r15
 3636      000000
 3637              	.L197:
 3638 0cbc BA020000 		movl	$2, %edx
 3638      00
 3639 0cc1 488D3500 		leaq	.LC27(%rip), %rsi
 3639      000000
 3640 0cc8 4C89EF   		movq	%r13, %rdi
 3641 0ccb E8000000 		call	_ZSt16__ostream_insertIcSt11char_traitsIcEERSt13basic_ostreamIT_T0_ES6_PKS3_l@PLT
 3641      00
 3642 0cd0 4531E4   		xorl	%r12d, %r12d
 3643              	.L196:
 3644 0cd3 660FEFC0 		pxor	%xmm0, %xmm0
 3645 0cd7 4C89EF   		movq	%r13, %rdi
 3646 0cda F3420F5A 		cvtss2sd	0(%rbp,%r12,4), %xmm0
 3646      44A500
 3647 0ce1 E8000000 		call	_ZNSo9_M_insertIdEERSoT_@PLT
 3647      00
 3648 0ce6 4889C7   		movq	%rax, %rdi
 3649 0ce9 BA010000 		movl	$1, %edx
 3649      00
 3650 0cee 4C89F6   		movq	%r14, %rsi
 3651 0cf1 E8000000 		call	_ZSt16__ostream_insertIcSt11char_traitsIcEERSt13basic_ostreamIT_T0_ES6_PKS3_l@PLT
 3651      00
 3652 0cf6 4983C401 		addq	$1, %r12
 3653 0cfa 4983FC03 		cmpq	$3, %r12
 3654 0cfe 75D3     		jne	.L196
 3655 0d00 BA020000 		movl	$2, %edx
 3655      00
 3656 0d05 4C89FE   		movq	%r15, %rsi
 3657 0d08 4C89EF   		movq	%r13, %rdi
 3658 0d0b E8000000 		call	_ZSt16__ostream_insertIcSt11char_traitsIcEERSt13basic_ostreamIT_T0_ES6_PKS3_l@PLT
 3658      00
 3659 0d10 4883C50C 		addq	$12, %rbp
 3660 0d14 483B2C24 		cmpq	(%rsp), %rbp
 3661 0d18 75A2     		jne	.L197
 3662 0d1a BA060000 		movl	$6, %edx
 3662      00
 3663 0d1f 488D3500 		leaq	.LC30(%rip), %rsi
 3663      000000
 3664 0d26 4C89EF   		movq	%r13, %rdi
 3665 0d29 E8000000 		call	_ZSt16__ostream_insertIcSt11char_traitsIcEERSt13basic_ostreamIT_T0_ES6_PKS3_l@PLT
 3665      00
 3666 0d2e 488B4424 		movq	32(%rsp), %rax
 3666      20
 3667 0d33 660FEFC0 		pxor	%xmm0, %xmm0
 3668 0d37 4C89EF   		movq	%r13, %rdi
 3669 0d3a F30F5A00 		cvtss2sd	(%rax), %xmm0
 3670 0d3e E8000000 		call	_ZNSo9_M_insertIdEERSoT_@PLT
 3670      00
 3671 0d43 4889C7   		movq	%rax, %rdi
 3672 0d46 BA0B0000 		movl	$11, %edx
 3672      00
 3673 0d4b 488D3500 		leaq	.LC31(%rip), %rsi
 3673      000000
 3674 0d52 E8000000 		call	_ZSt16__ostream_insertIcSt11char_traitsIcEERSt13basic_ostreamIT_T0_ES6_PKS3_l@PLT
 3674      00
 3675 0d57 4C8D6324 		leaq	36(%rbx), %r12
 3676              	.L199:
 3677 0d5b BA020000 		movl	$2, %edx
 3677      00
 3678 0d60 488D3500 		leaq	.LC27(%rip), %rsi
 3678      000000
 3679 0d67 4C89EF   		movq	%r13, %rdi
 3680 0d6a E8000000 		call	_ZSt16__ostream_insertIcSt11char_traitsIcEERSt13basic_ostreamIT_T0_ES6_PKS3_l@PLT
 3680      00
 3681 0d6f 31ED     		xorl	%ebp, %ebp
 3682              	.L198:
 3683 0d71 660FEFC0 		pxor	%xmm0, %xmm0
 3684 0d75 4C89EF   		movq	%r13, %rdi
 3685 0d78 F30F5A04 		cvtss2sd	(%rbx,%rbp,4), %xmm0
 3685      AB
 3686 0d7d E8000000 		call	_ZNSo9_M_insertIdEERSoT_@PLT
 3686      00
 3687 0d82 4889C7   		movq	%rax, %rdi
 3688 0d85 BA010000 		movl	$1, %edx
 3688      00
 3689 0d8a 4C89F6   		movq	%r14, %rsi
 3690 0d8d E8000000 		call	_ZSt16__ostream_insertIcSt11char_traitsIcEERSt13basic_ostreamIT_T0_ES6_PKS3_l@PLT
 3690      00
 3691 0d92 4883C501 		addq	$1, %rbp
 3692 0d96 4883FD03 		cmpq	$3, %rbp
 3693 0d9a 75D5     		jne	.L198
 3694 0d9c BA020000 		movl	$2, %edx
 3694      00
 3695 0da1 4C89FE   		movq	%r15, %rsi
 3696 0da4 4C89EF   		movq	%r13, %rdi
 3697 0da7 E8000000 		call	_ZSt16__ostream_insertIcSt11char_traitsIcEERSt13basic_ostreamIT_T0_ES6_PKS3_l@PLT
 3697      00
 3698 0dac 4883C30C 		addq	$12, %rbx
 3699 0db0 4939DC   		cmpq	%rbx, %r12
 3700 0db3 75A6     		jne	.L199
 3701 0db5 BA010000 		movl	$1, %edx
 3701      00
 3702 0dba 488D3500 		leaq	.LC32(%rip), %rsi
 3702      000000
 3703 0dc1 4C89EF   		movq	%r13, %rdi
 3704 0dc4 E8000000 		call	_ZSt16__ostream_insertIcSt11char_traitsIcEERSt13basic_ostreamIT_T0_ES6_PKS3_l@PLT
 3704      00
 3705 0dc9 4C89EF   		movq	%r13, %rdi
 3706 0dcc E8000000 		call	_ZNK8UnitTest15MemoryOutStream7GetTextEv@PLT
 3706      00
 3707 0dd1 488B7424 		movq	40(%rsp), %rsi
 3707      28
 3708 0dd6 488B7C24 		movq	24(%rsp), %rdi
 3708      18
 3709 0ddb 4889C2   		movq	%rax, %rdx
 3710 0dde E8000000 		call	_ZN8UnitTest11TestResults13OnTestFailureERKNS_11TestDetailsEPKc@PLT
 3710      00
 3711              	.LEHE60:
 3712 0de3 488D0500 		leaq	24+_ZTVN8UnitTest15MemoryOutStreamE(%rip), %rax
 3712      000000
 3713 0dea 488BBC24 		movq	192(%rsp), %rdi
 3713      C0000000 
 3714 0df2 F30F7E05 		movq	.LC33(%rip), %xmm0
 3714      00000000 
 3715 0dfa 48894424 		movq	%rax, 80(%rsp)
 3715      50
 3716 0dff 4883C028 		addq	$40, %rax
 3717 0e03 48898424 		movq	%rax, 224(%rsp)
 3717      E0000000 
 3718 0e0b 0F160500 		movhps	.LC35(%rip), %xmm0
 3718      000000
 3719 0e12 483B7C24 		cmpq	72(%rsp), %rdi
 3719      48
 3720 0e17 740E     		je	.L200
 3721 0e19 0F290424 		movaps	%xmm0, (%rsp)
 3722 0e1d E8000000 		call	_ZdlPv@PLT
 3722      00
 3723 0e22 660F6F04 		movdqa	(%rsp), %xmm0
 3723      24
 3724              	.L200:
 3725 0e27 488D0500 		leaq	64+_ZTCN8UnitTest15MemoryOutStreamE0_NSt7__cxx1119basic_ostringstreamIcSt11char_traitsIcESaIc
 3725      000000
 3726 0e2e 488BBC24 		movq	160(%rsp), %rdi
 3726      A0000000 
 3727 0e36 0F294424 		movaps	%xmm0, 80(%rsp)
 3727      50
 3728 0e3b 48898424 		movq	%rax, 224(%rsp)
 3728      E0000000 
 3729 0e43 483B7C24 		cmpq	64(%rsp), %rdi
 3729      40
 3730 0e48 7405     		je	.L201
 3731 0e4a E8000000 		call	_ZdlPv@PLT
 3731      00
 3732              	.L201:
 3733 0e4f 488B7C24 		movq	56(%rsp), %rdi
 3733      38
 3734 0e54 488D0500 		leaq	16+_ZTVSt15basic_streambufIcSt11char_traitsIcEE(%rip), %rax
 3734      000000
 3735 0e5b 48894424 		movq	%rax, 88(%rsp)
 3735      58
 3736 0e60 E8000000 		call	_ZNSt6localeD1Ev@PLT
 3736      00
 3737 0e65 488D0500 		leaq	24+_ZTCN8UnitTest15MemoryOutStreamE0_So(%rip), %rax
 3737      000000
 3738 0e6c 488B7C24 		movq	48(%rsp), %rdi
 3738      30
 3739 0e71 48894424 		movq	%rax, 80(%rsp)
 3739      50
 3740 0e76 488D0500 		leaq	16+_ZTVSt9basic_iosIcSt11char_traitsIcEE(%rip), %rax
 3740      000000
 3741 0e7d 48898424 		movq	%rax, 224(%rsp)
 3741      E0000000 
 3742              	.LEHB61:
 3743 0e85 E8000000 		call	_ZNSt8ios_baseD2Ev@PLT
 3743      00
 3744              	.LEHE61:
 3745 0e8a EB21     		jmp	.L167
 3746 0e8c 0F1F4000 		.p2align 4,,10
 3747              		.p2align 3
 3748              	.L247:
 3749 0e90 F30F58C2 		addss	%xmm2, %xmm0
 3750 0e94 0F2FC1   		comiss	%xmm1, %xmm0
 3751 0e97 0F82B1FC 		jb	.L187
 3751      FFFF
 3752 0e9d 84D2     		testb	%dl, %dl
 3753 0e9f 0F84A9FC 		je	.L187
 3753      FFFF
 3754 0ea5 84C0     		testb	%al, %al
 3755 0ea7 0F84A1FC 		je	.L187
 3755      FFFF
 3756              	.L167:
 3757 0ead 488B8424 		movq	488(%rsp), %rax
 3757      E8010000 
 3758 0eb5 64482B04 		subq	%fs:40, %rax
 3758      25280000 
 3758      00
 3759 0ebe 7557     		jne	.L248
 3760 0ec0 4881C4F8 		addq	$504, %rsp
 3760      010000
 3761              		.cfi_remember_state
 3762              		.cfi_def_cfa_offset 56
 3763 0ec7 5B       		popq	%rbx
 3764              		.cfi_def_cfa_offset 48
 3765 0ec8 5D       		popq	%rbp
 3766              		.cfi_def_cfa_offset 40
 3767 0ec9 415C     		popq	%r12
 3768              		.cfi_def_cfa_offset 32
 3769 0ecb 415D     		popq	%r13
 3770              		.cfi_def_cfa_offset 24
 3771 0ecd 415E     		popq	%r14
 3772              		.cfi_def_cfa_offset 16
 3773 0ecf 415F     		popq	%r15
 3774              		.cfi_def_cfa_offset 8
 3775 0ed1 C3       		ret
 3776              		.p2align 4,,10
 3777 0ed2 660F1F44 		.p2align 3
 3777      0000
 3778              	.L243:
 3779              		.cfi_restore_state
 3780 0ed8 31D2     		xorl	%edx, %edx
 3781 0eda E955FCFF 		jmp	.L185
 3781      FF
 3782 0edf 90       		.p2align 4,,10
 3783              		.p2align 3
 3784              	.L241:
 3785 0ee0 31C0     		xorl	%eax, %eax
 3786 0ee2 E905FCFF 		jmp	.L180
 3786      FF
 3787 0ee7 660F1F84 		.p2align 4,,10
 3787      00000000 
 3787      00
 3788              		.p2align 3
 3789              	.L240:
 3790 0ef0 31D2     		xorl	%edx, %edx
 3791 0ef2 E9CDFBFF 		jmp	.L177
 3791      FF
 3792 0ef7 660F1F84 		.p2align 4,,10
 3792      00000000 
 3792      00
 3793              		.p2align 3
 3794              	.L238:
 3795 0f00 31C0     		xorl	%eax, %eax
 3796 0f02 E975FBFF 		jmp	.L173
 3796      FF
 3797 0f07 660F1F84 		.p2align 4,,10
 3797      00000000 
 3797      00
 3798              		.p2align 3
 3799              	.L237:
 3800 0f10 31C0     		xorl	%eax, %eax
 3801 0f12 E93FFBFF 		jmp	.L170
 3801      FF
 3802              	.L248:
 3803 0f17 E8000000 		call	__stack_chk_fail@PLT
 3803      00
 3804              	.L216:
 3805 0f1c F30F1EFA 		endbr64
 3806 0f20 4889C5   		movq	%rax, %rbp
 3807 0f23 E9000000 		jmp	.L194
 3807      00
 3808              	.L215:
 3809 0f28 F30F1EFA 		endbr64
 3810 0f2c 4889C5   		movq	%rax, %rbp
 3811 0f2f E9000000 		jmp	.L202
 3811      00
 3812              	.L217:
 3813 0f34 F30F1EFA 		endbr64
 3814 0f38 4889C5   		movq	%rax, %rbp
 3815 0f3b E9000000 		jmp	.L193
 3815      00
 3816              		.section	.gcc_except_table
 3817              	.LLSDA1539:
 3818 01ca FF       		.byte	0xff
 3819 01cb FF       		.byte	0xff
 3820 01cc 01       		.byte	0x1
 3821 01cd 18       		.uleb128 .LLSDACSE1539-.LLSDACSB1539
 3822              	.LLSDACSB1539:
 3823 01ce EA03     		.uleb128 .LEHB58-.LFB1539
 3824 01d0 05       		.uleb128 .LEHE58-.LEHB58
 3825 01d1 DC0A     		.uleb128 .L216-.LFB1539
 3826 01d3 00       		.uleb128 0
 3827 01d4 8C05     		.uleb128 .LEHB59-.LFB1539
 3828 01d6 05       		.uleb128 .LEHE59-.LEHB59
 3829 01d7 F40A     		.uleb128 .L217-.LFB1539
 3830 01d9 00       		.uleb128 0
 3831 01da E105     		.uleb128 .LEHB60-.LFB1539
 3832 01dc C202     		.uleb128 .LEHE60-.LEHB60
 3833 01de E80A     		.uleb128 .L215-.LFB1539
 3834 01e0 00       		.uleb128 0
 3835 01e1 C509     		.uleb128 .LEHB61-.LFB1539
 3836 01e3 05       		.uleb128 .LEHE61-.LEHB61
 3837 01e4 00       		.uleb128 0
 3838 01e5 00       		.uleb128 0
 3839              	.LLSDACSE1539:
 3840              		.text
 3841              		.cfi_endproc
 3842              		.section	.text.unlikely
 3843              		.cfi_startproc
 3844              		.cfi_personality 0x9b,DW.ref.__gxx_personality_v0
 3845              		.cfi_lsda 0x1b,.LLSDAC1539
 3847              	_ZN8UnitTest17CheckArray2DCloseIA3_A3_fS2_fEEvRNS_11TestResultsERKT_RKT0_iiRKT1_RKNS_11TestDetailsE
 3848              	.LFSB1539:
 3849              	.L193:
 3850              		.cfi_def_cfa_offset 560
 3851              		.cfi_offset 3, -56
 3852              		.cfi_offset 6, -48
 3853              		.cfi_offset 12, -40
 3854              		.cfi_offset 13, -32
 3855              		.cfi_offset 14, -24
 3856              		.cfi_offset 15, -16
 3857 01a0 4C89E7   		movq	%r12, %rdi
 3858 01a3 E8000000 		call	_ZNSt7__cxx1115basic_stringbufIcSt11char_traitsIcESaIcEED1Ev
 3858      00
 3859 01a8 488D0500 		leaq	24+_ZTCN8UnitTest15MemoryOutStreamE0_So(%rip), %rax
 3859      000000
 3860 01af 48894424 		movq	%rax, 80(%rsp)
 3860      50
 3861              	.L194:
 3862 01b4 488B7C24 		movq	48(%rsp), %rdi
 3862      30
 3863 01b9 488D0500 		leaq	16+_ZTVSt9basic_iosIcSt11char_traitsIcEE(%rip), %rax
 3863      000000
 3864 01c0 48898424 		movq	%rax, 224(%rsp)
 3864      E0000000 
 3865 01c8 E8000000 		call	_ZNSt8ios_baseD2Ev@PLT
 3865      00
 3866 01cd 4889EF   		movq	%rbp, %rdi
 3867              	.LEHB62:
 3868 01d0 E8000000 		call	_Unwind_Resume@PLT
 3868      00
 3869              	.LEHE62:
 3870              	.L202:
 3871 01d5 4C89EF   		movq	%r13, %rdi
 3872 01d8 E8000000 		call	_ZN8UnitTest15MemoryOutStreamD1Ev
 3872      00
 3873 01dd 4889EF   		movq	%rbp, %rdi
 3874              	.LEHB63:
 3875 01e0 E8000000 		call	_Unwind_Resume@PLT
 3875      00
 3876              	.LEHE63:
 3877              		.cfi_endproc
 3878              	.LFE1539:
 3879              		.section	.gcc_except_table
 3880              	.LLSDAC1539:
 3881 01e6 FF       		.byte	0xff
 3882 01e7 FF       		.byte	0xff
 3883 01e8 01       		.byte	0x1
 3884 01e9 08       		.uleb128 .LLSDACSEC1539-.LLSDACSBC1539
 3885              	.LLSDACSBC1539:
 3886 01ea 30       		.uleb128 .LEHB62-.LCOLDB36
 3887 01eb 05       		.uleb128 .LEHE62-.LEHB62
 3888 01ec 00       		.uleb128 0
 3889 01ed 00       		.uleb128 0
 3890 01ee 40       		.uleb128 .LEHB63-.LCOLDB36
 3891 01ef 05       		.uleb128 .LEHE63-.LEHB63
 3892 01f0 00       		.uleb128 0
 3893 01f1 00       		.uleb128 0
 3894              	.LLSDACSEC1539:
 3895              		.section	.text.unlikely
 3896              		.text
 3898              		.section	.text.unlikely
 3900              	.LCOLDE36:
 3901              		.text
 3902              	.LHOTE36:
 3903              		.section	.rodata.str1.8,"aMS",@progbits,1
 3904              		.align 8
 3905              	.LC37:
 3906 0000 556E6861 		.string	"Unhandled exception in CHECK_CLOSE(0.5, 0.5)"
 3906      6E646C65 
 3906      64206578 
 3906      63657074 
 3906      696F6E20 
 3907              		.section	.text.unlikely
 3908 01e5 90       		.align 2
 3909              	.LCOLDB38:
 3910              		.text
 3911              	.LHOTB38:
 3912              		.align 2
 3913              		.p2align 4
 3915              	_ZNK12_GLOBAL__N_133TestCheckCloseWithDoublesSucceeds7RunImplEv:
 3916              	.LFB1317:
 3917              		.cfi_startproc
 3918              		.cfi_personality 0x9b,DW.ref.__gxx_personality_v0
 3919              		.cfi_lsda 0x1b,.LLSDA1317
 3920 0f40 F30F1EFA 		endbr64
 3921 0f44 4154     		pushq	%r12
 3922              		.cfi_def_cfa_offset 16
 3923              		.cfi_offset 12, -16
 3924 0f46 55       		pushq	%rbp
 3925              		.cfi_def_cfa_offset 24
 3926              		.cfi_offset 6, -24
 3927 0f47 4883EC38 		subq	$56, %rsp
 3928              		.cfi_def_cfa_offset 80
 3929 0f4b 64488B04 		movq	%fs:40, %rax
 3929      25280000 
 3929      00
 3930 0f54 48894424 		movq	%rax, 40(%rsp)
 3930      28
 3931 0f59 31C0     		xorl	%eax, %eax
 3932              	.LEHB64:
 3933 0f5b E8000000 		call	_ZN8UnitTest11CurrentTest7DetailsEv@PLT
 3933      00
 3934 0f60 488B30   		movq	(%rax), %rsi
 3935 0f63 4889E7   		movq	%rsp, %rdi
 3936 0f66 BA0E0100 		movl	$270, %edx
 3936      00
 3937 0f6b E8000000 		call	_ZN8UnitTest11TestDetailsC1ERKS0_i@PLT
 3937      00
 3938 0f70 E8000000 		call	_ZN8UnitTest11CurrentTest7ResultsEv@PLT
 3938      00
 3939              	.LEHE64:
 3940 0f75 488B4424 		movq	40(%rsp), %rax
 3940      28
 3941 0f7a 64482B04 		subq	%fs:40, %rax
 3941      25280000 
 3941      00
 3942 0f83 7508     		jne	.L258
 3943 0f85 4883C438 		addq	$56, %rsp
 3944              		.cfi_remember_state
 3945              		.cfi_def_cfa_offset 24
 3946 0f89 5D       		popq	%rbp
 3947              		.cfi_def_cfa_offset 16
 3948 0f8a 415C     		popq	%r12
 3949              		.cfi_def_cfa_offset 8
 3950 0f8c C3       		ret
 3951              	.L258:
 3952              		.cfi_restore_state
 3953 0f8d E8000000 		call	__stack_chk_fail@PLT
 3953      00
 3954              	.L254:
 3955 0f92 F30F1EFA 		endbr64
 3956 0f96 4889C7   		movq	%rax, %rdi
 3957 0f99 E9000000 		jmp	.L250
 3957      00
 3958              		.section	.gcc_except_table
 3959 01f2 0000     		.align 4
 3960              	.LLSDA1317:
 3961 01f4 FF       		.byte	0xff
 3962 01f5 9B       		.byte	0x9b
 3963 01f6 0D       		.uleb128 .LLSDATT1317-.LLSDATTD1317
 3964              	.LLSDATTD1317:
 3965 01f7 01       		.byte	0x1
 3966 01f8 04       		.uleb128 .LLSDACSE1317-.LLSDACSB1317
 3967              	.LLSDACSB1317:
 3968 01f9 1B       		.uleb128 .LEHB64-.LFB1317
 3969 01fa 1A       		.uleb128 .LEHE64-.LEHB64
 3970 01fb 52       		.uleb128 .L254-.LFB1317
 3971 01fc 01       		.uleb128 0x1
 3972              	.LLSDACSE1317:
 3973 01fd 01       		.byte	0x1
 3974 01fe 00       		.byte	0
 3975 01ff 00       		.align 4
 3976 0200 00000000 		.long	0
 3977              	
 3978              	.LLSDATT1317:
 3979              		.text
 3980              		.cfi_endproc
 3981              		.section	.text.unlikely
 3982              		.cfi_startproc
 3983              		.cfi_personality 0x9b,DW.ref.__gxx_personality_v0
 3984              		.cfi_lsda 0x1b,.LLSDAC1317
 3986              	_ZNK12_GLOBAL__N_133TestCheckCloseWithDoublesSucceeds7RunImplEv.cold:
 3987              	.LFSB1317:
 3988              	.L250:
 3989              		.cfi_def_cfa_offset 80
 3990              		.cfi_offset 6, -24
 3991              		.cfi_offset 12, -16
 3992 01e6 E8000000 		call	__cxa_begin_catch@PLT
 3992      00
 3993              	.LEHB65:
 3994 01eb E8000000 		call	_ZN8UnitTest11CurrentTest7ResultsEv@PLT
 3994      00
 3995 01f0 4C8B20   		movq	(%rax), %r12
 3996 01f3 E8000000 		call	_ZN8UnitTest11CurrentTest7DetailsEv@PLT
 3996      00
 3997 01f8 4889E5   		movq	%rsp, %rbp
 3998 01fb 488B30   		movq	(%rax), %rsi
 3999 01fe BA0E0100 		movl	$270, %edx
 3999      00
 4000 0203 4889EF   		movq	%rbp, %rdi
 4001 0206 E8000000 		call	_ZN8UnitTest11TestDetailsC1ERKS0_i@PLT
 4001      00
 4002 020b 488D1500 		leaq	.LC37(%rip), %rdx
 4002      000000
 4003 0212 4889EE   		movq	%rbp, %rsi
 4004 0215 4C89E7   		movq	%r12, %rdi
 4005 0218 E8000000 		call	_ZN8UnitTest11TestResults13OnTestFailureERKNS_11TestDetailsEPKc@PLT
 4005      00
 4006              	.LEHE65:
 4007 021d 488B4424 		movq	40(%rsp), %rax
 4007      28
 4008 0222 64482B04 		subq	%fs:40, %rax
 4008      25280000 
 4008      00
 4009 022b 7520     		jne	.L259
 4010 022d 4883C438 		addq	$56, %rsp
 4011              		.cfi_remember_state
 4012              		.cfi_def_cfa_offset 24
 4013 0231 5D       		popq	%rbp
 4014              		.cfi_def_cfa_offset 16
 4015 0232 415C     		popq	%r12
 4016              		.cfi_def_cfa_offset 8
 4017              	.LEHB66:
 4018 0234 E9000000 		jmp	__cxa_end_catch@PLT
 4018      00
 4019              	.LEHE66:
 4020              	.L255:
 4021              		.cfi_restore_state
 4022 0239 F30F1EFA 		endbr64
 4023 023d 4889C5   		movq	%rax, %rbp
 4024 0240 E8000000 		call	__cxa_end_catch@PLT
 4024      00
 4025 0245 4889EF   		movq	%rbp, %rdi
 4026              	.LEHB67:
 4027 0248 E8000000 		call	_Unwind_Resume@PLT
 4027      00
 4028              	.LEHE67:
 4029              	.L259:
 4030 024d E8000000 		call	__stack_chk_fail@PLT
 4030      00
 4031              		.cfi_endproc
 4032              	.LFE1317:
 4033              		.section	.gcc_except_table
 4034              		.align 4
 4035              	.LLSDAC1317:
 4036 0204 FF       		.byte	0xff
 4037 0205 9B       		.byte	0x9b
 4038 0206 15       		.uleb128 .LLSDATTC1317-.LLSDATTDC1317
 4039              	.LLSDATTDC1317:
 4040 0207 01       		.byte	0x1
 4041 0208 0C       		.uleb128 .LLSDACSEC1317-.LLSDACSBC1317
 4042              	.LLSDACSBC1317:
 4043 0209 05       		.uleb128 .LEHB65-.LCOLDB38
 4044 020a 32       		.uleb128 .LEHE65-.LEHB65
 4045 020b 53       		.uleb128 .L255-.LCOLDB38
 4046 020c 00       		.uleb128 0
 4047 020d 4E       		.uleb128 .LEHB66-.LCOLDB38
 4048 020e 05       		.uleb128 .LEHE66-.LEHB66
 4049 020f 00       		.uleb128 0
 4050 0210 00       		.uleb128 0
 4051 0211 62       		.uleb128 .LEHB67-.LCOLDB38
 4052 0212 05       		.uleb128 .LEHE67-.LEHB67
 4053 0213 00       		.uleb128 0
 4054 0214 00       		.uleb128 0
 4055              	.LLSDACSEC1317:
 4056 0215 01       		.byte	0x1
 4057 0216 00       		.byte	0
 4058 0217 00       		.align 4
 4059 0218 00000000 		.long	0
 4060              	
 4061              	.LLSDATTC1317:
 4062              		.section	.text.unlikely
 4063              		.text
 4065              		.section	.text.unlikely
 4067              	.LCOLDE38:
 4068              		.text
 4069              	.LHOTE38:
 4070              		.section	.rodata.str1.8
 4071 002d 000000   		.align 8
 4072              	.LC39:
 4073 0030 556E6861 		.string	"Unhandled exception in CHECK_EQUAL(something, something)"
 4073      6E646C65 
 4073      64206578 
 4073      63657074 
 4073      696F6E20 
 4074              		.section	.text.unlikely
 4075              		.align 2
 4076              	.LCOLDB40:
 4077              		.text
 4078              	.LHOTB40:
 4079              		.align 2
 4080 0f9e 6690     		.p2align 4
 4082              	_ZNK12_GLOBAL__N_130TestCheckEqualWithUnsignedLong7RunImplEv:
 4083              	.LFB1221:
 4084              		.cfi_startproc
 4085              		.cfi_personality 0x9b,DW.ref.__gxx_personality_v0
 4086              		.cfi_lsda 0x1b,.LLSDA1221
 4087 0fa0 F30F1EFA 		endbr64
 4088 0fa4 4154     		pushq	%r12
 4089              		.cfi_def_cfa_offset 16
 4090              		.cfi_offset 12, -16
 4091 0fa6 31F6     		xorl	%esi, %esi
 4092 0fa8 55       		pushq	%rbp
 4093              		.cfi_def_cfa_offset 24
 4094              		.cfi_offset 6, -24
 4095 0fa9 4883EC58 		subq	$88, %rsp
 4096              		.cfi_def_cfa_offset 112
 4097 0fad 64488B04 		movq	%fs:40, %rax
 4097      25280000 
 4097      00
 4098 0fb6 48894424 		movq	%rax, 72(%rsp)
 4098      48
 4099 0fbb 31C0     		xorl	%eax, %eax
 4100 0fbd 4889E7   		movq	%rsp, %rdi
 4101              	.LEHB68:
 4102 0fc0 E8000000 		call	_ZN8UnitTest11TestResultsC1EPNS_12TestReporterE@PLT
 4102      00
 4103              	.LEHE68:
 4104              	.LEHB69:
 4105 0fc5 E8000000 		call	_ZN8UnitTest11CurrentTest7DetailsEv@PLT
 4105      00
 4106 0fca 488B30   		movq	(%rax), %rsi
 4107 0fcd 488D7C24 		leaq	32(%rsp), %rdi
 4107      20
 4108 0fd2 BA0E0000 		movl	$14, %edx
 4108      00
 4109 0fd7 E8000000 		call	_ZN8UnitTest11TestDetailsC1ERKS0_i@PLT
 4109      00
 4110 0fdc E8000000 		call	_ZN8UnitTest11CurrentTest7ResultsEv@PLT
 4110      00
 4111              	.LEHE69:
 4112              	.L260:
 4113 0fe1 488B4424 		movq	72(%rsp), %rax
 4113      48
 4114 0fe6 64482B04 		subq	%fs:40, %rax
 4114      25280000 
 4114      00
 4115 0fef 7508     		jne	.L268
 4116 0ff1 4883C458 		addq	$88, %rsp
 4117              		.cfi_remember_state
 4118              		.cfi_def_cfa_offset 24
 4119 0ff5 5D       		popq	%rbp
 4120              		.cfi_def_cfa_offset 16
 4121 0ff6 415C     		popq	%r12
 4122              		.cfi_def_cfa_offset 8
 4123 0ff8 C3       		ret
 4124              	.L268:
 4125              		.cfi_restore_state
 4126 0ff9 E8000000 		call	__stack_chk_fail@PLT
 4126      00
 4127              	.L265:
 4128 0ffe F30F1EFA 		endbr64
 4129 1002 4889C7   		movq	%rax, %rdi
 4130 1005 E9000000 		jmp	.L261
 4130      00
 4131              		.section	.gcc_except_table
 4132              		.align 4
 4133              	.LLSDA1221:
 4134 021c FF       		.byte	0xff
 4135 021d 9B       		.byte	0x9b
 4136 021e 11       		.uleb128 .LLSDATT1221-.LLSDATTD1221
 4137              	.LLSDATTD1221:
 4138 021f 01       		.byte	0x1
 4139 0220 08       		.uleb128 .LLSDACSE1221-.LLSDACSB1221
 4140              	.LLSDACSB1221:
 4141 0221 20       		.uleb128 .LEHB68-.LFB1221
 4142 0222 05       		.uleb128 .LEHE68-.LEHB68
 4143 0223 00       		.uleb128 0
 4144 0224 00       		.uleb128 0
 4145 0225 25       		.uleb128 .LEHB69-.LFB1221
 4146 0226 1C       		.uleb128 .LEHE69-.LEHB69
 4147 0227 5E       		.uleb128 .L265-.LFB1221
 4148 0228 01       		.uleb128 0x1
 4149              	.LLSDACSE1221:
 4150 0229 01       		.byte	0x1
 4151 022a 00       		.byte	0
 4152 022b 00       		.align 4
 4153 022c 00000000 		.long	0
 4154              	
 4155              	.LLSDATT1221:
 4156              		.text
 4157              		.cfi_endproc
 4158              		.section	.text.unlikely
 4159              		.cfi_startproc
 4160              		.cfi_personality 0x9b,DW.ref.__gxx_personality_v0
 4161              		.cfi_lsda 0x1b,.LLSDAC1221
 4163              	_ZNK12_GLOBAL__N_130TestCheckEqualWithUnsignedLong7RunImplEv.cold:
 4164              	.LFSB1221:
 4165              	.L261:
 4166              		.cfi_def_cfa_offset 112
 4167              		.cfi_offset 6, -24
 4168              		.cfi_offset 12, -16
 4169 0252 E8000000 		call	__cxa_begin_catch@PLT
 4169      00
 4170              	.LEHB70:
 4171 0257 E8000000 		call	_ZN8UnitTest11CurrentTest7ResultsEv@PLT
 4171      00
 4172 025c 4C8B20   		movq	(%rax), %r12
 4173 025f E8000000 		call	_ZN8UnitTest11CurrentTest7DetailsEv@PLT
 4173      00
 4174 0264 488D6C24 		leaq	32(%rsp), %rbp
 4174      20
 4175 0269 488B30   		movq	(%rax), %rsi
 4176 026c BA0E0000 		movl	$14, %edx
 4176      00
 4177 0271 4889EF   		movq	%rbp, %rdi
 4178 0274 E8000000 		call	_ZN8UnitTest11TestDetailsC1ERKS0_i@PLT
 4178      00
 4179 0279 488D1500 		leaq	.LC39(%rip), %rdx
 4179      000000
 4180 0280 4889EE   		movq	%rbp, %rsi
 4181 0283 4C89E7   		movq	%r12, %rdi
 4182 0286 E8000000 		call	_ZN8UnitTest11TestResults13OnTestFailureERKNS_11TestDetailsEPKc@PLT
 4182      00
 4183              	.LEHE70:
 4184              	.LEHB71:
 4185 028b E8000000 		call	__cxa_end_catch@PLT
 4185      00
 4186              	.LEHE71:
 4187 0290 E9000000 		jmp	.L260
 4187      00
 4188              	.L266:
 4189 0295 F30F1EFA 		endbr64
 4190 0299 4889C5   		movq	%rax, %rbp
 4191 029c E8000000 		call	__cxa_end_catch@PLT
 4191      00
 4192 02a1 4889EF   		movq	%rbp, %rdi
 4193              	.LEHB72:
 4194 02a4 E8000000 		call	_Unwind_Resume@PLT
 4194      00
 4195              	.LEHE72:
 4196              		.cfi_endproc
 4197              	.LFE1221:
 4198              		.section	.gcc_except_table
 4199              		.align 4
 4200              	.LLSDAC1221:
 4201 0230 FF       		.byte	0xff
 4202 0231 9B       		.byte	0x9b
 4203 0232 15       		.uleb128 .LLSDATTC1221-.LLSDATTDC1221
 4204              	.LLSDATTDC1221:
 4205 0233 01       		.byte	0x1
 4206 0234 0C       		.uleb128 .LLSDACSEC1221-.LLSDACSBC1221
 4207              	.LLSDACSBC1221:
 4208 0235 05       		.uleb128 .LEHB70-.LCOLDB40
 4209 0236 34       		.uleb128 .LEHE70-.LEHB70
 4210 0237 43       		.uleb128 .L266-.LCOLDB40
 4211 0238 00       		.uleb128 0
 4212 0239 39       		.uleb128 .LEHB71-.LCOLDB40
 4213 023a 05       		.uleb128 .LEHE71-.LEHB71
 4214 023b 00       		.uleb128 0
 4215 023c 00       		.uleb128 0
 4216 023d 52       		.uleb128 .LEHB72-.LCOLDB40
 4217 023e 05       		.uleb128 .LEHE72-.LEHB72
 4218 023f 00       		.uleb128 0
 4219 0240 00       		.uleb128 0
 4220              	.LLSDACSEC1221:
 4221 0241 01       		.byte	0x1
 4222 0242 00       		.byte	0
 4223 0243 00       		.align 4
 4224 0244 00000000 		.long	0
 4225              	
 4226              	.LLSDATTC1221:
 4227              		.section	.text.unlikely
 4228              		.text
 4230              		.section	.text.unlikely
 4232              	.LCOLDE40:
 4233              		.text
 4234              	.LHOTE40:
 4235              		.section	.rodata.str1.1
 4236              	.LC41:
 4237 0029 5D206275 		.string	"] but was [ "
 4237      74207761 
 4237      73205B20 
 4237      00
 4238              		.section	.text.unlikely
 4239              	.LCOLDB42:
 4240              		.text
 4241              	.LHOTB42:
 4242 100a 660F1F44 		.p2align 4
 4242      0000
 4244              	_ZN8UnitTest15CheckArrayEqualIA3_iS1_EEvRNS_11TestResultsERKT_RKT0_iRKNS_11TestDetailsE.constprop.0
 4245              	.LFB1541:
 4246              		.cfi_startproc
 4247              		.cfi_personality 0x9b,DW.ref.__gxx_personality_v0
 4248              		.cfi_lsda 0x1b,.LLSDA1541
 4249 1010 4157     		pushq	%r15
 4250              		.cfi_def_cfa_offset 16
 4251              		.cfi_offset 15, -16
 4252 1012 4989FF   		movq	%rdi, %r15
 4253 1015 4156     		pushq	%r14
 4254              		.cfi_def_cfa_offset 24
 4255              		.cfi_offset 14, -24
 4256 1017 4155     		pushq	%r13
 4257              		.cfi_def_cfa_offset 32
 4258              		.cfi_offset 13, -32
 4259 1019 4154     		pushq	%r12
 4260              		.cfi_def_cfa_offset 40
 4261              		.cfi_offset 12, -40
 4262 101b 55       		pushq	%rbp
 4263              		.cfi_def_cfa_offset 48
 4264              		.cfi_offset 6, -48
 4265 101c 4889F5   		movq	%rsi, %rbp
 4266 101f 53       		pushq	%rbx
 4267              		.cfi_def_cfa_offset 56
 4268              		.cfi_offset 3, -56
 4269 1020 4889D3   		movq	%rdx, %rbx
 4270 1023 4881ECD8 		subq	$472, %rsp
 4270      010000
 4271              		.cfi_def_cfa_offset 528
 4272 102a F30F7E0D 		movq	.LC33(%rip), %xmm1
 4272      00000000 
 4273 1032 48894C24 		movq	%rcx, 16(%rsp)
 4273      10
 4274 1037 0F160D00 		movhps	.LC34(%rip), %xmm1
 4274      000000
 4275 103e 64488B04 		movq	%fs:40, %rax
 4275      25280000 
 4275      00
 4276 1047 48898424 		movq	%rax, 456(%rsp)
 4276      C8010000 
 4277 104f 31C0     		xorl	%eax, %eax
 4278 1051 8B02     		movl	(%rdx), %eax
 4279 1053 3906     		cmpl	%eax, (%rsi)
 4280 1055 0F290C24 		movaps	%xmm1, (%rsp)
 4281 1059 8B4604   		movl	4(%rsi), %eax
 4282 105c 0F94C2   		sete	%dl
 4283 105f 394304   		cmpl	%eax, 4(%rbx)
 4284 1062 0F94C0   		sete	%al
 4285 1065 84C2     		testb	%al, %dl
 4286 1067 7437     		je	.L285
 4287 1069 8B4308   		movl	8(%rbx), %eax
 4288 106c 394608   		cmpl	%eax, 8(%rsi)
 4289 106f 752F     		jne	.L285
 4290              	.L269:
 4291 1071 488B8424 		movq	456(%rsp), %rax
 4291      C8010000 
 4292 1079 64482B04 		subq	%fs:40, %rax
 4292      25280000 
 4292      00
 4293 1082 0F85A702 		jne	.L294
 4293      0000
 4294 1088 4881C4D8 		addq	$472, %rsp
 4294      010000
 4295              		.cfi_remember_state
 4296              		.cfi_def_cfa_offset 56
 4297 108f 5B       		popq	%rbx
 4298              		.cfi_def_cfa_offset 48
 4299 1090 5D       		popq	%rbp
 4300              		.cfi_def_cfa_offset 40
 4301 1091 415C     		popq	%r12
 4302              		.cfi_def_cfa_offset 32
 4303 1093 415D     		popq	%r13
 4304              		.cfi_def_cfa_offset 24
 4305 1095 415E     		popq	%r14
 4306              		.cfi_def_cfa_offset 16
 4307 1097 415F     		popq	%r15
 4308              		.cfi_def_cfa_offset 8
 4309 1099 C3       		ret
 4310 109a 660F1F44 		.p2align 4,,10
 4310      0000
 4311              		.p2align 3
 4312              	.L285:
 4313              		.cfi_restore_state
 4314 10a0 4C8DB424 		leaq	192(%rsp), %r14
 4314      C0000000 
 4315 10a8 4C89F7   		movq	%r14, %rdi
 4316 10ab E8000000 		call	_ZNSt8ios_baseC2Ev@PLT
 4316      00
 4317 10b0 31C0     		xorl	%eax, %eax
 4318 10b2 660FEFC0 		pxor	%xmm0, %xmm0
 4319 10b6 31F6     		xorl	%esi, %esi
 4320 10b8 66898424 		movw	%ax, 416(%rsp)
 4320      A0010000 
 4321 10c0 488D0500 		leaq	24+_ZTCN8UnitTest15MemoryOutStreamE0_So(%rip), %rax
 4321      000000
 4322 10c7 4C89F7   		movq	%r14, %rdi
 4323 10ca 48894424 		movq	%rax, 48(%rsp)
 4323      30
 4324 10cf 4883C028 		addq	$40, %rax
 4325 10d3 48C78424 		movq	$0, 408(%rsp)
 4325      98010000 
 4325      00000000 
 4326 10df 48898424 		movq	%rax, 192(%rsp)
 4326      C0000000 
 4327 10e7 0F118424 		movups	%xmm0, 424(%rsp)
 4327      A8010000 
 4328 10ef 0F118424 		movups	%xmm0, 440(%rsp)
 4328      B8010000 
 4329              	.LEHB73:
 4330 10f7 E8000000 		call	_ZNSt9basic_iosIcSt11char_traitsIcEE4initEPSt15basic_streambufIcS1_E@PLT
 4330      00
 4331              	.LEHE73:
 4332 10fc 488D0500 		leaq	64+_ZTCN8UnitTest15MemoryOutStreamE0_NSt7__cxx1119basic_ostringstreamIcSt11char_traitsIcESaIc
 4332      000000
 4333 1103 660F6F14 		movdqa	(%rsp), %xmm2
 4333      24
 4334 1108 660FEFC0 		pxor	%xmm0, %xmm0
 4335 110c 4C8D6424 		leaq	48(%rsp), %r12
 4335      30
 4336 1111 48898424 		movq	%rax, 192(%rsp)
 4336      C0000000 
 4337 1119 488D4424 		leaq	112(%rsp), %rax
 4337      70
 4338 111e 4C8D6C24 		leaq	56(%rsp), %r13
 4338      38
 4339 1123 4889C7   		movq	%rax, %rdi
 4340 1126 48894424 		movq	%rax, 32(%rsp)
 4340      20
 4341 112b 0F295424 		movaps	%xmm2, 48(%rsp)
 4341      30
 4342 1130 0F294424 		movaps	%xmm0, 64(%rsp)
 4342      40
 4343 1135 0F294424 		movaps	%xmm0, 80(%rsp)
 4343      50
 4344 113a 0F294424 		movaps	%xmm0, 96(%rsp)
 4344      60
 4345 113f E8000000 		call	_ZNSt6localeC1Ev@PLT
 4345      00
 4346 1144 488D0500 		leaq	16+_ZTVNSt7__cxx1115basic_stringbufIcSt11char_traitsIcESaIcEEE(%rip), %rax
 4346      000000
 4347 114b 4C89EE   		movq	%r13, %rsi
 4348 114e 48C78424 		movq	$0, 136(%rsp)
 4348      88000000 
 4348      00000000 
 4349 115a 48894424 		movq	%rax, 56(%rsp)
 4349      38
 4350 115f 488D8424 		leaq	144(%rsp), %rax
 4350      90000000 
 4351 1167 48894424 		movq	%rax, 40(%rsp)
 4351      28
 4352 116c 48898424 		movq	%rax, 128(%rsp)
 4352      80000000 
 4353 1174 488B4424 		movq	48(%rsp), %rax
 4353      30
 4354 1179 C6842490 		movb	$0, 144(%rsp)
 4354      00000000 
 4355 1181 488B78E8 		movq	-24(%rax), %rdi
 4356 1185 C7442478 		movl	$16, 120(%rsp)
 4356      10000000 
 4357 118d 4C01E7   		addq	%r12, %rdi
 4358              	.LEHB74:
 4359 1190 E8000000 		call	_ZNSt9basic_iosIcSt11char_traitsIcEE4initEPSt15basic_streambufIcS1_E@PLT
 4359      00
 4360              	.LEHE74:
 4361 1195 488D0500 		leaq	24+_ZTVN8UnitTest15MemoryOutStreamE(%rip), %rax
 4361      000000
 4362 119c BA0B0000 		movl	$11, %edx
 4362      00
 4363 11a1 4C89E7   		movq	%r12, %rdi
 4364 11a4 48C78424 		movq	$0, 168(%rsp)
 4364      A8000000 
 4364      00000000 
 4365 11b0 48894424 		movq	%rax, 48(%rsp)
 4365      30
 4366 11b5 4883C028 		addq	$40, %rax
 4367 11b9 488D3500 		leaq	.LC26(%rip), %rsi
 4367      000000
 4368 11c0 48898424 		movq	%rax, 192(%rsp)
 4368      C0000000 
 4369 11c8 488D8424 		leaq	176(%rsp), %rax
 4369      B0000000 
 4370 11d0 48894424 		movq	%rax, 24(%rsp)
 4370      18
 4371 11d5 48898424 		movq	%rax, 160(%rsp)
 4371      A0000000 
 4372 11dd C68424B0 		movb	$0, 176(%rsp)
 4372      00000000 
 4373              	.LEHB75:
 4374 11e5 E8000000 		call	_ZSt16__ostream_insertIcSt11char_traitsIcEERSt13basic_ostreamIT_T0_ES6_PKS3_l@PLT
 4374      00
 4375 11ea 488D450C 		leaq	12(%rbp), %rax
 4376 11ee 4C8D2D00 		leaq	.LC28(%rip), %r13
 4376      000000
 4377 11f5 48890424 		movq	%rax, (%rsp)
 4378              	.L276:
 4379 11f9 8B7500   		movl	0(%rbp), %esi
 4380 11fc 4C89E7   		movq	%r12, %rdi
 4381 11ff E8000000 		call	_ZNSolsEi@PLT
 4381      00
 4382 1204 4889C7   		movq	%rax, %rdi
 4383 1207 BA010000 		movl	$1, %edx
 4383      00
 4384 120c 4C89EE   		movq	%r13, %rsi
 4385 120f E8000000 		call	_ZSt16__ostream_insertIcSt11char_traitsIcEERSt13basic_ostreamIT_T0_ES6_PKS3_l@PLT
 4385      00
 4386 1214 4883C504 		addq	$4, %rbp
 4387 1218 48392C24 		cmpq	%rbp, (%rsp)
 4388 121c 75DB     		jne	.L276
 4389 121e BA0C0000 		movl	$12, %edx
 4389      00
 4390 1223 488D3500 		leaq	.LC41(%rip), %rsi
 4390      000000
 4391 122a 4C89E7   		movq	%r12, %rdi
 4392 122d E8000000 		call	_ZSt16__ostream_insertIcSt11char_traitsIcEERSt13basic_ostreamIT_T0_ES6_PKS3_l@PLT
 4392      00
 4393 1232 488D6B0C 		leaq	12(%rbx), %rbp
 4394              	.L277:
 4395 1236 8B33     		movl	(%rbx), %esi
 4396 1238 4C89E7   		movq	%r12, %rdi
 4397 123b E8000000 		call	_ZNSolsEi@PLT
 4397      00
 4398 1240 4889C7   		movq	%rax, %rdi
 4399 1243 BA010000 		movl	$1, %edx
 4399      00
 4400 1248 4C89EE   		movq	%r13, %rsi
 4401 124b E8000000 		call	_ZSt16__ostream_insertIcSt11char_traitsIcEERSt13basic_ostreamIT_T0_ES6_PKS3_l@PLT
 4401      00
 4402 1250 4883C304 		addq	$4, %rbx
 4403 1254 4839DD   		cmpq	%rbx, %rbp
 4404 1257 75DD     		jne	.L277
 4405 1259 BA010000 		movl	$1, %edx
 4405      00
 4406 125e 488D3500 		leaq	.LC32(%rip), %rsi
 4406      000000
 4407 1265 4C89E7   		movq	%r12, %rdi
 4408 1268 E8000000 		call	_ZSt16__ostream_insertIcSt11char_traitsIcEERSt13basic_ostreamIT_T0_ES6_PKS3_l@PLT
 4408      00
 4409 126d 4C89E7   		movq	%r12, %rdi
 4410 1270 E8000000 		call	_ZNK8UnitTest15MemoryOutStream7GetTextEv@PLT
 4410      00
 4411 1275 488B7424 		movq	16(%rsp), %rsi
 4411      10
 4412 127a 4889C2   		movq	%rax, %rdx
 4413 127d 4C89FF   		movq	%r15, %rdi
 4414 1280 E8000000 		call	_ZN8UnitTest11TestResults13OnTestFailureERKNS_11TestDetailsEPKc@PLT
 4414      00
 4415              	.LEHE75:
 4416 1285 488D0500 		leaq	24+_ZTVN8UnitTest15MemoryOutStreamE(%rip), %rax
 4416      000000
 4417 128c 488BBC24 		movq	160(%rsp), %rdi
 4417      A0000000 
 4418 1294 F30F7E05 		movq	.LC33(%rip), %xmm0
 4418      00000000 
 4419 129c 48894424 		movq	%rax, 48(%rsp)
 4419      30
 4420 12a1 4883C028 		addq	$40, %rax
 4421 12a5 48898424 		movq	%rax, 192(%rsp)
 4421      C0000000 
 4422 12ad 0F160500 		movhps	.LC35(%rip), %xmm0
 4422      000000
 4423 12b4 483B7C24 		cmpq	24(%rsp), %rdi
 4423      18
 4424 12b9 740E     		je	.L278
 4425 12bb 0F290424 		movaps	%xmm0, (%rsp)
 4426 12bf E8000000 		call	_ZdlPv@PLT
 4426      00
 4427 12c4 660F6F04 		movdqa	(%rsp), %xmm0
 4427      24
 4428              	.L278:
 4429 12c9 488D0500 		leaq	64+_ZTCN8UnitTest15MemoryOutStreamE0_NSt7__cxx1119basic_ostringstreamIcSt11char_traitsIcESaIc
 4429      000000
 4430 12d0 488BBC24 		movq	128(%rsp), %rdi
 4430      80000000 
 4431 12d8 0F294424 		movaps	%xmm0, 48(%rsp)
 4431      30
 4432 12dd 48898424 		movq	%rax, 192(%rsp)
 4432      C0000000 
 4433 12e5 483B7C24 		cmpq	40(%rsp), %rdi
 4433      28
 4434 12ea 7405     		je	.L279
 4435 12ec E8000000 		call	_ZdlPv@PLT
 4435      00
 4436              	.L279:
 4437 12f1 488B7C24 		movq	32(%rsp), %rdi
 4437      20
 4438 12f6 488D0500 		leaq	16+_ZTVSt15basic_streambufIcSt11char_traitsIcEE(%rip), %rax
 4438      000000
 4439 12fd 48894424 		movq	%rax, 56(%rsp)
 4439      38
 4440 1302 E8000000 		call	_ZNSt6localeD1Ev@PLT
 4440      00
 4441 1307 488D0500 		leaq	24+_ZTCN8UnitTest15MemoryOutStreamE0_So(%rip), %rax
 4441      000000
 4442 130e 4C89F7   		movq	%r14, %rdi
 4443 1311 48894424 		movq	%rax, 48(%rsp)
 4443      30
 4444 1316 488D0500 		leaq	16+_ZTVSt9basic_iosIcSt11char_traitsIcEE(%rip), %rax
 4444      000000
 4445 131d 48898424 		movq	%rax, 192(%rsp)
 4445      C0000000 
 4446              	.LEHB76:
 4447 1325 E8000000 		call	_ZNSt8ios_baseD2Ev@PLT
 4447      00
 4448              	.LEHE76:
 4449 132a E942FDFF 		jmp	.L269
 4449      FF
 4450              	.L294:
 4451 132f E8000000 		call	__stack_chk_fail@PLT
 4451      00
 4452              	.L284:
 4453 1334 F30F1EFA 		endbr64
 4454 1338 4889C5   		movq	%rax, %rbp
 4455 133b E9000000 		jmp	.L273
 4455      00
 4456              	.L282:
 4457 1340 F30F1EFA 		endbr64
 4458 1344 4889C5   		movq	%rax, %rbp
 4459 1347 E9000000 		jmp	.L280
 4459      00
 4460              	.L283:
 4461 134c F30F1EFA 		endbr64
 4462 1350 4889C5   		movq	%rax, %rbp
 4463 1353 E9000000 		jmp	.L274
 4463      00
 4464              		.section	.gcc_except_table
 4465              	.LLSDA1541:
 4466 0248 FF       		.byte	0xff
 4467 0249 FF       		.byte	0xff
 4468 024a 01       		.byte	0x1
 4469 024b 18       		.uleb128 .LLSDACSE1541-.LLSDACSB1541
 4470              	.LLSDACSB1541:
 4471 024c E701     		.uleb128 .LEHB73-.LFB1541
 4472 024e 05       		.uleb128 .LEHE73-.LEHB73
 4473 024f BC06     		.uleb128 .L283-.LFB1541
 4474 0251 00       		.uleb128 0
 4475 0252 8003     		.uleb128 .LEHB74-.LFB1541
 4476 0254 05       		.uleb128 .LEHE74-.LEHB74
 4477 0255 A406     		.uleb128 .L284-.LFB1541
 4478 0257 00       		.uleb128 0
 4479 0258 D503     		.uleb128 .LEHB75-.LFB1541
 4480 025a A001     		.uleb128 .LEHE75-.LEHB75
 4481 025c B006     		.uleb128 .L282-.LFB1541
 4482 025e 00       		.uleb128 0
 4483 025f 9506     		.uleb128 .LEHB76-.LFB1541
 4484 0261 05       		.uleb128 .LEHE76-.LEHB76
 4485 0262 00       		.uleb128 0
 4486 0263 00       		.uleb128 0
 4487              	.LLSDACSE1541:
 4488              		.text
 4489              		.cfi_endproc
 4490              		.section	.text.unlikely
 4491              		.cfi_startproc
 4492              		.cfi_personality 0x9b,DW.ref.__gxx_personality_v0
 4493              		.cfi_lsda 0x1b,.LLSDAC1541
 4495              	_ZN8UnitTest15CheckArrayEqualIA3_iS1_EEvRNS_11TestResultsERKT_RKT0_iRKNS_11TestDetailsE.constprop.0
 4496              	.LFSB1541:
 4497              	.L273:
 4498              		.cfi_def_cfa_offset 528
 4499              		.cfi_offset 3, -56
 4500              		.cfi_offset 6, -48
 4501              		.cfi_offset 12, -40
 4502              		.cfi_offset 13, -32
 4503              		.cfi_offset 14, -24
 4504              		.cfi_offset 15, -16
 4505 02a9 4C89EF   		movq	%r13, %rdi
 4506 02ac E8000000 		call	_ZNSt7__cxx1115basic_stringbufIcSt11char_traitsIcESaIcEED1Ev
 4506      00
 4507 02b1 488D0500 		leaq	24+_ZTCN8UnitTest15MemoryOutStreamE0_So(%rip), %rax
 4507      000000
 4508 02b8 48894424 		movq	%rax, 48(%rsp)
 4508      30
 4509              	.L274:
 4510 02bd 488D0500 		leaq	16+_ZTVSt9basic_iosIcSt11char_traitsIcEE(%rip), %rax
 4510      000000
 4511 02c4 4C89F7   		movq	%r14, %rdi
 4512 02c7 48898424 		movq	%rax, 192(%rsp)
 4512      C0000000 
 4513 02cf E8000000 		call	_ZNSt8ios_baseD2Ev@PLT
 4513      00
 4514 02d4 4889EF   		movq	%rbp, %rdi
 4515              	.LEHB77:
 4516 02d7 E8000000 		call	_Unwind_Resume@PLT
 4516      00
 4517              	.LEHE77:
 4518              	.L280:
 4519 02dc 4C89E7   		movq	%r12, %rdi
 4520 02df E8000000 		call	_ZN8UnitTest15MemoryOutStreamD1Ev
 4520      00
 4521 02e4 4889EF   		movq	%rbp, %rdi
 4522              	.LEHB78:
 4523 02e7 E8000000 		call	_Unwind_Resume@PLT
 4523      00
 4524              	.LEHE78:
 4525              		.cfi_endproc
 4526              	.LFE1541:
 4527              		.section	.gcc_except_table
 4528              	.LLSDAC1541:
 4529 0264 FF       		.byte	0xff
 4530 0265 FF       		.byte	0xff
 4531 0266 01       		.byte	0x1
 4532 0267 08       		.uleb128 .LLSDACSEC1541-.LLSDACSBC1541
 4533              	.LLSDACSBC1541:
 4534 0268 2E       		.uleb128 .LEHB77-.LCOLDB42
 4535 0269 05       		.uleb128 .LEHE77-.LEHB77
 4536 026a 00       		.uleb128 0
 4537 026b 00       		.uleb128 0
 4538 026c 3E       		.uleb128 .LEHB78-.LCOLDB42
 4539 026d 05       		.uleb128 .LEHE78-.LEHB78
 4540 026e 00       		.uleb128 0
 4541 026f 00       		.uleb128 0
 4542              	.LLSDACSEC1541:
 4543              		.section	.text.unlikely
 4544              		.text
 4546              		.section	.text.unlikely
 4548              	.LCOLDE42:
 4549              		.text
 4550              	.LHOTE42:
 4551              		.section	.text.unlikely
 4552              	.LCOLDB43:
 4553              		.text
 4554              	.LHOTB43:
 4555 1358 0F1F8400 		.p2align 4
 4555      00000000 
 4557              	_ZN8UnitTest15CheckArrayCloseIA3_fS1_fEEvRNS_11TestResultsERKT_RKT0_iRKT1_RKNS_11TestDetailsE.const
 4558              	.LFB1542:
 4559              		.cfi_startproc
 4560              		.cfi_personality 0x9b,DW.ref.__gxx_personality_v0
 4561              		.cfi_lsda 0x1b,.LLSDA1542
 4562 1360 4157     		pushq	%r15
 4563              		.cfi_def_cfa_offset 16
 4564              		.cfi_offset 15, -16
 4565 1362 4156     		pushq	%r14
 4566              		.cfi_def_cfa_offset 24
 4567              		.cfi_offset 14, -24
 4568 1364 4155     		pushq	%r13
 4569              		.cfi_def_cfa_offset 32
 4570              		.cfi_offset 13, -32
 4571 1366 4154     		pushq	%r12
 4572              		.cfi_def_cfa_offset 40
 4573              		.cfi_offset 12, -40
 4574 1368 4989CC   		movq	%rcx, %r12
 4575 136b 55       		pushq	%rbp
 4576              		.cfi_def_cfa_offset 48
 4577              		.cfi_offset 6, -48
 4578 136c 4889F5   		movq	%rsi, %rbp
 4579 136f 53       		pushq	%rbx
 4580              		.cfi_def_cfa_offset 56
 4581              		.cfi_offset 3, -56
 4582 1370 4889D3   		movq	%rdx, %rbx
 4583 1373 4881ECE8 		subq	$488, %rsp
 4583      010000
 4584              		.cfi_def_cfa_offset 544
 4585 137a F30F100E 		movss	(%rsi), %xmm1
 4586 137e F30F1001 		movss	(%rcx), %xmm0
 4587 1382 48897C24 		movq	%rdi, 24(%rsp)
 4587      18
 4588 1387 F30F1012 		movss	(%rdx), %xmm2
 4589 138b 0F28D9   		movaps	%xmm1, %xmm3
 4590 138e 4C894424 		movq	%r8, 32(%rsp)
 4590      20
 4591 1393 F30F7E25 		movq	.LC33(%rip), %xmm4
 4591      00000000 
 4592 139b F30F5CD8 		subss	%xmm0, %xmm3
 4593 139f 0F162500 		movhps	.LC34(%rip), %xmm4
 4593      000000
 4594 13a6 64488B04 		movq	%fs:40, %rax
 4594      25280000 
 4594      00
 4595 13af 48898424 		movq	%rax, 472(%rsp)
 4595      D8010000 
 4596 13b7 31C0     		xorl	%eax, %eax
 4597 13b9 31C0     		xorl	%eax, %eax
 4598 13bb 0F292424 		movaps	%xmm4, (%rsp)
 4599 13bf 0F2FD3   		comiss	%xmm3, %xmm2
 4600 13c2 720A     		jb	.L296
 4601 13c4 F30F58C8 		addss	%xmm0, %xmm1
 4602 13c8 0F2FCA   		comiss	%xmm2, %xmm1
 4603 13cb 0F93C0   		setnb	%al
 4604              	.L296:
 4605 13ce F30F104D 		movss	4(%rbp), %xmm1
 4605      04
 4606 13d3 F30F1053 		movss	4(%rbx), %xmm2
 4606      04
 4607 13d8 0F28D9   		movaps	%xmm1, %xmm3
 4608 13db F30F5CD8 		subss	%xmm0, %xmm3
 4609 13df 0F2FD3   		comiss	%xmm3, %xmm2
 4610 13e2 0F823003 		jb	.L328
 4610      0000
 4611 13e8 F30F58C8 		addss	%xmm0, %xmm1
 4612 13ec 31D2     		xorl	%edx, %edx
 4613 13ee 0F2FCA   		comiss	%xmm2, %xmm1
 4614 13f1 0F42C2   		cmovb	%edx, %eax
 4615              	.L298:
 4616 13f4 F30F104D 		movss	8(%rbp), %xmm1
 4616      08
 4617 13f9 F30F1053 		movss	8(%rbx), %xmm2
 4617      08
 4618 13fe 0F28D9   		movaps	%xmm1, %xmm3
 4619 1401 F30F5CD8 		subss	%xmm0, %xmm3
 4620 1405 0F2FD3   		comiss	%xmm3, %xmm2
 4621 1408 0F83CA02 		jnb	.L332
 4621      0000
 4622              	.L301:
 4623 140e 4C8DBC24 		leaq	208(%rsp), %r15
 4623      D0000000 
 4624 1416 4C89FF   		movq	%r15, %rdi
 4625 1419 E8000000 		call	_ZNSt8ios_baseC2Ev@PLT
 4625      00
 4626 141e 31C0     		xorl	%eax, %eax
 4627 1420 660FEFC0 		pxor	%xmm0, %xmm0
 4628 1424 31F6     		xorl	%esi, %esi
 4629 1426 66898424 		movw	%ax, 432(%rsp)
 4629      B0010000 
 4630 142e 488D0500 		leaq	24+_ZTCN8UnitTest15MemoryOutStreamE0_So(%rip), %rax
 4630      000000
 4631 1435 4C89FF   		movq	%r15, %rdi
 4632 1438 48894424 		movq	%rax, 64(%rsp)
 4632      40
 4633 143d 4883C028 		addq	$40, %rax
 4634 1441 48C78424 		movq	$0, 424(%rsp)
 4634      A8010000 
 4634      00000000 
 4635 144d 48898424 		movq	%rax, 208(%rsp)
 4635      D0000000 
 4636 1455 0F118424 		movups	%xmm0, 440(%rsp)
 4636      B8010000 
 4637 145d 0F118424 		movups	%xmm0, 456(%rsp)
 4637      C8010000 
 4638              	.LEHB79:
 4639 1465 E8000000 		call	_ZNSt9basic_iosIcSt11char_traitsIcEE4initEPSt15basic_streambufIcS1_E@PLT
 4639      00
 4640              	.LEHE79:
 4641 146a 488D0500 		leaq	64+_ZTCN8UnitTest15MemoryOutStreamE0_NSt7__cxx1119basic_ostringstreamIcSt11char_traitsIcESaIc
 4641      000000
 4642 1471 660F6F2C 		movdqa	(%rsp), %xmm5
 4642      24
 4643 1476 660FEFC0 		pxor	%xmm0, %xmm0
 4644 147a 4C8D6C24 		leaq	64(%rsp), %r13
 4644      40
 4645 147f 48898424 		movq	%rax, 208(%rsp)
 4645      D0000000 
 4646 1487 488D8424 		leaq	128(%rsp), %rax
 4646      80000000 
 4647 148f 4C8D7424 		leaq	72(%rsp), %r14
 4647      48
 4648 1494 4889C7   		movq	%rax, %rdi
 4649 1497 48894424 		movq	%rax, 48(%rsp)
 4649      30
 4650 149c 0F296C24 		movaps	%xmm5, 64(%rsp)
 4650      40
 4651 14a1 0F294424 		movaps	%xmm0, 80(%rsp)
 4651      50
 4652 14a6 0F294424 		movaps	%xmm0, 96(%rsp)
 4652      60
 4653 14ab 0F294424 		movaps	%xmm0, 112(%rsp)
 4653      70
 4654 14b0 E8000000 		call	_ZNSt6localeC1Ev@PLT
 4654      00
 4655 14b5 488D0500 		leaq	16+_ZTVNSt7__cxx1115basic_stringbufIcSt11char_traitsIcESaIcEEE(%rip), %rax
 4655      000000
 4656 14bc C68424A0 		movb	$0, 160(%rsp)
 4656      00000000 
 4657 14c4 4C89F6   		movq	%r14, %rsi
 4658 14c7 48894424 		movq	%rax, 72(%rsp)
 4658      48
 4659 14cc 488D8424 		leaq	160(%rsp), %rax
 4659      A0000000 
 4660 14d4 48894424 		movq	%rax, 56(%rsp)
 4660      38
 4661 14d9 48898424 		movq	%rax, 144(%rsp)
 4661      90000000 
 4662 14e1 488B4424 		movq	64(%rsp), %rax
 4662      40
 4663 14e6 48C78424 		movq	$0, 152(%rsp)
 4663      98000000 
 4663      00000000 
 4664 14f2 C7842488 		movl	$16, 136(%rsp)
 4664      00000010 
 4664      000000
 4665 14fd 488B78E8 		movq	-24(%rax), %rdi
 4666 1501 4C01EF   		addq	%r13, %rdi
 4667              	.LEHB80:
 4668 1504 E8000000 		call	_ZNSt9basic_iosIcSt11char_traitsIcEE4initEPSt15basic_streambufIcS1_E@PLT
 4668      00
 4669              	.LEHE80:
 4670 1509 488D0500 		leaq	24+_ZTVN8UnitTest15MemoryOutStreamE(%rip), %rax
 4670      000000
 4671 1510 BA0B0000 		movl	$11, %edx
 4671      00
 4672 1515 4C89EF   		movq	%r13, %rdi
 4673 1518 48C78424 		movq	$0, 184(%rsp)
 4673      B8000000 
 4673      00000000 
 4674 1524 48894424 		movq	%rax, 64(%rsp)
 4674      40
 4675 1529 4883C028 		addq	$40, %rax
 4676 152d 488D3500 		leaq	.LC26(%rip), %rsi
 4676      000000
 4677 1534 48898424 		movq	%rax, 208(%rsp)
 4677      D0000000 
 4678 153c 488D8424 		leaq	192(%rsp), %rax
 4678      C0000000 
 4679 1544 48894424 		movq	%rax, 40(%rsp)
 4679      28
 4680 1549 48898424 		movq	%rax, 176(%rsp)
 4680      B0000000 
 4681 1551 C68424C0 		movb	$0, 192(%rsp)
 4681      00000000 
 4682              	.LEHB81:
 4683 1559 E8000000 		call	_ZSt16__ostream_insertIcSt11char_traitsIcEERSt13basic_ostreamIT_T0_ES6_PKS3_l@PLT
 4683      00
 4684 155e 488D450C 		leaq	12(%rbp), %rax
 4685 1562 4C8D3500 		leaq	.LC28(%rip), %r14
 4685      000000
 4686 1569 48890424 		movq	%rax, (%rsp)
 4687              	.L309:
 4688 156d 660FEFC0 		pxor	%xmm0, %xmm0
 4689 1571 4C89EF   		movq	%r13, %rdi
 4690 1574 F30F5A45 		cvtss2sd	0(%rbp), %xmm0
 4690      00
 4691 1579 E8000000 		call	_ZNSo9_M_insertIdEERSoT_@PLT
 4691      00
 4692 157e 4889C7   		movq	%rax, %rdi
 4693 1581 BA010000 		movl	$1, %edx
 4693      00
 4694 1586 4C89F6   		movq	%r14, %rsi
 4695 1589 E8000000 		call	_ZSt16__ostream_insertIcSt11char_traitsIcEERSt13basic_ostreamIT_T0_ES6_PKS3_l@PLT
 4695      00
 4696 158e 4883C504 		addq	$4, %rbp
 4697 1592 48392C24 		cmpq	%rbp, (%rsp)
 4698 1596 75D5     		jne	.L309
 4699 1598 BA060000 		movl	$6, %edx
 4699      00
 4700 159d 488D3500 		leaq	.LC30(%rip), %rsi
 4700      000000
 4701 15a4 4C89EF   		movq	%r13, %rdi
 4702 15a7 E8000000 		call	_ZSt16__ostream_insertIcSt11char_traitsIcEERSt13basic_ostreamIT_T0_ES6_PKS3_l@PLT
 4702      00
 4703 15ac 660FEFC0 		pxor	%xmm0, %xmm0
 4704 15b0 4C89EF   		movq	%r13, %rdi
 4705 15b3 F3410F5A 		cvtss2sd	(%r12), %xmm0
 4705      0424
 4706 15b9 E8000000 		call	_ZNSo9_M_insertIdEERSoT_@PLT
 4706      00
 4707 15be 4889C7   		movq	%rax, %rdi
 4708 15c1 BA0B0000 		movl	$11, %edx
 4708      00
 4709 15c6 488D3500 		leaq	.LC31(%rip), %rsi
 4709      000000
 4710 15cd E8000000 		call	_ZSt16__ostream_insertIcSt11char_traitsIcEERSt13basic_ostreamIT_T0_ES6_PKS3_l@PLT
 4710      00
 4711 15d2 488D6B0C 		leaq	12(%rbx), %rbp
 4712              	.L310:
 4713 15d6 660FEFC0 		pxor	%xmm0, %xmm0
 4714 15da 4C89EF   		movq	%r13, %rdi
 4715 15dd F30F5A03 		cvtss2sd	(%rbx), %xmm0
 4716 15e1 E8000000 		call	_ZNSo9_M_insertIdEERSoT_@PLT
 4716      00
 4717 15e6 4889C7   		movq	%rax, %rdi
 4718 15e9 BA010000 		movl	$1, %edx
 4718      00
 4719 15ee 4C89F6   		movq	%r14, %rsi
 4720 15f1 E8000000 		call	_ZSt16__ostream_insertIcSt11char_traitsIcEERSt13basic_ostreamIT_T0_ES6_PKS3_l@PLT
 4720      00
 4721 15f6 4883C304 		addq	$4, %rbx
 4722 15fa 4839DD   		cmpq	%rbx, %rbp
 4723 15fd 75D7     		jne	.L310
 4724 15ff BA010000 		movl	$1, %edx
 4724      00
 4725 1604 488D3500 		leaq	.LC32(%rip), %rsi
 4725      000000
 4726 160b 4C89EF   		movq	%r13, %rdi
 4727 160e E8000000 		call	_ZSt16__ostream_insertIcSt11char_traitsIcEERSt13basic_ostreamIT_T0_ES6_PKS3_l@PLT
 4727      00
 4728 1613 4C89EF   		movq	%r13, %rdi
 4729 1616 E8000000 		call	_ZNK8UnitTest15MemoryOutStream7GetTextEv@PLT
 4729      00
 4730 161b 488B7424 		movq	32(%rsp), %rsi
 4730      20
 4731 1620 488B7C24 		movq	24(%rsp), %rdi
 4731      18
 4732 1625 4889C2   		movq	%rax, %rdx
 4733 1628 E8000000 		call	_ZN8UnitTest11TestResults13OnTestFailureERKNS_11TestDetailsEPKc@PLT
 4733      00
 4734              	.LEHE81:
 4735 162d 488D0500 		leaq	24+_ZTVN8UnitTest15MemoryOutStreamE(%rip), %rax
 4735      000000
 4736 1634 488BBC24 		movq	176(%rsp), %rdi
 4736      B0000000 
 4737 163c F30F7E05 		movq	.LC33(%rip), %xmm0
 4737      00000000 
 4738 1644 48894424 		movq	%rax, 64(%rsp)
 4738      40
 4739 1649 4883C028 		addq	$40, %rax
 4740 164d 48898424 		movq	%rax, 208(%rsp)
 4740      D0000000 
 4741 1655 0F160500 		movhps	.LC35(%rip), %xmm0
 4741      000000
 4742 165c 483B7C24 		cmpq	40(%rsp), %rdi
 4742      28
 4743 1661 740E     		je	.L311
 4744 1663 0F290424 		movaps	%xmm0, (%rsp)
 4745 1667 E8000000 		call	_ZdlPv@PLT
 4745      00
 4746 166c 660F6F04 		movdqa	(%rsp), %xmm0
 4746      24
 4747              	.L311:
 4748 1671 488D0500 		leaq	64+_ZTCN8UnitTest15MemoryOutStreamE0_NSt7__cxx1119basic_ostringstreamIcSt11char_traitsIcESaIc
 4748      000000
 4749 1678 488BBC24 		movq	144(%rsp), %rdi
 4749      90000000 
 4750 1680 0F294424 		movaps	%xmm0, 64(%rsp)
 4750      40
 4751 1685 48898424 		movq	%rax, 208(%rsp)
 4751      D0000000 
 4752 168d 483B7C24 		cmpq	56(%rsp), %rdi
 4752      38
 4753 1692 7405     		je	.L312
 4754 1694 E8000000 		call	_ZdlPv@PLT
 4754      00
 4755              	.L312:
 4756 1699 488B7C24 		movq	48(%rsp), %rdi
 4756      30
 4757 169e 488D0500 		leaq	16+_ZTVSt15basic_streambufIcSt11char_traitsIcEE(%rip), %rax
 4757      000000
 4758 16a5 48894424 		movq	%rax, 72(%rsp)
 4758      48
 4759 16aa E8000000 		call	_ZNSt6localeD1Ev@PLT
 4759      00
 4760 16af 488D0500 		leaq	24+_ZTCN8UnitTest15MemoryOutStreamE0_So(%rip), %rax
 4760      000000
 4761 16b6 4C89FF   		movq	%r15, %rdi
 4762 16b9 48894424 		movq	%rax, 64(%rsp)
 4762      40
 4763 16be 488D0500 		leaq	16+_ZTVSt9basic_iosIcSt11char_traitsIcEE(%rip), %rax
 4763      000000
 4764 16c5 48898424 		movq	%rax, 208(%rsp)
 4764      D0000000 
 4765              	.LEHB82:
 4766 16cd E8000000 		call	_ZNSt8ios_baseD2Ev@PLT
 4766      00
 4767              	.LEHE82:
 4768 16d2 EB19     		jmp	.L295
 4769              		.p2align 4,,10
 4770 16d4 0F1F4000 		.p2align 3
 4771              	.L332:
 4772 16d8 F30F58C8 		addss	%xmm0, %xmm1
 4773 16dc 0F2FCA   		comiss	%xmm2, %xmm1
 4774 16df 0F8229FD 		jb	.L301
 4774      FFFF
 4775 16e5 84C0     		testb	%al, %al
 4776 16e7 0F8421FD 		je	.L301
 4776      FFFF
 4777              	.L295:
 4778 16ed 488B8424 		movq	472(%rsp), %rax
 4778      D8010000 
 4779 16f5 64482B04 		subq	%fs:40, %rax
 4779      25280000 
 4779      00
 4780 16fe 751F     		jne	.L333
 4781 1700 4881C4E8 		addq	$488, %rsp
 4781      010000
 4782              		.cfi_remember_state
 4783              		.cfi_def_cfa_offset 56
 4784 1707 5B       		popq	%rbx
 4785              		.cfi_def_cfa_offset 48
 4786 1708 5D       		popq	%rbp
 4787              		.cfi_def_cfa_offset 40
 4788 1709 415C     		popq	%r12
 4789              		.cfi_def_cfa_offset 32
 4790 170b 415D     		popq	%r13
 4791              		.cfi_def_cfa_offset 24
 4792 170d 415E     		popq	%r14
 4793              		.cfi_def_cfa_offset 16
 4794 170f 415F     		popq	%r15
 4795              		.cfi_def_cfa_offset 8
 4796 1711 C3       		ret
 4797              		.p2align 4,,10
 4798 1712 660F1F44 		.p2align 3
 4798      0000
 4799              	.L328:
 4800              		.cfi_restore_state
 4801 1718 31C0     		xorl	%eax, %eax
 4802 171a E9D5FCFF 		jmp	.L298
 4802      FF
 4803              	.L333:
 4804 171f E8000000 		call	__stack_chk_fail@PLT
 4804      00
 4805              	.L319:
 4806 1724 F30F1EFA 		endbr64
 4807 1728 4889C5   		movq	%rax, %rbp
 4808 172b E9000000 		jmp	.L307
 4808      00
 4809              	.L318:
 4810 1730 F30F1EFA 		endbr64
 4811 1734 4889C5   		movq	%rax, %rbp
 4812 1737 E9000000 		jmp	.L313
 4812      00
 4813              	.L320:
 4814 173c F30F1EFA 		endbr64
 4815 1740 4889C5   		movq	%rax, %rbp
 4816 1743 E9000000 		jmp	.L306
 4816      00
 4817              		.section	.gcc_except_table
 4818              	.LLSDA1542:
 4819 0270 FF       		.byte	0xff
 4820 0271 FF       		.byte	0xff
 4821 0272 01       		.byte	0x1
 4822 0273 18       		.uleb128 .LLSDACSE1542-.LLSDACSB1542
 4823              	.LLSDACSB1542:
 4824 0274 8502     		.uleb128 .LEHB79-.LFB1542
 4825 0276 05       		.uleb128 .LEHE79-.LEHB79
 4826 0277 C407     		.uleb128 .L319-.LFB1542
 4827 0279 00       		.uleb128 0
 4828 027a A403     		.uleb128 .LEHB80-.LFB1542
 4829 027c 05       		.uleb128 .LEHE80-.LEHB80
 4830 027d DC07     		.uleb128 .L320-.LFB1542
 4831 027f 00       		.uleb128 0
 4832 0280 F903     		.uleb128 .LEHB81-.LFB1542
 4833 0282 D401     		.uleb128 .LEHE81-.LEHB81
 4834 0284 D007     		.uleb128 .L318-.LFB1542
 4835 0286 00       		.uleb128 0
 4836 0287 ED06     		.uleb128 .LEHB82-.LFB1542
 4837 0289 05       		.uleb128 .LEHE82-.LEHB82
 4838 028a 00       		.uleb128 0
 4839 028b 00       		.uleb128 0
 4840              	.LLSDACSE1542:
 4841              		.text
 4842              		.cfi_endproc
 4843              		.section	.text.unlikely
 4844              		.cfi_startproc
 4845              		.cfi_personality 0x9b,DW.ref.__gxx_personality_v0
 4846              		.cfi_lsda 0x1b,.LLSDAC1542
 4848              	_ZN8UnitTest15CheckArrayCloseIA3_fS1_fEEvRNS_11TestResultsERKT_RKT0_iRKT1_RKNS_11TestDetailsE.const
 4849              	.LFSB1542:
 4850              	.L306:
 4851              		.cfi_def_cfa_offset 544
 4852              		.cfi_offset 3, -56
 4853              		.cfi_offset 6, -48
 4854              		.cfi_offset 12, -40
 4855              		.cfi_offset 13, -32
 4856              		.cfi_offset 14, -24
 4857              		.cfi_offset 15, -16
 4858 02ec 4C89F7   		movq	%r14, %rdi
 4859 02ef E8000000 		call	_ZNSt7__cxx1115basic_stringbufIcSt11char_traitsIcESaIcEED1Ev
 4859      00
 4860 02f4 488D0500 		leaq	24+_ZTCN8UnitTest15MemoryOutStreamE0_So(%rip), %rax
 4860      000000
 4861 02fb 48894424 		movq	%rax, 64(%rsp)
 4861      40
 4862              	.L307:
 4863 0300 488D0500 		leaq	16+_ZTVSt9basic_iosIcSt11char_traitsIcEE(%rip), %rax
 4863      000000
 4864 0307 4C89FF   		movq	%r15, %rdi
 4865 030a 48898424 		movq	%rax, 208(%rsp)
 4865      D0000000 
 4866 0312 E8000000 		call	_ZNSt8ios_baseD2Ev@PLT
 4866      00
 4867 0317 4889EF   		movq	%rbp, %rdi
 4868              	.LEHB83:
 4869 031a E8000000 		call	_Unwind_Resume@PLT
 4869      00
 4870              	.LEHE83:
 4871              	.L313:
 4872 031f 4C89EF   		movq	%r13, %rdi
 4873 0322 E8000000 		call	_ZN8UnitTest15MemoryOutStreamD1Ev
 4873      00
 4874 0327 4889EF   		movq	%rbp, %rdi
 4875              	.LEHB84:
 4876 032a E8000000 		call	_Unwind_Resume@PLT
 4876      00
 4877              	.LEHE84:
 4878              		.cfi_endproc
 4879              	.LFE1542:
 4880              		.section	.gcc_except_table
 4881              	.LLSDAC1542:
 4882 028c FF       		.byte	0xff
 4883 028d FF       		.byte	0xff
 4884 028e 01       		.byte	0x1
 4885 028f 08       		.uleb128 .LLSDACSEC1542-.LLSDACSBC1542
 4886              	.LLSDACSBC1542:
 4887 0290 2E       		.uleb128 .LEHB83-.LCOLDB43
 4888 0291 05       		.uleb128 .LEHE83-.LEHB83
 4889 0292 00       		.uleb128 0
 4890 0293 00       		.uleb128 0
 4891 0294 3E       		.uleb128 .LEHB84-.LCOLDB43
 4892 0295 05       		.uleb128 .LEHE84-.LEHB84
 4893 0296 00       		.uleb128 0
 4894 0297 00       		.uleb128 0
 4895              	.LLSDACSEC1542:
 4896              		.section	.text.unlikely
 4897              		.text
 4899              		.section	.text.unlikely
 4901              	.LCOLDE43:
 4902              		.text
 4903              	.LHOTE43:
 4904              		.section	.text._ZNSt7__cxx1115basic_stringbufIcSt11char_traitsIcESaIcEED0Ev,"axG",@progbits,_ZNSt7
 4905              		.align 2
 4906              		.p2align 4
 4907              		.weak	_ZNSt7__cxx1115basic_stringbufIcSt11char_traitsIcESaIcEED0Ev
 4909              	_ZNSt7__cxx1115basic_stringbufIcSt11char_traitsIcESaIcEED0Ev:
 4910              	.LFB1333:
 4911              		.cfi_startproc
 4912 0000 F30F1EFA 		endbr64
 4913 0004 488D0500 		leaq	16+_ZTVNSt7__cxx1115basic_stringbufIcSt11char_traitsIcESaIcEEE(%rip), %rax
 4913      000000
 4914 000b 55       		pushq	%rbp
 4915              		.cfi_def_cfa_offset 16
 4916              		.cfi_offset 6, -16
 4917 000c 4889FD   		movq	%rdi, %rbp
 4918 000f 488907   		movq	%rax, (%rdi)
 4919 0012 488B7F48 		movq	72(%rdi), %rdi
 4920 0016 488D4558 		leaq	88(%rbp), %rax
 4921 001a 4839C7   		cmpq	%rax, %rdi
 4922 001d 7405     		je	.L335
 4923 001f E8000000 		call	_ZdlPv@PLT
 4923      00
 4924              	.L335:
 4925 0024 488D0500 		leaq	16+_ZTVSt15basic_streambufIcSt11char_traitsIcEE(%rip), %rax
 4925      000000
 4926 002b 488D7D38 		leaq	56(%rbp), %rdi
 4927 002f 48894500 		movq	%rax, 0(%rbp)
 4928 0033 E8000000 		call	_ZNSt6localeD1Ev@PLT
 4928      00
 4929 0038 4889EF   		movq	%rbp, %rdi
 4930 003b 5D       		popq	%rbp
 4931              		.cfi_def_cfa_offset 8
 4932 003c E9000000 		jmp	_ZdlPv@PLT
 4932      00
 4933              		.cfi_endproc
 4934              	.LFE1333:
 4936              		.section	.rodata._ZN8UnitTest10CheckEqualIiiEEvRNS_11TestResultsERKT_RKT0_RKNS_11TestDetailsE.str1
 4937              	.LC44:
 4938 0000 45787065 		.string	"Expected "
 4938      63746564 
 4938      2000
 4939              	.LC45:
 4940 000a 20627574 		.string	" but was "
 4940      20776173 
 4940      2000
 4941              		.section	.text._ZN8UnitTest10CheckEqualIiiEEvRNS_11TestResultsERKT_RKT0_RKNS_11TestDetailsE,"axG",
 4942              		.p2align 4
 4943              		.weak	_ZN8UnitTest10CheckEqualIiiEEvRNS_11TestResultsERKT_RKT0_RKNS_11TestDetailsE
 4945              	_ZN8UnitTest10CheckEqualIiiEEvRNS_11TestResultsERKT_RKT0_RKNS_11TestDetailsE:
 4946              	.LFB1354:
 4947              		.cfi_startproc
 4948              		.cfi_personality 0x9b,DW.ref.__gxx_personality_v0
 4949              		.cfi_lsda 0x1b,.LLSDA1354
 4950 0000 F30F1EFA 		endbr64
 4951 0004 4157     		pushq	%r15
 4952              		.cfi_def_cfa_offset 16
 4953              		.cfi_offset 15, -16
 4954 0006 4156     		pushq	%r14
 4955              		.cfi_def_cfa_offset 24
 4956              		.cfi_offset 14, -24
 4957 0008 4155     		pushq	%r13
 4958              		.cfi_def_cfa_offset 32
 4959              		.cfi_offset 13, -32
 4960 000a 4154     		pushq	%r12
 4961              		.cfi_def_cfa_offset 40
 4962              		.cfi_offset 12, -40
 4963 000c 55       		pushq	%rbp
 4964              		.cfi_def_cfa_offset 48
 4965              		.cfi_offset 6, -48
 4966 000d 53       		pushq	%rbx
 4967              		.cfi_def_cfa_offset 56
 4968              		.cfi_offset 3, -56
 4969 000e 4881ECD8 		subq	$472, %rsp
 4969      010000
 4970              		.cfi_def_cfa_offset 528
 4971 0015 F30F7E0D 		movq	.LC33(%rip), %xmm1
 4971      00000000 
 4972 001d 48897C24 		movq	%rdi, 16(%rsp)
 4972      10
 4973 0022 48894C24 		movq	%rcx, 24(%rsp)
 4973      18
 4974 0027 0F160D00 		movhps	.LC34(%rip), %xmm1
 4974      000000
 4975 002e 64488B04 		movq	%fs:40, %rax
 4975      25280000 
 4975      00
 4976 0037 48898424 		movq	%rax, 456(%rsp)
 4976      C8010000 
 4977 003f 31C0     		xorl	%eax, %eax
 4978 0041 8B02     		movl	(%rdx), %eax
 4979 0043 0F290C24 		movaps	%xmm1, (%rsp)
 4980 0047 3906     		cmpl	%eax, (%rsi)
 4981 0049 752D     		jne	.L353
 4982              	.L337:
 4983 004b 488B8424 		movq	456(%rsp), %rax
 4983      C8010000 
 4984 0053 64482B04 		subq	%fs:40, %rax
 4984      25280000 
 4984      00
 4985 005c 0F854B02 		jne	.L354
 4985      0000
 4986 0062 4881C4D8 		addq	$472, %rsp
 4986      010000
 4987              		.cfi_remember_state
 4988              		.cfi_def_cfa_offset 56
 4989 0069 5B       		popq	%rbx
 4990              		.cfi_def_cfa_offset 48
 4991 006a 5D       		popq	%rbp
 4992              		.cfi_def_cfa_offset 40
 4993 006b 415C     		popq	%r12
 4994              		.cfi_def_cfa_offset 32
 4995 006d 415D     		popq	%r13
 4996              		.cfi_def_cfa_offset 24
 4997 006f 415E     		popq	%r14
 4998              		.cfi_def_cfa_offset 16
 4999 0071 415F     		popq	%r15
 5000              		.cfi_def_cfa_offset 8
 5001 0073 C3       		ret
 5002              		.p2align 4,,10
 5003 0074 0F1F4000 		.p2align 3
 5004              	.L353:
 5005              		.cfi_restore_state
 5006 0078 4C8DAC24 		leaq	192(%rsp), %r13
 5006      C0000000 
 5007 0080 4889F5   		movq	%rsi, %rbp
 5008 0083 4889D3   		movq	%rdx, %rbx
 5009 0086 4C89EF   		movq	%r13, %rdi
 5010 0089 E8000000 		call	_ZNSt8ios_baseC2Ev@PLT
 5010      00
 5011 008e 31C0     		xorl	%eax, %eax
 5012 0090 660FEFC0 		pxor	%xmm0, %xmm0
 5013 0094 31F6     		xorl	%esi, %esi
 5014 0096 66898424 		movw	%ax, 416(%rsp)
 5014      A0010000 
 5015 009e 488D0500 		leaq	24+_ZTCN8UnitTest15MemoryOutStreamE0_So(%rip), %rax
 5015      000000
 5016 00a5 4C89EF   		movq	%r13, %rdi
 5017 00a8 48894424 		movq	%rax, 48(%rsp)
 5017      30
 5018 00ad 4883C028 		addq	$40, %rax
 5019 00b1 48C78424 		movq	$0, 408(%rsp)
 5019      98010000 
 5019      00000000 
 5020 00bd 48898424 		movq	%rax, 192(%rsp)
 5020      C0000000 
 5021 00c5 0F118424 		movups	%xmm0, 424(%rsp)
 5021      A8010000 
 5022 00cd 0F118424 		movups	%xmm0, 440(%rsp)
 5022      B8010000 
 5023              	.LEHB85:
 5024 00d5 E8000000 		call	_ZNSt9basic_iosIcSt11char_traitsIcEE4initEPSt15basic_streambufIcS1_E@PLT
 5024      00
 5025              	.LEHE85:
 5026 00da 660F6F0C 		movdqa	(%rsp), %xmm1
 5026      24
 5027 00df 4C8D7424 		leaq	112(%rsp), %r14
 5027      70
 5028 00e4 660FEFC0 		pxor	%xmm0, %xmm0
 5029 00e8 488D0500 		leaq	64+_ZTCN8UnitTest15MemoryOutStreamE0_NSt7__cxx1119basic_ostringstreamIcSt11char_traitsIcESaIc
 5029      000000
 5030 00ef 4C89F7   		movq	%r14, %rdi
 5031 00f2 0F294424 		movaps	%xmm0, 64(%rsp)
 5031      40
 5032 00f7 4C8D6424 		leaq	48(%rsp), %r12
 5032      30
 5033 00fc 4C8D7C24 		leaq	56(%rsp), %r15
 5033      38
 5034 0101 48898424 		movq	%rax, 192(%rsp)
 5034      C0000000 
 5035 0109 0F294C24 		movaps	%xmm1, 48(%rsp)
 5035      30
 5036 010e 0F294424 		movaps	%xmm0, 80(%rsp)
 5036      50
 5037 0113 0F294424 		movaps	%xmm0, 96(%rsp)
 5037      60
 5038 0118 E8000000 		call	_ZNSt6localeC1Ev@PLT
 5038      00
 5039 011d 488D0500 		leaq	16+_ZTVNSt7__cxx1115basic_stringbufIcSt11char_traitsIcESaIcEEE(%rip), %rax
 5039      000000
 5040 0124 4C89FE   		movq	%r15, %rsi
 5041 0127 48C78424 		movq	$0, 136(%rsp)
 5041      88000000 
 5041      00000000 
 5042 0133 48894424 		movq	%rax, 56(%rsp)
 5042      38
 5043 0138 488D8424 		leaq	144(%rsp), %rax
 5043      90000000 
 5044 0140 48894424 		movq	%rax, 32(%rsp)
 5044      20
 5045 0145 48898424 		movq	%rax, 128(%rsp)
 5045      80000000 
 5046 014d 488B4424 		movq	48(%rsp), %rax
 5046      30
 5047 0152 C6842490 		movb	$0, 144(%rsp)
 5047      00000000 
 5048 015a 488B78E8 		movq	-24(%rax), %rdi
 5049 015e C7442478 		movl	$16, 120(%rsp)
 5049      10000000 
 5050 0166 4C01E7   		addq	%r12, %rdi
 5051              	.LEHB86:
 5052 0169 E8000000 		call	_ZNSt9basic_iosIcSt11char_traitsIcEE4initEPSt15basic_streambufIcS1_E@PLT
 5052      00
 5053              	.LEHE86:
 5054 016e 4C8D3D00 		leaq	24+_ZTVN8UnitTest15MemoryOutStreamE(%rip), %r15
 5054      000000
 5055 0175 BA090000 		movl	$9, %edx
 5055      00
 5056 017a 4C89E7   		movq	%r12, %rdi
 5057 017d 48C78424 		movq	$0, 168(%rsp)
 5057      A8000000 
 5057      00000000 
 5058 0189 498D4728 		leaq	40(%r15), %rax
 5059 018d 488D3500 		leaq	.LC44(%rip), %rsi
 5059      000000
 5060 0194 4C897C24 		movq	%r15, 48(%rsp)
 5060      30
 5061 0199 48898424 		movq	%rax, 192(%rsp)
 5061      C0000000 
 5062 01a1 488D8424 		leaq	176(%rsp), %rax
 5062      B0000000 
 5063 01a9 48894424 		movq	%rax, 40(%rsp)
 5063      28
 5064 01ae 48898424 		movq	%rax, 160(%rsp)
 5064      A0000000 
 5065 01b6 C68424B0 		movb	$0, 176(%rsp)
 5065      00000000 
 5066              	.LEHB87:
 5067 01be E8000000 		call	_ZSt16__ostream_insertIcSt11char_traitsIcEERSt13basic_ostreamIT_T0_ES6_PKS3_l@PLT
 5067      00
 5068 01c3 8B7500   		movl	0(%rbp), %esi
 5069 01c6 4C89E7   		movq	%r12, %rdi
 5070 01c9 E8000000 		call	_ZNSolsEi@PLT
 5070      00
 5071 01ce BA090000 		movl	$9, %edx
 5071      00
 5072 01d3 488D3500 		leaq	.LC45(%rip), %rsi
 5072      000000
 5073 01da 4889C7   		movq	%rax, %rdi
 5074 01dd 4889C5   		movq	%rax, %rbp
 5075 01e0 E8000000 		call	_ZSt16__ostream_insertIcSt11char_traitsIcEERSt13basic_ostreamIT_T0_ES6_PKS3_l@PLT
 5075      00
 5076 01e5 8B33     		movl	(%rbx), %esi
 5077 01e7 4889EF   		movq	%rbp, %rdi
 5078 01ea E8000000 		call	_ZNSolsEi@PLT
 5078      00
 5079 01ef 4C89E7   		movq	%r12, %rdi
 5080 01f2 E8000000 		call	_ZNK8UnitTest15MemoryOutStream7GetTextEv@PLT
 5080      00
 5081 01f7 488B7424 		movq	24(%rsp), %rsi
 5081      18
 5082 01fc 488B7C24 		movq	16(%rsp), %rdi
 5082      10
 5083 0201 4889C2   		movq	%rax, %rdx
 5084 0204 F30F7E15 		movq	.LC33(%rip), %xmm2
 5084      00000000 
 5085 020c 0F161500 		movhps	.LC35(%rip), %xmm2
 5085      000000
 5086 0213 0F291424 		movaps	%xmm2, (%rsp)
 5087 0217 E8000000 		call	_ZN8UnitTest11TestResults13OnTestFailureERKNS_11TestDetailsEPKc@PLT
 5087      00
 5088              	.LEHE87:
 5089 021c 488D0500 		leaq	64+_ZTVN8UnitTest15MemoryOutStreamE(%rip), %rax
 5089      000000
 5090 0223 4C897C24 		movq	%r15, 48(%rsp)
 5090      30
 5091 0228 488BBC24 		movq	160(%rsp), %rdi
 5091      A0000000 
 5092 0230 48898424 		movq	%rax, 192(%rsp)
 5092      C0000000 
 5093 0238 483B7C24 		cmpq	40(%rsp), %rdi
 5093      28
 5094 023d 7405     		je	.L343
 5095 023f E8000000 		call	_ZdlPv@PLT
 5095      00
 5096              	.L343:
 5097 0244 660F6F1C 		movdqa	(%rsp), %xmm3
 5097      24
 5098 0249 488D0500 		leaq	64+_ZTCN8UnitTest15MemoryOutStreamE0_NSt7__cxx1119basic_ostringstreamIcSt11char_traitsIcESaIc
 5098      000000
 5099 0250 488BBC24 		movq	128(%rsp), %rdi
 5099      80000000 
 5100 0258 48898424 		movq	%rax, 192(%rsp)
 5100      C0000000 
 5101 0260 0F295C24 		movaps	%xmm3, 48(%rsp)
 5101      30
 5102 0265 483B7C24 		cmpq	32(%rsp), %rdi
 5102      20
 5103 026a 7405     		je	.L344
 5104 026c E8000000 		call	_ZdlPv@PLT
 5104      00
 5105              	.L344:
 5106 0271 488D0500 		leaq	16+_ZTVSt15basic_streambufIcSt11char_traitsIcEE(%rip), %rax
 5106      000000
 5107 0278 4C89F7   		movq	%r14, %rdi
 5108 027b 48894424 		movq	%rax, 56(%rsp)
 5108      38
 5109 0280 E8000000 		call	_ZNSt6localeD1Ev@PLT
 5109      00
 5110 0285 488D0500 		leaq	24+_ZTCN8UnitTest15MemoryOutStreamE0_So(%rip), %rax
 5110      000000
 5111 028c 4C89EF   		movq	%r13, %rdi
 5112 028f 48894424 		movq	%rax, 48(%rsp)
 5112      30
 5113 0294 488D0500 		leaq	16+_ZTVSt9basic_iosIcSt11char_traitsIcEE(%rip), %rax
 5113      000000
 5114 029b 48898424 		movq	%rax, 192(%rsp)
 5114      C0000000 
 5115              	.LEHB88:
 5116 02a3 E8000000 		call	_ZNSt8ios_baseD2Ev@PLT
 5116      00
 5117              	.LEHE88:
 5118 02a8 E99EFDFF 		jmp	.L337
 5118      FF
 5119              	.L354:
 5120 02ad E8000000 		call	__stack_chk_fail@PLT
 5120      00
 5121              	.L348:
 5122 02b2 F30F1EFA 		endbr64
 5123 02b6 4889C5   		movq	%rax, %rbp
 5124 02b9 EB26     		jmp	.L341
 5125              	.L349:
 5126 02bb F30F1EFA 		endbr64
 5127 02bf 4889C5   		movq	%rax, %rbp
 5128 02c2 EB09     		jmp	.L340
 5129              	.L347:
 5130 02c4 F30F1EFA 		endbr64
 5131 02c8 4889C5   		movq	%rax, %rbp
 5132 02cb EB33     		jmp	.L345
 5133              	.L340:
 5134 02cd 4C89FF   		movq	%r15, %rdi
 5135 02d0 E8000000 		call	_ZNSt7__cxx1115basic_stringbufIcSt11char_traitsIcESaIcEED1Ev
 5135      00
 5136 02d5 488D0500 		leaq	24+_ZTCN8UnitTest15MemoryOutStreamE0_So(%rip), %rax
 5136      000000
 5137 02dc 48894424 		movq	%rax, 48(%rsp)
 5137      30
 5138              	.L341:
 5139 02e1 488D0500 		leaq	16+_ZTVSt9basic_iosIcSt11char_traitsIcEE(%rip), %rax
 5139      000000
 5140 02e8 4C89EF   		movq	%r13, %rdi
 5141 02eb 48898424 		movq	%rax, 192(%rsp)
 5141      C0000000 
 5142 02f3 E8000000 		call	_ZNSt8ios_baseD2Ev@PLT
 5142      00
 5143 02f8 4889EF   		movq	%rbp, %rdi
 5144              	.LEHB89:
 5145 02fb E8000000 		call	_Unwind_Resume@PLT
 5145      00
 5146              	.LEHE89:
 5147              	.L345:
 5148 0300 4C89E7   		movq	%r12, %rdi
 5149 0303 E8000000 		call	_ZN8UnitTest15MemoryOutStreamD1Ev
 5149      00
 5150 0308 4889EF   		movq	%rbp, %rdi
 5151              	.LEHB90:
 5152 030b E8000000 		call	_Unwind_Resume@PLT
 5152      00
 5153              	.LEHE90:
 5154              		.cfi_endproc
 5155              	.LFE1354:
 5156              		.section	.gcc_except_table
 5157              	.LLSDA1354:
 5158 0298 FF       		.byte	0xff
 5159 0299 FF       		.byte	0xff
 5160 029a 01       		.byte	0x1
 5161 029b 21       		.uleb128 .LLSDACSE1354-.LLSDACSB1354
 5162              	.LLSDACSB1354:
 5163 029c D501     		.uleb128 .LEHB85-.LFB1354
 5164 029e 05       		.uleb128 .LEHE85-.LEHB85
 5165 029f B205     		.uleb128 .L348-.LFB1354
 5166 02a1 00       		.uleb128 0
 5167 02a2 E902     		.uleb128 .LEHB86-.LFB1354
 5168 02a4 05       		.uleb128 .LEHE86-.LEHB86
 5169 02a5 BB05     		.uleb128 .L349-.LFB1354
 5170 02a7 00       		.uleb128 0
 5171 02a8 BE03     		.uleb128 .LEHB87-.LFB1354
 5172 02aa 5E       		.uleb128 .LEHE87-.LEHB87
 5173 02ab C405     		.uleb128 .L347-.LFB1354
 5174 02ad 00       		.uleb128 0
 5175 02ae A305     		.uleb128 .LEHB88-.LFB1354
 5176 02b0 05       		.uleb128 .LEHE88-.LEHB88
 5177 02b1 00       		.uleb128 0
 5178 02b2 00       		.uleb128 0
 5179 02b3 FB05     		.uleb128 .LEHB89-.LFB1354
 5180 02b5 05       		.uleb128 .LEHE89-.LEHB89
 5181 02b6 00       		.uleb128 0
 5182 02b7 00       		.uleb128 0
 5183 02b8 8B06     		.uleb128 .LEHB90-.LFB1354
 5184 02ba 05       		.uleb128 .LEHE90-.LEHB90
 5185 02bb 00       		.uleb128 0
 5186 02bc 00       		.uleb128 0
 5187              	.LLSDACSE1354:
 5188              		.section	.text._ZN8UnitTest10CheckEqualIiiEEvRNS_11TestResultsERKT_RKT0_RKNS_11TestDetailsE,"axG",
 5190              		.section	.rodata.str1.1
 5191              	.LC47:
 5192 0036 66696C65 		.string	"file"
 5192      00
 5193              	.LC48:
 5194 003b 61727261 		.string	"array2DCloseSuite"
 5194      79324443 
 5194      6C6F7365 
 5194      53756974 
 5194      6500
 5195              	.LC49:
 5196 004d 61727261 		.string	"array2DCloseTest"
 5196      79324443 
 5196      6C6F7365 
 5196      54657374 
 5196      00
 5197              		.section	.rodata.str1.8
 5198 0069 00000000 		.align 8
 5198      000000
 5199              	.LC57:
 5200 0070 556E6861 		.string	"Unhandled exception in CHECK_EQUAL(\"array2DCloseTest\", reporter.lastFailedTest)"
 5200      6E646C65 
 5200      64206578 
 5200      63657074 
 5200      696F6E20 
 5201              		.align 8
 5202              	.LC58:
 5203 00c0 556E6861 		.string	"Unhandled exception in CHECK_EQUAL(\"array2DCloseSuite\", reporter.lastFailedSuite)"
 5203      6E646C65 
 5203      64206578 
 5203      63657074 
 5203      696F6E20 
 5204 0112 00000000 		.align 8
 5204      0000
 5205              	.LC59:
 5206 0118 556E6861 		.string	"Unhandled exception in CHECK_EQUAL(\"file\", reporter.lastFailedFile)"
 5206      6E646C65 
 5206      64206578 
 5206      63657074 
 5206      696F6E20 
 5207 015c 00000000 		.align 8
 5208              	.LC60:
 5209 0160 556E6861 		.string	"Unhandled exception in CHECK_EQUAL(1234, reporter.lastFailedLine)"
 5209      6E646C65 
 5209      64206578 
 5209      63657074 
 5209      696F6E20 
 5210              		.section	.text.unlikely
 5211 032f 90       		.align 2
 5212              	.LCOLDB61:
 5213              		.text
 5214              	.LHOTB61:
 5215              		.align 2
 5216 1748 0F1F8400 		.p2align 4
 5216      00000000 
 5218              	_ZNK12_GLOBAL__N_143TestCheckArray2DCloseFailureIncludesDetails7RunImplEv:
 5219              	.LFB1321:
 5220              		.cfi_startproc
 5221              		.cfi_personality 0x9b,DW.ref.__gxx_personality_v0
 5222              		.cfi_lsda 0x1b,.LLSDA1321
 5223 1750 F30F1EFA 		endbr64
 5224 1754 4157     		pushq	%r15
 5225              		.cfi_def_cfa_offset 16
 5226              		.cfi_offset 15, -16
 5227 1756 4156     		pushq	%r14
 5228              		.cfi_def_cfa_offset 24
 5229              		.cfi_offset 14, -24
 5230 1758 4155     		pushq	%r13
 5231              		.cfi_def_cfa_offset 32
 5232              		.cfi_offset 13, -32
 5233 175a 4154     		pushq	%r12
 5234              		.cfi_def_cfa_offset 40
 5235              		.cfi_offset 12, -40
 5236 175c 55       		pushq	%rbp
 5237              		.cfi_def_cfa_offset 48
 5238              		.cfi_offset 6, -48
 5239 175d 53       		pushq	%rbx
 5240              		.cfi_def_cfa_offset 56
 5241              		.cfi_offset 3, -56
 5242 175e 4881EC18 		subq	$2328, %rsp
 5242      090000
 5243              		.cfi_def_cfa_offset 2384
 5244 1765 64488B04 		movq	%fs:40, %rax
 5244      25280000 
 5244      00
 5245 176e 48898424 		movq	%rax, 2312(%rsp)
 5245      08090000 
 5246 1776 488D0500 		leaq	16+_ZTV17RecordingReporter(%rip), %rax
 5246      000000
 5247 177d 4C8DA424 		leaq	208(%rsp), %r12
 5247      D0000000 
 5248 1785 4C8D7C24 		leaq	16(%rsp), %r15
 5248      10
 5249 178a C78424D8 		movl	$0, 216(%rsp)
 5249      00000000 
 5249      000000
 5250 1795 4C89E6   		movq	%r12, %rsi
 5251 1798 4C89FF   		movq	%r15, %rdi
 5252 179b C78424DC 		movl	$0, 732(%rsp)
 5252      02000000 
 5252      000000
 5253 17a6 C78424E0 		movl	$0, 992(%rsp)
 5253      03000000 
 5253      000000
 5254 17b1 C78424E4 		movl	$0, 1764(%rsp)
 5254      06000000 
 5254      000000
 5255 17bc 48C78424 		movq	$0, 2280(%rsp)
 5255      E8080000 
 5255      00000000 
 5256 17c8 48C78424 		movq	$0, 2288(%rsp)
 5256      F0080000 
 5256      00000000 
 5257 17d4 48898424 		movq	%rax, 208(%rsp)
 5257      D0000000 
 5258 17dc C78424F8 		movl	$0x00000000, 2296(%rsp)
 5258      08000000 
 5258      000000
 5259 17e7 C68424DC 		movb	$0, 220(%rsp)
 5259      00000000 
 5260 17ef C68424DC 		movb	$0, 476(%rsp)
 5260      01000000 
 5261 17f7 C68424E0 		movb	$0, 736(%rsp)
 5261      02000000 
 5262 17ff C68424E4 		movb	$0, 996(%rsp)
 5262      03000000 
 5263 1807 C68424E4 		movb	$0, 1252(%rsp)
 5263      04000000 
 5264 180f C68424E4 		movb	$0, 1508(%rsp)
 5264      05000000 
 5265 1817 C68424E8 		movb	$0, 1768(%rsp)
 5265      06000000 
 5266 181f C68424E8 		movb	$0, 2024(%rsp)
 5266      07000000 
 5267              	.LEHB91:
 5268 1827 E8000000 		call	_ZN8UnitTest11TestResultsC1EPNS_12TestReporterE@PLT
 5268      00
 5269 182c 488D5C24 		leaq	48(%rsp), %rbx
 5269      30
 5270 1831 4C8D2D00 		leaq	.LC48(%rip), %r13
 5270      000000
 5271 1838 41B8D204 		movl	$1234, %r8d
 5271      0000
 5272 183e 4C8D3500 		leaq	.LC49(%rip), %r14
 5272      000000
 5273 1845 488D0D00 		leaq	.LC47(%rip), %rcx
 5273      000000
 5274 184c 4C89EA   		movq	%r13, %rdx
 5275 184f 4889DF   		movq	%rbx, %rdi
 5276 1852 4C89F6   		movq	%r14, %rsi
 5277 1855 E8000000 		call	_ZN8UnitTest11TestDetailsC1EPKcS2_S2_i@PLT
 5277      00
 5278 185a 488D6C24 		leaq	80(%rsp), %rbp
 5278      50
 5279 185f 488D7424 		leaq	112(%rsp), %rsi
 5279      70
 5280 1864 4989D8   		movq	%rbx, %r8
 5281 1867 4C89FF   		movq	%r15, %rdi
 5282 186a 0F280500 		movaps	.LC50(%rip), %xmm0
 5282      000000
 5283 1871 4889E9   		movq	%rbp, %rcx
 5284 1874 488D9424 		leaq	160(%rsp), %rdx
 5284      A0000000 
 5285 187c C7842490 		movl	$0x40800000, 144(%rsp)
 5285      00000000 
 5285      008040
 5286 1887 C78424C0 		movl	$0x408051ec, 192(%rsp)
 5286      000000EC 
 5286      518040
 5287 1892 0F294424 		movaps	%xmm0, 112(%rsp)
 5287      70
 5288 1897 0F280500 		movaps	.LC51(%rip), %xmm0
 5288      000000
 5289 189e C7442450 		movl	$0x3a83126f, 80(%rsp)
 5289      6F12833A 
 5290 18a6 0F298424 		movaps	%xmm0, 128(%rsp)
 5290      80000000 
 5291 18ae 0F280500 		movaps	.LC53(%rip), %xmm0
 5291      000000
 5292 18b5 0F298424 		movaps	%xmm0, 160(%rsp)
 5292      A0000000 
 5293 18bd 0F280500 		movaps	.LC54(%rip), %xmm0
 5293      000000
 5294 18c4 0F298424 		movaps	%xmm0, 176(%rsp)
 5294      B0000000 
 5295 18cc E8EFF0FF 		call	_ZN8UnitTest17CheckArray2DCloseIA3_A3_fS2_fEEvRNS_11TestResultsERKT_RKT0_iiRKT1_RKNS_11TestDe
 5295      FF
 5296              	.LEHE91:
 5297              	.LEHB92:
 5298 18d1 E8000000 		call	_ZN8UnitTest11CurrentTest7DetailsEv@PLT
 5298      00
 5299 18d6 488B30   		movq	(%rax), %rsi
 5300 18d9 BA1F0100 		movl	$287, %edx
 5300      00
 5301 18de 4889EF   		movq	%rbp, %rdi
 5302 18e1 E8000000 		call	_ZN8UnitTest11TestDetailsC1ERKS0_i@PLT
 5302      00
 5303 18e6 E8000000 		call	_ZN8UnitTest11CurrentTest7ResultsEv@PLT
 5303      00
 5304 18eb 488B38   		movq	(%rax), %rdi
 5305 18ee 488D9424 		leaq	1252(%rsp), %rdx
 5305      E4040000 
 5306 18f6 4889E9   		movq	%rbp, %rcx
 5307 18f9 4C89F6   		movq	%r14, %rsi
 5308 18fc E8000000 		call	_ZN8UnitTest10CheckEqualERNS_11TestResultsEPKcPcRKNS_11TestDetailsE@PLT
 5308      00
 5309              	.LEHE92:
 5310              	.L357:
 5311              	.LEHB93:
 5312 1901 E8000000 		call	_ZN8UnitTest11CurrentTest7DetailsEv@PLT
 5312      00
 5313 1906 488B30   		movq	(%rax), %rsi
 5314 1909 BA200100 		movl	$288, %edx
 5314      00
 5315 190e 4889EF   		movq	%rbp, %rdi
 5316 1911 E8000000 		call	_ZN8UnitTest11TestDetailsC1ERKS0_i@PLT
 5316      00
 5317 1916 E8000000 		call	_ZN8UnitTest11CurrentTest7ResultsEv@PLT
 5317      00
 5318 191b 488B38   		movq	(%rax), %rdi
 5319 191e 488D9424 		leaq	996(%rsp), %rdx
 5319      E4030000 
 5320 1926 4889E9   		movq	%rbp, %rcx
 5321 1929 4C89EE   		movq	%r13, %rsi
 5322 192c E8000000 		call	_ZN8UnitTest10CheckEqualERNS_11TestResultsEPKcPcRKNS_11TestDetailsE@PLT
 5322      00
 5323              	.LEHE93:
 5324              	.L361:
 5325              	.LEHB94:
 5326 1931 E8000000 		call	_ZN8UnitTest11CurrentTest7DetailsEv@PLT
 5326      00
 5327 1936 488B30   		movq	(%rax), %rsi
 5328 1939 BA210100 		movl	$289, %edx
 5328      00
 5329 193e 4889EF   		movq	%rbp, %rdi
 5330 1941 E8000000 		call	_ZN8UnitTest11TestDetailsC1ERKS0_i@PLT
 5330      00
 5331 1946 E8000000 		call	_ZN8UnitTest11CurrentTest7ResultsEv@PLT
 5331      00
 5332 194b 488B38   		movq	(%rax), %rdi
 5333 194e 488D9424 		leaq	736(%rsp), %rdx
 5333      E0020000 
 5334 1956 4889E9   		movq	%rbp, %rcx
 5335 1959 488D3500 		leaq	.LC47(%rip), %rsi
 5335      000000
 5336 1960 E8000000 		call	_ZN8UnitTest10CheckEqualERNS_11TestResultsEPKcPcRKNS_11TestDetailsE@PLT
 5336      00
 5337              	.LEHE94:
 5338              	.L364:
 5339              	.LEHB95:
 5340 1965 E8000000 		call	_ZN8UnitTest11CurrentTest7DetailsEv@PLT
 5340      00
 5341 196a 488B30   		movq	(%rax), %rsi
 5342 196d BA220100 		movl	$290, %edx
 5342      00
 5343 1972 4889EF   		movq	%rbp, %rdi
 5344 1975 E8000000 		call	_ZN8UnitTest11TestDetailsC1ERKS0_i@PLT
 5344      00
 5345 197a C744240C 		movl	$1234, 12(%rsp)
 5345      D2040000 
 5346 1982 E8000000 		call	_ZN8UnitTest11CurrentTest7ResultsEv@PLT
 5346      00
 5347 1987 488B38   		movq	(%rax), %rdi
 5348 198a 488D9424 		leaq	992(%rsp), %rdx
 5348      E0030000 
 5349 1992 488D7424 		leaq	12(%rsp), %rsi
 5349      0C
 5350 1997 4889E9   		movq	%rbp, %rcx
 5351 199a E8000000 		call	_ZN8UnitTest10CheckEqualIiiEEvRNS_11TestResultsERKT_RKT0_RKNS_11TestDetailsE
 5351      00
 5352              	.LEHE95:
 5353              	.L367:
 5354 199f 488D0500 		leaq	16+_ZTV17RecordingReporter(%rip), %rax
 5354      000000
 5355 19a6 4C89E7   		movq	%r12, %rdi
 5356 19a9 48898424 		movq	%rax, 208(%rsp)
 5356      D0000000 
 5357              	.LEHB96:
 5358 19b1 E8000000 		call	_ZN8UnitTest12TestReporterD2Ev@PLT
 5358      00
 5359              	.LEHE96:
 5360 19b6 488B8424 		movq	2312(%rsp), %rax
 5360      08090000 
 5361 19be 64482B04 		subq	%fs:40, %rax
 5361      25280000 
 5361      00
 5362 19c7 7512     		jne	.L383
 5363 19c9 4881C418 		addq	$2328, %rsp
 5363      090000
 5364              		.cfi_remember_state
 5365              		.cfi_def_cfa_offset 56
 5366 19d0 5B       		popq	%rbx
 5367              		.cfi_def_cfa_offset 48
 5368 19d1 5D       		popq	%rbp
 5369              		.cfi_def_cfa_offset 40
 5370 19d2 415C     		popq	%r12
 5371              		.cfi_def_cfa_offset 32
 5372 19d4 415D     		popq	%r13
 5373              		.cfi_def_cfa_offset 24
 5374 19d6 415E     		popq	%r14
 5375              		.cfi_def_cfa_offset 16
 5376 19d8 415F     		popq	%r15
 5377              		.cfi_def_cfa_offset 8
 5378 19da C3       		ret
 5379              	.L383:
 5380              		.cfi_restore_state
 5381 19db E8000000 		call	__stack_chk_fail@PLT
 5381      00
 5382              	.L377:
 5383 19e0 F30F1EFA 		endbr64
 5384 19e4 4889C7   		movq	%rax, %rdi
 5385 19e7 E9000000 		jmp	.L366
 5385      00
 5386              	.L375:
 5387 19ec F30F1EFA 		endbr64
 5388 19f0 4889C7   		movq	%rax, %rdi
 5389 19f3 E9000000 		jmp	.L363
 5389      00
 5390              	.L371:
 5391 19f8 F30F1EFA 		endbr64
 5392 19fc 4889C7   		movq	%rax, %rdi
 5393 19ff E9000000 		jmp	.L356
 5393      00
 5394              	.L373:
 5395 1a04 F30F1EFA 		endbr64
 5396 1a08 4889C7   		movq	%rax, %rdi
 5397 1a0b E9000000 		jmp	.L360
 5397      00
 5398              	.L379:
 5399 1a10 F30F1EFA 		endbr64
 5400 1a14 E9000000 		jmp	.L380
 5400      00
 5401              		.section	.gcc_except_table
 5402 02bd 000000   		.align 4
 5403              	.LLSDA1321:
 5404 02c0 FF       		.byte	0xff
 5405 02c1 9B       		.byte	0x9b
 5406 02c2 2D       		.uleb128 .LLSDATT1321-.LLSDATTD1321
 5407              	.LLSDATTD1321:
 5408 02c3 01       		.byte	0x1
 5409 02c4 24       		.uleb128 .LLSDACSE1321-.LLSDACSB1321
 5410              	.LLSDACSB1321:
 5411 02c5 D701     		.uleb128 .LEHB91-.LFB1321
 5412 02c7 AA01     		.uleb128 .LEHE91-.LEHB91
 5413 02c9 C005     		.uleb128 .L379-.LFB1321
 5414 02cb 00       		.uleb128 0
 5415 02cc 8103     		.uleb128 .LEHB92-.LFB1321
 5416 02ce 30       		.uleb128 .LEHE92-.LEHB92
 5417 02cf A805     		.uleb128 .L371-.LFB1321
 5418 02d1 01       		.uleb128 0x1
 5419 02d2 B103     		.uleb128 .LEHB93-.LFB1321
 5420 02d4 30       		.uleb128 .LEHE93-.LEHB93
 5421 02d5 B405     		.uleb128 .L373-.LFB1321
 5422 02d7 01       		.uleb128 0x1
 5423 02d8 E103     		.uleb128 .LEHB94-.LFB1321
 5424 02da 34       		.uleb128 .LEHE94-.LEHB94
 5425 02db 9C05     		.uleb128 .L375-.LFB1321
 5426 02dd 01       		.uleb128 0x1
 5427 02de 9504     		.uleb128 .LEHB95-.LFB1321
 5428 02e0 3A       		.uleb128 .LEHE95-.LEHB95
 5429 02e1 9005     		.uleb128 .L377-.LFB1321
 5430 02e3 01       		.uleb128 0x1
 5431 02e4 E104     		.uleb128 .LEHB96-.LFB1321
 5432 02e6 05       		.uleb128 .LEHE96-.LEHB96
 5433 02e7 00       		.uleb128 0
 5434 02e8 00       		.uleb128 0
 5435              	.LLSDACSE1321:
 5436 02e9 01       		.byte	0x1
 5437 02ea 00       		.byte	0
 5438 02eb 00       		.align 4
 5439 02ec 00000000 		.long	0
 5440              	
 5441              	.LLSDATT1321:
 5442              		.text
 5443              		.cfi_endproc
 5444              		.section	.text.unlikely
 5445              		.cfi_startproc
 5446              		.cfi_personality 0x9b,DW.ref.__gxx_personality_v0
 5447              		.cfi_lsda 0x1b,.LLSDAC1321
 5449              	_ZNK12_GLOBAL__N_143TestCheckArray2DCloseFailureIncludesDetails7RunImplEv.cold:
 5450              	.LFSB1321:
 5451              	.L366:
 5452              		.cfi_def_cfa_offset 2384
 5453              		.cfi_offset 3, -56
 5454              		.cfi_offset 6, -48
 5455              		.cfi_offset 12, -40
 5456              		.cfi_offset 13, -32
 5457              		.cfi_offset 14, -24
 5458              		.cfi_offset 15, -16
 5459 0330 E8000000 		call	__cxa_begin_catch@PLT
 5459      00
 5460              	.LEHB97:
 5461 0335 E8000000 		call	_ZN8UnitTest11CurrentTest7ResultsEv@PLT
 5461      00
 5462 033a 4C8B28   		movq	(%rax), %r13
 5463 033d E8000000 		call	_ZN8UnitTest11CurrentTest7DetailsEv@PLT
 5463      00
 5464 0342 488B30   		movq	(%rax), %rsi
 5465 0345 BA220100 		movl	$290, %edx
 5465      00
 5466 034a 4889EF   		movq	%rbp, %rdi
 5467 034d E8000000 		call	_ZN8UnitTest11TestDetailsC1ERKS0_i@PLT
 5467      00
 5468 0352 488D1500 		leaq	.LC60(%rip), %rdx
 5468      000000
 5469 0359 4889EE   		movq	%rbp, %rsi
 5470 035c 4C89EF   		movq	%r13, %rdi
 5471 035f E8000000 		call	_ZN8UnitTest11TestResults13OnTestFailureERKNS_11TestDetailsEPKc@PLT
 5471      00
 5472              	.LEHE97:
 5473              	.LEHB98:
 5474 0364 E8000000 		call	__cxa_end_catch@PLT
 5474      00
 5475              	.LEHE98:
 5476 0369 E9000000 		jmp	.L367
 5476      00
 5477              	.L363:
 5478 036e E8000000 		call	__cxa_begin_catch@PLT
 5478      00
 5479              	.LEHB99:
 5480 0373 E8000000 		call	_ZN8UnitTest11CurrentTest7ResultsEv@PLT
 5480      00
 5481 0378 4C8B28   		movq	(%rax), %r13
 5482 037b E8000000 		call	_ZN8UnitTest11CurrentTest7DetailsEv@PLT
 5482      00
 5483 0380 488B30   		movq	(%rax), %rsi
 5484 0383 BA210100 		movl	$289, %edx
 5484      00
 5485 0388 4889EF   		movq	%rbp, %rdi
 5486 038b E8000000 		call	_ZN8UnitTest11TestDetailsC1ERKS0_i@PLT
 5486      00
 5487 0390 488D1500 		leaq	.LC59(%rip), %rdx
 5487      000000
 5488 0397 4889EE   		movq	%rbp, %rsi
 5489 039a 4C89EF   		movq	%r13, %rdi
 5490 039d E8000000 		call	_ZN8UnitTest11TestResults13OnTestFailureERKNS_11TestDetailsEPKc@PLT
 5490      00
 5491              	.LEHE99:
 5492              	.LEHB100:
 5493 03a2 E8000000 		call	__cxa_end_catch@PLT
 5493      00
 5494              	.LEHE100:
 5495 03a7 E9000000 		jmp	.L364
 5495      00
 5496              	.L360:
 5497 03ac E8000000 		call	__cxa_begin_catch@PLT
 5497      00
 5498              	.LEHB101:
 5499 03b1 E8000000 		call	_ZN8UnitTest11CurrentTest7ResultsEv@PLT
 5499      00
 5500 03b6 4C8B28   		movq	(%rax), %r13
 5501 03b9 E8000000 		call	_ZN8UnitTest11CurrentTest7DetailsEv@PLT
 5501      00
 5502 03be 488B30   		movq	(%rax), %rsi
 5503 03c1 BA200100 		movl	$288, %edx
 5503      00
 5504 03c6 4889EF   		movq	%rbp, %rdi
 5505 03c9 E8000000 		call	_ZN8UnitTest11TestDetailsC1ERKS0_i@PLT
 5505      00
 5506 03ce 488D1500 		leaq	.LC58(%rip), %rdx
 5506      000000
 5507 03d5 4889EE   		movq	%rbp, %rsi
 5508 03d8 4C89EF   		movq	%r13, %rdi
 5509 03db E8000000 		call	_ZN8UnitTest11TestResults13OnTestFailureERKNS_11TestDetailsEPKc@PLT
 5509      00
 5510              	.LEHE101:
 5511              	.LEHB102:
 5512 03e0 E8000000 		call	__cxa_end_catch@PLT
 5512      00
 5513              	.LEHE102:
 5514 03e5 E9000000 		jmp	.L361
 5514      00
 5515              	.L376:
 5516 03ea F30F1EFA 		endbr64
 5517 03ee 4889C5   		movq	%rax, %rbp
 5518 03f1 E8000000 		call	__cxa_end_catch@PLT
 5518      00
 5519              	.L359:
 5520 03f6 488D0500 		leaq	16+_ZTV17RecordingReporter(%rip), %rax
 5520      000000
 5521 03fd 4C89E7   		movq	%r12, %rdi
 5522 0400 48898424 		movq	%rax, 208(%rsp)
 5522      D0000000 
 5523 0408 E8000000 		call	_ZN8UnitTest12TestReporterD2Ev@PLT
 5523      00
 5524 040d 4889EF   		movq	%rbp, %rdi
 5525              	.LEHB103:
 5526 0410 E8000000 		call	_Unwind_Resume@PLT
 5526      00
 5527              	.LEHE103:
 5528              	.L374:
 5529 0415 F30F1EFA 		endbr64
 5530 0419 4889C5   		movq	%rax, %rbp
 5531 041c E8000000 		call	__cxa_end_catch@PLT
 5531      00
 5532 0421 EBD3     		jmp	.L359
 5533              	.L356:
 5534 0423 E8000000 		call	__cxa_begin_catch@PLT
 5534      00
 5535              	.LEHB104:
 5536 0428 E8000000 		call	_ZN8UnitTest11CurrentTest7ResultsEv@PLT
 5536      00
 5537 042d 4C8B30   		movq	(%rax), %r14
 5538 0430 E8000000 		call	_ZN8UnitTest11CurrentTest7DetailsEv@PLT
 5538      00
 5539 0435 488B30   		movq	(%rax), %rsi
 5540 0438 BA1F0100 		movl	$287, %edx
 5540      00
 5541 043d 4889EF   		movq	%rbp, %rdi
 5542 0440 E8000000 		call	_ZN8UnitTest11TestDetailsC1ERKS0_i@PLT
 5542      00
 5543 0445 488D1500 		leaq	.LC57(%rip), %rdx
 5543      000000
 5544 044c 4889EE   		movq	%rbp, %rsi
 5545 044f 4C89F7   		movq	%r14, %rdi
 5546 0452 E8000000 		call	_ZN8UnitTest11TestResults13OnTestFailureERKNS_11TestDetailsEPKc@PLT
 5546      00
 5547              	.LEHE104:
 5548              	.LEHB105:
 5549 0457 E8000000 		call	__cxa_end_catch@PLT
 5549      00
 5550              	.LEHE105:
 5551 045c E9000000 		jmp	.L357
 5551      00
 5552              	.L370:
 5553 0461 F30F1EFA 		endbr64
 5554              	.L380:
 5555 0465 4889C5   		movq	%rax, %rbp
 5556 0468 EB8C     		jmp	.L359
 5557              	.L372:
 5558 046a F30F1EFA 		endbr64
 5559 046e 4889C5   		movq	%rax, %rbp
 5560 0471 E8000000 		call	__cxa_end_catch@PLT
 5560      00
 5561 0476 E97BFFFF 		jmp	.L359
 5561      FF
 5562              	.L378:
 5563 047b F30F1EFA 		endbr64
 5564 047f 4889C5   		movq	%rax, %rbp
 5565 0482 E8000000 		call	__cxa_end_catch@PLT
 5565      00
 5566 0487 E96AFFFF 		jmp	.L359
 5566      FF
 5567              		.cfi_endproc
 5568              	.LFE1321:
 5569              		.section	.gcc_except_table
 5570              		.align 4
 5571              	.LLSDAC1321:
 5572 02f0 FF       		.byte	0xff
 5573 02f1 9B       		.byte	0x9b
 5574 02f2 39       		.uleb128 .LLSDATTC1321-.LLSDATTDC1321
 5575              	.LLSDATTDC1321:
 5576 02f3 01       		.byte	0x1
 5577 02f4 31       		.uleb128 .LLSDACSEC1321-.LLSDACSBC1321
 5578              	.LLSDACSBC1321:
 5579 02f5 05       		.uleb128 .LEHB97-.LCOLDB61
 5580 02f6 2F       		.uleb128 .LEHE97-.LEHB97
 5581 02f7 CB02     		.uleb128 .L378-.LCOLDB61
 5582 02f9 00       		.uleb128 0
 5583 02fa 34       		.uleb128 .LEHB98-.LCOLDB61
 5584 02fb 05       		.uleb128 .LEHE98-.LEHB98
 5585 02fc B102     		.uleb128 .L370-.LCOLDB61
 5586 02fe 00       		.uleb128 0
 5587 02ff 43       		.uleb128 .LEHB99-.LCOLDB61
 5588 0300 2F       		.uleb128 .LEHE99-.LEHB99
 5589 0301 BA01     		.uleb128 .L376-.LCOLDB61
 5590 0303 00       		.uleb128 0
 5591 0304 72       		.uleb128 .LEHB100-.LCOLDB61
 5592 0305 05       		.uleb128 .LEHE100-.LEHB100
 5593 0306 B102     		.uleb128 .L370-.LCOLDB61
 5594 0308 00       		.uleb128 0
 5595 0309 8101     		.uleb128 .LEHB101-.LCOLDB61
 5596 030b 2F       		.uleb128 .LEHE101-.LEHB101
 5597 030c E501     		.uleb128 .L374-.LCOLDB61
 5598 030e 00       		.uleb128 0
 5599 030f B001     		.uleb128 .LEHB102-.LCOLDB61
 5600 0311 05       		.uleb128 .LEHE102-.LEHB102
 5601 0312 B102     		.uleb128 .L370-.LCOLDB61
 5602 0314 00       		.uleb128 0
 5603 0315 E001     		.uleb128 .LEHB103-.LCOLDB61
 5604 0317 05       		.uleb128 .LEHE103-.LEHB103
 5605 0318 00       		.uleb128 0
 5606 0319 00       		.uleb128 0
 5607 031a F801     		.uleb128 .LEHB104-.LCOLDB61
 5608 031c 2F       		.uleb128 .LEHE104-.LEHB104
 5609 031d BA02     		.uleb128 .L372-.LCOLDB61
 5610 031f 00       		.uleb128 0
 5611 0320 A702     		.uleb128 .LEHB105-.LCOLDB61
 5612 0322 05       		.uleb128 .LEHE105-.LEHB105
 5613 0323 B102     		.uleb128 .L370-.LCOLDB61
 5614 0325 00       		.uleb128 0
 5615              	.LLSDACSEC1321:
 5616 0326 01       		.byte	0x1
 5617 0327 00       		.byte	0
 5618              		.align 4
 5619 0328 00000000 		.long	0
 5620              	
 5621              	.LLSDATTC1321:
 5622              		.section	.text.unlikely
 5623              		.text
 5625              		.section	.text.unlikely
 5627              	.LCOLDE61:
 5628              		.text
 5629              	.LHOTE61:
 5630              		.section	.rodata.str1.1
 5631              	.LC62:
 5632 005e 00       		.string	""
 5633              		.section	.rodata.str1.8
 5634 01a2 00000000 		.align 8
 5634      0000
 5635              	.LC63:
 5636 01a8 556E6861 		.string	"Unhandled exception in CHECK_EQUAL(1, results.GetFailureCount())"
 5636      6E646C65 
 5636      64206578 
 5636      63657074 
 5636      696F6E20 
 5637              		.section	.text.unlikely
 5638              		.align 2
 5639              	.LCOLDB64:
 5640              		.text
 5641              	.LHOTB64:
 5642 1a19 90       		.align 2
 5643 1a1a 660F1F44 		.p2align 4
 5643      0000
 5645              	_ZNK12_GLOBAL__N_126TestCheckArray2DCloseFalse7RunImplEv:
 5646              	.LFB1313:
 5647              		.cfi_startproc
 5648              		.cfi_personality 0x9b,DW.ref.__gxx_personality_v0
 5649              		.cfi_lsda 0x1b,.LLSDA1313
 5650 1a20 F30F1EFA 		endbr64
 5651 1a24 4155     		pushq	%r13
 5652              		.cfi_def_cfa_offset 16
 5653              		.cfi_offset 13, -16
 5654 1a26 31F6     		xorl	%esi, %esi
 5655 1a28 4154     		pushq	%r12
 5656              		.cfi_def_cfa_offset 24
 5657              		.cfi_offset 12, -24
 5658 1a2a 55       		pushq	%rbp
 5659              		.cfi_def_cfa_offset 32
 5660              		.cfi_offset 6, -32
 5661 1a2b 4881ECB0 		subq	$176, %rsp
 5661      000000
 5662              		.cfi_def_cfa_offset 208
 5663 1a32 64488B04 		movq	%fs:40, %rax
 5663      25280000 
 5663      00
 5664 1a3b 48898424 		movq	%rax, 168(%rsp)
 5664      A8000000 
 5665 1a43 31C0     		xorl	%eax, %eax
 5666 1a45 4C8D6424 		leaq	16(%rsp), %r12
 5666      10
 5667 1a4a 488D6C24 		leaq	48(%rsp), %rbp
 5667      30
 5668 1a4f 4C89E7   		movq	%r12, %rdi
 5669 1a52 4C8D6C24 		leaq	12(%rsp), %r13
 5669      0C
 5670              	.LEHB106:
 5671 1a57 E8000000 		call	_ZN8UnitTest11TestResultsC1EPNS_12TestReporterE@PLT
 5671      00
 5672 1a5c 0F280500 		movaps	.LC50(%rip), %xmm0
 5672      000000
 5673 1a63 4531C0   		xorl	%r8d, %r8d
 5674 1a66 4889EF   		movq	%rbp, %rdi
 5675 1a69 488D3500 		leaq	.LC62(%rip), %rsi
 5675      000000
 5676 1a70 C7442470 		movl	$0x40800000, 112(%rsp)
 5676      00008040 
 5677 1a78 0F294424 		movaps	%xmm0, 80(%rsp)
 5677      50
 5678 1a7d 4889F1   		movq	%rsi, %rcx
 5679 1a80 0F280500 		movaps	.LC51(%rip), %xmm0
 5679      000000
 5680 1a87 4889F2   		movq	%rsi, %rdx
 5681 1a8a C78424A0 		movl	$0x408051ec, 160(%rsp)
 5681      000000EC 
 5681      518040
 5682 1a95 0F294424 		movaps	%xmm0, 96(%rsp)
 5682      60
 5683 1a9a 0F280500 		movaps	.LC53(%rip), %xmm0
 5683      000000
 5684 1aa1 0F298424 		movaps	%xmm0, 128(%rsp)
 5684      80000000 
 5685 1aa9 0F280500 		movaps	.LC54(%rip), %xmm0
 5685      000000
 5686 1ab0 0F298424 		movaps	%xmm0, 144(%rsp)
 5686      90000000 
 5687 1ab8 E8000000 		call	_ZN8UnitTest11TestDetailsC1EPKcS2_S2_i@PLT
 5687      00
 5688 1abd 488D7424 		leaq	80(%rsp), %rsi
 5688      50
 5689 1ac2 4989E8   		movq	%rbp, %r8
 5690 1ac5 4C89E9   		movq	%r13, %rcx
 5691 1ac8 488D9424 		leaq	128(%rsp), %rdx
 5691      80000000 
 5692 1ad0 4C89E7   		movq	%r12, %rdi
 5693 1ad3 C744240C 		movl	$0x3a83126f, 12(%rsp)
 5693      6F12833A 
 5694 1adb E8E0EEFF 		call	_ZN8UnitTest17CheckArray2DCloseIA3_A3_fS2_fEEvRNS_11TestResultsERKT_RKT0_iiRKT1_RKNS_11TestDe
 5694      FF
 5695              	.LEHE106:
 5696              	.LEHB107:
 5697 1ae0 E8000000 		call	_ZN8UnitTest11CurrentTest7DetailsEv@PLT
 5697      00
 5698 1ae5 488B30   		movq	(%rax), %rsi
 5699 1ae8 BA090100 		movl	$265, %edx
 5699      00
 5700 1aed 4889EF   		movq	%rbp, %rdi
 5701 1af0 E8000000 		call	_ZN8UnitTest11TestDetailsC1ERKS0_i@PLT
 5701      00
 5702 1af5 4C89E7   		movq	%r12, %rdi
 5703 1af8 E8000000 		call	_ZNK8UnitTest11TestResults15GetFailureCountEv@PLT
 5703      00
 5704 1afd 8944240C 		movl	%eax, 12(%rsp)
 5705 1b01 C7442408 		movl	$1, 8(%rsp)
 5705      01000000 
 5706 1b09 E8000000 		call	_ZN8UnitTest11CurrentTest7ResultsEv@PLT
 5706      00
 5707 1b0e 488B38   		movq	(%rax), %rdi
 5708 1b11 488D7424 		leaq	8(%rsp), %rsi
 5708      08
 5709 1b16 4889E9   		movq	%rbp, %rcx
 5710 1b19 4C89EA   		movq	%r13, %rdx
 5711 1b1c E8000000 		call	_ZN8UnitTest10CheckEqualIiiEEvRNS_11TestResultsERKT_RKT0_RKNS_11TestDetailsE
 5711      00
 5712              	.LEHE107:
 5713              	.L384:
 5714 1b21 488B8424 		movq	168(%rsp), %rax
 5714      A8000000 
 5715 1b29 64482B04 		subq	%fs:40, %rax
 5715      25280000 
 5715      00
 5716 1b32 750D     		jne	.L392
 5717 1b34 4881C4B0 		addq	$176, %rsp
 5717      000000
 5718              		.cfi_remember_state
 5719              		.cfi_def_cfa_offset 32
 5720 1b3b 5D       		popq	%rbp
 5721              		.cfi_def_cfa_offset 24
 5722 1b3c 415C     		popq	%r12
 5723              		.cfi_def_cfa_offset 16
 5724 1b3e 415D     		popq	%r13
 5725              		.cfi_def_cfa_offset 8
 5726 1b40 C3       		ret
 5727              	.L392:
 5728              		.cfi_restore_state
 5729 1b41 E8000000 		call	__stack_chk_fail@PLT
 5729      00
 5730              	.L389:
 5731 1b46 F30F1EFA 		endbr64
 5732 1b4a 4889C7   		movq	%rax, %rdi
 5733 1b4d E9000000 		jmp	.L385
 5733      00
 5734              		.section	.gcc_except_table
 5735              		.align 4
 5736              	.LLSDA1313:
 5737 032c FF       		.byte	0xff
 5738 032d 9B       		.byte	0x9b
 5739 032e 15       		.uleb128 .LLSDATT1313-.LLSDATTD1313
 5740              	.LLSDATTD1313:
 5741 032f 01       		.byte	0x1
 5742 0330 0B       		.uleb128 .LLSDACSE1313-.LLSDACSB1313
 5743              	.LLSDACSB1313:
 5744 0331 37       		.uleb128 .LEHB106-.LFB1313
 5745 0332 8901     		.uleb128 .LEHE106-.LEHB106
 5746 0334 00       		.uleb128 0
 5747 0335 00       		.uleb128 0
 5748 0336 C001     		.uleb128 .LEHB107-.LFB1313
 5749 0338 41       		.uleb128 .LEHE107-.LEHB107
 5750 0339 A602     		.uleb128 .L389-.LFB1313
 5751 033b 01       		.uleb128 0x1
 5752              	.LLSDACSE1313:
 5753 033c 01       		.byte	0x1
 5754 033d 00       		.byte	0
 5755 033e 0000     		.align 4
 5756 0340 00000000 		.long	0
 5757              	
 5758              	.LLSDATT1313:
 5759              		.text
 5760              		.cfi_endproc
 5761              		.section	.text.unlikely
 5762              		.cfi_startproc
 5763              		.cfi_personality 0x9b,DW.ref.__gxx_personality_v0
 5764              		.cfi_lsda 0x1b,.LLSDAC1313
 5766              	_ZNK12_GLOBAL__N_126TestCheckArray2DCloseFalse7RunImplEv.cold:
 5767              	.LFSB1313:
 5768              	.L385:
 5769              		.cfi_def_cfa_offset 208
 5770              		.cfi_offset 6, -32
 5771              		.cfi_offset 12, -24
 5772              		.cfi_offset 13, -16
 5773 048c E8000000 		call	__cxa_begin_catch@PLT
 5773      00
 5774              	.LEHB108:
 5775 0491 E8000000 		call	_ZN8UnitTest11CurrentTest7ResultsEv@PLT
 5775      00
 5776 0496 4C8B20   		movq	(%rax), %r12
 5777 0499 E8000000 		call	_ZN8UnitTest11CurrentTest7DetailsEv@PLT
 5777      00
 5778 049e 488B30   		movq	(%rax), %rsi
 5779 04a1 BA090100 		movl	$265, %edx
 5779      00
 5780 04a6 4889EF   		movq	%rbp, %rdi
 5781 04a9 E8000000 		call	_ZN8UnitTest11TestDetailsC1ERKS0_i@PLT
 5781      00
 5782 04ae 488D1500 		leaq	.LC63(%rip), %rdx
 5782      000000
 5783 04b5 4889EE   		movq	%rbp, %rsi
 5784 04b8 4C89E7   		movq	%r12, %rdi
 5785 04bb E8000000 		call	_ZN8UnitTest11TestResults13OnTestFailureERKNS_11TestDetailsEPKc@PLT
 5785      00
 5786              	.LEHE108:
 5787              	.LEHB109:
 5788 04c0 E8000000 		call	__cxa_end_catch@PLT
 5788      00
 5789              	.LEHE109:
 5790 04c5 E9000000 		jmp	.L384
 5790      00
 5791              	.L390:
 5792 04ca F30F1EFA 		endbr64
 5793 04ce 4889C5   		movq	%rax, %rbp
 5794 04d1 E8000000 		call	__cxa_end_catch@PLT
 5794      00
 5795 04d6 4889EF   		movq	%rbp, %rdi
 5796              	.LEHB110:
 5797 04d9 E8000000 		call	_Unwind_Resume@PLT
 5797      00
 5798              	.LEHE110:
 5799              		.cfi_endproc
 5800              	.LFE1313:
 5801              		.section	.gcc_except_table
 5802              		.align 4
 5803              	.LLSDAC1313:
 5804 0344 FF       		.byte	0xff
 5805 0345 9B       		.byte	0x9b
 5806 0346 15       		.uleb128 .LLSDATTC1313-.LLSDATTDC1313
 5807              	.LLSDATTDC1313:
 5808 0347 01       		.byte	0x1
 5809 0348 0C       		.uleb128 .LLSDACSEC1313-.LLSDACSBC1313
 5810              	.LLSDACSBC1313:
 5811 0349 05       		.uleb128 .LEHB108-.LCOLDB64
 5812 034a 2F       		.uleb128 .LEHE108-.LEHB108
 5813 034b 3E       		.uleb128 .L390-.LCOLDB64
 5814 034c 00       		.uleb128 0
 5815 034d 34       		.uleb128 .LEHB109-.LCOLDB64
 5816 034e 05       		.uleb128 .LEHE109-.LEHB109
 5817 034f 00       		.uleb128 0
 5818 0350 00       		.uleb128 0
 5819 0351 4D       		.uleb128 .LEHB110-.LCOLDB64
 5820 0352 05       		.uleb128 .LEHE110-.LEHB110
 5821 0353 00       		.uleb128 0
 5822 0354 00       		.uleb128 0
 5823              	.LLSDACSEC1313:
 5824 0355 01       		.byte	0x1
 5825 0356 00       		.byte	0
 5826 0357 00       		.align 4
 5827 0358 00000000 		.long	0
 5828              	
 5829              	.LLSDATTC1313:
 5830              		.section	.text.unlikely
 5831              		.text
 5833              		.section	.text.unlikely
 5835              	.LCOLDE64:
 5836              		.text
 5837              	.LHOTE64:
 5838              		.section	.rodata.str1.8
 5839 01e9 00000000 		.align 8
 5839      000000
 5840              	.LC66:
 5841 01f0 556E6861 		.string	"Unhandled exception in CHECK_EQUAL(0, results.GetFailureCount())"
 5841      6E646C65 
 5841      64206578 
 5841      63657074 
 5841      696F6E20 
 5842              		.section	.text.unlikely
 5843              		.align 2
 5844              	.LCOLDB67:
 5845              		.text
 5846              	.LHOTB67:
 5847              		.align 2
 5848 1b52 66662E0F 		.p2align 4
 5848      1F840000 
 5848      0000000F 
 5848      1F00
 5850              	_ZNK12_GLOBAL__N_125TestCheckArray2DCloseTrue7RunImplEv:
 5851              	.LFB1309:
 5852              		.cfi_startproc
 5853              		.cfi_personality 0x9b,DW.ref.__gxx_personality_v0
 5854              		.cfi_lsda 0x1b,.LLSDA1309
 5855 1b60 F30F1EFA 		endbr64
 5856 1b64 4155     		pushq	%r13
 5857              		.cfi_def_cfa_offset 16
 5858              		.cfi_offset 13, -16
 5859 1b66 31F6     		xorl	%esi, %esi
 5860 1b68 4154     		pushq	%r12
 5861              		.cfi_def_cfa_offset 24
 5862              		.cfi_offset 12, -24
 5863 1b6a 55       		pushq	%rbp
 5864              		.cfi_def_cfa_offset 32
 5865              		.cfi_offset 6, -32
 5866 1b6b 4881ECB0 		subq	$176, %rsp
 5866      000000
 5867              		.cfi_def_cfa_offset 208
 5868 1b72 64488B04 		movq	%fs:40, %rax
 5868      25280000 
 5868      00
 5869 1b7b 48898424 		movq	%rax, 168(%rsp)
 5869      A8000000 
 5870 1b83 31C0     		xorl	%eax, %eax
 5871 1b85 4C8D6424 		leaq	16(%rsp), %r12
 5871      10
 5872 1b8a 488D6C24 		leaq	48(%rsp), %rbp
 5872      30
 5873 1b8f 4C89E7   		movq	%r12, %rdi
 5874 1b92 4C8D6C24 		leaq	12(%rsp), %r13
 5874      0C
 5875              	.LEHB111:
 5876 1b97 E8000000 		call	_ZN8UnitTest11TestResultsC1EPNS_12TestReporterE@PLT
 5876      00
 5877 1b9c 0F280500 		movaps	.LC50(%rip), %xmm0
 5877      000000
 5878 1ba3 4531C0   		xorl	%r8d, %r8d
 5879 1ba6 4889EF   		movq	%rbp, %rdi
 5880 1ba9 488D3500 		leaq	.LC62(%rip), %rsi
 5880      000000
 5881 1bb0 C7442470 		movl	$0x40800000, 112(%rsp)
 5881      00008040 
 5882 1bb8 0F294424 		movaps	%xmm0, 80(%rsp)
 5882      50
 5883 1bbd 4889F1   		movq	%rsi, %rcx
 5884 1bc0 0F280500 		movaps	.LC51(%rip), %xmm0
 5884      000000
 5885 1bc7 4889F2   		movq	%rsi, %rdx
 5886 1bca C78424A0 		movl	$0x408051ec, 160(%rsp)
 5886      000000EC 
 5886      518040
 5887 1bd5 0F294424 		movaps	%xmm0, 96(%rsp)
 5887      60
 5888 1bda 0F280500 		movaps	.LC53(%rip), %xmm0
 5888      000000
 5889 1be1 0F298424 		movaps	%xmm0, 128(%rsp)
 5889      80000000 
 5890 1be9 0F280500 		movaps	.LC54(%rip), %xmm0
 5890      000000
 5891 1bf0 0F298424 		movaps	%xmm0, 144(%rsp)
 5891      90000000 
 5892 1bf8 E8000000 		call	_ZN8UnitTest11TestDetailsC1EPKcS2_S2_i@PLT
 5892      00
 5893 1bfd 488D7424 		leaq	80(%rsp), %rsi
 5893      50
 5894 1c02 4989E8   		movq	%rbp, %r8
 5895 1c05 4C89E9   		movq	%r13, %rcx
 5896 1c08 488D9424 		leaq	128(%rsp), %rdx
 5896      80000000 
 5897 1c10 4C89E7   		movq	%r12, %rdi
 5898 1c13 C744240C 		movl	$0x3ca3d70a, 12(%rsp)
 5898      0AD7A33C 
 5899 1c1b E8A0EDFF 		call	_ZN8UnitTest17CheckArray2DCloseIA3_A3_fS2_fEEvRNS_11TestResultsERKT_RKT0_iiRKT1_RKNS_11TestDe
 5899      FF
 5900              	.LEHE111:
 5901              	.LEHB112:
 5902 1c20 E8000000 		call	_ZN8UnitTest11CurrentTest7DetailsEv@PLT
 5902      00
 5903 1c25 488B30   		movq	(%rax), %rsi
 5904 1c28 BAFB0000 		movl	$251, %edx
 5904      00
 5905 1c2d 4889EF   		movq	%rbp, %rdi
 5906 1c30 E8000000 		call	_ZN8UnitTest11TestDetailsC1ERKS0_i@PLT
 5906      00
 5907 1c35 4C89E7   		movq	%r12, %rdi
 5908 1c38 E8000000 		call	_ZNK8UnitTest11TestResults15GetFailureCountEv@PLT
 5908      00
 5909 1c3d 8944240C 		movl	%eax, 12(%rsp)
 5910 1c41 C7442408 		movl	$0, 8(%rsp)
 5910      00000000 
 5911 1c49 E8000000 		call	_ZN8UnitTest11CurrentTest7ResultsEv@PLT
 5911      00
 5912 1c4e 488B38   		movq	(%rax), %rdi
 5913 1c51 488D7424 		leaq	8(%rsp), %rsi
 5913      08
 5914 1c56 4889E9   		movq	%rbp, %rcx
 5915 1c59 4C89EA   		movq	%r13, %rdx
 5916 1c5c E8000000 		call	_ZN8UnitTest10CheckEqualIiiEEvRNS_11TestResultsERKT_RKT0_RKNS_11TestDetailsE
 5916      00
 5917              	.LEHE112:
 5918              	.L393:
 5919 1c61 488B8424 		movq	168(%rsp), %rax
 5919      A8000000 
 5920 1c69 64482B04 		subq	%fs:40, %rax
 5920      25280000 
 5920      00
 5921 1c72 750D     		jne	.L401
 5922 1c74 4881C4B0 		addq	$176, %rsp
 5922      000000
 5923              		.cfi_remember_state
 5924              		.cfi_def_cfa_offset 32
 5925 1c7b 5D       		popq	%rbp
 5926              		.cfi_def_cfa_offset 24
 5927 1c7c 415C     		popq	%r12
 5928              		.cfi_def_cfa_offset 16
 5929 1c7e 415D     		popq	%r13
 5930              		.cfi_def_cfa_offset 8
 5931 1c80 C3       		ret
 5932              	.L401:
 5933              		.cfi_restore_state
 5934 1c81 E8000000 		call	__stack_chk_fail@PLT
 5934      00
 5935              	.L398:
 5936 1c86 F30F1EFA 		endbr64
 5937 1c8a 4889C7   		movq	%rax, %rdi
 5938 1c8d E9000000 		jmp	.L394
 5938      00
 5939              		.section	.gcc_except_table
 5940              		.align 4
 5941              	.LLSDA1309:
 5942 035c FF       		.byte	0xff
 5943 035d 9B       		.byte	0x9b
 5944 035e 15       		.uleb128 .LLSDATT1309-.LLSDATTD1309
 5945              	.LLSDATTD1309:
 5946 035f 01       		.byte	0x1
 5947 0360 0B       		.uleb128 .LLSDACSE1309-.LLSDACSB1309
 5948              	.LLSDACSB1309:
 5949 0361 37       		.uleb128 .LEHB111-.LFB1309
 5950 0362 8901     		.uleb128 .LEHE111-.LEHB111
 5951 0364 00       		.uleb128 0
 5952 0365 00       		.uleb128 0
 5953 0366 C001     		.uleb128 .LEHB112-.LFB1309
 5954 0368 41       		.uleb128 .LEHE112-.LEHB112
 5955 0369 A602     		.uleb128 .L398-.LFB1309
 5956 036b 01       		.uleb128 0x1
 5957              	.LLSDACSE1309:
 5958 036c 01       		.byte	0x1
 5959 036d 00       		.byte	0
 5960 036e 0000     		.align 4
 5961 0370 00000000 		.long	0
 5962              	
 5963              	.LLSDATT1309:
 5964              		.text
 5965              		.cfi_endproc
 5966              		.section	.text.unlikely
 5967              		.cfi_startproc
 5968              		.cfi_personality 0x9b,DW.ref.__gxx_personality_v0
 5969              		.cfi_lsda 0x1b,.LLSDAC1309
 5971              	_ZNK12_GLOBAL__N_125TestCheckArray2DCloseTrue7RunImplEv.cold:
 5972              	.LFSB1309:
 5973              	.L394:
 5974              		.cfi_def_cfa_offset 208
 5975              		.cfi_offset 6, -32
 5976              		.cfi_offset 12, -24
 5977              		.cfi_offset 13, -16
 5978 04de E8000000 		call	__cxa_begin_catch@PLT
 5978      00
 5979              	.LEHB113:
 5980 04e3 E8000000 		call	_ZN8UnitTest11CurrentTest7ResultsEv@PLT
 5980      00
 5981 04e8 4C8B20   		movq	(%rax), %r12
 5982 04eb E8000000 		call	_ZN8UnitTest11CurrentTest7DetailsEv@PLT
 5982      00
 5983 04f0 488B30   		movq	(%rax), %rsi
 5984 04f3 BAFB0000 		movl	$251, %edx
 5984      00
 5985 04f8 4889EF   		movq	%rbp, %rdi
 5986 04fb E8000000 		call	_ZN8UnitTest11TestDetailsC1ERKS0_i@PLT
 5986      00
 5987 0500 488D1500 		leaq	.LC66(%rip), %rdx
 5987      000000
 5988 0507 4889EE   		movq	%rbp, %rsi
 5989 050a 4C89E7   		movq	%r12, %rdi
 5990 050d E8000000 		call	_ZN8UnitTest11TestResults13OnTestFailureERKNS_11TestDetailsEPKc@PLT
 5990      00
 5991              	.LEHE113:
 5992              	.LEHB114:
 5993 0512 E8000000 		call	__cxa_end_catch@PLT
 5993      00
 5994              	.LEHE114:
 5995 0517 E9000000 		jmp	.L393
 5995      00
 5996              	.L399:
 5997 051c F30F1EFA 		endbr64
 5998 0520 4889C5   		movq	%rax, %rbp
 5999 0523 E8000000 		call	__cxa_end_catch@PLT
 5999      00
 6000 0528 4889EF   		movq	%rbp, %rdi
 6001              	.LEHB115:
 6002 052b E8000000 		call	_Unwind_Resume@PLT
 6002      00
 6003              	.LEHE115:
 6004              		.cfi_endproc
 6005              	.LFE1309:
 6006              		.section	.gcc_except_table
 6007              		.align 4
 6008              	.LLSDAC1309:
 6009 0374 FF       		.byte	0xff
 6010 0375 9B       		.byte	0x9b
 6011 0376 15       		.uleb128 .LLSDATTC1309-.LLSDATTDC1309
 6012              	.LLSDATTDC1309:
 6013 0377 01       		.byte	0x1
 6014 0378 0C       		.uleb128 .LLSDACSEC1309-.LLSDACSBC1309
 6015              	.LLSDACSBC1309:
 6016 0379 05       		.uleb128 .LEHB113-.LCOLDB67
 6017 037a 2F       		.uleb128 .LEHE113-.LEHB113
 6018 037b 3E       		.uleb128 .L399-.LCOLDB67
 6019 037c 00       		.uleb128 0
 6020 037d 34       		.uleb128 .LEHB114-.LCOLDB67
 6021 037e 05       		.uleb128 .LEHE114-.LEHB114
 6022 037f 00       		.uleb128 0
 6023 0380 00       		.uleb128 0
 6024 0381 4D       		.uleb128 .LEHB115-.LCOLDB67
 6025 0382 05       		.uleb128 .LEHE115-.LEHB115
 6026 0383 00       		.uleb128 0
 6027 0384 00       		.uleb128 0
 6028              	.LLSDACSEC1309:
 6029 0385 01       		.byte	0x1
 6030 0386 00       		.byte	0
 6031 0387 00       		.align 4
 6032 0388 00000000 		.long	0
 6033              	
 6034              	.LLSDATTC1309:
 6035              		.section	.text.unlikely
 6036              		.text
 6038              		.section	.text.unlikely
 6040              	.LCOLDE67:
 6041              		.text
 6042              	.LHOTE67:
 6043              		.section	.rodata.str1.1
 6044              	.LC68:
 6045 005f 66696C65 		.string	"file.h"
 6045      2E6800
 6046              	.LC69:
 6047 0066 6D797375 		.string	"mysuite"
 6047      69746500 
 6048              	.LC70:
 6049 006e 6D797465 		.string	"mytest"
 6049      737400
 6050              		.section	.rodata.str1.8
 6051 0231 00000000 		.align 8
 6051      000000
 6052              	.LC71:
 6053 0238 556E6861 		.string	"Unhandled exception in CHECK_EQUAL(\"mytest\", reporter.lastFailedTest)"
 6053      6E646C65 
 6053      64206578 
 6053      63657074 
 6053      696F6E20 
 6054 027e 0000     		.align 8
 6055              	.LC72:
 6056 0280 556E6861 		.string	"Unhandled exception in CHECK_EQUAL(\"mysuite\", reporter.lastFailedSuite)"
 6056      6E646C65 
 6056      64206578 
 6056      63657074 
 6056      696F6E20 
 6057              		.align 8
 6058              	.LC73:
 6059 02c8 556E6861 		.string	"Unhandled exception in CHECK_EQUAL(\"file.h\", reporter.lastFailedFile)"
 6059      6E646C65 
 6059      64206578 
 6059      63657074 
 6059      696F6E20 
 6060 030e 0000     		.align 8
 6061              	.LC74:
 6062 0310 556E6861 		.string	"Unhandled exception in CHECK_EQUAL(101, reporter.lastFailedLine)"
 6062      6E646C65 
 6062      64206578 
 6062      63657074 
 6062      696F6E20 
 6063              		.section	.text.unlikely
 6064              		.align 2
 6065              	.LCOLDB75:
 6066              		.text
 6067              	.LHOTB75:
 6068              		.align 2
 6069 1c92 66662E0F 		.p2align 4
 6069      1F840000 
 6069      0000000F 
 6069      1F00
 6071              	_ZNK12_GLOBAL__N_136TestCheckEqualFailureIncludesDetails7RunImplEv:
 6072              	.LFB1253:
 6073              		.cfi_startproc
 6074              		.cfi_personality 0x9b,DW.ref.__gxx_personality_v0
 6075              		.cfi_lsda 0x1b,.LLSDA1253
 6076 1ca0 F30F1EFA 		endbr64
 6077 1ca4 4157     		pushq	%r15
 6078              		.cfi_def_cfa_offset 16
 6079              		.cfi_offset 15, -16
 6080 1ca6 4156     		pushq	%r14
 6081              		.cfi_def_cfa_offset 24
 6082              		.cfi_offset 14, -24
 6083 1ca8 4155     		pushq	%r13
 6084              		.cfi_def_cfa_offset 32
 6085              		.cfi_offset 13, -32
 6086 1caa 4154     		pushq	%r12
 6087              		.cfi_def_cfa_offset 40
 6088              		.cfi_offset 12, -40
 6089 1cac 55       		pushq	%rbp
 6090              		.cfi_def_cfa_offset 48
 6091              		.cfi_offset 6, -48
 6092 1cad 53       		pushq	%rbx
 6093              		.cfi_def_cfa_offset 56
 6094              		.cfi_offset 3, -56
 6095 1cae 4881ECC8 		subq	$2248, %rsp
 6095      080000
 6096              		.cfi_def_cfa_offset 2304
 6097 1cb5 64488B04 		movq	%fs:40, %rax
 6097      25280000 
 6097      00
 6098 1cbe 48898424 		movq	%rax, 2232(%rsp)
 6098      B8080000 
 6099 1cc6 488D0500 		leaq	16+_ZTV17RecordingReporter(%rip), %rax
 6099      000000
 6100 1ccd 4C8DA424 		leaq	128(%rsp), %r12
 6100      80000000 
 6101 1cd5 4C8D7C24 		leaq	32(%rsp), %r15
 6101      20
 6102 1cda C7842488 		movl	$0, 136(%rsp)
 6102      00000000 
 6102      000000
 6103 1ce5 4C89E6   		movq	%r12, %rsi
 6104 1ce8 4C89FF   		movq	%r15, %rdi
 6105 1ceb C784248C 		movl	$0, 652(%rsp)
 6105      02000000 
 6105      000000
 6106 1cf6 C7842490 		movl	$0, 912(%rsp)
 6106      03000000 
 6106      000000
 6107 1d01 C7842494 		movl	$0, 1684(%rsp)
 6107      06000000 
 6107      000000
 6108 1d0c 48C78424 		movq	$0, 2200(%rsp)
 6108      98080000 
 6108      00000000 
 6109 1d18 48C78424 		movq	$0, 2208(%rsp)
 6109      A0080000 
 6109      00000000 
 6110 1d24 48898424 		movq	%rax, 128(%rsp)
 6110      80000000 
 6111 1d2c C78424A8 		movl	$0x00000000, 2216(%rsp)
 6111      08000000 
 6111      000000
 6112 1d37 C684248C 		movb	$0, 140(%rsp)
 6112      00000000 
 6113 1d3f C684248C 		movb	$0, 396(%rsp)
 6113      01000000 
 6114 1d47 C6842490 		movb	$0, 656(%rsp)
 6114      02000000 
 6115 1d4f C6842494 		movb	$0, 916(%rsp)
 6115      03000000 
 6116 1d57 C6842494 		movb	$0, 1172(%rsp)
 6116      04000000 
 6117 1d5f C6842494 		movb	$0, 1428(%rsp)
 6117      05000000 
 6118 1d67 C6842498 		movb	$0, 1688(%rsp)
 6118      06000000 
 6119 1d6f C6842498 		movb	$0, 1944(%rsp)
 6119      07000000 
 6120              	.LEHB116:
 6121 1d77 E8000000 		call	_ZN8UnitTest11TestResultsC1EPNS_12TestReporterE@PLT
 6121      00
 6122 1d7c 488D5C24 		leaq	64(%rsp), %rbx
 6122      40
 6123 1d81 4C8D2D00 		leaq	.LC69(%rip), %r13
 6123      000000
 6124 1d88 41B86500 		movl	$101, %r8d
 6124      0000
 6125 1d8e 4C8D3500 		leaq	.LC70(%rip), %r14
 6125      000000
 6126 1d95 488D0D00 		leaq	.LC68(%rip), %rcx
 6126      000000
 6127 1d9c 4C89EA   		movq	%r13, %rdx
 6128 1d9f 4889DF   		movq	%rbx, %rdi
 6129 1da2 4C89F6   		movq	%r14, %rsi
 6130 1da5 E8000000 		call	_ZN8UnitTest11TestDetailsC1EPKcS2_S2_i@PLT
 6130      00
 6131 1daa 488D4424 		leaq	28(%rsp), %rax
 6131      1C
 6132 1daf 488D6C24 		leaq	96(%rsp), %rbp
 6132      60
 6133 1db4 4889D9   		movq	%rbx, %rcx
 6134 1db7 4C89FF   		movq	%r15, %rdi
 6135 1dba 4889EA   		movq	%rbp, %rdx
 6136 1dbd 4889C6   		movq	%rax, %rsi
 6137 1dc0 C7442460 		movl	$2, 96(%rsp)
 6137      02000000 
 6138 1dc8 C744241C 		movl	$1, 28(%rsp)
 6138      01000000 
 6139 1dd0 48894424 		movq	%rax, 8(%rsp)
 6139      08
 6140 1dd5 E8000000 		call	_ZN8UnitTest10CheckEqualIiiEEvRNS_11TestResultsERKT_RKT0_RKNS_11TestDetailsE
 6140      00
 6141              	.LEHE116:
 6142              	.LEHB117:
 6143 1dda E8000000 		call	_ZN8UnitTest11CurrentTest7DetailsEv@PLT
 6143      00
 6144 1ddf 488B30   		movq	(%rax), %rsi
 6145 1de2 BA5D0000 		movl	$93, %edx
 6145      00
 6146 1de7 4889EF   		movq	%rbp, %rdi
 6147 1dea E8000000 		call	_ZN8UnitTest11TestDetailsC1ERKS0_i@PLT
 6147      00
 6148 1def E8000000 		call	_ZN8UnitTest11CurrentTest7ResultsEv@PLT
 6148      00
 6149 1df4 488B38   		movq	(%rax), %rdi
 6150 1df7 488D9424 		leaq	1172(%rsp), %rdx
 6150      94040000 
 6151 1dff 4889E9   		movq	%rbp, %rcx
 6152 1e02 4C89F6   		movq	%r14, %rsi
 6153 1e05 E8000000 		call	_ZN8UnitTest10CheckEqualERNS_11TestResultsEPKcPcRKNS_11TestDetailsE@PLT
 6153      00
 6154              	.LEHE117:
 6155              	.L404:
 6156              	.LEHB118:
 6157 1e0a E8000000 		call	_ZN8UnitTest11CurrentTest7DetailsEv@PLT
 6157      00
 6158 1e0f 488B30   		movq	(%rax), %rsi
 6159 1e12 BA5E0000 		movl	$94, %edx
 6159      00
 6160 1e17 4889EF   		movq	%rbp, %rdi
 6161 1e1a E8000000 		call	_ZN8UnitTest11TestDetailsC1ERKS0_i@PLT
 6161      00
 6162 1e1f E8000000 		call	_ZN8UnitTest11CurrentTest7ResultsEv@PLT
 6162      00
 6163 1e24 488B38   		movq	(%rax), %rdi
 6164 1e27 488D9424 		leaq	916(%rsp), %rdx
 6164      94030000 
 6165 1e2f 4889E9   		movq	%rbp, %rcx
 6166 1e32 4C89EE   		movq	%r13, %rsi
 6167 1e35 E8000000 		call	_ZN8UnitTest10CheckEqualERNS_11TestResultsEPKcPcRKNS_11TestDetailsE@PLT
 6167      00
 6168              	.LEHE118:
 6169              	.L408:
 6170              	.LEHB119:
 6171 1e3a E8000000 		call	_ZN8UnitTest11CurrentTest7DetailsEv@PLT
 6171      00
 6172 1e3f 488B30   		movq	(%rax), %rsi
 6173 1e42 BA5F0000 		movl	$95, %edx
 6173      00
 6174 1e47 4889EF   		movq	%rbp, %rdi
 6175 1e4a E8000000 		call	_ZN8UnitTest11TestDetailsC1ERKS0_i@PLT
 6175      00
 6176 1e4f E8000000 		call	_ZN8UnitTest11CurrentTest7ResultsEv@PLT
 6176      00
 6177 1e54 488B38   		movq	(%rax), %rdi
 6178 1e57 488D9424 		leaq	656(%rsp), %rdx
 6178      90020000 
 6179 1e5f 4889E9   		movq	%rbp, %rcx
 6180 1e62 488D3500 		leaq	.LC68(%rip), %rsi
 6180      000000
 6181 1e69 E8000000 		call	_ZN8UnitTest10CheckEqualERNS_11TestResultsEPKcPcRKNS_11TestDetailsE@PLT
 6181      00
 6182              	.LEHE119:
 6183              	.L411:
 6184              	.LEHB120:
 6185 1e6e E8000000 		call	_ZN8UnitTest11CurrentTest7DetailsEv@PLT
 6185      00
 6186 1e73 488B30   		movq	(%rax), %rsi
 6187 1e76 BA600000 		movl	$96, %edx
 6187      00
 6188 1e7b 4889EF   		movq	%rbp, %rdi
 6189 1e7e E8000000 		call	_ZN8UnitTest11TestDetailsC1ERKS0_i@PLT
 6189      00
 6190 1e83 C744241C 		movl	$101, 28(%rsp)
 6190      65000000 
 6191 1e8b E8000000 		call	_ZN8UnitTest11CurrentTest7ResultsEv@PLT
 6191      00
 6192 1e90 488B7424 		movq	8(%rsp), %rsi
 6192      08
 6193 1e95 488B38   		movq	(%rax), %rdi
 6194 1e98 488D9424 		leaq	912(%rsp), %rdx
 6194      90030000 
 6195 1ea0 4889E9   		movq	%rbp, %rcx
 6196 1ea3 E8000000 		call	_ZN8UnitTest10CheckEqualIiiEEvRNS_11TestResultsERKT_RKT0_RKNS_11TestDetailsE
 6196      00
 6197              	.LEHE120:
 6198              	.L414:
 6199 1ea8 488D0500 		leaq	16+_ZTV17RecordingReporter(%rip), %rax
 6199      000000
 6200 1eaf 4C89E7   		movq	%r12, %rdi
 6201 1eb2 48898424 		movq	%rax, 128(%rsp)
 6201      80000000 
 6202              	.LEHB121:
 6203 1eba E8000000 		call	_ZN8UnitTest12TestReporterD2Ev@PLT
 6203      00
 6204              	.LEHE121:
 6205 1ebf 488B8424 		movq	2232(%rsp), %rax
 6205      B8080000 
 6206 1ec7 64482B04 		subq	%fs:40, %rax
 6206      25280000 
 6206      00
 6207 1ed0 7512     		jne	.L430
 6208 1ed2 4881C4C8 		addq	$2248, %rsp
 6208      080000
 6209              		.cfi_remember_state
 6210              		.cfi_def_cfa_offset 56
 6211 1ed9 5B       		popq	%rbx
 6212              		.cfi_def_cfa_offset 48
 6213 1eda 5D       		popq	%rbp
 6214              		.cfi_def_cfa_offset 40
 6215 1edb 415C     		popq	%r12
 6216              		.cfi_def_cfa_offset 32
 6217 1edd 415D     		popq	%r13
 6218              		.cfi_def_cfa_offset 24
 6219 1edf 415E     		popq	%r14
 6220              		.cfi_def_cfa_offset 16
 6221 1ee1 415F     		popq	%r15
 6222              		.cfi_def_cfa_offset 8
 6223 1ee3 C3       		ret
 6224              	.L430:
 6225              		.cfi_restore_state
 6226 1ee4 E8000000 		call	__stack_chk_fail@PLT
 6226      00
 6227              	.L424:
 6228 1ee9 F30F1EFA 		endbr64
 6229 1eed 4889C7   		movq	%rax, %rdi
 6230 1ef0 E9000000 		jmp	.L413
 6230      00
 6231              	.L422:
 6232 1ef5 F30F1EFA 		endbr64
 6233 1ef9 4889C7   		movq	%rax, %rdi
 6234 1efc E9000000 		jmp	.L410
 6234      00
 6235              	.L418:
 6236 1f01 F30F1EFA 		endbr64
 6237 1f05 4889C7   		movq	%rax, %rdi
 6238 1f08 E9000000 		jmp	.L403
 6238      00
 6239              	.L420:
 6240 1f0d F30F1EFA 		endbr64
 6241 1f11 4889C7   		movq	%rax, %rdi
 6242 1f14 E9000000 		jmp	.L407
 6242      00
 6243              	.L426:
 6244 1f19 F30F1EFA 		endbr64
 6245 1f1d E9000000 		jmp	.L427
 6245      00
 6246              		.section	.gcc_except_table
 6247              		.align 4
 6248              	.LLSDA1253:
 6249 038c FF       		.byte	0xff
 6250 038d 9B       		.byte	0x9b
 6251 038e 2D       		.uleb128 .LLSDATT1253-.LLSDATTD1253
 6252              	.LLSDATTD1253:
 6253 038f 01       		.byte	0x1
 6254 0390 23       		.uleb128 .LLSDACSE1253-.LLSDACSB1253
 6255              	.LLSDACSB1253:
 6256 0391 D701     		.uleb128 .LEHB116-.LFB1253
 6257 0393 63       		.uleb128 .LEHE116-.LEHB116
 6258 0394 F904     		.uleb128 .L426-.LFB1253
 6259 0396 00       		.uleb128 0
 6260 0397 BA02     		.uleb128 .LEHB117-.LFB1253
 6261 0399 30       		.uleb128 .LEHE117-.LEHB117
 6262 039a E104     		.uleb128 .L418-.LFB1253
 6263 039c 01       		.uleb128 0x1
 6264 039d EA02     		.uleb128 .LEHB118-.LFB1253
 6265 039f 30       		.uleb128 .LEHE118-.LEHB118
 6266 03a0 ED04     		.uleb128 .L420-.LFB1253
 6267 03a2 01       		.uleb128 0x1
 6268 03a3 9A03     		.uleb128 .LEHB119-.LFB1253
 6269 03a5 34       		.uleb128 .LEHE119-.LEHB119
 6270 03a6 D504     		.uleb128 .L422-.LFB1253
 6271 03a8 01       		.uleb128 0x1
 6272 03a9 CE03     		.uleb128 .LEHB120-.LFB1253
 6273 03ab 3A       		.uleb128 .LEHE120-.LEHB120
 6274 03ac C904     		.uleb128 .L424-.LFB1253
 6275 03ae 01       		.uleb128 0x1
 6276 03af 9A04     		.uleb128 .LEHB121-.LFB1253
 6277 03b1 05       		.uleb128 .LEHE121-.LEHB121
 6278 03b2 00       		.uleb128 0
 6279 03b3 00       		.uleb128 0
 6280              	.LLSDACSE1253:
 6281 03b4 01       		.byte	0x1
 6282 03b5 00       		.byte	0
 6283 03b6 0000     		.align 4
 6284 03b8 00000000 		.long	0
 6285              	
 6286              	.LLSDATT1253:
 6287              		.text
 6288              		.cfi_endproc
 6289              		.section	.text.unlikely
 6290              		.cfi_startproc
 6291              		.cfi_personality 0x9b,DW.ref.__gxx_personality_v0
 6292              		.cfi_lsda 0x1b,.LLSDAC1253
 6294              	_ZNK12_GLOBAL__N_136TestCheckEqualFailureIncludesDetails7RunImplEv.cold:
 6295              	.LFSB1253:
 6296              	.L413:
 6297              		.cfi_def_cfa_offset 2304
 6298              		.cfi_offset 3, -56
 6299              		.cfi_offset 6, -48
 6300              		.cfi_offset 12, -40
 6301              		.cfi_offset 13, -32
 6302              		.cfi_offset 14, -24
 6303              		.cfi_offset 15, -16
 6304 0530 E8000000 		call	__cxa_begin_catch@PLT
 6304      00
 6305              	.LEHB122:
 6306 0535 E8000000 		call	_ZN8UnitTest11CurrentTest7ResultsEv@PLT
 6306      00
 6307 053a 4C8B28   		movq	(%rax), %r13
 6308 053d E8000000 		call	_ZN8UnitTest11CurrentTest7DetailsEv@PLT
 6308      00
 6309 0542 488B30   		movq	(%rax), %rsi
 6310 0545 BA600000 		movl	$96, %edx
 6310      00
 6311 054a 4889EF   		movq	%rbp, %rdi
 6312 054d E8000000 		call	_ZN8UnitTest11TestDetailsC1ERKS0_i@PLT
 6312      00
 6313 0552 488D1500 		leaq	.LC74(%rip), %rdx
 6313      000000
 6314 0559 4889EE   		movq	%rbp, %rsi
 6315 055c 4C89EF   		movq	%r13, %rdi
 6316 055f E8000000 		call	_ZN8UnitTest11TestResults13OnTestFailureERKNS_11TestDetailsEPKc@PLT
 6316      00
 6317              	.LEHE122:
 6318              	.LEHB123:
 6319 0564 E8000000 		call	__cxa_end_catch@PLT
 6319      00
 6320              	.LEHE123:
 6321 0569 E9000000 		jmp	.L414
 6321      00
 6322              	.L410:
 6323 056e E8000000 		call	__cxa_begin_catch@PLT
 6323      00
 6324              	.LEHB124:
 6325 0573 E8000000 		call	_ZN8UnitTest11CurrentTest7ResultsEv@PLT
 6325      00
 6326 0578 4C8B28   		movq	(%rax), %r13
 6327 057b E8000000 		call	_ZN8UnitTest11CurrentTest7DetailsEv@PLT
 6327      00
 6328 0580 488B30   		movq	(%rax), %rsi
 6329 0583 BA5F0000 		movl	$95, %edx
 6329      00
 6330 0588 4889EF   		movq	%rbp, %rdi
 6331 058b E8000000 		call	_ZN8UnitTest11TestDetailsC1ERKS0_i@PLT
 6331      00
 6332 0590 488D1500 		leaq	.LC73(%rip), %rdx
 6332      000000
 6333 0597 4889EE   		movq	%rbp, %rsi
 6334 059a 4C89EF   		movq	%r13, %rdi
 6335 059d E8000000 		call	_ZN8UnitTest11TestResults13OnTestFailureERKNS_11TestDetailsEPKc@PLT
 6335      00
 6336              	.LEHE124:
 6337              	.LEHB125:
 6338 05a2 E8000000 		call	__cxa_end_catch@PLT
 6338      00
 6339              	.LEHE125:
 6340 05a7 E9000000 		jmp	.L411
 6340      00
 6341              	.L407:
 6342 05ac E8000000 		call	__cxa_begin_catch@PLT
 6342      00
 6343              	.LEHB126:
 6344 05b1 E8000000 		call	_ZN8UnitTest11CurrentTest7ResultsEv@PLT
 6344      00
 6345 05b6 4C8B28   		movq	(%rax), %r13
 6346 05b9 E8000000 		call	_ZN8UnitTest11CurrentTest7DetailsEv@PLT
 6346      00
 6347 05be 488B30   		movq	(%rax), %rsi
 6348 05c1 BA5E0000 		movl	$94, %edx
 6348      00
 6349 05c6 4889EF   		movq	%rbp, %rdi
 6350 05c9 E8000000 		call	_ZN8UnitTest11TestDetailsC1ERKS0_i@PLT
 6350      00
 6351 05ce 488D1500 		leaq	.LC72(%rip), %rdx
 6351      000000
 6352 05d5 4889EE   		movq	%rbp, %rsi
 6353 05d8 4C89EF   		movq	%r13, %rdi
 6354 05db E8000000 		call	_ZN8UnitTest11TestResults13OnTestFailureERKNS_11TestDetailsEPKc@PLT
 6354      00
 6355              	.LEHE126:
 6356              	.LEHB127:
 6357 05e0 E8000000 		call	__cxa_end_catch@PLT
 6357      00
 6358              	.LEHE127:
 6359 05e5 E9000000 		jmp	.L408
 6359      00
 6360              	.L423:
 6361 05ea F30F1EFA 		endbr64
 6362 05ee 4889C5   		movq	%rax, %rbp
 6363 05f1 E8000000 		call	__cxa_end_catch@PLT
 6363      00
 6364              	.L406:
 6365 05f6 488D0500 		leaq	16+_ZTV17RecordingReporter(%rip), %rax
 6365      000000
 6366 05fd 4C89E7   		movq	%r12, %rdi
 6367 0600 48898424 		movq	%rax, 128(%rsp)
 6367      80000000 
 6368 0608 E8000000 		call	_ZN8UnitTest12TestReporterD2Ev@PLT
 6368      00
 6369 060d 4889EF   		movq	%rbp, %rdi
 6370              	.LEHB128:
 6371 0610 E8000000 		call	_Unwind_Resume@PLT
 6371      00
 6372              	.LEHE128:
 6373              	.L421:
 6374 0615 F30F1EFA 		endbr64
 6375 0619 4889C5   		movq	%rax, %rbp
 6376 061c E8000000 		call	__cxa_end_catch@PLT
 6376      00
 6377 0621 EBD3     		jmp	.L406
 6378              	.L403:
 6379 0623 E8000000 		call	__cxa_begin_catch@PLT
 6379      00
 6380              	.LEHB129:
 6381 0628 E8000000 		call	_ZN8UnitTest11CurrentTest7ResultsEv@PLT
 6381      00
 6382 062d 4C8B30   		movq	(%rax), %r14
 6383 0630 E8000000 		call	_ZN8UnitTest11CurrentTest7DetailsEv@PLT
 6383      00
 6384 0635 488B30   		movq	(%rax), %rsi
 6385 0638 BA5D0000 		movl	$93, %edx
 6385      00
 6386 063d 4889EF   		movq	%rbp, %rdi
 6387 0640 E8000000 		call	_ZN8UnitTest11TestDetailsC1ERKS0_i@PLT
 6387      00
 6388 0645 488D1500 		leaq	.LC71(%rip), %rdx
 6388      000000
 6389 064c 4889EE   		movq	%rbp, %rsi
 6390 064f 4C89F7   		movq	%r14, %rdi
 6391 0652 E8000000 		call	_ZN8UnitTest11TestResults13OnTestFailureERKNS_11TestDetailsEPKc@PLT
 6391      00
 6392              	.LEHE129:
 6393              	.LEHB130:
 6394 0657 E8000000 		call	__cxa_end_catch@PLT
 6394      00
 6395              	.LEHE130:
 6396 065c E9000000 		jmp	.L404
 6396      00
 6397              	.L417:
 6398 0661 F30F1EFA 		endbr64
 6399              	.L427:
 6400 0665 4889C5   		movq	%rax, %rbp
 6401 0668 EB8C     		jmp	.L406
 6402              	.L419:
 6403 066a F30F1EFA 		endbr64
 6404 066e 4889C5   		movq	%rax, %rbp
 6405 0671 E8000000 		call	__cxa_end_catch@PLT
 6405      00
 6406 0676 E97BFFFF 		jmp	.L406
 6406      FF
 6407              	.L425:
 6408 067b F30F1EFA 		endbr64
 6409 067f 4889C5   		movq	%rax, %rbp
 6410 0682 E8000000 		call	__cxa_end_catch@PLT
 6410      00
 6411 0687 E96AFFFF 		jmp	.L406
 6411      FF
 6412              		.cfi_endproc
 6413              	.LFE1253:
 6414              		.section	.gcc_except_table
 6415              		.align 4
 6416              	.LLSDAC1253:
 6417 03bc FF       		.byte	0xff
 6418 03bd 9B       		.byte	0x9b
 6419 03be 39       		.uleb128 .LLSDATTC1253-.LLSDATTDC1253
 6420              	.LLSDATTDC1253:
 6421 03bf 01       		.byte	0x1
 6422 03c0 31       		.uleb128 .LLSDACSEC1253-.LLSDACSBC1253
 6423              	.LLSDACSBC1253:
 6424 03c1 05       		.uleb128 .LEHB122-.LCOLDB75
 6425 03c2 2F       		.uleb128 .LEHE122-.LEHB122
 6426 03c3 CB02     		.uleb128 .L425-.LCOLDB75
 6427 03c5 00       		.uleb128 0
 6428 03c6 34       		.uleb128 .LEHB123-.LCOLDB75
 6429 03c7 05       		.uleb128 .LEHE123-.LEHB123
 6430 03c8 B102     		.uleb128 .L417-.LCOLDB75
 6431 03ca 00       		.uleb128 0
 6432 03cb 43       		.uleb128 .LEHB124-.LCOLDB75
 6433 03cc 2F       		.uleb128 .LEHE124-.LEHB124
 6434 03cd BA01     		.uleb128 .L423-.LCOLDB75
 6435 03cf 00       		.uleb128 0
 6436 03d0 72       		.uleb128 .LEHB125-.LCOLDB75
 6437 03d1 05       		.uleb128 .LEHE125-.LEHB125
 6438 03d2 B102     		.uleb128 .L417-.LCOLDB75
 6439 03d4 00       		.uleb128 0
 6440 03d5 8101     		.uleb128 .LEHB126-.LCOLDB75
 6441 03d7 2F       		.uleb128 .LEHE126-.LEHB126
 6442 03d8 E501     		.uleb128 .L421-.LCOLDB75
 6443 03da 00       		.uleb128 0
 6444 03db B001     		.uleb128 .LEHB127-.LCOLDB75
 6445 03dd 05       		.uleb128 .LEHE127-.LEHB127
 6446 03de B102     		.uleb128 .L417-.LCOLDB75
 6447 03e0 00       		.uleb128 0
 6448 03e1 E001     		.uleb128 .LEHB128-.LCOLDB75
 6449 03e3 05       		.uleb128 .LEHE128-.LEHB128
 6450 03e4 00       		.uleb128 0
 6451 03e5 00       		.uleb128 0
 6452 03e6 F801     		.uleb128 .LEHB129-.LCOLDB75
 6453 03e8 2F       		.uleb128 .LEHE129-.LEHB129
 6454 03e9 BA02     		.uleb128 .L419-.LCOLDB75
 6455 03eb 00       		.uleb128 0
 6456 03ec A702     		.uleb128 .LEHB130-.LCOLDB75
 6457 03ee 05       		.uleb128 .LEHE130-.LEHB130
 6458 03ef B102     		.uleb128 .L417-.LCOLDB75
 6459 03f1 00       		.uleb128 0
 6460              	.LLSDACSEC1253:
 6461 03f2 01       		.byte	0x1
 6462 03f3 00       		.byte	0
 6463              		.align 4
 6464 03f4 00000000 		.long	0
 6465              	
 6466              	.LLSDATTC1253:
 6467              		.section	.text.unlikely
 6468              		.text
 6470              		.section	.text.unlikely
 6472              	.LCOLDE75:
 6473              		.text
 6474              	.LHOTE75:
 6475              		.section	.rodata.str1.1
 6476              	.LC76:
 6477 0075 78706563 		.string	"xpected 1"
 6477      74656420 
 6477      3100
 6478              		.section	.rodata.str1.8
 6479 0351 00000000 		.align 8
 6479      000000
 6480              	.LC77:
 6481 0358 73747273 		.string	"strstr(reporter.lastFailedMessage, \"xpected 1\")"
 6481      74722872 
 6481      65706F72 
 6481      7465722E 
 6481      6C617374 
 6482              		.section	.rodata.str1.1
 6483              	.LC78:
 6484 007f 77617320 		.string	"was 2"
 6484      3200
 6485              		.section	.rodata.str1.8
 6486              		.align 8
 6487              	.LC79:
 6488 0388 73747273 		.string	"strstr(reporter.lastFailedMessage, \"was 2\")"
 6488      74722872 
 6488      65706F72 
 6488      7465722E 
 6488      6C617374 
 6489 03b4 00000000 		.align 8
 6490              	.LC80:
 6491 03b8 556E6861 		.string	"Unhandled exception in CHECK(strstr(reporter.lastFailedMessage, \"xpected 1\"))"
 6491      6E646C65 
 6491      64206578 
 6491      63657074 
 6491      696F6E20 
 6492 0406 0000     		.align 8
 6493              	.LC81:
 6494 0408 556E6861 		.string	"Unhandled exception in CHECK(strstr(reporter.lastFailedMessage, \"was 2\"))"
 6494      6E646C65 
 6494      64206578 
 6494      63657074 
 6494      696F6E20 
 6495              		.section	.text.unlikely
 6496              		.align 2
 6497              	.LCOLDB82:
 6498              		.text
 6499              	.LHOTB82:
 6500              		.align 2
 6501 1f22 66662E0F 		.p2align 4
 6501      1F840000 
 6501      0000000F 
 6501      1F00
 6503              	_ZNK12_GLOBAL__N_151TestCheckEqualFailureIncludesCheckExpectedAndActual7RunImplEv:
 6504              	.LFB1249:
 6505              		.cfi_startproc
 6506              		.cfi_personality 0x9b,DW.ref.__gxx_personality_v0
 6507              		.cfi_lsda 0x1b,.LLSDA1249
 6508 1f30 F30F1EFA 		endbr64
 6509 1f34 4156     		pushq	%r14
 6510              		.cfi_def_cfa_offset 16
 6511              		.cfi_offset 14, -16
 6512 1f36 4155     		pushq	%r13
 6513              		.cfi_def_cfa_offset 24
 6514              		.cfi_offset 13, -24
 6515 1f38 4154     		pushq	%r12
 6516              		.cfi_def_cfa_offset 32
 6517              		.cfi_offset 12, -32
 6518 1f3a 55       		pushq	%rbp
 6519              		.cfi_def_cfa_offset 40
 6520              		.cfi_offset 6, -40
 6521 1f3b 53       		pushq	%rbx
 6522              		.cfi_def_cfa_offset 48
 6523              		.cfi_offset 3, -48
 6524 1f3c 488D1D00 		leaq	16+_ZTV17RecordingReporter(%rip), %rbx
 6524      000000
 6525 1f43 4881EC90 		subq	$2192, %rsp
 6525      080000
 6526              		.cfi_def_cfa_offset 2240
 6527 1f4a 64488B04 		movq	%fs:40, %rax
 6527      25280000 
 6527      00
 6528 1f53 48898424 		movq	%rax, 2184(%rsp)
 6528      88080000 
 6529 1f5b 31C0     		xorl	%eax, %eax
 6530 1f5d 4C8D6424 		leaq	80(%rsp), %r12
 6530      50
 6531 1f62 4C8D6C24 		leaq	16(%rsp), %r13
 6531      10
 6532 1f67 48895C24 		movq	%rbx, 80(%rsp)
 6532      50
 6533 1f6c 4C89E6   		movq	%r12, %rsi
 6534 1f6f 4C89EF   		movq	%r13, %rdi
 6535 1f72 C7442458 		movl	$0, 88(%rsp)
 6535      00000000 
 6536 1f7a C784245C 		movl	$0, 604(%rsp)
 6536      02000000 
 6536      000000
 6537 1f85 C7842460 		movl	$0, 864(%rsp)
 6537      03000000 
 6537      000000
 6538 1f90 C7842464 		movl	$0, 1636(%rsp)
 6538      06000000 
 6538      000000
 6539 1f9b 48C78424 		movq	$0, 2152(%rsp)
 6539      68080000 
 6539      00000000 
 6540 1fa7 48C78424 		movq	$0, 2160(%rsp)
 6540      70080000 
 6540      00000000 
 6541 1fb3 C7842478 		movl	$0x00000000, 2168(%rsp)
 6541      08000000 
 6541      000000
 6542 1fbe C644245C 		movb	$0, 92(%rsp)
 6542      00
 6543 1fc3 C684245C 		movb	$0, 348(%rsp)
 6543      01000000 
 6544 1fcb C6842460 		movb	$0, 608(%rsp)
 6544      02000000 
 6545 1fd3 C6842464 		movb	$0, 868(%rsp)
 6545      03000000 
 6546 1fdb C6842464 		movb	$0, 1124(%rsp)
 6546      04000000 
 6547 1fe3 C6842464 		movb	$0, 1380(%rsp)
 6547      05000000 
 6548 1feb C6842468 		movb	$0, 1640(%rsp)
 6548      06000000 
 6549 1ff3 C6842468 		movb	$0, 1896(%rsp)
 6549      07000000 
 6550              	.LEHB131:
 6551 1ffb E8000000 		call	_ZN8UnitTest11TestResultsC1EPNS_12TestReporterE@PLT
 6551      00
 6552 2000 488D3500 		leaq	.LC62(%rip), %rsi
 6552      000000
 6553 2007 488D6C24 		leaq	48(%rsp), %rbp
 6553      30
 6554 200c 4531C0   		xorl	%r8d, %r8d
 6555 200f C7442408 		movl	$2, 8(%rsp)
 6555      02000000 
 6556 2017 4889F1   		movq	%rsi, %rcx
 6557 201a 4889F2   		movq	%rsi, %rdx
 6558 201d 4889EF   		movq	%rbp, %rdi
 6559 2020 E8000000 		call	_ZN8UnitTest11TestDetailsC1EPKcS2_S2_i@PLT
 6559      00
 6560 2025 488D5424 		leaq	8(%rsp), %rdx
 6560      08
 6561 202a 488D7424 		leaq	12(%rsp), %rsi
 6561      0C
 6562 202f 4889E9   		movq	%rbp, %rcx
 6563 2032 4C89EF   		movq	%r13, %rdi
 6564 2035 C744240C 		movl	$1, 12(%rsp)
 6564      01000000 
 6565 203d E8000000 		call	_ZN8UnitTest10CheckEqualIiiEEvRNS_11TestResultsERKT_RKT0_RKNS_11TestDetailsE
 6565      00
 6566              	.LEHE131:
 6567 2042 4C8DAC24 		leaq	1380(%rsp), %r13
 6567      64050000 
 6568 204a 488D3500 		leaq	.LC76(%rip), %rsi
 6568      000000
 6569 2051 4C89EF   		movq	%r13, %rdi
 6570 2054 E8000000 		call	strstr@PLT
 6570      00
 6571 2059 4885C0   		testq	%rax, %rax
 6572 205c 0F848600 		je	.L453
 6572      0000
 6573              	.L433:
 6574 2062 488D3500 		leaq	.LC78(%rip), %rsi
 6574      000000
 6575 2069 4C89EF   		movq	%r13, %rdi
 6576 206c E8000000 		call	strstr@PLT
 6576      00
 6577 2071 4885C0   		testq	%rax, %rax
 6578 2074 743A     		je	.L454
 6579              	.L435:
 6580 2076 4C89E7   		movq	%r12, %rdi
 6581 2079 48895C24 		movq	%rbx, 80(%rsp)
 6581      50
 6582              	.LEHB132:
 6583 207e E8000000 		call	_ZN8UnitTest12TestReporterD2Ev@PLT
 6583      00
 6584              	.LEHE132:
 6585 2083 488B8424 		movq	2184(%rsp), %rax
 6585      88080000 
 6586 208b 64482B04 		subq	%fs:40, %rax
 6586      25280000 
 6586      00
 6587 2094 0F858200 		jne	.L455
 6587      0000
 6588 209a 4881C490 		addq	$2192, %rsp
 6588      080000
 6589              		.cfi_remember_state
 6590              		.cfi_def_cfa_offset 48
 6591 20a1 5B       		popq	%rbx
 6592              		.cfi_def_cfa_offset 40
 6593 20a2 5D       		popq	%rbp
 6594              		.cfi_def_cfa_offset 32
 6595 20a3 415C     		popq	%r12
 6596              		.cfi_def_cfa_offset 24
 6597 20a5 415D     		popq	%r13
 6598              		.cfi_def_cfa_offset 16
 6599 20a7 415E     		popq	%r14
 6600              		.cfi_def_cfa_offset 8
 6601 20a9 C3       		ret
 6602 20aa 660F1F44 		.p2align 4,,10
 6602      0000
 6603              		.p2align 3
 6604              	.L454:
 6605              		.cfi_restore_state
 6606              	.LEHB133:
 6607 20b0 E8000000 		call	_ZN8UnitTest11CurrentTest7ResultsEv@PLT
 6607      00
 6608 20b5 4C8B28   		movq	(%rax), %r13
 6609 20b8 E8000000 		call	_ZN8UnitTest11CurrentTest7DetailsEv@PLT
 6609      00
 6610 20bd 488B30   		movq	(%rax), %rsi
 6611 20c0 BA520000 		movl	$82, %edx
 6611      00
 6612 20c5 4889EF   		movq	%rbp, %rdi
 6613 20c8 E8000000 		call	_ZN8UnitTest11TestDetailsC1ERKS0_i@PLT
 6613      00
 6614 20cd 488D1500 		leaq	.LC79(%rip), %rdx
 6614      000000
 6615 20d4 4889EE   		movq	%rbp, %rsi
 6616 20d7 4C89EF   		movq	%r13, %rdi
 6617 20da E8000000 		call	_ZN8UnitTest11TestResults13OnTestFailureERKNS_11TestDetailsEPKc@PLT
 6617      00
 6618              	.LEHE133:
 6619 20df EB95     		jmp	.L435
 6620              		.p2align 4,,10
 6621 20e1 0F1F8000 		.p2align 3
 6621      000000
 6622              	.L453:
 6623              	.LEHB134:
 6624 20e8 E8000000 		call	_ZN8UnitTest11CurrentTest7ResultsEv@PLT
 6624      00
 6625 20ed 4C8B30   		movq	(%rax), %r14
 6626 20f0 E8000000 		call	_ZN8UnitTest11CurrentTest7DetailsEv@PLT
 6626      00
 6627 20f5 488B30   		movq	(%rax), %rsi
 6628 20f8 BA510000 		movl	$81, %edx
 6628      00
 6629 20fd 4889EF   		movq	%rbp, %rdi
 6630 2100 E8000000 		call	_ZN8UnitTest11TestDetailsC1ERKS0_i@PLT
 6630      00
 6631 2105 488D1500 		leaq	.LC77(%rip), %rdx
 6631      000000
 6632 210c 4889EE   		movq	%rbp, %rsi
 6633 210f 4C89F7   		movq	%r14, %rdi
 6634 2112 E8000000 		call	_ZN8UnitTest11TestResults13OnTestFailureERKNS_11TestDetailsEPKc@PLT
 6634      00
 6635              	.LEHE134:
 6636 2117 E946FFFF 		jmp	.L433
 6636      FF
 6637              	.L455:
 6638 211c E8000000 		call	__stack_chk_fail@PLT
 6638      00
 6639              	.L445:
 6640 2121 F30F1EFA 		endbr64
 6641 2125 4889C7   		movq	%rax, %rdi
 6642 2128 E9000000 		jmp	.L436
 6642      00
 6643              	.L449:
 6644 212d F30F1EFA 		endbr64
 6645 2131 E9000000 		jmp	.L450
 6645      00
 6646              	.L447:
 6647 2136 F30F1EFA 		endbr64
 6648 213a 4889C7   		movq	%rax, %rdi
 6649 213d E9000000 		jmp	.L440
 6649      00
 6650              		.section	.gcc_except_table
 6651              		.align 4
 6652              	.LLSDA1249:
 6653 03f8 FF       		.byte	0xff
 6654 03f9 9B       		.byte	0x9b
 6655 03fa 21       		.uleb128 .LLSDATT1249-.LLSDATTD1249
 6656              	.LLSDATTD1249:
 6657 03fb 01       		.byte	0x1
 6658 03fc 17       		.uleb128 .LLSDACSE1249-.LLSDACSB1249
 6659              	.LLSDACSB1249:
 6660 03fd CB01     		.uleb128 .LEHB131-.LFB1249
 6661 03ff 47       		.uleb128 .LEHE131-.LEHB131
 6662 0400 FD03     		.uleb128 .L449-.LFB1249
 6663 0402 00       		.uleb128 0
 6664 0403 CE02     		.uleb128 .LEHB132-.LFB1249
 6665 0405 05       		.uleb128 .LEHE132-.LEHB132
 6666 0406 00       		.uleb128 0
 6667 0407 00       		.uleb128 0
 6668 0408 8003     		.uleb128 .LEHB133-.LFB1249
 6669 040a 2F       		.uleb128 .LEHE133-.LEHB133
 6670 040b 8604     		.uleb128 .L447-.LFB1249
 6671 040d 01       		.uleb128 0x1
 6672 040e B803     		.uleb128 .LEHB134-.LFB1249
 6673 0410 2F       		.uleb128 .LEHE134-.LEHB134
 6674 0411 F103     		.uleb128 .L445-.LFB1249
 6675 0413 01       		.uleb128 0x1
 6676              	.LLSDACSE1249:
 6677 0414 01       		.byte	0x1
 6678 0415 00       		.byte	0
 6679 0416 0000     		.align 4
 6680 0418 00000000 		.long	0
 6681              	
 6682              	.LLSDATT1249:
 6683              		.text
 6684              		.cfi_endproc
 6685              		.section	.text.unlikely
 6686              		.cfi_startproc
 6687              		.cfi_personality 0x9b,DW.ref.__gxx_personality_v0
 6688              		.cfi_lsda 0x1b,.LLSDAC1249
 6690              	_ZNK12_GLOBAL__N_151TestCheckEqualFailureIncludesCheckExpectedAndActual7RunImplEv.cold:
 6691              	.LFSB1249:
 6692              	.L436:
 6693              		.cfi_def_cfa_offset 2240
 6694              		.cfi_offset 3, -48
 6695              		.cfi_offset 6, -40
 6696              		.cfi_offset 12, -32
 6697              		.cfi_offset 13, -24
 6698              		.cfi_offset 14, -16
 6699 068c E8000000 		call	__cxa_begin_catch@PLT
 6699      00
 6700              	.LEHB135:
 6701 0691 E8000000 		call	_ZN8UnitTest11CurrentTest7ResultsEv@PLT
 6701      00
 6702 0696 4C8B30   		movq	(%rax), %r14
 6703 0699 E8000000 		call	_ZN8UnitTest11CurrentTest7DetailsEv@PLT
 6703      00
 6704 069e 488B30   		movq	(%rax), %rsi
 6705 06a1 BA510000 		movl	$81, %edx
 6705      00
 6706 06a6 4889EF   		movq	%rbp, %rdi
 6707 06a9 E8000000 		call	_ZN8UnitTest11TestDetailsC1ERKS0_i@PLT
 6707      00
 6708 06ae 488D1500 		leaq	.LC80(%rip), %rdx
 6708      000000
 6709 06b5 4889EE   		movq	%rbp, %rsi
 6710 06b8 4C89F7   		movq	%r14, %rdi
 6711 06bb E8000000 		call	_ZN8UnitTest11TestResults13OnTestFailureERKNS_11TestDetailsEPKc@PLT
 6711      00
 6712              	.LEHE135:
 6713              	.LEHB136:
 6714 06c0 E8000000 		call	__cxa_end_catch@PLT
 6714      00
 6715              	.LEHE136:
 6716 06c5 E9000000 		jmp	.L433
 6716      00
 6717              	.L444:
 6718 06ca F30F1EFA 		endbr64
 6719              	.L450:
 6720 06ce 4889C5   		movq	%rax, %rbp
 6721              	.L439:
 6722 06d1 4C89E7   		movq	%r12, %rdi
 6723 06d4 48895C24 		movq	%rbx, 80(%rsp)
 6723      50
 6724 06d9 E8000000 		call	_ZN8UnitTest12TestReporterD2Ev@PLT
 6724      00
 6725 06de 4889EF   		movq	%rbp, %rdi
 6726              	.LEHB137:
 6727 06e1 E8000000 		call	_Unwind_Resume@PLT
 6727      00
 6728              	.LEHE137:
 6729              	.L440:
 6730 06e6 E8000000 		call	__cxa_begin_catch@PLT
 6730      00
 6731              	.LEHB138:
 6732 06eb E8000000 		call	_ZN8UnitTest11CurrentTest7ResultsEv@PLT
 6732      00
 6733 06f0 4C8B28   		movq	(%rax), %r13
 6734 06f3 E8000000 		call	_ZN8UnitTest11CurrentTest7DetailsEv@PLT
 6734      00
 6735 06f8 488B30   		movq	(%rax), %rsi
 6736 06fb BA520000 		movl	$82, %edx
 6736      00
 6737 0700 4889EF   		movq	%rbp, %rdi
 6738 0703 E8000000 		call	_ZN8UnitTest11TestDetailsC1ERKS0_i@PLT
 6738      00
 6739 0708 488D1500 		leaq	.LC81(%rip), %rdx
 6739      000000
 6740 070f 4889EE   		movq	%rbp, %rsi
 6741 0712 4C89EF   		movq	%r13, %rdi
 6742 0715 E8000000 		call	_ZN8UnitTest11TestResults13OnTestFailureERKNS_11TestDetailsEPKc@PLT
 6742      00
 6743              	.LEHE138:
 6744              	.LEHB139:
 6745 071a E8000000 		call	__cxa_end_catch@PLT
 6745      00
 6746              	.LEHE139:
 6747 071f E9000000 		jmp	.L435
 6747      00
 6748              	.L448:
 6749 0724 F30F1EFA 		endbr64
 6750 0728 4889C5   		movq	%rax, %rbp
 6751 072b E8000000 		call	__cxa_end_catch@PLT
 6751      00
 6752 0730 EB9F     		jmp	.L439
 6753              	.L446:
 6754 0732 F30F1EFA 		endbr64
 6755 0736 4889C5   		movq	%rax, %rbp
 6756 0739 E8000000 		call	__cxa_end_catch@PLT
 6756      00
 6757 073e EB91     		jmp	.L439
 6758              		.cfi_endproc
 6759              	.LFE1249:
 6760              		.section	.gcc_except_table
 6761              		.align 4
 6762              	.LLSDAC1249:
 6763 041c FF       		.byte	0xff
 6764 041d 9B       		.byte	0x9b
 6765 041e 21       		.uleb128 .LLSDATTC1249-.LLSDATTDC1249
 6766              	.LLSDATTDC1249:
 6767 041f 01       		.byte	0x1
 6768 0420 17       		.uleb128 .LLSDACSEC1249-.LLSDACSBC1249
 6769              	.LLSDACSBC1249:
 6770 0421 05       		.uleb128 .LEHB135-.LCOLDB82
 6771 0422 2F       		.uleb128 .LEHE135-.LEHB135
 6772 0423 A601     		.uleb128 .L446-.LCOLDB82
 6773 0425 00       		.uleb128 0
 6774 0426 34       		.uleb128 .LEHB136-.LCOLDB82
 6775 0427 05       		.uleb128 .LEHE136-.LEHB136
 6776 0428 3E       		.uleb128 .L444-.LCOLDB82
 6777 0429 00       		.uleb128 0
 6778 042a 55       		.uleb128 .LEHB137-.LCOLDB82
 6779 042b 05       		.uleb128 .LEHE137-.LEHB137
 6780 042c 00       		.uleb128 0
 6781 042d 00       		.uleb128 0
 6782 042e 5F       		.uleb128 .LEHB138-.LCOLDB82
 6783 042f 2F       		.uleb128 .LEHE138-.LEHB138
 6784 0430 9801     		.uleb128 .L448-.LCOLDB82
 6785 0432 00       		.uleb128 0
 6786 0433 8E01     		.uleb128 .LEHB139-.LCOLDB82
 6787 0435 05       		.uleb128 .LEHE139-.LEHB139
 6788 0436 3E       		.uleb128 .L444-.LCOLDB82
 6789 0437 00       		.uleb128 0
 6790              	.LLSDACSEC1249:
 6791 0438 01       		.byte	0x1
 6792 0439 00       		.byte	0
 6793 043a 0000     		.align 4
 6794 043c 00000000 		.long	0
 6795              	
 6796              	.LLSDATTC1249:
 6797              		.section	.text.unlikely
 6798              		.text
 6800              		.section	.text.unlikely
 6802              	.LCOLDE82:
 6803              		.text
 6804              	.LHOTE82:
 6805              		.section	.rodata.str1.1
 6806              	.LC83:
 6807 0085 48656C6C 		.string	"Hello"
 6807      6F00
 6808              		.section	.text.unlikely
 6809              		.align 2
 6810              	.LCOLDB84:
 6811              		.text
 6812              	.LHOTB84:
 6813              		.align 2
 6814 2142 66662E0F 		.p2align 4
 6814      1F840000 
 6814      0000000F 
 6814      1F00
 6816              	_ZNK12_GLOBAL__N_153TestCheckEqualsWithStringsWorksOnContentsWithALiteral7RunImplEv:
 6817              	.LFB1245:
 6818              		.cfi_startproc
 6819              		.cfi_personality 0x9b,DW.ref.__gxx_personality_v0
 6820              		.cfi_lsda 0x1b,.LLSDA1245
 6821 2150 F30F1EFA 		endbr64
 6822 2154 4154     		pushq	%r12
 6823              		.cfi_def_cfa_offset 16
 6824              		.cfi_offset 12, -16
 6825 2156 31F6     		xorl	%esi, %esi
 6826 2158 55       		pushq	%rbp
 6827              		.cfi_def_cfa_offset 24
 6828              		.cfi_offset 6, -24
 6829 2159 4883EC68 		subq	$104, %rsp
 6830              		.cfi_def_cfa_offset 128
 6831 215d 64488B04 		movq	%fs:40, %rax
 6831      25280000 
 6831      00
 6832 2166 48894424 		movq	%rax, 88(%rsp)
 6832      58
 6833 216b 31C0     		xorl	%eax, %eax
 6834 216d 4C8D6424 		leaq	16(%rsp), %r12
 6834      10
 6835 2172 488D6C24 		leaq	48(%rsp), %rbp
 6835      30
 6836 2177 4C89E7   		movq	%r12, %rdi
 6837              	.LEHB140:
 6838 217a E8000000 		call	_ZN8UnitTest11TestResultsC1EPNS_12TestReporterE@PLT
 6838      00
 6839 217f 488D3500 		leaq	.LC62(%rip), %rsi
 6839      000000
 6840 2186 4889EF   		movq	%rbp, %rdi
 6841 2189 4531C0   		xorl	%r8d, %r8d
 6842 218c 4889F1   		movq	%rsi, %rcx
 6843 218f 4889F2   		movq	%rsi, %rdx
 6844 2192 E8000000 		call	_ZN8UnitTest11TestDetailsC1EPKcS2_S2_i@PLT
 6844      00
 6845 2197 4889E9   		movq	%rbp, %rcx
 6846 219a 488D1500 		leaq	_ZN12_GLOBAL__N_14txt1E(%rip), %rdx
 6846      000000
 6847 21a1 4C89E7   		movq	%r12, %rdi
 6848 21a4 488D3500 		leaq	.LC83(%rip), %rsi
 6848      000000
 6849 21ab E8000000 		call	_ZN8UnitTest10CheckEqualERNS_11TestResultsEPKcS3_RKNS_11TestDetailsE@PLT
 6849      00
 6850              	.LEHE140:
 6851              	.LEHB141:
 6852 21b0 E8000000 		call	_ZN8UnitTest11CurrentTest7DetailsEv@PLT
 6852      00
 6853 21b5 488B30   		movq	(%rax), %rsi
 6854 21b8 BA460000 		movl	$70, %edx
 6854      00
 6855 21bd 4889EF   		movq	%rbp, %rdi
 6856 21c0 E8000000 		call	_ZN8UnitTest11TestDetailsC1ERKS0_i@PLT
 6856      00
 6857 21c5 4C89E7   		movq	%r12, %rdi
 6858 21c8 E8000000 		call	_ZNK8UnitTest11TestResults15GetFailureCountEv@PLT
 6858      00
 6859 21cd 8944240C 		movl	%eax, 12(%rsp)
 6860 21d1 C7442408 		movl	$0, 8(%rsp)
 6860      00000000 
 6861 21d9 E8000000 		call	_ZN8UnitTest11CurrentTest7ResultsEv@PLT
 6861      00
 6862 21de 488B38   		movq	(%rax), %rdi
 6863 21e1 488D5424 		leaq	12(%rsp), %rdx
 6863      0C
 6864 21e6 488D7424 		leaq	8(%rsp), %rsi
 6864      08
 6865 21eb 4889E9   		movq	%rbp, %rcx
 6866 21ee E8000000 		call	_ZN8UnitTest10CheckEqualIiiEEvRNS_11TestResultsERKT_RKT0_RKNS_11TestDetailsE
 6866      00
 6867              	.LEHE141:
 6868              	.L456:
 6869 21f3 488B4424 		movq	88(%rsp), %rax
 6869      58
 6870 21f8 64482B04 		subq	%fs:40, %rax
 6870      25280000 
 6870      00
 6871 2201 7508     		jne	.L464
 6872 2203 4883C468 		addq	$104, %rsp
 6873              		.cfi_remember_state
 6874              		.cfi_def_cfa_offset 24
 6875 2207 5D       		popq	%rbp
 6876              		.cfi_def_cfa_offset 16
 6877 2208 415C     		popq	%r12
 6878              		.cfi_def_cfa_offset 8
 6879 220a C3       		ret
 6880              	.L464:
 6881              		.cfi_restore_state
 6882 220b E8000000 		call	__stack_chk_fail@PLT
 6882      00
 6883              	.L461:
 6884 2210 F30F1EFA 		endbr64
 6885 2214 4889C7   		movq	%rax, %rdi
 6886 2217 E9000000 		jmp	.L457
 6886      00
 6887              		.section	.gcc_except_table
 6888              		.align 4
 6889              	.LLSDA1245:
 6890 0440 FF       		.byte	0xff
 6891 0441 9B       		.byte	0x9b
 6892 0442 11       		.uleb128 .LLSDATT1245-.LLSDATTD1245
 6893              	.LLSDATTD1245:
 6894 0443 01       		.byte	0x1
 6895 0444 09       		.uleb128 .LLSDACSE1245-.LLSDACSB1245
 6896              	.LLSDACSB1245:
 6897 0445 2A       		.uleb128 .LEHB140-.LFB1245
 6898 0446 36       		.uleb128 .LEHE140-.LEHB140
 6899 0447 00       		.uleb128 0
 6900 0448 00       		.uleb128 0
 6901 0449 60       		.uleb128 .LEHB141-.LFB1245
 6902 044a 43       		.uleb128 .LEHE141-.LEHB141
 6903 044b C001     		.uleb128 .L461-.LFB1245
 6904 044d 01       		.uleb128 0x1
 6905              	.LLSDACSE1245:
 6906 044e 01       		.byte	0x1
 6907 044f 00       		.byte	0
 6908              		.align 4
 6909 0450 00000000 		.long	0
 6910              	
 6911              	.LLSDATT1245:
 6912              		.text
 6913              		.cfi_endproc
 6914              		.section	.text.unlikely
 6915              		.cfi_startproc
 6916              		.cfi_personality 0x9b,DW.ref.__gxx_personality_v0
 6917              		.cfi_lsda 0x1b,.LLSDAC1245
 6919              	_ZNK12_GLOBAL__N_153TestCheckEqualsWithStringsWorksOnContentsWithALiteral7RunImplEv.cold:
 6920              	.LFSB1245:
 6921              	.L457:
 6922              		.cfi_def_cfa_offset 128
 6923              		.cfi_offset 6, -24
 6924              		.cfi_offset 12, -16
 6925 0740 E8000000 		call	__cxa_begin_catch@PLT
 6925      00
 6926              	.LEHB142:
 6927 0745 E8000000 		call	_ZN8UnitTest11CurrentTest7ResultsEv@PLT
 6927      00
 6928 074a 4C8B20   		movq	(%rax), %r12
 6929 074d E8000000 		call	_ZN8UnitTest11CurrentTest7DetailsEv@PLT
 6929      00
 6930 0752 488B30   		movq	(%rax), %rsi
 6931 0755 BA460000 		movl	$70, %edx
 6931      00
 6932 075a 4889EF   		movq	%rbp, %rdi
 6933 075d E8000000 		call	_ZN8UnitTest11TestDetailsC1ERKS0_i@PLT
 6933      00
 6934 0762 488D1500 		leaq	.LC66(%rip), %rdx
 6934      000000
 6935 0769 4889EE   		movq	%rbp, %rsi
 6936 076c 4C89E7   		movq	%r12, %rdi
 6937 076f E8000000 		call	_ZN8UnitTest11TestResults13OnTestFailureERKNS_11TestDetailsEPKc@PLT
 6937      00
 6938              	.LEHE142:
 6939              	.LEHB143:
 6940 0774 E8000000 		call	__cxa_end_catch@PLT
 6940      00
 6941              	.LEHE143:
 6942 0779 E9000000 		jmp	.L456
 6942      00
 6943              	.L462:
 6944 077e F30F1EFA 		endbr64
 6945 0782 4889C5   		movq	%rax, %rbp
 6946 0785 E8000000 		call	__cxa_end_catch@PLT
 6946      00
 6947 078a 4889EF   		movq	%rbp, %rdi
 6948              	.LEHB144:
 6949 078d E8000000 		call	_Unwind_Resume@PLT
 6949      00
 6950              	.LEHE144:
 6951              		.cfi_endproc
 6952              	.LFE1245:
 6953              		.section	.gcc_except_table
 6954              		.align 4
 6955              	.LLSDAC1245:
 6956 0454 FF       		.byte	0xff
 6957 0455 9B       		.byte	0x9b
 6958 0456 15       		.uleb128 .LLSDATTC1245-.LLSDATTDC1245
 6959              	.LLSDATTDC1245:
 6960 0457 01       		.byte	0x1
 6961 0458 0C       		.uleb128 .LLSDACSEC1245-.LLSDACSBC1245
 6962              	.LLSDACSBC1245:
 6963 0459 05       		.uleb128 .LEHB142-.LCOLDB84
 6964 045a 2F       		.uleb128 .LEHE142-.LEHB142
 6965 045b 3E       		.uleb128 .L462-.LCOLDB84
 6966 045c 00       		.uleb128 0
 6967 045d 34       		.uleb128 .LEHB143-.LCOLDB84
 6968 045e 05       		.uleb128 .LEHE143-.LEHB143
 6969 045f 00       		.uleb128 0
 6970 0460 00       		.uleb128 0
 6971 0461 4D       		.uleb128 .LEHB144-.LCOLDB84
 6972 0462 05       		.uleb128 .LEHE144-.LEHB144
 6973 0463 00       		.uleb128 0
 6974 0464 00       		.uleb128 0
 6975              	.LLSDACSEC1245:
 6976 0465 01       		.byte	0x1
 6977 0466 00       		.byte	0
 6978 0467 00       		.align 4
 6979 0468 00000000 		.long	0
 6980              	
 6981              	.LLSDATTC1245:
 6982              		.section	.text.unlikely
 6983              		.text
 6985              		.section	.text.unlikely
 6987              	.LCOLDE84:
 6988              		.text
 6989              	.LHOTE84:
 6990              		.section	.text.unlikely
 6991              		.align 2
 6992              	.LCOLDB85:
 6993              		.text
 6994              	.LHOTB85:
 6995              		.align 2
 6996 221c 0F1F4000 		.p2align 4
 6998              	_ZNK12_GLOBAL__N_154TestCheckEqualsWithStringsWorksOnContentsConstNonConst7RunImplEv:
 6999              	.LFB1241:
 7000              		.cfi_startproc
 7001              		.cfi_personality 0x9b,DW.ref.__gxx_personality_v0
 7002              		.cfi_lsda 0x1b,.LLSDA1241
 7003 2220 F30F1EFA 		endbr64
 7004 2224 4154     		pushq	%r12
 7005              		.cfi_def_cfa_offset 16
 7006              		.cfi_offset 12, -16
 7007 2226 31F6     		xorl	%esi, %esi
 7008 2228 55       		pushq	%rbp
 7009              		.cfi_def_cfa_offset 24
 7010              		.cfi_offset 6, -24
 7011 2229 4883EC68 		subq	$104, %rsp
 7012              		.cfi_def_cfa_offset 128
 7013 222d 64488B04 		movq	%fs:40, %rax
 7013      25280000 
 7013      00
 7014 2236 48894424 		movq	%rax, 88(%rsp)
 7014      58
 7015 223b 31C0     		xorl	%eax, %eax
 7016 223d 4C8D6424 		leaq	16(%rsp), %r12
 7016      10
 7017 2242 488D6C24 		leaq	48(%rsp), %rbp
 7017      30
 7018 2247 4C89E7   		movq	%r12, %rdi
 7019              	.LEHB145:
 7020 224a E8000000 		call	_ZN8UnitTest11TestResultsC1EPNS_12TestReporterE@PLT
 7020      00
 7021 224f 488D3500 		leaq	.LC62(%rip), %rsi
 7021      000000
 7022 2256 4889EF   		movq	%rbp, %rdi
 7023 2259 4531C0   		xorl	%r8d, %r8d
 7024 225c 4889F1   		movq	%rsi, %rcx
 7025 225f 4889F2   		movq	%rsi, %rdx
 7026 2262 E8000000 		call	_ZN8UnitTest11TestDetailsC1EPKcS2_S2_i@PLT
 7026      00
 7027 2267 4889E9   		movq	%rbp, %rcx
 7028 226a 488D1500 		leaq	_ZN12_GLOBAL__N_14txt2E(%rip), %rdx
 7028      000000
 7029 2271 4C89E7   		movq	%r12, %rdi
 7030 2274 488D3500 		leaq	_ZN12_GLOBAL__N_14txt1E(%rip), %rsi
 7030      000000
 7031 227b E8000000 		call	_ZN8UnitTest10CheckEqualERNS_11TestResultsEPKcPcRKNS_11TestDetailsE@PLT
 7031      00
 7032              	.LEHE145:
 7033              	.LEHB146:
 7034 2280 E8000000 		call	_ZN8UnitTest11CurrentTest7DetailsEv@PLT
 7034      00
 7035 2285 488B30   		movq	(%rax), %rsi
 7036 2288 BA3E0000 		movl	$62, %edx
 7036      00
 7037 228d 4889EF   		movq	%rbp, %rdi
 7038 2290 E8000000 		call	_ZN8UnitTest11TestDetailsC1ERKS0_i@PLT
 7038      00
 7039 2295 4C89E7   		movq	%r12, %rdi
 7040 2298 E8000000 		call	_ZNK8UnitTest11TestResults15GetFailureCountEv@PLT
 7040      00
 7041 229d 8944240C 		movl	%eax, 12(%rsp)
 7042 22a1 C7442408 		movl	$0, 8(%rsp)
 7042      00000000 
 7043 22a9 E8000000 		call	_ZN8UnitTest11CurrentTest7ResultsEv@PLT
 7043      00
 7044 22ae 488B38   		movq	(%rax), %rdi
 7045 22b1 488D5424 		leaq	12(%rsp), %rdx
 7045      0C
 7046 22b6 488D7424 		leaq	8(%rsp), %rsi
 7046      08
 7047 22bb 4889E9   		movq	%rbp, %rcx
 7048 22be E8000000 		call	_ZN8UnitTest10CheckEqualIiiEEvRNS_11TestResultsERKT_RKT0_RKNS_11TestDetailsE
 7048      00
 7049              	.LEHE146:
 7050              	.L465:
 7051 22c3 488B4424 		movq	88(%rsp), %rax
 7051      58
 7052 22c8 64482B04 		subq	%fs:40, %rax
 7052      25280000 
 7052      00
 7053 22d1 7508     		jne	.L473
 7054 22d3 4883C468 		addq	$104, %rsp
 7055              		.cfi_remember_state
 7056              		.cfi_def_cfa_offset 24
 7057 22d7 5D       		popq	%rbp
 7058              		.cfi_def_cfa_offset 16
 7059 22d8 415C     		popq	%r12
 7060              		.cfi_def_cfa_offset 8
 7061 22da C3       		ret
 7062              	.L473:
 7063              		.cfi_restore_state
 7064 22db E8000000 		call	__stack_chk_fail@PLT
 7064      00
 7065              	.L470:
 7066 22e0 F30F1EFA 		endbr64
 7067 22e4 4889C7   		movq	%rax, %rdi
 7068 22e7 E9000000 		jmp	.L466
 7068      00
 7069              		.section	.gcc_except_table
 7070              		.align 4
 7071              	.LLSDA1241:
 7072 046c FF       		.byte	0xff
 7073 046d 9B       		.byte	0x9b
 7074 046e 11       		.uleb128 .LLSDATT1241-.LLSDATTD1241
 7075              	.LLSDATTD1241:
 7076 046f 01       		.byte	0x1
 7077 0470 09       		.uleb128 .LLSDACSE1241-.LLSDACSB1241
 7078              	.LLSDACSB1241:
 7079 0471 2A       		.uleb128 .LEHB145-.LFB1241
 7080 0472 36       		.uleb128 .LEHE145-.LEHB145
 7081 0473 00       		.uleb128 0
 7082 0474 00       		.uleb128 0
 7083 0475 60       		.uleb128 .LEHB146-.LFB1241
 7084 0476 43       		.uleb128 .LEHE146-.LEHB146
 7085 0477 C001     		.uleb128 .L470-.LFB1241
 7086 0479 01       		.uleb128 0x1
 7087              	.LLSDACSE1241:
 7088 047a 01       		.byte	0x1
 7089 047b 00       		.byte	0
 7090              		.align 4
 7091 047c 00000000 		.long	0
 7092              	
 7093              	.LLSDATT1241:
 7094              		.text
 7095              		.cfi_endproc
 7096              		.section	.text.unlikely
 7097              		.cfi_startproc
 7098              		.cfi_personality 0x9b,DW.ref.__gxx_personality_v0
 7099              		.cfi_lsda 0x1b,.LLSDAC1241
 7101              	_ZNK12_GLOBAL__N_154TestCheckEqualsWithStringsWorksOnContentsConstNonConst7RunImplEv.cold:
 7102              	.LFSB1241:
 7103              	.L466:
 7104              		.cfi_def_cfa_offset 128
 7105              		.cfi_offset 6, -24
 7106              		.cfi_offset 12, -16
 7107 0792 E8000000 		call	__cxa_begin_catch@PLT
 7107      00
 7108              	.LEHB147:
 7109 0797 E8000000 		call	_ZN8UnitTest11CurrentTest7ResultsEv@PLT
 7109      00
 7110 079c 4C8B20   		movq	(%rax), %r12
 7111 079f E8000000 		call	_ZN8UnitTest11CurrentTest7DetailsEv@PLT
 7111      00
 7112 07a4 488B30   		movq	(%rax), %rsi
 7113 07a7 BA3E0000 		movl	$62, %edx
 7113      00
 7114 07ac 4889EF   		movq	%rbp, %rdi
 7115 07af E8000000 		call	_ZN8UnitTest11TestDetailsC1ERKS0_i@PLT
 7115      00
 7116 07b4 488D1500 		leaq	.LC66(%rip), %rdx
 7116      000000
 7117 07bb 4889EE   		movq	%rbp, %rsi
 7118 07be 4C89E7   		movq	%r12, %rdi
 7119 07c1 E8000000 		call	_ZN8UnitTest11TestResults13OnTestFailureERKNS_11TestDetailsEPKc@PLT
 7119      00
 7120              	.LEHE147:
 7121              	.LEHB148:
 7122 07c6 E8000000 		call	__cxa_end_catch@PLT
 7122      00
 7123              	.LEHE148:
 7124 07cb E9000000 		jmp	.L465
 7124      00
 7125              	.L471:
 7126 07d0 F30F1EFA 		endbr64
 7127 07d4 4889C5   		movq	%rax, %rbp
 7128 07d7 E8000000 		call	__cxa_end_catch@PLT
 7128      00
 7129 07dc 4889EF   		movq	%rbp, %rdi
 7130              	.LEHB149:
 7131 07df E8000000 		call	_Unwind_Resume@PLT
 7131      00
 7132              	.LEHE149:
 7133              		.cfi_endproc
 7134              	.LFE1241:
 7135              		.section	.gcc_except_table
 7136              		.align 4
 7137              	.LLSDAC1241:
 7138 0480 FF       		.byte	0xff
 7139 0481 9B       		.byte	0x9b
 7140 0482 15       		.uleb128 .LLSDATTC1241-.LLSDATTDC1241
 7141              	.LLSDATTDC1241:
 7142 0483 01       		.byte	0x1
 7143 0484 0C       		.uleb128 .LLSDACSEC1241-.LLSDACSBC1241
 7144              	.LLSDACSBC1241:
 7145 0485 05       		.uleb128 .LEHB147-.LCOLDB85
 7146 0486 2F       		.uleb128 .LEHE147-.LEHB147
 7147 0487 3E       		.uleb128 .L471-.LCOLDB85
 7148 0488 00       		.uleb128 0
 7149 0489 34       		.uleb128 .LEHB148-.LCOLDB85
 7150 048a 05       		.uleb128 .LEHE148-.LEHB148
 7151 048b 00       		.uleb128 0
 7152 048c 00       		.uleb128 0
 7153 048d 4D       		.uleb128 .LEHB149-.LCOLDB85
 7154 048e 05       		.uleb128 .LEHE149-.LEHB149
 7155 048f 00       		.uleb128 0
 7156 0490 00       		.uleb128 0
 7157              	.LLSDACSEC1241:
 7158 0491 01       		.byte	0x1
 7159 0492 00       		.byte	0
 7160 0493 00       		.align 4
 7161 0494 00000000 		.long	0
 7162              	
 7163              	.LLSDATTC1241:
 7164              		.section	.text.unlikely
 7165              		.text
 7167              		.section	.text.unlikely
 7169              	.LCOLDE85:
 7170              		.text
 7171              	.LHOTE85:
 7172              		.section	.text.unlikely
 7173              		.align 2
 7174              	.LCOLDB86:
 7175              		.text
 7176              	.LHOTB86:
 7177              		.align 2
 7178 22ec 0F1F4000 		.p2align 4
 7180              	_ZNK12_GLOBAL__N_154TestCheckEqualsWithStringsWorksOnContentsNonConstConst7RunImplEv:
 7181              	.LFB1237:
 7182              		.cfi_startproc
 7183              		.cfi_personality 0x9b,DW.ref.__gxx_personality_v0
 7184              		.cfi_lsda 0x1b,.LLSDA1237
 7185 22f0 F30F1EFA 		endbr64
 7186 22f4 4154     		pushq	%r12
 7187              		.cfi_def_cfa_offset 16
 7188              		.cfi_offset 12, -16
 7189 22f6 31F6     		xorl	%esi, %esi
 7190 22f8 55       		pushq	%rbp
 7191              		.cfi_def_cfa_offset 24
 7192              		.cfi_offset 6, -24
 7193 22f9 4883EC68 		subq	$104, %rsp
 7194              		.cfi_def_cfa_offset 128
 7195 22fd 64488B04 		movq	%fs:40, %rax
 7195      25280000 
 7195      00
 7196 2306 48894424 		movq	%rax, 88(%rsp)
 7196      58
 7197 230b 31C0     		xorl	%eax, %eax
 7198 230d 4C8D6424 		leaq	16(%rsp), %r12
 7198      10
 7199 2312 488D6C24 		leaq	48(%rsp), %rbp
 7199      30
 7200 2317 4C89E7   		movq	%r12, %rdi
 7201              	.LEHB150:
 7202 231a E8000000 		call	_ZN8UnitTest11TestResultsC1EPNS_12TestReporterE@PLT
 7202      00
 7203 231f 488D3500 		leaq	.LC62(%rip), %rsi
 7203      000000
 7204 2326 4889EF   		movq	%rbp, %rdi
 7205 2329 4531C0   		xorl	%r8d, %r8d
 7206 232c 4889F1   		movq	%rsi, %rcx
 7207 232f 4889F2   		movq	%rsi, %rdx
 7208 2332 E8000000 		call	_ZN8UnitTest11TestDetailsC1EPKcS2_S2_i@PLT
 7208      00
 7209 2337 4889E9   		movq	%rbp, %rcx
 7210 233a 488D1500 		leaq	_ZN12_GLOBAL__N_14txt2E(%rip), %rdx
 7210      000000
 7211 2341 4C89E7   		movq	%r12, %rdi
 7212 2344 488D3500 		leaq	_ZN12_GLOBAL__N_14txt1E(%rip), %rsi
 7212      000000
 7213 234b E8000000 		call	_ZN8UnitTest10CheckEqualERNS_11TestResultsEPcPKcRKNS_11TestDetailsE@PLT
 7213      00
 7214              	.LEHE150:
 7215              	.LEHB151:
 7216 2350 E8000000 		call	_ZN8UnitTest11CurrentTest7DetailsEv@PLT
 7216      00
 7217 2355 488B30   		movq	(%rax), %rsi
 7218 2358 BA350000 		movl	$53, %edx
 7218      00
 7219 235d 4889EF   		movq	%rbp, %rdi
 7220 2360 E8000000 		call	_ZN8UnitTest11TestDetailsC1ERKS0_i@PLT
 7220      00
 7221 2365 4C89E7   		movq	%r12, %rdi
 7222 2368 E8000000 		call	_ZNK8UnitTest11TestResults15GetFailureCountEv@PLT
 7222      00
 7223 236d 8944240C 		movl	%eax, 12(%rsp)
 7224 2371 C7442408 		movl	$0, 8(%rsp)
 7224      00000000 
 7225 2379 E8000000 		call	_ZN8UnitTest11CurrentTest7ResultsEv@PLT
 7225      00
 7226 237e 488B38   		movq	(%rax), %rdi
 7227 2381 488D5424 		leaq	12(%rsp), %rdx
 7227      0C
 7228 2386 488D7424 		leaq	8(%rsp), %rsi
 7228      08
 7229 238b 4889E9   		movq	%rbp, %rcx
 7230 238e E8000000 		call	_ZN8UnitTest10CheckEqualIiiEEvRNS_11TestResultsERKT_RKT0_RKNS_11TestDetailsE
 7230      00
 7231              	.LEHE151:
 7232              	.L474:
 7233 2393 488B4424 		movq	88(%rsp), %rax
 7233      58
 7234 2398 64482B04 		subq	%fs:40, %rax
 7234      25280000 
 7234      00
 7235 23a1 7508     		jne	.L482
 7236 23a3 4883C468 		addq	$104, %rsp
 7237              		.cfi_remember_state
 7238              		.cfi_def_cfa_offset 24
 7239 23a7 5D       		popq	%rbp
 7240              		.cfi_def_cfa_offset 16
 7241 23a8 415C     		popq	%r12
 7242              		.cfi_def_cfa_offset 8
 7243 23aa C3       		ret
 7244              	.L482:
 7245              		.cfi_restore_state
 7246 23ab E8000000 		call	__stack_chk_fail@PLT
 7246      00
 7247              	.L479:
 7248 23b0 F30F1EFA 		endbr64
 7249 23b4 4889C7   		movq	%rax, %rdi
 7250 23b7 E9000000 		jmp	.L475
 7250      00
 7251              		.section	.gcc_except_table
 7252              		.align 4
 7253              	.LLSDA1237:
 7254 0498 FF       		.byte	0xff
 7255 0499 9B       		.byte	0x9b
 7256 049a 11       		.uleb128 .LLSDATT1237-.LLSDATTD1237
 7257              	.LLSDATTD1237:
 7258 049b 01       		.byte	0x1
 7259 049c 09       		.uleb128 .LLSDACSE1237-.LLSDACSB1237
 7260              	.LLSDACSB1237:
 7261 049d 2A       		.uleb128 .LEHB150-.LFB1237
 7262 049e 36       		.uleb128 .LEHE150-.LEHB150
 7263 049f 00       		.uleb128 0
 7264 04a0 00       		.uleb128 0
 7265 04a1 60       		.uleb128 .LEHB151-.LFB1237
 7266 04a2 43       		.uleb128 .LEHE151-.LEHB151
 7267 04a3 C001     		.uleb128 .L479-.LFB1237
 7268 04a5 01       		.uleb128 0x1
 7269              	.LLSDACSE1237:
 7270 04a6 01       		.byte	0x1
 7271 04a7 00       		.byte	0
 7272              		.align 4
 7273 04a8 00000000 		.long	0
 7274              	
 7275              	.LLSDATT1237:
 7276              		.text
 7277              		.cfi_endproc
 7278              		.section	.text.unlikely
 7279              		.cfi_startproc
 7280              		.cfi_personality 0x9b,DW.ref.__gxx_personality_v0
 7281              		.cfi_lsda 0x1b,.LLSDAC1237
 7283              	_ZNK12_GLOBAL__N_154TestCheckEqualsWithStringsWorksOnContentsNonConstConst7RunImplEv.cold:
 7284              	.LFSB1237:
 7285              	.L475:
 7286              		.cfi_def_cfa_offset 128
 7287              		.cfi_offset 6, -24
 7288              		.cfi_offset 12, -16
 7289 07e4 E8000000 		call	__cxa_begin_catch@PLT
 7289      00
 7290              	.LEHB152:
 7291 07e9 E8000000 		call	_ZN8UnitTest11CurrentTest7ResultsEv@PLT
 7291      00
 7292 07ee 4C8B20   		movq	(%rax), %r12
 7293 07f1 E8000000 		call	_ZN8UnitTest11CurrentTest7DetailsEv@PLT
 7293      00
 7294 07f6 488B30   		movq	(%rax), %rsi
 7295 07f9 BA350000 		movl	$53, %edx
 7295      00
 7296 07fe 4889EF   		movq	%rbp, %rdi
 7297 0801 E8000000 		call	_ZN8UnitTest11TestDetailsC1ERKS0_i@PLT
 7297      00
 7298 0806 488D1500 		leaq	.LC66(%rip), %rdx
 7298      000000
 7299 080d 4889EE   		movq	%rbp, %rsi
 7300 0810 4C89E7   		movq	%r12, %rdi
 7301 0813 E8000000 		call	_ZN8UnitTest11TestResults13OnTestFailureERKNS_11TestDetailsEPKc@PLT
 7301      00
 7302              	.LEHE152:
 7303              	.LEHB153:
 7304 0818 E8000000 		call	__cxa_end_catch@PLT
 7304      00
 7305              	.LEHE153:
 7306 081d E9000000 		jmp	.L474
 7306      00
 7307              	.L480:
 7308 0822 F30F1EFA 		endbr64
 7309 0826 4889C5   		movq	%rax, %rbp
 7310 0829 E8000000 		call	__cxa_end_catch@PLT
 7310      00
 7311 082e 4889EF   		movq	%rbp, %rdi
 7312              	.LEHB154:
 7313 0831 E8000000 		call	_Unwind_Resume@PLT
 7313      00
 7314              	.LEHE154:
 7315              		.cfi_endproc
 7316              	.LFE1237:
 7317              		.section	.gcc_except_table
 7318              		.align 4
 7319              	.LLSDAC1237:
 7320 04ac FF       		.byte	0xff
 7321 04ad 9B       		.byte	0x9b
 7322 04ae 15       		.uleb128 .LLSDATTC1237-.LLSDATTDC1237
 7323              	.LLSDATTDC1237:
 7324 04af 01       		.byte	0x1
 7325 04b0 0C       		.uleb128 .LLSDACSEC1237-.LLSDACSBC1237
 7326              	.LLSDACSBC1237:
 7327 04b1 05       		.uleb128 .LEHB152-.LCOLDB86
 7328 04b2 2F       		.uleb128 .LEHE152-.LEHB152
 7329 04b3 3E       		.uleb128 .L480-.LCOLDB86
 7330 04b4 00       		.uleb128 0
 7331 04b5 34       		.uleb128 .LEHB153-.LCOLDB86
 7332 04b6 05       		.uleb128 .LEHE153-.LEHB153
 7333 04b7 00       		.uleb128 0
 7334 04b8 00       		.uleb128 0
 7335 04b9 4D       		.uleb128 .LEHB154-.LCOLDB86
 7336 04ba 05       		.uleb128 .LEHE154-.LEHB154
 7337 04bb 00       		.uleb128 0
 7338 04bc 00       		.uleb128 0
 7339              	.LLSDACSEC1237:
 7340 04bd 01       		.byte	0x1
 7341 04be 00       		.byte	0
 7342 04bf 00       		.align 4
 7343 04c0 00000000 		.long	0
 7344              	
 7345              	.LLSDATTC1237:
 7346              		.section	.text.unlikely
 7347              		.text
 7349              		.section	.text.unlikely
 7351              	.LCOLDE86:
 7352              		.text
 7353              	.LHOTE86:
 7354              		.section	.text.unlikely
 7355              		.align 2
 7356              	.LCOLDB87:
 7357              		.text
 7358              	.LHOTB87:
 7359              		.align 2
 7360 23bc 0F1F4000 		.p2align 4
 7362              	_ZNK12_GLOBAL__N_151TestCheckEqualsWithStringsWorksOnContentsConstConst7RunImplEv:
 7363              	.LFB1233:
 7364              		.cfi_startproc
 7365              		.cfi_personality 0x9b,DW.ref.__gxx_personality_v0
 7366              		.cfi_lsda 0x1b,.LLSDA1233
 7367 23c0 F30F1EFA 		endbr64
 7368 23c4 4154     		pushq	%r12
 7369              		.cfi_def_cfa_offset 16
 7370              		.cfi_offset 12, -16
 7371 23c6 31F6     		xorl	%esi, %esi
 7372 23c8 55       		pushq	%rbp
 7373              		.cfi_def_cfa_offset 24
 7374              		.cfi_offset 6, -24
 7375 23c9 4883EC68 		subq	$104, %rsp
 7376              		.cfi_def_cfa_offset 128
 7377 23cd 64488B04 		movq	%fs:40, %rax
 7377      25280000 
 7377      00
 7378 23d6 48894424 		movq	%rax, 88(%rsp)
 7378      58
 7379 23db 31C0     		xorl	%eax, %eax
 7380 23dd 4C8D6424 		leaq	16(%rsp), %r12
 7380      10
 7381 23e2 488D6C24 		leaq	48(%rsp), %rbp
 7381      30
 7382 23e7 4C89E7   		movq	%r12, %rdi
 7383              	.LEHB155:
 7384 23ea E8000000 		call	_ZN8UnitTest11TestResultsC1EPNS_12TestReporterE@PLT
 7384      00
 7385 23ef 488D3500 		leaq	.LC62(%rip), %rsi
 7385      000000
 7386 23f6 4889EF   		movq	%rbp, %rdi
 7387 23f9 4531C0   		xorl	%r8d, %r8d
 7388 23fc 4889F1   		movq	%rsi, %rcx
 7389 23ff 4889F2   		movq	%rsi, %rdx
 7390 2402 E8000000 		call	_ZN8UnitTest11TestDetailsC1EPKcS2_S2_i@PLT
 7390      00
 7391 2407 4889E9   		movq	%rbp, %rcx
 7392 240a 488D1500 		leaq	_ZN12_GLOBAL__N_14txt2E(%rip), %rdx
 7392      000000
 7393 2411 4C89E7   		movq	%r12, %rdi
 7394 2414 488D3500 		leaq	_ZN12_GLOBAL__N_14txt1E(%rip), %rsi
 7394      000000
 7395 241b E8000000 		call	_ZN8UnitTest10CheckEqualERNS_11TestResultsEPcS2_RKNS_11TestDetailsE@PLT
 7395      00
 7396              	.LEHE155:
 7397              	.LEHB156:
 7398 2420 E8000000 		call	_ZN8UnitTest11CurrentTest7DetailsEv@PLT
 7398      00
 7399 2425 488B30   		movq	(%rax), %rsi
 7400 2428 BA2C0000 		movl	$44, %edx
 7400      00
 7401 242d 4889EF   		movq	%rbp, %rdi
 7402 2430 E8000000 		call	_ZN8UnitTest11TestDetailsC1ERKS0_i@PLT
 7402      00
 7403 2435 4C89E7   		movq	%r12, %rdi
 7404 2438 E8000000 		call	_ZNK8UnitTest11TestResults15GetFailureCountEv@PLT
 7404      00
 7405 243d 8944240C 		movl	%eax, 12(%rsp)
 7406 2441 C7442408 		movl	$0, 8(%rsp)
 7406      00000000 
 7407 2449 E8000000 		call	_ZN8UnitTest11CurrentTest7ResultsEv@PLT
 7407      00
 7408 244e 488B38   		movq	(%rax), %rdi
 7409 2451 488D5424 		leaq	12(%rsp), %rdx
 7409      0C
 7410 2456 488D7424 		leaq	8(%rsp), %rsi
 7410      08
 7411 245b 4889E9   		movq	%rbp, %rcx
 7412 245e E8000000 		call	_ZN8UnitTest10CheckEqualIiiEEvRNS_11TestResultsERKT_RKT0_RKNS_11TestDetailsE
 7412      00
 7413              	.LEHE156:
 7414              	.L483:
 7415 2463 488B4424 		movq	88(%rsp), %rax
 7415      58
 7416 2468 64482B04 		subq	%fs:40, %rax
 7416      25280000 
 7416      00
 7417 2471 7508     		jne	.L491
 7418 2473 4883C468 		addq	$104, %rsp
 7419              		.cfi_remember_state
 7420              		.cfi_def_cfa_offset 24
 7421 2477 5D       		popq	%rbp
 7422              		.cfi_def_cfa_offset 16
 7423 2478 415C     		popq	%r12
 7424              		.cfi_def_cfa_offset 8
 7425 247a C3       		ret
 7426              	.L491:
 7427              		.cfi_restore_state
 7428 247b E8000000 		call	__stack_chk_fail@PLT
 7428      00
 7429              	.L488:
 7430 2480 F30F1EFA 		endbr64
 7431 2484 4889C7   		movq	%rax, %rdi
 7432 2487 E9000000 		jmp	.L484
 7432      00
 7433              		.section	.gcc_except_table
 7434              		.align 4
 7435              	.LLSDA1233:
 7436 04c4 FF       		.byte	0xff
 7437 04c5 9B       		.byte	0x9b
 7438 04c6 11       		.uleb128 .LLSDATT1233-.LLSDATTD1233
 7439              	.LLSDATTD1233:
 7440 04c7 01       		.byte	0x1
 7441 04c8 09       		.uleb128 .LLSDACSE1233-.LLSDACSB1233
 7442              	.LLSDACSB1233:
 7443 04c9 2A       		.uleb128 .LEHB155-.LFB1233
 7444 04ca 36       		.uleb128 .LEHE155-.LEHB155
 7445 04cb 00       		.uleb128 0
 7446 04cc 00       		.uleb128 0
 7447 04cd 60       		.uleb128 .LEHB156-.LFB1233
 7448 04ce 43       		.uleb128 .LEHE156-.LEHB156
 7449 04cf C001     		.uleb128 .L488-.LFB1233
 7450 04d1 01       		.uleb128 0x1
 7451              	.LLSDACSE1233:
 7452 04d2 01       		.byte	0x1
 7453 04d3 00       		.byte	0
 7454              		.align 4
 7455 04d4 00000000 		.long	0
 7456              	
 7457              	.LLSDATT1233:
 7458              		.text
 7459              		.cfi_endproc
 7460              		.section	.text.unlikely
 7461              		.cfi_startproc
 7462              		.cfi_personality 0x9b,DW.ref.__gxx_personality_v0
 7463              		.cfi_lsda 0x1b,.LLSDAC1233
 7465              	_ZNK12_GLOBAL__N_151TestCheckEqualsWithStringsWorksOnContentsConstConst7RunImplEv.cold:
 7466              	.LFSB1233:
 7467              	.L484:
 7468              		.cfi_def_cfa_offset 128
 7469              		.cfi_offset 6, -24
 7470              		.cfi_offset 12, -16
 7471 0836 E8000000 		call	__cxa_begin_catch@PLT
 7471      00
 7472              	.LEHB157:
 7473 083b E8000000 		call	_ZN8UnitTest11CurrentTest7ResultsEv@PLT
 7473      00
 7474 0840 4C8B20   		movq	(%rax), %r12
 7475 0843 E8000000 		call	_ZN8UnitTest11CurrentTest7DetailsEv@PLT
 7475      00
 7476 0848 488B30   		movq	(%rax), %rsi
 7477 084b BA2C0000 		movl	$44, %edx
 7477      00
 7478 0850 4889EF   		movq	%rbp, %rdi
 7479 0853 E8000000 		call	_ZN8UnitTest11TestDetailsC1ERKS0_i@PLT
 7479      00
 7480 0858 488D1500 		leaq	.LC66(%rip), %rdx
 7480      000000
 7481 085f 4889EE   		movq	%rbp, %rsi
 7482 0862 4C89E7   		movq	%r12, %rdi
 7483 0865 E8000000 		call	_ZN8UnitTest11TestResults13OnTestFailureERKNS_11TestDetailsEPKc@PLT
 7483      00
 7484              	.LEHE157:
 7485              	.LEHB158:
 7486 086a E8000000 		call	__cxa_end_catch@PLT
 7486      00
 7487              	.LEHE158:
 7488 086f E9000000 		jmp	.L483
 7488      00
 7489              	.L489:
 7490 0874 F30F1EFA 		endbr64
 7491 0878 4889C5   		movq	%rax, %rbp
 7492 087b E8000000 		call	__cxa_end_catch@PLT
 7492      00
 7493 0880 4889EF   		movq	%rbp, %rdi
 7494              	.LEHB159:
 7495 0883 E8000000 		call	_Unwind_Resume@PLT
 7495      00
 7496              	.LEHE159:
 7497              		.cfi_endproc
 7498              	.LFE1233:
 7499              		.section	.gcc_except_table
 7500              		.align 4
 7501              	.LLSDAC1233:
 7502 04d8 FF       		.byte	0xff
 7503 04d9 9B       		.byte	0x9b
 7504 04da 15       		.uleb128 .LLSDATTC1233-.LLSDATTDC1233
 7505              	.LLSDATTDC1233:
 7506 04db 01       		.byte	0x1
 7507 04dc 0C       		.uleb128 .LLSDACSEC1233-.LLSDACSBC1233
 7508              	.LLSDACSBC1233:
 7509 04dd 05       		.uleb128 .LEHB157-.LCOLDB87
 7510 04de 2F       		.uleb128 .LEHE157-.LEHB157
 7511 04df 3E       		.uleb128 .L489-.LCOLDB87
 7512 04e0 00       		.uleb128 0
 7513 04e1 34       		.uleb128 .LEHB158-.LCOLDB87
 7514 04e2 05       		.uleb128 .LEHE158-.LEHB158
 7515 04e3 00       		.uleb128 0
 7516 04e4 00       		.uleb128 0
 7517 04e5 4D       		.uleb128 .LEHB159-.LCOLDB87
 7518 04e6 05       		.uleb128 .LEHE159-.LEHB159
 7519 04e7 00       		.uleb128 0
 7520 04e8 00       		.uleb128 0
 7521              	.LLSDACSEC1233:
 7522 04e9 01       		.byte	0x1
 7523 04ea 00       		.byte	0
 7524 04eb 00       		.align 4
 7525 04ec 00000000 		.long	0
 7526              	
 7527              	.LLSDATTC1233:
 7528              		.section	.text.unlikely
 7529              		.text
 7531              		.section	.text.unlikely
 7533              	.LCOLDE87:
 7534              		.text
 7535              	.LHOTE87:
 7536              		.section	.text.unlikely
 7537              		.align 2
 7538              	.LCOLDB88:
 7539              		.text
 7540              	.LHOTB88:
 7541              		.align 2
 7542 248c 0F1F4000 		.p2align 4
 7544              	_ZNK12_GLOBAL__N_157TestCheckEqualsWithStringsWorksOnContentsNonConstNonConst7RunImplEv:
 7545              	.LFB1229:
 7546              		.cfi_startproc
 7547              		.cfi_personality 0x9b,DW.ref.__gxx_personality_v0
 7548              		.cfi_lsda 0x1b,.LLSDA1229
 7549 2490 F30F1EFA 		endbr64
 7550 2494 4154     		pushq	%r12
 7551              		.cfi_def_cfa_offset 16
 7552              		.cfi_offset 12, -16
 7553 2496 31F6     		xorl	%esi, %esi
 7554 2498 55       		pushq	%rbp
 7555              		.cfi_def_cfa_offset 24
 7556              		.cfi_offset 6, -24
 7557 2499 4883EC68 		subq	$104, %rsp
 7558              		.cfi_def_cfa_offset 128
 7559 249d 64488B04 		movq	%fs:40, %rax
 7559      25280000 
 7559      00
 7560 24a6 48894424 		movq	%rax, 88(%rsp)
 7560      58
 7561 24ab 31C0     		xorl	%eax, %eax
 7562 24ad 4C8D6424 		leaq	16(%rsp), %r12
 7562      10
 7563 24b2 488D6C24 		leaq	48(%rsp), %rbp
 7563      30
 7564 24b7 4C89E7   		movq	%r12, %rdi
 7565              	.LEHB160:
 7566 24ba E8000000 		call	_ZN8UnitTest11TestResultsC1EPNS_12TestReporterE@PLT
 7566      00
 7567 24bf 488D3500 		leaq	.LC62(%rip), %rsi
 7567      000000
 7568 24c6 4889EF   		movq	%rbp, %rdi
 7569 24c9 4531C0   		xorl	%r8d, %r8d
 7570 24cc 4889F1   		movq	%rsi, %rcx
 7571 24cf 4889F2   		movq	%rsi, %rdx
 7572 24d2 E8000000 		call	_ZN8UnitTest11TestDetailsC1EPKcS2_S2_i@PLT
 7572      00
 7573 24d7 4889E9   		movq	%rbp, %rcx
 7574 24da 488D1500 		leaq	_ZN12_GLOBAL__N_14txt2E(%rip), %rdx
 7574      000000
 7575 24e1 4C89E7   		movq	%r12, %rdi
 7576 24e4 488D3500 		leaq	_ZN12_GLOBAL__N_14txt1E(%rip), %rsi
 7576      000000
 7577 24eb E8000000 		call	_ZN8UnitTest10CheckEqualERNS_11TestResultsEPKcS3_RKNS_11TestDetailsE@PLT
 7577      00
 7578              	.LEHE160:
 7579              	.LEHB161:
 7580 24f0 E8000000 		call	_ZN8UnitTest11CurrentTest7DetailsEv@PLT
 7580      00
 7581 24f5 488B30   		movq	(%rax), %rsi
 7582 24f8 BA230000 		movl	$35, %edx
 7582      00
 7583 24fd 4889EF   		movq	%rbp, %rdi
 7584 2500 E8000000 		call	_ZN8UnitTest11TestDetailsC1ERKS0_i@PLT
 7584      00
 7585 2505 4C89E7   		movq	%r12, %rdi
 7586 2508 E8000000 		call	_ZNK8UnitTest11TestResults15GetFailureCountEv@PLT
 7586      00
 7587 250d 8944240C 		movl	%eax, 12(%rsp)
 7588 2511 C7442408 		movl	$0, 8(%rsp)
 7588      00000000 
 7589 2519 E8000000 		call	_ZN8UnitTest11CurrentTest7ResultsEv@PLT
 7589      00
 7590 251e 488B38   		movq	(%rax), %rdi
 7591 2521 488D5424 		leaq	12(%rsp), %rdx
 7591      0C
 7592 2526 488D7424 		leaq	8(%rsp), %rsi
 7592      08
 7593 252b 4889E9   		movq	%rbp, %rcx
 7594 252e E8000000 		call	_ZN8UnitTest10CheckEqualIiiEEvRNS_11TestResultsERKT_RKT0_RKNS_11TestDetailsE
 7594      00
 7595              	.LEHE161:
 7596              	.L492:
 7597 2533 488B4424 		movq	88(%rsp), %rax
 7597      58
 7598 2538 64482B04 		subq	%fs:40, %rax
 7598      25280000 
 7598      00
 7599 2541 7508     		jne	.L500
 7600 2543 4883C468 		addq	$104, %rsp
 7601              		.cfi_remember_state
 7602              		.cfi_def_cfa_offset 24
 7603 2547 5D       		popq	%rbp
 7604              		.cfi_def_cfa_offset 16
 7605 2548 415C     		popq	%r12
 7606              		.cfi_def_cfa_offset 8
 7607 254a C3       		ret
 7608              	.L500:
 7609              		.cfi_restore_state
 7610 254b E8000000 		call	__stack_chk_fail@PLT
 7610      00
 7611              	.L497:
 7612 2550 F30F1EFA 		endbr64
 7613 2554 4889C7   		movq	%rax, %rdi
 7614 2557 E9000000 		jmp	.L493
 7614      00
 7615              		.section	.gcc_except_table
 7616              		.align 4
 7617              	.LLSDA1229:
 7618 04f0 FF       		.byte	0xff
 7619 04f1 9B       		.byte	0x9b
 7620 04f2 11       		.uleb128 .LLSDATT1229-.LLSDATTD1229
 7621              	.LLSDATTD1229:
 7622 04f3 01       		.byte	0x1
 7623 04f4 09       		.uleb128 .LLSDACSE1229-.LLSDACSB1229
 7624              	.LLSDACSB1229:
 7625 04f5 2A       		.uleb128 .LEHB160-.LFB1229
 7626 04f6 36       		.uleb128 .LEHE160-.LEHB160
 7627 04f7 00       		.uleb128 0
 7628 04f8 00       		.uleb128 0
 7629 04f9 60       		.uleb128 .LEHB161-.LFB1229
 7630 04fa 43       		.uleb128 .LEHE161-.LEHB161
 7631 04fb C001     		.uleb128 .L497-.LFB1229
 7632 04fd 01       		.uleb128 0x1
 7633              	.LLSDACSE1229:
 7634 04fe 01       		.byte	0x1
 7635 04ff 00       		.byte	0
 7636              		.align 4
 7637 0500 00000000 		.long	0
 7638              	
 7639              	.LLSDATT1229:
 7640              		.text
 7641              		.cfi_endproc
 7642              		.section	.text.unlikely
 7643              		.cfi_startproc
 7644              		.cfi_personality 0x9b,DW.ref.__gxx_personality_v0
 7645              		.cfi_lsda 0x1b,.LLSDAC1229
 7647              	_ZNK12_GLOBAL__N_157TestCheckEqualsWithStringsWorksOnContentsNonConstNonConst7RunImplEv.cold:
 7648              	.LFSB1229:
 7649              	.L493:
 7650              		.cfi_def_cfa_offset 128
 7651              		.cfi_offset 6, -24
 7652              		.cfi_offset 12, -16
 7653 0888 E8000000 		call	__cxa_begin_catch@PLT
 7653      00
 7654              	.LEHB162:
 7655 088d E8000000 		call	_ZN8UnitTest11CurrentTest7ResultsEv@PLT
 7655      00
 7656 0892 4C8B20   		movq	(%rax), %r12
 7657 0895 E8000000 		call	_ZN8UnitTest11CurrentTest7DetailsEv@PLT
 7657      00
 7658 089a 488B30   		movq	(%rax), %rsi
 7659 089d BA230000 		movl	$35, %edx
 7659      00
 7660 08a2 4889EF   		movq	%rbp, %rdi
 7661 08a5 E8000000 		call	_ZN8UnitTest11TestDetailsC1ERKS0_i@PLT
 7661      00
 7662 08aa 488D1500 		leaq	.LC66(%rip), %rdx
 7662      000000
 7663 08b1 4889EE   		movq	%rbp, %rsi
 7664 08b4 4C89E7   		movq	%r12, %rdi
 7665 08b7 E8000000 		call	_ZN8UnitTest11TestResults13OnTestFailureERKNS_11TestDetailsEPKc@PLT
 7665      00
 7666              	.LEHE162:
 7667              	.LEHB163:
 7668 08bc E8000000 		call	__cxa_end_catch@PLT
 7668      00
 7669              	.LEHE163:
 7670 08c1 E9000000 		jmp	.L492
 7670      00
 7671              	.L498:
 7672 08c6 F30F1EFA 		endbr64
 7673 08ca 4889C5   		movq	%rax, %rbp
 7674 08cd E8000000 		call	__cxa_end_catch@PLT
 7674      00
 7675 08d2 4889EF   		movq	%rbp, %rdi
 7676              	.LEHB164:
 7677 08d5 E8000000 		call	_Unwind_Resume@PLT
 7677      00
 7678              	.LEHE164:
 7679              		.cfi_endproc
 7680              	.LFE1229:
 7681              		.section	.gcc_except_table
 7682              		.align 4
 7683              	.LLSDAC1229:
 7684 0504 FF       		.byte	0xff
 7685 0505 9B       		.byte	0x9b
 7686 0506 15       		.uleb128 .LLSDATTC1229-.LLSDATTDC1229
 7687              	.LLSDATTDC1229:
 7688 0507 01       		.byte	0x1
 7689 0508 0C       		.uleb128 .LLSDACSEC1229-.LLSDACSBC1229
 7690              	.LLSDACSBC1229:
 7691 0509 05       		.uleb128 .LEHB162-.LCOLDB88
 7692 050a 2F       		.uleb128 .LEHE162-.LEHB162
 7693 050b 3E       		.uleb128 .L498-.LCOLDB88
 7694 050c 00       		.uleb128 0
 7695 050d 34       		.uleb128 .LEHB163-.LCOLDB88
 7696 050e 05       		.uleb128 .LEHE163-.LEHB163
 7697 050f 00       		.uleb128 0
 7698 0510 00       		.uleb128 0
 7699 0511 4D       		.uleb128 .LEHB164-.LCOLDB88
 7700 0512 05       		.uleb128 .LEHE164-.LEHB164
 7701 0513 00       		.uleb128 0
 7702 0514 00       		.uleb128 0
 7703              	.LLSDACSEC1229:
 7704 0515 01       		.byte	0x1
 7705 0516 00       		.byte	0
 7706 0517 00       		.align 4
 7707 0518 00000000 		.long	0
 7708              	
 7709              	.LLSDATTC1229:
 7710              		.section	.text.unlikely
 7711              		.text
 7713              		.section	.text.unlikely
 7715              	.LCOLDE88:
 7716              		.text
 7717              	.LHOTE88:
 7718              		.section	.text.unlikely
 7719              		.align 2
 7720              	.LCOLDB89:
 7721              		.text
 7722              	.LHOTB89:
 7723              		.align 2
 7724 255c 0F1F4000 		.p2align 4
 7726              	_ZNK12_GLOBAL__N_149TestCheckEqualsWithStringsFailsOnDifferentStrings7RunImplEv:
 7727              	.LFB1225:
 7728              		.cfi_startproc
 7729              		.cfi_personality 0x9b,DW.ref.__gxx_personality_v0
 7730              		.cfi_lsda 0x1b,.LLSDA1225
 7731 2560 F30F1EFA 		endbr64
 7732 2564 4154     		pushq	%r12
 7733              		.cfi_def_cfa_offset 16
 7734              		.cfi_offset 12, -16
 7735 2566 BA6F0000 		movl	$111, %edx
 7735      00
 7736 256b 31F6     		xorl	%esi, %esi
 7737 256d 55       		pushq	%rbp
 7738              		.cfi_def_cfa_offset 24
 7739              		.cfi_offset 6, -24
 7740 256e 4883EC78 		subq	$120, %rsp
 7741              		.cfi_def_cfa_offset 144
 7742 2572 64488B04 		movq	%fs:40, %rax
 7742      25280000 
 7742      00
 7743 257b 48894424 		movq	%rax, 104(%rsp)
 7743      68
 7744 2580 31C0     		xorl	%eax, %eax
 7745 2582 4C8D6424 		leaq	16(%rsp), %r12
 7745      10
 7746 2587 B86F0000 		movl	$111, %eax
 7746      00
 7747 258c 66895424 		movw	%dx, 102(%rsp)
 7747      66
 7748 2591 4C89E7   		movq	%r12, %rdi
 7749 2594 66894424 		movw	%ax, 96(%rsp)
 7749      60
 7750 2599 488D6C24 		leaq	48(%rsp), %rbp
 7750      30
 7751 259e C744245C 		movl	$1819043144, 92(%rsp)
 7751      48656C6C 
 7752 25a6 C7442462 		movl	$1819042120, 98(%rsp)
 7752      48616C6C 
 7753              	.LEHB165:
 7754 25ae E8000000 		call	_ZN8UnitTest11TestResultsC1EPNS_12TestReporterE@PLT
 7754      00
 7755 25b3 488D3500 		leaq	.LC62(%rip), %rsi
 7755      000000
 7756 25ba 4889EF   		movq	%rbp, %rdi
 7757 25bd 4531C0   		xorl	%r8d, %r8d
 7758 25c0 4889F1   		movq	%rsi, %rcx
 7759 25c3 4889F2   		movq	%rsi, %rdx
 7760 25c6 E8000000 		call	_ZN8UnitTest11TestDetailsC1EPKcS2_S2_i@PLT
 7760      00
 7761 25cb 488D5424 		leaq	98(%rsp), %rdx
 7761      62
 7762 25d0 4889E9   		movq	%rbp, %rcx
 7763 25d3 4C89E7   		movq	%r12, %rdi
 7764 25d6 488D7424 		leaq	92(%rsp), %rsi
 7764      5C
 7765 25db E8000000 		call	_ZN8UnitTest10CheckEqualERNS_11TestResultsEPcS2_RKNS_11TestDetailsE@PLT
 7765      00
 7766              	.LEHE165:
 7767              	.LEHB166:
 7768 25e0 E8000000 		call	_ZN8UnitTest11CurrentTest7DetailsEv@PLT
 7768      00
 7769 25e5 488B30   		movq	(%rax), %rsi
 7770 25e8 BA170000 		movl	$23, %edx
 7770      00
 7771 25ed 4889EF   		movq	%rbp, %rdi
 7772 25f0 E8000000 		call	_ZN8UnitTest11TestDetailsC1ERKS0_i@PLT
 7772      00
 7773 25f5 4C89E7   		movq	%r12, %rdi
 7774 25f8 E8000000 		call	_ZNK8UnitTest11TestResults15GetFailureCountEv@PLT
 7774      00
 7775 25fd 8944240C 		movl	%eax, 12(%rsp)
 7776 2601 C7442408 		movl	$1, 8(%rsp)
 7776      01000000 
 7777 2609 E8000000 		call	_ZN8UnitTest11CurrentTest7ResultsEv@PLT
 7777      00
 7778 260e 488B38   		movq	(%rax), %rdi
 7779 2611 488D5424 		leaq	12(%rsp), %rdx
 7779      0C
 7780 2616 488D7424 		leaq	8(%rsp), %rsi
 7780      08
 7781 261b 4889E9   		movq	%rbp, %rcx
 7782 261e E8000000 		call	_ZN8UnitTest10CheckEqualIiiEEvRNS_11TestResultsERKT_RKT0_RKNS_11TestDetailsE
 7782      00
 7783              	.LEHE166:
 7784              	.L501:
 7785 2623 488B4424 		movq	104(%rsp), %rax
 7785      68
 7786 2628 64482B04 		subq	%fs:40, %rax
 7786      25280000 
 7786      00
 7787 2631 7508     		jne	.L509
 7788 2633 4883C478 		addq	$120, %rsp
 7789              		.cfi_remember_state
 7790              		.cfi_def_cfa_offset 24
 7791 2637 5D       		popq	%rbp
 7792              		.cfi_def_cfa_offset 16
 7793 2638 415C     		popq	%r12
 7794              		.cfi_def_cfa_offset 8
 7795 263a C3       		ret
 7796              	.L509:
 7797              		.cfi_restore_state
 7798 263b E8000000 		call	__stack_chk_fail@PLT
 7798      00
 7799              	.L506:
 7800 2640 F30F1EFA 		endbr64
 7801 2644 4889C7   		movq	%rax, %rdi
 7802 2647 E9000000 		jmp	.L502
 7802      00
 7803              		.section	.gcc_except_table
 7804              		.align 4
 7805              	.LLSDA1225:
 7806 051c FF       		.byte	0xff
 7807 051d 9B       		.byte	0x9b
 7808 051e 15       		.uleb128 .LLSDATT1225-.LLSDATTD1225
 7809              	.LLSDATTD1225:
 7810 051f 01       		.byte	0x1
 7811 0520 0A       		.uleb128 .LLSDACSE1225-.LLSDACSB1225
 7812              	.LLSDACSB1225:
 7813 0521 4E       		.uleb128 .LEHB165-.LFB1225
 7814 0522 32       		.uleb128 .LEHE165-.LEHB165
 7815 0523 00       		.uleb128 0
 7816 0524 00       		.uleb128 0
 7817 0525 8001     		.uleb128 .LEHB166-.LFB1225
 7818 0527 43       		.uleb128 .LEHE166-.LEHB166
 7819 0528 E001     		.uleb128 .L506-.LFB1225
 7820 052a 01       		.uleb128 0x1
 7821              	.LLSDACSE1225:
 7822 052b 01       		.byte	0x1
 7823 052c 00       		.byte	0
 7824 052d 000000   		.align 4
 7825 0530 00000000 		.long	0
 7826              	
 7827              	.LLSDATT1225:
 7828              		.text
 7829              		.cfi_endproc
 7830              		.section	.text.unlikely
 7831              		.cfi_startproc
 7832              		.cfi_personality 0x9b,DW.ref.__gxx_personality_v0
 7833              		.cfi_lsda 0x1b,.LLSDAC1225
 7835              	_ZNK12_GLOBAL__N_149TestCheckEqualsWithStringsFailsOnDifferentStrings7RunImplEv.cold:
 7836              	.LFSB1225:
 7837              	.L502:
 7838              		.cfi_def_cfa_offset 144
 7839              		.cfi_offset 6, -24
 7840              		.cfi_offset 12, -16
 7841 08da E8000000 		call	__cxa_begin_catch@PLT
 7841      00
 7842              	.LEHB167:
 7843 08df E8000000 		call	_ZN8UnitTest11CurrentTest7ResultsEv@PLT
 7843      00
 7844 08e4 4C8B20   		movq	(%rax), %r12
 7845 08e7 E8000000 		call	_ZN8UnitTest11CurrentTest7DetailsEv@PLT
 7845      00
 7846 08ec 488B30   		movq	(%rax), %rsi
 7847 08ef BA170000 		movl	$23, %edx
 7847      00
 7848 08f4 4889EF   		movq	%rbp, %rdi
 7849 08f7 E8000000 		call	_ZN8UnitTest11TestDetailsC1ERKS0_i@PLT
 7849      00
 7850 08fc 488D1500 		leaq	.LC63(%rip), %rdx
 7850      000000
 7851 0903 4889EE   		movq	%rbp, %rsi
 7852 0906 4C89E7   		movq	%r12, %rdi
 7853 0909 E8000000 		call	_ZN8UnitTest11TestResults13OnTestFailureERKNS_11TestDetailsEPKc@PLT
 7853      00
 7854              	.LEHE167:
 7855              	.LEHB168:
 7856 090e E8000000 		call	__cxa_end_catch@PLT
 7856      00
 7857              	.LEHE168:
 7858 0913 E9000000 		jmp	.L501
 7858      00
 7859              	.L507:
 7860 0918 F30F1EFA 		endbr64
 7861 091c 4889C5   		movq	%rax, %rbp
 7862 091f E8000000 		call	__cxa_end_catch@PLT
 7862      00
 7863 0924 4889EF   		movq	%rbp, %rdi
 7864              	.LEHB169:
 7865 0927 E8000000 		call	_Unwind_Resume@PLT
 7865      00
 7866              	.LEHE169:
 7867              		.cfi_endproc
 7868              	.LFE1225:
 7869              		.section	.gcc_except_table
 7870              		.align 4
 7871              	.LLSDAC1225:
 7872 0534 FF       		.byte	0xff
 7873 0535 9B       		.byte	0x9b
 7874 0536 15       		.uleb128 .LLSDATTC1225-.LLSDATTDC1225
 7875              	.LLSDATTDC1225:
 7876 0537 01       		.byte	0x1
 7877 0538 0C       		.uleb128 .LLSDACSEC1225-.LLSDACSBC1225
 7878              	.LLSDACSBC1225:
 7879 0539 05       		.uleb128 .LEHB167-.LCOLDB89
 7880 053a 2F       		.uleb128 .LEHE167-.LEHB167
 7881 053b 3E       		.uleb128 .L507-.LCOLDB89
 7882 053c 00       		.uleb128 0
 7883 053d 34       		.uleb128 .LEHB168-.LCOLDB89
 7884 053e 05       		.uleb128 .LEHE168-.LEHB168
 7885 053f 00       		.uleb128 0
 7886 0540 00       		.uleb128 0
 7887 0541 4D       		.uleb128 .LEHB169-.LCOLDB89
 7888 0542 05       		.uleb128 .LEHE169-.LEHB169
 7889 0543 00       		.uleb128 0
 7890 0544 00       		.uleb128 0
 7891              	.LLSDACSEC1225:
 7892 0545 01       		.byte	0x1
 7893 0546 00       		.byte	0
 7894 0547 00       		.align 4
 7895 0548 00000000 		.long	0
 7896              	
 7897              	.LLSDATTC1225:
 7898              		.section	.text.unlikely
 7899              		.text
 7901              		.section	.text.unlikely
 7903              	.LCOLDE89:
 7904              		.text
 7905              	.LHOTE89:
 7906              		.section	.rodata.str1.1
 7907              	.LC90:
 7908 008b 61727261 		.string	"arrayCloseSuite"
 7908      79436C6F 
 7908      73655375 
 7908      69746500 
 7909              	.LC91:
 7910 009b 61727261 		.string	"arrayCloseTest"
 7910      79436C6F 
 7910      73655465 
 7910      737400
 7911              		.section	.rodata.str1.8
 7912 0452 00000000 		.align 8
 7912      0000
 7913              	.LC96:
 7914 0458 556E6861 		.string	"Unhandled exception in CHECK_EQUAL(\"arrayCloseTest\", reporter.lastFailedTest)"
 7914      6E646C65 
 7914      64206578 
 7914      63657074 
 7914      696F6E20 
 7915 04a6 0000     		.align 8
 7916              	.LC97:
 7917 04a8 556E6861 		.string	"Unhandled exception in CHECK_EQUAL(\"arrayCloseSuite\", reporter.lastFailedSuite)"
 7917      6E646C65 
 7917      64206578 
 7917      63657074 
 7917      696F6E20 
 7918              		.align 8
 7919              	.LC98:
 7920 04f8 556E6861 		.string	"Unhandled exception in CHECK_EQUAL(1337, reporter.lastFailedLine)"
 7920      6E646C65 
 7920      64206578 
 7920      63657074 
 7920      696F6E20 
 7921              		.section	.text.unlikely
 7922              		.align 2
 7923              	.LCOLDB99:
 7924              		.text
 7925              	.LHOTB99:
 7926              		.align 2
 7927 264c 0F1F4000 		.p2align 4
 7929              	_ZNK12_GLOBAL__N_141TestCheckArrayCloseFailureIncludesDetails7RunImplEv:
 7930              	.LFB1305:
 7931              		.cfi_startproc
 7932              		.cfi_personality 0x9b,DW.ref.__gxx_personality_v0
 7933              		.cfi_lsda 0x1b,.LLSDA1305
 7934 2650 F30F1EFA 		endbr64
 7935 2654 4157     		pushq	%r15
 7936              		.cfi_def_cfa_offset 16
 7937              		.cfi_offset 15, -16
 7938 2656 4156     		pushq	%r14
 7939              		.cfi_def_cfa_offset 24
 7940              		.cfi_offset 14, -24
 7941 2658 4155     		pushq	%r13
 7942              		.cfi_def_cfa_offset 32
 7943              		.cfi_offset 13, -32
 7944 265a 4154     		pushq	%r12
 7945              		.cfi_def_cfa_offset 40
 7946              		.cfi_offset 12, -40
 7947 265c 55       		pushq	%rbp
 7948              		.cfi_def_cfa_offset 48
 7949              		.cfi_offset 6, -48
 7950 265d 53       		pushq	%rbx
 7951              		.cfi_def_cfa_offset 56
 7952              		.cfi_offset 3, -56
 7953 265e 4881ECD8 		subq	$2264, %rsp
 7953      080000
 7954              		.cfi_def_cfa_offset 2320
 7955 2665 64488B04 		movq	%fs:40, %rax
 7955      25280000 
 7955      00
 7956 266e 48898424 		movq	%rax, 2248(%rsp)
 7956      C8080000 
 7957 2676 488D0500 		leaq	16+_ZTV17RecordingReporter(%rip), %rax
 7957      000000
 7958 267d 4C8DA424 		leaq	144(%rsp), %r12
 7958      90000000 
 7959 2685 4C8D7C24 		leaq	16(%rsp), %r15
 7959      10
 7960 268a C7842498 		movl	$0, 152(%rsp)
 7960      00000000 
 7960      000000
 7961 2695 4C89E6   		movq	%r12, %rsi
 7962 2698 4C89FF   		movq	%r15, %rdi
 7963 269b C784249C 		movl	$0, 668(%rsp)
 7963      02000000 
 7963      000000
 7964 26a6 C78424A0 		movl	$0, 928(%rsp)
 7964      03000000 
 7964      000000
 7965 26b1 C78424A4 		movl	$0, 1700(%rsp)
 7965      06000000 
 7965      000000
 7966 26bc 48C78424 		movq	$0, 2216(%rsp)
 7966      A8080000 
 7966      00000000 
 7967 26c8 48C78424 		movq	$0, 2224(%rsp)
 7967      B0080000 
 7967      00000000 
 7968 26d4 48898424 		movq	%rax, 144(%rsp)
 7968      90000000 
 7969 26dc C78424B8 		movl	$0x00000000, 2232(%rsp)
 7969      08000000 
 7969      000000
 7970 26e7 C684249C 		movb	$0, 156(%rsp)
 7970      00000000 
 7971 26ef C684249C 		movb	$0, 412(%rsp)
 7971      01000000 
 7972 26f7 C68424A0 		movb	$0, 672(%rsp)
 7972      02000000 
 7973 26ff C68424A4 		movb	$0, 932(%rsp)
 7973      03000000 
 7974 2707 C68424A4 		movb	$0, 1188(%rsp)
 7974      04000000 
 7975 270f C68424A4 		movb	$0, 1444(%rsp)
 7975      05000000 
 7976 2717 C68424A8 		movb	$0, 1704(%rsp)
 7976      06000000 
 7977 271f C68424A8 		movb	$0, 1960(%rsp)
 7977      07000000 
 7978              	.LEHB170:
 7979 2727 E8000000 		call	_ZN8UnitTest11TestResultsC1EPNS_12TestReporterE@PLT
 7979      00
 7980 272c 488D5C24 		leaq	48(%rsp), %rbx
 7980      30
 7981 2731 4C8D2D00 		leaq	.LC90(%rip), %r13
 7981      000000
 7982 2738 41B83905 		movl	$1337, %r8d
 7982      0000
 7983 273e 4C8D3500 		leaq	.LC91(%rip), %r14
 7983      000000
 7984 2745 488D0D00 		leaq	.LC47(%rip), %rcx
 7984      000000
 7985 274c 4C89EA   		movq	%r13, %rdx
 7986 274f 4889DF   		movq	%rbx, %rdi
 7987 2752 4C89F6   		movq	%r14, %rsi
 7988 2755 E8000000 		call	_ZN8UnitTest11TestDetailsC1EPKcS2_S2_i@PLT
 7988      00
 7989 275a 488D6C24 		leaq	80(%rsp), %rbp
 7989      50
 7990 275f 488D7424 		leaq	112(%rsp), %rsi
 7990      70
 7991 2764 4989D8   		movq	%rbx, %r8
 7992 2767 4C89FF   		movq	%r15, %rdi
 7993 276a 488B0500 		movq	.LC92(%rip), %rax
 7993      000000
 7994 2771 488D9424 		leaq	128(%rsp), %rdx
 7994      80000000 
 7995 2779 4889E9   		movq	%rbp, %rcx
 7996 277c C7442478 		movl	$0x40000000, 120(%rsp)
 7996      00000040 
 7997 2784 C7842488 		movl	$0x4000a3d7, 136(%rsp)
 7997      000000D7 
 7997      A30040
 7998 278f 48894424 		movq	%rax, 112(%rsp)
 7998      70
 7999 2794 488B0500 		movq	.LC94(%rip), %rax
 7999      000000
 8000 279b C7442450 		movl	$0x3a83126f, 80(%rsp)
 8000      6F12833A 
 8001 27a3 48898424 		movq	%rax, 128(%rsp)
 8001      80000000 
 8002 27ab E8B0EBFF 		call	_ZN8UnitTest15CheckArrayCloseIA3_fS1_fEEvRNS_11TestResultsERKT_RKT0_iRKT1_RKNS_11TestDetailsE
 8002      FF
 8003              	.LEHE170:
 8004              	.LEHB171:
 8005 27b0 E8000000 		call	_ZN8UnitTest11CurrentTest7DetailsEv@PLT
 8005      00
 8006 27b5 488B30   		movq	(%rax), %rsi
 8007 27b8 BAE90000 		movl	$233, %edx
 8007      00
 8008 27bd 4889EF   		movq	%rbp, %rdi
 8009 27c0 E8000000 		call	_ZN8UnitTest11TestDetailsC1ERKS0_i@PLT
 8009      00
 8010 27c5 E8000000 		call	_ZN8UnitTest11CurrentTest7ResultsEv@PLT
 8010      00
 8011 27ca 488B38   		movq	(%rax), %rdi
 8012 27cd 488D9424 		leaq	1188(%rsp), %rdx
 8012      A4040000 
 8013 27d5 4889E9   		movq	%rbp, %rcx
 8014 27d8 4C89F6   		movq	%r14, %rsi
 8015 27db E8000000 		call	_ZN8UnitTest10CheckEqualERNS_11TestResultsEPKcPcRKNS_11TestDetailsE@PLT
 8015      00
 8016              	.LEHE171:
 8017              	.L512:
 8018              	.LEHB172:
 8019 27e0 E8000000 		call	_ZN8UnitTest11CurrentTest7DetailsEv@PLT
 8019      00
 8020 27e5 488B30   		movq	(%rax), %rsi
 8021 27e8 BAEA0000 		movl	$234, %edx
 8021      00
 8022 27ed 4889EF   		movq	%rbp, %rdi
 8023 27f0 E8000000 		call	_ZN8UnitTest11TestDetailsC1ERKS0_i@PLT
 8023      00
 8024 27f5 E8000000 		call	_ZN8UnitTest11CurrentTest7ResultsEv@PLT
 8024      00
 8025 27fa 488B38   		movq	(%rax), %rdi
 8026 27fd 488D9424 		leaq	932(%rsp), %rdx
 8026      A4030000 
 8027 2805 4889E9   		movq	%rbp, %rcx
 8028 2808 4C89EE   		movq	%r13, %rsi
 8029 280b E8000000 		call	_ZN8UnitTest10CheckEqualERNS_11TestResultsEPKcPcRKNS_11TestDetailsE@PLT
 8029      00
 8030              	.LEHE172:
 8031              	.L516:
 8032              	.LEHB173:
 8033 2810 E8000000 		call	_ZN8UnitTest11CurrentTest7DetailsEv@PLT
 8033      00
 8034 2815 488B30   		movq	(%rax), %rsi
 8035 2818 BAEB0000 		movl	$235, %edx
 8035      00
 8036 281d 4889EF   		movq	%rbp, %rdi
 8037 2820 E8000000 		call	_ZN8UnitTest11TestDetailsC1ERKS0_i@PLT
 8037      00
 8038 2825 E8000000 		call	_ZN8UnitTest11CurrentTest7ResultsEv@PLT
 8038      00
 8039 282a 488B38   		movq	(%rax), %rdi
 8040 282d 488D9424 		leaq	672(%rsp), %rdx
 8040      A0020000 
 8041 2835 4889E9   		movq	%rbp, %rcx
 8042 2838 488D3500 		leaq	.LC47(%rip), %rsi
 8042      000000
 8043 283f E8000000 		call	_ZN8UnitTest10CheckEqualERNS_11TestResultsEPKcPcRKNS_11TestDetailsE@PLT
 8043      00
 8044              	.LEHE173:
 8045              	.L519:
 8046              	.LEHB174:
 8047 2844 E8000000 		call	_ZN8UnitTest11CurrentTest7DetailsEv@PLT
 8047      00
 8048 2849 488B30   		movq	(%rax), %rsi
 8049 284c BAEC0000 		movl	$236, %edx
 8049      00
 8050 2851 4889EF   		movq	%rbp, %rdi
 8051 2854 E8000000 		call	_ZN8UnitTest11TestDetailsC1ERKS0_i@PLT
 8051      00
 8052 2859 C744240C 		movl	$1337, 12(%rsp)
 8052      39050000 
 8053 2861 E8000000 		call	_ZN8UnitTest11CurrentTest7ResultsEv@PLT
 8053      00
 8054 2866 488B38   		movq	(%rax), %rdi
 8055 2869 488D9424 		leaq	928(%rsp), %rdx
 8055      A0030000 
 8056 2871 488D7424 		leaq	12(%rsp), %rsi
 8056      0C
 8057 2876 4889E9   		movq	%rbp, %rcx
 8058 2879 E8000000 		call	_ZN8UnitTest10CheckEqualIiiEEvRNS_11TestResultsERKT_RKT0_RKNS_11TestDetailsE
 8058      00
 8059              	.LEHE174:
 8060              	.L522:
 8061 287e 488D0500 		leaq	16+_ZTV17RecordingReporter(%rip), %rax
 8061      000000
 8062 2885 4C89E7   		movq	%r12, %rdi
 8063 2888 48898424 		movq	%rax, 144(%rsp)
 8063      90000000 
 8064              	.LEHB175:
 8065 2890 E8000000 		call	_ZN8UnitTest12TestReporterD2Ev@PLT
 8065      00
 8066              	.LEHE175:
 8067 2895 488B8424 		movq	2248(%rsp), %rax
 8067      C8080000 
 8068 289d 64482B04 		subq	%fs:40, %rax
 8068      25280000 
 8068      00
 8069 28a6 7512     		jne	.L538
 8070 28a8 4881C4D8 		addq	$2264, %rsp
 8070      080000
 8071              		.cfi_remember_state
 8072              		.cfi_def_cfa_offset 56
 8073 28af 5B       		popq	%rbx
 8074              		.cfi_def_cfa_offset 48
 8075 28b0 5D       		popq	%rbp
 8076              		.cfi_def_cfa_offset 40
 8077 28b1 415C     		popq	%r12
 8078              		.cfi_def_cfa_offset 32
 8079 28b3 415D     		popq	%r13
 8080              		.cfi_def_cfa_offset 24
 8081 28b5 415E     		popq	%r14
 8082              		.cfi_def_cfa_offset 16
 8083 28b7 415F     		popq	%r15
 8084              		.cfi_def_cfa_offset 8
 8085 28b9 C3       		ret
 8086              	.L538:
 8087              		.cfi_restore_state
 8088 28ba E8000000 		call	__stack_chk_fail@PLT
 8088      00
 8089              	.L532:
 8090 28bf F30F1EFA 		endbr64
 8091 28c3 4889C7   		movq	%rax, %rdi
 8092 28c6 E9000000 		jmp	.L521
 8092      00
 8093              	.L530:
 8094 28cb F30F1EFA 		endbr64
 8095 28cf 4889C7   		movq	%rax, %rdi
 8096 28d2 E9000000 		jmp	.L518
 8096      00
 8097              	.L526:
 8098 28d7 F30F1EFA 		endbr64
 8099 28db 4889C7   		movq	%rax, %rdi
 8100 28de E9000000 		jmp	.L511
 8100      00
 8101              	.L528:
 8102 28e3 F30F1EFA 		endbr64
 8103 28e7 4889C7   		movq	%rax, %rdi
 8104 28ea E9000000 		jmp	.L515
 8104      00
 8105              	.L534:
 8106 28ef F30F1EFA 		endbr64
 8107 28f3 E9000000 		jmp	.L535
 8107      00
 8108              		.section	.gcc_except_table
 8109              		.align 4
 8110              	.LLSDA1305:
 8111 054c FF       		.byte	0xff
 8112 054d 9B       		.byte	0x9b
 8113 054e 2D       		.uleb128 .LLSDATT1305-.LLSDATTD1305
 8114              	.LLSDATTD1305:
 8115 054f 01       		.byte	0x1
 8116 0550 24       		.uleb128 .LLSDACSE1305-.LLSDACSB1305
 8117              	.LLSDACSB1305:
 8118 0551 D701     		.uleb128 .LEHB170-.LFB1305
 8119 0553 8901     		.uleb128 .LEHE170-.LEHB170
 8120 0555 9F05     		.uleb128 .L534-.LFB1305
 8121 0557 00       		.uleb128 0
 8122 0558 E002     		.uleb128 .LEHB171-.LFB1305
 8123 055a 30       		.uleb128 .LEHE171-.LEHB171
 8124 055b 8705     		.uleb128 .L526-.LFB1305
 8125 055d 01       		.uleb128 0x1
 8126 055e 9003     		.uleb128 .LEHB172-.LFB1305
 8127 0560 30       		.uleb128 .LEHE172-.LEHB172
 8128 0561 9305     		.uleb128 .L528-.LFB1305
 8129 0563 01       		.uleb128 0x1
 8130 0564 C003     		.uleb128 .LEHB173-.LFB1305
 8131 0566 34       		.uleb128 .LEHE173-.LEHB173
 8132 0567 FB04     		.uleb128 .L530-.LFB1305
 8133 0569 01       		.uleb128 0x1
 8134 056a F403     		.uleb128 .LEHB174-.LFB1305
 8135 056c 3A       		.uleb128 .LEHE174-.LEHB174
 8136 056d EF04     		.uleb128 .L532-.LFB1305
 8137 056f 01       		.uleb128 0x1
 8138 0570 C004     		.uleb128 .LEHB175-.LFB1305
 8139 0572 05       		.uleb128 .LEHE175-.LEHB175
 8140 0573 00       		.uleb128 0
 8141 0574 00       		.uleb128 0
 8142              	.LLSDACSE1305:
 8143 0575 01       		.byte	0x1
 8144 0576 00       		.byte	0
 8145 0577 00       		.align 4
 8146 0578 00000000 		.long	0
 8147              	
 8148              	.LLSDATT1305:
 8149              		.text
 8150              		.cfi_endproc
 8151              		.section	.text.unlikely
 8152              		.cfi_startproc
 8153              		.cfi_personality 0x9b,DW.ref.__gxx_personality_v0
 8154              		.cfi_lsda 0x1b,.LLSDAC1305
 8156              	_ZNK12_GLOBAL__N_141TestCheckArrayCloseFailureIncludesDetails7RunImplEv.cold:
 8157              	.LFSB1305:
 8158              	.L521:
 8159              		.cfi_def_cfa_offset 2320
 8160              		.cfi_offset 3, -56
 8161              		.cfi_offset 6, -48
 8162              		.cfi_offset 12, -40
 8163              		.cfi_offset 13, -32
 8164              		.cfi_offset 14, -24
 8165              		.cfi_offset 15, -16
 8166 092c E8000000 		call	__cxa_begin_catch@PLT
 8166      00
 8167              	.LEHB176:
 8168 0931 E8000000 		call	_ZN8UnitTest11CurrentTest7ResultsEv@PLT
 8168      00
 8169 0936 4C8B28   		movq	(%rax), %r13
 8170 0939 E8000000 		call	_ZN8UnitTest11CurrentTest7DetailsEv@PLT
 8170      00
 8171 093e 488B30   		movq	(%rax), %rsi
 8172 0941 BAEC0000 		movl	$236, %edx
 8172      00
 8173 0946 4889EF   		movq	%rbp, %rdi
 8174 0949 E8000000 		call	_ZN8UnitTest11TestDetailsC1ERKS0_i@PLT
 8174      00
 8175 094e 488D1500 		leaq	.LC98(%rip), %rdx
 8175      000000
 8176 0955 4889EE   		movq	%rbp, %rsi
 8177 0958 4C89EF   		movq	%r13, %rdi
 8178 095b E8000000 		call	_ZN8UnitTest11TestResults13OnTestFailureERKNS_11TestDetailsEPKc@PLT
 8178      00
 8179              	.LEHE176:
 8180              	.LEHB177:
 8181 0960 E8000000 		call	__cxa_end_catch@PLT
 8181      00
 8182              	.LEHE177:
 8183 0965 E9000000 		jmp	.L522
 8183      00
 8184              	.L518:
 8185 096a E8000000 		call	__cxa_begin_catch@PLT
 8185      00
 8186              	.LEHB178:
 8187 096f E8000000 		call	_ZN8UnitTest11CurrentTest7ResultsEv@PLT
 8187      00
 8188 0974 4C8B28   		movq	(%rax), %r13
 8189 0977 E8000000 		call	_ZN8UnitTest11CurrentTest7DetailsEv@PLT
 8189      00
 8190 097c 488B30   		movq	(%rax), %rsi
 8191 097f BAEB0000 		movl	$235, %edx
 8191      00
 8192 0984 4889EF   		movq	%rbp, %rdi
 8193 0987 E8000000 		call	_ZN8UnitTest11TestDetailsC1ERKS0_i@PLT
 8193      00
 8194 098c 488D1500 		leaq	.LC59(%rip), %rdx
 8194      000000
 8195 0993 4889EE   		movq	%rbp, %rsi
 8196 0996 4C89EF   		movq	%r13, %rdi
 8197 0999 E8000000 		call	_ZN8UnitTest11TestResults13OnTestFailureERKNS_11TestDetailsEPKc@PLT
 8197      00
 8198              	.LEHE178:
 8199              	.LEHB179:
 8200 099e E8000000 		call	__cxa_end_catch@PLT
 8200      00
 8201              	.LEHE179:
 8202 09a3 E9000000 		jmp	.L519
 8202      00
 8203              	.L515:
 8204 09a8 E8000000 		call	__cxa_begin_catch@PLT
 8204      00
 8205              	.LEHB180:
 8206 09ad E8000000 		call	_ZN8UnitTest11CurrentTest7ResultsEv@PLT
 8206      00
 8207 09b2 4C8B28   		movq	(%rax), %r13
 8208 09b5 E8000000 		call	_ZN8UnitTest11CurrentTest7DetailsEv@PLT
 8208      00
 8209 09ba 488B30   		movq	(%rax), %rsi
 8210 09bd BAEA0000 		movl	$234, %edx
 8210      00
 8211 09c2 4889EF   		movq	%rbp, %rdi
 8212 09c5 E8000000 		call	_ZN8UnitTest11TestDetailsC1ERKS0_i@PLT
 8212      00
 8213 09ca 488D1500 		leaq	.LC97(%rip), %rdx
 8213      000000
 8214 09d1 4889EE   		movq	%rbp, %rsi
 8215 09d4 4C89EF   		movq	%r13, %rdi
 8216 09d7 E8000000 		call	_ZN8UnitTest11TestResults13OnTestFailureERKNS_11TestDetailsEPKc@PLT
 8216      00
 8217              	.LEHE180:
 8218              	.LEHB181:
 8219 09dc E8000000 		call	__cxa_end_catch@PLT
 8219      00
 8220              	.LEHE181:
 8221 09e1 E9000000 		jmp	.L516
 8221      00
 8222              	.L531:
 8223 09e6 F30F1EFA 		endbr64
 8224 09ea 4889C5   		movq	%rax, %rbp
 8225 09ed E8000000 		call	__cxa_end_catch@PLT
 8225      00
 8226              	.L514:
 8227 09f2 488D0500 		leaq	16+_ZTV17RecordingReporter(%rip), %rax
 8227      000000
 8228 09f9 4C89E7   		movq	%r12, %rdi
 8229 09fc 48898424 		movq	%rax, 144(%rsp)
 8229      90000000 
 8230 0a04 E8000000 		call	_ZN8UnitTest12TestReporterD2Ev@PLT
 8230      00
 8231 0a09 4889EF   		movq	%rbp, %rdi
 8232              	.LEHB182:
 8233 0a0c E8000000 		call	_Unwind_Resume@PLT
 8233      00
 8234              	.LEHE182:
 8235              	.L529:
 8236 0a11 F30F1EFA 		endbr64
 8237 0a15 4889C5   		movq	%rax, %rbp
 8238 0a18 E8000000 		call	__cxa_end_catch@PLT
 8238      00
 8239 0a1d EBD3     		jmp	.L514
 8240              	.L511:
 8241 0a1f E8000000 		call	__cxa_begin_catch@PLT
 8241      00
 8242              	.LEHB183:
 8243 0a24 E8000000 		call	_ZN8UnitTest11CurrentTest7ResultsEv@PLT
 8243      00
 8244 0a29 4C8B30   		movq	(%rax), %r14
 8245 0a2c E8000000 		call	_ZN8UnitTest11CurrentTest7DetailsEv@PLT
 8245      00
 8246 0a31 488B30   		movq	(%rax), %rsi
 8247 0a34 BAE90000 		movl	$233, %edx
 8247      00
 8248 0a39 4889EF   		movq	%rbp, %rdi
 8249 0a3c E8000000 		call	_ZN8UnitTest11TestDetailsC1ERKS0_i@PLT
 8249      00
 8250 0a41 488D1500 		leaq	.LC96(%rip), %rdx
 8250      000000
 8251 0a48 4889EE   		movq	%rbp, %rsi
 8252 0a4b 4C89F7   		movq	%r14, %rdi
 8253 0a4e E8000000 		call	_ZN8UnitTest11TestResults13OnTestFailureERKNS_11TestDetailsEPKc@PLT
 8253      00
 8254              	.LEHE183:
 8255              	.LEHB184:
 8256 0a53 E8000000 		call	__cxa_end_catch@PLT
 8256      00
 8257              	.LEHE184:
 8258 0a58 E9000000 		jmp	.L512
 8258      00
 8259              	.L525:
 8260 0a5d F30F1EFA 		endbr64
 8261              	.L535:
 8262 0a61 4889C5   		movq	%rax, %rbp
 8263 0a64 EB8C     		jmp	.L514
 8264              	.L527:
 8265 0a66 F30F1EFA 		endbr64
 8266 0a6a 4889C5   		movq	%rax, %rbp
 8267 0a6d E8000000 		call	__cxa_end_catch@PLT
 8267      00
 8268 0a72 E97BFFFF 		jmp	.L514
 8268      FF
 8269              	.L533:
 8270 0a77 F30F1EFA 		endbr64
 8271 0a7b 4889C5   		movq	%rax, %rbp
 8272 0a7e E8000000 		call	__cxa_end_catch@PLT
 8272      00
 8273 0a83 E96AFFFF 		jmp	.L514
 8273      FF
 8274              		.cfi_endproc
 8275              	.LFE1305:
 8276              		.section	.gcc_except_table
 8277              		.align 4
 8278              	.LLSDAC1305:
 8279 057c FF       		.byte	0xff
 8280 057d 9B       		.byte	0x9b
 8281 057e 39       		.uleb128 .LLSDATTC1305-.LLSDATTDC1305
 8282              	.LLSDATTDC1305:
 8283 057f 01       		.byte	0x1
 8284 0580 31       		.uleb128 .LLSDACSEC1305-.LLSDACSBC1305
 8285              	.LLSDACSBC1305:
 8286 0581 05       		.uleb128 .LEHB176-.LCOLDB99
 8287 0582 2F       		.uleb128 .LEHE176-.LEHB176
 8288 0583 CB02     		.uleb128 .L533-.LCOLDB99
 8289 0585 00       		.uleb128 0
 8290 0586 34       		.uleb128 .LEHB177-.LCOLDB99
 8291 0587 05       		.uleb128 .LEHE177-.LEHB177
 8292 0588 B102     		.uleb128 .L525-.LCOLDB99
 8293 058a 00       		.uleb128 0
 8294 058b 43       		.uleb128 .LEHB178-.LCOLDB99
 8295 058c 2F       		.uleb128 .LEHE178-.LEHB178
 8296 058d BA01     		.uleb128 .L531-.LCOLDB99
 8297 058f 00       		.uleb128 0
 8298 0590 72       		.uleb128 .LEHB179-.LCOLDB99
 8299 0591 05       		.uleb128 .LEHE179-.LEHB179
 8300 0592 B102     		.uleb128 .L525-.LCOLDB99
 8301 0594 00       		.uleb128 0
 8302 0595 8101     		.uleb128 .LEHB180-.LCOLDB99
 8303 0597 2F       		.uleb128 .LEHE180-.LEHB180
 8304 0598 E501     		.uleb128 .L529-.LCOLDB99
 8305 059a 00       		.uleb128 0
 8306 059b B001     		.uleb128 .LEHB181-.LCOLDB99
 8307 059d 05       		.uleb128 .LEHE181-.LEHB181
 8308 059e B102     		.uleb128 .L525-.LCOLDB99
 8309 05a0 00       		.uleb128 0
 8310 05a1 E001     		.uleb128 .LEHB182-.LCOLDB99
 8311 05a3 05       		.uleb128 .LEHE182-.LEHB182
 8312 05a4 00       		.uleb128 0
 8313 05a5 00       		.uleb128 0
 8314 05a6 F801     		.uleb128 .LEHB183-.LCOLDB99
 8315 05a8 2F       		.uleb128 .LEHE183-.LEHB183
 8316 05a9 BA02     		.uleb128 .L527-.LCOLDB99
 8317 05ab 00       		.uleb128 0
 8318 05ac A702     		.uleb128 .LEHB184-.LCOLDB99
 8319 05ae 05       		.uleb128 .LEHE184-.LEHB184
 8320 05af B102     		.uleb128 .L525-.LCOLDB99
 8321 05b1 00       		.uleb128 0
 8322              	.LLSDACSEC1305:
 8323 05b2 01       		.byte	0x1
 8324 05b3 00       		.byte	0
 8325              		.align 4
 8326 05b4 00000000 		.long	0
 8327              	
 8328              	.LLSDATTC1305:
 8329              		.section	.text.unlikely
 8330              		.text
 8332              		.section	.text.unlikely
 8334              	.LCOLDE99:
 8335              		.text
 8336              	.LHOTE99:
 8337              		.section	.text.unlikely
 8338              		.align 2
 8339              	.LCOLDB100:
 8340              		.text
 8341              	.LHOTB100:
 8342              		.align 2
 8343 28f8 0F1F8400 		.p2align 4
 8343      00000000 
 8345              	_ZNK12_GLOBAL__N_124TestCheckArrayCloseFalse7RunImplEv:
 8346              	.LFB1301:
 8347              		.cfi_startproc
 8348              		.cfi_personality 0x9b,DW.ref.__gxx_personality_v0
 8349              		.cfi_lsda 0x1b,.LLSDA1301
 8350 2900 F30F1EFA 		endbr64
 8351 2904 4155     		pushq	%r13
 8352              		.cfi_def_cfa_offset 16
 8353              		.cfi_offset 13, -16
 8354 2906 31F6     		xorl	%esi, %esi
 8355 2908 4154     		pushq	%r12
 8356              		.cfi_def_cfa_offset 24
 8357              		.cfi_offset 12, -24
 8358 290a 55       		pushq	%rbp
 8359              		.cfi_def_cfa_offset 32
 8360              		.cfi_offset 6, -32
 8361 290b 4883C480 		addq	$-128, %rsp
 8362              		.cfi_def_cfa_offset 160
 8363 290f 64488B04 		movq	%fs:40, %rax
 8363      25280000 
 8363      00
 8364 2918 48894424 		movq	%rax, 120(%rsp)
 8364      78
 8365 291d 31C0     		xorl	%eax, %eax
 8366 291f 4C8D6424 		leaq	16(%rsp), %r12
 8366      10
 8367 2924 488D6C24 		leaq	48(%rsp), %rbp
 8367      30
 8368 2929 4C89E7   		movq	%r12, %rdi
 8369 292c 4C8D6C24 		leaq	12(%rsp), %r13
 8369      0C
 8370              	.LEHB185:
 8371 2931 E8000000 		call	_ZN8UnitTest11TestResultsC1EPNS_12TestReporterE@PLT
 8371      00
 8372 2936 488B0500 		movq	.LC92(%rip), %rax
 8372      000000
 8373 293d 4531C0   		xorl	%r8d, %r8d
 8374 2940 4889EF   		movq	%rbp, %rdi
 8375 2943 488D3500 		leaq	.LC62(%rip), %rsi
 8375      000000
 8376 294a C7442460 		movl	$0x40000000, 96(%rsp)
 8376      00000040 
 8377 2952 48894424 		movq	%rax, 88(%rsp)
 8377      58
 8378 2957 4889F1   		movq	%rsi, %rcx
 8379 295a 4889F2   		movq	%rsi, %rdx
 8380 295d 488B0500 		movq	.LC94(%rip), %rax
 8380      000000
 8381 2964 C7442470 		movl	$0x4000a3d7, 112(%rsp)
 8381      D7A30040 
 8382 296c 48894424 		movq	%rax, 104(%rsp)
 8382      68
 8383 2971 E8000000 		call	_ZN8UnitTest11TestDetailsC1EPKcS2_S2_i@PLT
 8383      00
 8384 2976 488D5424 		leaq	104(%rsp), %rdx
 8384      68
 8385 297b 4989E8   		movq	%rbp, %r8
 8386 297e 4C89E9   		movq	%r13, %rcx
 8387 2981 488D7424 		leaq	88(%rsp), %rsi
 8387      58
 8388 2986 4C89E7   		movq	%r12, %rdi
 8389 2989 C744240C 		movl	$0x3a83126f, 12(%rsp)
 8389      6F12833A 
 8390 2991 E8CAE9FF 		call	_ZN8UnitTest15CheckArrayCloseIA3_fS1_fEEvRNS_11TestResultsERKT_RKT0_iRKT1_RKNS_11TestDetailsE
 8390      FF
 8391              	.LEHE185:
 8392              	.LEHB186:
 8393 2996 E8000000 		call	_ZN8UnitTest11CurrentTest7DetailsEv@PLT
 8393      00
 8394 299b 488B30   		movq	(%rax), %rsi
 8395 299e BADC0000 		movl	$220, %edx
 8395      00
 8396 29a3 4889EF   		movq	%rbp, %rdi
 8397 29a6 E8000000 		call	_ZN8UnitTest11TestDetailsC1ERKS0_i@PLT
 8397      00
 8398 29ab 4C89E7   		movq	%r12, %rdi
 8399 29ae E8000000 		call	_ZNK8UnitTest11TestResults15GetFailureCountEv@PLT
 8399      00
 8400 29b3 8944240C 		movl	%eax, 12(%rsp)
 8401 29b7 C7442408 		movl	$1, 8(%rsp)
 8401      01000000 
 8402 29bf E8000000 		call	_ZN8UnitTest11CurrentTest7ResultsEv@PLT
 8402      00
 8403 29c4 488B38   		movq	(%rax), %rdi
 8404 29c7 488D7424 		leaq	8(%rsp), %rsi
 8404      08
 8405 29cc 4889E9   		movq	%rbp, %rcx
 8406 29cf 4C89EA   		movq	%r13, %rdx
 8407 29d2 E8000000 		call	_ZN8UnitTest10CheckEqualIiiEEvRNS_11TestResultsERKT_RKT0_RKNS_11TestDetailsE
 8407      00
 8408              	.LEHE186:
 8409              	.L539:
 8410 29d7 488B4424 		movq	120(%rsp), %rax
 8410      78
 8411 29dc 64482B04 		subq	%fs:40, %rax
 8411      25280000 
 8411      00
 8412 29e5 750A     		jne	.L547
 8413 29e7 4883EC80 		subq	$-128, %rsp
 8414              		.cfi_remember_state
 8415              		.cfi_def_cfa_offset 32
 8416 29eb 5D       		popq	%rbp
 8417              		.cfi_def_cfa_offset 24
 8418 29ec 415C     		popq	%r12
 8419              		.cfi_def_cfa_offset 16
 8420 29ee 415D     		popq	%r13
 8421              		.cfi_def_cfa_offset 8
 8422 29f0 C3       		ret
 8423              	.L547:
 8424              		.cfi_restore_state
 8425 29f1 E8000000 		call	__stack_chk_fail@PLT
 8425      00
 8426              	.L544:
 8427 29f6 F30F1EFA 		endbr64
 8428 29fa 4889C7   		movq	%rax, %rdi
 8429 29fd E9000000 		jmp	.L540
 8429      00
 8430              		.section	.gcc_except_table
 8431              		.align 4
 8432              	.LLSDA1301:
 8433 05b8 FF       		.byte	0xff
 8434 05b9 9B       		.byte	0x9b
 8435 05ba 15       		.uleb128 .LLSDATT1301-.LLSDATTD1301
 8436              	.LLSDATTD1301:
 8437 05bb 01       		.byte	0x1
 8438 05bc 0A       		.uleb128 .LLSDACSE1301-.LLSDACSB1301
 8439              	.LLSDACSB1301:
 8440 05bd 31       		.uleb128 .LEHB185-.LFB1301
 8441 05be 65       		.uleb128 .LEHE185-.LEHB185
 8442 05bf 00       		.uleb128 0
 8443 05c0 00       		.uleb128 0
 8444 05c1 9601     		.uleb128 .LEHB186-.LFB1301
 8445 05c3 41       		.uleb128 .LEHE186-.LEHB186
 8446 05c4 F601     		.uleb128 .L544-.LFB1301
 8447 05c6 01       		.uleb128 0x1
 8448              	.LLSDACSE1301:
 8449 05c7 01       		.byte	0x1
 8450 05c8 00       		.byte	0
 8451 05c9 000000   		.align 4
 8452 05cc 00000000 		.long	0
 8453              	
 8454              	.LLSDATT1301:
 8455              		.text
 8456              		.cfi_endproc
 8457              		.section	.text.unlikely
 8458              		.cfi_startproc
 8459              		.cfi_personality 0x9b,DW.ref.__gxx_personality_v0
 8460              		.cfi_lsda 0x1b,.LLSDAC1301
 8462              	_ZNK12_GLOBAL__N_124TestCheckArrayCloseFalse7RunImplEv.cold:
 8463              	.LFSB1301:
 8464              	.L540:
 8465              		.cfi_def_cfa_offset 160
 8466              		.cfi_offset 6, -32
 8467              		.cfi_offset 12, -24
 8468              		.cfi_offset 13, -16
 8469 0a88 E8000000 		call	__cxa_begin_catch@PLT
 8469      00
 8470              	.LEHB187:
 8471 0a8d E8000000 		call	_ZN8UnitTest11CurrentTest7ResultsEv@PLT
 8471      00
 8472 0a92 4C8B20   		movq	(%rax), %r12
 8473 0a95 E8000000 		call	_ZN8UnitTest11CurrentTest7DetailsEv@PLT
 8473      00
 8474 0a9a 488B30   		movq	(%rax), %rsi
 8475 0a9d BADC0000 		movl	$220, %edx
 8475      00
 8476 0aa2 4889EF   		movq	%rbp, %rdi
 8477 0aa5 E8000000 		call	_ZN8UnitTest11TestDetailsC1ERKS0_i@PLT
 8477      00
 8478 0aaa 488D1500 		leaq	.LC63(%rip), %rdx
 8478      000000
 8479 0ab1 4889EE   		movq	%rbp, %rsi
 8480 0ab4 4C89E7   		movq	%r12, %rdi
 8481 0ab7 E8000000 		call	_ZN8UnitTest11TestResults13OnTestFailureERKNS_11TestDetailsEPKc@PLT
 8481      00
 8482              	.LEHE187:
 8483              	.LEHB188:
 8484 0abc E8000000 		call	__cxa_end_catch@PLT
 8484      00
 8485              	.LEHE188:
 8486 0ac1 E9000000 		jmp	.L539
 8486      00
 8487              	.L545:
 8488 0ac6 F30F1EFA 		endbr64
 8489 0aca 4889C5   		movq	%rax, %rbp
 8490 0acd E8000000 		call	__cxa_end_catch@PLT
 8490      00
 8491 0ad2 4889EF   		movq	%rbp, %rdi
 8492              	.LEHB189:
 8493 0ad5 E8000000 		call	_Unwind_Resume@PLT
 8493      00
 8494              	.LEHE189:
 8495              		.cfi_endproc
 8496              	.LFE1301:
 8497              		.section	.gcc_except_table
 8498              		.align 4
 8499              	.LLSDAC1301:
 8500 05d0 FF       		.byte	0xff
 8501 05d1 9B       		.byte	0x9b
 8502 05d2 15       		.uleb128 .LLSDATTC1301-.LLSDATTDC1301
 8503              	.LLSDATTDC1301:
 8504 05d3 01       		.byte	0x1
 8505 05d4 0C       		.uleb128 .LLSDACSEC1301-.LLSDACSBC1301
 8506              	.LLSDACSBC1301:
 8507 05d5 05       		.uleb128 .LEHB187-.LCOLDB100
 8508 05d6 2F       		.uleb128 .LEHE187-.LEHB187
 8509 05d7 3E       		.uleb128 .L545-.LCOLDB100
 8510 05d8 00       		.uleb128 0
 8511 05d9 34       		.uleb128 .LEHB188-.LCOLDB100
 8512 05da 05       		.uleb128 .LEHE188-.LEHB188
 8513 05db 00       		.uleb128 0
 8514 05dc 00       		.uleb128 0
 8515 05dd 4D       		.uleb128 .LEHB189-.LCOLDB100
 8516 05de 05       		.uleb128 .LEHE189-.LEHB189
 8517 05df 00       		.uleb128 0
 8518 05e0 00       		.uleb128 0
 8519              	.LLSDACSEC1301:
 8520 05e1 01       		.byte	0x1
 8521 05e2 00       		.byte	0
 8522 05e3 00       		.align 4
 8523 05e4 00000000 		.long	0
 8524              	
 8525              	.LLSDATTC1301:
 8526              		.section	.text.unlikely
 8527              		.text
 8529              		.section	.text.unlikely
 8531              	.LCOLDE100:
 8532              		.text
 8533              	.LHOTE100:
 8534              		.section	.text.unlikely
 8535              		.align 2
 8536              	.LCOLDB101:
 8537              		.text
 8538              	.LHOTB101:
 8539              		.align 2
 8540 2a02 66662E0F 		.p2align 4
 8540      1F840000 
 8540      0000000F 
 8540      1F00
 8542              	_ZNK12_GLOBAL__N_123TestCheckArrayCloseTrue7RunImplEv:
 8543              	.LFB1297:
 8544              		.cfi_startproc
 8545              		.cfi_personality 0x9b,DW.ref.__gxx_personality_v0
 8546              		.cfi_lsda 0x1b,.LLSDA1297
 8547 2a10 F30F1EFA 		endbr64
 8548 2a14 4155     		pushq	%r13
 8549              		.cfi_def_cfa_offset 16
 8550              		.cfi_offset 13, -16
 8551 2a16 31F6     		xorl	%esi, %esi
 8552 2a18 4154     		pushq	%r12
 8553              		.cfi_def_cfa_offset 24
 8554              		.cfi_offset 12, -24
 8555 2a1a 55       		pushq	%rbp
 8556              		.cfi_def_cfa_offset 32
 8557              		.cfi_offset 6, -32
 8558 2a1b 4883C480 		addq	$-128, %rsp
 8559              		.cfi_def_cfa_offset 160
 8560 2a1f 64488B04 		movq	%fs:40, %rax
 8560      25280000 
 8560      00
 8561 2a28 48894424 		movq	%rax, 120(%rsp)
 8561      78
 8562 2a2d 31C0     		xorl	%eax, %eax
 8563 2a2f 4C8D6424 		leaq	16(%rsp), %r12
 8563      10
 8564 2a34 488D6C24 		leaq	48(%rsp), %rbp
 8564      30
 8565 2a39 4C89E7   		movq	%r12, %rdi
 8566 2a3c 4C8D6C24 		leaq	12(%rsp), %r13
 8566      0C
 8567              	.LEHB190:
 8568 2a41 E8000000 		call	_ZN8UnitTest11TestResultsC1EPNS_12TestReporterE@PLT
 8568      00
 8569 2a46 488B0500 		movq	.LC92(%rip), %rax
 8569      000000
 8570 2a4d 4531C0   		xorl	%r8d, %r8d
 8571 2a50 4889EF   		movq	%rbp, %rdi
 8572 2a53 488D3500 		leaq	.LC62(%rip), %rsi
 8572      000000
 8573 2a5a C7442460 		movl	$0x40000000, 96(%rsp)
 8573      00000040 
 8574 2a62 48894424 		movq	%rax, 88(%rsp)
 8574      58
 8575 2a67 4889F1   		movq	%rsi, %rcx
 8576 2a6a 4889F2   		movq	%rsi, %rdx
 8577 2a6d 488B0500 		movq	.LC94(%rip), %rax
 8577      000000
 8578 2a74 C7442470 		movl	$0x4000a3d7, 112(%rsp)
 8578      D7A30040 
 8579 2a7c 48894424 		movq	%rax, 104(%rsp)
 8579      68
 8580 2a81 E8000000 		call	_ZN8UnitTest11TestDetailsC1EPKcS2_S2_i@PLT
 8580      00
 8581 2a86 488D5424 		leaq	104(%rsp), %rdx
 8581      68
 8582 2a8b 4989E8   		movq	%rbp, %r8
 8583 2a8e 4C89E9   		movq	%r13, %rcx
 8584 2a91 488D7424 		leaq	88(%rsp), %rsi
 8584      58
 8585 2a96 4C89E7   		movq	%r12, %rdi
 8586 2a99 C744240C 		movl	$0x3ca3d70a, 12(%rsp)
 8586      0AD7A33C 
 8587 2aa1 E8BAE8FF 		call	_ZN8UnitTest15CheckArrayCloseIA3_fS1_fEEvRNS_11TestResultsERKT_RKT0_iRKT1_RKNS_11TestDetailsE
 8587      FF
 8588              	.LEHE190:
 8589              	.LEHB191:
 8590 2aa6 E8000000 		call	_ZN8UnitTest11CurrentTest7DetailsEv@PLT
 8590      00
 8591 2aab 488B30   		movq	(%rax), %rsi
 8592 2aae BAD20000 		movl	$210, %edx
 8592      00
 8593 2ab3 4889EF   		movq	%rbp, %rdi
 8594 2ab6 E8000000 		call	_ZN8UnitTest11TestDetailsC1ERKS0_i@PLT
 8594      00
 8595 2abb 4C89E7   		movq	%r12, %rdi
 8596 2abe E8000000 		call	_ZNK8UnitTest11TestResults15GetFailureCountEv@PLT
 8596      00
 8597 2ac3 8944240C 		movl	%eax, 12(%rsp)
 8598 2ac7 C7442408 		movl	$0, 8(%rsp)
 8598      00000000 
 8599 2acf E8000000 		call	_ZN8UnitTest11CurrentTest7ResultsEv@PLT
 8599      00
 8600 2ad4 488B38   		movq	(%rax), %rdi
 8601 2ad7 488D7424 		leaq	8(%rsp), %rsi
 8601      08
 8602 2adc 4889E9   		movq	%rbp, %rcx
 8603 2adf 4C89EA   		movq	%r13, %rdx
 8604 2ae2 E8000000 		call	_ZN8UnitTest10CheckEqualIiiEEvRNS_11TestResultsERKT_RKT0_RKNS_11TestDetailsE
 8604      00
 8605              	.LEHE191:
 8606              	.L548:
 8607 2ae7 488B4424 		movq	120(%rsp), %rax
 8607      78
 8608 2aec 64482B04 		subq	%fs:40, %rax
 8608      25280000 
 8608      00
 8609 2af5 750A     		jne	.L556
 8610 2af7 4883EC80 		subq	$-128, %rsp
 8611              		.cfi_remember_state
 8612              		.cfi_def_cfa_offset 32
 8613 2afb 5D       		popq	%rbp
 8614              		.cfi_def_cfa_offset 24
 8615 2afc 415C     		popq	%r12
 8616              		.cfi_def_cfa_offset 16
 8617 2afe 415D     		popq	%r13
 8618              		.cfi_def_cfa_offset 8
 8619 2b00 C3       		ret
 8620              	.L556:
 8621              		.cfi_restore_state
 8622 2b01 E8000000 		call	__stack_chk_fail@PLT
 8622      00
 8623              	.L553:
 8624 2b06 F30F1EFA 		endbr64
 8625 2b0a 4889C7   		movq	%rax, %rdi
 8626 2b0d E9000000 		jmp	.L549
 8626      00
 8627              		.section	.gcc_except_table
 8628              		.align 4
 8629              	.LLSDA1297:
 8630 05e8 FF       		.byte	0xff
 8631 05e9 9B       		.byte	0x9b
 8632 05ea 15       		.uleb128 .LLSDATT1297-.LLSDATTD1297
 8633              	.LLSDATTD1297:
 8634 05eb 01       		.byte	0x1
 8635 05ec 0A       		.uleb128 .LLSDACSE1297-.LLSDACSB1297
 8636              	.LLSDACSB1297:
 8637 05ed 31       		.uleb128 .LEHB190-.LFB1297
 8638 05ee 65       		.uleb128 .LEHE190-.LEHB190
 8639 05ef 00       		.uleb128 0
 8640 05f0 00       		.uleb128 0
 8641 05f1 9601     		.uleb128 .LEHB191-.LFB1297
 8642 05f3 41       		.uleb128 .LEHE191-.LEHB191
 8643 05f4 F601     		.uleb128 .L553-.LFB1297
 8644 05f6 01       		.uleb128 0x1
 8645              	.LLSDACSE1297:
 8646 05f7 01       		.byte	0x1
 8647 05f8 00       		.byte	0
 8648 05f9 000000   		.align 4
 8649 05fc 00000000 		.long	0
 8650              	
 8651              	.LLSDATT1297:
 8652              		.text
 8653              		.cfi_endproc
 8654              		.section	.text.unlikely
 8655              		.cfi_startproc
 8656              		.cfi_personality 0x9b,DW.ref.__gxx_personality_v0
 8657              		.cfi_lsda 0x1b,.LLSDAC1297
 8659              	_ZNK12_GLOBAL__N_123TestCheckArrayCloseTrue7RunImplEv.cold:
 8660              	.LFSB1297:
 8661              	.L549:
 8662              		.cfi_def_cfa_offset 160
 8663              		.cfi_offset 6, -32
 8664              		.cfi_offset 12, -24
 8665              		.cfi_offset 13, -16
 8666 0ada E8000000 		call	__cxa_begin_catch@PLT
 8666      00
 8667              	.LEHB192:
 8668 0adf E8000000 		call	_ZN8UnitTest11CurrentTest7ResultsEv@PLT
 8668      00
 8669 0ae4 4C8B20   		movq	(%rax), %r12
 8670 0ae7 E8000000 		call	_ZN8UnitTest11CurrentTest7DetailsEv@PLT
 8670      00
 8671 0aec 488B30   		movq	(%rax), %rsi
 8672 0aef BAD20000 		movl	$210, %edx
 8672      00
 8673 0af4 4889EF   		movq	%rbp, %rdi
 8674 0af7 E8000000 		call	_ZN8UnitTest11TestDetailsC1ERKS0_i@PLT
 8674      00
 8675 0afc 488D1500 		leaq	.LC66(%rip), %rdx
 8675      000000
 8676 0b03 4889EE   		movq	%rbp, %rsi
 8677 0b06 4C89E7   		movq	%r12, %rdi
 8678 0b09 E8000000 		call	_ZN8UnitTest11TestResults13OnTestFailureERKNS_11TestDetailsEPKc@PLT
 8678      00
 8679              	.LEHE192:
 8680              	.LEHB193:
 8681 0b0e E8000000 		call	__cxa_end_catch@PLT
 8681      00
 8682              	.LEHE193:
 8683 0b13 E9000000 		jmp	.L548
 8683      00
 8684              	.L554:
 8685 0b18 F30F1EFA 		endbr64
 8686 0b1c 4889C5   		movq	%rax, %rbp
 8687 0b1f E8000000 		call	__cxa_end_catch@PLT
 8687      00
 8688 0b24 4889EF   		movq	%rbp, %rdi
 8689              	.LEHB194:
 8690 0b27 E8000000 		call	_Unwind_Resume@PLT
 8690      00
 8691              	.LEHE194:
 8692              		.cfi_endproc
 8693              	.LFE1297:
 8694              		.section	.gcc_except_table
 8695              		.align 4
 8696              	.LLSDAC1297:
 8697 0600 FF       		.byte	0xff
 8698 0601 9B       		.byte	0x9b
 8699 0602 15       		.uleb128 .LLSDATTC1297-.LLSDATTDC1297
 8700              	.LLSDATTDC1297:
 8701 0603 01       		.byte	0x1
 8702 0604 0C       		.uleb128 .LLSDACSEC1297-.LLSDACSBC1297
 8703              	.LLSDACSBC1297:
 8704 0605 05       		.uleb128 .LEHB192-.LCOLDB101
 8705 0606 2F       		.uleb128 .LEHE192-.LEHB192
 8706 0607 3E       		.uleb128 .L554-.LCOLDB101
 8707 0608 00       		.uleb128 0
 8708 0609 34       		.uleb128 .LEHB193-.LCOLDB101
 8709 060a 05       		.uleb128 .LEHE193-.LEHB193
 8710 060b 00       		.uleb128 0
 8711 060c 00       		.uleb128 0
 8712 060d 4D       		.uleb128 .LEHB194-.LCOLDB101
 8713 060e 05       		.uleb128 .LEHE194-.LEHB194
 8714 060f 00       		.uleb128 0
 8715 0610 00       		.uleb128 0
 8716              	.LLSDACSEC1297:
 8717 0611 01       		.byte	0x1
 8718 0612 00       		.byte	0
 8719 0613 00       		.align 4
 8720 0614 00000000 		.long	0
 8721              	
 8722              	.LLSDATTC1297:
 8723              		.section	.text.unlikely
 8724              		.text
 8726              		.section	.text.unlikely
 8728              	.LCOLDE101:
 8729              		.text
 8730              	.LHOTE101:
 8731              		.section	.text.unlikely
 8732              		.align 2
 8733              	.LCOLDB103:
 8734              		.text
 8735              	.LHOTB103:
 8736              		.align 2
 8737 2b12 66662E0F 		.p2align 4
 8737      1F840000 
 8737      0000000F 
 8737      1F00
 8739              	_ZNK12_GLOBAL__N_124TestCheckArrayEqualFalse7RunImplEv:
 8740              	.LFB1293:
 8741              		.cfi_startproc
 8742              		.cfi_personality 0x9b,DW.ref.__gxx_personality_v0
 8743              		.cfi_lsda 0x1b,.LLSDA1293
 8744 2b20 F30F1EFA 		endbr64
 8745 2b24 4154     		pushq	%r12
 8746              		.cfi_def_cfa_offset 16
 8747              		.cfi_offset 12, -16
 8748 2b26 31F6     		xorl	%esi, %esi
 8749 2b28 55       		pushq	%rbp
 8750              		.cfi_def_cfa_offset 24
 8751              		.cfi_offset 6, -24
 8752 2b29 4881EC88 		subq	$136, %rsp
 8752      000000
 8753              		.cfi_def_cfa_offset 160
 8754 2b30 64488B04 		movq	%fs:40, %rax
 8754      25280000 
 8754      00
 8755 2b39 48894424 		movq	%rax, 120(%rsp)
 8755      78
 8756 2b3e 31C0     		xorl	%eax, %eax
 8757 2b40 4C8D6424 		leaq	16(%rsp), %r12
 8757      10
 8758 2b45 488D6C24 		leaq	48(%rsp), %rbp
 8758      30
 8759 2b4a 4C89E7   		movq	%r12, %rdi
 8760              	.LEHB195:
 8761 2b4d E8000000 		call	_ZN8UnitTest11TestResultsC1EPNS_12TestReporterE@PLT
 8761      00
 8762 2b52 488B0500 		movq	.LC102(%rip), %rax
 8762      000000
 8763 2b59 4889EF   		movq	%rbp, %rdi
 8764 2b5c 4531C0   		xorl	%r8d, %r8d
 8765 2b5f 488D3500 		leaq	.LC62(%rip), %rsi
 8765      000000
 8766 2b66 C7442460 		movl	$3, 96(%rsp)
 8766      03000000 
 8767 2b6e 4889F1   		movq	%rsi, %rcx
 8768 2b71 4889F2   		movq	%rsi, %rdx
 8769 2b74 48894424 		movq	%rax, 88(%rsp)
 8769      58
 8770 2b79 48894424 		movq	%rax, 104(%rsp)
 8770      68
 8771 2b7e C7442470 		movl	$2, 112(%rsp)
 8771      02000000 
 8772 2b86 E8000000 		call	_ZN8UnitTest11TestDetailsC1EPKcS2_S2_i@PLT
 8772      00
 8773 2b8b 488D5424 		leaq	104(%rsp), %rdx
 8773      68
 8774 2b90 4889E9   		movq	%rbp, %rcx
 8775 2b93 4C89E7   		movq	%r12, %rdi
 8776 2b96 488D7424 		leaq	88(%rsp), %rsi
 8776      58
 8777 2b9b E870E4FF 		call	_ZN8UnitTest15CheckArrayEqualIA3_iS1_EEvRNS_11TestResultsERKT_RKT0_iRKNS_11TestDetailsE.const
 8777      FF
 8778              	.LEHE195:
 8779              	.LEHB196:
 8780 2ba0 E8000000 		call	_ZN8UnitTest11CurrentTest7DetailsEv@PLT
 8780      00
 8781 2ba5 488B30   		movq	(%rax), %rsi
 8782 2ba8 BAC80000 		movl	$200, %edx
 8782      00
 8783 2bad 4889EF   		movq	%rbp, %rdi
 8784 2bb0 E8000000 		call	_ZN8UnitTest11TestDetailsC1ERKS0_i@PLT
 8784      00
 8785 2bb5 4C89E7   		movq	%r12, %rdi
 8786 2bb8 E8000000 		call	_ZNK8UnitTest11TestResults15GetFailureCountEv@PLT
 8786      00
 8787 2bbd 8944240C 		movl	%eax, 12(%rsp)
 8788 2bc1 C7442408 		movl	$1, 8(%rsp)
 8788      01000000 
 8789 2bc9 E8000000 		call	_ZN8UnitTest11CurrentTest7ResultsEv@PLT
 8789      00
 8790 2bce 488B38   		movq	(%rax), %rdi
 8791 2bd1 488D5424 		leaq	12(%rsp), %rdx
 8791      0C
 8792 2bd6 488D7424 		leaq	8(%rsp), %rsi
 8792      08
 8793 2bdb 4889E9   		movq	%rbp, %rcx
 8794 2bde E8000000 		call	_ZN8UnitTest10CheckEqualIiiEEvRNS_11TestResultsERKT_RKT0_RKNS_11TestDetailsE
 8794      00
 8795              	.LEHE196:
 8796              	.L557:
 8797 2be3 488B4424 		movq	120(%rsp), %rax
 8797      78
 8798 2be8 64482B04 		subq	%fs:40, %rax
 8798      25280000 
 8798      00
 8799 2bf1 750B     		jne	.L565
 8800 2bf3 4881C488 		addq	$136, %rsp
 8800      000000
 8801              		.cfi_remember_state
 8802              		.cfi_def_cfa_offset 24
 8803 2bfa 5D       		popq	%rbp
 8804              		.cfi_def_cfa_offset 16
 8805 2bfb 415C     		popq	%r12
 8806              		.cfi_def_cfa_offset 8
 8807 2bfd C3       		ret
 8808              	.L565:
 8809              		.cfi_restore_state
 8810 2bfe E8000000 		call	__stack_chk_fail@PLT
 8810      00
 8811              	.L562:
 8812 2c03 F30F1EFA 		endbr64
 8813 2c07 4889C7   		movq	%rax, %rdi
 8814 2c0a E9000000 		jmp	.L558
 8814      00
 8815              		.section	.gcc_except_table
 8816              		.align 4
 8817              	.LLSDA1293:
 8818 0618 FF       		.byte	0xff
 8819 0619 9B       		.byte	0x9b
 8820 061a 15       		.uleb128 .LLSDATT1293-.LLSDATTD1293
 8821              	.LLSDATTD1293:
 8822 061b 01       		.byte	0x1
 8823 061c 0A       		.uleb128 .LLSDACSE1293-.LLSDACSB1293
 8824              	.LLSDACSB1293:
 8825 061d 2D       		.uleb128 .LEHB195-.LFB1293
 8826 061e 53       		.uleb128 .LEHE195-.LEHB195
 8827 061f 00       		.uleb128 0
 8828 0620 00       		.uleb128 0
 8829 0621 8001     		.uleb128 .LEHB196-.LFB1293
 8830 0623 43       		.uleb128 .LEHE196-.LEHB196
 8831 0624 E301     		.uleb128 .L562-.LFB1293
 8832 0626 01       		.uleb128 0x1
 8833              	.LLSDACSE1293:
 8834 0627 01       		.byte	0x1
 8835 0628 00       		.byte	0
 8836 0629 000000   		.align 4
 8837 062c 00000000 		.long	0
 8838              	
 8839              	.LLSDATT1293:
 8840              		.text
 8841              		.cfi_endproc
 8842              		.section	.text.unlikely
 8843              		.cfi_startproc
 8844              		.cfi_personality 0x9b,DW.ref.__gxx_personality_v0
 8845              		.cfi_lsda 0x1b,.LLSDAC1293
 8847              	_ZNK12_GLOBAL__N_124TestCheckArrayEqualFalse7RunImplEv.cold:
 8848              	.LFSB1293:
 8849              	.L558:
 8850              		.cfi_def_cfa_offset 160
 8851              		.cfi_offset 6, -24
 8852              		.cfi_offset 12, -16
 8853 0b2c E8000000 		call	__cxa_begin_catch@PLT
 8853      00
 8854              	.LEHB197:
 8855 0b31 E8000000 		call	_ZN8UnitTest11CurrentTest7ResultsEv@PLT
 8855      00
 8856 0b36 4C8B20   		movq	(%rax), %r12
 8857 0b39 E8000000 		call	_ZN8UnitTest11CurrentTest7DetailsEv@PLT
 8857      00
 8858 0b3e 488B30   		movq	(%rax), %rsi
 8859 0b41 BAC80000 		movl	$200, %edx
 8859      00
 8860 0b46 4889EF   		movq	%rbp, %rdi
 8861 0b49 E8000000 		call	_ZN8UnitTest11TestDetailsC1ERKS0_i@PLT
 8861      00
 8862 0b4e 488D1500 		leaq	.LC63(%rip), %rdx
 8862      000000
 8863 0b55 4889EE   		movq	%rbp, %rsi
 8864 0b58 4C89E7   		movq	%r12, %rdi
 8865 0b5b E8000000 		call	_ZN8UnitTest11TestResults13OnTestFailureERKNS_11TestDetailsEPKc@PLT
 8865      00
 8866              	.LEHE197:
 8867              	.LEHB198:
 8868 0b60 E8000000 		call	__cxa_end_catch@PLT
 8868      00
 8869              	.LEHE198:
 8870 0b65 E9000000 		jmp	.L557
 8870      00
 8871              	.L563:
 8872 0b6a F30F1EFA 		endbr64
 8873 0b6e 4889C5   		movq	%rax, %rbp
 8874 0b71 E8000000 		call	__cxa_end_catch@PLT
 8874      00
 8875 0b76 4889EF   		movq	%rbp, %rdi
 8876              	.LEHB199:
 8877 0b79 E8000000 		call	_Unwind_Resume@PLT
 8877      00
 8878              	.LEHE199:
 8879              		.cfi_endproc
 8880              	.LFE1293:
 8881              		.section	.gcc_except_table
 8882              		.align 4
 8883              	.LLSDAC1293:
 8884 0630 FF       		.byte	0xff
 8885 0631 9B       		.byte	0x9b
 8886 0632 15       		.uleb128 .LLSDATTC1293-.LLSDATTDC1293
 8887              	.LLSDATTDC1293:
 8888 0633 01       		.byte	0x1
 8889 0634 0C       		.uleb128 .LLSDACSEC1293-.LLSDACSBC1293
 8890              	.LLSDACSBC1293:
 8891 0635 05       		.uleb128 .LEHB197-.LCOLDB103
 8892 0636 2F       		.uleb128 .LEHE197-.LEHB197
 8893 0637 3E       		.uleb128 .L563-.LCOLDB103
 8894 0638 00       		.uleb128 0
 8895 0639 34       		.uleb128 .LEHB198-.LCOLDB103
 8896 063a 05       		.uleb128 .LEHE198-.LEHB198
 8897 063b 00       		.uleb128 0
 8898 063c 00       		.uleb128 0
 8899 063d 4D       		.uleb128 .LEHB199-.LCOLDB103
 8900 063e 05       		.uleb128 .LEHE199-.LEHB199
 8901 063f 00       		.uleb128 0
 8902 0640 00       		.uleb128 0
 8903              	.LLSDACSEC1293:
 8904 0641 01       		.byte	0x1
 8905 0642 00       		.byte	0
 8906 0643 00       		.align 4
 8907 0644 00000000 		.long	0
 8908              	
 8909              	.LLSDATTC1293:
 8910              		.section	.text.unlikely
 8911              		.text
 8913              		.section	.text.unlikely
 8915              	.LCOLDE103:
 8916              		.text
 8917              	.LHOTE103:
 8918              		.section	.text.unlikely
 8919              		.align 2
 8920              	.LCOLDB104:
 8921              		.text
 8922              	.LHOTB104:
 8923 2c0f 90       		.align 2
 8924              		.p2align 4
 8926              	_ZNK12_GLOBAL__N_123TestCheckArrayEqualTrue7RunImplEv:
 8927              	.LFB1289:
 8928              		.cfi_startproc
 8929              		.cfi_personality 0x9b,DW.ref.__gxx_personality_v0
 8930              		.cfi_lsda 0x1b,.LLSDA1289
 8931 2c10 F30F1EFA 		endbr64
 8932 2c14 4154     		pushq	%r12
 8933              		.cfi_def_cfa_offset 16
 8934              		.cfi_offset 12, -16
 8935 2c16 31F6     		xorl	%esi, %esi
 8936 2c18 55       		pushq	%rbp
 8937              		.cfi_def_cfa_offset 24
 8938              		.cfi_offset 6, -24
 8939 2c19 4883EC78 		subq	$120, %rsp
 8940              		.cfi_def_cfa_offset 144
 8941 2c1d 64488B04 		movq	%fs:40, %rax
 8941      25280000 
 8941      00
 8942 2c26 48894424 		movq	%rax, 104(%rsp)
 8942      68
 8943 2c2b 31C0     		xorl	%eax, %eax
 8944 2c2d 4C8D6424 		leaq	16(%rsp), %r12
 8944      10
 8945 2c32 488D6C24 		leaq	48(%rsp), %rbp
 8945      30
 8946 2c37 4C89E7   		movq	%r12, %rdi
 8947              	.LEHB200:
 8948 2c3a E8000000 		call	_ZN8UnitTest11TestResultsC1EPNS_12TestReporterE@PLT
 8948      00
 8949 2c3f 488D3500 		leaq	.LC62(%rip), %rsi
 8949      000000
 8950 2c46 4889EF   		movq	%rbp, %rdi
 8951 2c49 4531C0   		xorl	%r8d, %r8d
 8952 2c4c 488B0500 		movq	.LC102(%rip), %rax
 8952      000000
 8953 2c53 4889F1   		movq	%rsi, %rcx
 8954 2c56 4889F2   		movq	%rsi, %rdx
 8955 2c59 C7442460 		movl	$3, 96(%rsp)
 8955      03000000 
 8956 2c61 48894424 		movq	%rax, 88(%rsp)
 8956      58
 8957 2c66 E8000000 		call	_ZN8UnitTest11TestDetailsC1EPKcS2_S2_i@PLT
 8957      00
 8958 2c6b 488D7424 		leaq	88(%rsp), %rsi
 8958      58
 8959 2c70 4889E9   		movq	%rbp, %rcx
 8960 2c73 4C89E7   		movq	%r12, %rdi
 8961 2c76 4889F2   		movq	%rsi, %rdx
 8962 2c79 E892E3FF 		call	_ZN8UnitTest15CheckArrayEqualIA3_iS1_EEvRNS_11TestResultsERKT_RKT0_iRKNS_11TestDetailsE.const
 8962      FF
 8963              	.LEHE200:
 8964              	.LEHB201:
 8965 2c7e E8000000 		call	_ZN8UnitTest11CurrentTest7DetailsEv@PLT
 8965      00
 8966 2c83 488B30   		movq	(%rax), %rsi
 8967 2c86 BABE0000 		movl	$190, %edx
 8967      00
 8968 2c8b 4889EF   		movq	%rbp, %rdi
 8969 2c8e E8000000 		call	_ZN8UnitTest11TestDetailsC1ERKS0_i@PLT
 8969      00
 8970 2c93 4C89E7   		movq	%r12, %rdi
 8971 2c96 E8000000 		call	_ZNK8UnitTest11TestResults15GetFailureCountEv@PLT
 8971      00
 8972 2c9b 8944240C 		movl	%eax, 12(%rsp)
 8973 2c9f C7442408 		movl	$0, 8(%rsp)
 8973      00000000 
 8974 2ca7 E8000000 		call	_ZN8UnitTest11CurrentTest7ResultsEv@PLT
 8974      00
 8975 2cac 488B38   		movq	(%rax), %rdi
 8976 2caf 488D5424 		leaq	12(%rsp), %rdx
 8976      0C
 8977 2cb4 488D7424 		leaq	8(%rsp), %rsi
 8977      08
 8978 2cb9 4889E9   		movq	%rbp, %rcx
 8979 2cbc E8000000 		call	_ZN8UnitTest10CheckEqualIiiEEvRNS_11TestResultsERKT_RKT0_RKNS_11TestDetailsE
 8979      00
 8980              	.LEHE201:
 8981              	.L566:
 8982 2cc1 488B4424 		movq	104(%rsp), %rax
 8982      68
 8983 2cc6 64482B04 		subq	%fs:40, %rax
 8983      25280000 
 8983      00
 8984 2ccf 7508     		jne	.L574
 8985 2cd1 4883C478 		addq	$120, %rsp
 8986              		.cfi_remember_state
 8987              		.cfi_def_cfa_offset 24
 8988 2cd5 5D       		popq	%rbp
 8989              		.cfi_def_cfa_offset 16
 8990 2cd6 415C     		popq	%r12
 8991              		.cfi_def_cfa_offset 8
 8992 2cd8 C3       		ret
 8993              	.L574:
 8994              		.cfi_restore_state
 8995 2cd9 E8000000 		call	__stack_chk_fail@PLT
 8995      00
 8996              	.L571:
 8997 2cde F30F1EFA 		endbr64
 8998 2ce2 4889C7   		movq	%rax, %rdi
 8999 2ce5 E9000000 		jmp	.L567
 8999      00
 9000              		.section	.gcc_except_table
 9001              		.align 4
 9002              	.LLSDA1289:
 9003 0648 FF       		.byte	0xff
 9004 0649 9B       		.byte	0x9b
 9005 064a 11       		.uleb128 .LLSDATT1289-.LLSDATTD1289
 9006              	.LLSDATTD1289:
 9007 064b 01       		.byte	0x1
 9008 064c 09       		.uleb128 .LLSDACSE1289-.LLSDACSB1289
 9009              	.LLSDACSB1289:
 9010 064d 2A       		.uleb128 .LEHB200-.LFB1289
 9011 064e 44       		.uleb128 .LEHE200-.LEHB200
 9012 064f 00       		.uleb128 0
 9013 0650 00       		.uleb128 0
 9014 0651 6E       		.uleb128 .LEHB201-.LFB1289
 9015 0652 43       		.uleb128 .LEHE201-.LEHB201
 9016 0653 CE01     		.uleb128 .L571-.LFB1289
 9017 0655 01       		.uleb128 0x1
 9018              	.LLSDACSE1289:
 9019 0656 01       		.byte	0x1
 9020 0657 00       		.byte	0
 9021              		.align 4
 9022 0658 00000000 		.long	0
 9023              	
 9024              	.LLSDATT1289:
 9025              		.text
 9026              		.cfi_endproc
 9027              		.section	.text.unlikely
 9028              		.cfi_startproc
 9029              		.cfi_personality 0x9b,DW.ref.__gxx_personality_v0
 9030              		.cfi_lsda 0x1b,.LLSDAC1289
 9032              	_ZNK12_GLOBAL__N_123TestCheckArrayEqualTrue7RunImplEv.cold:
 9033              	.LFSB1289:
 9034              	.L567:
 9035              		.cfi_def_cfa_offset 144
 9036              		.cfi_offset 6, -24
 9037              		.cfi_offset 12, -16
 9038 0b7e E8000000 		call	__cxa_begin_catch@PLT
 9038      00
 9039              	.LEHB202:
 9040 0b83 E8000000 		call	_ZN8UnitTest11CurrentTest7ResultsEv@PLT
 9040      00
 9041 0b88 4C8B20   		movq	(%rax), %r12
 9042 0b8b E8000000 		call	_ZN8UnitTest11CurrentTest7DetailsEv@PLT
 9042      00
 9043 0b90 488B30   		movq	(%rax), %rsi
 9044 0b93 BABE0000 		movl	$190, %edx
 9044      00
 9045 0b98 4889EF   		movq	%rbp, %rdi
 9046 0b9b E8000000 		call	_ZN8UnitTest11TestDetailsC1ERKS0_i@PLT
 9046      00
 9047 0ba0 488D1500 		leaq	.LC66(%rip), %rdx
 9047      000000
 9048 0ba7 4889EE   		movq	%rbp, %rsi
 9049 0baa 4C89E7   		movq	%r12, %rdi
 9050 0bad E8000000 		call	_ZN8UnitTest11TestResults13OnTestFailureERKNS_11TestDetailsEPKc@PLT
 9050      00
 9051              	.LEHE202:
 9052              	.LEHB203:
 9053 0bb2 E8000000 		call	__cxa_end_catch@PLT
 9053      00
 9054              	.LEHE203:
 9055 0bb7 E9000000 		jmp	.L566
 9055      00
 9056              	.L572:
 9057 0bbc F30F1EFA 		endbr64
 9058 0bc0 4889C5   		movq	%rax, %rbp
 9059 0bc3 E8000000 		call	__cxa_end_catch@PLT
 9059      00
 9060 0bc8 4889EF   		movq	%rbp, %rdi
 9061              	.LEHB204:
 9062 0bcb E8000000 		call	_Unwind_Resume@PLT
 9062      00
 9063              	.LEHE204:
 9064              		.cfi_endproc
 9065              	.LFE1289:
 9066              		.section	.gcc_except_table
 9067              		.align 4
 9068              	.LLSDAC1289:
 9069 065c FF       		.byte	0xff
 9070 065d 9B       		.byte	0x9b
 9071 065e 15       		.uleb128 .LLSDATTC1289-.LLSDATTDC1289
 9072              	.LLSDATTDC1289:
 9073 065f 01       		.byte	0x1
 9074 0660 0C       		.uleb128 .LLSDACSEC1289-.LLSDACSBC1289
 9075              	.LLSDACSBC1289:
 9076 0661 05       		.uleb128 .LEHB202-.LCOLDB104
 9077 0662 2F       		.uleb128 .LEHE202-.LEHB202
 9078 0663 3E       		.uleb128 .L572-.LCOLDB104
 9079 0664 00       		.uleb128 0
 9080 0665 34       		.uleb128 .LEHB203-.LCOLDB104
 9081 0666 05       		.uleb128 .LEHE203-.LEHB203
 9082 0667 00       		.uleb128 0
 9083 0668 00       		.uleb128 0
 9084 0669 4D       		.uleb128 .LEHB204-.LCOLDB104
 9085 066a 05       		.uleb128 .LEHE204-.LEHB204
 9086 066b 00       		.uleb128 0
 9087 066c 00       		.uleb128 0
 9088              	.LLSDACSEC1289:
 9089 066d 01       		.byte	0x1
 9090 066e 00       		.byte	0
 9091 066f 00       		.align 4
 9092 0670 00000000 		.long	0
 9093              	
 9094              	.LLSDATTC1289:
 9095              		.section	.text.unlikely
 9096              		.text
 9098              		.section	.text.unlikely
 9100              	.LCOLDE104:
 9101              		.text
 9102              	.LHOTE104:
 9103              		.section	.text.unlikely
 9104              		.align 2
 9105              	.LCOLDB105:
 9106              		.text
 9107              	.LHOTB105:
 9108              		.align 2
 9109 2cea 660F1F44 		.p2align 4
 9109      0000
 9111              	_ZNK12_GLOBAL__N_147TestCheckCloseWithZeroEpsilonWorksForSameNumber7RunImplEv:
 9112              	.LFB1265:
 9113              		.cfi_startproc
 9114              		.cfi_personality 0x9b,DW.ref.__gxx_personality_v0
 9115              		.cfi_lsda 0x1b,.LLSDA1265
 9116 2cf0 F30F1EFA 		endbr64
 9117 2cf4 4154     		pushq	%r12
 9118              		.cfi_def_cfa_offset 16
 9119              		.cfi_offset 12, -16
 9120 2cf6 31F6     		xorl	%esi, %esi
 9121 2cf8 55       		pushq	%rbp
 9122              		.cfi_def_cfa_offset 24
 9123              		.cfi_offset 6, -24
 9124 2cf9 4883EC68 		subq	$104, %rsp
 9125              		.cfi_def_cfa_offset 128
 9126 2cfd 64488B04 		movq	%fs:40, %rax
 9126      25280000 
 9126      00
 9127 2d06 48894424 		movq	%rax, 88(%rsp)
 9127      58
 9128 2d0b 31C0     		xorl	%eax, %eax
 9129 2d0d 4C8D6424 		leaq	16(%rsp), %r12
 9129      10
 9130 2d12 488D6C24 		leaq	48(%rsp), %rbp
 9130      30
 9131 2d17 4C89E7   		movq	%r12, %rdi
 9132              	.LEHB205:
 9133 2d1a E8000000 		call	_ZN8UnitTest11TestResultsC1EPNS_12TestReporterE@PLT
 9133      00
 9134 2d1f 488D3500 		leaq	.LC62(%rip), %rsi
 9134      000000
 9135 2d26 4531C0   		xorl	%r8d, %r8d
 9136 2d29 4889EF   		movq	%rbp, %rdi
 9137 2d2c 4889F1   		movq	%rsi, %rcx
 9138 2d2f 4889F2   		movq	%rsi, %rdx
 9139 2d32 E8000000 		call	_ZN8UnitTest11TestDetailsC1EPKcS2_S2_i@PLT
 9139      00
 9140              	.LEHE205:
 9141              	.LEHB206:
 9142 2d37 E8000000 		call	_ZN8UnitTest11CurrentTest7DetailsEv@PLT
 9142      00
 9143 2d3c 488B30   		movq	(%rax), %rsi
 9144 2d3f BA750000 		movl	$117, %edx
 9144      00
 9145 2d44 4889EF   		movq	%rbp, %rdi
 9146 2d47 E8000000 		call	_ZN8UnitTest11TestDetailsC1ERKS0_i@PLT
 9146      00
 9147 2d4c 4C89E7   		movq	%r12, %rdi
 9148 2d4f E8000000 		call	_ZNK8UnitTest11TestResults15GetFailureCountEv@PLT
 9148      00
 9149 2d54 8944240C 		movl	%eax, 12(%rsp)
 9150 2d58 C7442408 		movl	$0, 8(%rsp)
 9150      00000000 
 9151 2d60 E8000000 		call	_ZN8UnitTest11CurrentTest7ResultsEv@PLT
 9151      00
 9152 2d65 488B38   		movq	(%rax), %rdi
 9153 2d68 488D5424 		leaq	12(%rsp), %rdx
 9153      0C
 9154 2d6d 488D7424 		leaq	8(%rsp), %rsi
 9154      08
 9155 2d72 4889E9   		movq	%rbp, %rcx
 9156 2d75 E8000000 		call	_ZN8UnitTest10CheckEqualIiiEEvRNS_11TestResultsERKT_RKT0_RKNS_11TestDetailsE
 9156      00
 9157              	.LEHE206:
 9158              	.L575:
 9159 2d7a 488B4424 		movq	88(%rsp), %rax
 9159      58
 9160 2d7f 64482B04 		subq	%fs:40, %rax
 9160      25280000 
 9160      00
 9161 2d88 7508     		jne	.L583
 9162 2d8a 4883C468 		addq	$104, %rsp
 9163              		.cfi_remember_state
 9164              		.cfi_def_cfa_offset 24
 9165 2d8e 5D       		popq	%rbp
 9166              		.cfi_def_cfa_offset 16
 9167 2d8f 415C     		popq	%r12
 9168              		.cfi_def_cfa_offset 8
 9169 2d91 C3       		ret
 9170              	.L583:
 9171              		.cfi_restore_state
 9172 2d92 E8000000 		call	__stack_chk_fail@PLT
 9172      00
 9173              	.L580:
 9174 2d97 F30F1EFA 		endbr64
 9175 2d9b 4889C7   		movq	%rax, %rdi
 9176 2d9e E9000000 		jmp	.L576
 9176      00
 9177              		.section	.gcc_except_table
 9178              		.align 4
 9179              	.LLSDA1265:
 9180 0674 FF       		.byte	0xff
 9181 0675 9B       		.byte	0x9b
 9182 0676 11       		.uleb128 .LLSDATT1265-.LLSDATTD1265
 9183              	.LLSDATTD1265:
 9184 0677 01       		.byte	0x1
 9185 0678 09       		.uleb128 .LLSDACSE1265-.LLSDACSB1265
 9186              	.LLSDACSB1265:
 9187 0679 2A       		.uleb128 .LEHB205-.LFB1265
 9188 067a 1D       		.uleb128 .LEHE205-.LEHB205
 9189 067b 00       		.uleb128 0
 9190 067c 00       		.uleb128 0
 9191 067d 47       		.uleb128 .LEHB206-.LFB1265
 9192 067e 43       		.uleb128 .LEHE206-.LEHB206
 9193 067f A701     		.uleb128 .L580-.LFB1265
 9194 0681 01       		.uleb128 0x1
 9195              	.LLSDACSE1265:
 9196 0682 01       		.byte	0x1
 9197 0683 00       		.byte	0
 9198              		.align 4
 9199 0684 00000000 		.long	0
 9200              	
 9201              	.LLSDATT1265:
 9202              		.text
 9203              		.cfi_endproc
 9204              		.section	.text.unlikely
 9205              		.cfi_startproc
 9206              		.cfi_personality 0x9b,DW.ref.__gxx_personality_v0
 9207              		.cfi_lsda 0x1b,.LLSDAC1265
 9209              	_ZNK12_GLOBAL__N_147TestCheckCloseWithZeroEpsilonWorksForSameNumber7RunImplEv.cold:
 9210              	.LFSB1265:
 9211              	.L576:
 9212              		.cfi_def_cfa_offset 128
 9213              		.cfi_offset 6, -24
 9214              		.cfi_offset 12, -16
 9215 0bd0 E8000000 		call	__cxa_begin_catch@PLT
 9215      00
 9216              	.LEHB207:
 9217 0bd5 E8000000 		call	_ZN8UnitTest11CurrentTest7ResultsEv@PLT
 9217      00
 9218 0bda 4C8B20   		movq	(%rax), %r12
 9219 0bdd E8000000 		call	_ZN8UnitTest11CurrentTest7DetailsEv@PLT
 9219      00
 9220 0be2 488B30   		movq	(%rax), %rsi
 9221 0be5 BA750000 		movl	$117, %edx
 9221      00
 9222 0bea 4889EF   		movq	%rbp, %rdi
 9223 0bed E8000000 		call	_ZN8UnitTest11TestDetailsC1ERKS0_i@PLT
 9223      00
 9224 0bf2 488D1500 		leaq	.LC66(%rip), %rdx
 9224      000000
 9225 0bf9 4889EE   		movq	%rbp, %rsi
 9226 0bfc 4C89E7   		movq	%r12, %rdi
 9227 0bff E8000000 		call	_ZN8UnitTest11TestResults13OnTestFailureERKNS_11TestDetailsEPKc@PLT
 9227      00
 9228              	.LEHE207:
 9229              	.LEHB208:
 9230 0c04 E8000000 		call	__cxa_end_catch@PLT
 9230      00
 9231              	.LEHE208:
 9232 0c09 E9000000 		jmp	.L575
 9232      00
 9233              	.L581:
 9234 0c0e F30F1EFA 		endbr64
 9235 0c12 4889C5   		movq	%rax, %rbp
 9236 0c15 E8000000 		call	__cxa_end_catch@PLT
 9236      00
 9237 0c1a 4889EF   		movq	%rbp, %rdi
 9238              	.LEHB209:
 9239 0c1d E8000000 		call	_Unwind_Resume@PLT
 9239      00
 9240              	.LEHE209:
 9241              		.cfi_endproc
 9242              	.LFE1265:
 9243              		.section	.gcc_except_table
 9244              		.align 4
 9245              	.LLSDAC1265:
 9246 0688 FF       		.byte	0xff
 9247 0689 9B       		.byte	0x9b
 9248 068a 15       		.uleb128 .LLSDATTC1265-.LLSDATTDC1265
 9249              	.LLSDATTDC1265:
 9250 068b 01       		.byte	0x1
 9251 068c 0C       		.uleb128 .LLSDACSEC1265-.LLSDACSBC1265
 9252              	.LLSDACSBC1265:
 9253 068d 05       		.uleb128 .LEHB207-.LCOLDB105
 9254 068e 2F       		.uleb128 .LEHE207-.LEHB207
 9255 068f 3E       		.uleb128 .L581-.LCOLDB105
 9256 0690 00       		.uleb128 0
 9257 0691 34       		.uleb128 .LEHB208-.LCOLDB105
 9258 0692 05       		.uleb128 .LEHE208-.LEHB208
 9259 0693 00       		.uleb128 0
 9260 0694 00       		.uleb128 0
 9261 0695 4D       		.uleb128 .LEHB209-.LCOLDB105
 9262 0696 05       		.uleb128 .LEHE209-.LEHB209
 9263 0697 00       		.uleb128 0
 9264 0698 00       		.uleb128 0
 9265              	.LLSDACSEC1265:
 9266 0699 01       		.byte	0x1
 9267 069a 00       		.byte	0
 9268 069b 00       		.align 4
 9269 069c 00000000 		.long	0
 9270              	
 9271              	.LLSDATTC1265:
 9272              		.section	.text.unlikely
 9273              		.text
 9275              		.section	.text.unlikely
 9277              	.LCOLDE105:
 9278              		.text
 9279              	.LHOTE105:
 9280              		.section	.rodata._ZN8UnitTest10CheckCloseIfffEEvRNS_11TestResultsERKT_RKT0_RKT1_RKNS_11TestDetails
 9281              	.LC106:
 9282 0000 202B2F2D 		.string	" +/- "
 9282      2000
 9283              		.section	.text._ZN8UnitTest10CheckCloseIfffEEvRNS_11TestResultsERKT_RKT0_RKT1_RKNS_11TestDetailsE,
 9284              		.p2align 4
 9285              		.weak	_ZN8UnitTest10CheckCloseIfffEEvRNS_11TestResultsERKT_RKT0_RKT1_RKNS_11TestDetailsE
 9287              	_ZN8UnitTest10CheckCloseIfffEEvRNS_11TestResultsERKT_RKT0_RKT1_RKNS_11TestDetailsE:
 9288              	.LFB1356:
 9289              		.cfi_startproc
 9290              		.cfi_personality 0x9b,DW.ref.__gxx_personality_v0
 9291              		.cfi_lsda 0x1b,.LLSDA1356
 9292 0000 F30F1EFA 		endbr64
 9293 0004 4157     		pushq	%r15
 9294              		.cfi_def_cfa_offset 16
 9295              		.cfi_offset 15, -16
 9296 0006 4156     		pushq	%r14
 9297              		.cfi_def_cfa_offset 24
 9298              		.cfi_offset 14, -24
 9299 0008 4155     		pushq	%r13
 9300              		.cfi_def_cfa_offset 32
 9301              		.cfi_offset 13, -32
 9302 000a 4154     		pushq	%r12
 9303              		.cfi_def_cfa_offset 40
 9304              		.cfi_offset 12, -40
 9305 000c 55       		pushq	%rbp
 9306              		.cfi_def_cfa_offset 48
 9307              		.cfi_offset 6, -48
 9308 000d 4889F5   		movq	%rsi, %rbp
 9309 0010 53       		pushq	%rbx
 9310              		.cfi_def_cfa_offset 56
 9311              		.cfi_offset 3, -56
 9312 0011 4889CB   		movq	%rcx, %rbx
 9313 0014 4881ECE8 		subq	$488, %rsp
 9313      010000
 9314              		.cfi_def_cfa_offset 544
 9315 001b F30F1006 		movss	(%rsi), %xmm0
 9316 001f F30F1011 		movss	(%rcx), %xmm2
 9317 0023 48897C24 		movq	%rdi, 24(%rsp)
 9317      18
 9318 0028 F30F100A 		movss	(%rdx), %xmm1
 9319 002c 0F28D8   		movaps	%xmm0, %xmm3
 9320 002f 48895424 		movq	%rdx, 32(%rsp)
 9320      20
 9321 0034 F30F7E25 		movq	.LC33(%rip), %xmm4
 9321      00000000 
 9322 003c 4C894424 		movq	%r8, 40(%rsp)
 9322      28
 9323 0041 F30F5CDA 		subss	%xmm2, %xmm3
 9324 0045 0F162500 		movhps	.LC34(%rip), %xmm4
 9324      000000
 9325 004c 64488B04 		movq	%fs:40, %rax
 9325      25280000 
 9325      00
 9326 0055 48898424 		movq	%rax, 472(%rsp)
 9326      D8010000 
 9327 005d 31C0     		xorl	%eax, %eax
 9328 005f 0F2FCB   		comiss	%xmm3, %xmm1
 9329 0062 0F292424 		movaps	%xmm4, (%rsp)
 9330 0066 720D     		jb	.L585
 9331 0068 F30F58C2 		addss	%xmm2, %xmm0
 9332 006c 0F2FC1   		comiss	%xmm1, %xmm0
 9333 006f 0F836802 		jnb	.L584
 9333      0000
 9334              	.L585:
 9335 0075 4C8DAC24 		leaq	208(%rsp), %r13
 9335      D0000000 
 9336 007d 4C89EF   		movq	%r13, %rdi
 9337 0080 E8000000 		call	_ZNSt8ios_baseC2Ev@PLT
 9337      00
 9338 0085 31C0     		xorl	%eax, %eax
 9339 0087 660FEFC0 		pxor	%xmm0, %xmm0
 9340 008b 31F6     		xorl	%esi, %esi
 9341 008d 66898424 		movw	%ax, 432(%rsp)
 9341      B0010000 
 9342 0095 488D0500 		leaq	24+_ZTCN8UnitTest15MemoryOutStreamE0_So(%rip), %rax
 9342      000000
 9343 009c 4C89EF   		movq	%r13, %rdi
 9344 009f 48894424 		movq	%rax, 64(%rsp)
 9344      40
 9345 00a4 4883C028 		addq	$40, %rax
 9346 00a8 48C78424 		movq	$0, 424(%rsp)
 9346      A8010000 
 9346      00000000 
 9347 00b4 48898424 		movq	%rax, 208(%rsp)
 9347      D0000000 
 9348 00bc 0F118424 		movups	%xmm0, 440(%rsp)
 9348      B8010000 
 9349 00c4 0F118424 		movups	%xmm0, 456(%rsp)
 9349      C8010000 
 9350              	.LEHB210:
 9351 00cc E8000000 		call	_ZNSt9basic_iosIcSt11char_traitsIcEE4initEPSt15basic_streambufIcS1_E@PLT
 9351      00
 9352              	.LEHE210:
 9353 00d1 660F6F34 		movdqa	(%rsp), %xmm6
 9353      24
 9354 00d6 660FEFC0 		pxor	%xmm0, %xmm0
 9355 00da 4C8DB424 		leaq	128(%rsp), %r14
 9355      80000000 
 9356 00e2 488D0500 		leaq	64+_ZTCN8UnitTest15MemoryOutStreamE0_NSt7__cxx1119basic_ostringstreamIcSt11char_traitsIcESaIc
 9356      000000
 9357 00e9 4C89F7   		movq	%r14, %rdi
 9358 00ec 0F294424 		movaps	%xmm0, 80(%rsp)
 9358      50
 9359 00f1 4C8D6424 		leaq	64(%rsp), %r12
 9359      40
 9360 00f6 4C8D7C24 		leaq	72(%rsp), %r15
 9360      48
 9361 00fb 48898424 		movq	%rax, 208(%rsp)
 9361      D0000000 
 9362 0103 0F297424 		movaps	%xmm6, 64(%rsp)
 9362      40
 9363 0108 0F294424 		movaps	%xmm0, 96(%rsp)
 9363      60
 9364 010d 0F294424 		movaps	%xmm0, 112(%rsp)
 9364      70
 9365 0112 E8000000 		call	_ZNSt6localeC1Ev@PLT
 9365      00
 9366 0117 488D0500 		leaq	16+_ZTVNSt7__cxx1115basic_stringbufIcSt11char_traitsIcESaIcEEE(%rip), %rax
 9366      000000
 9367 011e C68424A0 		movb	$0, 160(%rsp)
 9367      00000000 
 9368 0126 4C89FE   		movq	%r15, %rsi
 9369 0129 48894424 		movq	%rax, 72(%rsp)
 9369      48
 9370 012e 488D8424 		leaq	160(%rsp), %rax
 9370      A0000000 
 9371 0136 48894424 		movq	%rax, 56(%rsp)
 9371      38
 9372 013b 48898424 		movq	%rax, 144(%rsp)
 9372      90000000 
 9373 0143 488B4424 		movq	64(%rsp), %rax
 9373      40
 9374 0148 48C78424 		movq	$0, 152(%rsp)
 9374      98000000 
 9374      00000000 
 9375 0154 C7842488 		movl	$16, 136(%rsp)
 9375      00000010 
 9375      000000
 9376 015f 488B78E8 		movq	-24(%rax), %rdi
 9377 0163 4C01E7   		addq	%r12, %rdi
 9378              	.LEHB211:
 9379 0166 E8000000 		call	_ZNSt9basic_iosIcSt11char_traitsIcEE4initEPSt15basic_streambufIcS1_E@PLT
 9379      00
 9380              	.LEHE211:
 9381 016b 4C8D3D00 		leaq	24+_ZTVN8UnitTest15MemoryOutStreamE(%rip), %r15
 9381      000000
 9382 0172 BA090000 		movl	$9, %edx
 9382      00
 9383 0177 4C89E7   		movq	%r12, %rdi
 9384 017a 48C78424 		movq	$0, 184(%rsp)
 9384      B8000000 
 9384      00000000 
 9385 0186 498D4728 		leaq	40(%r15), %rax
 9386 018a 488D3500 		leaq	.LC44(%rip), %rsi
 9386      000000
 9387 0191 4C897C24 		movq	%r15, 64(%rsp)
 9387      40
 9388 0196 48898424 		movq	%rax, 208(%rsp)
 9388      D0000000 
 9389 019e 488D8424 		leaq	192(%rsp), %rax
 9389      C0000000 
 9390 01a6 48894424 		movq	%rax, 48(%rsp)
 9390      30
 9391 01ab 48898424 		movq	%rax, 176(%rsp)
 9391      B0000000 
 9392 01b3 C68424C0 		movb	$0, 192(%rsp)
 9392      00000000 
 9393              	.LEHB212:
 9394 01bb E8000000 		call	_ZSt16__ostream_insertIcSt11char_traitsIcEERSt13basic_ostreamIT_T0_ES6_PKS3_l@PLT
 9394      00
 9395 01c0 660FEFC0 		pxor	%xmm0, %xmm0
 9396 01c4 4C89E7   		movq	%r12, %rdi
 9397 01c7 F30F5A45 		cvtss2sd	0(%rbp), %xmm0
 9397      00
 9398 01cc E8000000 		call	_ZNSo9_M_insertIdEERSoT_@PLT
 9398      00
 9399 01d1 BA050000 		movl	$5, %edx
 9399      00
 9400 01d6 488D3500 		leaq	.LC106(%rip), %rsi
 9400      000000
 9401 01dd 4889C7   		movq	%rax, %rdi
 9402 01e0 4889C5   		movq	%rax, %rbp
 9403 01e3 E8000000 		call	_ZSt16__ostream_insertIcSt11char_traitsIcEERSt13basic_ostreamIT_T0_ES6_PKS3_l@PLT
 9403      00
 9404 01e8 660FEFC0 		pxor	%xmm0, %xmm0
 9405 01ec 4889EF   		movq	%rbp, %rdi
 9406 01ef F30F5A03 		cvtss2sd	(%rbx), %xmm0
 9407 01f3 E8000000 		call	_ZNSo9_M_insertIdEERSoT_@PLT
 9407      00
 9408 01f8 BA090000 		movl	$9, %edx
 9408      00
 9409 01fd 488D3500 		leaq	.LC45(%rip), %rsi
 9409      000000
 9410 0204 4889C7   		movq	%rax, %rdi
 9411 0207 4889C5   		movq	%rax, %rbp
 9412 020a E8000000 		call	_ZSt16__ostream_insertIcSt11char_traitsIcEERSt13basic_ostreamIT_T0_ES6_PKS3_l@PLT
 9412      00
 9413 020f 488B4424 		movq	32(%rsp), %rax
 9413      20
 9414 0214 660FEFC0 		pxor	%xmm0, %xmm0
 9415 0218 4889EF   		movq	%rbp, %rdi
 9416 021b F30F5A00 		cvtss2sd	(%rax), %xmm0
 9417 021f E8000000 		call	_ZNSo9_M_insertIdEERSoT_@PLT
 9417      00
 9418 0224 4C89E7   		movq	%r12, %rdi
 9419 0227 E8000000 		call	_ZNK8UnitTest15MemoryOutStream7GetTextEv@PLT
 9419      00
 9420 022c 488B7424 		movq	40(%rsp), %rsi
 9420      28
 9421 0231 488B7C24 		movq	24(%rsp), %rdi
 9421      18
 9422 0236 4889C2   		movq	%rax, %rdx
 9423 0239 F30F7E2D 		movq	.LC33(%rip), %xmm5
 9423      00000000 
 9424 0241 0F162D00 		movhps	.LC35(%rip), %xmm5
 9424      000000
 9425 0248 0F292C24 		movaps	%xmm5, (%rsp)
 9426 024c E8000000 		call	_ZN8UnitTest11TestResults13OnTestFailureERKNS_11TestDetailsEPKc@PLT
 9426      00
 9427              	.LEHE212:
 9428 0251 488D0500 		leaq	64+_ZTVN8UnitTest15MemoryOutStreamE(%rip), %rax
 9428      000000
 9429 0258 4C897C24 		movq	%r15, 64(%rsp)
 9429      40
 9430 025d 488BBC24 		movq	176(%rsp), %rdi
 9430      B0000000 
 9431 0265 48898424 		movq	%rax, 208(%rsp)
 9431      D0000000 
 9432 026d 483B7C24 		cmpq	48(%rsp), %rdi
 9432      30
 9433 0272 7405     		je	.L592
 9434 0274 E8000000 		call	_ZdlPv@PLT
 9434      00
 9435              	.L592:
 9436 0279 660F6F3C 		movdqa	(%rsp), %xmm7
 9436      24
 9437 027e 488D0500 		leaq	64+_ZTCN8UnitTest15MemoryOutStreamE0_NSt7__cxx1119basic_ostringstreamIcSt11char_traitsIcESaIc
 9437      000000
 9438 0285 488BBC24 		movq	144(%rsp), %rdi
 9438      90000000 
 9439 028d 48898424 		movq	%rax, 208(%rsp)
 9439      D0000000 
 9440 0295 0F297C24 		movaps	%xmm7, 64(%rsp)
 9440      40
 9441 029a 483B7C24 		cmpq	56(%rsp), %rdi
 9441      38
 9442 029f 7405     		je	.L593
 9443 02a1 E8000000 		call	_ZdlPv@PLT
 9443      00
 9444              	.L593:
 9445 02a6 488D0500 		leaq	16+_ZTVSt15basic_streambufIcSt11char_traitsIcEE(%rip), %rax
 9445      000000
 9446 02ad 4C89F7   		movq	%r14, %rdi
 9447 02b0 48894424 		movq	%rax, 72(%rsp)
 9447      48
 9448 02b5 E8000000 		call	_ZNSt6localeD1Ev@PLT
 9448      00
 9449 02ba 488D0500 		leaq	24+_ZTCN8UnitTest15MemoryOutStreamE0_So(%rip), %rax
 9449      000000
 9450 02c1 4C89EF   		movq	%r13, %rdi
 9451 02c4 48894424 		movq	%rax, 64(%rsp)
 9451      40
 9452 02c9 488D0500 		leaq	16+_ZTVSt9basic_iosIcSt11char_traitsIcEE(%rip), %rax
 9452      000000
 9453 02d0 48898424 		movq	%rax, 208(%rsp)
 9453      D0000000 
 9454              	.LEHB213:
 9455 02d8 E8000000 		call	_ZNSt8ios_baseD2Ev@PLT
 9455      00
 9456              	.LEHE213:
 9457              	.L584:
 9458 02dd 488B8424 		movq	472(%rsp), %rax
 9458      D8010000 
 9459 02e5 64482B04 		subq	%fs:40, %rax
 9459      25280000 
 9459      00
 9460 02ee 7512     		jne	.L603
 9461 02f0 4881C4E8 		addq	$488, %rsp
 9461      010000
 9462              		.cfi_remember_state
 9463              		.cfi_def_cfa_offset 56
 9464 02f7 5B       		popq	%rbx
 9465              		.cfi_def_cfa_offset 48
 9466 02f8 5D       		popq	%rbp
 9467              		.cfi_def_cfa_offset 40
 9468 02f9 415C     		popq	%r12
 9469              		.cfi_def_cfa_offset 32
 9470 02fb 415D     		popq	%r13
 9471              		.cfi_def_cfa_offset 24
 9472 02fd 415E     		popq	%r14
 9473              		.cfi_def_cfa_offset 16
 9474 02ff 415F     		popq	%r15
 9475              		.cfi_def_cfa_offset 8
 9476 0301 C3       		ret
 9477              	.L603:
 9478              		.cfi_restore_state
 9479 0302 E8000000 		call	__stack_chk_fail@PLT
 9479      00
 9480              	.L597:
 9481 0307 F30F1EFA 		endbr64
 9482 030b 4889C5   		movq	%rax, %rbp
 9483 030e EB24     		jmp	.L590
 9484              	.L596:
 9485 0310 F30F1EFA 		endbr64
 9486 0314 4889C5   		movq	%rax, %rbp
 9487 0317 EB3A     		jmp	.L594
 9488              	.L598:
 9489 0319 F30F1EFA 		endbr64
 9490 031d 4889C5   		movq	%rax, %rbp
 9491              	.L589:
 9492 0320 4C89FF   		movq	%r15, %rdi
 9493 0323 E8000000 		call	_ZNSt7__cxx1115basic_stringbufIcSt11char_traitsIcESaIcEED1Ev
 9493      00
 9494 0328 488D0500 		leaq	24+_ZTCN8UnitTest15MemoryOutStreamE0_So(%rip), %rax
 9494      000000
 9495 032f 48894424 		movq	%rax, 64(%rsp)
 9495      40
 9496              	.L590:
 9497 0334 488D0500 		leaq	16+_ZTVSt9basic_iosIcSt11char_traitsIcEE(%rip), %rax
 9497      000000
 9498 033b 4C89EF   		movq	%r13, %rdi
 9499 033e 48898424 		movq	%rax, 208(%rsp)
 9499      D0000000 
 9500 0346 E8000000 		call	_ZNSt8ios_baseD2Ev@PLT
 9500      00
 9501 034b 4889EF   		movq	%rbp, %rdi
 9502              	.LEHB214:
 9503 034e E8000000 		call	_Unwind_Resume@PLT
 9503      00
 9504              	.LEHE214:
 9505              	.L594:
 9506 0353 4C89E7   		movq	%r12, %rdi
 9507 0356 E8000000 		call	_ZN8UnitTest15MemoryOutStreamD1Ev
 9507      00
 9508 035b 4889EF   		movq	%rbp, %rdi
 9509              	.LEHB215:
 9510 035e E8000000 		call	_Unwind_Resume@PLT
 9510      00
 9511              	.LEHE215:
 9512              		.cfi_endproc
 9513              	.LFE1356:
 9514              		.section	.gcc_except_table
 9515              	.LLSDA1356:
 9516 06a0 FF       		.byte	0xff
 9517 06a1 FF       		.byte	0xff
 9518 06a2 01       		.byte	0x1
 9519 06a3 22       		.uleb128 .LLSDACSE1356-.LLSDACSB1356
 9520              	.LLSDACSB1356:
 9521 06a4 CC01     		.uleb128 .LEHB210-.LFB1356
 9522 06a6 05       		.uleb128 .LEHE210-.LEHB210
 9523 06a7 8706     		.uleb128 .L597-.LFB1356
 9524 06a9 00       		.uleb128 0
 9525 06aa E602     		.uleb128 .LEHB211-.LFB1356
 9526 06ac 05       		.uleb128 .LEHE211-.LEHB211
 9527 06ad 9906     		.uleb128 .L598-.LFB1356
 9528 06af 00       		.uleb128 0
 9529 06b0 BB03     		.uleb128 .LEHB212-.LFB1356
 9530 06b2 9601     		.uleb128 .LEHE212-.LEHB212
 9531 06b4 9006     		.uleb128 .L596-.LFB1356
 9532 06b6 00       		.uleb128 0
 9533 06b7 D805     		.uleb128 .LEHB213-.LFB1356
 9534 06b9 05       		.uleb128 .LEHE213-.LEHB213
 9535 06ba 00       		.uleb128 0
 9536 06bb 00       		.uleb128 0
 9537 06bc CE06     		.uleb128 .LEHB214-.LFB1356
 9538 06be 05       		.uleb128 .LEHE214-.LEHB214
 9539 06bf 00       		.uleb128 0
 9540 06c0 00       		.uleb128 0
 9541 06c1 DE06     		.uleb128 .LEHB215-.LFB1356
 9542 06c3 05       		.uleb128 .LEHE215-.LEHB215
 9543 06c4 00       		.uleb128 0
 9544 06c5 00       		.uleb128 0
 9545              	.LLSDACSE1356:
 9546              		.section	.text._ZN8UnitTest10CheckCloseIfffEEvRNS_11TestResultsERKT_RKT0_RKT1_RKNS_11TestDetailsE,
 9548              		.section	.rodata.str1.1
 9549              	.LC110:
 9550 00aa 78706563 		.string	"xpected 0.9"
 9550      74656420 
 9550      302E3900 
 9551              		.section	.rodata.str1.8
 9552 053a 00000000 		.align 8
 9552      0000
 9553              	.LC111:
 9554 0540 73747273 		.string	"strstr(reporter.lastFailedMessage, \"xpected 0.9\")"
 9554      74722872 
 9554      65706F72 
 9554      7465722E 
 9554      6C617374 
 9555              		.section	.rodata.str1.1
 9556              	.LC112:
 9557 00b6 77617320 		.string	"was 1.1"
 9557      312E3100 
 9558              		.section	.rodata.str1.8
 9559 0572 00000000 		.align 8
 9559      0000
 9560              	.LC113:
 9561 0578 73747273 		.string	"strstr(reporter.lastFailedMessage, \"was 1.1\")"
 9561      74722872 
 9561      65706F72 
 9561      7465722E 
 9561      6C617374 
 9562 05a6 0000     		.align 8
 9563              	.LC114:
 9564 05a8 556E6861 		.string	"Unhandled exception in CHECK(strstr(reporter.lastFailedMessage, \"xpected 0.9\"))"
 9564      6E646C65 
 9564      64206578 
 9564      63657074 
 9564      696F6E20 
 9565              		.align 8
 9566              	.LC115:
 9567 05f8 556E6861 		.string	"Unhandled exception in CHECK(strstr(reporter.lastFailedMessage, \"was 1.1\"))"
 9567      6E646C65 
 9567      64206578 
 9567      63657074 
 9567      696F6E20 
 9568              		.section	.text.unlikely
 9569              		.align 2
 9570              	.LCOLDB116:
 9571              		.text
 9572              	.LHOTB116:
 9573 2da3 90       		.align 2
 9574 2da4 66662E0F 		.p2align 4
 9574      1F840000 
 9574      00000090 
 9576              	_ZNK12_GLOBAL__N_151TestCheckCloseFailureIncludesCheckExpectedAndActual7RunImplEv:
 9577              	.LFB1277:
 9578              		.cfi_startproc
 9579              		.cfi_personality 0x9b,DW.ref.__gxx_personality_v0
 9580              		.cfi_lsda 0x1b,.LLSDA1277
 9581 2db0 F30F1EFA 		endbr64
 9582 2db4 4156     		pushq	%r14
 9583              		.cfi_def_cfa_offset 16
 9584              		.cfi_offset 14, -16
 9585 2db6 4155     		pushq	%r13
 9586              		.cfi_def_cfa_offset 24
 9587              		.cfi_offset 13, -24
 9588 2db8 4154     		pushq	%r12
 9589              		.cfi_def_cfa_offset 32
 9590              		.cfi_offset 12, -32
 9591 2dba 55       		pushq	%rbp
 9592              		.cfi_def_cfa_offset 40
 9593              		.cfi_offset 6, -40
 9594 2dbb 53       		pushq	%rbx
 9595              		.cfi_def_cfa_offset 48
 9596              		.cfi_offset 3, -48
 9597 2dbc 488D1D00 		leaq	16+_ZTV17RecordingReporter(%rip), %rbx
 9597      000000
 9598 2dc3 4881EC90 		subq	$2192, %rsp
 9598      080000
 9599              		.cfi_def_cfa_offset 2240
 9600 2dca 64488B04 		movq	%fs:40, %rax
 9600      25280000 
 9600      00
 9601 2dd3 48898424 		movq	%rax, 2184(%rsp)
 9601      88080000 
 9602 2ddb 31C0     		xorl	%eax, %eax
 9603 2ddd 4C8D6424 		leaq	80(%rsp), %r12
 9603      50
 9604 2de2 4C8D6C24 		leaq	16(%rsp), %r13
 9604      10
 9605 2de7 48895C24 		movq	%rbx, 80(%rsp)
 9605      50
 9606 2dec 4C89E6   		movq	%r12, %rsi
 9607 2def 4C89EF   		movq	%r13, %rdi
 9608 2df2 C7442458 		movl	$0, 88(%rsp)
 9608      00000000 
 9609 2dfa C784245C 		movl	$0, 604(%rsp)
 9609      02000000 
 9609      000000
 9610 2e05 C7842460 		movl	$0, 864(%rsp)
 9610      03000000 
 9610      000000
 9611 2e10 C7842464 		movl	$0, 1636(%rsp)
 9611      06000000 
 9611      000000
 9612 2e1b 48C78424 		movq	$0, 2152(%rsp)
 9612      68080000 
 9612      00000000 
 9613 2e27 48C78424 		movq	$0, 2160(%rsp)
 9613      70080000 
 9613      00000000 
 9614 2e33 C7842478 		movl	$0x00000000, 2168(%rsp)
 9614      08000000 
 9614      000000
 9615 2e3e C644245C 		movb	$0, 92(%rsp)
 9615      00
 9616 2e43 C684245C 		movb	$0, 348(%rsp)
 9616      01000000 
 9617 2e4b C6842460 		movb	$0, 608(%rsp)
 9617      02000000 
 9618 2e53 C6842464 		movb	$0, 868(%rsp)
 9618      03000000 
 9619 2e5b C6842464 		movb	$0, 1124(%rsp)
 9619      04000000 
 9620 2e63 C6842464 		movb	$0, 1380(%rsp)
 9620      05000000 
 9621 2e6b C6842468 		movb	$0, 1640(%rsp)
 9621      06000000 
 9622 2e73 C6842468 		movb	$0, 1896(%rsp)
 9622      07000000 
 9623              	.LEHB216:
 9624 2e7b E8000000 		call	_ZN8UnitTest11TestResultsC1EPNS_12TestReporterE@PLT
 9624      00
 9625 2e80 488D3500 		leaq	.LC62(%rip), %rsi
 9625      000000
 9626 2e87 488D6C24 		leaq	48(%rsp), %rbp
 9626      30
 9627 2e8c 4531C0   		xorl	%r8d, %r8d
 9628 2e8f C7442404 		movl	$0x3f666666, 4(%rsp)
 9628      6666663F 
 9629 2e97 4889F1   		movq	%rsi, %rcx
 9630 2e9a 4889F2   		movq	%rsi, %rdx
 9631 2e9d 4889EF   		movq	%rbp, %rdi
 9632 2ea0 C7442408 		movl	$0x3f8ccccd, 8(%rsp)
 9632      CDCC8C3F 
 9633 2ea8 E8000000 		call	_ZN8UnitTest11TestDetailsC1EPKcS2_S2_i@PLT
 9633      00
 9634 2ead 488D4C24 		leaq	12(%rsp), %rcx
 9634      0C
 9635 2eb2 488D5424 		leaq	8(%rsp), %rdx
 9635      08
 9636 2eb7 4989E8   		movq	%rbp, %r8
 9637 2eba 4C89EF   		movq	%r13, %rdi
 9638 2ebd 488D7424 		leaq	4(%rsp), %rsi
 9638      04
 9639 2ec2 C744240C 		movl	$0x3c23d70a, 12(%rsp)
 9639      0AD7233C 
 9640 2eca E8000000 		call	_ZN8UnitTest10CheckCloseIfffEEvRNS_11TestResultsERKT_RKT0_RKT1_RKNS_11TestDetailsE
 9640      00
 9641              	.LEHE216:
 9642 2ecf 4C8DAC24 		leaq	1380(%rsp), %r13
 9642      64050000 
 9643 2ed7 488D3500 		leaq	.LC110(%rip), %rsi
 9643      000000
 9644 2ede 4C89EF   		movq	%r13, %rdi
 9645 2ee1 E8000000 		call	strstr@PLT
 9645      00
 9646 2ee6 4885C0   		testq	%rax, %rax
 9647 2ee9 747D     		je	.L626
 9648              	.L606:
 9649 2eeb 488D3500 		leaq	.LC112(%rip), %rsi
 9649      000000
 9650 2ef2 4C89EF   		movq	%r13, %rdi
 9651 2ef5 E8000000 		call	strstr@PLT
 9651      00
 9652 2efa 4885C0   		testq	%rax, %rax
 9653 2efd 7431     		je	.L627
 9654              	.L608:
 9655 2eff 4C89E7   		movq	%r12, %rdi
 9656 2f02 48895C24 		movq	%rbx, 80(%rsp)
 9656      50
 9657              	.LEHB217:
 9658 2f07 E8000000 		call	_ZN8UnitTest12TestReporterD2Ev@PLT
 9658      00
 9659              	.LEHE217:
 9660 2f0c 488B8424 		movq	2184(%rsp), %rax
 9660      88080000 
 9661 2f14 64482B04 		subq	%fs:40, %rax
 9661      25280000 
 9661      00
 9662 2f1d 757D     		jne	.L628
 9663 2f1f 4881C490 		addq	$2192, %rsp
 9663      080000
 9664              		.cfi_remember_state
 9665              		.cfi_def_cfa_offset 48
 9666 2f26 5B       		popq	%rbx
 9667              		.cfi_def_cfa_offset 40
 9668 2f27 5D       		popq	%rbp
 9669              		.cfi_def_cfa_offset 32
 9670 2f28 415C     		popq	%r12
 9671              		.cfi_def_cfa_offset 24
 9672 2f2a 415D     		popq	%r13
 9673              		.cfi_def_cfa_offset 16
 9674 2f2c 415E     		popq	%r14
 9675              		.cfi_def_cfa_offset 8
 9676 2f2e C3       		ret
 9677 2f2f 90       		.p2align 4,,10
 9678              		.p2align 3
 9679              	.L627:
 9680              		.cfi_restore_state
 9681              	.LEHB218:
 9682 2f30 E8000000 		call	_ZN8UnitTest11CurrentTest7ResultsEv@PLT
 9682      00
 9683 2f35 4C8B28   		movq	(%rax), %r13
 9684 2f38 E8000000 		call	_ZN8UnitTest11CurrentTest7DetailsEv@PLT
 9684      00
 9685 2f3d 488B30   		movq	(%rax), %rsi
 9686 2f40 BA9C0000 		movl	$156, %edx
 9686      00
 9687 2f45 4889EF   		movq	%rbp, %rdi
 9688 2f48 E8000000 		call	_ZN8UnitTest11TestDetailsC1ERKS0_i@PLT
 9688      00
 9689 2f4d 488D1500 		leaq	.LC113(%rip), %rdx
 9689      000000
 9690 2f54 4889EE   		movq	%rbp, %rsi
 9691 2f57 4C89EF   		movq	%r13, %rdi
 9692 2f5a E8000000 		call	_ZN8UnitTest11TestResults13OnTestFailureERKNS_11TestDetailsEPKc@PLT
 9692      00
 9693              	.LEHE218:
 9694 2f5f EB9E     		jmp	.L608
 9695              		.p2align 4,,10
 9696 2f61 0F1F8000 		.p2align 3
 9696      000000
 9697              	.L626:
 9698              	.LEHB219:
 9699 2f68 E8000000 		call	_ZN8UnitTest11CurrentTest7ResultsEv@PLT
 9699      00
 9700 2f6d 4C8B30   		movq	(%rax), %r14
 9701 2f70 E8000000 		call	_ZN8UnitTest11CurrentTest7DetailsEv@PLT
 9701      00
 9702 2f75 488B30   		movq	(%rax), %rsi
 9703 2f78 BA9B0000 		movl	$155, %edx
 9703      00
 9704 2f7d 4889EF   		movq	%rbp, %rdi
 9705 2f80 E8000000 		call	_ZN8UnitTest11TestDetailsC1ERKS0_i@PLT
 9705      00
 9706 2f85 488D1500 		leaq	.LC111(%rip), %rdx
 9706      000000
 9707 2f8c 4889EE   		movq	%rbp, %rsi
 9708 2f8f 4C89F7   		movq	%r14, %rdi
 9709 2f92 E8000000 		call	_ZN8UnitTest11TestResults13OnTestFailureERKNS_11TestDetailsEPKc@PLT
 9709      00
 9710              	.LEHE219:
 9711 2f97 E94FFFFF 		jmp	.L606
 9711      FF
 9712              	.L628:
 9713 2f9c E8000000 		call	__stack_chk_fail@PLT
 9713      00
 9714              	.L618:
 9715 2fa1 F30F1EFA 		endbr64
 9716 2fa5 4889C7   		movq	%rax, %rdi
 9717 2fa8 E9000000 		jmp	.L609
 9717      00
 9718              	.L622:
 9719 2fad F30F1EFA 		endbr64
 9720 2fb1 E9000000 		jmp	.L623
 9720      00
 9721              	.L620:
 9722 2fb6 F30F1EFA 		endbr64
 9723 2fba 4889C7   		movq	%rax, %rdi
 9724 2fbd E9000000 		jmp	.L613
 9724      00
 9725              		.section	.gcc_except_table
 9726 06c6 0000     		.align 4
 9727              	.LLSDA1277:
 9728 06c8 FF       		.byte	0xff
 9729 06c9 9B       		.byte	0x9b
 9730 06ca 21       		.uleb128 .LLSDATT1277-.LLSDATTD1277
 9731              	.LLSDATTD1277:
 9732 06cb 01       		.byte	0x1
 9733 06cc 17       		.uleb128 .LLSDACSE1277-.LLSDACSB1277
 9734              	.LLSDACSB1277:
 9735 06cd CB01     		.uleb128 .LEHB216-.LFB1277
 9736 06cf 54       		.uleb128 .LEHE216-.LEHB216
 9737 06d0 FD03     		.uleb128 .L622-.LFB1277
 9738 06d2 00       		.uleb128 0
 9739 06d3 D702     		.uleb128 .LEHB217-.LFB1277
 9740 06d5 05       		.uleb128 .LEHE217-.LEHB217
 9741 06d6 00       		.uleb128 0
 9742 06d7 00       		.uleb128 0
 9743 06d8 8003     		.uleb128 .LEHB218-.LFB1277
 9744 06da 2F       		.uleb128 .LEHE218-.LEHB218
 9745 06db 8604     		.uleb128 .L620-.LFB1277
 9746 06dd 01       		.uleb128 0x1
 9747 06de B803     		.uleb128 .LEHB219-.LFB1277
 9748 06e0 2F       		.uleb128 .LEHE219-.LEHB219
 9749 06e1 F103     		.uleb128 .L618-.LFB1277
 9750 06e3 01       		.uleb128 0x1
 9751              	.LLSDACSE1277:
 9752 06e4 01       		.byte	0x1
 9753 06e5 00       		.byte	0
 9754 06e6 0000     		.align 4
 9755 06e8 00000000 		.long	0
 9756              	
 9757              	.LLSDATT1277:
 9758              		.text
 9759              		.cfi_endproc
 9760              		.section	.text.unlikely
 9761              		.cfi_startproc
 9762              		.cfi_personality 0x9b,DW.ref.__gxx_personality_v0
 9763              		.cfi_lsda 0x1b,.LLSDAC1277
 9765              	_ZNK12_GLOBAL__N_151TestCheckCloseFailureIncludesCheckExpectedAndActual7RunImplEv.cold:
 9766              	.LFSB1277:
 9767              	.L609:
 9768              		.cfi_def_cfa_offset 2240
 9769              		.cfi_offset 3, -48
 9770              		.cfi_offset 6, -40
 9771              		.cfi_offset 12, -32
 9772              		.cfi_offset 13, -24
 9773              		.cfi_offset 14, -16
 9774 0c22 E8000000 		call	__cxa_begin_catch@PLT
 9774      00
 9775              	.LEHB220:
 9776 0c27 E8000000 		call	_ZN8UnitTest11CurrentTest7ResultsEv@PLT
 9776      00
 9777 0c2c 4C8B30   		movq	(%rax), %r14
 9778 0c2f E8000000 		call	_ZN8UnitTest11CurrentTest7DetailsEv@PLT
 9778      00
 9779 0c34 488B30   		movq	(%rax), %rsi
 9780 0c37 BA9B0000 		movl	$155, %edx
 9780      00
 9781 0c3c 4889EF   		movq	%rbp, %rdi
 9782 0c3f E8000000 		call	_ZN8UnitTest11TestDetailsC1ERKS0_i@PLT
 9782      00
 9783 0c44 488D1500 		leaq	.LC114(%rip), %rdx
 9783      000000
 9784 0c4b 4889EE   		movq	%rbp, %rsi
 9785 0c4e 4C89F7   		movq	%r14, %rdi
 9786 0c51 E8000000 		call	_ZN8UnitTest11TestResults13OnTestFailureERKNS_11TestDetailsEPKc@PLT
 9786      00
 9787              	.LEHE220:
 9788              	.LEHB221:
 9789 0c56 E8000000 		call	__cxa_end_catch@PLT
 9789      00
 9790              	.LEHE221:
 9791 0c5b E9000000 		jmp	.L606
 9791      00
 9792              	.L617:
 9793 0c60 F30F1EFA 		endbr64
 9794              	.L623:
 9795 0c64 4889C5   		movq	%rax, %rbp
 9796              	.L612:
 9797 0c67 4C89E7   		movq	%r12, %rdi
 9798 0c6a 48895C24 		movq	%rbx, 80(%rsp)
 9798      50
 9799 0c6f E8000000 		call	_ZN8UnitTest12TestReporterD2Ev@PLT
 9799      00
 9800 0c74 4889EF   		movq	%rbp, %rdi
 9801              	.LEHB222:
 9802 0c77 E8000000 		call	_Unwind_Resume@PLT
 9802      00
 9803              	.LEHE222:
 9804              	.L613:
 9805 0c7c E8000000 		call	__cxa_begin_catch@PLT
 9805      00
 9806              	.LEHB223:
 9807 0c81 E8000000 		call	_ZN8UnitTest11CurrentTest7ResultsEv@PLT
 9807      00
 9808 0c86 4C8B28   		movq	(%rax), %r13
 9809 0c89 E8000000 		call	_ZN8UnitTest11CurrentTest7DetailsEv@PLT
 9809      00
 9810 0c8e 488B30   		movq	(%rax), %rsi
 9811 0c91 BA9C0000 		movl	$156, %edx
 9811      00
 9812 0c96 4889EF   		movq	%rbp, %rdi
 9813 0c99 E8000000 		call	_ZN8UnitTest11TestDetailsC1ERKS0_i@PLT
 9813      00
 9814 0c9e 488D1500 		leaq	.LC115(%rip), %rdx
 9814      000000
 9815 0ca5 4889EE   		movq	%rbp, %rsi
 9816 0ca8 4C89EF   		movq	%r13, %rdi
 9817 0cab E8000000 		call	_ZN8UnitTest11TestResults13OnTestFailureERKNS_11TestDetailsEPKc@PLT
 9817      00
 9818              	.LEHE223:
 9819              	.LEHB224:
 9820 0cb0 E8000000 		call	__cxa_end_catch@PLT
 9820      00
 9821              	.LEHE224:
 9822 0cb5 E9000000 		jmp	.L608
 9822      00
 9823              	.L621:
 9824 0cba F30F1EFA 		endbr64
 9825 0cbe 4889C5   		movq	%rax, %rbp
 9826 0cc1 E8000000 		call	__cxa_end_catch@PLT
 9826      00
 9827 0cc6 EB9F     		jmp	.L612
 9828              	.L619:
 9829 0cc8 F30F1EFA 		endbr64
 9830 0ccc 4889C5   		movq	%rax, %rbp
 9831 0ccf E8000000 		call	__cxa_end_catch@PLT
 9831      00
 9832 0cd4 EB91     		jmp	.L612
 9833              		.cfi_endproc
 9834              	.LFE1277:
 9835              		.section	.gcc_except_table
 9836              		.align 4
 9837              	.LLSDAC1277:
 9838 06ec FF       		.byte	0xff
 9839 06ed 9B       		.byte	0x9b
 9840 06ee 21       		.uleb128 .LLSDATTC1277-.LLSDATTDC1277
 9841              	.LLSDATTDC1277:
 9842 06ef 01       		.byte	0x1
 9843 06f0 17       		.uleb128 .LLSDACSEC1277-.LLSDACSBC1277
 9844              	.LLSDACSBC1277:
 9845 06f1 05       		.uleb128 .LEHB220-.LCOLDB116
 9846 06f2 2F       		.uleb128 .LEHE220-.LEHB220
 9847 06f3 A601     		.uleb128 .L619-.LCOLDB116
 9848 06f5 00       		.uleb128 0
 9849 06f6 34       		.uleb128 .LEHB221-.LCOLDB116
 9850 06f7 05       		.uleb128 .LEHE221-.LEHB221
 9851 06f8 3E       		.uleb128 .L617-.LCOLDB116
 9852 06f9 00       		.uleb128 0
 9853 06fa 55       		.uleb128 .LEHB222-.LCOLDB116
 9854 06fb 05       		.uleb128 .LEHE222-.LEHB222
 9855 06fc 00       		.uleb128 0
 9856 06fd 00       		.uleb128 0
 9857 06fe 5F       		.uleb128 .LEHB223-.LCOLDB116
 9858 06ff 2F       		.uleb128 .LEHE223-.LEHB223
 9859 0700 9801     		.uleb128 .L621-.LCOLDB116
 9860 0702 00       		.uleb128 0
 9861 0703 8E01     		.uleb128 .LEHB224-.LCOLDB116
 9862 0705 05       		.uleb128 .LEHE224-.LEHB224
 9863 0706 3E       		.uleb128 .L617-.LCOLDB116
 9864 0707 00       		.uleb128 0
 9865              	.LLSDACSEC1277:
 9866 0708 01       		.byte	0x1
 9867 0709 00       		.byte	0
 9868 070a 0000     		.align 4
 9869 070c 00000000 		.long	0
 9870              	
 9871              	.LLSDATTC1277:
 9872              		.section	.text.unlikely
 9873              		.text
 9875              		.section	.text.unlikely
 9877              	.LCOLDE116:
 9878              		.text
 9879              	.LHOTE116:
 9880              		.section	.text.unlikely
 9881              		.align 2
 9882              	.LCOLDB118:
 9883              		.text
 9884              	.LHOTB118:
 9885              		.align 2
 9886 2fc2 66662E0F 		.p2align 4
 9886      1F840000 
 9886      0000000F 
 9886      1F00
 9888              	_ZNK12_GLOBAL__N_139TestCheckCloseWithNaNAgainstItselfFails7RunImplEv:
 9889              	.LFB1273:
 9890              		.cfi_startproc
 9891              		.cfi_personality 0x9b,DW.ref.__gxx_personality_v0
 9892              		.cfi_lsda 0x1b,.LLSDA1273
 9893 2fd0 F30F1EFA 		endbr64
 9894 2fd4 4155     		pushq	%r13
 9895              		.cfi_def_cfa_offset 16
 9896              		.cfi_offset 13, -16
 9897 2fd6 31F6     		xorl	%esi, %esi
 9898 2fd8 4154     		pushq	%r12
 9899              		.cfi_def_cfa_offset 24
 9900              		.cfi_offset 12, -24
 9901 2fda 55       		pushq	%rbp
 9902              		.cfi_def_cfa_offset 32
 9903              		.cfi_offset 6, -32
 9904 2fdb 4883EC60 		subq	$96, %rsp
 9905              		.cfi_def_cfa_offset 128
 9906 2fdf 64488B04 		movq	%fs:40, %rax
 9906      25280000 
 9906      00
 9907 2fe8 48894424 		movq	%rax, 88(%rsp)
 9907      58
 9908 2fed 31C0     		xorl	%eax, %eax
 9909 2fef 4C8D6424 		leaq	16(%rsp), %r12
 9909      10
 9910 2ff4 488D6C24 		leaq	48(%rsp), %rbp
 9910      30
 9911 2ff9 C7442404 		movl	$-1, 4(%rsp)
 9911      FFFFFFFF 
 9912 3001 4C89E7   		movq	%r12, %rdi
 9913 3004 4C8D6C24 		leaq	12(%rsp), %r13
 9913      0C
 9914              	.LEHB225:
 9915 3009 E8000000 		call	_ZN8UnitTest11TestResultsC1EPNS_12TestReporterE@PLT
 9915      00
 9916 300e 488D3500 		leaq	.LC62(%rip), %rsi
 9916      000000
 9917 3015 4531C0   		xorl	%r8d, %r8d
 9918 3018 4889EF   		movq	%rbp, %rdi
 9919 301b 4889F1   		movq	%rsi, %rcx
 9920 301e 4889F2   		movq	%rsi, %rdx
 9921 3021 E8000000 		call	_ZN8UnitTest11TestDetailsC1EPKcS2_S2_i@PLT
 9921      00
 9922 3026 488D7424 		leaq	4(%rsp), %rsi
 9922      04
 9923 302b 4989E8   		movq	%rbp, %r8
 9924 302e 4C89E9   		movq	%r13, %rcx
 9925 3031 4889F2   		movq	%rsi, %rdx
 9926 3034 4C89E7   		movq	%r12, %rdi
 9927 3037 C744240C 		movl	$0x3dcccccd, 12(%rsp)
 9927      CDCCCC3D 
 9928 303f E8000000 		call	_ZN8UnitTest10CheckCloseIfffEEvRNS_11TestResultsERKT_RKT0_RKT1_RKNS_11TestDetailsE
 9928      00
 9929              	.LEHE225:
 9930              	.LEHB226:
 9931 3044 E8000000 		call	_ZN8UnitTest11CurrentTest7DetailsEv@PLT
 9931      00
 9932 3049 488B30   		movq	(%rax), %rsi
 9933 304c BA8F0000 		movl	$143, %edx
 9933      00
 9934 3051 4889EF   		movq	%rbp, %rdi
 9935 3054 E8000000 		call	_ZN8UnitTest11TestDetailsC1ERKS0_i@PLT
 9935      00
 9936 3059 4C89E7   		movq	%r12, %rdi
 9937 305c E8000000 		call	_ZNK8UnitTest11TestResults15GetFailureCountEv@PLT
 9937      00
 9938 3061 8944240C 		movl	%eax, 12(%rsp)
 9939 3065 C7442408 		movl	$1, 8(%rsp)
 9939      01000000 
 9940 306d E8000000 		call	_ZN8UnitTest11CurrentTest7ResultsEv@PLT
 9940      00
 9941 3072 488B38   		movq	(%rax), %rdi
 9942 3075 488D7424 		leaq	8(%rsp), %rsi
 9942      08
 9943 307a 4889E9   		movq	%rbp, %rcx
 9944 307d 4C89EA   		movq	%r13, %rdx
 9945 3080 E8000000 		call	_ZN8UnitTest10CheckEqualIiiEEvRNS_11TestResultsERKT_RKT0_RKNS_11TestDetailsE
 9945      00
 9946              	.LEHE226:
 9947              	.L629:
 9948 3085 488B4424 		movq	88(%rsp), %rax
 9948      58
 9949 308a 64482B04 		subq	%fs:40, %rax
 9949      25280000 
 9949      00
 9950 3093 750A     		jne	.L637
 9951 3095 4883C460 		addq	$96, %rsp
 9952              		.cfi_remember_state
 9953              		.cfi_def_cfa_offset 32
 9954 3099 5D       		popq	%rbp
 9955              		.cfi_def_cfa_offset 24
 9956 309a 415C     		popq	%r12
 9957              		.cfi_def_cfa_offset 16
 9958 309c 415D     		popq	%r13
 9959              		.cfi_def_cfa_offset 8
 9960 309e C3       		ret
 9961              	.L637:
 9962              		.cfi_restore_state
 9963 309f E8000000 		call	__stack_chk_fail@PLT
 9963      00
 9964              	.L634:
 9965 30a4 F30F1EFA 		endbr64
 9966 30a8 4889C7   		movq	%rax, %rdi
 9967 30ab E9000000 		jmp	.L630
 9967      00
 9968              		.section	.gcc_except_table
 9969              		.align 4
 9970              	.LLSDA1273:
 9971 0710 FF       		.byte	0xff
 9972 0711 9B       		.byte	0x9b
 9973 0712 11       		.uleb128 .LLSDATT1273-.LLSDATTD1273
 9974              	.LLSDATTD1273:
 9975 0713 01       		.byte	0x1
 9976 0714 09       		.uleb128 .LLSDACSE1273-.LLSDACSB1273
 9977              	.LLSDACSB1273:
 9978 0715 39       		.uleb128 .LEHB225-.LFB1273
 9979 0716 3B       		.uleb128 .LEHE225-.LEHB225
 9980 0717 00       		.uleb128 0
 9981 0718 00       		.uleb128 0
 9982 0719 74       		.uleb128 .LEHB226-.LFB1273
 9983 071a 41       		.uleb128 .LEHE226-.LEHB226
 9984 071b D401     		.uleb128 .L634-.LFB1273
 9985 071d 01       		.uleb128 0x1
 9986              	.LLSDACSE1273:
 9987 071e 01       		.byte	0x1
 9988 071f 00       		.byte	0
 9989              		.align 4
 9990 0720 00000000 		.long	0
 9991              	
 9992              	.LLSDATT1273:
 9993              		.text
 9994              		.cfi_endproc
 9995              		.section	.text.unlikely
 9996              		.cfi_startproc
 9997              		.cfi_personality 0x9b,DW.ref.__gxx_personality_v0
 9998              		.cfi_lsda 0x1b,.LLSDAC1273
 10000              	_ZNK12_GLOBAL__N_139TestCheckCloseWithNaNAgainstItselfFails7RunImplEv.cold:
 10001              	.LFSB1273:
 10002              	.L630:
 10003              		.cfi_def_cfa_offset 128
 10004              		.cfi_offset 6, -32
 10005              		.cfi_offset 12, -24
 10006              		.cfi_offset 13, -16
 10007 0cd6 E8000000 		call	__cxa_begin_catch@PLT
 10007      00
 10008              	.LEHB227:
 10009 0cdb E8000000 		call	_ZN8UnitTest11CurrentTest7ResultsEv@PLT
 10009      00
 10010 0ce0 4C8B20   		movq	(%rax), %r12
 10011 0ce3 E8000000 		call	_ZN8UnitTest11CurrentTest7DetailsEv@PLT
 10011      00
 10012 0ce8 488B30   		movq	(%rax), %rsi
 10013 0ceb BA8F0000 		movl	$143, %edx
 10013      00
 10014 0cf0 4889EF   		movq	%rbp, %rdi
 10015 0cf3 E8000000 		call	_ZN8UnitTest11TestDetailsC1ERKS0_i@PLT
 10015      00
 10016 0cf8 488D1500 		leaq	.LC63(%rip), %rdx
 10016      000000
 10017 0cff 4889EE   		movq	%rbp, %rsi
 10018 0d02 4C89E7   		movq	%r12, %rdi
 10019 0d05 E8000000 		call	_ZN8UnitTest11TestResults13OnTestFailureERKNS_11TestDetailsEPKc@PLT
 10019      00
 10020              	.LEHE227:
 10021              	.LEHB228:
 10022 0d0a E8000000 		call	__cxa_end_catch@PLT
 10022      00
 10023              	.LEHE228:
 10024 0d0f E9000000 		jmp	.L629
 10024      00
 10025              	.L635:
 10026 0d14 F30F1EFA 		endbr64
 10027 0d18 4889C5   		movq	%rax, %rbp
 10028 0d1b E8000000 		call	__cxa_end_catch@PLT
 10028      00
 10029 0d20 4889EF   		movq	%rbp, %rdi
 10030              	.LEHB229:
 10031 0d23 E8000000 		call	_Unwind_Resume@PLT
 10031      00
 10032              	.LEHE229:
 10033              		.cfi_endproc
 10034              	.LFE1273:
 10035              		.section	.gcc_except_table
 10036              		.align 4
 10037              	.LLSDAC1273:
 10038 0724 FF       		.byte	0xff
 10039 0725 9B       		.byte	0x9b
 10040 0726 15       		.uleb128 .LLSDATTC1273-.LLSDATTDC1273
 10041              	.LLSDATTDC1273:
 10042 0727 01       		.byte	0x1
 10043 0728 0C       		.uleb128 .LLSDACSEC1273-.LLSDACSBC1273
 10044              	.LLSDACSBC1273:
 10045 0729 05       		.uleb128 .LEHB227-.LCOLDB118
 10046 072a 2F       		.uleb128 .LEHE227-.LEHB227
 10047 072b 3E       		.uleb128 .L635-.LCOLDB118
 10048 072c 00       		.uleb128 0
 10049 072d 34       		.uleb128 .LEHB228-.LCOLDB118
 10050 072e 05       		.uleb128 .LEHE228-.LEHB228
 10051 072f 00       		.uleb128 0
 10052 0730 00       		.uleb128 0
 10053 0731 4D       		.uleb128 .LEHB229-.LCOLDB118
 10054 0732 05       		.uleb128 .LEHE229-.LEHB229
 10055 0733 00       		.uleb128 0
 10056 0734 00       		.uleb128 0
 10057              	.LLSDACSEC1273:
 10058 0735 01       		.byte	0x1
 10059 0736 00       		.byte	0
 10060 0737 00       		.align 4
 10061 0738 00000000 		.long	0
 10062              	
 10063              	.LLSDATTC1273:
 10064              		.section	.text.unlikely
 10065              		.text
 10067              		.section	.text.unlikely
 10069              	.LCOLDE118:
 10070              		.text
 10071              	.LHOTE118:
 10072              		.section	.text.unlikely
 10073              		.align 2
 10074              	.LCOLDB120:
 10075              		.text
 10076              	.LHOTB120:
 10077              		.align 2
 10078              		.p2align 4
 10080              	_ZNK12_GLOBAL__N_126TestCheckCloseWithNaNFails7RunImplEv:
 10081              	.LFB1269:
 10082              		.cfi_startproc
 10083              		.cfi_personality 0x9b,DW.ref.__gxx_personality_v0
 10084              		.cfi_lsda 0x1b,.LLSDA1269
 10085 30b0 F30F1EFA 		endbr64
 10086 30b4 4156     		pushq	%r14
 10087              		.cfi_def_cfa_offset 16
 10088              		.cfi_offset 14, -16
 10089 30b6 31F6     		xorl	%esi, %esi
 10090 30b8 4155     		pushq	%r13
 10091              		.cfi_def_cfa_offset 24
 10092              		.cfi_offset 13, -24
 10093 30ba 4154     		pushq	%r12
 10094              		.cfi_def_cfa_offset 32
 10095              		.cfi_offset 12, -32
 10096 30bc 55       		pushq	%rbp
 10097              		.cfi_def_cfa_offset 40
 10098              		.cfi_offset 6, -40
 10099 30bd 4883EC68 		subq	$104, %rsp
 10100              		.cfi_def_cfa_offset 144
 10101 30c1 64488B04 		movq	%fs:40, %rax
 10101      25280000 
 10101      00
 10102 30ca 48894424 		movq	%rax, 88(%rsp)
 10102      58
 10103 30cf 31C0     		xorl	%eax, %eax
 10104 30d1 4C8D6424 		leaq	16(%rsp), %r12
 10104      10
 10105 30d6 488D6C24 		leaq	48(%rsp), %rbp
 10105      30
 10106 30db C7442404 		movl	$-1, 4(%rsp)
 10106      FFFFFFFF 
 10107 30e3 4C89E7   		movq	%r12, %rdi
 10108 30e6 4C8D7424 		leaq	12(%rsp), %r14
 10108      0C
 10109 30eb 4C8D6C24 		leaq	8(%rsp), %r13
 10109      08
 10110              	.LEHB230:
 10111 30f0 E8000000 		call	_ZN8UnitTest11TestResultsC1EPNS_12TestReporterE@PLT
 10111      00
 10112 30f5 488D3500 		leaq	.LC62(%rip), %rsi
 10112      000000
 10113 30fc 4531C0   		xorl	%r8d, %r8d
 10114 30ff 4889EF   		movq	%rbp, %rdi
 10115 3102 4889F1   		movq	%rsi, %rcx
 10116 3105 4889F2   		movq	%rsi, %rdx
 10117 3108 E8000000 		call	_ZN8UnitTest11TestDetailsC1EPKcS2_S2_i@PLT
 10117      00
 10118 310d 488D5424 		leaq	4(%rsp), %rdx
 10118      04
 10119 3112 4989E8   		movq	%rbp, %r8
 10120 3115 4C89F1   		movq	%r14, %rcx
 10121 3118 4C89EE   		movq	%r13, %rsi
 10122 311b 4C89E7   		movq	%r12, %rdi
 10123 311e C744240C 		movl	$0x3dcccccd, 12(%rsp)
 10123      CDCCCC3D 
 10124 3126 C7442408 		movl	$0x40400000, 8(%rsp)
 10124      00004040 
 10125 312e E8000000 		call	_ZN8UnitTest10CheckCloseIfffEEvRNS_11TestResultsERKT_RKT0_RKT1_RKNS_11TestDetailsE
 10125      00
 10126              	.LEHE230:
 10127              	.LEHB231:
 10128 3133 E8000000 		call	_ZN8UnitTest11CurrentTest7DetailsEv@PLT
 10128      00
 10129 3138 488B30   		movq	(%rax), %rsi
 10130 313b BA820000 		movl	$130, %edx
 10130      00
 10131 3140 4889EF   		movq	%rbp, %rdi
 10132 3143 E8000000 		call	_ZN8UnitTest11TestDetailsC1ERKS0_i@PLT
 10132      00
 10133 3148 4C89E7   		movq	%r12, %rdi
 10134 314b E8000000 		call	_ZNK8UnitTest11TestResults15GetFailureCountEv@PLT
 10134      00
 10135 3150 8944240C 		movl	%eax, 12(%rsp)
 10136 3154 C7442408 		movl	$1, 8(%rsp)
 10136      01000000 
 10137 315c E8000000 		call	_ZN8UnitTest11CurrentTest7ResultsEv@PLT
 10137      00
 10138 3161 488B38   		movq	(%rax), %rdi
 10139 3164 4889E9   		movq	%rbp, %rcx
 10140 3167 4C89F2   		movq	%r14, %rdx
 10141 316a 4C89EE   		movq	%r13, %rsi
 10142 316d E8000000 		call	_ZN8UnitTest10CheckEqualIiiEEvRNS_11TestResultsERKT_RKT0_RKNS_11TestDetailsE
 10142      00
 10143              	.LEHE231:
 10144              	.L638:
 10145 3172 488B4424 		movq	88(%rsp), %rax
 10145      58
 10146 3177 64482B04 		subq	%fs:40, %rax
 10146      25280000 
 10146      00
 10147 3180 750C     		jne	.L646
 10148 3182 4883C468 		addq	$104, %rsp
 10149              		.cfi_remember_state
 10150              		.cfi_def_cfa_offset 40
 10151 3186 5D       		popq	%rbp
 10152              		.cfi_def_cfa_offset 32
 10153 3187 415C     		popq	%r12
 10154              		.cfi_def_cfa_offset 24
 10155 3189 415D     		popq	%r13
 10156              		.cfi_def_cfa_offset 16
 10157 318b 415E     		popq	%r14
 10158              		.cfi_def_cfa_offset 8
 10159 318d C3       		ret
 10160              	.L646:
 10161              		.cfi_restore_state
 10162 318e E8000000 		call	__stack_chk_fail@PLT
 10162      00
 10163              	.L643:
 10164 3193 F30F1EFA 		endbr64
 10165 3197 4889C7   		movq	%rax, %rdi
 10166 319a E9000000 		jmp	.L639
 10166      00
 10167              		.section	.gcc_except_table
 10168              		.align 4
 10169              	.LLSDA1269:
 10170 073c FF       		.byte	0xff
 10171 073d 9B       		.byte	0x9b
 10172 073e 15       		.uleb128 .LLSDATT1269-.LLSDATTD1269
 10173              	.LLSDATTD1269:
 10174 073f 01       		.byte	0x1
 10175 0740 0A       		.uleb128 .LLSDACSE1269-.LLSDACSB1269
 10176              	.LLSDACSB1269:
 10177 0741 40       		.uleb128 .LEHB230-.LFB1269
 10178 0742 43       		.uleb128 .LEHE230-.LEHB230
 10179 0743 00       		.uleb128 0
 10180 0744 00       		.uleb128 0
 10181 0745 8301     		.uleb128 .LEHB231-.LFB1269
 10182 0747 3F       		.uleb128 .LEHE231-.LEHB231
 10183 0748 E301     		.uleb128 .L643-.LFB1269
 10184 074a 01       		.uleb128 0x1
 10185              	.LLSDACSE1269:
 10186 074b 01       		.byte	0x1
 10187 074c 00       		.byte	0
 10188 074d 000000   		.align 4
 10189 0750 00000000 		.long	0
 10190              	
 10191              	.LLSDATT1269:
 10192              		.text
 10193              		.cfi_endproc
 10194              		.section	.text.unlikely
 10195              		.cfi_startproc
 10196              		.cfi_personality 0x9b,DW.ref.__gxx_personality_v0
 10197              		.cfi_lsda 0x1b,.LLSDAC1269
 10199              	_ZNK12_GLOBAL__N_126TestCheckCloseWithNaNFails7RunImplEv.cold:
 10200              	.LFSB1269:
 10201              	.L639:
 10202              		.cfi_def_cfa_offset 144
 10203              		.cfi_offset 6, -40
 10204              		.cfi_offset 12, -32
 10205              		.cfi_offset 13, -24
 10206              		.cfi_offset 14, -16
 10207 0d28 E8000000 		call	__cxa_begin_catch@PLT
 10207      00
 10208              	.LEHB232:
 10209 0d2d E8000000 		call	_ZN8UnitTest11CurrentTest7ResultsEv@PLT
 10209      00
 10210 0d32 4C8B20   		movq	(%rax), %r12
 10211 0d35 E8000000 		call	_ZN8UnitTest11CurrentTest7DetailsEv@PLT
 10211      00
 10212 0d3a 488B30   		movq	(%rax), %rsi
 10213 0d3d BA820000 		movl	$130, %edx
 10213      00
 10214 0d42 4889EF   		movq	%rbp, %rdi
 10215 0d45 E8000000 		call	_ZN8UnitTest11TestDetailsC1ERKS0_i@PLT
 10215      00
 10216 0d4a 488D1500 		leaq	.LC63(%rip), %rdx
 10216      000000
 10217 0d51 4889EE   		movq	%rbp, %rsi
 10218 0d54 4C89E7   		movq	%r12, %rdi
 10219 0d57 E8000000 		call	_ZN8UnitTest11TestResults13OnTestFailureERKNS_11TestDetailsEPKc@PLT
 10219      00
 10220              	.LEHE232:
 10221              	.LEHB233:
 10222 0d5c E8000000 		call	__cxa_end_catch@PLT
 10222      00
 10223              	.LEHE233:
 10224 0d61 E9000000 		jmp	.L638
 10224      00
 10225              	.L644:
 10226 0d66 F30F1EFA 		endbr64
 10227 0d6a 4889C5   		movq	%rax, %rbp
 10228 0d6d E8000000 		call	__cxa_end_catch@PLT
 10228      00
 10229 0d72 4889EF   		movq	%rbp, %rdi
 10230              	.LEHB234:
 10231 0d75 E8000000 		call	_Unwind_Resume@PLT
 10231      00
 10232              	.LEHE234:
 10233              		.cfi_endproc
 10234              	.LFE1269:
 10235              		.section	.gcc_except_table
 10236              		.align 4
 10237              	.LLSDAC1269:
 10238 0754 FF       		.byte	0xff
 10239 0755 9B       		.byte	0x9b
 10240 0756 15       		.uleb128 .LLSDATTC1269-.LLSDATTDC1269
 10241              	.LLSDATTDC1269:
 10242 0757 01       		.byte	0x1
 10243 0758 0C       		.uleb128 .LLSDACSEC1269-.LLSDACSBC1269
 10244              	.LLSDACSBC1269:
 10245 0759 05       		.uleb128 .LEHB232-.LCOLDB120
 10246 075a 2F       		.uleb128 .LEHE232-.LEHB232
 10247 075b 3E       		.uleb128 .L644-.LCOLDB120
 10248 075c 00       		.uleb128 0
 10249 075d 34       		.uleb128 .LEHB233-.LCOLDB120
 10250 075e 05       		.uleb128 .LEHE233-.LEHB233
 10251 075f 00       		.uleb128 0
 10252 0760 00       		.uleb128 0
 10253 0761 4D       		.uleb128 .LEHB234-.LCOLDB120
 10254 0762 05       		.uleb128 .LEHE234-.LEHB234
 10255 0763 00       		.uleb128 0
 10256 0764 00       		.uleb128 0
 10257              	.LLSDACSEC1269:
 10258 0765 01       		.byte	0x1
 10259 0766 00       		.byte	0
 10260 0767 00       		.align 4
 10261 0768 00000000 		.long	0
 10262              	
 10263              	.LLSDATTC1269:
 10264              		.section	.text.unlikely
 10265              		.text
 10267              		.section	.text.unlikely
 10269              	.LCOLDE120:
 10270              		.text
 10271              	.LHOTE120:
 10272              		.section	.text.unlikely
 10273              		.align 2
 10274              	.LCOLDB122:
 10275              		.text
 10276              	.LHOTB122:
 10277 319f 90       		.align 2
 10278              		.p2align 4
 10280              	_ZNK12_GLOBAL__N_119TestCheckCloseFalse7RunImplEv:
 10281              	.LFB1261:
 10282              		.cfi_startproc
 10283              		.cfi_personality 0x9b,DW.ref.__gxx_personality_v0
 10284              		.cfi_lsda 0x1b,.LLSDA1261
 10285 31a0 F30F1EFA 		endbr64
 10286 31a4 4156     		pushq	%r14
 10287              		.cfi_def_cfa_offset 16
 10288              		.cfi_offset 14, -16
 10289 31a6 31F6     		xorl	%esi, %esi
 10290 31a8 4155     		pushq	%r13
 10291              		.cfi_def_cfa_offset 24
 10292              		.cfi_offset 13, -24
 10293 31aa 4154     		pushq	%r12
 10294              		.cfi_def_cfa_offset 32
 10295              		.cfi_offset 12, -32
 10296 31ac 55       		pushq	%rbp
 10297              		.cfi_def_cfa_offset 40
 10298              		.cfi_offset 6, -40
 10299 31ad 4883EC68 		subq	$104, %rsp
 10300              		.cfi_def_cfa_offset 144
 10301 31b1 64488B04 		movq	%fs:40, %rax
 10301      25280000 
 10301      00
 10302 31ba 48894424 		movq	%rax, 88(%rsp)
 10302      58
 10303 31bf 31C0     		xorl	%eax, %eax
 10304 31c1 4C8D6424 		leaq	16(%rsp), %r12
 10304      10
 10305 31c6 488D6C24 		leaq	48(%rsp), %rbp
 10305      30
 10306 31cb 4C89E7   		movq	%r12, %rdi
 10307 31ce 4C8D7424 		leaq	12(%rsp), %r14
 10307      0C
 10308 31d3 4C8D6C24 		leaq	8(%rsp), %r13
 10308      08
 10309              	.LEHB235:
 10310 31d8 E8000000 		call	_ZN8UnitTest11TestResultsC1EPNS_12TestReporterE@PLT
 10310      00
 10311 31dd 488D3500 		leaq	.LC62(%rip), %rsi
 10311      000000
 10312 31e4 4531C0   		xorl	%r8d, %r8d
 10313 31e7 4889EF   		movq	%rbp, %rdi
 10314 31ea 4889F1   		movq	%rsi, %rcx
 10315 31ed 4889F2   		movq	%rsi, %rdx
 10316 31f0 E8000000 		call	_ZN8UnitTest11TestDetailsC1EPKcS2_S2_i@PLT
 10316      00
 10317 31f5 488D7424 		leaq	4(%rsp), %rsi
 10317      04
 10318 31fa 4989E8   		movq	%rbp, %r8
 10319 31fd 4C89F1   		movq	%r14, %rcx
 10320 3200 4C89EA   		movq	%r13, %rdx
 10321 3203 4C89E7   		movq	%r12, %rdi
 10322 3206 C744240C 		movl	$0x3dcccccd, 12(%rsp)
 10322      CDCCCC3D 
 10323 320e C7442408 		movl	$0x40400000, 8(%rsp)
 10323      00004040 
 10324 3216 C7442404 		movl	$0x4047ae14, 4(%rsp)
 10324      14AE4740 
 10325 321e E8000000 		call	_ZN8UnitTest10CheckCloseIfffEEvRNS_11TestResultsERKT_RKT0_RKT1_RKNS_11TestDetailsE
 10325      00
 10326              	.LEHE235:
 10327              	.LEHB236:
 10328 3223 E8000000 		call	_ZN8UnitTest11CurrentTest7DetailsEv@PLT
 10328      00
 10329 3228 488B30   		movq	(%rax), %rsi
 10330 322b BA6E0000 		movl	$110, %edx
 10330      00
 10331 3230 4889EF   		movq	%rbp, %rdi
 10332 3233 E8000000 		call	_ZN8UnitTest11TestDetailsC1ERKS0_i@PLT
 10332      00
 10333 3238 4C89E7   		movq	%r12, %rdi
 10334 323b E8000000 		call	_ZNK8UnitTest11TestResults15GetFailureCountEv@PLT
 10334      00
 10335 3240 8944240C 		movl	%eax, 12(%rsp)
 10336 3244 C7442408 		movl	$1, 8(%rsp)
 10336      01000000 
 10337 324c E8000000 		call	_ZN8UnitTest11CurrentTest7ResultsEv@PLT
 10337      00
 10338 3251 488B38   		movq	(%rax), %rdi
 10339 3254 4889E9   		movq	%rbp, %rcx
 10340 3257 4C89F2   		movq	%r14, %rdx
 10341 325a 4C89EE   		movq	%r13, %rsi
 10342 325d E8000000 		call	_ZN8UnitTest10CheckEqualIiiEEvRNS_11TestResultsERKT_RKT0_RKNS_11TestDetailsE
 10342      00
 10343              	.LEHE236:
 10344              	.L647:
 10345 3262 488B4424 		movq	88(%rsp), %rax
 10345      58
 10346 3267 64482B04 		subq	%fs:40, %rax
 10346      25280000 
 10346      00
 10347 3270 750C     		jne	.L655
 10348 3272 4883C468 		addq	$104, %rsp
 10349              		.cfi_remember_state
 10350              		.cfi_def_cfa_offset 40
 10351 3276 5D       		popq	%rbp
 10352              		.cfi_def_cfa_offset 32
 10353 3277 415C     		popq	%r12
 10354              		.cfi_def_cfa_offset 24
 10355 3279 415D     		popq	%r13
 10356              		.cfi_def_cfa_offset 16
 10357 327b 415E     		popq	%r14
 10358              		.cfi_def_cfa_offset 8
 10359 327d C3       		ret
 10360              	.L655:
 10361              		.cfi_restore_state
 10362 327e E8000000 		call	__stack_chk_fail@PLT
 10362      00
 10363              	.L652:
 10364 3283 F30F1EFA 		endbr64
 10365 3287 4889C7   		movq	%rax, %rdi
 10366 328a E9000000 		jmp	.L648
 10366      00
 10367              		.section	.gcc_except_table
 10368              		.align 4
 10369              	.LLSDA1261:
 10370 076c FF       		.byte	0xff
 10371 076d 9B       		.byte	0x9b
 10372 076e 15       		.uleb128 .LLSDATT1261-.LLSDATTD1261
 10373              	.LLSDATTD1261:
 10374 076f 01       		.byte	0x1
 10375 0770 0A       		.uleb128 .LLSDACSE1261-.LLSDACSB1261
 10376              	.LLSDACSB1261:
 10377 0771 38       		.uleb128 .LEHB235-.LFB1261
 10378 0772 4B       		.uleb128 .LEHE235-.LEHB235
 10379 0773 00       		.uleb128 0
 10380 0774 00       		.uleb128 0
 10381 0775 8301     		.uleb128 .LEHB236-.LFB1261
 10382 0777 3F       		.uleb128 .LEHE236-.LEHB236
 10383 0778 E301     		.uleb128 .L652-.LFB1261
 10384 077a 01       		.uleb128 0x1
 10385              	.LLSDACSE1261:
 10386 077b 01       		.byte	0x1
 10387 077c 00       		.byte	0
 10388 077d 000000   		.align 4
 10389 0780 00000000 		.long	0
 10390              	
 10391              	.LLSDATT1261:
 10392              		.text
 10393              		.cfi_endproc
 10394              		.section	.text.unlikely
 10395              		.cfi_startproc
 10396              		.cfi_personality 0x9b,DW.ref.__gxx_personality_v0
 10397              		.cfi_lsda 0x1b,.LLSDAC1261
 10399              	_ZNK12_GLOBAL__N_119TestCheckCloseFalse7RunImplEv.cold:
 10400              	.LFSB1261:
 10401              	.L648:
 10402              		.cfi_def_cfa_offset 144
 10403              		.cfi_offset 6, -40
 10404              		.cfi_offset 12, -32
 10405              		.cfi_offset 13, -24
 10406              		.cfi_offset 14, -16
 10407 0d7a E8000000 		call	__cxa_begin_catch@PLT
 10407      00
 10408              	.LEHB237:
 10409 0d7f E8000000 		call	_ZN8UnitTest11CurrentTest7ResultsEv@PLT
 10409      00
 10410 0d84 4C8B20   		movq	(%rax), %r12
 10411 0d87 E8000000 		call	_ZN8UnitTest11CurrentTest7DetailsEv@PLT
 10411      00
 10412 0d8c 488B30   		movq	(%rax), %rsi
 10413 0d8f BA6E0000 		movl	$110, %edx
 10413      00
 10414 0d94 4889EF   		movq	%rbp, %rdi
 10415 0d97 E8000000 		call	_ZN8UnitTest11TestDetailsC1ERKS0_i@PLT
 10415      00
 10416 0d9c 488D1500 		leaq	.LC63(%rip), %rdx
 10416      000000
 10417 0da3 4889EE   		movq	%rbp, %rsi
 10418 0da6 4C89E7   		movq	%r12, %rdi
 10419 0da9 E8000000 		call	_ZN8UnitTest11TestResults13OnTestFailureERKNS_11TestDetailsEPKc@PLT
 10419      00
 10420              	.LEHE237:
 10421              	.LEHB238:
 10422 0dae E8000000 		call	__cxa_end_catch@PLT
 10422      00
 10423              	.LEHE238:
 10424 0db3 E9000000 		jmp	.L647
 10424      00
 10425              	.L653:
 10426 0db8 F30F1EFA 		endbr64
 10427 0dbc 4889C5   		movq	%rax, %rbp
 10428 0dbf E8000000 		call	__cxa_end_catch@PLT
 10428      00
 10429 0dc4 4889EF   		movq	%rbp, %rdi
 10430              	.LEHB239:
 10431 0dc7 E8000000 		call	_Unwind_Resume@PLT
 10431      00
 10432              	.LEHE239:
 10433              		.cfi_endproc
 10434              	.LFE1261:
 10435              		.section	.gcc_except_table
 10436              		.align 4
 10437              	.LLSDAC1261:
 10438 0784 FF       		.byte	0xff
 10439 0785 9B       		.byte	0x9b
 10440 0786 15       		.uleb128 .LLSDATTC1261-.LLSDATTDC1261
 10441              	.LLSDATTDC1261:
 10442 0787 01       		.byte	0x1
 10443 0788 0C       		.uleb128 .LLSDACSEC1261-.LLSDACSBC1261
 10444              	.LLSDACSBC1261:
 10445 0789 05       		.uleb128 .LEHB237-.LCOLDB122
 10446 078a 2F       		.uleb128 .LEHE237-.LEHB237
 10447 078b 3E       		.uleb128 .L653-.LCOLDB122
 10448 078c 00       		.uleb128 0
 10449 078d 34       		.uleb128 .LEHB238-.LCOLDB122
 10450 078e 05       		.uleb128 .LEHE238-.LEHB238
 10451 078f 00       		.uleb128 0
 10452 0790 00       		.uleb128 0
 10453 0791 4D       		.uleb128 .LEHB239-.LCOLDB122
 10454 0792 05       		.uleb128 .LEHE239-.LEHB239
 10455 0793 00       		.uleb128 0
 10456 0794 00       		.uleb128 0
 10457              	.LLSDACSEC1261:
 10458 0795 01       		.byte	0x1
 10459 0796 00       		.byte	0
 10460 0797 00       		.align 4
 10461 0798 00000000 		.long	0
 10462              	
 10463              	.LLSDATTC1261:
 10464              		.section	.text.unlikely
 10465              		.text
 10467              		.section	.text.unlikely
 10469              	.LCOLDE122:
 10470              		.text
 10471              	.LHOTE122:
 10472              		.section	.text.unlikely
 10473              		.align 2
 10474              	.LCOLDB124:
 10475              		.text
 10476              	.LHOTB124:
 10477 328f 90       		.align 2
 10478              		.p2align 4
 10480              	_ZNK12_GLOBAL__N_118TestCheckCloseTrue7RunImplEv:
 10481              	.LFB1257:
 10482              		.cfi_startproc
 10483              		.cfi_personality 0x9b,DW.ref.__gxx_personality_v0
 10484              		.cfi_lsda 0x1b,.LLSDA1257
 10485 3290 F30F1EFA 		endbr64
 10486 3294 4156     		pushq	%r14
 10487              		.cfi_def_cfa_offset 16
 10488              		.cfi_offset 14, -16
 10489 3296 31F6     		xorl	%esi, %esi
 10490 3298 4155     		pushq	%r13
 10491              		.cfi_def_cfa_offset 24
 10492              		.cfi_offset 13, -24
 10493 329a 4154     		pushq	%r12
 10494              		.cfi_def_cfa_offset 32
 10495              		.cfi_offset 12, -32
 10496 329c 55       		pushq	%rbp
 10497              		.cfi_def_cfa_offset 40
 10498              		.cfi_offset 6, -40
 10499 329d 4883EC68 		subq	$104, %rsp
 10500              		.cfi_def_cfa_offset 144
 10501 32a1 64488B04 		movq	%fs:40, %rax
 10501      25280000 
 10501      00
 10502 32aa 48894424 		movq	%rax, 88(%rsp)
 10502      58
 10503 32af 31C0     		xorl	%eax, %eax
 10504 32b1 4C8D6424 		leaq	16(%rsp), %r12
 10504      10
 10505 32b6 488D6C24 		leaq	48(%rsp), %rbp
 10505      30
 10506 32bb 4C89E7   		movq	%r12, %rdi
 10507 32be 4C8D7424 		leaq	12(%rsp), %r14
 10507      0C
 10508 32c3 4C8D6C24 		leaq	8(%rsp), %r13
 10508      08
 10509              	.LEHB240:
 10510 32c8 E8000000 		call	_ZN8UnitTest11TestResultsC1EPNS_12TestReporterE@PLT
 10510      00
 10511 32cd 488D3500 		leaq	.LC62(%rip), %rsi
 10511      000000
 10512 32d4 4531C0   		xorl	%r8d, %r8d
 10513 32d7 4889EF   		movq	%rbp, %rdi
 10514 32da 4889F1   		movq	%rsi, %rcx
 10515 32dd 4889F2   		movq	%rsi, %rdx
 10516 32e0 E8000000 		call	_ZN8UnitTest11TestDetailsC1EPKcS2_S2_i@PLT
 10516      00
 10517 32e5 488D7424 		leaq	4(%rsp), %rsi
 10517      04
 10518 32ea 4989E8   		movq	%rbp, %r8
 10519 32ed 4C89F1   		movq	%r14, %rcx
 10520 32f0 4C89EA   		movq	%r13, %rdx
 10521 32f3 4C89E7   		movq	%r12, %rdi
 10522 32f6 C744240C 		movl	$0x3dcccccd, 12(%rsp)
 10522      CDCCCC3D 
 10523 32fe C7442408 		movl	$0x40400000, 8(%rsp)
 10523      00004040 
 10524 3306 C7442404 		movl	$0x40401062, 4(%rsp)
 10524      62104040 
 10525 330e E8000000 		call	_ZN8UnitTest10CheckCloseIfffEEvRNS_11TestResultsERKT_RKT0_RKT1_RKNS_11TestDetailsE
 10525      00
 10526              	.LEHE240:
 10527              	.LEHB241:
 10528 3313 E8000000 		call	_ZN8UnitTest11CurrentTest7DetailsEv@PLT
 10528      00
 10529 3318 488B30   		movq	(%rax), %rsi
 10530 331b BA670000 		movl	$103, %edx
 10530      00
 10531 3320 4889EF   		movq	%rbp, %rdi
 10532 3323 E8000000 		call	_ZN8UnitTest11TestDetailsC1ERKS0_i@PLT
 10532      00
 10533 3328 4C89E7   		movq	%r12, %rdi
 10534 332b E8000000 		call	_ZNK8UnitTest11TestResults15GetFailureCountEv@PLT
 10534      00
 10535 3330 8944240C 		movl	%eax, 12(%rsp)
 10536 3334 C7442408 		movl	$0, 8(%rsp)
 10536      00000000 
 10537 333c E8000000 		call	_ZN8UnitTest11CurrentTest7ResultsEv@PLT
 10537      00
 10538 3341 488B38   		movq	(%rax), %rdi
 10539 3344 4889E9   		movq	%rbp, %rcx
 10540 3347 4C89F2   		movq	%r14, %rdx
 10541 334a 4C89EE   		movq	%r13, %rsi
 10542 334d E8000000 		call	_ZN8UnitTest10CheckEqualIiiEEvRNS_11TestResultsERKT_RKT0_RKNS_11TestDetailsE
 10542      00
 10543              	.LEHE241:
 10544              	.L656:
 10545 3352 488B4424 		movq	88(%rsp), %rax
 10545      58
 10546 3357 64482B04 		subq	%fs:40, %rax
 10546      25280000 
 10546      00
 10547 3360 750C     		jne	.L664
 10548 3362 4883C468 		addq	$104, %rsp
 10549              		.cfi_remember_state
 10550              		.cfi_def_cfa_offset 40
 10551 3366 5D       		popq	%rbp
 10552              		.cfi_def_cfa_offset 32
 10553 3367 415C     		popq	%r12
 10554              		.cfi_def_cfa_offset 24
 10555 3369 415D     		popq	%r13
 10556              		.cfi_def_cfa_offset 16
 10557 336b 415E     		popq	%r14
 10558              		.cfi_def_cfa_offset 8
 10559 336d C3       		ret
 10560              	.L664:
 10561              		.cfi_restore_state
 10562 336e E8000000 		call	__stack_chk_fail@PLT
 10562      00
 10563              	.L661:
 10564 3373 F30F1EFA 		endbr64
 10565 3377 4889C7   		movq	%rax, %rdi
 10566 337a E9000000 		jmp	.L657
 10566      00
 10567              		.section	.gcc_except_table
 10568              		.align 4
 10569              	.LLSDA1257:
 10570 079c FF       		.byte	0xff
 10571 079d 9B       		.byte	0x9b
 10572 079e 15       		.uleb128 .LLSDATT1257-.LLSDATTD1257
 10573              	.LLSDATTD1257:
 10574 079f 01       		.byte	0x1
 10575 07a0 0A       		.uleb128 .LLSDACSE1257-.LLSDACSB1257
 10576              	.LLSDACSB1257:
 10577 07a1 38       		.uleb128 .LEHB240-.LFB1257
 10578 07a2 4B       		.uleb128 .LEHE240-.LEHB240
 10579 07a3 00       		.uleb128 0
 10580 07a4 00       		.uleb128 0
 10581 07a5 8301     		.uleb128 .LEHB241-.LFB1257
 10582 07a7 3F       		.uleb128 .LEHE241-.LEHB241
 10583 07a8 E301     		.uleb128 .L661-.LFB1257
 10584 07aa 01       		.uleb128 0x1
 10585              	.LLSDACSE1257:
 10586 07ab 01       		.byte	0x1
 10587 07ac 00       		.byte	0
 10588 07ad 000000   		.align 4
 10589 07b0 00000000 		.long	0
 10590              	
 10591              	.LLSDATT1257:
 10592              		.text
 10593              		.cfi_endproc
 10594              		.section	.text.unlikely
 10595              		.cfi_startproc
 10596              		.cfi_personality 0x9b,DW.ref.__gxx_personality_v0
 10597              		.cfi_lsda 0x1b,.LLSDAC1257
 10599              	_ZNK12_GLOBAL__N_118TestCheckCloseTrue7RunImplEv.cold:
 10600              	.LFSB1257:
 10601              	.L657:
 10602              		.cfi_def_cfa_offset 144
 10603              		.cfi_offset 6, -40
 10604              		.cfi_offset 12, -32
 10605              		.cfi_offset 13, -24
 10606              		.cfi_offset 14, -16
 10607 0dcc E8000000 		call	__cxa_begin_catch@PLT
 10607      00
 10608              	.LEHB242:
 10609 0dd1 E8000000 		call	_ZN8UnitTest11CurrentTest7ResultsEv@PLT
 10609      00
 10610 0dd6 4C8B20   		movq	(%rax), %r12
 10611 0dd9 E8000000 		call	_ZN8UnitTest11CurrentTest7DetailsEv@PLT
 10611      00
 10612 0dde 488B30   		movq	(%rax), %rsi
 10613 0de1 BA670000 		movl	$103, %edx
 10613      00
 10614 0de6 4889EF   		movq	%rbp, %rdi
 10615 0de9 E8000000 		call	_ZN8UnitTest11TestDetailsC1ERKS0_i@PLT
 10615      00
 10616 0dee 488D1500 		leaq	.LC66(%rip), %rdx
 10616      000000
 10617 0df5 4889EE   		movq	%rbp, %rsi
 10618 0df8 4C89E7   		movq	%r12, %rdi
 10619 0dfb E8000000 		call	_ZN8UnitTest11TestResults13OnTestFailureERKNS_11TestDetailsEPKc@PLT
 10619      00
 10620              	.LEHE242:
 10621              	.LEHB243:
 10622 0e00 E8000000 		call	__cxa_end_catch@PLT
 10622      00
 10623              	.LEHE243:
 10624 0e05 E9000000 		jmp	.L656
 10624      00
 10625              	.L662:
 10626 0e0a F30F1EFA 		endbr64
 10627 0e0e 4889C5   		movq	%rax, %rbp
 10628 0e11 E8000000 		call	__cxa_end_catch@PLT
 10628      00
 10629 0e16 4889EF   		movq	%rbp, %rdi
 10630              	.LEHB244:
 10631 0e19 E8000000 		call	_Unwind_Resume@PLT
 10631      00
 10632              	.LEHE244:
 10633              		.cfi_endproc
 10634              	.LFE1257:
 10635              		.section	.gcc_except_table
 10636              		.align 4
 10637              	.LLSDAC1257:
 10638 07b4 FF       		.byte	0xff
 10639 07b5 9B       		.byte	0x9b
 10640 07b6 15       		.uleb128 .LLSDATTC1257-.LLSDATTDC1257
 10641              	.LLSDATTDC1257:
 10642 07b7 01       		.byte	0x1
 10643 07b8 0C       		.uleb128 .LLSDACSEC1257-.LLSDACSBC1257
 10644              	.LLSDACSBC1257:
 10645 07b9 05       		.uleb128 .LEHB242-.LCOLDB124
 10646 07ba 2F       		.uleb128 .LEHE242-.LEHB242
 10647 07bb 3E       		.uleb128 .L662-.LCOLDB124
 10648 07bc 00       		.uleb128 0
 10649 07bd 34       		.uleb128 .LEHB243-.LCOLDB124
 10650 07be 05       		.uleb128 .LEHE243-.LEHB243
 10651 07bf 00       		.uleb128 0
 10652 07c0 00       		.uleb128 0
 10653 07c1 4D       		.uleb128 .LEHB244-.LCOLDB124
 10654 07c2 05       		.uleb128 .LEHE244-.LEHB244
 10655 07c3 00       		.uleb128 0
 10656 07c4 00       		.uleb128 0
 10657              	.LLSDACSEC1257:
 10658 07c5 01       		.byte	0x1
 10659 07c6 00       		.byte	0
 10660 07c7 00       		.align 4
 10661 07c8 00000000 		.long	0
 10662              	
 10663              	.LLSDATTC1257:
 10664              		.section	.text.unlikely
 10665              		.text
 10667              		.section	.text.unlikely
 10669              	.LCOLDE124:
 10670              		.text
 10671              	.LHOTE124:
 10672              		.section	.text._ZN8UnitTest10CheckCloseIiifEEvRNS_11TestResultsERKT_RKT0_RKT1_RKNS_11TestDetailsE,
 10673              		.p2align 4
 10674              		.weak	_ZN8UnitTest10CheckCloseIiifEEvRNS_11TestResultsERKT_RKT0_RKT1_RKNS_11TestDetailsE
 10676              	_ZN8UnitTest10CheckCloseIiifEEvRNS_11TestResultsERKT_RKT0_RKT1_RKNS_11TestDetailsE:
 10677              	.LFB1358:
 10678              		.cfi_startproc
 10679              		.cfi_personality 0x9b,DW.ref.__gxx_personality_v0
 10680              		.cfi_lsda 0x1b,.LLSDA1358
 10681 0000 F30F1EFA 		endbr64
 10682 0004 4157     		pushq	%r15
 10683              		.cfi_def_cfa_offset 16
 10684              		.cfi_offset 15, -16
 10685 0006 660FEFC0 		pxor	%xmm0, %xmm0
 10686 000a 660FEFC9 		pxor	%xmm1, %xmm1
 10687 000e 4156     		pushq	%r14
 10688              		.cfi_def_cfa_offset 24
 10689              		.cfi_offset 14, -24
 10690 0010 4155     		pushq	%r13
 10691              		.cfi_def_cfa_offset 32
 10692              		.cfi_offset 13, -32
 10693 0012 4154     		pushq	%r12
 10694              		.cfi_def_cfa_offset 40
 10695              		.cfi_offset 12, -40
 10696 0014 55       		pushq	%rbp
 10697              		.cfi_def_cfa_offset 48
 10698              		.cfi_offset 6, -48
 10699 0015 4889F5   		movq	%rsi, %rbp
 10700 0018 53       		pushq	%rbx
 10701              		.cfi_def_cfa_offset 56
 10702              		.cfi_offset 3, -56
 10703 0019 4889CB   		movq	%rcx, %rbx
 10704 001c 4881ECE8 		subq	$488, %rsp
 10704      010000
 10705              		.cfi_def_cfa_offset 544
 10706 0023 F30F1011 		movss	(%rcx), %xmm2
 10707 0027 F30F7E25 		movq	.LC33(%rip), %xmm4
 10707      00000000 
 10708 002f F30F2A06 		cvtsi2ssl	(%rsi), %xmm0
 10709 0033 48897C24 		movq	%rdi, 24(%rsp)
 10709      18
 10710 0038 F30F2A0A 		cvtsi2ssl	(%rdx), %xmm1
 10711 003c 48895424 		movq	%rdx, 32(%rsp)
 10711      20
 10712 0041 0F162500 		movhps	.LC34(%rip), %xmm4
 10712      000000
 10713 0048 4C894424 		movq	%r8, 40(%rsp)
 10713      28
 10714 004d 0F28D8   		movaps	%xmm0, %xmm3
 10715 0050 64488B04 		movq	%fs:40, %rax
 10715      25280000 
 10715      00
 10716 0059 48898424 		movq	%rax, 472(%rsp)
 10716      D8010000 
 10717 0061 31C0     		xorl	%eax, %eax
 10718 0063 F30F5CDA 		subss	%xmm2, %xmm3
 10719 0067 0F292424 		movaps	%xmm4, (%rsp)
 10720 006b 0F2FCB   		comiss	%xmm3, %xmm1
 10721 006e 720D     		jb	.L666
 10722 0070 F30F58C2 		addss	%xmm2, %xmm0
 10723 0074 0F2FC1   		comiss	%xmm1, %xmm0
 10724 0077 0F835C02 		jnb	.L665
 10724      0000
 10725              	.L666:
 10726 007d 4C8DAC24 		leaq	208(%rsp), %r13
 10726      D0000000 
 10727 0085 4C89EF   		movq	%r13, %rdi
 10728 0088 E8000000 		call	_ZNSt8ios_baseC2Ev@PLT
 10728      00
 10729 008d 31C0     		xorl	%eax, %eax
 10730 008f 660FEFC0 		pxor	%xmm0, %xmm0
 10731 0093 31F6     		xorl	%esi, %esi
 10732 0095 66898424 		movw	%ax, 432(%rsp)
 10732      B0010000 
 10733 009d 488D0500 		leaq	24+_ZTCN8UnitTest15MemoryOutStreamE0_So(%rip), %rax
 10733      000000
 10734 00a4 4C89EF   		movq	%r13, %rdi
 10735 00a7 48894424 		movq	%rax, 64(%rsp)
 10735      40
 10736 00ac 4883C028 		addq	$40, %rax
 10737 00b0 48C78424 		movq	$0, 424(%rsp)
 10737      A8010000 
 10737      00000000 
 10738 00bc 48898424 		movq	%rax, 208(%rsp)
 10738      D0000000 
 10739 00c4 0F118424 		movups	%xmm0, 440(%rsp)
 10739      B8010000 
 10740 00cc 0F118424 		movups	%xmm0, 456(%rsp)
 10740      C8010000 
 10741              	.LEHB245:
 10742 00d4 E8000000 		call	_ZNSt9basic_iosIcSt11char_traitsIcEE4initEPSt15basic_streambufIcS1_E@PLT
 10742      00
 10743              	.LEHE245:
 10744 00d9 660F6F34 		movdqa	(%rsp), %xmm6
 10744      24
 10745 00de 660FEFC0 		pxor	%xmm0, %xmm0
 10746 00e2 4C8DB424 		leaq	128(%rsp), %r14
 10746      80000000 
 10747 00ea 488D0500 		leaq	64+_ZTCN8UnitTest15MemoryOutStreamE0_NSt7__cxx1119basic_ostringstreamIcSt11char_traitsIcESaIc
 10747      000000
 10748 00f1 4C89F7   		movq	%r14, %rdi
 10749 00f4 0F294424 		movaps	%xmm0, 80(%rsp)
 10749      50
 10750 00f9 4C8D6424 		leaq	64(%rsp), %r12
 10750      40
 10751 00fe 4C8D7C24 		leaq	72(%rsp), %r15
 10751      48
 10752 0103 48898424 		movq	%rax, 208(%rsp)
 10752      D0000000 
 10753 010b 0F297424 		movaps	%xmm6, 64(%rsp)
 10753      40
 10754 0110 0F294424 		movaps	%xmm0, 96(%rsp)
 10754      60
 10755 0115 0F294424 		movaps	%xmm0, 112(%rsp)
 10755      70
 10756 011a E8000000 		call	_ZNSt6localeC1Ev@PLT
 10756      00
 10757 011f 488D0500 		leaq	16+_ZTVNSt7__cxx1115basic_stringbufIcSt11char_traitsIcESaIcEEE(%rip), %rax
 10757      000000
 10758 0126 C68424A0 		movb	$0, 160(%rsp)
 10758      00000000 
 10759 012e 4C89FE   		movq	%r15, %rsi
 10760 0131 48894424 		movq	%rax, 72(%rsp)
 10760      48
 10761 0136 488D8424 		leaq	160(%rsp), %rax
 10761      A0000000 
 10762 013e 48894424 		movq	%rax, 56(%rsp)
 10762      38
 10763 0143 48898424 		movq	%rax, 144(%rsp)
 10763      90000000 
 10764 014b 488B4424 		movq	64(%rsp), %rax
 10764      40
 10765 0150 48C78424 		movq	$0, 152(%rsp)
 10765      98000000 
 10765      00000000 
 10766 015c C7842488 		movl	$16, 136(%rsp)
 10766      00000010 
 10766      000000
 10767 0167 488B78E8 		movq	-24(%rax), %rdi
 10768 016b 4C01E7   		addq	%r12, %rdi
 10769              	.LEHB246:
 10770 016e E8000000 		call	_ZNSt9basic_iosIcSt11char_traitsIcEE4initEPSt15basic_streambufIcS1_E@PLT
 10770      00
 10771              	.LEHE246:
 10772 0173 4C8D3D00 		leaq	24+_ZTVN8UnitTest15MemoryOutStreamE(%rip), %r15
 10772      000000
 10773 017a BA090000 		movl	$9, %edx
 10773      00
 10774 017f 4C89E7   		movq	%r12, %rdi
 10775 0182 48C78424 		movq	$0, 184(%rsp)
 10775      B8000000 
 10775      00000000 
 10776 018e 498D4728 		leaq	40(%r15), %rax
 10777 0192 488D3500 		leaq	.LC44(%rip), %rsi
 10777      000000
 10778 0199 4C897C24 		movq	%r15, 64(%rsp)
 10778      40
 10779 019e 48898424 		movq	%rax, 208(%rsp)
 10779      D0000000 
 10780 01a6 488D8424 		leaq	192(%rsp), %rax
 10780      C0000000 
 10781 01ae 48894424 		movq	%rax, 48(%rsp)
 10781      30
 10782 01b3 48898424 		movq	%rax, 176(%rsp)
 10782      B0000000 
 10783 01bb C68424C0 		movb	$0, 192(%rsp)
 10783      00000000 
 10784              	.LEHB247:
 10785 01c3 E8000000 		call	_ZSt16__ostream_insertIcSt11char_traitsIcEERSt13basic_ostreamIT_T0_ES6_PKS3_l@PLT
 10785      00
 10786 01c8 8B7500   		movl	0(%rbp), %esi
 10787 01cb 4C89E7   		movq	%r12, %rdi
 10788 01ce E8000000 		call	_ZNSolsEi@PLT
 10788      00
 10789 01d3 BA050000 		movl	$5, %edx
 10789      00
 10790 01d8 488D3500 		leaq	.LC106(%rip), %rsi
 10790      000000
 10791 01df 4889C7   		movq	%rax, %rdi
 10792 01e2 4889C5   		movq	%rax, %rbp
 10793 01e5 E8000000 		call	_ZSt16__ostream_insertIcSt11char_traitsIcEERSt13basic_ostreamIT_T0_ES6_PKS3_l@PLT
 10793      00
 10794 01ea 660FEFC0 		pxor	%xmm0, %xmm0
 10795 01ee 4889EF   		movq	%rbp, %rdi
 10796 01f1 F30F5A03 		cvtss2sd	(%rbx), %xmm0
 10797 01f5 E8000000 		call	_ZNSo9_M_insertIdEERSoT_@PLT
 10797      00
 10798 01fa BA090000 		movl	$9, %edx
 10798      00
 10799 01ff 488D3500 		leaq	.LC45(%rip), %rsi
 10799      000000
 10800 0206 4889C7   		movq	%rax, %rdi
 10801 0209 4889C5   		movq	%rax, %rbp
 10802 020c E8000000 		call	_ZSt16__ostream_insertIcSt11char_traitsIcEERSt13basic_ostreamIT_T0_ES6_PKS3_l@PLT
 10802      00
 10803 0211 488B4424 		movq	32(%rsp), %rax
 10803      20
 10804 0216 4889EF   		movq	%rbp, %rdi
 10805 0219 8B30     		movl	(%rax), %esi
 10806 021b E8000000 		call	_ZNSolsEi@PLT
 10806      00
 10807 0220 4C89E7   		movq	%r12, %rdi
 10808 0223 E8000000 		call	_ZNK8UnitTest15MemoryOutStream7GetTextEv@PLT
 10808      00
 10809 0228 488B7424 		movq	40(%rsp), %rsi
 10809      28
 10810 022d 488B7C24 		movq	24(%rsp), %rdi
 10810      18
 10811 0232 4889C2   		movq	%rax, %rdx
 10812 0235 F30F7E2D 		movq	.LC33(%rip), %xmm5
 10812      00000000 
 10813 023d 0F162D00 		movhps	.LC35(%rip), %xmm5
 10813      000000
 10814 0244 0F292C24 		movaps	%xmm5, (%rsp)
 10815 0248 E8000000 		call	_ZN8UnitTest11TestResults13OnTestFailureERKNS_11TestDetailsEPKc@PLT
 10815      00
 10816              	.LEHE247:
 10817 024d 488D0500 		leaq	64+_ZTVN8UnitTest15MemoryOutStreamE(%rip), %rax
 10817      000000
 10818 0254 4C897C24 		movq	%r15, 64(%rsp)
 10818      40
 10819 0259 488BBC24 		movq	176(%rsp), %rdi
 10819      B0000000 
 10820 0261 48898424 		movq	%rax, 208(%rsp)
 10820      D0000000 
 10821 0269 483B7C24 		cmpq	48(%rsp), %rdi
 10821      30
 10822 026e 7405     		je	.L673
 10823 0270 E8000000 		call	_ZdlPv@PLT
 10823      00
 10824              	.L673:
 10825 0275 660F6F3C 		movdqa	(%rsp), %xmm7
 10825      24
 10826 027a 488D0500 		leaq	64+_ZTCN8UnitTest15MemoryOutStreamE0_NSt7__cxx1119basic_ostringstreamIcSt11char_traitsIcESaIc
 10826      000000
 10827 0281 488BBC24 		movq	144(%rsp), %rdi
 10827      90000000 
 10828 0289 48898424 		movq	%rax, 208(%rsp)
 10828      D0000000 
 10829 0291 0F297C24 		movaps	%xmm7, 64(%rsp)
 10829      40
 10830 0296 483B7C24 		cmpq	56(%rsp), %rdi
 10830      38
 10831 029b 7405     		je	.L674
 10832 029d E8000000 		call	_ZdlPv@PLT
 10832      00
 10833              	.L674:
 10834 02a2 488D0500 		leaq	16+_ZTVSt15basic_streambufIcSt11char_traitsIcEE(%rip), %rax
 10834      000000
 10835 02a9 4C89F7   		movq	%r14, %rdi
 10836 02ac 48894424 		movq	%rax, 72(%rsp)
 10836      48
 10837 02b1 E8000000 		call	_ZNSt6localeD1Ev@PLT
 10837      00
 10838 02b6 488D0500 		leaq	24+_ZTCN8UnitTest15MemoryOutStreamE0_So(%rip), %rax
 10838      000000
 10839 02bd 4C89EF   		movq	%r13, %rdi
 10840 02c0 48894424 		movq	%rax, 64(%rsp)
 10840      40
 10841 02c5 488D0500 		leaq	16+_ZTVSt9basic_iosIcSt11char_traitsIcEE(%rip), %rax
 10841      000000
 10842 02cc 48898424 		movq	%rax, 208(%rsp)
 10842      D0000000 
 10843              	.LEHB248:
 10844 02d4 E8000000 		call	_ZNSt8ios_baseD2Ev@PLT
 10844      00
 10845              	.LEHE248:
 10846              	.L665:
 10847 02d9 488B8424 		movq	472(%rsp), %rax
 10847      D8010000 
 10848 02e1 64482B04 		subq	%fs:40, %rax
 10848      25280000 
 10848      00
 10849 02ea 7512     		jne	.L684
 10850 02ec 4881C4E8 		addq	$488, %rsp
 10850      010000
 10851              		.cfi_remember_state
 10852              		.cfi_def_cfa_offset 56
 10853 02f3 5B       		popq	%rbx
 10854              		.cfi_def_cfa_offset 48
 10855 02f4 5D       		popq	%rbp
 10856              		.cfi_def_cfa_offset 40
 10857 02f5 415C     		popq	%r12
 10858              		.cfi_def_cfa_offset 32
 10859 02f7 415D     		popq	%r13
 10860              		.cfi_def_cfa_offset 24
 10861 02f9 415E     		popq	%r14
 10862              		.cfi_def_cfa_offset 16
 10863 02fb 415F     		popq	%r15
 10864              		.cfi_def_cfa_offset 8
 10865 02fd C3       		ret
 10866              	.L684:
 10867              		.cfi_restore_state
 10868 02fe E8000000 		call	__stack_chk_fail@PLT
 10868      00
 10869              	.L678:
 10870 0303 F30F1EFA 		endbr64
 10871 0307 4889C5   		movq	%rax, %rbp
 10872 030a EB24     		jmp	.L671
 10873              	.L677:
 10874 030c F30F1EFA 		endbr64
 10875 0310 4889C5   		movq	%rax, %rbp
 10876 0313 EB3A     		jmp	.L675
 10877              	.L679:
 10878 0315 F30F1EFA 		endbr64
 10879 0319 4889C5   		movq	%rax, %rbp
 10880              	.L670:
 10881 031c 4C89FF   		movq	%r15, %rdi
 10882 031f E8000000 		call	_ZNSt7__cxx1115basic_stringbufIcSt11char_traitsIcESaIcEED1Ev
 10882      00
 10883 0324 488D0500 		leaq	24+_ZTCN8UnitTest15MemoryOutStreamE0_So(%rip), %rax
 10883      000000
 10884 032b 48894424 		movq	%rax, 64(%rsp)
 10884      40
 10885              	.L671:
 10886 0330 488D0500 		leaq	16+_ZTVSt9basic_iosIcSt11char_traitsIcEE(%rip), %rax
 10886      000000
 10887 0337 4C89EF   		movq	%r13, %rdi
 10888 033a 48898424 		movq	%rax, 208(%rsp)
 10888      D0000000 
 10889 0342 E8000000 		call	_ZNSt8ios_baseD2Ev@PLT
 10889      00
 10890 0347 4889EF   		movq	%rbp, %rdi
 10891              	.LEHB249:
 10892 034a E8000000 		call	_Unwind_Resume@PLT
 10892      00
 10893              	.LEHE249:
 10894              	.L675:
 10895 034f 4C89E7   		movq	%r12, %rdi
 10896 0352 E8000000 		call	_ZN8UnitTest15MemoryOutStreamD1Ev
 10896      00
 10897 0357 4889EF   		movq	%rbp, %rdi
 10898              	.LEHB250:
 10899 035a E8000000 		call	_Unwind_Resume@PLT
 10899      00
 10900              	.LEHE250:
 10901              		.cfi_endproc
 10902              	.LFE1358:
 10903              		.section	.gcc_except_table
 10904              	.LLSDA1358:
 10905 07cc FF       		.byte	0xff
 10906 07cd FF       		.byte	0xff
 10907 07ce 01       		.byte	0x1
 10908 07cf 22       		.uleb128 .LLSDACSE1358-.LLSDACSB1358
 10909              	.LLSDACSB1358:
 10910 07d0 D401     		.uleb128 .LEHB245-.LFB1358
 10911 07d2 05       		.uleb128 .LEHE245-.LEHB245
 10912 07d3 8306     		.uleb128 .L678-.LFB1358
 10913 07d5 00       		.uleb128 0
 10914 07d6 EE02     		.uleb128 .LEHB246-.LFB1358
 10915 07d8 05       		.uleb128 .LEHE246-.LEHB246
 10916 07d9 9506     		.uleb128 .L679-.LFB1358
 10917 07db 00       		.uleb128 0
 10918 07dc C303     		.uleb128 .LEHB247-.LFB1358
 10919 07de 8A01     		.uleb128 .LEHE247-.LEHB247
 10920 07e0 8C06     		.uleb128 .L677-.LFB1358
 10921 07e2 00       		.uleb128 0
 10922 07e3 D405     		.uleb128 .LEHB248-.LFB1358
 10923 07e5 05       		.uleb128 .LEHE248-.LEHB248
 10924 07e6 00       		.uleb128 0
 10925 07e7 00       		.uleb128 0
 10926 07e8 CA06     		.uleb128 .LEHB249-.LFB1358
 10927 07ea 05       		.uleb128 .LEHE249-.LEHB249
 10928 07eb 00       		.uleb128 0
 10929 07ec 00       		.uleb128 0
 10930 07ed DA06     		.uleb128 .LEHB250-.LFB1358
 10931 07ef 05       		.uleb128 .LEHE250-.LEHB250
 10932 07f0 00       		.uleb128 0
 10933 07f1 00       		.uleb128 0
 10934              	.LLSDACSE1358:
 10935              		.section	.text._ZN8UnitTest10CheckCloseIiifEEvRNS_11TestResultsERKT_RKT0_RKT1_RKNS_11TestDetailsE,
 10937              		.section	.rodata.str1.1
 10938              	.LC125:
 10939 00be 68656164 		.string	"header.h"
 10939      65722E68 
 10939      00
 10940              		.section	.rodata.str1.8
 10941 0644 00000000 		.align 8
 10942              	.LC126:
 10943 0648 556E6861 		.string	"Unhandled exception in CHECK_EQUAL(\"header.h\", reporter.lastFailedFile)"
 10943      6E646C65 
 10943      64206578 
 10943      63657074 
 10943      696F6E20 
 10944              		.align 8
 10945              	.LC127:
 10946 0690 556E6861 		.string	"Unhandled exception in CHECK_EQUAL(10, reporter.lastFailedLine)"
 10946      6E646C65 
 10946      64206578 
 10946      63657074 
 10946      696F6E20 
 10947              		.section	.text.unlikely
 10948              		.align 2
 10949              	.LCOLDB128:
 10950              		.text
 10951              	.LHOTB128:
 10952 337f 90       		.align 2
 10953              		.p2align 4
 10955              	_ZNK12_GLOBAL__N_136TestCheckCloseFailureIncludesDetails7RunImplEv:
 10956              	.LFB1285:
 10957              		.cfi_startproc
 10958              		.cfi_personality 0x9b,DW.ref.__gxx_personality_v0
 10959              		.cfi_lsda 0x1b,.LLSDA1285
 10960 3380 F30F1EFA 		endbr64
 10961 3384 4157     		pushq	%r15
 10962              		.cfi_def_cfa_offset 16
 10963              		.cfi_offset 15, -16
 10964 3386 4156     		pushq	%r14
 10965              		.cfi_def_cfa_offset 24
 10966              		.cfi_offset 14, -24
 10967 3388 4155     		pushq	%r13
 10968              		.cfi_def_cfa_offset 32
 10969              		.cfi_offset 13, -32
 10970 338a 4154     		pushq	%r12
 10971              		.cfi_def_cfa_offset 40
 10972              		.cfi_offset 12, -40
 10973 338c 55       		pushq	%rbp
 10974              		.cfi_def_cfa_offset 48
 10975              		.cfi_offset 6, -48
 10976 338d 53       		pushq	%rbx
 10977              		.cfi_def_cfa_offset 56
 10978              		.cfi_offset 3, -56
 10979 338e 4881ECC8 		subq	$2248, %rsp
 10979      080000
 10980              		.cfi_def_cfa_offset 2304
 10981 3395 64488B04 		movq	%fs:40, %rax
 10981      25280000 
 10981      00
 10982 339e 48898424 		movq	%rax, 2232(%rsp)
 10982      B8080000 
 10983 33a6 488D0500 		leaq	16+_ZTV17RecordingReporter(%rip), %rax
 10983      000000
 10984 33ad 4C8DA424 		leaq	128(%rsp), %r12
 10984      80000000 
 10985 33b5 4C8D7C24 		leaq	32(%rsp), %r15
 10985      20
 10986 33ba C7842488 		movl	$0, 136(%rsp)
 10986      00000000 
 10986      000000
 10987 33c5 4C89E6   		movq	%r12, %rsi
 10988 33c8 4C89FF   		movq	%r15, %rdi
 10989 33cb C784248C 		movl	$0, 652(%rsp)
 10989      02000000 
 10989      000000
 10990 33d6 C7842490 		movl	$0, 912(%rsp)
 10990      03000000 
 10990      000000
 10991 33e1 C7842494 		movl	$0, 1684(%rsp)
 10991      06000000 
 10991      000000
 10992 33ec 48C78424 		movq	$0, 2200(%rsp)
 10992      98080000 
 10992      00000000 
 10993 33f8 48C78424 		movq	$0, 2208(%rsp)
 10993      A0080000 
 10993      00000000 
 10994 3404 48898424 		movq	%rax, 128(%rsp)
 10994      80000000 
 10995 340c C78424A8 		movl	$0x00000000, 2216(%rsp)
 10995      08000000 
 10995      000000
 10996 3417 C684248C 		movb	$0, 140(%rsp)
 10996      00000000 
 10997 341f C684248C 		movb	$0, 396(%rsp)
 10997      01000000 
 10998 3427 C6842490 		movb	$0, 656(%rsp)
 10998      02000000 
 10999 342f C6842494 		movb	$0, 916(%rsp)
 10999      03000000 
 11000 3437 C6842494 		movb	$0, 1172(%rsp)
 11000      04000000 
 11001 343f C6842494 		movb	$0, 1428(%rsp)
 11001      05000000 
 11002 3447 C6842498 		movb	$0, 1688(%rsp)
 11002      06000000 
 11003 344f C6842498 		movb	$0, 1944(%rsp)
 11003      07000000 
 11004              	.LEHB251:
 11005 3457 E8000000 		call	_ZN8UnitTest11TestResultsC1EPNS_12TestReporterE@PLT
 11005      00
 11006 345c 488D5C24 		leaq	64(%rsp), %rbx
 11006      40
 11007 3461 4C8D2D00 		leaq	.LC69(%rip), %r13
 11007      000000
 11008 3468 41B80A00 		movl	$10, %r8d
 11008      0000
 11009 346e 4C8D3500 		leaq	.LC70(%rip), %r14
 11009      000000
 11010 3475 488D0D00 		leaq	.LC125(%rip), %rcx
 11010      000000
 11011 347c 4C89EA   		movq	%r13, %rdx
 11012 347f 4889DF   		movq	%rbx, %rdi
 11013 3482 4C89F6   		movq	%r14, %rsi
 11014 3485 E8000000 		call	_ZN8UnitTest11TestDetailsC1EPKcS2_S2_i@PLT
 11014      00
 11015 348a 488D4424 		leaq	28(%rsp), %rax
 11015      1C
 11016 348f 488D6C24 		leaq	96(%rsp), %rbp
 11016      60
 11017 3494 4989D8   		movq	%rbx, %r8
 11018 3497 4C89FF   		movq	%r15, %rdi
 11019 349a 488D7424 		leaq	24(%rsp), %rsi
 11019      18
 11020 349f 4889E9   		movq	%rbp, %rcx
 11021 34a2 4889C2   		movq	%rax, %rdx
 11022 34a5 48894424 		movq	%rax, 8(%rsp)
 11022      08
 11023 34aa C7442460 		movl	$0x3c23d70a, 96(%rsp)
 11023      0AD7233C 
 11024 34b2 C744241C 		movl	$3, 28(%rsp)
 11024      03000000 
 11025 34ba C7442418 		movl	$2, 24(%rsp)
 11025      02000000 
 11026 34c2 E8000000 		call	_ZN8UnitTest10CheckCloseIiifEEvRNS_11TestResultsERKT_RKT0_RKT1_RKNS_11TestDetailsE
 11026      00
 11027              	.LEHE251:
 11028              	.LEHB252:
 11029 34c7 E8000000 		call	_ZN8UnitTest11CurrentTest7DetailsEv@PLT
 11029      00
 11030 34cc 488B30   		movq	(%rax), %rsi
 11031 34cf BAB10000 		movl	$177, %edx
 11031      00
 11032 34d4 4889EF   		movq	%rbp, %rdi
 11033 34d7 E8000000 		call	_ZN8UnitTest11TestDetailsC1ERKS0_i@PLT
 11033      00
 11034 34dc E8000000 		call	_ZN8UnitTest11CurrentTest7ResultsEv@PLT
 11034      00
 11035 34e1 488B38   		movq	(%rax), %rdi
 11036 34e4 488D9424 		leaq	1172(%rsp), %rdx
 11036      94040000 
 11037 34ec 4889E9   		movq	%rbp, %rcx
 11038 34ef 4C89F6   		movq	%r14, %rsi
 11039 34f2 E8000000 		call	_ZN8UnitTest10CheckEqualERNS_11TestResultsEPKcPcRKNS_11TestDetailsE@PLT
 11039      00
 11040              	.LEHE252:
 11041              	.L687:
 11042              	.LEHB253:
 11043 34f7 E8000000 		call	_ZN8UnitTest11CurrentTest7DetailsEv@PLT
 11043      00
 11044 34fc 488B30   		movq	(%rax), %rsi
 11045 34ff BAB20000 		movl	$178, %edx
 11045      00
 11046 3504 4889EF   		movq	%rbp, %rdi
 11047 3507 E8000000 		call	_ZN8UnitTest11TestDetailsC1ERKS0_i@PLT
 11047      00
 11048 350c E8000000 		call	_ZN8UnitTest11CurrentTest7ResultsEv@PLT
 11048      00
 11049 3511 488B38   		movq	(%rax), %rdi
 11050 3514 488D9424 		leaq	916(%rsp), %rdx
 11050      94030000 
 11051 351c 4889E9   		movq	%rbp, %rcx
 11052 351f 4C89EE   		movq	%r13, %rsi
 11053 3522 E8000000 		call	_ZN8UnitTest10CheckEqualERNS_11TestResultsEPKcPcRKNS_11TestDetailsE@PLT
 11053      00
 11054              	.LEHE253:
 11055              	.L691:
 11056              	.LEHB254:
 11057 3527 E8000000 		call	_ZN8UnitTest11CurrentTest7DetailsEv@PLT
 11057      00
 11058 352c 488B30   		movq	(%rax), %rsi
 11059 352f BAB30000 		movl	$179, %edx
 11059      00
 11060 3534 4889EF   		movq	%rbp, %rdi
 11061 3537 E8000000 		call	_ZN8UnitTest11TestDetailsC1ERKS0_i@PLT
 11061      00
 11062 353c E8000000 		call	_ZN8UnitTest11CurrentTest7ResultsEv@PLT
 11062      00
 11063 3541 488B38   		movq	(%rax), %rdi
 11064 3544 488D9424 		leaq	656(%rsp), %rdx
 11064      90020000 
 11065 354c 4889E9   		movq	%rbp, %rcx
 11066 354f 488D3500 		leaq	.LC125(%rip), %rsi
 11066      000000
 11067 3556 E8000000 		call	_ZN8UnitTest10CheckEqualERNS_11TestResultsEPKcPcRKNS_11TestDetailsE@PLT
 11067      00
 11068              	.LEHE254:
 11069              	.L694:
 11070              	.LEHB255:
 11071 355b E8000000 		call	_ZN8UnitTest11CurrentTest7DetailsEv@PLT
 11071      00
 11072 3560 488B30   		movq	(%rax), %rsi
 11073 3563 BAB40000 		movl	$180, %edx
 11073      00
 11074 3568 4889EF   		movq	%rbp, %rdi
 11075 356b E8000000 		call	_ZN8UnitTest11TestDetailsC1ERKS0_i@PLT
 11075      00
 11076 3570 C744241C 		movl	$10, 28(%rsp)
 11076      0A000000 
 11077 3578 E8000000 		call	_ZN8UnitTest11CurrentTest7ResultsEv@PLT
 11077      00
 11078 357d 488B7424 		movq	8(%rsp), %rsi
 11078      08
 11079 3582 488B38   		movq	(%rax), %rdi
 11080 3585 488D9424 		leaq	912(%rsp), %rdx
 11080      90030000 
 11081 358d 4889E9   		movq	%rbp, %rcx
 11082 3590 E8000000 		call	_ZN8UnitTest10CheckEqualIiiEEvRNS_11TestResultsERKT_RKT0_RKNS_11TestDetailsE
 11082      00
 11083              	.LEHE255:
 11084              	.L697:
 11085 3595 488D0500 		leaq	16+_ZTV17RecordingReporter(%rip), %rax
 11085      000000
 11086 359c 4C89E7   		movq	%r12, %rdi
 11087 359f 48898424 		movq	%rax, 128(%rsp)
 11087      80000000 
 11088              	.LEHB256:
 11089 35a7 E8000000 		call	_ZN8UnitTest12TestReporterD2Ev@PLT
 11089      00
 11090              	.LEHE256:
 11091 35ac 488B8424 		movq	2232(%rsp), %rax
 11091      B8080000 
 11092 35b4 64482B04 		subq	%fs:40, %rax
 11092      25280000 
 11092      00
 11093 35bd 7512     		jne	.L713
 11094 35bf 4881C4C8 		addq	$2248, %rsp
 11094      080000
 11095              		.cfi_remember_state
 11096              		.cfi_def_cfa_offset 56
 11097 35c6 5B       		popq	%rbx
 11098              		.cfi_def_cfa_offset 48
 11099 35c7 5D       		popq	%rbp
 11100              		.cfi_def_cfa_offset 40
 11101 35c8 415C     		popq	%r12
 11102              		.cfi_def_cfa_offset 32
 11103 35ca 415D     		popq	%r13
 11104              		.cfi_def_cfa_offset 24
 11105 35cc 415E     		popq	%r14
 11106              		.cfi_def_cfa_offset 16
 11107 35ce 415F     		popq	%r15
 11108              		.cfi_def_cfa_offset 8
 11109 35d0 C3       		ret
 11110              	.L713:
 11111              		.cfi_restore_state
 11112 35d1 E8000000 		call	__stack_chk_fail@PLT
 11112      00
 11113              	.L707:
 11114 35d6 F30F1EFA 		endbr64
 11115 35da 4889C7   		movq	%rax, %rdi
 11116 35dd E9000000 		jmp	.L696
 11116      00
 11117              	.L705:
 11118 35e2 F30F1EFA 		endbr64
 11119 35e6 4889C7   		movq	%rax, %rdi
 11120 35e9 E9000000 		jmp	.L693
 11120      00
 11121              	.L701:
 11122 35ee F30F1EFA 		endbr64
 11123 35f2 4889C7   		movq	%rax, %rdi
 11124 35f5 E9000000 		jmp	.L686
 11124      00
 11125              	.L703:
 11126 35fa F30F1EFA 		endbr64
 11127 35fe 4889C7   		movq	%rax, %rdi
 11128 3601 E9000000 		jmp	.L690
 11128      00
 11129              	.L709:
 11130 3606 F30F1EFA 		endbr64
 11131 360a E9000000 		jmp	.L710
 11131      00
 11132              		.section	.gcc_except_table
 11133 07f2 0000     		.align 4
 11134              	.LLSDA1285:
 11135 07f4 FF       		.byte	0xff
 11136 07f5 9B       		.byte	0x9b
 11137 07f6 2D       		.uleb128 .LLSDATT1285-.LLSDATTD1285
 11138              	.LLSDATTD1285:
 11139 07f7 01       		.byte	0x1
 11140 07f8 23       		.uleb128 .LLSDACSE1285-.LLSDACSB1285
 11141              	.LLSDACSB1285:
 11142 07f9 D701     		.uleb128 .LEHB251-.LFB1285
 11143 07fb 70       		.uleb128 .LEHE251-.LEHB251
 11144 07fc 8605     		.uleb128 .L709-.LFB1285
 11145 07fe 00       		.uleb128 0
 11146 07ff C702     		.uleb128 .LEHB252-.LFB1285
 11147 0801 30       		.uleb128 .LEHE252-.LEHB252
 11148 0802 EE04     		.uleb128 .L701-.LFB1285
 11149 0804 01       		.uleb128 0x1
 11150 0805 F702     		.uleb128 .LEHB253-.LFB1285
 11151 0807 30       		.uleb128 .LEHE253-.LEHB253
 11152 0808 FA04     		.uleb128 .L703-.LFB1285
 11153 080a 01       		.uleb128 0x1
 11154 080b A703     		.uleb128 .LEHB254-.LFB1285
 11155 080d 34       		.uleb128 .LEHE254-.LEHB254
 11156 080e E204     		.uleb128 .L705-.LFB1285
 11157 0810 01       		.uleb128 0x1
 11158 0811 DB03     		.uleb128 .LEHB255-.LFB1285
 11159 0813 3A       		.uleb128 .LEHE255-.LEHB255
 11160 0814 D604     		.uleb128 .L707-.LFB1285
 11161 0816 01       		.uleb128 0x1
 11162 0817 A704     		.uleb128 .LEHB256-.LFB1285
 11163 0819 05       		.uleb128 .LEHE256-.LEHB256
 11164 081a 00       		.uleb128 0
 11165 081b 00       		.uleb128 0
 11166              	.LLSDACSE1285:
 11167 081c 01       		.byte	0x1
 11168 081d 00       		.byte	0
 11169 081e 0000     		.align 4
 11170 0820 00000000 		.long	0
 11171              	
 11172              	.LLSDATT1285:
 11173              		.text
 11174              		.cfi_endproc
 11175              		.section	.text.unlikely
 11176              		.cfi_startproc
 11177              		.cfi_personality 0x9b,DW.ref.__gxx_personality_v0
 11178              		.cfi_lsda 0x1b,.LLSDAC1285
 11180              	_ZNK12_GLOBAL__N_136TestCheckCloseFailureIncludesDetails7RunImplEv.cold:
 11181              	.LFSB1285:
 11182              	.L696:
 11183              		.cfi_def_cfa_offset 2304
 11184              		.cfi_offset 3, -56
 11185              		.cfi_offset 6, -48
 11186              		.cfi_offset 12, -40
 11187              		.cfi_offset 13, -32
 11188              		.cfi_offset 14, -24
 11189              		.cfi_offset 15, -16
 11190 0e1e E8000000 		call	__cxa_begin_catch@PLT
 11190      00
 11191              	.LEHB257:
 11192 0e23 E8000000 		call	_ZN8UnitTest11CurrentTest7ResultsEv@PLT
 11192      00
 11193 0e28 4C8B28   		movq	(%rax), %r13
 11194 0e2b E8000000 		call	_ZN8UnitTest11CurrentTest7DetailsEv@PLT
 11194      00
 11195 0e30 488B30   		movq	(%rax), %rsi
 11196 0e33 BAB40000 		movl	$180, %edx
 11196      00
 11197 0e38 4889EF   		movq	%rbp, %rdi
 11198 0e3b E8000000 		call	_ZN8UnitTest11TestDetailsC1ERKS0_i@PLT
 11198      00
 11199 0e40 488D1500 		leaq	.LC127(%rip), %rdx
 11199      000000
 11200 0e47 4889EE   		movq	%rbp, %rsi
 11201 0e4a 4C89EF   		movq	%r13, %rdi
 11202 0e4d E8000000 		call	_ZN8UnitTest11TestResults13OnTestFailureERKNS_11TestDetailsEPKc@PLT
 11202      00
 11203              	.LEHE257:
 11204              	.LEHB258:
 11205 0e52 E8000000 		call	__cxa_end_catch@PLT
 11205      00
 11206              	.LEHE258:
 11207 0e57 E9000000 		jmp	.L697
 11207      00
 11208              	.L693:
 11209 0e5c E8000000 		call	__cxa_begin_catch@PLT
 11209      00
 11210              	.LEHB259:
 11211 0e61 E8000000 		call	_ZN8UnitTest11CurrentTest7ResultsEv@PLT
 11211      00
 11212 0e66 4C8B28   		movq	(%rax), %r13
 11213 0e69 E8000000 		call	_ZN8UnitTest11CurrentTest7DetailsEv@PLT
 11213      00
 11214 0e6e 488B30   		movq	(%rax), %rsi
 11215 0e71 BAB30000 		movl	$179, %edx
 11215      00
 11216 0e76 4889EF   		movq	%rbp, %rdi
 11217 0e79 E8000000 		call	_ZN8UnitTest11TestDetailsC1ERKS0_i@PLT
 11217      00
 11218 0e7e 488D1500 		leaq	.LC126(%rip), %rdx
 11218      000000
 11219 0e85 4889EE   		movq	%rbp, %rsi
 11220 0e88 4C89EF   		movq	%r13, %rdi
 11221 0e8b E8000000 		call	_ZN8UnitTest11TestResults13OnTestFailureERKNS_11TestDetailsEPKc@PLT
 11221      00
 11222              	.LEHE259:
 11223              	.LEHB260:
 11224 0e90 E8000000 		call	__cxa_end_catch@PLT
 11224      00
 11225              	.LEHE260:
 11226 0e95 E9000000 		jmp	.L694
 11226      00
 11227              	.L690:
 11228 0e9a E8000000 		call	__cxa_begin_catch@PLT
 11228      00
 11229              	.LEHB261:
 11230 0e9f E8000000 		call	_ZN8UnitTest11CurrentTest7ResultsEv@PLT
 11230      00
 11231 0ea4 4C8B28   		movq	(%rax), %r13
 11232 0ea7 E8000000 		call	_ZN8UnitTest11CurrentTest7DetailsEv@PLT
 11232      00
 11233 0eac 488B30   		movq	(%rax), %rsi
 11234 0eaf BAB20000 		movl	$178, %edx
 11234      00
 11235 0eb4 4889EF   		movq	%rbp, %rdi
 11236 0eb7 E8000000 		call	_ZN8UnitTest11TestDetailsC1ERKS0_i@PLT
 11236      00
 11237 0ebc 488D1500 		leaq	.LC72(%rip), %rdx
 11237      000000
 11238 0ec3 4889EE   		movq	%rbp, %rsi
 11239 0ec6 4C89EF   		movq	%r13, %rdi
 11240 0ec9 E8000000 		call	_ZN8UnitTest11TestResults13OnTestFailureERKNS_11TestDetailsEPKc@PLT
 11240      00
 11241              	.LEHE261:
 11242              	.LEHB262:
 11243 0ece E8000000 		call	__cxa_end_catch@PLT
 11243      00
 11244              	.LEHE262:
 11245 0ed3 E9000000 		jmp	.L691
 11245      00
 11246              	.L706:
 11247 0ed8 F30F1EFA 		endbr64
 11248 0edc 4889C5   		movq	%rax, %rbp
 11249 0edf E8000000 		call	__cxa_end_catch@PLT
 11249      00
 11250              	.L689:
 11251 0ee4 488D0500 		leaq	16+_ZTV17RecordingReporter(%rip), %rax
 11251      000000
 11252 0eeb 4C89E7   		movq	%r12, %rdi
 11253 0eee 48898424 		movq	%rax, 128(%rsp)
 11253      80000000 
 11254 0ef6 E8000000 		call	_ZN8UnitTest12TestReporterD2Ev@PLT
 11254      00
 11255 0efb 4889EF   		movq	%rbp, %rdi
 11256              	.LEHB263:
 11257 0efe E8000000 		call	_Unwind_Resume@PLT
 11257      00
 11258              	.LEHE263:
 11259              	.L704:
 11260 0f03 F30F1EFA 		endbr64
 11261 0f07 4889C5   		movq	%rax, %rbp
 11262 0f0a E8000000 		call	__cxa_end_catch@PLT
 11262      00
 11263 0f0f EBD3     		jmp	.L689
 11264              	.L686:
 11265 0f11 E8000000 		call	__cxa_begin_catch@PLT
 11265      00
 11266              	.LEHB264:
 11267 0f16 E8000000 		call	_ZN8UnitTest11CurrentTest7ResultsEv@PLT
 11267      00
 11268 0f1b 4C8B30   		movq	(%rax), %r14
 11269 0f1e E8000000 		call	_ZN8UnitTest11CurrentTest7DetailsEv@PLT
 11269      00
 11270 0f23 488B30   		movq	(%rax), %rsi
 11271 0f26 BAB10000 		movl	$177, %edx
 11271      00
 11272 0f2b 4889EF   		movq	%rbp, %rdi
 11273 0f2e E8000000 		call	_ZN8UnitTest11TestDetailsC1ERKS0_i@PLT
 11273      00
 11274 0f33 488D1500 		leaq	.LC71(%rip), %rdx
 11274      000000
 11275 0f3a 4889EE   		movq	%rbp, %rsi
 11276 0f3d 4C89F7   		movq	%r14, %rdi
 11277 0f40 E8000000 		call	_ZN8UnitTest11TestResults13OnTestFailureERKNS_11TestDetailsEPKc@PLT
 11277      00
 11278              	.LEHE264:
 11279              	.LEHB265:
 11280 0f45 E8000000 		call	__cxa_end_catch@PLT
 11280      00
 11281              	.LEHE265:
 11282 0f4a E9000000 		jmp	.L687
 11282      00
 11283              	.L700:
 11284 0f4f F30F1EFA 		endbr64
 11285              	.L710:
 11286 0f53 4889C5   		movq	%rax, %rbp
 11287 0f56 EB8C     		jmp	.L689
 11288              	.L702:
 11289 0f58 F30F1EFA 		endbr64
 11290 0f5c 4889C5   		movq	%rax, %rbp
 11291 0f5f E8000000 		call	__cxa_end_catch@PLT
 11291      00
 11292 0f64 E97BFFFF 		jmp	.L689
 11292      FF
 11293              	.L708:
 11294 0f69 F30F1EFA 		endbr64
 11295 0f6d 4889C5   		movq	%rax, %rbp
 11296 0f70 E8000000 		call	__cxa_end_catch@PLT
 11296      00
 11297 0f75 E96AFFFF 		jmp	.L689
 11297      FF
 11298              		.cfi_endproc
 11299              	.LFE1285:
 11300              		.section	.gcc_except_table
 11301              		.align 4
 11302              	.LLSDAC1285:
 11303 0824 FF       		.byte	0xff
 11304 0825 9B       		.byte	0x9b
 11305 0826 39       		.uleb128 .LLSDATTC1285-.LLSDATTDC1285
 11306              	.LLSDATTDC1285:
 11307 0827 01       		.byte	0x1
 11308 0828 31       		.uleb128 .LLSDACSEC1285-.LLSDACSBC1285
 11309              	.LLSDACSBC1285:
 11310 0829 05       		.uleb128 .LEHB257-.LCOLDB128
 11311 082a 2F       		.uleb128 .LEHE257-.LEHB257
 11312 082b CB02     		.uleb128 .L708-.LCOLDB128
 11313 082d 00       		.uleb128 0
 11314 082e 34       		.uleb128 .LEHB258-.LCOLDB128
 11315 082f 05       		.uleb128 .LEHE258-.LEHB258
 11316 0830 B102     		.uleb128 .L700-.LCOLDB128
 11317 0832 00       		.uleb128 0
 11318 0833 43       		.uleb128 .LEHB259-.LCOLDB128
 11319 0834 2F       		.uleb128 .LEHE259-.LEHB259
 11320 0835 BA01     		.uleb128 .L706-.LCOLDB128
 11321 0837 00       		.uleb128 0
 11322 0838 72       		.uleb128 .LEHB260-.LCOLDB128
 11323 0839 05       		.uleb128 .LEHE260-.LEHB260
 11324 083a B102     		.uleb128 .L700-.LCOLDB128
 11325 083c 00       		.uleb128 0
 11326 083d 8101     		.uleb128 .LEHB261-.LCOLDB128
 11327 083f 2F       		.uleb128 .LEHE261-.LEHB261
 11328 0840 E501     		.uleb128 .L704-.LCOLDB128
 11329 0842 00       		.uleb128 0
 11330 0843 B001     		.uleb128 .LEHB262-.LCOLDB128
 11331 0845 05       		.uleb128 .LEHE262-.LEHB262
 11332 0846 B102     		.uleb128 .L700-.LCOLDB128
 11333 0848 00       		.uleb128 0
 11334 0849 E001     		.uleb128 .LEHB263-.LCOLDB128
 11335 084b 05       		.uleb128 .LEHE263-.LEHB263
 11336 084c 00       		.uleb128 0
 11337 084d 00       		.uleb128 0
 11338 084e F801     		.uleb128 .LEHB264-.LCOLDB128
 11339 0850 2F       		.uleb128 .LEHE264-.LEHB264
 11340 0851 BA02     		.uleb128 .L702-.LCOLDB128
 11341 0853 00       		.uleb128 0
 11342 0854 A702     		.uleb128 .LEHB265-.LCOLDB128
 11343 0856 05       		.uleb128 .LEHE265-.LEHB265
 11344 0857 B102     		.uleb128 .L700-.LCOLDB128
 11345 0859 00       		.uleb128 0
 11346              	.LLSDACSEC1285:
 11347 085a 01       		.byte	0x1
 11348 085b 00       		.byte	0
 11349              		.align 4
 11350 085c 00000000 		.long	0
 11351              	
 11352              	.LLSDATTC1285:
 11353              		.section	.text.unlikely
 11354              		.text
 11356              		.section	.text.unlikely
 11358              	.LCOLDE128:
 11359              		.text
 11360              	.LHOTE128:
 11361              		.section	.rodata.str1.1
 11362              	.LC129:
 11363 00c7 302E3031 		.string	"0.01"
 11363      00
 11364              		.section	.rodata.str1.8
 11365              		.align 8
 11366              	.LC130:
 11367 06d0 73747273 		.string	"strstr(reporter.lastFailedMessage, \"0.01\")"
 11367      74722872 
 11367      65706F72 
 11367      7465722E 
 11367      6C617374 
 11368 06fb 00000000 		.align 8
 11368      00
 11369              	.LC131:
 11370 0700 556E6861 		.string	"Unhandled exception in CHECK(strstr(reporter.lastFailedMessage, \"0.01\"))"
 11370      6E646C65 
 11370      64206578 
 11370      63657074 
 11370      696F6E20 
 11371              		.section	.text.unlikely
 11372              		.align 2
 11373              	.LCOLDB132:
 11374              		.text
 11375              	.LHOTB132:
 11376 360f 90       		.align 2
 11377              		.p2align 4
 11379              	_ZNK12_GLOBAL__N_138TestCheckCloseFailureIncludesTolerance7RunImplEv:
 11380              	.LFB1281:
 11381              		.cfi_startproc
 11382              		.cfi_personality 0x9b,DW.ref.__gxx_personality_v0
 11383              		.cfi_lsda 0x1b,.LLSDA1281
 11384 3610 F30F1EFA 		endbr64
 11385 3614 4155     		pushq	%r13
 11386              		.cfi_def_cfa_offset 16
 11387              		.cfi_offset 13, -16
 11388 3616 4154     		pushq	%r12
 11389              		.cfi_def_cfa_offset 24
 11390              		.cfi_offset 12, -24
 11391 3618 55       		pushq	%rbp
 11392              		.cfi_def_cfa_offset 32
 11393              		.cfi_offset 6, -32
 11394 3619 53       		pushq	%rbx
 11395              		.cfi_def_cfa_offset 40
 11396              		.cfi_offset 3, -40
 11397 361a 488D1D00 		leaq	16+_ZTV17RecordingReporter(%rip), %rbx
 11397      000000
 11398 3621 4881EC98 		subq	$2200, %rsp
 11398      080000
 11399              		.cfi_def_cfa_offset 2240
 11400 3628 64488B04 		movq	%fs:40, %rax
 11400      25280000 
 11400      00
 11401 3631 48898424 		movq	%rax, 2184(%rsp)
 11401      88080000 
 11402 3639 31C0     		xorl	%eax, %eax
 11403 363b 4C8D6424 		leaq	80(%rsp), %r12
 11403      50
 11404 3640 4C8D6C24 		leaq	16(%rsp), %r13
 11404      10
 11405 3645 48895C24 		movq	%rbx, 80(%rsp)
 11405      50
 11406 364a 4C89E6   		movq	%r12, %rsi
 11407 364d 4C89EF   		movq	%r13, %rdi
 11408 3650 C7442458 		movl	$0, 88(%rsp)
 11408      00000000 
 11409 3658 C784245C 		movl	$0, 604(%rsp)
 11409      02000000 
 11409      000000
 11410 3663 C7842460 		movl	$0, 864(%rsp)
 11410      03000000 
 11410      000000
 11411 366e C7842464 		movl	$0, 1636(%rsp)
 11411      06000000 
 11411      000000
 11412 3679 48C78424 		movq	$0, 2152(%rsp)
 11412      68080000 
 11412      00000000 
 11413 3685 48C78424 		movq	$0, 2160(%rsp)
 11413      70080000 
 11413      00000000 
 11414 3691 C7842478 		movl	$0x00000000, 2168(%rsp)
 11414      08000000 
 11414      000000
 11415 369c C644245C 		movb	$0, 92(%rsp)
 11415      00
 11416 36a1 C684245C 		movb	$0, 348(%rsp)
 11416      01000000 
 11417 36a9 C6842460 		movb	$0, 608(%rsp)
 11417      02000000 
 11418 36b1 C6842464 		movb	$0, 868(%rsp)
 11418      03000000 
 11419 36b9 C6842464 		movb	$0, 1124(%rsp)
 11419      04000000 
 11420 36c1 C6842464 		movb	$0, 1380(%rsp)
 11420      05000000 
 11421 36c9 C6842468 		movb	$0, 1640(%rsp)
 11421      06000000 
 11422 36d1 C6842468 		movb	$0, 1896(%rsp)
 11422      07000000 
 11423              	.LEHB266:
 11424 36d9 E8000000 		call	_ZN8UnitTest11TestResultsC1EPNS_12TestReporterE@PLT
 11424      00
 11425 36de 488D3500 		leaq	.LC62(%rip), %rsi
 11425      000000
 11426 36e5 488D6C24 		leaq	48(%rsp), %rbp
 11426      30
 11427 36ea 4531C0   		xorl	%r8d, %r8d
 11428 36ed 4889F1   		movq	%rsi, %rcx
 11429 36f0 4889F2   		movq	%rsi, %rdx
 11430 36f3 4889EF   		movq	%rbp, %rdi
 11431 36f6 E8000000 		call	_ZN8UnitTest11TestDetailsC1EPKcS2_S2_i@PLT
 11431      00
 11432 36fb 488D4C24 		leaq	12(%rsp), %rcx
 11432      0C
 11433 3700 488D5424 		leaq	8(%rsp), %rdx
 11433      08
 11434 3705 4989E8   		movq	%rbp, %r8
 11435 3708 4C89EF   		movq	%r13, %rdi
 11436 370b 488D7424 		leaq	4(%rsp), %rsi
 11436      04
 11437 3710 C744240C 		movl	$0x3c23d70a, 12(%rsp)
 11437      0AD7233C 
 11438 3718 C7442408 		movl	$3, 8(%rsp)
 11438      03000000 
 11439 3720 C7442404 		movl	$2, 4(%rsp)
 11439      02000000 
 11440 3728 E8000000 		call	_ZN8UnitTest10CheckCloseIiifEEvRNS_11TestResultsERKT_RKT0_RKT1_RKNS_11TestDetailsE
 11440      00
 11441              	.LEHE266:
 11442 372d 488DBC24 		leaq	1380(%rsp), %rdi
 11442      64050000 
 11443 3735 488D3500 		leaq	.LC129(%rip), %rsi
 11443      000000
 11444 373c E8000000 		call	strstr@PLT
 11444      00
 11445 3741 4885C0   		testq	%rax, %rax
 11446 3744 7432     		je	.L729
 11447              	.L716:
 11448 3746 4C89E7   		movq	%r12, %rdi
 11449 3749 48895C24 		movq	%rbx, 80(%rsp)
 11449      50
 11450              	.LEHB267:
 11451 374e E8000000 		call	_ZN8UnitTest12TestReporterD2Ev@PLT
 11451      00
 11452              	.LEHE267:
 11453 3753 488B8424 		movq	2184(%rsp), %rax
 11453      88080000 
 11454 375b 64482B04 		subq	%fs:40, %rax
 11454      25280000 
 11454      00
 11455 3764 7543     		jne	.L730
 11456 3766 4881C498 		addq	$2200, %rsp
 11456      080000
 11457              		.cfi_remember_state
 11458              		.cfi_def_cfa_offset 40
 11459 376d 5B       		popq	%rbx
 11460              		.cfi_def_cfa_offset 32
 11461 376e 5D       		popq	%rbp
 11462              		.cfi_def_cfa_offset 24
 11463 376f 415C     		popq	%r12
 11464              		.cfi_def_cfa_offset 16
 11465 3771 415D     		popq	%r13
 11466              		.cfi_def_cfa_offset 8
 11467 3773 C3       		ret
 11468              		.p2align 4,,10
 11469 3774 0F1F4000 		.p2align 3
 11470              	.L729:
 11471              		.cfi_restore_state
 11472              	.LEHB268:
 11473 3778 E8000000 		call	_ZN8UnitTest11CurrentTest7ResultsEv@PLT
 11473      00
 11474 377d 4C8B28   		movq	(%rax), %r13
 11475 3780 E8000000 		call	_ZN8UnitTest11CurrentTest7DetailsEv@PLT
 11475      00
 11476 3785 488B30   		movq	(%rax), %rsi
 11477 3788 BAA60000 		movl	$166, %edx
 11477      00
 11478 378d 4889EF   		movq	%rbp, %rdi
 11479 3790 E8000000 		call	_ZN8UnitTest11TestDetailsC1ERKS0_i@PLT
 11479      00
 11480 3795 488D1500 		leaq	.LC130(%rip), %rdx
 11480      000000
 11481 379c 4889EE   		movq	%rbp, %rsi
 11482 379f 4C89EF   		movq	%r13, %rdi
 11483 37a2 E8000000 		call	_ZN8UnitTest11TestResults13OnTestFailureERKNS_11TestDetailsEPKc@PLT
 11483      00
 11484              	.LEHE268:
 11485 37a7 EB9D     		jmp	.L716
 11486              	.L730:
 11487 37a9 E8000000 		call	__stack_chk_fail@PLT
 11487      00
 11488              	.L725:
 11489 37ae F30F1EFA 		endbr64
 11490 37b2 E9000000 		jmp	.L726
 11490      00
 11491              	.L723:
 11492 37b7 F30F1EFA 		endbr64
 11493 37bb 4889C7   		movq	%rax, %rdi
 11494 37be E9000000 		jmp	.L717
 11494      00
 11495              		.section	.gcc_except_table
 11496              		.align 4
 11497              	.LLSDA1281:
 11498 0860 FF       		.byte	0xff
 11499 0861 9B       		.byte	0x9b
 11500 0862 19       		.uleb128 .LLSDATT1281-.LLSDATTD1281
 11501              	.LLSDATTD1281:
 11502 0863 01       		.byte	0x1
 11503 0864 11       		.uleb128 .LLSDACSE1281-.LLSDACSB1281
 11504              	.LLSDACSB1281:
 11505 0865 C901     		.uleb128 .LEHB266-.LFB1281
 11506 0867 54       		.uleb128 .LEHE266-.LEHB266
 11507 0868 9E03     		.uleb128 .L725-.LFB1281
 11508 086a 00       		.uleb128 0
 11509 086b BE02     		.uleb128 .LEHB267-.LFB1281
 11510 086d 05       		.uleb128 .LEHE267-.LEHB267
 11511 086e 00       		.uleb128 0
 11512 086f 00       		.uleb128 0
 11513 0870 E802     		.uleb128 .LEHB268-.LFB1281
 11514 0872 2F       		.uleb128 .LEHE268-.LEHB268
 11515 0873 A703     		.uleb128 .L723-.LFB1281
 11516 0875 01       		.uleb128 0x1
 11517              	.LLSDACSE1281:
 11518 0876 01       		.byte	0x1
 11519 0877 00       		.byte	0
 11520              		.align 4
 11521 0878 00000000 		.long	0
 11522              	
 11523              	.LLSDATT1281:
 11524              		.text
 11525              		.cfi_endproc
 11526              		.section	.text.unlikely
 11527              		.cfi_startproc
 11528              		.cfi_personality 0x9b,DW.ref.__gxx_personality_v0
 11529              		.cfi_lsda 0x1b,.LLSDAC1281
 11531              	_ZNK12_GLOBAL__N_138TestCheckCloseFailureIncludesTolerance7RunImplEv.cold:
 11532              	.LFSB1281:
 11533 0f7a 90       		nop
 11534              	.L722:
 11535              		.cfi_def_cfa_offset 2240
 11536              		.cfi_offset 3, -40
 11537              		.cfi_offset 6, -32
 11538              		.cfi_offset 12, -24
 11539              		.cfi_offset 13, -16
 11540 0f7b F30F1EFA 		endbr64
 11541              	.L726:
 11542 0f7f 4889C5   		movq	%rax, %rbp
 11543              	.L720:
 11544 0f82 4C89E7   		movq	%r12, %rdi
 11545 0f85 48895C24 		movq	%rbx, 80(%rsp)
 11545      50
 11546 0f8a E8000000 		call	_ZN8UnitTest12TestReporterD2Ev@PLT
 11546      00
 11547 0f8f 4889EF   		movq	%rbp, %rdi
 11548              	.LEHB269:
 11549 0f92 E8000000 		call	_Unwind_Resume@PLT
 11549      00
 11550              	.LEHE269:
 11551              	.L717:
 11552 0f97 E8000000 		call	__cxa_begin_catch@PLT
 11552      00
 11553              	.LEHB270:
 11554 0f9c E8000000 		call	_ZN8UnitTest11CurrentTest7ResultsEv@PLT
 11554      00
 11555 0fa1 4C8B28   		movq	(%rax), %r13
 11556 0fa4 E8000000 		call	_ZN8UnitTest11CurrentTest7DetailsEv@PLT
 11556      00
 11557 0fa9 488B30   		movq	(%rax), %rsi
 11558 0fac BAA60000 		movl	$166, %edx
 11558      00
 11559 0fb1 4889EF   		movq	%rbp, %rdi
 11560 0fb4 E8000000 		call	_ZN8UnitTest11TestDetailsC1ERKS0_i@PLT
 11560      00
 11561 0fb9 488D1500 		leaq	.LC131(%rip), %rdx
 11561      000000
 11562 0fc0 4889EE   		movq	%rbp, %rsi
 11563 0fc3 4C89EF   		movq	%r13, %rdi
 11564 0fc6 E8000000 		call	_ZN8UnitTest11TestResults13OnTestFailureERKNS_11TestDetailsEPKc@PLT
 11564      00
 11565              	.LEHE270:
 11566              	.LEHB271:
 11567 0fcb E8000000 		call	__cxa_end_catch@PLT
 11567      00
 11568              	.LEHE271:
 11569 0fd0 E9000000 		jmp	.L716
 11569      00
 11570              	.L724:
 11571 0fd5 F30F1EFA 		endbr64
 11572 0fd9 4889C5   		movq	%rax, %rbp
 11573 0fdc E8000000 		call	__cxa_end_catch@PLT
 11573      00
 11574 0fe1 EB9F     		jmp	.L720
 11575              		.cfi_endproc
 11576              	.LFE1281:
 11577              		.section	.gcc_except_table
 11578              		.align 4
 11579              	.LLSDAC1281:
 11580 087c FF       		.byte	0xff
 11581 087d 9B       		.byte	0x9b
 11582 087e 15       		.uleb128 .LLSDATTC1281-.LLSDATTDC1281
 11583              	.LLSDATTDC1281:
 11584 087f 01       		.byte	0x1
 11585 0880 0C       		.uleb128 .LLSDACSEC1281-.LLSDACSBC1281
 11586              	.LLSDACSBC1281:
 11587 0881 18       		.uleb128 .LEHB269-.LCOLDB132
 11588 0882 05       		.uleb128 .LEHE269-.LEHB269
 11589 0883 00       		.uleb128 0
 11590 0884 00       		.uleb128 0
 11591 0885 22       		.uleb128 .LEHB270-.LCOLDB132
 11592 0886 2F       		.uleb128 .LEHE270-.LEHB270
 11593 0887 5B       		.uleb128 .L724-.LCOLDB132
 11594 0888 00       		.uleb128 0
 11595 0889 51       		.uleb128 .LEHB271-.LCOLDB132
 11596 088a 05       		.uleb128 .LEHE271-.LEHB271
 11597 088b 01       		.uleb128 .L722-.LCOLDB132
 11598 088c 00       		.uleb128 0
 11599              	.LLSDACSEC1281:
 11600 088d 01       		.byte	0x1
 11601 088e 00       		.byte	0
 11602 088f 00       		.align 4
 11603 0890 00000000 		.long	0
 11604              	
 11605              	.LLSDATTC1281:
 11606              		.section	.text.unlikely
 11607              		.text
 11609              		.section	.text.unlikely
 11611              	.LCOLDE132:
 11612              		.text
 11613              	.LHOTE132:
 11614              		.section	.rodata.str1.1
 11615              	.LC133:
 11616 00cc 54657374 		.string	"TestChecks.cpp"
 11616      43686563 
 11616      6B732E63 
 11616      707000
 11617              	.LC134:
 11618 00db 44656661 		.string	"DefaultSuite"
 11618      756C7453 
 11618      75697465 
 11618      00
 11619              	.LC135:
 11620 00e8 43686563 		.string	"CheckEqualWithUnsignedLong"
 11620      6B457175 
 11620      616C5769 
 11620      7468556E 
 11620      7369676E 
 11621              		.section	.rodata.str1.8
 11622 0749 00000000 		.align 8
 11622      000000
 11623              	.LC136:
 11624 0750 43686563 		.string	"CheckEqualsWithStringsFailsOnDifferentStrings"
 11624      6B457175 
 11624      616C7357 
 11624      69746853 
 11624      7472696E 
 11625 077e 0000     		.align 8
 11626              	.LC137:
 11627 0780 43686563 		.string	"CheckEqualsWithStringsWorksOnContentsNonConstNonConst"
 11627      6B457175 
 11627      616C7357 
 11627      69746853 
 11627      7472696E 
 11628 07b6 0000     		.align 8
 11629              	.LC138:
 11630 07b8 43686563 		.string	"CheckEqualsWithStringsWorksOnContentsConstConst"
 11630      6B457175 
 11630      616C7357 
 11630      69746853 
 11630      7472696E 
 11631              		.align 8
 11632              	.LC139:
 11633 07e8 43686563 		.string	"CheckEqualsWithStringsWorksOnContentsNonConstConst"
 11633      6B457175 
 11633      616C7357 
 11633      69746853 
 11633      7472696E 
 11634 081b 00000000 		.align 8
 11634      00
 11635              	.LC140:
 11636 0820 43686563 		.string	"CheckEqualsWithStringsWorksOnContentsConstNonConst"
 11636      6B457175 
 11636      616C7357 
 11636      69746853 
 11636      7472696E 
 11637 0853 00000000 		.align 8
 11637      00
 11638              	.LC141:
 11639 0858 43686563 		.string	"CheckEqualsWithStringsWorksOnContentsWithALiteral"
 11639      6B457175 
 11639      616C7357 
 11639      69746853 
 11639      7472696E 
 11640 088a 00000000 		.align 8
 11640      0000
 11641              	.LC142:
 11642 0890 43686563 		.string	"CheckEqualFailureIncludesCheckExpectedAndActual"
 11642      6B457175 
 11642      616C4661 
 11642      696C7572 
 11642      65496E63 
 11643              		.align 8
 11644              	.LC143:
 11645 08c0 43686563 		.string	"CheckEqualFailureIncludesDetails"
 11645      6B457175 
 11645      616C4661 
 11645      696C7572 
 11645      65496E63 
 11646              		.section	.rodata.str1.1
 11647              	.LC144:
 11648 0103 43686563 		.string	"CheckCloseTrue"
 11648      6B436C6F 
 11648      73655472 
 11648      756500
 11649              	.LC145:
 11650 0112 43686563 		.string	"CheckCloseFalse"
 11650      6B436C6F 
 11650      73654661 
 11650      6C736500 
 11651              		.section	.rodata.str1.8
 11652 08e1 00000000 		.align 8
 11652      000000
 11653              	.LC146:
 11654 08e8 43686563 		.string	"CheckCloseWithZeroEpsilonWorksForSameNumber"
 11654      6B436C6F 
 11654      73655769 
 11654      74685A65 
 11654      726F4570 
 11655              		.section	.rodata.str1.1
 11656              	.LC147:
 11657 0122 43686563 		.string	"CheckCloseWithNaNFails"
 11657      6B436C6F 
 11657      73655769 
 11657      74684E61 
 11657      4E466169 
 11658              		.section	.rodata.str1.8
 11659 0914 00000000 		.align 8
 11660              	.LC148:
 11661 0918 43686563 		.string	"CheckCloseWithNaNAgainstItselfFails"
 11661      6B436C6F 
 11661      73655769 
 11661      74684E61 
 11661      4E416761 
 11662 093c 00000000 		.align 8
 11663              	.LC149:
 11664 0940 43686563 		.string	"CheckCloseFailureIncludesCheckExpectedAndActual"
 11664      6B436C6F 
 11664      73654661 
 11664      696C7572 
 11664      65496E63 
 11665              		.align 8
 11666              	.LC150:
 11667 0970 43686563 		.string	"CheckCloseFailureIncludesTolerance"
 11667      6B436C6F 
 11667      73654661 
 11667      696C7572 
 11667      65496E63 
 11668 0993 00000000 		.align 8
 11668      00
 11669              	.LC151:
 11670 0998 43686563 		.string	"CheckCloseFailureIncludesDetails"
 11670      6B436C6F 
 11670      73654661 
 11670      696C7572 
 11670      65496E63 
 11671              		.section	.rodata.str1.1
 11672              	.LC152:
 11673 0139 43686563 		.string	"CheckArrayEqualTrue"
 11673      6B417272 
 11673      61794571 
 11673      75616C54 
 11673      72756500 
 11674              	.LC153:
 11675 014d 43686563 		.string	"CheckArrayEqualFalse"
 11675      6B417272 
 11675      61794571 
 11675      75616C46 
 11675      616C7365 
 11676              	.LC154:
 11677 0162 43686563 		.string	"CheckArrayCloseTrue"
 11677      6B417272 
 11677      6179436C 
 11677      6F736554 
 11677      72756500 
 11678              	.LC155:
 11679 0176 43686563 		.string	"CheckArrayCloseFalse"
 11679      6B417272 
 11679      6179436C 
 11679      6F736546 
 11679      616C7365 
 11680              		.section	.rodata.str1.8
 11681 09b9 00000000 		.align 8
 11681      000000
 11682              	.LC156:
 11683 09c0 43686563 		.string	"CheckArrayCloseFailureIncludesDetails"
 11683      6B417272 
 11683      6179436C 
 11683      6F736546 
 11683      61696C75 
 11684              		.section	.rodata.str1.1
 11685              	.LC157:
 11686 018b 43686563 		.string	"CheckArray2DCloseTrue"
 11686      6B417272 
 11686      61793244 
 11686      436C6F73 
 11686      65547275 
 11687              	.LC158:
 11688 01a1 43686563 		.string	"CheckArray2DCloseFalse"
 11688      6B417272 
 11688      61793244 
 11688      436C6F73 
 11688      6546616C 
 11689              	.LC159:
 11690 01b8 43686563 		.string	"CheckCloseWithDoublesSucceeds"
 11690      6B436C6F 
 11690      73655769 
 11690      7468446F 
 11690      75626C65 
 11691              		.section	.rodata.str1.8
 11692 09e6 0000     		.align 8
 11693              	.LC160:
 11694 09e8 43686563 		.string	"CheckArray2DCloseFailureIncludesDetails"
 11694      6B417272 
 11694      61793244 
 11694      436C6F73 
 11694      65466169 
 11695              		.section	.text.startup,"ax",@progbits
 11696              		.p2align 4
 11698              	_GLOBAL__sub_I_TestChecks.cpp:
 11699              	.LFB1532:
 11700              		.cfi_startproc
 11701 0000 F30F1EFA 		endbr64
 11702 0004 4157     		pushq	%r15
 11703              		.cfi_def_cfa_offset 16
 11704              		.cfi_offset 15, -16
 11705 0006 4C8D3D00 		leaq	_ZN12_GLOBAL__N_138testCheckEqualWithUnsignedLongInstanceE(%rip), %r15
 11705      000000
 11706 000d 41B80A00 		movl	$10, %r8d
 11706      0000
 11707 0013 488D3500 		leaq	.LC135(%rip), %rsi
 11707      000000
 11708 001a 4156     		pushq	%r14
 11709              		.cfi_def_cfa_offset 24
 11710              		.cfi_offset 14, -24
 11711 001c 4C8D3500 		leaq	.LC133(%rip), %r14
 11711      000000
 11712 0023 4C89FF   		movq	%r15, %rdi
 11713 0026 4155     		pushq	%r13
 11714              		.cfi_def_cfa_offset 32
 11715              		.cfi_offset 13, -32
 11716 0028 4C8D2D00 		leaq	.LC134(%rip), %r13
 11716      000000
 11717 002f 4C89F1   		movq	%r14, %rcx
 11718 0032 4154     		pushq	%r12
 11719              		.cfi_def_cfa_offset 40
 11720              		.cfi_offset 12, -40
 11721 0034 4C89EA   		movq	%r13, %rdx
 11722 0037 4C8D2500 		leaq	__dso_handle(%rip), %r12
 11722      000000
 11723 003e 4883EC08 		subq	$8, %rsp
 11724              		.cfi_def_cfa_offset 48
 11725 0042 E8000000 		call	_ZN8UnitTest4TestC2EPKcS2_S2_i@PLT
 11725      00
 11726 0047 4C89E2   		movq	%r12, %rdx
 11727 004a 4C89FE   		movq	%r15, %rsi
 11728 004d 488D3D00 		leaq	_ZN12_GLOBAL__N_130TestCheckEqualWithUnsignedLongD1Ev(%rip), %rdi
 11728      000000
 11729 0054 488D0500 		leaq	16+_ZTVN12_GLOBAL__N_130TestCheckEqualWithUnsignedLongE(%rip), %rax
 11729      000000
 11730 005b 48890500 		movq	%rax, _ZN12_GLOBAL__N_138testCheckEqualWithUnsignedLongInstanceE(%rip)
 11730      000000
 11731 0062 E8000000 		call	__cxa_atexit@PLT
 11731      00
 11732 0067 E8000000 		call	_ZN8UnitTest4Test11GetTestListEv@PLT
 11732      00
 11733 006c 4C89FA   		movq	%r15, %rdx
 11734 006f 488D3D00 		leaq	_ZN12_GLOBAL__N_131adderCheckEqualWithUnsignedLongE(%rip), %rdi
 11734      000000
 11735 0076 4C8D3D00 		leaq	_ZN12_GLOBAL__N_157testCheckEqualsWithStringsFailsOnDifferentStringsInstanceE(%rip), %r15
 11735      000000
 11736 007d 4889C6   		movq	%rax, %rsi
 11737 0080 E8000000 		call	_ZN8UnitTest9ListAdderC1ERNS_8TestListEPNS_4TestE@PLT
 11737      00
 11738 0085 4C89F1   		movq	%r14, %rcx
 11739 0088 4C89EA   		movq	%r13, %rdx
 11740 008b 4C89FF   		movq	%r15, %rdi
 11741 008e 41B81100 		movl	$17, %r8d
 11741      0000
 11742 0094 488D3500 		leaq	.LC136(%rip), %rsi
 11742      000000
 11743 009b E8000000 		call	_ZN8UnitTest4TestC2EPKcS2_S2_i@PLT
 11743      00
 11744 00a0 4C89E2   		movq	%r12, %rdx
 11745 00a3 4C89FE   		movq	%r15, %rsi
 11746 00a6 488D3D00 		leaq	_ZN12_GLOBAL__N_149TestCheckEqualsWithStringsFailsOnDifferentStringsD1Ev(%rip), %rdi
 11746      000000
 11747 00ad 488D0500 		leaq	16+_ZTVN12_GLOBAL__N_149TestCheckEqualsWithStringsFailsOnDifferentStringsE(%rip), %rax
 11747      000000
 11748 00b4 48890500 		movq	%rax, _ZN12_GLOBAL__N_157testCheckEqualsWithStringsFailsOnDifferentStringsInstanceE(%rip)
 11748      000000
 11749 00bb E8000000 		call	__cxa_atexit@PLT
 11749      00
 11750 00c0 E8000000 		call	_ZN8UnitTest4Test11GetTestListEv@PLT
 11750      00
 11751 00c5 4C89FA   		movq	%r15, %rdx
 11752 00c8 488D3D00 		leaq	_ZN12_GLOBAL__N_150adderCheckEqualsWithStringsFailsOnDifferentStringsE(%rip), %rdi
 11752      000000
 11753 00cf 4C8D3D00 		leaq	_ZN12_GLOBAL__N_165testCheckEqualsWithStringsWorksOnContentsNonConstNonConstInstanceE(%rip), 
 11753      000000
 11754 00d6 4889C6   		movq	%rax, %rsi
 11755 00d9 E8000000 		call	_ZN8UnitTest9ListAdderC1ERNS_8TestListEPNS_4TestE@PLT
 11755      00
 11756 00de 4C89F1   		movq	%r14, %rcx
 11757 00e1 4C89EA   		movq	%r13, %rdx
 11758 00e4 4C89FF   		movq	%r15, %rdi
 11759 00e7 41B81D00 		movl	$29, %r8d
 11759      0000
 11760 00ed 488D3500 		leaq	.LC137(%rip), %rsi
 11760      000000
 11761 00f4 E8000000 		call	_ZN8UnitTest4TestC2EPKcS2_S2_i@PLT
 11761      00
 11762 00f9 4C89E2   		movq	%r12, %rdx
 11763 00fc 4C89FE   		movq	%r15, %rsi
 11764 00ff 488D3D00 		leaq	_ZN12_GLOBAL__N_157TestCheckEqualsWithStringsWorksOnContentsNonConstNonConstD1Ev(%rip), %rdi
 11764      000000
 11765 0106 488D0500 		leaq	16+_ZTVN12_GLOBAL__N_157TestCheckEqualsWithStringsWorksOnContentsNonConstNonConstE(%rip), %ra
 11765      000000
 11766 010d 48890500 		movq	%rax, _ZN12_GLOBAL__N_165testCheckEqualsWithStringsWorksOnContentsNonConstNonConstInstanceE(%
 11766      000000
 11767 0114 E8000000 		call	__cxa_atexit@PLT
 11767      00
 11768 0119 E8000000 		call	_ZN8UnitTest4Test11GetTestListEv@PLT
 11768      00
 11769 011e 4C89FA   		movq	%r15, %rdx
 11770 0121 488D3D00 		leaq	_ZN12_GLOBAL__N_158adderCheckEqualsWithStringsWorksOnContentsNonConstNonConstE(%rip), %rdi
 11770      000000
 11771 0128 4C8D3D00 		leaq	_ZN12_GLOBAL__N_159testCheckEqualsWithStringsWorksOnContentsConstConstInstanceE(%rip), %r15
 11771      000000
 11772 012f 4889C6   		movq	%rax, %rsi
 11773 0132 E8000000 		call	_ZN8UnitTest9ListAdderC1ERNS_8TestListEPNS_4TestE@PLT
 11773      00
 11774 0137 4C89F1   		movq	%r14, %rcx
 11775 013a 4C89EA   		movq	%r13, %rdx
 11776 013d 4C89FF   		movq	%r15, %rdi
 11777 0140 41B82600 		movl	$38, %r8d
 11777      0000
 11778 0146 488D3500 		leaq	.LC138(%rip), %rsi
 11778      000000
 11779 014d E8000000 		call	_ZN8UnitTest4TestC2EPKcS2_S2_i@PLT
 11779      00
 11780 0152 4C89E2   		movq	%r12, %rdx
 11781 0155 4C89FE   		movq	%r15, %rsi
 11782 0158 488D3D00 		leaq	_ZN12_GLOBAL__N_151TestCheckEqualsWithStringsWorksOnContentsConstConstD1Ev(%rip), %rdi
 11782      000000
 11783 015f 488D0500 		leaq	16+_ZTVN12_GLOBAL__N_151TestCheckEqualsWithStringsWorksOnContentsConstConstE(%rip), %rax
 11783      000000
 11784 0166 48890500 		movq	%rax, _ZN12_GLOBAL__N_159testCheckEqualsWithStringsWorksOnContentsConstConstInstanceE(%rip)
 11784      000000
 11785 016d E8000000 		call	__cxa_atexit@PLT
 11785      00
 11786 0172 E8000000 		call	_ZN8UnitTest4Test11GetTestListEv@PLT
 11786      00
 11787 0177 4C89FA   		movq	%r15, %rdx
 11788 017a 488D3D00 		leaq	_ZN12_GLOBAL__N_152adderCheckEqualsWithStringsWorksOnContentsConstConstE(%rip), %rdi
 11788      000000
 11789 0181 4C8D3D00 		leaq	_ZN12_GLOBAL__N_162testCheckEqualsWithStringsWorksOnContentsNonConstConstInstanceE(%rip), %r1
 11789      000000
 11790 0188 4889C6   		movq	%rax, %rsi
 11791 018b E8000000 		call	_ZN8UnitTest9ListAdderC1ERNS_8TestListEPNS_4TestE@PLT
 11791      00
 11792 0190 4C89F1   		movq	%r14, %rcx
 11793 0193 4C89EA   		movq	%r13, %rdx
 11794 0196 4C89FF   		movq	%r15, %rdi
 11795 0199 41B82F00 		movl	$47, %r8d
 11795      0000
 11796 019f 488D3500 		leaq	.LC139(%rip), %rsi
 11796      000000
 11797 01a6 E8000000 		call	_ZN8UnitTest4TestC2EPKcS2_S2_i@PLT
 11797      00
 11798 01ab 4C89E2   		movq	%r12, %rdx
 11799 01ae 4C89FE   		movq	%r15, %rsi
 11800 01b1 488D3D00 		leaq	_ZN12_GLOBAL__N_154TestCheckEqualsWithStringsWorksOnContentsNonConstConstD1Ev(%rip), %rdi
 11800      000000
 11801 01b8 488D0500 		leaq	16+_ZTVN12_GLOBAL__N_154TestCheckEqualsWithStringsWorksOnContentsNonConstConstE(%rip), %rax
 11801      000000
 11802 01bf 48890500 		movq	%rax, _ZN12_GLOBAL__N_162testCheckEqualsWithStringsWorksOnContentsNonConstConstInstanceE(%rip
 11802      000000
 11803 01c6 E8000000 		call	__cxa_atexit@PLT
 11803      00
 11804 01cb E8000000 		call	_ZN8UnitTest4Test11GetTestListEv@PLT
 11804      00
 11805 01d0 4C89FA   		movq	%r15, %rdx
 11806 01d3 488D3D00 		leaq	_ZN12_GLOBAL__N_155adderCheckEqualsWithStringsWorksOnContentsNonConstConstE(%rip), %rdi
 11806      000000
 11807 01da 4C8D3D00 		leaq	_ZN12_GLOBAL__N_162testCheckEqualsWithStringsWorksOnContentsConstNonConstInstanceE(%rip), %r1
 11807      000000
 11808 01e1 4889C6   		movq	%rax, %rsi
 11809 01e4 E8000000 		call	_ZN8UnitTest9ListAdderC1ERNS_8TestListEPNS_4TestE@PLT
 11809      00
 11810 01e9 4C89F1   		movq	%r14, %rcx
 11811 01ec 4C89EA   		movq	%r13, %rdx
 11812 01ef 4C89FF   		movq	%r15, %rdi
 11813 01f2 41B83800 		movl	$56, %r8d
 11813      0000
 11814 01f8 488D3500 		leaq	.LC140(%rip), %rsi
 11814      000000
 11815 01ff E8000000 		call	_ZN8UnitTest4TestC2EPKcS2_S2_i@PLT
 11815      00
 11816 0204 4C89E2   		movq	%r12, %rdx
 11817 0207 4C89FE   		movq	%r15, %rsi
 11818 020a 488D3D00 		leaq	_ZN12_GLOBAL__N_154TestCheckEqualsWithStringsWorksOnContentsConstNonConstD1Ev(%rip), %rdi
 11818      000000
 11819 0211 488D0500 		leaq	16+_ZTVN12_GLOBAL__N_154TestCheckEqualsWithStringsWorksOnContentsConstNonConstE(%rip), %rax
 11819      000000
 11820 0218 48890500 		movq	%rax, _ZN12_GLOBAL__N_162testCheckEqualsWithStringsWorksOnContentsConstNonConstInstanceE(%rip
 11820      000000
 11821 021f E8000000 		call	__cxa_atexit@PLT
 11821      00
 11822 0224 E8000000 		call	_ZN8UnitTest4Test11GetTestListEv@PLT
 11822      00
 11823 0229 4C89FA   		movq	%r15, %rdx
 11824 022c 488D3D00 		leaq	_ZN12_GLOBAL__N_155adderCheckEqualsWithStringsWorksOnContentsConstNonConstE(%rip), %rdi
 11824      000000
 11825 0233 4C8D3D00 		leaq	_ZN12_GLOBAL__N_161testCheckEqualsWithStringsWorksOnContentsWithALiteralInstanceE(%rip), %r15
 11825      000000
 11826 023a 4889C6   		movq	%rax, %rsi
 11827 023d E8000000 		call	_ZN8UnitTest9ListAdderC1ERNS_8TestListEPNS_4TestE@PLT
 11827      00
 11828 0242 4C89F1   		movq	%r14, %rcx
 11829 0245 4C89EA   		movq	%r13, %rdx
 11830 0248 4C89FF   		movq	%r15, %rdi
 11831 024b 41B84100 		movl	$65, %r8d
 11831      0000
 11832 0251 488D3500 		leaq	.LC141(%rip), %rsi
 11832      000000
 11833 0258 E8000000 		call	_ZN8UnitTest4TestC2EPKcS2_S2_i@PLT
 11833      00
 11834 025d 4C89E2   		movq	%r12, %rdx
 11835 0260 4C89FE   		movq	%r15, %rsi
 11836 0263 488D3D00 		leaq	_ZN12_GLOBAL__N_153TestCheckEqualsWithStringsWorksOnContentsWithALiteralD1Ev(%rip), %rdi
 11836      000000
 11837 026a 488D0500 		leaq	16+_ZTVN12_GLOBAL__N_153TestCheckEqualsWithStringsWorksOnContentsWithALiteralE(%rip), %rax
 11837      000000
 11838 0271 48890500 		movq	%rax, _ZN12_GLOBAL__N_161testCheckEqualsWithStringsWorksOnContentsWithALiteralInstanceE(%rip)
 11838      000000
 11839 0278 E8000000 		call	__cxa_atexit@PLT
 11839      00
 11840 027d E8000000 		call	_ZN8UnitTest4Test11GetTestListEv@PLT
 11840      00
 11841 0282 4C89FA   		movq	%r15, %rdx
 11842 0285 488D3D00 		leaq	_ZN12_GLOBAL__N_154adderCheckEqualsWithStringsWorksOnContentsWithALiteralE(%rip), %rdi
 11842      000000
 11843 028c 4C8D3D00 		leaq	_ZN12_GLOBAL__N_159testCheckEqualFailureIncludesCheckExpectedAndActualInstanceE(%rip), %r15
 11843      000000
 11844 0293 4889C6   		movq	%rax, %rsi
 11845 0296 E8000000 		call	_ZN8UnitTest9ListAdderC1ERNS_8TestListEPNS_4TestE@PLT
 11845      00
 11846 029b 4C89F1   		movq	%r14, %rcx
 11847 029e 4C89EA   		movq	%r13, %rdx
 11848 02a1 4C89FF   		movq	%r15, %rdi
 11849 02a4 41B84900 		movl	$73, %r8d
 11849      0000
 11850 02aa 488D3500 		leaq	.LC142(%rip), %rsi
 11850      000000
 11851 02b1 E8000000 		call	_ZN8UnitTest4TestC2EPKcS2_S2_i@PLT
 11851      00
 11852 02b6 4C89E2   		movq	%r12, %rdx
 11853 02b9 4C89FE   		movq	%r15, %rsi
 11854 02bc 488D3D00 		leaq	_ZN12_GLOBAL__N_151TestCheckEqualFailureIncludesCheckExpectedAndActualD1Ev(%rip), %rdi
 11854      000000
 11855 02c3 488D0500 		leaq	16+_ZTVN12_GLOBAL__N_151TestCheckEqualFailureIncludesCheckExpectedAndActualE(%rip), %rax
 11855      000000
 11856 02ca 48890500 		movq	%rax, _ZN12_GLOBAL__N_159testCheckEqualFailureIncludesCheckExpectedAndActualInstanceE(%rip)
 11856      000000
 11857 02d1 E8000000 		call	__cxa_atexit@PLT
 11857      00
 11858 02d6 E8000000 		call	_ZN8UnitTest4Test11GetTestListEv@PLT
 11858      00
 11859 02db 4C89FA   		movq	%r15, %rdx
 11860 02de 488D3D00 		leaq	_ZN12_GLOBAL__N_152adderCheckEqualFailureIncludesCheckExpectedAndActualE(%rip), %rdi
 11860      000000
 11861 02e5 4C8D3D00 		leaq	_ZN12_GLOBAL__N_144testCheckEqualFailureIncludesDetailsInstanceE(%rip), %r15
 11861      000000
 11862 02ec 4889C6   		movq	%rax, %rsi
 11863 02ef E8000000 		call	_ZN8UnitTest9ListAdderC1ERNS_8TestListEPNS_4TestE@PLT
 11863      00
 11864 02f4 4C89F1   		movq	%r14, %rcx
 11865 02f7 4C89EA   		movq	%r13, %rdx
 11866 02fa 4C89FF   		movq	%r15, %rdi
 11867 02fd 41B85500 		movl	$85, %r8d
 11867      0000
 11868 0303 488D3500 		leaq	.LC143(%rip), %rsi
 11868      000000
 11869 030a E8000000 		call	_ZN8UnitTest4TestC2EPKcS2_S2_i@PLT
 11869      00
 11870 030f 4C89E2   		movq	%r12, %rdx
 11871 0312 4C89FE   		movq	%r15, %rsi
 11872 0315 488D3D00 		leaq	_ZN12_GLOBAL__N_136TestCheckEqualFailureIncludesDetailsD1Ev(%rip), %rdi
 11872      000000
 11873 031c 488D0500 		leaq	16+_ZTVN12_GLOBAL__N_136TestCheckEqualFailureIncludesDetailsE(%rip), %rax
 11873      000000
 11874 0323 48890500 		movq	%rax, _ZN12_GLOBAL__N_144testCheckEqualFailureIncludesDetailsInstanceE(%rip)
 11874      000000
 11875 032a E8000000 		call	__cxa_atexit@PLT
 11875      00
 11876 032f E8000000 		call	_ZN8UnitTest4Test11GetTestListEv@PLT
 11876      00
 11877 0334 4C89FA   		movq	%r15, %rdx
 11878 0337 488D3D00 		leaq	_ZN12_GLOBAL__N_137adderCheckEqualFailureIncludesDetailsE(%rip), %rdi
 11878      000000
 11879 033e 4C8D3D00 		leaq	_ZN12_GLOBAL__N_126testCheckCloseTrueInstanceE(%rip), %r15
 11879      000000
 11880 0345 4889C6   		movq	%rax, %rsi
 11881 0348 E8000000 		call	_ZN8UnitTest9ListAdderC1ERNS_8TestListEPNS_4TestE@PLT
 11881      00
 11882 034d 4C89F1   		movq	%r14, %rcx
 11883 0350 4C89EA   		movq	%r13, %rdx
 11884 0353 4C89FF   		movq	%r15, %rdi
 11885 0356 41B86300 		movl	$99, %r8d
 11885      0000
 11886 035c 488D3500 		leaq	.LC144(%rip), %rsi
 11886      000000
 11887 0363 E8000000 		call	_ZN8UnitTest4TestC2EPKcS2_S2_i@PLT
 11887      00
 11888 0368 4C89E2   		movq	%r12, %rdx
 11889 036b 4C89FE   		movq	%r15, %rsi
 11890 036e 488D3D00 		leaq	_ZN12_GLOBAL__N_118TestCheckCloseTrueD1Ev(%rip), %rdi
 11890      000000
 11891 0375 488D0500 		leaq	16+_ZTVN12_GLOBAL__N_118TestCheckCloseTrueE(%rip), %rax
 11891      000000
 11892 037c 48890500 		movq	%rax, _ZN12_GLOBAL__N_126testCheckCloseTrueInstanceE(%rip)
 11892      000000
 11893 0383 E8000000 		call	__cxa_atexit@PLT
 11893      00
 11894 0388 E8000000 		call	_ZN8UnitTest4Test11GetTestListEv@PLT
 11894      00
 11895 038d 4C89FA   		movq	%r15, %rdx
 11896 0390 488D3D00 		leaq	_ZN12_GLOBAL__N_119adderCheckCloseTrueE(%rip), %rdi
 11896      000000
 11897 0397 4C8D3D00 		leaq	_ZN12_GLOBAL__N_127testCheckCloseFalseInstanceE(%rip), %r15
 11897      000000
 11898 039e 4889C6   		movq	%rax, %rsi
 11899 03a1 E8000000 		call	_ZN8UnitTest9ListAdderC1ERNS_8TestListEPNS_4TestE@PLT
 11899      00
 11900 03a6 4C89F1   		movq	%r14, %rcx
 11901 03a9 4C89EA   		movq	%r13, %rdx
 11902 03ac 4C89FF   		movq	%r15, %rdi
 11903 03af 41B86A00 		movl	$106, %r8d
 11903      0000
 11904 03b5 488D3500 		leaq	.LC145(%rip), %rsi
 11904      000000
 11905 03bc E8000000 		call	_ZN8UnitTest4TestC2EPKcS2_S2_i@PLT
 11905      00
 11906 03c1 4C89E2   		movq	%r12, %rdx
 11907 03c4 4C89FE   		movq	%r15, %rsi
 11908 03c7 488D3D00 		leaq	_ZN12_GLOBAL__N_119TestCheckCloseFalseD1Ev(%rip), %rdi
 11908      000000
 11909 03ce 488D0500 		leaq	16+_ZTVN12_GLOBAL__N_119TestCheckCloseFalseE(%rip), %rax
 11909      000000
 11910 03d5 48890500 		movq	%rax, _ZN12_GLOBAL__N_127testCheckCloseFalseInstanceE(%rip)
 11910      000000
 11911 03dc E8000000 		call	__cxa_atexit@PLT
 11911      00
 11912 03e1 E8000000 		call	_ZN8UnitTest4Test11GetTestListEv@PLT
 11912      00
 11913 03e6 4C89FA   		movq	%r15, %rdx
 11914 03e9 488D3D00 		leaq	_ZN12_GLOBAL__N_120adderCheckCloseFalseE(%rip), %rdi
 11914      000000
 11915 03f0 4C8D3D00 		leaq	_ZN12_GLOBAL__N_155testCheckCloseWithZeroEpsilonWorksForSameNumberInstanceE(%rip), %r15
 11915      000000
 11916 03f7 4889C6   		movq	%rax, %rsi
 11917 03fa E8000000 		call	_ZN8UnitTest9ListAdderC1ERNS_8TestListEPNS_4TestE@PLT
 11917      00
 11918 03ff 4C89F1   		movq	%r14, %rcx
 11919 0402 4C89EA   		movq	%r13, %rdx
 11920 0405 4C89FF   		movq	%r15, %rdi
 11921 0408 41B87100 		movl	$113, %r8d
 11921      0000
 11922 040e 488D3500 		leaq	.LC146(%rip), %rsi
 11922      000000
 11923 0415 E8000000 		call	_ZN8UnitTest4TestC2EPKcS2_S2_i@PLT
 11923      00
 11924 041a 4C89E2   		movq	%r12, %rdx
 11925 041d 4C89FE   		movq	%r15, %rsi
 11926 0420 488D3D00 		leaq	_ZN12_GLOBAL__N_147TestCheckCloseWithZeroEpsilonWorksForSameNumberD1Ev(%rip), %rdi
 11926      000000
 11927 0427 488D0500 		leaq	16+_ZTVN12_GLOBAL__N_147TestCheckCloseWithZeroEpsilonWorksForSameNumberE(%rip), %rax
 11927      000000
 11928 042e 48890500 		movq	%rax, _ZN12_GLOBAL__N_155testCheckCloseWithZeroEpsilonWorksForSameNumberInstanceE(%rip)
 11928      000000
 11929 0435 E8000000 		call	__cxa_atexit@PLT
 11929      00
 11930 043a E8000000 		call	_ZN8UnitTest4Test11GetTestListEv@PLT
 11930      00
 11931 043f 4C89FA   		movq	%r15, %rdx
 11932 0442 488D3D00 		leaq	_ZN12_GLOBAL__N_148adderCheckCloseWithZeroEpsilonWorksForSameNumberE(%rip), %rdi
 11932      000000
 11933 0449 4C8D3D00 		leaq	_ZN12_GLOBAL__N_134testCheckCloseWithNaNFailsInstanceE(%rip), %r15
 11933      000000
 11934 0450 4889C6   		movq	%rax, %rsi
 11935 0453 E8000000 		call	_ZN8UnitTest9ListAdderC1ERNS_8TestListEPNS_4TestE@PLT
 11935      00
 11936 0458 4C89F1   		movq	%r14, %rcx
 11937 045b 4C89EA   		movq	%r13, %rdx
 11938 045e 4C89FF   		movq	%r15, %rdi
 11939 0461 41B87800 		movl	$120, %r8d
 11939      0000
 11940 0467 488D3500 		leaq	.LC147(%rip), %rsi
 11940      000000
 11941 046e E8000000 		call	_ZN8UnitTest4TestC2EPKcS2_S2_i@PLT
 11941      00
 11942 0473 4C89E2   		movq	%r12, %rdx
 11943 0476 4C89FE   		movq	%r15, %rsi
 11944 0479 488D3D00 		leaq	_ZN12_GLOBAL__N_126TestCheckCloseWithNaNFailsD1Ev(%rip), %rdi
 11944      000000
 11945 0480 488D0500 		leaq	16+_ZTVN12_GLOBAL__N_126TestCheckCloseWithNaNFailsE(%rip), %rax
 11945      000000
 11946 0487 48890500 		movq	%rax, _ZN12_GLOBAL__N_134testCheckCloseWithNaNFailsInstanceE(%rip)
 11946      000000
 11947 048e E8000000 		call	__cxa_atexit@PLT
 11947      00
 11948 0493 E8000000 		call	_ZN8UnitTest4Test11GetTestListEv@PLT
 11948      00
 11949 0498 4C89FA   		movq	%r15, %rdx
 11950 049b 488D3D00 		leaq	_ZN12_GLOBAL__N_127adderCheckCloseWithNaNFailsE(%rip), %rdi
 11950      000000
 11951 04a2 4C8D3D00 		leaq	_ZN12_GLOBAL__N_147testCheckCloseWithNaNAgainstItselfFailsInstanceE(%rip), %r15
 11951      000000
 11952 04a9 4889C6   		movq	%rax, %rsi
 11953 04ac E8000000 		call	_ZN8UnitTest9ListAdderC1ERNS_8TestListEPNS_4TestE@PLT
 11953      00
 11954 04b1 4C89F1   		movq	%r14, %rcx
 11955 04b4 4C89EA   		movq	%r13, %rdx
 11956 04b7 4C89FF   		movq	%r15, %rdi
 11957 04ba 41B88500 		movl	$133, %r8d
 11957      0000
 11958 04c0 488D3500 		leaq	.LC148(%rip), %rsi
 11958      000000
 11959 04c7 E8000000 		call	_ZN8UnitTest4TestC2EPKcS2_S2_i@PLT
 11959      00
 11960 04cc 4C89E2   		movq	%r12, %rdx
 11961 04cf 4C89FE   		movq	%r15, %rsi
 11962 04d2 488D3D00 		leaq	_ZN12_GLOBAL__N_139TestCheckCloseWithNaNAgainstItselfFailsD1Ev(%rip), %rdi
 11962      000000
 11963 04d9 488D0500 		leaq	16+_ZTVN12_GLOBAL__N_139TestCheckCloseWithNaNAgainstItselfFailsE(%rip), %rax
 11963      000000
 11964 04e0 48890500 		movq	%rax, _ZN12_GLOBAL__N_147testCheckCloseWithNaNAgainstItselfFailsInstanceE(%rip)
 11964      000000
 11965 04e7 E8000000 		call	__cxa_atexit@PLT
 11965      00
 11966 04ec E8000000 		call	_ZN8UnitTest4Test11GetTestListEv@PLT
 11966      00
 11967 04f1 4C89FA   		movq	%r15, %rdx
 11968 04f4 488D3D00 		leaq	_ZN12_GLOBAL__N_140adderCheckCloseWithNaNAgainstItselfFailsE(%rip), %rdi
 11968      000000
 11969 04fb 4C8D3D00 		leaq	_ZN12_GLOBAL__N_159testCheckCloseFailureIncludesCheckExpectedAndActualInstanceE(%rip), %r15
 11969      000000
 11970 0502 4889C6   		movq	%rax, %rsi
 11971 0505 E8000000 		call	_ZN8UnitTest9ListAdderC1ERNS_8TestListEPNS_4TestE@PLT
 11971      00
 11972 050a 4C89F1   		movq	%r14, %rcx
 11973 050d 4C89EA   		movq	%r13, %rdx
 11974 0510 4C89FF   		movq	%r15, %rdi
 11975 0513 41B89200 		movl	$146, %r8d
 11975      0000
 11976 0519 488D3500 		leaq	.LC149(%rip), %rsi
 11976      000000
 11977 0520 E8000000 		call	_ZN8UnitTest4TestC2EPKcS2_S2_i@PLT
 11977      00
 11978 0525 4C89E2   		movq	%r12, %rdx
 11979 0528 4C89FE   		movq	%r15, %rsi
 11980 052b 488D3D00 		leaq	_ZN12_GLOBAL__N_151TestCheckCloseFailureIncludesCheckExpectedAndActualD1Ev(%rip), %rdi
 11980      000000
 11981 0532 488D0500 		leaq	16+_ZTVN12_GLOBAL__N_151TestCheckCloseFailureIncludesCheckExpectedAndActualE(%rip), %rax
 11981      000000
 11982 0539 48890500 		movq	%rax, _ZN12_GLOBAL__N_159testCheckCloseFailureIncludesCheckExpectedAndActualInstanceE(%rip)
 11982      000000
 11983 0540 E8000000 		call	__cxa_atexit@PLT
 11983      00
 11984 0545 E8000000 		call	_ZN8UnitTest4Test11GetTestListEv@PLT
 11984      00
 11985 054a 4C89FA   		movq	%r15, %rdx
 11986 054d 488D3D00 		leaq	_ZN12_GLOBAL__N_152adderCheckCloseFailureIncludesCheckExpectedAndActualE(%rip), %rdi
 11986      000000
 11987 0554 4C8D3D00 		leaq	_ZN12_GLOBAL__N_146testCheckCloseFailureIncludesToleranceInstanceE(%rip), %r15
 11987      000000
 11988 055b 4889C6   		movq	%rax, %rsi
 11989 055e E8000000 		call	_ZN8UnitTest9ListAdderC1ERNS_8TestListEPNS_4TestE@PLT
 11989      00
 11990 0563 4C89F1   		movq	%r14, %rcx
 11991 0566 4C89EA   		movq	%r13, %rdx
 11992 0569 4C89FF   		movq	%r15, %rdi
 11993 056c 41B89F00 		movl	$159, %r8d
 11993      0000
 11994 0572 488D3500 		leaq	.LC150(%rip), %rsi
 11994      000000
 11995 0579 E8000000 		call	_ZN8UnitTest4TestC2EPKcS2_S2_i@PLT
 11995      00
 11996 057e 4C89E2   		movq	%r12, %rdx
 11997 0581 4C89FE   		movq	%r15, %rsi
 11998 0584 488D3D00 		leaq	_ZN12_GLOBAL__N_138TestCheckCloseFailureIncludesToleranceD1Ev(%rip), %rdi
 11998      000000
 11999 058b 488D0500 		leaq	16+_ZTVN12_GLOBAL__N_138TestCheckCloseFailureIncludesToleranceE(%rip), %rax
 11999      000000
 12000 0592 48890500 		movq	%rax, _ZN12_GLOBAL__N_146testCheckCloseFailureIncludesToleranceInstanceE(%rip)
 12000      000000
 12001 0599 E8000000 		call	__cxa_atexit@PLT
 12001      00
 12002 059e E8000000 		call	_ZN8UnitTest4Test11GetTestListEv@PLT
 12002      00
 12003 05a3 4C89FA   		movq	%r15, %rdx
 12004 05a6 488D3D00 		leaq	_ZN12_GLOBAL__N_139adderCheckCloseFailureIncludesToleranceE(%rip), %rdi
 12004      000000
 12005 05ad 4C8D3D00 		leaq	_ZN12_GLOBAL__N_144testCheckCloseFailureIncludesDetailsInstanceE(%rip), %r15
 12005      000000
 12006 05b4 4889C6   		movq	%rax, %rsi
 12007 05b7 E8000000 		call	_ZN8UnitTest9ListAdderC1ERNS_8TestListEPNS_4TestE@PLT
 12007      00
 12008 05bc 4C89F1   		movq	%r14, %rcx
 12009 05bf 4C89EA   		movq	%r13, %rdx
 12010 05c2 4C89FF   		movq	%r15, %rdi
 12011 05c5 41B8A900 		movl	$169, %r8d
 12011      0000
 12012 05cb 488D3500 		leaq	.LC151(%rip), %rsi
 12012      000000
 12013 05d2 E8000000 		call	_ZN8UnitTest4TestC2EPKcS2_S2_i@PLT
 12013      00
 12014 05d7 4C89E2   		movq	%r12, %rdx
 12015 05da 4C89FE   		movq	%r15, %rsi
 12016 05dd 488D3D00 		leaq	_ZN12_GLOBAL__N_136TestCheckCloseFailureIncludesDetailsD1Ev(%rip), %rdi
 12016      000000
 12017 05e4 488D0500 		leaq	16+_ZTVN12_GLOBAL__N_136TestCheckCloseFailureIncludesDetailsE(%rip), %rax
 12017      000000
 12018 05eb 48890500 		movq	%rax, _ZN12_GLOBAL__N_144testCheckCloseFailureIncludesDetailsInstanceE(%rip)
 12018      000000
 12019 05f2 E8000000 		call	__cxa_atexit@PLT
 12019      00
 12020 05f7 E8000000 		call	_ZN8UnitTest4Test11GetTestListEv@PLT
 12020      00
 12021 05fc 4C89FA   		movq	%r15, %rdx
 12022 05ff 488D3D00 		leaq	_ZN12_GLOBAL__N_137adderCheckCloseFailureIncludesDetailsE(%rip), %rdi
 12022      000000
 12023 0606 4C8D3D00 		leaq	_ZN12_GLOBAL__N_131testCheckArrayEqualTrueInstanceE(%rip), %r15
 12023      000000
 12024 060d 4889C6   		movq	%rax, %rsi
 12025 0610 E8000000 		call	_ZN8UnitTest9ListAdderC1ERNS_8TestListEPNS_4TestE@PLT
 12025      00
 12026 0615 4C89F1   		movq	%r14, %rcx
 12027 0618 4C89EA   		movq	%r13, %rdx
 12028 061b 4C89FF   		movq	%r15, %rdi
 12029 061e 41B8B800 		movl	$184, %r8d
 12029      0000
 12030 0624 488D3500 		leaq	.LC152(%rip), %rsi
 12030      000000
 12031 062b E8000000 		call	_ZN8UnitTest4TestC2EPKcS2_S2_i@PLT
 12031      00
 12032 0630 4C89E2   		movq	%r12, %rdx
 12033 0633 4C89FE   		movq	%r15, %rsi
 12034 0636 488D3D00 		leaq	_ZN12_GLOBAL__N_123TestCheckArrayEqualTrueD1Ev(%rip), %rdi
 12034      000000
 12035 063d 488D0500 		leaq	16+_ZTVN12_GLOBAL__N_123TestCheckArrayEqualTrueE(%rip), %rax
 12035      000000
 12036 0644 48890500 		movq	%rax, _ZN12_GLOBAL__N_131testCheckArrayEqualTrueInstanceE(%rip)
 12036      000000
 12037 064b E8000000 		call	__cxa_atexit@PLT
 12037      00
 12038 0650 E8000000 		call	_ZN8UnitTest4Test11GetTestListEv@PLT
 12038      00
 12039 0655 4C89FA   		movq	%r15, %rdx
 12040 0658 488D3D00 		leaq	_ZN12_GLOBAL__N_124adderCheckArrayEqualTrueE(%rip), %rdi
 12040      000000
 12041 065f 4C8D3D00 		leaq	_ZN12_GLOBAL__N_132testCheckArrayEqualFalseInstanceE(%rip), %r15
 12041      000000
 12042 0666 4889C6   		movq	%rax, %rsi
 12043 0669 E8000000 		call	_ZN8UnitTest9ListAdderC1ERNS_8TestListEPNS_4TestE@PLT
 12043      00
 12044 066e 4C89F1   		movq	%r14, %rcx
 12045 0671 4C89EA   		movq	%r13, %rdx
 12046 0674 4C89FF   		movq	%r15, %rdi
 12047 0677 41B8C100 		movl	$193, %r8d
 12047      0000
 12048 067d 488D3500 		leaq	.LC153(%rip), %rsi
 12048      000000
 12049 0684 E8000000 		call	_ZN8UnitTest4TestC2EPKcS2_S2_i@PLT
 12049      00
 12050 0689 4C89E2   		movq	%r12, %rdx
 12051 068c 4C89FE   		movq	%r15, %rsi
 12052 068f 488D3D00 		leaq	_ZN12_GLOBAL__N_124TestCheckArrayEqualFalseD1Ev(%rip), %rdi
 12052      000000
 12053 0696 488D0500 		leaq	16+_ZTVN12_GLOBAL__N_124TestCheckArrayEqualFalseE(%rip), %rax
 12053      000000
 12054 069d 48890500 		movq	%rax, _ZN12_GLOBAL__N_132testCheckArrayEqualFalseInstanceE(%rip)
 12054      000000
 12055 06a4 E8000000 		call	__cxa_atexit@PLT
 12055      00
 12056 06a9 E8000000 		call	_ZN8UnitTest4Test11GetTestListEv@PLT
 12056      00
 12057 06ae 4C89FA   		movq	%r15, %rdx
 12058 06b1 488D3D00 		leaq	_ZN12_GLOBAL__N_125adderCheckArrayEqualFalseE(%rip), %rdi
 12058      000000
 12059 06b8 4C8D3D00 		leaq	_ZN12_GLOBAL__N_131testCheckArrayCloseTrueInstanceE(%rip), %r15
 12059      000000
 12060 06bf 4889C6   		movq	%rax, %rsi
 12061 06c2 E8000000 		call	_ZN8UnitTest9ListAdderC1ERNS_8TestListEPNS_4TestE@PLT
 12061      00
 12062 06c7 4C89F1   		movq	%r14, %rcx
 12063 06ca 4C89EA   		movq	%r13, %rdx
 12064 06cd 4C89FF   		movq	%r15, %rdi
 12065 06d0 41B8CB00 		movl	$203, %r8d
 12065      0000
 12066 06d6 488D3500 		leaq	.LC154(%rip), %rsi
 12066      000000
 12067 06dd E8000000 		call	_ZN8UnitTest4TestC2EPKcS2_S2_i@PLT
 12067      00
 12068 06e2 4C89E2   		movq	%r12, %rdx
 12069 06e5 4C89FE   		movq	%r15, %rsi
 12070 06e8 488D3D00 		leaq	_ZN12_GLOBAL__N_123TestCheckArrayCloseTrueD1Ev(%rip), %rdi
 12070      000000
 12071 06ef 488D0500 		leaq	16+_ZTVN12_GLOBAL__N_123TestCheckArrayCloseTrueE(%rip), %rax
 12071      000000
 12072 06f6 48890500 		movq	%rax, _ZN12_GLOBAL__N_131testCheckArrayCloseTrueInstanceE(%rip)
 12072      000000
 12073 06fd E8000000 		call	__cxa_atexit@PLT
 12073      00
 12074 0702 E8000000 		call	_ZN8UnitTest4Test11GetTestListEv@PLT
 12074      00
 12075 0707 4C89FA   		movq	%r15, %rdx
 12076 070a 488D3D00 		leaq	_ZN12_GLOBAL__N_124adderCheckArrayCloseTrueE(%rip), %rdi
 12076      000000
 12077 0711 4C8D3D00 		leaq	_ZN12_GLOBAL__N_132testCheckArrayCloseFalseInstanceE(%rip), %r15
 12077      000000
 12078 0718 4889C6   		movq	%rax, %rsi
 12079 071b E8000000 		call	_ZN8UnitTest9ListAdderC1ERNS_8TestListEPNS_4TestE@PLT
 12079      00
 12080 0720 4C89F1   		movq	%r14, %rcx
 12081 0723 4C89EA   		movq	%r13, %rdx
 12082 0726 4C89FF   		movq	%r15, %rdi
 12083 0729 41B8D500 		movl	$213, %r8d
 12083      0000
 12084 072f 488D3500 		leaq	.LC155(%rip), %rsi
 12084      000000
 12085 0736 E8000000 		call	_ZN8UnitTest4TestC2EPKcS2_S2_i@PLT
 12085      00
 12086 073b 4C89E2   		movq	%r12, %rdx
 12087 073e 4C89FE   		movq	%r15, %rsi
 12088 0741 488D3D00 		leaq	_ZN12_GLOBAL__N_124TestCheckArrayCloseFalseD1Ev(%rip), %rdi
 12088      000000
 12089 0748 488D0500 		leaq	16+_ZTVN12_GLOBAL__N_124TestCheckArrayCloseFalseE(%rip), %rax
 12089      000000
 12090 074f 48890500 		movq	%rax, _ZN12_GLOBAL__N_132testCheckArrayCloseFalseInstanceE(%rip)
 12090      000000
 12091 0756 E8000000 		call	__cxa_atexit@PLT
 12091      00
 12092 075b E8000000 		call	_ZN8UnitTest4Test11GetTestListEv@PLT
 12092      00
 12093 0760 4C89FA   		movq	%r15, %rdx
 12094 0763 488D3D00 		leaq	_ZN12_GLOBAL__N_125adderCheckArrayCloseFalseE(%rip), %rdi
 12094      000000
 12095 076a 4C8D3D00 		leaq	_ZN12_GLOBAL__N_149testCheckArrayCloseFailureIncludesDetailsInstanceE(%rip), %r15
 12095      000000
 12096 0771 4889C6   		movq	%rax, %rsi
 12097 0774 E8000000 		call	_ZN8UnitTest9ListAdderC1ERNS_8TestListEPNS_4TestE@PLT
 12097      00
 12098 0779 4C89F1   		movq	%r14, %rcx
 12099 077c 4C89EA   		movq	%r13, %rdx
 12100 077f 4C89FF   		movq	%r15, %rdi
 12101 0782 41B8DF00 		movl	$223, %r8d
 12101      0000
 12102 0788 488D3500 		leaq	.LC156(%rip), %rsi
 12102      000000
 12103 078f E8000000 		call	_ZN8UnitTest4TestC2EPKcS2_S2_i@PLT
 12103      00
 12104 0794 4C89E2   		movq	%r12, %rdx
 12105 0797 4C89FE   		movq	%r15, %rsi
 12106 079a 488D3D00 		leaq	_ZN12_GLOBAL__N_141TestCheckArrayCloseFailureIncludesDetailsD1Ev(%rip), %rdi
 12106      000000
 12107 07a1 488D0500 		leaq	16+_ZTVN12_GLOBAL__N_141TestCheckArrayCloseFailureIncludesDetailsE(%rip), %rax
 12107      000000
 12108 07a8 48890500 		movq	%rax, _ZN12_GLOBAL__N_149testCheckArrayCloseFailureIncludesDetailsInstanceE(%rip)
 12108      000000
 12109 07af E8000000 		call	__cxa_atexit@PLT
 12109      00
 12110 07b4 E8000000 		call	_ZN8UnitTest4Test11GetTestListEv@PLT
 12110      00
 12111 07b9 4C89FA   		movq	%r15, %rdx
 12112 07bc 488D3D00 		leaq	_ZN12_GLOBAL__N_142adderCheckArrayCloseFailureIncludesDetailsE(%rip), %rdi
 12112      000000
 12113 07c3 4C8D3D00 		leaq	_ZN12_GLOBAL__N_133testCheckArray2DCloseTrueInstanceE(%rip), %r15
 12113      000000
 12114 07ca 4889C6   		movq	%rax, %rsi
 12115 07cd E8000000 		call	_ZN8UnitTest9ListAdderC1ERNS_8TestListEPNS_4TestE@PLT
 12115      00
 12116 07d2 4C89F1   		movq	%r14, %rcx
 12117 07d5 4C89EA   		movq	%r13, %rdx
 12118 07d8 4C89FF   		movq	%r15, %rdi
 12119 07db 41B8F000 		movl	$240, %r8d
 12119      0000
 12120 07e1 488D3500 		leaq	.LC157(%rip), %rsi
 12120      000000
 12121 07e8 E8000000 		call	_ZN8UnitTest4TestC2EPKcS2_S2_i@PLT
 12121      00
 12122 07ed 4C89E2   		movq	%r12, %rdx
 12123 07f0 4C89FE   		movq	%r15, %rsi
 12124 07f3 488D3D00 		leaq	_ZN12_GLOBAL__N_125TestCheckArray2DCloseTrueD1Ev(%rip), %rdi
 12124      000000
 12125 07fa 488D0500 		leaq	16+_ZTVN12_GLOBAL__N_125TestCheckArray2DCloseTrueE(%rip), %rax
 12125      000000
 12126 0801 48890500 		movq	%rax, _ZN12_GLOBAL__N_133testCheckArray2DCloseTrueInstanceE(%rip)
 12126      000000
 12127 0808 E8000000 		call	__cxa_atexit@PLT
 12127      00
 12128 080d E8000000 		call	_ZN8UnitTest4Test11GetTestListEv@PLT
 12128      00
 12129 0812 4C89FA   		movq	%r15, %rdx
 12130 0815 488D3D00 		leaq	_ZN12_GLOBAL__N_126adderCheckArray2DCloseTrueE(%rip), %rdi
 12130      000000
 12131 081c 4C8D3D00 		leaq	_ZN12_GLOBAL__N_134testCheckArray2DCloseFalseInstanceE(%rip), %r15
 12131      000000
 12132 0823 4889C6   		movq	%rax, %rsi
 12133 0826 E8000000 		call	_ZN8UnitTest9ListAdderC1ERNS_8TestListEPNS_4TestE@PLT
 12133      00
 12134 082b 4C89F1   		movq	%r14, %rcx
 12135 082e 4C89EA   		movq	%r13, %rdx
 12136 0831 4C89FF   		movq	%r15, %rdi
 12137 0834 41B8FE00 		movl	$254, %r8d
 12137      0000
 12138 083a 488D3500 		leaq	.LC158(%rip), %rsi
 12138      000000
 12139 0841 E8000000 		call	_ZN8UnitTest4TestC2EPKcS2_S2_i@PLT
 12139      00
 12140 0846 4C89E2   		movq	%r12, %rdx
 12141 0849 4C89FE   		movq	%r15, %rsi
 12142 084c 488D3D00 		leaq	_ZN12_GLOBAL__N_126TestCheckArray2DCloseFalseD1Ev(%rip), %rdi
 12142      000000
 12143 0853 488D0500 		leaq	16+_ZTVN12_GLOBAL__N_126TestCheckArray2DCloseFalseE(%rip), %rax
 12143      000000
 12144 085a 48890500 		movq	%rax, _ZN12_GLOBAL__N_134testCheckArray2DCloseFalseInstanceE(%rip)
 12144      000000
 12145 0861 E8000000 		call	__cxa_atexit@PLT
 12145      00
 12146 0866 E8000000 		call	_ZN8UnitTest4Test11GetTestListEv@PLT
 12146      00
 12147 086b 4C89FA   		movq	%r15, %rdx
 12148 086e 488D3D00 		leaq	_ZN12_GLOBAL__N_127adderCheckArray2DCloseFalseE(%rip), %rdi
 12148      000000
 12149 0875 4C8D3D00 		leaq	_ZN12_GLOBAL__N_141testCheckCloseWithDoublesSucceedsInstanceE(%rip), %r15
 12149      000000
 12150 087c 4889C6   		movq	%rax, %rsi
 12151 087f E8000000 		call	_ZN8UnitTest9ListAdderC1ERNS_8TestListEPNS_4TestE@PLT
 12151      00
 12152 0884 4C89F1   		movq	%r14, %rcx
 12153 0887 4C89EA   		movq	%r13, %rdx
 12154 088a 4C89FF   		movq	%r15, %rdi
 12155 088d 41B80C01 		movl	$268, %r8d
 12155      0000
 12156 0893 488D3500 		leaq	.LC159(%rip), %rsi
 12156      000000
 12157 089a E8000000 		call	_ZN8UnitTest4TestC2EPKcS2_S2_i@PLT
 12157      00
 12158 089f 4C89E2   		movq	%r12, %rdx
 12159 08a2 4C89FE   		movq	%r15, %rsi
 12160 08a5 488D3D00 		leaq	_ZN12_GLOBAL__N_133TestCheckCloseWithDoublesSucceedsD1Ev(%rip), %rdi
 12160      000000
 12161 08ac 488D0500 		leaq	16+_ZTVN12_GLOBAL__N_133TestCheckCloseWithDoublesSucceedsE(%rip), %rax
 12161      000000
 12162 08b3 48890500 		movq	%rax, _ZN12_GLOBAL__N_141testCheckCloseWithDoublesSucceedsInstanceE(%rip)
 12162      000000
 12163 08ba E8000000 		call	__cxa_atexit@PLT
 12163      00
 12164 08bf E8000000 		call	_ZN8UnitTest4Test11GetTestListEv@PLT
 12164      00
 12165 08c4 4C89FA   		movq	%r15, %rdx
 12166 08c7 488D3D00 		leaq	_ZN12_GLOBAL__N_134adderCheckCloseWithDoublesSucceedsE(%rip), %rdi
 12166      000000
 12167 08ce 4889C6   		movq	%rax, %rsi
 12168 08d1 E8000000 		call	_ZN8UnitTest9ListAdderC1ERNS_8TestListEPNS_4TestE@PLT
 12168      00
 12169 08d6 4C89EA   		movq	%r13, %rdx
 12170 08d9 4C89F1   		movq	%r14, %rcx
 12171 08dc 4C8D2D00 		leaq	_ZN12_GLOBAL__N_151testCheckArray2DCloseFailureIncludesDetailsInstanceE(%rip), %r13
 12171      000000
 12172 08e3 41B81101 		movl	$273, %r8d
 12172      0000
 12173 08e9 4C89EF   		movq	%r13, %rdi
 12174 08ec 488D3500 		leaq	.LC160(%rip), %rsi
 12174      000000
 12175 08f3 E8000000 		call	_ZN8UnitTest4TestC2EPKcS2_S2_i@PLT
 12175      00
 12176 08f8 4C89E2   		movq	%r12, %rdx
 12177 08fb 4C89EE   		movq	%r13, %rsi
 12178 08fe 488D3D00 		leaq	_ZN12_GLOBAL__N_143TestCheckArray2DCloseFailureIncludesDetailsD1Ev(%rip), %rdi
 12178      000000
 12179 0905 488D0500 		leaq	16+_ZTVN12_GLOBAL__N_143TestCheckArray2DCloseFailureIncludesDetailsE(%rip), %rax
 12179      000000
 12180 090c 48890500 		movq	%rax, _ZN12_GLOBAL__N_151testCheckArray2DCloseFailureIncludesDetailsInstanceE(%rip)
 12180      000000
 12181 0913 E8000000 		call	__cxa_atexit@PLT
 12181      00
 12182 0918 E8000000 		call	_ZN8UnitTest4Test11GetTestListEv@PLT
 12182      00
 12183 091d 4883C408 		addq	$8, %rsp
 12184              		.cfi_def_cfa_offset 40
 12185 0921 4C89EA   		movq	%r13, %rdx
 12186 0924 488D3D00 		leaq	_ZN12_GLOBAL__N_144adderCheckArray2DCloseFailureIncludesDetailsE(%rip), %rdi
 12186      000000
 12187 092b 415C     		popq	%r12
 12188              		.cfi_def_cfa_offset 32
 12189 092d 4889C6   		movq	%rax, %rsi
 12190 0930 415D     		popq	%r13
 12191              		.cfi_def_cfa_offset 24
 12192 0932 415E     		popq	%r14
 12193              		.cfi_def_cfa_offset 16
 12194 0934 415F     		popq	%r15
 12195              		.cfi_def_cfa_offset 8
 12196 0936 E9000000 		jmp	_ZN8UnitTest9ListAdderC1ERNS_8TestListEPNS_4TestE@PLT
 12196      00
 12197              		.cfi_endproc
 12198              	.LFE1532:
 12200              		.section	.init_array,"aw"
 12201              		.align 8
 12202 0000 00000000 		.quad	_GLOBAL__sub_I_TestChecks.cpp
 12202      00000000 
 12203              		.weak	_ZTSN8UnitTest15MemoryOutStreamE
 12204              		.section	.rodata._ZTSN8UnitTest15MemoryOutStreamE,"aG",@progbits,_ZTSN8UnitTest15MemoryOutStreamE,
 12205              		.align 16
 12208              	_ZTSN8UnitTest15MemoryOutStreamE:
 12209 0000 4E38556E 		.string	"N8UnitTest15MemoryOutStreamE"
 12209      69745465 
 12209      73743135 
 12209      4D656D6F 
 12209      72794F75 
 12210              		.weak	_ZTIN8UnitTest15MemoryOutStreamE
 12211              		.section	.data.rel.ro._ZTIN8UnitTest15MemoryOutStreamE,"awG",@progbits,_ZTIN8UnitTest15MemoryOutSt
 12212              		.align 8
 12215              	_ZTIN8UnitTest15MemoryOutStreamE:
 12216 0000 00000000 		.quad	_ZTVN10__cxxabiv120__si_class_type_infoE+16
 12216      00000000 
 12217 0008 00000000 		.quad	_ZTSN8UnitTest15MemoryOutStreamE
 12217      00000000 
 12218 0010 00000000 		.quad	_ZTINSt7__cxx1119basic_ostringstreamIcSt11char_traitsIcESaIcEEE
 12218      00000000 
 12219              		.weak	_ZTS17RecordingReporter
 12220              		.section	.rodata._ZTS17RecordingReporter,"aG",@progbits,_ZTS17RecordingReporter,comdat
 12221              		.align 16
 12224              	_ZTS17RecordingReporter:
 12225 0000 31375265 		.string	"17RecordingReporter"
 12225      636F7264 
 12225      696E6752 
 12225      65706F72 
 12225      74657200 
 12226              		.weak	_ZTI17RecordingReporter
 12227              		.section	.data.rel.ro._ZTI17RecordingReporter,"awG",@progbits,_ZTI17RecordingReporter,comdat
 12228              		.align 8
 12231              	_ZTI17RecordingReporter:
 12232 0000 00000000 		.quad	_ZTVN10__cxxabiv120__si_class_type_infoE+16
 12232      00000000 
 12233 0008 00000000 		.quad	_ZTS17RecordingReporter
 12233      00000000 
 12234 0010 00000000 		.quad	_ZTIN8UnitTest12TestReporterE
 12234      00000000 
 12235              		.section	.data.rel.ro,"aw"
 12236              		.align 8
 12239              	_ZTIN12_GLOBAL__N_130TestCheckEqualWithUnsignedLongE:
 12240 0000 00000000 		.quad	_ZTVN10__cxxabiv120__si_class_type_infoE+16
 12240      00000000 
 12241 0008 00000000 		.quad	_ZTSN12_GLOBAL__N_130TestCheckEqualWithUnsignedLongE
 12241      00000000 
 12242 0010 00000000 		.quad	_ZTIN8UnitTest4TestE
 12242      00000000 
 12243              		.section	.rodata
 12244              		.align 32
 12247              	_ZTSN12_GLOBAL__N_130TestCheckEqualWithUnsignedLongE:
 12248 0000 2A4E3132 		.string	"*N12_GLOBAL__N_130TestCheckEqualWithUnsignedLongE"
 12248      5F474C4F 
 12248      42414C5F 
 12248      5F4E5F31 
 12248      33305465 
 12249              		.section	.data.rel.ro
 12250              		.align 8
 12253              	_ZTIN12_GLOBAL__N_149TestCheckEqualsWithStringsFailsOnDifferentStringsE:
 12254 0018 00000000 		.quad	_ZTVN10__cxxabiv120__si_class_type_infoE+16
 12254      00000000 
 12255 0020 00000000 		.quad	_ZTSN12_GLOBAL__N_149TestCheckEqualsWithStringsFailsOnDifferentStringsE
 12255      00000000 
 12256 0028 00000000 		.quad	_ZTIN8UnitTest4TestE
 12256      00000000 
 12257              		.section	.rodata
 12258 0032 00000000 		.align 32
 12258      00000000 
 12258      00000000 
 12258      0000
 12261              	_ZTSN12_GLOBAL__N_149TestCheckEqualsWithStringsFailsOnDifferentStringsE:
 12262 0040 2A4E3132 		.string	"*N12_GLOBAL__N_149TestCheckEqualsWithStringsFailsOnDifferentStringsE"
 12262      5F474C4F 
 12262      42414C5F 
 12262      5F4E5F31 
 12262      34395465 
 12263              		.section	.data.rel.ro
 12264              		.align 8
 12267              	_ZTIN12_GLOBAL__N_157TestCheckEqualsWithStringsWorksOnContentsNonConstNonConstE:
 12268 0030 00000000 		.quad	_ZTVN10__cxxabiv120__si_class_type_infoE+16
 12268      00000000 
 12269 0038 00000000 		.quad	_ZTSN12_GLOBAL__N_157TestCheckEqualsWithStringsWorksOnContentsNonConstNonConstE
 12269      00000000 
 12270 0040 00000000 		.quad	_ZTIN8UnitTest4TestE
 12270      00000000 
 12271              		.section	.rodata
 12272 0085 00000000 		.align 32
 12272      00000000 
 12272      00000000 
 12272      00000000 
 12272      00000000 
 12275              	_ZTSN12_GLOBAL__N_157TestCheckEqualsWithStringsWorksOnContentsNonConstNonConstE:
 12276 00a0 2A4E3132 		.string	"*N12_GLOBAL__N_157TestCheckEqualsWithStringsWorksOnContentsNonConstNonConstE"
 12276      5F474C4F 
 12276      42414C5F 
 12276      5F4E5F31 
 12276      35375465 
 12277              		.section	.data.rel.ro
 12278              		.align 8
 12281              	_ZTIN12_GLOBAL__N_151TestCheckEqualsWithStringsWorksOnContentsConstConstE:
 12282 0048 00000000 		.quad	_ZTVN10__cxxabiv120__si_class_type_infoE+16
 12282      00000000 
 12283 0050 00000000 		.quad	_ZTSN12_GLOBAL__N_151TestCheckEqualsWithStringsWorksOnContentsConstConstE
 12283      00000000 
 12284 0058 00000000 		.quad	_ZTIN8UnitTest4TestE
 12284      00000000 
 12285              		.section	.rodata
 12286 00ed 00000000 		.align 32
 12286      00000000 
 12286      00000000 
 12286      00000000 
 12286      000000
 12289              	_ZTSN12_GLOBAL__N_151TestCheckEqualsWithStringsWorksOnContentsConstConstE:
 12290 0100 2A4E3132 		.string	"*N12_GLOBAL__N_151TestCheckEqualsWithStringsWorksOnContentsConstConstE"
 12290      5F474C4F 
 12290      42414C5F 
 12290      5F4E5F31 
 12290      35315465 
 12291              		.section	.data.rel.ro
 12292              		.align 8
 12295              	_ZTIN12_GLOBAL__N_154TestCheckEqualsWithStringsWorksOnContentsNonConstConstE:
 12296 0060 00000000 		.quad	_ZTVN10__cxxabiv120__si_class_type_infoE+16
 12296      00000000 
 12297 0068 00000000 		.quad	_ZTSN12_GLOBAL__N_154TestCheckEqualsWithStringsWorksOnContentsNonConstConstE
 12297      00000000 
 12298 0070 00000000 		.quad	_ZTIN8UnitTest4TestE
 12298      00000000 
 12299              		.section	.rodata
 12300 0147 00000000 		.align 32
 12300      00000000 
 12300      00000000 
 12300      00000000 
 12300      00000000 
 12303              	_ZTSN12_GLOBAL__N_154TestCheckEqualsWithStringsWorksOnContentsNonConstConstE:
 12304 0160 2A4E3132 		.string	"*N12_GLOBAL__N_154TestCheckEqualsWithStringsWorksOnContentsNonConstConstE"
 12304      5F474C4F 
 12304      42414C5F 
 12304      5F4E5F31 
 12304      35345465 
 12305              		.section	.data.rel.ro
 12306              		.align 8
 12309              	_ZTIN12_GLOBAL__N_154TestCheckEqualsWithStringsWorksOnContentsConstNonConstE:
 12310 0078 00000000 		.quad	_ZTVN10__cxxabiv120__si_class_type_infoE+16
 12310      00000000 
 12311 0080 00000000 		.quad	_ZTSN12_GLOBAL__N_154TestCheckEqualsWithStringsWorksOnContentsConstNonConstE
 12311      00000000 
 12312 0088 00000000 		.quad	_ZTIN8UnitTest4TestE
 12312      00000000 
 12313              		.section	.rodata
 12314 01aa 00000000 		.align 32
 12314      00000000 
 12314      00000000 
 12314      00000000 
 12314      00000000 
 12317              	_ZTSN12_GLOBAL__N_154TestCheckEqualsWithStringsWorksOnContentsConstNonConstE:
 12318 01c0 2A4E3132 		.string	"*N12_GLOBAL__N_154TestCheckEqualsWithStringsWorksOnContentsConstNonConstE"
 12318      5F474C4F 
 12318      42414C5F 
 12318      5F4E5F31 
 12318      35345465 
 12319              		.section	.data.rel.ro
 12320              		.align 8
 12323              	_ZTIN12_GLOBAL__N_153TestCheckEqualsWithStringsWorksOnContentsWithALiteralE:
 12324 0090 00000000 		.quad	_ZTVN10__cxxabiv120__si_class_type_infoE+16
 12324      00000000 
 12325 0098 00000000 		.quad	_ZTSN12_GLOBAL__N_153TestCheckEqualsWithStringsWorksOnContentsWithALiteralE
 12325      00000000 
 12326 00a0 00000000 		.quad	_ZTIN8UnitTest4TestE
 12326      00000000 
 12327              		.section	.rodata
 12328 020a 00000000 		.align 32
 12328      00000000 
 12328      00000000 
 12328      00000000 
 12328      00000000 
 12331              	_ZTSN12_GLOBAL__N_153TestCheckEqualsWithStringsWorksOnContentsWithALiteralE:
 12332 0220 2A4E3132 		.string	"*N12_GLOBAL__N_153TestCheckEqualsWithStringsWorksOnContentsWithALiteralE"
 12332      5F474C4F 
 12332      42414C5F 
 12332      5F4E5F31 
 12332      35335465 
 12333              		.section	.data.rel.ro
 12334              		.align 8
 12337              	_ZTIN12_GLOBAL__N_151TestCheckEqualFailureIncludesCheckExpectedAndActualE:
 12338 00a8 00000000 		.quad	_ZTVN10__cxxabiv120__si_class_type_infoE+16
 12338      00000000 
 12339 00b0 00000000 		.quad	_ZTSN12_GLOBAL__N_151TestCheckEqualFailureIncludesCheckExpectedAndActualE
 12339      00000000 
 12340 00b8 00000000 		.quad	_ZTIN8UnitTest4TestE
 12340      00000000 
 12341              		.section	.rodata
 12342 0269 00000000 		.align 32
 12342      00000000 
 12342      00000000 
 12342      00000000 
 12342      00000000 
 12345              	_ZTSN12_GLOBAL__N_151TestCheckEqualFailureIncludesCheckExpectedAndActualE:
 12346 0280 2A4E3132 		.string	"*N12_GLOBAL__N_151TestCheckEqualFailureIncludesCheckExpectedAndActualE"
 12346      5F474C4F 
 12346      42414C5F 
 12346      5F4E5F31 
 12346      35315465 
 12347              		.section	.data.rel.ro
 12348              		.align 8
 12351              	_ZTIN12_GLOBAL__N_136TestCheckEqualFailureIncludesDetailsE:
 12352 00c0 00000000 		.quad	_ZTVN10__cxxabiv120__si_class_type_infoE+16
 12352      00000000 
 12353 00c8 00000000 		.quad	_ZTSN12_GLOBAL__N_136TestCheckEqualFailureIncludesDetailsE
 12353      00000000 
 12354 00d0 00000000 		.quad	_ZTIN8UnitTest4TestE
 12354      00000000 
 12355              		.section	.rodata
 12356 02c7 00000000 		.align 32
 12356      00000000 
 12356      00000000 
 12356      00000000 
 12356      00000000 
 12359              	_ZTSN12_GLOBAL__N_136TestCheckEqualFailureIncludesDetailsE:
 12360 02e0 2A4E3132 		.string	"*N12_GLOBAL__N_136TestCheckEqualFailureIncludesDetailsE"
 12360      5F474C4F 
 12360      42414C5F 
 12360      5F4E5F31 
 12360      33365465 
 12361              		.section	.data.rel.ro
 12362              		.align 8
 12365              	_ZTIN12_GLOBAL__N_118TestCheckCloseTrueE:
 12366 00d8 00000000 		.quad	_ZTVN10__cxxabiv120__si_class_type_infoE+16
 12366      00000000 
 12367 00e0 00000000 		.quad	_ZTSN12_GLOBAL__N_118TestCheckCloseTrueE
 12367      00000000 
 12368 00e8 00000000 		.quad	_ZTIN8UnitTest4TestE
 12368      00000000 
 12369              		.section	.rodata
 12370 0318 00000000 		.align 32
 12370      00000000 
 12373              	_ZTSN12_GLOBAL__N_118TestCheckCloseTrueE:
 12374 0320 2A4E3132 		.string	"*N12_GLOBAL__N_118TestCheckCloseTrueE"
 12374      5F474C4F 
 12374      42414C5F 
 12374      5F4E5F31 
 12374      31385465 
 12375              		.section	.data.rel.ro
 12376              		.align 8
 12379              	_ZTIN12_GLOBAL__N_119TestCheckCloseFalseE:
 12380 00f0 00000000 		.quad	_ZTVN10__cxxabiv120__si_class_type_infoE+16
 12380      00000000 
 12381 00f8 00000000 		.quad	_ZTSN12_GLOBAL__N_119TestCheckCloseFalseE
 12381      00000000 
 12382 0100 00000000 		.quad	_ZTIN8UnitTest4TestE
 12382      00000000 
 12383              		.section	.rodata
 12384 0346 00000000 		.align 32
 12384      00000000 
 12384      00000000 
 12384      00000000 
 12384      00000000 
 12387              	_ZTSN12_GLOBAL__N_119TestCheckCloseFalseE:
 12388 0360 2A4E3132 		.string	"*N12_GLOBAL__N_119TestCheckCloseFalseE"
 12388      5F474C4F 
 12388      42414C5F 
 12388      5F4E5F31 
 12388      31395465 
 12389              		.section	.data.rel.ro
 12390              		.align 8
 12393              	_ZTIN12_GLOBAL__N_147TestCheckCloseWithZeroEpsilonWorksForSameNumberE:
 12394 0108 00000000 		.quad	_ZTVN10__cxxabiv120__si_class_type_infoE+16
 12394      00000000 
 12395 0110 00000000 		.quad	_ZTSN12_GLOBAL__N_147TestCheckCloseWithZeroEpsilonWorksForSameNumberE
 12395      00000000 
 12396 0118 00000000 		.quad	_ZTIN8UnitTest4TestE
 12396      00000000 
 12397              		.section	.rodata
 12398 0387 00000000 		.align 32
 12398      00000000 
 12398      00000000 
 12398      00000000 
 12398      00000000 
 12401              	_ZTSN12_GLOBAL__N_147TestCheckCloseWithZeroEpsilonWorksForSameNumberE:
 12402 03a0 2A4E3132 		.string	"*N12_GLOBAL__N_147TestCheckCloseWithZeroEpsilonWorksForSameNumberE"
 12402      5F474C4F 
 12402      42414C5F 
 12402      5F4E5F31 
 12402      34375465 
 12403              		.section	.data.rel.ro
 12404              		.align 8
 12407              	_ZTIN12_GLOBAL__N_126TestCheckCloseWithNaNFailsE:
 12408 0120 00000000 		.quad	_ZTVN10__cxxabiv120__si_class_type_infoE+16
 12408      00000000 
 12409 0128 00000000 		.quad	_ZTSN12_GLOBAL__N_126TestCheckCloseWithNaNFailsE
 12409      00000000 
 12410 0130 00000000 		.quad	_ZTIN8UnitTest4TestE
 12410      00000000 
 12411              		.section	.rodata
 12412 03e3 00000000 		.align 32
 12412      00000000 
 12412      00000000 
 12412      00000000 
 12412      00000000 
 12415              	_ZTSN12_GLOBAL__N_126TestCheckCloseWithNaNFailsE:
 12416 0400 2A4E3132 		.string	"*N12_GLOBAL__N_126TestCheckCloseWithNaNFailsE"
 12416      5F474C4F 
 12416      42414C5F 
 12416      5F4E5F31 
 12416      32365465 
 12417              		.section	.data.rel.ro
 12418              		.align 8
 12421              	_ZTIN12_GLOBAL__N_139TestCheckCloseWithNaNAgainstItselfFailsE:
 12422 0138 00000000 		.quad	_ZTVN10__cxxabiv120__si_class_type_infoE+16
 12422      00000000 
 12423 0140 00000000 		.quad	_ZTSN12_GLOBAL__N_139TestCheckCloseWithNaNAgainstItselfFailsE
 12423      00000000 
 12424 0148 00000000 		.quad	_ZTIN8UnitTest4TestE
 12424      00000000 
 12425              		.section	.rodata
 12426 042e 00000000 		.align 32
 12426      00000000 
 12426      00000000 
 12426      00000000 
 12426      0000
 12429              	_ZTSN12_GLOBAL__N_139TestCheckCloseWithNaNAgainstItselfFailsE:
 12430 0440 2A4E3132 		.string	"*N12_GLOBAL__N_139TestCheckCloseWithNaNAgainstItselfFailsE"
 12430      5F474C4F 
 12430      42414C5F 
 12430      5F4E5F31 
 12430      33395465 
 12431              		.section	.data.rel.ro
 12432              		.align 8
 12435              	_ZTIN12_GLOBAL__N_151TestCheckCloseFailureIncludesCheckExpectedAndActualE:
 12436 0150 00000000 		.quad	_ZTVN10__cxxabiv120__si_class_type_infoE+16
 12436      00000000 
 12437 0158 00000000 		.quad	_ZTSN12_GLOBAL__N_151TestCheckCloseFailureIncludesCheckExpectedAndActualE
 12437      00000000 
 12438 0160 00000000 		.quad	_ZTIN8UnitTest4TestE
 12438      00000000 
 12439              		.section	.rodata
 12440 047b 00000000 		.align 32
 12440      00
 12443              	_ZTSN12_GLOBAL__N_151TestCheckCloseFailureIncludesCheckExpectedAndActualE:
 12444 0480 2A4E3132 		.string	"*N12_GLOBAL__N_151TestCheckCloseFailureIncludesCheckExpectedAndActualE"
 12444      5F474C4F 
 12444      42414C5F 
 12444      5F4E5F31 
 12444      35315465 
 12445              		.section	.data.rel.ro
 12446              		.align 8
 12449              	_ZTIN12_GLOBAL__N_138TestCheckCloseFailureIncludesToleranceE:
 12450 0168 00000000 		.quad	_ZTVN10__cxxabiv120__si_class_type_infoE+16
 12450      00000000 
 12451 0170 00000000 		.quad	_ZTSN12_GLOBAL__N_138TestCheckCloseFailureIncludesToleranceE
 12451      00000000 
 12452 0178 00000000 		.quad	_ZTIN8UnitTest4TestE
 12452      00000000 
 12453              		.section	.rodata
 12454 04c7 00000000 		.align 32
 12454      00000000 
 12454      00000000 
 12454      00000000 
 12454      00000000 
 12457              	_ZTSN12_GLOBAL__N_138TestCheckCloseFailureIncludesToleranceE:
 12458 04e0 2A4E3132 		.string	"*N12_GLOBAL__N_138TestCheckCloseFailureIncludesToleranceE"
 12458      5F474C4F 
 12458      42414C5F 
 12458      5F4E5F31 
 12458      33385465 
 12459              		.section	.data.rel.ro
 12460              		.align 8
 12463              	_ZTIN12_GLOBAL__N_136TestCheckCloseFailureIncludesDetailsE:
 12464 0180 00000000 		.quad	_ZTVN10__cxxabiv120__si_class_type_infoE+16
 12464      00000000 
 12465 0188 00000000 		.quad	_ZTSN12_GLOBAL__N_136TestCheckCloseFailureIncludesDetailsE
 12465      00000000 
 12466 0190 00000000 		.quad	_ZTIN8UnitTest4TestE
 12466      00000000 
 12467              		.section	.rodata
 12468 051a 00000000 		.align 32
 12468      0000
 12471              	_ZTSN12_GLOBAL__N_136TestCheckCloseFailureIncludesDetailsE:
 12472 0520 2A4E3132 		.string	"*N12_GLOBAL__N_136TestCheckCloseFailureIncludesDetailsE"
 12472      5F474C4F 
 12472      42414C5F 
 12472      5F4E5F31 
 12472      33365465 
 12473              		.section	.data.rel.ro
 12474              		.align 8
 12477              	_ZTIN12_GLOBAL__N_123TestCheckArrayEqualTrueE:
 12478 0198 00000000 		.quad	_ZTVN10__cxxabiv120__si_class_type_infoE+16
 12478      00000000 
 12479 01a0 00000000 		.quad	_ZTSN12_GLOBAL__N_123TestCheckArrayEqualTrueE
 12479      00000000 
 12480 01a8 00000000 		.quad	_ZTIN8UnitTest4TestE
 12480      00000000 
 12481              		.section	.rodata
 12482 0558 00000000 		.align 32
 12482      00000000 
 12485              	_ZTSN12_GLOBAL__N_123TestCheckArrayEqualTrueE:
 12486 0560 2A4E3132 		.string	"*N12_GLOBAL__N_123TestCheckArrayEqualTrueE"
 12486      5F474C4F 
 12486      42414C5F 
 12486      5F4E5F31 
 12486      32335465 
 12487              		.section	.data.rel.ro
 12488              		.align 8
 12491              	_ZTIN12_GLOBAL__N_124TestCheckArrayEqualFalseE:
 12492 01b0 00000000 		.quad	_ZTVN10__cxxabiv120__si_class_type_infoE+16
 12492      00000000 
 12493 01b8 00000000 		.quad	_ZTSN12_GLOBAL__N_124TestCheckArrayEqualFalseE
 12493      00000000 
 12494 01c0 00000000 		.quad	_ZTIN8UnitTest4TestE
 12494      00000000 
 12495              		.section	.rodata
 12496 058b 00000000 		.align 32
 12496      00000000 
 12496      00000000 
 12496      00000000 
 12496      00000000 
 12499              	_ZTSN12_GLOBAL__N_124TestCheckArrayEqualFalseE:
 12500 05a0 2A4E3132 		.string	"*N12_GLOBAL__N_124TestCheckArrayEqualFalseE"
 12500      5F474C4F 
 12500      42414C5F 
 12500      5F4E5F31 
 12500      32345465 
 12501              		.section	.data.rel.ro
 12502              		.align 8
 12505              	_ZTIN12_GLOBAL__N_123TestCheckArrayCloseTrueE:
 12506 01c8 00000000 		.quad	_ZTVN10__cxxabiv120__si_class_type_infoE+16
 12506      00000000 
 12507 01d0 00000000 		.quad	_ZTSN12_GLOBAL__N_123TestCheckArrayCloseTrueE
 12507      00000000 
 12508 01d8 00000000 		.quad	_ZTIN8UnitTest4TestE
 12508      00000000 
 12509              		.section	.rodata
 12510 05cc 00000000 		.align 32
 12510      00000000 
 12510      00000000 
 12510      00000000 
 12510      00000000 
 12513              	_ZTSN12_GLOBAL__N_123TestCheckArrayCloseTrueE:
 12514 05e0 2A4E3132 		.string	"*N12_GLOBAL__N_123TestCheckArrayCloseTrueE"
 12514      5F474C4F 
 12514      42414C5F 
 12514      5F4E5F31 
 12514      32335465 
 12515              		.section	.data.rel.ro
 12516              		.align 8
 12519              	_ZTIN12_GLOBAL__N_124TestCheckArrayCloseFalseE:
 12520 01e0 00000000 		.quad	_ZTVN10__cxxabiv120__si_class_type_infoE+16
 12520      00000000 
 12521 01e8 00000000 		.quad	_ZTSN12_GLOBAL__N_124TestCheckArrayCloseFalseE
 12521      00000000 
 12522 01f0 00000000 		.quad	_ZTIN8UnitTest4TestE
 12522      00000000 
 12523              		.section	.rodata
 12524 060b 00000000 		.align 32
 12524      00000000 
 12524      00000000 
 12524      00000000 
 12524      00000000 
 12527              	_ZTSN12_GLOBAL__N_124TestCheckArrayCloseFalseE:
 12528 0620 2A4E3132 		.string	"*N12_GLOBAL__N_124TestCheckArrayCloseFalseE"
 12528      5F474C4F 
 12528      42414C5F 
 12528      5F4E5F31 
 12528      32345465 
 12529              		.section	.data.rel.ro
 12530              		.align 8
 12533              	_ZTIN12_GLOBAL__N_141TestCheckArrayCloseFailureIncludesDetailsE:
 12534 01f8 00000000 		.quad	_ZTVN10__cxxabiv120__si_class_type_infoE+16
 12534      00000000 
 12535 0200 00000000 		.quad	_ZTSN12_GLOBAL__N_141TestCheckArrayCloseFailureIncludesDetailsE
 12535      00000000 
 12536 0208 00000000 		.quad	_ZTIN8UnitTest4TestE
 12536      00000000 
 12537              		.section	.rodata
 12538 064c 00000000 		.align 32
 12538      00000000 
 12538      00000000 
 12538      00000000 
 12538      00000000 
 12541              	_ZTSN12_GLOBAL__N_141TestCheckArrayCloseFailureIncludesDetailsE:
 12542 0660 2A4E3132 		.string	"*N12_GLOBAL__N_141TestCheckArrayCloseFailureIncludesDetailsE"
 12542      5F474C4F 
 12542      42414C5F 
 12542      5F4E5F31 
 12542      34315465 
 12543              		.section	.data.rel.ro
 12544              		.align 8
 12547              	_ZTIN12_GLOBAL__N_125TestCheckArray2DCloseTrueE:
 12548 0210 00000000 		.quad	_ZTVN10__cxxabiv120__si_class_type_infoE+16
 12548      00000000 
 12549 0218 00000000 		.quad	_ZTSN12_GLOBAL__N_125TestCheckArray2DCloseTrueE
 12549      00000000 
 12550 0220 00000000 		.quad	_ZTIN8UnitTest4TestE
 12550      00000000 
 12551              		.section	.rodata
 12552 069d 000000   		.align 32
 12555              	_ZTSN12_GLOBAL__N_125TestCheckArray2DCloseTrueE:
 12556 06a0 2A4E3132 		.string	"*N12_GLOBAL__N_125TestCheckArray2DCloseTrueE"
 12556      5F474C4F 
 12556      42414C5F 
 12556      5F4E5F31 
 12556      32355465 
 12557              		.section	.data.rel.ro
 12558              		.align 8
 12561              	_ZTIN12_GLOBAL__N_126TestCheckArray2DCloseFalseE:
 12562 0228 00000000 		.quad	_ZTVN10__cxxabiv120__si_class_type_infoE+16
 12562      00000000 
 12563 0230 00000000 		.quad	_ZTSN12_GLOBAL__N_126TestCheckArray2DCloseFalseE
 12563      00000000 
 12564 0238 00000000 		.quad	_ZTIN8UnitTest4TestE
 12564      00000000 
 12565              		.section	.rodata
 12566 06cd 00000000 		.align 32
 12566      00000000 
 12566      00000000 
 12566      00000000 
 12566      000000
 12569              	_ZTSN12_GLOBAL__N_126TestCheckArray2DCloseFalseE:
 12570 06e0 2A4E3132 		.string	"*N12_GLOBAL__N_126TestCheckArray2DCloseFalseE"
 12570      5F474C4F 
 12570      42414C5F 
 12570      5F4E5F31 
 12570      32365465 
 12571              		.section	.data.rel.ro
 12572              		.align 8
 12575              	_ZTIN12_GLOBAL__N_133TestCheckCloseWithDoublesSucceedsE:
 12576 0240 00000000 		.quad	_ZTVN10__cxxabiv120__si_class_type_infoE+16
 12576      00000000 
 12577 0248 00000000 		.quad	_ZTSN12_GLOBAL__N_133TestCheckCloseWithDoublesSucceedsE
 12577      00000000 
 12578 0250 00000000 		.quad	_ZTIN8UnitTest4TestE
 12578      00000000 
 12579              		.section	.rodata
 12580 070e 00000000 		.align 32
 12580      00000000 
 12580      00000000 
 12580      00000000 
 12580      0000
 12583              	_ZTSN12_GLOBAL__N_133TestCheckCloseWithDoublesSucceedsE:
 12584 0720 2A4E3132 		.string	"*N12_GLOBAL__N_133TestCheckCloseWithDoublesSucceedsE"
 12584      5F474C4F 
 12584      42414C5F 
 12584      5F4E5F31 
 12584      33335465 
 12585              		.section	.data.rel.ro
 12586              		.align 8
 12589              	_ZTIN12_GLOBAL__N_143TestCheckArray2DCloseFailureIncludesDetailsE:
 12590 0258 00000000 		.quad	_ZTVN10__cxxabiv120__si_class_type_infoE+16
 12590      00000000 
 12591 0260 00000000 		.quad	_ZTSN12_GLOBAL__N_143TestCheckArray2DCloseFailureIncludesDetailsE
 12591      00000000 
 12592 0268 00000000 		.quad	_ZTIN8UnitTest4TestE
 12592      00000000 
 12593              		.section	.rodata
 12594 0755 00000000 		.align 32
 12594      00000000 
 12594      000000
 12597              	_ZTSN12_GLOBAL__N_143TestCheckArray2DCloseFailureIncludesDetailsE:
 12598 0760 2A4E3132 		.string	"*N12_GLOBAL__N_143TestCheckArray2DCloseFailureIncludesDetailsE"
 12598      5F474C4F 
 12598      42414C5F 
 12598      5F4E5F31 
 12598      34335465 
 12599              		.hidden	_ZTCN8UnitTest15MemoryOutStreamE0_So
 12600              		.weak	_ZTCN8UnitTest15MemoryOutStreamE0_So
 12601              		.section	.data.rel.ro._ZTCN8UnitTest15MemoryOutStreamE0_So,"awG",@progbits,_ZTVN8UnitTest15MemoryO
 12602              		.align 8
 12605              	_ZTCN8UnitTest15MemoryOutStreamE0_So:
 12606 0000 90000000 		.quad	144
 12606      00000000 
 12607 0008 00000000 		.quad	0
 12607      00000000 
 12608 0010 00000000 		.quad	_ZTISo
 12608      00000000 
 12609 0018 00000000 		.quad	0
 12609      00000000 
 12610 0020 00000000 		.quad	0
 12610      00000000 
 12611 0028 70FFFFFF 		.quad	-144
 12611      FFFFFFFF 
 12612 0030 70FFFFFF 		.quad	-144
 12612      FFFFFFFF 
 12613 0038 00000000 		.quad	_ZTISo
 12613      00000000 
 12614 0040 00000000 		.quad	0
 12614      00000000 
 12615 0048 00000000 		.quad	0
 12615      00000000 
 12616              		.hidden	_ZTCN8UnitTest15MemoryOutStreamE0_NSt7__cxx1119basic_ostringstreamIcSt11char_traitsIcESaIc
 12617              		.weak	_ZTCN8UnitTest15MemoryOutStreamE0_NSt7__cxx1119basic_ostringstreamIcSt11char_traitsIcESaIcEE
 12618              		.section	.data.rel.ro._ZTCN8UnitTest15MemoryOutStreamE0_NSt7__cxx1119basic_ostringstreamIcSt11char
 12619              		.align 8
 12622              	_ZTCN8UnitTest15MemoryOutStreamE0_NSt7__cxx1119basic_ostringstreamIcSt11char_traitsIcESaIcEEE:
 12623 0000 90000000 		.quad	144
 12623      00000000 
 12624 0008 00000000 		.quad	0
 12624      00000000 
 12625 0010 00000000 		.quad	_ZTINSt7__cxx1119basic_ostringstreamIcSt11char_traitsIcESaIcEEE
 12625      00000000 
 12626 0018 00000000 		.quad	0
 12626      00000000 
 12627 0020 00000000 		.quad	0
 12627      00000000 
 12628 0028 70FFFFFF 		.quad	-144
 12628      FFFFFFFF 
 12629 0030 70FFFFFF 		.quad	-144
 12629      FFFFFFFF 
 12630 0038 00000000 		.quad	_ZTINSt7__cxx1119basic_ostringstreamIcSt11char_traitsIcESaIcEEE
 12630      00000000 
 12631 0040 00000000 		.quad	0
 12631      00000000 
 12632 0048 00000000 		.quad	0
 12632      00000000 
 12633              		.weak	_ZTTN8UnitTest15MemoryOutStreamE
 12634              		.section	.data.rel.ro.local._ZTTN8UnitTest15MemoryOutStreamE,"awG",@progbits,_ZTVN8UnitTest15Memor
 12635              		.align 8
 12638              	_ZTTN8UnitTest15MemoryOutStreamE:
 12639 0000 00000000 		.quad	_ZTVN8UnitTest15MemoryOutStreamE+24
 12639      00000000 
 12640 0008 00000000 		.quad	_ZTCN8UnitTest15MemoryOutStreamE0_NSt7__cxx1119basic_ostringstreamIcSt11char_traitsIcESaIcEE
 12640      00000000 
 12641 0010 00000000 		.quad	_ZTCN8UnitTest15MemoryOutStreamE0_So+24
 12641      00000000 
 12642 0018 00000000 		.quad	_ZTCN8UnitTest15MemoryOutStreamE0_So+64
 12642      00000000 
 12643 0020 00000000 		.quad	_ZTCN8UnitTest15MemoryOutStreamE0_NSt7__cxx1119basic_ostringstreamIcSt11char_traitsIcESaIcEE
 12643      00000000 
 12644 0028 00000000 		.quad	_ZTVN8UnitTest15MemoryOutStreamE+64
 12644      00000000 
 12645              		.weak	_ZTVN8UnitTest15MemoryOutStreamE
 12646              		.section	.data.rel.ro.local._ZTVN8UnitTest15MemoryOutStreamE,"awG",@progbits,_ZTVN8UnitTest15Memor
 12647              		.align 8
 12650              	_ZTVN8UnitTest15MemoryOutStreamE:
 12651 0000 90000000 		.quad	144
 12651      00000000 
 12652 0008 00000000 		.quad	0
 12652      00000000 
 12653 0010 00000000 		.quad	_ZTIN8UnitTest15MemoryOutStreamE
 12653      00000000 
 12654 0018 00000000 		.quad	_ZN8UnitTest15MemoryOutStreamD1Ev
 12654      00000000 
 12655 0020 00000000 		.quad	_ZN8UnitTest15MemoryOutStreamD0Ev
 12655      00000000 
 12656 0028 70FFFFFF 		.quad	-144
 12656      FFFFFFFF 
 12657 0030 70FFFFFF 		.quad	-144
 12657      FFFFFFFF 
 12658 0038 00000000 		.quad	_ZTIN8UnitTest15MemoryOutStreamE
 12658      00000000 
 12659 0040 00000000 		.quad	_ZTv0_n24_N8UnitTest15MemoryOutStreamD1Ev
 12659      00000000 
 12660 0048 00000000 		.quad	_ZTv0_n24_N8UnitTest15MemoryOutStreamD0Ev
 12660      00000000 
 12661              		.weak	_ZTV17RecordingReporter
 12662              		.section	.data.rel.ro.local._ZTV17RecordingReporter,"awG",@progbits,_ZTV17RecordingReporter,comdat
 12663              		.align 8
 12666              	_ZTV17RecordingReporter:
 12667 0000 00000000 		.quad	0
 12667      00000000 
 12668 0008 00000000 		.quad	_ZTI17RecordingReporter
 12668      00000000 
 12669 0010 00000000 		.quad	_ZN17RecordingReporterD1Ev
 12669      00000000 
 12670 0018 00000000 		.quad	_ZN17RecordingReporterD0Ev
 12670      00000000 
 12671 0020 00000000 		.quad	_ZN17RecordingReporter15ReportTestStartERKN8UnitTest11TestDetailsE
 12671      00000000 
 12672 0028 00000000 		.quad	_ZN17RecordingReporter13ReportFailureERKN8UnitTest11TestDetailsEPKc
 12672      00000000 
 12673 0030 00000000 		.quad	_ZN17RecordingReporter16ReportTestFinishERKN8UnitTest11TestDetailsEf
 12673      00000000 
 12674 0038 00000000 		.quad	_ZN17RecordingReporter13ReportSummaryEiiif
 12674      00000000 
 12675              		.section	.data.rel.ro.local,"aw"
 12676              		.align 8
 12679              	_ZTVN12_GLOBAL__N_130TestCheckEqualWithUnsignedLongE:
 12680 0000 00000000 		.quad	0
 12680      00000000 
 12681 0008 00000000 		.quad	_ZTIN12_GLOBAL__N_130TestCheckEqualWithUnsignedLongE
 12681      00000000 
 12682 0010 00000000 		.quad	_ZN12_GLOBAL__N_130TestCheckEqualWithUnsignedLongD1Ev
 12682      00000000 
 12683 0018 00000000 		.quad	_ZN12_GLOBAL__N_130TestCheckEqualWithUnsignedLongD0Ev
 12683      00000000 
 12684 0020 00000000 		.quad	_ZNK12_GLOBAL__N_130TestCheckEqualWithUnsignedLong7RunImplEv
 12684      00000000 
 12685              		.align 8
 12688              	_ZTVN12_GLOBAL__N_149TestCheckEqualsWithStringsFailsOnDifferentStringsE:
 12689 0028 00000000 		.quad	0
 12689      00000000 
 12690 0030 00000000 		.quad	_ZTIN12_GLOBAL__N_149TestCheckEqualsWithStringsFailsOnDifferentStringsE
 12690      00000000 
 12691 0038 00000000 		.quad	_ZN12_GLOBAL__N_149TestCheckEqualsWithStringsFailsOnDifferentStringsD1Ev
 12691      00000000 
 12692 0040 00000000 		.quad	_ZN12_GLOBAL__N_149TestCheckEqualsWithStringsFailsOnDifferentStringsD0Ev
 12692      00000000 
 12693 0048 00000000 		.quad	_ZNK12_GLOBAL__N_149TestCheckEqualsWithStringsFailsOnDifferentStrings7RunImplEv
 12693      00000000 
 12694              		.align 8
 12697              	_ZTVN12_GLOBAL__N_157TestCheckEqualsWithStringsWorksOnContentsNonConstNonConstE:
 12698 0050 00000000 		.quad	0
 12698      00000000 
 12699 0058 00000000 		.quad	_ZTIN12_GLOBAL__N_157TestCheckEqualsWithStringsWorksOnContentsNonConstNonConstE
 12699      00000000 
 12700 0060 00000000 		.quad	_ZN12_GLOBAL__N_157TestCheckEqualsWithStringsWorksOnContentsNonConstNonConstD1Ev
 12700      00000000 
 12701 0068 00000000 		.quad	_ZN12_GLOBAL__N_157TestCheckEqualsWithStringsWorksOnContentsNonConstNonConstD0Ev
 12701      00000000 
 12702 0070 00000000 		.quad	_ZNK12_GLOBAL__N_157TestCheckEqualsWithStringsWorksOnContentsNonConstNonConst7RunImplEv
 12702      00000000 
 12703              		.align 8
 12706              	_ZTVN12_GLOBAL__N_151TestCheckEqualsWithStringsWorksOnContentsConstConstE:
 12707 0078 00000000 		.quad	0
 12707      00000000 
 12708 0080 00000000 		.quad	_ZTIN12_GLOBAL__N_151TestCheckEqualsWithStringsWorksOnContentsConstConstE
 12708      00000000 
 12709 0088 00000000 		.quad	_ZN12_GLOBAL__N_151TestCheckEqualsWithStringsWorksOnContentsConstConstD1Ev
 12709      00000000 
 12710 0090 00000000 		.quad	_ZN12_GLOBAL__N_151TestCheckEqualsWithStringsWorksOnContentsConstConstD0Ev
 12710      00000000 
 12711 0098 00000000 		.quad	_ZNK12_GLOBAL__N_151TestCheckEqualsWithStringsWorksOnContentsConstConst7RunImplEv
 12711      00000000 
 12712              		.align 8
 12715              	_ZTVN12_GLOBAL__N_154TestCheckEqualsWithStringsWorksOnContentsNonConstConstE:
 12716 00a0 00000000 		.quad	0
 12716      00000000 
 12717 00a8 00000000 		.quad	_ZTIN12_GLOBAL__N_154TestCheckEqualsWithStringsWorksOnContentsNonConstConstE
 12717      00000000 
 12718 00b0 00000000 		.quad	_ZN12_GLOBAL__N_154TestCheckEqualsWithStringsWorksOnContentsNonConstConstD1Ev
 12718      00000000 
 12719 00b8 00000000 		.quad	_ZN12_GLOBAL__N_154TestCheckEqualsWithStringsWorksOnContentsNonConstConstD0Ev
 12719      00000000 
 12720 00c0 00000000 		.quad	_ZNK12_GLOBAL__N_154TestCheckEqualsWithStringsWorksOnContentsNonConstConst7RunImplEv
 12720      00000000 
 12721              		.align 8
 12724              	_ZTVN12_GLOBAL__N_154TestCheckEqualsWithStringsWorksOnContentsConstNonConstE:
 12725 00c8 00000000 		.quad	0
 12725      00000000 
 12726 00d0 00000000 		.quad	_ZTIN12_GLOBAL__N_154TestCheckEqualsWithStringsWorksOnContentsConstNonConstE
 12726      00000000 
 12727 00d8 00000000 		.quad	_ZN12_GLOBAL__N_154TestCheckEqualsWithStringsWorksOnContentsConstNonConstD1Ev
 12727      00000000 
 12728 00e0 00000000 		.quad	_ZN12_GLOBAL__N_154TestCheckEqualsWithStringsWorksOnContentsConstNonConstD0Ev
 12728      00000000 
 12729 00e8 00000000 		.quad	_ZNK12_GLOBAL__N_154TestCheckEqualsWithStringsWorksOnContentsConstNonConst7RunImplEv
 12729      00000000 
 12730              		.align 8
 12733              	_ZTVN12_GLOBAL__N_153TestCheckEqualsWithStringsWorksOnContentsWithALiteralE:
 12734 00f0 00000000 		.quad	0
 12734      00000000 
 12735 00f8 00000000 		.quad	_ZTIN12_GLOBAL__N_153TestCheckEqualsWithStringsWorksOnContentsWithALiteralE
 12735      00000000 
 12736 0100 00000000 		.quad	_ZN12_GLOBAL__N_153TestCheckEqualsWithStringsWorksOnContentsWithALiteralD1Ev
 12736      00000000 
 12737 0108 00000000 		.quad	_ZN12_GLOBAL__N_153TestCheckEqualsWithStringsWorksOnContentsWithALiteralD0Ev
 12737      00000000 
 12738 0110 00000000 		.quad	_ZNK12_GLOBAL__N_153TestCheckEqualsWithStringsWorksOnContentsWithALiteral7RunImplEv
 12738      00000000 
 12739              		.align 8
 12742              	_ZTVN12_GLOBAL__N_151TestCheckEqualFailureIncludesCheckExpectedAndActualE:
 12743 0118 00000000 		.quad	0
 12743      00000000 
 12744 0120 00000000 		.quad	_ZTIN12_GLOBAL__N_151TestCheckEqualFailureIncludesCheckExpectedAndActualE
 12744      00000000 
 12745 0128 00000000 		.quad	_ZN12_GLOBAL__N_151TestCheckEqualFailureIncludesCheckExpectedAndActualD1Ev
 12745      00000000 
 12746 0130 00000000 		.quad	_ZN12_GLOBAL__N_151TestCheckEqualFailureIncludesCheckExpectedAndActualD0Ev
 12746      00000000 
 12747 0138 00000000 		.quad	_ZNK12_GLOBAL__N_151TestCheckEqualFailureIncludesCheckExpectedAndActual7RunImplEv
 12747      00000000 
 12748              		.align 8
 12751              	_ZTVN12_GLOBAL__N_136TestCheckEqualFailureIncludesDetailsE:
 12752 0140 00000000 		.quad	0
 12752      00000000 
 12753 0148 00000000 		.quad	_ZTIN12_GLOBAL__N_136TestCheckEqualFailureIncludesDetailsE
 12753      00000000 
 12754 0150 00000000 		.quad	_ZN12_GLOBAL__N_136TestCheckEqualFailureIncludesDetailsD1Ev
 12754      00000000 
 12755 0158 00000000 		.quad	_ZN12_GLOBAL__N_136TestCheckEqualFailureIncludesDetailsD0Ev
 12755      00000000 
 12756 0160 00000000 		.quad	_ZNK12_GLOBAL__N_136TestCheckEqualFailureIncludesDetails7RunImplEv
 12756      00000000 
 12757              		.align 8
 12760              	_ZTVN12_GLOBAL__N_118TestCheckCloseTrueE:
 12761 0168 00000000 		.quad	0
 12761      00000000 
 12762 0170 00000000 		.quad	_ZTIN12_GLOBAL__N_118TestCheckCloseTrueE
 12762      00000000 
 12763 0178 00000000 		.quad	_ZN12_GLOBAL__N_118TestCheckCloseTrueD1Ev
 12763      00000000 
 12764 0180 00000000 		.quad	_ZN12_GLOBAL__N_118TestCheckCloseTrueD0Ev
 12764      00000000 
 12765 0188 00000000 		.quad	_ZNK12_GLOBAL__N_118TestCheckCloseTrue7RunImplEv
 12765      00000000 
 12766              		.align 8
 12769              	_ZTVN12_GLOBAL__N_119TestCheckCloseFalseE:
 12770 0190 00000000 		.quad	0
 12770      00000000 
 12771 0198 00000000 		.quad	_ZTIN12_GLOBAL__N_119TestCheckCloseFalseE
 12771      00000000 
 12772 01a0 00000000 		.quad	_ZN12_GLOBAL__N_119TestCheckCloseFalseD1Ev
 12772      00000000 
 12773 01a8 00000000 		.quad	_ZN12_GLOBAL__N_119TestCheckCloseFalseD0Ev
 12773      00000000 
 12774 01b0 00000000 		.quad	_ZNK12_GLOBAL__N_119TestCheckCloseFalse7RunImplEv
 12774      00000000 
 12775              		.align 8
 12778              	_ZTVN12_GLOBAL__N_147TestCheckCloseWithZeroEpsilonWorksForSameNumberE:
 12779 01b8 00000000 		.quad	0
 12779      00000000 
 12780 01c0 00000000 		.quad	_ZTIN12_GLOBAL__N_147TestCheckCloseWithZeroEpsilonWorksForSameNumberE
 12780      00000000 
 12781 01c8 00000000 		.quad	_ZN12_GLOBAL__N_147TestCheckCloseWithZeroEpsilonWorksForSameNumberD1Ev
 12781      00000000 
 12782 01d0 00000000 		.quad	_ZN12_GLOBAL__N_147TestCheckCloseWithZeroEpsilonWorksForSameNumberD0Ev
 12782      00000000 
 12783 01d8 00000000 		.quad	_ZNK12_GLOBAL__N_147TestCheckCloseWithZeroEpsilonWorksForSameNumber7RunImplEv
 12783      00000000 
 12784              		.align 8
 12787              	_ZTVN12_GLOBAL__N_126TestCheckCloseWithNaNFailsE:
 12788 01e0 00000000 		.quad	0
 12788      00000000 
 12789 01e8 00000000 		.quad	_ZTIN12_GLOBAL__N_126TestCheckCloseWithNaNFailsE
 12789      00000000 
 12790 01f0 00000000 		.quad	_ZN12_GLOBAL__N_126TestCheckCloseWithNaNFailsD1Ev
 12790      00000000 
 12791 01f8 00000000 		.quad	_ZN12_GLOBAL__N_126TestCheckCloseWithNaNFailsD0Ev
 12791      00000000 
 12792 0200 00000000 		.quad	_ZNK12_GLOBAL__N_126TestCheckCloseWithNaNFails7RunImplEv
 12792      00000000 
 12793              		.align 8
 12796              	_ZTVN12_GLOBAL__N_139TestCheckCloseWithNaNAgainstItselfFailsE:
 12797 0208 00000000 		.quad	0
 12797      00000000 
 12798 0210 00000000 		.quad	_ZTIN12_GLOBAL__N_139TestCheckCloseWithNaNAgainstItselfFailsE
 12798      00000000 
 12799 0218 00000000 		.quad	_ZN12_GLOBAL__N_139TestCheckCloseWithNaNAgainstItselfFailsD1Ev
 12799      00000000 
 12800 0220 00000000 		.quad	_ZN12_GLOBAL__N_139TestCheckCloseWithNaNAgainstItselfFailsD0Ev
 12800      00000000 
 12801 0228 00000000 		.quad	_ZNK12_GLOBAL__N_139TestCheckCloseWithNaNAgainstItselfFails7RunImplEv
 12801      00000000 
 12802              		.align 8
 12805              	_ZTVN12_GLOBAL__N_151TestCheckCloseFailureIncludesCheckExpectedAndActualE:
 12806 0230 00000000 		.quad	0
 12806      00000000 
 12807 0238 00000000 		.quad	_ZTIN12_GLOBAL__N_151TestCheckCloseFailureIncludesCheckExpectedAndActualE
 12807      00000000 
 12808 0240 00000000 		.quad	_ZN12_GLOBAL__N_151TestCheckCloseFailureIncludesCheckExpectedAndActualD1Ev
 12808      00000000 
 12809 0248 00000000 		.quad	_ZN12_GLOBAL__N_151TestCheckCloseFailureIncludesCheckExpectedAndActualD0Ev
 12809      00000000 
 12810 0250 00000000 		.quad	_ZNK12_GLOBAL__N_151TestCheckCloseFailureIncludesCheckExpectedAndActual7RunImplEv
 12810      00000000 
 12811              		.align 8
 12814              	_ZTVN12_GLOBAL__N_138TestCheckCloseFailureIncludesToleranceE:
 12815 0258 00000000 		.quad	0
 12815      00000000 
 12816 0260 00000000 		.quad	_ZTIN12_GLOBAL__N_138TestCheckCloseFailureIncludesToleranceE
 12816      00000000 
 12817 0268 00000000 		.quad	_ZN12_GLOBAL__N_138TestCheckCloseFailureIncludesToleranceD1Ev
 12817      00000000 
 12818 0270 00000000 		.quad	_ZN12_GLOBAL__N_138TestCheckCloseFailureIncludesToleranceD0Ev
 12818      00000000 
 12819 0278 00000000 		.quad	_ZNK12_GLOBAL__N_138TestCheckCloseFailureIncludesTolerance7RunImplEv
 12819      00000000 
 12820              		.align 8
 12823              	_ZTVN12_GLOBAL__N_136TestCheckCloseFailureIncludesDetailsE:
 12824 0280 00000000 		.quad	0
 12824      00000000 
 12825 0288 00000000 		.quad	_ZTIN12_GLOBAL__N_136TestCheckCloseFailureIncludesDetailsE
 12825      00000000 
 12826 0290 00000000 		.quad	_ZN12_GLOBAL__N_136TestCheckCloseFailureIncludesDetailsD1Ev
 12826      00000000 
 12827 0298 00000000 		.quad	_ZN12_GLOBAL__N_136TestCheckCloseFailureIncludesDetailsD0Ev
 12827      00000000 
 12828 02a0 00000000 		.quad	_ZNK12_GLOBAL__N_136TestCheckCloseFailureIncludesDetails7RunImplEv
 12828      00000000 
 12829              		.align 8
 12832              	_ZTVN12_GLOBAL__N_123TestCheckArrayEqualTrueE:
 12833 02a8 00000000 		.quad	0
 12833      00000000 
 12834 02b0 00000000 		.quad	_ZTIN12_GLOBAL__N_123TestCheckArrayEqualTrueE
 12834      00000000 
 12835 02b8 00000000 		.quad	_ZN12_GLOBAL__N_123TestCheckArrayEqualTrueD1Ev
 12835      00000000 
 12836 02c0 00000000 		.quad	_ZN12_GLOBAL__N_123TestCheckArrayEqualTrueD0Ev
 12836      00000000 
 12837 02c8 00000000 		.quad	_ZNK12_GLOBAL__N_123TestCheckArrayEqualTrue7RunImplEv
 12837      00000000 
 12838              		.align 8
 12841              	_ZTVN12_GLOBAL__N_124TestCheckArrayEqualFalseE:
 12842 02d0 00000000 		.quad	0
 12842      00000000 
 12843 02d8 00000000 		.quad	_ZTIN12_GLOBAL__N_124TestCheckArrayEqualFalseE
 12843      00000000 
 12844 02e0 00000000 		.quad	_ZN12_GLOBAL__N_124TestCheckArrayEqualFalseD1Ev
 12844      00000000 
 12845 02e8 00000000 		.quad	_ZN12_GLOBAL__N_124TestCheckArrayEqualFalseD0Ev
 12845      00000000 
 12846 02f0 00000000 		.quad	_ZNK12_GLOBAL__N_124TestCheckArrayEqualFalse7RunImplEv
 12846      00000000 
 12847              		.align 8
 12850              	_ZTVN12_GLOBAL__N_123TestCheckArrayCloseTrueE:
 12851 02f8 00000000 		.quad	0
 12851      00000000 
 12852 0300 00000000 		.quad	_ZTIN12_GLOBAL__N_123TestCheckArrayCloseTrueE
 12852      00000000 
 12853 0308 00000000 		.quad	_ZN12_GLOBAL__N_123TestCheckArrayCloseTrueD1Ev
 12853      00000000 
 12854 0310 00000000 		.quad	_ZN12_GLOBAL__N_123TestCheckArrayCloseTrueD0Ev
 12854      00000000 
 12855 0318 00000000 		.quad	_ZNK12_GLOBAL__N_123TestCheckArrayCloseTrue7RunImplEv
 12855      00000000 
 12856              		.align 8
 12859              	_ZTVN12_GLOBAL__N_124TestCheckArrayCloseFalseE:
 12860 0320 00000000 		.quad	0
 12860      00000000 
 12861 0328 00000000 		.quad	_ZTIN12_GLOBAL__N_124TestCheckArrayCloseFalseE
 12861      00000000 
 12862 0330 00000000 		.quad	_ZN12_GLOBAL__N_124TestCheckArrayCloseFalseD1Ev
 12862      00000000 
 12863 0338 00000000 		.quad	_ZN12_GLOBAL__N_124TestCheckArrayCloseFalseD0Ev
 12863      00000000 
 12864 0340 00000000 		.quad	_ZNK12_GLOBAL__N_124TestCheckArrayCloseFalse7RunImplEv
 12864      00000000 
 12865              		.align 8
 12868              	_ZTVN12_GLOBAL__N_141TestCheckArrayCloseFailureIncludesDetailsE:
 12869 0348 00000000 		.quad	0
 12869      00000000 
 12870 0350 00000000 		.quad	_ZTIN12_GLOBAL__N_141TestCheckArrayCloseFailureIncludesDetailsE
 12870      00000000 
 12871 0358 00000000 		.quad	_ZN12_GLOBAL__N_141TestCheckArrayCloseFailureIncludesDetailsD1Ev
 12871      00000000 
 12872 0360 00000000 		.quad	_ZN12_GLOBAL__N_141TestCheckArrayCloseFailureIncludesDetailsD0Ev
 12872      00000000 
 12873 0368 00000000 		.quad	_ZNK12_GLOBAL__N_141TestCheckArrayCloseFailureIncludesDetails7RunImplEv
 12873      00000000 
 12874              		.align 8
 12877              	_ZTVN12_GLOBAL__N_125TestCheckArray2DCloseTrueE:
 12878 0370 00000000 		.quad	0
 12878      00000000 
 12879 0378 00000000 		.quad	_ZTIN12_GLOBAL__N_125TestCheckArray2DCloseTrueE
 12879      00000000 
 12880 0380 00000000 		.quad	_ZN12_GLOBAL__N_125TestCheckArray2DCloseTrueD1Ev
 12880      00000000 
 12881 0388 00000000 		.quad	_ZN12_GLOBAL__N_125TestCheckArray2DCloseTrueD0Ev
 12881      00000000 
 12882 0390 00000000 		.quad	_ZNK12_GLOBAL__N_125TestCheckArray2DCloseTrue7RunImplEv
 12882      00000000 
 12883              		.align 8
 12886              	_ZTVN12_GLOBAL__N_126TestCheckArray2DCloseFalseE:
 12887 0398 00000000 		.quad	0
 12887      00000000 
 12888 03a0 00000000 		.quad	_ZTIN12_GLOBAL__N_126TestCheckArray2DCloseFalseE
 12888      00000000 
 12889 03a8 00000000 		.quad	_ZN12_GLOBAL__N_126TestCheckArray2DCloseFalseD1Ev
 12889      00000000 
 12890 03b0 00000000 		.quad	_ZN12_GLOBAL__N_126TestCheckArray2DCloseFalseD0Ev
 12890      00000000 
 12891 03b8 00000000 		.quad	_ZNK12_GLOBAL__N_126TestCheckArray2DCloseFalse7RunImplEv
 12891      00000000 
 12892              		.align 8
 12895              	_ZTVN12_GLOBAL__N_133TestCheckCloseWithDoublesSucceedsE:
 12896 03c0 00000000 		.quad	0
 12896      00000000 
 12897 03c8 00000000 		.quad	_ZTIN12_GLOBAL__N_133TestCheckCloseWithDoublesSucceedsE
 12897      00000000 
 12898 03d0 00000000 		.quad	_ZN12_GLOBAL__N_133TestCheckCloseWithDoublesSucceedsD1Ev
 12898      00000000 
 12899 03d8 00000000 		.quad	_ZN12_GLOBAL__N_133TestCheckCloseWithDoublesSucceedsD0Ev
 12899      00000000 
 12900 03e0 00000000 		.quad	_ZNK12_GLOBAL__N_133TestCheckCloseWithDoublesSucceeds7RunImplEv
 12900      00000000 
 12901              		.align 8
 12904              	_ZTVN12_GLOBAL__N_143TestCheckArray2DCloseFailureIncludesDetailsE:
 12905 03e8 00000000 		.quad	0
 12905      00000000 
 12906 03f0 00000000 		.quad	_ZTIN12_GLOBAL__N_143TestCheckArray2DCloseFailureIncludesDetailsE
 12906      00000000 
 12907 03f8 00000000 		.quad	_ZN12_GLOBAL__N_143TestCheckArray2DCloseFailureIncludesDetailsD1Ev
 12907      00000000 
 12908 0400 00000000 		.quad	_ZN12_GLOBAL__N_143TestCheckArray2DCloseFailureIncludesDetailsD0Ev
 12908      00000000 
 12909 0408 00000000 		.quad	_ZNK12_GLOBAL__N_143TestCheckArray2DCloseFailureIncludesDetails7RunImplEv
 12909      00000000 
 12910              		.local	_ZN12_GLOBAL__N_144adderCheckArray2DCloseFailureIncludesDetailsE
 12911              		.comm	_ZN12_GLOBAL__N_144adderCheckArray2DCloseFailureIncludesDetailsE,1,1
 12912              		.local	_ZN12_GLOBAL__N_151testCheckArray2DCloseFailureIncludesDetailsInstanceE
 12913              		.comm	_ZN12_GLOBAL__N_151testCheckArray2DCloseFailureIncludesDetailsInstanceE,56,32
 12914              		.local	_ZN12_GLOBAL__N_134adderCheckCloseWithDoublesSucceedsE
 12915              		.comm	_ZN12_GLOBAL__N_134adderCheckCloseWithDoublesSucceedsE,1,1
 12916              		.local	_ZN12_GLOBAL__N_141testCheckCloseWithDoublesSucceedsInstanceE
 12917              		.comm	_ZN12_GLOBAL__N_141testCheckCloseWithDoublesSucceedsInstanceE,56,32
 12918              		.local	_ZN12_GLOBAL__N_127adderCheckArray2DCloseFalseE
 12919              		.comm	_ZN12_GLOBAL__N_127adderCheckArray2DCloseFalseE,1,1
 12920              		.local	_ZN12_GLOBAL__N_134testCheckArray2DCloseFalseInstanceE
 12921              		.comm	_ZN12_GLOBAL__N_134testCheckArray2DCloseFalseInstanceE,56,32
 12922              		.local	_ZN12_GLOBAL__N_126adderCheckArray2DCloseTrueE
 12923              		.comm	_ZN12_GLOBAL__N_126adderCheckArray2DCloseTrueE,1,1
 12924              		.local	_ZN12_GLOBAL__N_133testCheckArray2DCloseTrueInstanceE
 12925              		.comm	_ZN12_GLOBAL__N_133testCheckArray2DCloseTrueInstanceE,56,32
 12926              		.local	_ZN12_GLOBAL__N_142adderCheckArrayCloseFailureIncludesDetailsE
 12927              		.comm	_ZN12_GLOBAL__N_142adderCheckArrayCloseFailureIncludesDetailsE,1,1
 12928              		.local	_ZN12_GLOBAL__N_149testCheckArrayCloseFailureIncludesDetailsInstanceE
 12929              		.comm	_ZN12_GLOBAL__N_149testCheckArrayCloseFailureIncludesDetailsInstanceE,56,32
 12930              		.local	_ZN12_GLOBAL__N_125adderCheckArrayCloseFalseE
 12931              		.comm	_ZN12_GLOBAL__N_125adderCheckArrayCloseFalseE,1,1
 12932              		.local	_ZN12_GLOBAL__N_132testCheckArrayCloseFalseInstanceE
 12933              		.comm	_ZN12_GLOBAL__N_132testCheckArrayCloseFalseInstanceE,56,32
 12934              		.local	_ZN12_GLOBAL__N_124adderCheckArrayCloseTrueE
 12935              		.comm	_ZN12_GLOBAL__N_124adderCheckArrayCloseTrueE,1,1
 12936              		.local	_ZN12_GLOBAL__N_131testCheckArrayCloseTrueInstanceE
 12937              		.comm	_ZN12_GLOBAL__N_131testCheckArrayCloseTrueInstanceE,56,32
 12938              		.local	_ZN12_GLOBAL__N_125adderCheckArrayEqualFalseE
 12939              		.comm	_ZN12_GLOBAL__N_125adderCheckArrayEqualFalseE,1,1
 12940              		.local	_ZN12_GLOBAL__N_132testCheckArrayEqualFalseInstanceE
 12941              		.comm	_ZN12_GLOBAL__N_132testCheckArrayEqualFalseInstanceE,56,32
 12942              		.local	_ZN12_GLOBAL__N_124adderCheckArrayEqualTrueE
 12943              		.comm	_ZN12_GLOBAL__N_124adderCheckArrayEqualTrueE,1,1
 12944              		.local	_ZN12_GLOBAL__N_131testCheckArrayEqualTrueInstanceE
 12945              		.comm	_ZN12_GLOBAL__N_131testCheckArrayEqualTrueInstanceE,56,32
 12946              		.local	_ZN12_GLOBAL__N_137adderCheckCloseFailureIncludesDetailsE
 12947              		.comm	_ZN12_GLOBAL__N_137adderCheckCloseFailureIncludesDetailsE,1,1
 12948              		.local	_ZN12_GLOBAL__N_144testCheckCloseFailureIncludesDetailsInstanceE
 12949              		.comm	_ZN12_GLOBAL__N_144testCheckCloseFailureIncludesDetailsInstanceE,56,32
 12950              		.local	_ZN12_GLOBAL__N_139adderCheckCloseFailureIncludesToleranceE
 12951              		.comm	_ZN12_GLOBAL__N_139adderCheckCloseFailureIncludesToleranceE,1,1
 12952              		.local	_ZN12_GLOBAL__N_146testCheckCloseFailureIncludesToleranceInstanceE
 12953              		.comm	_ZN12_GLOBAL__N_146testCheckCloseFailureIncludesToleranceInstanceE,56,32
 12954              		.local	_ZN12_GLOBAL__N_152adderCheckCloseFailureIncludesCheckExpectedAndActualE
 12955              		.comm	_ZN12_GLOBAL__N_152adderCheckCloseFailureIncludesCheckExpectedAndActualE,1,1
 12956              		.local	_ZN12_GLOBAL__N_159testCheckCloseFailureIncludesCheckExpectedAndActualInstanceE
 12957              		.comm	_ZN12_GLOBAL__N_159testCheckCloseFailureIncludesCheckExpectedAndActualInstanceE,56,32
 12958              		.local	_ZN12_GLOBAL__N_140adderCheckCloseWithNaNAgainstItselfFailsE
 12959              		.comm	_ZN12_GLOBAL__N_140adderCheckCloseWithNaNAgainstItselfFailsE,1,1
 12960              		.local	_ZN12_GLOBAL__N_147testCheckCloseWithNaNAgainstItselfFailsInstanceE
 12961              		.comm	_ZN12_GLOBAL__N_147testCheckCloseWithNaNAgainstItselfFailsInstanceE,56,32
 12962              		.local	_ZN12_GLOBAL__N_127adderCheckCloseWithNaNFailsE
 12963              		.comm	_ZN12_GLOBAL__N_127adderCheckCloseWithNaNFailsE,1,1
 12964              		.local	_ZN12_GLOBAL__N_134testCheckCloseWithNaNFailsInstanceE
 12965              		.comm	_ZN12_GLOBAL__N_134testCheckCloseWithNaNFailsInstanceE,56,32
 12966              		.local	_ZN12_GLOBAL__N_148adderCheckCloseWithZeroEpsilonWorksForSameNumberE
 12967              		.comm	_ZN12_GLOBAL__N_148adderCheckCloseWithZeroEpsilonWorksForSameNumberE,1,1
 12968              		.local	_ZN12_GLOBAL__N_155testCheckCloseWithZeroEpsilonWorksForSameNumberInstanceE
 12969              		.comm	_ZN12_GLOBAL__N_155testCheckCloseWithZeroEpsilonWorksForSameNumberInstanceE,56,32
 12970              		.local	_ZN12_GLOBAL__N_120adderCheckCloseFalseE
 12971              		.comm	_ZN12_GLOBAL__N_120adderCheckCloseFalseE,1,1
 12972              		.local	_ZN12_GLOBAL__N_127testCheckCloseFalseInstanceE
 12973              		.comm	_ZN12_GLOBAL__N_127testCheckCloseFalseInstanceE,56,32
 12974              		.local	_ZN12_GLOBAL__N_119adderCheckCloseTrueE
 12975              		.comm	_ZN12_GLOBAL__N_119adderCheckCloseTrueE,1,1
 12976              		.local	_ZN12_GLOBAL__N_126testCheckCloseTrueInstanceE
 12977              		.comm	_ZN12_GLOBAL__N_126testCheckCloseTrueInstanceE,56,32
 12978              		.local	_ZN12_GLOBAL__N_137adderCheckEqualFailureIncludesDetailsE
 12979              		.comm	_ZN12_GLOBAL__N_137adderCheckEqualFailureIncludesDetailsE,1,1
 12980              		.local	_ZN12_GLOBAL__N_144testCheckEqualFailureIncludesDetailsInstanceE
 12981              		.comm	_ZN12_GLOBAL__N_144testCheckEqualFailureIncludesDetailsInstanceE,56,32
 12982              		.local	_ZN12_GLOBAL__N_152adderCheckEqualFailureIncludesCheckExpectedAndActualE
 12983              		.comm	_ZN12_GLOBAL__N_152adderCheckEqualFailureIncludesCheckExpectedAndActualE,1,1
 12984              		.local	_ZN12_GLOBAL__N_159testCheckEqualFailureIncludesCheckExpectedAndActualInstanceE
 12985              		.comm	_ZN12_GLOBAL__N_159testCheckEqualFailureIncludesCheckExpectedAndActualInstanceE,56,32
 12986              		.local	_ZN12_GLOBAL__N_154adderCheckEqualsWithStringsWorksOnContentsWithALiteralE
 12987              		.comm	_ZN12_GLOBAL__N_154adderCheckEqualsWithStringsWorksOnContentsWithALiteralE,1,1
 12988              		.local	_ZN12_GLOBAL__N_161testCheckEqualsWithStringsWorksOnContentsWithALiteralInstanceE
 12989              		.comm	_ZN12_GLOBAL__N_161testCheckEqualsWithStringsWorksOnContentsWithALiteralInstanceE,56,32
 12990              		.local	_ZN12_GLOBAL__N_155adderCheckEqualsWithStringsWorksOnContentsConstNonConstE
 12991              		.comm	_ZN12_GLOBAL__N_155adderCheckEqualsWithStringsWorksOnContentsConstNonConstE,1,1
 12992              		.local	_ZN12_GLOBAL__N_162testCheckEqualsWithStringsWorksOnContentsConstNonConstInstanceE
 12993              		.comm	_ZN12_GLOBAL__N_162testCheckEqualsWithStringsWorksOnContentsConstNonConstInstanceE,56,32
 12994              		.local	_ZN12_GLOBAL__N_155adderCheckEqualsWithStringsWorksOnContentsNonConstConstE
 12995              		.comm	_ZN12_GLOBAL__N_155adderCheckEqualsWithStringsWorksOnContentsNonConstConstE,1,1
 12996              		.local	_ZN12_GLOBAL__N_162testCheckEqualsWithStringsWorksOnContentsNonConstConstInstanceE
 12997              		.comm	_ZN12_GLOBAL__N_162testCheckEqualsWithStringsWorksOnContentsNonConstConstInstanceE,56,32
 12998              		.local	_ZN12_GLOBAL__N_152adderCheckEqualsWithStringsWorksOnContentsConstConstE
 12999              		.comm	_ZN12_GLOBAL__N_152adderCheckEqualsWithStringsWorksOnContentsConstConstE,1,1
 13000              		.local	_ZN12_GLOBAL__N_159testCheckEqualsWithStringsWorksOnContentsConstConstInstanceE
 13001              		.comm	_ZN12_GLOBAL__N_159testCheckEqualsWithStringsWorksOnContentsConstConstInstanceE,56,32
 13002              		.local	_ZN12_GLOBAL__N_158adderCheckEqualsWithStringsWorksOnContentsNonConstNonConstE
 13003              		.comm	_ZN12_GLOBAL__N_158adderCheckEqualsWithStringsWorksOnContentsNonConstNonConstE,1,1
 13004              		.local	_ZN12_GLOBAL__N_165testCheckEqualsWithStringsWorksOnContentsNonConstNonConstInstanceE
 13005              		.comm	_ZN12_GLOBAL__N_165testCheckEqualsWithStringsWorksOnContentsNonConstNonConstInstanceE,56,32
 13006              		.data
 13009              	_ZN12_GLOBAL__N_14txt2E:
 13010 0000 48656C6C 		.string	"Hello"
 13010      6F00
 13013              	_ZN12_GLOBAL__N_14txt1E:
 13014 0006 48656C6C 		.string	"Hello"
 13014      6F00
 13015              		.local	_ZN12_GLOBAL__N_150adderCheckEqualsWithStringsFailsOnDifferentStringsE
 13016              		.comm	_ZN12_GLOBAL__N_150adderCheckEqualsWithStringsFailsOnDifferentStringsE,1,1
 13017              		.local	_ZN12_GLOBAL__N_157testCheckEqualsWithStringsFailsOnDifferentStringsInstanceE
 13018              		.comm	_ZN12_GLOBAL__N_157testCheckEqualsWithStringsFailsOnDifferentStringsInstanceE,56,32
 13019              		.local	_ZN12_GLOBAL__N_131adderCheckEqualWithUnsignedLongE
 13020              		.comm	_ZN12_GLOBAL__N_131adderCheckEqualWithUnsignedLongE,1,1
 13021              		.local	_ZN12_GLOBAL__N_138testCheckEqualWithUnsignedLongInstanceE
 13022              		.comm	_ZN12_GLOBAL__N_138testCheckEqualWithUnsignedLongInstanceE,56,32
 13023              		.section	.data.rel.ro.local
 13024              		.align 8
 13025              	.LC33:
 13026 0410 00000000 		.quad	_ZTCN8UnitTest15MemoryOutStreamE0_NSt7__cxx1119basic_ostringstreamIcSt11char_traitsIcESaIcEE
 13026      00000000 
 13027              		.section	.data.rel.ro
 13028              		.align 8
 13029              	.LC34:
 13030 0270 00000000 		.quad	_ZTVSt15basic_streambufIcSt11char_traitsIcEE+16
 13030      00000000 
 13031              		.align 8
 13032              	.LC35:
 13033 0278 00000000 		.quad	_ZTVNSt7__cxx1115basic_stringbufIcSt11char_traitsIcESaIcEEE+16
 13033      00000000 
 13034              		.section	.rodata.cst16,"aM",@progbits,16
 13035              		.align 16
 13036              	.LC50:
 13037 0000 0000803F 		.long	1065353216
 13038 0004 0000C03F 		.long	1069547520
 13039 0008 00000040 		.long	1073741824
 13040 000c 00000040 		.long	1073741824
 13041              		.align 16
 13042              	.LC51:
 13043 0010 00002040 		.long	1075838976
 13044 0014 00004040 		.long	1077936128
 13045 0018 00004040 		.long	1077936128
 13046 001c 00006040 		.long	1080033280
 13047              		.align 16
 13048              	.LC53:
 13049 0020 AE47813F 		.long	1065437102
 13050 0024 AE47C13F 		.long	1069631406
 13051 0028 D7A30040 		.long	1073783767
 13052 002c D7A30040 		.long	1073783767
 13053              		.align 16
 13054              	.LC54:
 13055 0030 D7A32040 		.long	1075880919
 13056 0034 D7A34040 		.long	1077978071
 13057 0038 D7A34040 		.long	1077978071
 13058 003c D7A36040 		.long	1080075223
 13059              		.set	.LC92,.LC50
 13060              		.set	.LC94,.LC53
 13061              		.section	.rodata.cst8,"aM",@progbits,8
 13062              		.align 8
 13063              	.LC102:
 13064 0000 01000000 		.long	1
 13065 0004 02000000 		.long	2
 13066              		.hidden	DW.ref.__gxx_personality_v0
 13067              		.weak	DW.ref.__gxx_personality_v0
 13068              		.section	.data.rel.local.DW.ref.__gxx_personality_v0,"awG",@progbits,DW.ref.__gxx_personality_v0,c
 13069              		.align 8
 13072              	DW.ref.__gxx_personality_v0:
 13073 0000 00000000 		.quad	__gxx_personality_v0
 13073      00000000 
 13074              		.hidden	__dso_handle
 13075              		.ident	"GCC: (Ubuntu 11.3.0-1ubuntu1~22.04) 11.3.0"
 13076              		.section	.note.GNU-stack,"",@progbits
 13077              		.section	.note.gnu.property,"a"
 13078              		.align 8
 13079 0000 04000000 		.long	1f - 0f
 13080 0004 10000000 		.long	4f - 1f
 13081 0008 05000000 		.long	5
 13082              	0:
 13083 000c 474E5500 		.string	"GNU"
 13084              	1:
 13085              		.align 8
 13086 0010 020000C0 		.long	0xc0000002
 13087 0014 04000000 		.long	3f - 2f
 13088              	2:
 13089 0018 03000000 		.long	0x3
 13090              	3:
 13091 001c 00000000 		.align 8
 13092              	4:
DEFINED SYMBOLS
                            *ABS*:0000000000000000 TestChecks.cpp
     /tmp/ccHgSZCc.s:8      .text._ZN17RecordingReporter13ReportSummaryEiiif:0000000000000000 _ZN17RecordingReporter13ReportSummaryEiiif
     /tmp/ccHgSZCc.s:26     .text:0000000000000000 _ZN12_GLOBAL__N_143TestCheckArray2DCloseFailureIncludesDetailsD2Ev
     /tmp/ccHgSZCc.s:12904  .data.rel.ro.local:00000000000003e8 _ZTVN12_GLOBAL__N_143TestCheckArray2DCloseFailureIncludesDetailsE
     /tmp/ccHgSZCc.s:26     .text:0000000000000000 _ZN12_GLOBAL__N_143TestCheckArray2DCloseFailureIncludesDetailsD1Ev
     /tmp/ccHgSZCc.s:40     .text:0000000000000020 _ZN12_GLOBAL__N_133TestCheckCloseWithDoublesSucceedsD2Ev
     /tmp/ccHgSZCc.s:12895  .data.rel.ro.local:00000000000003c0 _ZTVN12_GLOBAL__N_133TestCheckCloseWithDoublesSucceedsE
     /tmp/ccHgSZCc.s:40     .text:0000000000000020 _ZN12_GLOBAL__N_133TestCheckCloseWithDoublesSucceedsD1Ev
     /tmp/ccHgSZCc.s:54     .text:0000000000000040 _ZN12_GLOBAL__N_126TestCheckArray2DCloseFalseD2Ev
     /tmp/ccHgSZCc.s:12886  .data.rel.ro.local:0000000000000398 _ZTVN12_GLOBAL__N_126TestCheckArray2DCloseFalseE
     /tmp/ccHgSZCc.s:54     .text:0000000000000040 _ZN12_GLOBAL__N_126TestCheckArray2DCloseFalseD1Ev
     /tmp/ccHgSZCc.s:68     .text:0000000000000060 _ZN12_GLOBAL__N_125TestCheckArray2DCloseTrueD2Ev
     /tmp/ccHgSZCc.s:12877  .data.rel.ro.local:0000000000000370 _ZTVN12_GLOBAL__N_125TestCheckArray2DCloseTrueE
     /tmp/ccHgSZCc.s:68     .text:0000000000000060 _ZN12_GLOBAL__N_125TestCheckArray2DCloseTrueD1Ev
     /tmp/ccHgSZCc.s:82     .text:0000000000000080 _ZN12_GLOBAL__N_141TestCheckArrayCloseFailureIncludesDetailsD2Ev
     /tmp/ccHgSZCc.s:12868  .data.rel.ro.local:0000000000000348 _ZTVN12_GLOBAL__N_141TestCheckArrayCloseFailureIncludesDetailsE
     /tmp/ccHgSZCc.s:82     .text:0000000000000080 _ZN12_GLOBAL__N_141TestCheckArrayCloseFailureIncludesDetailsD1Ev
     /tmp/ccHgSZCc.s:96     .text:00000000000000a0 _ZN12_GLOBAL__N_124TestCheckArrayCloseFalseD2Ev
     /tmp/ccHgSZCc.s:12859  .data.rel.ro.local:0000000000000320 _ZTVN12_GLOBAL__N_124TestCheckArrayCloseFalseE
     /tmp/ccHgSZCc.s:96     .text:00000000000000a0 _ZN12_GLOBAL__N_124TestCheckArrayCloseFalseD1Ev
     /tmp/ccHgSZCc.s:110    .text:00000000000000c0 _ZN12_GLOBAL__N_123TestCheckArrayCloseTrueD2Ev
     /tmp/ccHgSZCc.s:12850  .data.rel.ro.local:00000000000002f8 _ZTVN12_GLOBAL__N_123TestCheckArrayCloseTrueE
     /tmp/ccHgSZCc.s:110    .text:00000000000000c0 _ZN12_GLOBAL__N_123TestCheckArrayCloseTrueD1Ev
     /tmp/ccHgSZCc.s:124    .text:00000000000000e0 _ZN12_GLOBAL__N_124TestCheckArrayEqualFalseD2Ev
     /tmp/ccHgSZCc.s:12841  .data.rel.ro.local:00000000000002d0 _ZTVN12_GLOBAL__N_124TestCheckArrayEqualFalseE
     /tmp/ccHgSZCc.s:124    .text:00000000000000e0 _ZN12_GLOBAL__N_124TestCheckArrayEqualFalseD1Ev
     /tmp/ccHgSZCc.s:138    .text:0000000000000100 _ZN12_GLOBAL__N_123TestCheckArrayEqualTrueD2Ev
     /tmp/ccHgSZCc.s:12832  .data.rel.ro.local:00000000000002a8 _ZTVN12_GLOBAL__N_123TestCheckArrayEqualTrueE
     /tmp/ccHgSZCc.s:138    .text:0000000000000100 _ZN12_GLOBAL__N_123TestCheckArrayEqualTrueD1Ev
     /tmp/ccHgSZCc.s:152    .text:0000000000000120 _ZN12_GLOBAL__N_136TestCheckCloseFailureIncludesDetailsD2Ev
     /tmp/ccHgSZCc.s:12823  .data.rel.ro.local:0000000000000280 _ZTVN12_GLOBAL__N_136TestCheckCloseFailureIncludesDetailsE
     /tmp/ccHgSZCc.s:152    .text:0000000000000120 _ZN12_GLOBAL__N_136TestCheckCloseFailureIncludesDetailsD1Ev
     /tmp/ccHgSZCc.s:166    .text:0000000000000140 _ZN12_GLOBAL__N_138TestCheckCloseFailureIncludesToleranceD2Ev
     /tmp/ccHgSZCc.s:12814  .data.rel.ro.local:0000000000000258 _ZTVN12_GLOBAL__N_138TestCheckCloseFailureIncludesToleranceE
     /tmp/ccHgSZCc.s:166    .text:0000000000000140 _ZN12_GLOBAL__N_138TestCheckCloseFailureIncludesToleranceD1Ev
     /tmp/ccHgSZCc.s:180    .text:0000000000000160 _ZN12_GLOBAL__N_151TestCheckCloseFailureIncludesCheckExpectedAndActualD2Ev
     /tmp/ccHgSZCc.s:12805  .data.rel.ro.local:0000000000000230 _ZTVN12_GLOBAL__N_151TestCheckCloseFailureIncludesCheckExpectedAndActualE
     /tmp/ccHgSZCc.s:180    .text:0000000000000160 _ZN12_GLOBAL__N_151TestCheckCloseFailureIncludesCheckExpectedAndActualD1Ev
     /tmp/ccHgSZCc.s:194    .text:0000000000000180 _ZN12_GLOBAL__N_139TestCheckCloseWithNaNAgainstItselfFailsD2Ev
     /tmp/ccHgSZCc.s:12796  .data.rel.ro.local:0000000000000208 _ZTVN12_GLOBAL__N_139TestCheckCloseWithNaNAgainstItselfFailsE
     /tmp/ccHgSZCc.s:194    .text:0000000000000180 _ZN12_GLOBAL__N_139TestCheckCloseWithNaNAgainstItselfFailsD1Ev
     /tmp/ccHgSZCc.s:208    .text:00000000000001a0 _ZN12_GLOBAL__N_126TestCheckCloseWithNaNFailsD2Ev
     /tmp/ccHgSZCc.s:12787  .data.rel.ro.local:00000000000001e0 _ZTVN12_GLOBAL__N_126TestCheckCloseWithNaNFailsE
     /tmp/ccHgSZCc.s:208    .text:00000000000001a0 _ZN12_GLOBAL__N_126TestCheckCloseWithNaNFailsD1Ev
     /tmp/ccHgSZCc.s:222    .text:00000000000001c0 _ZN12_GLOBAL__N_147TestCheckCloseWithZeroEpsilonWorksForSameNumberD2Ev
     /tmp/ccHgSZCc.s:12778  .data.rel.ro.local:00000000000001b8 _ZTVN12_GLOBAL__N_147TestCheckCloseWithZeroEpsilonWorksForSameNumberE
     /tmp/ccHgSZCc.s:222    .text:00000000000001c0 _ZN12_GLOBAL__N_147TestCheckCloseWithZeroEpsilonWorksForSameNumberD1Ev
     /tmp/ccHgSZCc.s:236    .text:00000000000001e0 _ZN12_GLOBAL__N_119TestCheckCloseFalseD2Ev
     /tmp/ccHgSZCc.s:12769  .data.rel.ro.local:0000000000000190 _ZTVN12_GLOBAL__N_119TestCheckCloseFalseE
     /tmp/ccHgSZCc.s:236    .text:00000000000001e0 _ZN12_GLOBAL__N_119TestCheckCloseFalseD1Ev
     /tmp/ccHgSZCc.s:250    .text:0000000000000200 _ZN12_GLOBAL__N_118TestCheckCloseTrueD2Ev
     /tmp/ccHgSZCc.s:12760  .data.rel.ro.local:0000000000000168 _ZTVN12_GLOBAL__N_118TestCheckCloseTrueE
     /tmp/ccHgSZCc.s:250    .text:0000000000000200 _ZN12_GLOBAL__N_118TestCheckCloseTrueD1Ev
     /tmp/ccHgSZCc.s:264    .text:0000000000000220 _ZN12_GLOBAL__N_136TestCheckEqualFailureIncludesDetailsD2Ev
     /tmp/ccHgSZCc.s:12751  .data.rel.ro.local:0000000000000140 _ZTVN12_GLOBAL__N_136TestCheckEqualFailureIncludesDetailsE
     /tmp/ccHgSZCc.s:264    .text:0000000000000220 _ZN12_GLOBAL__N_136TestCheckEqualFailureIncludesDetailsD1Ev
     /tmp/ccHgSZCc.s:278    .text:0000000000000240 _ZN12_GLOBAL__N_151TestCheckEqualFailureIncludesCheckExpectedAndActualD2Ev
     /tmp/ccHgSZCc.s:12742  .data.rel.ro.local:0000000000000118 _ZTVN12_GLOBAL__N_151TestCheckEqualFailureIncludesCheckExpectedAndActualE
     /tmp/ccHgSZCc.s:278    .text:0000000000000240 _ZN12_GLOBAL__N_151TestCheckEqualFailureIncludesCheckExpectedAndActualD1Ev
     /tmp/ccHgSZCc.s:292    .text:0000000000000260 _ZN12_GLOBAL__N_153TestCheckEqualsWithStringsWorksOnContentsWithALiteralD2Ev
     /tmp/ccHgSZCc.s:12733  .data.rel.ro.local:00000000000000f0 _ZTVN12_GLOBAL__N_153TestCheckEqualsWithStringsWorksOnContentsWithALiteralE
     /tmp/ccHgSZCc.s:292    .text:0000000000000260 _ZN12_GLOBAL__N_153TestCheckEqualsWithStringsWorksOnContentsWithALiteralD1Ev
     /tmp/ccHgSZCc.s:306    .text:0000000000000280 _ZN12_GLOBAL__N_154TestCheckEqualsWithStringsWorksOnContentsConstNonConstD2Ev
     /tmp/ccHgSZCc.s:12724  .data.rel.ro.local:00000000000000c8 _ZTVN12_GLOBAL__N_154TestCheckEqualsWithStringsWorksOnContentsConstNonConstE
     /tmp/ccHgSZCc.s:306    .text:0000000000000280 _ZN12_GLOBAL__N_154TestCheckEqualsWithStringsWorksOnContentsConstNonConstD1Ev
     /tmp/ccHgSZCc.s:320    .text:00000000000002a0 _ZN12_GLOBAL__N_154TestCheckEqualsWithStringsWorksOnContentsNonConstConstD2Ev
     /tmp/ccHgSZCc.s:12715  .data.rel.ro.local:00000000000000a0 _ZTVN12_GLOBAL__N_154TestCheckEqualsWithStringsWorksOnContentsNonConstConstE
     /tmp/ccHgSZCc.s:320    .text:00000000000002a0 _ZN12_GLOBAL__N_154TestCheckEqualsWithStringsWorksOnContentsNonConstConstD1Ev
     /tmp/ccHgSZCc.s:334    .text:00000000000002c0 _ZN12_GLOBAL__N_151TestCheckEqualsWithStringsWorksOnContentsConstConstD2Ev
     /tmp/ccHgSZCc.s:12706  .data.rel.ro.local:0000000000000078 _ZTVN12_GLOBAL__N_151TestCheckEqualsWithStringsWorksOnContentsConstConstE
     /tmp/ccHgSZCc.s:334    .text:00000000000002c0 _ZN12_GLOBAL__N_151TestCheckEqualsWithStringsWorksOnContentsConstConstD1Ev
     /tmp/ccHgSZCc.s:348    .text:00000000000002e0 _ZN12_GLOBAL__N_157TestCheckEqualsWithStringsWorksOnContentsNonConstNonConstD2Ev
     /tmp/ccHgSZCc.s:12697  .data.rel.ro.local:0000000000000050 _ZTVN12_GLOBAL__N_157TestCheckEqualsWithStringsWorksOnContentsNonConstNonConstE
     /tmp/ccHgSZCc.s:348    .text:00000000000002e0 _ZN12_GLOBAL__N_157TestCheckEqualsWithStringsWorksOnContentsNonConstNonConstD1Ev
     /tmp/ccHgSZCc.s:362    .text:0000000000000300 _ZN12_GLOBAL__N_149TestCheckEqualsWithStringsFailsOnDifferentStringsD2Ev
     /tmp/ccHgSZCc.s:12688  .data.rel.ro.local:0000000000000028 _ZTVN12_GLOBAL__N_149TestCheckEqualsWithStringsFailsOnDifferentStringsE
     /tmp/ccHgSZCc.s:362    .text:0000000000000300 _ZN12_GLOBAL__N_149TestCheckEqualsWithStringsFailsOnDifferentStringsD1Ev
     /tmp/ccHgSZCc.s:376    .text:0000000000000320 _ZN12_GLOBAL__N_130TestCheckEqualWithUnsignedLongD2Ev
     /tmp/ccHgSZCc.s:12679  .data.rel.ro.local:0000000000000000 _ZTVN12_GLOBAL__N_130TestCheckEqualWithUnsignedLongE
     /tmp/ccHgSZCc.s:376    .text:0000000000000320 _ZN12_GLOBAL__N_130TestCheckEqualWithUnsignedLongD1Ev
     /tmp/ccHgSZCc.s:392    .text._ZN17RecordingReporter15ReportTestStartERKN8UnitTest11TestDetailsE:0000000000000000 _ZN17RecordingReporter15ReportTestStartERKN8UnitTest11TestDetailsE
     /tmp/ccHgSZCc.s:429    .text._ZN17RecordingReporter13ReportFailureERKN8UnitTest11TestDetailsEPKc:0000000000000000 _ZN17RecordingReporter13ReportFailureERKN8UnitTest11TestDetailsEPKc
     /tmp/ccHgSZCc.s:478    .text._ZN17RecordingReporter16ReportTestFinishERKN8UnitTest11TestDetailsEf:0000000000000000 _ZN17RecordingReporter16ReportTestFinishERKN8UnitTest11TestDetailsEf
     /tmp/ccHgSZCc.s:522    .text:0000000000000340 _ZN12_GLOBAL__N_143TestCheckArray2DCloseFailureIncludesDetailsD0Ev
     /tmp/ccHgSZCc.s:13072  .data.rel.local.DW.ref.__gxx_personality_v0:0000000000000000 DW.ref.__gxx_personality_v0
     /tmp/ccHgSZCc.s:576    .text.unlikely:0000000000000000 _ZN12_GLOBAL__N_143TestCheckArray2DCloseFailureIncludesDetailsD0Ev.cold
     /tmp/ccHgSZCc.s:618    .text:0000000000000380 _ZN12_GLOBAL__N_133TestCheckCloseWithDoublesSucceedsD0Ev
     /tmp/ccHgSZCc.s:671    .text.unlikely:0000000000000010 _ZN12_GLOBAL__N_133TestCheckCloseWithDoublesSucceedsD0Ev.cold
     /tmp/ccHgSZCc.s:713    .text:00000000000003c0 _ZN12_GLOBAL__N_126TestCheckArray2DCloseFalseD0Ev
     /tmp/ccHgSZCc.s:766    .text.unlikely:0000000000000020 _ZN12_GLOBAL__N_126TestCheckArray2DCloseFalseD0Ev.cold
     /tmp/ccHgSZCc.s:808    .text:0000000000000400 _ZN12_GLOBAL__N_125TestCheckArray2DCloseTrueD0Ev
     /tmp/ccHgSZCc.s:861    .text.unlikely:0000000000000030 _ZN12_GLOBAL__N_125TestCheckArray2DCloseTrueD0Ev.cold
     /tmp/ccHgSZCc.s:903    .text:0000000000000440 _ZN12_GLOBAL__N_141TestCheckArrayCloseFailureIncludesDetailsD0Ev
     /tmp/ccHgSZCc.s:956    .text.unlikely:0000000000000040 _ZN12_GLOBAL__N_141TestCheckArrayCloseFailureIncludesDetailsD0Ev.cold
     /tmp/ccHgSZCc.s:998    .text:0000000000000480 _ZN12_GLOBAL__N_124TestCheckArrayCloseFalseD0Ev
     /tmp/ccHgSZCc.s:1051   .text.unlikely:0000000000000050 _ZN12_GLOBAL__N_124TestCheckArrayCloseFalseD0Ev.cold
     /tmp/ccHgSZCc.s:1093   .text:00000000000004c0 _ZN12_GLOBAL__N_123TestCheckArrayCloseTrueD0Ev
     /tmp/ccHgSZCc.s:1146   .text.unlikely:0000000000000060 _ZN12_GLOBAL__N_123TestCheckArrayCloseTrueD0Ev.cold
     /tmp/ccHgSZCc.s:1188   .text:0000000000000500 _ZN12_GLOBAL__N_124TestCheckArrayEqualFalseD0Ev
     /tmp/ccHgSZCc.s:1241   .text.unlikely:0000000000000070 _ZN12_GLOBAL__N_124TestCheckArrayEqualFalseD0Ev.cold
     /tmp/ccHgSZCc.s:1283   .text:0000000000000540 _ZN12_GLOBAL__N_123TestCheckArrayEqualTrueD0Ev
     /tmp/ccHgSZCc.s:1336   .text.unlikely:0000000000000080 _ZN12_GLOBAL__N_123TestCheckArrayEqualTrueD0Ev.cold
     /tmp/ccHgSZCc.s:1378   .text:0000000000000580 _ZN12_GLOBAL__N_136TestCheckCloseFailureIncludesDetailsD0Ev
     /tmp/ccHgSZCc.s:1431   .text.unlikely:0000000000000090 _ZN12_GLOBAL__N_136TestCheckCloseFailureIncludesDetailsD0Ev.cold
     /tmp/ccHgSZCc.s:1473   .text:00000000000005c0 _ZN12_GLOBAL__N_138TestCheckCloseFailureIncludesToleranceD0Ev
     /tmp/ccHgSZCc.s:1526   .text.unlikely:00000000000000a0 _ZN12_GLOBAL__N_138TestCheckCloseFailureIncludesToleranceD0Ev.cold
     /tmp/ccHgSZCc.s:1568   .text:0000000000000600 _ZN12_GLOBAL__N_151TestCheckCloseFailureIncludesCheckExpectedAndActualD0Ev
     /tmp/ccHgSZCc.s:1621   .text.unlikely:00000000000000b0 _ZN12_GLOBAL__N_151TestCheckCloseFailureIncludesCheckExpectedAndActualD0Ev.cold
     /tmp/ccHgSZCc.s:1663   .text:0000000000000640 _ZN12_GLOBAL__N_139TestCheckCloseWithNaNAgainstItselfFailsD0Ev
     /tmp/ccHgSZCc.s:1716   .text.unlikely:00000000000000c0 _ZN12_GLOBAL__N_139TestCheckCloseWithNaNAgainstItselfFailsD0Ev.cold
     /tmp/ccHgSZCc.s:1758   .text:0000000000000680 _ZN12_GLOBAL__N_126TestCheckCloseWithNaNFailsD0Ev
     /tmp/ccHgSZCc.s:1811   .text.unlikely:00000000000000d0 _ZN12_GLOBAL__N_126TestCheckCloseWithNaNFailsD0Ev.cold
     /tmp/ccHgSZCc.s:1853   .text:00000000000006c0 _ZN12_GLOBAL__N_147TestCheckCloseWithZeroEpsilonWorksForSameNumberD0Ev
     /tmp/ccHgSZCc.s:1906   .text.unlikely:00000000000000e0 _ZN12_GLOBAL__N_147TestCheckCloseWithZeroEpsilonWorksForSameNumberD0Ev.cold
     /tmp/ccHgSZCc.s:1948   .text:0000000000000700 _ZN12_GLOBAL__N_119TestCheckCloseFalseD0Ev
     /tmp/ccHgSZCc.s:2001   .text.unlikely:00000000000000f0 _ZN12_GLOBAL__N_119TestCheckCloseFalseD0Ev.cold
     /tmp/ccHgSZCc.s:2043   .text:0000000000000740 _ZN12_GLOBAL__N_118TestCheckCloseTrueD0Ev
     /tmp/ccHgSZCc.s:2096   .text.unlikely:0000000000000100 _ZN12_GLOBAL__N_118TestCheckCloseTrueD0Ev.cold
     /tmp/ccHgSZCc.s:2138   .text:0000000000000780 _ZN12_GLOBAL__N_136TestCheckEqualFailureIncludesDetailsD0Ev
     /tmp/ccHgSZCc.s:2191   .text.unlikely:0000000000000110 _ZN12_GLOBAL__N_136TestCheckEqualFailureIncludesDetailsD0Ev.cold
     /tmp/ccHgSZCc.s:2233   .text:00000000000007c0 _ZN12_GLOBAL__N_151TestCheckEqualFailureIncludesCheckExpectedAndActualD0Ev
     /tmp/ccHgSZCc.s:2286   .text.unlikely:0000000000000120 _ZN12_GLOBAL__N_151TestCheckEqualFailureIncludesCheckExpectedAndActualD0Ev.cold
     /tmp/ccHgSZCc.s:2328   .text:0000000000000800 _ZN12_GLOBAL__N_153TestCheckEqualsWithStringsWorksOnContentsWithALiteralD0Ev
     /tmp/ccHgSZCc.s:2381   .text.unlikely:0000000000000130 _ZN12_GLOBAL__N_153TestCheckEqualsWithStringsWorksOnContentsWithALiteralD0Ev.cold
     /tmp/ccHgSZCc.s:2423   .text:0000000000000840 _ZN12_GLOBAL__N_154TestCheckEqualsWithStringsWorksOnContentsConstNonConstD0Ev
     /tmp/ccHgSZCc.s:2476   .text.unlikely:0000000000000140 _ZN12_GLOBAL__N_154TestCheckEqualsWithStringsWorksOnContentsConstNonConstD0Ev.cold
     /tmp/ccHgSZCc.s:2518   .text:0000000000000880 _ZN12_GLOBAL__N_154TestCheckEqualsWithStringsWorksOnContentsNonConstConstD0Ev
     /tmp/ccHgSZCc.s:2571   .text.unlikely:0000000000000150 _ZN12_GLOBAL__N_154TestCheckEqualsWithStringsWorksOnContentsNonConstConstD0Ev.cold
     /tmp/ccHgSZCc.s:2613   .text:00000000000008c0 _ZN12_GLOBAL__N_151TestCheckEqualsWithStringsWorksOnContentsConstConstD0Ev
     /tmp/ccHgSZCc.s:2666   .text.unlikely:0000000000000160 _ZN12_GLOBAL__N_151TestCheckEqualsWithStringsWorksOnContentsConstConstD0Ev.cold
     /tmp/ccHgSZCc.s:2708   .text:0000000000000900 _ZN12_GLOBAL__N_157TestCheckEqualsWithStringsWorksOnContentsNonConstNonConstD0Ev
     /tmp/ccHgSZCc.s:2761   .text.unlikely:0000000000000170 _ZN12_GLOBAL__N_157TestCheckEqualsWithStringsWorksOnContentsNonConstNonConstD0Ev.cold
     /tmp/ccHgSZCc.s:2803   .text:0000000000000940 _ZN12_GLOBAL__N_149TestCheckEqualsWithStringsFailsOnDifferentStringsD0Ev
     /tmp/ccHgSZCc.s:2856   .text.unlikely:0000000000000180 _ZN12_GLOBAL__N_149TestCheckEqualsWithStringsFailsOnDifferentStringsD0Ev.cold
     /tmp/ccHgSZCc.s:2898   .text:0000000000000980 _ZN12_GLOBAL__N_130TestCheckEqualWithUnsignedLongD0Ev
     /tmp/ccHgSZCc.s:2951   .text.unlikely:0000000000000190 _ZN12_GLOBAL__N_130TestCheckEqualWithUnsignedLongD0Ev.cold
     /tmp/ccHgSZCc.s:2990   .text._ZN17RecordingReporterD2Ev:0000000000000000 _ZN17RecordingReporterD2Ev
     /tmp/ccHgSZCc.s:12666  .data.rel.ro.local._ZTV17RecordingReporter:0000000000000000 _ZTV17RecordingReporter
     /tmp/ccHgSZCc.s:2990   .text._ZN17RecordingReporterD2Ev:0000000000000000 _ZN17RecordingReporterD1Ev
     /tmp/ccHgSZCc.s:3007   .text._ZN17RecordingReporterD0Ev:0000000000000000 _ZN17RecordingReporterD0Ev
     /tmp/ccHgSZCc.s:3072   .text._ZN8UnitTest15MemoryOutStreamD1Ev:0000000000000000 _ZN8UnitTest15MemoryOutStreamD1Ev
     /tmp/ccHgSZCc.s:12650  .data.rel.ro.local._ZTVN8UnitTest15MemoryOutStreamE:0000000000000000 _ZTVN8UnitTest15MemoryOutStreamE
     /tmp/ccHgSZCc.s:12622  .data.rel.ro._ZTCN8UnitTest15MemoryOutStreamE0_NSt7__cxx1119basic_ostringstreamIcSt11char_traitsIcESaIcEEE:0000000000000000 _ZTCN8UnitTest15MemoryOutStreamE0_NSt7__cxx1119basic_ostringstreamIcSt11char_traitsIcESaIcEEE
     /tmp/ccHgSZCc.s:12605  .data.rel.ro._ZTCN8UnitTest15MemoryOutStreamE0_So:0000000000000000 _ZTCN8UnitTest15MemoryOutStreamE0_So
     /tmp/ccHgSZCc.s:3132   .text._ZN8UnitTest15MemoryOutStreamD1Ev:00000000000000c0 _ZTv0_n24_N8UnitTest15MemoryOutStreamD1Ev
     /tmp/ccHgSZCc.s:3196   .text._ZN8UnitTest15MemoryOutStreamD0Ev:0000000000000000 _ZN8UnitTest15MemoryOutStreamD0Ev
     /tmp/ccHgSZCc.s:3291   .text._ZN8UnitTest15MemoryOutStreamD0Ev:00000000000000e0 _ZTv0_n24_N8UnitTest15MemoryOutStreamD0Ev
     /tmp/ccHgSZCc.s:3390   .text._ZNSt7__cxx1115basic_stringbufIcSt11char_traitsIcESaIcEED2Ev:0000000000000000 _ZNSt7__cxx1115basic_stringbufIcSt11char_traitsIcESaIcEED2Ev
     /tmp/ccHgSZCc.s:3390   .text._ZNSt7__cxx1115basic_stringbufIcSt11char_traitsIcESaIcEED2Ev:0000000000000000 _ZNSt7__cxx1115basic_stringbufIcSt11char_traitsIcESaIcEED1Ev
     /tmp/ccHgSZCc.s:3438   .text:00000000000009c0 _ZN8UnitTest17CheckArray2DCloseIA3_A3_fS2_fEEvRNS_11TestResultsERKT_RKT0_iiRKT1_RKNS_11TestDetailsE.constprop.0
     /tmp/ccHgSZCc.s:3847   .text.unlikely:00000000000001a0 _ZN8UnitTest17CheckArray2DCloseIA3_A3_fS2_fEEvRNS_11TestResultsERKT_RKT0_iiRKT1_RKNS_11TestDetailsE.constprop.0.cold
     /tmp/ccHgSZCc.s:3915   .text:0000000000000f40 _ZNK12_GLOBAL__N_133TestCheckCloseWithDoublesSucceeds7RunImplEv
     /tmp/ccHgSZCc.s:3986   .text.unlikely:00000000000001e6 _ZNK12_GLOBAL__N_133TestCheckCloseWithDoublesSucceeds7RunImplEv.cold
     /tmp/ccHgSZCc.s:4082   .text:0000000000000fa0 _ZNK12_GLOBAL__N_130TestCheckEqualWithUnsignedLong7RunImplEv
     /tmp/ccHgSZCc.s:4163   .text.unlikely:0000000000000252 _ZNK12_GLOBAL__N_130TestCheckEqualWithUnsignedLong7RunImplEv.cold
     /tmp/ccHgSZCc.s:4244   .text:0000000000001010 _ZN8UnitTest15CheckArrayEqualIA3_iS1_EEvRNS_11TestResultsERKT_RKT0_iRKNS_11TestDetailsE.constprop.0
     /tmp/ccHgSZCc.s:4495   .text.unlikely:00000000000002a9 _ZN8UnitTest15CheckArrayEqualIA3_iS1_EEvRNS_11TestResultsERKT_RKT0_iRKNS_11TestDetailsE.constprop.0.cold
     /tmp/ccHgSZCc.s:4557   .text:0000000000001360 _ZN8UnitTest15CheckArrayCloseIA3_fS1_fEEvRNS_11TestResultsERKT_RKT0_iRKT1_RKNS_11TestDetailsE.constprop.0
     /tmp/ccHgSZCc.s:4848   .text.unlikely:00000000000002ec _ZN8UnitTest15CheckArrayCloseIA3_fS1_fEEvRNS_11TestResultsERKT_RKT0_iRKT1_RKNS_11TestDetailsE.constprop.0.cold
     /tmp/ccHgSZCc.s:4909   .text._ZNSt7__cxx1115basic_stringbufIcSt11char_traitsIcESaIcEED0Ev:0000000000000000 _ZNSt7__cxx1115basic_stringbufIcSt11char_traitsIcESaIcEED0Ev
     /tmp/ccHgSZCc.s:4945   .text._ZN8UnitTest10CheckEqualIiiEEvRNS_11TestResultsERKT_RKT0_RKNS_11TestDetailsE:0000000000000000 _ZN8UnitTest10CheckEqualIiiEEvRNS_11TestResultsERKT_RKT0_RKNS_11TestDetailsE
     /tmp/ccHgSZCc.s:5218   .text:0000000000001750 _ZNK12_GLOBAL__N_143TestCheckArray2DCloseFailureIncludesDetails7RunImplEv
     /tmp/ccHgSZCc.s:5449   .text.unlikely:0000000000000330 _ZNK12_GLOBAL__N_143TestCheckArray2DCloseFailureIncludesDetails7RunImplEv.cold
     /tmp/ccHgSZCc.s:5645   .text:0000000000001a20 _ZNK12_GLOBAL__N_126TestCheckArray2DCloseFalse7RunImplEv
     /tmp/ccHgSZCc.s:5766   .text.unlikely:000000000000048c _ZNK12_GLOBAL__N_126TestCheckArray2DCloseFalse7RunImplEv.cold
     /tmp/ccHgSZCc.s:5850   .text:0000000000001b60 _ZNK12_GLOBAL__N_125TestCheckArray2DCloseTrue7RunImplEv
     /tmp/ccHgSZCc.s:5971   .text.unlikely:00000000000004de _ZNK12_GLOBAL__N_125TestCheckArray2DCloseTrue7RunImplEv.cold
     /tmp/ccHgSZCc.s:6071   .text:0000000000001ca0 _ZNK12_GLOBAL__N_136TestCheckEqualFailureIncludesDetails7RunImplEv
     /tmp/ccHgSZCc.s:6294   .text.unlikely:0000000000000530 _ZNK12_GLOBAL__N_136TestCheckEqualFailureIncludesDetails7RunImplEv.cold
     /tmp/ccHgSZCc.s:6503   .text:0000000000001f30 _ZNK12_GLOBAL__N_151TestCheckEqualFailureIncludesCheckExpectedAndActual7RunImplEv
     /tmp/ccHgSZCc.s:6690   .text.unlikely:000000000000068c _ZNK12_GLOBAL__N_151TestCheckEqualFailureIncludesCheckExpectedAndActual7RunImplEv.cold
     /tmp/ccHgSZCc.s:6816   .text:0000000000002150 _ZNK12_GLOBAL__N_153TestCheckEqualsWithStringsWorksOnContentsWithALiteral7RunImplEv
     /tmp/ccHgSZCc.s:13013  .data:0000000000000006 _ZN12_GLOBAL__N_14txt1E
     /tmp/ccHgSZCc.s:6919   .text.unlikely:0000000000000740 _ZNK12_GLOBAL__N_153TestCheckEqualsWithStringsWorksOnContentsWithALiteral7RunImplEv.cold
     /tmp/ccHgSZCc.s:6998   .text:0000000000002220 _ZNK12_GLOBAL__N_154TestCheckEqualsWithStringsWorksOnContentsConstNonConst7RunImplEv
     /tmp/ccHgSZCc.s:13009  .data:0000000000000000 _ZN12_GLOBAL__N_14txt2E
     /tmp/ccHgSZCc.s:7101   .text.unlikely:0000000000000792 _ZNK12_GLOBAL__N_154TestCheckEqualsWithStringsWorksOnContentsConstNonConst7RunImplEv.cold
     /tmp/ccHgSZCc.s:7180   .text:00000000000022f0 _ZNK12_GLOBAL__N_154TestCheckEqualsWithStringsWorksOnContentsNonConstConst7RunImplEv
     /tmp/ccHgSZCc.s:7283   .text.unlikely:00000000000007e4 _ZNK12_GLOBAL__N_154TestCheckEqualsWithStringsWorksOnContentsNonConstConst7RunImplEv.cold
     /tmp/ccHgSZCc.s:7362   .text:00000000000023c0 _ZNK12_GLOBAL__N_151TestCheckEqualsWithStringsWorksOnContentsConstConst7RunImplEv
     /tmp/ccHgSZCc.s:7465   .text.unlikely:0000000000000836 _ZNK12_GLOBAL__N_151TestCheckEqualsWithStringsWorksOnContentsConstConst7RunImplEv.cold
     /tmp/ccHgSZCc.s:7544   .text:0000000000002490 _ZNK12_GLOBAL__N_157TestCheckEqualsWithStringsWorksOnContentsNonConstNonConst7RunImplEv
     /tmp/ccHgSZCc.s:7647   .text.unlikely:0000000000000888 _ZNK12_GLOBAL__N_157TestCheckEqualsWithStringsWorksOnContentsNonConstNonConst7RunImplEv.cold
     /tmp/ccHgSZCc.s:7726   .text:0000000000002560 _ZNK12_GLOBAL__N_149TestCheckEqualsWithStringsFailsOnDifferentStrings7RunImplEv
     /tmp/ccHgSZCc.s:7835   .text.unlikely:00000000000008da _ZNK12_GLOBAL__N_149TestCheckEqualsWithStringsFailsOnDifferentStrings7RunImplEv.cold
     /tmp/ccHgSZCc.s:7929   .text:0000000000002650 _ZNK12_GLOBAL__N_141TestCheckArrayCloseFailureIncludesDetails7RunImplEv
     /tmp/ccHgSZCc.s:8156   .text.unlikely:000000000000092c _ZNK12_GLOBAL__N_141TestCheckArrayCloseFailureIncludesDetails7RunImplEv.cold
     /tmp/ccHgSZCc.s:8345   .text:0000000000002900 _ZNK12_GLOBAL__N_124TestCheckArrayCloseFalse7RunImplEv
     /tmp/ccHgSZCc.s:8462   .text.unlikely:0000000000000a88 _ZNK12_GLOBAL__N_124TestCheckArrayCloseFalse7RunImplEv.cold
     /tmp/ccHgSZCc.s:8542   .text:0000000000002a10 _ZNK12_GLOBAL__N_123TestCheckArrayCloseTrue7RunImplEv
     /tmp/ccHgSZCc.s:8659   .text.unlikely:0000000000000ada _ZNK12_GLOBAL__N_123TestCheckArrayCloseTrue7RunImplEv.cold
     /tmp/ccHgSZCc.s:8739   .text:0000000000002b20 _ZNK12_GLOBAL__N_124TestCheckArrayEqualFalse7RunImplEv
     /tmp/ccHgSZCc.s:8847   .text.unlikely:0000000000000b2c _ZNK12_GLOBAL__N_124TestCheckArrayEqualFalse7RunImplEv.cold
     /tmp/ccHgSZCc.s:8926   .text:0000000000002c10 _ZNK12_GLOBAL__N_123TestCheckArrayEqualTrue7RunImplEv
     /tmp/ccHgSZCc.s:9032   .text.unlikely:0000000000000b7e _ZNK12_GLOBAL__N_123TestCheckArrayEqualTrue7RunImplEv.cold
     /tmp/ccHgSZCc.s:9111   .text:0000000000002cf0 _ZNK12_GLOBAL__N_147TestCheckCloseWithZeroEpsilonWorksForSameNumber7RunImplEv
     /tmp/ccHgSZCc.s:9209   .text.unlikely:0000000000000bd0 _ZNK12_GLOBAL__N_147TestCheckCloseWithZeroEpsilonWorksForSameNumber7RunImplEv.cold
     /tmp/ccHgSZCc.s:9287   .text._ZN8UnitTest10CheckCloseIfffEEvRNS_11TestResultsERKT_RKT0_RKT1_RKNS_11TestDetailsE:0000000000000000 _ZN8UnitTest10CheckCloseIfffEEvRNS_11TestResultsERKT_RKT0_RKT1_RKNS_11TestDetailsE
     /tmp/ccHgSZCc.s:9576   .text:0000000000002db0 _ZNK12_GLOBAL__N_151TestCheckCloseFailureIncludesCheckExpectedAndActual7RunImplEv
     /tmp/ccHgSZCc.s:9765   .text.unlikely:0000000000000c22 _ZNK12_GLOBAL__N_151TestCheckCloseFailureIncludesCheckExpectedAndActual7RunImplEv.cold
     /tmp/ccHgSZCc.s:9888   .text:0000000000002fd0 _ZNK12_GLOBAL__N_139TestCheckCloseWithNaNAgainstItselfFails7RunImplEv
     /tmp/ccHgSZCc.s:10000  .text.unlikely:0000000000000cd6 _ZNK12_GLOBAL__N_139TestCheckCloseWithNaNAgainstItselfFails7RunImplEv.cold
     /tmp/ccHgSZCc.s:10080  .text:00000000000030b0 _ZNK12_GLOBAL__N_126TestCheckCloseWithNaNFails7RunImplEv
     /tmp/ccHgSZCc.s:10199  .text.unlikely:0000000000000d28 _ZNK12_GLOBAL__N_126TestCheckCloseWithNaNFails7RunImplEv.cold
     /tmp/ccHgSZCc.s:10280  .text:00000000000031a0 _ZNK12_GLOBAL__N_119TestCheckCloseFalse7RunImplEv
     /tmp/ccHgSZCc.s:10399  .text.unlikely:0000000000000d7a _ZNK12_GLOBAL__N_119TestCheckCloseFalse7RunImplEv.cold
     /tmp/ccHgSZCc.s:10480  .text:0000000000003290 _ZNK12_GLOBAL__N_118TestCheckCloseTrue7RunImplEv
     /tmp/ccHgSZCc.s:10599  .text.unlikely:0000000000000dcc _ZNK12_GLOBAL__N_118TestCheckCloseTrue7RunImplEv.cold
     /tmp/ccHgSZCc.s:10676  .text._ZN8UnitTest10CheckCloseIiifEEvRNS_11TestResultsERKT_RKT0_RKT1_RKNS_11TestDetailsE:0000000000000000 _ZN8UnitTest10CheckCloseIiifEEvRNS_11TestResultsERKT_RKT0_RKT1_RKNS_11TestDetailsE
     /tmp/ccHgSZCc.s:10955  .text:0000000000003380 _ZNK12_GLOBAL__N_136TestCheckCloseFailureIncludesDetails7RunImplEv
     /tmp/ccHgSZCc.s:11180  .text.unlikely:0000000000000e1e _ZNK12_GLOBAL__N_136TestCheckCloseFailureIncludesDetails7RunImplEv.cold
     /tmp/ccHgSZCc.s:11379  .text:0000000000003610 _ZNK12_GLOBAL__N_138TestCheckCloseFailureIncludesTolerance7RunImplEv
     /tmp/ccHgSZCc.s:11531  .text.unlikely:0000000000000f7a _ZNK12_GLOBAL__N_138TestCheckCloseFailureIncludesTolerance7RunImplEv.cold
     /tmp/ccHgSZCc.s:11698  .text.startup:0000000000000000 _GLOBAL__sub_I_TestChecks.cpp
     /tmp/ccHgSZCc.s:13022  .bss:0000000000000660 _ZN12_GLOBAL__N_138testCheckEqualWithUnsignedLongInstanceE
     /tmp/ccHgSZCc.s:13018  .bss:0000000000000658 _ZN12_GLOBAL__N_131adderCheckEqualWithUnsignedLongE
     /tmp/ccHgSZCc.s:13018  .bss:0000000000000620 _ZN12_GLOBAL__N_157testCheckEqualsWithStringsFailsOnDifferentStringsInstanceE
     /tmp/ccHgSZCc.s:13005  .bss:0000000000000618 _ZN12_GLOBAL__N_150adderCheckEqualsWithStringsFailsOnDifferentStringsE
     /tmp/ccHgSZCc.s:13005  .bss:00000000000005e0 _ZN12_GLOBAL__N_165testCheckEqualsWithStringsWorksOnContentsNonConstNonConstInstanceE
     /tmp/ccHgSZCc.s:13001  .bss:00000000000005d8 _ZN12_GLOBAL__N_158adderCheckEqualsWithStringsWorksOnContentsNonConstNonConstE
     /tmp/ccHgSZCc.s:13001  .bss:00000000000005a0 _ZN12_GLOBAL__N_159testCheckEqualsWithStringsWorksOnContentsConstConstInstanceE
     /tmp/ccHgSZCc.s:12997  .bss:0000000000000598 _ZN12_GLOBAL__N_152adderCheckEqualsWithStringsWorksOnContentsConstConstE
     /tmp/ccHgSZCc.s:12997  .bss:0000000000000560 _ZN12_GLOBAL__N_162testCheckEqualsWithStringsWorksOnContentsNonConstConstInstanceE
     /tmp/ccHgSZCc.s:12993  .bss:0000000000000558 _ZN12_GLOBAL__N_155adderCheckEqualsWithStringsWorksOnContentsNonConstConstE
     /tmp/ccHgSZCc.s:12993  .bss:0000000000000520 _ZN12_GLOBAL__N_162testCheckEqualsWithStringsWorksOnContentsConstNonConstInstanceE
     /tmp/ccHgSZCc.s:12989  .bss:0000000000000518 _ZN12_GLOBAL__N_155adderCheckEqualsWithStringsWorksOnContentsConstNonConstE
     /tmp/ccHgSZCc.s:12989  .bss:00000000000004e0 _ZN12_GLOBAL__N_161testCheckEqualsWithStringsWorksOnContentsWithALiteralInstanceE
     /tmp/ccHgSZCc.s:12985  .bss:00000000000004d8 _ZN12_GLOBAL__N_154adderCheckEqualsWithStringsWorksOnContentsWithALiteralE
     /tmp/ccHgSZCc.s:12985  .bss:00000000000004a0 _ZN12_GLOBAL__N_159testCheckEqualFailureIncludesCheckExpectedAndActualInstanceE
     /tmp/ccHgSZCc.s:12981  .bss:0000000000000498 _ZN12_GLOBAL__N_152adderCheckEqualFailureIncludesCheckExpectedAndActualE
     /tmp/ccHgSZCc.s:12981  .bss:0000000000000460 _ZN12_GLOBAL__N_144testCheckEqualFailureIncludesDetailsInstanceE
     /tmp/ccHgSZCc.s:12977  .bss:0000000000000458 _ZN12_GLOBAL__N_137adderCheckEqualFailureIncludesDetailsE
     /tmp/ccHgSZCc.s:12977  .bss:0000000000000420 _ZN12_GLOBAL__N_126testCheckCloseTrueInstanceE
     /tmp/ccHgSZCc.s:12973  .bss:0000000000000418 _ZN12_GLOBAL__N_119adderCheckCloseTrueE
     /tmp/ccHgSZCc.s:12973  .bss:00000000000003e0 _ZN12_GLOBAL__N_127testCheckCloseFalseInstanceE
     /tmp/ccHgSZCc.s:12969  .bss:00000000000003d8 _ZN12_GLOBAL__N_120adderCheckCloseFalseE
     /tmp/ccHgSZCc.s:12969  .bss:00000000000003a0 _ZN12_GLOBAL__N_155testCheckCloseWithZeroEpsilonWorksForSameNumberInstanceE
     /tmp/ccHgSZCc.s:12965  .bss:0000000000000398 _ZN12_GLOBAL__N_148adderCheckCloseWithZeroEpsilonWorksForSameNumberE
     /tmp/ccHgSZCc.s:12965  .bss:0000000000000360 _ZN12_GLOBAL__N_134testCheckCloseWithNaNFailsInstanceE
     /tmp/ccHgSZCc.s:12961  .bss:0000000000000358 _ZN12_GLOBAL__N_127adderCheckCloseWithNaNFailsE
     /tmp/ccHgSZCc.s:12961  .bss:0000000000000320 _ZN12_GLOBAL__N_147testCheckCloseWithNaNAgainstItselfFailsInstanceE
     /tmp/ccHgSZCc.s:12957  .bss:0000000000000318 _ZN12_GLOBAL__N_140adderCheckCloseWithNaNAgainstItselfFailsE
     /tmp/ccHgSZCc.s:12957  .bss:00000000000002e0 _ZN12_GLOBAL__N_159testCheckCloseFailureIncludesCheckExpectedAndActualInstanceE
     /tmp/ccHgSZCc.s:12953  .bss:00000000000002d8 _ZN12_GLOBAL__N_152adderCheckCloseFailureIncludesCheckExpectedAndActualE
     /tmp/ccHgSZCc.s:12953  .bss:00000000000002a0 _ZN12_GLOBAL__N_146testCheckCloseFailureIncludesToleranceInstanceE
     /tmp/ccHgSZCc.s:12949  .bss:0000000000000298 _ZN12_GLOBAL__N_139adderCheckCloseFailureIncludesToleranceE
     /tmp/ccHgSZCc.s:12949  .bss:0000000000000260 _ZN12_GLOBAL__N_144testCheckCloseFailureIncludesDetailsInstanceE
     /tmp/ccHgSZCc.s:12945  .bss:0000000000000258 _ZN12_GLOBAL__N_137adderCheckCloseFailureIncludesDetailsE
     /tmp/ccHgSZCc.s:12945  .bss:0000000000000220 _ZN12_GLOBAL__N_131testCheckArrayEqualTrueInstanceE
     /tmp/ccHgSZCc.s:12941  .bss:0000000000000218 _ZN12_GLOBAL__N_124adderCheckArrayEqualTrueE
     /tmp/ccHgSZCc.s:12941  .bss:00000000000001e0 _ZN12_GLOBAL__N_132testCheckArrayEqualFalseInstanceE
     /tmp/ccHgSZCc.s:12937  .bss:00000000000001d8 _ZN12_GLOBAL__N_125adderCheckArrayEqualFalseE
     /tmp/ccHgSZCc.s:12937  .bss:00000000000001a0 _ZN12_GLOBAL__N_131testCheckArrayCloseTrueInstanceE
     /tmp/ccHgSZCc.s:12933  .bss:0000000000000198 _ZN12_GLOBAL__N_124adderCheckArrayCloseTrueE
     /tmp/ccHgSZCc.s:12933  .bss:0000000000000160 _ZN12_GLOBAL__N_132testCheckArrayCloseFalseInstanceE
     /tmp/ccHgSZCc.s:12929  .bss:0000000000000158 _ZN12_GLOBAL__N_125adderCheckArrayCloseFalseE
     /tmp/ccHgSZCc.s:12929  .bss:0000000000000120 _ZN12_GLOBAL__N_149testCheckArrayCloseFailureIncludesDetailsInstanceE
     /tmp/ccHgSZCc.s:12925  .bss:0000000000000118 _ZN12_GLOBAL__N_142adderCheckArrayCloseFailureIncludesDetailsE
     /tmp/ccHgSZCc.s:12925  .bss:00000000000000e0 _ZN12_GLOBAL__N_133testCheckArray2DCloseTrueInstanceE
     /tmp/ccHgSZCc.s:12921  .bss:00000000000000d8 _ZN12_GLOBAL__N_126adderCheckArray2DCloseTrueE
     /tmp/ccHgSZCc.s:12921  .bss:00000000000000a0 _ZN12_GLOBAL__N_134testCheckArray2DCloseFalseInstanceE
     /tmp/ccHgSZCc.s:12917  .bss:0000000000000098 _ZN12_GLOBAL__N_127adderCheckArray2DCloseFalseE
     /tmp/ccHgSZCc.s:12917  .bss:0000000000000060 _ZN12_GLOBAL__N_141testCheckCloseWithDoublesSucceedsInstanceE
     /tmp/ccHgSZCc.s:12913  .bss:0000000000000058 _ZN12_GLOBAL__N_134adderCheckCloseWithDoublesSucceedsE
     /tmp/ccHgSZCc.s:12913  .bss:0000000000000020 _ZN12_GLOBAL__N_151testCheckArray2DCloseFailureIncludesDetailsInstanceE
                             .bss:0000000000000000 _ZN12_GLOBAL__N_144adderCheckArray2DCloseFailureIncludesDetailsE
     /tmp/ccHgSZCc.s:12208  .rodata._ZTSN8UnitTest15MemoryOutStreamE:0000000000000000 _ZTSN8UnitTest15MemoryOutStreamE
     /tmp/ccHgSZCc.s:12215  .data.rel.ro._ZTIN8UnitTest15MemoryOutStreamE:0000000000000000 _ZTIN8UnitTest15MemoryOutStreamE
     /tmp/ccHgSZCc.s:12224  .rodata._ZTS17RecordingReporter:0000000000000000 _ZTS17RecordingReporter
     /tmp/ccHgSZCc.s:12231  .data.rel.ro._ZTI17RecordingReporter:0000000000000000 _ZTI17RecordingReporter
     /tmp/ccHgSZCc.s:12239  .data.rel.ro:0000000000000000 _ZTIN12_GLOBAL__N_130TestCheckEqualWithUnsignedLongE
     /tmp/ccHgSZCc.s:12247  .rodata:0000000000000000 _ZTSN12_GLOBAL__N_130TestCheckEqualWithUnsignedLongE
     /tmp/ccHgSZCc.s:12253  .data.rel.ro:0000000000000018 _ZTIN12_GLOBAL__N_149TestCheckEqualsWithStringsFailsOnDifferentStringsE
     /tmp/ccHgSZCc.s:12261  .rodata:0000000000000040 _ZTSN12_GLOBAL__N_149TestCheckEqualsWithStringsFailsOnDifferentStringsE
     /tmp/ccHgSZCc.s:12267  .data.rel.ro:0000000000000030 _ZTIN12_GLOBAL__N_157TestCheckEqualsWithStringsWorksOnContentsNonConstNonConstE
     /tmp/ccHgSZCc.s:12275  .rodata:00000000000000a0 _ZTSN12_GLOBAL__N_157TestCheckEqualsWithStringsWorksOnContentsNonConstNonConstE
     /tmp/ccHgSZCc.s:12281  .data.rel.ro:0000000000000048 _ZTIN12_GLOBAL__N_151TestCheckEqualsWithStringsWorksOnContentsConstConstE
     /tmp/ccHgSZCc.s:12289  .rodata:0000000000000100 _ZTSN12_GLOBAL__N_151TestCheckEqualsWithStringsWorksOnContentsConstConstE
     /tmp/ccHgSZCc.s:12295  .data.rel.ro:0000000000000060 _ZTIN12_GLOBAL__N_154TestCheckEqualsWithStringsWorksOnContentsNonConstConstE
     /tmp/ccHgSZCc.s:12303  .rodata:0000000000000160 _ZTSN12_GLOBAL__N_154TestCheckEqualsWithStringsWorksOnContentsNonConstConstE
     /tmp/ccHgSZCc.s:12309  .data.rel.ro:0000000000000078 _ZTIN12_GLOBAL__N_154TestCheckEqualsWithStringsWorksOnContentsConstNonConstE
     /tmp/ccHgSZCc.s:12317  .rodata:00000000000001c0 _ZTSN12_GLOBAL__N_154TestCheckEqualsWithStringsWorksOnContentsConstNonConstE
     /tmp/ccHgSZCc.s:12323  .data.rel.ro:0000000000000090 _ZTIN12_GLOBAL__N_153TestCheckEqualsWithStringsWorksOnContentsWithALiteralE
     /tmp/ccHgSZCc.s:12331  .rodata:0000000000000220 _ZTSN12_GLOBAL__N_153TestCheckEqualsWithStringsWorksOnContentsWithALiteralE
     /tmp/ccHgSZCc.s:12337  .data.rel.ro:00000000000000a8 _ZTIN12_GLOBAL__N_151TestCheckEqualFailureIncludesCheckExpectedAndActualE
     /tmp/ccHgSZCc.s:12345  .rodata:0000000000000280 _ZTSN12_GLOBAL__N_151TestCheckEqualFailureIncludesCheckExpectedAndActualE
     /tmp/ccHgSZCc.s:12351  .data.rel.ro:00000000000000c0 _ZTIN12_GLOBAL__N_136TestCheckEqualFailureIncludesDetailsE
     /tmp/ccHgSZCc.s:12359  .rodata:00000000000002e0 _ZTSN12_GLOBAL__N_136TestCheckEqualFailureIncludesDetailsE
     /tmp/ccHgSZCc.s:12365  .data.rel.ro:00000000000000d8 _ZTIN12_GLOBAL__N_118TestCheckCloseTrueE
     /tmp/ccHgSZCc.s:12373  .rodata:0000000000000320 _ZTSN12_GLOBAL__N_118TestCheckCloseTrueE
     /tmp/ccHgSZCc.s:12379  .data.rel.ro:00000000000000f0 _ZTIN12_GLOBAL__N_119TestCheckCloseFalseE
     /tmp/ccHgSZCc.s:12387  .rodata:0000000000000360 _ZTSN12_GLOBAL__N_119TestCheckCloseFalseE
     /tmp/ccHgSZCc.s:12393  .data.rel.ro:0000000000000108 _ZTIN12_GLOBAL__N_147TestCheckCloseWithZeroEpsilonWorksForSameNumberE
     /tmp/ccHgSZCc.s:12401  .rodata:00000000000003a0 _ZTSN12_GLOBAL__N_147TestCheckCloseWithZeroEpsilonWorksForSameNumberE
     /tmp/ccHgSZCc.s:12407  .data.rel.ro:0000000000000120 _ZTIN12_GLOBAL__N_126TestCheckCloseWithNaNFailsE
     /tmp/ccHgSZCc.s:12415  .rodata:0000000000000400 _ZTSN12_GLOBAL__N_126TestCheckCloseWithNaNFailsE
     /tmp/ccHgSZCc.s:12421  .data.rel.ro:0000000000000138 _ZTIN12_GLOBAL__N_139TestCheckCloseWithNaNAgainstItselfFailsE
     /tmp/ccHgSZCc.s:12429  .rodata:0000000000000440 _ZTSN12_GLOBAL__N_139TestCheckCloseWithNaNAgainstItselfFailsE
     /tmp/ccHgSZCc.s:12435  .data.rel.ro:0000000000000150 _ZTIN12_GLOBAL__N_151TestCheckCloseFailureIncludesCheckExpectedAndActualE
     /tmp/ccHgSZCc.s:12443  .rodata:0000000000000480 _ZTSN12_GLOBAL__N_151TestCheckCloseFailureIncludesCheckExpectedAndActualE
     /tmp/ccHgSZCc.s:12449  .data.rel.ro:0000000000000168 _ZTIN12_GLOBAL__N_138TestCheckCloseFailureIncludesToleranceE
     /tmp/ccHgSZCc.s:12457  .rodata:00000000000004e0 _ZTSN12_GLOBAL__N_138TestCheckCloseFailureIncludesToleranceE
     /tmp/ccHgSZCc.s:12463  .data.rel.ro:0000000000000180 _ZTIN12_GLOBAL__N_136TestCheckCloseFailureIncludesDetailsE
     /tmp/ccHgSZCc.s:12471  .rodata:0000000000000520 _ZTSN12_GLOBAL__N_136TestCheckCloseFailureIncludesDetailsE
     /tmp/ccHgSZCc.s:12477  .data.rel.ro:0000000000000198 _ZTIN12_GLOBAL__N_123TestCheckArrayEqualTrueE
     /tmp/ccHgSZCc.s:12485  .rodata:0000000000000560 _ZTSN12_GLOBAL__N_123TestCheckArrayEqualTrueE
     /tmp/ccHgSZCc.s:12491  .data.rel.ro:00000000000001b0 _ZTIN12_GLOBAL__N_124TestCheckArrayEqualFalseE
     /tmp/ccHgSZCc.s:12499  .rodata:00000000000005a0 _ZTSN12_GLOBAL__N_124TestCheckArrayEqualFalseE
     /tmp/ccHgSZCc.s:12505  .data.rel.ro:00000000000001c8 _ZTIN12_GLOBAL__N_123TestCheckArrayCloseTrueE
     /tmp/ccHgSZCc.s:12513  .rodata:00000000000005e0 _ZTSN12_GLOBAL__N_123TestCheckArrayCloseTrueE
     /tmp/ccHgSZCc.s:12519  .data.rel.ro:00000000000001e0 _ZTIN12_GLOBAL__N_124TestCheckArrayCloseFalseE
     /tmp/ccHgSZCc.s:12527  .rodata:0000000000000620 _ZTSN12_GLOBAL__N_124TestCheckArrayCloseFalseE
     /tmp/ccHgSZCc.s:12533  .data.rel.ro:00000000000001f8 _ZTIN12_GLOBAL__N_141TestCheckArrayCloseFailureIncludesDetailsE
     /tmp/ccHgSZCc.s:12541  .rodata:0000000000000660 _ZTSN12_GLOBAL__N_141TestCheckArrayCloseFailureIncludesDetailsE
     /tmp/ccHgSZCc.s:12547  .data.rel.ro:0000000000000210 _ZTIN12_GLOBAL__N_125TestCheckArray2DCloseTrueE
     /tmp/ccHgSZCc.s:12555  .rodata:00000000000006a0 _ZTSN12_GLOBAL__N_125TestCheckArray2DCloseTrueE
     /tmp/ccHgSZCc.s:12561  .data.rel.ro:0000000000000228 _ZTIN12_GLOBAL__N_126TestCheckArray2DCloseFalseE
     /tmp/ccHgSZCc.s:12569  .rodata:00000000000006e0 _ZTSN12_GLOBAL__N_126TestCheckArray2DCloseFalseE
     /tmp/ccHgSZCc.s:12575  .data.rel.ro:0000000000000240 _ZTIN12_GLOBAL__N_133TestCheckCloseWithDoublesSucceedsE
     /tmp/ccHgSZCc.s:12583  .rodata:0000000000000720 _ZTSN12_GLOBAL__N_133TestCheckCloseWithDoublesSucceedsE
     /tmp/ccHgSZCc.s:12589  .data.rel.ro:0000000000000258 _ZTIN12_GLOBAL__N_143TestCheckArray2DCloseFailureIncludesDetailsE
     /tmp/ccHgSZCc.s:12597  .rodata:0000000000000760 _ZTSN12_GLOBAL__N_143TestCheckArray2DCloseFailureIncludesDetailsE
     /tmp/ccHgSZCc.s:12638  .data.rel.ro.local._ZTTN8UnitTest15MemoryOutStreamE:0000000000000000 _ZTTN8UnitTest15MemoryOutStreamE
     /tmp/ccHgSZCc.s:13036  .rodata.cst16:0000000000000000 .LC92
     /tmp/ccHgSZCc.s:13036  .rodata.cst16:0000000000000000 .LC50
     /tmp/ccHgSZCc.s:13048  .rodata.cst16:0000000000000020 .LC94
     /tmp/ccHgSZCc.s:13048  .rodata.cst16:0000000000000020 .LC53
     /tmp/ccHgSZCc.s:3418   .rodata.str1.1:0000000000000000 .LC26
     /tmp/ccHgSZCc.s:3422   .rodata.str1.1:000000000000000f .LC28
     /tmp/ccHgSZCc.s:3424   .rodata.str1.1:0000000000000011 .LC29
     /tmp/ccHgSZCc.s:3420   .rodata.str1.1:000000000000000c .LC27
     /tmp/ccHgSZCc.s:3426   .rodata.str1.1:0000000000000014 .LC30
     /tmp/ccHgSZCc.s:3428   .rodata.str1.1:000000000000001b .LC31
     /tmp/ccHgSZCc.s:3430   .rodata.str1.1:0000000000000027 .LC32
     /tmp/ccHgSZCc.s:4236   .rodata.str1.1:0000000000000029 .LC41
     /tmp/ccHgSZCc.s:5193   .rodata.str1.1:000000000000003b .LC48
     /tmp/ccHgSZCc.s:5195   .rodata.str1.1:000000000000004d .LC49
     /tmp/ccHgSZCc.s:5191   .rodata.str1.1:0000000000000036 .LC47
     /tmp/ccHgSZCc.s:13042  .rodata.cst16:0000000000000010 .LC51
     /tmp/ccHgSZCc.s:13054  .rodata.cst16:0000000000000030 .LC54
     /tmp/ccHgSZCc.s:5631   .rodata.str1.1:000000000000005e .LC62
     /tmp/ccHgSZCc.s:6046   .rodata.str1.1:0000000000000066 .LC69
     /tmp/ccHgSZCc.s:6048   .rodata.str1.1:000000000000006e .LC70
     /tmp/ccHgSZCc.s:6044   .rodata.str1.1:000000000000005f .LC68
     /tmp/ccHgSZCc.s:6476   .rodata.str1.1:0000000000000075 .LC76
     /tmp/ccHgSZCc.s:6483   .rodata.str1.1:000000000000007f .LC78
     /tmp/ccHgSZCc.s:6487   .rodata.str1.8:0000000000000388 .LC79
     /tmp/ccHgSZCc.s:6480   .rodata.str1.8:0000000000000358 .LC77
     /tmp/ccHgSZCc.s:6806   .rodata.str1.1:0000000000000085 .LC83
     /tmp/ccHgSZCc.s:7907   .rodata.str1.1:000000000000008b .LC90
     /tmp/ccHgSZCc.s:7909   .rodata.str1.1:000000000000009b .LC91
     /tmp/ccHgSZCc.s:13063  .rodata.cst8:0000000000000000 .LC102
     /tmp/ccHgSZCc.s:9549   .rodata.str1.1:00000000000000aa .LC110
     /tmp/ccHgSZCc.s:9556   .rodata.str1.1:00000000000000b6 .LC112
     /tmp/ccHgSZCc.s:9560   .rodata.str1.8:0000000000000578 .LC113
     /tmp/ccHgSZCc.s:9553   .rodata.str1.8:0000000000000540 .LC111
     /tmp/ccHgSZCc.s:10938  .rodata.str1.1:00000000000000be .LC125
     /tmp/ccHgSZCc.s:11362  .rodata.str1.1:00000000000000c7 .LC129
     /tmp/ccHgSZCc.s:11366  .rodata.str1.8:00000000000006d0 .LC130
     /tmp/ccHgSZCc.s:3905   .rodata.str1.8:0000000000000000 .LC37
     /tmp/ccHgSZCc.s:4072   .rodata.str1.8:0000000000000030 .LC39
     /tmp/ccHgSZCc.s:5208   .rodata.str1.8:0000000000000160 .LC60
     /tmp/ccHgSZCc.s:5205   .rodata.str1.8:0000000000000118 .LC59
     /tmp/ccHgSZCc.s:5202   .rodata.str1.8:00000000000000c0 .LC58
     /tmp/ccHgSZCc.s:5199   .rodata.str1.8:0000000000000070 .LC57
     /tmp/ccHgSZCc.s:5635   .rodata.str1.8:00000000000001a8 .LC63
     /tmp/ccHgSZCc.s:5840   .rodata.str1.8:00000000000001f0 .LC66
     /tmp/ccHgSZCc.s:6061   .rodata.str1.8:0000000000000310 .LC74
     /tmp/ccHgSZCc.s:6058   .rodata.str1.8:00000000000002c8 .LC73
     /tmp/ccHgSZCc.s:6055   .rodata.str1.8:0000000000000280 .LC72
     /tmp/ccHgSZCc.s:6052   .rodata.str1.8:0000000000000238 .LC71
     /tmp/ccHgSZCc.s:6490   .rodata.str1.8:00000000000003b8 .LC80
     /tmp/ccHgSZCc.s:6493   .rodata.str1.8:0000000000000408 .LC81
     /tmp/ccHgSZCc.s:7919   .rodata.str1.8:00000000000004f8 .LC98
     /tmp/ccHgSZCc.s:7916   .rodata.str1.8:00000000000004a8 .LC97
     /tmp/ccHgSZCc.s:7913   .rodata.str1.8:0000000000000458 .LC96
     /tmp/ccHgSZCc.s:9563   .rodata.str1.8:00000000000005a8 .LC114
     /tmp/ccHgSZCc.s:9566   .rodata.str1.8:00000000000005f8 .LC115
     /tmp/ccHgSZCc.s:10945  .rodata.str1.8:0000000000000690 .LC127
     /tmp/ccHgSZCc.s:10942  .rodata.str1.8:0000000000000648 .LC126
     /tmp/ccHgSZCc.s:11369  .rodata.str1.8:0000000000000700 .LC131
     /tmp/ccHgSZCc.s:4937   .rodata._ZN8UnitTest10CheckEqualIiiEEvRNS_11TestResultsERKT_RKT0_RKNS_11TestDetailsE.str1.1:0000000000000000 .LC44
     /tmp/ccHgSZCc.s:4939   .rodata._ZN8UnitTest10CheckEqualIiiEEvRNS_11TestResultsERKT_RKT0_RKNS_11TestDetailsE.str1.1:000000000000000a .LC45
     /tmp/ccHgSZCc.s:9281   .rodata._ZN8UnitTest10CheckCloseIfffEEvRNS_11TestResultsERKT_RKT0_RKT1_RKNS_11TestDetailsE.str1.1:0000000000000000 .LC106
     /tmp/ccHgSZCc.s:11619  .rodata.str1.1:00000000000000e8 .LC135
     /tmp/ccHgSZCc.s:11615  .rodata.str1.1:00000000000000cc .LC133
     /tmp/ccHgSZCc.s:11617  .rodata.str1.1:00000000000000db .LC134
     /tmp/ccHgSZCc.s:11623  .rodata.str1.8:0000000000000750 .LC136
     /tmp/ccHgSZCc.s:11626  .rodata.str1.8:0000000000000780 .LC137
     /tmp/ccHgSZCc.s:11629  .rodata.str1.8:00000000000007b8 .LC138
     /tmp/ccHgSZCc.s:11632  .rodata.str1.8:00000000000007e8 .LC139
     /tmp/ccHgSZCc.s:11635  .rodata.str1.8:0000000000000820 .LC140
     /tmp/ccHgSZCc.s:11638  .rodata.str1.8:0000000000000858 .LC141
     /tmp/ccHgSZCc.s:11641  .rodata.str1.8:0000000000000890 .LC142
     /tmp/ccHgSZCc.s:11644  .rodata.str1.8:00000000000008c0 .LC143
     /tmp/ccHgSZCc.s:11647  .rodata.str1.1:0000000000000103 .LC144
     /tmp/ccHgSZCc.s:11649  .rodata.str1.1:0000000000000112 .LC145
     /tmp/ccHgSZCc.s:11653  .rodata.str1.8:00000000000008e8 .LC146
     /tmp/ccHgSZCc.s:11656  .rodata.str1.1:0000000000000122 .LC147
     /tmp/ccHgSZCc.s:11660  .rodata.str1.8:0000000000000918 .LC148
     /tmp/ccHgSZCc.s:11663  .rodata.str1.8:0000000000000940 .LC149
     /tmp/ccHgSZCc.s:11666  .rodata.str1.8:0000000000000970 .LC150
     /tmp/ccHgSZCc.s:11669  .rodata.str1.8:0000000000000998 .LC151
     /tmp/ccHgSZCc.s:11672  .rodata.str1.1:0000000000000139 .LC152
     /tmp/ccHgSZCc.s:11674  .rodata.str1.1:000000000000014d .LC153
     /tmp/ccHgSZCc.s:11676  .rodata.str1.1:0000000000000162 .LC154
     /tmp/ccHgSZCc.s:11678  .rodata.str1.1:0000000000000176 .LC155
     /tmp/ccHgSZCc.s:11682  .rodata.str1.8:00000000000009c0 .LC156
     /tmp/ccHgSZCc.s:11685  .rodata.str1.1:000000000000018b .LC157
     /tmp/ccHgSZCc.s:11687  .rodata.str1.1:00000000000001a1 .LC158
     /tmp/ccHgSZCc.s:11689  .rodata.str1.1:00000000000001b8 .LC159
     /tmp/ccHgSZCc.s:11693  .rodata.str1.8:00000000000009e8 .LC160
                           .group:0000000000000000 _ZN17RecordingReporterD5Ev
                           .group:0000000000000000 _ZNSt7__cxx1115basic_stringbufIcSt11char_traitsIcESaIcEED5Ev

UNDEFINED SYMBOLS
_ZN8UnitTest4TestD2Ev
__strcpy_chk
_ZdlPv
__gxx_personality_v0
_Unwind_Resume
_ZN8UnitTest12TestReporterD2Ev
_ZTVNSt7__cxx1115basic_stringbufIcSt11char_traitsIcESaIcEEE
_ZTVSt15basic_streambufIcSt11char_traitsIcEE
_ZNSt6localeD1Ev
_ZTVSt9basic_iosIcSt11char_traitsIcEE
_ZNSt8ios_baseD2Ev
_ZNSt8ios_baseC2Ev
_ZNSt9basic_iosIcSt11char_traitsIcEE4initEPSt15basic_streambufIcS1_E
_ZNSt6localeC1Ev
_ZSt16__ostream_insertIcSt11char_traitsIcEERSt13basic_ostreamIT_T0_ES6_PKS3_l
_ZNSo9_M_insertIdEERSoT_
_ZNK8UnitTest15MemoryOutStream7GetTextEv
_ZN8UnitTest11TestResults13OnTestFailureERKNS_11TestDetailsEPKc
__stack_chk_fail
_ZN8UnitTest11CurrentTest7DetailsEv
_ZN8UnitTest11TestDetailsC1ERKS0_i
_ZN8UnitTest11CurrentTest7ResultsEv
__cxa_begin_catch
__cxa_end_catch
_ZN8UnitTest11TestResultsC1EPNS_12TestReporterE
_ZNSolsEi
_ZN8UnitTest11TestDetailsC1EPKcS2_S2_i
_ZN8UnitTest10CheckEqualERNS_11TestResultsEPKcPcRKNS_11TestDetailsE
_ZNK8UnitTest11TestResults15GetFailureCountEv
strstr
_ZN8UnitTest10CheckEqualERNS_11TestResultsEPKcS3_RKNS_11TestDetailsE
_ZN8UnitTest10CheckEqualERNS_11TestResultsEPcPKcRKNS_11TestDetailsE
_ZN8UnitTest10CheckEqualERNS_11TestResultsEPcS2_RKNS_11TestDetailsE
__dso_handle
_ZN8UnitTest4TestC2EPKcS2_S2_i
__cxa_atexit
_ZN8UnitTest4Test11GetTestListEv
_ZN8UnitTest9ListAdderC1ERNS_8TestListEPNS_4TestE
_ZTVN10__cxxabiv120__si_class_type_infoE
_ZTINSt7__cxx1119basic_ostringstreamIcSt11char_traitsIcESaIcEEE
_ZTIN8UnitTest12TestReporterE
_ZTIN8UnitTest4TestE
_ZTISo
