   1              		.file	"TestMemoryOutStream.cpp"
   2              		.text
   3              		.align 2
   4              		.p2align 4
   6              	_ZN12_GLOBAL__N_141TestStreamingSizeTWritesCorrectCharactersD2Ev:
   7              	.LFB1340:
   8              		.cfi_startproc
   9 0000 F30F1EFA 		endbr64
  10 0004 488D0500 		leaq	16+_ZTVN12_GLOBAL__N_141TestStreamingSizeTWritesCorrectCharactersE(%rip), %rax
  10      000000
  11 000b 488907   		movq	%rax, (%rdi)
  12 000e E9000000 		jmp	_ZN8UnitTest4TestD2Ev@PLT
  12      00
  13              		.cfi_endproc
  14              	.LFE1340:
  16              		.set	_ZN12_GLOBAL__N_141TestStreamingSizeTWritesCorrectCharactersD1Ev,_ZN12_GLOBAL__N_141TestStrea
  17 0013 90       		.align 2
  18 0014 66662E0F 		.p2align 4
  18      1F840000 
  18      00000090 
  20              	_ZN12_GLOBAL__N_143TestStreamingPointerWritesCorrectCharactersD2Ev:
  21              	.LFB1344:
  22              		.cfi_startproc
  23 0020 F30F1EFA 		endbr64
  24 0024 488D0500 		leaq	16+_ZTVN12_GLOBAL__N_143TestStreamingPointerWritesCorrectCharactersE(%rip), %rax
  24      000000
  25 002b 488907   		movq	%rax, (%rdi)
  26 002e E9000000 		jmp	_ZN8UnitTest4TestD2Ev@PLT
  26      00
  27              		.cfi_endproc
  28              	.LFE1344:
  30              		.set	_ZN12_GLOBAL__N_143TestStreamingPointerWritesCorrectCharactersD1Ev,_ZN12_GLOBAL__N_143TestStr
  31 0033 90       		.align 2
  32 0034 66662E0F 		.p2align 4
  32      1F840000 
  32      00000090 
  34              	_ZN12_GLOBAL__N_142TestStreamingDoubleWritesCorrectCharactersD2Ev:
  35              	.LFB1348:
  36              		.cfi_startproc
  37 0040 F30F1EFA 		endbr64
  38 0044 488D0500 		leaq	16+_ZTVN12_GLOBAL__N_142TestStreamingDoubleWritesCorrectCharactersE(%rip), %rax
  38      000000
  39 004b 488907   		movq	%rax, (%rdi)
  40 004e E9000000 		jmp	_ZN8UnitTest4TestD2Ev@PLT
  40      00
  41              		.cfi_endproc
  42              	.LFE1348:
  44              		.set	_ZN12_GLOBAL__N_142TestStreamingDoubleWritesCorrectCharactersD1Ev,_ZN12_GLOBAL__N_142TestStre
  45 0053 90       		.align 2
  46 0054 66662E0F 		.p2align 4
  46      1F840000 
  46      00000090 
  48              	_ZN12_GLOBAL__N_141TestStreamingFloatWritesCorrectCharactersD2Ev:
  49              	.LFB1352:
  50              		.cfi_startproc
  51 0060 F30F1EFA 		endbr64
  52 0064 488D0500 		leaq	16+_ZTVN12_GLOBAL__N_141TestStreamingFloatWritesCorrectCharactersE(%rip), %rax
  52      000000
  53 006b 488907   		movq	%rax, (%rdi)
  54 006e E9000000 		jmp	_ZN8UnitTest4TestD2Ev@PLT
  54      00
  55              		.cfi_endproc
  56              	.LFE1352:
  58              		.set	_ZN12_GLOBAL__N_141TestStreamingFloatWritesCorrectCharactersD1Ev,_ZN12_GLOBAL__N_141TestStrea
  59 0073 90       		.align 2
  60 0074 66662E0F 		.p2align 4
  60      1F840000 
  60      00000090 
  62              	_ZN12_GLOBAL__N_148TestStreamingUnsignedLongWritesCorrectCharactersD2Ev:
  63              	.LFB1356:
  64              		.cfi_startproc
  65 0080 F30F1EFA 		endbr64
  66 0084 488D0500 		leaq	16+_ZTVN12_GLOBAL__N_148TestStreamingUnsignedLongWritesCorrectCharactersE(%rip), %rax
  66      000000
  67 008b 488907   		movq	%rax, (%rdi)
  68 008e E9000000 		jmp	_ZN8UnitTest4TestD2Ev@PLT
  68      00
  69              		.cfi_endproc
  70              	.LFE1356:
  72              		.set	_ZN12_GLOBAL__N_148TestStreamingUnsignedLongWritesCorrectCharactersD1Ev,_ZN12_GLOBAL__N_148Te
  73 0093 90       		.align 2
  74 0094 66662E0F 		.p2align 4
  74      1F840000 
  74      00000090 
  76              	_ZN12_GLOBAL__N_140TestStreamingLongWritesCorrectCharactersD2Ev:
  77              	.LFB1360:
  78              		.cfi_startproc
  79 00a0 F30F1EFA 		endbr64
  80 00a4 488D0500 		leaq	16+_ZTVN12_GLOBAL__N_140TestStreamingLongWritesCorrectCharactersE(%rip), %rax
  80      000000
  81 00ab 488907   		movq	%rax, (%rdi)
  82 00ae E9000000 		jmp	_ZN8UnitTest4TestD2Ev@PLT
  82      00
  83              		.cfi_endproc
  84              	.LFE1360:
  86              		.set	_ZN12_GLOBAL__N_140TestStreamingLongWritesCorrectCharactersD1Ev,_ZN12_GLOBAL__N_140TestStream
  87 00b3 90       		.align 2
  88 00b4 66662E0F 		.p2align 4
  88      1F840000 
  88      00000090 
  90              	_ZN12_GLOBAL__N_147TestStreamingUnsignedIntWritesCorrectCharactersD2Ev:
  91              	.LFB1364:
  92              		.cfi_startproc
  93 00c0 F30F1EFA 		endbr64
  94 00c4 488D0500 		leaq	16+_ZTVN12_GLOBAL__N_147TestStreamingUnsignedIntWritesCorrectCharactersE(%rip), %rax
  94      000000
  95 00cb 488907   		movq	%rax, (%rdi)
  96 00ce E9000000 		jmp	_ZN8UnitTest4TestD2Ev@PLT
  96      00
  97              		.cfi_endproc
  98              	.LFE1364:
 100              		.set	_ZN12_GLOBAL__N_147TestStreamingUnsignedIntWritesCorrectCharactersD1Ev,_ZN12_GLOBAL__N_147Tes
 101 00d3 90       		.align 2
 102 00d4 66662E0F 		.p2align 4
 102      1F840000 
 102      00000090 
 104              	_ZN12_GLOBAL__N_139TestStreamingIntWritesCorrectCharactersD2Ev:
 105              	.LFB1368:
 106              		.cfi_startproc
 107 00e0 F30F1EFA 		endbr64
 108 00e4 488D0500 		leaq	16+_ZTVN12_GLOBAL__N_139TestStreamingIntWritesCorrectCharactersE(%rip), %rax
 108      000000
 109 00eb 488907   		movq	%rax, (%rdi)
 110 00ee E9000000 		jmp	_ZN8UnitTest4TestD2Ev@PLT
 110      00
 111              		.cfi_endproc
 112              	.LFE1368:
 114              		.set	_ZN12_GLOBAL__N_139TestStreamingIntWritesCorrectCharactersD1Ev,_ZN12_GLOBAL__N_139TestStreami
 115 00f3 90       		.align 2
 116 00f4 66662E0F 		.p2align 4
 116      1F840000 
 116      00000090 
 118              	_ZN12_GLOBAL__N_144TestStreamingMultipleTimesConcatenatesResultD2Ev:
 119              	.LFB1372:
 120              		.cfi_startproc
 121 0100 F30F1EFA 		endbr64
 122 0104 488D0500 		leaq	16+_ZTVN12_GLOBAL__N_144TestStreamingMultipleTimesConcatenatesResultE(%rip), %rax
 122      000000
 123 010b 488907   		movq	%rax, (%rdi)
 124 010e E9000000 		jmp	_ZN8UnitTest4TestD2Ev@PLT
 124      00
 125              		.cfi_endproc
 126              	.LFE1372:
 128              		.set	_ZN12_GLOBAL__N_144TestStreamingMultipleTimesConcatenatesResultD1Ev,_ZN12_GLOBAL__N_144TestSt
 129 0113 90       		.align 2
 130 0114 66662E0F 		.p2align 4
 130      1F840000 
 130      00000090 
 132              	_ZN12_GLOBAL__N_133TestStreamingTextCopiesCharactersD2Ev:
 133              	.LFB1376:
 134              		.cfi_startproc
 135 0120 F30F1EFA 		endbr64
 136 0124 488D0500 		leaq	16+_ZTVN12_GLOBAL__N_133TestStreamingTextCopiesCharactersE(%rip), %rax
 136      000000
 137 012b 488907   		movq	%rax, (%rdi)
 138 012e E9000000 		jmp	_ZN8UnitTest4TestD2Ev@PLT
 138      00
 139              		.cfi_endproc
 140              	.LFE1376:
 142              		.set	_ZN12_GLOBAL__N_133TestStreamingTextCopiesCharactersD1Ev,_ZN12_GLOBAL__N_133TestStreamingText
 143 0133 90       		.align 2
 144 0134 66662E0F 		.p2align 4
 144      1F840000 
 144      00000090 
 146              	_ZN12_GLOBAL__N_124TestDefaultIsEmptyStringD2Ev:
 147              	.LFB1380:
 148              		.cfi_startproc
 149 0140 F30F1EFA 		endbr64
 150 0144 488D0500 		leaq	16+_ZTVN12_GLOBAL__N_124TestDefaultIsEmptyStringE(%rip), %rax
 150      000000
 151 014b 488907   		movq	%rax, (%rdi)
 152 014e E9000000 		jmp	_ZN8UnitTest4TestD2Ev@PLT
 152      00
 153              		.cfi_endproc
 154              	.LFE1380:
 156              		.set	_ZN12_GLOBAL__N_124TestDefaultIsEmptyStringD1Ev,_ZN12_GLOBAL__N_124TestDefaultIsEmptyStringD2
 157              		.section	.text.unlikely,"ax",@progbits
 158              		.align 2
 159              	.LCOLDB0:
 160              		.text
 161              	.LHOTB0:
 162 0153 90       		.align 2
 163 0154 66662E0F 		.p2align 4
 163      1F840000 
 163      00000090 
 165              	_ZN12_GLOBAL__N_141TestStreamingSizeTWritesCorrectCharactersD0Ev:
 166              	.LFB1342:
 167              		.cfi_startproc
 168              		.cfi_personality 0x9b,DW.ref.__gxx_personality_v0
 169              		.cfi_lsda 0x1b,.LLSDA1342
 170 0160 F30F1EFA 		endbr64
 171 0164 4154     		pushq	%r12
 172              		.cfi_def_cfa_offset 16
 173              		.cfi_offset 12, -16
 174 0166 488D0500 		leaq	16+_ZTVN12_GLOBAL__N_141TestStreamingSizeTWritesCorrectCharactersE(%rip), %rax
 174      000000
 175 016d 55       		pushq	%rbp
 176              		.cfi_def_cfa_offset 24
 177              		.cfi_offset 6, -24
 178 016e 4889FD   		movq	%rdi, %rbp
 179 0171 4883EC08 		subq	$8, %rsp
 180              		.cfi_def_cfa_offset 32
 181 0175 488907   		movq	%rax, (%rdi)
 182              	.LEHB0:
 183 0178 E8000000 		call	_ZN8UnitTest4TestD2Ev@PLT
 183      00
 184              	.LEHE0:
 185 017d 4883C408 		addq	$8, %rsp
 186              		.cfi_remember_state
 187              		.cfi_def_cfa_offset 24
 188 0181 4889EF   		movq	%rbp, %rdi
 189 0184 5D       		popq	%rbp
 190              		.cfi_def_cfa_offset 16
 191 0185 415C     		popq	%r12
 192              		.cfi_def_cfa_offset 8
 193 0187 E9000000 		jmp	_ZdlPv@PLT
 193      00
 194              	.L15:
 195              		.cfi_restore_state
 196 018c F30F1EFA 		endbr64
 197 0190 4989C4   		movq	%rax, %r12
 198 0193 E9000000 		jmp	.L14
 198      00
 199              		.globl	__gxx_personality_v0
 200              		.section	.gcc_except_table,"a",@progbits
 201              	.LLSDA1342:
 202 0000 FF       		.byte	0xff
 203 0001 FF       		.byte	0xff
 204 0002 01       		.byte	0x1
 205 0003 04       		.uleb128 .LLSDACSE1342-.LLSDACSB1342
 206              	.LLSDACSB1342:
 207 0004 18       		.uleb128 .LEHB0-.LFB1342
 208 0005 05       		.uleb128 .LEHE0-.LEHB0
 209 0006 2C       		.uleb128 .L15-.LFB1342
 210 0007 00       		.uleb128 0
 211              	.LLSDACSE1342:
 212              		.text
 213              		.cfi_endproc
 214              		.section	.text.unlikely
 215              		.cfi_startproc
 216              		.cfi_personality 0x9b,DW.ref.__gxx_personality_v0
 217              		.cfi_lsda 0x1b,.LLSDAC1342
 219              	_ZN12_GLOBAL__N_141TestStreamingSizeTWritesCorrectCharactersD0Ev.cold:
 220              	.LFSB1342:
 221              	.L14:
 222              		.cfi_def_cfa_offset 32
 223              		.cfi_offset 6, -24
 224              		.cfi_offset 12, -16
 225 0000 4889EF   		movq	%rbp, %rdi
 226 0003 E8000000 		call	_ZdlPv@PLT
 226      00
 227 0008 4C89E7   		movq	%r12, %rdi
 228              	.LEHB1:
 229 000b E8000000 		call	_Unwind_Resume@PLT
 229      00
 230              	.LEHE1:
 231              		.cfi_endproc
 232              	.LFE1342:
 233              		.section	.gcc_except_table
 234              	.LLSDAC1342:
 235 0008 FF       		.byte	0xff
 236 0009 FF       		.byte	0xff
 237 000a 01       		.byte	0x1
 238 000b 04       		.uleb128 .LLSDACSEC1342-.LLSDACSBC1342
 239              	.LLSDACSBC1342:
 240 000c 0B       		.uleb128 .LEHB1-.LCOLDB0
 241 000d 05       		.uleb128 .LEHE1-.LEHB1
 242 000e 00       		.uleb128 0
 243 000f 00       		.uleb128 0
 244              	.LLSDACSEC1342:
 245              		.section	.text.unlikely
 246              		.text
 248              		.section	.text.unlikely
 250              	.LCOLDE0:
 251              		.text
 252              	.LHOTE0:
 253              		.section	.text.unlikely
 254              		.align 2
 255              	.LCOLDB1:
 256              		.text
 257              	.LHOTB1:
 258              		.align 2
 259 0198 0F1F8400 		.p2align 4
 259      00000000 
 261              	_ZN12_GLOBAL__N_143TestStreamingPointerWritesCorrectCharactersD0Ev:
 262              	.LFB1346:
 263              		.cfi_startproc
 264              		.cfi_personality 0x9b,DW.ref.__gxx_personality_v0
 265              		.cfi_lsda 0x1b,.LLSDA1346
 266 01a0 F30F1EFA 		endbr64
 267 01a4 4154     		pushq	%r12
 268              		.cfi_def_cfa_offset 16
 269              		.cfi_offset 12, -16
 270 01a6 488D0500 		leaq	16+_ZTVN12_GLOBAL__N_143TestStreamingPointerWritesCorrectCharactersE(%rip), %rax
 270      000000
 271 01ad 55       		pushq	%rbp
 272              		.cfi_def_cfa_offset 24
 273              		.cfi_offset 6, -24
 274 01ae 4889FD   		movq	%rdi, %rbp
 275 01b1 4883EC08 		subq	$8, %rsp
 276              		.cfi_def_cfa_offset 32
 277 01b5 488907   		movq	%rax, (%rdi)
 278              	.LEHB2:
 279 01b8 E8000000 		call	_ZN8UnitTest4TestD2Ev@PLT
 279      00
 280              	.LEHE2:
 281 01bd 4883C408 		addq	$8, %rsp
 282              		.cfi_remember_state
 283              		.cfi_def_cfa_offset 24
 284 01c1 4889EF   		movq	%rbp, %rdi
 285 01c4 5D       		popq	%rbp
 286              		.cfi_def_cfa_offset 16
 287 01c5 415C     		popq	%r12
 288              		.cfi_def_cfa_offset 8
 289 01c7 E9000000 		jmp	_ZdlPv@PLT
 289      00
 290              	.L19:
 291              		.cfi_restore_state
 292 01cc F30F1EFA 		endbr64
 293 01d0 4989C4   		movq	%rax, %r12
 294 01d3 E9000000 		jmp	.L18
 294      00
 295              		.section	.gcc_except_table
 296              	.LLSDA1346:
 297 0010 FF       		.byte	0xff
 298 0011 FF       		.byte	0xff
 299 0012 01       		.byte	0x1
 300 0013 04       		.uleb128 .LLSDACSE1346-.LLSDACSB1346
 301              	.LLSDACSB1346:
 302 0014 18       		.uleb128 .LEHB2-.LFB1346
 303 0015 05       		.uleb128 .LEHE2-.LEHB2
 304 0016 2C       		.uleb128 .L19-.LFB1346
 305 0017 00       		.uleb128 0
 306              	.LLSDACSE1346:
 307              		.text
 308              		.cfi_endproc
 309              		.section	.text.unlikely
 310              		.cfi_startproc
 311              		.cfi_personality 0x9b,DW.ref.__gxx_personality_v0
 312              		.cfi_lsda 0x1b,.LLSDAC1346
 314              	_ZN12_GLOBAL__N_143TestStreamingPointerWritesCorrectCharactersD0Ev.cold:
 315              	.LFSB1346:
 316              	.L18:
 317              		.cfi_def_cfa_offset 32
 318              		.cfi_offset 6, -24
 319              		.cfi_offset 12, -16
 320 0010 4889EF   		movq	%rbp, %rdi
 321 0013 E8000000 		call	_ZdlPv@PLT
 321      00
 322 0018 4C89E7   		movq	%r12, %rdi
 323              	.LEHB3:
 324 001b E8000000 		call	_Unwind_Resume@PLT
 324      00
 325              	.LEHE3:
 326              		.cfi_endproc
 327              	.LFE1346:
 328              		.section	.gcc_except_table
 329              	.LLSDAC1346:
 330 0018 FF       		.byte	0xff
 331 0019 FF       		.byte	0xff
 332 001a 01       		.byte	0x1
 333 001b 04       		.uleb128 .LLSDACSEC1346-.LLSDACSBC1346
 334              	.LLSDACSBC1346:
 335 001c 0B       		.uleb128 .LEHB3-.LCOLDB1
 336 001d 05       		.uleb128 .LEHE3-.LEHB3
 337 001e 00       		.uleb128 0
 338 001f 00       		.uleb128 0
 339              	.LLSDACSEC1346:
 340              		.section	.text.unlikely
 341              		.text
 343              		.section	.text.unlikely
 345              	.LCOLDE1:
 346              		.text
 347              	.LHOTE1:
 348              		.section	.text.unlikely
 349              		.align 2
 350              	.LCOLDB2:
 351              		.text
 352              	.LHOTB2:
 353              		.align 2
 354 01d8 0F1F8400 		.p2align 4
 354      00000000 
 356              	_ZN12_GLOBAL__N_142TestStreamingDoubleWritesCorrectCharactersD0Ev:
 357              	.LFB1350:
 358              		.cfi_startproc
 359              		.cfi_personality 0x9b,DW.ref.__gxx_personality_v0
 360              		.cfi_lsda 0x1b,.LLSDA1350
 361 01e0 F30F1EFA 		endbr64
 362 01e4 4154     		pushq	%r12
 363              		.cfi_def_cfa_offset 16
 364              		.cfi_offset 12, -16
 365 01e6 488D0500 		leaq	16+_ZTVN12_GLOBAL__N_142TestStreamingDoubleWritesCorrectCharactersE(%rip), %rax
 365      000000
 366 01ed 55       		pushq	%rbp
 367              		.cfi_def_cfa_offset 24
 368              		.cfi_offset 6, -24
 369 01ee 4889FD   		movq	%rdi, %rbp
 370 01f1 4883EC08 		subq	$8, %rsp
 371              		.cfi_def_cfa_offset 32
 372 01f5 488907   		movq	%rax, (%rdi)
 373              	.LEHB4:
 374 01f8 E8000000 		call	_ZN8UnitTest4TestD2Ev@PLT
 374      00
 375              	.LEHE4:
 376 01fd 4883C408 		addq	$8, %rsp
 377              		.cfi_remember_state
 378              		.cfi_def_cfa_offset 24
 379 0201 4889EF   		movq	%rbp, %rdi
 380 0204 5D       		popq	%rbp
 381              		.cfi_def_cfa_offset 16
 382 0205 415C     		popq	%r12
 383              		.cfi_def_cfa_offset 8
 384 0207 E9000000 		jmp	_ZdlPv@PLT
 384      00
 385              	.L23:
 386              		.cfi_restore_state
 387 020c F30F1EFA 		endbr64
 388 0210 4989C4   		movq	%rax, %r12
 389 0213 E9000000 		jmp	.L22
 389      00
 390              		.section	.gcc_except_table
 391              	.LLSDA1350:
 392 0020 FF       		.byte	0xff
 393 0021 FF       		.byte	0xff
 394 0022 01       		.byte	0x1
 395 0023 04       		.uleb128 .LLSDACSE1350-.LLSDACSB1350
 396              	.LLSDACSB1350:
 397 0024 18       		.uleb128 .LEHB4-.LFB1350
 398 0025 05       		.uleb128 .LEHE4-.LEHB4
 399 0026 2C       		.uleb128 .L23-.LFB1350
 400 0027 00       		.uleb128 0
 401              	.LLSDACSE1350:
 402              		.text
 403              		.cfi_endproc
 404              		.section	.text.unlikely
 405              		.cfi_startproc
 406              		.cfi_personality 0x9b,DW.ref.__gxx_personality_v0
 407              		.cfi_lsda 0x1b,.LLSDAC1350
 409              	_ZN12_GLOBAL__N_142TestStreamingDoubleWritesCorrectCharactersD0Ev.cold:
 410              	.LFSB1350:
 411              	.L22:
 412              		.cfi_def_cfa_offset 32
 413              		.cfi_offset 6, -24
 414              		.cfi_offset 12, -16
 415 0020 4889EF   		movq	%rbp, %rdi
 416 0023 E8000000 		call	_ZdlPv@PLT
 416      00
 417 0028 4C89E7   		movq	%r12, %rdi
 418              	.LEHB5:
 419 002b E8000000 		call	_Unwind_Resume@PLT
 419      00
 420              	.LEHE5:
 421              		.cfi_endproc
 422              	.LFE1350:
 423              		.section	.gcc_except_table
 424              	.LLSDAC1350:
 425 0028 FF       		.byte	0xff
 426 0029 FF       		.byte	0xff
 427 002a 01       		.byte	0x1
 428 002b 04       		.uleb128 .LLSDACSEC1350-.LLSDACSBC1350
 429              	.LLSDACSBC1350:
 430 002c 0B       		.uleb128 .LEHB5-.LCOLDB2
 431 002d 05       		.uleb128 .LEHE5-.LEHB5
 432 002e 00       		.uleb128 0
 433 002f 00       		.uleb128 0
 434              	.LLSDACSEC1350:
 435              		.section	.text.unlikely
 436              		.text
 438              		.section	.text.unlikely
 440              	.LCOLDE2:
 441              		.text
 442              	.LHOTE2:
 443              		.section	.text.unlikely
 444              		.align 2
 445              	.LCOLDB3:
 446              		.text
 447              	.LHOTB3:
 448              		.align 2
 449 0218 0F1F8400 		.p2align 4
 449      00000000 
 451              	_ZN12_GLOBAL__N_141TestStreamingFloatWritesCorrectCharactersD0Ev:
 452              	.LFB1354:
 453              		.cfi_startproc
 454              		.cfi_personality 0x9b,DW.ref.__gxx_personality_v0
 455              		.cfi_lsda 0x1b,.LLSDA1354
 456 0220 F30F1EFA 		endbr64
 457 0224 4154     		pushq	%r12
 458              		.cfi_def_cfa_offset 16
 459              		.cfi_offset 12, -16
 460 0226 488D0500 		leaq	16+_ZTVN12_GLOBAL__N_141TestStreamingFloatWritesCorrectCharactersE(%rip), %rax
 460      000000
 461 022d 55       		pushq	%rbp
 462              		.cfi_def_cfa_offset 24
 463              		.cfi_offset 6, -24
 464 022e 4889FD   		movq	%rdi, %rbp
 465 0231 4883EC08 		subq	$8, %rsp
 466              		.cfi_def_cfa_offset 32
 467 0235 488907   		movq	%rax, (%rdi)
 468              	.LEHB6:
 469 0238 E8000000 		call	_ZN8UnitTest4TestD2Ev@PLT
 469      00
 470              	.LEHE6:
 471 023d 4883C408 		addq	$8, %rsp
 472              		.cfi_remember_state
 473              		.cfi_def_cfa_offset 24
 474 0241 4889EF   		movq	%rbp, %rdi
 475 0244 5D       		popq	%rbp
 476              		.cfi_def_cfa_offset 16
 477 0245 415C     		popq	%r12
 478              		.cfi_def_cfa_offset 8
 479 0247 E9000000 		jmp	_ZdlPv@PLT
 479      00
 480              	.L27:
 481              		.cfi_restore_state
 482 024c F30F1EFA 		endbr64
 483 0250 4989C4   		movq	%rax, %r12
 484 0253 E9000000 		jmp	.L26
 484      00
 485              		.section	.gcc_except_table
 486              	.LLSDA1354:
 487 0030 FF       		.byte	0xff
 488 0031 FF       		.byte	0xff
 489 0032 01       		.byte	0x1
 490 0033 04       		.uleb128 .LLSDACSE1354-.LLSDACSB1354
 491              	.LLSDACSB1354:
 492 0034 18       		.uleb128 .LEHB6-.LFB1354
 493 0035 05       		.uleb128 .LEHE6-.LEHB6
 494 0036 2C       		.uleb128 .L27-.LFB1354
 495 0037 00       		.uleb128 0
 496              	.LLSDACSE1354:
 497              		.text
 498              		.cfi_endproc
 499              		.section	.text.unlikely
 500              		.cfi_startproc
 501              		.cfi_personality 0x9b,DW.ref.__gxx_personality_v0
 502              		.cfi_lsda 0x1b,.LLSDAC1354
 504              	_ZN12_GLOBAL__N_141TestStreamingFloatWritesCorrectCharactersD0Ev.cold:
 505              	.LFSB1354:
 506              	.L26:
 507              		.cfi_def_cfa_offset 32
 508              		.cfi_offset 6, -24
 509              		.cfi_offset 12, -16
 510 0030 4889EF   		movq	%rbp, %rdi
 511 0033 E8000000 		call	_ZdlPv@PLT
 511      00
 512 0038 4C89E7   		movq	%r12, %rdi
 513              	.LEHB7:
 514 003b E8000000 		call	_Unwind_Resume@PLT
 514      00
 515              	.LEHE7:
 516              		.cfi_endproc
 517              	.LFE1354:
 518              		.section	.gcc_except_table
 519              	.LLSDAC1354:
 520 0038 FF       		.byte	0xff
 521 0039 FF       		.byte	0xff
 522 003a 01       		.byte	0x1
 523 003b 04       		.uleb128 .LLSDACSEC1354-.LLSDACSBC1354
 524              	.LLSDACSBC1354:
 525 003c 0B       		.uleb128 .LEHB7-.LCOLDB3
 526 003d 05       		.uleb128 .LEHE7-.LEHB7
 527 003e 00       		.uleb128 0
 528 003f 00       		.uleb128 0
 529              	.LLSDACSEC1354:
 530              		.section	.text.unlikely
 531              		.text
 533              		.section	.text.unlikely
 535              	.LCOLDE3:
 536              		.text
 537              	.LHOTE3:
 538              		.section	.text.unlikely
 539              		.align 2
 540              	.LCOLDB4:
 541              		.text
 542              	.LHOTB4:
 543              		.align 2
 544 0258 0F1F8400 		.p2align 4
 544      00000000 
 546              	_ZN12_GLOBAL__N_148TestStreamingUnsignedLongWritesCorrectCharactersD0Ev:
 547              	.LFB1358:
 548              		.cfi_startproc
 549              		.cfi_personality 0x9b,DW.ref.__gxx_personality_v0
 550              		.cfi_lsda 0x1b,.LLSDA1358
 551 0260 F30F1EFA 		endbr64
 552 0264 4154     		pushq	%r12
 553              		.cfi_def_cfa_offset 16
 554              		.cfi_offset 12, -16
 555 0266 488D0500 		leaq	16+_ZTVN12_GLOBAL__N_148TestStreamingUnsignedLongWritesCorrectCharactersE(%rip), %rax
 555      000000
 556 026d 55       		pushq	%rbp
 557              		.cfi_def_cfa_offset 24
 558              		.cfi_offset 6, -24
 559 026e 4889FD   		movq	%rdi, %rbp
 560 0271 4883EC08 		subq	$8, %rsp
 561              		.cfi_def_cfa_offset 32
 562 0275 488907   		movq	%rax, (%rdi)
 563              	.LEHB8:
 564 0278 E8000000 		call	_ZN8UnitTest4TestD2Ev@PLT
 564      00
 565              	.LEHE8:
 566 027d 4883C408 		addq	$8, %rsp
 567              		.cfi_remember_state
 568              		.cfi_def_cfa_offset 24
 569 0281 4889EF   		movq	%rbp, %rdi
 570 0284 5D       		popq	%rbp
 571              		.cfi_def_cfa_offset 16
 572 0285 415C     		popq	%r12
 573              		.cfi_def_cfa_offset 8
 574 0287 E9000000 		jmp	_ZdlPv@PLT
 574      00
 575              	.L31:
 576              		.cfi_restore_state
 577 028c F30F1EFA 		endbr64
 578 0290 4989C4   		movq	%rax, %r12
 579 0293 E9000000 		jmp	.L30
 579      00
 580              		.section	.gcc_except_table
 581              	.LLSDA1358:
 582 0040 FF       		.byte	0xff
 583 0041 FF       		.byte	0xff
 584 0042 01       		.byte	0x1
 585 0043 04       		.uleb128 .LLSDACSE1358-.LLSDACSB1358
 586              	.LLSDACSB1358:
 587 0044 18       		.uleb128 .LEHB8-.LFB1358
 588 0045 05       		.uleb128 .LEHE8-.LEHB8
 589 0046 2C       		.uleb128 .L31-.LFB1358
 590 0047 00       		.uleb128 0
 591              	.LLSDACSE1358:
 592              		.text
 593              		.cfi_endproc
 594              		.section	.text.unlikely
 595              		.cfi_startproc
 596              		.cfi_personality 0x9b,DW.ref.__gxx_personality_v0
 597              		.cfi_lsda 0x1b,.LLSDAC1358
 599              	_ZN12_GLOBAL__N_148TestStreamingUnsignedLongWritesCorrectCharactersD0Ev.cold:
 600              	.LFSB1358:
 601              	.L30:
 602              		.cfi_def_cfa_offset 32
 603              		.cfi_offset 6, -24
 604              		.cfi_offset 12, -16
 605 0040 4889EF   		movq	%rbp, %rdi
 606 0043 E8000000 		call	_ZdlPv@PLT
 606      00
 607 0048 4C89E7   		movq	%r12, %rdi
 608              	.LEHB9:
 609 004b E8000000 		call	_Unwind_Resume@PLT
 609      00
 610              	.LEHE9:
 611              		.cfi_endproc
 612              	.LFE1358:
 613              		.section	.gcc_except_table
 614              	.LLSDAC1358:
 615 0048 FF       		.byte	0xff
 616 0049 FF       		.byte	0xff
 617 004a 01       		.byte	0x1
 618 004b 04       		.uleb128 .LLSDACSEC1358-.LLSDACSBC1358
 619              	.LLSDACSBC1358:
 620 004c 0B       		.uleb128 .LEHB9-.LCOLDB4
 621 004d 05       		.uleb128 .LEHE9-.LEHB9
 622 004e 00       		.uleb128 0
 623 004f 00       		.uleb128 0
 624              	.LLSDACSEC1358:
 625              		.section	.text.unlikely
 626              		.text
 628              		.section	.text.unlikely
 630              	.LCOLDE4:
 631              		.text
 632              	.LHOTE4:
 633              		.section	.text.unlikely
 634              		.align 2
 635              	.LCOLDB5:
 636              		.text
 637              	.LHOTB5:
 638              		.align 2
 639 0298 0F1F8400 		.p2align 4
 639      00000000 
 641              	_ZN12_GLOBAL__N_140TestStreamingLongWritesCorrectCharactersD0Ev:
 642              	.LFB1362:
 643              		.cfi_startproc
 644              		.cfi_personality 0x9b,DW.ref.__gxx_personality_v0
 645              		.cfi_lsda 0x1b,.LLSDA1362
 646 02a0 F30F1EFA 		endbr64
 647 02a4 4154     		pushq	%r12
 648              		.cfi_def_cfa_offset 16
 649              		.cfi_offset 12, -16
 650 02a6 488D0500 		leaq	16+_ZTVN12_GLOBAL__N_140TestStreamingLongWritesCorrectCharactersE(%rip), %rax
 650      000000
 651 02ad 55       		pushq	%rbp
 652              		.cfi_def_cfa_offset 24
 653              		.cfi_offset 6, -24
 654 02ae 4889FD   		movq	%rdi, %rbp
 655 02b1 4883EC08 		subq	$8, %rsp
 656              		.cfi_def_cfa_offset 32
 657 02b5 488907   		movq	%rax, (%rdi)
 658              	.LEHB10:
 659 02b8 E8000000 		call	_ZN8UnitTest4TestD2Ev@PLT
 659      00
 660              	.LEHE10:
 661 02bd 4883C408 		addq	$8, %rsp
 662              		.cfi_remember_state
 663              		.cfi_def_cfa_offset 24
 664 02c1 4889EF   		movq	%rbp, %rdi
 665 02c4 5D       		popq	%rbp
 666              		.cfi_def_cfa_offset 16
 667 02c5 415C     		popq	%r12
 668              		.cfi_def_cfa_offset 8
 669 02c7 E9000000 		jmp	_ZdlPv@PLT
 669      00
 670              	.L35:
 671              		.cfi_restore_state
 672 02cc F30F1EFA 		endbr64
 673 02d0 4989C4   		movq	%rax, %r12
 674 02d3 E9000000 		jmp	.L34
 674      00
 675              		.section	.gcc_except_table
 676              	.LLSDA1362:
 677 0050 FF       		.byte	0xff
 678 0051 FF       		.byte	0xff
 679 0052 01       		.byte	0x1
 680 0053 04       		.uleb128 .LLSDACSE1362-.LLSDACSB1362
 681              	.LLSDACSB1362:
 682 0054 18       		.uleb128 .LEHB10-.LFB1362
 683 0055 05       		.uleb128 .LEHE10-.LEHB10
 684 0056 2C       		.uleb128 .L35-.LFB1362
 685 0057 00       		.uleb128 0
 686              	.LLSDACSE1362:
 687              		.text
 688              		.cfi_endproc
 689              		.section	.text.unlikely
 690              		.cfi_startproc
 691              		.cfi_personality 0x9b,DW.ref.__gxx_personality_v0
 692              		.cfi_lsda 0x1b,.LLSDAC1362
 694              	_ZN12_GLOBAL__N_140TestStreamingLongWritesCorrectCharactersD0Ev.cold:
 695              	.LFSB1362:
 696              	.L34:
 697              		.cfi_def_cfa_offset 32
 698              		.cfi_offset 6, -24
 699              		.cfi_offset 12, -16
 700 0050 4889EF   		movq	%rbp, %rdi
 701 0053 E8000000 		call	_ZdlPv@PLT
 701      00
 702 0058 4C89E7   		movq	%r12, %rdi
 703              	.LEHB11:
 704 005b E8000000 		call	_Unwind_Resume@PLT
 704      00
 705              	.LEHE11:
 706              		.cfi_endproc
 707              	.LFE1362:
 708              		.section	.gcc_except_table
 709              	.LLSDAC1362:
 710 0058 FF       		.byte	0xff
 711 0059 FF       		.byte	0xff
 712 005a 01       		.byte	0x1
 713 005b 04       		.uleb128 .LLSDACSEC1362-.LLSDACSBC1362
 714              	.LLSDACSBC1362:
 715 005c 0B       		.uleb128 .LEHB11-.LCOLDB5
 716 005d 05       		.uleb128 .LEHE11-.LEHB11
 717 005e 00       		.uleb128 0
 718 005f 00       		.uleb128 0
 719              	.LLSDACSEC1362:
 720              		.section	.text.unlikely
 721              		.text
 723              		.section	.text.unlikely
 725              	.LCOLDE5:
 726              		.text
 727              	.LHOTE5:
 728              		.section	.text.unlikely
 729              		.align 2
 730              	.LCOLDB6:
 731              		.text
 732              	.LHOTB6:
 733              		.align 2
 734 02d8 0F1F8400 		.p2align 4
 734      00000000 
 736              	_ZN12_GLOBAL__N_147TestStreamingUnsignedIntWritesCorrectCharactersD0Ev:
 737              	.LFB1366:
 738              		.cfi_startproc
 739              		.cfi_personality 0x9b,DW.ref.__gxx_personality_v0
 740              		.cfi_lsda 0x1b,.LLSDA1366
 741 02e0 F30F1EFA 		endbr64
 742 02e4 4154     		pushq	%r12
 743              		.cfi_def_cfa_offset 16
 744              		.cfi_offset 12, -16
 745 02e6 488D0500 		leaq	16+_ZTVN12_GLOBAL__N_147TestStreamingUnsignedIntWritesCorrectCharactersE(%rip), %rax
 745      000000
 746 02ed 55       		pushq	%rbp
 747              		.cfi_def_cfa_offset 24
 748              		.cfi_offset 6, -24
 749 02ee 4889FD   		movq	%rdi, %rbp
 750 02f1 4883EC08 		subq	$8, %rsp
 751              		.cfi_def_cfa_offset 32
 752 02f5 488907   		movq	%rax, (%rdi)
 753              	.LEHB12:
 754 02f8 E8000000 		call	_ZN8UnitTest4TestD2Ev@PLT
 754      00
 755              	.LEHE12:
 756 02fd 4883C408 		addq	$8, %rsp
 757              		.cfi_remember_state
 758              		.cfi_def_cfa_offset 24
 759 0301 4889EF   		movq	%rbp, %rdi
 760 0304 5D       		popq	%rbp
 761              		.cfi_def_cfa_offset 16
 762 0305 415C     		popq	%r12
 763              		.cfi_def_cfa_offset 8
 764 0307 E9000000 		jmp	_ZdlPv@PLT
 764      00
 765              	.L39:
 766              		.cfi_restore_state
 767 030c F30F1EFA 		endbr64
 768 0310 4989C4   		movq	%rax, %r12
 769 0313 E9000000 		jmp	.L38
 769      00
 770              		.section	.gcc_except_table
 771              	.LLSDA1366:
 772 0060 FF       		.byte	0xff
 773 0061 FF       		.byte	0xff
 774 0062 01       		.byte	0x1
 775 0063 04       		.uleb128 .LLSDACSE1366-.LLSDACSB1366
 776              	.LLSDACSB1366:
 777 0064 18       		.uleb128 .LEHB12-.LFB1366
 778 0065 05       		.uleb128 .LEHE12-.LEHB12
 779 0066 2C       		.uleb128 .L39-.LFB1366
 780 0067 00       		.uleb128 0
 781              	.LLSDACSE1366:
 782              		.text
 783              		.cfi_endproc
 784              		.section	.text.unlikely
 785              		.cfi_startproc
 786              		.cfi_personality 0x9b,DW.ref.__gxx_personality_v0
 787              		.cfi_lsda 0x1b,.LLSDAC1366
 789              	_ZN12_GLOBAL__N_147TestStreamingUnsignedIntWritesCorrectCharactersD0Ev.cold:
 790              	.LFSB1366:
 791              	.L38:
 792              		.cfi_def_cfa_offset 32
 793              		.cfi_offset 6, -24
 794              		.cfi_offset 12, -16
 795 0060 4889EF   		movq	%rbp, %rdi
 796 0063 E8000000 		call	_ZdlPv@PLT
 796      00
 797 0068 4C89E7   		movq	%r12, %rdi
 798              	.LEHB13:
 799 006b E8000000 		call	_Unwind_Resume@PLT
 799      00
 800              	.LEHE13:
 801              		.cfi_endproc
 802              	.LFE1366:
 803              		.section	.gcc_except_table
 804              	.LLSDAC1366:
 805 0068 FF       		.byte	0xff
 806 0069 FF       		.byte	0xff
 807 006a 01       		.byte	0x1
 808 006b 04       		.uleb128 .LLSDACSEC1366-.LLSDACSBC1366
 809              	.LLSDACSBC1366:
 810 006c 0B       		.uleb128 .LEHB13-.LCOLDB6
 811 006d 05       		.uleb128 .LEHE13-.LEHB13
 812 006e 00       		.uleb128 0
 813 006f 00       		.uleb128 0
 814              	.LLSDACSEC1366:
 815              		.section	.text.unlikely
 816              		.text
 818              		.section	.text.unlikely
 820              	.LCOLDE6:
 821              		.text
 822              	.LHOTE6:
 823              		.section	.text.unlikely
 824              		.align 2
 825              	.LCOLDB7:
 826              		.text
 827              	.LHOTB7:
 828              		.align 2
 829 0318 0F1F8400 		.p2align 4
 829      00000000 
 831              	_ZN12_GLOBAL__N_139TestStreamingIntWritesCorrectCharactersD0Ev:
 832              	.LFB1370:
 833              		.cfi_startproc
 834              		.cfi_personality 0x9b,DW.ref.__gxx_personality_v0
 835              		.cfi_lsda 0x1b,.LLSDA1370
 836 0320 F30F1EFA 		endbr64
 837 0324 4154     		pushq	%r12
 838              		.cfi_def_cfa_offset 16
 839              		.cfi_offset 12, -16
 840 0326 488D0500 		leaq	16+_ZTVN12_GLOBAL__N_139TestStreamingIntWritesCorrectCharactersE(%rip), %rax
 840      000000
 841 032d 55       		pushq	%rbp
 842              		.cfi_def_cfa_offset 24
 843              		.cfi_offset 6, -24
 844 032e 4889FD   		movq	%rdi, %rbp
 845 0331 4883EC08 		subq	$8, %rsp
 846              		.cfi_def_cfa_offset 32
 847 0335 488907   		movq	%rax, (%rdi)
 848              	.LEHB14:
 849 0338 E8000000 		call	_ZN8UnitTest4TestD2Ev@PLT
 849      00
 850              	.LEHE14:
 851 033d 4883C408 		addq	$8, %rsp
 852              		.cfi_remember_state
 853              		.cfi_def_cfa_offset 24
 854 0341 4889EF   		movq	%rbp, %rdi
 855 0344 5D       		popq	%rbp
 856              		.cfi_def_cfa_offset 16
 857 0345 415C     		popq	%r12
 858              		.cfi_def_cfa_offset 8
 859 0347 E9000000 		jmp	_ZdlPv@PLT
 859      00
 860              	.L43:
 861              		.cfi_restore_state
 862 034c F30F1EFA 		endbr64
 863 0350 4989C4   		movq	%rax, %r12
 864 0353 E9000000 		jmp	.L42
 864      00
 865              		.section	.gcc_except_table
 866              	.LLSDA1370:
 867 0070 FF       		.byte	0xff
 868 0071 FF       		.byte	0xff
 869 0072 01       		.byte	0x1
 870 0073 04       		.uleb128 .LLSDACSE1370-.LLSDACSB1370
 871              	.LLSDACSB1370:
 872 0074 18       		.uleb128 .LEHB14-.LFB1370
 873 0075 05       		.uleb128 .LEHE14-.LEHB14
 874 0076 2C       		.uleb128 .L43-.LFB1370
 875 0077 00       		.uleb128 0
 876              	.LLSDACSE1370:
 877              		.text
 878              		.cfi_endproc
 879              		.section	.text.unlikely
 880              		.cfi_startproc
 881              		.cfi_personality 0x9b,DW.ref.__gxx_personality_v0
 882              		.cfi_lsda 0x1b,.LLSDAC1370
 884              	_ZN12_GLOBAL__N_139TestStreamingIntWritesCorrectCharactersD0Ev.cold:
 885              	.LFSB1370:
 886              	.L42:
 887              		.cfi_def_cfa_offset 32
 888              		.cfi_offset 6, -24
 889              		.cfi_offset 12, -16
 890 0070 4889EF   		movq	%rbp, %rdi
 891 0073 E8000000 		call	_ZdlPv@PLT
 891      00
 892 0078 4C89E7   		movq	%r12, %rdi
 893              	.LEHB15:
 894 007b E8000000 		call	_Unwind_Resume@PLT
 894      00
 895              	.LEHE15:
 896              		.cfi_endproc
 897              	.LFE1370:
 898              		.section	.gcc_except_table
 899              	.LLSDAC1370:
 900 0078 FF       		.byte	0xff
 901 0079 FF       		.byte	0xff
 902 007a 01       		.byte	0x1
 903 007b 04       		.uleb128 .LLSDACSEC1370-.LLSDACSBC1370
 904              	.LLSDACSBC1370:
 905 007c 0B       		.uleb128 .LEHB15-.LCOLDB7
 906 007d 05       		.uleb128 .LEHE15-.LEHB15
 907 007e 00       		.uleb128 0
 908 007f 00       		.uleb128 0
 909              	.LLSDACSEC1370:
 910              		.section	.text.unlikely
 911              		.text
 913              		.section	.text.unlikely
 915              	.LCOLDE7:
 916              		.text
 917              	.LHOTE7:
 918              		.section	.text.unlikely
 919              		.align 2
 920              	.LCOLDB8:
 921              		.text
 922              	.LHOTB8:
 923              		.align 2
 924 0358 0F1F8400 		.p2align 4
 924      00000000 
 926              	_ZN12_GLOBAL__N_144TestStreamingMultipleTimesConcatenatesResultD0Ev:
 927              	.LFB1374:
 928              		.cfi_startproc
 929              		.cfi_personality 0x9b,DW.ref.__gxx_personality_v0
 930              		.cfi_lsda 0x1b,.LLSDA1374
 931 0360 F30F1EFA 		endbr64
 932 0364 4154     		pushq	%r12
 933              		.cfi_def_cfa_offset 16
 934              		.cfi_offset 12, -16
 935 0366 488D0500 		leaq	16+_ZTVN12_GLOBAL__N_144TestStreamingMultipleTimesConcatenatesResultE(%rip), %rax
 935      000000
 936 036d 55       		pushq	%rbp
 937              		.cfi_def_cfa_offset 24
 938              		.cfi_offset 6, -24
 939 036e 4889FD   		movq	%rdi, %rbp
 940 0371 4883EC08 		subq	$8, %rsp
 941              		.cfi_def_cfa_offset 32
 942 0375 488907   		movq	%rax, (%rdi)
 943              	.LEHB16:
 944 0378 E8000000 		call	_ZN8UnitTest4TestD2Ev@PLT
 944      00
 945              	.LEHE16:
 946 037d 4883C408 		addq	$8, %rsp
 947              		.cfi_remember_state
 948              		.cfi_def_cfa_offset 24
 949 0381 4889EF   		movq	%rbp, %rdi
 950 0384 5D       		popq	%rbp
 951              		.cfi_def_cfa_offset 16
 952 0385 415C     		popq	%r12
 953              		.cfi_def_cfa_offset 8
 954 0387 E9000000 		jmp	_ZdlPv@PLT
 954      00
 955              	.L47:
 956              		.cfi_restore_state
 957 038c F30F1EFA 		endbr64
 958 0390 4989C4   		movq	%rax, %r12
 959 0393 E9000000 		jmp	.L46
 959      00
 960              		.section	.gcc_except_table
 961              	.LLSDA1374:
 962 0080 FF       		.byte	0xff
 963 0081 FF       		.byte	0xff
 964 0082 01       		.byte	0x1
 965 0083 04       		.uleb128 .LLSDACSE1374-.LLSDACSB1374
 966              	.LLSDACSB1374:
 967 0084 18       		.uleb128 .LEHB16-.LFB1374
 968 0085 05       		.uleb128 .LEHE16-.LEHB16
 969 0086 2C       		.uleb128 .L47-.LFB1374
 970 0087 00       		.uleb128 0
 971              	.LLSDACSE1374:
 972              		.text
 973              		.cfi_endproc
 974              		.section	.text.unlikely
 975              		.cfi_startproc
 976              		.cfi_personality 0x9b,DW.ref.__gxx_personality_v0
 977              		.cfi_lsda 0x1b,.LLSDAC1374
 979              	_ZN12_GLOBAL__N_144TestStreamingMultipleTimesConcatenatesResultD0Ev.cold:
 980              	.LFSB1374:
 981              	.L46:
 982              		.cfi_def_cfa_offset 32
 983              		.cfi_offset 6, -24
 984              		.cfi_offset 12, -16
 985 0080 4889EF   		movq	%rbp, %rdi
 986 0083 E8000000 		call	_ZdlPv@PLT
 986      00
 987 0088 4C89E7   		movq	%r12, %rdi
 988              	.LEHB17:
 989 008b E8000000 		call	_Unwind_Resume@PLT
 989      00
 990              	.LEHE17:
 991              		.cfi_endproc
 992              	.LFE1374:
 993              		.section	.gcc_except_table
 994              	.LLSDAC1374:
 995 0088 FF       		.byte	0xff
 996 0089 FF       		.byte	0xff
 997 008a 01       		.byte	0x1
 998 008b 04       		.uleb128 .LLSDACSEC1374-.LLSDACSBC1374
 999              	.LLSDACSBC1374:
 1000 008c 0B       		.uleb128 .LEHB17-.LCOLDB8
 1001 008d 05       		.uleb128 .LEHE17-.LEHB17
 1002 008e 00       		.uleb128 0
 1003 008f 00       		.uleb128 0
 1004              	.LLSDACSEC1374:
 1005              		.section	.text.unlikely
 1006              		.text
 1008              		.section	.text.unlikely
 1010              	.LCOLDE8:
 1011              		.text
 1012              	.LHOTE8:
 1013              		.section	.text.unlikely
 1014              		.align 2
 1015              	.LCOLDB9:
 1016              		.text
 1017              	.LHOTB9:
 1018              		.align 2
 1019 0398 0F1F8400 		.p2align 4
 1019      00000000 
 1021              	_ZN12_GLOBAL__N_133TestStreamingTextCopiesCharactersD0Ev:
 1022              	.LFB1378:
 1023              		.cfi_startproc
 1024              		.cfi_personality 0x9b,DW.ref.__gxx_personality_v0
 1025              		.cfi_lsda 0x1b,.LLSDA1378
 1026 03a0 F30F1EFA 		endbr64
 1027 03a4 4154     		pushq	%r12
 1028              		.cfi_def_cfa_offset 16
 1029              		.cfi_offset 12, -16
 1030 03a6 488D0500 		leaq	16+_ZTVN12_GLOBAL__N_133TestStreamingTextCopiesCharactersE(%rip), %rax
 1030      000000
 1031 03ad 55       		pushq	%rbp
 1032              		.cfi_def_cfa_offset 24
 1033              		.cfi_offset 6, -24
 1034 03ae 4889FD   		movq	%rdi, %rbp
 1035 03b1 4883EC08 		subq	$8, %rsp
 1036              		.cfi_def_cfa_offset 32
 1037 03b5 488907   		movq	%rax, (%rdi)
 1038              	.LEHB18:
 1039 03b8 E8000000 		call	_ZN8UnitTest4TestD2Ev@PLT
 1039      00
 1040              	.LEHE18:
 1041 03bd 4883C408 		addq	$8, %rsp
 1042              		.cfi_remember_state
 1043              		.cfi_def_cfa_offset 24
 1044 03c1 4889EF   		movq	%rbp, %rdi
 1045 03c4 5D       		popq	%rbp
 1046              		.cfi_def_cfa_offset 16
 1047 03c5 415C     		popq	%r12
 1048              		.cfi_def_cfa_offset 8
 1049 03c7 E9000000 		jmp	_ZdlPv@PLT
 1049      00
 1050              	.L51:
 1051              		.cfi_restore_state
 1052 03cc F30F1EFA 		endbr64
 1053 03d0 4989C4   		movq	%rax, %r12
 1054 03d3 E9000000 		jmp	.L50
 1054      00
 1055              		.section	.gcc_except_table
 1056              	.LLSDA1378:
 1057 0090 FF       		.byte	0xff
 1058 0091 FF       		.byte	0xff
 1059 0092 01       		.byte	0x1
 1060 0093 04       		.uleb128 .LLSDACSE1378-.LLSDACSB1378
 1061              	.LLSDACSB1378:
 1062 0094 18       		.uleb128 .LEHB18-.LFB1378
 1063 0095 05       		.uleb128 .LEHE18-.LEHB18
 1064 0096 2C       		.uleb128 .L51-.LFB1378
 1065 0097 00       		.uleb128 0
 1066              	.LLSDACSE1378:
 1067              		.text
 1068              		.cfi_endproc
 1069              		.section	.text.unlikely
 1070              		.cfi_startproc
 1071              		.cfi_personality 0x9b,DW.ref.__gxx_personality_v0
 1072              		.cfi_lsda 0x1b,.LLSDAC1378
 1074              	_ZN12_GLOBAL__N_133TestStreamingTextCopiesCharactersD0Ev.cold:
 1075              	.LFSB1378:
 1076              	.L50:
 1077              		.cfi_def_cfa_offset 32
 1078              		.cfi_offset 6, -24
 1079              		.cfi_offset 12, -16
 1080 0090 4889EF   		movq	%rbp, %rdi
 1081 0093 E8000000 		call	_ZdlPv@PLT
 1081      00
 1082 0098 4C89E7   		movq	%r12, %rdi
 1083              	.LEHB19:
 1084 009b E8000000 		call	_Unwind_Resume@PLT
 1084      00
 1085              	.LEHE19:
 1086              		.cfi_endproc
 1087              	.LFE1378:
 1088              		.section	.gcc_except_table
 1089              	.LLSDAC1378:
 1090 0098 FF       		.byte	0xff
 1091 0099 FF       		.byte	0xff
 1092 009a 01       		.byte	0x1
 1093 009b 04       		.uleb128 .LLSDACSEC1378-.LLSDACSBC1378
 1094              	.LLSDACSBC1378:
 1095 009c 0B       		.uleb128 .LEHB19-.LCOLDB9
 1096 009d 05       		.uleb128 .LEHE19-.LEHB19
 1097 009e 00       		.uleb128 0
 1098 009f 00       		.uleb128 0
 1099              	.LLSDACSEC1378:
 1100              		.section	.text.unlikely
 1101              		.text
 1103              		.section	.text.unlikely
 1105              	.LCOLDE9:
 1106              		.text
 1107              	.LHOTE9:
 1108              		.section	.text.unlikely
 1109              		.align 2
 1110              	.LCOLDB10:
 1111              		.text
 1112              	.LHOTB10:
 1113              		.align 2
 1114 03d8 0F1F8400 		.p2align 4
 1114      00000000 
 1116              	_ZN12_GLOBAL__N_124TestDefaultIsEmptyStringD0Ev:
 1117              	.LFB1382:
 1118              		.cfi_startproc
 1119              		.cfi_personality 0x9b,DW.ref.__gxx_personality_v0
 1120              		.cfi_lsda 0x1b,.LLSDA1382
 1121 03e0 F30F1EFA 		endbr64
 1122 03e4 4154     		pushq	%r12
 1123              		.cfi_def_cfa_offset 16
 1124              		.cfi_offset 12, -16
 1125 03e6 488D0500 		leaq	16+_ZTVN12_GLOBAL__N_124TestDefaultIsEmptyStringE(%rip), %rax
 1125      000000
 1126 03ed 55       		pushq	%rbp
 1127              		.cfi_def_cfa_offset 24
 1128              		.cfi_offset 6, -24
 1129 03ee 4889FD   		movq	%rdi, %rbp
 1130 03f1 4883EC08 		subq	$8, %rsp
 1131              		.cfi_def_cfa_offset 32
 1132 03f5 488907   		movq	%rax, (%rdi)
 1133              	.LEHB20:
 1134 03f8 E8000000 		call	_ZN8UnitTest4TestD2Ev@PLT
 1134      00
 1135              	.LEHE20:
 1136 03fd 4883C408 		addq	$8, %rsp
 1137              		.cfi_remember_state
 1138              		.cfi_def_cfa_offset 24
 1139 0401 4889EF   		movq	%rbp, %rdi
 1140 0404 5D       		popq	%rbp
 1141              		.cfi_def_cfa_offset 16
 1142 0405 415C     		popq	%r12
 1143              		.cfi_def_cfa_offset 8
 1144 0407 E9000000 		jmp	_ZdlPv@PLT
 1144      00
 1145              	.L55:
 1146              		.cfi_restore_state
 1147 040c F30F1EFA 		endbr64
 1148 0410 4989C4   		movq	%rax, %r12
 1149 0413 E9000000 		jmp	.L54
 1149      00
 1150              		.section	.gcc_except_table
 1151              	.LLSDA1382:
 1152 00a0 FF       		.byte	0xff
 1153 00a1 FF       		.byte	0xff
 1154 00a2 01       		.byte	0x1
 1155 00a3 04       		.uleb128 .LLSDACSE1382-.LLSDACSB1382
 1156              	.LLSDACSB1382:
 1157 00a4 18       		.uleb128 .LEHB20-.LFB1382
 1158 00a5 05       		.uleb128 .LEHE20-.LEHB20
 1159 00a6 2C       		.uleb128 .L55-.LFB1382
 1160 00a7 00       		.uleb128 0
 1161              	.LLSDACSE1382:
 1162              		.text
 1163              		.cfi_endproc
 1164              		.section	.text.unlikely
 1165              		.cfi_startproc
 1166              		.cfi_personality 0x9b,DW.ref.__gxx_personality_v0
 1167              		.cfi_lsda 0x1b,.LLSDAC1382
 1169              	_ZN12_GLOBAL__N_124TestDefaultIsEmptyStringD0Ev.cold:
 1170              	.LFSB1382:
 1171              	.L54:
 1172              		.cfi_def_cfa_offset 32
 1173              		.cfi_offset 6, -24
 1174              		.cfi_offset 12, -16
 1175 00a0 4889EF   		movq	%rbp, %rdi
 1176 00a3 E8000000 		call	_ZdlPv@PLT
 1176      00
 1177 00a8 4C89E7   		movq	%r12, %rdi
 1178              	.LEHB21:
 1179 00ab E8000000 		call	_Unwind_Resume@PLT
 1179      00
 1180              	.LEHE21:
 1181              		.cfi_endproc
 1182              	.LFE1382:
 1183              		.section	.gcc_except_table
 1184              	.LLSDAC1382:
 1185 00a8 FF       		.byte	0xff
 1186 00a9 FF       		.byte	0xff
 1187 00aa 01       		.byte	0x1
 1188 00ab 04       		.uleb128 .LLSDACSEC1382-.LLSDACSBC1382
 1189              	.LLSDACSBC1382:
 1190 00ac 0B       		.uleb128 .LEHB21-.LCOLDB10
 1191 00ad 05       		.uleb128 .LEHE21-.LEHB21
 1192 00ae 00       		.uleb128 0
 1193 00af 00       		.uleb128 0
 1194              	.LLSDACSEC1382:
 1195              		.section	.text.unlikely
 1196              		.text
 1198              		.section	.text.unlikely
 1200              	.LCOLDE10:
 1201              		.text
 1202              	.LHOTE10:
 1203              		.section	.text._ZN8UnitTest15MemoryOutStreamD1Ev,"axG",@progbits,_ZN8UnitTest15MemoryOutStreamD1Ev
 1204              		.align 2
 1205              		.p2align 4
 1206              		.weak	_ZN8UnitTest15MemoryOutStreamD1Ev
 1208              	_ZN8UnitTest15MemoryOutStreamD1Ev:
 1209              	.LFB1385:
 1210              		.cfi_startproc
 1211 0000 F30F1EFA 		endbr64
 1212 0004 55       		pushq	%rbp
 1213              		.cfi_def_cfa_offset 16
 1214              		.cfi_offset 6, -16
 1215 0005 488D0500 		leaq	24+_ZTVN8UnitTest15MemoryOutStreamE(%rip), %rax
 1215      000000
 1216 000c 53       		pushq	%rbx
 1217              		.cfi_def_cfa_offset 24
 1218              		.cfi_offset 3, -24
 1219 000d 4889FB   		movq	%rdi, %rbx
 1220 0010 4883EC08 		subq	$8, %rsp
 1221              		.cfi_def_cfa_offset 32
 1222 0014 488907   		movq	%rax, (%rdi)
 1223 0017 4883C028 		addq	$40, %rax
 1224 001b 48898790 		movq	%rax, 144(%rdi)
 1224      000000
 1225 0022 488B7F70 		movq	112(%rdi), %rdi
 1226 0026 488D8380 		leaq	128(%rbx), %rax
 1226      000000
 1227 002d 4839C7   		cmpq	%rax, %rdi
 1228 0030 7405     		je	.L58
 1229 0032 E8000000 		call	_ZdlPv@PLT
 1229      00
 1230              	.L58:
 1231 0037 488D0500 		leaq	64+_ZTCN8UnitTest15MemoryOutStreamE0_NSt7__cxx1119basic_ostringstreamIcSt11char_traitsIcESaIc
 1231      000000
 1232 003e 488D1500 		leaq	24+_ZTCN8UnitTest15MemoryOutStreamE0_NSt7__cxx1119basic_ostringstreamIcSt11char_traitsIcESaIc
 1232      000000
 1233 0045 488B7B50 		movq	80(%rbx), %rdi
 1234 0049 48898390 		movq	%rax, 144(%rbx)
 1234      000000
 1235 0050 488D0500 		leaq	16+_ZTVNSt7__cxx1115basic_stringbufIcSt11char_traitsIcESaIcEEE(%rip), %rax
 1235      000000
 1236 0057 66480F6E 		movq	%rdx, %xmm0
 1236      C2
 1237 005c 488DAB90 		leaq	144(%rbx), %rbp
 1237      000000
 1238 0063 66480F6E 		movq	%rax, %xmm1
 1238      C8
 1239 0068 488D4360 		leaq	96(%rbx), %rax
 1240 006c 660F6CC1 		punpcklqdq	%xmm1, %xmm0
 1241 0070 0F1103   		movups	%xmm0, (%rbx)
 1242 0073 4839C7   		cmpq	%rax, %rdi
 1243 0076 7405     		je	.L59
 1244 0078 E8000000 		call	_ZdlPv@PLT
 1244      00
 1245              	.L59:
 1246 007d 488D0500 		leaq	16+_ZTVSt15basic_streambufIcSt11char_traitsIcEE(%rip), %rax
 1246      000000
 1247 0084 488D7B40 		leaq	64(%rbx), %rdi
 1248 0088 48894308 		movq	%rax, 8(%rbx)
 1249 008c E8000000 		call	_ZNSt6localeD1Ev@PLT
 1249      00
 1250 0091 488D0500 		leaq	24+_ZTCN8UnitTest15MemoryOutStreamE0_So(%rip), %rax
 1250      000000
 1251 0098 4889EF   		movq	%rbp, %rdi
 1252 009b 488903   		movq	%rax, (%rbx)
 1253 009e 488D0500 		leaq	16+_ZTVSt9basic_iosIcSt11char_traitsIcEE(%rip), %rax
 1253      000000
 1254 00a5 48898390 		movq	%rax, 144(%rbx)
 1254      000000
 1255 00ac 4883C408 		addq	$8, %rsp
 1256              		.cfi_def_cfa_offset 24
 1257 00b0 5B       		popq	%rbx
 1258              		.cfi_def_cfa_offset 16
 1259 00b1 5D       		popq	%rbp
 1260              		.cfi_def_cfa_offset 8
 1261 00b2 E9000000 		jmp	_ZNSt8ios_baseD2Ev@PLT
 1261      00
 1262              		.cfi_endproc
 1263              	.LFE1385:
 1265 00b7 660F1F84 		.p2align 4
 1265      00000000 
 1265      00
 1266              		.weak	_ZTv0_n24_N8UnitTest15MemoryOutStreamD1Ev
 1268              	_ZTv0_n24_N8UnitTest15MemoryOutStreamD1Ev:
 1269              	.LFB1391:
 1270              		.cfi_startproc
 1271 00c0 F30F1EFA 		endbr64
 1272 00c4 55       		pushq	%rbp
 1273              		.cfi_def_cfa_offset 16
 1274              		.cfi_offset 6, -16
 1275 00c5 53       		pushq	%rbx
 1276              		.cfi_def_cfa_offset 24
 1277              		.cfi_offset 3, -24
 1278 00c6 4889FB   		movq	%rdi, %rbx
 1279 00c9 4883EC08 		subq	$8, %rsp
 1280              		.cfi_def_cfa_offset 32
 1281 00cd 488B07   		movq	(%rdi), %rax
 1282 00d0 480358E8 		addq	-24(%rax), %rbx
 1283 00d4 488D0500 		leaq	24+_ZTVN8UnitTest15MemoryOutStreamE(%rip), %rax
 1283      000000
 1284 00db 488903   		movq	%rax, (%rbx)
 1285 00de 488B7B70 		movq	112(%rbx), %rdi
 1286 00e2 4883C028 		addq	$40, %rax
 1287 00e6 48898390 		movq	%rax, 144(%rbx)
 1287      000000
 1288 00ed 488D8380 		leaq	128(%rbx), %rax
 1288      000000
 1289 00f4 4839C7   		cmpq	%rax, %rdi
 1290 00f7 7405     		je	.L62
 1291 00f9 E8000000 		call	_ZdlPv@PLT
 1291      00
 1292              	.L62:
 1293 00fe 488D0500 		leaq	64+_ZTCN8UnitTest15MemoryOutStreamE0_NSt7__cxx1119basic_ostringstreamIcSt11char_traitsIcESaIc
 1293      000000
 1294 0105 488D1500 		leaq	24+_ZTCN8UnitTest15MemoryOutStreamE0_NSt7__cxx1119basic_ostringstreamIcSt11char_traitsIcESaIc
 1294      000000
 1295 010c 488B7B50 		movq	80(%rbx), %rdi
 1296 0110 48898390 		movq	%rax, 144(%rbx)
 1296      000000
 1297 0117 488D0500 		leaq	16+_ZTVNSt7__cxx1115basic_stringbufIcSt11char_traitsIcESaIcEEE(%rip), %rax
 1297      000000
 1298 011e 66480F6E 		movq	%rdx, %xmm0
 1298      C2
 1299 0123 488DAB90 		leaq	144(%rbx), %rbp
 1299      000000
 1300 012a 66480F6E 		movq	%rax, %xmm1
 1300      C8
 1301 012f 488D4360 		leaq	96(%rbx), %rax
 1302 0133 660F6CC1 		punpcklqdq	%xmm1, %xmm0
 1303 0137 0F1103   		movups	%xmm0, (%rbx)
 1304 013a 4839C7   		cmpq	%rax, %rdi
 1305 013d 7405     		je	.L63
 1306 013f E8000000 		call	_ZdlPv@PLT
 1306      00
 1307              	.L63:
 1308 0144 488D0500 		leaq	16+_ZTVSt15basic_streambufIcSt11char_traitsIcEE(%rip), %rax
 1308      000000
 1309 014b 488D7B40 		leaq	64(%rbx), %rdi
 1310 014f 48894308 		movq	%rax, 8(%rbx)
 1311 0153 E8000000 		call	_ZNSt6localeD1Ev@PLT
 1311      00
 1312 0158 488D0500 		leaq	24+_ZTCN8UnitTest15MemoryOutStreamE0_So(%rip), %rax
 1312      000000
 1313 015f 4889EF   		movq	%rbp, %rdi
 1314 0162 488903   		movq	%rax, (%rbx)
 1315 0165 488D0500 		leaq	16+_ZTVSt9basic_iosIcSt11char_traitsIcEE(%rip), %rax
 1315      000000
 1316 016c 48898390 		movq	%rax, 144(%rbx)
 1316      000000
 1317 0173 4883C408 		addq	$8, %rsp
 1318              		.cfi_def_cfa_offset 24
 1319 0177 5B       		popq	%rbx
 1320              		.cfi_def_cfa_offset 16
 1321 0178 5D       		popq	%rbp
 1322              		.cfi_def_cfa_offset 8
 1323 0179 E9000000 		jmp	_ZNSt8ios_baseD2Ev@PLT
 1323      00
 1324              		.cfi_endproc
 1325              	.LFE1391:
 1327              		.section	.text._ZN8UnitTest15MemoryOutStreamD0Ev,"axG",@progbits,_ZN8UnitTest15MemoryOutStreamD0Ev
 1328              		.align 2
 1329              		.p2align 4
 1330              		.weak	_ZN8UnitTest15MemoryOutStreamD0Ev
 1332              	_ZN8UnitTest15MemoryOutStreamD0Ev:
 1333              	.LFB1386:
 1334              		.cfi_startproc
 1335              		.cfi_personality 0x9b,DW.ref.__gxx_personality_v0
 1336              		.cfi_lsda 0x1b,.LLSDA1386
 1337 0000 F30F1EFA 		endbr64
 1338 0004 4154     		pushq	%r12
 1339              		.cfi_def_cfa_offset 16
 1340              		.cfi_offset 12, -16
 1341 0006 488D0500 		leaq	24+_ZTVN8UnitTest15MemoryOutStreamE(%rip), %rax
 1341      000000
 1342 000d 55       		pushq	%rbp
 1343              		.cfi_def_cfa_offset 24
 1344              		.cfi_offset 6, -24
 1345 000e 4889FD   		movq	%rdi, %rbp
 1346 0011 4883EC08 		subq	$8, %rsp
 1347              		.cfi_def_cfa_offset 32
 1348 0015 488907   		movq	%rax, (%rdi)
 1349 0018 4883C028 		addq	$40, %rax
 1350 001c 48898790 		movq	%rax, 144(%rdi)
 1350      000000
 1351 0023 488B7F70 		movq	112(%rdi), %rdi
 1352 0027 488D8580 		leaq	128(%rbp), %rax
 1352      000000
 1353 002e 4839C7   		cmpq	%rax, %rdi
 1354 0031 7405     		je	.L66
 1355 0033 E8000000 		call	_ZdlPv@PLT
 1355      00
 1356              	.L66:
 1357 0038 488D0500 		leaq	64+_ZTCN8UnitTest15MemoryOutStreamE0_NSt7__cxx1119basic_ostringstreamIcSt11char_traitsIcESaIc
 1357      000000
 1358 003f 488D1500 		leaq	24+_ZTCN8UnitTest15MemoryOutStreamE0_NSt7__cxx1119basic_ostringstreamIcSt11char_traitsIcESaIc
 1358      000000
 1359 0046 488B7D50 		movq	80(%rbp), %rdi
 1360 004a 48898590 		movq	%rax, 144(%rbp)
 1360      000000
 1361 0051 488D0500 		leaq	16+_ZTVNSt7__cxx1115basic_stringbufIcSt11char_traitsIcESaIcEEE(%rip), %rax
 1361      000000
 1362 0058 66480F6E 		movq	%rdx, %xmm0
 1362      C2
 1363 005d 4C8DA590 		leaq	144(%rbp), %r12
 1363      000000
 1364 0064 66480F6E 		movq	%rax, %xmm1
 1364      C8
 1365 0069 488D4560 		leaq	96(%rbp), %rax
 1366 006d 660F6CC1 		punpcklqdq	%xmm1, %xmm0
 1367 0071 0F114500 		movups	%xmm0, 0(%rbp)
 1368 0075 4839C7   		cmpq	%rax, %rdi
 1369 0078 7405     		je	.L67
 1370 007a E8000000 		call	_ZdlPv@PLT
 1370      00
 1371              	.L67:
 1372 007f 488D0500 		leaq	16+_ZTVSt15basic_streambufIcSt11char_traitsIcEE(%rip), %rax
 1372      000000
 1373 0086 488D7D40 		leaq	64(%rbp), %rdi
 1374 008a 48894508 		movq	%rax, 8(%rbp)
 1375 008e E8000000 		call	_ZNSt6localeD1Ev@PLT
 1375      00
 1376 0093 488D0500 		leaq	24+_ZTCN8UnitTest15MemoryOutStreamE0_So(%rip), %rax
 1376      000000
 1377 009a 4C89E7   		movq	%r12, %rdi
 1378 009d 48894500 		movq	%rax, 0(%rbp)
 1379 00a1 488D0500 		leaq	16+_ZTVSt9basic_iosIcSt11char_traitsIcEE(%rip), %rax
 1379      000000
 1380 00a8 48898590 		movq	%rax, 144(%rbp)
 1380      000000
 1381              	.LEHB22:
 1382 00af E8000000 		call	_ZNSt8ios_baseD2Ev@PLT
 1382      00
 1383              	.LEHE22:
 1384 00b4 4883C408 		addq	$8, %rsp
 1385              		.cfi_remember_state
 1386              		.cfi_def_cfa_offset 24
 1387 00b8 4889EF   		movq	%rbp, %rdi
 1388 00bb 5D       		popq	%rbp
 1389              		.cfi_def_cfa_offset 16
 1390 00bc 415C     		popq	%r12
 1391              		.cfi_def_cfa_offset 8
 1392 00be E9000000 		jmp	_ZdlPv@PLT
 1392      00
 1393              	.L69:
 1394              		.cfi_restore_state
 1395 00c3 F30F1EFA 		endbr64
 1396 00c7 4989C4   		movq	%rax, %r12
 1397              	.L68:
 1398 00ca 4889EF   		movq	%rbp, %rdi
 1399 00cd E8000000 		call	_ZdlPv@PLT
 1399      00
 1400 00d2 4C89E7   		movq	%r12, %rdi
 1401              	.LEHB23:
 1402 00d5 E8000000 		call	_Unwind_Resume@PLT
 1402      00
 1403              	.LEHE23:
 1404              		.cfi_endproc
 1405              	.LFE1386:
 1406              		.section	.gcc_except_table
 1407              	.LLSDA1386:
 1408 00b0 FF       		.byte	0xff
 1409 00b1 FF       		.byte	0xff
 1410 00b2 01       		.byte	0x1
 1411 00b3 0B       		.uleb128 .LLSDACSE1386-.LLSDACSB1386
 1412              	.LLSDACSB1386:
 1413 00b4 AF01     		.uleb128 .LEHB22-.LFB1386
 1414 00b6 05       		.uleb128 .LEHE22-.LEHB22
 1415 00b7 C301     		.uleb128 .L69-.LFB1386
 1416 00b9 00       		.uleb128 0
 1417 00ba D501     		.uleb128 .LEHB23-.LFB1386
 1418 00bc 05       		.uleb128 .LEHE23-.LEHB23
 1419 00bd 00       		.uleb128 0
 1420 00be 00       		.uleb128 0
 1421              	.LLSDACSE1386:
 1422              		.section	.text._ZN8UnitTest15MemoryOutStreamD0Ev,"axG",@progbits,_ZN8UnitTest15MemoryOutStreamD0Ev
 1424 00da 660F1F44 		.p2align 4
 1424      0000
 1425              		.weak	_ZTv0_n24_N8UnitTest15MemoryOutStreamD0Ev
 1427              	_ZTv0_n24_N8UnitTest15MemoryOutStreamD0Ev:
 1428              	.LFB1390:
 1429              		.cfi_startproc
 1430              		.cfi_personality 0x9b,DW.ref.__gxx_personality_v0
 1431              		.cfi_lsda 0x1b,.LLSDA1390
 1432 00e0 F30F1EFA 		endbr64
 1433 00e4 4154     		pushq	%r12
 1434              		.cfi_def_cfa_offset 16
 1435              		.cfi_offset 12, -16
 1436 00e6 55       		pushq	%rbp
 1437              		.cfi_def_cfa_offset 24
 1438              		.cfi_offset 6, -24
 1439 00e7 4889FD   		movq	%rdi, %rbp
 1440 00ea 4883EC08 		subq	$8, %rsp
 1441              		.cfi_def_cfa_offset 32
 1442 00ee 488B07   		movq	(%rdi), %rax
 1443 00f1 480368E8 		addq	-24(%rax), %rbp
 1444 00f5 488D0500 		leaq	24+_ZTVN8UnitTest15MemoryOutStreamE(%rip), %rax
 1444      000000
 1445 00fc 48894500 		movq	%rax, 0(%rbp)
 1446 0100 488B7D70 		movq	112(%rbp), %rdi
 1447 0104 4883C028 		addq	$40, %rax
 1448 0108 48898590 		movq	%rax, 144(%rbp)
 1448      000000
 1449 010f 488D8580 		leaq	128(%rbp), %rax
 1449      000000
 1450 0116 4839C7   		cmpq	%rax, %rdi
 1451 0119 7405     		je	.L72
 1452 011b E8000000 		call	_ZdlPv@PLT
 1452      00
 1453              	.L72:
 1454 0120 488D0500 		leaq	64+_ZTCN8UnitTest15MemoryOutStreamE0_NSt7__cxx1119basic_ostringstreamIcSt11char_traitsIcESaIc
 1454      000000
 1455 0127 488D1500 		leaq	24+_ZTCN8UnitTest15MemoryOutStreamE0_NSt7__cxx1119basic_ostringstreamIcSt11char_traitsIcESaIc
 1455      000000
 1456 012e 488B7D50 		movq	80(%rbp), %rdi
 1457 0132 48898590 		movq	%rax, 144(%rbp)
 1457      000000
 1458 0139 488D0500 		leaq	16+_ZTVNSt7__cxx1115basic_stringbufIcSt11char_traitsIcESaIcEEE(%rip), %rax
 1458      000000
 1459 0140 66480F6E 		movq	%rdx, %xmm0
 1459      C2
 1460 0145 4C8DA590 		leaq	144(%rbp), %r12
 1460      000000
 1461 014c 66480F6E 		movq	%rax, %xmm1
 1461      C8
 1462 0151 488D4560 		leaq	96(%rbp), %rax
 1463 0155 660F6CC1 		punpcklqdq	%xmm1, %xmm0
 1464 0159 0F114500 		movups	%xmm0, 0(%rbp)
 1465 015d 4839C7   		cmpq	%rax, %rdi
 1466 0160 7405     		je	.L73
 1467 0162 E8000000 		call	_ZdlPv@PLT
 1467      00
 1468              	.L73:
 1469 0167 488D0500 		leaq	16+_ZTVSt15basic_streambufIcSt11char_traitsIcEE(%rip), %rax
 1469      000000
 1470 016e 488D7D40 		leaq	64(%rbp), %rdi
 1471 0172 48894508 		movq	%rax, 8(%rbp)
 1472 0176 E8000000 		call	_ZNSt6localeD1Ev@PLT
 1472      00
 1473 017b 488D0500 		leaq	24+_ZTCN8UnitTest15MemoryOutStreamE0_So(%rip), %rax
 1473      000000
 1474 0182 4C89E7   		movq	%r12, %rdi
 1475 0185 48894500 		movq	%rax, 0(%rbp)
 1476 0189 488D0500 		leaq	16+_ZTVSt9basic_iosIcSt11char_traitsIcEE(%rip), %rax
 1476      000000
 1477 0190 48898590 		movq	%rax, 144(%rbp)
 1477      000000
 1478              	.LEHB24:
 1479 0197 E8000000 		call	_ZNSt8ios_baseD2Ev@PLT
 1479      00
 1480              	.LEHE24:
 1481 019c 4883C408 		addq	$8, %rsp
 1482              		.cfi_remember_state
 1483              		.cfi_def_cfa_offset 24
 1484 01a0 4889EF   		movq	%rbp, %rdi
 1485 01a3 5D       		popq	%rbp
 1486              		.cfi_def_cfa_offset 16
 1487 01a4 415C     		popq	%r12
 1488              		.cfi_def_cfa_offset 8
 1489 01a6 E9000000 		jmp	_ZdlPv@PLT
 1489      00
 1490              	.L75:
 1491              		.cfi_restore_state
 1492 01ab F30F1EFA 		endbr64
 1493 01af 4989C4   		movq	%rax, %r12
 1494              	.L74:
 1495 01b2 4889EF   		movq	%rbp, %rdi
 1496 01b5 E8000000 		call	_ZdlPv@PLT
 1496      00
 1497 01ba 4C89E7   		movq	%r12, %rdi
 1498              	.LEHB25:
 1499 01bd E8000000 		call	_Unwind_Resume@PLT
 1499      00
 1500              	.LEHE25:
 1501              		.cfi_endproc
 1502              	.LFE1390:
 1503              		.section	.gcc_except_table
 1504              	.LLSDA1390:
 1505 00bf FF       		.byte	0xff
 1506 00c0 FF       		.byte	0xff
 1507 00c1 01       		.byte	0x1
 1508 00c2 0B       		.uleb128 .LLSDACSE1390-.LLSDACSB1390
 1509              	.LLSDACSB1390:
 1510 00c3 B701     		.uleb128 .LEHB24-.LFB1390
 1511 00c5 05       		.uleb128 .LEHE24-.LEHB24
 1512 00c6 CB01     		.uleb128 .L75-.LFB1390
 1513 00c8 00       		.uleb128 0
 1514 00c9 DD01     		.uleb128 .LEHB25-.LFB1390
 1515 00cb 05       		.uleb128 .LEHE25-.LEHB25
 1516 00cc 00       		.uleb128 0
 1517 00cd 00       		.uleb128 0
 1518              	.LLSDACSE1390:
 1519              		.section	.text._ZN8UnitTest15MemoryOutStreamD0Ev,"axG",@progbits,_ZN8UnitTest15MemoryOutStreamD0Ev
 1521              		.section	.text._ZNSt7__cxx1115basic_stringbufIcSt11char_traitsIcESaIcEED2Ev,"axG",@progbits,_ZNSt7
 1522              		.align 2
 1523              		.p2align 4
 1524              		.weak	_ZNSt7__cxx1115basic_stringbufIcSt11char_traitsIcESaIcEED2Ev
 1526              	_ZNSt7__cxx1115basic_stringbufIcSt11char_traitsIcESaIcEED2Ev:
 1527              	.LFB1261:
 1528              		.cfi_startproc
 1529 0000 F30F1EFA 		endbr64
 1530 0004 488D0500 		leaq	16+_ZTVNSt7__cxx1115basic_stringbufIcSt11char_traitsIcESaIcEEE(%rip), %rax
 1530      000000
 1531 000b 53       		pushq	%rbx
 1532              		.cfi_def_cfa_offset 16
 1533              		.cfi_offset 3, -16
 1534 000c 4889FB   		movq	%rdi, %rbx
 1535 000f 488907   		movq	%rax, (%rdi)
 1536 0012 488B7F48 		movq	72(%rdi), %rdi
 1537 0016 488D4358 		leaq	88(%rbx), %rax
 1538 001a 4839C7   		cmpq	%rax, %rdi
 1539 001d 7405     		je	.L78
 1540 001f E8000000 		call	_ZdlPv@PLT
 1540      00
 1541              	.L78:
 1542 0024 488D0500 		leaq	16+_ZTVSt15basic_streambufIcSt11char_traitsIcEE(%rip), %rax
 1542      000000
 1543 002b 488D7B38 		leaq	56(%rbx), %rdi
 1544 002f 488903   		movq	%rax, (%rbx)
 1545 0032 5B       		popq	%rbx
 1546              		.cfi_def_cfa_offset 8
 1547 0033 E9000000 		jmp	_ZNSt6localeD1Ev@PLT
 1547      00
 1548              		.cfi_endproc
 1549              	.LFE1261:
 1551              		.weak	_ZNSt7__cxx1115basic_stringbufIcSt11char_traitsIcESaIcEED1Ev
 1552              		.set	_ZNSt7__cxx1115basic_stringbufIcSt11char_traitsIcESaIcEED1Ev,_ZNSt7__cxx1115basic_stringbufIc
 1553              		.section	.rodata.str1.1,"aMS",@progbits,1
 1554              	.LC11:
 1555 0000 73747265 		.string	"stream.GetText() != 0"
 1555      616D2E47 
 1555      65745465 
 1555      78742829 
 1555      20213D20 
 1556              	.LC12:
 1557 0016 00       		.string	""
 1558              		.section	.rodata.str1.8,"aMS",@progbits,1
 1559              		.align 8
 1560              	.LC13:
 1561 0000 556E6861 		.string	"Unhandled exception in CHECK(stream.GetText() != 0)"
 1561      6E646C65 
 1561      64206578 
 1561      63657074 
 1561      696F6E20 
 1562 0034 00000000 		.align 8
 1563              	.LC14:
 1564 0038 556E6861 		.string	"Unhandled exception in CHECK_EQUAL(\"\", stream.GetText())"
 1564      6E646C65 
 1564      64206578 
 1564      63657074 
 1564      696F6E20 
 1565              		.section	.text.unlikely
 1566              		.align 2
 1567              	.LCOLDB18:
 1568              		.text
 1569              	.LHOTB18:
 1570              		.align 2
 1571 0418 0F1F8400 		.p2align 4
 1571      00000000 
 1573              	_ZNK12_GLOBAL__N_124TestDefaultIsEmptyString7RunImplEv:
 1574              	.LFB1211:
 1575              		.cfi_startproc
 1576              		.cfi_personality 0x9b,DW.ref.__gxx_personality_v0
 1577              		.cfi_lsda 0x1b,.LLSDA1211
 1578 0420 F30F1EFA 		endbr64
 1579 0424 4157     		pushq	%r15
 1580              		.cfi_def_cfa_offset 16
 1581              		.cfi_offset 15, -16
 1582 0426 4156     		pushq	%r14
 1583              		.cfi_def_cfa_offset 24
 1584              		.cfi_offset 14, -24
 1585 0428 4155     		pushq	%r13
 1586              		.cfi_def_cfa_offset 32
 1587              		.cfi_offset 13, -32
 1588 042a 4154     		pushq	%r12
 1589              		.cfi_def_cfa_offset 40
 1590              		.cfi_offset 12, -40
 1591 042c 55       		pushq	%rbp
 1592              		.cfi_def_cfa_offset 48
 1593              		.cfi_offset 6, -48
 1594 042d 53       		pushq	%rbx
 1595              		.cfi_def_cfa_offset 56
 1596              		.cfi_offset 3, -56
 1597 042e 488D1D00 		leaq	24+_ZTCN8UnitTest15MemoryOutStreamE0_So(%rip), %rbx
 1597      000000
 1598 0435 4881ECE8 		subq	$488, %rsp
 1598      010000
 1599              		.cfi_def_cfa_offset 544
 1600 043c F30F7E0D 		movq	.LC15(%rip), %xmm1
 1600      00000000 
 1601 0444 64488B04 		movq	%fs:40, %rax
 1601      25280000 
 1601      00
 1602 044d 48898424 		movq	%rax, 472(%rsp)
 1602      D8010000 
 1603 0455 31C0     		xorl	%eax, %eax
 1604 0457 4C8DA424 		leaq	208(%rsp), %r12
 1604      D0000000 
 1605 045f 0F160D00 		movhps	.LC16(%rip), %xmm1
 1605      000000
 1606 0466 4C89E7   		movq	%r12, %rdi
 1607 0469 0F290C24 		movaps	%xmm1, (%rsp)
 1608 046d E8000000 		call	_ZNSt8ios_baseC2Ev@PLT
 1608      00
 1609 0472 31C0     		xorl	%eax, %eax
 1610 0474 660FEFC0 		pxor	%xmm0, %xmm0
 1611 0478 31F6     		xorl	%esi, %esi
 1612 047a 66898424 		movw	%ax, 432(%rsp)
 1612      B0010000 
 1613 0482 4C89E7   		movq	%r12, %rdi
 1614 0485 488D4328 		leaq	40(%rbx), %rax
 1615 0489 48C78424 		movq	$0, 424(%rsp)
 1615      A8010000 
 1615      00000000 
 1616 0495 48895C24 		movq	%rbx, 64(%rsp)
 1616      40
 1617 049a 48898424 		movq	%rax, 208(%rsp)
 1617      D0000000 
 1618 04a2 0F118424 		movups	%xmm0, 440(%rsp)
 1618      B8010000 
 1619 04aa 0F118424 		movups	%xmm0, 456(%rsp)
 1619      C8010000 
 1620              	.LEHB26:
 1621 04b2 E8000000 		call	_ZNSt9basic_iosIcSt11char_traitsIcEE4initEPSt15basic_streambufIcS1_E@PLT
 1621      00
 1622              	.LEHE26:
 1623 04b7 660F6F0C 		movdqa	(%rsp), %xmm1
 1623      24
 1624 04bc 660FEFC0 		pxor	%xmm0, %xmm0
 1625 04c0 4C8DBC24 		leaq	128(%rsp), %r15
 1625      80000000 
 1626 04c8 488D0500 		leaq	64+_ZTCN8UnitTest15MemoryOutStreamE0_NSt7__cxx1119basic_ostringstreamIcSt11char_traitsIcESaIc
 1626      000000
 1627 04cf 4C89FF   		movq	%r15, %rdi
 1628 04d2 0F294424 		movaps	%xmm0, 80(%rsp)
 1628      50
 1629 04d7 488D6C24 		leaq	64(%rsp), %rbp
 1629      40
 1630 04dc 4C8D6C24 		leaq	72(%rsp), %r13
 1630      48
 1631 04e1 48898424 		movq	%rax, 208(%rsp)
 1631      D0000000 
 1632 04e9 0F294C24 		movaps	%xmm1, 64(%rsp)
 1632      40
 1633 04ee 0F294424 		movaps	%xmm0, 96(%rsp)
 1633      60
 1634 04f3 0F294424 		movaps	%xmm0, 112(%rsp)
 1634      70
 1635 04f8 E8000000 		call	_ZNSt6localeC1Ev@PLT
 1635      00
 1636 04fd 488D0500 		leaq	16+_ZTVNSt7__cxx1115basic_stringbufIcSt11char_traitsIcESaIcEEE(%rip), %rax
 1636      000000
 1637 0504 C68424A0 		movb	$0, 160(%rsp)
 1637      00000000 
 1638 050c 4C89EE   		movq	%r13, %rsi
 1639 050f 48894424 		movq	%rax, 72(%rsp)
 1639      48
 1640 0514 488D8424 		leaq	160(%rsp), %rax
 1640      A0000000 
 1641 051c 48890424 		movq	%rax, (%rsp)
 1642 0520 48898424 		movq	%rax, 144(%rsp)
 1642      90000000 
 1643 0528 488B4424 		movq	64(%rsp), %rax
 1643      40
 1644 052d 48C78424 		movq	$0, 152(%rsp)
 1644      98000000 
 1644      00000000 
 1645 0539 C7842488 		movl	$16, 136(%rsp)
 1645      00000010 
 1645      000000
 1646 0544 488B78E8 		movq	-24(%rax), %rdi
 1647 0548 4801EF   		addq	%rbp, %rdi
 1648              	.LEHB27:
 1649 054b E8000000 		call	_ZNSt9basic_iosIcSt11char_traitsIcEE4initEPSt15basic_streambufIcS1_E@PLT
 1649      00
 1650              	.LEHE27:
 1651 0550 488D0500 		leaq	24+_ZTVN8UnitTest15MemoryOutStreamE(%rip), %rax
 1651      000000
 1652 0557 4889EF   		movq	%rbp, %rdi
 1653 055a 48C78424 		movq	$0, 184(%rsp)
 1653      B8000000 
 1653      00000000 
 1654 0566 48894424 		movq	%rax, 64(%rsp)
 1654      40
 1655 056b 4883C028 		addq	$40, %rax
 1656 056f 48898424 		movq	%rax, 208(%rsp)
 1656      D0000000 
 1657 0577 488D8424 		leaq	192(%rsp), %rax
 1657      C0000000 
 1658 057f 48894424 		movq	%rax, 16(%rsp)
 1658      10
 1659 0584 48898424 		movq	%rax, 176(%rsp)
 1659      B0000000 
 1660 058c C68424C0 		movb	$0, 192(%rsp)
 1660      00000000 
 1661              	.LEHB28:
 1662 0594 E8000000 		call	_ZNK8UnitTest15MemoryOutStream7GetTextEv@PLT
 1662      00
 1663              	.LEHE28:
 1664 0599 4885C0   		testq	%rax, %rax
 1665 059c 0F840601 		je	.L107
 1665      0000
 1666              	.L86:
 1667              	.LEHB29:
 1668 05a2 E8000000 		call	_ZN8UnitTest11CurrentTest7DetailsEv@PLT
 1668      00
 1669 05a7 4C8D7424 		leaq	32(%rsp), %r14
 1669      20
 1670 05ac 488B30   		movq	(%rax), %rsi
 1671 05af BA0F0000 		movl	$15, %edx
 1671      00
 1672 05b4 4C89F7   		movq	%r14, %rdi
 1673 05b7 E8000000 		call	_ZN8UnitTest11TestDetailsC1ERKS0_i@PLT
 1673      00
 1674 05bc 4889EF   		movq	%rbp, %rdi
 1675 05bf E8000000 		call	_ZNK8UnitTest15MemoryOutStream7GetTextEv@PLT
 1675      00
 1676 05c4 4989C5   		movq	%rax, %r13
 1677 05c7 E8000000 		call	_ZN8UnitTest11CurrentTest7ResultsEv@PLT
 1677      00
 1678 05cc 488B38   		movq	(%rax), %rdi
 1679 05cf 4C89F1   		movq	%r14, %rcx
 1680 05d2 4C89EA   		movq	%r13, %rdx
 1681 05d5 488D3500 		leaq	.LC12(%rip), %rsi
 1681      000000
 1682 05dc E8000000 		call	_ZN8UnitTest10CheckEqualERNS_11TestResultsEPKcS3_RKNS_11TestDetailsE@PLT
 1682      00
 1683              	.LEHE29:
 1684              	.L94:
 1685 05e1 488D0500 		leaq	24+_ZTVN8UnitTest15MemoryOutStreamE(%rip), %rax
 1685      000000
 1686 05e8 488BBC24 		movq	176(%rsp), %rdi
 1686      B0000000 
 1687 05f0 F30F7E05 		movq	.LC15(%rip), %xmm0
 1687      00000000 
 1688 05f8 48894424 		movq	%rax, 64(%rsp)
 1688      40
 1689 05fd 4883C028 		addq	$40, %rax
 1690 0601 48898424 		movq	%rax, 208(%rsp)
 1690      D0000000 
 1691 0609 0F160500 		movhps	.LC17(%rip), %xmm0
 1691      000000
 1692 0610 483B7C24 		cmpq	16(%rsp), %rdi
 1692      10
 1693 0615 7410     		je	.L87
 1694 0617 0F294424 		movaps	%xmm0, 16(%rsp)
 1694      10
 1695 061c E8000000 		call	_ZdlPv@PLT
 1695      00
 1696 0621 660F6F44 		movdqa	16(%rsp), %xmm0
 1696      2410
 1697              	.L87:
 1698 0627 488D0500 		leaq	64+_ZTCN8UnitTest15MemoryOutStreamE0_NSt7__cxx1119basic_ostringstreamIcSt11char_traitsIcESaIc
 1698      000000
 1699 062e 488BBC24 		movq	144(%rsp), %rdi
 1699      90000000 
 1700 0636 0F294424 		movaps	%xmm0, 64(%rsp)
 1700      40
 1701 063b 48898424 		movq	%rax, 208(%rsp)
 1701      D0000000 
 1702 0643 483B3C24 		cmpq	(%rsp), %rdi
 1703 0647 7405     		je	.L88
 1704 0649 E8000000 		call	_ZdlPv@PLT
 1704      00
 1705              	.L88:
 1706 064e 488D0500 		leaq	16+_ZTVSt15basic_streambufIcSt11char_traitsIcEE(%rip), %rax
 1706      000000
 1707 0655 4C89FF   		movq	%r15, %rdi
 1708 0658 48894424 		movq	%rax, 72(%rsp)
 1708      48
 1709 065d E8000000 		call	_ZNSt6localeD1Ev@PLT
 1709      00
 1710 0662 488D0500 		leaq	16+_ZTVSt9basic_iosIcSt11char_traitsIcEE(%rip), %rax
 1710      000000
 1711 0669 4C89E7   		movq	%r12, %rdi
 1712 066c 48895C24 		movq	%rbx, 64(%rsp)
 1712      40
 1713 0671 48898424 		movq	%rax, 208(%rsp)
 1713      D0000000 
 1714              	.LEHB30:
 1715 0679 E8000000 		call	_ZNSt8ios_baseD2Ev@PLT
 1715      00
 1716              	.LEHE30:
 1717 067e 488B8424 		movq	472(%rsp), %rax
 1717      D8010000 
 1718 0686 64482B04 		subq	%fs:40, %rax
 1718      25280000 
 1718      00
 1719 068f 7550     		jne	.L108
 1720 0691 4881C4E8 		addq	$488, %rsp
 1720      010000
 1721              		.cfi_remember_state
 1722              		.cfi_def_cfa_offset 56
 1723 0698 5B       		popq	%rbx
 1724              		.cfi_def_cfa_offset 48
 1725 0699 5D       		popq	%rbp
 1726              		.cfi_def_cfa_offset 40
 1727 069a 415C     		popq	%r12
 1728              		.cfi_def_cfa_offset 32
 1729 069c 415D     		popq	%r13
 1730              		.cfi_def_cfa_offset 24
 1731 069e 415E     		popq	%r14
 1732              		.cfi_def_cfa_offset 16
 1733 06a0 415F     		popq	%r15
 1734              		.cfi_def_cfa_offset 8
 1735 06a2 C3       		ret
 1736              		.p2align 4,,10
 1737 06a3 0F1F4400 		.p2align 3
 1737      00
 1738              	.L107:
 1739              		.cfi_restore_state
 1740              	.LEHB31:
 1741 06a8 E8000000 		call	_ZN8UnitTest11CurrentTest7ResultsEv@PLT
 1741      00
 1742 06ad 4C8B28   		movq	(%rax), %r13
 1743 06b0 E8000000 		call	_ZN8UnitTest11CurrentTest7DetailsEv@PLT
 1743      00
 1744 06b5 4C8D7424 		leaq	32(%rsp), %r14
 1744      20
 1745 06ba 488B30   		movq	(%rax), %rsi
 1746 06bd BA0E0000 		movl	$14, %edx
 1746      00
 1747 06c2 4C89F7   		movq	%r14, %rdi
 1748 06c5 E8000000 		call	_ZN8UnitTest11TestDetailsC1ERKS0_i@PLT
 1748      00
 1749 06ca 488D1500 		leaq	.LC11(%rip), %rdx
 1749      000000
 1750 06d1 4C89F6   		movq	%r14, %rsi
 1751 06d4 4C89EF   		movq	%r13, %rdi
 1752 06d7 E8000000 		call	_ZN8UnitTest11TestResults13OnTestFailureERKNS_11TestDetailsEPKc@PLT
 1752      00
 1753              	.LEHE31:
 1754 06dc E9C1FEFF 		jmp	.L86
 1754      FF
 1755              	.L108:
 1756 06e1 E8000000 		call	__stack_chk_fail@PLT
 1756      00
 1757              	.L100:
 1758 06e6 F30F1EFA 		endbr64
 1759 06ea 4889C7   		movq	%rax, %rdi
 1760 06ed E9000000 		jmp	.L93
 1760      00
 1761              	.L103:
 1762 06f2 F30F1EFA 		endbr64
 1763 06f6 4889C5   		movq	%rax, %rbp
 1764 06f9 E9000000 		jmp	.L82
 1764      00
 1765              	.L97:
 1766 06fe F30F1EFA 		endbr64
 1767 0702 4889C7   		movq	%rax, %rdi
 1768 0705 E9000000 		jmp	.L89
 1768      00
 1769              	.L102:
 1770 070a F30F1EFA 		endbr64
 1771 070e 4889C5   		movq	%rax, %rbp
 1772 0711 E9000000 		jmp	.L83
 1772      00
 1773              		.section	.gcc_except_table
 1774 00ce 0000     		.align 4
 1775              	.LLSDA1211:
 1776 00d0 FF       		.byte	0xff
 1777 00d1 9B       		.byte	0x9b
 1778 00d2 2D       		.uleb128 .LLSDATT1211-.LLSDATTD1211
 1779              	.LLSDATTD1211:
 1780 00d3 01       		.byte	0x1
 1781 00d4 23       		.uleb128 .LLSDACSE1211-.LLSDACSB1211
 1782              	.LLSDACSB1211:
 1783 00d5 9201     		.uleb128 .LEHB26-.LFB1211
 1784 00d7 05       		.uleb128 .LEHE26-.LEHB26
 1785 00d8 EA05     		.uleb128 .L102-.LFB1211
 1786 00da 00       		.uleb128 0
 1787 00db AB02     		.uleb128 .LEHB27-.LFB1211
 1788 00dd 05       		.uleb128 .LEHE27-.LEHB27
 1789 00de D205     		.uleb128 .L103-.LFB1211
 1790 00e0 00       		.uleb128 0
 1791 00e1 F402     		.uleb128 .LEHB28-.LFB1211
 1792 00e3 05       		.uleb128 .LEHE28-.LEHB28
 1793 00e4 DE05     		.uleb128 .L97-.LFB1211
 1794 00e6 01       		.uleb128 0x1
 1795 00e7 8203     		.uleb128 .LEHB29-.LFB1211
 1796 00e9 3F       		.uleb128 .LEHE29-.LEHB29
 1797 00ea C605     		.uleb128 .L100-.LFB1211
 1798 00ec 01       		.uleb128 0x1
 1799 00ed D904     		.uleb128 .LEHB30-.LFB1211
 1800 00ef 05       		.uleb128 .LEHE30-.LEHB30
 1801 00f0 00       		.uleb128 0
 1802 00f1 00       		.uleb128 0
 1803 00f2 8805     		.uleb128 .LEHB31-.LFB1211
 1804 00f4 34       		.uleb128 .LEHE31-.LEHB31
 1805 00f5 DE05     		.uleb128 .L97-.LFB1211
 1806 00f7 01       		.uleb128 0x1
 1807              	.LLSDACSE1211:
 1808 00f8 01       		.byte	0x1
 1809 00f9 00       		.byte	0
 1810 00fa 0000     		.align 4
 1811 00fc 00000000 		.long	0
 1812              	
 1813              	.LLSDATT1211:
 1814              		.text
 1815              		.cfi_endproc
 1816              		.section	.text.unlikely
 1817              		.cfi_startproc
 1818              		.cfi_personality 0x9b,DW.ref.__gxx_personality_v0
 1819              		.cfi_lsda 0x1b,.LLSDAC1211
 1821              	_ZNK12_GLOBAL__N_124TestDefaultIsEmptyString7RunImplEv.cold:
 1822              	.LFSB1211:
 1823              	.L93:
 1824              		.cfi_def_cfa_offset 544
 1825              		.cfi_offset 3, -56
 1826              		.cfi_offset 6, -48
 1827              		.cfi_offset 12, -40
 1828              		.cfi_offset 13, -32
 1829              		.cfi_offset 14, -24
 1830              		.cfi_offset 15, -16
 1831 00b0 E8000000 		call	__cxa_begin_catch@PLT
 1831      00
 1832              	.LEHB32:
 1833 00b5 E8000000 		call	_ZN8UnitTest11CurrentTest7ResultsEv@PLT
 1833      00
 1834 00ba 4C8B28   		movq	(%rax), %r13
 1835 00bd E8000000 		call	_ZN8UnitTest11CurrentTest7DetailsEv@PLT
 1835      00
 1836 00c2 4C8D7424 		leaq	32(%rsp), %r14
 1836      20
 1837 00c7 488B30   		movq	(%rax), %rsi
 1838 00ca BA0F0000 		movl	$15, %edx
 1838      00
 1839 00cf 4C89F7   		movq	%r14, %rdi
 1840 00d2 E8000000 		call	_ZN8UnitTest11TestDetailsC1ERKS0_i@PLT
 1840      00
 1841 00d7 488D1500 		leaq	.LC14(%rip), %rdx
 1841      000000
 1842 00de 4C89F6   		movq	%r14, %rsi
 1843 00e1 4C89EF   		movq	%r13, %rdi
 1844 00e4 E8000000 		call	_ZN8UnitTest11TestResults13OnTestFailureERKNS_11TestDetailsEPKc@PLT
 1844      00
 1845              	.LEHE32:
 1846              	.LEHB33:
 1847 00e9 E8000000 		call	__cxa_end_catch@PLT
 1847      00
 1848              	.LEHE33:
 1849 00ee E9000000 		jmp	.L94
 1849      00
 1850              	.L82:
 1851 00f3 4C89EF   		movq	%r13, %rdi
 1852 00f6 E8000000 		call	_ZNSt7__cxx1115basic_stringbufIcSt11char_traitsIcESaIcEED1Ev
 1852      00
 1853 00fb 48895C24 		movq	%rbx, 64(%rsp)
 1853      40
 1854              	.L83:
 1855 0100 488D0500 		leaq	16+_ZTVSt9basic_iosIcSt11char_traitsIcEE(%rip), %rax
 1855      000000
 1856 0107 4C89E7   		movq	%r12, %rdi
 1857 010a 48898424 		movq	%rax, 208(%rsp)
 1857      D0000000 
 1858 0112 E8000000 		call	_ZNSt8ios_baseD2Ev@PLT
 1858      00
 1859 0117 4889EF   		movq	%rbp, %rdi
 1860              	.LEHB34:
 1861 011a E8000000 		call	_Unwind_Resume@PLT
 1861      00
 1862              	.LEHE34:
 1863              	.L98:
 1864 011f F30F1EFA 		endbr64
 1865 0123 4989C4   		movq	%rax, %r12
 1866 0126 EB0C     		jmp	.L92
 1867              	.L101:
 1868 0128 F30F1EFA 		endbr64
 1869 012c 4989C4   		movq	%rax, %r12
 1870 012f E8000000 		call	__cxa_end_catch@PLT
 1870      00
 1871              	.L92:
 1872 0134 4889EF   		movq	%rbp, %rdi
 1873 0137 E8000000 		call	_ZN8UnitTest15MemoryOutStreamD1Ev
 1873      00
 1874 013c 4C89E7   		movq	%r12, %rdi
 1875              	.LEHB35:
 1876 013f E8000000 		call	_Unwind_Resume@PLT
 1876      00
 1877              	.LEHE35:
 1878              	.L89:
 1879 0144 E8000000 		call	__cxa_begin_catch@PLT
 1879      00
 1880              	.LEHB36:
 1881 0149 E8000000 		call	_ZN8UnitTest11CurrentTest7ResultsEv@PLT
 1881      00
 1882 014e 4C8B28   		movq	(%rax), %r13
 1883 0151 E8000000 		call	_ZN8UnitTest11CurrentTest7DetailsEv@PLT
 1883      00
 1884 0156 4C8D7424 		leaq	32(%rsp), %r14
 1884      20
 1885 015b 488B30   		movq	(%rax), %rsi
 1886 015e BA0E0000 		movl	$14, %edx
 1886      00
 1887 0163 4C89F7   		movq	%r14, %rdi
 1888 0166 E8000000 		call	_ZN8UnitTest11TestDetailsC1ERKS0_i@PLT
 1888      00
 1889 016b 488D1500 		leaq	.LC13(%rip), %rdx
 1889      000000
 1890 0172 4C89F6   		movq	%r14, %rsi
 1891 0175 4C89EF   		movq	%r13, %rdi
 1892 0178 E8000000 		call	_ZN8UnitTest11TestResults13OnTestFailureERKNS_11TestDetailsEPKc@PLT
 1892      00
 1893              	.LEHE36:
 1894              	.LEHB37:
 1895 017d E8000000 		call	__cxa_end_catch@PLT
 1895      00
 1896              	.LEHE37:
 1897 0182 E9000000 		jmp	.L86
 1897      00
 1898              	.L99:
 1899 0187 F30F1EFA 		endbr64
 1900 018b 4989C4   		movq	%rax, %r12
 1901 018e E8000000 		call	__cxa_end_catch@PLT
 1901      00
 1902 0193 EB9F     		jmp	.L92
 1903              		.cfi_endproc
 1904              	.LFE1211:
 1905              		.section	.gcc_except_table
 1906              		.align 4
 1907              	.LLSDAC1211:
 1908 0100 FF       		.byte	0xff
 1909 0101 9B       		.byte	0x9b
 1910 0102 25       		.uleb128 .LLSDATTC1211-.LLSDATTDC1211
 1911              	.LLSDATTDC1211:
 1912 0103 01       		.byte	0x1
 1913 0104 1C       		.uleb128 .LLSDACSEC1211-.LLSDACSBC1211
 1914              	.LLSDACSBC1211:
 1915 0105 05       		.uleb128 .LEHB32-.LCOLDB18
 1916 0106 34       		.uleb128 .LEHE32-.LEHB32
 1917 0107 78       		.uleb128 .L101-.LCOLDB18
 1918 0108 00       		.uleb128 0
 1919 0109 39       		.uleb128 .LEHB33-.LCOLDB18
 1920 010a 05       		.uleb128 .LEHE33-.LEHB33
 1921 010b 6F       		.uleb128 .L98-.LCOLDB18
 1922 010c 00       		.uleb128 0
 1923 010d 6A       		.uleb128 .LEHB34-.LCOLDB18
 1924 010e 05       		.uleb128 .LEHE34-.LEHB34
 1925 010f 00       		.uleb128 0
 1926 0110 00       		.uleb128 0
 1927 0111 8F01     		.uleb128 .LEHB35-.LCOLDB18
 1928 0113 05       		.uleb128 .LEHE35-.LEHB35
 1929 0114 00       		.uleb128 0
 1930 0115 00       		.uleb128 0
 1931 0116 9901     		.uleb128 .LEHB36-.LCOLDB18
 1932 0118 34       		.uleb128 .LEHE36-.LEHB36
 1933 0119 D701     		.uleb128 .L99-.LCOLDB18
 1934 011b 00       		.uleb128 0
 1935 011c CD01     		.uleb128 .LEHB37-.LCOLDB18
 1936 011e 05       		.uleb128 .LEHE37-.LEHB37
 1937 011f 6F       		.uleb128 .L98-.LCOLDB18
 1938 0120 00       		.uleb128 0
 1939              	.LLSDACSEC1211:
 1940 0121 01       		.byte	0x1
 1941 0122 00       		.byte	0
 1942 0123 00       		.align 4
 1943 0124 00000000 		.long	0
 1944              	
 1945              	.LLSDATTC1211:
 1946              		.section	.text.unlikely
 1947              		.text
 1949              		.section	.text.unlikely
 1951              	.LCOLDE18:
 1952              		.text
 1953              	.LHOTE18:
 1954              		.section	.rodata.str1.1
 1955              	.LC19:
 1956 0017 31323300 		.string	"123"
 1957              		.section	.rodata.str1.8
 1958 0071 00000000 		.align 8
 1958      000000
 1959              	.LC20:
 1960 0078 556E6861 		.string	"Unhandled exception in CHECK_EQUAL(\"123\", stream.GetText())"
 1960      6E646C65 
 1960      64206578 
 1960      63657074 
 1960      696F6E20 
 1961              		.section	.text.unlikely
 1962 0195 90       		.align 2
 1963              	.LCOLDB21:
 1964              		.text
 1965              	.LHOTB21:
 1966              		.align 2
 1967 0716 662E0F1F 		.p2align 4
 1967      84000000 
 1967      0000
 1969              	_ZNK12_GLOBAL__N_139TestStreamingIntWritesCorrectCharacters7RunImplEv:
 1970              	.LFB1223:
 1971              		.cfi_startproc
 1972              		.cfi_personality 0x9b,DW.ref.__gxx_personality_v0
 1973              		.cfi_lsda 0x1b,.LLSDA1223
 1974 0720 F30F1EFA 		endbr64
 1975 0724 4157     		pushq	%r15
 1976              		.cfi_def_cfa_offset 16
 1977              		.cfi_offset 15, -16
 1978 0726 4156     		pushq	%r14
 1979              		.cfi_def_cfa_offset 24
 1980              		.cfi_offset 14, -24
 1981 0728 4155     		pushq	%r13
 1982              		.cfi_def_cfa_offset 32
 1983              		.cfi_offset 13, -32
 1984 072a 4154     		pushq	%r12
 1985              		.cfi_def_cfa_offset 40
 1986              		.cfi_offset 12, -40
 1987 072c 55       		pushq	%rbp
 1988              		.cfi_def_cfa_offset 48
 1989              		.cfi_offset 6, -48
 1990 072d 53       		pushq	%rbx
 1991              		.cfi_def_cfa_offset 56
 1992              		.cfi_offset 3, -56
 1993 072e 488D1D00 		leaq	24+_ZTCN8UnitTest15MemoryOutStreamE0_So(%rip), %rbx
 1993      000000
 1994 0735 4881ECE8 		subq	$488, %rsp
 1994      010000
 1995              		.cfi_def_cfa_offset 544
 1996 073c F30F7E0D 		movq	.LC15(%rip), %xmm1
 1996      00000000 
 1997 0744 64488B04 		movq	%fs:40, %rax
 1997      25280000 
 1997      00
 1998 074d 48898424 		movq	%rax, 472(%rsp)
 1998      D8010000 
 1999 0755 31C0     		xorl	%eax, %eax
 2000 0757 4C8DA424 		leaq	208(%rsp), %r12
 2000      D0000000 
 2001 075f 0F160D00 		movhps	.LC16(%rip), %xmm1
 2001      000000
 2002 0766 4C89E7   		movq	%r12, %rdi
 2003 0769 0F290C24 		movaps	%xmm1, (%rsp)
 2004 076d E8000000 		call	_ZNSt8ios_baseC2Ev@PLT
 2004      00
 2005 0772 31C0     		xorl	%eax, %eax
 2006 0774 660FEFC0 		pxor	%xmm0, %xmm0
 2007 0778 31F6     		xorl	%esi, %esi
 2008 077a 66898424 		movw	%ax, 432(%rsp)
 2008      B0010000 
 2009 0782 4C89E7   		movq	%r12, %rdi
 2010 0785 488D4328 		leaq	40(%rbx), %rax
 2011 0789 48C78424 		movq	$0, 424(%rsp)
 2011      A8010000 
 2011      00000000 
 2012 0795 48895C24 		movq	%rbx, 64(%rsp)
 2012      40
 2013 079a 48898424 		movq	%rax, 208(%rsp)
 2013      D0000000 
 2014 07a2 0F118424 		movups	%xmm0, 440(%rsp)
 2014      B8010000 
 2015 07aa 0F118424 		movups	%xmm0, 456(%rsp)
 2015      C8010000 
 2016              	.LEHB38:
 2017 07b2 E8000000 		call	_ZNSt9basic_iosIcSt11char_traitsIcEE4initEPSt15basic_streambufIcS1_E@PLT
 2017      00
 2018              	.LEHE38:
 2019 07b7 660F6F0C 		movdqa	(%rsp), %xmm1
 2019      24
 2020 07bc 660FEFC0 		pxor	%xmm0, %xmm0
 2021 07c0 4C8DBC24 		leaq	128(%rsp), %r15
 2021      80000000 
 2022 07c8 488D0500 		leaq	64+_ZTCN8UnitTest15MemoryOutStreamE0_NSt7__cxx1119basic_ostringstreamIcSt11char_traitsIcESaIc
 2022      000000
 2023 07cf 4C89FF   		movq	%r15, %rdi
 2024 07d2 0F294424 		movaps	%xmm0, 80(%rsp)
 2024      50
 2025 07d7 488D6C24 		leaq	64(%rsp), %rbp
 2025      40
 2026 07dc 4C8D6C24 		leaq	72(%rsp), %r13
 2026      48
 2027 07e1 48898424 		movq	%rax, 208(%rsp)
 2027      D0000000 
 2028 07e9 0F294C24 		movaps	%xmm1, 64(%rsp)
 2028      40
 2029 07ee 0F294424 		movaps	%xmm0, 96(%rsp)
 2029      60
 2030 07f3 0F294424 		movaps	%xmm0, 112(%rsp)
 2030      70
 2031 07f8 E8000000 		call	_ZNSt6localeC1Ev@PLT
 2031      00
 2032 07fd 488D0500 		leaq	16+_ZTVNSt7__cxx1115basic_stringbufIcSt11char_traitsIcESaIcEEE(%rip), %rax
 2032      000000
 2033 0804 C68424A0 		movb	$0, 160(%rsp)
 2033      00000000 
 2034 080c 4C89EE   		movq	%r13, %rsi
 2035 080f 48894424 		movq	%rax, 72(%rsp)
 2035      48
 2036 0814 488D8424 		leaq	160(%rsp), %rax
 2036      A0000000 
 2037 081c 48894424 		movq	%rax, 16(%rsp)
 2037      10
 2038 0821 48898424 		movq	%rax, 144(%rsp)
 2038      90000000 
 2039 0829 488B4424 		movq	64(%rsp), %rax
 2039      40
 2040 082e 48C78424 		movq	$0, 152(%rsp)
 2040      98000000 
 2040      00000000 
 2041 083a C7842488 		movl	$16, 136(%rsp)
 2041      00000010 
 2041      000000
 2042 0845 488B78E8 		movq	-24(%rax), %rdi
 2043 0849 4801EF   		addq	%rbp, %rdi
 2044              	.LEHB39:
 2045 084c E8000000 		call	_ZNSt9basic_iosIcSt11char_traitsIcEE4initEPSt15basic_streambufIcS1_E@PLT
 2045      00
 2046              	.LEHE39:
 2047 0851 4C8D2D00 		leaq	24+_ZTVN8UnitTest15MemoryOutStreamE(%rip), %r13
 2047      000000
 2048 0858 4889EF   		movq	%rbp, %rdi
 2049 085b BE7B0000 		movl	$123, %esi
 2049      00
 2050 0860 48C78424 		movq	$0, 184(%rsp)
 2050      B8000000 
 2050      00000000 
 2051 086c 498D4528 		leaq	40(%r13), %rax
 2052 0870 4C896C24 		movq	%r13, 64(%rsp)
 2052      40
 2053 0875 48898424 		movq	%rax, 208(%rsp)
 2053      D0000000 
 2054 087d 488D8424 		leaq	192(%rsp), %rax
 2054      C0000000 
 2055 0885 48894424 		movq	%rax, 24(%rsp)
 2055      18
 2056 088a 48898424 		movq	%rax, 176(%rsp)
 2056      B0000000 
 2057 0892 C68424C0 		movb	$0, 192(%rsp)
 2057      00000000 
 2058              	.LEHB40:
 2059 089a E8000000 		call	_ZNSolsEi@PLT
 2059      00
 2060              	.LEHE40:
 2061              	.LEHB41:
 2062 089f E8000000 		call	_ZN8UnitTest11CurrentTest7DetailsEv@PLT
 2062      00
 2063 08a4 4C8D7424 		leaq	32(%rsp), %r14
 2063      20
 2064 08a9 488B30   		movq	(%rax), %rsi
 2065 08ac BA240000 		movl	$36, %edx
 2065      00
 2066 08b1 4C89F7   		movq	%r14, %rdi
 2067 08b4 E8000000 		call	_ZN8UnitTest11TestDetailsC1ERKS0_i@PLT
 2067      00
 2068 08b9 4889EF   		movq	%rbp, %rdi
 2069 08bc E8000000 		call	_ZNK8UnitTest15MemoryOutStream7GetTextEv@PLT
 2069      00
 2070 08c1 48890424 		movq	%rax, (%rsp)
 2071 08c5 E8000000 		call	_ZN8UnitTest11CurrentTest7ResultsEv@PLT
 2071      00
 2072 08ca 488B1424 		movq	(%rsp), %rdx
 2073 08ce 488B38   		movq	(%rax), %rdi
 2074 08d1 4C89F1   		movq	%r14, %rcx
 2075 08d4 488D3500 		leaq	.LC19(%rip), %rsi
 2075      000000
 2076 08db E8000000 		call	_ZN8UnitTest10CheckEqualERNS_11TestResultsEPKcS3_RKNS_11TestDetailsE@PLT
 2076      00
 2077              	.LEHE41:
 2078              	.L117:
 2079 08e0 F30F7E05 		movq	.LC15(%rip), %xmm0
 2079      00000000 
 2080 08e8 488D0500 		leaq	64+_ZTVN8UnitTest15MemoryOutStreamE(%rip), %rax
 2080      000000
 2081 08ef 4C896C24 		movq	%r13, 64(%rsp)
 2081      40
 2082 08f4 48898424 		movq	%rax, 208(%rsp)
 2082      D0000000 
 2083 08fc 488BBC24 		movq	176(%rsp), %rdi
 2083      B0000000 
 2084 0904 0F160500 		movhps	.LC17(%rip), %xmm0
 2084      000000
 2085 090b 483B7C24 		cmpq	24(%rsp), %rdi
 2085      18
 2086 0910 740E     		je	.L114
 2087 0912 0F290424 		movaps	%xmm0, (%rsp)
 2088 0916 E8000000 		call	_ZdlPv@PLT
 2088      00
 2089 091b 660F6F04 		movdqa	(%rsp), %xmm0
 2089      24
 2090              	.L114:
 2091 0920 488D0500 		leaq	64+_ZTCN8UnitTest15MemoryOutStreamE0_NSt7__cxx1119basic_ostringstreamIcSt11char_traitsIcESaIc
 2091      000000
 2092 0927 488BBC24 		movq	144(%rsp), %rdi
 2092      90000000 
 2093 092f 0F294424 		movaps	%xmm0, 64(%rsp)
 2093      40
 2094 0934 48898424 		movq	%rax, 208(%rsp)
 2094      D0000000 
 2095 093c 483B7C24 		cmpq	16(%rsp), %rdi
 2095      10
 2096 0941 7405     		je	.L115
 2097 0943 E8000000 		call	_ZdlPv@PLT
 2097      00
 2098              	.L115:
 2099 0948 488D0500 		leaq	16+_ZTVSt15basic_streambufIcSt11char_traitsIcEE(%rip), %rax
 2099      000000
 2100 094f 4C89FF   		movq	%r15, %rdi
 2101 0952 48894424 		movq	%rax, 72(%rsp)
 2101      48
 2102 0957 E8000000 		call	_ZNSt6localeD1Ev@PLT
 2102      00
 2103 095c 488D0500 		leaq	16+_ZTVSt9basic_iosIcSt11char_traitsIcEE(%rip), %rax
 2103      000000
 2104 0963 4C89E7   		movq	%r12, %rdi
 2105 0966 48895C24 		movq	%rbx, 64(%rsp)
 2105      40
 2106 096b 48898424 		movq	%rax, 208(%rsp)
 2106      D0000000 
 2107              	.LEHB42:
 2108 0973 E8000000 		call	_ZNSt8ios_baseD2Ev@PLT
 2108      00
 2109              	.LEHE42:
 2110 0978 488B8424 		movq	472(%rsp), %rax
 2110      D8010000 
 2111 0980 64482B04 		subq	%fs:40, %rax
 2111      25280000 
 2111      00
 2112 0989 7512     		jne	.L132
 2113 098b 4881C4E8 		addq	$488, %rsp
 2113      010000
 2114              		.cfi_remember_state
 2115              		.cfi_def_cfa_offset 56
 2116 0992 5B       		popq	%rbx
 2117              		.cfi_def_cfa_offset 48
 2118 0993 5D       		popq	%rbp
 2119              		.cfi_def_cfa_offset 40
 2120 0994 415C     		popq	%r12
 2121              		.cfi_def_cfa_offset 32
 2122 0996 415D     		popq	%r13
 2123              		.cfi_def_cfa_offset 24
 2124 0998 415E     		popq	%r14
 2125              		.cfi_def_cfa_offset 16
 2126 099a 415F     		popq	%r15
 2127              		.cfi_def_cfa_offset 8
 2128 099c C3       		ret
 2129              	.L132:
 2130              		.cfi_restore_state
 2131 099d E8000000 		call	__stack_chk_fail@PLT
 2131      00
 2132              	.L122:
 2133 09a2 F30F1EFA 		endbr64
 2134 09a6 4889C7   		movq	%rax, %rdi
 2135 09a9 E9000000 		jmp	.L116
 2135      00
 2136              	.L126:
 2137 09ae F30F1EFA 		endbr64
 2138 09b2 E9000000 		jmp	.L127
 2138      00
 2139              	.L125:
 2140 09b7 F30F1EFA 		endbr64
 2141 09bb 4889C5   		movq	%rax, %rbp
 2142 09be E9000000 		jmp	.L111
 2142      00
 2143              	.L124:
 2144 09c3 F30F1EFA 		endbr64
 2145 09c7 4889C5   		movq	%rax, %rbp
 2146 09ca E9000000 		jmp	.L112
 2146      00
 2147              		.section	.gcc_except_table
 2148              		.align 4
 2149              	.LLSDA1223:
 2150 0128 FF       		.byte	0xff
 2151 0129 9B       		.byte	0x9b
 2152 012a 25       		.uleb128 .LLSDATT1223-.LLSDATTD1223
 2153              	.LLSDATTD1223:
 2154 012b 01       		.byte	0x1
 2155 012c 1D       		.uleb128 .LLSDACSE1223-.LLSDACSB1223
 2156              	.LLSDACSB1223:
 2157 012d 9201     		.uleb128 .LEHB38-.LFB1223
 2158 012f 05       		.uleb128 .LEHE38-.LEHB38
 2159 0130 A305     		.uleb128 .L124-.LFB1223
 2160 0132 00       		.uleb128 0
 2161 0133 AC02     		.uleb128 .LEHB39-.LFB1223
 2162 0135 05       		.uleb128 .LEHE39-.LEHB39
 2163 0136 9705     		.uleb128 .L125-.LFB1223
 2164 0138 00       		.uleb128 0
 2165 0139 FA02     		.uleb128 .LEHB40-.LFB1223
 2166 013b 05       		.uleb128 .LEHE40-.LEHB40
 2167 013c 8E05     		.uleb128 .L126-.LFB1223
 2168 013e 00       		.uleb128 0
 2169 013f FF02     		.uleb128 .LEHB41-.LFB1223
 2170 0141 41       		.uleb128 .LEHE41-.LEHB41
 2171 0142 8205     		.uleb128 .L122-.LFB1223
 2172 0144 01       		.uleb128 0x1
 2173 0145 D304     		.uleb128 .LEHB42-.LFB1223
 2174 0147 05       		.uleb128 .LEHE42-.LEHB42
 2175 0148 00       		.uleb128 0
 2176 0149 00       		.uleb128 0
 2177              	.LLSDACSE1223:
 2178 014a 01       		.byte	0x1
 2179 014b 00       		.byte	0
 2180              		.align 4
 2181 014c 00000000 		.long	0
 2182              	
 2183              	.LLSDATT1223:
 2184              		.text
 2185              		.cfi_endproc
 2186              		.section	.text.unlikely
 2187              		.cfi_startproc
 2188              		.cfi_personality 0x9b,DW.ref.__gxx_personality_v0
 2189              		.cfi_lsda 0x1b,.LLSDAC1223
 2191              	_ZNK12_GLOBAL__N_139TestStreamingIntWritesCorrectCharacters7RunImplEv.cold:
 2192              	.LFSB1223:
 2193              	.L116:
 2194              		.cfi_def_cfa_offset 544
 2195              		.cfi_offset 3, -56
 2196              		.cfi_offset 6, -48
 2197              		.cfi_offset 12, -40
 2198              		.cfi_offset 13, -32
 2199              		.cfi_offset 14, -24
 2200              		.cfi_offset 15, -16
 2201 0196 E8000000 		call	__cxa_begin_catch@PLT
 2201      00
 2202              	.LEHB43:
 2203 019b E8000000 		call	_ZN8UnitTest11CurrentTest7ResultsEv@PLT
 2203      00
 2204 01a0 488B00   		movq	(%rax), %rax
 2205 01a3 48890424 		movq	%rax, (%rsp)
 2206 01a7 E8000000 		call	_ZN8UnitTest11CurrentTest7DetailsEv@PLT
 2206      00
 2207 01ac 4C8D7424 		leaq	32(%rsp), %r14
 2207      20
 2208 01b1 488B30   		movq	(%rax), %rsi
 2209 01b4 BA240000 		movl	$36, %edx
 2209      00
 2210 01b9 4C89F7   		movq	%r14, %rdi
 2211 01bc E8000000 		call	_ZN8UnitTest11TestDetailsC1ERKS0_i@PLT
 2211      00
 2212 01c1 488B3C24 		movq	(%rsp), %rdi
 2213 01c5 488D1500 		leaq	.LC20(%rip), %rdx
 2213      000000
 2214 01cc 4C89F6   		movq	%r14, %rsi
 2215 01cf E8000000 		call	_ZN8UnitTest11TestResults13OnTestFailureERKNS_11TestDetailsEPKc@PLT
 2215      00
 2216              	.LEHE43:
 2217              	.LEHB44:
 2218 01d4 E8000000 		call	__cxa_end_catch@PLT
 2218      00
 2219              	.LEHE44:
 2220 01d9 E9000000 		jmp	.L117
 2220      00
 2221              	.L121:
 2222 01de F30F1EFA 		endbr64
 2223              	.L127:
 2224 01e2 4989C4   		movq	%rax, %r12
 2225 01e5 EB38     		jmp	.L119
 2226              	.L111:
 2227 01e7 4C89EF   		movq	%r13, %rdi
 2228 01ea E8000000 		call	_ZNSt7__cxx1115basic_stringbufIcSt11char_traitsIcESaIcEED1Ev
 2228      00
 2229 01ef 48895C24 		movq	%rbx, 64(%rsp)
 2229      40
 2230              	.L112:
 2231 01f4 488D0500 		leaq	16+_ZTVSt9basic_iosIcSt11char_traitsIcEE(%rip), %rax
 2231      000000
 2232 01fb 4C89E7   		movq	%r12, %rdi
 2233 01fe 48898424 		movq	%rax, 208(%rsp)
 2233      D0000000 
 2234 0206 E8000000 		call	_ZNSt8ios_baseD2Ev@PLT
 2234      00
 2235 020b 4889EF   		movq	%rbp, %rdi
 2236              	.LEHB45:
 2237 020e E8000000 		call	_Unwind_Resume@PLT
 2237      00
 2238              	.LEHE45:
 2239              	.L123:
 2240 0213 F30F1EFA 		endbr64
 2241 0217 4989C4   		movq	%rax, %r12
 2242 021a E8000000 		call	__cxa_end_catch@PLT
 2242      00
 2243              	.L119:
 2244 021f 4889EF   		movq	%rbp, %rdi
 2245 0222 E8000000 		call	_ZN8UnitTest15MemoryOutStreamD1Ev
 2245      00
 2246 0227 4C89E7   		movq	%r12, %rdi
 2247              	.LEHB46:
 2248 022a E8000000 		call	_Unwind_Resume@PLT
 2248      00
 2249              	.LEHE46:
 2250              		.cfi_endproc
 2251              	.LFE1223:
 2252              		.section	.gcc_except_table
 2253              		.align 4
 2254              	.LLSDAC1223:
 2255 0150 FF       		.byte	0xff
 2256 0151 9B       		.byte	0x9b
 2257 0152 19       		.uleb128 .LLSDATTC1223-.LLSDATTDC1223
 2258              	.LLSDATTDC1223:
 2259 0153 01       		.byte	0x1
 2260 0154 11       		.uleb128 .LLSDACSEC1223-.LLSDACSBC1223
 2261              	.LLSDACSBC1223:
 2262 0155 05       		.uleb128 .LEHB43-.LCOLDB21
 2263 0156 39       		.uleb128 .LEHE43-.LEHB43
 2264 0157 7D       		.uleb128 .L123-.LCOLDB21
 2265 0158 00       		.uleb128 0
 2266 0159 3E       		.uleb128 .LEHB44-.LCOLDB21
 2267 015a 05       		.uleb128 .LEHE44-.LEHB44
 2268 015b 48       		.uleb128 .L121-.LCOLDB21
 2269 015c 00       		.uleb128 0
 2270 015d 78       		.uleb128 .LEHB45-.LCOLDB21
 2271 015e 05       		.uleb128 .LEHE45-.LEHB45
 2272 015f 00       		.uleb128 0
 2273 0160 00       		.uleb128 0
 2274 0161 9401     		.uleb128 .LEHB46-.LCOLDB21
 2275 0163 05       		.uleb128 .LEHE46-.LEHB46
 2276 0164 00       		.uleb128 0
 2277 0165 00       		.uleb128 0
 2278              	.LLSDACSEC1223:
 2279 0166 01       		.byte	0x1
 2280 0167 00       		.byte	0
 2281              		.align 4
 2282 0168 00000000 		.long	0
 2283              	
 2284              	.LLSDATTC1223:
 2285              		.section	.text.unlikely
 2286              		.text
 2288              		.section	.text.unlikely
 2290              	.LCOLDE21:
 2291              		.text
 2292              	.LHOTE21:
 2293              		.section	.text.unlikely
 2294 022f 90       		.align 2
 2295              	.LCOLDB22:
 2296              		.text
 2297              	.LHOTB22:
 2298 09cf 90       		.align 2
 2299              		.p2align 4
 2301              	_ZNK12_GLOBAL__N_148TestStreamingUnsignedLongWritesCorrectCharacters7RunImplEv:
 2302              	.LFB1235:
 2303              		.cfi_startproc
 2304              		.cfi_personality 0x9b,DW.ref.__gxx_personality_v0
 2305              		.cfi_lsda 0x1b,.LLSDA1235
 2306 09d0 F30F1EFA 		endbr64
 2307 09d4 4157     		pushq	%r15
 2308              		.cfi_def_cfa_offset 16
 2309              		.cfi_offset 15, -16
 2310 09d6 4156     		pushq	%r14
 2311              		.cfi_def_cfa_offset 24
 2312              		.cfi_offset 14, -24
 2313 09d8 4155     		pushq	%r13
 2314              		.cfi_def_cfa_offset 32
 2315              		.cfi_offset 13, -32
 2316 09da 4154     		pushq	%r12
 2317              		.cfi_def_cfa_offset 40
 2318              		.cfi_offset 12, -40
 2319 09dc 55       		pushq	%rbp
 2320              		.cfi_def_cfa_offset 48
 2321              		.cfi_offset 6, -48
 2322 09dd 53       		pushq	%rbx
 2323              		.cfi_def_cfa_offset 56
 2324              		.cfi_offset 3, -56
 2325 09de 488D1D00 		leaq	24+_ZTCN8UnitTest15MemoryOutStreamE0_So(%rip), %rbx
 2325      000000
 2326 09e5 4881ECE8 		subq	$488, %rsp
 2326      010000
 2327              		.cfi_def_cfa_offset 544
 2328 09ec F30F7E0D 		movq	.LC15(%rip), %xmm1
 2328      00000000 
 2329 09f4 64488B04 		movq	%fs:40, %rax
 2329      25280000 
 2329      00
 2330 09fd 48898424 		movq	%rax, 472(%rsp)
 2330      D8010000 
 2331 0a05 31C0     		xorl	%eax, %eax
 2332 0a07 4C8DA424 		leaq	208(%rsp), %r12
 2332      D0000000 
 2333 0a0f 0F160D00 		movhps	.LC16(%rip), %xmm1
 2333      000000
 2334 0a16 4C89E7   		movq	%r12, %rdi
 2335 0a19 0F290C24 		movaps	%xmm1, (%rsp)
 2336 0a1d E8000000 		call	_ZNSt8ios_baseC2Ev@PLT
 2336      00
 2337 0a22 31C0     		xorl	%eax, %eax
 2338 0a24 660FEFC0 		pxor	%xmm0, %xmm0
 2339 0a28 31F6     		xorl	%esi, %esi
 2340 0a2a 66898424 		movw	%ax, 432(%rsp)
 2340      B0010000 
 2341 0a32 4C89E7   		movq	%r12, %rdi
 2342 0a35 488D4328 		leaq	40(%rbx), %rax
 2343 0a39 48C78424 		movq	$0, 424(%rsp)
 2343      A8010000 
 2343      00000000 
 2344 0a45 48895C24 		movq	%rbx, 64(%rsp)
 2344      40
 2345 0a4a 48898424 		movq	%rax, 208(%rsp)
 2345      D0000000 
 2346 0a52 0F118424 		movups	%xmm0, 440(%rsp)
 2346      B8010000 
 2347 0a5a 0F118424 		movups	%xmm0, 456(%rsp)
 2347      C8010000 
 2348              	.LEHB47:
 2349 0a62 E8000000 		call	_ZNSt9basic_iosIcSt11char_traitsIcEE4initEPSt15basic_streambufIcS1_E@PLT
 2349      00
 2350              	.LEHE47:
 2351 0a67 660F6F0C 		movdqa	(%rsp), %xmm1
 2351      24
 2352 0a6c 660FEFC0 		pxor	%xmm0, %xmm0
 2353 0a70 4C8DBC24 		leaq	128(%rsp), %r15
 2353      80000000 
 2354 0a78 488D0500 		leaq	64+_ZTCN8UnitTest15MemoryOutStreamE0_NSt7__cxx1119basic_ostringstreamIcSt11char_traitsIcESaIc
 2354      000000
 2355 0a7f 4C89FF   		movq	%r15, %rdi
 2356 0a82 0F294424 		movaps	%xmm0, 80(%rsp)
 2356      50
 2357 0a87 488D6C24 		leaq	64(%rsp), %rbp
 2357      40
 2358 0a8c 4C8D6C24 		leaq	72(%rsp), %r13
 2358      48
 2359 0a91 48898424 		movq	%rax, 208(%rsp)
 2359      D0000000 
 2360 0a99 0F294C24 		movaps	%xmm1, 64(%rsp)
 2360      40
 2361 0a9e 0F294424 		movaps	%xmm0, 96(%rsp)
 2361      60
 2362 0aa3 0F294424 		movaps	%xmm0, 112(%rsp)
 2362      70
 2363 0aa8 E8000000 		call	_ZNSt6localeC1Ev@PLT
 2363      00
 2364 0aad 488D0500 		leaq	16+_ZTVNSt7__cxx1115basic_stringbufIcSt11char_traitsIcESaIcEEE(%rip), %rax
 2364      000000
 2365 0ab4 C68424A0 		movb	$0, 160(%rsp)
 2365      00000000 
 2366 0abc 4C89EE   		movq	%r13, %rsi
 2367 0abf 48894424 		movq	%rax, 72(%rsp)
 2367      48
 2368 0ac4 488D8424 		leaq	160(%rsp), %rax
 2368      A0000000 
 2369 0acc 48894424 		movq	%rax, 16(%rsp)
 2369      10
 2370 0ad1 48898424 		movq	%rax, 144(%rsp)
 2370      90000000 
 2371 0ad9 488B4424 		movq	64(%rsp), %rax
 2371      40
 2372 0ade 48C78424 		movq	$0, 152(%rsp)
 2372      98000000 
 2372      00000000 
 2373 0aea C7842488 		movl	$16, 136(%rsp)
 2373      00000010 
 2373      000000
 2374 0af5 488B78E8 		movq	-24(%rax), %rdi
 2375 0af9 4801EF   		addq	%rbp, %rdi
 2376              	.LEHB48:
 2377 0afc E8000000 		call	_ZNSt9basic_iosIcSt11char_traitsIcEE4initEPSt15basic_streambufIcS1_E@PLT
 2377      00
 2378              	.LEHE48:
 2379 0b01 4C8D2D00 		leaq	24+_ZTVN8UnitTest15MemoryOutStreamE(%rip), %r13
 2379      000000
 2380 0b08 4889EF   		movq	%rbp, %rdi
 2381 0b0b BE7B0000 		movl	$123, %esi
 2381      00
 2382 0b10 48C78424 		movq	$0, 184(%rsp)
 2382      B8000000 
 2382      00000000 
 2383 0b1c 498D4528 		leaq	40(%r13), %rax
 2384 0b20 4C896C24 		movq	%r13, 64(%rsp)
 2384      40
 2385 0b25 48898424 		movq	%rax, 208(%rsp)
 2385      D0000000 
 2386 0b2d 488D8424 		leaq	192(%rsp), %rax
 2386      C0000000 
 2387 0b35 48894424 		movq	%rax, 24(%rsp)
 2387      18
 2388 0b3a 48898424 		movq	%rax, 176(%rsp)
 2388      B0000000 
 2389 0b42 C68424C0 		movb	$0, 192(%rsp)
 2389      00000000 
 2390              	.LEHB49:
 2391 0b4a E8000000 		call	_ZNSo9_M_insertImEERSoT_@PLT
 2391      00
 2392              	.LEHE49:
 2393              	.LEHB50:
 2394 0b4f E8000000 		call	_ZN8UnitTest11CurrentTest7DetailsEv@PLT
 2394      00
 2395 0b54 4C8D7424 		leaq	32(%rsp), %r14
 2395      20
 2396 0b59 488B30   		movq	(%rax), %rsi
 2397 0b5c BA390000 		movl	$57, %edx
 2397      00
 2398 0b61 4C89F7   		movq	%r14, %rdi
 2399 0b64 E8000000 		call	_ZN8UnitTest11TestDetailsC1ERKS0_i@PLT
 2399      00
 2400 0b69 4889EF   		movq	%rbp, %rdi
 2401 0b6c E8000000 		call	_ZNK8UnitTest15MemoryOutStream7GetTextEv@PLT
 2401      00
 2402 0b71 48890424 		movq	%rax, (%rsp)
 2403 0b75 E8000000 		call	_ZN8UnitTest11CurrentTest7ResultsEv@PLT
 2403      00
 2404 0b7a 488B1424 		movq	(%rsp), %rdx
 2405 0b7e 488B38   		movq	(%rax), %rdi
 2406 0b81 4C89F1   		movq	%r14, %rcx
 2407 0b84 488D3500 		leaq	.LC19(%rip), %rsi
 2407      000000
 2408 0b8b E8000000 		call	_ZN8UnitTest10CheckEqualERNS_11TestResultsEPKcS3_RKNS_11TestDetailsE@PLT
 2408      00
 2409              	.LEHE50:
 2410              	.L141:
 2411 0b90 F30F7E05 		movq	.LC15(%rip), %xmm0
 2411      00000000 
 2412 0b98 488D0500 		leaq	64+_ZTVN8UnitTest15MemoryOutStreamE(%rip), %rax
 2412      000000
 2413 0b9f 4C896C24 		movq	%r13, 64(%rsp)
 2413      40
 2414 0ba4 48898424 		movq	%rax, 208(%rsp)
 2414      D0000000 
 2415 0bac 488BBC24 		movq	176(%rsp), %rdi
 2415      B0000000 
 2416 0bb4 0F160500 		movhps	.LC17(%rip), %xmm0
 2416      000000
 2417 0bbb 483B7C24 		cmpq	24(%rsp), %rdi
 2417      18
 2418 0bc0 740E     		je	.L138
 2419 0bc2 0F290424 		movaps	%xmm0, (%rsp)
 2420 0bc6 E8000000 		call	_ZdlPv@PLT
 2420      00
 2421 0bcb 660F6F04 		movdqa	(%rsp), %xmm0
 2421      24
 2422              	.L138:
 2423 0bd0 488D0500 		leaq	64+_ZTCN8UnitTest15MemoryOutStreamE0_NSt7__cxx1119basic_ostringstreamIcSt11char_traitsIcESaIc
 2423      000000
 2424 0bd7 488BBC24 		movq	144(%rsp), %rdi
 2424      90000000 
 2425 0bdf 0F294424 		movaps	%xmm0, 64(%rsp)
 2425      40
 2426 0be4 48898424 		movq	%rax, 208(%rsp)
 2426      D0000000 
 2427 0bec 483B7C24 		cmpq	16(%rsp), %rdi
 2427      10
 2428 0bf1 7405     		je	.L139
 2429 0bf3 E8000000 		call	_ZdlPv@PLT
 2429      00
 2430              	.L139:
 2431 0bf8 488D0500 		leaq	16+_ZTVSt15basic_streambufIcSt11char_traitsIcEE(%rip), %rax
 2431      000000
 2432 0bff 4C89FF   		movq	%r15, %rdi
 2433 0c02 48894424 		movq	%rax, 72(%rsp)
 2433      48
 2434 0c07 E8000000 		call	_ZNSt6localeD1Ev@PLT
 2434      00
 2435 0c0c 488D0500 		leaq	16+_ZTVSt9basic_iosIcSt11char_traitsIcEE(%rip), %rax
 2435      000000
 2436 0c13 4C89E7   		movq	%r12, %rdi
 2437 0c16 48895C24 		movq	%rbx, 64(%rsp)
 2437      40
 2438 0c1b 48898424 		movq	%rax, 208(%rsp)
 2438      D0000000 
 2439              	.LEHB51:
 2440 0c23 E8000000 		call	_ZNSt8ios_baseD2Ev@PLT
 2440      00
 2441              	.LEHE51:
 2442 0c28 488B8424 		movq	472(%rsp), %rax
 2442      D8010000 
 2443 0c30 64482B04 		subq	%fs:40, %rax
 2443      25280000 
 2443      00
 2444 0c39 7512     		jne	.L156
 2445 0c3b 4881C4E8 		addq	$488, %rsp
 2445      010000
 2446              		.cfi_remember_state
 2447              		.cfi_def_cfa_offset 56
 2448 0c42 5B       		popq	%rbx
 2449              		.cfi_def_cfa_offset 48
 2450 0c43 5D       		popq	%rbp
 2451              		.cfi_def_cfa_offset 40
 2452 0c44 415C     		popq	%r12
 2453              		.cfi_def_cfa_offset 32
 2454 0c46 415D     		popq	%r13
 2455              		.cfi_def_cfa_offset 24
 2456 0c48 415E     		popq	%r14
 2457              		.cfi_def_cfa_offset 16
 2458 0c4a 415F     		popq	%r15
 2459              		.cfi_def_cfa_offset 8
 2460 0c4c C3       		ret
 2461              	.L156:
 2462              		.cfi_restore_state
 2463 0c4d E8000000 		call	__stack_chk_fail@PLT
 2463      00
 2464              	.L146:
 2465 0c52 F30F1EFA 		endbr64
 2466 0c56 4889C7   		movq	%rax, %rdi
 2467 0c59 E9000000 		jmp	.L140
 2467      00
 2468              	.L150:
 2469 0c5e F30F1EFA 		endbr64
 2470 0c62 E9000000 		jmp	.L151
 2470      00
 2471              	.L149:
 2472 0c67 F30F1EFA 		endbr64
 2473 0c6b 4889C5   		movq	%rax, %rbp
 2474 0c6e E9000000 		jmp	.L135
 2474      00
 2475              	.L148:
 2476 0c73 F30F1EFA 		endbr64
 2477 0c77 4889C5   		movq	%rax, %rbp
 2478 0c7a E9000000 		jmp	.L136
 2478      00
 2479              		.section	.gcc_except_table
 2480              		.align 4
 2481              	.LLSDA1235:
 2482 016c FF       		.byte	0xff
 2483 016d 9B       		.byte	0x9b
 2484 016e 25       		.uleb128 .LLSDATT1235-.LLSDATTD1235
 2485              	.LLSDATTD1235:
 2486 016f 01       		.byte	0x1
 2487 0170 1D       		.uleb128 .LLSDACSE1235-.LLSDACSB1235
 2488              	.LLSDACSB1235:
 2489 0171 9201     		.uleb128 .LEHB47-.LFB1235
 2490 0173 05       		.uleb128 .LEHE47-.LEHB47
 2491 0174 A305     		.uleb128 .L148-.LFB1235
 2492 0176 00       		.uleb128 0
 2493 0177 AC02     		.uleb128 .LEHB48-.LFB1235
 2494 0179 05       		.uleb128 .LEHE48-.LEHB48
 2495 017a 9705     		.uleb128 .L149-.LFB1235
 2496 017c 00       		.uleb128 0
 2497 017d FA02     		.uleb128 .LEHB49-.LFB1235
 2498 017f 05       		.uleb128 .LEHE49-.LEHB49
 2499 0180 8E05     		.uleb128 .L150-.LFB1235
 2500 0182 00       		.uleb128 0
 2501 0183 FF02     		.uleb128 .LEHB50-.LFB1235
 2502 0185 41       		.uleb128 .LEHE50-.LEHB50
 2503 0186 8205     		.uleb128 .L146-.LFB1235
 2504 0188 01       		.uleb128 0x1
 2505 0189 D304     		.uleb128 .LEHB51-.LFB1235
 2506 018b 05       		.uleb128 .LEHE51-.LEHB51
 2507 018c 00       		.uleb128 0
 2508 018d 00       		.uleb128 0
 2509              	.LLSDACSE1235:
 2510 018e 01       		.byte	0x1
 2511 018f 00       		.byte	0
 2512              		.align 4
 2513 0190 00000000 		.long	0
 2514              	
 2515              	.LLSDATT1235:
 2516              		.text
 2517              		.cfi_endproc
 2518              		.section	.text.unlikely
 2519              		.cfi_startproc
 2520              		.cfi_personality 0x9b,DW.ref.__gxx_personality_v0
 2521              		.cfi_lsda 0x1b,.LLSDAC1235
 2523              	_ZNK12_GLOBAL__N_148TestStreamingUnsignedLongWritesCorrectCharacters7RunImplEv.cold:
 2524              	.LFSB1235:
 2525              	.L140:
 2526              		.cfi_def_cfa_offset 544
 2527              		.cfi_offset 3, -56
 2528              		.cfi_offset 6, -48
 2529              		.cfi_offset 12, -40
 2530              		.cfi_offset 13, -32
 2531              		.cfi_offset 14, -24
 2532              		.cfi_offset 15, -16
 2533 0230 E8000000 		call	__cxa_begin_catch@PLT
 2533      00
 2534              	.LEHB52:
 2535 0235 E8000000 		call	_ZN8UnitTest11CurrentTest7ResultsEv@PLT
 2535      00
 2536 023a 488B00   		movq	(%rax), %rax
 2537 023d 48890424 		movq	%rax, (%rsp)
 2538 0241 E8000000 		call	_ZN8UnitTest11CurrentTest7DetailsEv@PLT
 2538      00
 2539 0246 4C8D7424 		leaq	32(%rsp), %r14
 2539      20
 2540 024b 488B30   		movq	(%rax), %rsi
 2541 024e BA390000 		movl	$57, %edx
 2541      00
 2542 0253 4C89F7   		movq	%r14, %rdi
 2543 0256 E8000000 		call	_ZN8UnitTest11TestDetailsC1ERKS0_i@PLT
 2543      00
 2544 025b 488B3C24 		movq	(%rsp), %rdi
 2545 025f 488D1500 		leaq	.LC20(%rip), %rdx
 2545      000000
 2546 0266 4C89F6   		movq	%r14, %rsi
 2547 0269 E8000000 		call	_ZN8UnitTest11TestResults13OnTestFailureERKNS_11TestDetailsEPKc@PLT
 2547      00
 2548              	.LEHE52:
 2549              	.LEHB53:
 2550 026e E8000000 		call	__cxa_end_catch@PLT
 2550      00
 2551              	.LEHE53:
 2552 0273 E9000000 		jmp	.L141
 2552      00
 2553              	.L145:
 2554 0278 F30F1EFA 		endbr64
 2555              	.L151:
 2556 027c 4989C4   		movq	%rax, %r12
 2557 027f EB38     		jmp	.L143
 2558              	.L135:
 2559 0281 4C89EF   		movq	%r13, %rdi
 2560 0284 E8000000 		call	_ZNSt7__cxx1115basic_stringbufIcSt11char_traitsIcESaIcEED1Ev
 2560      00
 2561 0289 48895C24 		movq	%rbx, 64(%rsp)
 2561      40
 2562              	.L136:
 2563 028e 488D0500 		leaq	16+_ZTVSt9basic_iosIcSt11char_traitsIcEE(%rip), %rax
 2563      000000
 2564 0295 4C89E7   		movq	%r12, %rdi
 2565 0298 48898424 		movq	%rax, 208(%rsp)
 2565      D0000000 
 2566 02a0 E8000000 		call	_ZNSt8ios_baseD2Ev@PLT
 2566      00
 2567 02a5 4889EF   		movq	%rbp, %rdi
 2568              	.LEHB54:
 2569 02a8 E8000000 		call	_Unwind_Resume@PLT
 2569      00
 2570              	.LEHE54:
 2571              	.L147:
 2572 02ad F30F1EFA 		endbr64
 2573 02b1 4989C4   		movq	%rax, %r12
 2574 02b4 E8000000 		call	__cxa_end_catch@PLT
 2574      00
 2575              	.L143:
 2576 02b9 4889EF   		movq	%rbp, %rdi
 2577 02bc E8000000 		call	_ZN8UnitTest15MemoryOutStreamD1Ev
 2577      00
 2578 02c1 4C89E7   		movq	%r12, %rdi
 2579              	.LEHB55:
 2580 02c4 E8000000 		call	_Unwind_Resume@PLT
 2580      00
 2581              	.LEHE55:
 2582              		.cfi_endproc
 2583              	.LFE1235:
 2584              		.section	.gcc_except_table
 2585              		.align 4
 2586              	.LLSDAC1235:
 2587 0194 FF       		.byte	0xff
 2588 0195 9B       		.byte	0x9b
 2589 0196 19       		.uleb128 .LLSDATTC1235-.LLSDATTDC1235
 2590              	.LLSDATTDC1235:
 2591 0197 01       		.byte	0x1
 2592 0198 11       		.uleb128 .LLSDACSEC1235-.LLSDACSBC1235
 2593              	.LLSDACSBC1235:
 2594 0199 05       		.uleb128 .LEHB52-.LCOLDB22
 2595 019a 39       		.uleb128 .LEHE52-.LEHB52
 2596 019b 7D       		.uleb128 .L147-.LCOLDB22
 2597 019c 00       		.uleb128 0
 2598 019d 3E       		.uleb128 .LEHB53-.LCOLDB22
 2599 019e 05       		.uleb128 .LEHE53-.LEHB53
 2600 019f 48       		.uleb128 .L145-.LCOLDB22
 2601 01a0 00       		.uleb128 0
 2602 01a1 78       		.uleb128 .LEHB54-.LCOLDB22
 2603 01a2 05       		.uleb128 .LEHE54-.LEHB54
 2604 01a3 00       		.uleb128 0
 2605 01a4 00       		.uleb128 0
 2606 01a5 9401     		.uleb128 .LEHB55-.LCOLDB22
 2607 01a7 05       		.uleb128 .LEHE55-.LEHB55
 2608 01a8 00       		.uleb128 0
 2609 01a9 00       		.uleb128 0
 2610              	.LLSDACSEC1235:
 2611 01aa 01       		.byte	0x1
 2612 01ab 00       		.byte	0
 2613              		.align 4
 2614 01ac 00000000 		.long	0
 2615              	
 2616              	.LLSDATTC1235:
 2617              		.section	.text.unlikely
 2618              		.text
 2620              		.section	.text.unlikely
 2622              	.LCOLDE22:
 2623              		.text
 2624              	.LHOTE22:
 2625              		.section	.rodata.str1.1
 2626              	.LC23:
 2627 001b 35333132 		.string	"53124"
 2627      3400
 2628              		.section	.rodata.str1.8
 2629 00b4 00000000 		.align 8
 2630              	.LC24:
 2631 00b8 556E6861 		.string	"Unhandled exception in CHECK_EQUAL(\"53124\", stream.GetText())"
 2631      6E646C65 
 2631      64206578 
 2631      63657074 
 2631      696F6E20 
 2632              		.section	.text.unlikely
 2633 02c9 90       		.align 2
 2634              	.LCOLDB25:
 2635              		.text
 2636              	.LHOTB25:
 2637 0c7f 90       		.align 2
 2638              		.p2align 4
 2640              	_ZNK12_GLOBAL__N_141TestStreamingSizeTWritesCorrectCharacters7RunImplEv:
 2641              	.LFB1251:
 2642              		.cfi_startproc
 2643              		.cfi_personality 0x9b,DW.ref.__gxx_personality_v0
 2644              		.cfi_lsda 0x1b,.LLSDA1251
 2645 0c80 F30F1EFA 		endbr64
 2646 0c84 4157     		pushq	%r15
 2647              		.cfi_def_cfa_offset 16
 2648              		.cfi_offset 15, -16
 2649 0c86 4156     		pushq	%r14
 2650              		.cfi_def_cfa_offset 24
 2651              		.cfi_offset 14, -24
 2652 0c88 4155     		pushq	%r13
 2653              		.cfi_def_cfa_offset 32
 2654              		.cfi_offset 13, -32
 2655 0c8a 4154     		pushq	%r12
 2656              		.cfi_def_cfa_offset 40
 2657              		.cfi_offset 12, -40
 2658 0c8c 55       		pushq	%rbp
 2659              		.cfi_def_cfa_offset 48
 2660              		.cfi_offset 6, -48
 2661 0c8d 53       		pushq	%rbx
 2662              		.cfi_def_cfa_offset 56
 2663              		.cfi_offset 3, -56
 2664 0c8e 488D1D00 		leaq	24+_ZTCN8UnitTest15MemoryOutStreamE0_So(%rip), %rbx
 2664      000000
 2665 0c95 4881ECE8 		subq	$488, %rsp
 2665      010000
 2666              		.cfi_def_cfa_offset 544
 2667 0c9c F30F7E0D 		movq	.LC15(%rip), %xmm1
 2667      00000000 
 2668 0ca4 64488B04 		movq	%fs:40, %rax
 2668      25280000 
 2668      00
 2669 0cad 48898424 		movq	%rax, 472(%rsp)
 2669      D8010000 
 2670 0cb5 31C0     		xorl	%eax, %eax
 2671 0cb7 4C8DA424 		leaq	208(%rsp), %r12
 2671      D0000000 
 2672 0cbf 0F160D00 		movhps	.LC16(%rip), %xmm1
 2672      000000
 2673 0cc6 4C89E7   		movq	%r12, %rdi
 2674 0cc9 0F290C24 		movaps	%xmm1, (%rsp)
 2675 0ccd E8000000 		call	_ZNSt8ios_baseC2Ev@PLT
 2675      00
 2676 0cd2 31C0     		xorl	%eax, %eax
 2677 0cd4 660FEFC0 		pxor	%xmm0, %xmm0
 2678 0cd8 31F6     		xorl	%esi, %esi
 2679 0cda 66898424 		movw	%ax, 432(%rsp)
 2679      B0010000 
 2680 0ce2 4C89E7   		movq	%r12, %rdi
 2681 0ce5 488D4328 		leaq	40(%rbx), %rax
 2682 0ce9 48C78424 		movq	$0, 424(%rsp)
 2682      A8010000 
 2682      00000000 
 2683 0cf5 48895C24 		movq	%rbx, 64(%rsp)
 2683      40
 2684 0cfa 48898424 		movq	%rax, 208(%rsp)
 2684      D0000000 
 2685 0d02 0F118424 		movups	%xmm0, 440(%rsp)
 2685      B8010000 
 2686 0d0a 0F118424 		movups	%xmm0, 456(%rsp)
 2686      C8010000 
 2687              	.LEHB56:
 2688 0d12 E8000000 		call	_ZNSt9basic_iosIcSt11char_traitsIcEE4initEPSt15basic_streambufIcS1_E@PLT
 2688      00
 2689              	.LEHE56:
 2690 0d17 660F6F0C 		movdqa	(%rsp), %xmm1
 2690      24
 2691 0d1c 660FEFC0 		pxor	%xmm0, %xmm0
 2692 0d20 4C8DBC24 		leaq	128(%rsp), %r15
 2692      80000000 
 2693 0d28 488D0500 		leaq	64+_ZTCN8UnitTest15MemoryOutStreamE0_NSt7__cxx1119basic_ostringstreamIcSt11char_traitsIcESaIc
 2693      000000
 2694 0d2f 4C89FF   		movq	%r15, %rdi
 2695 0d32 0F294424 		movaps	%xmm0, 80(%rsp)
 2695      50
 2696 0d37 488D6C24 		leaq	64(%rsp), %rbp
 2696      40
 2697 0d3c 4C8D6C24 		leaq	72(%rsp), %r13
 2697      48
 2698 0d41 48898424 		movq	%rax, 208(%rsp)
 2698      D0000000 
 2699 0d49 0F294C24 		movaps	%xmm1, 64(%rsp)
 2699      40
 2700 0d4e 0F294424 		movaps	%xmm0, 96(%rsp)
 2700      60
 2701 0d53 0F294424 		movaps	%xmm0, 112(%rsp)
 2701      70
 2702 0d58 E8000000 		call	_ZNSt6localeC1Ev@PLT
 2702      00
 2703 0d5d 488D0500 		leaq	16+_ZTVNSt7__cxx1115basic_stringbufIcSt11char_traitsIcESaIcEEE(%rip), %rax
 2703      000000
 2704 0d64 C68424A0 		movb	$0, 160(%rsp)
 2704      00000000 
 2705 0d6c 4C89EE   		movq	%r13, %rsi
 2706 0d6f 48894424 		movq	%rax, 72(%rsp)
 2706      48
 2707 0d74 488D8424 		leaq	160(%rsp), %rax
 2707      A0000000 
 2708 0d7c 48894424 		movq	%rax, 16(%rsp)
 2708      10
 2709 0d81 48898424 		movq	%rax, 144(%rsp)
 2709      90000000 
 2710 0d89 488B4424 		movq	64(%rsp), %rax
 2710      40
 2711 0d8e 48C78424 		movq	$0, 152(%rsp)
 2711      98000000 
 2711      00000000 
 2712 0d9a C7842488 		movl	$16, 136(%rsp)
 2712      00000010 
 2712      000000
 2713 0da5 488B78E8 		movq	-24(%rax), %rdi
 2714 0da9 4801EF   		addq	%rbp, %rdi
 2715              	.LEHB57:
 2716 0dac E8000000 		call	_ZNSt9basic_iosIcSt11char_traitsIcEE4initEPSt15basic_streambufIcS1_E@PLT
 2716      00
 2717              	.LEHE57:
 2718 0db1 4C8D2D00 		leaq	24+_ZTVN8UnitTest15MemoryOutStreamE(%rip), %r13
 2718      000000
 2719 0db8 4889EF   		movq	%rbp, %rdi
 2720 0dbb BE84CF00 		movl	$53124, %esi
 2720      00
 2721 0dc0 48C78424 		movq	$0, 184(%rsp)
 2721      B8000000 
 2721      00000000 
 2722 0dcc 498D4528 		leaq	40(%r13), %rax
 2723 0dd0 4C896C24 		movq	%r13, 64(%rsp)
 2723      40
 2724 0dd5 48898424 		movq	%rax, 208(%rsp)
 2724      D0000000 
 2725 0ddd 488D8424 		leaq	192(%rsp), %rax
 2725      C0000000 
 2726 0de5 48894424 		movq	%rax, 24(%rsp)
 2726      18
 2727 0dea 48898424 		movq	%rax, 176(%rsp)
 2727      B0000000 
 2728 0df2 C68424C0 		movb	$0, 192(%rsp)
 2728      00000000 
 2729              	.LEHB58:
 2730 0dfa E8000000 		call	_ZNSo9_M_insertImEERSoT_@PLT
 2730      00
 2731              	.LEHE58:
 2732              	.LEHB59:
 2733 0dff E8000000 		call	_ZN8UnitTest11CurrentTest7DetailsEv@PLT
 2733      00
 2734 0e04 4C8D7424 		leaq	32(%rsp), %r14
 2734      20
 2735 0e09 488B30   		movq	(%rax), %rsi
 2736 0e0c BA570000 		movl	$87, %edx
 2736      00
 2737 0e11 4C89F7   		movq	%r14, %rdi
 2738 0e14 E8000000 		call	_ZN8UnitTest11TestDetailsC1ERKS0_i@PLT
 2738      00
 2739 0e19 4889EF   		movq	%rbp, %rdi
 2740 0e1c E8000000 		call	_ZNK8UnitTest15MemoryOutStream7GetTextEv@PLT
 2740      00
 2741 0e21 48890424 		movq	%rax, (%rsp)
 2742 0e25 E8000000 		call	_ZN8UnitTest11CurrentTest7ResultsEv@PLT
 2742      00
 2743 0e2a 488B1424 		movq	(%rsp), %rdx
 2744 0e2e 488B38   		movq	(%rax), %rdi
 2745 0e31 4C89F1   		movq	%r14, %rcx
 2746 0e34 488D3500 		leaq	.LC23(%rip), %rsi
 2746      000000
 2747 0e3b E8000000 		call	_ZN8UnitTest10CheckEqualERNS_11TestResultsEPKcS3_RKNS_11TestDetailsE@PLT
 2747      00
 2748              	.LEHE59:
 2749              	.L165:
 2750 0e40 F30F7E05 		movq	.LC15(%rip), %xmm0
 2750      00000000 
 2751 0e48 488D0500 		leaq	64+_ZTVN8UnitTest15MemoryOutStreamE(%rip), %rax
 2751      000000
 2752 0e4f 4C896C24 		movq	%r13, 64(%rsp)
 2752      40
 2753 0e54 48898424 		movq	%rax, 208(%rsp)
 2753      D0000000 
 2754 0e5c 488BBC24 		movq	176(%rsp), %rdi
 2754      B0000000 
 2755 0e64 0F160500 		movhps	.LC17(%rip), %xmm0
 2755      000000
 2756 0e6b 483B7C24 		cmpq	24(%rsp), %rdi
 2756      18
 2757 0e70 740E     		je	.L162
 2758 0e72 0F290424 		movaps	%xmm0, (%rsp)
 2759 0e76 E8000000 		call	_ZdlPv@PLT
 2759      00
 2760 0e7b 660F6F04 		movdqa	(%rsp), %xmm0
 2760      24
 2761              	.L162:
 2762 0e80 488D0500 		leaq	64+_ZTCN8UnitTest15MemoryOutStreamE0_NSt7__cxx1119basic_ostringstreamIcSt11char_traitsIcESaIc
 2762      000000
 2763 0e87 488BBC24 		movq	144(%rsp), %rdi
 2763      90000000 
 2764 0e8f 0F294424 		movaps	%xmm0, 64(%rsp)
 2764      40
 2765 0e94 48898424 		movq	%rax, 208(%rsp)
 2765      D0000000 
 2766 0e9c 483B7C24 		cmpq	16(%rsp), %rdi
 2766      10
 2767 0ea1 7405     		je	.L163
 2768 0ea3 E8000000 		call	_ZdlPv@PLT
 2768      00
 2769              	.L163:
 2770 0ea8 488D0500 		leaq	16+_ZTVSt15basic_streambufIcSt11char_traitsIcEE(%rip), %rax
 2770      000000
 2771 0eaf 4C89FF   		movq	%r15, %rdi
 2772 0eb2 48894424 		movq	%rax, 72(%rsp)
 2772      48
 2773 0eb7 E8000000 		call	_ZNSt6localeD1Ev@PLT
 2773      00
 2774 0ebc 488D0500 		leaq	16+_ZTVSt9basic_iosIcSt11char_traitsIcEE(%rip), %rax
 2774      000000
 2775 0ec3 4C89E7   		movq	%r12, %rdi
 2776 0ec6 48895C24 		movq	%rbx, 64(%rsp)
 2776      40
 2777 0ecb 48898424 		movq	%rax, 208(%rsp)
 2777      D0000000 
 2778              	.LEHB60:
 2779 0ed3 E8000000 		call	_ZNSt8ios_baseD2Ev@PLT
 2779      00
 2780              	.LEHE60:
 2781 0ed8 488B8424 		movq	472(%rsp), %rax
 2781      D8010000 
 2782 0ee0 64482B04 		subq	%fs:40, %rax
 2782      25280000 
 2782      00
 2783 0ee9 7512     		jne	.L180
 2784 0eeb 4881C4E8 		addq	$488, %rsp
 2784      010000
 2785              		.cfi_remember_state
 2786              		.cfi_def_cfa_offset 56
 2787 0ef2 5B       		popq	%rbx
 2788              		.cfi_def_cfa_offset 48
 2789 0ef3 5D       		popq	%rbp
 2790              		.cfi_def_cfa_offset 40
 2791 0ef4 415C     		popq	%r12
 2792              		.cfi_def_cfa_offset 32
 2793 0ef6 415D     		popq	%r13
 2794              		.cfi_def_cfa_offset 24
 2795 0ef8 415E     		popq	%r14
 2796              		.cfi_def_cfa_offset 16
 2797 0efa 415F     		popq	%r15
 2798              		.cfi_def_cfa_offset 8
 2799 0efc C3       		ret
 2800              	.L180:
 2801              		.cfi_restore_state
 2802 0efd E8000000 		call	__stack_chk_fail@PLT
 2802      00
 2803              	.L170:
 2804 0f02 F30F1EFA 		endbr64
 2805 0f06 4889C7   		movq	%rax, %rdi
 2806 0f09 E9000000 		jmp	.L164
 2806      00
 2807              	.L174:
 2808 0f0e F30F1EFA 		endbr64
 2809 0f12 E9000000 		jmp	.L175
 2809      00
 2810              	.L173:
 2811 0f17 F30F1EFA 		endbr64
 2812 0f1b 4889C5   		movq	%rax, %rbp
 2813 0f1e E9000000 		jmp	.L159
 2813      00
 2814              	.L172:
 2815 0f23 F30F1EFA 		endbr64
 2816 0f27 4889C5   		movq	%rax, %rbp
 2817 0f2a E9000000 		jmp	.L160
 2817      00
 2818              		.section	.gcc_except_table
 2819              		.align 4
 2820              	.LLSDA1251:
 2821 01b0 FF       		.byte	0xff
 2822 01b1 9B       		.byte	0x9b
 2823 01b2 25       		.uleb128 .LLSDATT1251-.LLSDATTD1251
 2824              	.LLSDATTD1251:
 2825 01b3 01       		.byte	0x1
 2826 01b4 1D       		.uleb128 .LLSDACSE1251-.LLSDACSB1251
 2827              	.LLSDACSB1251:
 2828 01b5 9201     		.uleb128 .LEHB56-.LFB1251
 2829 01b7 05       		.uleb128 .LEHE56-.LEHB56
 2830 01b8 A305     		.uleb128 .L172-.LFB1251
 2831 01ba 00       		.uleb128 0
 2832 01bb AC02     		.uleb128 .LEHB57-.LFB1251
 2833 01bd 05       		.uleb128 .LEHE57-.LEHB57
 2834 01be 9705     		.uleb128 .L173-.LFB1251
 2835 01c0 00       		.uleb128 0
 2836 01c1 FA02     		.uleb128 .LEHB58-.LFB1251
 2837 01c3 05       		.uleb128 .LEHE58-.LEHB58
 2838 01c4 8E05     		.uleb128 .L174-.LFB1251
 2839 01c6 00       		.uleb128 0
 2840 01c7 FF02     		.uleb128 .LEHB59-.LFB1251
 2841 01c9 41       		.uleb128 .LEHE59-.LEHB59
 2842 01ca 8205     		.uleb128 .L170-.LFB1251
 2843 01cc 01       		.uleb128 0x1
 2844 01cd D304     		.uleb128 .LEHB60-.LFB1251
 2845 01cf 05       		.uleb128 .LEHE60-.LEHB60
 2846 01d0 00       		.uleb128 0
 2847 01d1 00       		.uleb128 0
 2848              	.LLSDACSE1251:
 2849 01d2 01       		.byte	0x1
 2850 01d3 00       		.byte	0
 2851              		.align 4
 2852 01d4 00000000 		.long	0
 2853              	
 2854              	.LLSDATT1251:
 2855              		.text
 2856              		.cfi_endproc
 2857              		.section	.text.unlikely
 2858              		.cfi_startproc
 2859              		.cfi_personality 0x9b,DW.ref.__gxx_personality_v0
 2860              		.cfi_lsda 0x1b,.LLSDAC1251
 2862              	_ZNK12_GLOBAL__N_141TestStreamingSizeTWritesCorrectCharacters7RunImplEv.cold:
 2863              	.LFSB1251:
 2864              	.L164:
 2865              		.cfi_def_cfa_offset 544
 2866              		.cfi_offset 3, -56
 2867              		.cfi_offset 6, -48
 2868              		.cfi_offset 12, -40
 2869              		.cfi_offset 13, -32
 2870              		.cfi_offset 14, -24
 2871              		.cfi_offset 15, -16
 2872 02ca E8000000 		call	__cxa_begin_catch@PLT
 2872      00
 2873              	.LEHB61:
 2874 02cf E8000000 		call	_ZN8UnitTest11CurrentTest7ResultsEv@PLT
 2874      00
 2875 02d4 488B00   		movq	(%rax), %rax
 2876 02d7 48890424 		movq	%rax, (%rsp)
 2877 02db E8000000 		call	_ZN8UnitTest11CurrentTest7DetailsEv@PLT
 2877      00
 2878 02e0 4C8D7424 		leaq	32(%rsp), %r14
 2878      20
 2879 02e5 488B30   		movq	(%rax), %rsi
 2880 02e8 BA570000 		movl	$87, %edx
 2880      00
 2881 02ed 4C89F7   		movq	%r14, %rdi
 2882 02f0 E8000000 		call	_ZN8UnitTest11TestDetailsC1ERKS0_i@PLT
 2882      00
 2883 02f5 488B3C24 		movq	(%rsp), %rdi
 2884 02f9 488D1500 		leaq	.LC24(%rip), %rdx
 2884      000000
 2885 0300 4C89F6   		movq	%r14, %rsi
 2886 0303 E8000000 		call	_ZN8UnitTest11TestResults13OnTestFailureERKNS_11TestDetailsEPKc@PLT
 2886      00
 2887              	.LEHE61:
 2888              	.LEHB62:
 2889 0308 E8000000 		call	__cxa_end_catch@PLT
 2889      00
 2890              	.LEHE62:
 2891 030d E9000000 		jmp	.L165
 2891      00
 2892              	.L169:
 2893 0312 F30F1EFA 		endbr64
 2894              	.L175:
 2895 0316 4989C4   		movq	%rax, %r12
 2896 0319 EB38     		jmp	.L167
 2897              	.L159:
 2898 031b 4C89EF   		movq	%r13, %rdi
 2899 031e E8000000 		call	_ZNSt7__cxx1115basic_stringbufIcSt11char_traitsIcESaIcEED1Ev
 2899      00
 2900 0323 48895C24 		movq	%rbx, 64(%rsp)
 2900      40
 2901              	.L160:
 2902 0328 488D0500 		leaq	16+_ZTVSt9basic_iosIcSt11char_traitsIcEE(%rip), %rax
 2902      000000
 2903 032f 4C89E7   		movq	%r12, %rdi
 2904 0332 48898424 		movq	%rax, 208(%rsp)
 2904      D0000000 
 2905 033a E8000000 		call	_ZNSt8ios_baseD2Ev@PLT
 2905      00
 2906 033f 4889EF   		movq	%rbp, %rdi
 2907              	.LEHB63:
 2908 0342 E8000000 		call	_Unwind_Resume@PLT
 2908      00
 2909              	.LEHE63:
 2910              	.L171:
 2911 0347 F30F1EFA 		endbr64
 2912 034b 4989C4   		movq	%rax, %r12
 2913 034e E8000000 		call	__cxa_end_catch@PLT
 2913      00
 2914              	.L167:
 2915 0353 4889EF   		movq	%rbp, %rdi
 2916 0356 E8000000 		call	_ZN8UnitTest15MemoryOutStreamD1Ev
 2916      00
 2917 035b 4C89E7   		movq	%r12, %rdi
 2918              	.LEHB64:
 2919 035e E8000000 		call	_Unwind_Resume@PLT
 2919      00
 2920              	.LEHE64:
 2921              		.cfi_endproc
 2922              	.LFE1251:
 2923              		.section	.gcc_except_table
 2924              		.align 4
 2925              	.LLSDAC1251:
 2926 01d8 FF       		.byte	0xff
 2927 01d9 9B       		.byte	0x9b
 2928 01da 19       		.uleb128 .LLSDATTC1251-.LLSDATTDC1251
 2929              	.LLSDATTDC1251:
 2930 01db 01       		.byte	0x1
 2931 01dc 11       		.uleb128 .LLSDACSEC1251-.LLSDACSBC1251
 2932              	.LLSDACSBC1251:
 2933 01dd 05       		.uleb128 .LEHB61-.LCOLDB25
 2934 01de 39       		.uleb128 .LEHE61-.LEHB61
 2935 01df 7D       		.uleb128 .L171-.LCOLDB25
 2936 01e0 00       		.uleb128 0
 2937 01e1 3E       		.uleb128 .LEHB62-.LCOLDB25
 2938 01e2 05       		.uleb128 .LEHE62-.LEHB62
 2939 01e3 48       		.uleb128 .L169-.LCOLDB25
 2940 01e4 00       		.uleb128 0
 2941 01e5 78       		.uleb128 .LEHB63-.LCOLDB25
 2942 01e6 05       		.uleb128 .LEHE63-.LEHB63
 2943 01e7 00       		.uleb128 0
 2944 01e8 00       		.uleb128 0
 2945 01e9 9401     		.uleb128 .LEHB64-.LCOLDB25
 2946 01eb 05       		.uleb128 .LEHE64-.LEHB64
 2947 01ec 00       		.uleb128 0
 2948 01ed 00       		.uleb128 0
 2949              	.LLSDACSEC1251:
 2950 01ee 01       		.byte	0x1
 2951 01ef 00       		.byte	0
 2952              		.align 4
 2953 01f0 00000000 		.long	0
 2954              	
 2955              	.LLSDATTC1251:
 2956              		.section	.text.unlikely
 2957              		.text
 2959              		.section	.text.unlikely
 2961              	.LCOLDE25:
 2962              		.text
 2963              	.LHOTE25:
 2964              		.section	.text.unlikely
 2965 0363 90       		.align 2
 2966              	.LCOLDB26:
 2967              		.text
 2968              	.LHOTB26:
 2969 0f2f 90       		.align 2
 2970              		.p2align 4
 2972              	_ZNK12_GLOBAL__N_147TestStreamingUnsignedIntWritesCorrectCharacters7RunImplEv:
 2973              	.LFB1227:
 2974              		.cfi_startproc
 2975              		.cfi_personality 0x9b,DW.ref.__gxx_personality_v0
 2976              		.cfi_lsda 0x1b,.LLSDA1227
 2977 0f30 F30F1EFA 		endbr64
 2978 0f34 4157     		pushq	%r15
 2979              		.cfi_def_cfa_offset 16
 2980              		.cfi_offset 15, -16
 2981 0f36 4156     		pushq	%r14
 2982              		.cfi_def_cfa_offset 24
 2983              		.cfi_offset 14, -24
 2984 0f38 4155     		pushq	%r13
 2985              		.cfi_def_cfa_offset 32
 2986              		.cfi_offset 13, -32
 2987 0f3a 4154     		pushq	%r12
 2988              		.cfi_def_cfa_offset 40
 2989              		.cfi_offset 12, -40
 2990 0f3c 55       		pushq	%rbp
 2991              		.cfi_def_cfa_offset 48
 2992              		.cfi_offset 6, -48
 2993 0f3d 53       		pushq	%rbx
 2994              		.cfi_def_cfa_offset 56
 2995              		.cfi_offset 3, -56
 2996 0f3e 488D1D00 		leaq	24+_ZTCN8UnitTest15MemoryOutStreamE0_So(%rip), %rbx
 2996      000000
 2997 0f45 4881ECE8 		subq	$488, %rsp
 2997      010000
 2998              		.cfi_def_cfa_offset 544
 2999 0f4c F30F7E0D 		movq	.LC15(%rip), %xmm1
 2999      00000000 
 3000 0f54 64488B04 		movq	%fs:40, %rax
 3000      25280000 
 3000      00
 3001 0f5d 48898424 		movq	%rax, 472(%rsp)
 3001      D8010000 
 3002 0f65 31C0     		xorl	%eax, %eax
 3003 0f67 4C8DA424 		leaq	208(%rsp), %r12
 3003      D0000000 
 3004 0f6f 0F160D00 		movhps	.LC16(%rip), %xmm1
 3004      000000
 3005 0f76 4C89E7   		movq	%r12, %rdi
 3006 0f79 0F290C24 		movaps	%xmm1, (%rsp)
 3007 0f7d E8000000 		call	_ZNSt8ios_baseC2Ev@PLT
 3007      00
 3008 0f82 31C0     		xorl	%eax, %eax
 3009 0f84 660FEFC0 		pxor	%xmm0, %xmm0
 3010 0f88 31F6     		xorl	%esi, %esi
 3011 0f8a 66898424 		movw	%ax, 432(%rsp)
 3011      B0010000 
 3012 0f92 4C89E7   		movq	%r12, %rdi
 3013 0f95 488D4328 		leaq	40(%rbx), %rax
 3014 0f99 48C78424 		movq	$0, 424(%rsp)
 3014      A8010000 
 3014      00000000 
 3015 0fa5 48895C24 		movq	%rbx, 64(%rsp)
 3015      40
 3016 0faa 48898424 		movq	%rax, 208(%rsp)
 3016      D0000000 
 3017 0fb2 0F118424 		movups	%xmm0, 440(%rsp)
 3017      B8010000 
 3018 0fba 0F118424 		movups	%xmm0, 456(%rsp)
 3018      C8010000 
 3019              	.LEHB65:
 3020 0fc2 E8000000 		call	_ZNSt9basic_iosIcSt11char_traitsIcEE4initEPSt15basic_streambufIcS1_E@PLT
 3020      00
 3021              	.LEHE65:
 3022 0fc7 660F6F0C 		movdqa	(%rsp), %xmm1
 3022      24
 3023 0fcc 660FEFC0 		pxor	%xmm0, %xmm0
 3024 0fd0 4C8DBC24 		leaq	128(%rsp), %r15
 3024      80000000 
 3025 0fd8 488D0500 		leaq	64+_ZTCN8UnitTest15MemoryOutStreamE0_NSt7__cxx1119basic_ostringstreamIcSt11char_traitsIcESaIc
 3025      000000
 3026 0fdf 4C89FF   		movq	%r15, %rdi
 3027 0fe2 0F294424 		movaps	%xmm0, 80(%rsp)
 3027      50
 3028 0fe7 488D6C24 		leaq	64(%rsp), %rbp
 3028      40
 3029 0fec 4C8D6C24 		leaq	72(%rsp), %r13
 3029      48
 3030 0ff1 48898424 		movq	%rax, 208(%rsp)
 3030      D0000000 
 3031 0ff9 0F294C24 		movaps	%xmm1, 64(%rsp)
 3031      40
 3032 0ffe 0F294424 		movaps	%xmm0, 96(%rsp)
 3032      60
 3033 1003 0F294424 		movaps	%xmm0, 112(%rsp)
 3033      70
 3034 1008 E8000000 		call	_ZNSt6localeC1Ev@PLT
 3034      00
 3035 100d 488D0500 		leaq	16+_ZTVNSt7__cxx1115basic_stringbufIcSt11char_traitsIcESaIcEEE(%rip), %rax
 3035      000000
 3036 1014 C68424A0 		movb	$0, 160(%rsp)
 3036      00000000 
 3037 101c 4C89EE   		movq	%r13, %rsi
 3038 101f 48894424 		movq	%rax, 72(%rsp)
 3038      48
 3039 1024 488D8424 		leaq	160(%rsp), %rax
 3039      A0000000 
 3040 102c 48894424 		movq	%rax, 16(%rsp)
 3040      10
 3041 1031 48898424 		movq	%rax, 144(%rsp)
 3041      90000000 
 3042 1039 488B4424 		movq	64(%rsp), %rax
 3042      40
 3043 103e 48C78424 		movq	$0, 152(%rsp)
 3043      98000000 
 3043      00000000 
 3044 104a C7842488 		movl	$16, 136(%rsp)
 3044      00000010 
 3044      000000
 3045 1055 488B78E8 		movq	-24(%rax), %rdi
 3046 1059 4801EF   		addq	%rbp, %rdi
 3047              	.LEHB66:
 3048 105c E8000000 		call	_ZNSt9basic_iosIcSt11char_traitsIcEE4initEPSt15basic_streambufIcS1_E@PLT
 3048      00
 3049              	.LEHE66:
 3050 1061 4C8D2D00 		leaq	24+_ZTVN8UnitTest15MemoryOutStreamE(%rip), %r13
 3050      000000
 3051 1068 4889EF   		movq	%rbp, %rdi
 3052 106b BE7B0000 		movl	$123, %esi
 3052      00
 3053 1070 48C78424 		movq	$0, 184(%rsp)
 3053      B8000000 
 3053      00000000 
 3054 107c 498D4528 		leaq	40(%r13), %rax
 3055 1080 4C896C24 		movq	%r13, 64(%rsp)
 3055      40
 3056 1085 48898424 		movq	%rax, 208(%rsp)
 3056      D0000000 
 3057 108d 488D8424 		leaq	192(%rsp), %rax
 3057      C0000000 
 3058 1095 48894424 		movq	%rax, 24(%rsp)
 3058      18
 3059 109a 48898424 		movq	%rax, 176(%rsp)
 3059      B0000000 
 3060 10a2 C68424C0 		movb	$0, 192(%rsp)
 3060      00000000 
 3061              	.LEHB67:
 3062 10aa E8000000 		call	_ZNSo9_M_insertImEERSoT_@PLT
 3062      00
 3063              	.LEHE67:
 3064              	.LEHB68:
 3065 10af E8000000 		call	_ZN8UnitTest11CurrentTest7DetailsEv@PLT
 3065      00
 3066 10b4 4C8D7424 		leaq	32(%rsp), %r14
 3066      20
 3067 10b9 488B30   		movq	(%rax), %rsi
 3068 10bc BA2B0000 		movl	$43, %edx
 3068      00
 3069 10c1 4C89F7   		movq	%r14, %rdi
 3070 10c4 E8000000 		call	_ZN8UnitTest11TestDetailsC1ERKS0_i@PLT
 3070      00
 3071 10c9 4889EF   		movq	%rbp, %rdi
 3072 10cc E8000000 		call	_ZNK8UnitTest15MemoryOutStream7GetTextEv@PLT
 3072      00
 3073 10d1 48890424 		movq	%rax, (%rsp)
 3074 10d5 E8000000 		call	_ZN8UnitTest11CurrentTest7ResultsEv@PLT
 3074      00
 3075 10da 488B1424 		movq	(%rsp), %rdx
 3076 10de 488B38   		movq	(%rax), %rdi
 3077 10e1 4C89F1   		movq	%r14, %rcx
 3078 10e4 488D3500 		leaq	.LC19(%rip), %rsi
 3078      000000
 3079 10eb E8000000 		call	_ZN8UnitTest10CheckEqualERNS_11TestResultsEPKcS3_RKNS_11TestDetailsE@PLT
 3079      00
 3080              	.LEHE68:
 3081              	.L189:
 3082 10f0 F30F7E05 		movq	.LC15(%rip), %xmm0
 3082      00000000 
 3083 10f8 488D0500 		leaq	64+_ZTVN8UnitTest15MemoryOutStreamE(%rip), %rax
 3083      000000
 3084 10ff 4C896C24 		movq	%r13, 64(%rsp)
 3084      40
 3085 1104 48898424 		movq	%rax, 208(%rsp)
 3085      D0000000 
 3086 110c 488BBC24 		movq	176(%rsp), %rdi
 3086      B0000000 
 3087 1114 0F160500 		movhps	.LC17(%rip), %xmm0
 3087      000000
 3088 111b 483B7C24 		cmpq	24(%rsp), %rdi
 3088      18
 3089 1120 740E     		je	.L186
 3090 1122 0F290424 		movaps	%xmm0, (%rsp)
 3091 1126 E8000000 		call	_ZdlPv@PLT
 3091      00
 3092 112b 660F6F04 		movdqa	(%rsp), %xmm0
 3092      24
 3093              	.L186:
 3094 1130 488D0500 		leaq	64+_ZTCN8UnitTest15MemoryOutStreamE0_NSt7__cxx1119basic_ostringstreamIcSt11char_traitsIcESaIc
 3094      000000
 3095 1137 488BBC24 		movq	144(%rsp), %rdi
 3095      90000000 
 3096 113f 0F294424 		movaps	%xmm0, 64(%rsp)
 3096      40
 3097 1144 48898424 		movq	%rax, 208(%rsp)
 3097      D0000000 
 3098 114c 483B7C24 		cmpq	16(%rsp), %rdi
 3098      10
 3099 1151 7405     		je	.L187
 3100 1153 E8000000 		call	_ZdlPv@PLT
 3100      00
 3101              	.L187:
 3102 1158 488D0500 		leaq	16+_ZTVSt15basic_streambufIcSt11char_traitsIcEE(%rip), %rax
 3102      000000
 3103 115f 4C89FF   		movq	%r15, %rdi
 3104 1162 48894424 		movq	%rax, 72(%rsp)
 3104      48
 3105 1167 E8000000 		call	_ZNSt6localeD1Ev@PLT
 3105      00
 3106 116c 488D0500 		leaq	16+_ZTVSt9basic_iosIcSt11char_traitsIcEE(%rip), %rax
 3106      000000
 3107 1173 4C89E7   		movq	%r12, %rdi
 3108 1176 48895C24 		movq	%rbx, 64(%rsp)
 3108      40
 3109 117b 48898424 		movq	%rax, 208(%rsp)
 3109      D0000000 
 3110              	.LEHB69:
 3111 1183 E8000000 		call	_ZNSt8ios_baseD2Ev@PLT
 3111      00
 3112              	.LEHE69:
 3113 1188 488B8424 		movq	472(%rsp), %rax
 3113      D8010000 
 3114 1190 64482B04 		subq	%fs:40, %rax
 3114      25280000 
 3114      00
 3115 1199 7512     		jne	.L204
 3116 119b 4881C4E8 		addq	$488, %rsp
 3116      010000
 3117              		.cfi_remember_state
 3118              		.cfi_def_cfa_offset 56
 3119 11a2 5B       		popq	%rbx
 3120              		.cfi_def_cfa_offset 48
 3121 11a3 5D       		popq	%rbp
 3122              		.cfi_def_cfa_offset 40
 3123 11a4 415C     		popq	%r12
 3124              		.cfi_def_cfa_offset 32
 3125 11a6 415D     		popq	%r13
 3126              		.cfi_def_cfa_offset 24
 3127 11a8 415E     		popq	%r14
 3128              		.cfi_def_cfa_offset 16
 3129 11aa 415F     		popq	%r15
 3130              		.cfi_def_cfa_offset 8
 3131 11ac C3       		ret
 3132              	.L204:
 3133              		.cfi_restore_state
 3134 11ad E8000000 		call	__stack_chk_fail@PLT
 3134      00
 3135              	.L194:
 3136 11b2 F30F1EFA 		endbr64
 3137 11b6 4889C7   		movq	%rax, %rdi
 3138 11b9 E9000000 		jmp	.L188
 3138      00
 3139              	.L198:
 3140 11be F30F1EFA 		endbr64
 3141 11c2 E9000000 		jmp	.L199
 3141      00
 3142              	.L197:
 3143 11c7 F30F1EFA 		endbr64
 3144 11cb 4889C5   		movq	%rax, %rbp
 3145 11ce E9000000 		jmp	.L183
 3145      00
 3146              	.L196:
 3147 11d3 F30F1EFA 		endbr64
 3148 11d7 4889C5   		movq	%rax, %rbp
 3149 11da E9000000 		jmp	.L184
 3149      00
 3150              		.section	.gcc_except_table
 3151              		.align 4
 3152              	.LLSDA1227:
 3153 01f4 FF       		.byte	0xff
 3154 01f5 9B       		.byte	0x9b
 3155 01f6 25       		.uleb128 .LLSDATT1227-.LLSDATTD1227
 3156              	.LLSDATTD1227:
 3157 01f7 01       		.byte	0x1
 3158 01f8 1D       		.uleb128 .LLSDACSE1227-.LLSDACSB1227
 3159              	.LLSDACSB1227:
 3160 01f9 9201     		.uleb128 .LEHB65-.LFB1227
 3161 01fb 05       		.uleb128 .LEHE65-.LEHB65
 3162 01fc A305     		.uleb128 .L196-.LFB1227
 3163 01fe 00       		.uleb128 0
 3164 01ff AC02     		.uleb128 .LEHB66-.LFB1227
 3165 0201 05       		.uleb128 .LEHE66-.LEHB66
 3166 0202 9705     		.uleb128 .L197-.LFB1227
 3167 0204 00       		.uleb128 0
 3168 0205 FA02     		.uleb128 .LEHB67-.LFB1227
 3169 0207 05       		.uleb128 .LEHE67-.LEHB67
 3170 0208 8E05     		.uleb128 .L198-.LFB1227
 3171 020a 00       		.uleb128 0
 3172 020b FF02     		.uleb128 .LEHB68-.LFB1227
 3173 020d 41       		.uleb128 .LEHE68-.LEHB68
 3174 020e 8205     		.uleb128 .L194-.LFB1227
 3175 0210 01       		.uleb128 0x1
 3176 0211 D304     		.uleb128 .LEHB69-.LFB1227
 3177 0213 05       		.uleb128 .LEHE69-.LEHB69
 3178 0214 00       		.uleb128 0
 3179 0215 00       		.uleb128 0
 3180              	.LLSDACSE1227:
 3181 0216 01       		.byte	0x1
 3182 0217 00       		.byte	0
 3183              		.align 4
 3184 0218 00000000 		.long	0
 3185              	
 3186              	.LLSDATT1227:
 3187              		.text
 3188              		.cfi_endproc
 3189              		.section	.text.unlikely
 3190              		.cfi_startproc
 3191              		.cfi_personality 0x9b,DW.ref.__gxx_personality_v0
 3192              		.cfi_lsda 0x1b,.LLSDAC1227
 3194              	_ZNK12_GLOBAL__N_147TestStreamingUnsignedIntWritesCorrectCharacters7RunImplEv.cold:
 3195              	.LFSB1227:
 3196              	.L188:
 3197              		.cfi_def_cfa_offset 544
 3198              		.cfi_offset 3, -56
 3199              		.cfi_offset 6, -48
 3200              		.cfi_offset 12, -40
 3201              		.cfi_offset 13, -32
 3202              		.cfi_offset 14, -24
 3203              		.cfi_offset 15, -16
 3204 0364 E8000000 		call	__cxa_begin_catch@PLT
 3204      00
 3205              	.LEHB70:
 3206 0369 E8000000 		call	_ZN8UnitTest11CurrentTest7ResultsEv@PLT
 3206      00
 3207 036e 488B00   		movq	(%rax), %rax
 3208 0371 48890424 		movq	%rax, (%rsp)
 3209 0375 E8000000 		call	_ZN8UnitTest11CurrentTest7DetailsEv@PLT
 3209      00
 3210 037a 4C8D7424 		leaq	32(%rsp), %r14
 3210      20
 3211 037f 488B30   		movq	(%rax), %rsi
 3212 0382 BA2B0000 		movl	$43, %edx
 3212      00
 3213 0387 4C89F7   		movq	%r14, %rdi
 3214 038a E8000000 		call	_ZN8UnitTest11TestDetailsC1ERKS0_i@PLT
 3214      00
 3215 038f 488B3C24 		movq	(%rsp), %rdi
 3216 0393 488D1500 		leaq	.LC20(%rip), %rdx
 3216      000000
 3217 039a 4C89F6   		movq	%r14, %rsi
 3218 039d E8000000 		call	_ZN8UnitTest11TestResults13OnTestFailureERKNS_11TestDetailsEPKc@PLT
 3218      00
 3219              	.LEHE70:
 3220              	.LEHB71:
 3221 03a2 E8000000 		call	__cxa_end_catch@PLT
 3221      00
 3222              	.LEHE71:
 3223 03a7 E9000000 		jmp	.L189
 3223      00
 3224              	.L193:
 3225 03ac F30F1EFA 		endbr64
 3226              	.L199:
 3227 03b0 4989C4   		movq	%rax, %r12
 3228 03b3 EB38     		jmp	.L191
 3229              	.L183:
 3230 03b5 4C89EF   		movq	%r13, %rdi
 3231 03b8 E8000000 		call	_ZNSt7__cxx1115basic_stringbufIcSt11char_traitsIcESaIcEED1Ev
 3231      00
 3232 03bd 48895C24 		movq	%rbx, 64(%rsp)
 3232      40
 3233              	.L184:
 3234 03c2 488D0500 		leaq	16+_ZTVSt9basic_iosIcSt11char_traitsIcEE(%rip), %rax
 3234      000000
 3235 03c9 4C89E7   		movq	%r12, %rdi
 3236 03cc 48898424 		movq	%rax, 208(%rsp)
 3236      D0000000 
 3237 03d4 E8000000 		call	_ZNSt8ios_baseD2Ev@PLT
 3237      00
 3238 03d9 4889EF   		movq	%rbp, %rdi
 3239              	.LEHB72:
 3240 03dc E8000000 		call	_Unwind_Resume@PLT
 3240      00
 3241              	.LEHE72:
 3242              	.L195:
 3243 03e1 F30F1EFA 		endbr64
 3244 03e5 4989C4   		movq	%rax, %r12
 3245 03e8 E8000000 		call	__cxa_end_catch@PLT
 3245      00
 3246              	.L191:
 3247 03ed 4889EF   		movq	%rbp, %rdi
 3248 03f0 E8000000 		call	_ZN8UnitTest15MemoryOutStreamD1Ev
 3248      00
 3249 03f5 4C89E7   		movq	%r12, %rdi
 3250              	.LEHB73:
 3251 03f8 E8000000 		call	_Unwind_Resume@PLT
 3251      00
 3252              	.LEHE73:
 3253              		.cfi_endproc
 3254              	.LFE1227:
 3255              		.section	.gcc_except_table
 3256              		.align 4
 3257              	.LLSDAC1227:
 3258 021c FF       		.byte	0xff
 3259 021d 9B       		.byte	0x9b
 3260 021e 19       		.uleb128 .LLSDATTC1227-.LLSDATTDC1227
 3261              	.LLSDATTDC1227:
 3262 021f 01       		.byte	0x1
 3263 0220 11       		.uleb128 .LLSDACSEC1227-.LLSDACSBC1227
 3264              	.LLSDACSBC1227:
 3265 0221 05       		.uleb128 .LEHB70-.LCOLDB26
 3266 0222 39       		.uleb128 .LEHE70-.LEHB70
 3267 0223 7D       		.uleb128 .L195-.LCOLDB26
 3268 0224 00       		.uleb128 0
 3269 0225 3E       		.uleb128 .LEHB71-.LCOLDB26
 3270 0226 05       		.uleb128 .LEHE71-.LEHB71
 3271 0227 48       		.uleb128 .L193-.LCOLDB26
 3272 0228 00       		.uleb128 0
 3273 0229 78       		.uleb128 .LEHB72-.LCOLDB26
 3274 022a 05       		.uleb128 .LEHE72-.LEHB72
 3275 022b 00       		.uleb128 0
 3276 022c 00       		.uleb128 0
 3277 022d 9401     		.uleb128 .LEHB73-.LCOLDB26
 3278 022f 05       		.uleb128 .LEHE73-.LEHB73
 3279 0230 00       		.uleb128 0
 3280 0231 00       		.uleb128 0
 3281              	.LLSDACSEC1227:
 3282 0232 01       		.byte	0x1
 3283 0233 00       		.byte	0
 3284              		.align 4
 3285 0234 00000000 		.long	0
 3286              	
 3287              	.LLSDATTC1227:
 3288              		.section	.text.unlikely
 3289              		.text
 3291              		.section	.text.unlikely
 3293              	.LCOLDE26:
 3294              		.text
 3295              	.LHOTE26:
 3296              		.section	.rodata.str1.1
 3297              	.LC27:
 3298 0021 2D313233 		.string	"-123"
 3298      00
 3299              		.section	.rodata.str1.8
 3300 00f6 0000     		.align 8
 3301              	.LC28:
 3302 00f8 556E6861 		.string	"Unhandled exception in CHECK_EQUAL(\"-123\", stream.GetText())"
 3302      6E646C65 
 3302      64206578 
 3302      63657074 
 3302      696F6E20 
 3303              		.section	.text.unlikely
 3304 03fd 90       		.align 2
 3305              	.LCOLDB29:
 3306              		.text
 3307              	.LHOTB29:
 3308 11df 90       		.align 2
 3309              		.p2align 4
 3311              	_ZNK12_GLOBAL__N_140TestStreamingLongWritesCorrectCharacters7RunImplEv:
 3312              	.LFB1231:
 3313              		.cfi_startproc
 3314              		.cfi_personality 0x9b,DW.ref.__gxx_personality_v0
 3315              		.cfi_lsda 0x1b,.LLSDA1231
 3316 11e0 F30F1EFA 		endbr64
 3317 11e4 4157     		pushq	%r15
 3318              		.cfi_def_cfa_offset 16
 3319              		.cfi_offset 15, -16
 3320 11e6 4156     		pushq	%r14
 3321              		.cfi_def_cfa_offset 24
 3322              		.cfi_offset 14, -24
 3323 11e8 4155     		pushq	%r13
 3324              		.cfi_def_cfa_offset 32
 3325              		.cfi_offset 13, -32
 3326 11ea 4154     		pushq	%r12
 3327              		.cfi_def_cfa_offset 40
 3328              		.cfi_offset 12, -40
 3329 11ec 55       		pushq	%rbp
 3330              		.cfi_def_cfa_offset 48
 3331              		.cfi_offset 6, -48
 3332 11ed 53       		pushq	%rbx
 3333              		.cfi_def_cfa_offset 56
 3334              		.cfi_offset 3, -56
 3335 11ee 488D1D00 		leaq	24+_ZTCN8UnitTest15MemoryOutStreamE0_So(%rip), %rbx
 3335      000000
 3336 11f5 4881ECE8 		subq	$488, %rsp
 3336      010000
 3337              		.cfi_def_cfa_offset 544
 3338 11fc F30F7E0D 		movq	.LC15(%rip), %xmm1
 3338      00000000 
 3339 1204 64488B04 		movq	%fs:40, %rax
 3339      25280000 
 3339      00
 3340 120d 48898424 		movq	%rax, 472(%rsp)
 3340      D8010000 
 3341 1215 31C0     		xorl	%eax, %eax
 3342 1217 4C8DA424 		leaq	208(%rsp), %r12
 3342      D0000000 
 3343 121f 0F160D00 		movhps	.LC16(%rip), %xmm1
 3343      000000
 3344 1226 4C89E7   		movq	%r12, %rdi
 3345 1229 0F290C24 		movaps	%xmm1, (%rsp)
 3346 122d E8000000 		call	_ZNSt8ios_baseC2Ev@PLT
 3346      00
 3347 1232 31C0     		xorl	%eax, %eax
 3348 1234 660FEFC0 		pxor	%xmm0, %xmm0
 3349 1238 31F6     		xorl	%esi, %esi
 3350 123a 66898424 		movw	%ax, 432(%rsp)
 3350      B0010000 
 3351 1242 4C89E7   		movq	%r12, %rdi
 3352 1245 488D4328 		leaq	40(%rbx), %rax
 3353 1249 48C78424 		movq	$0, 424(%rsp)
 3353      A8010000 
 3353      00000000 
 3354 1255 48895C24 		movq	%rbx, 64(%rsp)
 3354      40
 3355 125a 48898424 		movq	%rax, 208(%rsp)
 3355      D0000000 
 3356 1262 0F118424 		movups	%xmm0, 440(%rsp)
 3356      B8010000 
 3357 126a 0F118424 		movups	%xmm0, 456(%rsp)
 3357      C8010000 
 3358              	.LEHB74:
 3359 1272 E8000000 		call	_ZNSt9basic_iosIcSt11char_traitsIcEE4initEPSt15basic_streambufIcS1_E@PLT
 3359      00
 3360              	.LEHE74:
 3361 1277 660F6F0C 		movdqa	(%rsp), %xmm1
 3361      24
 3362 127c 660FEFC0 		pxor	%xmm0, %xmm0
 3363 1280 4C8DBC24 		leaq	128(%rsp), %r15
 3363      80000000 
 3364 1288 488D0500 		leaq	64+_ZTCN8UnitTest15MemoryOutStreamE0_NSt7__cxx1119basic_ostringstreamIcSt11char_traitsIcESaIc
 3364      000000
 3365 128f 4C89FF   		movq	%r15, %rdi
 3366 1292 0F294424 		movaps	%xmm0, 80(%rsp)
 3366      50
 3367 1297 488D6C24 		leaq	64(%rsp), %rbp
 3367      40
 3368 129c 4C8D6C24 		leaq	72(%rsp), %r13
 3368      48
 3369 12a1 48898424 		movq	%rax, 208(%rsp)
 3369      D0000000 
 3370 12a9 0F294C24 		movaps	%xmm1, 64(%rsp)
 3370      40
 3371 12ae 0F294424 		movaps	%xmm0, 96(%rsp)
 3371      60
 3372 12b3 0F294424 		movaps	%xmm0, 112(%rsp)
 3372      70
 3373 12b8 E8000000 		call	_ZNSt6localeC1Ev@PLT
 3373      00
 3374 12bd 488D0500 		leaq	16+_ZTVNSt7__cxx1115basic_stringbufIcSt11char_traitsIcESaIcEEE(%rip), %rax
 3374      000000
 3375 12c4 C68424A0 		movb	$0, 160(%rsp)
 3375      00000000 
 3376 12cc 4C89EE   		movq	%r13, %rsi
 3377 12cf 48894424 		movq	%rax, 72(%rsp)
 3377      48
 3378 12d4 488D8424 		leaq	160(%rsp), %rax
 3378      A0000000 
 3379 12dc 48894424 		movq	%rax, 16(%rsp)
 3379      10
 3380 12e1 48898424 		movq	%rax, 144(%rsp)
 3380      90000000 
 3381 12e9 488B4424 		movq	64(%rsp), %rax
 3381      40
 3382 12ee 48C78424 		movq	$0, 152(%rsp)
 3382      98000000 
 3382      00000000 
 3383 12fa C7842488 		movl	$16, 136(%rsp)
 3383      00000010 
 3383      000000
 3384 1305 488B78E8 		movq	-24(%rax), %rdi
 3385 1309 4801EF   		addq	%rbp, %rdi
 3386              	.LEHB75:
 3387 130c E8000000 		call	_ZNSt9basic_iosIcSt11char_traitsIcEE4initEPSt15basic_streambufIcS1_E@PLT
 3387      00
 3388              	.LEHE75:
 3389 1311 4C8D2D00 		leaq	24+_ZTVN8UnitTest15MemoryOutStreamE(%rip), %r13
 3389      000000
 3390 1318 4889EF   		movq	%rbp, %rdi
 3391 131b 48C7C685 		movq	$-123, %rsi
 3391      FFFFFF
 3392 1322 48C78424 		movq	$0, 184(%rsp)
 3392      B8000000 
 3392      00000000 
 3393 132e 498D4528 		leaq	40(%r13), %rax
 3394 1332 4C896C24 		movq	%r13, 64(%rsp)
 3394      40
 3395 1337 48898424 		movq	%rax, 208(%rsp)
 3395      D0000000 
 3396 133f 488D8424 		leaq	192(%rsp), %rax
 3396      C0000000 
 3397 1347 48894424 		movq	%rax, 24(%rsp)
 3397      18
 3398 134c 48898424 		movq	%rax, 176(%rsp)
 3398      B0000000 
 3399 1354 C68424C0 		movb	$0, 192(%rsp)
 3399      00000000 
 3400              	.LEHB76:
 3401 135c E8000000 		call	_ZNSo9_M_insertIlEERSoT_@PLT
 3401      00
 3402              	.LEHE76:
 3403              	.LEHB77:
 3404 1361 E8000000 		call	_ZN8UnitTest11CurrentTest7DetailsEv@PLT
 3404      00
 3405 1366 4C8D7424 		leaq	32(%rsp), %r14
 3405      20
 3406 136b 488B30   		movq	(%rax), %rsi
 3407 136e BA320000 		movl	$50, %edx
 3407      00
 3408 1373 4C89F7   		movq	%r14, %rdi
 3409 1376 E8000000 		call	_ZN8UnitTest11TestDetailsC1ERKS0_i@PLT
 3409      00
 3410 137b 4889EF   		movq	%rbp, %rdi
 3411 137e E8000000 		call	_ZNK8UnitTest15MemoryOutStream7GetTextEv@PLT
 3411      00
 3412 1383 48890424 		movq	%rax, (%rsp)
 3413 1387 E8000000 		call	_ZN8UnitTest11CurrentTest7ResultsEv@PLT
 3413      00
 3414 138c 488B1424 		movq	(%rsp), %rdx
 3415 1390 488B38   		movq	(%rax), %rdi
 3416 1393 4C89F1   		movq	%r14, %rcx
 3417 1396 488D3500 		leaq	.LC27(%rip), %rsi
 3417      000000
 3418 139d E8000000 		call	_ZN8UnitTest10CheckEqualERNS_11TestResultsEPKcS3_RKNS_11TestDetailsE@PLT
 3418      00
 3419              	.LEHE77:
 3420              	.L213:
 3421 13a2 F30F7E05 		movq	.LC15(%rip), %xmm0
 3421      00000000 
 3422 13aa 488D0500 		leaq	64+_ZTVN8UnitTest15MemoryOutStreamE(%rip), %rax
 3422      000000
 3423 13b1 4C896C24 		movq	%r13, 64(%rsp)
 3423      40
 3424 13b6 48898424 		movq	%rax, 208(%rsp)
 3424      D0000000 
 3425 13be 488BBC24 		movq	176(%rsp), %rdi
 3425      B0000000 
 3426 13c6 0F160500 		movhps	.LC17(%rip), %xmm0
 3426      000000
 3427 13cd 483B7C24 		cmpq	24(%rsp), %rdi
 3427      18
 3428 13d2 740E     		je	.L210
 3429 13d4 0F290424 		movaps	%xmm0, (%rsp)
 3430 13d8 E8000000 		call	_ZdlPv@PLT
 3430      00
 3431 13dd 660F6F04 		movdqa	(%rsp), %xmm0
 3431      24
 3432              	.L210:
 3433 13e2 488D0500 		leaq	64+_ZTCN8UnitTest15MemoryOutStreamE0_NSt7__cxx1119basic_ostringstreamIcSt11char_traitsIcESaIc
 3433      000000
 3434 13e9 488BBC24 		movq	144(%rsp), %rdi
 3434      90000000 
 3435 13f1 0F294424 		movaps	%xmm0, 64(%rsp)
 3435      40
 3436 13f6 48898424 		movq	%rax, 208(%rsp)
 3436      D0000000 
 3437 13fe 483B7C24 		cmpq	16(%rsp), %rdi
 3437      10
 3438 1403 7405     		je	.L211
 3439 1405 E8000000 		call	_ZdlPv@PLT
 3439      00
 3440              	.L211:
 3441 140a 488D0500 		leaq	16+_ZTVSt15basic_streambufIcSt11char_traitsIcEE(%rip), %rax
 3441      000000
 3442 1411 4C89FF   		movq	%r15, %rdi
 3443 1414 48894424 		movq	%rax, 72(%rsp)
 3443      48
 3444 1419 E8000000 		call	_ZNSt6localeD1Ev@PLT
 3444      00
 3445 141e 488D0500 		leaq	16+_ZTVSt9basic_iosIcSt11char_traitsIcEE(%rip), %rax
 3445      000000
 3446 1425 4C89E7   		movq	%r12, %rdi
 3447 1428 48895C24 		movq	%rbx, 64(%rsp)
 3447      40
 3448 142d 48898424 		movq	%rax, 208(%rsp)
 3448      D0000000 
 3449              	.LEHB78:
 3450 1435 E8000000 		call	_ZNSt8ios_baseD2Ev@PLT
 3450      00
 3451              	.LEHE78:
 3452 143a 488B8424 		movq	472(%rsp), %rax
 3452      D8010000 
 3453 1442 64482B04 		subq	%fs:40, %rax
 3453      25280000 
 3453      00
 3454 144b 7512     		jne	.L228
 3455 144d 4881C4E8 		addq	$488, %rsp
 3455      010000
 3456              		.cfi_remember_state
 3457              		.cfi_def_cfa_offset 56
 3458 1454 5B       		popq	%rbx
 3459              		.cfi_def_cfa_offset 48
 3460 1455 5D       		popq	%rbp
 3461              		.cfi_def_cfa_offset 40
 3462 1456 415C     		popq	%r12
 3463              		.cfi_def_cfa_offset 32
 3464 1458 415D     		popq	%r13
 3465              		.cfi_def_cfa_offset 24
 3466 145a 415E     		popq	%r14
 3467              		.cfi_def_cfa_offset 16
 3468 145c 415F     		popq	%r15
 3469              		.cfi_def_cfa_offset 8
 3470 145e C3       		ret
 3471              	.L228:
 3472              		.cfi_restore_state
 3473 145f E8000000 		call	__stack_chk_fail@PLT
 3473      00
 3474              	.L218:
 3475 1464 F30F1EFA 		endbr64
 3476 1468 4889C7   		movq	%rax, %rdi
 3477 146b E9000000 		jmp	.L212
 3477      00
 3478              	.L222:
 3479 1470 F30F1EFA 		endbr64
 3480 1474 E9000000 		jmp	.L223
 3480      00
 3481              	.L221:
 3482 1479 F30F1EFA 		endbr64
 3483 147d 4889C5   		movq	%rax, %rbp
 3484 1480 E9000000 		jmp	.L207
 3484      00
 3485              	.L220:
 3486 1485 F30F1EFA 		endbr64
 3487 1489 4889C5   		movq	%rax, %rbp
 3488 148c E9000000 		jmp	.L208
 3488      00
 3489              		.section	.gcc_except_table
 3490              		.align 4
 3491              	.LLSDA1231:
 3492 0238 FF       		.byte	0xff
 3493 0239 9B       		.byte	0x9b
 3494 023a 25       		.uleb128 .LLSDATT1231-.LLSDATTD1231
 3495              	.LLSDATTD1231:
 3496 023b 01       		.byte	0x1
 3497 023c 1D       		.uleb128 .LLSDACSE1231-.LLSDACSB1231
 3498              	.LLSDACSB1231:
 3499 023d 9201     		.uleb128 .LEHB74-.LFB1231
 3500 023f 05       		.uleb128 .LEHE74-.LEHB74
 3501 0240 A505     		.uleb128 .L220-.LFB1231
 3502 0242 00       		.uleb128 0
 3503 0243 AC02     		.uleb128 .LEHB75-.LFB1231
 3504 0245 05       		.uleb128 .LEHE75-.LEHB75
 3505 0246 9905     		.uleb128 .L221-.LFB1231
 3506 0248 00       		.uleb128 0
 3507 0249 FC02     		.uleb128 .LEHB76-.LFB1231
 3508 024b 05       		.uleb128 .LEHE76-.LEHB76
 3509 024c 9005     		.uleb128 .L222-.LFB1231
 3510 024e 00       		.uleb128 0
 3511 024f 8103     		.uleb128 .LEHB77-.LFB1231
 3512 0251 41       		.uleb128 .LEHE77-.LEHB77
 3513 0252 8405     		.uleb128 .L218-.LFB1231
 3514 0254 01       		.uleb128 0x1
 3515 0255 D504     		.uleb128 .LEHB78-.LFB1231
 3516 0257 05       		.uleb128 .LEHE78-.LEHB78
 3517 0258 00       		.uleb128 0
 3518 0259 00       		.uleb128 0
 3519              	.LLSDACSE1231:
 3520 025a 01       		.byte	0x1
 3521 025b 00       		.byte	0
 3522              		.align 4
 3523 025c 00000000 		.long	0
 3524              	
 3525              	.LLSDATT1231:
 3526              		.text
 3527              		.cfi_endproc
 3528              		.section	.text.unlikely
 3529              		.cfi_startproc
 3530              		.cfi_personality 0x9b,DW.ref.__gxx_personality_v0
 3531              		.cfi_lsda 0x1b,.LLSDAC1231
 3533              	_ZNK12_GLOBAL__N_140TestStreamingLongWritesCorrectCharacters7RunImplEv.cold:
 3534              	.LFSB1231:
 3535              	.L212:
 3536              		.cfi_def_cfa_offset 544
 3537              		.cfi_offset 3, -56
 3538              		.cfi_offset 6, -48
 3539              		.cfi_offset 12, -40
 3540              		.cfi_offset 13, -32
 3541              		.cfi_offset 14, -24
 3542              		.cfi_offset 15, -16
 3543 03fe E8000000 		call	__cxa_begin_catch@PLT
 3543      00
 3544              	.LEHB79:
 3545 0403 E8000000 		call	_ZN8UnitTest11CurrentTest7ResultsEv@PLT
 3545      00
 3546 0408 488B00   		movq	(%rax), %rax
 3547 040b 48890424 		movq	%rax, (%rsp)
 3548 040f E8000000 		call	_ZN8UnitTest11CurrentTest7DetailsEv@PLT
 3548      00
 3549 0414 4C8D7424 		leaq	32(%rsp), %r14
 3549      20
 3550 0419 488B30   		movq	(%rax), %rsi
 3551 041c BA320000 		movl	$50, %edx
 3551      00
 3552 0421 4C89F7   		movq	%r14, %rdi
 3553 0424 E8000000 		call	_ZN8UnitTest11TestDetailsC1ERKS0_i@PLT
 3553      00
 3554 0429 488B3C24 		movq	(%rsp), %rdi
 3555 042d 488D1500 		leaq	.LC28(%rip), %rdx
 3555      000000
 3556 0434 4C89F6   		movq	%r14, %rsi
 3557 0437 E8000000 		call	_ZN8UnitTest11TestResults13OnTestFailureERKNS_11TestDetailsEPKc@PLT
 3557      00
 3558              	.LEHE79:
 3559              	.LEHB80:
 3560 043c E8000000 		call	__cxa_end_catch@PLT
 3560      00
 3561              	.LEHE80:
 3562 0441 E9000000 		jmp	.L213
 3562      00
 3563              	.L217:
 3564 0446 F30F1EFA 		endbr64
 3565              	.L223:
 3566 044a 4989C4   		movq	%rax, %r12
 3567 044d EB38     		jmp	.L215
 3568              	.L207:
 3569 044f 4C89EF   		movq	%r13, %rdi
 3570 0452 E8000000 		call	_ZNSt7__cxx1115basic_stringbufIcSt11char_traitsIcESaIcEED1Ev
 3570      00
 3571 0457 48895C24 		movq	%rbx, 64(%rsp)
 3571      40
 3572              	.L208:
 3573 045c 488D0500 		leaq	16+_ZTVSt9basic_iosIcSt11char_traitsIcEE(%rip), %rax
 3573      000000
 3574 0463 4C89E7   		movq	%r12, %rdi
 3575 0466 48898424 		movq	%rax, 208(%rsp)
 3575      D0000000 
 3576 046e E8000000 		call	_ZNSt8ios_baseD2Ev@PLT
 3576      00
 3577 0473 4889EF   		movq	%rbp, %rdi
 3578              	.LEHB81:
 3579 0476 E8000000 		call	_Unwind_Resume@PLT
 3579      00
 3580              	.LEHE81:
 3581              	.L219:
 3582 047b F30F1EFA 		endbr64
 3583 047f 4989C4   		movq	%rax, %r12
 3584 0482 E8000000 		call	__cxa_end_catch@PLT
 3584      00
 3585              	.L215:
 3586 0487 4889EF   		movq	%rbp, %rdi
 3587 048a E8000000 		call	_ZN8UnitTest15MemoryOutStreamD1Ev
 3587      00
 3588 048f 4C89E7   		movq	%r12, %rdi
 3589              	.LEHB82:
 3590 0492 E8000000 		call	_Unwind_Resume@PLT
 3590      00
 3591              	.LEHE82:
 3592              		.cfi_endproc
 3593              	.LFE1231:
 3594              		.section	.gcc_except_table
 3595              		.align 4
 3596              	.LLSDAC1231:
 3597 0260 FF       		.byte	0xff
 3598 0261 9B       		.byte	0x9b
 3599 0262 19       		.uleb128 .LLSDATTC1231-.LLSDATTDC1231
 3600              	.LLSDATTDC1231:
 3601 0263 01       		.byte	0x1
 3602 0264 11       		.uleb128 .LLSDACSEC1231-.LLSDACSBC1231
 3603              	.LLSDACSBC1231:
 3604 0265 05       		.uleb128 .LEHB79-.LCOLDB29
 3605 0266 39       		.uleb128 .LEHE79-.LEHB79
 3606 0267 7D       		.uleb128 .L219-.LCOLDB29
 3607 0268 00       		.uleb128 0
 3608 0269 3E       		.uleb128 .LEHB80-.LCOLDB29
 3609 026a 05       		.uleb128 .LEHE80-.LEHB80
 3610 026b 48       		.uleb128 .L217-.LCOLDB29
 3611 026c 00       		.uleb128 0
 3612 026d 78       		.uleb128 .LEHB81-.LCOLDB29
 3613 026e 05       		.uleb128 .LEHE81-.LEHB81
 3614 026f 00       		.uleb128 0
 3615 0270 00       		.uleb128 0
 3616 0271 9401     		.uleb128 .LEHB82-.LCOLDB29
 3617 0273 05       		.uleb128 .LEHE82-.LEHB82
 3618 0274 00       		.uleb128 0
 3619 0275 00       		.uleb128 0
 3620              	.LLSDACSEC1231:
 3621 0276 01       		.byte	0x1
 3622 0277 00       		.byte	0
 3623              		.align 4
 3624 0278 00000000 		.long	0
 3625              	
 3626              	.LLSDATTC1231:
 3627              		.section	.text.unlikely
 3628              		.text
 3630              		.section	.text.unlikely
 3632              	.LCOLDE29:
 3633              		.text
 3634              	.LHOTE29:
 3635              		.section	.rodata.str1.1
 3636              	.LC30:
 3637 0026 4C616C61 		.string	"Lalala"
 3637      6C6100
 3638              		.section	.rodata.str1.8
 3639 0135 000000   		.align 8
 3640              	.LC31:
 3641 0138 556E6861 		.string	"Unhandled exception in CHECK_EQUAL(\"Lalala\", stream.GetText())"
 3641      6E646C65 
 3641      64206578 
 3641      63657074 
 3641      696F6E20 
 3642              		.section	.text.unlikely
 3643 0497 90       		.align 2
 3644              	.LCOLDB32:
 3645              		.text
 3646              	.LHOTB32:
 3647 1491 90       		.align 2
 3648 1492 66662E0F 		.p2align 4
 3648      1F840000 
 3648      0000000F 
 3648      1F00
 3650              	_ZNK12_GLOBAL__N_133TestStreamingTextCopiesCharacters7RunImplEv:
 3651              	.LFB1215:
 3652              		.cfi_startproc
 3653              		.cfi_personality 0x9b,DW.ref.__gxx_personality_v0
 3654              		.cfi_lsda 0x1b,.LLSDA1215
 3655 14a0 F30F1EFA 		endbr64
 3656 14a4 4157     		pushq	%r15
 3657              		.cfi_def_cfa_offset 16
 3658              		.cfi_offset 15, -16
 3659 14a6 4156     		pushq	%r14
 3660              		.cfi_def_cfa_offset 24
 3661              		.cfi_offset 14, -24
 3662 14a8 4155     		pushq	%r13
 3663              		.cfi_def_cfa_offset 32
 3664              		.cfi_offset 13, -32
 3665 14aa 4154     		pushq	%r12
 3666              		.cfi_def_cfa_offset 40
 3667              		.cfi_offset 12, -40
 3668 14ac 55       		pushq	%rbp
 3669              		.cfi_def_cfa_offset 48
 3670              		.cfi_offset 6, -48
 3671 14ad 53       		pushq	%rbx
 3672              		.cfi_def_cfa_offset 56
 3673              		.cfi_offset 3, -56
 3674 14ae 4881ECE8 		subq	$488, %rsp
 3674      010000
 3675              		.cfi_def_cfa_offset 544
 3676 14b5 F30F7E0D 		movq	.LC15(%rip), %xmm1
 3676      00000000 
 3677 14bd 64488B04 		movq	%fs:40, %rax
 3677      25280000 
 3677      00
 3678 14c6 48898424 		movq	%rax, 472(%rsp)
 3678      D8010000 
 3679 14ce 31C0     		xorl	%eax, %eax
 3680 14d0 4C8DA424 		leaq	208(%rsp), %r12
 3680      D0000000 
 3681 14d8 0F160D00 		movhps	.LC16(%rip), %xmm1
 3681      000000
 3682 14df 4C89E7   		movq	%r12, %rdi
 3683 14e2 0F290C24 		movaps	%xmm1, (%rsp)
 3684 14e6 E8000000 		call	_ZNSt8ios_baseC2Ev@PLT
 3684      00
 3685 14eb 31C0     		xorl	%eax, %eax
 3686 14ed 660FEFC0 		pxor	%xmm0, %xmm0
 3687 14f1 31F6     		xorl	%esi, %esi
 3688 14f3 66898424 		movw	%ax, 432(%rsp)
 3688      B0010000 
 3689 14fb 488D0500 		leaq	24+_ZTCN8UnitTest15MemoryOutStreamE0_So(%rip), %rax
 3689      000000
 3690 1502 4C89E7   		movq	%r12, %rdi
 3691 1505 48894424 		movq	%rax, 64(%rsp)
 3691      40
 3692 150a 4883C028 		addq	$40, %rax
 3693 150e 48C78424 		movq	$0, 424(%rsp)
 3693      A8010000 
 3693      00000000 
 3694 151a 48898424 		movq	%rax, 208(%rsp)
 3694      D0000000 
 3695 1522 0F118424 		movups	%xmm0, 440(%rsp)
 3695      B8010000 
 3696 152a 0F118424 		movups	%xmm0, 456(%rsp)
 3696      C8010000 
 3697              	.LEHB83:
 3698 1532 E8000000 		call	_ZNSt9basic_iosIcSt11char_traitsIcEE4initEPSt15basic_streambufIcS1_E@PLT
 3698      00
 3699              	.LEHE83:
 3700 1537 660F6F0C 		movdqa	(%rsp), %xmm1
 3700      24
 3701 153c 660FEFC0 		pxor	%xmm0, %xmm0
 3702 1540 4C8DBC24 		leaq	128(%rsp), %r15
 3702      80000000 
 3703 1548 488D0500 		leaq	64+_ZTCN8UnitTest15MemoryOutStreamE0_NSt7__cxx1119basic_ostringstreamIcSt11char_traitsIcESaIc
 3703      000000
 3704 154f 4C89FF   		movq	%r15, %rdi
 3705 1552 0F294424 		movaps	%xmm0, 80(%rsp)
 3705      50
 3706 1557 488D6C24 		leaq	64(%rsp), %rbp
 3706      40
 3707 155c 4C8D6C24 		leaq	72(%rsp), %r13
 3707      48
 3708 1561 48898424 		movq	%rax, 208(%rsp)
 3708      D0000000 
 3709 1569 0F294C24 		movaps	%xmm1, 64(%rsp)
 3709      40
 3710 156e 0F294424 		movaps	%xmm0, 96(%rsp)
 3710      60
 3711 1573 0F294424 		movaps	%xmm0, 112(%rsp)
 3711      70
 3712 1578 E8000000 		call	_ZNSt6localeC1Ev@PLT
 3712      00
 3713 157d 488D0500 		leaq	16+_ZTVNSt7__cxx1115basic_stringbufIcSt11char_traitsIcESaIcEEE(%rip), %rax
 3713      000000
 3714 1584 C68424A0 		movb	$0, 160(%rsp)
 3714      00000000 
 3715 158c 4C89EE   		movq	%r13, %rsi
 3716 158f 48894424 		movq	%rax, 72(%rsp)
 3716      48
 3717 1594 488D8424 		leaq	160(%rsp), %rax
 3717      A0000000 
 3718 159c 48894424 		movq	%rax, 24(%rsp)
 3718      18
 3719 15a1 48898424 		movq	%rax, 144(%rsp)
 3719      90000000 
 3720 15a9 488B4424 		movq	64(%rsp), %rax
 3720      40
 3721 15ae 48C78424 		movq	$0, 152(%rsp)
 3721      98000000 
 3721      00000000 
 3722 15ba C7842488 		movl	$16, 136(%rsp)
 3722      00000010 
 3722      000000
 3723 15c5 488B78E8 		movq	-24(%rax), %rdi
 3724 15c9 4801EF   		addq	%rbp, %rdi
 3725              	.LEHB84:
 3726 15cc E8000000 		call	_ZNSt9basic_iosIcSt11char_traitsIcEE4initEPSt15basic_streambufIcS1_E@PLT
 3726      00
 3727              	.LEHE84:
 3728 15d1 488D0500 		leaq	24+_ZTVN8UnitTest15MemoryOutStreamE(%rip), %rax
 3728      000000
 3729 15d8 488D1D00 		leaq	.LC30(%rip), %rbx
 3729      000000
 3730 15df BA060000 		movl	$6, %edx
 3730      00
 3731 15e4 4889EF   		movq	%rbp, %rdi
 3732 15e7 4C8D6828 		leaq	40(%rax), %r13
 3733 15eb 4889DE   		movq	%rbx, %rsi
 3734 15ee 48894424 		movq	%rax, 64(%rsp)
 3734      40
 3735 15f3 488D8424 		leaq	192(%rsp), %rax
 3735      C0000000 
 3736 15fb 4C89AC24 		movq	%r13, 208(%rsp)
 3736      D0000000 
 3737 1603 48894424 		movq	%rax, 16(%rsp)
 3737      10
 3738 1608 48898424 		movq	%rax, 176(%rsp)
 3738      B0000000 
 3739 1610 48C78424 		movq	$0, 184(%rsp)
 3739      B8000000 
 3739      00000000 
 3740 161c C68424C0 		movb	$0, 192(%rsp)
 3740      00000000 
 3741              	.LEHB85:
 3742 1624 E8000000 		call	_ZSt16__ostream_insertIcSt11char_traitsIcEERSt13basic_ostreamIT_T0_ES6_PKS3_l@PLT
 3742      00
 3743              	.LEHE85:
 3744              	.LEHB86:
 3745 1629 E8000000 		call	_ZN8UnitTest11CurrentTest7DetailsEv@PLT
 3745      00
 3746 162e 4C8D7424 		leaq	32(%rsp), %r14
 3746      20
 3747 1633 488B30   		movq	(%rax), %rsi
 3748 1636 BA160000 		movl	$22, %edx
 3748      00
 3749 163b 4C89F7   		movq	%r14, %rdi
 3750 163e E8000000 		call	_ZN8UnitTest11TestDetailsC1ERKS0_i@PLT
 3750      00
 3751 1643 4889EF   		movq	%rbp, %rdi
 3752 1646 E8000000 		call	_ZNK8UnitTest15MemoryOutStream7GetTextEv@PLT
 3752      00
 3753 164b 48890424 		movq	%rax, (%rsp)
 3754 164f E8000000 		call	_ZN8UnitTest11CurrentTest7ResultsEv@PLT
 3754      00
 3755 1654 488B1424 		movq	(%rsp), %rdx
 3756 1658 488B38   		movq	(%rax), %rdi
 3757 165b 4C89F1   		movq	%r14, %rcx
 3758 165e 4889DE   		movq	%rbx, %rsi
 3759 1661 E8000000 		call	_ZN8UnitTest10CheckEqualERNS_11TestResultsEPKcS3_RKNS_11TestDetailsE@PLT
 3759      00
 3760              	.LEHE86:
 3761              	.L237:
 3762 1666 F30F7E05 		movq	.LC15(%rip), %xmm0
 3762      00000000 
 3763 166e 488D0500 		leaq	24+_ZTVN8UnitTest15MemoryOutStreamE(%rip), %rax
 3763      000000
 3764 1675 4C89AC24 		movq	%r13, 208(%rsp)
 3764      D0000000 
 3765 167d 48894424 		movq	%rax, 64(%rsp)
 3765      40
 3766 1682 488BBC24 		movq	176(%rsp), %rdi
 3766      B0000000 
 3767 168a 0F160500 		movhps	.LC17(%rip), %xmm0
 3767      000000
 3768 1691 483B7C24 		cmpq	16(%rsp), %rdi
 3768      10
 3769 1696 740E     		je	.L234
 3770 1698 0F290424 		movaps	%xmm0, (%rsp)
 3771 169c E8000000 		call	_ZdlPv@PLT
 3771      00
 3772 16a1 660F6F04 		movdqa	(%rsp), %xmm0
 3772      24
 3773              	.L234:
 3774 16a6 488D0500 		leaq	64+_ZTCN8UnitTest15MemoryOutStreamE0_NSt7__cxx1119basic_ostringstreamIcSt11char_traitsIcESaIc
 3774      000000
 3775 16ad 488BBC24 		movq	144(%rsp), %rdi
 3775      90000000 
 3776 16b5 0F294424 		movaps	%xmm0, 64(%rsp)
 3776      40
 3777 16ba 48898424 		movq	%rax, 208(%rsp)
 3777      D0000000 
 3778 16c2 483B7C24 		cmpq	24(%rsp), %rdi
 3778      18
 3779 16c7 7405     		je	.L235
 3780 16c9 E8000000 		call	_ZdlPv@PLT
 3780      00
 3781              	.L235:
 3782 16ce 488D0500 		leaq	16+_ZTVSt15basic_streambufIcSt11char_traitsIcEE(%rip), %rax
 3782      000000
 3783 16d5 4C89FF   		movq	%r15, %rdi
 3784 16d8 48894424 		movq	%rax, 72(%rsp)
 3784      48
 3785 16dd E8000000 		call	_ZNSt6localeD1Ev@PLT
 3785      00
 3786 16e2 488D0500 		leaq	24+_ZTCN8UnitTest15MemoryOutStreamE0_So(%rip), %rax
 3786      000000
 3787 16e9 4C89E7   		movq	%r12, %rdi
 3788 16ec 48894424 		movq	%rax, 64(%rsp)
 3788      40
 3789 16f1 488D0500 		leaq	16+_ZTVSt9basic_iosIcSt11char_traitsIcEE(%rip), %rax
 3789      000000
 3790 16f8 48898424 		movq	%rax, 208(%rsp)
 3790      D0000000 
 3791              	.LEHB87:
 3792 1700 E8000000 		call	_ZNSt8ios_baseD2Ev@PLT
 3792      00
 3793              	.LEHE87:
 3794 1705 488B8424 		movq	472(%rsp), %rax
 3794      D8010000 
 3795 170d 64482B04 		subq	%fs:40, %rax
 3795      25280000 
 3795      00
 3796 1716 7512     		jne	.L252
 3797 1718 4881C4E8 		addq	$488, %rsp
 3797      010000
 3798              		.cfi_remember_state
 3799              		.cfi_def_cfa_offset 56
 3800 171f 5B       		popq	%rbx
 3801              		.cfi_def_cfa_offset 48
 3802 1720 5D       		popq	%rbp
 3803              		.cfi_def_cfa_offset 40
 3804 1721 415C     		popq	%r12
 3805              		.cfi_def_cfa_offset 32
 3806 1723 415D     		popq	%r13
 3807              		.cfi_def_cfa_offset 24
 3808 1725 415E     		popq	%r14
 3809              		.cfi_def_cfa_offset 16
 3810 1727 415F     		popq	%r15
 3811              		.cfi_def_cfa_offset 8
 3812 1729 C3       		ret
 3813              	.L252:
 3814              		.cfi_restore_state
 3815 172a E8000000 		call	__stack_chk_fail@PLT
 3815      00
 3816              	.L242:
 3817 172f F30F1EFA 		endbr64
 3818 1733 4889C7   		movq	%rax, %rdi
 3819 1736 E9000000 		jmp	.L236
 3819      00
 3820              	.L246:
 3821 173b F30F1EFA 		endbr64
 3822 173f E9000000 		jmp	.L247
 3822      00
 3823              	.L245:
 3824 1744 F30F1EFA 		endbr64
 3825 1748 4889C5   		movq	%rax, %rbp
 3826 174b E9000000 		jmp	.L231
 3826      00
 3827              	.L244:
 3828 1750 F30F1EFA 		endbr64
 3829 1754 4889C5   		movq	%rax, %rbp
 3830 1757 E9000000 		jmp	.L232
 3830      00
 3831              		.section	.gcc_except_table
 3832              		.align 4
 3833              	.LLSDA1215:
 3834 027c FF       		.byte	0xff
 3835 027d 9B       		.byte	0x9b
 3836 027e 25       		.uleb128 .LLSDATT1215-.LLSDATTD1215
 3837              	.LLSDATTD1215:
 3838 027f 01       		.byte	0x1
 3839 0280 1D       		.uleb128 .LLSDACSE1215-.LLSDACSB1215
 3840              	.LLSDACSB1215:
 3841 0281 9201     		.uleb128 .LEHB83-.LFB1215
 3842 0283 05       		.uleb128 .LEHE83-.LEHB83
 3843 0284 B005     		.uleb128 .L244-.LFB1215
 3844 0286 00       		.uleb128 0
 3845 0287 AC02     		.uleb128 .LEHB84-.LFB1215
 3846 0289 05       		.uleb128 .LEHE84-.LEHB84
 3847 028a A405     		.uleb128 .L245-.LFB1215
 3848 028c 00       		.uleb128 0
 3849 028d 8403     		.uleb128 .LEHB85-.LFB1215
 3850 028f 05       		.uleb128 .LEHE85-.LEHB85
 3851 0290 9B05     		.uleb128 .L246-.LFB1215
 3852 0292 00       		.uleb128 0
 3853 0293 8903     		.uleb128 .LEHB86-.LFB1215
 3854 0295 3D       		.uleb128 .LEHE86-.LEHB86
 3855 0296 8F05     		.uleb128 .L242-.LFB1215
 3856 0298 01       		.uleb128 0x1
 3857 0299 E004     		.uleb128 .LEHB87-.LFB1215
 3858 029b 05       		.uleb128 .LEHE87-.LEHB87
 3859 029c 00       		.uleb128 0
 3860 029d 00       		.uleb128 0
 3861              	.LLSDACSE1215:
 3862 029e 01       		.byte	0x1
 3863 029f 00       		.byte	0
 3864              		.align 4
 3865 02a0 00000000 		.long	0
 3866              	
 3867              	.LLSDATT1215:
 3868              		.text
 3869              		.cfi_endproc
 3870              		.section	.text.unlikely
 3871              		.cfi_startproc
 3872              		.cfi_personality 0x9b,DW.ref.__gxx_personality_v0
 3873              		.cfi_lsda 0x1b,.LLSDAC1215
 3875              	_ZNK12_GLOBAL__N_133TestStreamingTextCopiesCharacters7RunImplEv.cold:
 3876              	.LFSB1215:
 3877              	.L236:
 3878              		.cfi_def_cfa_offset 544
 3879              		.cfi_offset 3, -56
 3880              		.cfi_offset 6, -48
 3881              		.cfi_offset 12, -40
 3882              		.cfi_offset 13, -32
 3883              		.cfi_offset 14, -24
 3884              		.cfi_offset 15, -16
 3885 0498 E8000000 		call	__cxa_begin_catch@PLT
 3885      00
 3886              	.LEHB88:
 3887 049d E8000000 		call	_ZN8UnitTest11CurrentTest7ResultsEv@PLT
 3887      00
 3888 04a2 488B18   		movq	(%rax), %rbx
 3889 04a5 E8000000 		call	_ZN8UnitTest11CurrentTest7DetailsEv@PLT
 3889      00
 3890 04aa 4C8D7424 		leaq	32(%rsp), %r14
 3890      20
 3891 04af 488B30   		movq	(%rax), %rsi
 3892 04b2 BA160000 		movl	$22, %edx
 3892      00
 3893 04b7 4C89F7   		movq	%r14, %rdi
 3894 04ba E8000000 		call	_ZN8UnitTest11TestDetailsC1ERKS0_i@PLT
 3894      00
 3895 04bf 488D1500 		leaq	.LC31(%rip), %rdx
 3895      000000
 3896 04c6 4C89F6   		movq	%r14, %rsi
 3897 04c9 4889DF   		movq	%rbx, %rdi
 3898 04cc E8000000 		call	_ZN8UnitTest11TestResults13OnTestFailureERKNS_11TestDetailsEPKc@PLT
 3898      00
 3899              	.LEHE88:
 3900              	.LEHB89:
 3901 04d1 E8000000 		call	__cxa_end_catch@PLT
 3901      00
 3902              	.LEHE89:
 3903 04d6 E9000000 		jmp	.L237
 3903      00
 3904              	.L241:
 3905 04db F30F1EFA 		endbr64
 3906              	.L247:
 3907 04df 4989C4   		movq	%rax, %r12
 3908 04e2 EB3F     		jmp	.L239
 3909              	.L231:
 3910 04e4 4C89EF   		movq	%r13, %rdi
 3911 04e7 E8000000 		call	_ZNSt7__cxx1115basic_stringbufIcSt11char_traitsIcESaIcEED1Ev
 3911      00
 3912 04ec 488D0500 		leaq	24+_ZTCN8UnitTest15MemoryOutStreamE0_So(%rip), %rax
 3912      000000
 3913 04f3 48894424 		movq	%rax, 64(%rsp)
 3913      40
 3914              	.L232:
 3915 04f8 488D0500 		leaq	16+_ZTVSt9basic_iosIcSt11char_traitsIcEE(%rip), %rax
 3915      000000
 3916 04ff 4C89E7   		movq	%r12, %rdi
 3917 0502 48898424 		movq	%rax, 208(%rsp)
 3917      D0000000 
 3918 050a E8000000 		call	_ZNSt8ios_baseD2Ev@PLT
 3918      00
 3919 050f 4889EF   		movq	%rbp, %rdi
 3920              	.LEHB90:
 3921 0512 E8000000 		call	_Unwind_Resume@PLT
 3921      00
 3922              	.LEHE90:
 3923              	.L243:
 3924 0517 F30F1EFA 		endbr64
 3925 051b 4989C4   		movq	%rax, %r12
 3926 051e E8000000 		call	__cxa_end_catch@PLT
 3926      00
 3927              	.L239:
 3928 0523 4889EF   		movq	%rbp, %rdi
 3929 0526 E8000000 		call	_ZN8UnitTest15MemoryOutStreamD1Ev
 3929      00
 3930 052b 4C89E7   		movq	%r12, %rdi
 3931              	.LEHB91:
 3932 052e E8000000 		call	_Unwind_Resume@PLT
 3932      00
 3933              	.LEHE91:
 3934              		.cfi_endproc
 3935              	.LFE1215:
 3936              		.section	.gcc_except_table
 3937              		.align 4
 3938              	.LLSDAC1215:
 3939 02a4 FF       		.byte	0xff
 3940 02a5 9B       		.byte	0x9b
 3941 02a6 19       		.uleb128 .LLSDATTC1215-.LLSDATTDC1215
 3942              	.LLSDATTDC1215:
 3943 02a7 01       		.byte	0x1
 3944 02a8 11       		.uleb128 .LLSDACSEC1215-.LLSDACSBC1215
 3945              	.LLSDACSBC1215:
 3946 02a9 05       		.uleb128 .LEHB88-.LCOLDB32
 3947 02aa 34       		.uleb128 .LEHE88-.LEHB88
 3948 02ab 7F       		.uleb128 .L243-.LCOLDB32
 3949 02ac 00       		.uleb128 0
 3950 02ad 39       		.uleb128 .LEHB89-.LCOLDB32
 3951 02ae 05       		.uleb128 .LEHE89-.LEHB89
 3952 02af 43       		.uleb128 .L241-.LCOLDB32
 3953 02b0 00       		.uleb128 0
 3954 02b1 7A       		.uleb128 .LEHB90-.LCOLDB32
 3955 02b2 05       		.uleb128 .LEHE90-.LEHB90
 3956 02b3 00       		.uleb128 0
 3957 02b4 00       		.uleb128 0
 3958 02b5 9601     		.uleb128 .LEHB91-.LCOLDB32
 3959 02b7 05       		.uleb128 .LEHE91-.LEHB91
 3960 02b8 00       		.uleb128 0
 3961 02b9 00       		.uleb128 0
 3962              	.LLSDACSEC1215:
 3963 02ba 01       		.byte	0x1
 3964 02bb 00       		.byte	0
 3965              		.align 4
 3966 02bc 00000000 		.long	0
 3967              	
 3968              	.LLSDATTC1215:
 3969              		.section	.text.unlikely
 3970              		.text
 3972              		.section	.text.unlikely
 3974              	.LCOLDE32:
 3975              		.text
 3976              	.LHOTE32:
 3977              		.section	.rodata.str1.1
 3978              	.LC33:
 3979 002d 31323334 		.string	"1234"
 3979      00
 3980              		.section	.rodata.str1.8
 3981 0177 00       		.align 8
 3982              	.LC34:
 3983 0178 73747273 		.string	"strstr(stream.GetText(), \"1234\")"
 3983      74722873 
 3983      74726561 
 3983      6D2E4765 
 3983      74546578 
 3984 0199 00000000 		.align 8
 3984      000000
 3985              	.LC35:
 3986 01a0 556E6861 		.string	"Unhandled exception in CHECK(strstr(stream.GetText(), \"1234\"))"
 3986      6E646C65 
 3986      64206578 
 3986      63657074 
 3986      696F6E20 
 3987              		.section	.text.unlikely
 3988 0533 90       		.align 2
 3989              	.LCOLDB36:
 3990              		.text
 3991              	.LHOTB36:
 3992              		.align 2
 3993 175c 0F1F4000 		.p2align 4
 3995              	_ZNK12_GLOBAL__N_143TestStreamingPointerWritesCorrectCharacters7RunImplEv:
 3996              	.LFB1247:
 3997              		.cfi_startproc
 3998              		.cfi_personality 0x9b,DW.ref.__gxx_personality_v0
 3999              		.cfi_lsda 0x1b,.LLSDA1247
 4000 1760 F30F1EFA 		endbr64
 4001 1764 4157     		pushq	%r15
 4002              		.cfi_def_cfa_offset 16
 4003              		.cfi_offset 15, -16
 4004 1766 4156     		pushq	%r14
 4005              		.cfi_def_cfa_offset 24
 4006              		.cfi_offset 14, -24
 4007 1768 4155     		pushq	%r13
 4008              		.cfi_def_cfa_offset 32
 4009              		.cfi_offset 13, -32
 4010 176a 4154     		pushq	%r12
 4011              		.cfi_def_cfa_offset 40
 4012              		.cfi_offset 12, -40
 4013 176c 55       		pushq	%rbp
 4014              		.cfi_def_cfa_offset 48
 4015              		.cfi_offset 6, -48
 4016 176d 53       		pushq	%rbx
 4017              		.cfi_def_cfa_offset 56
 4018              		.cfi_offset 3, -56
 4019 176e 488D1D00 		leaq	24+_ZTCN8UnitTest15MemoryOutStreamE0_So(%rip), %rbx
 4019      000000
 4020 1775 4881ECF8 		subq	$504, %rsp
 4020      010000
 4021              		.cfi_def_cfa_offset 560
 4022 177c F30F7E0D 		movq	.LC15(%rip), %xmm1
 4022      00000000 
 4023 1784 64488B04 		movq	%fs:40, %rax
 4023      25280000 
 4023      00
 4024 178d 48898424 		movq	%rax, 488(%rsp)
 4024      E8010000 
 4025 1795 31C0     		xorl	%eax, %eax
 4026 1797 4C8DA424 		leaq	224(%rsp), %r12
 4026      E0000000 
 4027 179f 0F160D00 		movhps	.LC16(%rip), %xmm1
 4027      000000
 4028 17a6 4C89E7   		movq	%r12, %rdi
 4029 17a9 0F290C24 		movaps	%xmm1, (%rsp)
 4030 17ad E8000000 		call	_ZNSt8ios_baseC2Ev@PLT
 4030      00
 4031 17b2 31C0     		xorl	%eax, %eax
 4032 17b4 660FEFC0 		pxor	%xmm0, %xmm0
 4033 17b8 31F6     		xorl	%esi, %esi
 4034 17ba 66898424 		movw	%ax, 448(%rsp)
 4034      C0010000 
 4035 17c2 4C89E7   		movq	%r12, %rdi
 4036 17c5 488D4328 		leaq	40(%rbx), %rax
 4037 17c9 48C78424 		movq	$0, 440(%rsp)
 4037      B8010000 
 4037      00000000 
 4038 17d5 48895C24 		movq	%rbx, 80(%rsp)
 4038      50
 4039 17da 48898424 		movq	%rax, 224(%rsp)
 4039      E0000000 
 4040 17e2 0F118424 		movups	%xmm0, 456(%rsp)
 4040      C8010000 
 4041 17ea 0F118424 		movups	%xmm0, 472(%rsp)
 4041      D8010000 
 4042              	.LEHB92:
 4043 17f2 E8000000 		call	_ZNSt9basic_iosIcSt11char_traitsIcEE4initEPSt15basic_streambufIcS1_E@PLT
 4043      00
 4044              	.LEHE92:
 4045 17f7 660F6F0C 		movdqa	(%rsp), %xmm1
 4045      24
 4046 17fc 660FEFC0 		pxor	%xmm0, %xmm0
 4047 1800 4C8DB424 		leaq	144(%rsp), %r14
 4047      90000000 
 4048 1808 4C8D2D00 		leaq	64+_ZTCN8UnitTest15MemoryOutStreamE0_NSt7__cxx1119basic_ostringstreamIcSt11char_traitsIcESaIc
 4048      000000
 4049 180f 4C89F7   		movq	%r14, %rdi
 4050 1812 0F294424 		movaps	%xmm0, 96(%rsp)
 4050      60
 4051 1817 488D6C24 		leaq	80(%rsp), %rbp
 4051      50
 4052 181c 4C8D7C24 		leaq	88(%rsp), %r15
 4052      58
 4053 1821 4C89AC24 		movq	%r13, 224(%rsp)
 4053      E0000000 
 4054 1829 0F294C24 		movaps	%xmm1, 80(%rsp)
 4054      50
 4055 182e 0F294424 		movaps	%xmm0, 112(%rsp)
 4055      70
 4056 1833 0F298424 		movaps	%xmm0, 128(%rsp)
 4056      80000000 
 4057 183b E8000000 		call	_ZNSt6localeC1Ev@PLT
 4057      00
 4058 1840 488D0500 		leaq	16+_ZTVNSt7__cxx1115basic_stringbufIcSt11char_traitsIcESaIcEEE(%rip), %rax
 4058      000000
 4059 1847 C68424B0 		movb	$0, 176(%rsp)
 4059      00000000 
 4060 184f 4C89FE   		movq	%r15, %rsi
 4061 1852 48894424 		movq	%rax, 88(%rsp)
 4061      58
 4062 1857 488D8424 		leaq	176(%rsp), %rax
 4062      B0000000 
 4063 185f 48894424 		movq	%rax, 24(%rsp)
 4063      18
 4064 1864 48898424 		movq	%rax, 160(%rsp)
 4064      A0000000 
 4065 186c 488B4424 		movq	80(%rsp), %rax
 4065      50
 4066 1871 48C78424 		movq	$0, 168(%rsp)
 4066      A8000000 
 4066      00000000 
 4067 187d C7842498 		movl	$16, 152(%rsp)
 4067      00000010 
 4067      000000
 4068 1888 488B78E8 		movq	-24(%rax), %rdi
 4069 188c 4801EF   		addq	%rbp, %rdi
 4070              	.LEHB93:
 4071 188f E8000000 		call	_ZNSt9basic_iosIcSt11char_traitsIcEE4initEPSt15basic_streambufIcS1_E@PLT
 4071      00
 4072              	.LEHE93:
 4073 1894 488D0500 		leaq	24+_ZTVN8UnitTest15MemoryOutStreamE(%rip), %rax
 4073      000000
 4074 189b 4889EF   		movq	%rbp, %rdi
 4075 189e BE341200 		movl	$4660, %esi
 4075      00
 4076 18a3 48C78424 		movq	$0, 200(%rsp)
 4076      C8000000 
 4076      00000000 
 4077 18af 4C8D7828 		leaq	40(%rax), %r15
 4078 18b3 48894424 		movq	%rax, 80(%rsp)
 4078      50
 4079 18b8 488D8424 		leaq	208(%rsp), %rax
 4079      D0000000 
 4080 18c0 4C89BC24 		movq	%r15, 224(%rsp)
 4080      E0000000 
 4081 18c8 48890424 		movq	%rax, (%rsp)
 4082 18cc 48898424 		movq	%rax, 192(%rsp)
 4082      C0000000 
 4083 18d4 C68424D0 		movb	$0, 208(%rsp)
 4083      00000000 
 4084              	.LEHB94:
 4085 18dc E8000000 		call	_ZNSo9_M_insertIPKvEERSoT_@PLT
 4085      00
 4086              	.LEHE94:
 4087 18e1 4889EF   		movq	%rbp, %rdi
 4088              	.LEHB95:
 4089 18e4 E8000000 		call	_ZNK8UnitTest15MemoryOutStream7GetTextEv@PLT
 4089      00
 4090              	.LEHE95:
 4091 18e9 4889C7   		movq	%rax, %rdi
 4092 18ec 488D3500 		leaq	.LC33(%rip), %rsi
 4092      000000
 4093 18f3 E8000000 		call	strstr@PLT
 4093      00
 4094 18f8 4885C0   		testq	%rax, %rax
 4095 18fb 0F84BF00 		je	.L278
 4095      0000
 4096              	.L259:
 4097 1901 F30F7E05 		movq	.LC15(%rip), %xmm0
 4097      00000000 
 4098 1909 488D0500 		leaq	24+_ZTVN8UnitTest15MemoryOutStreamE(%rip), %rax
 4098      000000
 4099 1910 4C89BC24 		movq	%r15, 224(%rsp)
 4099      E0000000 
 4100 1918 48894424 		movq	%rax, 80(%rsp)
 4100      50
 4101 191d 488BBC24 		movq	192(%rsp), %rdi
 4101      C0000000 
 4102 1925 0F160500 		movhps	.LC17(%rip), %xmm0
 4102      000000
 4103 192c 483B3C24 		cmpq	(%rsp), %rdi
 4104 1930 740E     		je	.L260
 4105 1932 0F290424 		movaps	%xmm0, (%rsp)
 4106 1936 E8000000 		call	_ZdlPv@PLT
 4106      00
 4107 193b 660F6F04 		movdqa	(%rsp), %xmm0
 4107      24
 4108              	.L260:
 4109 1940 4C89AC24 		movq	%r13, 224(%rsp)
 4109      E0000000 
 4110 1948 488BBC24 		movq	160(%rsp), %rdi
 4110      A0000000 
 4111 1950 0F294424 		movaps	%xmm0, 80(%rsp)
 4111      50
 4112 1955 483B7C24 		cmpq	24(%rsp), %rdi
 4112      18
 4113 195a 7405     		je	.L261
 4114 195c E8000000 		call	_ZdlPv@PLT
 4114      00
 4115              	.L261:
 4116 1961 488D0500 		leaq	16+_ZTVSt15basic_streambufIcSt11char_traitsIcEE(%rip), %rax
 4116      000000
 4117 1968 4C89F7   		movq	%r14, %rdi
 4118 196b 48894424 		movq	%rax, 88(%rsp)
 4118      58
 4119 1970 E8000000 		call	_ZNSt6localeD1Ev@PLT
 4119      00
 4120 1975 488D0500 		leaq	16+_ZTVSt9basic_iosIcSt11char_traitsIcEE(%rip), %rax
 4120      000000
 4121 197c 4C89E7   		movq	%r12, %rdi
 4122 197f 48895C24 		movq	%rbx, 80(%rsp)
 4122      50
 4123 1984 48898424 		movq	%rax, 224(%rsp)
 4123      E0000000 
 4124              	.LEHB96:
 4125 198c E8000000 		call	_ZNSt8ios_baseD2Ev@PLT
 4125      00
 4126              	.LEHE96:
 4127 1991 488B8424 		movq	488(%rsp), %rax
 4127      E8010000 
 4128 1999 64482B04 		subq	%fs:40, %rax
 4128      25280000 
 4128      00
 4129 19a2 7563     		jne	.L279
 4130 19a4 4881C4F8 		addq	$504, %rsp
 4130      010000
 4131              		.cfi_remember_state
 4132              		.cfi_def_cfa_offset 56
 4133 19ab 5B       		popq	%rbx
 4134              		.cfi_def_cfa_offset 48
 4135 19ac 5D       		popq	%rbp
 4136              		.cfi_def_cfa_offset 40
 4137 19ad 415C     		popq	%r12
 4138              		.cfi_def_cfa_offset 32
 4139 19af 415D     		popq	%r13
 4140              		.cfi_def_cfa_offset 24
 4141 19b1 415E     		popq	%r14
 4142              		.cfi_def_cfa_offset 16
 4143 19b3 415F     		popq	%r15
 4144              		.cfi_def_cfa_offset 8
 4145 19b5 C3       		ret
 4146 19b6 662E0F1F 		.p2align 4,,10
 4146      84000000 
 4146      0000
 4147              		.p2align 3
 4148              	.L278:
 4149              		.cfi_restore_state
 4150              	.LEHB97:
 4151 19c0 E8000000 		call	_ZN8UnitTest11CurrentTest7ResultsEv@PLT
 4151      00
 4152 19c5 488B00   		movq	(%rax), %rax
 4153 19c8 48894424 		movq	%rax, 40(%rsp)
 4153      28
 4154 19cd E8000000 		call	_ZN8UnitTest11CurrentTest7DetailsEv@PLT
 4154      00
 4155 19d2 488D4C24 		leaq	48(%rsp), %rcx
 4155      30
 4156 19d7 488B30   		movq	(%rax), %rsi
 4157 19da BA4F0000 		movl	$79, %edx
 4157      00
 4158 19df 4889CF   		movq	%rcx, %rdi
 4159 19e2 48894C24 		movq	%rcx, 32(%rsp)
 4159      20
 4160 19e7 E8000000 		call	_ZN8UnitTest11TestDetailsC1ERKS0_i@PLT
 4160      00
 4161 19ec 488B7424 		movq	32(%rsp), %rsi
 4161      20
 4162 19f1 488B7C24 		movq	40(%rsp), %rdi
 4162      28
 4163 19f6 488D1500 		leaq	.LC34(%rip), %rdx
 4163      000000
 4164 19fd E8000000 		call	_ZN8UnitTest11TestResults13OnTestFailureERKNS_11TestDetailsEPKc@PLT
 4164      00
 4165              	.LEHE97:
 4166 1a02 E9FAFEFF 		jmp	.L259
 4166      FF
 4167              	.L279:
 4168 1a07 E8000000 		call	__stack_chk_fail@PLT
 4168      00
 4169              	.L270:
 4170 1a0c F30F1EFA 		endbr64
 4171 1a10 4889C5   		movq	%rax, %rbp
 4172 1a13 E9000000 		jmp	.L256
 4172      00
 4173              	.L272:
 4174 1a18 F30F1EFA 		endbr64
 4175 1a1c E9000000 		jmp	.L273
 4175      00
 4176              	.L268:
 4177 1a21 F30F1EFA 		endbr64
 4178 1a25 4889C7   		movq	%rax, %rdi
 4179 1a28 E9000000 		jmp	.L262
 4179      00
 4180              	.L271:
 4181 1a2d F30F1EFA 		endbr64
 4182 1a31 4889C5   		movq	%rax, %rbp
 4183 1a34 E9000000 		jmp	.L255
 4183      00
 4184              		.section	.gcc_except_table
 4185              		.align 4
 4186              	.LLSDA1247:
 4187 02c0 FF       		.byte	0xff
 4188 02c1 9B       		.byte	0x9b
 4189 02c2 2D       		.uleb128 .LLSDATT1247-.LLSDATTD1247
 4190              	.LLSDATTD1247:
 4191 02c3 01       		.byte	0x1
 4192 02c4 23       		.uleb128 .LLSDACSE1247-.LLSDACSB1247
 4193              	.LLSDACSB1247:
 4194 02c5 9201     		.uleb128 .LEHB92-.LFB1247
 4195 02c7 05       		.uleb128 .LEHE92-.LEHB92
 4196 02c8 AC05     		.uleb128 .L270-.LFB1247
 4197 02ca 00       		.uleb128 0
 4198 02cb AF02     		.uleb128 .LEHB93-.LFB1247
 4199 02cd 05       		.uleb128 .LEHE93-.LEHB93
 4200 02ce CD05     		.uleb128 .L271-.LFB1247
 4201 02d0 00       		.uleb128 0
 4202 02d1 FC02     		.uleb128 .LEHB94-.LFB1247
 4203 02d3 05       		.uleb128 .LEHE94-.LEHB94
 4204 02d4 B805     		.uleb128 .L272-.LFB1247
 4205 02d6 00       		.uleb128 0
 4206 02d7 8403     		.uleb128 .LEHB95-.LFB1247
 4207 02d9 05       		.uleb128 .LEHE95-.LEHB95
 4208 02da C105     		.uleb128 .L268-.LFB1247
 4209 02dc 01       		.uleb128 0x1
 4210 02dd AC04     		.uleb128 .LEHB96-.LFB1247
 4211 02df 05       		.uleb128 .LEHE96-.LEHB96
 4212 02e0 00       		.uleb128 0
 4213 02e1 00       		.uleb128 0
 4214 02e2 E004     		.uleb128 .LEHB97-.LFB1247
 4215 02e4 42       		.uleb128 .LEHE97-.LEHB97
 4216 02e5 C105     		.uleb128 .L268-.LFB1247
 4217 02e7 01       		.uleb128 0x1
 4218              	.LLSDACSE1247:
 4219 02e8 01       		.byte	0x1
 4220 02e9 00       		.byte	0
 4221 02ea 0000     		.align 4
 4222 02ec 00000000 		.long	0
 4223              	
 4224              	.LLSDATT1247:
 4225              		.text
 4226              		.cfi_endproc
 4227              		.section	.text.unlikely
 4228              		.cfi_startproc
 4229              		.cfi_personality 0x9b,DW.ref.__gxx_personality_v0
 4230              		.cfi_lsda 0x1b,.LLSDAC1247
 4232              	_ZNK12_GLOBAL__N_143TestStreamingPointerWritesCorrectCharacters7RunImplEv.cold:
 4233              	.LFSB1247:
 4234              	.L255:
 4235              		.cfi_def_cfa_offset 560
 4236              		.cfi_offset 3, -56
 4237              		.cfi_offset 6, -48
 4238              		.cfi_offset 12, -40
 4239              		.cfi_offset 13, -32
 4240              		.cfi_offset 14, -24
 4241              		.cfi_offset 15, -16
 4242 0534 4C89FF   		movq	%r15, %rdi
 4243 0537 E8000000 		call	_ZNSt7__cxx1115basic_stringbufIcSt11char_traitsIcESaIcEED1Ev
 4243      00
 4244 053c 48895C24 		movq	%rbx, 80(%rsp)
 4244      50
 4245              	.L256:
 4246 0541 488D0500 		leaq	16+_ZTVSt9basic_iosIcSt11char_traitsIcEE(%rip), %rax
 4246      000000
 4247 0548 4C89E7   		movq	%r12, %rdi
 4248 054b 48898424 		movq	%rax, 224(%rsp)
 4248      E0000000 
 4249 0553 E8000000 		call	_ZNSt8ios_baseD2Ev@PLT
 4249      00
 4250 0558 4889EF   		movq	%rbp, %rdi
 4251              	.LEHB98:
 4252 055b E8000000 		call	_Unwind_Resume@PLT
 4252      00
 4253              	.LEHE98:
 4254              	.L267:
 4255 0560 F30F1EFA 		endbr64
 4256              	.L273:
 4257 0564 4989C4   		movq	%rax, %r12
 4258              	.L265:
 4259 0567 4889EF   		movq	%rbp, %rdi
 4260 056a E8000000 		call	_ZN8UnitTest15MemoryOutStreamD1Ev
 4260      00
 4261 056f 4C89E7   		movq	%r12, %rdi
 4262              	.LEHB99:
 4263 0572 E8000000 		call	_Unwind_Resume@PLT
 4263      00
 4264              	.LEHE99:
 4265              	.L262:
 4266 0577 E8000000 		call	__cxa_begin_catch@PLT
 4266      00
 4267              	.LEHB100:
 4268 057c E8000000 		call	_ZN8UnitTest11CurrentTest7ResultsEv@PLT
 4268      00
 4269 0581 488B00   		movq	(%rax), %rax
 4270 0584 48894424 		movq	%rax, 40(%rsp)
 4270      28
 4271 0589 E8000000 		call	_ZN8UnitTest11CurrentTest7DetailsEv@PLT
 4271      00
 4272 058e 488B30   		movq	(%rax), %rsi
 4273 0591 488D7C24 		leaq	48(%rsp), %rdi
 4273      30
 4274 0596 BA4F0000 		movl	$79, %edx
 4274      00
 4275 059b 48897C24 		movq	%rdi, 32(%rsp)
 4275      20
 4276 05a0 E8000000 		call	_ZN8UnitTest11TestDetailsC1ERKS0_i@PLT
 4276      00
 4277 05a5 488B7424 		movq	32(%rsp), %rsi
 4277      20
 4278 05aa 488B7C24 		movq	40(%rsp), %rdi
 4278      28
 4279 05af 488D1500 		leaq	.LC35(%rip), %rdx
 4279      000000
 4280 05b6 E8000000 		call	_ZN8UnitTest11TestResults13OnTestFailureERKNS_11TestDetailsEPKc@PLT
 4280      00
 4281              	.LEHE100:
 4282              	.LEHB101:
 4283 05bb E8000000 		call	__cxa_end_catch@PLT
 4283      00
 4284              	.LEHE101:
 4285 05c0 E9000000 		jmp	.L259
 4285      00
 4286              	.L269:
 4287 05c5 F30F1EFA 		endbr64
 4288 05c9 4989C4   		movq	%rax, %r12
 4289 05cc E8000000 		call	__cxa_end_catch@PLT
 4289      00
 4290 05d1 EB94     		jmp	.L265
 4291              		.cfi_endproc
 4292              	.LFE1247:
 4293              		.section	.gcc_except_table
 4294              		.align 4
 4295              	.LLSDAC1247:
 4296 02f0 FF       		.byte	0xff
 4297 02f1 9B       		.byte	0x9b
 4298 02f2 1D       		.uleb128 .LLSDATTC1247-.LLSDATTDC1247
 4299              	.LLSDATTDC1247:
 4300 02f3 01       		.byte	0x1
 4301 02f4 12       		.uleb128 .LLSDACSEC1247-.LLSDACSBC1247
 4302              	.LLSDACSBC1247:
 4303 02f5 27       		.uleb128 .LEHB98-.LCOLDB36
 4304 02f6 05       		.uleb128 .LEHE98-.LEHB98
 4305 02f7 00       		.uleb128 0
 4306 02f8 00       		.uleb128 0
 4307 02f9 3E       		.uleb128 .LEHB99-.LCOLDB36
 4308 02fa 05       		.uleb128 .LEHE99-.LEHB99
 4309 02fb 00       		.uleb128 0
 4310 02fc 00       		.uleb128 0
 4311 02fd 48       		.uleb128 .LEHB100-.LCOLDB36
 4312 02fe 3F       		.uleb128 .LEHE100-.LEHB100
 4313 02ff 9101     		.uleb128 .L269-.LCOLDB36
 4314 0301 00       		.uleb128 0
 4315 0302 8701     		.uleb128 .LEHB101-.LCOLDB36
 4316 0304 05       		.uleb128 .LEHE101-.LEHB101
 4317 0305 2C       		.uleb128 .L267-.LCOLDB36
 4318 0306 00       		.uleb128 0
 4319              	.LLSDACSEC1247:
 4320 0307 01       		.byte	0x1
 4321 0308 00       		.byte	0
 4322 0309 000000   		.align 4
 4323 030c 00000000 		.long	0
 4324              	
 4325              	.LLSDATTC1247:
 4326              		.section	.text.unlikely
 4327              		.text
 4329              		.section	.text.unlikely
 4331              	.LCOLDE36:
 4332              		.text
 4333              	.LHOTE36:
 4334              		.section	.rodata.str1.1
 4335              	.LC38:
 4336 0032 332E3134 		.string	"3.1415"
 4336      313500
 4337              		.section	.rodata.str1.8
 4338 01df 00       		.align 8
 4339              	.LC39:
 4340 01e0 73747273 		.string	"strstr(stream.GetText(), \"3.1415\")"
 4340      74722873 
 4340      74726561 
 4340      6D2E4765 
 4340      74546578 
 4341 0203 00000000 		.align 8
 4341      00
 4342              	.LC40:
 4343 0208 556E6861 		.string	"Unhandled exception in CHECK(strstr(stream.GetText(), \"3.1415\"))"
 4343      6E646C65 
 4343      64206578 
 4343      63657074 
 4343      696F6E20 
 4344              		.section	.text.unlikely
 4345 05d3 90       		.align 2
 4346              	.LCOLDB41:
 4347              		.text
 4348              	.LHOTB41:
 4349 1a39 90       		.align 2
 4350 1a3a 660F1F44 		.p2align 4
 4350      0000
 4352              	_ZNK12_GLOBAL__N_141TestStreamingFloatWritesCorrectCharacters7RunImplEv:
 4353              	.LFB1239:
 4354              		.cfi_startproc
 4355              		.cfi_personality 0x9b,DW.ref.__gxx_personality_v0
 4356              		.cfi_lsda 0x1b,.LLSDA1239
 4357 1a40 F30F1EFA 		endbr64
 4358 1a44 4157     		pushq	%r15
 4359              		.cfi_def_cfa_offset 16
 4360              		.cfi_offset 15, -16
 4361 1a46 4156     		pushq	%r14
 4362              		.cfi_def_cfa_offset 24
 4363              		.cfi_offset 14, -24
 4364 1a48 4155     		pushq	%r13
 4365              		.cfi_def_cfa_offset 32
 4366              		.cfi_offset 13, -32
 4367 1a4a 4154     		pushq	%r12
 4368              		.cfi_def_cfa_offset 40
 4369              		.cfi_offset 12, -40
 4370 1a4c 55       		pushq	%rbp
 4371              		.cfi_def_cfa_offset 48
 4372              		.cfi_offset 6, -48
 4373 1a4d 53       		pushq	%rbx
 4374              		.cfi_def_cfa_offset 56
 4375              		.cfi_offset 3, -56
 4376 1a4e 488D1D00 		leaq	24+_ZTCN8UnitTest15MemoryOutStreamE0_So(%rip), %rbx
 4376      000000
 4377 1a55 4881ECF8 		subq	$504, %rsp
 4377      010000
 4378              		.cfi_def_cfa_offset 560
 4379 1a5c F30F7E0D 		movq	.LC15(%rip), %xmm1
 4379      00000000 
 4380 1a64 64488B04 		movq	%fs:40, %rax
 4380      25280000 
 4380      00
 4381 1a6d 48898424 		movq	%rax, 488(%rsp)
 4381      E8010000 
 4382 1a75 31C0     		xorl	%eax, %eax
 4383 1a77 4C8DA424 		leaq	224(%rsp), %r12
 4383      E0000000 
 4384 1a7f 0F160D00 		movhps	.LC16(%rip), %xmm1
 4384      000000
 4385 1a86 4C89E7   		movq	%r12, %rdi
 4386 1a89 0F290C24 		movaps	%xmm1, (%rsp)
 4387 1a8d E8000000 		call	_ZNSt8ios_baseC2Ev@PLT
 4387      00
 4388 1a92 31C0     		xorl	%eax, %eax
 4389 1a94 660FEFC0 		pxor	%xmm0, %xmm0
 4390 1a98 31F6     		xorl	%esi, %esi
 4391 1a9a 66898424 		movw	%ax, 448(%rsp)
 4391      C0010000 
 4392 1aa2 4C89E7   		movq	%r12, %rdi
 4393 1aa5 488D4328 		leaq	40(%rbx), %rax
 4394 1aa9 48C78424 		movq	$0, 440(%rsp)
 4394      B8010000 
 4394      00000000 
 4395 1ab5 48895C24 		movq	%rbx, 80(%rsp)
 4395      50
 4396 1aba 48898424 		movq	%rax, 224(%rsp)
 4396      E0000000 
 4397 1ac2 0F118424 		movups	%xmm0, 456(%rsp)
 4397      C8010000 
 4398 1aca 0F118424 		movups	%xmm0, 472(%rsp)
 4398      D8010000 
 4399              	.LEHB102:
 4400 1ad2 E8000000 		call	_ZNSt9basic_iosIcSt11char_traitsIcEE4initEPSt15basic_streambufIcS1_E@PLT
 4400      00
 4401              	.LEHE102:
 4402 1ad7 660F6F0C 		movdqa	(%rsp), %xmm1
 4402      24
 4403 1adc 660FEFC0 		pxor	%xmm0, %xmm0
 4404 1ae0 4C8DB424 		leaq	144(%rsp), %r14
 4404      90000000 
 4405 1ae8 4C8D2D00 		leaq	64+_ZTCN8UnitTest15MemoryOutStreamE0_NSt7__cxx1119basic_ostringstreamIcSt11char_traitsIcESaIc
 4405      000000
 4406 1aef 4C89F7   		movq	%r14, %rdi
 4407 1af2 0F294424 		movaps	%xmm0, 96(%rsp)
 4407      60
 4408 1af7 488D6C24 		leaq	80(%rsp), %rbp
 4408      50
 4409 1afc 4C8D7C24 		leaq	88(%rsp), %r15
 4409      58
 4410 1b01 4C89AC24 		movq	%r13, 224(%rsp)
 4410      E0000000 
 4411 1b09 0F294C24 		movaps	%xmm1, 80(%rsp)
 4411      50
 4412 1b0e 0F294424 		movaps	%xmm0, 112(%rsp)
 4412      70
 4413 1b13 0F298424 		movaps	%xmm0, 128(%rsp)
 4413      80000000 
 4414 1b1b E8000000 		call	_ZNSt6localeC1Ev@PLT
 4414      00
 4415 1b20 488D0500 		leaq	16+_ZTVNSt7__cxx1115basic_stringbufIcSt11char_traitsIcESaIcEEE(%rip), %rax
 4415      000000
 4416 1b27 C68424B0 		movb	$0, 176(%rsp)
 4416      00000000 
 4417 1b2f 4C89FE   		movq	%r15, %rsi
 4418 1b32 48894424 		movq	%rax, 88(%rsp)
 4418      58
 4419 1b37 488D8424 		leaq	176(%rsp), %rax
 4419      B0000000 
 4420 1b3f 48894424 		movq	%rax, 24(%rsp)
 4420      18
 4421 1b44 48898424 		movq	%rax, 160(%rsp)
 4421      A0000000 
 4422 1b4c 488B4424 		movq	80(%rsp), %rax
 4422      50
 4423 1b51 48C78424 		movq	$0, 168(%rsp)
 4423      A8000000 
 4423      00000000 
 4424 1b5d C7842498 		movl	$16, 152(%rsp)
 4424      00000010 
 4424      000000
 4425 1b68 488B78E8 		movq	-24(%rax), %rdi
 4426 1b6c 4801EF   		addq	%rbp, %rdi
 4427              	.LEHB103:
 4428 1b6f E8000000 		call	_ZNSt9basic_iosIcSt11char_traitsIcEE4initEPSt15basic_streambufIcS1_E@PLT
 4428      00
 4429              	.LEHE103:
 4430 1b74 488D0500 		leaq	24+_ZTVN8UnitTest15MemoryOutStreamE(%rip), %rax
 4430      000000
 4431 1b7b 4889EF   		movq	%rbp, %rdi
 4432 1b7e F20F1005 		movsd	.LC37(%rip), %xmm0
 4432      00000000 
 4433 1b86 48C78424 		movq	$0, 200(%rsp)
 4433      C8000000 
 4433      00000000 
 4434 1b92 4C8D7828 		leaq	40(%rax), %r15
 4435 1b96 48894424 		movq	%rax, 80(%rsp)
 4435      50
 4436 1b9b 488D8424 		leaq	208(%rsp), %rax
 4436      D0000000 
 4437 1ba3 4C89BC24 		movq	%r15, 224(%rsp)
 4437      E0000000 
 4438 1bab 48890424 		movq	%rax, (%rsp)
 4439 1baf 48898424 		movq	%rax, 192(%rsp)
 4439      C0000000 
 4440 1bb7 C68424D0 		movb	$0, 208(%rsp)
 4440      00000000 
 4441              	.LEHB104:
 4442 1bbf E8000000 		call	_ZNSo9_M_insertIdEERSoT_@PLT
 4442      00
 4443              	.LEHE104:
 4444 1bc4 4889EF   		movq	%rbp, %rdi
 4445              	.LEHB105:
 4446 1bc7 E8000000 		call	_ZNK8UnitTest15MemoryOutStream7GetTextEv@PLT
 4446      00
 4447              	.LEHE105:
 4448 1bcc 4889C7   		movq	%rax, %rdi
 4449 1bcf 488D3500 		leaq	.LC38(%rip), %rsi
 4449      000000
 4450 1bd6 E8000000 		call	strstr@PLT
 4450      00
 4451 1bdb 4885C0   		testq	%rax, %rax
 4452 1bde 0F84BC00 		je	.L305
 4452      0000
 4453              	.L286:
 4454 1be4 F30F7E05 		movq	.LC15(%rip), %xmm0
 4454      00000000 
 4455 1bec 488D0500 		leaq	24+_ZTVN8UnitTest15MemoryOutStreamE(%rip), %rax
 4455      000000
 4456 1bf3 4C89BC24 		movq	%r15, 224(%rsp)
 4456      E0000000 
 4457 1bfb 48894424 		movq	%rax, 80(%rsp)
 4457      50
 4458 1c00 488BBC24 		movq	192(%rsp), %rdi
 4458      C0000000 
 4459 1c08 0F160500 		movhps	.LC17(%rip), %xmm0
 4459      000000
 4460 1c0f 483B3C24 		cmpq	(%rsp), %rdi
 4461 1c13 740E     		je	.L287
 4462 1c15 0F290424 		movaps	%xmm0, (%rsp)
 4463 1c19 E8000000 		call	_ZdlPv@PLT
 4463      00
 4464 1c1e 660F6F04 		movdqa	(%rsp), %xmm0
 4464      24
 4465              	.L287:
 4466 1c23 4C89AC24 		movq	%r13, 224(%rsp)
 4466      E0000000 
 4467 1c2b 488BBC24 		movq	160(%rsp), %rdi
 4467      A0000000 
 4468 1c33 0F294424 		movaps	%xmm0, 80(%rsp)
 4468      50
 4469 1c38 483B7C24 		cmpq	24(%rsp), %rdi
 4469      18
 4470 1c3d 7405     		je	.L288
 4471 1c3f E8000000 		call	_ZdlPv@PLT
 4471      00
 4472              	.L288:
 4473 1c44 488D0500 		leaq	16+_ZTVSt15basic_streambufIcSt11char_traitsIcEE(%rip), %rax
 4473      000000
 4474 1c4b 4C89F7   		movq	%r14, %rdi
 4475 1c4e 48894424 		movq	%rax, 88(%rsp)
 4475      58
 4476 1c53 E8000000 		call	_ZNSt6localeD1Ev@PLT
 4476      00
 4477 1c58 488D0500 		leaq	16+_ZTVSt9basic_iosIcSt11char_traitsIcEE(%rip), %rax
 4477      000000
 4478 1c5f 4C89E7   		movq	%r12, %rdi
 4479 1c62 48895C24 		movq	%rbx, 80(%rsp)
 4479      50
 4480 1c67 48898424 		movq	%rax, 224(%rsp)
 4480      E0000000 
 4481              	.LEHB106:
 4482 1c6f E8000000 		call	_ZNSt8ios_baseD2Ev@PLT
 4482      00
 4483              	.LEHE106:
 4484 1c74 488B8424 		movq	488(%rsp), %rax
 4484      E8010000 
 4485 1c7c 64482B04 		subq	%fs:40, %rax
 4485      25280000 
 4485      00
 4486 1c85 7560     		jne	.L306
 4487 1c87 4881C4F8 		addq	$504, %rsp
 4487      010000
 4488              		.cfi_remember_state
 4489              		.cfi_def_cfa_offset 56
 4490 1c8e 5B       		popq	%rbx
 4491              		.cfi_def_cfa_offset 48
 4492 1c8f 5D       		popq	%rbp
 4493              		.cfi_def_cfa_offset 40
 4494 1c90 415C     		popq	%r12
 4495              		.cfi_def_cfa_offset 32
 4496 1c92 415D     		popq	%r13
 4497              		.cfi_def_cfa_offset 24
 4498 1c94 415E     		popq	%r14
 4499              		.cfi_def_cfa_offset 16
 4500 1c96 415F     		popq	%r15
 4501              		.cfi_def_cfa_offset 8
 4502 1c98 C3       		ret
 4503 1c99 0F1F8000 		.p2align 4,,10
 4503      000000
 4504              		.p2align 3
 4505              	.L305:
 4506              		.cfi_restore_state
 4507              	.LEHB107:
 4508 1ca0 E8000000 		call	_ZN8UnitTest11CurrentTest7ResultsEv@PLT
 4508      00
 4509 1ca5 488B00   		movq	(%rax), %rax
 4510 1ca8 48894424 		movq	%rax, 40(%rsp)
 4510      28
 4511 1cad E8000000 		call	_ZN8UnitTest11CurrentTest7DetailsEv@PLT
 4511      00
 4512 1cb2 488D4C24 		leaq	48(%rsp), %rcx
 4512      30
 4513 1cb7 488B30   		movq	(%rax), %rsi
 4514 1cba BA400000 		movl	$64, %edx
 4514      00
 4515 1cbf 4889CF   		movq	%rcx, %rdi
 4516 1cc2 48894C24 		movq	%rcx, 32(%rsp)
 4516      20
 4517 1cc7 E8000000 		call	_ZN8UnitTest11TestDetailsC1ERKS0_i@PLT
 4517      00
 4518 1ccc 488B7424 		movq	32(%rsp), %rsi
 4518      20
 4519 1cd1 488B7C24 		movq	40(%rsp), %rdi
 4519      28
 4520 1cd6 488D1500 		leaq	.LC39(%rip), %rdx
 4520      000000
 4521 1cdd E8000000 		call	_ZN8UnitTest11TestResults13OnTestFailureERKNS_11TestDetailsEPKc@PLT
 4521      00
 4522              	.LEHE107:
 4523 1ce2 E9FDFEFF 		jmp	.L286
 4523      FF
 4524              	.L306:
 4525 1ce7 E8000000 		call	__stack_chk_fail@PLT
 4525      00
 4526              	.L297:
 4527 1cec F30F1EFA 		endbr64
 4528 1cf0 4889C5   		movq	%rax, %rbp
 4529 1cf3 E9000000 		jmp	.L283
 4529      00
 4530              	.L299:
 4531 1cf8 F30F1EFA 		endbr64
 4532 1cfc E9000000 		jmp	.L300
 4532      00
 4533              	.L295:
 4534 1d01 F30F1EFA 		endbr64
 4535 1d05 4889C7   		movq	%rax, %rdi
 4536 1d08 E9000000 		jmp	.L289
 4536      00
 4537              	.L298:
 4538 1d0d F30F1EFA 		endbr64
 4539 1d11 4889C5   		movq	%rax, %rbp
 4540 1d14 E9000000 		jmp	.L282
 4540      00
 4541              		.section	.gcc_except_table
 4542              		.align 4
 4543              	.LLSDA1239:
 4544 0310 FF       		.byte	0xff
 4545 0311 9B       		.byte	0x9b
 4546 0312 2D       		.uleb128 .LLSDATT1239-.LLSDATTD1239
 4547              	.LLSDATTD1239:
 4548 0313 01       		.byte	0x1
 4549 0314 23       		.uleb128 .LLSDACSE1239-.LLSDACSB1239
 4550              	.LLSDACSB1239:
 4551 0315 9201     		.uleb128 .LEHB102-.LFB1239
 4552 0317 05       		.uleb128 .LEHE102-.LEHB102
 4553 0318 AC05     		.uleb128 .L297-.LFB1239
 4554 031a 00       		.uleb128 0
 4555 031b AF02     		.uleb128 .LEHB103-.LFB1239
 4556 031d 05       		.uleb128 .LEHE103-.LEHB103
 4557 031e CD05     		.uleb128 .L298-.LFB1239
 4558 0320 00       		.uleb128 0
 4559 0321 FF02     		.uleb128 .LEHB104-.LFB1239
 4560 0323 05       		.uleb128 .LEHE104-.LEHB104
 4561 0324 B805     		.uleb128 .L299-.LFB1239
 4562 0326 00       		.uleb128 0
 4563 0327 8703     		.uleb128 .LEHB105-.LFB1239
 4564 0329 05       		.uleb128 .LEHE105-.LEHB105
 4565 032a C105     		.uleb128 .L295-.LFB1239
 4566 032c 01       		.uleb128 0x1
 4567 032d AF04     		.uleb128 .LEHB106-.LFB1239
 4568 032f 05       		.uleb128 .LEHE106-.LEHB106
 4569 0330 00       		.uleb128 0
 4570 0331 00       		.uleb128 0
 4571 0332 E004     		.uleb128 .LEHB107-.LFB1239
 4572 0334 42       		.uleb128 .LEHE107-.LEHB107
 4573 0335 C105     		.uleb128 .L295-.LFB1239
 4574 0337 01       		.uleb128 0x1
 4575              	.LLSDACSE1239:
 4576 0338 01       		.byte	0x1
 4577 0339 00       		.byte	0
 4578 033a 0000     		.align 4
 4579 033c 00000000 		.long	0
 4580              	
 4581              	.LLSDATT1239:
 4582              		.text
 4583              		.cfi_endproc
 4584              		.section	.text.unlikely
 4585              		.cfi_startproc
 4586              		.cfi_personality 0x9b,DW.ref.__gxx_personality_v0
 4587              		.cfi_lsda 0x1b,.LLSDAC1239
 4589              	_ZNK12_GLOBAL__N_141TestStreamingFloatWritesCorrectCharacters7RunImplEv.cold:
 4590              	.LFSB1239:
 4591              	.L282:
 4592              		.cfi_def_cfa_offset 560
 4593              		.cfi_offset 3, -56
 4594              		.cfi_offset 6, -48
 4595              		.cfi_offset 12, -40
 4596              		.cfi_offset 13, -32
 4597              		.cfi_offset 14, -24
 4598              		.cfi_offset 15, -16
 4599 05d4 4C89FF   		movq	%r15, %rdi
 4600 05d7 E8000000 		call	_ZNSt7__cxx1115basic_stringbufIcSt11char_traitsIcESaIcEED1Ev
 4600      00
 4601 05dc 48895C24 		movq	%rbx, 80(%rsp)
 4601      50
 4602              	.L283:
 4603 05e1 488D0500 		leaq	16+_ZTVSt9basic_iosIcSt11char_traitsIcEE(%rip), %rax
 4603      000000
 4604 05e8 4C89E7   		movq	%r12, %rdi
 4605 05eb 48898424 		movq	%rax, 224(%rsp)
 4605      E0000000 
 4606 05f3 E8000000 		call	_ZNSt8ios_baseD2Ev@PLT
 4606      00
 4607 05f8 4889EF   		movq	%rbp, %rdi
 4608              	.LEHB108:
 4609 05fb E8000000 		call	_Unwind_Resume@PLT
 4609      00
 4610              	.LEHE108:
 4611              	.L294:
 4612 0600 F30F1EFA 		endbr64
 4613              	.L300:
 4614 0604 4989C4   		movq	%rax, %r12
 4615              	.L292:
 4616 0607 4889EF   		movq	%rbp, %rdi
 4617 060a E8000000 		call	_ZN8UnitTest15MemoryOutStreamD1Ev
 4617      00
 4618 060f 4C89E7   		movq	%r12, %rdi
 4619              	.LEHB109:
 4620 0612 E8000000 		call	_Unwind_Resume@PLT
 4620      00
 4621              	.LEHE109:
 4622              	.L289:
 4623 0617 E8000000 		call	__cxa_begin_catch@PLT
 4623      00
 4624              	.LEHB110:
 4625 061c E8000000 		call	_ZN8UnitTest11CurrentTest7ResultsEv@PLT
 4625      00
 4626 0621 488B00   		movq	(%rax), %rax
 4627 0624 48894424 		movq	%rax, 40(%rsp)
 4627      28
 4628 0629 E8000000 		call	_ZN8UnitTest11CurrentTest7DetailsEv@PLT
 4628      00
 4629 062e 488B30   		movq	(%rax), %rsi
 4630 0631 488D7C24 		leaq	48(%rsp), %rdi
 4630      30
 4631 0636 BA400000 		movl	$64, %edx
 4631      00
 4632 063b 48897C24 		movq	%rdi, 32(%rsp)
 4632      20
 4633 0640 E8000000 		call	_ZN8UnitTest11TestDetailsC1ERKS0_i@PLT
 4633      00
 4634 0645 488B7424 		movq	32(%rsp), %rsi
 4634      20
 4635 064a 488B7C24 		movq	40(%rsp), %rdi
 4635      28
 4636 064f 488D1500 		leaq	.LC40(%rip), %rdx
 4636      000000
 4637 0656 E8000000 		call	_ZN8UnitTest11TestResults13OnTestFailureERKNS_11TestDetailsEPKc@PLT
 4637      00
 4638              	.LEHE110:
 4639              	.LEHB111:
 4640 065b E8000000 		call	__cxa_end_catch@PLT
 4640      00
 4641              	.LEHE111:
 4642 0660 E9000000 		jmp	.L286
 4642      00
 4643              	.L296:
 4644 0665 F30F1EFA 		endbr64
 4645 0669 4989C4   		movq	%rax, %r12
 4646 066c E8000000 		call	__cxa_end_catch@PLT
 4646      00
 4647 0671 EB94     		jmp	.L292
 4648              		.cfi_endproc
 4649              	.LFE1239:
 4650              		.section	.gcc_except_table
 4651              		.align 4
 4652              	.LLSDAC1239:
 4653 0340 FF       		.byte	0xff
 4654 0341 9B       		.byte	0x9b
 4655 0342 1D       		.uleb128 .LLSDATTC1239-.LLSDATTDC1239
 4656              	.LLSDATTDC1239:
 4657 0343 01       		.byte	0x1
 4658 0344 12       		.uleb128 .LLSDACSEC1239-.LLSDACSBC1239
 4659              	.LLSDACSBC1239:
 4660 0345 27       		.uleb128 .LEHB108-.LCOLDB41
 4661 0346 05       		.uleb128 .LEHE108-.LEHB108
 4662 0347 00       		.uleb128 0
 4663 0348 00       		.uleb128 0
 4664 0349 3E       		.uleb128 .LEHB109-.LCOLDB41
 4665 034a 05       		.uleb128 .LEHE109-.LEHB109
 4666 034b 00       		.uleb128 0
 4667 034c 00       		.uleb128 0
 4668 034d 48       		.uleb128 .LEHB110-.LCOLDB41
 4669 034e 3F       		.uleb128 .LEHE110-.LEHB110
 4670 034f 9101     		.uleb128 .L296-.LCOLDB41
 4671 0351 00       		.uleb128 0
 4672 0352 8701     		.uleb128 .LEHB111-.LCOLDB41
 4673 0354 05       		.uleb128 .LEHE111-.LEHB111
 4674 0355 2C       		.uleb128 .L294-.LCOLDB41
 4675 0356 00       		.uleb128 0
 4676              	.LLSDACSEC1239:
 4677 0357 01       		.byte	0x1
 4678 0358 00       		.byte	0
 4679 0359 000000   		.align 4
 4680 035c 00000000 		.long	0
 4681              	
 4682              	.LLSDATTC1239:
 4683              		.section	.text.unlikely
 4684              		.text
 4686              		.section	.text.unlikely
 4688              	.LCOLDE41:
 4689              		.text
 4690              	.LHOTE41:
 4691              		.section	.text.unlikely
 4692 0673 90       		.align 2
 4693              	.LCOLDB43:
 4694              		.text
 4695              	.LHOTB43:
 4696 1d19 90       		.align 2
 4697 1d1a 660F1F44 		.p2align 4
 4697      0000
 4699              	_ZNK12_GLOBAL__N_142TestStreamingDoubleWritesCorrectCharacters7RunImplEv:
 4700              	.LFB1243:
 4701              		.cfi_startproc
 4702              		.cfi_personality 0x9b,DW.ref.__gxx_personality_v0
 4703              		.cfi_lsda 0x1b,.LLSDA1243
 4704 1d20 F30F1EFA 		endbr64
 4705 1d24 4157     		pushq	%r15
 4706              		.cfi_def_cfa_offset 16
 4707              		.cfi_offset 15, -16
 4708 1d26 4156     		pushq	%r14
 4709              		.cfi_def_cfa_offset 24
 4710              		.cfi_offset 14, -24
 4711 1d28 4155     		pushq	%r13
 4712              		.cfi_def_cfa_offset 32
 4713              		.cfi_offset 13, -32
 4714 1d2a 4154     		pushq	%r12
 4715              		.cfi_def_cfa_offset 40
 4716              		.cfi_offset 12, -40
 4717 1d2c 55       		pushq	%rbp
 4718              		.cfi_def_cfa_offset 48
 4719              		.cfi_offset 6, -48
 4720 1d2d 53       		pushq	%rbx
 4721              		.cfi_def_cfa_offset 56
 4722              		.cfi_offset 3, -56
 4723 1d2e 488D1D00 		leaq	24+_ZTCN8UnitTest15MemoryOutStreamE0_So(%rip), %rbx
 4723      000000
 4724 1d35 4881ECF8 		subq	$504, %rsp
 4724      010000
 4725              		.cfi_def_cfa_offset 560
 4726 1d3c F30F7E0D 		movq	.LC15(%rip), %xmm1
 4726      00000000 
 4727 1d44 64488B04 		movq	%fs:40, %rax
 4727      25280000 
 4727      00
 4728 1d4d 48898424 		movq	%rax, 488(%rsp)
 4728      E8010000 
 4729 1d55 31C0     		xorl	%eax, %eax
 4730 1d57 4C8DA424 		leaq	224(%rsp), %r12
 4730      E0000000 
 4731 1d5f 0F160D00 		movhps	.LC16(%rip), %xmm1
 4731      000000
 4732 1d66 4C89E7   		movq	%r12, %rdi
 4733 1d69 0F290C24 		movaps	%xmm1, (%rsp)
 4734 1d6d E8000000 		call	_ZNSt8ios_baseC2Ev@PLT
 4734      00
 4735 1d72 31C0     		xorl	%eax, %eax
 4736 1d74 660FEFC0 		pxor	%xmm0, %xmm0
 4737 1d78 31F6     		xorl	%esi, %esi
 4738 1d7a 66898424 		movw	%ax, 448(%rsp)
 4738      C0010000 
 4739 1d82 4C89E7   		movq	%r12, %rdi
 4740 1d85 488D4328 		leaq	40(%rbx), %rax
 4741 1d89 48C78424 		movq	$0, 440(%rsp)
 4741      B8010000 
 4741      00000000 
 4742 1d95 48895C24 		movq	%rbx, 80(%rsp)
 4742      50
 4743 1d9a 48898424 		movq	%rax, 224(%rsp)
 4743      E0000000 
 4744 1da2 0F118424 		movups	%xmm0, 456(%rsp)
 4744      C8010000 
 4745 1daa 0F118424 		movups	%xmm0, 472(%rsp)
 4745      D8010000 
 4746              	.LEHB112:
 4747 1db2 E8000000 		call	_ZNSt9basic_iosIcSt11char_traitsIcEE4initEPSt15basic_streambufIcS1_E@PLT
 4747      00
 4748              	.LEHE112:
 4749 1db7 660F6F0C 		movdqa	(%rsp), %xmm1
 4749      24
 4750 1dbc 660FEFC0 		pxor	%xmm0, %xmm0
 4751 1dc0 4C8DB424 		leaq	144(%rsp), %r14
 4751      90000000 
 4752 1dc8 4C8D2D00 		leaq	64+_ZTCN8UnitTest15MemoryOutStreamE0_NSt7__cxx1119basic_ostringstreamIcSt11char_traitsIcESaIc
 4752      000000
 4753 1dcf 4C89F7   		movq	%r14, %rdi
 4754 1dd2 0F294424 		movaps	%xmm0, 96(%rsp)
 4754      60
 4755 1dd7 488D6C24 		leaq	80(%rsp), %rbp
 4755      50
 4756 1ddc 4C8D7C24 		leaq	88(%rsp), %r15
 4756      58
 4757 1de1 4C89AC24 		movq	%r13, 224(%rsp)
 4757      E0000000 
 4758 1de9 0F294C24 		movaps	%xmm1, 80(%rsp)
 4758      50
 4759 1dee 0F294424 		movaps	%xmm0, 112(%rsp)
 4759      70
 4760 1df3 0F298424 		movaps	%xmm0, 128(%rsp)
 4760      80000000 
 4761 1dfb E8000000 		call	_ZNSt6localeC1Ev@PLT
 4761      00
 4762 1e00 488D0500 		leaq	16+_ZTVNSt7__cxx1115basic_stringbufIcSt11char_traitsIcESaIcEEE(%rip), %rax
 4762      000000
 4763 1e07 C68424B0 		movb	$0, 176(%rsp)
 4763      00000000 
 4764 1e0f 4C89FE   		movq	%r15, %rsi
 4765 1e12 48894424 		movq	%rax, 88(%rsp)
 4765      58
 4766 1e17 488D8424 		leaq	176(%rsp), %rax
 4766      B0000000 
 4767 1e1f 48894424 		movq	%rax, 24(%rsp)
 4767      18
 4768 1e24 48898424 		movq	%rax, 160(%rsp)
 4768      A0000000 
 4769 1e2c 488B4424 		movq	80(%rsp), %rax
 4769      50
 4770 1e31 48C78424 		movq	$0, 168(%rsp)
 4770      A8000000 
 4770      00000000 
 4771 1e3d C7842498 		movl	$16, 152(%rsp)
 4771      00000010 
 4771      000000
 4772 1e48 488B78E8 		movq	-24(%rax), %rdi
 4773 1e4c 4801EF   		addq	%rbp, %rdi
 4774              	.LEHB113:
 4775 1e4f E8000000 		call	_ZNSt9basic_iosIcSt11char_traitsIcEE4initEPSt15basic_streambufIcS1_E@PLT
 4775      00
 4776              	.LEHE113:
 4777 1e54 488D0500 		leaq	24+_ZTVN8UnitTest15MemoryOutStreamE(%rip), %rax
 4777      000000
 4778 1e5b 4889EF   		movq	%rbp, %rdi
 4779 1e5e F20F1005 		movsd	.LC42(%rip), %xmm0
 4779      00000000 
 4780 1e66 48C78424 		movq	$0, 200(%rsp)
 4780      C8000000 
 4780      00000000 
 4781 1e72 4C8D7828 		leaq	40(%rax), %r15
 4782 1e76 48894424 		movq	%rax, 80(%rsp)
 4782      50
 4783 1e7b 488D8424 		leaq	208(%rsp), %rax
 4783      D0000000 
 4784 1e83 4C89BC24 		movq	%r15, 224(%rsp)
 4784      E0000000 
 4785 1e8b 48890424 		movq	%rax, (%rsp)
 4786 1e8f 48898424 		movq	%rax, 192(%rsp)
 4786      C0000000 
 4787 1e97 C68424D0 		movb	$0, 208(%rsp)
 4787      00000000 
 4788              	.LEHB114:
 4789 1e9f E8000000 		call	_ZNSo9_M_insertIdEERSoT_@PLT
 4789      00
 4790              	.LEHE114:
 4791 1ea4 4889EF   		movq	%rbp, %rdi
 4792              	.LEHB115:
 4793 1ea7 E8000000 		call	_ZNK8UnitTest15MemoryOutStream7GetTextEv@PLT
 4793      00
 4794              	.LEHE115:
 4795 1eac 4889C7   		movq	%rax, %rdi
 4796 1eaf 488D3500 		leaq	.LC38(%rip), %rsi
 4796      000000
 4797 1eb6 E8000000 		call	strstr@PLT
 4797      00
 4798 1ebb 4885C0   		testq	%rax, %rax
 4799 1ebe 0F84BC00 		je	.L332
 4799      0000
 4800              	.L313:
 4801 1ec4 F30F7E05 		movq	.LC15(%rip), %xmm0
 4801      00000000 
 4802 1ecc 488D0500 		leaq	24+_ZTVN8UnitTest15MemoryOutStreamE(%rip), %rax
 4802      000000
 4803 1ed3 4C89BC24 		movq	%r15, 224(%rsp)
 4803      E0000000 
 4804 1edb 48894424 		movq	%rax, 80(%rsp)
 4804      50
 4805 1ee0 488BBC24 		movq	192(%rsp), %rdi
 4805      C0000000 
 4806 1ee8 0F160500 		movhps	.LC17(%rip), %xmm0
 4806      000000
 4807 1eef 483B3C24 		cmpq	(%rsp), %rdi
 4808 1ef3 740E     		je	.L314
 4809 1ef5 0F290424 		movaps	%xmm0, (%rsp)
 4810 1ef9 E8000000 		call	_ZdlPv@PLT
 4810      00
 4811 1efe 660F6F04 		movdqa	(%rsp), %xmm0
 4811      24
 4812              	.L314:
 4813 1f03 4C89AC24 		movq	%r13, 224(%rsp)
 4813      E0000000 
 4814 1f0b 488BBC24 		movq	160(%rsp), %rdi
 4814      A0000000 
 4815 1f13 0F294424 		movaps	%xmm0, 80(%rsp)
 4815      50
 4816 1f18 483B7C24 		cmpq	24(%rsp), %rdi
 4816      18
 4817 1f1d 7405     		je	.L315
 4818 1f1f E8000000 		call	_ZdlPv@PLT
 4818      00
 4819              	.L315:
 4820 1f24 488D0500 		leaq	16+_ZTVSt15basic_streambufIcSt11char_traitsIcEE(%rip), %rax
 4820      000000
 4821 1f2b 4C89F7   		movq	%r14, %rdi
 4822 1f2e 48894424 		movq	%rax, 88(%rsp)
 4822      58
 4823 1f33 E8000000 		call	_ZNSt6localeD1Ev@PLT
 4823      00
 4824 1f38 488D0500 		leaq	16+_ZTVSt9basic_iosIcSt11char_traitsIcEE(%rip), %rax
 4824      000000
 4825 1f3f 4C89E7   		movq	%r12, %rdi
 4826 1f42 48895C24 		movq	%rbx, 80(%rsp)
 4826      50
 4827 1f47 48898424 		movq	%rax, 224(%rsp)
 4827      E0000000 
 4828              	.LEHB116:
 4829 1f4f E8000000 		call	_ZNSt8ios_baseD2Ev@PLT
 4829      00
 4830              	.LEHE116:
 4831 1f54 488B8424 		movq	488(%rsp), %rax
 4831      E8010000 
 4832 1f5c 64482B04 		subq	%fs:40, %rax
 4832      25280000 
 4832      00
 4833 1f65 7560     		jne	.L333
 4834 1f67 4881C4F8 		addq	$504, %rsp
 4834      010000
 4835              		.cfi_remember_state
 4836              		.cfi_def_cfa_offset 56
 4837 1f6e 5B       		popq	%rbx
 4838              		.cfi_def_cfa_offset 48
 4839 1f6f 5D       		popq	%rbp
 4840              		.cfi_def_cfa_offset 40
 4841 1f70 415C     		popq	%r12
 4842              		.cfi_def_cfa_offset 32
 4843 1f72 415D     		popq	%r13
 4844              		.cfi_def_cfa_offset 24
 4845 1f74 415E     		popq	%r14
 4846              		.cfi_def_cfa_offset 16
 4847 1f76 415F     		popq	%r15
 4848              		.cfi_def_cfa_offset 8
 4849 1f78 C3       		ret
 4850 1f79 0F1F8000 		.p2align 4,,10
 4850      000000
 4851              		.p2align 3
 4852              	.L332:
 4853              		.cfi_restore_state
 4854              	.LEHB117:
 4855 1f80 E8000000 		call	_ZN8UnitTest11CurrentTest7ResultsEv@PLT
 4855      00
 4856 1f85 488B00   		movq	(%rax), %rax
 4857 1f88 48894424 		movq	%rax, 40(%rsp)
 4857      28
 4858 1f8d E8000000 		call	_ZN8UnitTest11CurrentTest7DetailsEv@PLT
 4858      00
 4859 1f92 488D4C24 		leaq	48(%rsp), %rcx
 4859      30
 4860 1f97 488B30   		movq	(%rax), %rsi
 4861 1f9a BA470000 		movl	$71, %edx
 4861      00
 4862 1f9f 4889CF   		movq	%rcx, %rdi
 4863 1fa2 48894C24 		movq	%rcx, 32(%rsp)
 4863      20
 4864 1fa7 E8000000 		call	_ZN8UnitTest11TestDetailsC1ERKS0_i@PLT
 4864      00
 4865 1fac 488B7424 		movq	32(%rsp), %rsi
 4865      20
 4866 1fb1 488B7C24 		movq	40(%rsp), %rdi
 4866      28
 4867 1fb6 488D1500 		leaq	.LC39(%rip), %rdx
 4867      000000
 4868 1fbd E8000000 		call	_ZN8UnitTest11TestResults13OnTestFailureERKNS_11TestDetailsEPKc@PLT
 4868      00
 4869              	.LEHE117:
 4870 1fc2 E9FDFEFF 		jmp	.L313
 4870      FF
 4871              	.L333:
 4872 1fc7 E8000000 		call	__stack_chk_fail@PLT
 4872      00
 4873              	.L324:
 4874 1fcc F30F1EFA 		endbr64
 4875 1fd0 4889C5   		movq	%rax, %rbp
 4876 1fd3 E9000000 		jmp	.L310
 4876      00
 4877              	.L326:
 4878 1fd8 F30F1EFA 		endbr64
 4879 1fdc E9000000 		jmp	.L327
 4879      00
 4880              	.L322:
 4881 1fe1 F30F1EFA 		endbr64
 4882 1fe5 4889C7   		movq	%rax, %rdi
 4883 1fe8 E9000000 		jmp	.L316
 4883      00
 4884              	.L325:
 4885 1fed F30F1EFA 		endbr64
 4886 1ff1 4889C5   		movq	%rax, %rbp
 4887 1ff4 E9000000 		jmp	.L309
 4887      00
 4888              		.section	.gcc_except_table
 4889              		.align 4
 4890              	.LLSDA1243:
 4891 0360 FF       		.byte	0xff
 4892 0361 9B       		.byte	0x9b
 4893 0362 2D       		.uleb128 .LLSDATT1243-.LLSDATTD1243
 4894              	.LLSDATTD1243:
 4895 0363 01       		.byte	0x1
 4896 0364 23       		.uleb128 .LLSDACSE1243-.LLSDACSB1243
 4897              	.LLSDACSB1243:
 4898 0365 9201     		.uleb128 .LEHB112-.LFB1243
 4899 0367 05       		.uleb128 .LEHE112-.LEHB112
 4900 0368 AC05     		.uleb128 .L324-.LFB1243
 4901 036a 00       		.uleb128 0
 4902 036b AF02     		.uleb128 .LEHB113-.LFB1243
 4903 036d 05       		.uleb128 .LEHE113-.LEHB113
 4904 036e CD05     		.uleb128 .L325-.LFB1243
 4905 0370 00       		.uleb128 0
 4906 0371 FF02     		.uleb128 .LEHB114-.LFB1243
 4907 0373 05       		.uleb128 .LEHE114-.LEHB114
 4908 0374 B805     		.uleb128 .L326-.LFB1243
 4909 0376 00       		.uleb128 0
 4910 0377 8703     		.uleb128 .LEHB115-.LFB1243
 4911 0379 05       		.uleb128 .LEHE115-.LEHB115
 4912 037a C105     		.uleb128 .L322-.LFB1243
 4913 037c 01       		.uleb128 0x1
 4914 037d AF04     		.uleb128 .LEHB116-.LFB1243
 4915 037f 05       		.uleb128 .LEHE116-.LEHB116
 4916 0380 00       		.uleb128 0
 4917 0381 00       		.uleb128 0
 4918 0382 E004     		.uleb128 .LEHB117-.LFB1243
 4919 0384 42       		.uleb128 .LEHE117-.LEHB117
 4920 0385 C105     		.uleb128 .L322-.LFB1243
 4921 0387 01       		.uleb128 0x1
 4922              	.LLSDACSE1243:
 4923 0388 01       		.byte	0x1
 4924 0389 00       		.byte	0
 4925 038a 0000     		.align 4
 4926 038c 00000000 		.long	0
 4927              	
 4928              	.LLSDATT1243:
 4929              		.text
 4930              		.cfi_endproc
 4931              		.section	.text.unlikely
 4932              		.cfi_startproc
 4933              		.cfi_personality 0x9b,DW.ref.__gxx_personality_v0
 4934              		.cfi_lsda 0x1b,.LLSDAC1243
 4936              	_ZNK12_GLOBAL__N_142TestStreamingDoubleWritesCorrectCharacters7RunImplEv.cold:
 4937              	.LFSB1243:
 4938              	.L309:
 4939              		.cfi_def_cfa_offset 560
 4940              		.cfi_offset 3, -56
 4941              		.cfi_offset 6, -48
 4942              		.cfi_offset 12, -40
 4943              		.cfi_offset 13, -32
 4944              		.cfi_offset 14, -24
 4945              		.cfi_offset 15, -16
 4946 0674 4C89FF   		movq	%r15, %rdi
 4947 0677 E8000000 		call	_ZNSt7__cxx1115basic_stringbufIcSt11char_traitsIcESaIcEED1Ev
 4947      00
 4948 067c 48895C24 		movq	%rbx, 80(%rsp)
 4948      50
 4949              	.L310:
 4950 0681 488D0500 		leaq	16+_ZTVSt9basic_iosIcSt11char_traitsIcEE(%rip), %rax
 4950      000000
 4951 0688 4C89E7   		movq	%r12, %rdi
 4952 068b 48898424 		movq	%rax, 224(%rsp)
 4952      E0000000 
 4953 0693 E8000000 		call	_ZNSt8ios_baseD2Ev@PLT
 4953      00
 4954 0698 4889EF   		movq	%rbp, %rdi
 4955              	.LEHB118:
 4956 069b E8000000 		call	_Unwind_Resume@PLT
 4956      00
 4957              	.LEHE118:
 4958              	.L321:
 4959 06a0 F30F1EFA 		endbr64
 4960              	.L327:
 4961 06a4 4989C4   		movq	%rax, %r12
 4962              	.L319:
 4963 06a7 4889EF   		movq	%rbp, %rdi
 4964 06aa E8000000 		call	_ZN8UnitTest15MemoryOutStreamD1Ev
 4964      00
 4965 06af 4C89E7   		movq	%r12, %rdi
 4966              	.LEHB119:
 4967 06b2 E8000000 		call	_Unwind_Resume@PLT
 4967      00
 4968              	.LEHE119:
 4969              	.L316:
 4970 06b7 E8000000 		call	__cxa_begin_catch@PLT
 4970      00
 4971              	.LEHB120:
 4972 06bc E8000000 		call	_ZN8UnitTest11CurrentTest7ResultsEv@PLT
 4972      00
 4973 06c1 488B00   		movq	(%rax), %rax
 4974 06c4 48894424 		movq	%rax, 40(%rsp)
 4974      28
 4975 06c9 E8000000 		call	_ZN8UnitTest11CurrentTest7DetailsEv@PLT
 4975      00
 4976 06ce 488B30   		movq	(%rax), %rsi
 4977 06d1 488D7C24 		leaq	48(%rsp), %rdi
 4977      30
 4978 06d6 BA470000 		movl	$71, %edx
 4978      00
 4979 06db 48897C24 		movq	%rdi, 32(%rsp)
 4979      20
 4980 06e0 E8000000 		call	_ZN8UnitTest11TestDetailsC1ERKS0_i@PLT
 4980      00
 4981 06e5 488B7424 		movq	32(%rsp), %rsi
 4981      20
 4982 06ea 488B7C24 		movq	40(%rsp), %rdi
 4982      28
 4983 06ef 488D1500 		leaq	.LC40(%rip), %rdx
 4983      000000
 4984 06f6 E8000000 		call	_ZN8UnitTest11TestResults13OnTestFailureERKNS_11TestDetailsEPKc@PLT
 4984      00
 4985              	.LEHE120:
 4986              	.LEHB121:
 4987 06fb E8000000 		call	__cxa_end_catch@PLT
 4987      00
 4988              	.LEHE121:
 4989 0700 E9000000 		jmp	.L313
 4989      00
 4990              	.L323:
 4991 0705 F30F1EFA 		endbr64
 4992 0709 4989C4   		movq	%rax, %r12
 4993 070c E8000000 		call	__cxa_end_catch@PLT
 4993      00
 4994 0711 EB94     		jmp	.L319
 4995              		.cfi_endproc
 4996              	.LFE1243:
 4997              		.section	.gcc_except_table
 4998              		.align 4
 4999              	.LLSDAC1243:
 5000 0390 FF       		.byte	0xff
 5001 0391 9B       		.byte	0x9b
 5002 0392 1D       		.uleb128 .LLSDATTC1243-.LLSDATTDC1243
 5003              	.LLSDATTDC1243:
 5004 0393 01       		.byte	0x1
 5005 0394 12       		.uleb128 .LLSDACSEC1243-.LLSDACSBC1243
 5006              	.LLSDACSBC1243:
 5007 0395 27       		.uleb128 .LEHB118-.LCOLDB43
 5008 0396 05       		.uleb128 .LEHE118-.LEHB118
 5009 0397 00       		.uleb128 0
 5010 0398 00       		.uleb128 0
 5011 0399 3E       		.uleb128 .LEHB119-.LCOLDB43
 5012 039a 05       		.uleb128 .LEHE119-.LEHB119
 5013 039b 00       		.uleb128 0
 5014 039c 00       		.uleb128 0
 5015 039d 48       		.uleb128 .LEHB120-.LCOLDB43
 5016 039e 3F       		.uleb128 .LEHE120-.LEHB120
 5017 039f 9101     		.uleb128 .L323-.LCOLDB43
 5018 03a1 00       		.uleb128 0
 5019 03a2 8701     		.uleb128 .LEHB121-.LCOLDB43
 5020 03a4 05       		.uleb128 .LEHE121-.LEHB121
 5021 03a5 2C       		.uleb128 .L321-.LCOLDB43
 5022 03a6 00       		.uleb128 0
 5023              	.LLSDACSEC1243:
 5024 03a7 01       		.byte	0x1
 5025 03a8 00       		.byte	0
 5026 03a9 000000   		.align 4
 5027 03ac 00000000 		.long	0
 5028              	
 5029              	.LLSDATTC1243:
 5030              		.section	.text.unlikely
 5031              		.text
 5033              		.section	.text.unlikely
 5035              	.LCOLDE43:
 5036              		.text
 5037              	.LHOTE43:
 5038              		.section	.rodata.str1.1
 5039              	.LC44:
 5040 0039 426F726B 		.string	"Bork"
 5040      00
 5041              	.LC45:
 5042 003e 466F6F00 		.string	"Foo"
 5043              	.LC46:
 5044 0042 42617200 		.string	"Bar"
 5045              	.LC47:
 5046 0046 426F726B 		.string	"BorkFooBar"
 5046      466F6F42 
 5046      617200
 5047              		.section	.rodata.str1.8
 5048 0249 00000000 		.align 8
 5048      000000
 5049              	.LC48:
 5050 0250 556E6861 		.string	"Unhandled exception in CHECK_EQUAL(\"BorkFooBar\", stream.GetText())"
 5050      6E646C65 
 5050      64206578 
 5050      63657074 
 5050      696F6E20 
 5051              		.section	.text.unlikely
 5052 0713 90       		.align 2
 5053              	.LCOLDB49:
 5054              		.text
 5055              	.LHOTB49:
 5056 1ff9 90       		.align 2
 5057 1ffa 660F1F44 		.p2align 4
 5057      0000
 5059              	_ZNK12_GLOBAL__N_144TestStreamingMultipleTimesConcatenatesResult7RunImplEv:
 5060              	.LFB1219:
 5061              		.cfi_startproc
 5062              		.cfi_personality 0x9b,DW.ref.__gxx_personality_v0
 5063              		.cfi_lsda 0x1b,.LLSDA1219
 5064 2000 F30F1EFA 		endbr64
 5065 2004 4157     		pushq	%r15
 5066              		.cfi_def_cfa_offset 16
 5067              		.cfi_offset 15, -16
 5068 2006 4156     		pushq	%r14
 5069              		.cfi_def_cfa_offset 24
 5070              		.cfi_offset 14, -24
 5071 2008 4155     		pushq	%r13
 5072              		.cfi_def_cfa_offset 32
 5073              		.cfi_offset 13, -32
 5074 200a 4154     		pushq	%r12
 5075              		.cfi_def_cfa_offset 40
 5076              		.cfi_offset 12, -40
 5077 200c 55       		pushq	%rbp
 5078              		.cfi_def_cfa_offset 48
 5079              		.cfi_offset 6, -48
 5080 200d 53       		pushq	%rbx
 5081              		.cfi_def_cfa_offset 56
 5082              		.cfi_offset 3, -56
 5083 200e 488D1D00 		leaq	24+_ZTCN8UnitTest15MemoryOutStreamE0_So(%rip), %rbx
 5083      000000
 5084 2015 4881ECE8 		subq	$488, %rsp
 5084      010000
 5085              		.cfi_def_cfa_offset 544
 5086 201c F30F7E0D 		movq	.LC15(%rip), %xmm1
 5086      00000000 
 5087 2024 64488B04 		movq	%fs:40, %rax
 5087      25280000 
 5087      00
 5088 202d 48898424 		movq	%rax, 472(%rsp)
 5088      D8010000 
 5089 2035 31C0     		xorl	%eax, %eax
 5090 2037 4C8DA424 		leaq	208(%rsp), %r12
 5090      D0000000 
 5091 203f 0F160D00 		movhps	.LC16(%rip), %xmm1
 5091      000000
 5092 2046 4C89E7   		movq	%r12, %rdi
 5093 2049 0F290C24 		movaps	%xmm1, (%rsp)
 5094 204d E8000000 		call	_ZNSt8ios_baseC2Ev@PLT
 5094      00
 5095 2052 31C0     		xorl	%eax, %eax
 5096 2054 660FEFC0 		pxor	%xmm0, %xmm0
 5097 2058 31F6     		xorl	%esi, %esi
 5098 205a 66898424 		movw	%ax, 432(%rsp)
 5098      B0010000 
 5099 2062 4C89E7   		movq	%r12, %rdi
 5100 2065 488D4328 		leaq	40(%rbx), %rax
 5101 2069 48C78424 		movq	$0, 424(%rsp)
 5101      A8010000 
 5101      00000000 
 5102 2075 48895C24 		movq	%rbx, 64(%rsp)
 5102      40
 5103 207a 48898424 		movq	%rax, 208(%rsp)
 5103      D0000000 
 5104 2082 0F118424 		movups	%xmm0, 440(%rsp)
 5104      B8010000 
 5105 208a 0F118424 		movups	%xmm0, 456(%rsp)
 5105      C8010000 
 5106              	.LEHB122:
 5107 2092 E8000000 		call	_ZNSt9basic_iosIcSt11char_traitsIcEE4initEPSt15basic_streambufIcS1_E@PLT
 5107      00
 5108              	.LEHE122:
 5109 2097 660F6F0C 		movdqa	(%rsp), %xmm1
 5109      24
 5110 209c 660FEFC0 		pxor	%xmm0, %xmm0
 5111 20a0 4C8DBC24 		leaq	128(%rsp), %r15
 5111      80000000 
 5112 20a8 488D0500 		leaq	64+_ZTCN8UnitTest15MemoryOutStreamE0_NSt7__cxx1119basic_ostringstreamIcSt11char_traitsIcESaIc
 5112      000000
 5113 20af 4C89FF   		movq	%r15, %rdi
 5114 20b2 0F294424 		movaps	%xmm0, 80(%rsp)
 5114      50
 5115 20b7 488D6C24 		leaq	64(%rsp), %rbp
 5115      40
 5116 20bc 4C8D6C24 		leaq	72(%rsp), %r13
 5116      48
 5117 20c1 48898424 		movq	%rax, 208(%rsp)
 5117      D0000000 
 5118 20c9 0F294C24 		movaps	%xmm1, 64(%rsp)
 5118      40
 5119 20ce 0F294424 		movaps	%xmm0, 96(%rsp)
 5119      60
 5120 20d3 0F294424 		movaps	%xmm0, 112(%rsp)
 5120      70
 5121 20d8 E8000000 		call	_ZNSt6localeC1Ev@PLT
 5121      00
 5122 20dd 488D0500 		leaq	16+_ZTVNSt7__cxx1115basic_stringbufIcSt11char_traitsIcESaIcEEE(%rip), %rax
 5122      000000
 5123 20e4 C68424A0 		movb	$0, 160(%rsp)
 5123      00000000 
 5124 20ec 4C89EE   		movq	%r13, %rsi
 5125 20ef 48894424 		movq	%rax, 72(%rsp)
 5125      48
 5126 20f4 488D8424 		leaq	160(%rsp), %rax
 5126      A0000000 
 5127 20fc 48894424 		movq	%rax, 24(%rsp)
 5127      18
 5128 2101 48898424 		movq	%rax, 144(%rsp)
 5128      90000000 
 5129 2109 488B4424 		movq	64(%rsp), %rax
 5129      40
 5130 210e 48C78424 		movq	$0, 152(%rsp)
 5130      98000000 
 5130      00000000 
 5131 211a C7842488 		movl	$16, 136(%rsp)
 5131      00000010 
 5131      000000
 5132 2125 488B78E8 		movq	-24(%rax), %rdi
 5133 2129 4801EF   		addq	%rbp, %rdi
 5134              	.LEHB123:
 5135 212c E8000000 		call	_ZNSt9basic_iosIcSt11char_traitsIcEE4initEPSt15basic_streambufIcS1_E@PLT
 5135      00
 5136              	.LEHE123:
 5137 2131 4C8D2D00 		leaq	24+_ZTVN8UnitTest15MemoryOutStreamE(%rip), %r13
 5137      000000
 5138 2138 BA040000 		movl	$4, %edx
 5138      00
 5139 213d 4889EF   		movq	%rbp, %rdi
 5140 2140 48C78424 		movq	$0, 184(%rsp)
 5140      B8000000 
 5140      00000000 
 5141 214c 498D4528 		leaq	40(%r13), %rax
 5142 2150 488D3500 		leaq	.LC44(%rip), %rsi
 5142      000000
 5143 2157 4C896C24 		movq	%r13, 64(%rsp)
 5143      40
 5144 215c 48898424 		movq	%rax, 208(%rsp)
 5144      D0000000 
 5145 2164 488D8424 		leaq	192(%rsp), %rax
 5145      C0000000 
 5146 216c 48894424 		movq	%rax, 16(%rsp)
 5146      10
 5147 2171 48898424 		movq	%rax, 176(%rsp)
 5147      B0000000 
 5148 2179 C68424C0 		movb	$0, 192(%rsp)
 5148      00000000 
 5149              	.LEHB124:
 5150 2181 E8000000 		call	_ZSt16__ostream_insertIcSt11char_traitsIcEERSt13basic_ostreamIT_T0_ES6_PKS3_l@PLT
 5150      00
 5151 2186 BA030000 		movl	$3, %edx
 5151      00
 5152 218b 488D3500 		leaq	.LC45(%rip), %rsi
 5152      000000
 5153 2192 4889EF   		movq	%rbp, %rdi
 5154 2195 E8000000 		call	_ZSt16__ostream_insertIcSt11char_traitsIcEERSt13basic_ostreamIT_T0_ES6_PKS3_l@PLT
 5154      00
 5155 219a BA030000 		movl	$3, %edx
 5155      00
 5156 219f 488D3500 		leaq	.LC46(%rip), %rsi
 5156      000000
 5157 21a6 4889EF   		movq	%rbp, %rdi
 5158 21a9 E8000000 		call	_ZSt16__ostream_insertIcSt11char_traitsIcEERSt13basic_ostreamIT_T0_ES6_PKS3_l@PLT
 5158      00
 5159              	.LEHE124:
 5160              	.LEHB125:
 5161 21ae E8000000 		call	_ZN8UnitTest11CurrentTest7DetailsEv@PLT
 5161      00
 5162 21b3 4C8D7424 		leaq	32(%rsp), %r14
 5162      20
 5163 21b8 488B30   		movq	(%rax), %rsi
 5164 21bb BA1D0000 		movl	$29, %edx
 5164      00
 5165 21c0 4C89F7   		movq	%r14, %rdi
 5166 21c3 E8000000 		call	_ZN8UnitTest11TestDetailsC1ERKS0_i@PLT
 5166      00
 5167 21c8 4889EF   		movq	%rbp, %rdi
 5168 21cb E8000000 		call	_ZNK8UnitTest15MemoryOutStream7GetTextEv@PLT
 5168      00
 5169 21d0 48890424 		movq	%rax, (%rsp)
 5170 21d4 E8000000 		call	_ZN8UnitTest11CurrentTest7ResultsEv@PLT
 5170      00
 5171 21d9 488B1424 		movq	(%rsp), %rdx
 5172 21dd 488B38   		movq	(%rax), %rdi
 5173 21e0 4C89F1   		movq	%r14, %rcx
 5174 21e3 488D3500 		leaq	.LC47(%rip), %rsi
 5174      000000
 5175 21ea E8000000 		call	_ZN8UnitTest10CheckEqualERNS_11TestResultsEPKcS3_RKNS_11TestDetailsE@PLT
 5175      00
 5176              	.LEHE125:
 5177              	.L342:
 5178 21ef F30F7E05 		movq	.LC15(%rip), %xmm0
 5178      00000000 
 5179 21f7 488D0500 		leaq	64+_ZTVN8UnitTest15MemoryOutStreamE(%rip), %rax
 5179      000000
 5180 21fe 4C896C24 		movq	%r13, 64(%rsp)
 5180      40
 5181 2203 48898424 		movq	%rax, 208(%rsp)
 5181      D0000000 
 5182 220b 488BBC24 		movq	176(%rsp), %rdi
 5182      B0000000 
 5183 2213 0F160500 		movhps	.LC17(%rip), %xmm0
 5183      000000
 5184 221a 483B7C24 		cmpq	16(%rsp), %rdi
 5184      10
 5185 221f 740E     		je	.L339
 5186 2221 0F290424 		movaps	%xmm0, (%rsp)
 5187 2225 E8000000 		call	_ZdlPv@PLT
 5187      00
 5188 222a 660F6F04 		movdqa	(%rsp), %xmm0
 5188      24
 5189              	.L339:
 5190 222f 488D0500 		leaq	64+_ZTCN8UnitTest15MemoryOutStreamE0_NSt7__cxx1119basic_ostringstreamIcSt11char_traitsIcESaIc
 5190      000000
 5191 2236 488BBC24 		movq	144(%rsp), %rdi
 5191      90000000 
 5192 223e 0F294424 		movaps	%xmm0, 64(%rsp)
 5192      40
 5193 2243 48898424 		movq	%rax, 208(%rsp)
 5193      D0000000 
 5194 224b 483B7C24 		cmpq	24(%rsp), %rdi
 5194      18
 5195 2250 7405     		je	.L340
 5196 2252 E8000000 		call	_ZdlPv@PLT
 5196      00
 5197              	.L340:
 5198 2257 488D0500 		leaq	16+_ZTVSt15basic_streambufIcSt11char_traitsIcEE(%rip), %rax
 5198      000000
 5199 225e 4C89FF   		movq	%r15, %rdi
 5200 2261 48894424 		movq	%rax, 72(%rsp)
 5200      48
 5201 2266 E8000000 		call	_ZNSt6localeD1Ev@PLT
 5201      00
 5202 226b 488D0500 		leaq	16+_ZTVSt9basic_iosIcSt11char_traitsIcEE(%rip), %rax
 5202      000000
 5203 2272 4C89E7   		movq	%r12, %rdi
 5204 2275 48895C24 		movq	%rbx, 64(%rsp)
 5204      40
 5205 227a 48898424 		movq	%rax, 208(%rsp)
 5205      D0000000 
 5206              	.LEHB126:
 5207 2282 E8000000 		call	_ZNSt8ios_baseD2Ev@PLT
 5207      00
 5208              	.LEHE126:
 5209 2287 488B8424 		movq	472(%rsp), %rax
 5209      D8010000 
 5210 228f 64482B04 		subq	%fs:40, %rax
 5210      25280000 
 5210      00
 5211 2298 7512     		jne	.L357
 5212 229a 4881C4E8 		addq	$488, %rsp
 5212      010000
 5213              		.cfi_remember_state
 5214              		.cfi_def_cfa_offset 56
 5215 22a1 5B       		popq	%rbx
 5216              		.cfi_def_cfa_offset 48
 5217 22a2 5D       		popq	%rbp
 5218              		.cfi_def_cfa_offset 40
 5219 22a3 415C     		popq	%r12
 5220              		.cfi_def_cfa_offset 32
 5221 22a5 415D     		popq	%r13
 5222              		.cfi_def_cfa_offset 24
 5223 22a7 415E     		popq	%r14
 5224              		.cfi_def_cfa_offset 16
 5225 22a9 415F     		popq	%r15
 5226              		.cfi_def_cfa_offset 8
 5227 22ab C3       		ret
 5228              	.L357:
 5229              		.cfi_restore_state
 5230 22ac E8000000 		call	__stack_chk_fail@PLT
 5230      00
 5231              	.L347:
 5232 22b1 F30F1EFA 		endbr64
 5233 22b5 4889C7   		movq	%rax, %rdi
 5234 22b8 E9000000 		jmp	.L341
 5234      00
 5235              	.L351:
 5236 22bd F30F1EFA 		endbr64
 5237 22c1 E9000000 		jmp	.L352
 5237      00
 5238              	.L350:
 5239 22c6 F30F1EFA 		endbr64
 5240 22ca 4889C5   		movq	%rax, %rbp
 5241 22cd E9000000 		jmp	.L336
 5241      00
 5242              	.L349:
 5243 22d2 F30F1EFA 		endbr64
 5244 22d6 4889C5   		movq	%rax, %rbp
 5245 22d9 E9000000 		jmp	.L337
 5245      00
 5246              		.section	.gcc_except_table
 5247              		.align 4
 5248              	.LLSDA1219:
 5249 03b0 FF       		.byte	0xff
 5250 03b1 9B       		.byte	0x9b
 5251 03b2 25       		.uleb128 .LLSDATT1219-.LLSDATTD1219
 5252              	.LLSDATTD1219:
 5253 03b3 01       		.byte	0x1
 5254 03b4 1D       		.uleb128 .LLSDACSE1219-.LLSDACSB1219
 5255              	.LLSDACSB1219:
 5256 03b5 9201     		.uleb128 .LEHB122-.LFB1219
 5257 03b7 05       		.uleb128 .LEHE122-.LEHB122
 5258 03b8 D205     		.uleb128 .L349-.LFB1219
 5259 03ba 00       		.uleb128 0
 5260 03bb AC02     		.uleb128 .LEHB123-.LFB1219
 5261 03bd 05       		.uleb128 .LEHE123-.LEHB123
 5262 03be C605     		.uleb128 .L350-.LFB1219
 5263 03c0 00       		.uleb128 0
 5264 03c1 8103     		.uleb128 .LEHB124-.LFB1219
 5265 03c3 2D       		.uleb128 .LEHE124-.LEHB124
 5266 03c4 BD05     		.uleb128 .L351-.LFB1219
 5267 03c6 00       		.uleb128 0
 5268 03c7 AE03     		.uleb128 .LEHB125-.LFB1219
 5269 03c9 41       		.uleb128 .LEHE125-.LEHB125
 5270 03ca B105     		.uleb128 .L347-.LFB1219
 5271 03cc 01       		.uleb128 0x1
 5272 03cd 8205     		.uleb128 .LEHB126-.LFB1219
 5273 03cf 05       		.uleb128 .LEHE126-.LEHB126
 5274 03d0 00       		.uleb128 0
 5275 03d1 00       		.uleb128 0
 5276              	.LLSDACSE1219:
 5277 03d2 01       		.byte	0x1
 5278 03d3 00       		.byte	0
 5279              		.align 4
 5280 03d4 00000000 		.long	0
 5281              	
 5282              	.LLSDATT1219:
 5283              		.text
 5284              		.cfi_endproc
 5285              		.section	.text.unlikely
 5286              		.cfi_startproc
 5287              		.cfi_personality 0x9b,DW.ref.__gxx_personality_v0
 5288              		.cfi_lsda 0x1b,.LLSDAC1219
 5290              	_ZNK12_GLOBAL__N_144TestStreamingMultipleTimesConcatenatesResult7RunImplEv.cold:
 5291              	.LFSB1219:
 5292              	.L341:
 5293              		.cfi_def_cfa_offset 544
 5294              		.cfi_offset 3, -56
 5295              		.cfi_offset 6, -48
 5296              		.cfi_offset 12, -40
 5297              		.cfi_offset 13, -32
 5298              		.cfi_offset 14, -24
 5299              		.cfi_offset 15, -16
 5300 0714 E8000000 		call	__cxa_begin_catch@PLT
 5300      00
 5301              	.LEHB127:
 5302 0719 E8000000 		call	_ZN8UnitTest11CurrentTest7ResultsEv@PLT
 5302      00
 5303 071e 488B00   		movq	(%rax), %rax
 5304 0721 48890424 		movq	%rax, (%rsp)
 5305 0725 E8000000 		call	_ZN8UnitTest11CurrentTest7DetailsEv@PLT
 5305      00
 5306 072a 4C8D7424 		leaq	32(%rsp), %r14
 5306      20
 5307 072f 488B30   		movq	(%rax), %rsi
 5308 0732 BA1D0000 		movl	$29, %edx
 5308      00
 5309 0737 4C89F7   		movq	%r14, %rdi
 5310 073a E8000000 		call	_ZN8UnitTest11TestDetailsC1ERKS0_i@PLT
 5310      00
 5311 073f 488B3C24 		movq	(%rsp), %rdi
 5312 0743 488D1500 		leaq	.LC48(%rip), %rdx
 5312      000000
 5313 074a 4C89F6   		movq	%r14, %rsi
 5314 074d E8000000 		call	_ZN8UnitTest11TestResults13OnTestFailureERKNS_11TestDetailsEPKc@PLT
 5314      00
 5315              	.LEHE127:
 5316              	.LEHB128:
 5317 0752 E8000000 		call	__cxa_end_catch@PLT
 5317      00
 5318              	.LEHE128:
 5319 0757 E9000000 		jmp	.L342
 5319      00
 5320              	.L346:
 5321 075c F30F1EFA 		endbr64
 5322              	.L352:
 5323 0760 4989C4   		movq	%rax, %r12
 5324 0763 EB38     		jmp	.L344
 5325              	.L336:
 5326 0765 4C89EF   		movq	%r13, %rdi
 5327 0768 E8000000 		call	_ZNSt7__cxx1115basic_stringbufIcSt11char_traitsIcESaIcEED1Ev
 5327      00
 5328 076d 48895C24 		movq	%rbx, 64(%rsp)
 5328      40
 5329              	.L337:
 5330 0772 488D0500 		leaq	16+_ZTVSt9basic_iosIcSt11char_traitsIcEE(%rip), %rax
 5330      000000
 5331 0779 4C89E7   		movq	%r12, %rdi
 5332 077c 48898424 		movq	%rax, 208(%rsp)
 5332      D0000000 
 5333 0784 E8000000 		call	_ZNSt8ios_baseD2Ev@PLT
 5333      00
 5334 0789 4889EF   		movq	%rbp, %rdi
 5335              	.LEHB129:
 5336 078c E8000000 		call	_Unwind_Resume@PLT
 5336      00
 5337              	.LEHE129:
 5338              	.L348:
 5339 0791 F30F1EFA 		endbr64
 5340 0795 4989C4   		movq	%rax, %r12
 5341 0798 E8000000 		call	__cxa_end_catch@PLT
 5341      00
 5342              	.L344:
 5343 079d 4889EF   		movq	%rbp, %rdi
 5344 07a0 E8000000 		call	_ZN8UnitTest15MemoryOutStreamD1Ev
 5344      00
 5345 07a5 4C89E7   		movq	%r12, %rdi
 5346              	.LEHB130:
 5347 07a8 E8000000 		call	_Unwind_Resume@PLT
 5347      00
 5348              	.LEHE130:
 5349              		.cfi_endproc
 5350              	.LFE1219:
 5351              		.section	.gcc_except_table
 5352              		.align 4
 5353              	.LLSDAC1219:
 5354 03d8 FF       		.byte	0xff
 5355 03d9 9B       		.byte	0x9b
 5356 03da 19       		.uleb128 .LLSDATTC1219-.LLSDATTDC1219
 5357              	.LLSDATTDC1219:
 5358 03db 01       		.byte	0x1
 5359 03dc 11       		.uleb128 .LLSDACSEC1219-.LLSDACSBC1219
 5360              	.LLSDACSBC1219:
 5361 03dd 05       		.uleb128 .LEHB127-.LCOLDB49
 5362 03de 39       		.uleb128 .LEHE127-.LEHB127
 5363 03df 7D       		.uleb128 .L348-.LCOLDB49
 5364 03e0 00       		.uleb128 0
 5365 03e1 3E       		.uleb128 .LEHB128-.LCOLDB49
 5366 03e2 05       		.uleb128 .LEHE128-.LEHB128
 5367 03e3 48       		.uleb128 .L346-.LCOLDB49
 5368 03e4 00       		.uleb128 0
 5369 03e5 78       		.uleb128 .LEHB129-.LCOLDB49
 5370 03e6 05       		.uleb128 .LEHE129-.LEHB129
 5371 03e7 00       		.uleb128 0
 5372 03e8 00       		.uleb128 0
 5373 03e9 9401     		.uleb128 .LEHB130-.LCOLDB49
 5374 03eb 05       		.uleb128 .LEHE130-.LEHB130
 5375 03ec 00       		.uleb128 0
 5376 03ed 00       		.uleb128 0
 5377              	.LLSDACSEC1219:
 5378 03ee 01       		.byte	0x1
 5379 03ef 00       		.byte	0
 5380              		.align 4
 5381 03f0 00000000 		.long	0
 5382              	
 5383              	.LLSDATTC1219:
 5384              		.section	.text.unlikely
 5385              		.text
 5387              		.section	.text.unlikely
 5389              	.LCOLDE49:
 5390              		.text
 5391              	.LHOTE49:
 5392              		.section	.text._ZNSt7__cxx1115basic_stringbufIcSt11char_traitsIcESaIcEED0Ev,"axG",@progbits,_ZNSt7
 5393              		.align 2
 5394              		.p2align 4
 5395              		.weak	_ZNSt7__cxx1115basic_stringbufIcSt11char_traitsIcESaIcEED0Ev
 5397              	_ZNSt7__cxx1115basic_stringbufIcSt11char_traitsIcESaIcEED0Ev:
 5398              	.LFB1263:
 5399              		.cfi_startproc
 5400 0000 F30F1EFA 		endbr64
 5401 0004 488D0500 		leaq	16+_ZTVNSt7__cxx1115basic_stringbufIcSt11char_traitsIcESaIcEEE(%rip), %rax
 5401      000000
 5402 000b 55       		pushq	%rbp
 5403              		.cfi_def_cfa_offset 16
 5404              		.cfi_offset 6, -16
 5405 000c 4889FD   		movq	%rdi, %rbp
 5406 000f 488907   		movq	%rax, (%rdi)
 5407 0012 488B7F48 		movq	72(%rdi), %rdi
 5408 0016 488D4558 		leaq	88(%rbp), %rax
 5409 001a 4839C7   		cmpq	%rax, %rdi
 5410 001d 7405     		je	.L359
 5411 001f E8000000 		call	_ZdlPv@PLT
 5411      00
 5412              	.L359:
 5413 0024 488D0500 		leaq	16+_ZTVSt15basic_streambufIcSt11char_traitsIcEE(%rip), %rax
 5413      000000
 5414 002b 488D7D38 		leaq	56(%rbp), %rdi
 5415 002f 48894500 		movq	%rax, 0(%rbp)
 5416 0033 E8000000 		call	_ZNSt6localeD1Ev@PLT
 5416      00
 5417 0038 4889EF   		movq	%rbp, %rdi
 5418 003b 5D       		popq	%rbp
 5419              		.cfi_def_cfa_offset 8
 5420 003c E9000000 		jmp	_ZdlPv@PLT
 5420      00
 5421              		.cfi_endproc
 5422              	.LFE1263:
 5424              		.section	.rodata.str1.1
 5425              	.LC50:
 5426 0051 54657374 		.string	"TestMemoryOutStream.cpp"
 5426      4D656D6F 
 5426      72794F75 
 5426      74537472 
 5426      65616D2E 
 5427              	.LC51:
 5428 0069 44656661 		.string	"DefaultSuite"
 5428      756C7453 
 5428      75697465 
 5428      00
 5429              	.LC52:
 5430 0076 44656661 		.string	"DefaultIsEmptyString"
 5430      756C7449 
 5430      73456D70 
 5430      74795374 
 5430      72696E67 
 5431              	.LC53:
 5432 008b 53747265 		.string	"StreamingTextCopiesCharacters"
 5432      616D696E 
 5432      67546578 
 5432      74436F70 
 5432      69657343 
 5433              		.section	.rodata.str1.8
 5434 0293 00000000 		.align 8
 5434      00
 5435              	.LC54:
 5436 0298 53747265 		.string	"StreamingMultipleTimesConcatenatesResult"
 5436      616D696E 
 5436      674D756C 
 5436      7469706C 
 5436      6554696D 
 5437 02c1 00000000 		.align 8
 5437      000000
 5438              	.LC55:
 5439 02c8 53747265 		.string	"StreamingIntWritesCorrectCharacters"
 5439      616D696E 
 5439      67496E74 
 5439      57726974 
 5439      6573436F 
 5440 02ec 00000000 		.align 8
 5441              	.LC56:
 5442 02f0 53747265 		.string	"StreamingUnsignedIntWritesCorrectCharacters"
 5442      616D696E 
 5442      67556E73 
 5442      69676E65 
 5442      64496E74 
 5443 031c 00000000 		.align 8
 5444              	.LC57:
 5445 0320 53747265 		.string	"StreamingLongWritesCorrectCharacters"
 5445      616D696E 
 5445      674C6F6E 
 5445      67577269 
 5445      74657343 
 5446 0345 000000   		.align 8
 5447              	.LC58:
 5448 0348 53747265 		.string	"StreamingUnsignedLongWritesCorrectCharacters"
 5448      616D696E 
 5448      67556E73 
 5448      69676E65 
 5448      644C6F6E 
 5449 0375 000000   		.align 8
 5450              	.LC59:
 5451 0378 53747265 		.string	"StreamingFloatWritesCorrectCharacters"
 5451      616D696E 
 5451      67466C6F 
 5451      61745772 
 5451      69746573 
 5452 039e 0000     		.align 8
 5453              	.LC60:
 5454 03a0 53747265 		.string	"StreamingDoubleWritesCorrectCharacters"
 5454      616D696E 
 5454      67446F75 
 5454      626C6557 
 5454      72697465 
 5455 03c7 00       		.align 8
 5456              	.LC61:
 5457 03c8 53747265 		.string	"StreamingPointerWritesCorrectCharacters"
 5457      616D696E 
 5457      67506F69 
 5457      6E746572 
 5457      57726974 
 5458              		.align 8
