   1              		.file	"TestCheckMacros.cpp"
   2              		.text
   3              		.section	.text._ZN17RecordingReporter13ReportSummaryEiiif,"axG",@progbits,_ZN17RecordingReporter13
   4              		.align 2
   5              		.p2align 4
   6              		.weak	_ZN17RecordingReporter13ReportSummaryEiiif
   8              	_ZN17RecordingReporter13ReportSummaryEiiif:
   9              	.LFB1217:
  10              		.cfi_startproc
  11 0000 F30F1EFA 		endbr64
  12 0004 660F6ECE 		movd	%esi, %xmm1
  13 0008 660F6ED2 		movd	%edx, %xmm2
  14 000c 898F2408 		movl	%ecx, 2084(%rdi)
  14      0000
  15 0012 660F62CA 		punpckldq	%xmm2, %xmm1
  16 0016 F30F1187 		movss	%xmm0, 2088(%rdi)
  16      28080000 
  17 001e 660FD68F 		movq	%xmm1, 2076(%rdi)
  17      1C080000 
  18 0026 C3       		ret
  19              		.cfi_endproc
  20              	.LFE1217:
  22              		.text
  23              		.align 2
  24              		.p2align 4
  26              	_ZN12_GLOBAL__N_154TestCheckArray2DCloseDoesNotHaveSideEffectsWhenFailingD2Ev:
  27              	.LFB1539:
  28              		.cfi_startproc
  29 0000 F30F1EFA 		endbr64
  30 0004 488D0500 		leaq	16+_ZTVN12_GLOBAL__N_154TestCheckArray2DCloseDoesNotHaveSideEffectsWhenFailingE(%rip), %rax
  30      000000
  31 000b 488907   		movq	%rax, (%rdi)
  32 000e E9000000 		jmp	_ZN8UnitTest4TestD2Ev@PLT
  32      00
  33              		.cfi_endproc
  34              	.LFE1539:
  36              		.set	_ZN12_GLOBAL__N_154TestCheckArray2DCloseDoesNotHaveSideEffectsWhenFailingD1Ev,_ZN12_GLOBAL__N
  37 0013 90       		.align 2
  38 0014 66662E0F 		.p2align 4
  38      1F840000 
  38      00000090 
  40              	_ZN12_GLOBAL__N_154TestCheckArray2DCloseDoesNotHaveSideEffectsWhenPassingD2Ev:
  41              	.LFB1543:
  42              		.cfi_startproc
  43 0020 F30F1EFA 		endbr64
  44 0024 488D0500 		leaq	16+_ZTVN12_GLOBAL__N_154TestCheckArray2DCloseDoesNotHaveSideEffectsWhenPassingE(%rip), %rax
  44      000000
  45 002b 488907   		movq	%rax, (%rdi)
  46 002e E9000000 		jmp	_ZN8UnitTest4TestD2Ev@PLT
  46      00
  47              		.cfi_endproc
  48              	.LFE1543:
  50              		.set	_ZN12_GLOBAL__N_154TestCheckArray2DCloseDoesNotHaveSideEffectsWhenPassingD1Ev,_ZN12_GLOBAL__N
  51 0033 90       		.align 2
  52 0034 66662E0F 		.p2align 4
  52      1F840000 
  52      00000090 
  54              	_ZN12_GLOBAL__N_160TestCheckArray2DCloseFailureOnExceptionIncludesCheckContentsD2Ev:
  55              	.LFB1547:
  56              		.cfi_startproc
  57 0040 F30F1EFA 		endbr64
  58 0044 488D0500 		leaq	16+_ZTVN12_GLOBAL__N_160TestCheckArray2DCloseFailureOnExceptionIncludesCheckContentsE(%rip), 
  58      000000
  59 004b 488907   		movq	%rax, (%rdi)
  60 004e E9000000 		jmp	_ZN8UnitTest4TestD2Ev@PLT
  60      00
  61              		.cfi_endproc
  62              	.LFE1547:
  64              		.set	_ZN12_GLOBAL__N_160TestCheckArray2DCloseFailureOnExceptionIncludesCheckContentsD1Ev,_ZN12_GLO
  65 0053 90       		.align 2
  66 0054 66662E0F 		.p2align 4
  66      1F840000 
  66      00000090 
  68              	_ZN12_GLOBAL__N_137TestCheckArray2DCloseFailsOnExceptionD2Ev:
  69              	.LFB1551:
  70              		.cfi_startproc
  71 0060 F30F1EFA 		endbr64
  72 0064 488D0500 		leaq	16+_ZTVN12_GLOBAL__N_137TestCheckArray2DCloseFailsOnExceptionE(%rip), %rax
  72      000000
  73 006b 488907   		movq	%rax, (%rdi)
  74 006e E9000000 		jmp	_ZN8UnitTest4TestD2Ev@PLT
  74      00
  75              		.cfi_endproc
  76              	.LFE1551:
  78              		.set	_ZN12_GLOBAL__N_137TestCheckArray2DCloseFailsOnExceptionD1Ev,_ZN12_GLOBAL__N_137TestCheckArra
  79 0073 90       		.align 2
  80 0074 66662E0F 		.p2align 4
  80      1F840000 
  80      00000090 
  82              	_ZN12_GLOBAL__N_145TestCheckArray2DCloseFailureIncludesToleranceD2Ev:
  83              	.LFB1555:
  84              		.cfi_startproc
  85 0080 F30F1EFA 		endbr64
  86 0084 488D0500 		leaq	16+_ZTVN12_GLOBAL__N_145TestCheckArray2DCloseFailureIncludesToleranceE(%rip), %rax
  86      000000
  87 008b 488907   		movq	%rax, (%rdi)
  88 008e E9000000 		jmp	_ZN8UnitTest4TestD2Ev@PLT
  88      00
  89              		.cfi_endproc
  90              	.LFE1555:
  92              		.set	_ZN12_GLOBAL__N_145TestCheckArray2DCloseFailureIncludesToleranceD1Ev,_ZN12_GLOBAL__N_145TestC
  93 0093 90       		.align 2
  94 0094 66662E0F 		.p2align 4
  94      1F840000 
  94      00000090 
  96              	_ZN12_GLOBAL__N_168TestCheckArray2DCloseFailureBecauseOfExceptionContainsCorrectDetailsD2Ev:
  97              	.LFB1559:
  98              		.cfi_startproc
  99 00a0 F30F1EFA 		endbr64
 100 00a4 488D0500 		leaq	16+_ZTVN12_GLOBAL__N_168TestCheckArray2DCloseFailureBecauseOfExceptionContainsCorrectDetailsE
 100      000000
 101 00ab 488907   		movq	%rax, (%rdi)
 102 00ae E9000000 		jmp	_ZN8UnitTest4TestD2Ev@PLT
 102      00
 103              		.cfi_endproc
 104              	.LFE1559:
 106              		.set	_ZN12_GLOBAL__N_168TestCheckArray2DCloseFailureBecauseOfExceptionContainsCorrectDetailsD1Ev,_
 107 00b3 90       		.align 2
 108 00b4 66662E0F 		.p2align 4
 108      1F840000 
 108      00000090 
 110              	_ZN12_GLOBAL__N_150TestCheckArray2DCloseFailureContainsCorrectDetailsD2Ev:
 111              	.LFB1563:
 112              		.cfi_startproc
 113 00c0 F30F1EFA 		endbr64
 114 00c4 488D0500 		leaq	16+_ZTVN12_GLOBAL__N_150TestCheckArray2DCloseFailureContainsCorrectDetailsE(%rip), %rax
 114      000000
 115 00cb 488907   		movq	%rax, (%rdi)
 116 00ce E9000000 		jmp	_ZN8UnitTest4TestD2Ev@PLT
 116      00
 117              		.cfi_endproc
 118              	.LFE1563:
 120              		.set	_ZN12_GLOBAL__N_150TestCheckArray2DCloseFailureContainsCorrectDetailsD1Ev,_ZN12_GLOBAL__N_150
 121 00d3 90       		.align 2
 122 00d4 66662E0F 		.p2align 4
 122      1F840000 
 122      00000090 
 124              	_ZN12_GLOBAL__N_158TestCheckArray2DCloseFailureIncludesCheckExpectedAndActualD2Ev:
 125              	.LFB1567:
 126              		.cfi_startproc
 127 00e0 F30F1EFA 		endbr64
 128 00e4 488D0500 		leaq	16+_ZTVN12_GLOBAL__N_158TestCheckArray2DCloseFailureIncludesCheckExpectedAndActualE(%rip), %r
 128      000000
 129 00eb 488907   		movq	%rax, (%rdi)
 130 00ee E9000000 		jmp	_ZN8UnitTest4TestD2Ev@PLT
 130      00
 131              		.cfi_endproc
 132              	.LFE1567:
 134              		.set	_ZN12_GLOBAL__N_158TestCheckArray2DCloseFailureIncludesCheckExpectedAndActualD1Ev,_ZN12_GLOBA
 135 00f3 90       		.align 2
 136 00f4 66662E0F 		.p2align 4
 136      1F840000 
 136      00000090 
 138              	_ZN12_GLOBAL__N_136TestCheckArray2DCloseFailsOnNotEqualD2Ev:
 139              	.LFB1571:
 140              		.cfi_startproc
 141 0100 F30F1EFA 		endbr64
 142 0104 488D0500 		leaq	16+_ZTVN12_GLOBAL__N_136TestCheckArray2DCloseFailsOnNotEqualE(%rip), %rax
 142      000000
 143 010b 488907   		movq	%rax, (%rdi)
 144 010e E9000000 		jmp	_ZN8UnitTest4TestD2Ev@PLT
 144      00
 145              		.cfi_endproc
 146              	.LFE1571:
 148              		.set	_ZN12_GLOBAL__N_136TestCheckArray2DCloseFailsOnNotEqualD1Ev,_ZN12_GLOBAL__N_136TestCheckArray
 149 0113 90       		.align 2
 150 0114 66662E0F 		.p2align 4
 150      1F840000 
 150      00000090 
 152              	_ZN12_GLOBAL__N_136TestCheckArray2DCloseSucceedsOnEqualD2Ev:
 153              	.LFB1575:
 154              		.cfi_startproc
 155 0120 F30F1EFA 		endbr64
 156 0124 488D0500 		leaq	16+_ZTVN12_GLOBAL__N_136TestCheckArray2DCloseSucceedsOnEqualE(%rip), %rax
 156      000000
 157 012b 488907   		movq	%rax, (%rdi)
 158 012e E9000000 		jmp	_ZN8UnitTest4TestD2Ev@PLT
 158      00
 159              		.cfi_endproc
 160              	.LFE1575:
 162              		.set	_ZN12_GLOBAL__N_136TestCheckArray2DCloseSucceedsOnEqualD1Ev,_ZN12_GLOBAL__N_136TestCheckArray
 163 0133 90       		.align 2
 164 0134 66662E0F 		.p2align 4
 164      1F840000 
 164      00000090 
 166              	_ZN12_GLOBAL__N_152TestCheckArrayCloseDoesNotHaveSideEffectsWhenFailingD2Ev:
 167              	.LFB1579:
 168              		.cfi_startproc
 169 0140 F30F1EFA 		endbr64
 170 0144 488D0500 		leaq	16+_ZTVN12_GLOBAL__N_152TestCheckArrayCloseDoesNotHaveSideEffectsWhenFailingE(%rip), %rax
 170      000000
 171 014b 488907   		movq	%rax, (%rdi)
 172 014e E9000000 		jmp	_ZN8UnitTest4TestD2Ev@PLT
 172      00
 173              		.cfi_endproc
 174              	.LFE1579:
 176              		.set	_ZN12_GLOBAL__N_152TestCheckArrayCloseDoesNotHaveSideEffectsWhenFailingD1Ev,_ZN12_GLOBAL__N_1
 177 0153 90       		.align 2
 178 0154 66662E0F 		.p2align 4
 178      1F840000 
 178      00000090 
 180              	_ZN12_GLOBAL__N_152TestCheckArrayCloseDoesNotHaveSideEffectsWhenPassingD2Ev:
 181              	.LFB1583:
 182              		.cfi_startproc
 183 0160 F30F1EFA 		endbr64
 184 0164 488D0500 		leaq	16+_ZTVN12_GLOBAL__N_152TestCheckArrayCloseDoesNotHaveSideEffectsWhenPassingE(%rip), %rax
 184      000000
 185 016b 488907   		movq	%rax, (%rdi)
 186 016e E9000000 		jmp	_ZN8UnitTest4TestD2Ev@PLT
 186      00
 187              		.cfi_endproc
 188              	.LFE1583:
 190              		.set	_ZN12_GLOBAL__N_152TestCheckArrayCloseDoesNotHaveSideEffectsWhenPassingD1Ev,_ZN12_GLOBAL__N_1
 191 0173 90       		.align 2
 192 0174 66662E0F 		.p2align 4
 192      1F840000 
 192      00000090 
 194              	_ZN12_GLOBAL__N_158TestCheckArrayEqualFailureOnExceptionIncludesCheckContentsD2Ev:
 195              	.LFB1587:
 196              		.cfi_startproc
 197 0180 F30F1EFA 		endbr64
 198 0184 488D0500 		leaq	16+_ZTVN12_GLOBAL__N_158TestCheckArrayEqualFailureOnExceptionIncludesCheckContentsE(%rip), %r
 198      000000
 199 018b 488907   		movq	%rax, (%rdi)
 200 018e E9000000 		jmp	_ZN8UnitTest4TestD2Ev@PLT
 200      00
 201              		.cfi_endproc
 202              	.LFE1587:
 204              		.set	_ZN12_GLOBAL__N_158TestCheckArrayEqualFailureOnExceptionIncludesCheckContentsD1Ev,_ZN12_GLOBA
 205 0193 90       		.align 2
 206 0194 66662E0F 		.p2align 4
 206      1F840000 
 206      00000090 
 208              	_ZN12_GLOBAL__N_135TestCheckArrayEqualFailsOnExceptionD2Ev:
 209              	.LFB1591:
 210              		.cfi_startproc
 211 01a0 F30F1EFA 		endbr64
 212 01a4 488D0500 		leaq	16+_ZTVN12_GLOBAL__N_135TestCheckArrayEqualFailsOnExceptionE(%rip), %rax
 212      000000
 213 01ab 488907   		movq	%rax, (%rdi)
 214 01ae E9000000 		jmp	_ZN8UnitTest4TestD2Ev@PLT
 214      00
 215              		.cfi_endproc
 216              	.LFE1591:
 218              		.set	_ZN12_GLOBAL__N_135TestCheckArrayEqualFailsOnExceptionD1Ev,_ZN12_GLOBAL__N_135TestCheckArrayE
 219 01b3 90       		.align 2
 220 01b4 66662E0F 		.p2align 4
 220      1F840000 
 220      00000090 
 222              	_ZN12_GLOBAL__N_145TestCheckArrayEqualFailureContainsCorrectInfoD2Ev:
 223              	.LFB1595:
 224              		.cfi_startproc
 225 01c0 F30F1EFA 		endbr64
 226 01c4 488D0500 		leaq	16+_ZTVN12_GLOBAL__N_145TestCheckArrayEqualFailureContainsCorrectInfoE(%rip), %rax
 226      000000
 227 01cb 488907   		movq	%rax, (%rdi)
 228 01ce E9000000 		jmp	_ZN8UnitTest4TestD2Ev@PLT
 228      00
 229              		.cfi_endproc
 230              	.LFE1595:
 232              		.set	_ZN12_GLOBAL__N_145TestCheckArrayEqualFailureContainsCorrectInfoD1Ev,_ZN12_GLOBAL__N_145TestC
 233 01d3 90       		.align 2
 234 01d4 66662E0F 		.p2align 4
 234      1F840000 
 234      00000090 
 236              	_ZN12_GLOBAL__N_156TestCheckArrayEqualFailureIncludesCheckExpectedAndActualD2Ev:
 237              	.LFB1599:
 238              		.cfi_startproc
 239 01e0 F30F1EFA 		endbr64
 240 01e4 488D0500 		leaq	16+_ZTVN12_GLOBAL__N_156TestCheckArrayEqualFailureIncludesCheckExpectedAndActualE(%rip), %rax
 240      000000
 241 01eb 488907   		movq	%rax, (%rdi)
 242 01ee E9000000 		jmp	_ZN8UnitTest4TestD2Ev@PLT
 242      00
 243              		.cfi_endproc
 244              	.LFE1599:
 246              		.set	_ZN12_GLOBAL__N_156TestCheckArrayEqualFailureIncludesCheckExpectedAndActualD1Ev,_ZN12_GLOBAL_
 247 01f3 90       		.align 2
 248 01f4 66662E0F 		.p2align 4
 248      1F840000 
 248      00000090 
 250              	_ZN12_GLOBAL__N_134TestCheckArrayEqualFailsOnNotEqualD2Ev:
 251              	.LFB1603:
 252              		.cfi_startproc
 253 0200 F30F1EFA 		endbr64
 254 0204 488D0500 		leaq	16+_ZTVN12_GLOBAL__N_134TestCheckArrayEqualFailsOnNotEqualE(%rip), %rax
 254      000000
 255 020b 488907   		movq	%rax, (%rdi)
 256 020e E9000000 		jmp	_ZN8UnitTest4TestD2Ev@PLT
 256      00
 257              		.cfi_endproc
 258              	.LFE1603:
 260              		.set	_ZN12_GLOBAL__N_134TestCheckArrayEqualFailsOnNotEqualD1Ev,_ZN12_GLOBAL__N_134TestCheckArrayEq
 261 0213 90       		.align 2
 262 0214 66662E0F 		.p2align 4
 262      1F840000 
 262      00000090 
 264              	_ZN12_GLOBAL__N_133TestCheckArrayEqualSuceedsOnEqualD2Ev:
 265              	.LFB1607:
 266              		.cfi_startproc
 267 0220 F30F1EFA 		endbr64
 268 0224 488D0500 		leaq	16+_ZTVN12_GLOBAL__N_133TestCheckArrayEqualSuceedsOnEqualE(%rip), %rax
 268      000000
 269 022b 488907   		movq	%rax, (%rdi)
 270 022e E9000000 		jmp	_ZN8UnitTest4TestD2Ev@PLT
 270      00
 271              		.cfi_endproc
 272              	.LFE1607:
 274              		.set	_ZN12_GLOBAL__N_133TestCheckArrayEqualSuceedsOnEqualD1Ev,_ZN12_GLOBAL__N_133TestCheckArrayEqu
 275 0233 90       		.align 2
 276 0234 66662E0F 		.p2align 4
 276      1F840000 
 276      00000090 
 278              	_ZN12_GLOBAL__N_158TestCheckArrayCloseFailureOnExceptionIncludesCheckContentsD2Ev:
 279              	.LFB1611:
 280              		.cfi_startproc
 281 0240 F30F1EFA 		endbr64
 282 0244 488D0500 		leaq	16+_ZTVN12_GLOBAL__N_158TestCheckArrayCloseFailureOnExceptionIncludesCheckContentsE(%rip), %r
 282      000000
 283 024b 488907   		movq	%rax, (%rdi)
 284 024e E9000000 		jmp	_ZN8UnitTest4TestD2Ev@PLT
 284      00
 285              		.cfi_endproc
 286              	.LFE1611:
 288              		.set	_ZN12_GLOBAL__N_158TestCheckArrayCloseFailureOnExceptionIncludesCheckContentsD1Ev,_ZN12_GLOBA
 289 0253 90       		.align 2
 290 0254 66662E0F 		.p2align 4
 290      1F840000 
 290      00000090 
 292              	_ZN12_GLOBAL__N_135TestCheckArrayCloseFailsOnExceptionD2Ev:
 293              	.LFB1615:
 294              		.cfi_startproc
 295 0260 F30F1EFA 		endbr64
 296 0264 488D0500 		leaq	16+_ZTVN12_GLOBAL__N_135TestCheckArrayCloseFailsOnExceptionE(%rip), %rax
 296      000000
 297 026b 488907   		movq	%rax, (%rdi)
 298 026e E9000000 		jmp	_ZN8UnitTest4TestD2Ev@PLT
 298      00
 299              		.cfi_endproc
 300              	.LFE1615:
 302              		.set	_ZN12_GLOBAL__N_135TestCheckArrayCloseFailsOnExceptionD1Ev,_ZN12_GLOBAL__N_135TestCheckArrayC
 303 0273 90       		.align 2
 304 0274 66662E0F 		.p2align 4
 304      1F840000 
 304      00000090 
 306              	_ZN12_GLOBAL__N_143TestCheckArrayCloseFailureIncludesToleranceD2Ev:
 307              	.LFB1619:
 308              		.cfi_startproc
 309 0280 F30F1EFA 		endbr64
 310 0284 488D0500 		leaq	16+_ZTVN12_GLOBAL__N_143TestCheckArrayCloseFailureIncludesToleranceE(%rip), %rax
 310      000000
 311 028b 488907   		movq	%rax, (%rdi)
 312 028e E9000000 		jmp	_ZN8UnitTest4TestD2Ev@PLT
 312      00
 313              		.cfi_endproc
 314              	.LFE1619:
 316              		.set	_ZN12_GLOBAL__N_143TestCheckArrayCloseFailureIncludesToleranceD1Ev,_ZN12_GLOBAL__N_143TestChe
 317 0293 90       		.align 2
 318 0294 66662E0F 		.p2align 4
 318      1F840000 
 318      00000090 
 320              	_ZN12_GLOBAL__N_166TestCheckArrayCloseFailureBecauseOfExceptionContainsCorrectDetailsD2Ev:
 321              	.LFB1623:
 322              		.cfi_startproc
 323 02a0 F30F1EFA 		endbr64
 324 02a4 488D0500 		leaq	16+_ZTVN12_GLOBAL__N_166TestCheckArrayCloseFailureBecauseOfExceptionContainsCorrectDetailsE(%
 324      000000
 325 02ab 488907   		movq	%rax, (%rdi)
 326 02ae E9000000 		jmp	_ZN8UnitTest4TestD2Ev@PLT
 326      00
 327              		.cfi_endproc
 328              	.LFE1623:
 330              		.set	_ZN12_GLOBAL__N_166TestCheckArrayCloseFailureBecauseOfExceptionContainsCorrectDetailsD1Ev,_ZN
 331 02b3 90       		.align 2
 332 02b4 66662E0F 		.p2align 4
 332      1F840000 
 332      00000090 
 334              	_ZN12_GLOBAL__N_148TestCheckArrayCloseFailureContainsCorrectDetailsD2Ev:
 335              	.LFB1627:
 336              		.cfi_startproc
 337 02c0 F30F1EFA 		endbr64
 338 02c4 488D0500 		leaq	16+_ZTVN12_GLOBAL__N_148TestCheckArrayCloseFailureContainsCorrectDetailsE(%rip), %rax
 338      000000
 339 02cb 488907   		movq	%rax, (%rdi)
 340 02ce E9000000 		jmp	_ZN8UnitTest4TestD2Ev@PLT
 340      00
 341              		.cfi_endproc
 342              	.LFE1627:
 344              		.set	_ZN12_GLOBAL__N_148TestCheckArrayCloseFailureContainsCorrectDetailsD1Ev,_ZN12_GLOBAL__N_148Te
 345 02d3 90       		.align 2
 346 02d4 66662E0F 		.p2align 4
 346      1F840000 
 346      00000090 
 348              	_ZN12_GLOBAL__N_156TestCheckArrayCloseFailureIncludesCheckExpectedAndActualD2Ev:
 349              	.LFB1631:
 350              		.cfi_startproc
 351 02e0 F30F1EFA 		endbr64
 352 02e4 488D0500 		leaq	16+_ZTVN12_GLOBAL__N_156TestCheckArrayCloseFailureIncludesCheckExpectedAndActualE(%rip), %rax
 352      000000
 353 02eb 488907   		movq	%rax, (%rdi)
 354 02ee E9000000 		jmp	_ZN8UnitTest4TestD2Ev@PLT
 354      00
 355              		.cfi_endproc
 356              	.LFE1631:
 358              		.set	_ZN12_GLOBAL__N_156TestCheckArrayCloseFailureIncludesCheckExpectedAndActualD1Ev,_ZN12_GLOBAL_
 359 02f3 90       		.align 2
 360 02f4 66662E0F 		.p2align 4
 360      1F840000 
 360      00000090 
 362              	_ZN12_GLOBAL__N_134TestCheckArrayCloseFailsOnNotEqualD2Ev:
 363              	.LFB1635:
 364              		.cfi_startproc
 365 0300 F30F1EFA 		endbr64
 366 0304 488D0500 		leaq	16+_ZTVN12_GLOBAL__N_134TestCheckArrayCloseFailsOnNotEqualE(%rip), %rax
 366      000000
 367 030b 488907   		movq	%rax, (%rdi)
 368 030e E9000000 		jmp	_ZN8UnitTest4TestD2Ev@PLT
 368      00
 369              		.cfi_endproc
 370              	.LFE1635:
 372              		.set	_ZN12_GLOBAL__N_134TestCheckArrayCloseFailsOnNotEqualD1Ev,_ZN12_GLOBAL__N_134TestCheckArrayCl
 373 0313 90       		.align 2
 374 0314 66662E0F 		.p2align 4
 374      1F840000 
 374      00000090 
 376              	_ZN12_GLOBAL__N_134TestCheckArrayCloseSucceedsOnEqualD2Ev:
 377              	.LFB1639:
 378              		.cfi_startproc
 379 0320 F30F1EFA 		endbr64
 380 0324 488D0500 		leaq	16+_ZTVN12_GLOBAL__N_134TestCheckArrayCloseSucceedsOnEqualE(%rip), %rax
 380      000000
 381 032b 488907   		movq	%rax, (%rdi)
 382 032e E9000000 		jmp	_ZN8UnitTest4TestD2Ev@PLT
 382      00
 383              		.cfi_endproc
 384              	.LFE1639:
 386              		.set	_ZN12_GLOBAL__N_134TestCheckArrayCloseSucceedsOnEqualD1Ev,_ZN12_GLOBAL__N_134TestCheckArrayCl
 387 0333 90       		.align 2
 388 0334 66662E0F 		.p2align 4
 388      1F840000 
 388      00000090 
 390              	_ZN12_GLOBAL__N_147TestCheckCloseDoesNotHaveSideEffectsWhenFailingD2Ev:
 391              	.LFB1643:
 392              		.cfi_startproc
 393 0340 F30F1EFA 		endbr64
 394 0344 488D0500 		leaq	16+_ZTVN12_GLOBAL__N_147TestCheckCloseDoesNotHaveSideEffectsWhenFailingE(%rip), %rax
 394      000000
 395 034b 488907   		movq	%rax, (%rdi)
 396 034e E9000000 		jmp	_ZN8UnitTest4TestD2Ev@PLT
 396      00
 397              		.cfi_endproc
 398              	.LFE1643:
 400              		.set	_ZN12_GLOBAL__N_147TestCheckCloseDoesNotHaveSideEffectsWhenFailingD1Ev,_ZN12_GLOBAL__N_147Tes
 401 0353 90       		.align 2
 402 0354 66662E0F 		.p2align 4
 402      1F840000 
 402      00000090 
 404              	_ZN12_GLOBAL__N_147TestCheckCloseDoesNotHaveSideEffectsWhenPassingD2Ev:
 405              	.LFB1647:
 406              		.cfi_startproc
 407 0360 F30F1EFA 		endbr64
 408 0364 488D0500 		leaq	16+_ZTVN12_GLOBAL__N_147TestCheckCloseDoesNotHaveSideEffectsWhenPassingE(%rip), %rax
 408      000000
 409 036b 488907   		movq	%rax, (%rdi)
 410 036e E9000000 		jmp	_ZN8UnitTest4TestD2Ev@PLT
 410      00
 411              		.cfi_endproc
 412              	.LFE1647:
 414              		.set	_ZN12_GLOBAL__N_147TestCheckCloseDoesNotHaveSideEffectsWhenPassingD1Ev,_ZN12_GLOBAL__N_147Tes
 415 0373 90       		.align 2
 416 0374 66662E0F 		.p2align 4
 416      1F840000 
 416      00000090 
 418              	_ZN12_GLOBAL__N_160TestCheckCloseFailureBecauseOfExceptionIncludesCheckContentsD2Ev:
 419              	.LFB1651:
 420              		.cfi_startproc
 421 0380 F30F1EFA 		endbr64
 422 0384 488D0500 		leaq	16+_ZTVN12_GLOBAL__N_160TestCheckCloseFailureBecauseOfExceptionIncludesCheckContentsE(%rip), 
 422      000000
 423 038b 488907   		movq	%rax, (%rdi)
 424 038e E9000000 		jmp	_ZN8UnitTest4TestD2Ev@PLT
 424      00
 425              		.cfi_endproc
 426              	.LFE1651:
 428              		.set	_ZN12_GLOBAL__N_160TestCheckCloseFailureBecauseOfExceptionIncludesCheckContentsD1Ev,_ZN12_GLO
 429 0393 90       		.align 2
 430 0394 66662E0F 		.p2align 4
 430      1F840000 
 430      00000090 
 432              	_ZN12_GLOBAL__N_161TestCheckCloseFailureBecauseOfExceptionContainsCorrectDetailsD2Ev:
 433              	.LFB1655:
 434              		.cfi_startproc
 435 03a0 F30F1EFA 		endbr64
 436 03a4 488D0500 		leaq	16+_ZTVN12_GLOBAL__N_161TestCheckCloseFailureBecauseOfExceptionContainsCorrectDetailsE(%rip),
 436      000000
 437 03ab 488907   		movq	%rax, (%rdi)
 438 03ae E9000000 		jmp	_ZN8UnitTest4TestD2Ev@PLT
 438      00
 439              		.cfi_endproc
 440              	.LFE1655:
 442              		.set	_ZN12_GLOBAL__N_161TestCheckCloseFailureBecauseOfExceptionContainsCorrectDetailsD1Ev,_ZN12_GL
 443 03b3 90       		.align 2
 444 03b4 66662E0F 		.p2align 4
 444      1F840000 
 444      00000090 
 446              	_ZN12_GLOBAL__N_143TestCheckCloseFailureContainsCorrectDetailsD2Ev:
 447              	.LFB1659:
 448              		.cfi_startproc
 449 03c0 F30F1EFA 		endbr64
 450 03c4 488D0500 		leaq	16+_ZTVN12_GLOBAL__N_143TestCheckCloseFailureContainsCorrectDetailsE(%rip), %rax
 450      000000
 451 03cb 488907   		movq	%rax, (%rdi)
 452 03ce E9000000 		jmp	_ZN8UnitTest4TestD2Ev@PLT
 452      00
 453              		.cfi_endproc
 454              	.LFE1659:
 456              		.set	_ZN12_GLOBAL__N_143TestCheckCloseFailureContainsCorrectDetailsD1Ev,_ZN12_GLOBAL__N_143TestChe
 457 03d3 90       		.align 2
 458 03d4 66662E0F 		.p2align 4
 458      1F840000 
 458      00000090 
 460              	_ZN12_GLOBAL__N_130TestCheckCloseFailsOnExceptionD2Ev:
 461              	.LFB1663:
 462              		.cfi_startproc
 463 03e0 F30F1EFA 		endbr64
 464 03e4 488D0500 		leaq	16+_ZTVN12_GLOBAL__N_130TestCheckCloseFailsOnExceptionE(%rip), %rax
 464      000000
 465 03eb 488907   		movq	%rax, (%rdi)
 466 03ee E9000000 		jmp	_ZN8UnitTest4TestD2Ev@PLT
 466      00
 467              		.cfi_endproc
 468              	.LFE1663:
 470              		.set	_ZN12_GLOBAL__N_130TestCheckCloseFailsOnExceptionD1Ev,_ZN12_GLOBAL__N_130TestCheckCloseFailsO
 471 03f3 90       		.align 2
 472 03f4 66662E0F 		.p2align 4
 472      1F840000 
 472      00000090 
 474              	_ZN12_GLOBAL__N_129TestCheckCloseFailsOnNotEqualD2Ev:
 475              	.LFB1667:
 476              		.cfi_startproc
 477 0400 F30F1EFA 		endbr64
 478 0404 488D0500 		leaq	16+_ZTVN12_GLOBAL__N_129TestCheckCloseFailsOnNotEqualE(%rip), %rax
 478      000000
 479 040b 488907   		movq	%rax, (%rdi)
 480 040e E9000000 		jmp	_ZN8UnitTest4TestD2Ev@PLT
 480      00
 481              		.cfi_endproc
 482              	.LFE1667:
 484              		.set	_ZN12_GLOBAL__N_129TestCheckCloseFailsOnNotEqualD1Ev,_ZN12_GLOBAL__N_129TestCheckCloseFailsOn
 485 0413 90       		.align 2
 486 0414 66662E0F 		.p2align 4
 486      1F840000 
 486      00000090 
 488              	_ZN12_GLOBAL__N_129TestCheckCloseSucceedsOnEqualD2Ev:
 489              	.LFB1671:
 490              		.cfi_startproc
 491 0420 F30F1EFA 		endbr64
 492 0424 488D0500 		leaq	16+_ZTVN12_GLOBAL__N_129TestCheckCloseSucceedsOnEqualE(%rip), %rax
 492      000000
 493 042b 488907   		movq	%rax, (%rdi)
 494 042e E9000000 		jmp	_ZN8UnitTest4TestD2Ev@PLT
 494      00
 495              		.cfi_endproc
 496              	.LFE1671:
 498              		.set	_ZN12_GLOBAL__N_129TestCheckCloseSucceedsOnEqualD1Ev,_ZN12_GLOBAL__N_129TestCheckCloseSucceed
 499 0433 90       		.align 2
 500 0434 66662E0F 		.p2align 4
 500      1F840000 
 500      00000090 
 502              	_ZN12_GLOBAL__N_147TestCheckEqualDoesNotHaveSideEffectsWhenFailingD2Ev:
 503              	.LFB1675:
 504              		.cfi_startproc
 505 0440 F30F1EFA 		endbr64
 506 0444 488D0500 		leaq	16+_ZTVN12_GLOBAL__N_147TestCheckEqualDoesNotHaveSideEffectsWhenFailingE(%rip), %rax
 506      000000
 507 044b 488907   		movq	%rax, (%rdi)
 508 044e E9000000 		jmp	_ZN8UnitTest4TestD2Ev@PLT
 508      00
 509              		.cfi_endproc
 510              	.LFE1675:
 512              		.set	_ZN12_GLOBAL__N_147TestCheckEqualDoesNotHaveSideEffectsWhenFailingD1Ev,_ZN12_GLOBAL__N_147Tes
 513 0453 90       		.align 2
 514 0454 66662E0F 		.p2align 4
 514      1F840000 
 514      00000090 
 516              	_ZN12_GLOBAL__N_147TestCheckEqualDoesNotHaveSideEffectsWhenPassingD2Ev:
 517              	.LFB1679:
 518              		.cfi_startproc
 519 0460 F30F1EFA 		endbr64
 520 0464 488D0500 		leaq	16+_ZTVN12_GLOBAL__N_147TestCheckEqualDoesNotHaveSideEffectsWhenPassingE(%rip), %rax
 520      000000
 521 046b 488907   		movq	%rax, (%rdi)
 522 046e E9000000 		jmp	_ZN8UnitTest4TestD2Ev@PLT
 522      00
 523              		.cfi_endproc
 524              	.LFE1679:
 526              		.set	_ZN12_GLOBAL__N_147TestCheckEqualDoesNotHaveSideEffectsWhenPassingD1Ev,_ZN12_GLOBAL__N_147Tes
 527 0473 90       		.align 2
 528 0474 66662E0F 		.p2align 4
 528      1F840000 
 528      00000090 
 530              	_ZN12_GLOBAL__N_160TestCheckEqualFailureBecauseOfExceptionIncludesCheckContentsD2Ev:
 531              	.LFB1683:
 532              		.cfi_startproc
 533 0480 F30F1EFA 		endbr64
 534 0484 488D0500 		leaq	16+_ZTVN12_GLOBAL__N_160TestCheckEqualFailureBecauseOfExceptionIncludesCheckContentsE(%rip), 
 534      000000
 535 048b 488907   		movq	%rax, (%rdi)
 536 048e E9000000 		jmp	_ZN8UnitTest4TestD2Ev@PLT
 536      00
 537              		.cfi_endproc
 538              	.LFE1683:
 540              		.set	_ZN12_GLOBAL__N_160TestCheckEqualFailureBecauseOfExceptionIncludesCheckContentsD1Ev,_ZN12_GLO
 541 0493 90       		.align 2
 542 0494 66662E0F 		.p2align 4
 542      1F840000 
 542      00000090 
 544              	_ZN12_GLOBAL__N_161TestCheckEqualFailureBecauseOfExceptionContainsCorrectDetailsD2Ev:
 545              	.LFB1687:
 546              		.cfi_startproc
 547 04a0 F30F1EFA 		endbr64
 548 04a4 488D0500 		leaq	16+_ZTVN12_GLOBAL__N_161TestCheckEqualFailureBecauseOfExceptionContainsCorrectDetailsE(%rip),
 548      000000
 549 04ab 488907   		movq	%rax, (%rdi)
 550 04ae E9000000 		jmp	_ZN8UnitTest4TestD2Ev@PLT
 550      00
 551              		.cfi_endproc
 552              	.LFE1687:
 554              		.set	_ZN12_GLOBAL__N_161TestCheckEqualFailureBecauseOfExceptionContainsCorrectDetailsD1Ev,_ZN12_GL
 555 04b3 90       		.align 2
 556 04b4 66662E0F 		.p2align 4
 556      1F840000 
 556      00000090 
 558              	_ZN12_GLOBAL__N_143TestCheckEqualFailureContainsCorrectDetailsD2Ev:
 559              	.LFB1691:
 560              		.cfi_startproc
 561 04c0 F30F1EFA 		endbr64
 562 04c4 488D0500 		leaq	16+_ZTVN12_GLOBAL__N_143TestCheckEqualFailureContainsCorrectDetailsE(%rip), %rax
 562      000000
 563 04cb 488907   		movq	%rax, (%rdi)
 564 04ce E9000000 		jmp	_ZN8UnitTest4TestD2Ev@PLT
 564      00
 565              		.cfi_endproc
 566              	.LFE1691:
 568              		.set	_ZN12_GLOBAL__N_143TestCheckEqualFailureContainsCorrectDetailsD1Ev,_ZN12_GLOBAL__N_143TestChe
 569 04d3 90       		.align 2
 570 04d4 66662E0F 		.p2align 4
 570      1F840000 
 570      00000090 
 572              	_ZN12_GLOBAL__N_130TestCheckEqualFailsOnExceptionD2Ev:
 573              	.LFB1695:
 574              		.cfi_startproc
 575 04e0 F30F1EFA 		endbr64
 576 04e4 488D0500 		leaq	16+_ZTVN12_GLOBAL__N_130TestCheckEqualFailsOnExceptionE(%rip), %rax
 576      000000
 577 04eb 488907   		movq	%rax, (%rdi)
 578 04ee E9000000 		jmp	_ZN8UnitTest4TestD2Ev@PLT
 578      00
 579              		.cfi_endproc
 580              	.LFE1695:
 582              		.set	_ZN12_GLOBAL__N_130TestCheckEqualFailsOnExceptionD1Ev,_ZN12_GLOBAL__N_130TestCheckEqualFailsO
 583 04f3 90       		.align 2
 584 04f4 66662E0F 		.p2align 4
 584      1F840000 
 584      00000090 
 586              	_ZN12_GLOBAL__N_129TestCheckEqualFailsOnNotEqualD2Ev:
 587              	.LFB1699:
 588              		.cfi_startproc
 589 0500 F30F1EFA 		endbr64
 590 0504 488D0500 		leaq	16+_ZTVN12_GLOBAL__N_129TestCheckEqualFailsOnNotEqualE(%rip), %rax
 590      000000
 591 050b 488907   		movq	%rax, (%rdi)
 592 050e E9000000 		jmp	_ZN8UnitTest4TestD2Ev@PLT
 592      00
 593              		.cfi_endproc
 594              	.LFE1699:
 596              		.set	_ZN12_GLOBAL__N_129TestCheckEqualFailsOnNotEqualD1Ev,_ZN12_GLOBAL__N_129TestCheckEqualFailsOn
 597 0513 90       		.align 2
 598 0514 66662E0F 		.p2align 4
 598      1F840000 
 598      00000090 
 600              	_ZN12_GLOBAL__N_129TestCheckEqualSucceedsOnEqualD2Ev:
 601              	.LFB1703:
 602              		.cfi_startproc
 603 0520 F30F1EFA 		endbr64
 604 0524 488D0500 		leaq	16+_ZTVN12_GLOBAL__N_129TestCheckEqualSucceedsOnEqualE(%rip), %rax
 604      000000
 605 052b 488907   		movq	%rax, (%rdi)
 606 052e E9000000 		jmp	_ZN8UnitTest4TestD2Ev@PLT
 606      00
 607              		.cfi_endproc
 608              	.LFE1703:
 610              		.set	_ZN12_GLOBAL__N_129TestCheckEqualSucceedsOnEqualD1Ev,_ZN12_GLOBAL__N_129TestCheckEqualSucceed
 611 0533 90       		.align 2
 612 0534 66662E0F 		.p2align 4
 612      1F840000 
 612      00000090 
 614              	_ZN12_GLOBAL__N_155TestCheckFailureBecauseOfExceptionIncludesCheckContentsD2Ev:
 615              	.LFB1707:
 616              		.cfi_startproc
 617 0540 F30F1EFA 		endbr64
 618 0544 488D0500 		leaq	16+_ZTVN12_GLOBAL__N_155TestCheckFailureBecauseOfExceptionIncludesCheckContentsE(%rip), %rax
 618      000000
 619 054b 488907   		movq	%rax, (%rdi)
 620 054e E9000000 		jmp	_ZN8UnitTest4TestD2Ev@PLT
 620      00
 621              		.cfi_endproc
 622              	.LFE1707:
 624              		.set	_ZN12_GLOBAL__N_155TestCheckFailureBecauseOfExceptionIncludesCheckContentsD1Ev,_ZN12_GLOBAL__
 625 0553 90       		.align 2
 626 0554 66662E0F 		.p2align 4
 626      1F840000 
 626      00000090 
 628              	_ZN12_GLOBAL__N_125TestCheckFailsOnExceptionD2Ev:
 629              	.LFB1711:
 630              		.cfi_startproc
 631 0560 F30F1EFA 		endbr64
 632 0564 488D0500 		leaq	16+_ZTVN12_GLOBAL__N_125TestCheckFailsOnExceptionE(%rip), %rax
 632      000000
 633 056b 488907   		movq	%rax, (%rdi)
 634 056e E9000000 		jmp	_ZN8UnitTest4TestD2Ev@PLT
 634      00
 635              		.cfi_endproc
 636              	.LFE1711:
 638              		.set	_ZN12_GLOBAL__N_125TestCheckFailsOnExceptionD1Ev,_ZN12_GLOBAL__N_125TestCheckFailsOnException
 639 0573 90       		.align 2
 640 0574 66662E0F 		.p2align 4
 640      1F840000 
 640      00000090 
 642              	_ZN12_GLOBAL__N_137TestCheckFailureIncludesCheckContentsD2Ev:
 643              	.LFB1715:
 644              		.cfi_startproc
 645 0580 F30F1EFA 		endbr64
 646 0584 488D0500 		leaq	16+_ZTVN12_GLOBAL__N_137TestCheckFailureIncludesCheckContentsE(%rip), %rax
 646      000000
 647 058b 488907   		movq	%rax, (%rdi)
 648 058e E9000000 		jmp	_ZN8UnitTest4TestD2Ev@PLT
 648      00
 649              		.cfi_endproc
 650              	.LFE1715:
 652              		.set	_ZN12_GLOBAL__N_137TestCheckFailureIncludesCheckContentsD1Ev,_ZN12_GLOBAL__N_137TestCheckFail
 653 0593 90       		.align 2
 654 0594 66662E0F 		.p2align 4
 654      1F840000 
 654      00000090 
 656              	_ZN12_GLOBAL__N_133TestFailureReportsCorrectTestNameD2Ev:
 657              	.LFB1719:
 658              		.cfi_startproc
 659 05a0 F30F1EFA 		endbr64
 660 05a4 488D0500 		leaq	16+_ZTVN12_GLOBAL__N_133TestFailureReportsCorrectTestNameE(%rip), %rax
 660      000000
 661 05ab 488907   		movq	%rax, (%rdi)
 662 05ae E9000000 		jmp	_ZN8UnitTest4TestD2Ev@PLT
 662      00
 663              		.cfi_endproc
 664              	.LFE1719:
 666              		.set	_ZN12_GLOBAL__N_133TestFailureReportsCorrectTestNameD1Ev,_ZN12_GLOBAL__N_133TestFailureReport
 667 05b3 90       		.align 2
 668 05b4 66662E0F 		.p2align 4
 668      1F840000 
 668      00000090 
 670              	_ZN12_GLOBAL__N_121TestCheckFailsOnFalseD2Ev:
 671              	.LFB1723:
 672              		.cfi_startproc
 673 05c0 F30F1EFA 		endbr64
 674 05c4 488D0500 		leaq	16+_ZTVN12_GLOBAL__N_121TestCheckFailsOnFalseE(%rip), %rax
 674      000000
 675 05cb 488907   		movq	%rax, (%rdi)
 676 05ce E9000000 		jmp	_ZN8UnitTest4TestD2Ev@PLT
 676      00
 677              		.cfi_endproc
 678              	.LFE1723:
 680              		.set	_ZN12_GLOBAL__N_121TestCheckFailsOnFalseD1Ev,_ZN12_GLOBAL__N_121TestCheckFailsOnFalseD2Ev
 681 05d3 90       		.align 2
 682 05d4 66662E0F 		.p2align 4
 682      1F840000 
 682      00000090 
 684              	_ZN12_GLOBAL__N_123TestCheckSucceedsOnTrueD2Ev:
 685              	.LFB1727:
 686              		.cfi_startproc
 687 05e0 F30F1EFA 		endbr64
 688 05e4 488D0500 		leaq	16+_ZTVN12_GLOBAL__N_123TestCheckSucceedsOnTrueE(%rip), %rax
 688      000000
 689 05eb 488907   		movq	%rax, (%rdi)
 690 05ee E9000000 		jmp	_ZN8UnitTest4TestD2Ev@PLT
 690      00
 691              		.cfi_endproc
 692              	.LFE1727:
 694              		.set	_ZN12_GLOBAL__N_123TestCheckSucceedsOnTrueD1Ev,_ZN12_GLOBAL__N_123TestCheckSucceedsOnTrueD2Ev
 695              		.section	.text.unlikely,"ax",@progbits
 696              		.align 2
 697              	.LCOLDB0:
 698              		.text
 699              	.LHOTB0:
 700 05f3 90       		.align 2
 701 05f4 66662E0F 		.p2align 4
 701      1F840000 
 701      00000090 
 703              	_ZN12_GLOBAL__N_154TestCheckArray2DCloseDoesNotHaveSideEffectsWhenFailingD0Ev:
 704              	.LFB1541:
 705              		.cfi_startproc
 706              		.cfi_personality 0x9b,DW.ref.__gxx_personality_v0
 707              		.cfi_lsda 0x1b,.LLSDA1541
 708 0600 F30F1EFA 		endbr64
 709 0604 4154     		pushq	%r12
 710              		.cfi_def_cfa_offset 16
 711              		.cfi_offset 12, -16
 712 0606 488D0500 		leaq	16+_ZTVN12_GLOBAL__N_154TestCheckArray2DCloseDoesNotHaveSideEffectsWhenFailingE(%rip), %rax
 712      000000
 713 060d 55       		pushq	%rbp
 714              		.cfi_def_cfa_offset 24
 715              		.cfi_offset 6, -24
 716 060e 4889FD   		movq	%rdi, %rbp
 717 0611 4883EC08 		subq	$8, %rsp
 718              		.cfi_def_cfa_offset 32
 719 0615 488907   		movq	%rax, (%rdi)
 720              	.LEHB0:
 721 0618 E8000000 		call	_ZN8UnitTest4TestD2Ev@PLT
 721      00
 722              	.LEHE0:
 723 061d 4883C408 		addq	$8, %rsp
 724              		.cfi_remember_state
 725              		.cfi_def_cfa_offset 24
 726 0621 4889EF   		movq	%rbp, %rdi
 727 0624 5D       		popq	%rbp
 728              		.cfi_def_cfa_offset 16
 729 0625 415C     		popq	%r12
 730              		.cfi_def_cfa_offset 8
 731 0627 E9000000 		jmp	_ZdlPv@PLT
 731      00
 732              	.L53:
 733              		.cfi_restore_state
 734 062c F30F1EFA 		endbr64
 735 0630 4989C4   		movq	%rax, %r12
 736 0633 E9000000 		jmp	.L52
 736      00
 737              		.globl	__gxx_personality_v0
 738              		.section	.gcc_except_table,"a",@progbits
 739              	.LLSDA1541:
 740 0000 FF       		.byte	0xff
 741 0001 FF       		.byte	0xff
 742 0002 01       		.byte	0x1
 743 0003 04       		.uleb128 .LLSDACSE1541-.LLSDACSB1541
 744              	.LLSDACSB1541:
 745 0004 18       		.uleb128 .LEHB0-.LFB1541
 746 0005 05       		.uleb128 .LEHE0-.LEHB0
 747 0006 2C       		.uleb128 .L53-.LFB1541
 748 0007 00       		.uleb128 0
 749              	.LLSDACSE1541:
 750              		.text
 751              		.cfi_endproc
 752              		.section	.text.unlikely
 753              		.cfi_startproc
 754              		.cfi_personality 0x9b,DW.ref.__gxx_personality_v0
 755              		.cfi_lsda 0x1b,.LLSDAC1541
 757              	_ZN12_GLOBAL__N_154TestCheckArray2DCloseDoesNotHaveSideEffectsWhenFailingD0Ev.cold:
 758              	.LFSB1541:
 759              	.L52:
 760              		.cfi_def_cfa_offset 32
 761              		.cfi_offset 6, -24
 762              		.cfi_offset 12, -16
 763 0000 4889EF   		movq	%rbp, %rdi
 764 0003 E8000000 		call	_ZdlPv@PLT
 764      00
 765 0008 4C89E7   		movq	%r12, %rdi
 766              	.LEHB1:
 767 000b E8000000 		call	_Unwind_Resume@PLT
 767      00
 768              	.LEHE1:
 769              		.cfi_endproc
 770              	.LFE1541:
 771              		.section	.gcc_except_table
 772              	.LLSDAC1541:
 773 0008 FF       		.byte	0xff
 774 0009 FF       		.byte	0xff
 775 000a 01       		.byte	0x1
 776 000b 04       		.uleb128 .LLSDACSEC1541-.LLSDACSBC1541
 777              	.LLSDACSBC1541:
 778 000c 0B       		.uleb128 .LEHB1-.LCOLDB0
 779 000d 05       		.uleb128 .LEHE1-.LEHB1
 780 000e 00       		.uleb128 0
 781 000f 00       		.uleb128 0
 782              	.LLSDACSEC1541:
 783              		.section	.text.unlikely
 784              		.text
 786              		.section	.text.unlikely
 788              	.LCOLDE0:
 789              		.text
 790              	.LHOTE0:
 791              		.section	.text.unlikely
 792              		.align 2
 793              	.LCOLDB1:
 794              		.text
 795              	.LHOTB1:
 796              		.align 2
 797 0638 0F1F8400 		.p2align 4
 797      00000000 
 799              	_ZN12_GLOBAL__N_154TestCheckArray2DCloseDoesNotHaveSideEffectsWhenPassingD0Ev:
 800              	.LFB1545:
 801              		.cfi_startproc
 802              		.cfi_personality 0x9b,DW.ref.__gxx_personality_v0
 803              		.cfi_lsda 0x1b,.LLSDA1545
 804 0640 F30F1EFA 		endbr64
 805 0644 4154     		pushq	%r12
 806              		.cfi_def_cfa_offset 16
 807              		.cfi_offset 12, -16
 808 0646 488D0500 		leaq	16+_ZTVN12_GLOBAL__N_154TestCheckArray2DCloseDoesNotHaveSideEffectsWhenPassingE(%rip), %rax
 808      000000
 809 064d 55       		pushq	%rbp
 810              		.cfi_def_cfa_offset 24
 811              		.cfi_offset 6, -24
 812 064e 4889FD   		movq	%rdi, %rbp
 813 0651 4883EC08 		subq	$8, %rsp
 814              		.cfi_def_cfa_offset 32
 815 0655 488907   		movq	%rax, (%rdi)
 816              	.LEHB2:
 817 0658 E8000000 		call	_ZN8UnitTest4TestD2Ev@PLT
 817      00
 818              	.LEHE2:
 819 065d 4883C408 		addq	$8, %rsp
 820              		.cfi_remember_state
 821              		.cfi_def_cfa_offset 24
 822 0661 4889EF   		movq	%rbp, %rdi
 823 0664 5D       		popq	%rbp
 824              		.cfi_def_cfa_offset 16
 825 0665 415C     		popq	%r12
 826              		.cfi_def_cfa_offset 8
 827 0667 E9000000 		jmp	_ZdlPv@PLT
 827      00
 828              	.L57:
 829              		.cfi_restore_state
 830 066c F30F1EFA 		endbr64
 831 0670 4989C4   		movq	%rax, %r12
 832 0673 E9000000 		jmp	.L56
 832      00
 833              		.section	.gcc_except_table
 834              	.LLSDA1545:
 835 0010 FF       		.byte	0xff
 836 0011 FF       		.byte	0xff
 837 0012 01       		.byte	0x1
 838 0013 04       		.uleb128 .LLSDACSE1545-.LLSDACSB1545
 839              	.LLSDACSB1545:
 840 0014 18       		.uleb128 .LEHB2-.LFB1545
 841 0015 05       		.uleb128 .LEHE2-.LEHB2
 842 0016 2C       		.uleb128 .L57-.LFB1545
 843 0017 00       		.uleb128 0
 844              	.LLSDACSE1545:
 845              		.text
 846              		.cfi_endproc
 847              		.section	.text.unlikely
 848              		.cfi_startproc
 849              		.cfi_personality 0x9b,DW.ref.__gxx_personality_v0
 850              		.cfi_lsda 0x1b,.LLSDAC1545
 852              	_ZN12_GLOBAL__N_154TestCheckArray2DCloseDoesNotHaveSideEffectsWhenPassingD0Ev.cold:
 853              	.LFSB1545:
 854              	.L56:
 855              		.cfi_def_cfa_offset 32
 856              		.cfi_offset 6, -24
 857              		.cfi_offset 12, -16
 858 0010 4889EF   		movq	%rbp, %rdi
 859 0013 E8000000 		call	_ZdlPv@PLT
 859      00
 860 0018 4C89E7   		movq	%r12, %rdi
 861              	.LEHB3:
 862 001b E8000000 		call	_Unwind_Resume@PLT
 862      00
 863              	.LEHE3:
 864              		.cfi_endproc
 865              	.LFE1545:
 866              		.section	.gcc_except_table
 867              	.LLSDAC1545:
 868 0018 FF       		.byte	0xff
 869 0019 FF       		.byte	0xff
 870 001a 01       		.byte	0x1
 871 001b 04       		.uleb128 .LLSDACSEC1545-.LLSDACSBC1545
 872              	.LLSDACSBC1545:
 873 001c 0B       		.uleb128 .LEHB3-.LCOLDB1
 874 001d 05       		.uleb128 .LEHE3-.LEHB3
 875 001e 00       		.uleb128 0
 876 001f 00       		.uleb128 0
 877              	.LLSDACSEC1545:
 878              		.section	.text.unlikely
 879              		.text
 881              		.section	.text.unlikely
 883              	.LCOLDE1:
 884              		.text
 885              	.LHOTE1:
 886              		.section	.text.unlikely
 887              		.align 2
 888              	.LCOLDB2:
 889              		.text
 890              	.LHOTB2:
 891              		.align 2
 892 0678 0F1F8400 		.p2align 4
 892      00000000 
 894              	_ZN12_GLOBAL__N_160TestCheckArray2DCloseFailureOnExceptionIncludesCheckContentsD0Ev:
 895              	.LFB1549:
 896              		.cfi_startproc
 897              		.cfi_personality 0x9b,DW.ref.__gxx_personality_v0
 898              		.cfi_lsda 0x1b,.LLSDA1549
 899 0680 F30F1EFA 		endbr64
 900 0684 4154     		pushq	%r12
 901              		.cfi_def_cfa_offset 16
 902              		.cfi_offset 12, -16
 903 0686 488D0500 		leaq	16+_ZTVN12_GLOBAL__N_160TestCheckArray2DCloseFailureOnExceptionIncludesCheckContentsE(%rip), 
 903      000000
 904 068d 55       		pushq	%rbp
 905              		.cfi_def_cfa_offset 24
 906              		.cfi_offset 6, -24
 907 068e 4889FD   		movq	%rdi, %rbp
 908 0691 4883EC08 		subq	$8, %rsp
 909              		.cfi_def_cfa_offset 32
 910 0695 488907   		movq	%rax, (%rdi)
 911              	.LEHB4:
 912 0698 E8000000 		call	_ZN8UnitTest4TestD2Ev@PLT
 912      00
 913              	.LEHE4:
 914 069d 4883C408 		addq	$8, %rsp
 915              		.cfi_remember_state
 916              		.cfi_def_cfa_offset 24
 917 06a1 4889EF   		movq	%rbp, %rdi
 918 06a4 5D       		popq	%rbp
 919              		.cfi_def_cfa_offset 16
 920 06a5 415C     		popq	%r12
 921              		.cfi_def_cfa_offset 8
 922 06a7 E9000000 		jmp	_ZdlPv@PLT
 922      00
 923              	.L61:
 924              		.cfi_restore_state
 925 06ac F30F1EFA 		endbr64
 926 06b0 4989C4   		movq	%rax, %r12
 927 06b3 E9000000 		jmp	.L60
 927      00
 928              		.section	.gcc_except_table
 929              	.LLSDA1549:
 930 0020 FF       		.byte	0xff
 931 0021 FF       		.byte	0xff
 932 0022 01       		.byte	0x1
 933 0023 04       		.uleb128 .LLSDACSE1549-.LLSDACSB1549
 934              	.LLSDACSB1549:
 935 0024 18       		.uleb128 .LEHB4-.LFB1549
 936 0025 05       		.uleb128 .LEHE4-.LEHB4
 937 0026 2C       		.uleb128 .L61-.LFB1549
 938 0027 00       		.uleb128 0
 939              	.LLSDACSE1549:
 940              		.text
 941              		.cfi_endproc
 942              		.section	.text.unlikely
 943              		.cfi_startproc
 944              		.cfi_personality 0x9b,DW.ref.__gxx_personality_v0
 945              		.cfi_lsda 0x1b,.LLSDAC1549
 947              	_ZN12_GLOBAL__N_160TestCheckArray2DCloseFailureOnExceptionIncludesCheckContentsD0Ev.cold:
 948              	.LFSB1549:
 949              	.L60:
 950              		.cfi_def_cfa_offset 32
 951              		.cfi_offset 6, -24
 952              		.cfi_offset 12, -16
 953 0020 4889EF   		movq	%rbp, %rdi
 954 0023 E8000000 		call	_ZdlPv@PLT
 954      00
 955 0028 4C89E7   		movq	%r12, %rdi
 956              	.LEHB5:
 957 002b E8000000 		call	_Unwind_Resume@PLT
 957      00
 958              	.LEHE5:
 959              		.cfi_endproc
 960              	.LFE1549:
 961              		.section	.gcc_except_table
 962              	.LLSDAC1549:
 963 0028 FF       		.byte	0xff
 964 0029 FF       		.byte	0xff
 965 002a 01       		.byte	0x1
 966 002b 04       		.uleb128 .LLSDACSEC1549-.LLSDACSBC1549
 967              	.LLSDACSBC1549:
 968 002c 0B       		.uleb128 .LEHB5-.LCOLDB2
 969 002d 05       		.uleb128 .LEHE5-.LEHB5
 970 002e 00       		.uleb128 0
 971 002f 00       		.uleb128 0
 972              	.LLSDACSEC1549:
 973              		.section	.text.unlikely
 974              		.text
 976              		.section	.text.unlikely
 978              	.LCOLDE2:
 979              		.text
 980              	.LHOTE2:
 981              		.section	.text.unlikely
 982              		.align 2
 983              	.LCOLDB3:
 984              		.text
 985              	.LHOTB3:
 986              		.align 2
 987 06b8 0F1F8400 		.p2align 4
 987      00000000 
 989              	_ZN12_GLOBAL__N_137TestCheckArray2DCloseFailsOnExceptionD0Ev:
 990              	.LFB1553:
 991              		.cfi_startproc
 992              		.cfi_personality 0x9b,DW.ref.__gxx_personality_v0
 993              		.cfi_lsda 0x1b,.LLSDA1553
 994 06c0 F30F1EFA 		endbr64
 995 06c4 4154     		pushq	%r12
 996              		.cfi_def_cfa_offset 16
 997              		.cfi_offset 12, -16
 998 06c6 488D0500 		leaq	16+_ZTVN12_GLOBAL__N_137TestCheckArray2DCloseFailsOnExceptionE(%rip), %rax
 998      000000
 999 06cd 55       		pushq	%rbp
 1000              		.cfi_def_cfa_offset 24
 1001              		.cfi_offset 6, -24
 1002 06ce 4889FD   		movq	%rdi, %rbp
 1003 06d1 4883EC08 		subq	$8, %rsp
 1004              		.cfi_def_cfa_offset 32
 1005 06d5 488907   		movq	%rax, (%rdi)
 1006              	.LEHB6:
 1007 06d8 E8000000 		call	_ZN8UnitTest4TestD2Ev@PLT
 1007      00
 1008              	.LEHE6:
 1009 06dd 4883C408 		addq	$8, %rsp
 1010              		.cfi_remember_state
 1011              		.cfi_def_cfa_offset 24
 1012 06e1 4889EF   		movq	%rbp, %rdi
 1013 06e4 5D       		popq	%rbp
 1014              		.cfi_def_cfa_offset 16
 1015 06e5 415C     		popq	%r12
 1016              		.cfi_def_cfa_offset 8
 1017 06e7 E9000000 		jmp	_ZdlPv@PLT
 1017      00
 1018              	.L65:
 1019              		.cfi_restore_state
 1020 06ec F30F1EFA 		endbr64
 1021 06f0 4989C4   		movq	%rax, %r12
 1022 06f3 E9000000 		jmp	.L64
 1022      00
 1023              		.section	.gcc_except_table
 1024              	.LLSDA1553:
 1025 0030 FF       		.byte	0xff
 1026 0031 FF       		.byte	0xff
 1027 0032 01       		.byte	0x1
 1028 0033 04       		.uleb128 .LLSDACSE1553-.LLSDACSB1553
 1029              	.LLSDACSB1553:
 1030 0034 18       		.uleb128 .LEHB6-.LFB1553
 1031 0035 05       		.uleb128 .LEHE6-.LEHB6
 1032 0036 2C       		.uleb128 .L65-.LFB1553
 1033 0037 00       		.uleb128 0
 1034              	.LLSDACSE1553:
 1035              		.text
 1036              		.cfi_endproc
 1037              		.section	.text.unlikely
 1038              		.cfi_startproc
 1039              		.cfi_personality 0x9b,DW.ref.__gxx_personality_v0
 1040              		.cfi_lsda 0x1b,.LLSDAC1553
 1042              	_ZN12_GLOBAL__N_137TestCheckArray2DCloseFailsOnExceptionD0Ev.cold:
 1043              	.LFSB1553:
 1044              	.L64:
 1045              		.cfi_def_cfa_offset 32
 1046              		.cfi_offset 6, -24
 1047              		.cfi_offset 12, -16
 1048 0030 4889EF   		movq	%rbp, %rdi
 1049 0033 E8000000 		call	_ZdlPv@PLT
 1049      00
 1050 0038 4C89E7   		movq	%r12, %rdi
 1051              	.LEHB7:
 1052 003b E8000000 		call	_Unwind_Resume@PLT
 1052      00
 1053              	.LEHE7:
 1054              		.cfi_endproc
 1055              	.LFE1553:
 1056              		.section	.gcc_except_table
 1057              	.LLSDAC1553:
 1058 0038 FF       		.byte	0xff
 1059 0039 FF       		.byte	0xff
 1060 003a 01       		.byte	0x1
 1061 003b 04       		.uleb128 .LLSDACSEC1553-.LLSDACSBC1553
 1062              	.LLSDACSBC1553:
 1063 003c 0B       		.uleb128 .LEHB7-.LCOLDB3
 1064 003d 05       		.uleb128 .LEHE7-.LEHB7
 1065 003e 00       		.uleb128 0
 1066 003f 00       		.uleb128 0
 1067              	.LLSDACSEC1553:
 1068              		.section	.text.unlikely
 1069              		.text
 1071              		.section	.text.unlikely
 1073              	.LCOLDE3:
 1074              		.text
 1075              	.LHOTE3:
 1076              		.section	.text.unlikely
 1077              		.align 2
 1078              	.LCOLDB4:
 1079              		.text
 1080              	.LHOTB4:
 1081              		.align 2
 1082 06f8 0F1F8400 		.p2align 4
 1082      00000000 
 1084              	_ZN12_GLOBAL__N_145TestCheckArray2DCloseFailureIncludesToleranceD0Ev:
 1085              	.LFB1557:
 1086              		.cfi_startproc
 1087              		.cfi_personality 0x9b,DW.ref.__gxx_personality_v0
 1088              		.cfi_lsda 0x1b,.LLSDA1557
 1089 0700 F30F1EFA 		endbr64
 1090 0704 4154     		pushq	%r12
 1091              		.cfi_def_cfa_offset 16
 1092              		.cfi_offset 12, -16
 1093 0706 488D0500 		leaq	16+_ZTVN12_GLOBAL__N_145TestCheckArray2DCloseFailureIncludesToleranceE(%rip), %rax
 1093      000000
 1094 070d 55       		pushq	%rbp
 1095              		.cfi_def_cfa_offset 24
 1096              		.cfi_offset 6, -24
 1097 070e 4889FD   		movq	%rdi, %rbp
 1098 0711 4883EC08 		subq	$8, %rsp
 1099              		.cfi_def_cfa_offset 32
 1100 0715 488907   		movq	%rax, (%rdi)
 1101              	.LEHB8:
 1102 0718 E8000000 		call	_ZN8UnitTest4TestD2Ev@PLT
 1102      00
 1103              	.LEHE8:
 1104 071d 4883C408 		addq	$8, %rsp
 1105              		.cfi_remember_state
 1106              		.cfi_def_cfa_offset 24
 1107 0721 4889EF   		movq	%rbp, %rdi
 1108 0724 5D       		popq	%rbp
 1109              		.cfi_def_cfa_offset 16
 1110 0725 415C     		popq	%r12
 1111              		.cfi_def_cfa_offset 8
 1112 0727 E9000000 		jmp	_ZdlPv@PLT
 1112      00
 1113              	.L69:
 1114              		.cfi_restore_state
 1115 072c F30F1EFA 		endbr64
 1116 0730 4989C4   		movq	%rax, %r12
 1117 0733 E9000000 		jmp	.L68
 1117      00
 1118              		.section	.gcc_except_table
 1119              	.LLSDA1557:
 1120 0040 FF       		.byte	0xff
 1121 0041 FF       		.byte	0xff
 1122 0042 01       		.byte	0x1
 1123 0043 04       		.uleb128 .LLSDACSE1557-.LLSDACSB1557
 1124              	.LLSDACSB1557:
 1125 0044 18       		.uleb128 .LEHB8-.LFB1557
 1126 0045 05       		.uleb128 .LEHE8-.LEHB8
 1127 0046 2C       		.uleb128 .L69-.LFB1557
 1128 0047 00       		.uleb128 0
 1129              	.LLSDACSE1557:
 1130              		.text
 1131              		.cfi_endproc
 1132              		.section	.text.unlikely
 1133              		.cfi_startproc
 1134              		.cfi_personality 0x9b,DW.ref.__gxx_personality_v0
 1135              		.cfi_lsda 0x1b,.LLSDAC1557
 1137              	_ZN12_GLOBAL__N_145TestCheckArray2DCloseFailureIncludesToleranceD0Ev.cold:
 1138              	.LFSB1557:
 1139              	.L68:
 1140              		.cfi_def_cfa_offset 32
 1141              		.cfi_offset 6, -24
 1142              		.cfi_offset 12, -16
 1143 0040 4889EF   		movq	%rbp, %rdi
 1144 0043 E8000000 		call	_ZdlPv@PLT
 1144      00
 1145 0048 4C89E7   		movq	%r12, %rdi
 1146              	.LEHB9:
 1147 004b E8000000 		call	_Unwind_Resume@PLT
 1147      00
 1148              	.LEHE9:
 1149              		.cfi_endproc
 1150              	.LFE1557:
 1151              		.section	.gcc_except_table
 1152              	.LLSDAC1557:
 1153 0048 FF       		.byte	0xff
 1154 0049 FF       		.byte	0xff
 1155 004a 01       		.byte	0x1
 1156 004b 04       		.uleb128 .LLSDACSEC1557-.LLSDACSBC1557
 1157              	.LLSDACSBC1557:
 1158 004c 0B       		.uleb128 .LEHB9-.LCOLDB4
 1159 004d 05       		.uleb128 .LEHE9-.LEHB9
 1160 004e 00       		.uleb128 0
 1161 004f 00       		.uleb128 0
 1162              	.LLSDACSEC1557:
 1163              		.section	.text.unlikely
 1164              		.text
 1166              		.section	.text.unlikely
 1168              	.LCOLDE4:
 1169              		.text
 1170              	.LHOTE4:
 1171              		.section	.text.unlikely
 1172              		.align 2
 1173              	.LCOLDB5:
 1174              		.text
 1175              	.LHOTB5:
 1176              		.align 2
 1177 0738 0F1F8400 		.p2align 4
 1177      00000000 
 1179              	_ZN12_GLOBAL__N_168TestCheckArray2DCloseFailureBecauseOfExceptionContainsCorrectDetailsD0Ev:
 1180              	.LFB1561:
 1181              		.cfi_startproc
 1182              		.cfi_personality 0x9b,DW.ref.__gxx_personality_v0
 1183              		.cfi_lsda 0x1b,.LLSDA1561
 1184 0740 F30F1EFA 		endbr64
 1185 0744 4154     		pushq	%r12
 1186              		.cfi_def_cfa_offset 16
 1187              		.cfi_offset 12, -16
 1188 0746 488D0500 		leaq	16+_ZTVN12_GLOBAL__N_168TestCheckArray2DCloseFailureBecauseOfExceptionContainsCorrectDetailsE
 1188      000000
 1189 074d 55       		pushq	%rbp
 1190              		.cfi_def_cfa_offset 24
 1191              		.cfi_offset 6, -24
 1192 074e 4889FD   		movq	%rdi, %rbp
 1193 0751 4883EC08 		subq	$8, %rsp
 1194              		.cfi_def_cfa_offset 32
 1195 0755 488907   		movq	%rax, (%rdi)
 1196              	.LEHB10:
 1197 0758 E8000000 		call	_ZN8UnitTest4TestD2Ev@PLT
 1197      00
 1198              	.LEHE10:
 1199 075d 4883C408 		addq	$8, %rsp
 1200              		.cfi_remember_state
 1201              		.cfi_def_cfa_offset 24
 1202 0761 4889EF   		movq	%rbp, %rdi
 1203 0764 5D       		popq	%rbp
 1204              		.cfi_def_cfa_offset 16
 1205 0765 415C     		popq	%r12
 1206              		.cfi_def_cfa_offset 8
 1207 0767 E9000000 		jmp	_ZdlPv@PLT
 1207      00
 1208              	.L73:
 1209              		.cfi_restore_state
 1210 076c F30F1EFA 		endbr64
 1211 0770 4989C4   		movq	%rax, %r12
 1212 0773 E9000000 		jmp	.L72
 1212      00
 1213              		.section	.gcc_except_table
 1214              	.LLSDA1561:
 1215 0050 FF       		.byte	0xff
 1216 0051 FF       		.byte	0xff
 1217 0052 01       		.byte	0x1
 1218 0053 04       		.uleb128 .LLSDACSE1561-.LLSDACSB1561
 1219              	.LLSDACSB1561:
 1220 0054 18       		.uleb128 .LEHB10-.LFB1561
 1221 0055 05       		.uleb128 .LEHE10-.LEHB10
 1222 0056 2C       		.uleb128 .L73-.LFB1561
 1223 0057 00       		.uleb128 0
 1224              	.LLSDACSE1561:
 1225              		.text
 1226              		.cfi_endproc
 1227              		.section	.text.unlikely
 1228              		.cfi_startproc
 1229              		.cfi_personality 0x9b,DW.ref.__gxx_personality_v0
 1230              		.cfi_lsda 0x1b,.LLSDAC1561
 1232              	_ZN12_GLOBAL__N_168TestCheckArray2DCloseFailureBecauseOfExceptionContainsCorrectDetailsD0Ev.cold:
 1233              	.LFSB1561:
 1234              	.L72:
 1235              		.cfi_def_cfa_offset 32
 1236              		.cfi_offset 6, -24
 1237              		.cfi_offset 12, -16
 1238 0050 4889EF   		movq	%rbp, %rdi
 1239 0053 E8000000 		call	_ZdlPv@PLT
 1239      00
 1240 0058 4C89E7   		movq	%r12, %rdi
 1241              	.LEHB11:
 1242 005b E8000000 		call	_Unwind_Resume@PLT
 1242      00
 1243              	.LEHE11:
 1244              		.cfi_endproc
 1245              	.LFE1561:
 1246              		.section	.gcc_except_table
 1247              	.LLSDAC1561:
 1248 0058 FF       		.byte	0xff
 1249 0059 FF       		.byte	0xff
 1250 005a 01       		.byte	0x1
 1251 005b 04       		.uleb128 .LLSDACSEC1561-.LLSDACSBC1561
 1252              	.LLSDACSBC1561:
 1253 005c 0B       		.uleb128 .LEHB11-.LCOLDB5
 1254 005d 05       		.uleb128 .LEHE11-.LEHB11
 1255 005e 00       		.uleb128 0
 1256 005f 00       		.uleb128 0
 1257              	.LLSDACSEC1561:
 1258              		.section	.text.unlikely
 1259              		.text
 1261              		.section	.text.unlikely
 1263              	.LCOLDE5:
 1264              		.text
 1265              	.LHOTE5:
 1266              		.section	.text.unlikely
 1267              		.align 2
 1268              	.LCOLDB6:
 1269              		.text
 1270              	.LHOTB6:
 1271              		.align 2
 1272 0778 0F1F8400 		.p2align 4
 1272      00000000 
 1274              	_ZN12_GLOBAL__N_150TestCheckArray2DCloseFailureContainsCorrectDetailsD0Ev:
 1275              	.LFB1565:
 1276              		.cfi_startproc
 1277              		.cfi_personality 0x9b,DW.ref.__gxx_personality_v0
 1278              		.cfi_lsda 0x1b,.LLSDA1565
 1279 0780 F30F1EFA 		endbr64
 1280 0784 4154     		pushq	%r12
 1281              		.cfi_def_cfa_offset 16
 1282              		.cfi_offset 12, -16
 1283 0786 488D0500 		leaq	16+_ZTVN12_GLOBAL__N_150TestCheckArray2DCloseFailureContainsCorrectDetailsE(%rip), %rax
 1283      000000
 1284 078d 55       		pushq	%rbp
 1285              		.cfi_def_cfa_offset 24
 1286              		.cfi_offset 6, -24
 1287 078e 4889FD   		movq	%rdi, %rbp
 1288 0791 4883EC08 		subq	$8, %rsp
 1289              		.cfi_def_cfa_offset 32
 1290 0795 488907   		movq	%rax, (%rdi)
 1291              	.LEHB12:
 1292 0798 E8000000 		call	_ZN8UnitTest4TestD2Ev@PLT
 1292      00
 1293              	.LEHE12:
 1294 079d 4883C408 		addq	$8, %rsp
 1295              		.cfi_remember_state
 1296              		.cfi_def_cfa_offset 24
 1297 07a1 4889EF   		movq	%rbp, %rdi
 1298 07a4 5D       		popq	%rbp
 1299              		.cfi_def_cfa_offset 16
 1300 07a5 415C     		popq	%r12
 1301              		.cfi_def_cfa_offset 8
 1302 07a7 E9000000 		jmp	_ZdlPv@PLT
 1302      00
 1303              	.L77:
 1304              		.cfi_restore_state
 1305 07ac F30F1EFA 		endbr64
 1306 07b0 4989C4   		movq	%rax, %r12
 1307 07b3 E9000000 		jmp	.L76
 1307      00
 1308              		.section	.gcc_except_table
 1309              	.LLSDA1565:
 1310 0060 FF       		.byte	0xff
 1311 0061 FF       		.byte	0xff
 1312 0062 01       		.byte	0x1
 1313 0063 04       		.uleb128 .LLSDACSE1565-.LLSDACSB1565
 1314              	.LLSDACSB1565:
 1315 0064 18       		.uleb128 .LEHB12-.LFB1565
 1316 0065 05       		.uleb128 .LEHE12-.LEHB12
 1317 0066 2C       		.uleb128 .L77-.LFB1565
 1318 0067 00       		.uleb128 0
 1319              	.LLSDACSE1565:
 1320              		.text
 1321              		.cfi_endproc
 1322              		.section	.text.unlikely
 1323              		.cfi_startproc
 1324              		.cfi_personality 0x9b,DW.ref.__gxx_personality_v0
 1325              		.cfi_lsda 0x1b,.LLSDAC1565
 1327              	_ZN12_GLOBAL__N_150TestCheckArray2DCloseFailureContainsCorrectDetailsD0Ev.cold:
 1328              	.LFSB1565:
 1329              	.L76:
 1330              		.cfi_def_cfa_offset 32
 1331              		.cfi_offset 6, -24
 1332              		.cfi_offset 12, -16
 1333 0060 4889EF   		movq	%rbp, %rdi
 1334 0063 E8000000 		call	_ZdlPv@PLT
 1334      00
 1335 0068 4C89E7   		movq	%r12, %rdi
 1336              	.LEHB13:
 1337 006b E8000000 		call	_Unwind_Resume@PLT
 1337      00
 1338              	.LEHE13:
 1339              		.cfi_endproc
 1340              	.LFE1565:
 1341              		.section	.gcc_except_table
 1342              	.LLSDAC1565:
 1343 0068 FF       		.byte	0xff
 1344 0069 FF       		.byte	0xff
 1345 006a 01       		.byte	0x1
 1346 006b 04       		.uleb128 .LLSDACSEC1565-.LLSDACSBC1565
 1347              	.LLSDACSBC1565:
 1348 006c 0B       		.uleb128 .LEHB13-.LCOLDB6
 1349 006d 05       		.uleb128 .LEHE13-.LEHB13
 1350 006e 00       		.uleb128 0
 1351 006f 00       		.uleb128 0
 1352              	.LLSDACSEC1565:
 1353              		.section	.text.unlikely
 1354              		.text
 1356              		.section	.text.unlikely
 1358              	.LCOLDE6:
 1359              		.text
 1360              	.LHOTE6:
 1361              		.section	.text.unlikely
 1362              		.align 2
 1363              	.LCOLDB7:
 1364              		.text
 1365              	.LHOTB7:
 1366              		.align 2
 1367 07b8 0F1F8400 		.p2align 4
 1367      00000000 
 1369              	_ZN12_GLOBAL__N_158TestCheckArray2DCloseFailureIncludesCheckExpectedAndActualD0Ev:
 1370              	.LFB1569:
 1371              		.cfi_startproc
 1372              		.cfi_personality 0x9b,DW.ref.__gxx_personality_v0
 1373              		.cfi_lsda 0x1b,.LLSDA1569
 1374 07c0 F30F1EFA 		endbr64
 1375 07c4 4154     		pushq	%r12
 1376              		.cfi_def_cfa_offset 16
 1377              		.cfi_offset 12, -16
 1378 07c6 488D0500 		leaq	16+_ZTVN12_GLOBAL__N_158TestCheckArray2DCloseFailureIncludesCheckExpectedAndActualE(%rip), %r
 1378      000000
 1379 07cd 55       		pushq	%rbp
 1380              		.cfi_def_cfa_offset 24
 1381              		.cfi_offset 6, -24
 1382 07ce 4889FD   		movq	%rdi, %rbp
 1383 07d1 4883EC08 		subq	$8, %rsp
 1384              		.cfi_def_cfa_offset 32
 1385 07d5 488907   		movq	%rax, (%rdi)
 1386              	.LEHB14:
 1387 07d8 E8000000 		call	_ZN8UnitTest4TestD2Ev@PLT
 1387      00
 1388              	.LEHE14:
 1389 07dd 4883C408 		addq	$8, %rsp
 1390              		.cfi_remember_state
 1391              		.cfi_def_cfa_offset 24
 1392 07e1 4889EF   		movq	%rbp, %rdi
 1393 07e4 5D       		popq	%rbp
 1394              		.cfi_def_cfa_offset 16
 1395 07e5 415C     		popq	%r12
 1396              		.cfi_def_cfa_offset 8
 1397 07e7 E9000000 		jmp	_ZdlPv@PLT
 1397      00
 1398              	.L81:
 1399              		.cfi_restore_state
 1400 07ec F30F1EFA 		endbr64
 1401 07f0 4989C4   		movq	%rax, %r12
 1402 07f3 E9000000 		jmp	.L80
 1402      00
 1403              		.section	.gcc_except_table
 1404              	.LLSDA1569:
 1405 0070 FF       		.byte	0xff
 1406 0071 FF       		.byte	0xff
 1407 0072 01       		.byte	0x1
 1408 0073 04       		.uleb128 .LLSDACSE1569-.LLSDACSB1569
 1409              	.LLSDACSB1569:
 1410 0074 18       		.uleb128 .LEHB14-.LFB1569
 1411 0075 05       		.uleb128 .LEHE14-.LEHB14
 1412 0076 2C       		.uleb128 .L81-.LFB1569
 1413 0077 00       		.uleb128 0
 1414              	.LLSDACSE1569:
 1415              		.text
 1416              		.cfi_endproc
 1417              		.section	.text.unlikely
 1418              		.cfi_startproc
 1419              		.cfi_personality 0x9b,DW.ref.__gxx_personality_v0
 1420              		.cfi_lsda 0x1b,.LLSDAC1569
 1422              	_ZN12_GLOBAL__N_158TestCheckArray2DCloseFailureIncludesCheckExpectedAndActualD0Ev.cold:
 1423              	.LFSB1569:
 1424              	.L80:
 1425              		.cfi_def_cfa_offset 32
 1426              		.cfi_offset 6, -24
 1427              		.cfi_offset 12, -16
 1428 0070 4889EF   		movq	%rbp, %rdi
 1429 0073 E8000000 		call	_ZdlPv@PLT
 1429      00
 1430 0078 4C89E7   		movq	%r12, %rdi
 1431              	.LEHB15:
 1432 007b E8000000 		call	_Unwind_Resume@PLT
 1432      00
 1433              	.LEHE15:
 1434              		.cfi_endproc
 1435              	.LFE1569:
 1436              		.section	.gcc_except_table
 1437              	.LLSDAC1569:
 1438 0078 FF       		.byte	0xff
 1439 0079 FF       		.byte	0xff
 1440 007a 01       		.byte	0x1
 1441 007b 04       		.uleb128 .LLSDACSEC1569-.LLSDACSBC1569
 1442              	.LLSDACSBC1569:
 1443 007c 0B       		.uleb128 .LEHB15-.LCOLDB7
 1444 007d 05       		.uleb128 .LEHE15-.LEHB15
 1445 007e 00       		.uleb128 0
 1446 007f 00       		.uleb128 0
 1447              	.LLSDACSEC1569:
 1448              		.section	.text.unlikely
 1449              		.text
 1451              		.section	.text.unlikely
 1453              	.LCOLDE7:
 1454              		.text
 1455              	.LHOTE7:
 1456              		.section	.text.unlikely
 1457              		.align 2
 1458              	.LCOLDB8:
 1459              		.text
 1460              	.LHOTB8:
 1461              		.align 2
 1462 07f8 0F1F8400 		.p2align 4
 1462      00000000 
 1464              	_ZN12_GLOBAL__N_136TestCheckArray2DCloseFailsOnNotEqualD0Ev:
 1465              	.LFB1573:
 1466              		.cfi_startproc
 1467              		.cfi_personality 0x9b,DW.ref.__gxx_personality_v0
 1468              		.cfi_lsda 0x1b,.LLSDA1573
 1469 0800 F30F1EFA 		endbr64
 1470 0804 4154     		pushq	%r12
 1471              		.cfi_def_cfa_offset 16
 1472              		.cfi_offset 12, -16
 1473 0806 488D0500 		leaq	16+_ZTVN12_GLOBAL__N_136TestCheckArray2DCloseFailsOnNotEqualE(%rip), %rax
 1473      000000
 1474 080d 55       		pushq	%rbp
 1475              		.cfi_def_cfa_offset 24
 1476              		.cfi_offset 6, -24
 1477 080e 4889FD   		movq	%rdi, %rbp
 1478 0811 4883EC08 		subq	$8, %rsp
 1479              		.cfi_def_cfa_offset 32
 1480 0815 488907   		movq	%rax, (%rdi)
 1481              	.LEHB16:
 1482 0818 E8000000 		call	_ZN8UnitTest4TestD2Ev@PLT
 1482      00
 1483              	.LEHE16:
 1484 081d 4883C408 		addq	$8, %rsp
 1485              		.cfi_remember_state
 1486              		.cfi_def_cfa_offset 24
 1487 0821 4889EF   		movq	%rbp, %rdi
 1488 0824 5D       		popq	%rbp
 1489              		.cfi_def_cfa_offset 16
 1490 0825 415C     		popq	%r12
 1491              		.cfi_def_cfa_offset 8
 1492 0827 E9000000 		jmp	_ZdlPv@PLT
 1492      00
 1493              	.L85:
 1494              		.cfi_restore_state
 1495 082c F30F1EFA 		endbr64
 1496 0830 4989C4   		movq	%rax, %r12
 1497 0833 E9000000 		jmp	.L84
 1497      00
 1498              		.section	.gcc_except_table
 1499              	.LLSDA1573:
 1500 0080 FF       		.byte	0xff
 1501 0081 FF       		.byte	0xff
 1502 0082 01       		.byte	0x1
 1503 0083 04       		.uleb128 .LLSDACSE1573-.LLSDACSB1573
 1504              	.LLSDACSB1573:
 1505 0084 18       		.uleb128 .LEHB16-.LFB1573
 1506 0085 05       		.uleb128 .LEHE16-.LEHB16
 1507 0086 2C       		.uleb128 .L85-.LFB1573
 1508 0087 00       		.uleb128 0
 1509              	.LLSDACSE1573:
 1510              		.text
 1511              		.cfi_endproc
 1512              		.section	.text.unlikely
 1513              		.cfi_startproc
 1514              		.cfi_personality 0x9b,DW.ref.__gxx_personality_v0
 1515              		.cfi_lsda 0x1b,.LLSDAC1573
 1517              	_ZN12_GLOBAL__N_136TestCheckArray2DCloseFailsOnNotEqualD0Ev.cold:
 1518              	.LFSB1573:
 1519              	.L84:
 1520              		.cfi_def_cfa_offset 32
 1521              		.cfi_offset 6, -24
 1522              		.cfi_offset 12, -16
 1523 0080 4889EF   		movq	%rbp, %rdi
 1524 0083 E8000000 		call	_ZdlPv@PLT
 1524      00
 1525 0088 4C89E7   		movq	%r12, %rdi
 1526              	.LEHB17:
 1527 008b E8000000 		call	_Unwind_Resume@PLT
 1527      00
 1528              	.LEHE17:
 1529              		.cfi_endproc
 1530              	.LFE1573:
 1531              		.section	.gcc_except_table
 1532              	.LLSDAC1573:
 1533 0088 FF       		.byte	0xff
 1534 0089 FF       		.byte	0xff
 1535 008a 01       		.byte	0x1
 1536 008b 04       		.uleb128 .LLSDACSEC1573-.LLSDACSBC1573
 1537              	.LLSDACSBC1573:
 1538 008c 0B       		.uleb128 .LEHB17-.LCOLDB8
 1539 008d 05       		.uleb128 .LEHE17-.LEHB17
 1540 008e 00       		.uleb128 0
 1541 008f 00       		.uleb128 0
 1542              	.LLSDACSEC1573:
 1543              		.section	.text.unlikely
 1544              		.text
 1546              		.section	.text.unlikely
 1548              	.LCOLDE8:
 1549              		.text
 1550              	.LHOTE8:
 1551              		.section	.text.unlikely
 1552              		.align 2
 1553              	.LCOLDB9:
 1554              		.text
 1555              	.LHOTB9:
 1556              		.align 2
 1557 0838 0F1F8400 		.p2align 4
 1557      00000000 
 1559              	_ZN12_GLOBAL__N_136TestCheckArray2DCloseSucceedsOnEqualD0Ev:
 1560              	.LFB1577:
 1561              		.cfi_startproc
 1562              		.cfi_personality 0x9b,DW.ref.__gxx_personality_v0
 1563              		.cfi_lsda 0x1b,.LLSDA1577
 1564 0840 F30F1EFA 		endbr64
 1565 0844 4154     		pushq	%r12
 1566              		.cfi_def_cfa_offset 16
 1567              		.cfi_offset 12, -16
 1568 0846 488D0500 		leaq	16+_ZTVN12_GLOBAL__N_136TestCheckArray2DCloseSucceedsOnEqualE(%rip), %rax
 1568      000000
 1569 084d 55       		pushq	%rbp
 1570              		.cfi_def_cfa_offset 24
 1571              		.cfi_offset 6, -24
 1572 084e 4889FD   		movq	%rdi, %rbp
 1573 0851 4883EC08 		subq	$8, %rsp
 1574              		.cfi_def_cfa_offset 32
 1575 0855 488907   		movq	%rax, (%rdi)
 1576              	.LEHB18:
 1577 0858 E8000000 		call	_ZN8UnitTest4TestD2Ev@PLT
 1577      00
 1578              	.LEHE18:
 1579 085d 4883C408 		addq	$8, %rsp
 1580              		.cfi_remember_state
 1581              		.cfi_def_cfa_offset 24
 1582 0861 4889EF   		movq	%rbp, %rdi
 1583 0864 5D       		popq	%rbp
 1584              		.cfi_def_cfa_offset 16
 1585 0865 415C     		popq	%r12
 1586              		.cfi_def_cfa_offset 8
 1587 0867 E9000000 		jmp	_ZdlPv@PLT
 1587      00
 1588              	.L89:
 1589              		.cfi_restore_state
 1590 086c F30F1EFA 		endbr64
 1591 0870 4989C4   		movq	%rax, %r12
 1592 0873 E9000000 		jmp	.L88
 1592      00
 1593              		.section	.gcc_except_table
 1594              	.LLSDA1577:
 1595 0090 FF       		.byte	0xff
 1596 0091 FF       		.byte	0xff
 1597 0092 01       		.byte	0x1
 1598 0093 04       		.uleb128 .LLSDACSE1577-.LLSDACSB1577
 1599              	.LLSDACSB1577:
 1600 0094 18       		.uleb128 .LEHB18-.LFB1577
 1601 0095 05       		.uleb128 .LEHE18-.LEHB18
 1602 0096 2C       		.uleb128 .L89-.LFB1577
 1603 0097 00       		.uleb128 0
 1604              	.LLSDACSE1577:
 1605              		.text
 1606              		.cfi_endproc
 1607              		.section	.text.unlikely
 1608              		.cfi_startproc
 1609              		.cfi_personality 0x9b,DW.ref.__gxx_personality_v0
 1610              		.cfi_lsda 0x1b,.LLSDAC1577
 1612              	_ZN12_GLOBAL__N_136TestCheckArray2DCloseSucceedsOnEqualD0Ev.cold:
 1613              	.LFSB1577:
 1614              	.L88:
 1615              		.cfi_def_cfa_offset 32
 1616              		.cfi_offset 6, -24
 1617              		.cfi_offset 12, -16
 1618 0090 4889EF   		movq	%rbp, %rdi
 1619 0093 E8000000 		call	_ZdlPv@PLT
 1619      00
 1620 0098 4C89E7   		movq	%r12, %rdi
 1621              	.LEHB19:
 1622 009b E8000000 		call	_Unwind_Resume@PLT
 1622      00
 1623              	.LEHE19:
 1624              		.cfi_endproc
 1625              	.LFE1577:
 1626              		.section	.gcc_except_table
 1627              	.LLSDAC1577:
 1628 0098 FF       		.byte	0xff
 1629 0099 FF       		.byte	0xff
 1630 009a 01       		.byte	0x1
 1631 009b 04       		.uleb128 .LLSDACSEC1577-.LLSDACSBC1577
 1632              	.LLSDACSBC1577:
 1633 009c 0B       		.uleb128 .LEHB19-.LCOLDB9
 1634 009d 05       		.uleb128 .LEHE19-.LEHB19
 1635 009e 00       		.uleb128 0
 1636 009f 00       		.uleb128 0
 1637              	.LLSDACSEC1577:
 1638              		.section	.text.unlikely
 1639              		.text
 1641              		.section	.text.unlikely
 1643              	.LCOLDE9:
 1644              		.text
 1645              	.LHOTE9:
 1646              		.section	.text.unlikely
 1647              		.align 2
 1648              	.LCOLDB10:
 1649              		.text
 1650              	.LHOTB10:
 1651              		.align 2
 1652 0878 0F1F8400 		.p2align 4
 1652      00000000 
 1654              	_ZN12_GLOBAL__N_152TestCheckArrayCloseDoesNotHaveSideEffectsWhenFailingD0Ev:
 1655              	.LFB1581:
 1656              		.cfi_startproc
 1657              		.cfi_personality 0x9b,DW.ref.__gxx_personality_v0
 1658              		.cfi_lsda 0x1b,.LLSDA1581
 1659 0880 F30F1EFA 		endbr64
 1660 0884 4154     		pushq	%r12
 1661              		.cfi_def_cfa_offset 16
 1662              		.cfi_offset 12, -16
 1663 0886 488D0500 		leaq	16+_ZTVN12_GLOBAL__N_152TestCheckArrayCloseDoesNotHaveSideEffectsWhenFailingE(%rip), %rax
 1663      000000
 1664 088d 55       		pushq	%rbp
 1665              		.cfi_def_cfa_offset 24
 1666              		.cfi_offset 6, -24
 1667 088e 4889FD   		movq	%rdi, %rbp
 1668 0891 4883EC08 		subq	$8, %rsp
 1669              		.cfi_def_cfa_offset 32
 1670 0895 488907   		movq	%rax, (%rdi)
 1671              	.LEHB20:
 1672 0898 E8000000 		call	_ZN8UnitTest4TestD2Ev@PLT
 1672      00
 1673              	.LEHE20:
 1674 089d 4883C408 		addq	$8, %rsp
 1675              		.cfi_remember_state
 1676              		.cfi_def_cfa_offset 24
 1677 08a1 4889EF   		movq	%rbp, %rdi
 1678 08a4 5D       		popq	%rbp
 1679              		.cfi_def_cfa_offset 16
 1680 08a5 415C     		popq	%r12
 1681              		.cfi_def_cfa_offset 8
 1682 08a7 E9000000 		jmp	_ZdlPv@PLT
 1682      00
 1683              	.L93:
 1684              		.cfi_restore_state
 1685 08ac F30F1EFA 		endbr64
 1686 08b0 4989C4   		movq	%rax, %r12
 1687 08b3 E9000000 		jmp	.L92
 1687      00
 1688              		.section	.gcc_except_table
 1689              	.LLSDA1581:
 1690 00a0 FF       		.byte	0xff
 1691 00a1 FF       		.byte	0xff
 1692 00a2 01       		.byte	0x1
 1693 00a3 04       		.uleb128 .LLSDACSE1581-.LLSDACSB1581
 1694              	.LLSDACSB1581:
 1695 00a4 18       		.uleb128 .LEHB20-.LFB1581
 1696 00a5 05       		.uleb128 .LEHE20-.LEHB20
 1697 00a6 2C       		.uleb128 .L93-.LFB1581
 1698 00a7 00       		.uleb128 0
 1699              	.LLSDACSE1581:
 1700              		.text
 1701              		.cfi_endproc
 1702              		.section	.text.unlikely
 1703              		.cfi_startproc
 1704              		.cfi_personality 0x9b,DW.ref.__gxx_personality_v0
 1705              		.cfi_lsda 0x1b,.LLSDAC1581
 1707              	_ZN12_GLOBAL__N_152TestCheckArrayCloseDoesNotHaveSideEffectsWhenFailingD0Ev.cold:
 1708              	.LFSB1581:
 1709              	.L92:
 1710              		.cfi_def_cfa_offset 32
 1711              		.cfi_offset 6, -24
 1712              		.cfi_offset 12, -16
 1713 00a0 4889EF   		movq	%rbp, %rdi
 1714 00a3 E8000000 		call	_ZdlPv@PLT
 1714      00
 1715 00a8 4C89E7   		movq	%r12, %rdi
 1716              	.LEHB21:
 1717 00ab E8000000 		call	_Unwind_Resume@PLT
 1717      00
 1718              	.LEHE21:
 1719              		.cfi_endproc
 1720              	.LFE1581:
 1721              		.section	.gcc_except_table
 1722              	.LLSDAC1581:
 1723 00a8 FF       		.byte	0xff
 1724 00a9 FF       		.byte	0xff
 1725 00aa 01       		.byte	0x1
 1726 00ab 04       		.uleb128 .LLSDACSEC1581-.LLSDACSBC1581
 1727              	.LLSDACSBC1581:
 1728 00ac 0B       		.uleb128 .LEHB21-.LCOLDB10
 1729 00ad 05       		.uleb128 .LEHE21-.LEHB21
 1730 00ae 00       		.uleb128 0
 1731 00af 00       		.uleb128 0
 1732              	.LLSDACSEC1581:
 1733              		.section	.text.unlikely
 1734              		.text
 1736              		.section	.text.unlikely
 1738              	.LCOLDE10:
 1739              		.text
 1740              	.LHOTE10:
 1741              		.section	.text.unlikely
 1742              		.align 2
 1743              	.LCOLDB11:
 1744              		.text
 1745              	.LHOTB11:
 1746              		.align 2
 1747 08b8 0F1F8400 		.p2align 4
 1747      00000000 
 1749              	_ZN12_GLOBAL__N_152TestCheckArrayCloseDoesNotHaveSideEffectsWhenPassingD0Ev:
 1750              	.LFB1585:
 1751              		.cfi_startproc
 1752              		.cfi_personality 0x9b,DW.ref.__gxx_personality_v0
 1753              		.cfi_lsda 0x1b,.LLSDA1585
 1754 08c0 F30F1EFA 		endbr64
 1755 08c4 4154     		pushq	%r12
 1756              		.cfi_def_cfa_offset 16
 1757              		.cfi_offset 12, -16
 1758 08c6 488D0500 		leaq	16+_ZTVN12_GLOBAL__N_152TestCheckArrayCloseDoesNotHaveSideEffectsWhenPassingE(%rip), %rax
 1758      000000
 1759 08cd 55       		pushq	%rbp
 1760              		.cfi_def_cfa_offset 24
 1761              		.cfi_offset 6, -24
 1762 08ce 4889FD   		movq	%rdi, %rbp
 1763 08d1 4883EC08 		subq	$8, %rsp
 1764              		.cfi_def_cfa_offset 32
 1765 08d5 488907   		movq	%rax, (%rdi)
 1766              	.LEHB22:
 1767 08d8 E8000000 		call	_ZN8UnitTest4TestD2Ev@PLT
 1767      00
 1768              	.LEHE22:
 1769 08dd 4883C408 		addq	$8, %rsp
 1770              		.cfi_remember_state
 1771              		.cfi_def_cfa_offset 24
 1772 08e1 4889EF   		movq	%rbp, %rdi
 1773 08e4 5D       		popq	%rbp
 1774              		.cfi_def_cfa_offset 16
 1775 08e5 415C     		popq	%r12
 1776              		.cfi_def_cfa_offset 8
 1777 08e7 E9000000 		jmp	_ZdlPv@PLT
 1777      00
 1778              	.L97:
 1779              		.cfi_restore_state
 1780 08ec F30F1EFA 		endbr64
 1781 08f0 4989C4   		movq	%rax, %r12
 1782 08f3 E9000000 		jmp	.L96
 1782      00
 1783              		.section	.gcc_except_table
 1784              	.LLSDA1585:
 1785 00b0 FF       		.byte	0xff
 1786 00b1 FF       		.byte	0xff
 1787 00b2 01       		.byte	0x1
 1788 00b3 04       		.uleb128 .LLSDACSE1585-.LLSDACSB1585
 1789              	.LLSDACSB1585:
 1790 00b4 18       		.uleb128 .LEHB22-.LFB1585
 1791 00b5 05       		.uleb128 .LEHE22-.LEHB22
 1792 00b6 2C       		.uleb128 .L97-.LFB1585
 1793 00b7 00       		.uleb128 0
 1794              	.LLSDACSE1585:
 1795              		.text
 1796              		.cfi_endproc
 1797              		.section	.text.unlikely
 1798              		.cfi_startproc
 1799              		.cfi_personality 0x9b,DW.ref.__gxx_personality_v0
 1800              		.cfi_lsda 0x1b,.LLSDAC1585
 1802              	_ZN12_GLOBAL__N_152TestCheckArrayCloseDoesNotHaveSideEffectsWhenPassingD0Ev.cold:
 1803              	.LFSB1585:
 1804              	.L96:
 1805              		.cfi_def_cfa_offset 32
 1806              		.cfi_offset 6, -24
 1807              		.cfi_offset 12, -16
 1808 00b0 4889EF   		movq	%rbp, %rdi
 1809 00b3 E8000000 		call	_ZdlPv@PLT
 1809      00
 1810 00b8 4C89E7   		movq	%r12, %rdi
 1811              	.LEHB23:
 1812 00bb E8000000 		call	_Unwind_Resume@PLT
 1812      00
 1813              	.LEHE23:
 1814              		.cfi_endproc
 1815              	.LFE1585:
 1816              		.section	.gcc_except_table
 1817              	.LLSDAC1585:
 1818 00b8 FF       		.byte	0xff
 1819 00b9 FF       		.byte	0xff
 1820 00ba 01       		.byte	0x1
 1821 00bb 04       		.uleb128 .LLSDACSEC1585-.LLSDACSBC1585
 1822              	.LLSDACSBC1585:
 1823 00bc 0B       		.uleb128 .LEHB23-.LCOLDB11
 1824 00bd 05       		.uleb128 .LEHE23-.LEHB23
 1825 00be 00       		.uleb128 0
 1826 00bf 00       		.uleb128 0
 1827              	.LLSDACSEC1585:
 1828              		.section	.text.unlikely
 1829              		.text
 1831              		.section	.text.unlikely
 1833              	.LCOLDE11:
 1834              		.text
 1835              	.LHOTE11:
 1836              		.section	.text.unlikely
 1837              		.align 2
 1838              	.LCOLDB12:
 1839              		.text
 1840              	.LHOTB12:
 1841              		.align 2
 1842 08f8 0F1F8400 		.p2align 4
 1842      00000000 
 1844              	_ZN12_GLOBAL__N_158TestCheckArrayEqualFailureOnExceptionIncludesCheckContentsD0Ev:
 1845              	.LFB1589:
 1846              		.cfi_startproc
 1847              		.cfi_personality 0x9b,DW.ref.__gxx_personality_v0
 1848              		.cfi_lsda 0x1b,.LLSDA1589
 1849 0900 F30F1EFA 		endbr64
 1850 0904 4154     		pushq	%r12
 1851              		.cfi_def_cfa_offset 16
 1852              		.cfi_offset 12, -16
 1853 0906 488D0500 		leaq	16+_ZTVN12_GLOBAL__N_158TestCheckArrayEqualFailureOnExceptionIncludesCheckContentsE(%rip), %r
 1853      000000
 1854 090d 55       		pushq	%rbp
 1855              		.cfi_def_cfa_offset 24
 1856              		.cfi_offset 6, -24
 1857 090e 4889FD   		movq	%rdi, %rbp
 1858 0911 4883EC08 		subq	$8, %rsp
 1859              		.cfi_def_cfa_offset 32
 1860 0915 488907   		movq	%rax, (%rdi)
 1861              	.LEHB24:
 1862 0918 E8000000 		call	_ZN8UnitTest4TestD2Ev@PLT
 1862      00
 1863              	.LEHE24:
 1864 091d 4883C408 		addq	$8, %rsp
 1865              		.cfi_remember_state
 1866              		.cfi_def_cfa_offset 24
 1867 0921 4889EF   		movq	%rbp, %rdi
 1868 0924 5D       		popq	%rbp
 1869              		.cfi_def_cfa_offset 16
 1870 0925 415C     		popq	%r12
 1871              		.cfi_def_cfa_offset 8
 1872 0927 E9000000 		jmp	_ZdlPv@PLT
 1872      00
 1873              	.L101:
 1874              		.cfi_restore_state
 1875 092c F30F1EFA 		endbr64
 1876 0930 4989C4   		movq	%rax, %r12
 1877 0933 E9000000 		jmp	.L100
 1877      00
 1878              		.section	.gcc_except_table
 1879              	.LLSDA1589:
 1880 00c0 FF       		.byte	0xff
 1881 00c1 FF       		.byte	0xff
 1882 00c2 01       		.byte	0x1
 1883 00c3 04       		.uleb128 .LLSDACSE1589-.LLSDACSB1589
 1884              	.LLSDACSB1589:
 1885 00c4 18       		.uleb128 .LEHB24-.LFB1589
 1886 00c5 05       		.uleb128 .LEHE24-.LEHB24
 1887 00c6 2C       		.uleb128 .L101-.LFB1589
 1888 00c7 00       		.uleb128 0
 1889              	.LLSDACSE1589:
 1890              		.text
 1891              		.cfi_endproc
 1892              		.section	.text.unlikely
 1893              		.cfi_startproc
 1894              		.cfi_personality 0x9b,DW.ref.__gxx_personality_v0
 1895              		.cfi_lsda 0x1b,.LLSDAC1589
 1897              	_ZN12_GLOBAL__N_158TestCheckArrayEqualFailureOnExceptionIncludesCheckContentsD0Ev.cold:
 1898              	.LFSB1589:
 1899              	.L100:
 1900              		.cfi_def_cfa_offset 32
 1901              		.cfi_offset 6, -24
 1902              		.cfi_offset 12, -16
 1903 00c0 4889EF   		movq	%rbp, %rdi
 1904 00c3 E8000000 		call	_ZdlPv@PLT
 1904      00
 1905 00c8 4C89E7   		movq	%r12, %rdi
 1906              	.LEHB25:
 1907 00cb E8000000 		call	_Unwind_Resume@PLT
 1907      00
 1908              	.LEHE25:
 1909              		.cfi_endproc
 1910              	.LFE1589:
 1911              		.section	.gcc_except_table
 1912              	.LLSDAC1589:
 1913 00c8 FF       		.byte	0xff
 1914 00c9 FF       		.byte	0xff
 1915 00ca 01       		.byte	0x1
 1916 00cb 04       		.uleb128 .LLSDACSEC1589-.LLSDACSBC1589
 1917              	.LLSDACSBC1589:
 1918 00cc 0B       		.uleb128 .LEHB25-.LCOLDB12
 1919 00cd 05       		.uleb128 .LEHE25-.LEHB25
 1920 00ce 00       		.uleb128 0
 1921 00cf 00       		.uleb128 0
 1922              	.LLSDACSEC1589:
 1923              		.section	.text.unlikely
 1924              		.text
 1926              		.section	.text.unlikely
 1928              	.LCOLDE12:
 1929              		.text
 1930              	.LHOTE12:
 1931              		.section	.text.unlikely
 1932              		.align 2
 1933              	.LCOLDB13:
 1934              		.text
 1935              	.LHOTB13:
 1936              		.align 2
 1937 0938 0F1F8400 		.p2align 4
 1937      00000000 
 1939              	_ZN12_GLOBAL__N_135TestCheckArrayEqualFailsOnExceptionD0Ev:
 1940              	.LFB1593:
 1941              		.cfi_startproc
 1942              		.cfi_personality 0x9b,DW.ref.__gxx_personality_v0
 1943              		.cfi_lsda 0x1b,.LLSDA1593
 1944 0940 F30F1EFA 		endbr64
 1945 0944 4154     		pushq	%r12
 1946              		.cfi_def_cfa_offset 16
 1947              		.cfi_offset 12, -16
 1948 0946 488D0500 		leaq	16+_ZTVN12_GLOBAL__N_135TestCheckArrayEqualFailsOnExceptionE(%rip), %rax
 1948      000000
 1949 094d 55       		pushq	%rbp
 1950              		.cfi_def_cfa_offset 24
 1951              		.cfi_offset 6, -24
 1952 094e 4889FD   		movq	%rdi, %rbp
 1953 0951 4883EC08 		subq	$8, %rsp
 1954              		.cfi_def_cfa_offset 32
 1955 0955 488907   		movq	%rax, (%rdi)
 1956              	.LEHB26:
 1957 0958 E8000000 		call	_ZN8UnitTest4TestD2Ev@PLT
 1957      00
 1958              	.LEHE26:
 1959 095d 4883C408 		addq	$8, %rsp
 1960              		.cfi_remember_state
 1961              		.cfi_def_cfa_offset 24
 1962 0961 4889EF   		movq	%rbp, %rdi
 1963 0964 5D       		popq	%rbp
 1964              		.cfi_def_cfa_offset 16
 1965 0965 415C     		popq	%r12
 1966              		.cfi_def_cfa_offset 8
 1967 0967 E9000000 		jmp	_ZdlPv@PLT
 1967      00
 1968              	.L105:
 1969              		.cfi_restore_state
 1970 096c F30F1EFA 		endbr64
 1971 0970 4989C4   		movq	%rax, %r12
 1972 0973 E9000000 		jmp	.L104
 1972      00
 1973              		.section	.gcc_except_table
 1974              	.LLSDA1593:
 1975 00d0 FF       		.byte	0xff
 1976 00d1 FF       		.byte	0xff
 1977 00d2 01       		.byte	0x1
 1978 00d3 04       		.uleb128 .LLSDACSE1593-.LLSDACSB1593
 1979              	.LLSDACSB1593:
 1980 00d4 18       		.uleb128 .LEHB26-.LFB1593
 1981 00d5 05       		.uleb128 .LEHE26-.LEHB26
 1982 00d6 2C       		.uleb128 .L105-.LFB1593
 1983 00d7 00       		.uleb128 0
 1984              	.LLSDACSE1593:
 1985              		.text
 1986              		.cfi_endproc
 1987              		.section	.text.unlikely
 1988              		.cfi_startproc
 1989              		.cfi_personality 0x9b,DW.ref.__gxx_personality_v0
 1990              		.cfi_lsda 0x1b,.LLSDAC1593
 1992              	_ZN12_GLOBAL__N_135TestCheckArrayEqualFailsOnExceptionD0Ev.cold:
 1993              	.LFSB1593:
 1994              	.L104:
 1995              		.cfi_def_cfa_offset 32
 1996              		.cfi_offset 6, -24
 1997              		.cfi_offset 12, -16
 1998 00d0 4889EF   		movq	%rbp, %rdi
 1999 00d3 E8000000 		call	_ZdlPv@PLT
 1999      00
 2000 00d8 4C89E7   		movq	%r12, %rdi
 2001              	.LEHB27:
 2002 00db E8000000 		call	_Unwind_Resume@PLT
 2002      00
 2003              	.LEHE27:
 2004              		.cfi_endproc
 2005              	.LFE1593:
 2006              		.section	.gcc_except_table
 2007              	.LLSDAC1593:
 2008 00d8 FF       		.byte	0xff
 2009 00d9 FF       		.byte	0xff
 2010 00da 01       		.byte	0x1
 2011 00db 04       		.uleb128 .LLSDACSEC1593-.LLSDACSBC1593
 2012              	.LLSDACSBC1593:
 2013 00dc 0B       		.uleb128 .LEHB27-.LCOLDB13
 2014 00dd 05       		.uleb128 .LEHE27-.LEHB27
 2015 00de 00       		.uleb128 0
 2016 00df 00       		.uleb128 0
 2017              	.LLSDACSEC1593:
 2018              		.section	.text.unlikely
 2019              		.text
 2021              		.section	.text.unlikely
 2023              	.LCOLDE13:
 2024              		.text
 2025              	.LHOTE13:
 2026              		.section	.text.unlikely
 2027              		.align 2
 2028              	.LCOLDB14:
 2029              		.text
 2030              	.LHOTB14:
 2031              		.align 2
 2032 0978 0F1F8400 		.p2align 4
 2032      00000000 
 2034              	_ZN12_GLOBAL__N_145TestCheckArrayEqualFailureContainsCorrectInfoD0Ev:
 2035              	.LFB1597:
 2036              		.cfi_startproc
 2037              		.cfi_personality 0x9b,DW.ref.__gxx_personality_v0
 2038              		.cfi_lsda 0x1b,.LLSDA1597
 2039 0980 F30F1EFA 		endbr64
 2040 0984 4154     		pushq	%r12
 2041              		.cfi_def_cfa_offset 16
 2042              		.cfi_offset 12, -16
 2043 0986 488D0500 		leaq	16+_ZTVN12_GLOBAL__N_145TestCheckArrayEqualFailureContainsCorrectInfoE(%rip), %rax
 2043      000000
 2044 098d 55       		pushq	%rbp
 2045              		.cfi_def_cfa_offset 24
 2046              		.cfi_offset 6, -24
 2047 098e 4889FD   		movq	%rdi, %rbp
 2048 0991 4883EC08 		subq	$8, %rsp
 2049              		.cfi_def_cfa_offset 32
 2050 0995 488907   		movq	%rax, (%rdi)
 2051              	.LEHB28:
 2052 0998 E8000000 		call	_ZN8UnitTest4TestD2Ev@PLT
 2052      00
 2053              	.LEHE28:
 2054 099d 4883C408 		addq	$8, %rsp
 2055              		.cfi_remember_state
 2056              		.cfi_def_cfa_offset 24
 2057 09a1 4889EF   		movq	%rbp, %rdi
 2058 09a4 5D       		popq	%rbp
 2059              		.cfi_def_cfa_offset 16
 2060 09a5 415C     		popq	%r12
 2061              		.cfi_def_cfa_offset 8
 2062 09a7 E9000000 		jmp	_ZdlPv@PLT
 2062      00
 2063              	.L109:
 2064              		.cfi_restore_state
 2065 09ac F30F1EFA 		endbr64
 2066 09b0 4989C4   		movq	%rax, %r12
 2067 09b3 E9000000 		jmp	.L108
 2067      00
 2068              		.section	.gcc_except_table
 2069              	.LLSDA1597:
 2070 00e0 FF       		.byte	0xff
 2071 00e1 FF       		.byte	0xff
 2072 00e2 01       		.byte	0x1
 2073 00e3 04       		.uleb128 .LLSDACSE1597-.LLSDACSB1597
 2074              	.LLSDACSB1597:
 2075 00e4 18       		.uleb128 .LEHB28-.LFB1597
 2076 00e5 05       		.uleb128 .LEHE28-.LEHB28
 2077 00e6 2C       		.uleb128 .L109-.LFB1597
 2078 00e7 00       		.uleb128 0
 2079              	.LLSDACSE1597:
 2080              		.text
 2081              		.cfi_endproc
 2082              		.section	.text.unlikely
 2083              		.cfi_startproc
 2084              		.cfi_personality 0x9b,DW.ref.__gxx_personality_v0
 2085              		.cfi_lsda 0x1b,.LLSDAC1597
 2087              	_ZN12_GLOBAL__N_145TestCheckArrayEqualFailureContainsCorrectInfoD0Ev.cold:
 2088              	.LFSB1597:
 2089              	.L108:
 2090              		.cfi_def_cfa_offset 32
 2091              		.cfi_offset 6, -24
 2092              		.cfi_offset 12, -16
 2093 00e0 4889EF   		movq	%rbp, %rdi
 2094 00e3 E8000000 		call	_ZdlPv@PLT
 2094      00
 2095 00e8 4C89E7   		movq	%r12, %rdi
 2096              	.LEHB29:
 2097 00eb E8000000 		call	_Unwind_Resume@PLT
 2097      00
 2098              	.LEHE29:
 2099              		.cfi_endproc
 2100              	.LFE1597:
 2101              		.section	.gcc_except_table
 2102              	.LLSDAC1597:
 2103 00e8 FF       		.byte	0xff
 2104 00e9 FF       		.byte	0xff
 2105 00ea 01       		.byte	0x1
 2106 00eb 04       		.uleb128 .LLSDACSEC1597-.LLSDACSBC1597
 2107              	.LLSDACSBC1597:
 2108 00ec 0B       		.uleb128 .LEHB29-.LCOLDB14
 2109 00ed 05       		.uleb128 .LEHE29-.LEHB29
 2110 00ee 00       		.uleb128 0
 2111 00ef 00       		.uleb128 0
 2112              	.LLSDACSEC1597:
 2113              		.section	.text.unlikely
 2114              		.text
 2116              		.section	.text.unlikely
 2118              	.LCOLDE14:
 2119              		.text
 2120              	.LHOTE14:
 2121              		.section	.text.unlikely
 2122              		.align 2
 2123              	.LCOLDB15:
 2124              		.text
 2125              	.LHOTB15:
 2126              		.align 2
 2127 09b8 0F1F8400 		.p2align 4
 2127      00000000 
 2129              	_ZN12_GLOBAL__N_156TestCheckArrayEqualFailureIncludesCheckExpectedAndActualD0Ev:
 2130              	.LFB1601:
 2131              		.cfi_startproc
 2132              		.cfi_personality 0x9b,DW.ref.__gxx_personality_v0
 2133              		.cfi_lsda 0x1b,.LLSDA1601
 2134 09c0 F30F1EFA 		endbr64
 2135 09c4 4154     		pushq	%r12
 2136              		.cfi_def_cfa_offset 16
 2137              		.cfi_offset 12, -16
 2138 09c6 488D0500 		leaq	16+_ZTVN12_GLOBAL__N_156TestCheckArrayEqualFailureIncludesCheckExpectedAndActualE(%rip), %rax
 2138      000000
 2139 09cd 55       		pushq	%rbp
 2140              		.cfi_def_cfa_offset 24
 2141              		.cfi_offset 6, -24
 2142 09ce 4889FD   		movq	%rdi, %rbp
 2143 09d1 4883EC08 		subq	$8, %rsp
 2144              		.cfi_def_cfa_offset 32
 2145 09d5 488907   		movq	%rax, (%rdi)
 2146              	.LEHB30:
 2147 09d8 E8000000 		call	_ZN8UnitTest4TestD2Ev@PLT
 2147      00
 2148              	.LEHE30:
 2149 09dd 4883C408 		addq	$8, %rsp
 2150              		.cfi_remember_state
 2151              		.cfi_def_cfa_offset 24
 2152 09e1 4889EF   		movq	%rbp, %rdi
 2153 09e4 5D       		popq	%rbp
 2154              		.cfi_def_cfa_offset 16
 2155 09e5 415C     		popq	%r12
 2156              		.cfi_def_cfa_offset 8
 2157 09e7 E9000000 		jmp	_ZdlPv@PLT
 2157      00
 2158              	.L113:
 2159              		.cfi_restore_state
 2160 09ec F30F1EFA 		endbr64
 2161 09f0 4989C4   		movq	%rax, %r12
 2162 09f3 E9000000 		jmp	.L112
 2162      00
 2163              		.section	.gcc_except_table
 2164              	.LLSDA1601:
 2165 00f0 FF       		.byte	0xff
 2166 00f1 FF       		.byte	0xff
 2167 00f2 01       		.byte	0x1
 2168 00f3 04       		.uleb128 .LLSDACSE1601-.LLSDACSB1601
 2169              	.LLSDACSB1601:
 2170 00f4 18       		.uleb128 .LEHB30-.LFB1601
 2171 00f5 05       		.uleb128 .LEHE30-.LEHB30
 2172 00f6 2C       		.uleb128 .L113-.LFB1601
 2173 00f7 00       		.uleb128 0
 2174              	.LLSDACSE1601:
 2175              		.text
 2176              		.cfi_endproc
 2177              		.section	.text.unlikely
 2178              		.cfi_startproc
 2179              		.cfi_personality 0x9b,DW.ref.__gxx_personality_v0
 2180              		.cfi_lsda 0x1b,.LLSDAC1601
 2182              	_ZN12_GLOBAL__N_156TestCheckArrayEqualFailureIncludesCheckExpectedAndActualD0Ev.cold:
 2183              	.LFSB1601:
 2184              	.L112:
 2185              		.cfi_def_cfa_offset 32
 2186              		.cfi_offset 6, -24
 2187              		.cfi_offset 12, -16
 2188 00f0 4889EF   		movq	%rbp, %rdi
 2189 00f3 E8000000 		call	_ZdlPv@PLT
 2189      00
 2190 00f8 4C89E7   		movq	%r12, %rdi
 2191              	.LEHB31:
 2192 00fb E8000000 		call	_Unwind_Resume@PLT
 2192      00
 2193              	.LEHE31:
 2194              		.cfi_endproc
 2195              	.LFE1601:
 2196              		.section	.gcc_except_table
 2197              	.LLSDAC1601:
 2198 00f8 FF       		.byte	0xff
 2199 00f9 FF       		.byte	0xff
 2200 00fa 01       		.byte	0x1
 2201 00fb 04       		.uleb128 .LLSDACSEC1601-.LLSDACSBC1601
 2202              	.LLSDACSBC1601:
 2203 00fc 0B       		.uleb128 .LEHB31-.LCOLDB15
 2204 00fd 05       		.uleb128 .LEHE31-.LEHB31
 2205 00fe 00       		.uleb128 0
 2206 00ff 00       		.uleb128 0
 2207              	.LLSDACSEC1601:
 2208              		.section	.text.unlikely
 2209              		.text
 2211              		.section	.text.unlikely
 2213              	.LCOLDE15:
 2214              		.text
 2215              	.LHOTE15:
 2216              		.section	.text.unlikely
 2217              		.align 2
 2218              	.LCOLDB16:
 2219              		.text
 2220              	.LHOTB16:
 2221              		.align 2
 2222 09f8 0F1F8400 		.p2align 4
 2222      00000000 
 2224              	_ZN12_GLOBAL__N_134TestCheckArrayEqualFailsOnNotEqualD0Ev:
 2225              	.LFB1605:
 2226              		.cfi_startproc
 2227              		.cfi_personality 0x9b,DW.ref.__gxx_personality_v0
 2228              		.cfi_lsda 0x1b,.LLSDA1605
 2229 0a00 F30F1EFA 		endbr64
 2230 0a04 4154     		pushq	%r12
 2231              		.cfi_def_cfa_offset 16
 2232              		.cfi_offset 12, -16
 2233 0a06 488D0500 		leaq	16+_ZTVN12_GLOBAL__N_134TestCheckArrayEqualFailsOnNotEqualE(%rip), %rax
 2233      000000
 2234 0a0d 55       		pushq	%rbp
 2235              		.cfi_def_cfa_offset 24
 2236              		.cfi_offset 6, -24
 2237 0a0e 4889FD   		movq	%rdi, %rbp
 2238 0a11 4883EC08 		subq	$8, %rsp
 2239              		.cfi_def_cfa_offset 32
 2240 0a15 488907   		movq	%rax, (%rdi)
 2241              	.LEHB32:
 2242 0a18 E8000000 		call	_ZN8UnitTest4TestD2Ev@PLT
 2242      00
 2243              	.LEHE32:
 2244 0a1d 4883C408 		addq	$8, %rsp
 2245              		.cfi_remember_state
 2246              		.cfi_def_cfa_offset 24
 2247 0a21 4889EF   		movq	%rbp, %rdi
 2248 0a24 5D       		popq	%rbp
 2249              		.cfi_def_cfa_offset 16
 2250 0a25 415C     		popq	%r12
 2251              		.cfi_def_cfa_offset 8
 2252 0a27 E9000000 		jmp	_ZdlPv@PLT
 2252      00
 2253              	.L117:
 2254              		.cfi_restore_state
 2255 0a2c F30F1EFA 		endbr64
 2256 0a30 4989C4   		movq	%rax, %r12
 2257 0a33 E9000000 		jmp	.L116
 2257      00
 2258              		.section	.gcc_except_table
 2259              	.LLSDA1605:
 2260 0100 FF       		.byte	0xff
 2261 0101 FF       		.byte	0xff
 2262 0102 01       		.byte	0x1
 2263 0103 04       		.uleb128 .LLSDACSE1605-.LLSDACSB1605
 2264              	.LLSDACSB1605:
 2265 0104 18       		.uleb128 .LEHB32-.LFB1605
 2266 0105 05       		.uleb128 .LEHE32-.LEHB32
 2267 0106 2C       		.uleb128 .L117-.LFB1605
 2268 0107 00       		.uleb128 0
 2269              	.LLSDACSE1605:
 2270              		.text
 2271              		.cfi_endproc
 2272              		.section	.text.unlikely
 2273              		.cfi_startproc
 2274              		.cfi_personality 0x9b,DW.ref.__gxx_personality_v0
 2275              		.cfi_lsda 0x1b,.LLSDAC1605
 2277              	_ZN12_GLOBAL__N_134TestCheckArrayEqualFailsOnNotEqualD0Ev.cold:
 2278              	.LFSB1605:
 2279              	.L116:
 2280              		.cfi_def_cfa_offset 32
 2281              		.cfi_offset 6, -24
 2282              		.cfi_offset 12, -16
 2283 0100 4889EF   		movq	%rbp, %rdi
 2284 0103 E8000000 		call	_ZdlPv@PLT
 2284      00
 2285 0108 4C89E7   		movq	%r12, %rdi
 2286              	.LEHB33:
 2287 010b E8000000 		call	_Unwind_Resume@PLT
 2287      00
 2288              	.LEHE33:
 2289              		.cfi_endproc
 2290              	.LFE1605:
 2291              		.section	.gcc_except_table
 2292              	.LLSDAC1605:
 2293 0108 FF       		.byte	0xff
 2294 0109 FF       		.byte	0xff
 2295 010a 01       		.byte	0x1
 2296 010b 04       		.uleb128 .LLSDACSEC1605-.LLSDACSBC1605
 2297              	.LLSDACSBC1605:
 2298 010c 0B       		.uleb128 .LEHB33-.LCOLDB16
 2299 010d 05       		.uleb128 .LEHE33-.LEHB33
 2300 010e 00       		.uleb128 0
 2301 010f 00       		.uleb128 0
 2302              	.LLSDACSEC1605:
 2303              		.section	.text.unlikely
 2304              		.text
 2306              		.section	.text.unlikely
 2308              	.LCOLDE16:
 2309              		.text
 2310              	.LHOTE16:
 2311              		.section	.text.unlikely
 2312              		.align 2
 2313              	.LCOLDB17:
 2314              		.text
 2315              	.LHOTB17:
 2316              		.align 2
 2317 0a38 0F1F8400 		.p2align 4
 2317      00000000 
 2319              	_ZN12_GLOBAL__N_133TestCheckArrayEqualSuceedsOnEqualD0Ev:
 2320              	.LFB1609:
 2321              		.cfi_startproc
 2322              		.cfi_personality 0x9b,DW.ref.__gxx_personality_v0
 2323              		.cfi_lsda 0x1b,.LLSDA1609
 2324 0a40 F30F1EFA 		endbr64
 2325 0a44 4154     		pushq	%r12
 2326              		.cfi_def_cfa_offset 16
 2327              		.cfi_offset 12, -16
 2328 0a46 488D0500 		leaq	16+_ZTVN12_GLOBAL__N_133TestCheckArrayEqualSuceedsOnEqualE(%rip), %rax
 2328      000000
 2329 0a4d 55       		pushq	%rbp
 2330              		.cfi_def_cfa_offset 24
 2331              		.cfi_offset 6, -24
 2332 0a4e 4889FD   		movq	%rdi, %rbp
 2333 0a51 4883EC08 		subq	$8, %rsp
 2334              		.cfi_def_cfa_offset 32
 2335 0a55 488907   		movq	%rax, (%rdi)
 2336              	.LEHB34:
 2337 0a58 E8000000 		call	_ZN8UnitTest4TestD2Ev@PLT
 2337      00
 2338              	.LEHE34:
 2339 0a5d 4883C408 		addq	$8, %rsp
 2340              		.cfi_remember_state
 2341              		.cfi_def_cfa_offset 24
 2342 0a61 4889EF   		movq	%rbp, %rdi
 2343 0a64 5D       		popq	%rbp
 2344              		.cfi_def_cfa_offset 16
 2345 0a65 415C     		popq	%r12
 2346              		.cfi_def_cfa_offset 8
 2347 0a67 E9000000 		jmp	_ZdlPv@PLT
 2347      00
 2348              	.L121:
 2349              		.cfi_restore_state
 2350 0a6c F30F1EFA 		endbr64
 2351 0a70 4989C4   		movq	%rax, %r12
 2352 0a73 E9000000 		jmp	.L120
 2352      00
 2353              		.section	.gcc_except_table
 2354              	.LLSDA1609:
 2355 0110 FF       		.byte	0xff
 2356 0111 FF       		.byte	0xff
 2357 0112 01       		.byte	0x1
 2358 0113 04       		.uleb128 .LLSDACSE1609-.LLSDACSB1609
 2359              	.LLSDACSB1609:
 2360 0114 18       		.uleb128 .LEHB34-.LFB1609
 2361 0115 05       		.uleb128 .LEHE34-.LEHB34
 2362 0116 2C       		.uleb128 .L121-.LFB1609
 2363 0117 00       		.uleb128 0
 2364              	.LLSDACSE1609:
 2365              		.text
 2366              		.cfi_endproc
 2367              		.section	.text.unlikely
 2368              		.cfi_startproc
 2369              		.cfi_personality 0x9b,DW.ref.__gxx_personality_v0
 2370              		.cfi_lsda 0x1b,.LLSDAC1609
 2372              	_ZN12_GLOBAL__N_133TestCheckArrayEqualSuceedsOnEqualD0Ev.cold:
 2373              	.LFSB1609:
 2374              	.L120:
 2375              		.cfi_def_cfa_offset 32
 2376              		.cfi_offset 6, -24
 2377              		.cfi_offset 12, -16
 2378 0110 4889EF   		movq	%rbp, %rdi
 2379 0113 E8000000 		call	_ZdlPv@PLT
 2379      00
 2380 0118 4C89E7   		movq	%r12, %rdi
 2381              	.LEHB35:
 2382 011b E8000000 		call	_Unwind_Resume@PLT
 2382      00
 2383              	.LEHE35:
 2384              		.cfi_endproc
 2385              	.LFE1609:
 2386              		.section	.gcc_except_table
 2387              	.LLSDAC1609:
 2388 0118 FF       		.byte	0xff
 2389 0119 FF       		.byte	0xff
 2390 011a 01       		.byte	0x1
 2391 011b 04       		.uleb128 .LLSDACSEC1609-.LLSDACSBC1609
 2392              	.LLSDACSBC1609:
 2393 011c 0B       		.uleb128 .LEHB35-.LCOLDB17
 2394 011d 05       		.uleb128 .LEHE35-.LEHB35
 2395 011e 00       		.uleb128 0
 2396 011f 00       		.uleb128 0
 2397              	.LLSDACSEC1609:
 2398              		.section	.text.unlikely
 2399              		.text
 2401              		.section	.text.unlikely
 2403              	.LCOLDE17:
 2404              		.text
 2405              	.LHOTE17:
 2406              		.section	.text.unlikely
 2407              		.align 2
 2408              	.LCOLDB18:
 2409              		.text
 2410              	.LHOTB18:
 2411              		.align 2
 2412 0a78 0F1F8400 		.p2align 4
 2412      00000000 
 2414              	_ZN12_GLOBAL__N_158TestCheckArrayCloseFailureOnExceptionIncludesCheckContentsD0Ev:
 2415              	.LFB1613:
 2416              		.cfi_startproc
 2417              		.cfi_personality 0x9b,DW.ref.__gxx_personality_v0
 2418              		.cfi_lsda 0x1b,.LLSDA1613
 2419 0a80 F30F1EFA 		endbr64
 2420 0a84 4154     		pushq	%r12
 2421              		.cfi_def_cfa_offset 16
 2422              		.cfi_offset 12, -16
 2423 0a86 488D0500 		leaq	16+_ZTVN12_GLOBAL__N_158TestCheckArrayCloseFailureOnExceptionIncludesCheckContentsE(%rip), %r
 2423      000000
 2424 0a8d 55       		pushq	%rbp
 2425              		.cfi_def_cfa_offset 24
 2426              		.cfi_offset 6, -24
 2427 0a8e 4889FD   		movq	%rdi, %rbp
 2428 0a91 4883EC08 		subq	$8, %rsp
 2429              		.cfi_def_cfa_offset 32
 2430 0a95 488907   		movq	%rax, (%rdi)
 2431              	.LEHB36:
 2432 0a98 E8000000 		call	_ZN8UnitTest4TestD2Ev@PLT
 2432      00
 2433              	.LEHE36:
 2434 0a9d 4883C408 		addq	$8, %rsp
 2435              		.cfi_remember_state
 2436              		.cfi_def_cfa_offset 24
 2437 0aa1 4889EF   		movq	%rbp, %rdi
 2438 0aa4 5D       		popq	%rbp
 2439              		.cfi_def_cfa_offset 16
 2440 0aa5 415C     		popq	%r12
 2441              		.cfi_def_cfa_offset 8
 2442 0aa7 E9000000 		jmp	_ZdlPv@PLT
 2442      00
 2443              	.L125:
 2444              		.cfi_restore_state
 2445 0aac F30F1EFA 		endbr64
 2446 0ab0 4989C4   		movq	%rax, %r12
 2447 0ab3 E9000000 		jmp	.L124
 2447      00
 2448              		.section	.gcc_except_table
 2449              	.LLSDA1613:
 2450 0120 FF       		.byte	0xff
 2451 0121 FF       		.byte	0xff
 2452 0122 01       		.byte	0x1
 2453 0123 04       		.uleb128 .LLSDACSE1613-.LLSDACSB1613
 2454              	.LLSDACSB1613:
 2455 0124 18       		.uleb128 .LEHB36-.LFB1613
 2456 0125 05       		.uleb128 .LEHE36-.LEHB36
 2457 0126 2C       		.uleb128 .L125-.LFB1613
 2458 0127 00       		.uleb128 0
 2459              	.LLSDACSE1613:
 2460              		.text
 2461              		.cfi_endproc
 2462              		.section	.text.unlikely
 2463              		.cfi_startproc
 2464              		.cfi_personality 0x9b,DW.ref.__gxx_personality_v0
 2465              		.cfi_lsda 0x1b,.LLSDAC1613
 2467              	_ZN12_GLOBAL__N_158TestCheckArrayCloseFailureOnExceptionIncludesCheckContentsD0Ev.cold:
 2468              	.LFSB1613:
 2469              	.L124:
 2470              		.cfi_def_cfa_offset 32
 2471              		.cfi_offset 6, -24
 2472              		.cfi_offset 12, -16
 2473 0120 4889EF   		movq	%rbp, %rdi
 2474 0123 E8000000 		call	_ZdlPv@PLT
 2474      00
 2475 0128 4C89E7   		movq	%r12, %rdi
 2476              	.LEHB37:
 2477 012b E8000000 		call	_Unwind_Resume@PLT
 2477      00
 2478              	.LEHE37:
 2479              		.cfi_endproc
 2480              	.LFE1613:
 2481              		.section	.gcc_except_table
 2482              	.LLSDAC1613:
 2483 0128 FF       		.byte	0xff
 2484 0129 FF       		.byte	0xff
 2485 012a 01       		.byte	0x1
 2486 012b 04       		.uleb128 .LLSDACSEC1613-.LLSDACSBC1613
 2487              	.LLSDACSBC1613:
 2488 012c 0B       		.uleb128 .LEHB37-.LCOLDB18
 2489 012d 05       		.uleb128 .LEHE37-.LEHB37
 2490 012e 00       		.uleb128 0
 2491 012f 00       		.uleb128 0
 2492              	.LLSDACSEC1613:
 2493              		.section	.text.unlikely
 2494              		.text
 2496              		.section	.text.unlikely
 2498              	.LCOLDE18:
 2499              		.text
 2500              	.LHOTE18:
 2501              		.section	.text.unlikely
 2502              		.align 2
 2503              	.LCOLDB19:
 2504              		.text
 2505              	.LHOTB19:
 2506              		.align 2
 2507 0ab8 0F1F8400 		.p2align 4
 2507      00000000 
 2509              	_ZN12_GLOBAL__N_135TestCheckArrayCloseFailsOnExceptionD0Ev:
 2510              	.LFB1617:
 2511              		.cfi_startproc
 2512              		.cfi_personality 0x9b,DW.ref.__gxx_personality_v0
 2513              		.cfi_lsda 0x1b,.LLSDA1617
 2514 0ac0 F30F1EFA 		endbr64
 2515 0ac4 4154     		pushq	%r12
 2516              		.cfi_def_cfa_offset 16
 2517              		.cfi_offset 12, -16
 2518 0ac6 488D0500 		leaq	16+_ZTVN12_GLOBAL__N_135TestCheckArrayCloseFailsOnExceptionE(%rip), %rax
 2518      000000
 2519 0acd 55       		pushq	%rbp
 2520              		.cfi_def_cfa_offset 24
 2521              		.cfi_offset 6, -24
 2522 0ace 4889FD   		movq	%rdi, %rbp
 2523 0ad1 4883EC08 		subq	$8, %rsp
 2524              		.cfi_def_cfa_offset 32
 2525 0ad5 488907   		movq	%rax, (%rdi)
 2526              	.LEHB38:
 2527 0ad8 E8000000 		call	_ZN8UnitTest4TestD2Ev@PLT
 2527      00
 2528              	.LEHE38:
 2529 0add 4883C408 		addq	$8, %rsp
 2530              		.cfi_remember_state
 2531              		.cfi_def_cfa_offset 24
 2532 0ae1 4889EF   		movq	%rbp, %rdi
 2533 0ae4 5D       		popq	%rbp
 2534              		.cfi_def_cfa_offset 16
 2535 0ae5 415C     		popq	%r12
 2536              		.cfi_def_cfa_offset 8
 2537 0ae7 E9000000 		jmp	_ZdlPv@PLT
 2537      00
 2538              	.L129:
 2539              		.cfi_restore_state
 2540 0aec F30F1EFA 		endbr64
 2541 0af0 4989C4   		movq	%rax, %r12
 2542 0af3 E9000000 		jmp	.L128
 2542      00
 2543              		.section	.gcc_except_table
 2544              	.LLSDA1617:
 2545 0130 FF       		.byte	0xff
 2546 0131 FF       		.byte	0xff
 2547 0132 01       		.byte	0x1
 2548 0133 04       		.uleb128 .LLSDACSE1617-.LLSDACSB1617
 2549              	.LLSDACSB1617:
 2550 0134 18       		.uleb128 .LEHB38-.LFB1617
 2551 0135 05       		.uleb128 .LEHE38-.LEHB38
 2552 0136 2C       		.uleb128 .L129-.LFB1617
 2553 0137 00       		.uleb128 0
 2554              	.LLSDACSE1617:
 2555              		.text
 2556              		.cfi_endproc
 2557              		.section	.text.unlikely
 2558              		.cfi_startproc
 2559              		.cfi_personality 0x9b,DW.ref.__gxx_personality_v0
 2560              		.cfi_lsda 0x1b,.LLSDAC1617
 2562              	_ZN12_GLOBAL__N_135TestCheckArrayCloseFailsOnExceptionD0Ev.cold:
 2563              	.LFSB1617:
 2564              	.L128:
 2565              		.cfi_def_cfa_offset 32
 2566              		.cfi_offset 6, -24
 2567              		.cfi_offset 12, -16
 2568 0130 4889EF   		movq	%rbp, %rdi
 2569 0133 E8000000 		call	_ZdlPv@PLT
 2569      00
 2570 0138 4C89E7   		movq	%r12, %rdi
 2571              	.LEHB39:
 2572 013b E8000000 		call	_Unwind_Resume@PLT
 2572      00
 2573              	.LEHE39:
 2574              		.cfi_endproc
 2575              	.LFE1617:
 2576              		.section	.gcc_except_table
 2577              	.LLSDAC1617:
 2578 0138 FF       		.byte	0xff
 2579 0139 FF       		.byte	0xff
 2580 013a 01       		.byte	0x1
 2581 013b 04       		.uleb128 .LLSDACSEC1617-.LLSDACSBC1617
 2582              	.LLSDACSBC1617:
 2583 013c 0B       		.uleb128 .LEHB39-.LCOLDB19
 2584 013d 05       		.uleb128 .LEHE39-.LEHB39
 2585 013e 00       		.uleb128 0
 2586 013f 00       		.uleb128 0
 2587              	.LLSDACSEC1617:
 2588              		.section	.text.unlikely
 2589              		.text
 2591              		.section	.text.unlikely
 2593              	.LCOLDE19:
 2594              		.text
 2595              	.LHOTE19:
 2596              		.section	.text.unlikely
 2597              		.align 2
 2598              	.LCOLDB20:
 2599              		.text
 2600              	.LHOTB20:
 2601              		.align 2
 2602 0af8 0F1F8400 		.p2align 4
 2602      00000000 
 2604              	_ZN12_GLOBAL__N_143TestCheckArrayCloseFailureIncludesToleranceD0Ev:
 2605              	.LFB1621:
 2606              		.cfi_startproc
 2607              		.cfi_personality 0x9b,DW.ref.__gxx_personality_v0
 2608              		.cfi_lsda 0x1b,.LLSDA1621
 2609 0b00 F30F1EFA 		endbr64
 2610 0b04 4154     		pushq	%r12
 2611              		.cfi_def_cfa_offset 16
 2612              		.cfi_offset 12, -16
 2613 0b06 488D0500 		leaq	16+_ZTVN12_GLOBAL__N_143TestCheckArrayCloseFailureIncludesToleranceE(%rip), %rax
 2613      000000
 2614 0b0d 55       		pushq	%rbp
 2615              		.cfi_def_cfa_offset 24
 2616              		.cfi_offset 6, -24
 2617 0b0e 4889FD   		movq	%rdi, %rbp
 2618 0b11 4883EC08 		subq	$8, %rsp
 2619              		.cfi_def_cfa_offset 32
 2620 0b15 488907   		movq	%rax, (%rdi)
 2621              	.LEHB40:
 2622 0b18 E8000000 		call	_ZN8UnitTest4TestD2Ev@PLT
 2622      00
 2623              	.LEHE40:
 2624 0b1d 4883C408 		addq	$8, %rsp
 2625              		.cfi_remember_state
 2626              		.cfi_def_cfa_offset 24
 2627 0b21 4889EF   		movq	%rbp, %rdi
 2628 0b24 5D       		popq	%rbp
 2629              		.cfi_def_cfa_offset 16
 2630 0b25 415C     		popq	%r12
 2631              		.cfi_def_cfa_offset 8
 2632 0b27 E9000000 		jmp	_ZdlPv@PLT
 2632      00
 2633              	.L133:
 2634              		.cfi_restore_state
 2635 0b2c F30F1EFA 		endbr64
 2636 0b30 4989C4   		movq	%rax, %r12
 2637 0b33 E9000000 		jmp	.L132
 2637      00
 2638              		.section	.gcc_except_table
 2639              	.LLSDA1621:
 2640 0140 FF       		.byte	0xff
 2641 0141 FF       		.byte	0xff
 2642 0142 01       		.byte	0x1
 2643 0143 04       		.uleb128 .LLSDACSE1621-.LLSDACSB1621
 2644              	.LLSDACSB1621:
 2645 0144 18       		.uleb128 .LEHB40-.LFB1621
 2646 0145 05       		.uleb128 .LEHE40-.LEHB40
 2647 0146 2C       		.uleb128 .L133-.LFB1621
 2648 0147 00       		.uleb128 0
 2649              	.LLSDACSE1621:
 2650              		.text
 2651              		.cfi_endproc
 2652              		.section	.text.unlikely
 2653              		.cfi_startproc
 2654              		.cfi_personality 0x9b,DW.ref.__gxx_personality_v0
 2655              		.cfi_lsda 0x1b,.LLSDAC1621
 2657              	_ZN12_GLOBAL__N_143TestCheckArrayCloseFailureIncludesToleranceD0Ev.cold:
 2658              	.LFSB1621:
 2659              	.L132:
 2660              		.cfi_def_cfa_offset 32
 2661              		.cfi_offset 6, -24
 2662              		.cfi_offset 12, -16
 2663 0140 4889EF   		movq	%rbp, %rdi
 2664 0143 E8000000 		call	_ZdlPv@PLT
 2664      00
 2665 0148 4C89E7   		movq	%r12, %rdi
 2666              	.LEHB41:
 2667 014b E8000000 		call	_Unwind_Resume@PLT
 2667      00
 2668              	.LEHE41:
 2669              		.cfi_endproc
 2670              	.LFE1621:
 2671              		.section	.gcc_except_table
 2672              	.LLSDAC1621:
 2673 0148 FF       		.byte	0xff
 2674 0149 FF       		.byte	0xff
 2675 014a 01       		.byte	0x1
 2676 014b 04       		.uleb128 .LLSDACSEC1621-.LLSDACSBC1621
 2677              	.LLSDACSBC1621:
 2678 014c 0B       		.uleb128 .LEHB41-.LCOLDB20
 2679 014d 05       		.uleb128 .LEHE41-.LEHB41
 2680 014e 00       		.uleb128 0
 2681 014f 00       		.uleb128 0
 2682              	.LLSDACSEC1621:
 2683              		.section	.text.unlikely
 2684              		.text
 2686              		.section	.text.unlikely
 2688              	.LCOLDE20:
 2689              		.text
 2690              	.LHOTE20:
 2691              		.section	.text.unlikely
 2692              		.align 2
 2693              	.LCOLDB21:
 2694              		.text
 2695              	.LHOTB21:
 2696              		.align 2
 2697 0b38 0F1F8400 		.p2align 4
 2697      00000000 
 2699              	_ZN12_GLOBAL__N_166TestCheckArrayCloseFailureBecauseOfExceptionContainsCorrectDetailsD0Ev:
 2700              	.LFB1625:
 2701              		.cfi_startproc
 2702              		.cfi_personality 0x9b,DW.ref.__gxx_personality_v0
 2703              		.cfi_lsda 0x1b,.LLSDA1625
 2704 0b40 F30F1EFA 		endbr64
 2705 0b44 4154     		pushq	%r12
 2706              		.cfi_def_cfa_offset 16
 2707              		.cfi_offset 12, -16
 2708 0b46 488D0500 		leaq	16+_ZTVN12_GLOBAL__N_166TestCheckArrayCloseFailureBecauseOfExceptionContainsCorrectDetailsE(%
 2708      000000
 2709 0b4d 55       		pushq	%rbp
 2710              		.cfi_def_cfa_offset 24
 2711              		.cfi_offset 6, -24
 2712 0b4e 4889FD   		movq	%rdi, %rbp
 2713 0b51 4883EC08 		subq	$8, %rsp
 2714              		.cfi_def_cfa_offset 32
 2715 0b55 488907   		movq	%rax, (%rdi)
 2716              	.LEHB42:
 2717 0b58 E8000000 		call	_ZN8UnitTest4TestD2Ev@PLT
 2717      00
 2718              	.LEHE42:
 2719 0b5d 4883C408 		addq	$8, %rsp
 2720              		.cfi_remember_state
 2721              		.cfi_def_cfa_offset 24
 2722 0b61 4889EF   		movq	%rbp, %rdi
 2723 0b64 5D       		popq	%rbp
 2724              		.cfi_def_cfa_offset 16
 2725 0b65 415C     		popq	%r12
 2726              		.cfi_def_cfa_offset 8
 2727 0b67 E9000000 		jmp	_ZdlPv@PLT
 2727      00
 2728              	.L137:
 2729              		.cfi_restore_state
 2730 0b6c F30F1EFA 		endbr64
 2731 0b70 4989C4   		movq	%rax, %r12
 2732 0b73 E9000000 		jmp	.L136
 2732      00
 2733              		.section	.gcc_except_table
 2734              	.LLSDA1625:
 2735 0150 FF       		.byte	0xff
 2736 0151 FF       		.byte	0xff
 2737 0152 01       		.byte	0x1
 2738 0153 04       		.uleb128 .LLSDACSE1625-.LLSDACSB1625
 2739              	.LLSDACSB1625:
 2740 0154 18       		.uleb128 .LEHB42-.LFB1625
 2741 0155 05       		.uleb128 .LEHE42-.LEHB42
 2742 0156 2C       		.uleb128 .L137-.LFB1625
 2743 0157 00       		.uleb128 0
 2744              	.LLSDACSE1625:
 2745              		.text
 2746              		.cfi_endproc
 2747              		.section	.text.unlikely
 2748              		.cfi_startproc
 2749              		.cfi_personality 0x9b,DW.ref.__gxx_personality_v0
 2750              		.cfi_lsda 0x1b,.LLSDAC1625
 2752              	_ZN12_GLOBAL__N_166TestCheckArrayCloseFailureBecauseOfExceptionContainsCorrectDetailsD0Ev.cold:
 2753              	.LFSB1625:
 2754              	.L136:
 2755              		.cfi_def_cfa_offset 32
 2756              		.cfi_offset 6, -24
 2757              		.cfi_offset 12, -16
 2758 0150 4889EF   		movq	%rbp, %rdi
 2759 0153 E8000000 		call	_ZdlPv@PLT
 2759      00
 2760 0158 4C89E7   		movq	%r12, %rdi
 2761              	.LEHB43:
 2762 015b E8000000 		call	_Unwind_Resume@PLT
 2762      00
 2763              	.LEHE43:
 2764              		.cfi_endproc
 2765              	.LFE1625:
 2766              		.section	.gcc_except_table
 2767              	.LLSDAC1625:
 2768 0158 FF       		.byte	0xff
 2769 0159 FF       		.byte	0xff
 2770 015a 01       		.byte	0x1
 2771 015b 04       		.uleb128 .LLSDACSEC1625-.LLSDACSBC1625
 2772              	.LLSDACSBC1625:
 2773 015c 0B       		.uleb128 .LEHB43-.LCOLDB21
 2774 015d 05       		.uleb128 .LEHE43-.LEHB43
 2775 015e 00       		.uleb128 0
 2776 015f 00       		.uleb128 0
 2777              	.LLSDACSEC1625:
 2778              		.section	.text.unlikely
 2779              		.text
 2781              		.section	.text.unlikely
 2783              	.LCOLDE21:
 2784              		.text
 2785              	.LHOTE21:
 2786              		.section	.text.unlikely
 2787              		.align 2
 2788              	.LCOLDB22:
 2789              		.text
 2790              	.LHOTB22:
 2791              		.align 2
 2792 0b78 0F1F8400 		.p2align 4
 2792      00000000 
 2794              	_ZN12_GLOBAL__N_148TestCheckArrayCloseFailureContainsCorrectDetailsD0Ev:
 2795              	.LFB1629:
 2796              		.cfi_startproc
 2797              		.cfi_personality 0x9b,DW.ref.__gxx_personality_v0
 2798              		.cfi_lsda 0x1b,.LLSDA1629
 2799 0b80 F30F1EFA 		endbr64
 2800 0b84 4154     		pushq	%r12
 2801              		.cfi_def_cfa_offset 16
 2802              		.cfi_offset 12, -16
 2803 0b86 488D0500 		leaq	16+_ZTVN12_GLOBAL__N_148TestCheckArrayCloseFailureContainsCorrectDetailsE(%rip), %rax
 2803      000000
 2804 0b8d 55       		pushq	%rbp
 2805              		.cfi_def_cfa_offset 24
 2806              		.cfi_offset 6, -24
 2807 0b8e 4889FD   		movq	%rdi, %rbp
 2808 0b91 4883EC08 		subq	$8, %rsp
 2809              		.cfi_def_cfa_offset 32
 2810 0b95 488907   		movq	%rax, (%rdi)
 2811              	.LEHB44:
 2812 0b98 E8000000 		call	_ZN8UnitTest4TestD2Ev@PLT
 2812      00
 2813              	.LEHE44:
 2814 0b9d 4883C408 		addq	$8, %rsp
 2815              		.cfi_remember_state
 2816              		.cfi_def_cfa_offset 24
 2817 0ba1 4889EF   		movq	%rbp, %rdi
 2818 0ba4 5D       		popq	%rbp
 2819              		.cfi_def_cfa_offset 16
 2820 0ba5 415C     		popq	%r12
 2821              		.cfi_def_cfa_offset 8
 2822 0ba7 E9000000 		jmp	_ZdlPv@PLT
 2822      00
 2823              	.L141:
 2824              		.cfi_restore_state
 2825 0bac F30F1EFA 		endbr64
 2826 0bb0 4989C4   		movq	%rax, %r12
 2827 0bb3 E9000000 		jmp	.L140
 2827      00
 2828              		.section	.gcc_except_table
 2829              	.LLSDA1629:
 2830 0160 FF       		.byte	0xff
 2831 0161 FF       		.byte	0xff
 2832 0162 01       		.byte	0x1
 2833 0163 04       		.uleb128 .LLSDACSE1629-.LLSDACSB1629
 2834              	.LLSDACSB1629:
 2835 0164 18       		.uleb128 .LEHB44-.LFB1629
 2836 0165 05       		.uleb128 .LEHE44-.LEHB44
 2837 0166 2C       		.uleb128 .L141-.LFB1629
 2838 0167 00       		.uleb128 0
 2839              	.LLSDACSE1629:
 2840              		.text
 2841              		.cfi_endproc
 2842              		.section	.text.unlikely
 2843              		.cfi_startproc
 2844              		.cfi_personality 0x9b,DW.ref.__gxx_personality_v0
 2845              		.cfi_lsda 0x1b,.LLSDAC1629
 2847              	_ZN12_GLOBAL__N_148TestCheckArrayCloseFailureContainsCorrectDetailsD0Ev.cold:
 2848              	.LFSB1629:
 2849              	.L140:
 2850              		.cfi_def_cfa_offset 32
 2851              		.cfi_offset 6, -24
 2852              		.cfi_offset 12, -16
 2853 0160 4889EF   		movq	%rbp, %rdi
 2854 0163 E8000000 		call	_ZdlPv@PLT
 2854      00
 2855 0168 4C89E7   		movq	%r12, %rdi
 2856              	.LEHB45:
 2857 016b E8000000 		call	_Unwind_Resume@PLT
 2857      00
 2858              	.LEHE45:
 2859              		.cfi_endproc
 2860              	.LFE1629:
 2861              		.section	.gcc_except_table
 2862              	.LLSDAC1629:
 2863 0168 FF       		.byte	0xff
 2864 0169 FF       		.byte	0xff
 2865 016a 01       		.byte	0x1
 2866 016b 04       		.uleb128 .LLSDACSEC1629-.LLSDACSBC1629
 2867              	.LLSDACSBC1629:
 2868 016c 0B       		.uleb128 .LEHB45-.LCOLDB22
 2869 016d 05       		.uleb128 .LEHE45-.LEHB45
 2870 016e 00       		.uleb128 0
 2871 016f 00       		.uleb128 0
 2872              	.LLSDACSEC1629:
 2873              		.section	.text.unlikely
 2874              		.text
 2876              		.section	.text.unlikely
 2878              	.LCOLDE22:
 2879              		.text
 2880              	.LHOTE22:
 2881              		.section	.text.unlikely
 2882              		.align 2
 2883              	.LCOLDB23:
 2884              		.text
 2885              	.LHOTB23:
 2886              		.align 2
 2887 0bb8 0F1F8400 		.p2align 4
 2887      00000000 
 2889              	_ZN12_GLOBAL__N_156TestCheckArrayCloseFailureIncludesCheckExpectedAndActualD0Ev:
 2890              	.LFB1633:
 2891              		.cfi_startproc
 2892              		.cfi_personality 0x9b,DW.ref.__gxx_personality_v0
 2893              		.cfi_lsda 0x1b,.LLSDA1633
 2894 0bc0 F30F1EFA 		endbr64
 2895 0bc4 4154     		pushq	%r12
 2896              		.cfi_def_cfa_offset 16
 2897              		.cfi_offset 12, -16
 2898 0bc6 488D0500 		leaq	16+_ZTVN12_GLOBAL__N_156TestCheckArrayCloseFailureIncludesCheckExpectedAndActualE(%rip), %rax
 2898      000000
 2899 0bcd 55       		pushq	%rbp
 2900              		.cfi_def_cfa_offset 24
 2901              		.cfi_offset 6, -24
 2902 0bce 4889FD   		movq	%rdi, %rbp
 2903 0bd1 4883EC08 		subq	$8, %rsp
 2904              		.cfi_def_cfa_offset 32
 2905 0bd5 488907   		movq	%rax, (%rdi)
 2906              	.LEHB46:
 2907 0bd8 E8000000 		call	_ZN8UnitTest4TestD2Ev@PLT
 2907      00
 2908              	.LEHE46:
 2909 0bdd 4883C408 		addq	$8, %rsp
 2910              		.cfi_remember_state
 2911              		.cfi_def_cfa_offset 24
 2912 0be1 4889EF   		movq	%rbp, %rdi
 2913 0be4 5D       		popq	%rbp
 2914              		.cfi_def_cfa_offset 16
 2915 0be5 415C     		popq	%r12
 2916              		.cfi_def_cfa_offset 8
 2917 0be7 E9000000 		jmp	_ZdlPv@PLT
 2917      00
 2918              	.L145:
 2919              		.cfi_restore_state
 2920 0bec F30F1EFA 		endbr64
 2921 0bf0 4989C4   		movq	%rax, %r12
 2922 0bf3 E9000000 		jmp	.L144
 2922      00
 2923              		.section	.gcc_except_table
 2924              	.LLSDA1633:
 2925 0170 FF       		.byte	0xff
 2926 0171 FF       		.byte	0xff
 2927 0172 01       		.byte	0x1
 2928 0173 04       		.uleb128 .LLSDACSE1633-.LLSDACSB1633
 2929              	.LLSDACSB1633:
 2930 0174 18       		.uleb128 .LEHB46-.LFB1633
 2931 0175 05       		.uleb128 .LEHE46-.LEHB46
 2932 0176 2C       		.uleb128 .L145-.LFB1633
 2933 0177 00       		.uleb128 0
 2934              	.LLSDACSE1633:
 2935              		.text
 2936              		.cfi_endproc
 2937              		.section	.text.unlikely
 2938              		.cfi_startproc
 2939              		.cfi_personality 0x9b,DW.ref.__gxx_personality_v0
 2940              		.cfi_lsda 0x1b,.LLSDAC1633
 2942              	_ZN12_GLOBAL__N_156TestCheckArrayCloseFailureIncludesCheckExpectedAndActualD0Ev.cold:
 2943              	.LFSB1633:
 2944              	.L144:
 2945              		.cfi_def_cfa_offset 32
 2946              		.cfi_offset 6, -24
 2947              		.cfi_offset 12, -16
 2948 0170 4889EF   		movq	%rbp, %rdi
 2949 0173 E8000000 		call	_ZdlPv@PLT
 2949      00
 2950 0178 4C89E7   		movq	%r12, %rdi
 2951              	.LEHB47:
 2952 017b E8000000 		call	_Unwind_Resume@PLT
 2952      00
 2953              	.LEHE47:
 2954              		.cfi_endproc
 2955              	.LFE1633:
 2956              		.section	.gcc_except_table
 2957              	.LLSDAC1633:
 2958 0178 FF       		.byte	0xff
 2959 0179 FF       		.byte	0xff
 2960 017a 01       		.byte	0x1
 2961 017b 04       		.uleb128 .LLSDACSEC1633-.LLSDACSBC1633
 2962              	.LLSDACSBC1633:
 2963 017c 0B       		.uleb128 .LEHB47-.LCOLDB23
 2964 017d 05       		.uleb128 .LEHE47-.LEHB47
 2965 017e 00       		.uleb128 0
 2966 017f 00       		.uleb128 0
 2967              	.LLSDACSEC1633:
 2968              		.section	.text.unlikely
 2969              		.text
 2971              		.section	.text.unlikely
 2973              	.LCOLDE23:
 2974              		.text
 2975              	.LHOTE23:
 2976              		.section	.text.unlikely
 2977              		.align 2
 2978              	.LCOLDB24:
 2979              		.text
 2980              	.LHOTB24:
 2981              		.align 2
 2982 0bf8 0F1F8400 		.p2align 4
 2982      00000000 
 2984              	_ZN12_GLOBAL__N_134TestCheckArrayCloseFailsOnNotEqualD0Ev:
 2985              	.LFB1637:
 2986              		.cfi_startproc
 2987              		.cfi_personality 0x9b,DW.ref.__gxx_personality_v0
 2988              		.cfi_lsda 0x1b,.LLSDA1637
 2989 0c00 F30F1EFA 		endbr64
 2990 0c04 4154     		pushq	%r12
 2991              		.cfi_def_cfa_offset 16
 2992              		.cfi_offset 12, -16
 2993 0c06 488D0500 		leaq	16+_ZTVN12_GLOBAL__N_134TestCheckArrayCloseFailsOnNotEqualE(%rip), %rax
 2993      000000
 2994 0c0d 55       		pushq	%rbp
 2995              		.cfi_def_cfa_offset 24
 2996              		.cfi_offset 6, -24
 2997 0c0e 4889FD   		movq	%rdi, %rbp
 2998 0c11 4883EC08 		subq	$8, %rsp
 2999              		.cfi_def_cfa_offset 32
 3000 0c15 488907   		movq	%rax, (%rdi)
 3001              	.LEHB48:
 3002 0c18 E8000000 		call	_ZN8UnitTest4TestD2Ev@PLT
 3002      00
 3003              	.LEHE48:
 3004 0c1d 4883C408 		addq	$8, %rsp
 3005              		.cfi_remember_state
 3006              		.cfi_def_cfa_offset 24
 3007 0c21 4889EF   		movq	%rbp, %rdi
 3008 0c24 5D       		popq	%rbp
 3009              		.cfi_def_cfa_offset 16
 3010 0c25 415C     		popq	%r12
 3011              		.cfi_def_cfa_offset 8
 3012 0c27 E9000000 		jmp	_ZdlPv@PLT
 3012      00
 3013              	.L149:
 3014              		.cfi_restore_state
 3015 0c2c F30F1EFA 		endbr64
 3016 0c30 4989C4   		movq	%rax, %r12
 3017 0c33 E9000000 		jmp	.L148
 3017      00
 3018              		.section	.gcc_except_table
 3019              	.LLSDA1637:
 3020 0180 FF       		.byte	0xff
 3021 0181 FF       		.byte	0xff
 3022 0182 01       		.byte	0x1
 3023 0183 04       		.uleb128 .LLSDACSE1637-.LLSDACSB1637
 3024              	.LLSDACSB1637:
 3025 0184 18       		.uleb128 .LEHB48-.LFB1637
 3026 0185 05       		.uleb128 .LEHE48-.LEHB48
 3027 0186 2C       		.uleb128 .L149-.LFB1637
 3028 0187 00       		.uleb128 0
 3029              	.LLSDACSE1637:
 3030              		.text
 3031              		.cfi_endproc
 3032              		.section	.text.unlikely
 3033              		.cfi_startproc
 3034              		.cfi_personality 0x9b,DW.ref.__gxx_personality_v0
 3035              		.cfi_lsda 0x1b,.LLSDAC1637
 3037              	_ZN12_GLOBAL__N_134TestCheckArrayCloseFailsOnNotEqualD0Ev.cold:
 3038              	.LFSB1637:
 3039              	.L148:
 3040              		.cfi_def_cfa_offset 32
 3041              		.cfi_offset 6, -24
 3042              		.cfi_offset 12, -16
 3043 0180 4889EF   		movq	%rbp, %rdi
 3044 0183 E8000000 		call	_ZdlPv@PLT
 3044      00
 3045 0188 4C89E7   		movq	%r12, %rdi
 3046              	.LEHB49:
 3047 018b E8000000 		call	_Unwind_Resume@PLT
 3047      00
 3048              	.LEHE49:
 3049              		.cfi_endproc
 3050              	.LFE1637:
 3051              		.section	.gcc_except_table
 3052              	.LLSDAC1637:
 3053 0188 FF       		.byte	0xff
 3054 0189 FF       		.byte	0xff
 3055 018a 01       		.byte	0x1
 3056 018b 04       		.uleb128 .LLSDACSEC1637-.LLSDACSBC1637
 3057              	.LLSDACSBC1637:
 3058 018c 0B       		.uleb128 .LEHB49-.LCOLDB24
 3059 018d 05       		.uleb128 .LEHE49-.LEHB49
 3060 018e 00       		.uleb128 0
 3061 018f 00       		.uleb128 0
 3062              	.LLSDACSEC1637:
 3063              		.section	.text.unlikely
 3064              		.text
 3066              		.section	.text.unlikely
 3068              	.LCOLDE24:
 3069              		.text
 3070              	.LHOTE24:
 3071              		.section	.text.unlikely
 3072              		.align 2
 3073              	.LCOLDB25:
 3074              		.text
 3075              	.LHOTB25:
 3076              		.align 2
 3077 0c38 0F1F8400 		.p2align 4
 3077      00000000 
 3079              	_ZN12_GLOBAL__N_134TestCheckArrayCloseSucceedsOnEqualD0Ev:
 3080              	.LFB1641:
 3081              		.cfi_startproc
 3082              		.cfi_personality 0x9b,DW.ref.__gxx_personality_v0
 3083              		.cfi_lsda 0x1b,.LLSDA1641
 3084 0c40 F30F1EFA 		endbr64
 3085 0c44 4154     		pushq	%r12
 3086              		.cfi_def_cfa_offset 16
 3087              		.cfi_offset 12, -16
 3088 0c46 488D0500 		leaq	16+_ZTVN12_GLOBAL__N_134TestCheckArrayCloseSucceedsOnEqualE(%rip), %rax
 3088      000000
 3089 0c4d 55       		pushq	%rbp
 3090              		.cfi_def_cfa_offset 24
 3091              		.cfi_offset 6, -24
 3092 0c4e 4889FD   		movq	%rdi, %rbp
 3093 0c51 4883EC08 		subq	$8, %rsp
 3094              		.cfi_def_cfa_offset 32
 3095 0c55 488907   		movq	%rax, (%rdi)
 3096              	.LEHB50:
 3097 0c58 E8000000 		call	_ZN8UnitTest4TestD2Ev@PLT
 3097      00
 3098              	.LEHE50:
 3099 0c5d 4883C408 		addq	$8, %rsp
 3100              		.cfi_remember_state
 3101              		.cfi_def_cfa_offset 24
 3102 0c61 4889EF   		movq	%rbp, %rdi
 3103 0c64 5D       		popq	%rbp
 3104              		.cfi_def_cfa_offset 16
 3105 0c65 415C     		popq	%r12
 3106              		.cfi_def_cfa_offset 8
 3107 0c67 E9000000 		jmp	_ZdlPv@PLT
 3107      00
 3108              	.L153:
 3109              		.cfi_restore_state
 3110 0c6c F30F1EFA 		endbr64
 3111 0c70 4989C4   		movq	%rax, %r12
 3112 0c73 E9000000 		jmp	.L152
 3112      00
 3113              		.section	.gcc_except_table
 3114              	.LLSDA1641:
 3115 0190 FF       		.byte	0xff
 3116 0191 FF       		.byte	0xff
 3117 0192 01       		.byte	0x1
 3118 0193 04       		.uleb128 .LLSDACSE1641-.LLSDACSB1641
 3119              	.LLSDACSB1641:
 3120 0194 18       		.uleb128 .LEHB50-.LFB1641
 3121 0195 05       		.uleb128 .LEHE50-.LEHB50
 3122 0196 2C       		.uleb128 .L153-.LFB1641
 3123 0197 00       		.uleb128 0
 3124              	.LLSDACSE1641:
 3125              		.text
 3126              		.cfi_endproc
 3127              		.section	.text.unlikely
 3128              		.cfi_startproc
 3129              		.cfi_personality 0x9b,DW.ref.__gxx_personality_v0
 3130              		.cfi_lsda 0x1b,.LLSDAC1641
 3132              	_ZN12_GLOBAL__N_134TestCheckArrayCloseSucceedsOnEqualD0Ev.cold:
 3133              	.LFSB1641:
 3134              	.L152:
 3135              		.cfi_def_cfa_offset 32
 3136              		.cfi_offset 6, -24
 3137              		.cfi_offset 12, -16
 3138 0190 4889EF   		movq	%rbp, %rdi
 3139 0193 E8000000 		call	_ZdlPv@PLT
 3139      00
 3140 0198 4C89E7   		movq	%r12, %rdi
 3141              	.LEHB51:
 3142 019b E8000000 		call	_Unwind_Resume@PLT
 3142      00
 3143              	.LEHE51:
 3144              		.cfi_endproc
 3145              	.LFE1641:
 3146              		.section	.gcc_except_table
 3147              	.LLSDAC1641:
 3148 0198 FF       		.byte	0xff
 3149 0199 FF       		.byte	0xff
 3150 019a 01       		.byte	0x1
 3151 019b 04       		.uleb128 .LLSDACSEC1641-.LLSDACSBC1641
 3152              	.LLSDACSBC1641:
 3153 019c 0B       		.uleb128 .LEHB51-.LCOLDB25
 3154 019d 05       		.uleb128 .LEHE51-.LEHB51
 3155 019e 00       		.uleb128 0
 3156 019f 00       		.uleb128 0
 3157              	.LLSDACSEC1641:
 3158              		.section	.text.unlikely
 3159              		.text
 3161              		.section	.text.unlikely
 3163              	.LCOLDE25:
 3164              		.text
 3165              	.LHOTE25:
 3166              		.section	.text.unlikely
 3167              		.align 2
 3168              	.LCOLDB26:
 3169              		.text
 3170              	.LHOTB26:
 3171              		.align 2
 3172 0c78 0F1F8400 		.p2align 4
 3172      00000000 
 3174              	_ZN12_GLOBAL__N_147TestCheckCloseDoesNotHaveSideEffectsWhenFailingD0Ev:
 3175              	.LFB1645:
 3176              		.cfi_startproc
 3177              		.cfi_personality 0x9b,DW.ref.__gxx_personality_v0
 3178              		.cfi_lsda 0x1b,.LLSDA1645
 3179 0c80 F30F1EFA 		endbr64
 3180 0c84 4154     		pushq	%r12
 3181              		.cfi_def_cfa_offset 16
 3182              		.cfi_offset 12, -16
 3183 0c86 488D0500 		leaq	16+_ZTVN12_GLOBAL__N_147TestCheckCloseDoesNotHaveSideEffectsWhenFailingE(%rip), %rax
 3183      000000
 3184 0c8d 55       		pushq	%rbp
 3185              		.cfi_def_cfa_offset 24
 3186              		.cfi_offset 6, -24
 3187 0c8e 4889FD   		movq	%rdi, %rbp
 3188 0c91 4883EC08 		subq	$8, %rsp
 3189              		.cfi_def_cfa_offset 32
 3190 0c95 488907   		movq	%rax, (%rdi)
 3191              	.LEHB52:
 3192 0c98 E8000000 		call	_ZN8UnitTest4TestD2Ev@PLT
 3192      00
 3193              	.LEHE52:
 3194 0c9d 4883C408 		addq	$8, %rsp
 3195              		.cfi_remember_state
 3196              		.cfi_def_cfa_offset 24
 3197 0ca1 4889EF   		movq	%rbp, %rdi
 3198 0ca4 5D       		popq	%rbp
 3199              		.cfi_def_cfa_offset 16
 3200 0ca5 415C     		popq	%r12
 3201              		.cfi_def_cfa_offset 8
 3202 0ca7 E9000000 		jmp	_ZdlPv@PLT
 3202      00
 3203              	.L157:
 3204              		.cfi_restore_state
 3205 0cac F30F1EFA 		endbr64
 3206 0cb0 4989C4   		movq	%rax, %r12
 3207 0cb3 E9000000 		jmp	.L156
 3207      00
 3208              		.section	.gcc_except_table
 3209              	.LLSDA1645:
 3210 01a0 FF       		.byte	0xff
 3211 01a1 FF       		.byte	0xff
 3212 01a2 01       		.byte	0x1
 3213 01a3 04       		.uleb128 .LLSDACSE1645-.LLSDACSB1645
 3214              	.LLSDACSB1645:
 3215 01a4 18       		.uleb128 .LEHB52-.LFB1645
 3216 01a5 05       		.uleb128 .LEHE52-.LEHB52
 3217 01a6 2C       		.uleb128 .L157-.LFB1645
 3218 01a7 00       		.uleb128 0
 3219              	.LLSDACSE1645:
 3220              		.text
 3221              		.cfi_endproc
 3222              		.section	.text.unlikely
 3223              		.cfi_startproc
 3224              		.cfi_personality 0x9b,DW.ref.__gxx_personality_v0
 3225              		.cfi_lsda 0x1b,.LLSDAC1645
 3227              	_ZN12_GLOBAL__N_147TestCheckCloseDoesNotHaveSideEffectsWhenFailingD0Ev.cold:
 3228              	.LFSB1645:
 3229              	.L156:
 3230              		.cfi_def_cfa_offset 32
 3231              		.cfi_offset 6, -24
 3232              		.cfi_offset 12, -16
 3233 01a0 4889EF   		movq	%rbp, %rdi
 3234 01a3 E8000000 		call	_ZdlPv@PLT
 3234      00
 3235 01a8 4C89E7   		movq	%r12, %rdi
 3236              	.LEHB53:
 3237 01ab E8000000 		call	_Unwind_Resume@PLT
 3237      00
 3238              	.LEHE53:
 3239              		.cfi_endproc
 3240              	.LFE1645:
 3241              		.section	.gcc_except_table
 3242              	.LLSDAC1645:
 3243 01a8 FF       		.byte	0xff
 3244 01a9 FF       		.byte	0xff
 3245 01aa 01       		.byte	0x1
 3246 01ab 04       		.uleb128 .LLSDACSEC1645-.LLSDACSBC1645
 3247              	.LLSDACSBC1645:
 3248 01ac 0B       		.uleb128 .LEHB53-.LCOLDB26
 3249 01ad 05       		.uleb128 .LEHE53-.LEHB53
 3250 01ae 00       		.uleb128 0
 3251 01af 00       		.uleb128 0
 3252              	.LLSDACSEC1645:
 3253              		.section	.text.unlikely
 3254              		.text
 3256              		.section	.text.unlikely
 3258              	.LCOLDE26:
 3259              		.text
 3260              	.LHOTE26:
 3261              		.section	.text.unlikely
 3262              		.align 2
 3263              	.LCOLDB27:
 3264              		.text
 3265              	.LHOTB27:
 3266              		.align 2
 3267 0cb8 0F1F8400 		.p2align 4
 3267      00000000 
 3269              	_ZN12_GLOBAL__N_147TestCheckCloseDoesNotHaveSideEffectsWhenPassingD0Ev:
 3270              	.LFB1649:
 3271              		.cfi_startproc
 3272              		.cfi_personality 0x9b,DW.ref.__gxx_personality_v0
 3273              		.cfi_lsda 0x1b,.LLSDA1649
 3274 0cc0 F30F1EFA 		endbr64
 3275 0cc4 4154     		pushq	%r12
 3276              		.cfi_def_cfa_offset 16
 3277              		.cfi_offset 12, -16
 3278 0cc6 488D0500 		leaq	16+_ZTVN12_GLOBAL__N_147TestCheckCloseDoesNotHaveSideEffectsWhenPassingE(%rip), %rax
 3278      000000
 3279 0ccd 55       		pushq	%rbp
 3280              		.cfi_def_cfa_offset 24
 3281              		.cfi_offset 6, -24
 3282 0cce 4889FD   		movq	%rdi, %rbp
 3283 0cd1 4883EC08 		subq	$8, %rsp
 3284              		.cfi_def_cfa_offset 32
 3285 0cd5 488907   		movq	%rax, (%rdi)
 3286              	.LEHB54:
 3287 0cd8 E8000000 		call	_ZN8UnitTest4TestD2Ev@PLT
 3287      00
 3288              	.LEHE54:
 3289 0cdd 4883C408 		addq	$8, %rsp
 3290              		.cfi_remember_state
 3291              		.cfi_def_cfa_offset 24
 3292 0ce1 4889EF   		movq	%rbp, %rdi
 3293 0ce4 5D       		popq	%rbp
 3294              		.cfi_def_cfa_offset 16
 3295 0ce5 415C     		popq	%r12
 3296              		.cfi_def_cfa_offset 8
 3297 0ce7 E9000000 		jmp	_ZdlPv@PLT
 3297      00
 3298              	.L161:
 3299              		.cfi_restore_state
 3300 0cec F30F1EFA 		endbr64
 3301 0cf0 4989C4   		movq	%rax, %r12
 3302 0cf3 E9000000 		jmp	.L160
 3302      00
 3303              		.section	.gcc_except_table
 3304              	.LLSDA1649:
 3305 01b0 FF       		.byte	0xff
 3306 01b1 FF       		.byte	0xff
 3307 01b2 01       		.byte	0x1
 3308 01b3 04       		.uleb128 .LLSDACSE1649-.LLSDACSB1649
 3309              	.LLSDACSB1649:
 3310 01b4 18       		.uleb128 .LEHB54-.LFB1649
 3311 01b5 05       		.uleb128 .LEHE54-.LEHB54
 3312 01b6 2C       		.uleb128 .L161-.LFB1649
 3313 01b7 00       		.uleb128 0
 3314              	.LLSDACSE1649:
 3315              		.text
 3316              		.cfi_endproc
 3317              		.section	.text.unlikely
 3318              		.cfi_startproc
 3319              		.cfi_personality 0x9b,DW.ref.__gxx_personality_v0
 3320              		.cfi_lsda 0x1b,.LLSDAC1649
 3322              	_ZN12_GLOBAL__N_147TestCheckCloseDoesNotHaveSideEffectsWhenPassingD0Ev.cold:
 3323              	.LFSB1649:
 3324              	.L160:
 3325              		.cfi_def_cfa_offset 32
 3326              		.cfi_offset 6, -24
 3327              		.cfi_offset 12, -16
 3328 01b0 4889EF   		movq	%rbp, %rdi
 3329 01b3 E8000000 		call	_ZdlPv@PLT
 3329      00
 3330 01b8 4C89E7   		movq	%r12, %rdi
 3331              	.LEHB55:
 3332 01bb E8000000 		call	_Unwind_Resume@PLT
 3332      00
 3333              	.LEHE55:
 3334              		.cfi_endproc
 3335              	.LFE1649:
 3336              		.section	.gcc_except_table
 3337              	.LLSDAC1649:
 3338 01b8 FF       		.byte	0xff
 3339 01b9 FF       		.byte	0xff
 3340 01ba 01       		.byte	0x1
 3341 01bb 04       		.uleb128 .LLSDACSEC1649-.LLSDACSBC1649
 3342              	.LLSDACSBC1649:
 3343 01bc 0B       		.uleb128 .LEHB55-.LCOLDB27
 3344 01bd 05       		.uleb128 .LEHE55-.LEHB55
 3345 01be 00       		.uleb128 0
 3346 01bf 00       		.uleb128 0
 3347              	.LLSDACSEC1649:
 3348              		.section	.text.unlikely
 3349              		.text
 3351              		.section	.text.unlikely
 3353              	.LCOLDE27:
 3354              		.text
 3355              	.LHOTE27:
 3356              		.section	.text.unlikely
 3357              		.align 2
 3358              	.LCOLDB28:
 3359              		.text
 3360              	.LHOTB28:
 3361              		.align 2
 3362 0cf8 0F1F8400 		.p2align 4
 3362      00000000 
 3364              	_ZN12_GLOBAL__N_160TestCheckCloseFailureBecauseOfExceptionIncludesCheckContentsD0Ev:
 3365              	.LFB1653:
 3366              		.cfi_startproc
 3367              		.cfi_personality 0x9b,DW.ref.__gxx_personality_v0
 3368              		.cfi_lsda 0x1b,.LLSDA1653
 3369 0d00 F30F1EFA 		endbr64
 3370 0d04 4154     		pushq	%r12
 3371              		.cfi_def_cfa_offset 16
 3372              		.cfi_offset 12, -16
 3373 0d06 488D0500 		leaq	16+_ZTVN12_GLOBAL__N_160TestCheckCloseFailureBecauseOfExceptionIncludesCheckContentsE(%rip), 
 3373      000000
 3374 0d0d 55       		pushq	%rbp
 3375              		.cfi_def_cfa_offset 24
 3376              		.cfi_offset 6, -24
 3377 0d0e 4889FD   		movq	%rdi, %rbp
 3378 0d11 4883EC08 		subq	$8, %rsp
 3379              		.cfi_def_cfa_offset 32
 3380 0d15 488907   		movq	%rax, (%rdi)
 3381              	.LEHB56:
 3382 0d18 E8000000 		call	_ZN8UnitTest4TestD2Ev@PLT
 3382      00
 3383              	.LEHE56:
 3384 0d1d 4883C408 		addq	$8, %rsp
 3385              		.cfi_remember_state
 3386              		.cfi_def_cfa_offset 24
 3387 0d21 4889EF   		movq	%rbp, %rdi
 3388 0d24 5D       		popq	%rbp
 3389              		.cfi_def_cfa_offset 16
 3390 0d25 415C     		popq	%r12
 3391              		.cfi_def_cfa_offset 8
 3392 0d27 E9000000 		jmp	_ZdlPv@PLT
 3392      00
 3393              	.L165:
 3394              		.cfi_restore_state
 3395 0d2c F30F1EFA 		endbr64
 3396 0d30 4989C4   		movq	%rax, %r12
 3397 0d33 E9000000 		jmp	.L164
 3397      00
 3398              		.section	.gcc_except_table
 3399              	.LLSDA1653:
 3400 01c0 FF       		.byte	0xff
 3401 01c1 FF       		.byte	0xff
 3402 01c2 01       		.byte	0x1
 3403 01c3 04       		.uleb128 .LLSDACSE1653-.LLSDACSB1653
 3404              	.LLSDACSB1653:
 3405 01c4 18       		.uleb128 .LEHB56-.LFB1653
 3406 01c5 05       		.uleb128 .LEHE56-.LEHB56
 3407 01c6 2C       		.uleb128 .L165-.LFB1653
 3408 01c7 00       		.uleb128 0
 3409              	.LLSDACSE1653:
 3410              		.text
 3411              		.cfi_endproc
 3412              		.section	.text.unlikely
 3413              		.cfi_startproc
 3414              		.cfi_personality 0x9b,DW.ref.__gxx_personality_v0
 3415              		.cfi_lsda 0x1b,.LLSDAC1653
 3417              	_ZN12_GLOBAL__N_160TestCheckCloseFailureBecauseOfExceptionIncludesCheckContentsD0Ev.cold:
 3418              	.LFSB1653:
 3419              	.L164:
 3420              		.cfi_def_cfa_offset 32
 3421              		.cfi_offset 6, -24
 3422              		.cfi_offset 12, -16
 3423 01c0 4889EF   		movq	%rbp, %rdi
 3424 01c3 E8000000 		call	_ZdlPv@PLT
 3424      00
 3425 01c8 4C89E7   		movq	%r12, %rdi
 3426              	.LEHB57:
 3427 01cb E8000000 		call	_Unwind_Resume@PLT
 3427      00
 3428              	.LEHE57:
 3429              		.cfi_endproc
 3430              	.LFE1653:
 3431              		.section	.gcc_except_table
 3432              	.LLSDAC1653:
 3433 01c8 FF       		.byte	0xff
 3434 01c9 FF       		.byte	0xff
 3435 01ca 01       		.byte	0x1
 3436 01cb 04       		.uleb128 .LLSDACSEC1653-.LLSDACSBC1653
 3437              	.LLSDACSBC1653:
 3438 01cc 0B       		.uleb128 .LEHB57-.LCOLDB28
 3439 01cd 05       		.uleb128 .LEHE57-.LEHB57
 3440 01ce 00       		.uleb128 0
 3441 01cf 00       		.uleb128 0
 3442              	.LLSDACSEC1653:
 3443              		.section	.text.unlikely
 3444              		.text
 3446              		.section	.text.unlikely
 3448              	.LCOLDE28:
 3449              		.text
 3450              	.LHOTE28:
 3451              		.section	.text.unlikely
 3452              		.align 2
 3453              	.LCOLDB29:
 3454              		.text
 3455              	.LHOTB29:
 3456              		.align 2
 3457 0d38 0F1F8400 		.p2align 4
 3457      00000000 
 3459              	_ZN12_GLOBAL__N_161TestCheckCloseFailureBecauseOfExceptionContainsCorrectDetailsD0Ev:
 3460              	.LFB1657:
 3461              		.cfi_startproc
 3462              		.cfi_personality 0x9b,DW.ref.__gxx_personality_v0
 3463              		.cfi_lsda 0x1b,.LLSDA1657
 3464 0d40 F30F1EFA 		endbr64
 3465 0d44 4154     		pushq	%r12
 3466              		.cfi_def_cfa_offset 16
 3467              		.cfi_offset 12, -16
 3468 0d46 488D0500 		leaq	16+_ZTVN12_GLOBAL__N_161TestCheckCloseFailureBecauseOfExceptionContainsCorrectDetailsE(%rip),
 3468      000000
 3469 0d4d 55       		pushq	%rbp
 3470              		.cfi_def_cfa_offset 24
 3471              		.cfi_offset 6, -24
 3472 0d4e 4889FD   		movq	%rdi, %rbp
 3473 0d51 4883EC08 		subq	$8, %rsp
 3474              		.cfi_def_cfa_offset 32
 3475 0d55 488907   		movq	%rax, (%rdi)
 3476              	.LEHB58:
 3477 0d58 E8000000 		call	_ZN8UnitTest4TestD2Ev@PLT
 3477      00
 3478              	.LEHE58:
 3479 0d5d 4883C408 		addq	$8, %rsp
 3480              		.cfi_remember_state
 3481              		.cfi_def_cfa_offset 24
 3482 0d61 4889EF   		movq	%rbp, %rdi
 3483 0d64 5D       		popq	%rbp
 3484              		.cfi_def_cfa_offset 16
 3485 0d65 415C     		popq	%r12
 3486              		.cfi_def_cfa_offset 8
 3487 0d67 E9000000 		jmp	_ZdlPv@PLT
 3487      00
 3488              	.L169:
 3489              		.cfi_restore_state
 3490 0d6c F30F1EFA 		endbr64
 3491 0d70 4989C4   		movq	%rax, %r12
 3492 0d73 E9000000 		jmp	.L168
 3492      00
 3493              		.section	.gcc_except_table
 3494              	.LLSDA1657:
 3495 01d0 FF       		.byte	0xff
 3496 01d1 FF       		.byte	0xff
 3497 01d2 01       		.byte	0x1
 3498 01d3 04       		.uleb128 .LLSDACSE1657-.LLSDACSB1657
 3499              	.LLSDACSB1657:
 3500 01d4 18       		.uleb128 .LEHB58-.LFB1657
 3501 01d5 05       		.uleb128 .LEHE58-.LEHB58
 3502 01d6 2C       		.uleb128 .L169-.LFB1657
 3503 01d7 00       		.uleb128 0
 3504              	.LLSDACSE1657:
 3505              		.text
 3506              		.cfi_endproc
 3507              		.section	.text.unlikely
 3508              		.cfi_startproc
 3509              		.cfi_personality 0x9b,DW.ref.__gxx_personality_v0
 3510              		.cfi_lsda 0x1b,.LLSDAC1657
 3512              	_ZN12_GLOBAL__N_161TestCheckCloseFailureBecauseOfExceptionContainsCorrectDetailsD0Ev.cold:
 3513              	.LFSB1657:
 3514              	.L168:
 3515              		.cfi_def_cfa_offset 32
 3516              		.cfi_offset 6, -24
 3517              		.cfi_offset 12, -16
 3518 01d0 4889EF   		movq	%rbp, %rdi
 3519 01d3 E8000000 		call	_ZdlPv@PLT
 3519      00
 3520 01d8 4C89E7   		movq	%r12, %rdi
 3521              	.LEHB59:
 3522 01db E8000000 		call	_Unwind_Resume@PLT
 3522      00
 3523              	.LEHE59:
 3524              		.cfi_endproc
 3525              	.LFE1657:
 3526              		.section	.gcc_except_table
 3527              	.LLSDAC1657:
 3528 01d8 FF       		.byte	0xff
 3529 01d9 FF       		.byte	0xff
 3530 01da 01       		.byte	0x1
 3531 01db 04       		.uleb128 .LLSDACSEC1657-.LLSDACSBC1657
 3532              	.LLSDACSBC1657:
 3533 01dc 0B       		.uleb128 .LEHB59-.LCOLDB29
 3534 01dd 05       		.uleb128 .LEHE59-.LEHB59
 3535 01de 00       		.uleb128 0
 3536 01df 00       		.uleb128 0
 3537              	.LLSDACSEC1657:
 3538              		.section	.text.unlikely
 3539              		.text
 3541              		.section	.text.unlikely
 3543              	.LCOLDE29:
 3544              		.text
 3545              	.LHOTE29:
 3546              		.section	.text.unlikely
 3547              		.align 2
 3548              	.LCOLDB30:
 3549              		.text
 3550              	.LHOTB30:
 3551              		.align 2
 3552 0d78 0F1F8400 		.p2align 4
 3552      00000000 
 3554              	_ZN12_GLOBAL__N_143TestCheckCloseFailureContainsCorrectDetailsD0Ev:
 3555              	.LFB1661:
 3556              		.cfi_startproc
 3557              		.cfi_personality 0x9b,DW.ref.__gxx_personality_v0
 3558              		.cfi_lsda 0x1b,.LLSDA1661
 3559 0d80 F30F1EFA 		endbr64
 3560 0d84 4154     		pushq	%r12
 3561              		.cfi_def_cfa_offset 16
 3562              		.cfi_offset 12, -16
 3563 0d86 488D0500 		leaq	16+_ZTVN12_GLOBAL__N_143TestCheckCloseFailureContainsCorrectDetailsE(%rip), %rax
 3563      000000
 3564 0d8d 55       		pushq	%rbp
 3565              		.cfi_def_cfa_offset 24
 3566              		.cfi_offset 6, -24
 3567 0d8e 4889FD   		movq	%rdi, %rbp
 3568 0d91 4883EC08 		subq	$8, %rsp
 3569              		.cfi_def_cfa_offset 32
 3570 0d95 488907   		movq	%rax, (%rdi)
 3571              	.LEHB60:
 3572 0d98 E8000000 		call	_ZN8UnitTest4TestD2Ev@PLT
 3572      00
 3573              	.LEHE60:
 3574 0d9d 4883C408 		addq	$8, %rsp
 3575              		.cfi_remember_state
 3576              		.cfi_def_cfa_offset 24
 3577 0da1 4889EF   		movq	%rbp, %rdi
 3578 0da4 5D       		popq	%rbp
 3579              		.cfi_def_cfa_offset 16
 3580 0da5 415C     		popq	%r12
 3581              		.cfi_def_cfa_offset 8
 3582 0da7 E9000000 		jmp	_ZdlPv@PLT
 3582      00
 3583              	.L173:
 3584              		.cfi_restore_state
 3585 0dac F30F1EFA 		endbr64
 3586 0db0 4989C4   		movq	%rax, %r12
 3587 0db3 E9000000 		jmp	.L172
 3587      00
 3588              		.section	.gcc_except_table
 3589              	.LLSDA1661:
 3590 01e0 FF       		.byte	0xff
 3591 01e1 FF       		.byte	0xff
 3592 01e2 01       		.byte	0x1
 3593 01e3 04       		.uleb128 .LLSDACSE1661-.LLSDACSB1661
 3594              	.LLSDACSB1661:
 3595 01e4 18       		.uleb128 .LEHB60-.LFB1661
 3596 01e5 05       		.uleb128 .LEHE60-.LEHB60
 3597 01e6 2C       		.uleb128 .L173-.LFB1661
 3598 01e7 00       		.uleb128 0
 3599              	.LLSDACSE1661:
 3600              		.text
 3601              		.cfi_endproc
 3602              		.section	.text.unlikely
 3603              		.cfi_startproc
 3604              		.cfi_personality 0x9b,DW.ref.__gxx_personality_v0
 3605              		.cfi_lsda 0x1b,.LLSDAC1661
 3607              	_ZN12_GLOBAL__N_143TestCheckCloseFailureContainsCorrectDetailsD0Ev.cold:
 3608              	.LFSB1661:
 3609              	.L172:
 3610              		.cfi_def_cfa_offset 32
 3611              		.cfi_offset 6, -24
 3612              		.cfi_offset 12, -16
 3613 01e0 4889EF   		movq	%rbp, %rdi
 3614 01e3 E8000000 		call	_ZdlPv@PLT
 3614      00
 3615 01e8 4C89E7   		movq	%r12, %rdi
 3616              	.LEHB61:
 3617 01eb E8000000 		call	_Unwind_Resume@PLT
 3617      00
 3618              	.LEHE61:
 3619              		.cfi_endproc
 3620              	.LFE1661:
 3621              		.section	.gcc_except_table
 3622              	.LLSDAC1661:
 3623 01e8 FF       		.byte	0xff
 3624 01e9 FF       		.byte	0xff
 3625 01ea 01       		.byte	0x1
 3626 01eb 04       		.uleb128 .LLSDACSEC1661-.LLSDACSBC1661
 3627              	.LLSDACSBC1661:
 3628 01ec 0B       		.uleb128 .LEHB61-.LCOLDB30
 3629 01ed 05       		.uleb128 .LEHE61-.LEHB61
 3630 01ee 00       		.uleb128 0
 3631 01ef 00       		.uleb128 0
 3632              	.LLSDACSEC1661:
 3633              		.section	.text.unlikely
 3634              		.text
 3636              		.section	.text.unlikely
 3638              	.LCOLDE30:
 3639              		.text
 3640              	.LHOTE30:
 3641              		.section	.text.unlikely
 3642              		.align 2
 3643              	.LCOLDB31:
 3644              		.text
 3645              	.LHOTB31:
 3646              		.align 2
 3647 0db8 0F1F8400 		.p2align 4
 3647      00000000 
 3649              	_ZN12_GLOBAL__N_130TestCheckCloseFailsOnExceptionD0Ev:
 3650              	.LFB1665:
 3651              		.cfi_startproc
 3652              		.cfi_personality 0x9b,DW.ref.__gxx_personality_v0
 3653              		.cfi_lsda 0x1b,.LLSDA1665
 3654 0dc0 F30F1EFA 		endbr64
 3655 0dc4 4154     		pushq	%r12
 3656              		.cfi_def_cfa_offset 16
 3657              		.cfi_offset 12, -16
 3658 0dc6 488D0500 		leaq	16+_ZTVN12_GLOBAL__N_130TestCheckCloseFailsOnExceptionE(%rip), %rax
 3658      000000
 3659 0dcd 55       		pushq	%rbp
 3660              		.cfi_def_cfa_offset 24
 3661              		.cfi_offset 6, -24
 3662 0dce 4889FD   		movq	%rdi, %rbp
 3663 0dd1 4883EC08 		subq	$8, %rsp
 3664              		.cfi_def_cfa_offset 32
 3665 0dd5 488907   		movq	%rax, (%rdi)
 3666              	.LEHB62:
 3667 0dd8 E8000000 		call	_ZN8UnitTest4TestD2Ev@PLT
 3667      00
 3668              	.LEHE62:
 3669 0ddd 4883C408 		addq	$8, %rsp
 3670              		.cfi_remember_state
 3671              		.cfi_def_cfa_offset 24
 3672 0de1 4889EF   		movq	%rbp, %rdi
 3673 0de4 5D       		popq	%rbp
 3674              		.cfi_def_cfa_offset 16
 3675 0de5 415C     		popq	%r12
 3676              		.cfi_def_cfa_offset 8
 3677 0de7 E9000000 		jmp	_ZdlPv@PLT
 3677      00
 3678              	.L177:
 3679              		.cfi_restore_state
 3680 0dec F30F1EFA 		endbr64
 3681 0df0 4989C4   		movq	%rax, %r12
 3682 0df3 E9000000 		jmp	.L176
 3682      00
 3683              		.section	.gcc_except_table
 3684              	.LLSDA1665:
 3685 01f0 FF       		.byte	0xff
 3686 01f1 FF       		.byte	0xff
 3687 01f2 01       		.byte	0x1
 3688 01f3 04       		.uleb128 .LLSDACSE1665-.LLSDACSB1665
 3689              	.LLSDACSB1665:
 3690 01f4 18       		.uleb128 .LEHB62-.LFB1665
 3691 01f5 05       		.uleb128 .LEHE62-.LEHB62
 3692 01f6 2C       		.uleb128 .L177-.LFB1665
 3693 01f7 00       		.uleb128 0
 3694              	.LLSDACSE1665:
 3695              		.text
 3696              		.cfi_endproc
 3697              		.section	.text.unlikely
 3698              		.cfi_startproc
 3699              		.cfi_personality 0x9b,DW.ref.__gxx_personality_v0
 3700              		.cfi_lsda 0x1b,.LLSDAC1665
 3702              	_ZN12_GLOBAL__N_130TestCheckCloseFailsOnExceptionD0Ev.cold:
 3703              	.LFSB1665:
 3704              	.L176:
 3705              		.cfi_def_cfa_offset 32
 3706              		.cfi_offset 6, -24
 3707              		.cfi_offset 12, -16
 3708 01f0 4889EF   		movq	%rbp, %rdi
 3709 01f3 E8000000 		call	_ZdlPv@PLT
 3709      00
 3710 01f8 4C89E7   		movq	%r12, %rdi
 3711              	.LEHB63:
 3712 01fb E8000000 		call	_Unwind_Resume@PLT
 3712      00
 3713              	.LEHE63:
 3714              		.cfi_endproc
 3715              	.LFE1665:
 3716              		.section	.gcc_except_table
 3717              	.LLSDAC1665:
 3718 01f8 FF       		.byte	0xff
 3719 01f9 FF       		.byte	0xff
 3720 01fa 01       		.byte	0x1
 3721 01fb 04       		.uleb128 .LLSDACSEC1665-.LLSDACSBC1665
 3722              	.LLSDACSBC1665:
 3723 01fc 0B       		.uleb128 .LEHB63-.LCOLDB31
 3724 01fd 05       		.uleb128 .LEHE63-.LEHB63
 3725 01fe 00       		.uleb128 0
 3726 01ff 00       		.uleb128 0
 3727              	.LLSDACSEC1665:
 3728              		.section	.text.unlikely
 3729              		.text
 3731              		.section	.text.unlikely
 3733              	.LCOLDE31:
 3734              		.text
 3735              	.LHOTE31:
 3736              		.section	.text.unlikely
 3737              		.align 2
 3738              	.LCOLDB32:
 3739              		.text
 3740              	.LHOTB32:
 3741              		.align 2
 3742 0df8 0F1F8400 		.p2align 4
 3742      00000000 
 3744              	_ZN12_GLOBAL__N_129TestCheckCloseFailsOnNotEqualD0Ev:
 3745              	.LFB1669:
 3746              		.cfi_startproc
 3747              		.cfi_personality 0x9b,DW.ref.__gxx_personality_v0
 3748              		.cfi_lsda 0x1b,.LLSDA1669
 3749 0e00 F30F1EFA 		endbr64
 3750 0e04 4154     		pushq	%r12
 3751              		.cfi_def_cfa_offset 16
 3752              		.cfi_offset 12, -16
 3753 0e06 488D0500 		leaq	16+_ZTVN12_GLOBAL__N_129TestCheckCloseFailsOnNotEqualE(%rip), %rax
 3753      000000
 3754 0e0d 55       		pushq	%rbp
 3755              		.cfi_def_cfa_offset 24
 3756              		.cfi_offset 6, -24
 3757 0e0e 4889FD   		movq	%rdi, %rbp
 3758 0e11 4883EC08 		subq	$8, %rsp
 3759              		.cfi_def_cfa_offset 32
 3760 0e15 488907   		movq	%rax, (%rdi)
 3761              	.LEHB64:
 3762 0e18 E8000000 		call	_ZN8UnitTest4TestD2Ev@PLT
 3762      00
 3763              	.LEHE64:
 3764 0e1d 4883C408 		addq	$8, %rsp
 3765              		.cfi_remember_state
 3766              		.cfi_def_cfa_offset 24
 3767 0e21 4889EF   		movq	%rbp, %rdi
 3768 0e24 5D       		popq	%rbp
 3769              		.cfi_def_cfa_offset 16
 3770 0e25 415C     		popq	%r12
 3771              		.cfi_def_cfa_offset 8
 3772 0e27 E9000000 		jmp	_ZdlPv@PLT
 3772      00
 3773              	.L181:
 3774              		.cfi_restore_state
 3775 0e2c F30F1EFA 		endbr64
 3776 0e30 4989C4   		movq	%rax, %r12
 3777 0e33 E9000000 		jmp	.L180
 3777      00
 3778              		.section	.gcc_except_table
 3779              	.LLSDA1669:
 3780 0200 FF       		.byte	0xff
 3781 0201 FF       		.byte	0xff
 3782 0202 01       		.byte	0x1
 3783 0203 04       		.uleb128 .LLSDACSE1669-.LLSDACSB1669
 3784              	.LLSDACSB1669:
 3785 0204 18       		.uleb128 .LEHB64-.LFB1669
 3786 0205 05       		.uleb128 .LEHE64-.LEHB64
 3787 0206 2C       		.uleb128 .L181-.LFB1669
 3788 0207 00       		.uleb128 0
 3789              	.LLSDACSE1669:
 3790              		.text
 3791              		.cfi_endproc
 3792              		.section	.text.unlikely
 3793              		.cfi_startproc
 3794              		.cfi_personality 0x9b,DW.ref.__gxx_personality_v0
 3795              		.cfi_lsda 0x1b,.LLSDAC1669
 3797              	_ZN12_GLOBAL__N_129TestCheckCloseFailsOnNotEqualD0Ev.cold:
 3798              	.LFSB1669:
 3799              	.L180:
 3800              		.cfi_def_cfa_offset 32
 3801              		.cfi_offset 6, -24
 3802              		.cfi_offset 12, -16
 3803 0200 4889EF   		movq	%rbp, %rdi
 3804 0203 E8000000 		call	_ZdlPv@PLT
 3804      00
 3805 0208 4C89E7   		movq	%r12, %rdi
 3806              	.LEHB65:
 3807 020b E8000000 		call	_Unwind_Resume@PLT
 3807      00
 3808              	.LEHE65:
 3809              		.cfi_endproc
 3810              	.LFE1669:
 3811              		.section	.gcc_except_table
 3812              	.LLSDAC1669:
 3813 0208 FF       		.byte	0xff
 3814 0209 FF       		.byte	0xff
 3815 020a 01       		.byte	0x1
 3816 020b 04       		.uleb128 .LLSDACSEC1669-.LLSDACSBC1669
 3817              	.LLSDACSBC1669:
 3818 020c 0B       		.uleb128 .LEHB65-.LCOLDB32
 3819 020d 05       		.uleb128 .LEHE65-.LEHB65
 3820 020e 00       		.uleb128 0
 3821 020f 00       		.uleb128 0
 3822              	.LLSDACSEC1669:
 3823              		.section	.text.unlikely
 3824              		.text
 3826              		.section	.text.unlikely
 3828              	.LCOLDE32:
 3829              		.text
 3830              	.LHOTE32:
 3831              		.section	.text.unlikely
 3832              		.align 2
 3833              	.LCOLDB33:
 3834              		.text
 3835              	.LHOTB33:
 3836              		.align 2
 3837 0e38 0F1F8400 		.p2align 4
 3837      00000000 
 3839              	_ZN12_GLOBAL__N_129TestCheckCloseSucceedsOnEqualD0Ev:
 3840              	.LFB1673:
 3841              		.cfi_startproc
 3842              		.cfi_personality 0x9b,DW.ref.__gxx_personality_v0
 3843              		.cfi_lsda 0x1b,.LLSDA1673
 3844 0e40 F30F1EFA 		endbr64
 3845 0e44 4154     		pushq	%r12
 3846              		.cfi_def_cfa_offset 16
 3847              		.cfi_offset 12, -16
 3848 0e46 488D0500 		leaq	16+_ZTVN12_GLOBAL__N_129TestCheckCloseSucceedsOnEqualE(%rip), %rax
 3848      000000
 3849 0e4d 55       		pushq	%rbp
 3850              		.cfi_def_cfa_offset 24
 3851              		.cfi_offset 6, -24
 3852 0e4e 4889FD   		movq	%rdi, %rbp
 3853 0e51 4883EC08 		subq	$8, %rsp
 3854              		.cfi_def_cfa_offset 32
 3855 0e55 488907   		movq	%rax, (%rdi)
 3856              	.LEHB66:
 3857 0e58 E8000000 		call	_ZN8UnitTest4TestD2Ev@PLT
 3857      00
 3858              	.LEHE66:
 3859 0e5d 4883C408 		addq	$8, %rsp
 3860              		.cfi_remember_state
 3861              		.cfi_def_cfa_offset 24
 3862 0e61 4889EF   		movq	%rbp, %rdi
 3863 0e64 5D       		popq	%rbp
 3864              		.cfi_def_cfa_offset 16
 3865 0e65 415C     		popq	%r12
 3866              		.cfi_def_cfa_offset 8
 3867 0e67 E9000000 		jmp	_ZdlPv@PLT
 3867      00
 3868              	.L185:
 3869              		.cfi_restore_state
 3870 0e6c F30F1EFA 		endbr64
 3871 0e70 4989C4   		movq	%rax, %r12
 3872 0e73 E9000000 		jmp	.L184
 3872      00
 3873              		.section	.gcc_except_table
 3874              	.LLSDA1673:
 3875 0210 FF       		.byte	0xff
 3876 0211 FF       		.byte	0xff
 3877 0212 01       		.byte	0x1
 3878 0213 04       		.uleb128 .LLSDACSE1673-.LLSDACSB1673
 3879              	.LLSDACSB1673:
 3880 0214 18       		.uleb128 .LEHB66-.LFB1673
 3881 0215 05       		.uleb128 .LEHE66-.LEHB66
 3882 0216 2C       		.uleb128 .L185-.LFB1673
 3883 0217 00       		.uleb128 0
 3884              	.LLSDACSE1673:
 3885              		.text
 3886              		.cfi_endproc
 3887              		.section	.text.unlikely
 3888              		.cfi_startproc
 3889              		.cfi_personality 0x9b,DW.ref.__gxx_personality_v0
 3890              		.cfi_lsda 0x1b,.LLSDAC1673
 3892              	_ZN12_GLOBAL__N_129TestCheckCloseSucceedsOnEqualD0Ev.cold:
 3893              	.LFSB1673:
 3894              	.L184:
 3895              		.cfi_def_cfa_offset 32
 3896              		.cfi_offset 6, -24
 3897              		.cfi_offset 12, -16
 3898 0210 4889EF   		movq	%rbp, %rdi
 3899 0213 E8000000 		call	_ZdlPv@PLT
 3899      00
 3900 0218 4C89E7   		movq	%r12, %rdi
 3901              	.LEHB67:
 3902 021b E8000000 		call	_Unwind_Resume@PLT
 3902      00
 3903              	.LEHE67:
 3904              		.cfi_endproc
 3905              	.LFE1673:
 3906              		.section	.gcc_except_table
 3907              	.LLSDAC1673:
 3908 0218 FF       		.byte	0xff
 3909 0219 FF       		.byte	0xff
 3910 021a 01       		.byte	0x1
 3911 021b 04       		.uleb128 .LLSDACSEC1673-.LLSDACSBC1673
 3912              	.LLSDACSBC1673:
 3913 021c 0B       		.uleb128 .LEHB67-.LCOLDB33
 3914 021d 05       		.uleb128 .LEHE67-.LEHB67
 3915 021e 00       		.uleb128 0
 3916 021f 00       		.uleb128 0
 3917              	.LLSDACSEC1673:
 3918              		.section	.text.unlikely
 3919              		.text
 3921              		.section	.text.unlikely
 3923              	.LCOLDE33:
 3924              		.text
 3925              	.LHOTE33:
 3926              		.section	.text.unlikely
 3927              		.align 2
 3928              	.LCOLDB34:
 3929              		.text
 3930              	.LHOTB34:
 3931              		.align 2
 3932 0e78 0F1F8400 		.p2align 4
 3932      00000000 
 3934              	_ZN12_GLOBAL__N_147TestCheckEqualDoesNotHaveSideEffectsWhenFailingD0Ev:
 3935              	.LFB1677:
 3936              		.cfi_startproc
 3937              		.cfi_personality 0x9b,DW.ref.__gxx_personality_v0
 3938              		.cfi_lsda 0x1b,.LLSDA1677
 3939 0e80 F30F1EFA 		endbr64
 3940 0e84 4154     		pushq	%r12
 3941              		.cfi_def_cfa_offset 16
 3942              		.cfi_offset 12, -16
 3943 0e86 488D0500 		leaq	16+_ZTVN12_GLOBAL__N_147TestCheckEqualDoesNotHaveSideEffectsWhenFailingE(%rip), %rax
 3943      000000
 3944 0e8d 55       		pushq	%rbp
 3945              		.cfi_def_cfa_offset 24
 3946              		.cfi_offset 6, -24
 3947 0e8e 4889FD   		movq	%rdi, %rbp
 3948 0e91 4883EC08 		subq	$8, %rsp
 3949              		.cfi_def_cfa_offset 32
 3950 0e95 488907   		movq	%rax, (%rdi)
 3951              	.LEHB68:
 3952 0e98 E8000000 		call	_ZN8UnitTest4TestD2Ev@PLT
 3952      00
 3953              	.LEHE68:
 3954 0e9d 4883C408 		addq	$8, %rsp
 3955              		.cfi_remember_state
 3956              		.cfi_def_cfa_offset 24
 3957 0ea1 4889EF   		movq	%rbp, %rdi
 3958 0ea4 5D       		popq	%rbp
 3959              		.cfi_def_cfa_offset 16
 3960 0ea5 415C     		popq	%r12
 3961              		.cfi_def_cfa_offset 8
 3962 0ea7 E9000000 		jmp	_ZdlPv@PLT
 3962      00
 3963              	.L189:
 3964              		.cfi_restore_state
 3965 0eac F30F1EFA 		endbr64
 3966 0eb0 4989C4   		movq	%rax, %r12
 3967 0eb3 E9000000 		jmp	.L188
 3967      00
 3968              		.section	.gcc_except_table
 3969              	.LLSDA1677:
 3970 0220 FF       		.byte	0xff
 3971 0221 FF       		.byte	0xff
 3972 0222 01       		.byte	0x1
 3973 0223 04       		.uleb128 .LLSDACSE1677-.LLSDACSB1677
 3974              	.LLSDACSB1677:
 3975 0224 18       		.uleb128 .LEHB68-.LFB1677
 3976 0225 05       		.uleb128 .LEHE68-.LEHB68
 3977 0226 2C       		.uleb128 .L189-.LFB1677
 3978 0227 00       		.uleb128 0
 3979              	.LLSDACSE1677:
 3980              		.text
 3981              		.cfi_endproc
 3982              		.section	.text.unlikely
 3983              		.cfi_startproc
 3984              		.cfi_personality 0x9b,DW.ref.__gxx_personality_v0
 3985              		.cfi_lsda 0x1b,.LLSDAC1677
 3987              	_ZN12_GLOBAL__N_147TestCheckEqualDoesNotHaveSideEffectsWhenFailingD0Ev.cold:
 3988              	.LFSB1677:
 3989              	.L188:
 3990              		.cfi_def_cfa_offset 32
 3991              		.cfi_offset 6, -24
 3992              		.cfi_offset 12, -16
 3993 0220 4889EF   		movq	%rbp, %rdi
 3994 0223 E8000000 		call	_ZdlPv@PLT
 3994      00
 3995 0228 4C89E7   		movq	%r12, %rdi
 3996              	.LEHB69:
 3997 022b E8000000 		call	_Unwind_Resume@PLT
 3997      00
 3998              	.LEHE69:
 3999              		.cfi_endproc
 4000              	.LFE1677:
 4001              		.section	.gcc_except_table
 4002              	.LLSDAC1677:
 4003 0228 FF       		.byte	0xff
 4004 0229 FF       		.byte	0xff
 4005 022a 01       		.byte	0x1
 4006 022b 04       		.uleb128 .LLSDACSEC1677-.LLSDACSBC1677
 4007              	.LLSDACSBC1677:
 4008 022c 0B       		.uleb128 .LEHB69-.LCOLDB34
 4009 022d 05       		.uleb128 .LEHE69-.LEHB69
 4010 022e 00       		.uleb128 0
 4011 022f 00       		.uleb128 0
 4012              	.LLSDACSEC1677:
 4013              		.section	.text.unlikely
 4014              		.text
 4016              		.section	.text.unlikely
 4018              	.LCOLDE34:
 4019              		.text
 4020              	.LHOTE34:
 4021              		.section	.text.unlikely
 4022              		.align 2
 4023              	.LCOLDB35:
 4024              		.text
 4025              	.LHOTB35:
 4026              		.align 2
 4027 0eb8 0F1F8400 		.p2align 4
 4027      00000000 
 4029              	_ZN12_GLOBAL__N_147TestCheckEqualDoesNotHaveSideEffectsWhenPassingD0Ev:
 4030              	.LFB1681:
 4031              		.cfi_startproc
 4032              		.cfi_personality 0x9b,DW.ref.__gxx_personality_v0
 4033              		.cfi_lsda 0x1b,.LLSDA1681
 4034 0ec0 F30F1EFA 		endbr64
 4035 0ec4 4154     		pushq	%r12
 4036              		.cfi_def_cfa_offset 16
 4037              		.cfi_offset 12, -16
 4038 0ec6 488D0500 		leaq	16+_ZTVN12_GLOBAL__N_147TestCheckEqualDoesNotHaveSideEffectsWhenPassingE(%rip), %rax
 4038      000000
 4039 0ecd 55       		pushq	%rbp
 4040              		.cfi_def_cfa_offset 24
 4041              		.cfi_offset 6, -24
 4042 0ece 4889FD   		movq	%rdi, %rbp
 4043 0ed1 4883EC08 		subq	$8, %rsp
 4044              		.cfi_def_cfa_offset 32
 4045 0ed5 488907   		movq	%rax, (%rdi)
 4046              	.LEHB70:
 4047 0ed8 E8000000 		call	_ZN8UnitTest4TestD2Ev@PLT
 4047      00
 4048              	.LEHE70:
 4049 0edd 4883C408 		addq	$8, %rsp
 4050              		.cfi_remember_state
 4051              		.cfi_def_cfa_offset 24
 4052 0ee1 4889EF   		movq	%rbp, %rdi
 4053 0ee4 5D       		popq	%rbp
 4054              		.cfi_def_cfa_offset 16
 4055 0ee5 415C     		popq	%r12
 4056              		.cfi_def_cfa_offset 8
 4057 0ee7 E9000000 		jmp	_ZdlPv@PLT
 4057      00
 4058              	.L193:
 4059              		.cfi_restore_state
 4060 0eec F30F1EFA 		endbr64
 4061 0ef0 4989C4   		movq	%rax, %r12
 4062 0ef3 E9000000 		jmp	.L192
 4062      00
 4063              		.section	.gcc_except_table
 4064              	.LLSDA1681:
 4065 0230 FF       		.byte	0xff
 4066 0231 FF       		.byte	0xff
 4067 0232 01       		.byte	0x1
 4068 0233 04       		.uleb128 .LLSDACSE1681-.LLSDACSB1681
 4069              	.LLSDACSB1681:
 4070 0234 18       		.uleb128 .LEHB70-.LFB1681
 4071 0235 05       		.uleb128 .LEHE70-.LEHB70
 4072 0236 2C       		.uleb128 .L193-.LFB1681
 4073 0237 00       		.uleb128 0
 4074              	.LLSDACSE1681:
 4075              		.text
 4076              		.cfi_endproc
 4077              		.section	.text.unlikely
 4078              		.cfi_startproc
 4079              		.cfi_personality 0x9b,DW.ref.__gxx_personality_v0
 4080              		.cfi_lsda 0x1b,.LLSDAC1681
 4082              	_ZN12_GLOBAL__N_147TestCheckEqualDoesNotHaveSideEffectsWhenPassingD0Ev.cold:
 4083              	.LFSB1681:
 4084              	.L192:
 4085              		.cfi_def_cfa_offset 32
 4086              		.cfi_offset 6, -24
 4087              		.cfi_offset 12, -16
 4088 0230 4889EF   		movq	%rbp, %rdi
 4089 0233 E8000000 		call	_ZdlPv@PLT
 4089      00
 4090 0238 4C89E7   		movq	%r12, %rdi
 4091              	.LEHB71:
 4092 023b E8000000 		call	_Unwind_Resume@PLT
 4092      00
 4093              	.LEHE71:
 4094              		.cfi_endproc
 4095              	.LFE1681:
 4096              		.section	.gcc_except_table
 4097              	.LLSDAC1681:
 4098 0238 FF       		.byte	0xff
 4099 0239 FF       		.byte	0xff
 4100 023a 01       		.byte	0x1
 4101 023b 04       		.uleb128 .LLSDACSEC1681-.LLSDACSBC1681
 4102              	.LLSDACSBC1681:
 4103 023c 0B       		.uleb128 .LEHB71-.LCOLDB35
 4104 023d 05       		.uleb128 .LEHE71-.LEHB71
 4105 023e 00       		.uleb128 0
 4106 023f 00       		.uleb128 0
 4107              	.LLSDACSEC1681:
 4108              		.section	.text.unlikely
 4109              		.text
 4111              		.section	.text.unlikely
 4113              	.LCOLDE35:
 4114              		.text
 4115              	.LHOTE35:
 4116              		.section	.text.unlikely
 4117              		.align 2
 4118              	.LCOLDB36:
 4119              		.text
 4120              	.LHOTB36:
 4121              		.align 2
 4122 0ef8 0F1F8400 		.p2align 4
 4122      00000000 
 4124              	_ZN12_GLOBAL__N_160TestCheckEqualFailureBecauseOfExceptionIncludesCheckContentsD0Ev:
 4125              	.LFB1685:
 4126              		.cfi_startproc
 4127              		.cfi_personality 0x9b,DW.ref.__gxx_personality_v0
 4128              		.cfi_lsda 0x1b,.LLSDA1685
 4129 0f00 F30F1EFA 		endbr64
 4130 0f04 4154     		pushq	%r12
 4131              		.cfi_def_cfa_offset 16
 4132              		.cfi_offset 12, -16
 4133 0f06 488D0500 		leaq	16+_ZTVN12_GLOBAL__N_160TestCheckEqualFailureBecauseOfExceptionIncludesCheckContentsE(%rip), 
 4133      000000
 4134 0f0d 55       		pushq	%rbp
 4135              		.cfi_def_cfa_offset 24
 4136              		.cfi_offset 6, -24
 4137 0f0e 4889FD   		movq	%rdi, %rbp
 4138 0f11 4883EC08 		subq	$8, %rsp
 4139              		.cfi_def_cfa_offset 32
 4140 0f15 488907   		movq	%rax, (%rdi)
 4141              	.LEHB72:
 4142 0f18 E8000000 		call	_ZN8UnitTest4TestD2Ev@PLT
 4142      00
 4143              	.LEHE72:
 4144 0f1d 4883C408 		addq	$8, %rsp
 4145              		.cfi_remember_state
 4146              		.cfi_def_cfa_offset 24
 4147 0f21 4889EF   		movq	%rbp, %rdi
 4148 0f24 5D       		popq	%rbp
 4149              		.cfi_def_cfa_offset 16
 4150 0f25 415C     		popq	%r12
 4151              		.cfi_def_cfa_offset 8
 4152 0f27 E9000000 		jmp	_ZdlPv@PLT
 4152      00
 4153              	.L197:
 4154              		.cfi_restore_state
 4155 0f2c F30F1EFA 		endbr64
 4156 0f30 4989C4   		movq	%rax, %r12
 4157 0f33 E9000000 		jmp	.L196
 4157      00
 4158              		.section	.gcc_except_table
 4159              	.LLSDA1685:
 4160 0240 FF       		.byte	0xff
 4161 0241 FF       		.byte	0xff
 4162 0242 01       		.byte	0x1
 4163 0243 04       		.uleb128 .LLSDACSE1685-.LLSDACSB1685
 4164              	.LLSDACSB1685:
 4165 0244 18       		.uleb128 .LEHB72-.LFB1685
 4166 0245 05       		.uleb128 .LEHE72-.LEHB72
 4167 0246 2C       		.uleb128 .L197-.LFB1685
 4168 0247 00       		.uleb128 0
 4169              	.LLSDACSE1685:
 4170              		.text
 4171              		.cfi_endproc
 4172              		.section	.text.unlikely
 4173              		.cfi_startproc
 4174              		.cfi_personality 0x9b,DW.ref.__gxx_personality_v0
 4175              		.cfi_lsda 0x1b,.LLSDAC1685
 4177              	_ZN12_GLOBAL__N_160TestCheckEqualFailureBecauseOfExceptionIncludesCheckContentsD0Ev.cold:
 4178              	.LFSB1685:
 4179              	.L196:
 4180              		.cfi_def_cfa_offset 32
 4181              		.cfi_offset 6, -24
 4182              		.cfi_offset 12, -16
 4183 0240 4889EF   		movq	%rbp, %rdi
 4184 0243 E8000000 		call	_ZdlPv@PLT
 4184      00
 4185 0248 4C89E7   		movq	%r12, %rdi
 4186              	.LEHB73:
 4187 024b E8000000 		call	_Unwind_Resume@PLT
 4187      00
 4188              	.LEHE73:
 4189              		.cfi_endproc
 4190              	.LFE1685:
 4191              		.section	.gcc_except_table
 4192              	.LLSDAC1685:
 4193 0248 FF       		.byte	0xff
 4194 0249 FF       		.byte	0xff
 4195 024a 01       		.byte	0x1
 4196 024b 04       		.uleb128 .LLSDACSEC1685-.LLSDACSBC1685
 4197              	.LLSDACSBC1685:
 4198 024c 0B       		.uleb128 .LEHB73-.LCOLDB36
 4199 024d 05       		.uleb128 .LEHE73-.LEHB73
 4200 024e 00       		.uleb128 0
 4201 024f 00       		.uleb128 0
 4202              	.LLSDACSEC1685:
 4203              		.section	.text.unlikely
 4204              		.text
 4206              		.section	.text.unlikely
 4208              	.LCOLDE36:
 4209              		.text
 4210              	.LHOTE36:
 4211              		.section	.text.unlikely
 4212              		.align 2
 4213              	.LCOLDB37:
 4214              		.text
 4215              	.LHOTB37:
 4216              		.align 2
 4217 0f38 0F1F8400 		.p2align 4
 4217      00000000 
 4219              	_ZN12_GLOBAL__N_161TestCheckEqualFailureBecauseOfExceptionContainsCorrectDetailsD0Ev:
 4220              	.LFB1689:
 4221              		.cfi_startproc
 4222              		.cfi_personality 0x9b,DW.ref.__gxx_personality_v0
 4223              		.cfi_lsda 0x1b,.LLSDA1689
 4224 0f40 F30F1EFA 		endbr64
 4225 0f44 4154     		pushq	%r12
 4226              		.cfi_def_cfa_offset 16
 4227              		.cfi_offset 12, -16
 4228 0f46 488D0500 		leaq	16+_ZTVN12_GLOBAL__N_161TestCheckEqualFailureBecauseOfExceptionContainsCorrectDetailsE(%rip),
 4228      000000
 4229 0f4d 55       		pushq	%rbp
 4230              		.cfi_def_cfa_offset 24
 4231              		.cfi_offset 6, -24
 4232 0f4e 4889FD   		movq	%rdi, %rbp
 4233 0f51 4883EC08 		subq	$8, %rsp
 4234              		.cfi_def_cfa_offset 32
 4235 0f55 488907   		movq	%rax, (%rdi)
 4236              	.LEHB74:
 4237 0f58 E8000000 		call	_ZN8UnitTest4TestD2Ev@PLT
 4237      00
 4238              	.LEHE74:
 4239 0f5d 4883C408 		addq	$8, %rsp
 4240              		.cfi_remember_state
 4241              		.cfi_def_cfa_offset 24
 4242 0f61 4889EF   		movq	%rbp, %rdi
 4243 0f64 5D       		popq	%rbp
 4244              		.cfi_def_cfa_offset 16
 4245 0f65 415C     		popq	%r12
 4246              		.cfi_def_cfa_offset 8
 4247 0f67 E9000000 		jmp	_ZdlPv@PLT
 4247      00
 4248              	.L201:
 4249              		.cfi_restore_state
 4250 0f6c F30F1EFA 		endbr64
 4251 0f70 4989C4   		movq	%rax, %r12
 4252 0f73 E9000000 		jmp	.L200
 4252      00
 4253              		.section	.gcc_except_table
 4254              	.LLSDA1689:
 4255 0250 FF       		.byte	0xff
 4256 0251 FF       		.byte	0xff
 4257 0252 01       		.byte	0x1
 4258 0253 04       		.uleb128 .LLSDACSE1689-.LLSDACSB1689
 4259              	.LLSDACSB1689:
 4260 0254 18       		.uleb128 .LEHB74-.LFB1689
 4261 0255 05       		.uleb128 .LEHE74-.LEHB74
 4262 0256 2C       		.uleb128 .L201-.LFB1689
 4263 0257 00       		.uleb128 0
 4264              	.LLSDACSE1689:
 4265              		.text
 4266              		.cfi_endproc
 4267              		.section	.text.unlikely
 4268              		.cfi_startproc
 4269              		.cfi_personality 0x9b,DW.ref.__gxx_personality_v0
 4270              		.cfi_lsda 0x1b,.LLSDAC1689
 4272              	_ZN12_GLOBAL__N_161TestCheckEqualFailureBecauseOfExceptionContainsCorrectDetailsD0Ev.cold:
 4273              	.LFSB1689:
 4274              	.L200:
 4275              		.cfi_def_cfa_offset 32
 4276              		.cfi_offset 6, -24
 4277              		.cfi_offset 12, -16
 4278 0250 4889EF   		movq	%rbp, %rdi
 4279 0253 E8000000 		call	_ZdlPv@PLT
 4279      00
 4280 0258 4C89E7   		movq	%r12, %rdi
 4281              	.LEHB75:
 4282 025b E8000000 		call	_Unwind_Resume@PLT
 4282      00
 4283              	.LEHE75:
 4284              		.cfi_endproc
 4285              	.LFE1689:
 4286              		.section	.gcc_except_table
 4287              	.LLSDAC1689:
 4288 0258 FF       		.byte	0xff
 4289 0259 FF       		.byte	0xff
 4290 025a 01       		.byte	0x1
 4291 025b 04       		.uleb128 .LLSDACSEC1689-.LLSDACSBC1689
 4292              	.LLSDACSBC1689:
 4293 025c 0B       		.uleb128 .LEHB75-.LCOLDB37
 4294 025d 05       		.uleb128 .LEHE75-.LEHB75
 4295 025e 00       		.uleb128 0
 4296 025f 00       		.uleb128 0
 4297              	.LLSDACSEC1689:
 4298              		.section	.text.unlikely
 4299              		.text
 4301              		.section	.text.unlikely
 4303              	.LCOLDE37:
 4304              		.text
 4305              	.LHOTE37:
 4306              		.section	.text.unlikely
 4307              		.align 2
 4308              	.LCOLDB38:
 4309              		.text
 4310              	.LHOTB38:
 4311              		.align 2
 4312 0f78 0F1F8400 		.p2align 4
 4312      00000000 
 4314              	_ZN12_GLOBAL__N_143TestCheckEqualFailureContainsCorrectDetailsD0Ev:
 4315              	.LFB1693:
 4316              		.cfi_startproc
 4317              		.cfi_personality 0x9b,DW.ref.__gxx_personality_v0
 4318              		.cfi_lsda 0x1b,.LLSDA1693
 4319 0f80 F30F1EFA 		endbr64
 4320 0f84 4154     		pushq	%r12
 4321              		.cfi_def_cfa_offset 16
 4322              		.cfi_offset 12, -16
 4323 0f86 488D0500 		leaq	16+_ZTVN12_GLOBAL__N_143TestCheckEqualFailureContainsCorrectDetailsE(%rip), %rax
 4323      000000
 4324 0f8d 55       		pushq	%rbp
 4325              		.cfi_def_cfa_offset 24
 4326              		.cfi_offset 6, -24
 4327 0f8e 4889FD   		movq	%rdi, %rbp
 4328 0f91 4883EC08 		subq	$8, %rsp
 4329              		.cfi_def_cfa_offset 32
 4330 0f95 488907   		movq	%rax, (%rdi)
 4331              	.LEHB76:
 4332 0f98 E8000000 		call	_ZN8UnitTest4TestD2Ev@PLT
 4332      00
 4333              	.LEHE76:
 4334 0f9d 4883C408 		addq	$8, %rsp
 4335              		.cfi_remember_state
 4336              		.cfi_def_cfa_offset 24
 4337 0fa1 4889EF   		movq	%rbp, %rdi
 4338 0fa4 5D       		popq	%rbp
 4339              		.cfi_def_cfa_offset 16
 4340 0fa5 415C     		popq	%r12
 4341              		.cfi_def_cfa_offset 8
 4342 0fa7 E9000000 		jmp	_ZdlPv@PLT
 4342      00
 4343              	.L205:
 4344              		.cfi_restore_state
 4345 0fac F30F1EFA 		endbr64
 4346 0fb0 4989C4   		movq	%rax, %r12
 4347 0fb3 E9000000 		jmp	.L204
 4347      00
 4348              		.section	.gcc_except_table
 4349              	.LLSDA1693:
 4350 0260 FF       		.byte	0xff
 4351 0261 FF       		.byte	0xff
 4352 0262 01       		.byte	0x1
 4353 0263 04       		.uleb128 .LLSDACSE1693-.LLSDACSB1693
 4354              	.LLSDACSB1693:
 4355 0264 18       		.uleb128 .LEHB76-.LFB1693
 4356 0265 05       		.uleb128 .LEHE76-.LEHB76
 4357 0266 2C       		.uleb128 .L205-.LFB1693
 4358 0267 00       		.uleb128 0
 4359              	.LLSDACSE1693:
 4360              		.text
 4361              		.cfi_endproc
 4362              		.section	.text.unlikely
 4363              		.cfi_startproc
 4364              		.cfi_personality 0x9b,DW.ref.__gxx_personality_v0
 4365              		.cfi_lsda 0x1b,.LLSDAC1693
 4367              	_ZN12_GLOBAL__N_143TestCheckEqualFailureContainsCorrectDetailsD0Ev.cold:
 4368              	.LFSB1693:
 4369              	.L204:
 4370              		.cfi_def_cfa_offset 32
 4371              		.cfi_offset 6, -24
 4372              		.cfi_offset 12, -16
 4373 0260 4889EF   		movq	%rbp, %rdi
 4374 0263 E8000000 		call	_ZdlPv@PLT
 4374      00
 4375 0268 4C89E7   		movq	%r12, %rdi
 4376              	.LEHB77:
 4377 026b E8000000 		call	_Unwind_Resume@PLT
 4377      00
 4378              	.LEHE77:
 4379              		.cfi_endproc
 4380              	.LFE1693:
 4381              		.section	.gcc_except_table
 4382              	.LLSDAC1693:
 4383 0268 FF       		.byte	0xff
 4384 0269 FF       		.byte	0xff
 4385 026a 01       		.byte	0x1
 4386 026b 04       		.uleb128 .LLSDACSEC1693-.LLSDACSBC1693
 4387              	.LLSDACSBC1693:
 4388 026c 0B       		.uleb128 .LEHB77-.LCOLDB38
 4389 026d 05       		.uleb128 .LEHE77-.LEHB77
 4390 026e 00       		.uleb128 0
 4391 026f 00       		.uleb128 0
 4392              	.LLSDACSEC1693:
 4393              		.section	.text.unlikely
 4394              		.text
 4396              		.section	.text.unlikely
 4398              	.LCOLDE38:
 4399              		.text
 4400              	.LHOTE38:
 4401              		.section	.text.unlikely
 4402              		.align 2
 4403              	.LCOLDB39:
 4404              		.text
 4405              	.LHOTB39:
 4406              		.align 2
 4407 0fb8 0F1F8400 		.p2align 4
 4407      00000000 
 4409              	_ZN12_GLOBAL__N_130TestCheckEqualFailsOnExceptionD0Ev:
 4410              	.LFB1697:
 4411              		.cfi_startproc
 4412              		.cfi_personality 0x9b,DW.ref.__gxx_personality_v0
 4413              		.cfi_lsda 0x1b,.LLSDA1697
 4414 0fc0 F30F1EFA 		endbr64
 4415 0fc4 4154     		pushq	%r12
 4416              		.cfi_def_cfa_offset 16
 4417              		.cfi_offset 12, -16
 4418 0fc6 488D0500 		leaq	16+_ZTVN12_GLOBAL__N_130TestCheckEqualFailsOnExceptionE(%rip), %rax
 4418      000000
 4419 0fcd 55       		pushq	%rbp
 4420              		.cfi_def_cfa_offset 24
 4421              		.cfi_offset 6, -24
 4422 0fce 4889FD   		movq	%rdi, %rbp
 4423 0fd1 4883EC08 		subq	$8, %rsp
 4424              		.cfi_def_cfa_offset 32
 4425 0fd5 488907   		movq	%rax, (%rdi)
 4426              	.LEHB78:
 4427 0fd8 E8000000 		call	_ZN8UnitTest4TestD2Ev@PLT
 4427      00
 4428              	.LEHE78:
 4429 0fdd 4883C408 		addq	$8, %rsp
 4430              		.cfi_remember_state
 4431              		.cfi_def_cfa_offset 24
 4432 0fe1 4889EF   		movq	%rbp, %rdi
 4433 0fe4 5D       		popq	%rbp
 4434              		.cfi_def_cfa_offset 16
 4435 0fe5 415C     		popq	%r12
 4436              		.cfi_def_cfa_offset 8
 4437 0fe7 E9000000 		jmp	_ZdlPv@PLT
 4437      00
 4438              	.L209:
 4439              		.cfi_restore_state
 4440 0fec F30F1EFA 		endbr64
 4441 0ff0 4989C4   		movq	%rax, %r12
 4442 0ff3 E9000000 		jmp	.L208
 4442      00
 4443              		.section	.gcc_except_table
 4444              	.LLSDA1697:
 4445 0270 FF       		.byte	0xff
 4446 0271 FF       		.byte	0xff
 4447 0272 01       		.byte	0x1
 4448 0273 04       		.uleb128 .LLSDACSE1697-.LLSDACSB1697
 4449              	.LLSDACSB1697:
 4450 0274 18       		.uleb128 .LEHB78-.LFB1697
 4451 0275 05       		.uleb128 .LEHE78-.LEHB78
 4452 0276 2C       		.uleb128 .L209-.LFB1697
 4453 0277 00       		.uleb128 0
 4454              	.LLSDACSE1697:
 4455              		.text
 4456              		.cfi_endproc
 4457              		.section	.text.unlikely
 4458              		.cfi_startproc
 4459              		.cfi_personality 0x9b,DW.ref.__gxx_personality_v0
 4460              		.cfi_lsda 0x1b,.LLSDAC1697
 4462              	_ZN12_GLOBAL__N_130TestCheckEqualFailsOnExceptionD0Ev.cold:
 4463              	.LFSB1697:
 4464              	.L208:
 4465              		.cfi_def_cfa_offset 32
 4466              		.cfi_offset 6, -24
 4467              		.cfi_offset 12, -16
 4468 0270 4889EF   		movq	%rbp, %rdi
 4469 0273 E8000000 		call	_ZdlPv@PLT
 4469      00
 4470 0278 4C89E7   		movq	%r12, %rdi
 4471              	.LEHB79:
 4472 027b E8000000 		call	_Unwind_Resume@PLT
 4472      00
 4473              	.LEHE79:
 4474              		.cfi_endproc
 4475              	.LFE1697:
 4476              		.section	.gcc_except_table
 4477              	.LLSDAC1697:
 4478 0278 FF       		.byte	0xff
 4479 0279 FF       		.byte	0xff
 4480 027a 01       		.byte	0x1
 4481 027b 04       		.uleb128 .LLSDACSEC1697-.LLSDACSBC1697
 4482              	.LLSDACSBC1697:
 4483 027c 0B       		.uleb128 .LEHB79-.LCOLDB39
 4484 027d 05       		.uleb128 .LEHE79-.LEHB79
 4485 027e 00       		.uleb128 0
 4486 027f 00       		.uleb128 0
 4487              	.LLSDACSEC1697:
 4488              		.section	.text.unlikely
 4489              		.text
 4491              		.section	.text.unlikely
 4493              	.LCOLDE39:
 4494              		.text
 4495              	.LHOTE39:
 4496              		.section	.text.unlikely
 4497              		.align 2
 4498              	.LCOLDB40:
 4499              		.text
 4500              	.LHOTB40:
 4501              		.align 2
 4502 0ff8 0F1F8400 		.p2align 4
 4502      00000000 
 4504              	_ZN12_GLOBAL__N_129TestCheckEqualFailsOnNotEqualD0Ev:
 4505              	.LFB1701:
 4506              		.cfi_startproc
 4507              		.cfi_personality 0x9b,DW.ref.__gxx_personality_v0
 4508              		.cfi_lsda 0x1b,.LLSDA1701
 4509 1000 F30F1EFA 		endbr64
 4510 1004 4154     		pushq	%r12
 4511              		.cfi_def_cfa_offset 16
 4512              		.cfi_offset 12, -16
 4513 1006 488D0500 		leaq	16+_ZTVN12_GLOBAL__N_129TestCheckEqualFailsOnNotEqualE(%rip), %rax
 4513      000000
 4514 100d 55       		pushq	%rbp
 4515              		.cfi_def_cfa_offset 24
 4516              		.cfi_offset 6, -24
 4517 100e 4889FD   		movq	%rdi, %rbp
 4518 1011 4883EC08 		subq	$8, %rsp
 4519              		.cfi_def_cfa_offset 32
 4520 1015 488907   		movq	%rax, (%rdi)
 4521              	.LEHB80:
 4522 1018 E8000000 		call	_ZN8UnitTest4TestD2Ev@PLT
 4522      00
 4523              	.LEHE80:
 4524 101d 4883C408 		addq	$8, %rsp
 4525              		.cfi_remember_state
 4526              		.cfi_def_cfa_offset 24
 4527 1021 4889EF   		movq	%rbp, %rdi
 4528 1024 5D       		popq	%rbp
 4529              		.cfi_def_cfa_offset 16
 4530 1025 415C     		popq	%r12
 4531              		.cfi_def_cfa_offset 8
 4532 1027 E9000000 		jmp	_ZdlPv@PLT
 4532      00
 4533              	.L213:
 4534              		.cfi_restore_state
 4535 102c F30F1EFA 		endbr64
 4536 1030 4989C4   		movq	%rax, %r12
 4537 1033 E9000000 		jmp	.L212
 4537      00
 4538              		.section	.gcc_except_table
 4539              	.LLSDA1701:
 4540 0280 FF       		.byte	0xff
 4541 0281 FF       		.byte	0xff
 4542 0282 01       		.byte	0x1
 4543 0283 04       		.uleb128 .LLSDACSE1701-.LLSDACSB1701
 4544              	.LLSDACSB1701:
 4545 0284 18       		.uleb128 .LEHB80-.LFB1701
 4546 0285 05       		.uleb128 .LEHE80-.LEHB80
 4547 0286 2C       		.uleb128 .L213-.LFB1701
 4548 0287 00       		.uleb128 0
 4549              	.LLSDACSE1701:
 4550              		.text
 4551              		.cfi_endproc
 4552              		.section	.text.unlikely
 4553              		.cfi_startproc
 4554              		.cfi_personality 0x9b,DW.ref.__gxx_personality_v0
 4555              		.cfi_lsda 0x1b,.LLSDAC1701
 4557              	_ZN12_GLOBAL__N_129TestCheckEqualFailsOnNotEqualD0Ev.cold:
 4558              	.LFSB1701:
 4559              	.L212:
 4560              		.cfi_def_cfa_offset 32
 4561              		.cfi_offset 6, -24
 4562              		.cfi_offset 12, -16
 4563 0280 4889EF   		movq	%rbp, %rdi
 4564 0283 E8000000 		call	_ZdlPv@PLT
 4564      00
 4565 0288 4C89E7   		movq	%r12, %rdi
 4566              	.LEHB81:
 4567 028b E8000000 		call	_Unwind_Resume@PLT
 4567      00
 4568              	.LEHE81:
 4569              		.cfi_endproc
 4570              	.LFE1701:
 4571              		.section	.gcc_except_table
 4572              	.LLSDAC1701:
 4573 0288 FF       		.byte	0xff
 4574 0289 FF       		.byte	0xff
 4575 028a 01       		.byte	0x1
 4576 028b 04       		.uleb128 .LLSDACSEC1701-.LLSDACSBC1701
 4577              	.LLSDACSBC1701:
 4578 028c 0B       		.uleb128 .LEHB81-.LCOLDB40
 4579 028d 05       		.uleb128 .LEHE81-.LEHB81
 4580 028e 00       		.uleb128 0
 4581 028f 00       		.uleb128 0
 4582              	.LLSDACSEC1701:
 4583              		.section	.text.unlikely
 4584              		.text
 4586              		.section	.text.unlikely
 4588              	.LCOLDE40:
 4589              		.text
 4590              	.LHOTE40:
 4591              		.section	.text.unlikely
 4592              		.align 2
 4593              	.LCOLDB41:
 4594              		.text
 4595              	.LHOTB41:
 4596              		.align 2
 4597 1038 0F1F8400 		.p2align 4
 4597      00000000 
 4599              	_ZN12_GLOBAL__N_129TestCheckEqualSucceedsOnEqualD0Ev:
 4600              	.LFB1705:
 4601              		.cfi_startproc
 4602              		.cfi_personality 0x9b,DW.ref.__gxx_personality_v0
 4603              		.cfi_lsda 0x1b,.LLSDA1705
 4604 1040 F30F1EFA 		endbr64
 4605 1044 4154     		pushq	%r12
 4606              		.cfi_def_cfa_offset 16
 4607              		.cfi_offset 12, -16
 4608 1046 488D0500 		leaq	16+_ZTVN12_GLOBAL__N_129TestCheckEqualSucceedsOnEqualE(%rip), %rax
 4608      000000
 4609 104d 55       		pushq	%rbp
 4610              		.cfi_def_cfa_offset 24
 4611              		.cfi_offset 6, -24
 4612 104e 4889FD   		movq	%rdi, %rbp
 4613 1051 4883EC08 		subq	$8, %rsp
 4614              		.cfi_def_cfa_offset 32
 4615 1055 488907   		movq	%rax, (%rdi)
 4616              	.LEHB82:
 4617 1058 E8000000 		call	_ZN8UnitTest4TestD2Ev@PLT
 4617      00
 4618              	.LEHE82:
 4619 105d 4883C408 		addq	$8, %rsp
 4620              		.cfi_remember_state
 4621              		.cfi_def_cfa_offset 24
 4622 1061 4889EF   		movq	%rbp, %rdi
 4623 1064 5D       		popq	%rbp
 4624              		.cfi_def_cfa_offset 16
 4625 1065 415C     		popq	%r12
 4626              		.cfi_def_cfa_offset 8
 4627 1067 E9000000 		jmp	_ZdlPv@PLT
 4627      00
 4628              	.L217:
 4629              		.cfi_restore_state
 4630 106c F30F1EFA 		endbr64
 4631 1070 4989C4   		movq	%rax, %r12
 4632 1073 E9000000 		jmp	.L216
 4632      00
 4633              		.section	.gcc_except_table
 4634              	.LLSDA1705:
 4635 0290 FF       		.byte	0xff
 4636 0291 FF       		.byte	0xff
 4637 0292 01       		.byte	0x1
 4638 0293 04       		.uleb128 .LLSDACSE1705-.LLSDACSB1705
 4639              	.LLSDACSB1705:
 4640 0294 18       		.uleb128 .LEHB82-.LFB1705
 4641 0295 05       		.uleb128 .LEHE82-.LEHB82
 4642 0296 2C       		.uleb128 .L217-.LFB1705
 4643 0297 00       		.uleb128 0
 4644              	.LLSDACSE1705:
 4645              		.text
 4646              		.cfi_endproc
 4647              		.section	.text.unlikely
 4648              		.cfi_startproc
 4649              		.cfi_personality 0x9b,DW.ref.__gxx_personality_v0
 4650              		.cfi_lsda 0x1b,.LLSDAC1705
 4652              	_ZN12_GLOBAL__N_129TestCheckEqualSucceedsOnEqualD0Ev.cold:
 4653              	.LFSB1705:
 4654              	.L216:
 4655              		.cfi_def_cfa_offset 32
 4656              		.cfi_offset 6, -24
 4657              		.cfi_offset 12, -16
 4658 0290 4889EF   		movq	%rbp, %rdi
 4659 0293 E8000000 		call	_ZdlPv@PLT
 4659      00
 4660 0298 4C89E7   		movq	%r12, %rdi
 4661              	.LEHB83:
 4662 029b E8000000 		call	_Unwind_Resume@PLT
 4662      00
 4663              	.LEHE83:
 4664              		.cfi_endproc
 4665              	.LFE1705:
 4666              		.section	.gcc_except_table
 4667              	.LLSDAC1705:
 4668 0298 FF       		.byte	0xff
 4669 0299 FF       		.byte	0xff
 4670 029a 01       		.byte	0x1
 4671 029b 04       		.uleb128 .LLSDACSEC1705-.LLSDACSBC1705
 4672              	.LLSDACSBC1705:
 4673 029c 0B       		.uleb128 .LEHB83-.LCOLDB41
 4674 029d 05       		.uleb128 .LEHE83-.LEHB83
 4675 029e 00       		.uleb128 0
 4676 029f 00       		.uleb128 0
 4677              	.LLSDACSEC1705:
 4678              		.section	.text.unlikely
 4679              		.text
 4681              		.section	.text.unlikely
 4683              	.LCOLDE41:
 4684              		.text
 4685              	.LHOTE41:
 4686              		.section	.text.unlikely
 4687              		.align 2
 4688              	.LCOLDB42:
 4689              		.text
 4690              	.LHOTB42:
 4691              		.align 2
 4692 1078 0F1F8400 		.p2align 4
 4692      00000000 
 4694              	_ZN12_GLOBAL__N_155TestCheckFailureBecauseOfExceptionIncludesCheckContentsD0Ev:
 4695              	.LFB1709:
 4696              		.cfi_startproc
 4697              		.cfi_personality 0x9b,DW.ref.__gxx_personality_v0
 4698              		.cfi_lsda 0x1b,.LLSDA1709
 4699 1080 F30F1EFA 		endbr64
 4700 1084 4154     		pushq	%r12
 4701              		.cfi_def_cfa_offset 16
 4702              		.cfi_offset 12, -16
 4703 1086 488D0500 		leaq	16+_ZTVN12_GLOBAL__N_155TestCheckFailureBecauseOfExceptionIncludesCheckContentsE(%rip), %rax
 4703      000000
 4704 108d 55       		pushq	%rbp
 4705              		.cfi_def_cfa_offset 24
 4706              		.cfi_offset 6, -24
 4707 108e 4889FD   		movq	%rdi, %rbp
 4708 1091 4883EC08 		subq	$8, %rsp
 4709              		.cfi_def_cfa_offset 32
 4710 1095 488907   		movq	%rax, (%rdi)
 4711              	.LEHB84:
 4712 1098 E8000000 		call	_ZN8UnitTest4TestD2Ev@PLT
 4712      00
 4713              	.LEHE84:
 4714 109d 4883C408 		addq	$8, %rsp
 4715              		.cfi_remember_state
 4716              		.cfi_def_cfa_offset 24
 4717 10a1 4889EF   		movq	%rbp, %rdi
 4718 10a4 5D       		popq	%rbp
 4719              		.cfi_def_cfa_offset 16
 4720 10a5 415C     		popq	%r12
 4721              		.cfi_def_cfa_offset 8
 4722 10a7 E9000000 		jmp	_ZdlPv@PLT
 4722      00
 4723              	.L221:
 4724              		.cfi_restore_state
 4725 10ac F30F1EFA 		endbr64
 4726 10b0 4989C4   		movq	%rax, %r12
 4727 10b3 E9000000 		jmp	.L220
 4727      00
 4728              		.section	.gcc_except_table
 4729              	.LLSDA1709:
 4730 02a0 FF       		.byte	0xff
 4731 02a1 FF       		.byte	0xff
 4732 02a2 01       		.byte	0x1
 4733 02a3 04       		.uleb128 .LLSDACSE1709-.LLSDACSB1709
 4734              	.LLSDACSB1709:
 4735 02a4 18       		.uleb128 .LEHB84-.LFB1709
 4736 02a5 05       		.uleb128 .LEHE84-.LEHB84
 4737 02a6 2C       		.uleb128 .L221-.LFB1709
 4738 02a7 00       		.uleb128 0
 4739              	.LLSDACSE1709:
 4740              		.text
 4741              		.cfi_endproc
 4742              		.section	.text.unlikely
 4743              		.cfi_startproc
 4744              		.cfi_personality 0x9b,DW.ref.__gxx_personality_v0
 4745              		.cfi_lsda 0x1b,.LLSDAC1709
 4747              	_ZN12_GLOBAL__N_155TestCheckFailureBecauseOfExceptionIncludesCheckContentsD0Ev.cold:
 4748              	.LFSB1709:
 4749              	.L220:
 4750              		.cfi_def_cfa_offset 32
 4751              		.cfi_offset 6, -24
 4752              		.cfi_offset 12, -16
 4753 02a0 4889EF   		movq	%rbp, %rdi
 4754 02a3 E8000000 		call	_ZdlPv@PLT
 4754      00
 4755 02a8 4C89E7   		movq	%r12, %rdi
 4756              	.LEHB85:
 4757 02ab E8000000 		call	_Unwind_Resume@PLT
 4757      00
 4758              	.LEHE85:
 4759              		.cfi_endproc
 4760              	.LFE1709:
 4761              		.section	.gcc_except_table
 4762              	.LLSDAC1709:
 4763 02a8 FF       		.byte	0xff
 4764 02a9 FF       		.byte	0xff
 4765 02aa 01       		.byte	0x1
 4766 02ab 04       		.uleb128 .LLSDACSEC1709-.LLSDACSBC1709
 4767              	.LLSDACSBC1709:
 4768 02ac 0B       		.uleb128 .LEHB85-.LCOLDB42
 4769 02ad 05       		.uleb128 .LEHE85-.LEHB85
 4770 02ae 00       		.uleb128 0
 4771 02af 00       		.uleb128 0
 4772              	.LLSDACSEC1709:
 4773              		.section	.text.unlikely
 4774              		.text
 4776              		.section	.text.unlikely
 4778              	.LCOLDE42:
 4779              		.text
 4780              	.LHOTE42:
 4781              		.section	.text.unlikely
 4782              		.align 2
 4783              	.LCOLDB43:
 4784              		.text
 4785              	.LHOTB43:
 4786              		.align 2
 4787 10b8 0F1F8400 		.p2align 4
 4787      00000000 
 4789              	_ZN12_GLOBAL__N_125TestCheckFailsOnExceptionD0Ev:
 4790              	.LFB1713:
 4791              		.cfi_startproc
 4792              		.cfi_personality 0x9b,DW.ref.__gxx_personality_v0
 4793              		.cfi_lsda 0x1b,.LLSDA1713
 4794 10c0 F30F1EFA 		endbr64
 4795 10c4 4154     		pushq	%r12
 4796              		.cfi_def_cfa_offset 16
 4797              		.cfi_offset 12, -16
 4798 10c6 488D0500 		leaq	16+_ZTVN12_GLOBAL__N_125TestCheckFailsOnExceptionE(%rip), %rax
 4798      000000
 4799 10cd 55       		pushq	%rbp
 4800              		.cfi_def_cfa_offset 24
 4801              		.cfi_offset 6, -24
 4802 10ce 4889FD   		movq	%rdi, %rbp
 4803 10d1 4883EC08 		subq	$8, %rsp
 4804              		.cfi_def_cfa_offset 32
 4805 10d5 488907   		movq	%rax, (%rdi)
 4806              	.LEHB86:
 4807 10d8 E8000000 		call	_ZN8UnitTest4TestD2Ev@PLT
 4807      00
 4808              	.LEHE86:
 4809 10dd 4883C408 		addq	$8, %rsp
 4810              		.cfi_remember_state
 4811              		.cfi_def_cfa_offset 24
 4812 10e1 4889EF   		movq	%rbp, %rdi
 4813 10e4 5D       		popq	%rbp
 4814              		.cfi_def_cfa_offset 16
 4815 10e5 415C     		popq	%r12
 4816              		.cfi_def_cfa_offset 8
 4817 10e7 E9000000 		jmp	_ZdlPv@PLT
 4817      00
 4818              	.L225:
 4819              		.cfi_restore_state
 4820 10ec F30F1EFA 		endbr64
 4821 10f0 4989C4   		movq	%rax, %r12
 4822 10f3 E9000000 		jmp	.L224
 4822      00
 4823              		.section	.gcc_except_table
 4824              	.LLSDA1713:
 4825 02b0 FF       		.byte	0xff
 4826 02b1 FF       		.byte	0xff
 4827 02b2 01       		.byte	0x1
 4828 02b3 04       		.uleb128 .LLSDACSE1713-.LLSDACSB1713
 4829              	.LLSDACSB1713:
 4830 02b4 18       		.uleb128 .LEHB86-.LFB1713
 4831 02b5 05       		.uleb128 .LEHE86-.LEHB86
 4832 02b6 2C       		.uleb128 .L225-.LFB1713
 4833 02b7 00       		.uleb128 0
 4834              	.LLSDACSE1713:
 4835              		.text
 4836              		.cfi_endproc
 4837              		.section	.text.unlikely
 4838              		.cfi_startproc
 4839              		.cfi_personality 0x9b,DW.ref.__gxx_personality_v0
 4840              		.cfi_lsda 0x1b,.LLSDAC1713
 4842              	_ZN12_GLOBAL__N_125TestCheckFailsOnExceptionD0Ev.cold:
 4843              	.LFSB1713:
 4844              	.L224:
 4845              		.cfi_def_cfa_offset 32
 4846              		.cfi_offset 6, -24
 4847              		.cfi_offset 12, -16
 4848 02b0 4889EF   		movq	%rbp, %rdi
 4849 02b3 E8000000 		call	_ZdlPv@PLT
 4849      00
 4850 02b8 4C89E7   		movq	%r12, %rdi
 4851              	.LEHB87:
 4852 02bb E8000000 		call	_Unwind_Resume@PLT
 4852      00
 4853              	.LEHE87:
 4854              		.cfi_endproc
 4855              	.LFE1713:
 4856              		.section	.gcc_except_table
 4857              	.LLSDAC1713:
 4858 02b8 FF       		.byte	0xff
 4859 02b9 FF       		.byte	0xff
 4860 02ba 01       		.byte	0x1
 4861 02bb 04       		.uleb128 .LLSDACSEC1713-.LLSDACSBC1713
 4862              	.LLSDACSBC1713:
 4863 02bc 0B       		.uleb128 .LEHB87-.LCOLDB43
 4864 02bd 05       		.uleb128 .LEHE87-.LEHB87
 4865 02be 00       		.uleb128 0
 4866 02bf 00       		.uleb128 0
 4867              	.LLSDACSEC1713:
 4868              		.section	.text.unlikely
 4869              		.text
 4871              		.section	.text.unlikely
 4873              	.LCOLDE43:
 4874              		.text
 4875              	.LHOTE43:
 4876              		.section	.text.unlikely
 4877              		.align 2
 4878              	.LCOLDB44:
 4879              		.text
 4880              	.LHOTB44:
 4881              		.align 2
 4882 10f8 0F1F8400 		.p2align 4
 4882      00000000 
 4884              	_ZN12_GLOBAL__N_137TestCheckFailureIncludesCheckContentsD0Ev:
 4885              	.LFB1717:
 4886              		.cfi_startproc
 4887              		.cfi_personality 0x9b,DW.ref.__gxx_personality_v0
 4888              		.cfi_lsda 0x1b,.LLSDA1717
 4889 1100 F30F1EFA 		endbr64
 4890 1104 4154     		pushq	%r12
 4891              		.cfi_def_cfa_offset 16
 4892              		.cfi_offset 12, -16
 4893 1106 488D0500 		leaq	16+_ZTVN12_GLOBAL__N_137TestCheckFailureIncludesCheckContentsE(%rip), %rax
 4893      000000
 4894 110d 55       		pushq	%rbp
 4895              		.cfi_def_cfa_offset 24
 4896              		.cfi_offset 6, -24
 4897 110e 4889FD   		movq	%rdi, %rbp
 4898 1111 4883EC08 		subq	$8, %rsp
 4899              		.cfi_def_cfa_offset 32
 4900 1115 488907   		movq	%rax, (%rdi)
 4901              	.LEHB88:
 4902 1118 E8000000 		call	_ZN8UnitTest4TestD2Ev@PLT
 4902      00
 4903              	.LEHE88:
 4904 111d 4883C408 		addq	$8, %rsp
 4905              		.cfi_remember_state
 4906              		.cfi_def_cfa_offset 24
 4907 1121 4889EF   		movq	%rbp, %rdi
 4908 1124 5D       		popq	%rbp
 4909              		.cfi_def_cfa_offset 16
 4910 1125 415C     		popq	%r12
 4911              		.cfi_def_cfa_offset 8
 4912 1127 E9000000 		jmp	_ZdlPv@PLT
 4912      00
 4913              	.L229:
 4914              		.cfi_restore_state
 4915 112c F30F1EFA 		endbr64
 4916 1130 4989C4   		movq	%rax, %r12
 4917 1133 E9000000 		jmp	.L228
 4917      00
 4918              		.section	.gcc_except_table
 4919              	.LLSDA1717:
 4920 02c0 FF       		.byte	0xff
 4921 02c1 FF       		.byte	0xff
 4922 02c2 01       		.byte	0x1
 4923 02c3 04       		.uleb128 .LLSDACSE1717-.LLSDACSB1717
 4924              	.LLSDACSB1717:
 4925 02c4 18       		.uleb128 .LEHB88-.LFB1717
 4926 02c5 05       		.uleb128 .LEHE88-.LEHB88
 4927 02c6 2C       		.uleb128 .L229-.LFB1717
 4928 02c7 00       		.uleb128 0
 4929              	.LLSDACSE1717:
 4930              		.text
 4931              		.cfi_endproc
 4932              		.section	.text.unlikely
 4933              		.cfi_startproc
 4934              		.cfi_personality 0x9b,DW.ref.__gxx_personality_v0
 4935              		.cfi_lsda 0x1b,.LLSDAC1717
 4937              	_ZN12_GLOBAL__N_137TestCheckFailureIncludesCheckContentsD0Ev.cold:
 4938              	.LFSB1717:
 4939              	.L228:
 4940              		.cfi_def_cfa_offset 32
 4941              		.cfi_offset 6, -24
 4942              		.cfi_offset 12, -16
 4943 02c0 4889EF   		movq	%rbp, %rdi
 4944 02c3 E8000000 		call	_ZdlPv@PLT
 4944      00
 4945 02c8 4C89E7   		movq	%r12, %rdi
 4946              	.LEHB89:
 4947 02cb E8000000 		call	_Unwind_Resume@PLT
 4947      00
 4948              	.LEHE89:
 4949              		.cfi_endproc
 4950              	.LFE1717:
 4951              		.section	.gcc_except_table
 4952              	.LLSDAC1717:
 4953 02c8 FF       		.byte	0xff
 4954 02c9 FF       		.byte	0xff
 4955 02ca 01       		.byte	0x1
 4956 02cb 04       		.uleb128 .LLSDACSEC1717-.LLSDACSBC1717
 4957              	.LLSDACSBC1717:
 4958 02cc 0B       		.uleb128 .LEHB89-.LCOLDB44
 4959 02cd 05       		.uleb128 .LEHE89-.LEHB89
 4960 02ce 00       		.uleb128 0
 4961 02cf 00       		.uleb128 0
 4962              	.LLSDACSEC1717:
 4963              		.section	.text.unlikely
 4964              		.text
 4966              		.section	.text.unlikely
 4968              	.LCOLDE44:
 4969              		.text
 4970              	.LHOTE44:
 4971              		.section	.text.unlikely
 4972              		.align 2
 4973              	.LCOLDB45:
 4974              		.text
 4975              	.LHOTB45:
 4976              		.align 2
 4977 1138 0F1F8400 		.p2align 4
 4977      00000000 
 4979              	_ZN12_GLOBAL__N_133TestFailureReportsCorrectTestNameD0Ev:
 4980              	.LFB1721:
 4981              		.cfi_startproc
 4982              		.cfi_personality 0x9b,DW.ref.__gxx_personality_v0
 4983              		.cfi_lsda 0x1b,.LLSDA1721
 4984 1140 F30F1EFA 		endbr64
 4985 1144 4154     		pushq	%r12
 4986              		.cfi_def_cfa_offset 16
 4987              		.cfi_offset 12, -16
 4988 1146 488D0500 		leaq	16+_ZTVN12_GLOBAL__N_133TestFailureReportsCorrectTestNameE(%rip), %rax
 4988      000000
 4989 114d 55       		pushq	%rbp
 4990              		.cfi_def_cfa_offset 24
 4991              		.cfi_offset 6, -24
 4992 114e 4889FD   		movq	%rdi, %rbp
 4993 1151 4883EC08 		subq	$8, %rsp
 4994              		.cfi_def_cfa_offset 32
 4995 1155 488907   		movq	%rax, (%rdi)
 4996              	.LEHB90:
 4997 1158 E8000000 		call	_ZN8UnitTest4TestD2Ev@PLT
 4997      00
 4998              	.LEHE90:
 4999 115d 4883C408 		addq	$8, %rsp
 5000              		.cfi_remember_state
 5001              		.cfi_def_cfa_offset 24
 5002 1161 4889EF   		movq	%rbp, %rdi
 5003 1164 5D       		popq	%rbp
 5004              		.cfi_def_cfa_offset 16
 5005 1165 415C     		popq	%r12
 5006              		.cfi_def_cfa_offset 8
 5007 1167 E9000000 		jmp	_ZdlPv@PLT
 5007      00
 5008              	.L233:
 5009              		.cfi_restore_state
 5010 116c F30F1EFA 		endbr64
 5011 1170 4989C4   		movq	%rax, %r12
 5012 1173 E9000000 		jmp	.L232
 5012      00
 5013              		.section	.gcc_except_table
 5014              	.LLSDA1721:
 5015 02d0 FF       		.byte	0xff
 5016 02d1 FF       		.byte	0xff
 5017 02d2 01       		.byte	0x1
 5018 02d3 04       		.uleb128 .LLSDACSE1721-.LLSDACSB1721
 5019              	.LLSDACSB1721:
 5020 02d4 18       		.uleb128 .LEHB90-.LFB1721
 5021 02d5 05       		.uleb128 .LEHE90-.LEHB90
 5022 02d6 2C       		.uleb128 .L233-.LFB1721
 5023 02d7 00       		.uleb128 0
 5024              	.LLSDACSE1721:
 5025              		.text
 5026              		.cfi_endproc
 5027              		.section	.text.unlikely
 5028              		.cfi_startproc
 5029              		.cfi_personality 0x9b,DW.ref.__gxx_personality_v0
 5030              		.cfi_lsda 0x1b,.LLSDAC1721
 5032              	_ZN12_GLOBAL__N_133TestFailureReportsCorrectTestNameD0Ev.cold:
 5033              	.LFSB1721:
 5034              	.L232:
 5035              		.cfi_def_cfa_offset 32
 5036              		.cfi_offset 6, -24
 5037              		.cfi_offset 12, -16
 5038 02d0 4889EF   		movq	%rbp, %rdi
 5039 02d3 E8000000 		call	_ZdlPv@PLT
 5039      00
 5040 02d8 4C89E7   		movq	%r12, %rdi
 5041              	.LEHB91:
 5042 02db E8000000 		call	_Unwind_Resume@PLT
 5042      00
 5043              	.LEHE91:
 5044              		.cfi_endproc
 5045              	.LFE1721:
 5046              		.section	.gcc_except_table
 5047              	.LLSDAC1721:
 5048 02d8 FF       		.byte	0xff
 5049 02d9 FF       		.byte	0xff
 5050 02da 01       		.byte	0x1
 5051 02db 04       		.uleb128 .LLSDACSEC1721-.LLSDACSBC1721
 5052              	.LLSDACSBC1721:
 5053 02dc 0B       		.uleb128 .LEHB91-.LCOLDB45
 5054 02dd 05       		.uleb128 .LEHE91-.LEHB91
 5055 02de 00       		.uleb128 0
 5056 02df 00       		.uleb128 0
 5057              	.LLSDACSEC1721:
 5058              		.section	.text.unlikely
 5059              		.text
 5061              		.section	.text.unlikely
 5063              	.LCOLDE45:
 5064              		.text
 5065              	.LHOTE45:
 5066              		.section	.text.unlikely
 5067              		.align 2
 5068              	.LCOLDB46:
 5069              		.text
 5070              	.LHOTB46:
 5071              		.align 2
 5072 1178 0F1F8400 		.p2align 4
 5072      00000000 
 5074              	_ZN12_GLOBAL__N_121TestCheckFailsOnFalseD0Ev:
 5075              	.LFB1725:
 5076              		.cfi_startproc
 5077              		.cfi_personality 0x9b,DW.ref.__gxx_personality_v0
 5078              		.cfi_lsda 0x1b,.LLSDA1725
 5079 1180 F30F1EFA 		endbr64
 5080 1184 4154     		pushq	%r12
 5081              		.cfi_def_cfa_offset 16
 5082              		.cfi_offset 12, -16
 5083 1186 488D0500 		leaq	16+_ZTVN12_GLOBAL__N_121TestCheckFailsOnFalseE(%rip), %rax
 5083      000000
 5084 118d 55       		pushq	%rbp
 5085              		.cfi_def_cfa_offset 24
 5086              		.cfi_offset 6, -24
 5087 118e 4889FD   		movq	%rdi, %rbp
 5088 1191 4883EC08 		subq	$8, %rsp
 5089              		.cfi_def_cfa_offset 32
 5090 1195 488907   		movq	%rax, (%rdi)
 5091              	.LEHB92:
 5092 1198 E8000000 		call	_ZN8UnitTest4TestD2Ev@PLT
 5092      00
 5093              	.LEHE92:
 5094 119d 4883C408 		addq	$8, %rsp
 5095              		.cfi_remember_state
 5096              		.cfi_def_cfa_offset 24
 5097 11a1 4889EF   		movq	%rbp, %rdi
 5098 11a4 5D       		popq	%rbp
 5099              		.cfi_def_cfa_offset 16
 5100 11a5 415C     		popq	%r12
 5101              		.cfi_def_cfa_offset 8
 5102 11a7 E9000000 		jmp	_ZdlPv@PLT
 5102      00
 5103              	.L237:
 5104              		.cfi_restore_state
 5105 11ac F30F1EFA 		endbr64
 5106 11b0 4989C4   		movq	%rax, %r12
 5107 11b3 E9000000 		jmp	.L236
 5107      00
 5108              		.section	.gcc_except_table
 5109              	.LLSDA1725:
 5110 02e0 FF       		.byte	0xff
 5111 02e1 FF       		.byte	0xff
 5112 02e2 01       		.byte	0x1
 5113 02e3 04       		.uleb128 .LLSDACSE1725-.LLSDACSB1725
 5114              	.LLSDACSB1725:
 5115 02e4 18       		.uleb128 .LEHB92-.LFB1725
 5116 02e5 05       		.uleb128 .LEHE92-.LEHB92
 5117 02e6 2C       		.uleb128 .L237-.LFB1725
 5118 02e7 00       		.uleb128 0
 5119              	.LLSDACSE1725:
 5120              		.text
 5121              		.cfi_endproc
 5122              		.section	.text.unlikely
 5123              		.cfi_startproc
 5124              		.cfi_personality 0x9b,DW.ref.__gxx_personality_v0
 5125              		.cfi_lsda 0x1b,.LLSDAC1725
 5127              	_ZN12_GLOBAL__N_121TestCheckFailsOnFalseD0Ev.cold:
 5128              	.LFSB1725:
 5129              	.L236:
 5130              		.cfi_def_cfa_offset 32
 5131              		.cfi_offset 6, -24
 5132              		.cfi_offset 12, -16
 5133 02e0 4889EF   		movq	%rbp, %rdi
 5134 02e3 E8000000 		call	_ZdlPv@PLT
 5134      00
 5135 02e8 4C89E7   		movq	%r12, %rdi
 5136              	.LEHB93:
 5137 02eb E8000000 		call	_Unwind_Resume@PLT
 5137      00
 5138              	.LEHE93:
 5139              		.cfi_endproc
 5140              	.LFE1725:
 5141              		.section	.gcc_except_table
 5142              	.LLSDAC1725:
 5143 02e8 FF       		.byte	0xff
 5144 02e9 FF       		.byte	0xff
 5145 02ea 01       		.byte	0x1
 5146 02eb 04       		.uleb128 .LLSDACSEC1725-.LLSDACSBC1725
 5147              	.LLSDACSBC1725:
 5148 02ec 0B       		.uleb128 .LEHB93-.LCOLDB46
 5149 02ed 05       		.uleb128 .LEHE93-.LEHB93
 5150 02ee 00       		.uleb128 0
 5151 02ef 00       		.uleb128 0
 5152              	.LLSDACSEC1725:
 5153              		.section	.text.unlikely
 5154              		.text
 5156              		.section	.text.unlikely
 5158              	.LCOLDE46:
 5159              		.text
 5160              	.LHOTE46:
 5161              		.section	.text.unlikely
 5162              		.align 2
 5163              	.LCOLDB47:
 5164              		.text
 5165              	.LHOTB47:
 5166              		.align 2
 5167 11b8 0F1F8400 		.p2align 4
 5167      00000000 
 5169              	_ZN12_GLOBAL__N_123TestCheckSucceedsOnTrueD0Ev:
 5170              	.LFB1729:
 5171              		.cfi_startproc
 5172              		.cfi_personality 0x9b,DW.ref.__gxx_personality_v0
 5173              		.cfi_lsda 0x1b,.LLSDA1729
 5174 11c0 F30F1EFA 		endbr64
 5175 11c4 4154     		pushq	%r12
 5176              		.cfi_def_cfa_offset 16
 5177              		.cfi_offset 12, -16
 5178 11c6 488D0500 		leaq	16+_ZTVN12_GLOBAL__N_123TestCheckSucceedsOnTrueE(%rip), %rax
 5178      000000
 5179 11cd 55       		pushq	%rbp
 5180              		.cfi_def_cfa_offset 24
 5181              		.cfi_offset 6, -24
 5182 11ce 4889FD   		movq	%rdi, %rbp
 5183 11d1 4883EC08 		subq	$8, %rsp
 5184              		.cfi_def_cfa_offset 32
 5185 11d5 488907   		movq	%rax, (%rdi)
 5186              	.LEHB94:
 5187 11d8 E8000000 		call	_ZN8UnitTest4TestD2Ev@PLT
 5187      00
 5188              	.LEHE94:
 5189 11dd 4883C408 		addq	$8, %rsp
 5190              		.cfi_remember_state
 5191              		.cfi_def_cfa_offset 24
 5192 11e1 4889EF   		movq	%rbp, %rdi
 5193 11e4 5D       		popq	%rbp
 5194              		.cfi_def_cfa_offset 16
 5195 11e5 415C     		popq	%r12
 5196              		.cfi_def_cfa_offset 8
 5197 11e7 E9000000 		jmp	_ZdlPv@PLT
 5197      00
 5198              	.L241:
 5199              		.cfi_restore_state
 5200 11ec F30F1EFA 		endbr64
 5201 11f0 4989C4   		movq	%rax, %r12
 5202 11f3 E9000000 		jmp	.L240
 5202      00
 5203              		.section	.gcc_except_table
 5204              	.LLSDA1729:
 5205 02f0 FF       		.byte	0xff
 5206 02f1 FF       		.byte	0xff
 5207 02f2 01       		.byte	0x1
 5208 02f3 04       		.uleb128 .LLSDACSE1729-.LLSDACSB1729
 5209              	.LLSDACSB1729:
 5210 02f4 18       		.uleb128 .LEHB94-.LFB1729
 5211 02f5 05       		.uleb128 .LEHE94-.LEHB94
 5212 02f6 2C       		.uleb128 .L241-.LFB1729
 5213 02f7 00       		.uleb128 0
 5214              	.LLSDACSE1729:
 5215              		.text
 5216              		.cfi_endproc
 5217              		.section	.text.unlikely
 5218              		.cfi_startproc
 5219              		.cfi_personality 0x9b,DW.ref.__gxx_personality_v0
 5220              		.cfi_lsda 0x1b,.LLSDAC1729
 5222              	_ZN12_GLOBAL__N_123TestCheckSucceedsOnTrueD0Ev.cold:
 5223              	.LFSB1729:
 5224              	.L240:
 5225              		.cfi_def_cfa_offset 32
 5226              		.cfi_offset 6, -24
 5227              		.cfi_offset 12, -16
 5228 02f0 4889EF   		movq	%rbp, %rdi
 5229 02f3 E8000000 		call	_ZdlPv@PLT
 5229      00
 5230 02f8 4C89E7   		movq	%r12, %rdi
 5231              	.LEHB95:
 5232 02fb E8000000 		call	_Unwind_Resume@PLT
 5232      00
 5233              	.LEHE95:
 5234              		.cfi_endproc
 5235              	.LFE1729:
 5236              		.section	.gcc_except_table
 5237              	.LLSDAC1729:
 5238 02f8 FF       		.byte	0xff
 5239 02f9 FF       		.byte	0xff
 5240 02fa 01       		.byte	0x1
 5241 02fb 04       		.uleb128 .LLSDACSEC1729-.LLSDACSBC1729
 5242              	.LLSDACSBC1729:
 5243 02fc 0B       		.uleb128 .LEHB95-.LCOLDB47
 5244 02fd 05       		.uleb128 .LEHE95-.LEHB95
 5245 02fe 00       		.uleb128 0
 5246 02ff 00       		.uleb128 0
 5247              	.LLSDACSEC1729:
 5248              		.section	.text.unlikely
 5249              		.text
 5251              		.section	.text.unlikely
 5253              	.LCOLDE47:
 5254              		.text
 5255              	.LHOTE47:
 5256              		.section	.text._ZN17RecordingReporter15ReportTestStartERKN8UnitTest11TestDetailsE,"axG",@progbits,
 5257              		.align 2
 5258              		.p2align 4
 5259              		.weak	_ZN17RecordingReporter15ReportTestStartERKN8UnitTest11TestDetailsE
 5261              	_ZN17RecordingReporter15ReportTestStartERKN8UnitTest11TestDetailsE:
 5262              	.LFB1214:
 5263              		.cfi_startproc
 5264 0000 F30F1EFA 		endbr64
 5265 0004 55       		pushq	%rbp
 5266              		.cfi_def_cfa_offset 16
 5267              		.cfi_offset 6, -16
 5268 0005 4889F5   		movq	%rsi, %rbp
 5269 0008 BA000100 		movl	$256, %edx
 5269      00
 5270 000d 53       		pushq	%rbx
 5271              		.cfi_def_cfa_offset 24
 5272              		.cfi_offset 3, -24
 5273 000e 4889FB   		movq	%rdi, %rbx
 5274 0011 4883EC08 		subq	$8, %rsp
 5275              		.cfi_def_cfa_offset 32
 5276 0015 83470801 		addl	$1, 8(%rdi)
 5277 0019 488B36   		movq	(%rsi), %rsi
 5278 001c 488D7F0C 		leaq	12(%rdi), %rdi
 5279 0020 E8000000 		call	__strcpy_chk@PLT
 5279      00
 5280 0025 488B7508 		movq	8(%rbp), %rsi
 5281 0029 4883C408 		addq	$8, %rsp
 5282              		.cfi_def_cfa_offset 24
 5283 002d 488DBB0C 		leaq	268(%rbx), %rdi
 5283      010000
 5284 0034 BA000100 		movl	$256, %edx
 5284      00
 5285 0039 5B       		popq	%rbx
 5286              		.cfi_def_cfa_offset 16
 5287 003a 5D       		popq	%rbp
 5288              		.cfi_def_cfa_offset 8
 5289 003b E9000000 		jmp	__strcpy_chk@PLT
 5289      00
 5290              		.cfi_endproc
 5291              	.LFE1214:
 5293              		.section	.text._ZN17RecordingReporter13ReportFailureERKN8UnitTest11TestDetailsEPKc,"axG",@progbits
 5294              		.align 2
 5295              		.p2align 4
 5296              		.weak	_ZN17RecordingReporter13ReportFailureERKN8UnitTest11TestDetailsEPKc
 5298              	_ZN17RecordingReporter13ReportFailureERKN8UnitTest11TestDetailsEPKc:
 5299              	.LFB1215:
 5300              		.cfi_startproc
 5301 0000 F30F1EFA 		endbr64
 5302 0004 4154     		pushq	%r12
 5303              		.cfi_def_cfa_offset 16
 5304              		.cfi_offset 12, -16
 5305 0006 4989D4   		movq	%rdx, %r12
 5306 0009 BA000100 		movl	$256, %edx
 5306      00
 5307 000e 55       		pushq	%rbp
 5308              		.cfi_def_cfa_offset 24
 5309              		.cfi_offset 6, -24
 5310 000f 4889F5   		movq	%rsi, %rbp
 5311 0012 53       		pushq	%rbx
 5312              		.cfi_def_cfa_offset 32
 5313              		.cfi_offset 3, -32
 5314 0013 488B7610 		movq	16(%rsi), %rsi
 5315 0017 4889FB   		movq	%rdi, %rbx
 5316 001a 83870C02 		addl	$1, 524(%rdi)
 5316      000001
 5317 0021 488DBF10 		leaq	528(%rdi), %rdi
 5317      020000
 5318 0028 E8000000 		call	__strcpy_chk@PLT
 5318      00
 5319 002d 8B4518   		movl	24(%rbp), %eax
 5320 0030 488B7500 		movq	0(%rbp), %rsi
 5321 0034 488DBB14 		leaq	788(%rbx), %rdi
 5321      030000
 5322 003b BA000100 		movl	$256, %edx
 5322      00
 5323 0040 89831003 		movl	%eax, 784(%rbx)
 5323      0000
 5324 0046 E8000000 		call	__strcpy_chk@PLT
 5324      00
 5325 004b 488B7508 		movq	8(%rbp), %rsi
 5326 004f BA000100 		movl	$256, %edx
 5326      00
 5327 0054 488DBB14 		leaq	1044(%rbx), %rdi
 5327      040000
 5328 005b E8000000 		call	__strcpy_chk@PLT
 5328      00
 5329 0060 488DBB14 		leaq	1300(%rbx), %rdi
 5329      050000
 5330 0067 4C89E6   		movq	%r12, %rsi
 5331 006a 5B       		popq	%rbx
 5332              		.cfi_def_cfa_offset 24
 5333 006b BA000100 		movl	$256, %edx
 5333      00
 5334 0070 5D       		popq	%rbp
 5335              		.cfi_def_cfa_offset 16
 5336 0071 415C     		popq	%r12
 5337              		.cfi_def_cfa_offset 8
 5338 0073 E9000000 		jmp	__strcpy_chk@PLT
 5338      00
 5339              		.cfi_endproc
 5340              	.LFE1215:
 5342              		.section	.text._ZN17RecordingReporter16ReportTestFinishERKN8UnitTest11TestDetailsEf,"axG",@progbit
 5343              		.align 2
 5344              		.p2align 4
 5345              		.weak	_ZN17RecordingReporter16ReportTestFinishERKN8UnitTest11TestDetailsEf
 5347              	_ZN17RecordingReporter16ReportTestFinishERKN8UnitTest11TestDetailsEf:
 5348              	.LFB1216:
 5349              		.cfi_startproc
 5350 0000 F30F1EFA 		endbr64
 5351 0004 55       		pushq	%rbp
 5352              		.cfi_def_cfa_offset 16
 5353              		.cfi_offset 6, -16
 5354 0005 4889F5   		movq	%rsi, %rbp
 5355 0008 BA000100 		movl	$256, %edx
 5355      00
 5356 000d 53       		pushq	%rbx
 5357              		.cfi_def_cfa_offset 24
 5358              		.cfi_offset 3, -24
 5359 000e 4889FB   		movq	%rdi, %rbx
 5360 0011 4883EC18 		subq	$24, %rsp
 5361              		.cfi_def_cfa_offset 48
 5362 0015 83871406 		addl	$1, 1556(%rdi)
 5362      000001
 5363 001c 488B36   		movq	(%rsi), %rsi
 5364 001f 488DBF18 		leaq	1560(%rdi), %rdi
 5364      060000
 5365 0026 F30F1144 		movss	%xmm0, 12(%rsp)
 5365      240C
 5366 002c E8000000 		call	__strcpy_chk@PLT
 5366      00
 5367 0031 488B7508 		movq	8(%rbp), %rsi
 5368 0035 BA000100 		movl	$256, %edx
 5368      00
 5369 003a 488DBB18 		leaq	1816(%rbx), %rdi
 5369      070000
 5370 0041 E8000000 		call	__strcpy_chk@PLT
 5370      00
 5371 0046 F30F1044 		movss	12(%rsp), %xmm0
 5371      240C
 5372 004c F30F1183 		movss	%xmm0, 2072(%rbx)
 5372      18080000 
 5373 0054 4883C418 		addq	$24, %rsp
 5374              		.cfi_def_cfa_offset 24
 5375 0058 5B       		popq	%rbx
 5376              		.cfi_def_cfa_offset 16
 5377 0059 5D       		popq	%rbp
 5378              		.cfi_def_cfa_offset 8
 5379 005a C3       		ret
 5380              		.cfi_endproc
 5381              	.LFE1216:
 5383              		.section	.text._ZN17RecordingReporterD2Ev,"axG",@progbits,_ZN17RecordingReporterD5Ev,comdat
 5384              		.align 2
 5385              		.p2align 4
 5386              		.weak	_ZN17RecordingReporterD2Ev
 5388              	_ZN17RecordingReporterD2Ev:
 5389              	.LFB1731:
 5390              		.cfi_startproc
 5391 0000 F30F1EFA 		endbr64
 5392 0004 488D0500 		leaq	16+_ZTV17RecordingReporter(%rip), %rax
 5392      000000
 5393 000b 488907   		movq	%rax, (%rdi)
 5394 000e E9000000 		jmp	_ZN8UnitTest12TestReporterD2Ev@PLT
 5394      00
 5395              		.cfi_endproc
 5396              	.LFE1731:
 5398              		.weak	_ZN17RecordingReporterD1Ev
 5399              		.set	_ZN17RecordingReporterD1Ev,_ZN17RecordingReporterD2Ev
 5400              		.section	.text._ZN17RecordingReporterD0Ev,"axG",@progbits,_ZN17RecordingReporterD5Ev,comdat
 5401              		.align 2
 5402              		.p2align 4
 5403              		.weak	_ZN17RecordingReporterD0Ev
 5405              	_ZN17RecordingReporterD0Ev:
 5406              	.LFB1733:
 5407              		.cfi_startproc
 5408              		.cfi_personality 0x9b,DW.ref.__gxx_personality_v0
 5409              		.cfi_lsda 0x1b,.LLSDA1733
 5410 0000 F30F1EFA 		endbr64
 5411 0004 4154     		pushq	%r12
 5412              		.cfi_def_cfa_offset 16
 5413              		.cfi_offset 12, -16
 5414 0006 488D0500 		leaq	16+_ZTV17RecordingReporter(%rip), %rax
 5414      000000
 5415 000d 55       		pushq	%rbp
 5416              		.cfi_def_cfa_offset 24
 5417              		.cfi_offset 6, -24
 5418 000e 4889FD   		movq	%rdi, %rbp
 5419 0011 4883EC08 		subq	$8, %rsp
 5420              		.cfi_def_cfa_offset 32
 5421 0015 488907   		movq	%rax, (%rdi)
 5422              	.LEHB96:
 5423 0018 E8000000 		call	_ZN8UnitTest12TestReporterD2Ev@PLT
 5423      00
 5424              	.LEHE96:
 5425 001d 4883C408 		addq	$8, %rsp
 5426              		.cfi_remember_state
 5427              		.cfi_def_cfa_offset 24
 5428 0021 4889EF   		movq	%rbp, %rdi
 5429 0024 5D       		popq	%rbp
 5430              		.cfi_def_cfa_offset 16
 5431 0025 415C     		popq	%r12
 5432              		.cfi_def_cfa_offset 8
 5433 0027 E9000000 		jmp	_ZdlPv@PLT
 5433      00
 5434              	.L252:
 5435              		.cfi_restore_state
 5436 002c F30F1EFA 		endbr64
 5437 0030 4989C4   		movq	%rax, %r12
 5438              	.L251:
 5439 0033 4889EF   		movq	%rbp, %rdi
 5440 0036 E8000000 		call	_ZdlPv@PLT
 5440      00
 5441 003b 4C89E7   		movq	%r12, %rdi
 5442              	.LEHB97:
 5443 003e E8000000 		call	_Unwind_Resume@PLT
 5443      00
 5444              	.LEHE97:
 5445              		.cfi_endproc
 5446              	.LFE1733:
 5447              		.section	.gcc_except_table
 5448              	.LLSDA1733:
 5449 0300 FF       		.byte	0xff
 5450 0301 FF       		.byte	0xff
 5451 0302 01       		.byte	0x1
 5452 0303 08       		.uleb128 .LLSDACSE1733-.LLSDACSB1733
 5453              	.LLSDACSB1733:
 5454 0304 18       		.uleb128 .LEHB96-.LFB1733
 5455 0305 05       		.uleb128 .LEHE96-.LEHB96
 5456 0306 2C       		.uleb128 .L252-.LFB1733
 5457 0307 00       		.uleb128 0
 5458 0308 3E       		.uleb128 .LEHB97-.LFB1733
 5459 0309 05       		.uleb128 .LEHE97-.LEHB97
 5460 030a 00       		.uleb128 0
 5461 030b 00       		.uleb128 0
 5462              	.LLSDACSE1733:
 5463              		.section	.text._ZN17RecordingReporterD0Ev,"axG",@progbits,_ZN17RecordingReporterD5Ev,comdat
 5465              		.section	.rodata.str1.1,"aMS",@progbits,1
 5466              	.LC48:
 5467 0000 446F6800 		.string	"Doh"
 5468              		.section	.text.unlikely
 5470              	_ZN12_GLOBAL__N_116ThrowingFunctionEv:
 5471              	.LFB1243:
 5472              		.cfi_startproc
 5473 0300 50       		pushq	%rax
 5474              		.cfi_def_cfa_offset 16
 5475 0301 58       		popq	%rax
 5476              		.cfi_def_cfa_offset 8
 5477 0302 BF080000 		movl	$8, %edi
 5477      00
 5478 0307 50       		pushq	%rax
 5479              		.cfi_def_cfa_offset 16
 5480 0308 E8000000 		call	__cxa_allocate_exception@PLT
 5480      00
 5481 030d 31D2     		xorl	%edx, %edx
 5482 030f 488D3500 		leaq	_ZTIPKc(%rip), %rsi
 5482      000000
 5483 0316 4889C7   		movq	%rax, %rdi
 5484 0319 488D0500 		leaq	.LC48(%rip), %rax
 5484      000000
 5485 0320 488907   		movq	%rax, (%rdi)
 5486 0323 E8000000 		call	__cxa_throw@PLT
 5486      00
 5487              		.cfi_endproc
 5488              	.LFE1243:
 5490              		.section	.rodata.str1.1
 5491              	.LC49:
 5492 0004 54657374 		.string	"Test throw"
 5492      20746872 
 5492      6F7700
 5493              		.section	.text.unlikely
 5494              		.align 2
 5496              	_ZNK12_GLOBAL__N_116ThrowingObject2DixEi.constprop.0:
 5497              	.LFB1739:
 5498              		.cfi_startproc
 5499 0328 50       		pushq	%rax
 5500              		.cfi_def_cfa_offset 16
 5501 0329 58       		popq	%rax
 5502              		.cfi_def_cfa_offset 8
 5503 032a BF080000 		movl	$8, %edi
 5503      00
 5504 032f 50       		pushq	%rax
 5505              		.cfi_def_cfa_offset 16
 5506 0330 E8000000 		call	__cxa_allocate_exception@PLT
 5506      00
 5507 0335 31D2     		xorl	%edx, %edx
 5508 0337 488D3500 		leaq	_ZTIPKc(%rip), %rsi
 5508      000000
 5509 033e 4889C7   		movq	%rax, %rdi
 5510 0341 488D0500 		leaq	.LC49(%rip), %rax
 5510      000000
 5511 0348 488907   		movq	%rax, (%rdi)
 5512 034b E8000000 		call	__cxa_throw@PLT
 5512      00
 5513              		.cfi_endproc
 5514              	.LFE1739:
 5516              		.align 2
 5518              	_ZNK12_GLOBAL__N_114ThrowingObjectixEi.constprop.0:
 5519              	.LFB1740:
 5520              		.cfi_startproc
 5521 0350 50       		pushq	%rax
 5522              		.cfi_def_cfa_offset 16
 5523 0351 58       		popq	%rax
 5524              		.cfi_def_cfa_offset 8
 5525 0352 BF080000 		movl	$8, %edi
 5525      00
 5526 0357 50       		pushq	%rax
 5527              		.cfi_def_cfa_offset 16
 5528 0358 E8000000 		call	__cxa_allocate_exception@PLT
 5528      00
 5529 035d 31D2     		xorl	%edx, %edx
 5530 035f 488D3500 		leaq	_ZTIPKc(%rip), %rsi
 5530      000000
 5531 0366 4889C7   		movq	%rax, %rdi
 5532 0369 488D0500 		leaq	.LC49(%rip), %rax
 5532      000000
 5533 0370 488907   		movq	%rax, (%rdi)
 5534 0373 E8000000 		call	__cxa_throw@PLT
 5534      00
 5535              		.cfi_endproc
 5536              	.LFE1740:
 5538              		.section	.text._ZN8UnitTest15MemoryOutStreamD1Ev,"axG",@progbits,_ZN8UnitTest15MemoryOutStreamD1Ev
 5539              		.align 2
 5540              		.p2align 4
 5541              		.weak	_ZN8UnitTest15MemoryOutStreamD1Ev
 5543              	_ZN8UnitTest15MemoryOutStreamD1Ev:
 5544              	.LFB1457:
 5545              		.cfi_startproc
 5546 0000 F30F1EFA 		endbr64
 5547 0004 55       		pushq	%rbp
 5548              		.cfi_def_cfa_offset 16
 5549              		.cfi_offset 6, -16
 5550 0005 488D0500 		leaq	24+_ZTVN8UnitTest15MemoryOutStreamE(%rip), %rax
 5550      000000
 5551 000c 53       		pushq	%rbx
 5552              		.cfi_def_cfa_offset 24
 5553              		.cfi_offset 3, -24
 5554 000d 4889FB   		movq	%rdi, %rbx
 5555 0010 4883EC08 		subq	$8, %rsp
 5556              		.cfi_def_cfa_offset 32
 5557 0014 488907   		movq	%rax, (%rdi)
 5558 0017 4883C028 		addq	$40, %rax
 5559 001b 48898790 		movq	%rax, 144(%rdi)
 5559      000000
 5560 0022 488B7F70 		movq	112(%rdi), %rdi
 5561 0026 488D8380 		leaq	128(%rbx), %rax
 5561      000000
 5562 002d 4839C7   		cmpq	%rax, %rdi
 5563 0030 7405     		je	.L261
 5564 0032 E8000000 		call	_ZdlPv@PLT
 5564      00
 5565              	.L261:
 5566 0037 488D0500 		leaq	64+_ZTCN8UnitTest15MemoryOutStreamE0_NSt7__cxx1119basic_ostringstreamIcSt11char_traitsIcESaIc
 5566      000000
 5567 003e 488D1500 		leaq	24+_ZTCN8UnitTest15MemoryOutStreamE0_NSt7__cxx1119basic_ostringstreamIcSt11char_traitsIcESaIc
 5567      000000
 5568 0045 488B7B50 		movq	80(%rbx), %rdi
 5569 0049 48898390 		movq	%rax, 144(%rbx)
 5569      000000
 5570 0050 488D0500 		leaq	16+_ZTVNSt7__cxx1115basic_stringbufIcSt11char_traitsIcESaIcEEE(%rip), %rax
 5570      000000
 5571 0057 66480F6E 		movq	%rdx, %xmm0
 5571      C2
 5572 005c 488DAB90 		leaq	144(%rbx), %rbp
 5572      000000
 5573 0063 66480F6E 		movq	%rax, %xmm1
 5573      C8
 5574 0068 488D4360 		leaq	96(%rbx), %rax
 5575 006c 660F6CC1 		punpcklqdq	%xmm1, %xmm0
 5576 0070 0F1103   		movups	%xmm0, (%rbx)
 5577 0073 4839C7   		cmpq	%rax, %rdi
 5578 0076 7405     		je	.L262
 5579 0078 E8000000 		call	_ZdlPv@PLT
 5579      00
 5580              	.L262:
 5581 007d 488D0500 		leaq	16+_ZTVSt15basic_streambufIcSt11char_traitsIcEE(%rip), %rax
 5581      000000
 5582 0084 488D7B40 		leaq	64(%rbx), %rdi
 5583 0088 48894308 		movq	%rax, 8(%rbx)
 5584 008c E8000000 		call	_ZNSt6localeD1Ev@PLT
 5584      00
 5585 0091 488D0500 		leaq	24+_ZTCN8UnitTest15MemoryOutStreamE0_So(%rip), %rax
 5585      000000
 5586 0098 4889EF   		movq	%rbp, %rdi
 5587 009b 488903   		movq	%rax, (%rbx)
 5588 009e 488D0500 		leaq	16+_ZTVSt9basic_iosIcSt11char_traitsIcEE(%rip), %rax
 5588      000000
 5589 00a5 48898390 		movq	%rax, 144(%rbx)
 5589      000000
 5590 00ac 4883C408 		addq	$8, %rsp
 5591              		.cfi_def_cfa_offset 24
 5592 00b0 5B       		popq	%rbx
 5593              		.cfi_def_cfa_offset 16
 5594 00b1 5D       		popq	%rbp
 5595              		.cfi_def_cfa_offset 8
 5596 00b2 E9000000 		jmp	_ZNSt8ios_baseD2Ev@PLT
 5596      00
 5597              		.cfi_endproc
 5598              	.LFE1457:
 5600 00b7 660F1F84 		.p2align 4
 5600      00000000 
 5600      00
 5601              		.weak	_ZTv0_n24_N8UnitTest15MemoryOutStreamD1Ev
 5603              	_ZTv0_n24_N8UnitTest15MemoryOutStreamD1Ev:
 5604              	.LFB1738:
 5605              		.cfi_startproc
 5606 00c0 F30F1EFA 		endbr64
 5607 00c4 55       		pushq	%rbp
 5608              		.cfi_def_cfa_offset 16
 5609              		.cfi_offset 6, -16
 5610 00c5 53       		pushq	%rbx
 5611              		.cfi_def_cfa_offset 24
 5612              		.cfi_offset 3, -24
 5613 00c6 4889FB   		movq	%rdi, %rbx
 5614 00c9 4883EC08 		subq	$8, %rsp
 5615              		.cfi_def_cfa_offset 32
 5616 00cd 488B07   		movq	(%rdi), %rax
 5617 00d0 480358E8 		addq	-24(%rax), %rbx
 5618 00d4 488D0500 		leaq	24+_ZTVN8UnitTest15MemoryOutStreamE(%rip), %rax
 5618      000000
 5619 00db 488903   		movq	%rax, (%rbx)
 5620 00de 488B7B70 		movq	112(%rbx), %rdi
 5621 00e2 4883C028 		addq	$40, %rax
 5622 00e6 48898390 		movq	%rax, 144(%rbx)
 5622      000000
 5623 00ed 488D8380 		leaq	128(%rbx), %rax
 5623      000000
 5624 00f4 4839C7   		cmpq	%rax, %rdi
 5625 00f7 7405     		je	.L265
 5626 00f9 E8000000 		call	_ZdlPv@PLT
 5626      00
 5627              	.L265:
 5628 00fe 488D0500 		leaq	64+_ZTCN8UnitTest15MemoryOutStreamE0_NSt7__cxx1119basic_ostringstreamIcSt11char_traitsIcESaIc
 5628      000000
 5629 0105 488D1500 		leaq	24+_ZTCN8UnitTest15MemoryOutStreamE0_NSt7__cxx1119basic_ostringstreamIcSt11char_traitsIcESaIc
 5629      000000
 5630 010c 488B7B50 		movq	80(%rbx), %rdi
 5631 0110 48898390 		movq	%rax, 144(%rbx)
 5631      000000
 5632 0117 488D0500 		leaq	16+_ZTVNSt7__cxx1115basic_stringbufIcSt11char_traitsIcESaIcEEE(%rip), %rax
 5632      000000
 5633 011e 66480F6E 		movq	%rdx, %xmm0
 5633      C2
 5634 0123 488DAB90 		leaq	144(%rbx), %rbp
 5634      000000
 5635 012a 66480F6E 		movq	%rax, %xmm1
 5635      C8
 5636 012f 488D4360 		leaq	96(%rbx), %rax
 5637 0133 660F6CC1 		punpcklqdq	%xmm1, %xmm0
 5638 0137 0F1103   		movups	%xmm0, (%rbx)
 5639 013a 4839C7   		cmpq	%rax, %rdi
 5640 013d 7405     		je	.L266
 5641 013f E8000000 		call	_ZdlPv@PLT
 5641      00
 5642              	.L266:
 5643 0144 488D0500 		leaq	16+_ZTVSt15basic_streambufIcSt11char_traitsIcEE(%rip), %rax
 5643      000000
 5644 014b 488D7B40 		leaq	64(%rbx), %rdi
 5645 014f 48894308 		movq	%rax, 8(%rbx)
 5646 0153 E8000000 		call	_ZNSt6localeD1Ev@PLT
 5646      00
 5647 0158 488D0500 		leaq	24+_ZTCN8UnitTest15MemoryOutStreamE0_So(%rip), %rax
 5647      000000
 5648 015f 4889EF   		movq	%rbp, %rdi
 5649 0162 488903   		movq	%rax, (%rbx)
 5650 0165 488D0500 		leaq	16+_ZTVSt9basic_iosIcSt11char_traitsIcEE(%rip), %rax
 5650      000000
 5651 016c 48898390 		movq	%rax, 144(%rbx)
 5651      000000
 5652 0173 4883C408 		addq	$8, %rsp
 5653              		.cfi_def_cfa_offset 24
 5654 0177 5B       		popq	%rbx
 5655              		.cfi_def_cfa_offset 16
 5656 0178 5D       		popq	%rbp
 5657              		.cfi_def_cfa_offset 8
 5658 0179 E9000000 		jmp	_ZNSt8ios_baseD2Ev@PLT
 5658      00
 5659              		.cfi_endproc
 5660              	.LFE1738:
 5662              		.section	.text._ZN8UnitTest15MemoryOutStreamD0Ev,"axG",@progbits,_ZN8UnitTest15MemoryOutStreamD0Ev
 5663              		.align 2
 5664              		.p2align 4
 5665              		.weak	_ZN8UnitTest15MemoryOutStreamD0Ev
 5667              	_ZN8UnitTest15MemoryOutStreamD0Ev:
 5668              	.LFB1458:
 5669              		.cfi_startproc
 5670              		.cfi_personality 0x9b,DW.ref.__gxx_personality_v0
 5671              		.cfi_lsda 0x1b,.LLSDA1458
 5672 0000 F30F1EFA 		endbr64
 5673 0004 4154     		pushq	%r12
 5674              		.cfi_def_cfa_offset 16
 5675              		.cfi_offset 12, -16
 5676 0006 488D0500 		leaq	24+_ZTVN8UnitTest15MemoryOutStreamE(%rip), %rax
 5676      000000
 5677 000d 55       		pushq	%rbp
 5678              		.cfi_def_cfa_offset 24
 5679              		.cfi_offset 6, -24
 5680 000e 4889FD   		movq	%rdi, %rbp
 5681 0011 4883EC08 		subq	$8, %rsp
 5682              		.cfi_def_cfa_offset 32
 5683 0015 488907   		movq	%rax, (%rdi)
 5684 0018 4883C028 		addq	$40, %rax
 5685 001c 48898790 		movq	%rax, 144(%rdi)
 5685      000000
 5686 0023 488B7F70 		movq	112(%rdi), %rdi
 5687 0027 488D8580 		leaq	128(%rbp), %rax
 5687      000000
 5688 002e 4839C7   		cmpq	%rax, %rdi
 5689 0031 7405     		je	.L269
 5690 0033 E8000000 		call	_ZdlPv@PLT
 5690      00
 5691              	.L269:
 5692 0038 488D0500 		leaq	64+_ZTCN8UnitTest15MemoryOutStreamE0_NSt7__cxx1119basic_ostringstreamIcSt11char_traitsIcESaIc
 5692      000000
 5693 003f 488D1500 		leaq	24+_ZTCN8UnitTest15MemoryOutStreamE0_NSt7__cxx1119basic_ostringstreamIcSt11char_traitsIcESaIc
 5693      000000
 5694 0046 488B7D50 		movq	80(%rbp), %rdi
 5695 004a 48898590 		movq	%rax, 144(%rbp)
 5695      000000
 5696 0051 488D0500 		leaq	16+_ZTVNSt7__cxx1115basic_stringbufIcSt11char_traitsIcESaIcEEE(%rip), %rax
 5696      000000
 5697 0058 66480F6E 		movq	%rdx, %xmm0
 5697      C2
 5698 005d 4C8DA590 		leaq	144(%rbp), %r12
 5698      000000
 5699 0064 66480F6E 		movq	%rax, %xmm1
 5699      C8
 5700 0069 488D4560 		leaq	96(%rbp), %rax
 5701 006d 660F6CC1 		punpcklqdq	%xmm1, %xmm0
 5702 0071 0F114500 		movups	%xmm0, 0(%rbp)
 5703 0075 4839C7   		cmpq	%rax, %rdi
 5704 0078 7405     		je	.L270
 5705 007a E8000000 		call	_ZdlPv@PLT
 5705      00
 5706              	.L270:
 5707 007f 488D0500 		leaq	16+_ZTVSt15basic_streambufIcSt11char_traitsIcEE(%rip), %rax
 5707      000000
 5708 0086 488D7D40 		leaq	64(%rbp), %rdi
 5709 008a 48894508 		movq	%rax, 8(%rbp)
 5710 008e E8000000 		call	_ZNSt6localeD1Ev@PLT
 5710      00
 5711 0093 488D0500 		leaq	24+_ZTCN8UnitTest15MemoryOutStreamE0_So(%rip), %rax
 5711      000000
 5712 009a 4C89E7   		movq	%r12, %rdi
 5713 009d 48894500 		movq	%rax, 0(%rbp)
 5714 00a1 488D0500 		leaq	16+_ZTVSt9basic_iosIcSt11char_traitsIcEE(%rip), %rax
 5714      000000
 5715 00a8 48898590 		movq	%rax, 144(%rbp)
 5715      000000
 5716              	.LEHB98:
 5717 00af E8000000 		call	_ZNSt8ios_baseD2Ev@PLT
 5717      00
 5718              	.LEHE98:
 5719 00b4 4883C408 		addq	$8, %rsp
 5720              		.cfi_remember_state
 5721              		.cfi_def_cfa_offset 24
 5722 00b8 4889EF   		movq	%rbp, %rdi
 5723 00bb 5D       		popq	%rbp
 5724              		.cfi_def_cfa_offset 16
 5725 00bc 415C     		popq	%r12
 5726              		.cfi_def_cfa_offset 8
 5727 00be E9000000 		jmp	_ZdlPv@PLT
 5727      00
 5728              	.L272:
 5729              		.cfi_restore_state
 5730 00c3 F30F1EFA 		endbr64
 5731 00c7 4989C4   		movq	%rax, %r12
 5732              	.L271:
 5733 00ca 4889EF   		movq	%rbp, %rdi
 5734 00cd E8000000 		call	_ZdlPv@PLT
 5734      00
 5735 00d2 4C89E7   		movq	%r12, %rdi
 5736              	.LEHB99:
 5737 00d5 E8000000 		call	_Unwind_Resume@PLT
 5737      00
 5738              	.LEHE99:
 5739              		.cfi_endproc
 5740              	.LFE1458:
 5741              		.section	.gcc_except_table
 5742              	.LLSDA1458:
 5743 030c FF       		.byte	0xff
 5744 030d FF       		.byte	0xff
 5745 030e 01       		.byte	0x1
 5746 030f 0B       		.uleb128 .LLSDACSE1458-.LLSDACSB1458
 5747              	.LLSDACSB1458:
 5748 0310 AF01     		.uleb128 .LEHB98-.LFB1458
 5749 0312 05       		.uleb128 .LEHE98-.LEHB98
 5750 0313 C301     		.uleb128 .L272-.LFB1458
 5751 0315 00       		.uleb128 0
 5752 0316 D501     		.uleb128 .LEHB99-.LFB1458
 5753 0318 05       		.uleb128 .LEHE99-.LEHB99
 5754 0319 00       		.uleb128 0
 5755 031a 00       		.uleb128 0
 5756              	.LLSDACSE1458:
 5757              		.section	.text._ZN8UnitTest15MemoryOutStreamD0Ev,"axG",@progbits,_ZN8UnitTest15MemoryOutStreamD0Ev
 5759 00da 660F1F44 		.p2align 4
 5759      0000
 5760              		.weak	_ZTv0_n24_N8UnitTest15MemoryOutStreamD0Ev
 5762              	_ZTv0_n24_N8UnitTest15MemoryOutStreamD0Ev:
 5763              	.LFB1737:
 5764              		.cfi_startproc
 5765              		.cfi_personality 0x9b,DW.ref.__gxx_personality_v0
 5766              		.cfi_lsda 0x1b,.LLSDA1737
 5767 00e0 F30F1EFA 		endbr64
 5768 00e4 4154     		pushq	%r12
 5769              		.cfi_def_cfa_offset 16
 5770              		.cfi_offset 12, -16
 5771 00e6 55       		pushq	%rbp
 5772              		.cfi_def_cfa_offset 24
 5773              		.cfi_offset 6, -24
 5774 00e7 4889FD   		movq	%rdi, %rbp
 5775 00ea 4883EC08 		subq	$8, %rsp
 5776              		.cfi_def_cfa_offset 32
 5777 00ee 488B07   		movq	(%rdi), %rax
 5778 00f1 480368E8 		addq	-24(%rax), %rbp
 5779 00f5 488D0500 		leaq	24+_ZTVN8UnitTest15MemoryOutStreamE(%rip), %rax
 5779      000000
 5780 00fc 48894500 		movq	%rax, 0(%rbp)
 5781 0100 488B7D70 		movq	112(%rbp), %rdi
 5782 0104 4883C028 		addq	$40, %rax
 5783 0108 48898590 		movq	%rax, 144(%rbp)
 5783      000000
 5784 010f 488D8580 		leaq	128(%rbp), %rax
 5784      000000
 5785 0116 4839C7   		cmpq	%rax, %rdi
 5786 0119 7405     		je	.L275
 5787 011b E8000000 		call	_ZdlPv@PLT
 5787      00
 5788              	.L275:
 5789 0120 488D0500 		leaq	64+_ZTCN8UnitTest15MemoryOutStreamE0_NSt7__cxx1119basic_ostringstreamIcSt11char_traitsIcESaIc
 5789      000000
 5790 0127 488D1500 		leaq	24+_ZTCN8UnitTest15MemoryOutStreamE0_NSt7__cxx1119basic_ostringstreamIcSt11char_traitsIcESaIc
 5790      000000
 5791 012e 488B7D50 		movq	80(%rbp), %rdi
 5792 0132 48898590 		movq	%rax, 144(%rbp)
 5792      000000
 5793 0139 488D0500 		leaq	16+_ZTVNSt7__cxx1115basic_stringbufIcSt11char_traitsIcESaIcEEE(%rip), %rax
 5793      000000
 5794 0140 66480F6E 		movq	%rdx, %xmm0
 5794      C2
 5795 0145 4C8DA590 		leaq	144(%rbp), %r12
 5795      000000
 5796 014c 66480F6E 		movq	%rax, %xmm1
 5796      C8
 5797 0151 488D4560 		leaq	96(%rbp), %rax
 5798 0155 660F6CC1 		punpcklqdq	%xmm1, %xmm0
 5799 0159 0F114500 		movups	%xmm0, 0(%rbp)
 5800 015d 4839C7   		cmpq	%rax, %rdi
 5801 0160 7405     		je	.L276
 5802 0162 E8000000 		call	_ZdlPv@PLT
 5802      00
 5803              	.L276:
 5804 0167 488D0500 		leaq	16+_ZTVSt15basic_streambufIcSt11char_traitsIcEE(%rip), %rax
 5804      000000
 5805 016e 488D7D40 		leaq	64(%rbp), %rdi
 5806 0172 48894508 		movq	%rax, 8(%rbp)
 5807 0176 E8000000 		call	_ZNSt6localeD1Ev@PLT
 5807      00
 5808 017b 488D0500 		leaq	24+_ZTCN8UnitTest15MemoryOutStreamE0_So(%rip), %rax
 5808      000000
 5809 0182 4C89E7   		movq	%r12, %rdi
 5810 0185 48894500 		movq	%rax, 0(%rbp)
 5811 0189 488D0500 		leaq	16+_ZTVSt9basic_iosIcSt11char_traitsIcEE(%rip), %rax
 5811      000000
 5812 0190 48898590 		movq	%rax, 144(%rbp)
 5812      000000
 5813              	.LEHB100:
 5814 0197 E8000000 		call	_ZNSt8ios_baseD2Ev@PLT
 5814      00
 5815              	.LEHE100:
 5816 019c 4883C408 		addq	$8, %rsp
 5817              		.cfi_remember_state
 5818              		.cfi_def_cfa_offset 24
 5819 01a0 4889EF   		movq	%rbp, %rdi
 5820 01a3 5D       		popq	%rbp
 5821              		.cfi_def_cfa_offset 16
 5822 01a4 415C     		popq	%r12
 5823              		.cfi_def_cfa_offset 8
 5824 01a6 E9000000 		jmp	_ZdlPv@PLT
 5824      00
 5825              	.L278:
 5826              		.cfi_restore_state
 5827 01ab F30F1EFA 		endbr64
 5828 01af 4989C4   		movq	%rax, %r12
 5829              	.L277:
 5830 01b2 4889EF   		movq	%rbp, %rdi
 5831 01b5 E8000000 		call	_ZdlPv@PLT
 5831      00
 5832 01ba 4C89E7   		movq	%r12, %rdi
 5833              	.LEHB101:
 5834 01bd E8000000 		call	_Unwind_Resume@PLT
 5834      00
 5835              	.LEHE101:
 5836              		.cfi_endproc
 5837              	.LFE1737:
 5838              		.section	.gcc_except_table
 5839              	.LLSDA1737:
 5840 031b FF       		.byte	0xff
 5841 031c FF       		.byte	0xff
 5842 031d 01       		.byte	0x1
 5843 031e 0B       		.uleb128 .LLSDACSE1737-.LLSDACSB1737
 5844              	.LLSDACSB1737:
 5845 031f B701     		.uleb128 .LEHB100-.LFB1737
 5846 0321 05       		.uleb128 .LEHE100-.LEHB100
 5847 0322 CB01     		.uleb128 .L278-.LFB1737
 5848 0324 00       		.uleb128 0
 5849 0325 DD01     		.uleb128 .LEHB101-.LFB1737
 5850 0327 05       		.uleb128 .LEHE101-.LEHB101
 5851 0328 00       		.uleb128 0
 5852 0329 00       		.uleb128 0
 5853              	.LLSDACSE1737:
 5854              		.section	.text._ZN8UnitTest15MemoryOutStreamD0Ev,"axG",@progbits,_ZN8UnitTest15MemoryOutStreamD0Ev
 5856              		.section	.text._ZN17ScopedCurrentTestD2Ev,"axG",@progbits,_ZN17ScopedCurrentTestD5Ev,comdat
 5857              		.align 2
 5858              		.p2align 4
 5859              		.weak	_ZN17ScopedCurrentTestD2Ev
 5861              	_ZN17ScopedCurrentTestD2Ev:
 5862              	.LFB1225:
 5863              		.cfi_startproc
 5864 0000 F30F1EFA 		endbr64
 5865 0004 53       		pushq	%rbx
 5866              		.cfi_def_cfa_offset 16
 5867              		.cfi_offset 3, -16
 5868 0005 4889FB   		movq	%rdi, %rbx
 5869 0008 E8000000 		call	_ZN8UnitTest11CurrentTest7ResultsEv@PLT
 5869      00
 5870 000d 488B13   		movq	(%rbx), %rdx
 5871 0010 488910   		movq	%rdx, (%rax)
 5872 0013 E8000000 		call	_ZN8UnitTest11CurrentTest7DetailsEv@PLT
 5872      00
 5873 0018 488B5308 		movq	8(%rbx), %rdx
 5874 001c 488910   		movq	%rdx, (%rax)
 5875 001f 5B       		popq	%rbx
 5876              		.cfi_def_cfa_offset 8
 5877 0020 C3       		ret
 5878              		.cfi_endproc
 5879              	.LFE1225:
 5881              		.weak	_ZN17ScopedCurrentTestD1Ev
 5882              		.set	_ZN17ScopedCurrentTestD1Ev,_ZN17ScopedCurrentTestD2Ev
 5883              		.section	.rodata.str1.1
 5884              	.LC51:
 5885 000f 6661696C 		.string	"failure"
 5885      75726500 
 5886              		.section	.rodata.str1.8,"aMS",@progbits,1
 5887              		.align 8
 5888              	.LC52:
 5889 0000 556E6861 		.string	"Unhandled exception in CHECK(ThrowingFunction() == 1)"
 5889      6E646C65 
 5889      64206578 
 5889      63657074 
 5889      696F6E20 
 5890 0036 0000     		.align 8
 5891              	.LC53:
 5892 0038 556E6861 		.string	"Unhandled exception in CHECK(failure)"
 5892      6E646C65 
 5892      64206578 
 5892      63657074 
 5892      696F6E20 
 5893              		.section	.text.unlikely
 5894              		.align 2
 5895              	.LCOLDB54:
 5896              		.text
 5897              	.LHOTB54:
 5898              		.align 2
 5899 11f8 0F1F8400 		.p2align 4
 5899      00000000 
 5901              	_ZNK12_GLOBAL__N_125TestCheckFailsOnException7RunImplEv:
 5902              	.LFB1247:
 5903              		.cfi_startproc
 5904              		.cfi_personality 0x9b,DW.ref.__gxx_personality_v0
 5905              		.cfi_lsda 0x1b,.LLSDA1247
 5906 1200 F30F1EFA 		endbr64
 5907 1204 4156     		pushq	%r14
 5908              		.cfi_def_cfa_offset 16
 5909              		.cfi_offset 14, -16
 5910 1206 4155     		pushq	%r13
 5911              		.cfi_def_cfa_offset 24
 5912              		.cfi_offset 13, -24
 5913 1208 4154     		pushq	%r12
 5914              		.cfi_def_cfa_offset 32
 5915              		.cfi_offset 12, -32
 5916 120a 55       		pushq	%rbp
 5917              		.cfi_def_cfa_offset 40
 5918              		.cfi_offset 6, -40
 5919 120b 53       		pushq	%rbx
 5920              		.cfi_def_cfa_offset 48
 5921              		.cfi_offset 3, -48
 5922 120c 488D1D00 		leaq	16+_ZTV17RecordingReporter(%rip), %rbx
 5922      000000
 5923 1213 4881EC90 		subq	$2192, %rsp
 5923      080000
 5924              		.cfi_def_cfa_offset 2240
 5925 121a 64488B04 		movq	%fs:40, %rax
 5925      25280000 
 5925      00
 5926 1223 48898424 		movq	%rax, 2184(%rsp)
 5926      88080000 
 5927 122b 31C0     		xorl	%eax, %eax
 5928 122d 4C8D6424 		leaq	80(%rsp), %r12
 5928      50
 5929 1232 488D6C24 		leaq	16(%rsp), %rbp
 5929      10
 5930 1237 48895C24 		movq	%rbx, 80(%rsp)
 5930      50
 5931 123c 4C89E6   		movq	%r12, %rsi
 5932 123f 4889EF   		movq	%rbp, %rdi
 5933 1242 C7442458 		movl	$0, 88(%rsp)
 5933      00000000 
 5934 124a C784245C 		movl	$0, 604(%rsp)
 5934      02000000 
 5934      000000
 5935 1255 C7842460 		movl	$0, 864(%rsp)
 5935      03000000 
 5935      000000
 5936 1260 C7842464 		movl	$0, 1636(%rsp)
 5936      06000000 
 5936      000000
 5937 126b 48C78424 		movq	$0, 2152(%rsp)
 5937      68080000 
 5937      00000000 
 5938 1277 48C78424 		movq	$0, 2160(%rsp)
 5938      70080000 
 5938      00000000 
 5939 1283 C7842478 		movl	$0x00000000, 2168(%rsp)
 5939      08000000 
 5939      000000
 5940 128e C644245C 		movb	$0, 92(%rsp)
 5940      00
 5941 1293 C684245C 		movb	$0, 348(%rsp)
 5941      01000000 
 5942 129b C6842460 		movb	$0, 608(%rsp)
 5942      02000000 
 5943 12a3 C6842464 		movb	$0, 868(%rsp)
 5943      03000000 
 5944 12ab C6842464 		movb	$0, 1124(%rsp)
 5944      04000000 
 5945 12b3 C6842464 		movb	$0, 1380(%rsp)
 5945      05000000 
 5946 12bb C6842468 		movb	$0, 1640(%rsp)
 5946      06000000 
 5947 12c3 C6842468 		movb	$0, 1896(%rsp)
 5947      07000000 
 5948              	.LEHB102:
 5949 12cb E8000000 		call	_ZN8UnitTest11TestResultsC1EPNS_12TestReporterE@PLT
 5949      00
 5950 12d0 E8000000 		call	_ZN8UnitTest11CurrentTest7ResultsEv@PLT
 5950      00
 5951 12d5 488B00   		movq	(%rax), %rax
 5952 12d8 48890424 		movq	%rax, (%rsp)
 5953 12dc E8000000 		call	_ZN8UnitTest11CurrentTest7DetailsEv@PLT
 5953      00
 5954 12e1 488B00   		movq	(%rax), %rax
 5955 12e4 48894424 		movq	%rax, 8(%rsp)
 5955      08
 5956 12e9 E8000000 		call	_ZN8UnitTest11CurrentTest7ResultsEv@PLT
 5956      00
 5957              	.LEHE102:
 5958 12ee 488928   		movq	%rbp, (%rax)
 5959              	.LEHB103:
 5960 12f1 E8000000 		call	_ZN12_GLOBAL__N_116ThrowingFunctionEv
 5960      00
 5961              	.LEHE103:
 5962              	.L299:
 5963 12f6 F30F1EFA 		endbr64
 5964 12fa E9000000 		jmp	.L300
 5964      00
 5965              	.L294:
 5966 12ff F30F1EFA 		endbr64
 5967 1303 4889C7   		movq	%rax, %rdi
 5968 1306 E9000000 		jmp	.L284
 5968      00
 5969              		.section	.gcc_except_table
 5970 032a 0000     		.align 4
 5971              	.LLSDA1247:
 5972 032c FF       		.byte	0xff
 5973 032d 9B       		.byte	0x9b
 5974 032e 15       		.uleb128 .LLSDATT1247-.LLSDATTD1247
 5975              	.LLSDATTD1247:
 5976 032f 01       		.byte	0x1
 5977 0330 0C       		.uleb128 .LLSDACSE1247-.LLSDACSB1247
 5978              	.LLSDACSB1247:
 5979 0331 CB01     		.uleb128 .LEHB102-.LFB1247
 5980 0333 23       		.uleb128 .LEHE102-.LEHB102
 5981 0334 F601     		.uleb128 .L299-.LFB1247
 5982 0336 00       		.uleb128 0
 5983 0337 F101     		.uleb128 .LEHB103-.LFB1247
 5984 0339 05       		.uleb128 .LEHE103-.LEHB103
 5985 033a FF01     		.uleb128 .L294-.LFB1247
 5986 033c 01       		.uleb128 0x1
 5987              	.LLSDACSE1247:
 5988 033d 01       		.byte	0x1
 5989 033e 00       		.byte	0
 5990 033f 00       		.align 4
 5991 0340 00000000 		.long	0
 5992              	
 5993              	.LLSDATT1247:
 5994              		.text
 5995              		.cfi_endproc
 5996              		.section	.text.unlikely
 5997              		.cfi_startproc
 5998              		.cfi_personality 0x9b,DW.ref.__gxx_personality_v0
 5999              		.cfi_lsda 0x1b,.LLSDAC1247
 6001              	_ZNK12_GLOBAL__N_125TestCheckFailsOnException7RunImplEv.cold:
 6002              	.LFSB1247:
 6003 0378 90       		nop
 6004              	.L293:
 6005              		.cfi_def_cfa_offset 2240
 6006              		.cfi_offset 3, -48
 6007              		.cfi_offset 6, -40
 6008              		.cfi_offset 12, -32
 6009              		.cfi_offset 13, -24
 6010              		.cfi_offset 14, -16
 6011 0379 F30F1EFA 		endbr64
 6012              	.L300:
 6013 037d 4889C5   		movq	%rax, %rbp
 6014              	.L288:
 6015 0380 4C89E7   		movq	%r12, %rdi
 6016 0383 48895C24 		movq	%rbx, 80(%rsp)
 6016      50
 6017 0388 E8000000 		call	_ZN8UnitTest12TestReporterD2Ev@PLT
 6017      00
 6018 038d 4889EF   		movq	%rbp, %rdi
 6019              	.LEHB104:
 6020 0390 E8000000 		call	_Unwind_Resume@PLT
 6020      00
 6021              	.LEHE104:
 6022              	.L284:
 6023 0395 E8000000 		call	__cxa_begin_catch@PLT
 6023      00
 6024              	.LEHB105:
 6025 039a E8000000 		call	_ZN8UnitTest11CurrentTest7ResultsEv@PLT
 6025      00
 6026 039f 4C8B30   		movq	(%rax), %r14
 6027 03a2 E8000000 		call	_ZN8UnitTest11CurrentTest7DetailsEv@PLT
 6027      00
 6028 03a7 4C8D6C24 		leaq	48(%rsp), %r13
 6028      30
 6029 03ac 488B30   		movq	(%rax), %rsi
 6030 03af BA4D0000 		movl	$77, %edx
 6030      00
 6031 03b4 4C89EF   		movq	%r13, %rdi
 6032 03b7 E8000000 		call	_ZN8UnitTest11TestDetailsC1ERKS0_i@PLT
 6032      00
 6033 03bc 488D1500 		leaq	.LC52(%rip), %rdx
 6033      000000
 6034 03c3 4C89EE   		movq	%r13, %rsi
 6035 03c6 4C89F7   		movq	%r14, %rdi
 6036 03c9 E8000000 		call	_ZN8UnitTest11TestResults13OnTestFailureERKNS_11TestDetailsEPKc@PLT
 6036      00
 6037              	.LEHE105:
 6038              	.LEHB106:
 6039 03ce E8000000 		call	__cxa_end_catch@PLT
 6039      00
 6040 03d3 4889EF   		movq	%rbp, %rdi
 6041 03d6 E8000000 		call	_ZNK8UnitTest11TestResults15GetFailureCountEv@PLT
 6041      00
 6042              	.LEHE106:
 6043 03db 4889E7   		movq	%rsp, %rdi
 6044 03de 89C5     		movl	%eax, %ebp
 6045              	.LEHB107:
 6046 03e0 E8000000 		call	_ZN17ScopedCurrentTestD1Ev
 6046      00
 6047              	.LEHE107:
 6048 03e5 4C89E7   		movq	%r12, %rdi
 6049 03e8 48895C24 		movq	%rbx, 80(%rsp)
 6049      50
