   1              		.file	"TestTestMacros.cpp"
   2              		.text
   3              		.section	.text._ZN17RecordingReporter13ReportSummaryEiiif,"axG",@progbits,_ZN17RecordingReporter13
   4              		.align 2
   5              		.p2align 4
   6              		.weak	_ZN17RecordingReporter13ReportSummaryEiiif
   8              	_ZN17RecordingReporter13ReportSummaryEiiif:
   9              	.LFB1217:
  10              		.cfi_startproc
  11 0000 F30F1EFA 		endbr64
  12 0004 660F6ECE 		movd	%esi, %xmm1
  13 0008 660F6ED2 		movd	%edx, %xmm2
  14 000c 898F2408 		movl	%ecx, 2084(%rdi)
  14      0000
  15 0012 660F62CA 		punpckldq	%xmm2, %xmm1
  16 0016 F30F1187 		movss	%xmm0, 2088(%rdi)
  16      28080000 
  17 001e 660FD68F 		movq	%xmm1, 2076(%rdi)
  17      1C080000 
  18 0026 C3       		ret
  19              		.cfi_endproc
  20              	.LFE1217:
  22              		.text
  23              		.align 2
  24              		.p2align 4
  26              	_ZNK12_GLOBAL__N_113TestDummyTest7RunImplEv:
  27              	.LFB1230:
  28              		.cfi_startproc
  29 0000 F30F1EFA 		endbr64
  30 0004 C3       		ret
  31              		.cfi_endproc
  32              	.LFE1230:
  34              		.globl	_ZNK18SuiteSameTestSuite14TestDummyTest17RunImplEv
  35              		.set	_ZNK18SuiteSameTestSuite14TestDummyTest17RunImplEv,_ZNK12_GLOBAL__N_113TestDummyTest7RunImplE
  36              		.set	_ZNK12_GLOBAL__N_120TestMacroTestHelper17RunImplEv,_ZNK12_GLOBAL__N_113TestDummyTest7RunImplE
  37              		.set	_ZNK12_GLOBAL__N_115SuiteTestSuite244TestSimilarlyNamedTestsInDifferentSuitesWork7RunImplEv,_
  38              		.set	_ZNK12_GLOBAL__N_115SuiteTestSuite144TestSimilarlyNamedTestsInDifferentSuitesWork7RunImplEv,_
  39              		.section	.rodata.str1.8,"aMS",@progbits,1
  40              		.align 8
  41              	.LC0:
  42 0000 43757272 		.string	"CurrentTestDetailsContainCurrentTestInfo"
  42      656E7454 
  42      65737444 
  42      65746169 
  42      6C73436F 
  43 0029 00000000 		.align 8
  43      000000
  44              	.LC1:
  45 0030 556E6861 		.string	"Unhandled exception in CHECK_EQUAL(STRINGIFY(CUR_TEST_NAME), details->testName)"
  45      6E646C65 
  45      64206578 
  45      63657074 
  45      696F6E20 
  46              		.section	.text.unlikely,"ax",@progbits
  47              		.align 2
  48              	.LCOLDB2:
  49              		.text
  50              	.LHOTB2:
  51 0005 90       		.align 2
  52 0006 662E0F1F 		.p2align 4
  52      84000000 
  52      0000
  53              		.globl	_ZNK44TestCurrentTestDetailsContainCurrentTestInfo7RunImplEv
  55              	_ZNK44TestCurrentTestDetailsContainCurrentTestInfo7RunImplEv:
  56              	.LFB1352:
  57              		.cfi_startproc
  58              		.cfi_personality 0x9b,DW.ref.__gxx_personality_v0
  59              		.cfi_lsda 0x1b,.LLSDA1352
  60 0010 F30F1EFA 		endbr64
  61 0014 4155     		pushq	%r13
  62              		.cfi_def_cfa_offset 16
  63              		.cfi_offset 13, -16
  64 0016 4154     		pushq	%r12
  65              		.cfi_def_cfa_offset 24
  66              		.cfi_offset 12, -24
  67 0018 4883EC38 		subq	$56, %rsp
  68              		.cfi_def_cfa_offset 80
  69 001c 64488B04 		movq	%fs:40, %rax
  69      25280000 
  69      00
  70 0025 48894424 		movq	%rax, 40(%rsp)
  70      28
  71 002a 31C0     		xorl	%eax, %eax
  72              	.LEHB0:
  73 002c E8000000 		call	_ZN8UnitTest11CurrentTest7DetailsEv@PLT
  73      00
  74              	.LEHE0:
  75 0031 4C8B28   		movq	(%rax), %r13
  76              	.LEHB1:
  77 0034 E8000000 		call	_ZN8UnitTest11CurrentTest7DetailsEv@PLT
  77      00
  78 0039 4989E4   		movq	%rsp, %r12
  79 003c 488B30   		movq	(%rax), %rsi
  80 003f BAD10000 		movl	$209, %edx
  80      00
  81 0044 4C89E7   		movq	%r12, %rdi
  82 0047 E8000000 		call	_ZN8UnitTest11TestDetailsC1ERKS0_i@PLT
  82      00
  83 004c 4D8B6D08 		movq	8(%r13), %r13
  84 0050 E8000000 		call	_ZN8UnitTest11CurrentTest7ResultsEv@PLT
  84      00
  85 0055 488B38   		movq	(%rax), %rdi
  86 0058 4C89E1   		movq	%r12, %rcx
  87 005b 4C89EA   		movq	%r13, %rdx
  88 005e 488D3500 		leaq	.LC0(%rip), %rsi
  88      000000
  89 0065 E8000000 		call	_ZN8UnitTest10CheckEqualERNS_11TestResultsEPKcS3_RKNS_11TestDetailsE@PLT
  89      00
  90              	.LEHE1:
  91 006a 488B4424 		movq	40(%rsp), %rax
  91      28
  92 006f 64482B04 		subq	%fs:40, %rax
  92      25280000 
  92      00
  93 0078 7509     		jne	.L13
  94 007a 4883C438 		addq	$56, %rsp
  95              		.cfi_remember_state
  96              		.cfi_def_cfa_offset 24
  97 007e 415C     		popq	%r12
  98              		.cfi_def_cfa_offset 16
  99 0080 415D     		popq	%r13
 100              		.cfi_def_cfa_offset 8
 101 0082 C3       		ret
 102              	.L13:
 103              		.cfi_restore_state
 104 0083 E8000000 		call	__stack_chk_fail@PLT
 104      00
 105              	.L9:
 106 0088 F30F1EFA 		endbr64
 107 008c 4889C7   		movq	%rax, %rdi
 108 008f E9000000 		jmp	.L5
 108      00
 109              		.globl	__gxx_personality_v0
 110              		.section	.gcc_except_table,"a",@progbits
 111              		.align 4
 112              	.LLSDA1352:
 113 0000 FF       		.byte	0xff
 114 0001 9B       		.byte	0x9b
 115 0002 11       		.uleb128 .LLSDATT1352-.LLSDATTD1352
 116              	.LLSDATTD1352:
 117 0003 01       		.byte	0x1
 118 0004 08       		.uleb128 .LLSDACSE1352-.LLSDACSB1352
 119              	.LLSDACSB1352:
 120 0005 1C       		.uleb128 .LEHB0-.LFB1352
 121 0006 05       		.uleb128 .LEHE0-.LEHB0
 122 0007 00       		.uleb128 0
 123 0008 00       		.uleb128 0
 124 0009 24       		.uleb128 .LEHB1-.LFB1352
 125 000a 36       		.uleb128 .LEHE1-.LEHB1
 126 000b 78       		.uleb128 .L9-.LFB1352
 127 000c 01       		.uleb128 0x1
 128              	.LLSDACSE1352:
 129 000d 01       		.byte	0x1
 130 000e 00       		.byte	0
 131 000f 00       		.align 4
 132 0010 00000000 		.long	0
 133              	
 134              	.LLSDATT1352:
 135              		.text
 136              		.cfi_endproc
 137              		.section	.text.unlikely
 138              		.cfi_startproc
 139              		.cfi_personality 0x9b,DW.ref.__gxx_personality_v0
 140              		.cfi_lsda 0x1b,.LLSDAC1352
 142              	_ZNK44TestCurrentTestDetailsContainCurrentTestInfo7RunImplEv.cold:
 143              	.LFSB1352:
 144              	.L5:
 145              		.cfi_def_cfa_offset 80
 146              		.cfi_offset 12, -24
 147              		.cfi_offset 13, -16
 148 0000 E8000000 		call	__cxa_begin_catch@PLT
 148      00
 149              	.LEHB2:
 150 0005 E8000000 		call	_ZN8UnitTest11CurrentTest7ResultsEv@PLT
 150      00
 151 000a 4C8B28   		movq	(%rax), %r13
 152 000d E8000000 		call	_ZN8UnitTest11CurrentTest7DetailsEv@PLT
 152      00
 153 0012 4989E4   		movq	%rsp, %r12
 154 0015 488B30   		movq	(%rax), %rsi
 155 0018 BAD10000 		movl	$209, %edx
 155      00
 156 001d 4C89E7   		movq	%r12, %rdi
 157 0020 E8000000 		call	_ZN8UnitTest11TestDetailsC1ERKS0_i@PLT
 157      00
 158 0025 488D1500 		leaq	.LC1(%rip), %rdx
 158      000000
 159 002c 4C89E6   		movq	%r12, %rsi
 160 002f 4C89EF   		movq	%r13, %rdi
 161 0032 E8000000 		call	_ZN8UnitTest11TestResults13OnTestFailureERKNS_11TestDetailsEPKc@PLT
 161      00
 162              	.LEHE2:
 163 0037 488B4424 		movq	40(%rsp), %rax
 163      28
 164 003c 64482B04 		subq	%fs:40, %rax
 164      25280000 
 164      00
 165 0045 7521     		jne	.L14
 166 0047 4883C438 		addq	$56, %rsp
 167              		.cfi_remember_state
 168              		.cfi_def_cfa_offset 24
 169 004b 415C     		popq	%r12
 170              		.cfi_def_cfa_offset 16
 171 004d 415D     		popq	%r13
 172              		.cfi_def_cfa_offset 8
 173              	.LEHB3:
 174 004f E9000000 		jmp	__cxa_end_catch@PLT
 174      00
 175              	.LEHE3:
 176              	.L10:
 177              		.cfi_restore_state
 178 0054 F30F1EFA 		endbr64
 179 0058 4989C4   		movq	%rax, %r12
 180 005b E8000000 		call	__cxa_end_catch@PLT
 180      00
 181 0060 4C89E7   		movq	%r12, %rdi
 182              	.LEHB4:
 183 0063 E8000000 		call	_Unwind_Resume@PLT
 183      00
 184              	.LEHE4:
 185              	.L14:
 186 0068 E8000000 		call	__stack_chk_fail@PLT
 186      00
 187              		.cfi_endproc
 188              	.LFE1352:
 189              		.section	.gcc_except_table
 190              		.align 4
 191              	.LLSDAC1352:
 192 0014 FF       		.byte	0xff
 193 0015 9B       		.byte	0x9b
 194 0016 15       		.uleb128 .LLSDATTC1352-.LLSDATTDC1352
 195              	.LLSDATTDC1352:
 196 0017 01       		.byte	0x1
 197 0018 0C       		.uleb128 .LLSDACSEC1352-.LLSDACSBC1352
 198              	.LLSDACSBC1352:
 199 0019 05       		.uleb128 .LEHB2-.LCOLDB2
 200 001a 32       		.uleb128 .LEHE2-.LEHB2
 201 001b 54       		.uleb128 .L10-.LCOLDB2
 202 001c 00       		.uleb128 0
 203 001d 4F       		.uleb128 .LEHB3-.LCOLDB2
 204 001e 05       		.uleb128 .LEHE3-.LEHB3
 205 001f 00       		.uleb128 0
 206 0020 00       		.uleb128 0
 207 0021 63       		.uleb128 .LEHB4-.LCOLDB2
 208 0022 05       		.uleb128 .LEHE4-.LEHB4
 209 0023 00       		.uleb128 0
 210 0024 00       		.uleb128 0
 211              	.LLSDACSEC1352:
 212 0025 01       		.byte	0x1
 213 0026 00       		.byte	0
 214 0027 00       		.align 4
 215 0028 00000000 		.long	0
 216              	
 217              	.LLSDATTC1352:
 218              		.section	.text.unlikely
 219              		.text
 221              		.section	.text.unlikely
 223              	.LCOLDE2:
 224              		.text
 225              	.LHOTE2:
 226              		.section	.text._ZN44TestCurrentTestDetailsContainCurrentTestInfoD2Ev,"axG",@progbits,_ZN44TestCurr
 227              		.align 2
 228              		.p2align 4
 229              		.weak	_ZN44TestCurrentTestDetailsContainCurrentTestInfoD2Ev
 231              	_ZN44TestCurrentTestDetailsContainCurrentTestInfoD2Ev:
 232              	.LFB1443:
 233              		.cfi_startproc
 234 0000 F30F1EFA 		endbr64
 235 0004 488D0500 		leaq	16+_ZTV44TestCurrentTestDetailsContainCurrentTestInfo(%rip), %rax
 235      000000
 236 000b 488907   		movq	%rax, (%rdi)
 237 000e E9000000 		jmp	_ZN8UnitTest4TestD2Ev@PLT
 237      00
 238              		.cfi_endproc
 239              	.LFE1443:
 241              		.weak	_ZN44TestCurrentTestDetailsContainCurrentTestInfoD1Ev
 242              		.set	_ZN44TestCurrentTestDetailsContainCurrentTestInfoD1Ev,_ZN44TestCurrentTestDetailsContainCurre
 243              		.section	.text._ZN44TestCurrentTestDetailsContainCurrentTestInfoD0Ev,"axG",@progbits,_ZN44TestCurr
 244              		.align 2
 245              		.p2align 4
 246              		.weak	_ZN44TestCurrentTestDetailsContainCurrentTestInfoD0Ev
 248              	_ZN44TestCurrentTestDetailsContainCurrentTestInfoD0Ev:
 249              	.LFB1445:
 250              		.cfi_startproc
 251              		.cfi_personality 0x9b,DW.ref.__gxx_personality_v0
 252              		.cfi_lsda 0x1b,.LLSDA1445
 253 0000 F30F1EFA 		endbr64
 254 0004 4154     		pushq	%r12
 255              		.cfi_def_cfa_offset 16
 256              		.cfi_offset 12, -16
 257 0006 488D0500 		leaq	16+_ZTV44TestCurrentTestDetailsContainCurrentTestInfo(%rip), %rax
 257      000000
 258 000d 55       		pushq	%rbp
 259              		.cfi_def_cfa_offset 24
 260              		.cfi_offset 6, -24
 261 000e 4889FD   		movq	%rdi, %rbp
 262 0011 4883EC08 		subq	$8, %rsp
 263              		.cfi_def_cfa_offset 32
 264 0015 488907   		movq	%rax, (%rdi)
 265              	.LEHB5:
 266 0018 E8000000 		call	_ZN8UnitTest4TestD2Ev@PLT
 266      00
 267              	.LEHE5:
 268 001d 4883C408 		addq	$8, %rsp
 269              		.cfi_remember_state
 270              		.cfi_def_cfa_offset 24
 271 0021 4889EF   		movq	%rbp, %rdi
 272 0024 5D       		popq	%rbp
 273              		.cfi_def_cfa_offset 16
 274 0025 415C     		popq	%r12
 275              		.cfi_def_cfa_offset 8
 276 0027 E9000000 		jmp	_ZdlPv@PLT
 276      00
 277              	.L18:
 278              		.cfi_restore_state
 279 002c F30F1EFA 		endbr64
 280 0030 4989C4   		movq	%rax, %r12
 281              	.L17:
 282 0033 4889EF   		movq	%rbp, %rdi
 283 0036 E8000000 		call	_ZdlPv@PLT
 283      00
 284 003b 4C89E7   		movq	%r12, %rdi
 285              	.LEHB6:
 286 003e E8000000 		call	_Unwind_Resume@PLT
 286      00
 287              	.LEHE6:
 288              		.cfi_endproc
 289              	.LFE1445:
 290              		.section	.gcc_except_table
 291              	.LLSDA1445:
 292 002c FF       		.byte	0xff
 293 002d FF       		.byte	0xff
 294 002e 01       		.byte	0x1
 295 002f 08       		.uleb128 .LLSDACSE1445-.LLSDACSB1445
 296              	.LLSDACSB1445:
 297 0030 18       		.uleb128 .LEHB5-.LFB1445
 298 0031 05       		.uleb128 .LEHE5-.LEHB5
 299 0032 2C       		.uleb128 .L18-.LFB1445
 300 0033 00       		.uleb128 0
 301 0034 3E       		.uleb128 .LEHB6-.LFB1445
 302 0035 05       		.uleb128 .LEHE6-.LEHB6
 303 0036 00       		.uleb128 0
 304 0037 00       		.uleb128 0
 305              	.LLSDACSE1445:
 306              		.section	.text._ZN44TestCurrentTestDetailsContainCurrentTestInfoD0Ev,"axG",@progbits,_ZN44TestCurr
 308              		.section	.text._ZN18SuiteSameTestSuite14TestDummyTest1D2Ev,"axG",@progbits,_ZN18SuiteSameTestSuite
 309              		.align 2
 310              		.p2align 4
 311              		.weak	_ZN18SuiteSameTestSuite14TestDummyTest1D2Ev
 313              	_ZN18SuiteSameTestSuite14TestDummyTest1D2Ev:
 314              	.LFB1447:
 315              		.cfi_startproc
 316 0000 F30F1EFA 		endbr64
 317 0004 488D0500 		leaq	16+_ZTVN18SuiteSameTestSuite14TestDummyTest1E(%rip), %rax
 317      000000
 318 000b 488907   		movq	%rax, (%rdi)
 319 000e E9000000 		jmp	_ZN8UnitTest4TestD2Ev@PLT
 319      00
 320              		.cfi_endproc
 321              	.LFE1447:
 323              		.weak	_ZN18SuiteSameTestSuite14TestDummyTest1D1Ev
 324              		.set	_ZN18SuiteSameTestSuite14TestDummyTest1D1Ev,_ZN18SuiteSameTestSuite14TestDummyTest1D2Ev
 325              		.section	.text._ZN18SuiteSameTestSuite14TestDummyTest1D0Ev,"axG",@progbits,_ZN18SuiteSameTestSuite
 326              		.align 2
 327              		.p2align 4
 328              		.weak	_ZN18SuiteSameTestSuite14TestDummyTest1D0Ev
 330              	_ZN18SuiteSameTestSuite14TestDummyTest1D0Ev:
 331              	.LFB1449:
 332              		.cfi_startproc
 333              		.cfi_personality 0x9b,DW.ref.__gxx_personality_v0
 334              		.cfi_lsda 0x1b,.LLSDA1449
 335 0000 F30F1EFA 		endbr64
 336 0004 4154     		pushq	%r12
 337              		.cfi_def_cfa_offset 16
 338              		.cfi_offset 12, -16
 339 0006 488D0500 		leaq	16+_ZTVN18SuiteSameTestSuite14TestDummyTest1E(%rip), %rax
 339      000000
 340 000d 55       		pushq	%rbp
 341              		.cfi_def_cfa_offset 24
 342              		.cfi_offset 6, -24
 343 000e 4889FD   		movq	%rdi, %rbp
 344 0011 4883EC08 		subq	$8, %rsp
 345              		.cfi_def_cfa_offset 32
 346 0015 488907   		movq	%rax, (%rdi)
 347              	.LEHB7:
 348 0018 E8000000 		call	_ZN8UnitTest4TestD2Ev@PLT
 348      00
 349              	.LEHE7:
 350 001d 4883C408 		addq	$8, %rsp
 351              		.cfi_remember_state
 352              		.cfi_def_cfa_offset 24
 353 0021 4889EF   		movq	%rbp, %rdi
 354 0024 5D       		popq	%rbp
 355              		.cfi_def_cfa_offset 16
 356 0025 415C     		popq	%r12
 357              		.cfi_def_cfa_offset 8
 358 0027 E9000000 		jmp	_ZdlPv@PLT
 358      00
 359              	.L23:
 360              		.cfi_restore_state
 361 002c F30F1EFA 		endbr64
 362 0030 4989C4   		movq	%rax, %r12
 363              	.L22:
 364 0033 4889EF   		movq	%rbp, %rdi
 365 0036 E8000000 		call	_ZdlPv@PLT
 365      00
 366 003b 4C89E7   		movq	%r12, %rdi
 367              	.LEHB8:
 368 003e E8000000 		call	_Unwind_Resume@PLT
 368      00
 369              	.LEHE8:
 370              		.cfi_endproc
 371              	.LFE1449:
 372              		.section	.gcc_except_table
 373              	.LLSDA1449:
 374 0038 FF       		.byte	0xff
 375 0039 FF       		.byte	0xff
 376 003a 01       		.byte	0x1
 377 003b 08       		.uleb128 .LLSDACSE1449-.LLSDACSB1449
 378              	.LLSDACSB1449:
 379 003c 18       		.uleb128 .LEHB7-.LFB1449
 380 003d 05       		.uleb128 .LEHE7-.LEHB7
 381 003e 2C       		.uleb128 .L23-.LFB1449
 382 003f 00       		.uleb128 0
 383 0040 3E       		.uleb128 .LEHB8-.LFB1449
 384 0041 05       		.uleb128 .LEHE8-.LEHB8
 385 0042 00       		.uleb128 0
 386 0043 00       		.uleb128 0
 387              	.LLSDACSE1449:
 388              		.section	.text._ZN18SuiteSameTestSuite14TestDummyTest1D0Ev,"axG",@progbits,_ZN18SuiteSameTestSuite
 390              		.text
 391              		.align 2
 392 0094 66662E0F 		.p2align 4
 392      1F840000 
 392      00000090 
 394              	_ZN12_GLOBAL__N_147TestCorrectlyReportsFixturesWithCtorsThatAssertD2Ev:
 395              	.LFB1451:
 396              		.cfi_startproc
 397 00a0 F30F1EFA 		endbr64
 398 00a4 488D0500 		leaq	16+_ZTVN12_GLOBAL__N_147TestCorrectlyReportsFixturesWithCtorsThatAssertE(%rip), %rax
 398      000000
 399 00ab 488907   		movq	%rax, (%rdi)
 400 00ae E9000000 		jmp	_ZN8UnitTest4TestD2Ev@PLT
 400      00
 401              		.cfi_endproc
 402              	.LFE1451:
 404              		.set	_ZN12_GLOBAL__N_147TestCorrectlyReportsFixturesWithCtorsThatAssertD1Ev,_ZN12_GLOBAL__N_147Tes
 405              		.section	.text.unlikely
 406 006d 90       		.align 2
 407              	.LCOLDB3:
 408              		.text
 409              	.LHOTB3:
 410 00b3 90       		.align 2
 411 00b4 66662E0F 		.p2align 4
 411      1F840000 
 411      00000090 
 413              	_ZN12_GLOBAL__N_147TestCorrectlyReportsFixturesWithCtorsThatAssertD0Ev:
 414              	.LFB1453:
 415              		.cfi_startproc
 416              		.cfi_personality 0x9b,DW.ref.__gxx_personality_v0
 417              		.cfi_lsda 0x1b,.LLSDA1453
 418 00c0 F30F1EFA 		endbr64
 419 00c4 4154     		pushq	%r12
 420              		.cfi_def_cfa_offset 16
 421              		.cfi_offset 12, -16
 422 00c6 488D0500 		leaq	16+_ZTVN12_GLOBAL__N_147TestCorrectlyReportsFixturesWithCtorsThatAssertE(%rip), %rax
 422      000000
 423 00cd 55       		pushq	%rbp
 424              		.cfi_def_cfa_offset 24
 425              		.cfi_offset 6, -24
 426 00ce 4889FD   		movq	%rdi, %rbp
 427 00d1 4883EC08 		subq	$8, %rsp
 428              		.cfi_def_cfa_offset 32
 429 00d5 488907   		movq	%rax, (%rdi)
 430              	.LEHB9:
 431 00d8 E8000000 		call	_ZN8UnitTest4TestD2Ev@PLT
 431      00
 432              	.LEHE9:
 433 00dd 4883C408 		addq	$8, %rsp
 434              		.cfi_remember_state
 435              		.cfi_def_cfa_offset 24
 436 00e1 4889EF   		movq	%rbp, %rdi
 437 00e4 5D       		popq	%rbp
 438              		.cfi_def_cfa_offset 16
 439 00e5 415C     		popq	%r12
 440              		.cfi_def_cfa_offset 8
 441 00e7 E9000000 		jmp	_ZdlPv@PLT
 441      00
 442              	.L28:
 443              		.cfi_restore_state
 444 00ec F30F1EFA 		endbr64
 445 00f0 4989C4   		movq	%rax, %r12
 446 00f3 E9000000 		jmp	.L27
 446      00
 447              		.section	.gcc_except_table
 448              	.LLSDA1453:
 449 0044 FF       		.byte	0xff
 450 0045 FF       		.byte	0xff
 451 0046 01       		.byte	0x1
 452 0047 04       		.uleb128 .LLSDACSE1453-.LLSDACSB1453
 453              	.LLSDACSB1453:
 454 0048 18       		.uleb128 .LEHB9-.LFB1453
 455 0049 05       		.uleb128 .LEHE9-.LEHB9
 456 004a 2C       		.uleb128 .L28-.LFB1453
 457 004b 00       		.uleb128 0
 458              	.LLSDACSE1453:
 459              		.text
 460              		.cfi_endproc
 461              		.section	.text.unlikely
 462              		.cfi_startproc
 463              		.cfi_personality 0x9b,DW.ref.__gxx_personality_v0
 464              		.cfi_lsda 0x1b,.LLSDAC1453
 466              	_ZN12_GLOBAL__N_147TestCorrectlyReportsFixturesWithCtorsThatAssertD0Ev.cold:
 467              	.LFSB1453:
 468              	.L27:
 469              		.cfi_def_cfa_offset 32
 470              		.cfi_offset 6, -24
 471              		.cfi_offset 12, -16
 472 006e 4889EF   		movq	%rbp, %rdi
 473 0071 E8000000 		call	_ZdlPv@PLT
 473      00
 474 0076 4C89E7   		movq	%r12, %rdi
 475              	.LEHB10:
 476 0079 E8000000 		call	_Unwind_Resume@PLT
 476      00
 477              	.LEHE10:
 478              		.cfi_endproc
 479              	.LFE1453:
 480              		.section	.gcc_except_table
 481              	.LLSDAC1453:
 482 004c FF       		.byte	0xff
 483 004d FF       		.byte	0xff
 484 004e 01       		.byte	0x1
 485 004f 04       		.uleb128 .LLSDACSEC1453-.LLSDACSBC1453
 486              	.LLSDACSBC1453:
 487 0050 0B       		.uleb128 .LEHB10-.LCOLDB3
 488 0051 05       		.uleb128 .LEHE10-.LEHB10
 489 0052 00       		.uleb128 0
 490 0053 00       		.uleb128 0
 491              	.LLSDACSEC1453:
 492              		.section	.text.unlikely
 493              		.text
 495              		.section	.text.unlikely
 497              	.LCOLDE3:
 498              		.text
 499              	.LHOTE3:
 500              		.align 2
 501 00f8 0F1F8400 		.p2align 4
 501      00000000 
 503              	_ZN12_GLOBAL__N_157TestFixtureCtorAssertsCorrectlyReportsAssertFailureInCtorD2Ev:
 504              	.LFB1455:
 505              		.cfi_startproc
 506 0100 F30F1EFA 		endbr64
 507 0104 488D0500 		leaq	16+_ZTVN12_GLOBAL__N_157TestFixtureCtorAssertsCorrectlyReportsAssertFailureInCtorE(%rip), %ra
 507      000000
 508 010b 488907   		movq	%rax, (%rdi)
 509 010e E9000000 		jmp	_ZN8UnitTest4TestD2Ev@PLT
 509      00
 510              		.cfi_endproc
 511              	.LFE1455:
 513              		.set	_ZN12_GLOBAL__N_157TestFixtureCtorAssertsCorrectlyReportsAssertFailureInCtorD1Ev,_ZN12_GLOBAL
 514              		.section	.text.unlikely
 515              		.align 2
 516              	.LCOLDB4:
 517              		.text
 518              	.LHOTB4:
 519 0113 90       		.align 2
 520 0114 66662E0F 		.p2align 4
 520      1F840000 
 520      00000090 
 522              	_ZN12_GLOBAL__N_157TestFixtureCtorAssertsCorrectlyReportsAssertFailureInCtorD0Ev:
 523              	.LFB1457:
 524              		.cfi_startproc
 525              		.cfi_personality 0x9b,DW.ref.__gxx_personality_v0
 526              		.cfi_lsda 0x1b,.LLSDA1457
 527 0120 F30F1EFA 		endbr64
 528 0124 4154     		pushq	%r12
 529              		.cfi_def_cfa_offset 16
 530              		.cfi_offset 12, -16
 531 0126 488D0500 		leaq	16+_ZTVN12_GLOBAL__N_157TestFixtureCtorAssertsCorrectlyReportsAssertFailureInCtorE(%rip), %ra
 531      000000
 532 012d 55       		pushq	%rbp
 533              		.cfi_def_cfa_offset 24
 534              		.cfi_offset 6, -24
 535 012e 4889FD   		movq	%rdi, %rbp
 536 0131 4883EC08 		subq	$8, %rsp
 537              		.cfi_def_cfa_offset 32
 538 0135 488907   		movq	%rax, (%rdi)
 539              	.LEHB11:
 540 0138 E8000000 		call	_ZN8UnitTest4TestD2Ev@PLT
 540      00
 541              	.LEHE11:
 542 013d 4883C408 		addq	$8, %rsp
 543              		.cfi_remember_state
 544              		.cfi_def_cfa_offset 24
 545 0141 4889EF   		movq	%rbp, %rdi
 546 0144 5D       		popq	%rbp
 547              		.cfi_def_cfa_offset 16
 548 0145 415C     		popq	%r12
 549              		.cfi_def_cfa_offset 8
 550 0147 E9000000 		jmp	_ZdlPv@PLT
 550      00
 551              	.L33:
 552              		.cfi_restore_state
 553 014c F30F1EFA 		endbr64
 554 0150 4989C4   		movq	%rax, %r12
 555 0153 E9000000 		jmp	.L32
 555      00
 556              		.section	.gcc_except_table
 557              	.LLSDA1457:
 558 0054 FF       		.byte	0xff
 559 0055 FF       		.byte	0xff
 560 0056 01       		.byte	0x1
 561 0057 04       		.uleb128 .LLSDACSE1457-.LLSDACSB1457
 562              	.LLSDACSB1457:
 563 0058 18       		.uleb128 .LEHB11-.LFB1457
 564 0059 05       		.uleb128 .LEHE11-.LEHB11
 565 005a 2C       		.uleb128 .L33-.LFB1457
 566 005b 00       		.uleb128 0
 567              	.LLSDACSE1457:
 568              		.text
 569              		.cfi_endproc
 570              		.section	.text.unlikely
 571              		.cfi_startproc
 572              		.cfi_personality 0x9b,DW.ref.__gxx_personality_v0
 573              		.cfi_lsda 0x1b,.LLSDAC1457
 575              	_ZN12_GLOBAL__N_157TestFixtureCtorAssertsCorrectlyReportsAssertFailureInCtorD0Ev.cold:
 576              	.LFSB1457:
 577              	.L32:
 578              		.cfi_def_cfa_offset 32
 579              		.cfi_offset 6, -24
 580              		.cfi_offset 12, -16
 581 007e 4889EF   		movq	%rbp, %rdi
 582 0081 E8000000 		call	_ZdlPv@PLT
 582      00
 583 0086 4C89E7   		movq	%r12, %rdi
 584              	.LEHB12:
 585 0089 E8000000 		call	_Unwind_Resume@PLT
 585      00
 586              	.LEHE12:
 587              		.cfi_endproc
 588              	.LFE1457:
 589              		.section	.gcc_except_table
 590              	.LLSDAC1457:
 591 005c FF       		.byte	0xff
 592 005d FF       		.byte	0xff
 593 005e 01       		.byte	0x1
 594 005f 04       		.uleb128 .LLSDACSEC1457-.LLSDACSBC1457
 595              	.LLSDACSBC1457:
 596 0060 0B       		.uleb128 .LEHB12-.LCOLDB4
 597 0061 05       		.uleb128 .LEHE12-.LEHB12
 598 0062 00       		.uleb128 0
 599 0063 00       		.uleb128 0
 600              	.LLSDACSEC1457:
 601              		.section	.text.unlikely
 602              		.text
 604              		.section	.text.unlikely
 606              	.LCOLDE4:
 607              		.text
 608              	.LHOTE4:
 609              		.align 2
 610 0158 0F1F8400 		.p2align 4
 610      00000000 
 612              	_ZN12_GLOBAL__N_140TestFixturesWithThrowingDtorsAreFailuresD2Ev:
 613              	.LFB1459:
 614              		.cfi_startproc
 615 0160 F30F1EFA 		endbr64
 616 0164 488D0500 		leaq	16+_ZTVN12_GLOBAL__N_140TestFixturesWithThrowingDtorsAreFailuresE(%rip), %rax
 616      000000
 617 016b 488907   		movq	%rax, (%rdi)
 618 016e E9000000 		jmp	_ZN8UnitTest4TestD2Ev@PLT
 618      00
 619              		.cfi_endproc
 620              	.LFE1459:
 622              		.set	_ZN12_GLOBAL__N_140TestFixturesWithThrowingDtorsAreFailuresD1Ev,_ZN12_GLOBAL__N_140TestFixtur
 623              		.section	.text.unlikely
 624              		.align 2
 625              	.LCOLDB5:
 626              		.text
 627              	.LHOTB5:
 628 0173 90       		.align 2
 629 0174 66662E0F 		.p2align 4
 629      1F840000 
 629      00000090 
 631              	_ZN12_GLOBAL__N_140TestFixturesWithThrowingDtorsAreFailuresD0Ev:
 632              	.LFB1461:
 633              		.cfi_startproc
 634              		.cfi_personality 0x9b,DW.ref.__gxx_personality_v0
 635              		.cfi_lsda 0x1b,.LLSDA1461
 636 0180 F30F1EFA 		endbr64
 637 0184 4154     		pushq	%r12
 638              		.cfi_def_cfa_offset 16
 639              		.cfi_offset 12, -16
 640 0186 488D0500 		leaq	16+_ZTVN12_GLOBAL__N_140TestFixturesWithThrowingDtorsAreFailuresE(%rip), %rax
 640      000000
 641 018d 55       		pushq	%rbp
 642              		.cfi_def_cfa_offset 24
 643              		.cfi_offset 6, -24
 644 018e 4889FD   		movq	%rdi, %rbp
 645 0191 4883EC08 		subq	$8, %rsp
 646              		.cfi_def_cfa_offset 32
 647 0195 488907   		movq	%rax, (%rdi)
 648              	.LEHB13:
 649 0198 E8000000 		call	_ZN8UnitTest4TestD2Ev@PLT
 649      00
 650              	.LEHE13:
 651 019d 4883C408 		addq	$8, %rsp
 652              		.cfi_remember_state
 653              		.cfi_def_cfa_offset 24
 654 01a1 4889EF   		movq	%rbp, %rdi
 655 01a4 5D       		popq	%rbp
 656              		.cfi_def_cfa_offset 16
 657 01a5 415C     		popq	%r12
 658              		.cfi_def_cfa_offset 8
 659 01a7 E9000000 		jmp	_ZdlPv@PLT
 659      00
 660              	.L38:
 661              		.cfi_restore_state
 662 01ac F30F1EFA 		endbr64
 663 01b0 4989C4   		movq	%rax, %r12
 664 01b3 E9000000 		jmp	.L37
 664      00
 665              		.section	.gcc_except_table
 666              	.LLSDA1461:
 667 0064 FF       		.byte	0xff
 668 0065 FF       		.byte	0xff
 669 0066 01       		.byte	0x1
 670 0067 04       		.uleb128 .LLSDACSE1461-.LLSDACSB1461
 671              	.LLSDACSB1461:
 672 0068 18       		.uleb128 .LEHB13-.LFB1461
 673 0069 05       		.uleb128 .LEHE13-.LEHB13
 674 006a 2C       		.uleb128 .L38-.LFB1461
 675 006b 00       		.uleb128 0
 676              	.LLSDACSE1461:
 677              		.text
 678              		.cfi_endproc
 679              		.section	.text.unlikely
 680              		.cfi_startproc
 681              		.cfi_personality 0x9b,DW.ref.__gxx_personality_v0
 682              		.cfi_lsda 0x1b,.LLSDAC1461
 684              	_ZN12_GLOBAL__N_140TestFixturesWithThrowingDtorsAreFailuresD0Ev.cold:
 685              	.LFSB1461:
 686              	.L37:
 687              		.cfi_def_cfa_offset 32
 688              		.cfi_offset 6, -24
 689              		.cfi_offset 12, -16
 690 008e 4889EF   		movq	%rbp, %rdi
 691 0091 E8000000 		call	_ZdlPv@PLT
 691      00
 692 0096 4C89E7   		movq	%r12, %rdi
 693              	.LEHB14:
 694 0099 E8000000 		call	_Unwind_Resume@PLT
 694      00
 695              	.LEHE14:
 696              		.cfi_endproc
 697              	.LFE1461:
 698              		.section	.gcc_except_table
 699              	.LLSDAC1461:
 700 006c FF       		.byte	0xff
 701 006d FF       		.byte	0xff
 702 006e 01       		.byte	0x1
 703 006f 04       		.uleb128 .LLSDACSEC1461-.LLSDACSBC1461
 704              	.LLSDACSBC1461:
 705 0070 0B       		.uleb128 .LEHB14-.LCOLDB5
 706 0071 05       		.uleb128 .LEHE14-.LEHB14
 707 0072 00       		.uleb128 0
 708 0073 00       		.uleb128 0
 709              	.LLSDACSEC1461:
 710              		.section	.text.unlikely
 711              		.text
 713              		.section	.text.unlikely
 715              	.LCOLDE5:
 716              		.text
 717              	.LHOTE5:
 718              		.align 2
 719 01b8 0F1F8400 		.p2align 4
 719      00000000 
 721              	_ZN12_GLOBAL__N_146TestFixtureDtorThrowsFixtureDtorThrowsTestNameD2Ev:
 722              	.LFB1463:
 723              		.cfi_startproc
 724 01c0 F30F1EFA 		endbr64
 725 01c4 488D0500 		leaq	16+_ZTVN12_GLOBAL__N_146TestFixtureDtorThrowsFixtureDtorThrowsTestNameE(%rip), %rax
 725      000000
 726 01cb 488907   		movq	%rax, (%rdi)
 727 01ce E9000000 		jmp	_ZN8UnitTest4TestD2Ev@PLT
 727      00
 728              		.cfi_endproc
 729              	.LFE1463:
 731              		.set	_ZN12_GLOBAL__N_146TestFixtureDtorThrowsFixtureDtorThrowsTestNameD1Ev,_ZN12_GLOBAL__N_146Test
 732              		.section	.text.unlikely
 733              		.align 2
 734              	.LCOLDB6:
 735              		.text
 736              	.LHOTB6:
 737 01d3 90       		.align 2
 738 01d4 66662E0F 		.p2align 4
 738      1F840000 
 738      00000090 
 740              	_ZN12_GLOBAL__N_146TestFixtureDtorThrowsFixtureDtorThrowsTestNameD0Ev:
 741              	.LFB1465:
 742              		.cfi_startproc
 743              		.cfi_personality 0x9b,DW.ref.__gxx_personality_v0
 744              		.cfi_lsda 0x1b,.LLSDA1465
 745 01e0 F30F1EFA 		endbr64
 746 01e4 4154     		pushq	%r12
 747              		.cfi_def_cfa_offset 16
 748              		.cfi_offset 12, -16
 749 01e6 488D0500 		leaq	16+_ZTVN12_GLOBAL__N_146TestFixtureDtorThrowsFixtureDtorThrowsTestNameE(%rip), %rax
 749      000000
 750 01ed 55       		pushq	%rbp
 751              		.cfi_def_cfa_offset 24
 752              		.cfi_offset 6, -24
 753 01ee 4889FD   		movq	%rdi, %rbp
 754 01f1 4883EC08 		subq	$8, %rsp
 755              		.cfi_def_cfa_offset 32
 756 01f5 488907   		movq	%rax, (%rdi)
 757              	.LEHB15:
 758 01f8 E8000000 		call	_ZN8UnitTest4TestD2Ev@PLT
 758      00
 759              	.LEHE15:
 760 01fd 4883C408 		addq	$8, %rsp
 761              		.cfi_remember_state
 762              		.cfi_def_cfa_offset 24
 763 0201 4889EF   		movq	%rbp, %rdi
 764 0204 5D       		popq	%rbp
 765              		.cfi_def_cfa_offset 16
 766 0205 415C     		popq	%r12
 767              		.cfi_def_cfa_offset 8
 768 0207 E9000000 		jmp	_ZdlPv@PLT
 768      00
 769              	.L43:
 770              		.cfi_restore_state
 771 020c F30F1EFA 		endbr64
 772 0210 4989C4   		movq	%rax, %r12
 773 0213 E9000000 		jmp	.L42
 773      00
 774              		.section	.gcc_except_table
 775              	.LLSDA1465:
 776 0074 FF       		.byte	0xff
 777 0075 FF       		.byte	0xff
 778 0076 01       		.byte	0x1
 779 0077 04       		.uleb128 .LLSDACSE1465-.LLSDACSB1465
 780              	.LLSDACSB1465:
 781 0078 18       		.uleb128 .LEHB15-.LFB1465
 782 0079 05       		.uleb128 .LEHE15-.LEHB15
 783 007a 2C       		.uleb128 .L43-.LFB1465
 784 007b 00       		.uleb128 0
 785              	.LLSDACSE1465:
 786              		.text
 787              		.cfi_endproc
 788              		.section	.text.unlikely
 789              		.cfi_startproc
 790              		.cfi_personality 0x9b,DW.ref.__gxx_personality_v0
 791              		.cfi_lsda 0x1b,.LLSDAC1465
 793              	_ZN12_GLOBAL__N_146TestFixtureDtorThrowsFixtureDtorThrowsTestNameD0Ev.cold:
 794              	.LFSB1465:
 795              	.L42:
 796              		.cfi_def_cfa_offset 32
 797              		.cfi_offset 6, -24
 798              		.cfi_offset 12, -16
 799 009e 4889EF   		movq	%rbp, %rdi
 800 00a1 E8000000 		call	_ZdlPv@PLT
 800      00
 801 00a6 4C89E7   		movq	%r12, %rdi
 802              	.LEHB16:
 803 00a9 E8000000 		call	_Unwind_Resume@PLT
 803      00
 804              	.LEHE16:
 805              		.cfi_endproc
 806              	.LFE1465:
 807              		.section	.gcc_except_table
 808              	.LLSDAC1465:
 809 007c FF       		.byte	0xff
 810 007d FF       		.byte	0xff
 811 007e 01       		.byte	0x1
 812 007f 04       		.uleb128 .LLSDACSEC1465-.LLSDACSBC1465
 813              	.LLSDACSBC1465:
 814 0080 0B       		.uleb128 .LEHB16-.LCOLDB6
 815 0081 05       		.uleb128 .LEHE16-.LEHB16
 816 0082 00       		.uleb128 0
 817 0083 00       		.uleb128 0
 818              	.LLSDACSEC1465:
 819              		.section	.text.unlikely
 820              		.text
 822              		.section	.text.unlikely
 824              	.LCOLDE6:
 825              		.text
 826              	.LHOTE6:
 827              		.align 2
 828 0218 0F1F8400 		.p2align 4
 828      00000000 
 830              	_ZN12_GLOBAL__N_140TestFixturesWithThrowingCtorsAreFailuresD2Ev:
 831              	.LFB1467:
 832              		.cfi_startproc
 833 0220 F30F1EFA 		endbr64
 834 0224 488D0500 		leaq	16+_ZTVN12_GLOBAL__N_140TestFixturesWithThrowingCtorsAreFailuresE(%rip), %rax
 834      000000
 835 022b 488907   		movq	%rax, (%rdi)
 836 022e E9000000 		jmp	_ZN8UnitTest4TestD2Ev@PLT
 836      00
 837              		.cfi_endproc
 838              	.LFE1467:
 840              		.set	_ZN12_GLOBAL__N_140TestFixturesWithThrowingCtorsAreFailuresD1Ev,_ZN12_GLOBAL__N_140TestFixtur
 841              		.section	.text.unlikely
 842              		.align 2
 843              	.LCOLDB7:
 844              		.text
 845              	.LHOTB7:
 846 0233 90       		.align 2
 847 0234 66662E0F 		.p2align 4
 847      1F840000 
 847      00000090 
 849              	_ZN12_GLOBAL__N_140TestFixturesWithThrowingCtorsAreFailuresD0Ev:
 850              	.LFB1469:
 851              		.cfi_startproc
 852              		.cfi_personality 0x9b,DW.ref.__gxx_personality_v0
 853              		.cfi_lsda 0x1b,.LLSDA1469
 854 0240 F30F1EFA 		endbr64
 855 0244 4154     		pushq	%r12
 856              		.cfi_def_cfa_offset 16
 857              		.cfi_offset 12, -16
 858 0246 488D0500 		leaq	16+_ZTVN12_GLOBAL__N_140TestFixturesWithThrowingCtorsAreFailuresE(%rip), %rax
 858      000000
 859 024d 55       		pushq	%rbp
 860              		.cfi_def_cfa_offset 24
 861              		.cfi_offset 6, -24
 862 024e 4889FD   		movq	%rdi, %rbp
 863 0251 4883EC08 		subq	$8, %rsp
 864              		.cfi_def_cfa_offset 32
 865 0255 488907   		movq	%rax, (%rdi)
 866              	.LEHB17:
 867 0258 E8000000 		call	_ZN8UnitTest4TestD2Ev@PLT
 867      00
 868              	.LEHE17:
 869 025d 4883C408 		addq	$8, %rsp
 870              		.cfi_remember_state
 871              		.cfi_def_cfa_offset 24
 872 0261 4889EF   		movq	%rbp, %rdi
 873 0264 5D       		popq	%rbp
 874              		.cfi_def_cfa_offset 16
 875 0265 415C     		popq	%r12
 876              		.cfi_def_cfa_offset 8
 877 0267 E9000000 		jmp	_ZdlPv@PLT
 877      00
 878              	.L48:
 879              		.cfi_restore_state
 880 026c F30F1EFA 		endbr64
 881 0270 4989C4   		movq	%rax, %r12
 882 0273 E9000000 		jmp	.L47
 882      00
 883              		.section	.gcc_except_table
 884              	.LLSDA1469:
 885 0084 FF       		.byte	0xff
 886 0085 FF       		.byte	0xff
 887 0086 01       		.byte	0x1
 888 0087 04       		.uleb128 .LLSDACSE1469-.LLSDACSB1469
 889              	.LLSDACSB1469:
 890 0088 18       		.uleb128 .LEHB17-.LFB1469
 891 0089 05       		.uleb128 .LEHE17-.LEHB17
 892 008a 2C       		.uleb128 .L48-.LFB1469
 893 008b 00       		.uleb128 0
 894              	.LLSDACSE1469:
 895              		.text
 896              		.cfi_endproc
 897              		.section	.text.unlikely
 898              		.cfi_startproc
 899              		.cfi_personality 0x9b,DW.ref.__gxx_personality_v0
 900              		.cfi_lsda 0x1b,.LLSDAC1469
 902              	_ZN12_GLOBAL__N_140TestFixturesWithThrowingCtorsAreFailuresD0Ev.cold:
 903              	.LFSB1469:
 904              	.L47:
 905              		.cfi_def_cfa_offset 32
 906              		.cfi_offset 6, -24
 907              		.cfi_offset 12, -16
 908 00ae 4889EF   		movq	%rbp, %rdi
 909 00b1 E8000000 		call	_ZdlPv@PLT
 909      00
 910 00b6 4C89E7   		movq	%r12, %rdi
 911              	.LEHB18:
 912 00b9 E8000000 		call	_Unwind_Resume@PLT
 912      00
 913              	.LEHE18:
 914              		.cfi_endproc
 915              	.LFE1469:
 916              		.section	.gcc_except_table
 917              	.LLSDAC1469:
 918 008c FF       		.byte	0xff
 919 008d FF       		.byte	0xff
 920 008e 01       		.byte	0x1
 921 008f 04       		.uleb128 .LLSDACSEC1469-.LLSDACSBC1469
 922              	.LLSDACSBC1469:
 923 0090 0B       		.uleb128 .LEHB18-.LCOLDB7
 924 0091 05       		.uleb128 .LEHE18-.LEHB18
 925 0092 00       		.uleb128 0
 926 0093 00       		.uleb128 0
 927              	.LLSDACSEC1469:
 928              		.section	.text.unlikely
 929              		.text
 931              		.section	.text.unlikely
 933              	.LCOLDE7:
 934              		.text
 935              	.LHOTE7:
 936              		.align 2
 937 0278 0F1F8400 		.p2align 4
 937      00000000 
 939              	_ZN12_GLOBAL__N_146TestFixtureCtorThrowsFixtureCtorThrowsTestNameD2Ev:
 940              	.LFB1471:
 941              		.cfi_startproc
 942 0280 F30F1EFA 		endbr64
 943 0284 488D0500 		leaq	16+_ZTVN12_GLOBAL__N_146TestFixtureCtorThrowsFixtureCtorThrowsTestNameE(%rip), %rax
 943      000000
 944 028b 488907   		movq	%rax, (%rdi)
 945 028e E9000000 		jmp	_ZN8UnitTest4TestD2Ev@PLT
 945      00
 946              		.cfi_endproc
 947              	.LFE1471:
 949              		.set	_ZN12_GLOBAL__N_146TestFixtureCtorThrowsFixtureCtorThrowsTestNameD1Ev,_ZN12_GLOBAL__N_146Test
 950              		.section	.text.unlikely
 951              		.align 2
 952              	.LCOLDB8:
 953              		.text
 954              	.LHOTB8:
 955 0293 90       		.align 2
 956 0294 66662E0F 		.p2align 4
 956      1F840000 
 956      00000090 
 958              	_ZN12_GLOBAL__N_146TestFixtureCtorThrowsFixtureCtorThrowsTestNameD0Ev:
 959              	.LFB1473:
 960              		.cfi_startproc
 961              		.cfi_personality 0x9b,DW.ref.__gxx_personality_v0
 962              		.cfi_lsda 0x1b,.LLSDA1473
 963 02a0 F30F1EFA 		endbr64
 964 02a4 4154     		pushq	%r12
 965              		.cfi_def_cfa_offset 16
 966              		.cfi_offset 12, -16
 967 02a6 488D0500 		leaq	16+_ZTVN12_GLOBAL__N_146TestFixtureCtorThrowsFixtureCtorThrowsTestNameE(%rip), %rax
 967      000000
 968 02ad 55       		pushq	%rbp
 969              		.cfi_def_cfa_offset 24
 970              		.cfi_offset 6, -24
 971 02ae 4889FD   		movq	%rdi, %rbp
 972 02b1 4883EC08 		subq	$8, %rsp
 973              		.cfi_def_cfa_offset 32
 974 02b5 488907   		movq	%rax, (%rdi)
 975              	.LEHB19:
 976 02b8 E8000000 		call	_ZN8UnitTest4TestD2Ev@PLT
 976      00
 977              	.LEHE19:
 978 02bd 4883C408 		addq	$8, %rsp
 979              		.cfi_remember_state
 980              		.cfi_def_cfa_offset 24
 981 02c1 4889EF   		movq	%rbp, %rdi
 982 02c4 5D       		popq	%rbp
 983              		.cfi_def_cfa_offset 16
 984 02c5 415C     		popq	%r12
 985              		.cfi_def_cfa_offset 8
 986 02c7 E9000000 		jmp	_ZdlPv@PLT
 986      00
 987              	.L53:
 988              		.cfi_restore_state
 989 02cc F30F1EFA 		endbr64
 990 02d0 4989C4   		movq	%rax, %r12
 991 02d3 E9000000 		jmp	.L52
 991      00
 992              		.section	.gcc_except_table
 993              	.LLSDA1473:
 994 0094 FF       		.byte	0xff
 995 0095 FF       		.byte	0xff
 996 0096 01       		.byte	0x1
 997 0097 04       		.uleb128 .LLSDACSE1473-.LLSDACSB1473
 998              	.LLSDACSB1473:
 999 0098 18       		.uleb128 .LEHB19-.LFB1473
 1000 0099 05       		.uleb128 .LEHE19-.LEHB19
 1001 009a 2C       		.uleb128 .L53-.LFB1473
 1002 009b 00       		.uleb128 0
 1003              	.LLSDACSE1473:
 1004              		.text
 1005              		.cfi_endproc
 1006              		.section	.text.unlikely
 1007              		.cfi_startproc
 1008              		.cfi_personality 0x9b,DW.ref.__gxx_personality_v0
 1009              		.cfi_lsda 0x1b,.LLSDAC1473
 1011              	_ZN12_GLOBAL__N_146TestFixtureCtorThrowsFixtureCtorThrowsTestNameD0Ev.cold:
 1012              	.LFSB1473:
 1013              	.L52:
 1014              		.cfi_def_cfa_offset 32
 1015              		.cfi_offset 6, -24
 1016              		.cfi_offset 12, -16
 1017 00be 4889EF   		movq	%rbp, %rdi
 1018 00c1 E8000000 		call	_ZdlPv@PLT
 1018      00
 1019 00c6 4C89E7   		movq	%r12, %rdi
 1020              	.LEHB20:
 1021 00c9 E8000000 		call	_Unwind_Resume@PLT
 1021      00
 1022              	.LEHE20:
 1023              		.cfi_endproc
 1024              	.LFE1473:
 1025              		.section	.gcc_except_table
 1026              	.LLSDAC1473:
 1027 009c FF       		.byte	0xff
 1028 009d FF       		.byte	0xff
 1029 009e 01       		.byte	0x1
 1030 009f 04       		.uleb128 .LLSDACSEC1473-.LLSDACSBC1473
 1031              	.LLSDACSBC1473:
 1032 00a0 0B       		.uleb128 .LEHB20-.LCOLDB8
 1033 00a1 05       		.uleb128 .LEHE20-.LEHB20
 1034 00a2 00       		.uleb128 0
 1035 00a3 00       		.uleb128 0
 1036              	.LLSDACSEC1473:
 1037              		.section	.text.unlikely
 1038              		.text
 1040              		.section	.text.unlikely
 1042              	.LCOLDE8:
 1043              		.text
 1044              	.LHOTE8:
 1045              		.align 2
 1046 02d8 0F1F8400 		.p2align 4
 1046      00000000 
 1048              	_ZN12_GLOBAL__N_153TestTestAddedWithTEST_FIXTURE_EXMacroGetsDefaultSuiteD2Ev:
 1049              	.LFB1475:
 1050              		.cfi_startproc
 1051 02e0 F30F1EFA 		endbr64
 1052 02e4 488D0500 		leaq	16+_ZTVN12_GLOBAL__N_153TestTestAddedWithTEST_FIXTURE_EXMacroGetsDefaultSuiteE(%rip), %rax
 1052      000000
 1053 02eb 488907   		movq	%rax, (%rdi)
 1054 02ee E9000000 		jmp	_ZN8UnitTest4TestD2Ev@PLT
 1054      00
 1055              		.cfi_endproc
 1056              	.LFE1475:
 1058              		.set	_ZN12_GLOBAL__N_153TestTestAddedWithTEST_FIXTURE_EXMacroGetsDefaultSuiteD1Ev,_ZN12_GLOBAL__N_
 1059              		.section	.text.unlikely
 1060              		.align 2
 1061              	.LCOLDB9:
 1062              		.text
 1063              	.LHOTB9:
 1064 02f3 90       		.align 2
 1065 02f4 66662E0F 		.p2align 4
 1065      1F840000 
 1065      00000090 
 1067              	_ZN12_GLOBAL__N_153TestTestAddedWithTEST_FIXTURE_EXMacroGetsDefaultSuiteD0Ev:
 1068              	.LFB1477:
 1069              		.cfi_startproc
 1070              		.cfi_personality 0x9b,DW.ref.__gxx_personality_v0
 1071              		.cfi_lsda 0x1b,.LLSDA1477
 1072 0300 F30F1EFA 		endbr64
 1073 0304 4154     		pushq	%r12
 1074              		.cfi_def_cfa_offset 16
 1075              		.cfi_offset 12, -16
 1076 0306 488D0500 		leaq	16+_ZTVN12_GLOBAL__N_153TestTestAddedWithTEST_FIXTURE_EXMacroGetsDefaultSuiteE(%rip), %rax
 1076      000000
 1077 030d 55       		pushq	%rbp
 1078              		.cfi_def_cfa_offset 24
 1079              		.cfi_offset 6, -24
 1080 030e 4889FD   		movq	%rdi, %rbp
 1081 0311 4883EC08 		subq	$8, %rsp
 1082              		.cfi_def_cfa_offset 32
 1083 0315 488907   		movq	%rax, (%rdi)
 1084              	.LEHB21:
 1085 0318 E8000000 		call	_ZN8UnitTest4TestD2Ev@PLT
 1085      00
 1086              	.LEHE21:
 1087 031d 4883C408 		addq	$8, %rsp
 1088              		.cfi_remember_state
 1089              		.cfi_def_cfa_offset 24
 1090 0321 4889EF   		movq	%rbp, %rdi
 1091 0324 5D       		popq	%rbp
 1092              		.cfi_def_cfa_offset 16
 1093 0325 415C     		popq	%r12
 1094              		.cfi_def_cfa_offset 8
 1095 0327 E9000000 		jmp	_ZdlPv@PLT
 1095      00
 1096              	.L58:
 1097              		.cfi_restore_state
 1098 032c F30F1EFA 		endbr64
 1099 0330 4989C4   		movq	%rax, %r12
 1100 0333 E9000000 		jmp	.L57
 1100      00
 1101              		.section	.gcc_except_table
 1102              	.LLSDA1477:
 1103 00a4 FF       		.byte	0xff
 1104 00a5 FF       		.byte	0xff
 1105 00a6 01       		.byte	0x1
 1106 00a7 04       		.uleb128 .LLSDACSE1477-.LLSDACSB1477
 1107              	.LLSDACSB1477:
 1108 00a8 18       		.uleb128 .LEHB21-.LFB1477
 1109 00a9 05       		.uleb128 .LEHE21-.LEHB21
 1110 00aa 2C       		.uleb128 .L58-.LFB1477
 1111 00ab 00       		.uleb128 0
 1112              	.LLSDACSE1477:
 1113              		.text
 1114              		.cfi_endproc
 1115              		.section	.text.unlikely
 1116              		.cfi_startproc
 1117              		.cfi_personality 0x9b,DW.ref.__gxx_personality_v0
 1118              		.cfi_lsda 0x1b,.LLSDAC1477
 1120              	_ZN12_GLOBAL__N_153TestTestAddedWithTEST_FIXTURE_EXMacroGetsDefaultSuiteD0Ev.cold:
 1121              	.LFSB1477:
 1122              	.L57:
 1123              		.cfi_def_cfa_offset 32
 1124              		.cfi_offset 6, -24
 1125              		.cfi_offset 12, -16
 1126 00ce 4889EF   		movq	%rbp, %rdi
 1127 00d1 E8000000 		call	_ZdlPv@PLT
 1127      00
 1128 00d6 4C89E7   		movq	%r12, %rdi
 1129              	.LEHB22:
 1130 00d9 E8000000 		call	_Unwind_Resume@PLT
 1130      00
 1131              	.LEHE22:
 1132              		.cfi_endproc
 1133              	.LFE1477:
 1134              		.section	.gcc_except_table
 1135              	.LLSDAC1477:
 1136 00ac FF       		.byte	0xff
 1137 00ad FF       		.byte	0xff
 1138 00ae 01       		.byte	0x1
 1139 00af 04       		.uleb128 .LLSDACSEC1477-.LLSDACSBC1477
 1140              	.LLSDACSBC1477:
 1141 00b0 0B       		.uleb128 .LEHB22-.LCOLDB9
 1142 00b1 05       		.uleb128 .LEHE22-.LEHB22
 1143 00b2 00       		.uleb128 0
 1144 00b3 00       		.uleb128 0
 1145              	.LLSDACSEC1477:
 1146              		.section	.text.unlikely
 1147              		.text
 1149              		.section	.text.unlikely
 1151              	.LCOLDE9:
 1152              		.text
 1153              	.LHOTE9:
 1154              		.align 2
 1155 0338 0F1F8400 		.p2align 4
 1155      00000000 
 1157              	_ZN12_GLOBAL__N_132TestDummyFixtureMacroTestHelper2D2Ev:
 1158              	.LFB1479:
 1159              		.cfi_startproc
 1160 0340 F30F1EFA 		endbr64
 1161 0344 488D0500 		leaq	16+_ZTVN12_GLOBAL__N_132TestDummyFixtureMacroTestHelper2E(%rip), %rax
 1161      000000
 1162 034b 488907   		movq	%rax, (%rdi)
 1163 034e E9000000 		jmp	_ZN8UnitTest4TestD2Ev@PLT
 1163      00
 1164              		.cfi_endproc
 1165              	.LFE1479:
 1167              		.set	_ZN12_GLOBAL__N_132TestDummyFixtureMacroTestHelper2D1Ev,_ZN12_GLOBAL__N_132TestDummyFixtureMa
 1168              		.section	.text.unlikely
 1169              		.align 2
 1170              	.LCOLDB10:
 1171              		.text
 1172              	.LHOTB10:
 1173 0353 90       		.align 2
 1174 0354 66662E0F 		.p2align 4
 1174      1F840000 
 1174      00000090 
 1176              	_ZN12_GLOBAL__N_132TestDummyFixtureMacroTestHelper2D0Ev:
 1177              	.LFB1481:
 1178              		.cfi_startproc
 1179              		.cfi_personality 0x9b,DW.ref.__gxx_personality_v0
 1180              		.cfi_lsda 0x1b,.LLSDA1481
 1181 0360 F30F1EFA 		endbr64
 1182 0364 4154     		pushq	%r12
 1183              		.cfi_def_cfa_offset 16
 1184              		.cfi_offset 12, -16
 1185 0366 488D0500 		leaq	16+_ZTVN12_GLOBAL__N_132TestDummyFixtureMacroTestHelper2E(%rip), %rax
 1185      000000
 1186 036d 55       		pushq	%rbp
 1187              		.cfi_def_cfa_offset 24
 1188              		.cfi_offset 6, -24
 1189 036e 4889FD   		movq	%rdi, %rbp
 1190 0371 4883EC08 		subq	$8, %rsp
 1191              		.cfi_def_cfa_offset 32
 1192 0375 488907   		movq	%rax, (%rdi)
 1193              	.LEHB23:
 1194 0378 E8000000 		call	_ZN8UnitTest4TestD2Ev@PLT
 1194      00
 1195              	.LEHE23:
 1196 037d 4883C408 		addq	$8, %rsp
 1197              		.cfi_remember_state
 1198              		.cfi_def_cfa_offset 24
 1199 0381 4889EF   		movq	%rbp, %rdi
 1200 0384 5D       		popq	%rbp
 1201              		.cfi_def_cfa_offset 16
 1202 0385 415C     		popq	%r12
 1203              		.cfi_def_cfa_offset 8
 1204 0387 E9000000 		jmp	_ZdlPv@PLT
 1204      00
 1205              	.L63:
 1206              		.cfi_restore_state
 1207 038c F30F1EFA 		endbr64
 1208 0390 4989C4   		movq	%rax, %r12
 1209 0393 E9000000 		jmp	.L62
 1209      00
 1210              		.section	.gcc_except_table
 1211              	.LLSDA1481:
 1212 00b4 FF       		.byte	0xff
 1213 00b5 FF       		.byte	0xff
 1214 00b6 01       		.byte	0x1
 1215 00b7 04       		.uleb128 .LLSDACSE1481-.LLSDACSB1481
 1216              	.LLSDACSB1481:
 1217 00b8 18       		.uleb128 .LEHB23-.LFB1481
 1218 00b9 05       		.uleb128 .LEHE23-.LEHB23
 1219 00ba 2C       		.uleb128 .L63-.LFB1481
 1220 00bb 00       		.uleb128 0
 1221              	.LLSDACSE1481:
 1222              		.text
 1223              		.cfi_endproc
 1224              		.section	.text.unlikely
 1225              		.cfi_startproc
 1226              		.cfi_personality 0x9b,DW.ref.__gxx_personality_v0
 1227              		.cfi_lsda 0x1b,.LLSDAC1481
 1229              	_ZN12_GLOBAL__N_132TestDummyFixtureMacroTestHelper2D0Ev.cold:
 1230              	.LFSB1481:
 1231              	.L62:
 1232              		.cfi_def_cfa_offset 32
 1233              		.cfi_offset 6, -24
 1234              		.cfi_offset 12, -16
 1235 00de 4889EF   		movq	%rbp, %rdi
 1236 00e1 E8000000 		call	_ZdlPv@PLT
 1236      00
 1237 00e6 4C89E7   		movq	%r12, %rdi
 1238              	.LEHB24:
 1239 00e9 E8000000 		call	_Unwind_Resume@PLT
 1239      00
 1240              	.LEHE24:
 1241              		.cfi_endproc
 1242              	.LFE1481:
 1243              		.section	.gcc_except_table
 1244              	.LLSDAC1481:
 1245 00bc FF       		.byte	0xff
 1246 00bd FF       		.byte	0xff
 1247 00be 01       		.byte	0x1
 1248 00bf 04       		.uleb128 .LLSDACSEC1481-.LLSDACSBC1481
 1249              	.LLSDACSBC1481:
 1250 00c0 0B       		.uleb128 .LEHB24-.LCOLDB10
 1251 00c1 05       		.uleb128 .LEHE24-.LEHB24
 1252 00c2 00       		.uleb128 0
 1253 00c3 00       		.uleb128 0
 1254              	.LLSDACSEC1481:
 1255              		.section	.text.unlikely
 1256              		.text
 1258              		.section	.text.unlikely
 1260              	.LCOLDE10:
 1261              		.text
 1262              	.LHOTE10:
 1263              		.align 2
 1264 0398 0F1F8400 		.p2align 4
 1264      00000000 
 1266              	_ZN12_GLOBAL__N_145TestTestAddedWithTEST_EXMacroGetsDefaultSuiteD2Ev:
 1267              	.LFB1483:
 1268              		.cfi_startproc
 1269 03a0 F30F1EFA 		endbr64
 1270 03a4 488D0500 		leaq	16+_ZTVN12_GLOBAL__N_145TestTestAddedWithTEST_EXMacroGetsDefaultSuiteE(%rip), %rax
 1270      000000
 1271 03ab 488907   		movq	%rax, (%rdi)
 1272 03ae E9000000 		jmp	_ZN8UnitTest4TestD2Ev@PLT
 1272      00
 1273              		.cfi_endproc
 1274              	.LFE1483:
 1276              		.set	_ZN12_GLOBAL__N_145TestTestAddedWithTEST_EXMacroGetsDefaultSuiteD1Ev,_ZN12_GLOBAL__N_145TestT
 1277              		.section	.text.unlikely
 1278              		.align 2
 1279              	.LCOLDB11:
 1280              		.text
 1281              	.LHOTB11:
 1282 03b3 90       		.align 2
 1283 03b4 66662E0F 		.p2align 4
 1283      1F840000 
 1283      00000090 
 1285              	_ZN12_GLOBAL__N_145TestTestAddedWithTEST_EXMacroGetsDefaultSuiteD0Ev:
 1286              	.LFB1485:
 1287              		.cfi_startproc
 1288              		.cfi_personality 0x9b,DW.ref.__gxx_personality_v0
 1289              		.cfi_lsda 0x1b,.LLSDA1485
 1290 03c0 F30F1EFA 		endbr64
 1291 03c4 4154     		pushq	%r12
 1292              		.cfi_def_cfa_offset 16
 1293              		.cfi_offset 12, -16
 1294 03c6 488D0500 		leaq	16+_ZTVN12_GLOBAL__N_145TestTestAddedWithTEST_EXMacroGetsDefaultSuiteE(%rip), %rax
 1294      000000
 1295 03cd 55       		pushq	%rbp
 1296              		.cfi_def_cfa_offset 24
 1297              		.cfi_offset 6, -24
 1298 03ce 4889FD   		movq	%rdi, %rbp
 1299 03d1 4883EC08 		subq	$8, %rsp
 1300              		.cfi_def_cfa_offset 32
 1301 03d5 488907   		movq	%rax, (%rdi)
 1302              	.LEHB25:
 1303 03d8 E8000000 		call	_ZN8UnitTest4TestD2Ev@PLT
 1303      00
 1304              	.LEHE25:
 1305 03dd 4883C408 		addq	$8, %rsp
 1306              		.cfi_remember_state
 1307              		.cfi_def_cfa_offset 24
 1308 03e1 4889EF   		movq	%rbp, %rdi
 1309 03e4 5D       		popq	%rbp
 1310              		.cfi_def_cfa_offset 16
 1311 03e5 415C     		popq	%r12
 1312              		.cfi_def_cfa_offset 8
 1313 03e7 E9000000 		jmp	_ZdlPv@PLT
 1313      00
 1314              	.L68:
 1315              		.cfi_restore_state
 1316 03ec F30F1EFA 		endbr64
 1317 03f0 4989C4   		movq	%rax, %r12
 1318 03f3 E9000000 		jmp	.L67
 1318      00
 1319              		.section	.gcc_except_table
 1320              	.LLSDA1485:
 1321 00c4 FF       		.byte	0xff
 1322 00c5 FF       		.byte	0xff
 1323 00c6 01       		.byte	0x1
 1324 00c7 04       		.uleb128 .LLSDACSE1485-.LLSDACSB1485
 1325              	.LLSDACSB1485:
 1326 00c8 18       		.uleb128 .LEHB25-.LFB1485
 1327 00c9 05       		.uleb128 .LEHE25-.LEHB25
 1328 00ca 2C       		.uleb128 .L68-.LFB1485
 1329 00cb 00       		.uleb128 0
 1330              	.LLSDACSE1485:
 1331              		.text
 1332              		.cfi_endproc
 1333              		.section	.text.unlikely
 1334              		.cfi_startproc
 1335              		.cfi_personality 0x9b,DW.ref.__gxx_personality_v0
 1336              		.cfi_lsda 0x1b,.LLSDAC1485
 1338              	_ZN12_GLOBAL__N_145TestTestAddedWithTEST_EXMacroGetsDefaultSuiteD0Ev.cold:
 1339              	.LFSB1485:
 1340              	.L67:
 1341              		.cfi_def_cfa_offset 32
 1342              		.cfi_offset 6, -24
 1343              		.cfi_offset 12, -16
 1344 00ee 4889EF   		movq	%rbp, %rdi
 1345 00f1 E8000000 		call	_ZdlPv@PLT
 1345      00
 1346 00f6 4C89E7   		movq	%r12, %rdi
 1347              	.LEHB26:
 1348 00f9 E8000000 		call	_Unwind_Resume@PLT
 1348      00
 1349              	.LEHE26:
 1350              		.cfi_endproc
 1351              	.LFE1485:
 1352              		.section	.gcc_except_table
 1353              	.LLSDAC1485:
 1354 00cc FF       		.byte	0xff
 1355 00cd FF       		.byte	0xff
 1356 00ce 01       		.byte	0x1
 1357 00cf 04       		.uleb128 .LLSDACSEC1485-.LLSDACSBC1485
 1358              	.LLSDACSBC1485:
 1359 00d0 0B       		.uleb128 .LEHB26-.LCOLDB11
 1360 00d1 05       		.uleb128 .LEHE26-.LEHB26
 1361 00d2 00       		.uleb128 0
 1362 00d3 00       		.uleb128 0
 1363              	.LLSDACSEC1485:
 1364              		.section	.text.unlikely
 1365              		.text
 1367              		.section	.text.unlikely
 1369              	.LCOLDE11:
 1370              		.text
 1371              	.LHOTE11:
 1372              		.align 2
 1373 03f8 0F1F8400 		.p2align 4
 1373      00000000 
 1375              	_ZN12_GLOBAL__N_120TestMacroTestHelper1D2Ev:
 1376              	.LFB1487:
 1377              		.cfi_startproc
 1378 0400 F30F1EFA 		endbr64
 1379 0404 488D0500 		leaq	16+_ZTVN12_GLOBAL__N_120TestMacroTestHelper1E(%rip), %rax
 1379      000000
 1380 040b 488907   		movq	%rax, (%rdi)
 1381 040e E9000000 		jmp	_ZN8UnitTest4TestD2Ev@PLT
 1381      00
 1382              		.cfi_endproc
 1383              	.LFE1487:
 1385              		.set	_ZN12_GLOBAL__N_120TestMacroTestHelper1D1Ev,_ZN12_GLOBAL__N_120TestMacroTestHelper1D2Ev
 1386              		.section	.text.unlikely
 1387              		.align 2
 1388              	.LCOLDB12:
 1389              		.text
 1390              	.LHOTB12:
 1391 0413 90       		.align 2
 1392 0414 66662E0F 		.p2align 4
 1392      1F840000 
 1392      00000090 
 1394              	_ZN12_GLOBAL__N_120TestMacroTestHelper1D0Ev:
 1395              	.LFB1489:
 1396              		.cfi_startproc
 1397              		.cfi_personality 0x9b,DW.ref.__gxx_personality_v0
 1398              		.cfi_lsda 0x1b,.LLSDA1489
 1399 0420 F30F1EFA 		endbr64
 1400 0424 4154     		pushq	%r12
 1401              		.cfi_def_cfa_offset 16
 1402              		.cfi_offset 12, -16
 1403 0426 488D0500 		leaq	16+_ZTVN12_GLOBAL__N_120TestMacroTestHelper1E(%rip), %rax
 1403      000000
 1404 042d 55       		pushq	%rbp
 1405              		.cfi_def_cfa_offset 24
 1406              		.cfi_offset 6, -24
 1407 042e 4889FD   		movq	%rdi, %rbp
 1408 0431 4883EC08 		subq	$8, %rsp
 1409              		.cfi_def_cfa_offset 32
 1410 0435 488907   		movq	%rax, (%rdi)
 1411              	.LEHB27:
 1412 0438 E8000000 		call	_ZN8UnitTest4TestD2Ev@PLT
 1412      00
 1413              	.LEHE27:
 1414 043d 4883C408 		addq	$8, %rsp
 1415              		.cfi_remember_state
 1416              		.cfi_def_cfa_offset 24
 1417 0441 4889EF   		movq	%rbp, %rdi
 1418 0444 5D       		popq	%rbp
 1419              		.cfi_def_cfa_offset 16
 1420 0445 415C     		popq	%r12
 1421              		.cfi_def_cfa_offset 8
 1422 0447 E9000000 		jmp	_ZdlPv@PLT
 1422      00
 1423              	.L73:
 1424              		.cfi_restore_state
 1425 044c F30F1EFA 		endbr64
 1426 0450 4989C4   		movq	%rax, %r12
 1427 0453 E9000000 		jmp	.L72
 1427      00
 1428              		.section	.gcc_except_table
 1429              	.LLSDA1489:
 1430 00d4 FF       		.byte	0xff
 1431 00d5 FF       		.byte	0xff
 1432 00d6 01       		.byte	0x1
 1433 00d7 04       		.uleb128 .LLSDACSE1489-.LLSDACSB1489
 1434              	.LLSDACSB1489:
 1435 00d8 18       		.uleb128 .LEHB27-.LFB1489
 1436 00d9 05       		.uleb128 .LEHE27-.LEHB27
 1437 00da 2C       		.uleb128 .L73-.LFB1489
 1438 00db 00       		.uleb128 0
 1439              	.LLSDACSE1489:
 1440              		.text
 1441              		.cfi_endproc
 1442              		.section	.text.unlikely
 1443              		.cfi_startproc
 1444              		.cfi_personality 0x9b,DW.ref.__gxx_personality_v0
 1445              		.cfi_lsda 0x1b,.LLSDAC1489
 1447              	_ZN12_GLOBAL__N_120TestMacroTestHelper1D0Ev.cold:
 1448              	.LFSB1489:
 1449              	.L72:
 1450              		.cfi_def_cfa_offset 32
 1451              		.cfi_offset 6, -24
 1452              		.cfi_offset 12, -16
 1453 00fe 4889EF   		movq	%rbp, %rdi
 1454 0101 E8000000 		call	_ZdlPv@PLT
 1454      00
 1455 0106 4C89E7   		movq	%r12, %rdi
 1456              	.LEHB28:
 1457 0109 E8000000 		call	_Unwind_Resume@PLT
 1457      00
 1458              	.LEHE28:
 1459              		.cfi_endproc
 1460              	.LFE1489:
 1461              		.section	.gcc_except_table
 1462              	.LLSDAC1489:
 1463 00dc FF       		.byte	0xff
 1464 00dd FF       		.byte	0xff
 1465 00de 01       		.byte	0x1
 1466 00df 04       		.uleb128 .LLSDACSEC1489-.LLSDACSBC1489
 1467              	.LLSDACSBC1489:
 1468 00e0 0B       		.uleb128 .LEHB28-.LCOLDB12
 1469 00e1 05       		.uleb128 .LEHE28-.LEHB28
 1470 00e2 00       		.uleb128 0
 1471 00e3 00       		.uleb128 0
 1472              	.LLSDACSEC1489:
 1473              		.section	.text.unlikely
 1474              		.text
 1476              		.section	.text.unlikely
 1478              	.LCOLDE12:
 1479              		.text
 1480              	.LHOTE12:
 1481              		.align 2
 1482 0458 0F1F8400 		.p2align 4
 1482      00000000 
 1484              	_ZN12_GLOBAL__N_115SuiteTestSuite263TestDummyFixtureSimilarlyNamedFixtureTestsInDifferentSuitesWork
 1485              	.LFB1491:
 1486              		.cfi_startproc
 1487 0460 F30F1EFA 		endbr64
 1488 0464 488D0500 		leaq	16+_ZTVN12_GLOBAL__N_115SuiteTestSuite263TestDummyFixtureSimilarlyNamedFixtureTestsInDifferen
 1488      000000
 1489 046b 488907   		movq	%rax, (%rdi)
 1490 046e E9000000 		jmp	_ZN8UnitTest4TestD2Ev@PLT
 1490      00
 1491              		.cfi_endproc
 1492              	.LFE1491:
 1494              		.set	_ZN12_GLOBAL__N_115SuiteTestSuite263TestDummyFixtureSimilarlyNamedFixtureTestsInDifferentSuit
 1495              		.section	.text.unlikely
 1496              		.align 2
 1497              	.LCOLDB13:
 1498              		.text
 1499              	.LHOTB13:
 1500 0473 90       		.align 2
 1501 0474 66662E0F 		.p2align 4
 1501      1F840000 
 1501      00000090 
 1503              	_ZN12_GLOBAL__N_115SuiteTestSuite263TestDummyFixtureSimilarlyNamedFixtureTestsInDifferentSuitesWork
 1504              	.LFB1493:
 1505              		.cfi_startproc
 1506              		.cfi_personality 0x9b,DW.ref.__gxx_personality_v0
 1507              		.cfi_lsda 0x1b,.LLSDA1493
 1508 0480 F30F1EFA 		endbr64
 1509 0484 4154     		pushq	%r12
 1510              		.cfi_def_cfa_offset 16
 1511              		.cfi_offset 12, -16
 1512 0486 488D0500 		leaq	16+_ZTVN12_GLOBAL__N_115SuiteTestSuite263TestDummyFixtureSimilarlyNamedFixtureTestsInDifferen
 1512      000000
 1513 048d 55       		pushq	%rbp
 1514              		.cfi_def_cfa_offset 24
 1515              		.cfi_offset 6, -24
 1516 048e 4889FD   		movq	%rdi, %rbp
 1517 0491 4883EC08 		subq	$8, %rsp
 1518              		.cfi_def_cfa_offset 32
 1519 0495 488907   		movq	%rax, (%rdi)
 1520              	.LEHB29:
 1521 0498 E8000000 		call	_ZN8UnitTest4TestD2Ev@PLT
 1521      00
 1522              	.LEHE29:
 1523 049d 4883C408 		addq	$8, %rsp
 1524              		.cfi_remember_state
 1525              		.cfi_def_cfa_offset 24
 1526 04a1 4889EF   		movq	%rbp, %rdi
 1527 04a4 5D       		popq	%rbp
 1528              		.cfi_def_cfa_offset 16
 1529 04a5 415C     		popq	%r12
 1530              		.cfi_def_cfa_offset 8
 1531 04a7 E9000000 		jmp	_ZdlPv@PLT
 1531      00
 1532              	.L78:
 1533              		.cfi_restore_state
 1534 04ac F30F1EFA 		endbr64
 1535 04b0 4989C4   		movq	%rax, %r12
 1536 04b3 E9000000 		jmp	.L77
 1536      00
 1537              		.section	.gcc_except_table
 1538              	.LLSDA1493:
 1539 00e4 FF       		.byte	0xff
 1540 00e5 FF       		.byte	0xff
 1541 00e6 01       		.byte	0x1
 1542 00e7 04       		.uleb128 .LLSDACSE1493-.LLSDACSB1493
 1543              	.LLSDACSB1493:
 1544 00e8 18       		.uleb128 .LEHB29-.LFB1493
 1545 00e9 05       		.uleb128 .LEHE29-.LEHB29
 1546 00ea 2C       		.uleb128 .L78-.LFB1493
 1547 00eb 00       		.uleb128 0
 1548              	.LLSDACSE1493:
 1549              		.text
 1550              		.cfi_endproc
 1551              		.section	.text.unlikely
 1552              		.cfi_startproc
 1553              		.cfi_personality 0x9b,DW.ref.__gxx_personality_v0
 1554              		.cfi_lsda 0x1b,.LLSDAC1493
 1556              	_ZN12_GLOBAL__N_115SuiteTestSuite263TestDummyFixtureSimilarlyNamedFixtureTestsInDifferentSuitesWork
 1557              	.LFSB1493:
 1558              	.L77:
 1559              		.cfi_def_cfa_offset 32
 1560              		.cfi_offset 6, -24
 1561              		.cfi_offset 12, -16
 1562 010e 4889EF   		movq	%rbp, %rdi
 1563 0111 E8000000 		call	_ZdlPv@PLT
 1563      00
 1564 0116 4C89E7   		movq	%r12, %rdi
 1565              	.LEHB30:
 1566 0119 E8000000 		call	_Unwind_Resume@PLT
 1566      00
 1567              	.LEHE30:
 1568              		.cfi_endproc
 1569              	.LFE1493:
 1570              		.section	.gcc_except_table
 1571              	.LLSDAC1493:
 1572 00ec FF       		.byte	0xff
 1573 00ed FF       		.byte	0xff
 1574 00ee 01       		.byte	0x1
 1575 00ef 04       		.uleb128 .LLSDACSEC1493-.LLSDACSBC1493
 1576              	.LLSDACSBC1493:
 1577 00f0 0B       		.uleb128 .LEHB30-.LCOLDB13
 1578 00f1 05       		.uleb128 .LEHE30-.LEHB30
 1579 00f2 00       		.uleb128 0
 1580 00f3 00       		.uleb128 0
 1581              	.LLSDACSEC1493:
 1582              		.section	.text.unlikely
 1583              		.text
 1585              		.section	.text.unlikely
 1587              	.LCOLDE13:
 1588              		.text
 1589              	.LHOTE13:
 1590              		.align 2
 1591 04b8 0F1F8400 		.p2align 4
 1591      00000000 
 1593              	_ZN12_GLOBAL__N_115SuiteTestSuite244TestSimilarlyNamedTestsInDifferentSuitesWorkD2Ev:
 1594              	.LFB1495:
 1595              		.cfi_startproc
 1596 04c0 F30F1EFA 		endbr64
 1597 04c4 488D0500 		leaq	16+_ZTVN12_GLOBAL__N_115SuiteTestSuite244TestSimilarlyNamedTestsInDifferentSuitesWorkE(%rip),
 1597      000000
 1598 04cb 488907   		movq	%rax, (%rdi)
 1599 04ce E9000000 		jmp	_ZN8UnitTest4TestD2Ev@PLT
 1599      00
 1600              		.cfi_endproc
 1601              	.LFE1495:
 1603              		.set	_ZN12_GLOBAL__N_115SuiteTestSuite244TestSimilarlyNamedTestsInDifferentSuitesWorkD1Ev,_ZN12_GL
 1604              		.section	.text.unlikely
 1605              		.align 2
 1606              	.LCOLDB14:
 1607              		.text
 1608              	.LHOTB14:
 1609 04d3 90       		.align 2
 1610 04d4 66662E0F 		.p2align 4
 1610      1F840000 
 1610      00000090 
 1612              	_ZN12_GLOBAL__N_115SuiteTestSuite244TestSimilarlyNamedTestsInDifferentSuitesWorkD0Ev:
 1613              	.LFB1497:
 1614              		.cfi_startproc
 1615              		.cfi_personality 0x9b,DW.ref.__gxx_personality_v0
 1616              		.cfi_lsda 0x1b,.LLSDA1497
 1617 04e0 F30F1EFA 		endbr64
 1618 04e4 4154     		pushq	%r12
 1619              		.cfi_def_cfa_offset 16
 1620              		.cfi_offset 12, -16
 1621 04e6 488D0500 		leaq	16+_ZTVN12_GLOBAL__N_115SuiteTestSuite244TestSimilarlyNamedTestsInDifferentSuitesWorkE(%rip),
 1621      000000
 1622 04ed 55       		pushq	%rbp
 1623              		.cfi_def_cfa_offset 24
 1624              		.cfi_offset 6, -24
 1625 04ee 4889FD   		movq	%rdi, %rbp
 1626 04f1 4883EC08 		subq	$8, %rsp
 1627              		.cfi_def_cfa_offset 32
 1628 04f5 488907   		movq	%rax, (%rdi)
 1629              	.LEHB31:
 1630 04f8 E8000000 		call	_ZN8UnitTest4TestD2Ev@PLT
 1630      00
 1631              	.LEHE31:
 1632 04fd 4883C408 		addq	$8, %rsp
 1633              		.cfi_remember_state
 1634              		.cfi_def_cfa_offset 24
 1635 0501 4889EF   		movq	%rbp, %rdi
 1636 0504 5D       		popq	%rbp
 1637              		.cfi_def_cfa_offset 16
 1638 0505 415C     		popq	%r12
 1639              		.cfi_def_cfa_offset 8
 1640 0507 E9000000 		jmp	_ZdlPv@PLT
 1640      00
 1641              	.L83:
 1642              		.cfi_restore_state
 1643 050c F30F1EFA 		endbr64
 1644 0510 4989C4   		movq	%rax, %r12
 1645 0513 E9000000 		jmp	.L82
 1645      00
 1646              		.section	.gcc_except_table
 1647              	.LLSDA1497:
 1648 00f4 FF       		.byte	0xff
 1649 00f5 FF       		.byte	0xff
 1650 00f6 01       		.byte	0x1
 1651 00f7 04       		.uleb128 .LLSDACSE1497-.LLSDACSB1497
 1652              	.LLSDACSB1497:
 1653 00f8 18       		.uleb128 .LEHB31-.LFB1497
 1654 00f9 05       		.uleb128 .LEHE31-.LEHB31
 1655 00fa 2C       		.uleb128 .L83-.LFB1497
 1656 00fb 00       		.uleb128 0
 1657              	.LLSDACSE1497:
 1658              		.text
 1659              		.cfi_endproc
 1660              		.section	.text.unlikely
 1661              		.cfi_startproc
 1662              		.cfi_personality 0x9b,DW.ref.__gxx_personality_v0
 1663              		.cfi_lsda 0x1b,.LLSDAC1497
 1665              	_ZN12_GLOBAL__N_115SuiteTestSuite244TestSimilarlyNamedTestsInDifferentSuitesWorkD0Ev.cold:
 1666              	.LFSB1497:
 1667              	.L82:
 1668              		.cfi_def_cfa_offset 32
 1669              		.cfi_offset 6, -24
 1670              		.cfi_offset 12, -16
 1671 011e 4889EF   		movq	%rbp, %rdi
 1672 0121 E8000000 		call	_ZdlPv@PLT
 1672      00
 1673 0126 4C89E7   		movq	%r12, %rdi
 1674              	.LEHB32:
 1675 0129 E8000000 		call	_Unwind_Resume@PLT
 1675      00
 1676              	.LEHE32:
 1677              		.cfi_endproc
 1678              	.LFE1497:
 1679              		.section	.gcc_except_table
 1680              	.LLSDAC1497:
 1681 00fc FF       		.byte	0xff
 1682 00fd FF       		.byte	0xff
 1683 00fe 01       		.byte	0x1
 1684 00ff 04       		.uleb128 .LLSDACSEC1497-.LLSDACSBC1497
 1685              	.LLSDACSBC1497:
 1686 0100 0B       		.uleb128 .LEHB32-.LCOLDB14
 1687 0101 05       		.uleb128 .LEHE32-.LEHB32
 1688 0102 00       		.uleb128 0
 1689 0103 00       		.uleb128 0
 1690              	.LLSDACSEC1497:
 1691              		.section	.text.unlikely
 1692              		.text
 1694              		.section	.text.unlikely
 1696              	.LCOLDE14:
 1697              		.text
 1698              	.LHOTE14:
 1699              		.align 2
 1700 0518 0F1F8400 		.p2align 4
 1700      00000000 
 1702              	_ZN12_GLOBAL__N_115SuiteTestSuite163TestDummyFixtureSimilarlyNamedFixtureTestsInDifferentSuitesWork
 1703              	.LFB1499:
 1704              		.cfi_startproc
 1705 0520 F30F1EFA 		endbr64
 1706 0524 488D0500 		leaq	16+_ZTVN12_GLOBAL__N_115SuiteTestSuite163TestDummyFixtureSimilarlyNamedFixtureTestsInDifferen
 1706      000000
 1707 052b 488907   		movq	%rax, (%rdi)
 1708 052e E9000000 		jmp	_ZN8UnitTest4TestD2Ev@PLT
 1708      00
 1709              		.cfi_endproc
 1710              	.LFE1499:
 1712              		.set	_ZN12_GLOBAL__N_115SuiteTestSuite163TestDummyFixtureSimilarlyNamedFixtureTestsInDifferentSuit
 1713              		.section	.text.unlikely
 1714              		.align 2
 1715              	.LCOLDB15:
 1716              		.text
 1717              	.LHOTB15:
 1718 0533 90       		.align 2
 1719 0534 66662E0F 		.p2align 4
 1719      1F840000 
 1719      00000090 
 1721              	_ZN12_GLOBAL__N_115SuiteTestSuite163TestDummyFixtureSimilarlyNamedFixtureTestsInDifferentSuitesWork
 1722              	.LFB1501:
 1723              		.cfi_startproc
 1724              		.cfi_personality 0x9b,DW.ref.__gxx_personality_v0
 1725              		.cfi_lsda 0x1b,.LLSDA1501
 1726 0540 F30F1EFA 		endbr64
 1727 0544 4154     		pushq	%r12
 1728              		.cfi_def_cfa_offset 16
 1729              		.cfi_offset 12, -16
 1730 0546 488D0500 		leaq	16+_ZTVN12_GLOBAL__N_115SuiteTestSuite163TestDummyFixtureSimilarlyNamedFixtureTestsInDifferen
 1730      000000
 1731 054d 55       		pushq	%rbp
 1732              		.cfi_def_cfa_offset 24
 1733              		.cfi_offset 6, -24
 1734 054e 4889FD   		movq	%rdi, %rbp
 1735 0551 4883EC08 		subq	$8, %rsp
 1736              		.cfi_def_cfa_offset 32
 1737 0555 488907   		movq	%rax, (%rdi)
 1738              	.LEHB33:
 1739 0558 E8000000 		call	_ZN8UnitTest4TestD2Ev@PLT
 1739      00
 1740              	.LEHE33:
 1741 055d 4883C408 		addq	$8, %rsp
 1742              		.cfi_remember_state
 1743              		.cfi_def_cfa_offset 24
 1744 0561 4889EF   		movq	%rbp, %rdi
 1745 0564 5D       		popq	%rbp
 1746              		.cfi_def_cfa_offset 16
 1747 0565 415C     		popq	%r12
 1748              		.cfi_def_cfa_offset 8
 1749 0567 E9000000 		jmp	_ZdlPv@PLT
 1749      00
 1750              	.L88:
 1751              		.cfi_restore_state
 1752 056c F30F1EFA 		endbr64
 1753 0570 4989C4   		movq	%rax, %r12
 1754 0573 E9000000 		jmp	.L87
 1754      00
 1755              		.section	.gcc_except_table
 1756              	.LLSDA1501:
 1757 0104 FF       		.byte	0xff
 1758 0105 FF       		.byte	0xff
 1759 0106 01       		.byte	0x1
 1760 0107 04       		.uleb128 .LLSDACSE1501-.LLSDACSB1501
 1761              	.LLSDACSB1501:
 1762 0108 18       		.uleb128 .LEHB33-.LFB1501
 1763 0109 05       		.uleb128 .LEHE33-.LEHB33
 1764 010a 2C       		.uleb128 .L88-.LFB1501
 1765 010b 00       		.uleb128 0
 1766              	.LLSDACSE1501:
 1767              		.text
 1768              		.cfi_endproc
 1769              		.section	.text.unlikely
 1770              		.cfi_startproc
 1771              		.cfi_personality 0x9b,DW.ref.__gxx_personality_v0
 1772              		.cfi_lsda 0x1b,.LLSDAC1501
 1774              	_ZN12_GLOBAL__N_115SuiteTestSuite163TestDummyFixtureSimilarlyNamedFixtureTestsInDifferentSuitesWork
 1775              	.LFSB1501:
 1776              	.L87:
 1777              		.cfi_def_cfa_offset 32
 1778              		.cfi_offset 6, -24
 1779              		.cfi_offset 12, -16
 1780 012e 4889EF   		movq	%rbp, %rdi
 1781 0131 E8000000 		call	_ZdlPv@PLT
 1781      00
 1782 0136 4C89E7   		movq	%r12, %rdi
 1783              	.LEHB34:
 1784 0139 E8000000 		call	_Unwind_Resume@PLT
 1784      00
 1785              	.LEHE34:
 1786              		.cfi_endproc
 1787              	.LFE1501:
 1788              		.section	.gcc_except_table
 1789              	.LLSDAC1501:
 1790 010c FF       		.byte	0xff
 1791 010d FF       		.byte	0xff
 1792 010e 01       		.byte	0x1
 1793 010f 04       		.uleb128 .LLSDACSEC1501-.LLSDACSBC1501
 1794              	.LLSDACSBC1501:
 1795 0110 0B       		.uleb128 .LEHB34-.LCOLDB15
 1796 0111 05       		.uleb128 .LEHE34-.LEHB34
 1797 0112 00       		.uleb128 0
 1798 0113 00       		.uleb128 0
 1799              	.LLSDACSEC1501:
 1800              		.section	.text.unlikely
 1801              		.text
 1803              		.section	.text.unlikely
 1805              	.LCOLDE15:
 1806              		.text
 1807              	.LHOTE15:
 1808              		.align 2
 1809 0578 0F1F8400 		.p2align 4
 1809      00000000 
 1811              	_ZN12_GLOBAL__N_115SuiteTestSuite144TestSimilarlyNamedTestsInDifferentSuitesWorkD2Ev:
 1812              	.LFB1503:
 1813              		.cfi_startproc
 1814 0580 F30F1EFA 		endbr64
 1815 0584 488D0500 		leaq	16+_ZTVN12_GLOBAL__N_115SuiteTestSuite144TestSimilarlyNamedTestsInDifferentSuitesWorkE(%rip),
 1815      000000
 1816 058b 488907   		movq	%rax, (%rdi)
 1817 058e E9000000 		jmp	_ZN8UnitTest4TestD2Ev@PLT
 1817      00
 1818              		.cfi_endproc
 1819              	.LFE1503:
 1821              		.set	_ZN12_GLOBAL__N_115SuiteTestSuite144TestSimilarlyNamedTestsInDifferentSuitesWorkD1Ev,_ZN12_GL
 1822              		.section	.text.unlikely
 1823              		.align 2
 1824              	.LCOLDB16:
 1825              		.text
 1826              	.LHOTB16:
 1827 0593 90       		.align 2
 1828 0594 66662E0F 		.p2align 4
 1828      1F840000 
 1828      00000090 
 1830              	_ZN12_GLOBAL__N_115SuiteTestSuite144TestSimilarlyNamedTestsInDifferentSuitesWorkD0Ev:
 1831              	.LFB1505:
 1832              		.cfi_startproc
 1833              		.cfi_personality 0x9b,DW.ref.__gxx_personality_v0
 1834              		.cfi_lsda 0x1b,.LLSDA1505
 1835 05a0 F30F1EFA 		endbr64
 1836 05a4 4154     		pushq	%r12
 1837              		.cfi_def_cfa_offset 16
 1838              		.cfi_offset 12, -16
 1839 05a6 488D0500 		leaq	16+_ZTVN12_GLOBAL__N_115SuiteTestSuite144TestSimilarlyNamedTestsInDifferentSuitesWorkE(%rip),
 1839      000000
 1840 05ad 55       		pushq	%rbp
 1841              		.cfi_def_cfa_offset 24
 1842              		.cfi_offset 6, -24
 1843 05ae 4889FD   		movq	%rdi, %rbp
 1844 05b1 4883EC08 		subq	$8, %rsp
 1845              		.cfi_def_cfa_offset 32
 1846 05b5 488907   		movq	%rax, (%rdi)
 1847              	.LEHB35:
 1848 05b8 E8000000 		call	_ZN8UnitTest4TestD2Ev@PLT
 1848      00
 1849              	.LEHE35:
 1850 05bd 4883C408 		addq	$8, %rsp
 1851              		.cfi_remember_state
 1852              		.cfi_def_cfa_offset 24
 1853 05c1 4889EF   		movq	%rbp, %rdi
 1854 05c4 5D       		popq	%rbp
 1855              		.cfi_def_cfa_offset 16
 1856 05c5 415C     		popq	%r12
 1857              		.cfi_def_cfa_offset 8
 1858 05c7 E9000000 		jmp	_ZdlPv@PLT
 1858      00
 1859              	.L93:
 1860              		.cfi_restore_state
 1861 05cc F30F1EFA 		endbr64
 1862 05d0 4989C4   		movq	%rax, %r12
 1863 05d3 E9000000 		jmp	.L92
 1863      00
 1864              		.section	.gcc_except_table
 1865              	.LLSDA1505:
 1866 0114 FF       		.byte	0xff
 1867 0115 FF       		.byte	0xff
 1868 0116 01       		.byte	0x1
 1869 0117 04       		.uleb128 .LLSDACSE1505-.LLSDACSB1505
 1870              	.LLSDACSB1505:
 1871 0118 18       		.uleb128 .LEHB35-.LFB1505
 1872 0119 05       		.uleb128 .LEHE35-.LEHB35
 1873 011a 2C       		.uleb128 .L93-.LFB1505
 1874 011b 00       		.uleb128 0
 1875              	.LLSDACSE1505:
 1876              		.text
 1877              		.cfi_endproc
 1878              		.section	.text.unlikely
 1879              		.cfi_startproc
 1880              		.cfi_personality 0x9b,DW.ref.__gxx_personality_v0
 1881              		.cfi_lsda 0x1b,.LLSDAC1505
 1883              	_ZN12_GLOBAL__N_115SuiteTestSuite144TestSimilarlyNamedTestsInDifferentSuitesWorkD0Ev.cold:
 1884              	.LFSB1505:
 1885              	.L92:
 1886              		.cfi_def_cfa_offset 32
 1887              		.cfi_offset 6, -24
 1888              		.cfi_offset 12, -16
 1889 013e 4889EF   		movq	%rbp, %rdi
 1890 0141 E8000000 		call	_ZdlPv@PLT
 1890      00
 1891 0146 4C89E7   		movq	%r12, %rdi
 1892              	.LEHB36:
 1893 0149 E8000000 		call	_Unwind_Resume@PLT
 1893      00
 1894              	.LEHE36:
 1895              		.cfi_endproc
 1896              	.LFE1505:
 1897              		.section	.gcc_except_table
 1898              	.LLSDAC1505:
 1899 011c FF       		.byte	0xff
 1900 011d FF       		.byte	0xff
 1901 011e 01       		.byte	0x1
 1902 011f 04       		.uleb128 .LLSDACSEC1505-.LLSDACSBC1505
 1903              	.LLSDACSBC1505:
 1904 0120 0B       		.uleb128 .LEHB36-.LCOLDB16
 1905 0121 05       		.uleb128 .LEHE36-.LEHB36
 1906 0122 00       		.uleb128 0
 1907 0123 00       		.uleb128 0
 1908              	.LLSDACSEC1505:
 1909              		.section	.text.unlikely
 1910              		.text
 1912              		.section	.text.unlikely
 1914              	.LCOLDE16:
 1915              		.text
 1916              	.LHOTE16:
 1917              		.align 2
 1918 05d8 0F1F8400 		.p2align 4
 1918      00000000 
 1920              	_ZN12_GLOBAL__N_157TestExceptionsInFixtureAreReportedAsHappeningInTheFixtureD2Ev:
 1921              	.LFB1507:
 1922              		.cfi_startproc
 1923 05e0 F30F1EFA 		endbr64
 1924 05e4 488D0500 		leaq	16+_ZTVN12_GLOBAL__N_157TestExceptionsInFixtureAreReportedAsHappeningInTheFixtureE(%rip), %ra
 1924      000000
 1925 05eb 488907   		movq	%rax, (%rdi)
 1926 05ee E9000000 		jmp	_ZN8UnitTest4TestD2Ev@PLT
 1926      00
 1927              		.cfi_endproc
 1928              	.LFE1507:
 1930              		.set	_ZN12_GLOBAL__N_157TestExceptionsInFixtureAreReportedAsHappeningInTheFixtureD1Ev,_ZN12_GLOBAL
 1931              		.section	.text.unlikely
 1932              		.align 2
 1933              	.LCOLDB17:
 1934              		.text
 1935              	.LHOTB17:
 1936 05f3 90       		.align 2
 1937 05f4 66662E0F 		.p2align 4
 1937      1F840000 
 1937      00000090 
 1939              	_ZN12_GLOBAL__N_157TestExceptionsInFixtureAreReportedAsHappeningInTheFixtureD0Ev:
 1940              	.LFB1509:
 1941              		.cfi_startproc
 1942              		.cfi_personality 0x9b,DW.ref.__gxx_personality_v0
 1943              		.cfi_lsda 0x1b,.LLSDA1509
 1944 0600 F30F1EFA 		endbr64
 1945 0604 4154     		pushq	%r12
 1946              		.cfi_def_cfa_offset 16
 1947              		.cfi_offset 12, -16
 1948 0606 488D0500 		leaq	16+_ZTVN12_GLOBAL__N_157TestExceptionsInFixtureAreReportedAsHappeningInTheFixtureE(%rip), %ra
 1948      000000
 1949 060d 55       		pushq	%rbp
 1950              		.cfi_def_cfa_offset 24
 1951              		.cfi_offset 6, -24
 1952 060e 4889FD   		movq	%rdi, %rbp
 1953 0611 4883EC08 		subq	$8, %rsp
 1954              		.cfi_def_cfa_offset 32
 1955 0615 488907   		movq	%rax, (%rdi)
 1956              	.LEHB37:
 1957 0618 E8000000 		call	_ZN8UnitTest4TestD2Ev@PLT
 1957      00
 1958              	.LEHE37:
 1959 061d 4883C408 		addq	$8, %rsp
 1960              		.cfi_remember_state
 1961              		.cfi_def_cfa_offset 24
 1962 0621 4889EF   		movq	%rbp, %rdi
 1963 0624 5D       		popq	%rbp
 1964              		.cfi_def_cfa_offset 16
 1965 0625 415C     		popq	%r12
 1966              		.cfi_def_cfa_offset 8
 1967 0627 E9000000 		jmp	_ZdlPv@PLT
 1967      00
 1968              	.L98:
 1969              		.cfi_restore_state
 1970 062c F30F1EFA 		endbr64
 1971 0630 4989C4   		movq	%rax, %r12
 1972 0633 E9000000 		jmp	.L97
 1972      00
 1973              		.section	.gcc_except_table
 1974              	.LLSDA1509:
 1975 0124 FF       		.byte	0xff
 1976 0125 FF       		.byte	0xff
 1977 0126 01       		.byte	0x1
 1978 0127 04       		.uleb128 .LLSDACSE1509-.LLSDACSB1509
 1979              	.LLSDACSB1509:
 1980 0128 18       		.uleb128 .LEHB37-.LFB1509
 1981 0129 05       		.uleb128 .LEHE37-.LEHB37
 1982 012a 2C       		.uleb128 .L98-.LFB1509
 1983 012b 00       		.uleb128 0
 1984              	.LLSDACSE1509:
 1985              		.text
 1986              		.cfi_endproc
 1987              		.section	.text.unlikely
 1988              		.cfi_startproc
 1989              		.cfi_personality 0x9b,DW.ref.__gxx_personality_v0
 1990              		.cfi_lsda 0x1b,.LLSDAC1509
 1992              	_ZN12_GLOBAL__N_157TestExceptionsInFixtureAreReportedAsHappeningInTheFixtureD0Ev.cold:
 1993              	.LFSB1509:
 1994              	.L97:
 1995              		.cfi_def_cfa_offset 32
 1996              		.cfi_offset 6, -24
 1997              		.cfi_offset 12, -16
 1998 014e 4889EF   		movq	%rbp, %rdi
 1999 0151 E8000000 		call	_ZdlPv@PLT
 1999      00
 2000 0156 4C89E7   		movq	%r12, %rdi
 2001              	.LEHB38:
 2002 0159 E8000000 		call	_Unwind_Resume@PLT
 2002      00
 2003              	.LEHE38:
 2004              		.cfi_endproc
 2005              	.LFE1509:
 2006              		.section	.gcc_except_table
 2007              	.LLSDAC1509:
 2008 012c FF       		.byte	0xff
 2009 012d FF       		.byte	0xff
 2010 012e 01       		.byte	0x1
 2011 012f 04       		.uleb128 .LLSDACSEC1509-.LLSDACSBC1509
 2012              	.LLSDACSBC1509:
 2013 0130 0B       		.uleb128 .LEHB38-.LCOLDB17
 2014 0131 05       		.uleb128 .LEHE38-.LEHB38
 2015 0132 00       		.uleb128 0
 2016 0133 00       		.uleb128 0
 2017              	.LLSDACSEC1509:
 2018              		.section	.text.unlikely
 2019              		.text
 2021              		.section	.text.unlikely
 2023              	.LCOLDE17:
 2024              		.text
 2025              	.LHOTE17:
 2026              		.align 2
 2027 0638 0F1F8400 		.p2align 4
 2027      00000000 
 2029              	_ZN12_GLOBAL__N_132TestThrowingThingieDummyTestNameD2Ev:
 2030              	.LFB1511:
 2031              		.cfi_startproc
 2032 0640 F30F1EFA 		endbr64
 2033 0644 488D0500 		leaq	16+_ZTVN12_GLOBAL__N_132TestThrowingThingieDummyTestNameE(%rip), %rax
 2033      000000
 2034 064b 488907   		movq	%rax, (%rdi)
 2035 064e E9000000 		jmp	_ZN8UnitTest4TestD2Ev@PLT
 2035      00
 2036              		.cfi_endproc
 2037              	.LFE1511:
 2039              		.set	_ZN12_GLOBAL__N_132TestThrowingThingieDummyTestNameD1Ev,_ZN12_GLOBAL__N_132TestThrowingThingi
 2040              		.section	.text.unlikely
 2041              		.align 2
 2042              	.LCOLDB18:
 2043              		.text
 2044              	.LHOTB18:
 2045 0653 90       		.align 2
 2046 0654 66662E0F 		.p2align 4
 2046      1F840000 
 2046      00000090 
 2048              	_ZN12_GLOBAL__N_132TestThrowingThingieDummyTestNameD0Ev:
 2049              	.LFB1513:
 2050              		.cfi_startproc
 2051              		.cfi_personality 0x9b,DW.ref.__gxx_personality_v0
 2052              		.cfi_lsda 0x1b,.LLSDA1513
 2053 0660 F30F1EFA 		endbr64
 2054 0664 4154     		pushq	%r12
 2055              		.cfi_def_cfa_offset 16
 2056              		.cfi_offset 12, -16
 2057 0666 488D0500 		leaq	16+_ZTVN12_GLOBAL__N_132TestThrowingThingieDummyTestNameE(%rip), %rax
 2057      000000
 2058 066d 55       		pushq	%rbp
 2059              		.cfi_def_cfa_offset 24
 2060              		.cfi_offset 6, -24
 2061 066e 4889FD   		movq	%rdi, %rbp
 2062 0671 4883EC08 		subq	$8, %rsp
 2063              		.cfi_def_cfa_offset 32
 2064 0675 488907   		movq	%rax, (%rdi)
 2065              	.LEHB39:
 2066 0678 E8000000 		call	_ZN8UnitTest4TestD2Ev@PLT
 2066      00
 2067              	.LEHE39:
 2068 067d 4883C408 		addq	$8, %rsp
 2069              		.cfi_remember_state
 2070              		.cfi_def_cfa_offset 24
 2071 0681 4889EF   		movq	%rbp, %rdi
 2072 0684 5D       		popq	%rbp
 2073              		.cfi_def_cfa_offset 16
 2074 0685 415C     		popq	%r12
 2075              		.cfi_def_cfa_offset 8
 2076 0687 E9000000 		jmp	_ZdlPv@PLT
 2076      00
 2077              	.L103:
 2078              		.cfi_restore_state
 2079 068c F30F1EFA 		endbr64
 2080 0690 4989C4   		movq	%rax, %r12
 2081 0693 E9000000 		jmp	.L102
 2081      00
 2082              		.section	.gcc_except_table
 2083              	.LLSDA1513:
 2084 0134 FF       		.byte	0xff
 2085 0135 FF       		.byte	0xff
 2086 0136 01       		.byte	0x1
 2087 0137 04       		.uleb128 .LLSDACSE1513-.LLSDACSB1513
 2088              	.LLSDACSB1513:
 2089 0138 18       		.uleb128 .LEHB39-.LFB1513
 2090 0139 05       		.uleb128 .LEHE39-.LEHB39
 2091 013a 2C       		.uleb128 .L103-.LFB1513
 2092 013b 00       		.uleb128 0
 2093              	.LLSDACSE1513:
 2094              		.text
 2095              		.cfi_endproc
 2096              		.section	.text.unlikely
 2097              		.cfi_startproc
 2098              		.cfi_personality 0x9b,DW.ref.__gxx_personality_v0
 2099              		.cfi_lsda 0x1b,.LLSDAC1513
 2101              	_ZN12_GLOBAL__N_132TestThrowingThingieDummyTestNameD0Ev.cold:
 2102              	.LFSB1513:
 2103              	.L102:
 2104              		.cfi_def_cfa_offset 32
 2105              		.cfi_offset 6, -24
 2106              		.cfi_offset 12, -16
 2107 015e 4889EF   		movq	%rbp, %rdi
 2108 0161 E8000000 		call	_ZdlPv@PLT
 2108      00
 2109 0166 4C89E7   		movq	%r12, %rdi
 2110              	.LEHB40:
 2111 0169 E8000000 		call	_Unwind_Resume@PLT
 2111      00
 2112              	.LEHE40:
 2113              		.cfi_endproc
 2114              	.LFE1513:
 2115              		.section	.gcc_except_table
 2116              	.LLSDAC1513:
 2117 013c FF       		.byte	0xff
 2118 013d FF       		.byte	0xff
 2119 013e 01       		.byte	0x1
 2120 013f 04       		.uleb128 .LLSDACSEC1513-.LLSDACSBC1513
 2121              	.LLSDACSBC1513:
 2122 0140 0B       		.uleb128 .LEHB40-.LCOLDB18
 2123 0141 05       		.uleb128 .LEHE40-.LEHB40
 2124 0142 00       		.uleb128 0
 2125 0143 00       		.uleb128 0
 2126              	.LLSDACSEC1513:
 2127              		.section	.text.unlikely
 2128              		.text
 2130              		.section	.text.unlikely
 2132              	.LCOLDE18:
 2133              		.text
 2134              	.LHOTE18:
 2135              		.align 2
 2136 0698 0F1F8400 		.p2align 4
 2136      00000000 
 2138              	_ZN12_GLOBAL__N_138TestTestsAreAddedToTheListThroughMacroD2Ev:
 2139              	.LFB1515:
 2140              		.cfi_startproc
 2141 06a0 F30F1EFA 		endbr64
 2142 06a4 488D0500 		leaq	16+_ZTVN12_GLOBAL__N_138TestTestsAreAddedToTheListThroughMacroE(%rip), %rax
 2142      000000
 2143 06ab 488907   		movq	%rax, (%rdi)
 2144 06ae E9000000 		jmp	_ZN8UnitTest4TestD2Ev@PLT
 2144      00
 2145              		.cfi_endproc
 2146              	.LFE1515:
 2148              		.set	_ZN12_GLOBAL__N_138TestTestsAreAddedToTheListThroughMacroD1Ev,_ZN12_GLOBAL__N_138TestTestsAre
 2149              		.section	.text.unlikely
 2150              		.align 2
 2151              	.LCOLDB19:
 2152              		.text
 2153              	.LHOTB19:
 2154 06b3 90       		.align 2
 2155 06b4 66662E0F 		.p2align 4
 2155      1F840000 
 2155      00000090 
 2157              	_ZN12_GLOBAL__N_138TestTestsAreAddedToTheListThroughMacroD0Ev:
 2158              	.LFB1517:
 2159              		.cfi_startproc
 2160              		.cfi_personality 0x9b,DW.ref.__gxx_personality_v0
 2161              		.cfi_lsda 0x1b,.LLSDA1517
 2162 06c0 F30F1EFA 		endbr64
 2163 06c4 4154     		pushq	%r12
 2164              		.cfi_def_cfa_offset 16
 2165              		.cfi_offset 12, -16
 2166 06c6 488D0500 		leaq	16+_ZTVN12_GLOBAL__N_138TestTestsAreAddedToTheListThroughMacroE(%rip), %rax
 2166      000000
 2167 06cd 55       		pushq	%rbp
 2168              		.cfi_def_cfa_offset 24
 2169              		.cfi_offset 6, -24
 2170 06ce 4889FD   		movq	%rdi, %rbp
 2171 06d1 4883EC08 		subq	$8, %rsp
 2172              		.cfi_def_cfa_offset 32
 2173 06d5 488907   		movq	%rax, (%rdi)
 2174              	.LEHB41:
 2175 06d8 E8000000 		call	_ZN8UnitTest4TestD2Ev@PLT
 2175      00
 2176              	.LEHE41:
 2177 06dd 4883C408 		addq	$8, %rsp
 2178              		.cfi_remember_state
 2179              		.cfi_def_cfa_offset 24
 2180 06e1 4889EF   		movq	%rbp, %rdi
 2181 06e4 5D       		popq	%rbp
 2182              		.cfi_def_cfa_offset 16
 2183 06e5 415C     		popq	%r12
 2184              		.cfi_def_cfa_offset 8
 2185 06e7 E9000000 		jmp	_ZdlPv@PLT
 2185      00
 2186              	.L108:
 2187              		.cfi_restore_state
 2188 06ec F30F1EFA 		endbr64
 2189 06f0 4989C4   		movq	%rax, %r12
 2190 06f3 E9000000 		jmp	.L107
 2190      00
 2191              		.section	.gcc_except_table
 2192              	.LLSDA1517:
 2193 0144 FF       		.byte	0xff
 2194 0145 FF       		.byte	0xff
 2195 0146 01       		.byte	0x1
 2196 0147 04       		.uleb128 .LLSDACSE1517-.LLSDACSB1517
 2197              	.LLSDACSB1517:
 2198 0148 18       		.uleb128 .LEHB41-.LFB1517
 2199 0149 05       		.uleb128 .LEHE41-.LEHB41
 2200 014a 2C       		.uleb128 .L108-.LFB1517
 2201 014b 00       		.uleb128 0
 2202              	.LLSDACSE1517:
 2203              		.text
 2204              		.cfi_endproc
 2205              		.section	.text.unlikely
 2206              		.cfi_startproc
 2207              		.cfi_personality 0x9b,DW.ref.__gxx_personality_v0
 2208              		.cfi_lsda 0x1b,.LLSDAC1517
 2210              	_ZN12_GLOBAL__N_138TestTestsAreAddedToTheListThroughMacroD0Ev.cold:
 2211              	.LFSB1517:
 2212              	.L107:
 2213              		.cfi_def_cfa_offset 32
 2214              		.cfi_offset 6, -24
 2215              		.cfi_offset 12, -16
 2216 016e 4889EF   		movq	%rbp, %rdi
 2217 0171 E8000000 		call	_ZdlPv@PLT
 2217      00
 2218 0176 4C89E7   		movq	%r12, %rdi
 2219              	.LEHB42:
 2220 0179 E8000000 		call	_Unwind_Resume@PLT
 2220      00
 2221              	.LEHE42:
 2222              		.cfi_endproc
 2223              	.LFE1517:
 2224              		.section	.gcc_except_table
 2225              	.LLSDAC1517:
 2226 014c FF       		.byte	0xff
 2227 014d FF       		.byte	0xff
 2228 014e 01       		.byte	0x1
 2229 014f 04       		.uleb128 .LLSDACSEC1517-.LLSDACSBC1517
 2230              	.LLSDACSBC1517:
 2231 0150 0B       		.uleb128 .LEHB42-.LCOLDB19
 2232 0151 05       		.uleb128 .LEHE42-.LEHB42
 2233 0152 00       		.uleb128 0
 2234 0153 00       		.uleb128 0
 2235              	.LLSDACSEC1517:
 2236              		.section	.text.unlikely
 2237              		.text
 2239              		.section	.text.unlikely
 2241              	.LCOLDE19:
 2242              		.text
 2243              	.LHOTE19:
 2244              		.align 2
 2245 06f8 0F1F8400 		.p2align 4
 2245      00000000 
 2247              	_ZN12_GLOBAL__N_113TestDummyTestD2Ev:
 2248              	.LFB1519:
 2249              		.cfi_startproc
 2250 0700 F30F1EFA 		endbr64
 2251 0704 488D0500 		leaq	16+_ZTVN12_GLOBAL__N_113TestDummyTestE(%rip), %rax
 2251      000000
 2252 070b 488907   		movq	%rax, (%rdi)
 2253 070e E9000000 		jmp	_ZN8UnitTest4TestD2Ev@PLT
 2253      00
 2254              		.cfi_endproc
 2255              	.LFE1519:
 2257              		.set	_ZN12_GLOBAL__N_113TestDummyTestD1Ev,_ZN12_GLOBAL__N_113TestDummyTestD2Ev
 2258              		.section	.text.unlikely
 2259              		.align 2
 2260              	.LCOLDB20:
 2261              		.text
 2262              	.LHOTB20:
 2263 0713 90       		.align 2
 2264 0714 66662E0F 		.p2align 4
 2264      1F840000 
 2264      00000090 
 2266              	_ZN12_GLOBAL__N_113TestDummyTestD0Ev:
 2267              	.LFB1521:
 2268              		.cfi_startproc
 2269              		.cfi_personality 0x9b,DW.ref.__gxx_personality_v0
 2270              		.cfi_lsda 0x1b,.LLSDA1521
 2271 0720 F30F1EFA 		endbr64
 2272 0724 4154     		pushq	%r12
 2273              		.cfi_def_cfa_offset 16
 2274              		.cfi_offset 12, -16
 2275 0726 488D0500 		leaq	16+_ZTVN12_GLOBAL__N_113TestDummyTestE(%rip), %rax
 2275      000000
 2276 072d 55       		pushq	%rbp
 2277              		.cfi_def_cfa_offset 24
 2278              		.cfi_offset 6, -24
 2279 072e 4889FD   		movq	%rdi, %rbp
 2280 0731 4883EC08 		subq	$8, %rsp
 2281              		.cfi_def_cfa_offset 32
 2282 0735 488907   		movq	%rax, (%rdi)
 2283              	.LEHB43:
 2284 0738 E8000000 		call	_ZN8UnitTest4TestD2Ev@PLT
 2284      00
 2285              	.LEHE43:
 2286 073d 4883C408 		addq	$8, %rsp
 2287              		.cfi_remember_state
 2288              		.cfi_def_cfa_offset 24
 2289 0741 4889EF   		movq	%rbp, %rdi
 2290 0744 5D       		popq	%rbp
 2291              		.cfi_def_cfa_offset 16
 2292 0745 415C     		popq	%r12
 2293              		.cfi_def_cfa_offset 8
 2294 0747 E9000000 		jmp	_ZdlPv@PLT
 2294      00
 2295              	.L113:
 2296              		.cfi_restore_state
 2297 074c F30F1EFA 		endbr64
 2298 0750 4989C4   		movq	%rax, %r12
 2299 0753 E9000000 		jmp	.L112
 2299      00
 2300              		.section	.gcc_except_table
 2301              	.LLSDA1521:
 2302 0154 FF       		.byte	0xff
 2303 0155 FF       		.byte	0xff
 2304 0156 01       		.byte	0x1
 2305 0157 04       		.uleb128 .LLSDACSE1521-.LLSDACSB1521
 2306              	.LLSDACSB1521:
 2307 0158 18       		.uleb128 .LEHB43-.LFB1521
 2308 0159 05       		.uleb128 .LEHE43-.LEHB43
 2309 015a 2C       		.uleb128 .L113-.LFB1521
 2310 015b 00       		.uleb128 0
 2311              	.LLSDACSE1521:
 2312              		.text
 2313              		.cfi_endproc
 2314              		.section	.text.unlikely
 2315              		.cfi_startproc
 2316              		.cfi_personality 0x9b,DW.ref.__gxx_personality_v0
 2317              		.cfi_lsda 0x1b,.LLSDAC1521
 2319              	_ZN12_GLOBAL__N_113TestDummyTestD0Ev.cold:
 2320              	.LFSB1521:
 2321              	.L112:
 2322              		.cfi_def_cfa_offset 32
 2323              		.cfi_offset 6, -24
 2324              		.cfi_offset 12, -16
 2325 017e 4889EF   		movq	%rbp, %rdi
 2326 0181 E8000000 		call	_ZdlPv@PLT
 2326      00
 2327 0186 4C89E7   		movq	%r12, %rdi
 2328              	.LEHB44:
 2329 0189 E8000000 		call	_Unwind_Resume@PLT
 2329      00
 2330              	.LEHE44:
 2331              		.cfi_endproc
 2332              	.LFE1521:
 2333              		.section	.gcc_except_table
 2334              	.LLSDAC1521:
 2335 015c FF       		.byte	0xff
 2336 015d FF       		.byte	0xff
 2337 015e 01       		.byte	0x1
 2338 015f 04       		.uleb128 .LLSDACSEC1521-.LLSDACSBC1521
 2339              	.LLSDACSBC1521:
 2340 0160 0B       		.uleb128 .LEHB44-.LCOLDB20
 2341 0161 05       		.uleb128 .LEHE44-.LEHB44
 2342 0162 00       		.uleb128 0
 2343 0163 00       		.uleb128 0
 2344              	.LLSDACSEC1521:
 2345              		.section	.text.unlikely
 2346              		.text
 2348              		.section	.text.unlikely
 2350              	.LCOLDE20:
 2351              		.text
 2352              	.LHOTE20:
 2353              		.section	.rodata.str1.8
 2354              		.align 8
 2355              	.LC21:
 2356 0080 6D616372 		.string	"macroTestList2.GetHead() != NULL"
 2356      6F546573 
 2356      744C6973 
 2356      74322E47 
 2356      65744865 
 2357              		.section	.rodata.str1.1,"aMS",@progbits,1
 2358              	.LC22:
 2359 0000 4D616372 		.string	"MacroTestHelper2"
 2359      6F546573 
 2359      7448656C 
 2359      70657232 
 2359      00
 2360              	.LC23:
 2361 0011 44656661 		.string	"DefaultSuite"
 2361      756C7453 
 2361      75697465 
 2361      00
 2362              		.section	.rodata.str1.8
 2363 00a1 00000000 		.align 8
 2363      000000
 2364              	.LC24:
 2365 00a8 556E6861 		.string	"Unhandled exception in CHECK(macroTestList2.GetHead() != NULL)"
 2365      6E646C65 
 2365      64206578 
 2365      63657074 
 2365      696F6E20 
 2366 00e7 00       		.align 8
 2367              	.LC25:
 2368 00e8 556E6861 		.string	"Unhandled exception in CHECK_EQUAL(\"MacroTestHelper2\", macroTestList2.GetHead()->m_deta
 2368      6E646C65 
 2368      64206578 
 2368      63657074 
 2368      696F6E20 
 2369 014d 000000   		.align 8
 2370              	.LC26:
 2371 0150 556E6861 		.string	"Unhandled exception in CHECK_EQUAL(\"DefaultSuite\", macroTestList2.GetHead()->m_details.
 2371      6E646C65 
 2371      64206578 
 2371      63657074 
 2371      696F6E20 
 2372              		.section	.text.unlikely
 2373              		.align 2
 2374              	.LCOLDB27:
 2375              		.text
 2376              	.LHOTB27:
 2377              		.align 2
 2378 0758 0F1F8400 		.p2align 4
 2378      00000000 
 2380              	_ZNK12_GLOBAL__N_153TestTestAddedWithTEST_FIXTURE_EXMacroGetsDefaultSuite7RunImplEv:
 2381              	.LFB1295:
 2382              		.cfi_startproc
 2383              		.cfi_personality 0x9b,DW.ref.__gxx_personality_v0
 2384              		.cfi_lsda 0x1b,.LLSDA1295
 2385 0760 F30F1EFA 		endbr64
 2386 0764 4155     		pushq	%r13
 2387              		.cfi_def_cfa_offset 16
 2388              		.cfi_offset 13, -16
 2389 0766 4154     		pushq	%r12
 2390              		.cfi_def_cfa_offset 24
 2391              		.cfi_offset 12, -24
 2392 0768 4C8D2500 		leaq	_ZN12_GLOBAL__N_114macroTestList2E(%rip), %r12
 2392      000000
 2393 076f 55       		pushq	%rbp
 2394              		.cfi_def_cfa_offset 32
 2395              		.cfi_offset 6, -32
 2396 0770 4C89E7   		movq	%r12, %rdi
 2397 0773 4883EC30 		subq	$48, %rsp
 2398              		.cfi_def_cfa_offset 80
 2399 0777 64488B04 		movq	%fs:40, %rax
 2399      25280000 
 2399      00
 2400 0780 48894424 		movq	%rax, 40(%rsp)
 2400      28
 2401 0785 31C0     		xorl	%eax, %eax
 2402              	.LEHB45:
 2403 0787 E8000000 		call	_ZNK8UnitTest8TestList7GetHeadEv@PLT
 2403      00
 2404              	.LEHE45:
 2405 078c 4885C0   		testq	%rax, %rax
 2406 078f 0F849B00 		je	.L134
 2406      0000
 2407              	.L116:
 2408              	.LEHB46:
 2409 0795 E8000000 		call	_ZN8UnitTest11CurrentTest7DetailsEv@PLT
 2409      00
 2410 079a 4889E5   		movq	%rsp, %rbp
 2411 079d 488B30   		movq	(%rax), %rsi
 2412 07a0 BA670000 		movl	$103, %edx
 2412      00
 2413 07a5 4889EF   		movq	%rbp, %rdi
 2414 07a8 E8000000 		call	_ZN8UnitTest11TestDetailsC1ERKS0_i@PLT
 2414      00
 2415 07ad 4C89E7   		movq	%r12, %rdi
 2416 07b0 E8000000 		call	_ZNK8UnitTest8TestList7GetHeadEv@PLT
 2416      00
 2417 07b5 4C8B6810 		movq	16(%rax), %r13
 2418 07b9 E8000000 		call	_ZN8UnitTest11CurrentTest7ResultsEv@PLT
 2418      00
 2419 07be 488B38   		movq	(%rax), %rdi
 2420 07c1 4889E9   		movq	%rbp, %rcx
 2421 07c4 4C89EA   		movq	%r13, %rdx
 2422 07c7 488D3500 		leaq	.LC22(%rip), %rsi
 2422      000000
 2423 07ce E8000000 		call	_ZN8UnitTest10CheckEqualERNS_11TestResultsEPKcS3_RKNS_11TestDetailsE@PLT
 2423      00
 2424              	.LEHE46:
 2425              	.L120:
 2426              	.LEHB47:
 2427 07d3 E8000000 		call	_ZN8UnitTest11CurrentTest7DetailsEv@PLT
 2427      00
 2428 07d8 488B30   		movq	(%rax), %rsi
 2429 07db BA680000 		movl	$104, %edx
 2429      00
 2430 07e0 4889EF   		movq	%rbp, %rdi
 2431 07e3 E8000000 		call	_ZN8UnitTest11TestDetailsC1ERKS0_i@PLT
 2431      00
 2432 07e8 4C89E7   		movq	%r12, %rdi
 2433 07eb E8000000 		call	_ZNK8UnitTest8TestList7GetHeadEv@PLT
 2433      00
 2434 07f0 4C8B6008 		movq	8(%rax), %r12
 2435 07f4 E8000000 		call	_ZN8UnitTest11CurrentTest7ResultsEv@PLT
 2435      00
 2436 07f9 488B38   		movq	(%rax), %rdi
 2437 07fc 4889E9   		movq	%rbp, %rcx
 2438 07ff 4C89E2   		movq	%r12, %rdx
 2439 0802 488D3500 		leaq	.LC23(%rip), %rsi
 2439      000000
 2440 0809 E8000000 		call	_ZN8UnitTest10CheckEqualERNS_11TestResultsEPKcS3_RKNS_11TestDetailsE@PLT
 2440      00
 2441              	.LEHE47:
 2442 080e 488B4424 		movq	40(%rsp), %rax
 2442      28
 2443 0813 64482B04 		subq	%fs:40, %rax
 2443      25280000 
 2443      00
 2444 081c 7549     		jne	.L135
 2445 081e 4883C430 		addq	$48, %rsp
 2446              		.cfi_remember_state
 2447              		.cfi_def_cfa_offset 32
 2448 0822 5D       		popq	%rbp
 2449              		.cfi_def_cfa_offset 24
 2450 0823 415C     		popq	%r12
 2451              		.cfi_def_cfa_offset 16
 2452 0825 415D     		popq	%r13
 2453              		.cfi_def_cfa_offset 8
 2454 0827 C3       		ret
 2455 0828 0F1F8400 		.p2align 4,,10
 2455      00000000 
 2456              		.p2align 3
 2457              	.L134:
 2458              		.cfi_restore_state
 2459              	.LEHB48:
 2460 0830 E8000000 		call	_ZN8UnitTest11CurrentTest7ResultsEv@PLT
 2460      00
 2461 0835 4C8B28   		movq	(%rax), %r13
 2462 0838 E8000000 		call	_ZN8UnitTest11CurrentTest7DetailsEv@PLT
 2462      00
 2463 083d 4889E5   		movq	%rsp, %rbp
 2464 0840 488B30   		movq	(%rax), %rsi
 2465 0843 BA660000 		movl	$102, %edx
 2465      00
 2466 0848 4889EF   		movq	%rbp, %rdi
 2467 084b E8000000 		call	_ZN8UnitTest11TestDetailsC1ERKS0_i@PLT
 2467      00
 2468 0850 488D1500 		leaq	.LC21(%rip), %rdx
 2468      000000
 2469 0857 4889EE   		movq	%rbp, %rsi
 2470 085a 4C89EF   		movq	%r13, %rdi
 2471 085d E8000000 		call	_ZN8UnitTest11TestResults13OnTestFailureERKNS_11TestDetailsEPKc@PLT
 2471      00
 2472              	.LEHE48:
 2473 0862 E92EFFFF 		jmp	.L116
 2473      FF
 2474              	.L135:
 2475 0867 E8000000 		call	__stack_chk_fail@PLT
 2475      00
 2476              	.L130:
 2477 086c F30F1EFA 		endbr64
 2478 0870 4889C7   		movq	%rax, %rdi
 2479 0873 E9000000 		jmp	.L122
 2479      00
 2480              	.L128:
 2481 0878 F30F1EFA 		endbr64
 2482 087c 4889C7   		movq	%rax, %rdi
 2483 087f E9000000 		jmp	.L119
 2483      00
 2484              	.L126:
 2485 0884 F30F1EFA 		endbr64
 2486 0888 4889C7   		movq	%rax, %rdi
 2487 088b E9000000 		jmp	.L117
 2487      00
 2488              		.section	.gcc_except_table
 2489              		.align 4
 2490              	.LLSDA1295:
 2491 0164 FF       		.byte	0xff
 2492 0165 9B       		.byte	0x9b
 2493 0166 1D       		.uleb128 .LLSDATT1295-.LLSDATTD1295
 2494              	.LLSDATTD1295:
 2495 0167 01       		.byte	0x1
 2496 0168 15       		.uleb128 .LLSDACSE1295-.LLSDACSB1295
 2497              	.LLSDACSB1295:
 2498 0169 27       		.uleb128 .LEHB45-.LFB1295
 2499 016a 05       		.uleb128 .LEHE45-.LEHB45
 2500 016b A402     		.uleb128 .L126-.LFB1295
 2501 016d 01       		.uleb128 0x1
 2502 016e 35       		.uleb128 .LEHB46-.LFB1295
 2503 016f 3E       		.uleb128 .LEHE46-.LEHB46
 2504 0170 9802     		.uleb128 .L128-.LFB1295
 2505 0172 01       		.uleb128 0x1
 2506 0173 73       		.uleb128 .LEHB47-.LFB1295
 2507 0174 3B       		.uleb128 .LEHE47-.LEHB47
 2508 0175 8C02     		.uleb128 .L130-.LFB1295
 2509 0177 01       		.uleb128 0x1
 2510 0178 D001     		.uleb128 .LEHB48-.LFB1295
 2511 017a 32       		.uleb128 .LEHE48-.LEHB48
 2512 017b A402     		.uleb128 .L126-.LFB1295
 2513 017d 01       		.uleb128 0x1
 2514              	.LLSDACSE1295:
 2515 017e 01       		.byte	0x1
 2516 017f 00       		.byte	0
 2517              		.align 4
 2518 0180 00000000 		.long	0
 2519              	
 2520              	.LLSDATT1295:
 2521              		.text
 2522              		.cfi_endproc
 2523              		.section	.text.unlikely
 2524              		.cfi_startproc
 2525              		.cfi_personality 0x9b,DW.ref.__gxx_personality_v0
 2526              		.cfi_lsda 0x1b,.LLSDAC1295
 2528              	_ZNK12_GLOBAL__N_153TestTestAddedWithTEST_FIXTURE_EXMacroGetsDefaultSuite7RunImplEv.cold:
 2529              	.LFSB1295:
 2530              	.L122:
 2531              		.cfi_def_cfa_offset 80
 2532              		.cfi_offset 6, -32
 2533              		.cfi_offset 12, -24
 2534              		.cfi_offset 13, -16
 2535 018e E8000000 		call	__cxa_begin_catch@PLT
 2535      00
 2536              	.LEHB49:
 2537 0193 E8000000 		call	_ZN8UnitTest11CurrentTest7ResultsEv@PLT
 2537      00
 2538 0198 4C8B20   		movq	(%rax), %r12
 2539 019b E8000000 		call	_ZN8UnitTest11CurrentTest7DetailsEv@PLT
 2539      00
 2540 01a0 488B30   		movq	(%rax), %rsi
 2541 01a3 BA680000 		movl	$104, %edx
 2541      00
 2542 01a8 4889EF   		movq	%rbp, %rdi
 2543 01ab E8000000 		call	_ZN8UnitTest11TestDetailsC1ERKS0_i@PLT
 2543      00
 2544 01b0 488D1500 		leaq	.LC26(%rip), %rdx
 2544      000000
 2545 01b7 4889EE   		movq	%rbp, %rsi
 2546 01ba 4C89E7   		movq	%r12, %rdi
 2547 01bd E8000000 		call	_ZN8UnitTest11TestResults13OnTestFailureERKNS_11TestDetailsEPKc@PLT
 2547      00
 2548              	.LEHE49:
 2549 01c2 488B4424 		movq	40(%rsp), %rax
 2549      28
 2550 01c7 64482B04 		subq	%fs:40, %rax
 2550      25280000 
 2550      00
 2551 01d0 0F859000 		jne	.L136
 2551      0000
 2552 01d6 4883C430 		addq	$48, %rsp
 2553              		.cfi_remember_state
 2554              		.cfi_def_cfa_offset 32
 2555 01da 5D       		popq	%rbp
 2556              		.cfi_def_cfa_offset 24
 2557 01db 415C     		popq	%r12
 2558              		.cfi_def_cfa_offset 16
 2559 01dd 415D     		popq	%r13
 2560              		.cfi_def_cfa_offset 8
 2561              	.LEHB50:
 2562 01df E9000000 		jmp	__cxa_end_catch@PLT
 2562      00
 2563              	.LEHE50:
 2564              	.L119:
 2565              		.cfi_restore_state
 2566 01e4 E8000000 		call	__cxa_begin_catch@PLT
 2566      00
 2567              	.LEHB51:
 2568 01e9 E8000000 		call	_ZN8UnitTest11CurrentTest7ResultsEv@PLT
 2568      00
 2569 01ee 4C8B28   		movq	(%rax), %r13
 2570 01f1 E8000000 		call	_ZN8UnitTest11CurrentTest7DetailsEv@PLT
 2570      00
 2571 01f6 4889E5   		movq	%rsp, %rbp
 2572 01f9 488B30   		movq	(%rax), %rsi
 2573 01fc BA670000 		movl	$103, %edx
 2573      00
 2574 0201 4889EF   		movq	%rbp, %rdi
 2575 0204 E8000000 		call	_ZN8UnitTest11TestDetailsC1ERKS0_i@PLT
 2575      00
 2576 0209 488D1500 		leaq	.LC25(%rip), %rdx
 2576      000000
 2577 0210 4889EE   		movq	%rbp, %rsi
 2578 0213 4C89EF   		movq	%r13, %rdi
 2579 0216 E8000000 		call	_ZN8UnitTest11TestResults13OnTestFailureERKNS_11TestDetailsEPKc@PLT
 2579      00
 2580              	.LEHE51:
 2581              	.LEHB52:
 2582 021b E8000000 		call	__cxa_end_catch@PLT
 2582      00
 2583              	.LEHE52:
 2584 0220 E9000000 		jmp	.L120
 2584      00
 2585              	.L117:
 2586 0225 E8000000 		call	__cxa_begin_catch@PLT
 2586      00
 2587              	.LEHB53:
 2588 022a E8000000 		call	_ZN8UnitTest11CurrentTest7ResultsEv@PLT
 2588      00
 2589 022f 4C8B28   		movq	(%rax), %r13
 2590 0232 E8000000 		call	_ZN8UnitTest11CurrentTest7DetailsEv@PLT
 2590      00
 2591 0237 4889E5   		movq	%rsp, %rbp
 2592 023a 488B30   		movq	(%rax), %rsi
 2593 023d BA660000 		movl	$102, %edx
 2593      00
 2594 0242 4889EF   		movq	%rbp, %rdi
 2595 0245 E8000000 		call	_ZN8UnitTest11TestDetailsC1ERKS0_i@PLT
 2595      00
 2596 024a 488D1500 		leaq	.LC24(%rip), %rdx
 2596      000000
 2597 0251 4889EE   		movq	%rbp, %rsi
 2598 0254 4C89EF   		movq	%r13, %rdi
 2599 0257 E8000000 		call	_ZN8UnitTest11TestResults13OnTestFailureERKNS_11TestDetailsEPKc@PLT
 2599      00
 2600              	.LEHE53:
 2601              	.LEHB54:
 2602 025c E8000000 		call	__cxa_end_catch@PLT
 2602      00
 2603              	.LEHE54:
 2604 0261 E9000000 		jmp	.L116
 2604      00
 2605              	.L136:
 2606 0266 E8000000 		call	__stack_chk_fail@PLT
 2606      00
 2607              	.L129:
 2608 026b F30F1EFA 		endbr64
 2609 026f 4889C5   		movq	%rax, %rbp
 2610 0272 E8000000 		call	__cxa_end_catch@PLT
 2610      00
 2611 0277 4889EF   		movq	%rbp, %rdi
 2612              	.LEHB55:
 2613 027a E8000000 		call	_Unwind_Resume@PLT
 2613      00
 2614              	.LEHE55:
 2615              	.L131:
 2616 027f F30F1EFA 		endbr64
 2617 0283 4889C5   		movq	%rax, %rbp
 2618 0286 E8000000 		call	__cxa_end_catch@PLT
 2618      00
 2619 028b 4889EF   		movq	%rbp, %rdi
 2620              	.LEHB56:
 2621 028e E8000000 		call	_Unwind_Resume@PLT
 2621      00
 2622              	.LEHE56:
 2623              	.L127:
 2624 0293 F30F1EFA 		endbr64
 2625 0297 4889C5   		movq	%rax, %rbp
 2626 029a E8000000 		call	__cxa_end_catch@PLT
 2626      00
 2627 029f 4889EF   		movq	%rbp, %rdi
 2628              	.LEHB57:
 2629 02a2 E8000000 		call	_Unwind_Resume@PLT
 2629      00
 2630              	.LEHE57:
 2631              		.cfi_endproc
 2632              	.LFE1295:
 2633              		.section	.gcc_except_table
 2634              		.align 4
 2635              	.LLSDAC1295:
 2636 0184 FF       		.byte	0xff
 2637 0185 9B       		.byte	0x9b
 2638 0186 35       		.uleb128 .LLSDATTC1295-.LLSDATTDC1295
 2639              	.LLSDATTDC1295:
 2640 0187 01       		.byte	0x1
 2641 0188 2D       		.uleb128 .LLSDACSEC1295-.LLSDACSBC1295
 2642              	.LLSDACSBC1295:
 2643 0189 05       		.uleb128 .LEHB49-.LCOLDB27
 2644 018a 2F       		.uleb128 .LEHE49-.LEHB49
 2645 018b F101     		.uleb128 .L131-.LCOLDB27
 2646 018d 00       		.uleb128 0
 2647 018e 51       		.uleb128 .LEHB50-.LCOLDB27
 2648 018f 05       		.uleb128 .LEHE50-.LEHB50
 2649 0190 00       		.uleb128 0
 2650 0191 00       		.uleb128 0
 2651 0192 5B       		.uleb128 .LEHB51-.LCOLDB27
 2652 0193 32       		.uleb128 .LEHE51-.LEHB51
 2653 0194 DD01     		.uleb128 .L129-.LCOLDB27
 2654 0196 00       		.uleb128 0
 2655 0197 8D01     		.uleb128 .LEHB52-.LCOLDB27
 2656 0199 05       		.uleb128 .LEHE52-.LEHB52
 2657 019a 00       		.uleb128 0
 2658 019b 00       		.uleb128 0
 2659 019c 9C01     		.uleb128 .LEHB53-.LCOLDB27
 2660 019e 32       		.uleb128 .LEHE53-.LEHB53
 2661 019f 8502     		.uleb128 .L127-.LCOLDB27
 2662 01a1 00       		.uleb128 0
 2663 01a2 CE01     		.uleb128 .LEHB54-.LCOLDB27
 2664 01a4 05       		.uleb128 .LEHE54-.LEHB54
 2665 01a5 00       		.uleb128 0
 2666 01a6 00       		.uleb128 0
 2667 01a7 EC01     		.uleb128 .LEHB55-.LCOLDB27
 2668 01a9 05       		.uleb128 .LEHE55-.LEHB55
 2669 01aa 00       		.uleb128 0
 2670 01ab 00       		.uleb128 0
 2671 01ac 8002     		.uleb128 .LEHB56-.LCOLDB27
 2672 01ae 05       		.uleb128 .LEHE56-.LEHB56
 2673 01af 00       		.uleb128 0
 2674 01b0 00       		.uleb128 0
 2675 01b1 9402     		.uleb128 .LEHB57-.LCOLDB27
 2676 01b3 05       		.uleb128 .LEHE57-.LEHB57
 2677 01b4 00       		.uleb128 0
 2678 01b5 00       		.uleb128 0
 2679              	.LLSDACSEC1295:
 2680 01b6 01       		.byte	0x1
 2681 01b7 00       		.byte	0
 2682              		.align 4
 2683 01b8 00000000 		.long	0
 2684              	
 2685              	.LLSDATTC1295:
 2686              		.section	.text.unlikely
 2687              		.text
 2689              		.section	.text.unlikely
 2691              	.LCOLDE27:
 2692              		.text
 2693              	.LHOTE27:
 2694              		.section	.rodata.str1.8
 2695 01b2 00000000 		.align 8
 2695      0000
 2696              	.LC28:
 2697 01b8 6D616372 		.string	"macroTestList1.GetHead() != NULL"
 2697      6F546573 
 2697      744C6973 
 2697      74312E47 
 2697      65744865 
 2698              		.section	.rodata.str1.1
 2699              	.LC29:
 2700 001e 4D616372 		.string	"MacroTestHelper1"
 2700      6F546573 
 2700      7448656C 
 2700      70657231 
 2700      00
 2701              		.section	.rodata.str1.8
 2702 01d9 00000000 		.align 8
 2702      000000
 2703              	.LC30:
 2704 01e0 556E6861 		.string	"Unhandled exception in CHECK(macroTestList1.GetHead() != NULL)"
 2704      6E646C65 
 2704      64206578 
 2704      63657074 
 2704      696F6E20 
 2705 021f 00       		.align 8
 2706              	.LC31:
 2707 0220 556E6861 		.string	"Unhandled exception in CHECK_EQUAL(\"MacroTestHelper1\", macroTestList1.GetHead()->m_deta
 2707      6E646C65 
 2707      64206578 
 2707      63657074 
 2707      696F6E20 
 2708 0285 000000   		.align 8
 2709              	.LC32:
 2710 0288 556E6861 		.string	"Unhandled exception in CHECK_EQUAL(\"DefaultSuite\", macroTestList1.GetHead()->m_details.
 2710      6E646C65 
 2710      64206578 
 2710      63657074 
 2710      696F6E20 
 2711              		.section	.text.unlikely
 2712 02a7 90       		.align 2
 2713              	.LCOLDB33:
 2714              		.text
 2715              	.LHOTB33:
 2716              		.align 2
 2717              		.p2align 4
 2719              	_ZNK12_GLOBAL__N_145TestTestAddedWithTEST_EXMacroGetsDefaultSuite7RunImplEv:
 2720              	.LFB1283:
 2721              		.cfi_startproc
 2722              		.cfi_personality 0x9b,DW.ref.__gxx_personality_v0
 2723              		.cfi_lsda 0x1b,.LLSDA1283
 2724 0890 F30F1EFA 		endbr64
 2725 0894 4155     		pushq	%r13
 2726              		.cfi_def_cfa_offset 16
 2727              		.cfi_offset 13, -16
 2728 0896 4154     		pushq	%r12
 2729              		.cfi_def_cfa_offset 24
 2730              		.cfi_offset 12, -24
 2731 0898 4C8D2500 		leaq	_ZN12_GLOBAL__N_114macroTestList1E(%rip), %r12
 2731      000000
 2732 089f 55       		pushq	%rbp
 2733              		.cfi_def_cfa_offset 32
 2734              		.cfi_offset 6, -32
 2735 08a0 4C89E7   		movq	%r12, %rdi
 2736 08a3 4883EC30 		subq	$48, %rsp
 2737              		.cfi_def_cfa_offset 80
 2738 08a7 64488B04 		movq	%fs:40, %rax
 2738      25280000 
 2738      00
 2739 08b0 48894424 		movq	%rax, 40(%rsp)
 2739      28
 2740 08b5 31C0     		xorl	%eax, %eax
 2741              	.LEHB58:
 2742 08b7 E8000000 		call	_ZNK8UnitTest8TestList7GetHeadEv@PLT
 2742      00
 2743              	.LEHE58:
 2744 08bc 4885C0   		testq	%rax, %rax
 2745 08bf 0F849B00 		je	.L156
 2745      0000
 2746              	.L138:
 2747              	.LEHB59:
 2748 08c5 E8000000 		call	_ZN8UnitTest11CurrentTest7DetailsEv@PLT
 2748      00
 2749 08ca 4889E5   		movq	%rsp, %rbp
 2750 08cd 488B30   		movq	(%rax), %rsi
 2751 08d0 BA5B0000 		movl	$91, %edx
 2751      00
 2752 08d5 4889EF   		movq	%rbp, %rdi
 2753 08d8 E8000000 		call	_ZN8UnitTest11TestDetailsC1ERKS0_i@PLT
 2753      00
 2754 08dd 4C89E7   		movq	%r12, %rdi
 2755 08e0 E8000000 		call	_ZNK8UnitTest8TestList7GetHeadEv@PLT
 2755      00
 2756 08e5 4C8B6810 		movq	16(%rax), %r13
 2757 08e9 E8000000 		call	_ZN8UnitTest11CurrentTest7ResultsEv@PLT
 2757      00
 2758 08ee 488B38   		movq	(%rax), %rdi
 2759 08f1 4889E9   		movq	%rbp, %rcx
 2760 08f4 4C89EA   		movq	%r13, %rdx
 2761 08f7 488D3500 		leaq	.LC29(%rip), %rsi
 2761      000000
 2762 08fe E8000000 		call	_ZN8UnitTest10CheckEqualERNS_11TestResultsEPKcS3_RKNS_11TestDetailsE@PLT
 2762      00
 2763              	.LEHE59:
 2764              	.L142:
 2765              	.LEHB60:
 2766 0903 E8000000 		call	_ZN8UnitTest11CurrentTest7DetailsEv@PLT
 2766      00
 2767 0908 488B30   		movq	(%rax), %rsi
 2768 090b BA5C0000 		movl	$92, %edx
 2768      00
 2769 0910 4889EF   		movq	%rbp, %rdi
 2770 0913 E8000000 		call	_ZN8UnitTest11TestDetailsC1ERKS0_i@PLT
 2770      00
 2771 0918 4C89E7   		movq	%r12, %rdi
 2772 091b E8000000 		call	_ZNK8UnitTest8TestList7GetHeadEv@PLT
 2772      00
 2773 0920 4C8B6008 		movq	8(%rax), %r12
 2774 0924 E8000000 		call	_ZN8UnitTest11CurrentTest7ResultsEv@PLT
 2774      00
 2775 0929 488B38   		movq	(%rax), %rdi
 2776 092c 4889E9   		movq	%rbp, %rcx
 2777 092f 4C89E2   		movq	%r12, %rdx
 2778 0932 488D3500 		leaq	.LC23(%rip), %rsi
 2778      000000
 2779 0939 E8000000 		call	_ZN8UnitTest10CheckEqualERNS_11TestResultsEPKcS3_RKNS_11TestDetailsE@PLT
 2779      00
 2780              	.LEHE60:
 2781 093e 488B4424 		movq	40(%rsp), %rax
 2781      28
 2782 0943 64482B04 		subq	%fs:40, %rax
 2782      25280000 
 2782      00
 2783 094c 7549     		jne	.L157
 2784 094e 4883C430 		addq	$48, %rsp
 2785              		.cfi_remember_state
 2786              		.cfi_def_cfa_offset 32
 2787 0952 5D       		popq	%rbp
 2788              		.cfi_def_cfa_offset 24
 2789 0953 415C     		popq	%r12
 2790              		.cfi_def_cfa_offset 16
 2791 0955 415D     		popq	%r13
 2792              		.cfi_def_cfa_offset 8
 2793 0957 C3       		ret
 2794 0958 0F1F8400 		.p2align 4,,10
 2794      00000000 
 2795              		.p2align 3
 2796              	.L156:
 2797              		.cfi_restore_state
 2798              	.LEHB61:
 2799 0960 E8000000 		call	_ZN8UnitTest11CurrentTest7ResultsEv@PLT
 2799      00
 2800 0965 4C8B28   		movq	(%rax), %r13
 2801 0968 E8000000 		call	_ZN8UnitTest11CurrentTest7DetailsEv@PLT
 2801      00
 2802 096d 4889E5   		movq	%rsp, %rbp
 2803 0970 488B30   		movq	(%rax), %rsi
 2804 0973 BA5A0000 		movl	$90, %edx
 2804      00
 2805 0978 4889EF   		movq	%rbp, %rdi
 2806 097b E8000000 		call	_ZN8UnitTest11TestDetailsC1ERKS0_i@PLT
 2806      00
 2807 0980 488D1500 		leaq	.LC28(%rip), %rdx
 2807      000000
 2808 0987 4889EE   		movq	%rbp, %rsi
 2809 098a 4C89EF   		movq	%r13, %rdi
 2810 098d E8000000 		call	_ZN8UnitTest11TestResults13OnTestFailureERKNS_11TestDetailsEPKc@PLT
 2810      00
 2811              	.LEHE61:
 2812 0992 E92EFFFF 		jmp	.L138
 2812      FF
 2813              	.L157:
 2814 0997 E8000000 		call	__stack_chk_fail@PLT
 2814      00
 2815              	.L152:
 2816 099c F30F1EFA 		endbr64
 2817 09a0 4889C7   		movq	%rax, %rdi
 2818 09a3 E9000000 		jmp	.L144
 2818      00
 2819              	.L150:
 2820 09a8 F30F1EFA 		endbr64
 2821 09ac 4889C7   		movq	%rax, %rdi
 2822 09af E9000000 		jmp	.L141
 2822      00
 2823              	.L148:
 2824 09b4 F30F1EFA 		endbr64
 2825 09b8 4889C7   		movq	%rax, %rdi
 2826 09bb E9000000 		jmp	.L139
 2826      00
 2827              		.section	.gcc_except_table
 2828              		.align 4
 2829              	.LLSDA1283:
 2830 01bc FF       		.byte	0xff
 2831 01bd 9B       		.byte	0x9b
 2832 01be 1D       		.uleb128 .LLSDATT1283-.LLSDATTD1283
 2833              	.LLSDATTD1283:
 2834 01bf 01       		.byte	0x1
 2835 01c0 15       		.uleb128 .LLSDACSE1283-.LLSDACSB1283
 2836              	.LLSDACSB1283:
 2837 01c1 27       		.uleb128 .LEHB58-.LFB1283
 2838 01c2 05       		.uleb128 .LEHE58-.LEHB58
 2839 01c3 A402     		.uleb128 .L148-.LFB1283
 2840 01c5 01       		.uleb128 0x1
 2841 01c6 35       		.uleb128 .LEHB59-.LFB1283
 2842 01c7 3E       		.uleb128 .LEHE59-.LEHB59
 2843 01c8 9802     		.uleb128 .L150-.LFB1283
 2844 01ca 01       		.uleb128 0x1
 2845 01cb 73       		.uleb128 .LEHB60-.LFB1283
 2846 01cc 3B       		.uleb128 .LEHE60-.LEHB60
 2847 01cd 8C02     		.uleb128 .L152-.LFB1283
 2848 01cf 01       		.uleb128 0x1
 2849 01d0 D001     		.uleb128 .LEHB61-.LFB1283
 2850 01d2 32       		.uleb128 .LEHE61-.LEHB61
 2851 01d3 A402     		.uleb128 .L148-.LFB1283
 2852 01d5 01       		.uleb128 0x1
 2853              	.LLSDACSE1283:
 2854 01d6 01       		.byte	0x1
 2855 01d7 00       		.byte	0
 2856              		.align 4
 2857 01d8 00000000 		.long	0
 2858              	
 2859              	.LLSDATT1283:
 2860              		.text
 2861              		.cfi_endproc
 2862              		.section	.text.unlikely
 2863              		.cfi_startproc
 2864              		.cfi_personality 0x9b,DW.ref.__gxx_personality_v0
 2865              		.cfi_lsda 0x1b,.LLSDAC1283
 2867              	_ZNK12_GLOBAL__N_145TestTestAddedWithTEST_EXMacroGetsDefaultSuite7RunImplEv.cold:
 2868              	.LFSB1283:
 2869              	.L144:
 2870              		.cfi_def_cfa_offset 80
 2871              		.cfi_offset 6, -32
 2872              		.cfi_offset 12, -24
 2873              		.cfi_offset 13, -16
 2874 02a8 E8000000 		call	__cxa_begin_catch@PLT
 2874      00
 2875              	.LEHB62:
 2876 02ad E8000000 		call	_ZN8UnitTest11CurrentTest7ResultsEv@PLT
 2876      00
 2877 02b2 4C8B20   		movq	(%rax), %r12
 2878 02b5 E8000000 		call	_ZN8UnitTest11CurrentTest7DetailsEv@PLT
 2878      00
 2879 02ba 488B30   		movq	(%rax), %rsi
 2880 02bd BA5C0000 		movl	$92, %edx
 2880      00
 2881 02c2 4889EF   		movq	%rbp, %rdi
 2882 02c5 E8000000 		call	_ZN8UnitTest11TestDetailsC1ERKS0_i@PLT
 2882      00
 2883 02ca 488D1500 		leaq	.LC32(%rip), %rdx
 2883      000000
 2884 02d1 4889EE   		movq	%rbp, %rsi
 2885 02d4 4C89E7   		movq	%r12, %rdi
 2886 02d7 E8000000 		call	_ZN8UnitTest11TestResults13OnTestFailureERKNS_11TestDetailsEPKc@PLT
 2886      00
 2887              	.LEHE62:
 2888 02dc 488B4424 		movq	40(%rsp), %rax
 2888      28
 2889 02e1 64482B04 		subq	%fs:40, %rax
 2889      25280000 
 2889      00
 2890 02ea 0F859000 		jne	.L158
 2890      0000
 2891 02f0 4883C430 		addq	$48, %rsp
 2892              		.cfi_remember_state
 2893              		.cfi_def_cfa_offset 32
 2894 02f4 5D       		popq	%rbp
 2895              		.cfi_def_cfa_offset 24
 2896 02f5 415C     		popq	%r12
 2897              		.cfi_def_cfa_offset 16
 2898 02f7 415D     		popq	%r13
 2899              		.cfi_def_cfa_offset 8
 2900              	.LEHB63:
 2901 02f9 E9000000 		jmp	__cxa_end_catch@PLT
 2901      00
 2902              	.LEHE63:
 2903              	.L141:
 2904              		.cfi_restore_state
 2905 02fe E8000000 		call	__cxa_begin_catch@PLT
 2905      00
 2906              	.LEHB64:
 2907 0303 E8000000 		call	_ZN8UnitTest11CurrentTest7ResultsEv@PLT
 2907      00
 2908 0308 4C8B28   		movq	(%rax), %r13
 2909 030b E8000000 		call	_ZN8UnitTest11CurrentTest7DetailsEv@PLT
 2909      00
 2910 0310 4889E5   		movq	%rsp, %rbp
 2911 0313 488B30   		movq	(%rax), %rsi
 2912 0316 BA5B0000 		movl	$91, %edx
 2912      00
 2913 031b 4889EF   		movq	%rbp, %rdi
 2914 031e E8000000 		call	_ZN8UnitTest11TestDetailsC1ERKS0_i@PLT
 2914      00
 2915 0323 488D1500 		leaq	.LC31(%rip), %rdx
 2915      000000
 2916 032a 4889EE   		movq	%rbp, %rsi
 2917 032d 4C89EF   		movq	%r13, %rdi
 2918 0330 E8000000 		call	_ZN8UnitTest11TestResults13OnTestFailureERKNS_11TestDetailsEPKc@PLT
 2918      00
 2919              	.LEHE64:
 2920              	.LEHB65:
 2921 0335 E8000000 		call	__cxa_end_catch@PLT
 2921      00
 2922              	.LEHE65:
 2923 033a E9000000 		jmp	.L142
 2923      00
 2924              	.L139:
 2925 033f E8000000 		call	__cxa_begin_catch@PLT
 2925      00
 2926              	.LEHB66:
 2927 0344 E8000000 		call	_ZN8UnitTest11CurrentTest7ResultsEv@PLT
 2927      00
 2928 0349 4C8B28   		movq	(%rax), %r13
 2929 034c E8000000 		call	_ZN8UnitTest11CurrentTest7DetailsEv@PLT
 2929      00
 2930 0351 4889E5   		movq	%rsp, %rbp
 2931 0354 488B30   		movq	(%rax), %rsi
 2932 0357 BA5A0000 		movl	$90, %edx
 2932      00
 2933 035c 4889EF   		movq	%rbp, %rdi
 2934 035f E8000000 		call	_ZN8UnitTest11TestDetailsC1ERKS0_i@PLT
 2934      00
 2935 0364 488D1500 		leaq	.LC30(%rip), %rdx
 2935      000000
 2936 036b 4889EE   		movq	%rbp, %rsi
 2937 036e 4C89EF   		movq	%r13, %rdi
 2938 0371 E8000000 		call	_ZN8UnitTest11TestResults13OnTestFailureERKNS_11TestDetailsEPKc@PLT
 2938      00
 2939              	.LEHE66:
 2940              	.LEHB67:
 2941 0376 E8000000 		call	__cxa_end_catch@PLT
 2941      00
 2942              	.LEHE67:
 2943 037b E9000000 		jmp	.L138
 2943      00
 2944              	.L158:
 2945 0380 E8000000 		call	__stack_chk_fail@PLT
 2945      00
 2946              	.L151:
 2947 0385 F30F1EFA 		endbr64
 2948 0389 4889C5   		movq	%rax, %rbp
 2949 038c E8000000 		call	__cxa_end_catch@PLT
 2949      00
 2950 0391 4889EF   		movq	%rbp, %rdi
 2951              	.LEHB68:
 2952 0394 E8000000 		call	_Unwind_Resume@PLT
 2952      00
 2953              	.LEHE68:
 2954              	.L153:
 2955 0399 F30F1EFA 		endbr64
 2956 039d 4889C5   		movq	%rax, %rbp
 2957 03a0 E8000000 		call	__cxa_end_catch@PLT
 2957      00
 2958 03a5 4889EF   		movq	%rbp, %rdi
 2959              	.LEHB69:
 2960 03a8 E8000000 		call	_Unwind_Resume@PLT
 2960      00
 2961              	.LEHE69:
 2962              	.L149:
 2963 03ad F30F1EFA 		endbr64
 2964 03b1 4889C5   		movq	%rax, %rbp
 2965 03b4 E8000000 		call	__cxa_end_catch@PLT
 2965      00
 2966 03b9 4889EF   		movq	%rbp, %rdi
 2967              	.LEHB70:
 2968 03bc E8000000 		call	_Unwind_Resume@PLT
 2968      00
 2969              	.LEHE70:
 2970              		.cfi_endproc
 2971              	.LFE1283:
 2972              		.section	.gcc_except_table
 2973              		.align 4
 2974              	.LLSDAC1283:
 2975 01dc FF       		.byte	0xff
 2976 01dd 9B       		.byte	0x9b
 2977 01de 35       		.uleb128 .LLSDATTC1283-.LLSDATTDC1283
 2978              	.LLSDATTDC1283:
 2979 01df 01       		.byte	0x1
 2980 01e0 2D       		.uleb128 .LLSDACSEC1283-.LLSDACSBC1283
 2981              	.LLSDACSBC1283:
 2982 01e1 05       		.uleb128 .LEHB62-.LCOLDB33
 2983 01e2 2F       		.uleb128 .LEHE62-.LEHB62
 2984 01e3 F101     		.uleb128 .L153-.LCOLDB33
 2985 01e5 00       		.uleb128 0
 2986 01e6 51       		.uleb128 .LEHB63-.LCOLDB33
 2987 01e7 05       		.uleb128 .LEHE63-.LEHB63
 2988 01e8 00       		.uleb128 0
 2989 01e9 00       		.uleb128 0
 2990 01ea 5B       		.uleb128 .LEHB64-.LCOLDB33
 2991 01eb 32       		.uleb128 .LEHE64-.LEHB64
 2992 01ec DD01     		.uleb128 .L151-.LCOLDB33
 2993 01ee 00       		.uleb128 0
 2994 01ef 8D01     		.uleb128 .LEHB65-.LCOLDB33
 2995 01f1 05       		.uleb128 .LEHE65-.LEHB65
 2996 01f2 00       		.uleb128 0
 2997 01f3 00       		.uleb128 0
 2998 01f4 9C01     		.uleb128 .LEHB66-.LCOLDB33
 2999 01f6 32       		.uleb128 .LEHE66-.LEHB66
 3000 01f7 8502     		.uleb128 .L149-.LCOLDB33
 3001 01f9 00       		.uleb128 0
 3002 01fa CE01     		.uleb128 .LEHB67-.LCOLDB33
 3003 01fc 05       		.uleb128 .LEHE67-.LEHB67
 3004 01fd 00       		.uleb128 0
 3005 01fe 00       		.uleb128 0
 3006 01ff EC01     		.uleb128 .LEHB68-.LCOLDB33
 3007 0201 05       		.uleb128 .LEHE68-.LEHB68
 3008 0202 00       		.uleb128 0
 3009 0203 00       		.uleb128 0
 3010 0204 8002     		.uleb128 .LEHB69-.LCOLDB33
 3011 0206 05       		.uleb128 .LEHE69-.LEHB69
 3012 0207 00       		.uleb128 0
 3013 0208 00       		.uleb128 0
 3014 0209 9402     		.uleb128 .LEHB70-.LCOLDB33
 3015 020b 05       		.uleb128 .LEHE70-.LEHB70
 3016 020c 00       		.uleb128 0
 3017 020d 00       		.uleb128 0
 3018              	.LLSDACSEC1283:
 3019 020e 01       		.byte	0x1
 3020 020f 00       		.byte	0
 3021              		.align 4
 3022 0210 00000000 		.long	0
 3023              	
 3024              	.LLSDATTC1283:
 3025              		.section	.text.unlikely
 3026              		.text
 3028              		.section	.text.unlikely
 3030              	.LCOLDE33:
 3031              		.text
 3032              	.LHOTE33:
 3033              		.section	.rodata.str1.1
 3034              	.LC34:
 3035 002f 6C697374 		.string	"list1.GetHead() != 0"
 3035      312E4765 
 3035      74486561 
 3035      64282920 
 3035      213D2030 
 3036              	.LC35:
 3037 0044 6C697374 		.string	"list1.GetHead()->next == 0"
 3037      312E4765 
 3037      74486561 
 3037      6428292D 
 3037      3E6E6578 
 3038              		.section	.rodata.str1.8
 3039 02ea 00000000 		.align 8
 3039      0000
 3040              	.LC36:
 3041 02f0 556E6861 		.string	"Unhandled exception in CHECK(list1.GetHead() != 0)"
 3041      6E646C65 
 3041      64206578 
 3041      63657074 
 3041      696F6E20 
 3042 0323 00000000 		.align 8
 3042      00
 3043              	.LC37:
 3044 0328 556E6861 		.string	"Unhandled exception in CHECK(list1.GetHead()->next == 0)"
 3044      6E646C65 
 3044      64206578 
 3044      63657074 
 3044      696F6E20 
 3045              		.section	.text.unlikely
 3046 03c1 90       		.align 2
 3047              	.LCOLDB38:
 3048              		.text
 3049              	.LHOTB38:
 3050              		.align 2
 3051              		.p2align 4
 3053              	_ZNK12_GLOBAL__N_138TestTestsAreAddedToTheListThroughMacro7RunImplEv:
 3054              	.LFB1234:
 3055              		.cfi_startproc
 3056              		.cfi_personality 0x9b,DW.ref.__gxx_personality_v0
 3057              		.cfi_lsda 0x1b,.LLSDA1234
 3058 09c0 F30F1EFA 		endbr64
 3059 09c4 4155     		pushq	%r13
 3060              		.cfi_def_cfa_offset 16
 3061              		.cfi_offset 13, -16
 3062 09c6 4154     		pushq	%r12
 3063              		.cfi_def_cfa_offset 24
 3064              		.cfi_offset 12, -24
 3065 09c8 55       		pushq	%rbp
 3066              		.cfi_def_cfa_offset 32
 3067              		.cfi_offset 6, -32
 3068 09c9 488D2D00 		leaq	_ZN12_GLOBAL__N_15list1E(%rip), %rbp
 3068      000000
 3069 09d0 4889EF   		movq	%rbp, %rdi
 3070 09d3 4883EC30 		subq	$48, %rsp
 3071              		.cfi_def_cfa_offset 80
 3072 09d7 64488B04 		movq	%fs:40, %rax
 3072      25280000 
 3072      00
 3073 09e0 48894424 		movq	%rax, 40(%rsp)
 3073      28
 3074 09e5 31C0     		xorl	%eax, %eax
 3075              	.LEHB71:
 3076 09e7 E8000000 		call	_ZNK8UnitTest8TestList7GetHeadEv@PLT
 3076      00
 3077              	.LEHE71:
 3078 09ec 4885C0   		testq	%rax, %rax
 3079 09ef 745F     		je	.L173
 3080              	.L160:
 3081 09f1 4889EF   		movq	%rbp, %rdi
 3082              	.LEHB72:
 3083 09f4 E8000000 		call	_ZNK8UnitTest8TestList7GetHeadEv@PLT
 3083      00
 3084 09f9 48837828 		cmpq	$0, 40(%rax)
 3084      00
 3085 09fe 7432     		je	.L159
 3086 0a00 E8000000 		call	_ZN8UnitTest11CurrentTest7ResultsEv@PLT
 3086      00
 3087 0a05 488B28   		movq	(%rax), %rbp
 3088 0a08 E8000000 		call	_ZN8UnitTest11CurrentTest7DetailsEv@PLT
 3088      00
 3089 0a0d 4989E4   		movq	%rsp, %r12
 3090 0a10 488B30   		movq	(%rax), %rsi
 3091 0a13 BA160000 		movl	$22, %edx
 3091      00
 3092 0a18 4C89E7   		movq	%r12, %rdi
 3093 0a1b E8000000 		call	_ZN8UnitTest11TestDetailsC1ERKS0_i@PLT
 3093      00
 3094 0a20 488D1500 		leaq	.LC35(%rip), %rdx
 3094      000000
 3095 0a27 4C89E6   		movq	%r12, %rsi
 3096 0a2a 4889EF   		movq	%rbp, %rdi
 3097 0a2d E8000000 		call	_ZN8UnitTest11TestResults13OnTestFailureERKNS_11TestDetailsEPKc@PLT
 3097      00
 3098              	.LEHE72:
 3099              	.L159:
 3100 0a32 488B4424 		movq	40(%rsp), %rax
 3100      28
 3101 0a37 64482B04 		subq	%fs:40, %rax
 3101      25280000 
 3101      00
 3102 0a40 7545     		jne	.L174
 3103 0a42 4883C430 		addq	$48, %rsp
 3104              		.cfi_remember_state
 3105              		.cfi_def_cfa_offset 32
 3106 0a46 5D       		popq	%rbp
 3107              		.cfi_def_cfa_offset 24
 3108 0a47 415C     		popq	%r12
 3109              		.cfi_def_cfa_offset 16
 3110 0a49 415D     		popq	%r13
 3111              		.cfi_def_cfa_offset 8
 3112 0a4b C3       		ret
 3113 0a4c 0F1F4000 		.p2align 4,,10
 3114              		.p2align 3
 3115              	.L173:
 3116              		.cfi_restore_state
 3117              	.LEHB73:
 3118 0a50 E8000000 		call	_ZN8UnitTest11CurrentTest7ResultsEv@PLT
 3118      00
 3119 0a55 4C8B28   		movq	(%rax), %r13
 3120 0a58 E8000000 		call	_ZN8UnitTest11CurrentTest7DetailsEv@PLT
 3120      00
 3121 0a5d 4989E4   		movq	%rsp, %r12
 3122 0a60 488B30   		movq	(%rax), %rsi
 3123 0a63 BA150000 		movl	$21, %edx
 3123      00
 3124 0a68 4C89E7   		movq	%r12, %rdi
 3125 0a6b E8000000 		call	_ZN8UnitTest11TestDetailsC1ERKS0_i@PLT
 3125      00
 3126 0a70 488D1500 		leaq	.LC34(%rip), %rdx
 3126      000000
 3127 0a77 4C89E6   		movq	%r12, %rsi
 3128 0a7a 4C89EF   		movq	%r13, %rdi
 3129 0a7d E8000000 		call	_ZN8UnitTest11TestResults13OnTestFailureERKNS_11TestDetailsEPKc@PLT
 3129      00
 3130              	.LEHE73:
 3131 0a82 E96AFFFF 		jmp	.L160
 3131      FF
 3132              	.L174:
 3133 0a87 E8000000 		call	__stack_chk_fail@PLT
 3133      00
 3134              	.L168:
 3135 0a8c F30F1EFA 		endbr64
 3136 0a90 4889C7   		movq	%rax, %rdi
 3137 0a93 E9000000 		jmp	.L162
 3137      00
 3138              	.L170:
 3139 0a98 F30F1EFA 		endbr64
 3140 0a9c 4889C7   		movq	%rax, %rdi
 3141 0a9f E9000000 		jmp	.L164
 3141      00
 3142              		.section	.gcc_except_table
 3143              		.align 4
 3144              	.LLSDA1234:
 3145 0214 FF       		.byte	0xff
 3146 0215 9B       		.byte	0x9b
 3147 0216 19       		.uleb128 .LLSDATT1234-.LLSDATTD1234
 3148              	.LLSDATTD1234:
 3149 0217 01       		.byte	0x1
 3150 0218 10       		.uleb128 .LLSDACSE1234-.LLSDACSB1234
 3151              	.LLSDACSB1234:
 3152 0219 27       		.uleb128 .LEHB71-.LFB1234
 3153 021a 05       		.uleb128 .LEHE71-.LEHB71
 3154 021b CC01     		.uleb128 .L168-.LFB1234
 3155 021d 01       		.uleb128 0x1
 3156 021e 34       		.uleb128 .LEHB72-.LFB1234
 3157 021f 3E       		.uleb128 .LEHE72-.LEHB72
 3158 0220 D801     		.uleb128 .L170-.LFB1234
 3159 0222 01       		.uleb128 0x1
 3160 0223 9001     		.uleb128 .LEHB73-.LFB1234
 3161 0225 32       		.uleb128 .LEHE73-.LEHB73
 3162 0226 CC01     		.uleb128 .L168-.LFB1234
 3163 0228 01       		.uleb128 0x1
 3164              	.LLSDACSE1234:
 3165 0229 01       		.byte	0x1
 3166 022a 00       		.byte	0
 3167 022b 00       		.align 4
 3168 022c 00000000 		.long	0
 3169              	
 3170              	.LLSDATT1234:
 3171              		.text
 3172              		.cfi_endproc
 3173              		.section	.text.unlikely
 3174              		.cfi_startproc
 3175              		.cfi_personality 0x9b,DW.ref.__gxx_personality_v0
 3176              		.cfi_lsda 0x1b,.LLSDAC1234
 3178              	_ZNK12_GLOBAL__N_138TestTestsAreAddedToTheListThroughMacro7RunImplEv.cold:
 3179              	.LFSB1234:
 3180              	.L162:
 3181              		.cfi_def_cfa_offset 80
 3182              		.cfi_offset 6, -32
 3183              		.cfi_offset 12, -24
 3184              		.cfi_offset 13, -16
 3185 03c2 E8000000 		call	__cxa_begin_catch@PLT
 3185      00
 3186              	.LEHB74:
 3187 03c7 E8000000 		call	_ZN8UnitTest11CurrentTest7ResultsEv@PLT
 3187      00
 3188 03cc 4C8B28   		movq	(%rax), %r13
 3189 03cf E8000000 		call	_ZN8UnitTest11CurrentTest7DetailsEv@PLT
 3189      00
 3190 03d4 4989E4   		movq	%rsp, %r12
 3191 03d7 488B30   		movq	(%rax), %rsi
 3192 03da BA150000 		movl	$21, %edx
 3192      00
 3193 03df 4C89E7   		movq	%r12, %rdi
 3194 03e2 E8000000 		call	_ZN8UnitTest11TestDetailsC1ERKS0_i@PLT
 3194      00
 3195 03e7 488D1500 		leaq	.LC36(%rip), %rdx
 3195      000000
 3196 03ee 4C89E6   		movq	%r12, %rsi
 3197 03f1 4C89EF   		movq	%r13, %rdi
 3198 03f4 E8000000 		call	_ZN8UnitTest11TestResults13OnTestFailureERKNS_11TestDetailsEPKc@PLT
 3198      00
 3199              	.LEHE74:
 3200              	.LEHB75:
 3201 03f9 E8000000 		call	__cxa_end_catch@PLT
 3201      00
 3202              	.LEHE75:
 3203 03fe E9000000 		jmp	.L160
 3203      00
 3204              	.L164:
 3205 0403 E8000000 		call	__cxa_begin_catch@PLT
 3205      00
 3206              	.LEHB76:
 3207 0408 E8000000 		call	_ZN8UnitTest11CurrentTest7ResultsEv@PLT
 3207      00
 3208 040d 488B28   		movq	(%rax), %rbp
 3209 0410 E8000000 		call	_ZN8UnitTest11CurrentTest7DetailsEv@PLT
 3209      00
 3210 0415 4989E4   		movq	%rsp, %r12
 3211 0418 488B30   		movq	(%rax), %rsi
 3212 041b BA160000 		movl	$22, %edx
 3212      00
 3213 0420 4C89E7   		movq	%r12, %rdi
 3214 0423 E8000000 		call	_ZN8UnitTest11TestDetailsC1ERKS0_i@PLT
 3214      00
 3215 0428 488D1500 		leaq	.LC37(%rip), %rdx
 3215      000000
 3216 042f 4C89E6   		movq	%r12, %rsi
 3217 0432 4889EF   		movq	%rbp, %rdi
 3218 0435 E8000000 		call	_ZN8UnitTest11TestResults13OnTestFailureERKNS_11TestDetailsEPKc@PLT
 3218      00
 3219              	.LEHE76:
 3220 043a 488B4424 		movq	40(%rsp), %rax
 3220      28
 3221 043f 64482B04 		subq	%fs:40, %rax
 3221      25280000 
 3221      00
 3222 0448 7522     		jne	.L175
 3223 044a 4883C430 		addq	$48, %rsp
 3224              		.cfi_remember_state
 3225              		.cfi_def_cfa_offset 32
 3226 044e 5D       		popq	%rbp
 3227              		.cfi_def_cfa_offset 24
 3228 044f 415C     		popq	%r12
 3229              		.cfi_def_cfa_offset 16
 3230 0451 415D     		popq	%r13
 3231              		.cfi_def_cfa_offset 8
 3232              	.LEHB77:
 3233 0453 E9000000 		jmp	__cxa_end_catch@PLT
 3233      00
 3234              	.LEHE77:
 3235              	.L169:
 3236              		.cfi_restore_state
 3237 0458 F30F1EFA 		endbr64
 3238 045c 4889C5   		movq	%rax, %rbp
 3239 045f E8000000 		call	__cxa_end_catch@PLT
 3239      00
 3240 0464 4889EF   		movq	%rbp, %rdi
 3241              	.LEHB78:
 3242 0467 E8000000 		call	_Unwind_Resume@PLT
 3242      00
 3243              	.LEHE78:
 3244              	.L175:
 3245 046c E8000000 		call	__stack_chk_fail@PLT
 3245      00
 3246              	.L171:
 3247 0471 F30F1EFA 		endbr64
 3248 0475 4889C5   		movq	%rax, %rbp
 3249 0478 E8000000 		call	__cxa_end_catch@PLT
 3249      00
 3250 047d 4889EF   		movq	%rbp, %rdi
 3251              	.LEHB79:
 3252 0480 E8000000 		call	_Unwind_Resume@PLT
 3252      00
 3253              	.LEHE79:
 3254              		.cfi_endproc
 3255              	.LFE1234:
 3256              		.section	.gcc_except_table
 3257              		.align 4
 3258              	.LLSDAC1234:
 3259 0230 FF       		.byte	0xff
 3260 0231 9B       		.byte	0x9b
 3261 0232 25       		.uleb128 .LLSDATTC1234-.LLSDATTDC1234
 3262              	.LLSDATTDC1234:
 3263 0233 01       		.byte	0x1
 3264 0234 1D       		.uleb128 .LLSDACSEC1234-.LLSDACSBC1234
 3265              	.LLSDACSBC1234:
 3266 0235 05       		.uleb128 .LEHB74-.LCOLDB38
 3267 0236 32       		.uleb128 .LEHE74-.LEHB74
 3268 0237 9601     		.uleb128 .L169-.LCOLDB38
 3269 0239 00       		.uleb128 0
 3270 023a 37       		.uleb128 .LEHB75-.LCOLDB38
 3271 023b 05       		.uleb128 .LEHE75-.LEHB75
 3272 023c 00       		.uleb128 0
 3273 023d 00       		.uleb128 0
 3274 023e 46       		.uleb128 .LEHB76-.LCOLDB38
 3275 023f 32       		.uleb128 .LEHE76-.LEHB76
 3276 0240 AF01     		.uleb128 .L171-.LCOLDB38
 3277 0242 00       		.uleb128 0
 3278 0243 9101     		.uleb128 .LEHB77-.LCOLDB38
 3279 0245 05       		.uleb128 .LEHE77-.LEHB77
 3280 0246 00       		.uleb128 0
 3281 0247 00       		.uleb128 0
 3282 0248 A501     		.uleb128 .LEHB78-.LCOLDB38
 3283 024a 05       		.uleb128 .LEHE78-.LEHB78
 3284 024b 00       		.uleb128 0
 3285 024c 00       		.uleb128 0
 3286 024d BE01     		.uleb128 .LEHB79-.LCOLDB38
 3287 024f 05       		.uleb128 .LEHE79-.LEHB79
 3288 0250 00       		.uleb128 0
 3289 0251 00       		.uleb128 0
 3290              	.LLSDACSEC1234:
 3291 0252 01       		.byte	0x1
 3292 0253 00       		.byte	0
 3293              		.align 4
 3294 0254 00000000 		.long	0
 3295              	
 3296              	.LLSDATTC1234:
 3297              		.section	.text.unlikely
 3298              		.text
 3300              		.section	.text.unlikely
 3302              	.LCOLDE38:
 3303              		.text
 3304              	.LHOTE38:
 3305              		.section	.text._ZN17RecordingReporter15ReportTestStartERKN8UnitTest11TestDetailsE,"axG",@progbits,
 3306              		.align 2
 3307              		.p2align 4
 3308              		.weak	_ZN17RecordingReporter15ReportTestStartERKN8UnitTest11TestDetailsE
 3310              	_ZN17RecordingReporter15ReportTestStartERKN8UnitTest11TestDetailsE:
 3311              	.LFB1214:
 3312              		.cfi_startproc
 3313 0000 F30F1EFA 		endbr64
 3314 0004 55       		pushq	%rbp
 3315              		.cfi_def_cfa_offset 16
 3316              		.cfi_offset 6, -16
 3317 0005 4889F5   		movq	%rsi, %rbp
 3318 0008 BA000100 		movl	$256, %edx
 3318      00
 3319 000d 53       		pushq	%rbx
 3320              		.cfi_def_cfa_offset 24
 3321              		.cfi_offset 3, -24
 3322 000e 4889FB   		movq	%rdi, %rbx
 3323 0011 4883EC08 		subq	$8, %rsp
 3324              		.cfi_def_cfa_offset 32
 3325 0015 83470801 		addl	$1, 8(%rdi)
 3326 0019 488B36   		movq	(%rsi), %rsi
 3327 001c 488D7F0C 		leaq	12(%rdi), %rdi
 3328 0020 E8000000 		call	__strcpy_chk@PLT
 3328      00
 3329 0025 488B7508 		movq	8(%rbp), %rsi
 3330 0029 4883C408 		addq	$8, %rsp
 3331              		.cfi_def_cfa_offset 24
 3332 002d 488DBB0C 		leaq	268(%rbx), %rdi
 3332      010000
 3333 0034 BA000100 		movl	$256, %edx
 3333      00
 3334 0039 5B       		popq	%rbx
 3335              		.cfi_def_cfa_offset 16
 3336 003a 5D       		popq	%rbp
 3337              		.cfi_def_cfa_offset 8
 3338 003b E9000000 		jmp	__strcpy_chk@PLT
 3338      00
 3339              		.cfi_endproc
 3340              	.LFE1214:
 3342              		.section	.text._ZN17RecordingReporter13ReportFailureERKN8UnitTest11TestDetailsEPKc,"axG",@progbits
 3343              		.align 2
 3344              		.p2align 4
 3345              		.weak	_ZN17RecordingReporter13ReportFailureERKN8UnitTest11TestDetailsEPKc
 3347              	_ZN17RecordingReporter13ReportFailureERKN8UnitTest11TestDetailsEPKc:
 3348              	.LFB1215:
 3349              		.cfi_startproc
 3350 0000 F30F1EFA 		endbr64
 3351 0004 4154     		pushq	%r12
 3352              		.cfi_def_cfa_offset 16
 3353              		.cfi_offset 12, -16
 3354 0006 4989D4   		movq	%rdx, %r12
 3355 0009 BA000100 		movl	$256, %edx
 3355      00
 3356 000e 55       		pushq	%rbp
 3357              		.cfi_def_cfa_offset 24
 3358              		.cfi_offset 6, -24
 3359 000f 4889F5   		movq	%rsi, %rbp
 3360 0012 53       		pushq	%rbx
 3361              		.cfi_def_cfa_offset 32
 3362              		.cfi_offset 3, -32
 3363 0013 488B7610 		movq	16(%rsi), %rsi
 3364 0017 4889FB   		movq	%rdi, %rbx
 3365 001a 83870C02 		addl	$1, 524(%rdi)
 3365      000001
 3366 0021 488DBF10 		leaq	528(%rdi), %rdi
 3366      020000
 3367 0028 E8000000 		call	__strcpy_chk@PLT
 3367      00
 3368 002d 8B4518   		movl	24(%rbp), %eax
 3369 0030 488B7500 		movq	0(%rbp), %rsi
 3370 0034 488DBB14 		leaq	788(%rbx), %rdi
 3370      030000
 3371 003b BA000100 		movl	$256, %edx
 3371      00
 3372 0040 89831003 		movl	%eax, 784(%rbx)
 3372      0000
 3373 0046 E8000000 		call	__strcpy_chk@PLT
 3373      00
 3374 004b 488B7508 		movq	8(%rbp), %rsi
 3375 004f BA000100 		movl	$256, %edx
 3375      00
 3376 0054 488DBB14 		leaq	1044(%rbx), %rdi
 3376      040000
 3377 005b E8000000 		call	__strcpy_chk@PLT
 3377      00
 3378 0060 488DBB14 		leaq	1300(%rbx), %rdi
 3378      050000
 3379 0067 4C89E6   		movq	%r12, %rsi
 3380 006a 5B       		popq	%rbx
 3381              		.cfi_def_cfa_offset 24
 3382 006b BA000100 		movl	$256, %edx
 3382      00
 3383 0070 5D       		popq	%rbp
 3384              		.cfi_def_cfa_offset 16
 3385 0071 415C     		popq	%r12
 3386              		.cfi_def_cfa_offset 8
 3387 0073 E9000000 		jmp	__strcpy_chk@PLT
 3387      00
 3388              		.cfi_endproc
 3389              	.LFE1215:
 3391              		.section	.text._ZN17RecordingReporter16ReportTestFinishERKN8UnitTest11TestDetailsEf,"axG",@progbit
 3392              		.align 2
 3393              		.p2align 4
 3394              		.weak	_ZN17RecordingReporter16ReportTestFinishERKN8UnitTest11TestDetailsEf
 3396              	_ZN17RecordingReporter16ReportTestFinishERKN8UnitTest11TestDetailsEf:
 3397              	.LFB1216:
 3398              		.cfi_startproc
 3399 0000 F30F1EFA 		endbr64
 3400 0004 55       		pushq	%rbp
 3401              		.cfi_def_cfa_offset 16
 3402              		.cfi_offset 6, -16
 3403 0005 4889F5   		movq	%rsi, %rbp
 3404 0008 BA000100 		movl	$256, %edx
 3404      00
 3405 000d 53       		pushq	%rbx
 3406              		.cfi_def_cfa_offset 24
 3407              		.cfi_offset 3, -24
 3408 000e 4889FB   		movq	%rdi, %rbx
 3409 0011 4883EC18 		subq	$24, %rsp
 3410              		.cfi_def_cfa_offset 48
 3411 0015 83871406 		addl	$1, 1556(%rdi)
 3411      000001
 3412 001c 488B36   		movq	(%rsi), %rsi
 3413 001f 488DBF18 		leaq	1560(%rdi), %rdi
 3413      060000
 3414 0026 F30F1144 		movss	%xmm0, 12(%rsp)
 3414      240C
 3415 002c E8000000 		call	__strcpy_chk@PLT
 3415      00
 3416 0031 488B7508 		movq	8(%rbp), %rsi
 3417 0035 BA000100 		movl	$256, %edx
 3417      00
 3418 003a 488DBB18 		leaq	1816(%rbx), %rdi
 3418      070000
 3419 0041 E8000000 		call	__strcpy_chk@PLT
 3419      00
 3420 0046 F30F1044 		movss	12(%rsp), %xmm0
 3420      240C
 3421 004c F30F1183 		movss	%xmm0, 2072(%rbx)
 3421      18080000 
 3422 0054 4883C418 		addq	$24, %rsp
 3423              		.cfi_def_cfa_offset 24
 3424 0058 5B       		popq	%rbx
 3425              		.cfi_def_cfa_offset 16
 3426 0059 5D       		popq	%rbp
 3427              		.cfi_def_cfa_offset 8
 3428 005a C3       		ret
 3429              		.cfi_endproc
 3430              	.LFE1216:
 3432              		.section	.text._ZN17RecordingReporterD2Ev,"axG",@progbits,_ZN17RecordingReporterD5Ev,comdat
 3433              		.align 2
 3434              		.p2align 4
 3435              		.weak	_ZN17RecordingReporterD2Ev
 3437              	_ZN17RecordingReporterD2Ev:
 3438              	.LFB1523:
 3439              		.cfi_startproc
 3440 0000 F30F1EFA 		endbr64
 3441 0004 488D0500 		leaq	16+_ZTV17RecordingReporter(%rip), %rax
 3441      000000
 3442 000b 488907   		movq	%rax, (%rdi)
 3443 000e E9000000 		jmp	_ZN8UnitTest12TestReporterD2Ev@PLT
 3443      00
 3444              		.cfi_endproc
 3445              	.LFE1523:
 3447              		.weak	_ZN17RecordingReporterD1Ev
 3448              		.set	_ZN17RecordingReporterD1Ev,_ZN17RecordingReporterD2Ev
 3449              		.section	.text._ZN17RecordingReporterD0Ev,"axG",@progbits,_ZN17RecordingReporterD5Ev,comdat
 3450              		.align 2
 3451              		.p2align 4
 3452              		.weak	_ZN17RecordingReporterD0Ev
 3454              	_ZN17RecordingReporterD0Ev:
 3455              	.LFB1525:
 3456              		.cfi_startproc
 3457              		.cfi_personality 0x9b,DW.ref.__gxx_personality_v0
 3458              		.cfi_lsda 0x1b,.LLSDA1525
 3459 0000 F30F1EFA 		endbr64
 3460 0004 4154     		pushq	%r12
 3461              		.cfi_def_cfa_offset 16
 3462              		.cfi_offset 12, -16
 3463 0006 488D0500 		leaq	16+_ZTV17RecordingReporter(%rip), %rax
 3463      000000
 3464 000d 55       		pushq	%rbp
 3465              		.cfi_def_cfa_offset 24
 3466              		.cfi_offset 6, -24
 3467 000e 4889FD   		movq	%rdi, %rbp
 3468 0011 4883EC08 		subq	$8, %rsp
 3469              		.cfi_def_cfa_offset 32
 3470 0015 488907   		movq	%rax, (%rdi)
 3471              	.LEHB80:
 3472 0018 E8000000 		call	_ZN8UnitTest12TestReporterD2Ev@PLT
 3472      00
 3473              	.LEHE80:
 3474 001d 4883C408 		addq	$8, %rsp
 3475              		.cfi_remember_state
 3476              		.cfi_def_cfa_offset 24
 3477 0021 4889EF   		movq	%rbp, %rdi
 3478 0024 5D       		popq	%rbp
 3479              		.cfi_def_cfa_offset 16
 3480 0025 415C     		popq	%r12
 3481              		.cfi_def_cfa_offset 8
 3482 0027 E9000000 		jmp	_ZdlPv@PLT
 3482      00
 3483              	.L185:
 3484              		.cfi_restore_state
 3485 002c F30F1EFA 		endbr64
 3486 0030 4989C4   		movq	%rax, %r12
 3487              	.L184:
 3488 0033 4889EF   		movq	%rbp, %rdi
 3489 0036 E8000000 		call	_ZdlPv@PLT
 3489      00
 3490 003b 4C89E7   		movq	%r12, %rdi
 3491              	.LEHB81:
 3492 003e E8000000 		call	_Unwind_Resume@PLT
 3492      00
 3493              	.LEHE81:
 3494              		.cfi_endproc
 3495              	.LFE1525:
 3496              		.section	.gcc_except_table
 3497              	.LLSDA1525:
 3498 0258 FF       		.byte	0xff
 3499 0259 FF       		.byte	0xff
 3500 025a 01       		.byte	0x1
 3501 025b 08       		.uleb128 .LLSDACSE1525-.LLSDACSB1525
 3502              	.LLSDACSB1525:
 3503 025c 18       		.uleb128 .LEHB80-.LFB1525
 3504 025d 05       		.uleb128 .LEHE80-.LEHB80
 3505 025e 2C       		.uleb128 .L185-.LFB1525
 3506 025f 00       		.uleb128 0
 3507 0260 3E       		.uleb128 .LEHB81-.LFB1525
 3508 0261 05       		.uleb128 .LEHE81-.LEHB81
 3509 0262 00       		.uleb128 0
 3510 0263 00       		.uleb128 0
 3511              	.LLSDACSE1525:
 3512              		.section	.text._ZN17RecordingReporterD0Ev,"axG",@progbits,_ZN17RecordingReporterD5Ev,comdat
 3514              		.section	.rodata.str1.1
 3515              	.LC39:
 3516 005f 65786365 		.string	"exception"
 3516      7074696F 
 3516      6E00
 3517              		.section	.text.unlikely
 3518 0485 90       		.align 2
 3520              	_ZN12_GLOBAL__N_117FixtureDtorThrowsD2Ev.constprop.0:
 3521              	.LFB1535:
 3522              		.cfi_startproc
 3523 0486 50       		pushq	%rax
 3524              		.cfi_def_cfa_offset 16
 3525 0487 58       		popq	%rax
 3526              		.cfi_def_cfa_offset 8
 3527 0488 BF080000 		movl	$8, %edi
 3527      00
 3528 048d 50       		pushq	%rax
 3529              		.cfi_def_cfa_offset 16
 3530 048e E8000000 		call	__cxa_allocate_exception@PLT
 3530      00
 3531 0493 31D2     		xorl	%edx, %edx
 3532 0495 488D3500 		leaq	_ZTIPKc(%rip), %rsi
 3532      000000
 3533 049c 4889C7   		movq	%rax, %rdi
 3534 049f 488D0500 		leaq	.LC39(%rip), %rax
 3534      000000
 3535 04a6 488907   		movq	%rax, (%rdi)
 3536 04a9 E8000000 		call	__cxa_throw@PLT
 3536      00
 3537              		.cfi_endproc
 3538              	.LFE1535:
 3540              		.section	.text._ZN8UnitTest15MemoryOutStreamD1Ev,"axG",@progbits,_ZN8UnitTest15MemoryOutStreamD1Ev
 3541              		.align 2
 3542              		.p2align 4
 3543              		.weak	_ZN8UnitTest15MemoryOutStreamD1Ev
 3545              	_ZN8UnitTest15MemoryOutStreamD1Ev:
 3546              	.LFB1528:
 3547              		.cfi_startproc
 3548 0000 F30F1EFA 		endbr64
 3549 0004 55       		pushq	%rbp
 3550              		.cfi_def_cfa_offset 16
 3551              		.cfi_offset 6, -16
 3552 0005 488D0500 		leaq	24+_ZTVN8UnitTest15MemoryOutStreamE(%rip), %rax
 3552      000000
 3553 000c 53       		pushq	%rbx
 3554              		.cfi_def_cfa_offset 24
 3555              		.cfi_offset 3, -24
 3556 000d 4889FB   		movq	%rdi, %rbx
 3557 0010 4883EC08 		subq	$8, %rsp
 3558              		.cfi_def_cfa_offset 32
 3559 0014 488907   		movq	%rax, (%rdi)
 3560 0017 4883C028 		addq	$40, %rax
 3561 001b 48898790 		movq	%rax, 144(%rdi)
 3561      000000
 3562 0022 488B7F70 		movq	112(%rdi), %rdi
 3563 0026 488D8380 		leaq	128(%rbx), %rax
 3563      000000
 3564 002d 4839C7   		cmpq	%rax, %rdi
 3565 0030 7405     		je	.L190
 3566 0032 E8000000 		call	_ZdlPv@PLT
 3566      00
 3567              	.L190:
 3568 0037 488D0500 		leaq	64+_ZTCN8UnitTest15MemoryOutStreamE0_NSt7__cxx1119basic_ostringstreamIcSt11char_traitsIcESaIc
 3568      000000
 3569 003e 488D1500 		leaq	24+_ZTCN8UnitTest15MemoryOutStreamE0_NSt7__cxx1119basic_ostringstreamIcSt11char_traitsIcESaIc
 3569      000000
 3570 0045 488B7B50 		movq	80(%rbx), %rdi
 3571 0049 48898390 		movq	%rax, 144(%rbx)
 3571      000000
 3572 0050 488D0500 		leaq	16+_ZTVNSt7__cxx1115basic_stringbufIcSt11char_traitsIcESaIcEEE(%rip), %rax
 3572      000000
 3573 0057 66480F6E 		movq	%rdx, %xmm0
 3573      C2
 3574 005c 488DAB90 		leaq	144(%rbx), %rbp
 3574      000000
 3575 0063 66480F6E 		movq	%rax, %xmm1
 3575      C8
 3576 0068 488D4360 		leaq	96(%rbx), %rax
 3577 006c 660F6CC1 		punpcklqdq	%xmm1, %xmm0
 3578 0070 0F1103   		movups	%xmm0, (%rbx)
 3579 0073 4839C7   		cmpq	%rax, %rdi
 3580 0076 7405     		je	.L191
 3581 0078 E8000000 		call	_ZdlPv@PLT
 3581      00
 3582              	.L191:
 3583 007d 488D0500 		leaq	16+_ZTVSt15basic_streambufIcSt11char_traitsIcEE(%rip), %rax
 3583      000000
 3584 0084 488D7B40 		leaq	64(%rbx), %rdi
 3585 0088 48894308 		movq	%rax, 8(%rbx)
 3586 008c E8000000 		call	_ZNSt6localeD1Ev@PLT
 3586      00
 3587 0091 488D0500 		leaq	24+_ZTCN8UnitTest15MemoryOutStreamE0_So(%rip), %rax
 3587      000000
 3588 0098 4889EF   		movq	%rbp, %rdi
 3589 009b 488903   		movq	%rax, (%rbx)
 3590 009e 488D0500 		leaq	16+_ZTVSt9basic_iosIcSt11char_traitsIcEE(%rip), %rax
 3590      000000
 3591 00a5 48898390 		movq	%rax, 144(%rbx)
 3591      000000
 3592 00ac 4883C408 		addq	$8, %rsp
 3593              		.cfi_def_cfa_offset 24
 3594 00b0 5B       		popq	%rbx
 3595              		.cfi_def_cfa_offset 16
 3596 00b1 5D       		popq	%rbp
 3597              		.cfi_def_cfa_offset 8
 3598 00b2 E9000000 		jmp	_ZNSt8ios_baseD2Ev@PLT
 3598      00
 3599              		.cfi_endproc
 3600              	.LFE1528:
 3602 00b7 660F1F84 		.p2align 4
 3602      00000000 
 3602      00
 3603              		.weak	_ZTv0_n24_N8UnitTest15MemoryOutStreamD1Ev
 3605              	_ZTv0_n24_N8UnitTest15MemoryOutStreamD1Ev:
 3606              	.LFB1534:
 3607              		.cfi_startproc
 3608 00c0 F30F1EFA 		endbr64
 3609 00c4 55       		pushq	%rbp
 3610              		.cfi_def_cfa_offset 16
 3611              		.cfi_offset 6, -16
 3612 00c5 53       		pushq	%rbx
 3613              		.cfi_def_cfa_offset 24
 3614              		.cfi_offset 3, -24
 3615 00c6 4889FB   		movq	%rdi, %rbx
 3616 00c9 4883EC08 		subq	$8, %rsp
 3617              		.cfi_def_cfa_offset 32
 3618 00cd 488B07   		movq	(%rdi), %rax
 3619 00d0 480358E8 		addq	-24(%rax), %rbx
 3620 00d4 488D0500 		leaq	24+_ZTVN8UnitTest15MemoryOutStreamE(%rip), %rax
 3620      000000
 3621 00db 488903   		movq	%rax, (%rbx)
 3622 00de 488B7B70 		movq	112(%rbx), %rdi
 3623 00e2 4883C028 		addq	$40, %rax
 3624 00e6 48898390 		movq	%rax, 144(%rbx)
 3624      000000
 3625 00ed 488D8380 		leaq	128(%rbx), %rax
 3625      000000
 3626 00f4 4839C7   		cmpq	%rax, %rdi
 3627 00f7 7405     		je	.L194
 3628 00f9 E8000000 		call	_ZdlPv@PLT
 3628      00
 3629              	.L194:
 3630 00fe 488D0500 		leaq	64+_ZTCN8UnitTest15MemoryOutStreamE0_NSt7__cxx1119basic_ostringstreamIcSt11char_traitsIcESaIc
 3630      000000
 3631 0105 488D1500 		leaq	24+_ZTCN8UnitTest15MemoryOutStreamE0_NSt7__cxx1119basic_ostringstreamIcSt11char_traitsIcESaIc
 3631      000000
 3632 010c 488B7B50 		movq	80(%rbx), %rdi
 3633 0110 48898390 		movq	%rax, 144(%rbx)
 3633      000000
 3634 0117 488D0500 		leaq	16+_ZTVNSt7__cxx1115basic_stringbufIcSt11char_traitsIcESaIcEEE(%rip), %rax
 3634      000000
 3635 011e 66480F6E 		movq	%rdx, %xmm0
 3635      C2
 3636 0123 488DAB90 		leaq	144(%rbx), %rbp
 3636      000000
 3637 012a 66480F6E 		movq	%rax, %xmm1
 3637      C8
 3638 012f 488D4360 		leaq	96(%rbx), %rax
 3639 0133 660F6CC1 		punpcklqdq	%xmm1, %xmm0
 3640 0137 0F1103   		movups	%xmm0, (%rbx)
 3641 013a 4839C7   		cmpq	%rax, %rdi
 3642 013d 7405     		je	.L195
 3643 013f E8000000 		call	_ZdlPv@PLT
 3643      00
 3644              	.L195:
 3645 0144 488D0500 		leaq	16+_ZTVSt15basic_streambufIcSt11char_traitsIcEE(%rip), %rax
 3645      000000
 3646 014b 488D7B40 		leaq	64(%rbx), %rdi
 3647 014f 48894308 		movq	%rax, 8(%rbx)
 3648 0153 E8000000 		call	_ZNSt6localeD1Ev@PLT
 3648      00
 3649 0158 488D0500 		leaq	24+_ZTCN8UnitTest15MemoryOutStreamE0_So(%rip), %rax
 3649      000000
 3650 015f 4889EF   		movq	%rbp, %rdi
 3651 0162 488903   		movq	%rax, (%rbx)
 3652 0165 488D0500 		leaq	16+_ZTVSt9basic_iosIcSt11char_traitsIcEE(%rip), %rax
 3652      000000
 3653 016c 48898390 		movq	%rax, 144(%rbx)
 3653      000000
 3654 0173 4883C408 		addq	$8, %rsp
 3655              		.cfi_def_cfa_offset 24
 3656 0177 5B       		popq	%rbx
 3657              		.cfi_def_cfa_offset 16
 3658 0178 5D       		popq	%rbp
 3659              		.cfi_def_cfa_offset 8
 3660 0179 E9000000 		jmp	_ZNSt8ios_baseD2Ev@PLT
 3660      00
 3661              		.cfi_endproc
 3662              	.LFE1534:
 3664              		.section	.text._ZN8UnitTest15MemoryOutStreamD0Ev,"axG",@progbits,_ZN8UnitTest15MemoryOutStreamD0Ev
 3665              		.align 2
 3666              		.p2align 4
 3667              		.weak	_ZN8UnitTest15MemoryOutStreamD0Ev
 3669              	_ZN8UnitTest15MemoryOutStreamD0Ev:
 3670              	.LFB1529:
 3671              		.cfi_startproc
 3672              		.cfi_personality 0x9b,DW.ref.__gxx_personality_v0
 3673              		.cfi_lsda 0x1b,.LLSDA1529
 3674 0000 F30F1EFA 		endbr64
 3675 0004 4154     		pushq	%r12
 3676              		.cfi_def_cfa_offset 16
 3677              		.cfi_offset 12, -16
 3678 0006 488D0500 		leaq	24+_ZTVN8UnitTest15MemoryOutStreamE(%rip), %rax
 3678      000000
 3679 000d 55       		pushq	%rbp
 3680              		.cfi_def_cfa_offset 24
 3681              		.cfi_offset 6, -24
 3682 000e 4889FD   		movq	%rdi, %rbp
 3683 0011 4883EC08 		subq	$8, %rsp
 3684              		.cfi_def_cfa_offset 32
 3685 0015 488907   		movq	%rax, (%rdi)
 3686 0018 4883C028 		addq	$40, %rax
 3687 001c 48898790 		movq	%rax, 144(%rdi)
 3687      000000
 3688 0023 488B7F70 		movq	112(%rdi), %rdi
 3689 0027 488D8580 		leaq	128(%rbp), %rax
 3689      000000
 3690 002e 4839C7   		cmpq	%rax, %rdi
 3691 0031 7405     		je	.L198
 3692 0033 E8000000 		call	_ZdlPv@PLT
 3692      00
 3693              	.L198:
 3694 0038 488D0500 		leaq	64+_ZTCN8UnitTest15MemoryOutStreamE0_NSt7__cxx1119basic_ostringstreamIcSt11char_traitsIcESaIc
 3694      000000
 3695 003f 488D1500 		leaq	24+_ZTCN8UnitTest15MemoryOutStreamE0_NSt7__cxx1119basic_ostringstreamIcSt11char_traitsIcESaIc
 3695      000000
 3696 0046 488B7D50 		movq	80(%rbp), %rdi
 3697 004a 48898590 		movq	%rax, 144(%rbp)
 3697      000000
 3698 0051 488D0500 		leaq	16+_ZTVNSt7__cxx1115basic_stringbufIcSt11char_traitsIcESaIcEEE(%rip), %rax
 3698      000000
 3699 0058 66480F6E 		movq	%rdx, %xmm0
 3699      C2
 3700 005d 4C8DA590 		leaq	144(%rbp), %r12
 3700      000000
 3701 0064 66480F6E 		movq	%rax, %xmm1
 3701      C8
 3702 0069 488D4560 		leaq	96(%rbp), %rax
 3703 006d 660F6CC1 		punpcklqdq	%xmm1, %xmm0
 3704 0071 0F114500 		movups	%xmm0, 0(%rbp)
 3705 0075 4839C7   		cmpq	%rax, %rdi
 3706 0078 7405     		je	.L199
 3707 007a E8000000 		call	_ZdlPv@PLT
 3707      00
 3708              	.L199:
 3709 007f 488D0500 		leaq	16+_ZTVSt15basic_streambufIcSt11char_traitsIcEE(%rip), %rax
 3709      000000
 3710 0086 488D7D40 		leaq	64(%rbp), %rdi
 3711 008a 48894508 		movq	%rax, 8(%rbp)
 3712 008e E8000000 		call	_ZNSt6localeD1Ev@PLT
 3712      00
 3713 0093 488D0500 		leaq	24+_ZTCN8UnitTest15MemoryOutStreamE0_So(%rip), %rax
 3713      000000
 3714 009a 4C89E7   		movq	%r12, %rdi
 3715 009d 48894500 		movq	%rax, 0(%rbp)
 3716 00a1 488D0500 		leaq	16+_ZTVSt9basic_iosIcSt11char_traitsIcEE(%rip), %rax
 3716      000000
 3717 00a8 48898590 		movq	%rax, 144(%rbp)
 3717      000000
 3718              	.LEHB82:
 3719 00af E8000000 		call	_ZNSt8ios_baseD2Ev@PLT
 3719      00
 3720              	.LEHE82:
 3721 00b4 4883C408 		addq	$8, %rsp
 3722              		.cfi_remember_state
 3723              		.cfi_def_cfa_offset 24
 3724 00b8 4889EF   		movq	%rbp, %rdi
 3725 00bb 5D       		popq	%rbp
 3726              		.cfi_def_cfa_offset 16
 3727 00bc 415C     		popq	%r12
 3728              		.cfi_def_cfa_offset 8
 3729 00be E9000000 		jmp	_ZdlPv@PLT
 3729      00
 3730              	.L201:
 3731              		.cfi_restore_state
 3732 00c3 F30F1EFA 		endbr64
 3733 00c7 4989C4   		movq	%rax, %r12
 3734              	.L200:
 3735 00ca 4889EF   		movq	%rbp, %rdi
 3736 00cd E8000000 		call	_ZdlPv@PLT
 3736      00
 3737 00d2 4C89E7   		movq	%r12, %rdi
 3738              	.LEHB83:
 3739 00d5 E8000000 		call	_Unwind_Resume@PLT
 3739      00
 3740              	.LEHE83:
 3741              		.cfi_endproc
 3742              	.LFE1529:
 3743              		.section	.gcc_except_table
 3744              	.LLSDA1529:
 3745 0264 FF       		.byte	0xff
 3746 0265 FF       		.byte	0xff
 3747 0266 01       		.byte	0x1
 3748 0267 0B       		.uleb128 .LLSDACSE1529-.LLSDACSB1529
 3749              	.LLSDACSB1529:
 3750 0268 AF01     		.uleb128 .LEHB82-.LFB1529
 3751 026a 05       		.uleb128 .LEHE82-.LEHB82
 3752 026b C301     		.uleb128 .L201-.LFB1529
 3753 026d 00       		.uleb128 0
 3754 026e D501     		.uleb128 .LEHB83-.LFB1529
 3755 0270 05       		.uleb128 .LEHE83-.LEHB83
 3756 0271 00       		.uleb128 0
 3757 0272 00       		.uleb128 0
 3758              	.LLSDACSE1529:
 3759              		.section	.text._ZN8UnitTest15MemoryOutStreamD0Ev,"axG",@progbits,_ZN8UnitTest15MemoryOutStreamD0Ev
 3761 00da 660F1F44 		.p2align 4
 3761      0000
 3762              		.weak	_ZTv0_n24_N8UnitTest15MemoryOutStreamD0Ev
 3764              	_ZTv0_n24_N8UnitTest15MemoryOutStreamD0Ev:
 3765              	.LFB1533:
 3766              		.cfi_startproc
 3767              		.cfi_personality 0x9b,DW.ref.__gxx_personality_v0
 3768              		.cfi_lsda 0x1b,.LLSDA1533
 3769 00e0 F30F1EFA 		endbr64
 3770 00e4 4154     		pushq	%r12
 3771              		.cfi_def_cfa_offset 16
 3772              		.cfi_offset 12, -16
 3773 00e6 55       		pushq	%rbp
 3774              		.cfi_def_cfa_offset 24
 3775              		.cfi_offset 6, -24
 3776 00e7 4889FD   		movq	%rdi, %rbp
 3777 00ea 4883EC08 		subq	$8, %rsp
 3778              		.cfi_def_cfa_offset 32
 3779 00ee 488B07   		movq	(%rdi), %rax
 3780 00f1 480368E8 		addq	-24(%rax), %rbp
 3781 00f5 488D0500 		leaq	24+_ZTVN8UnitTest15MemoryOutStreamE(%rip), %rax
 3781      000000
 3782 00fc 48894500 		movq	%rax, 0(%rbp)
 3783 0100 488B7D70 		movq	112(%rbp), %rdi
 3784 0104 4883C028 		addq	$40, %rax
 3785 0108 48898590 		movq	%rax, 144(%rbp)
 3785      000000
 3786 010f 488D8580 		leaq	128(%rbp), %rax
 3786      000000
 3787 0116 4839C7   		cmpq	%rax, %rdi
 3788 0119 7405     		je	.L204
 3789 011b E8000000 		call	_ZdlPv@PLT
 3789      00
 3790              	.L204:
 3791 0120 488D0500 		leaq	64+_ZTCN8UnitTest15MemoryOutStreamE0_NSt7__cxx1119basic_ostringstreamIcSt11char_traitsIcESaIc
 3791      000000
 3792 0127 488D1500 		leaq	24+_ZTCN8UnitTest15MemoryOutStreamE0_NSt7__cxx1119basic_ostringstreamIcSt11char_traitsIcESaIc
 3792      000000
 3793 012e 488B7D50 		movq	80(%rbp), %rdi
 3794 0132 48898590 		movq	%rax, 144(%rbp)
 3794      000000
 3795 0139 488D0500 		leaq	16+_ZTVNSt7__cxx1115basic_stringbufIcSt11char_traitsIcESaIcEEE(%rip), %rax
 3795      000000
 3796 0140 66480F6E 		movq	%rdx, %xmm0
 3796      C2
 3797 0145 4C8DA590 		leaq	144(%rbp), %r12
 3797      000000
 3798 014c 66480F6E 		movq	%rax, %xmm1
 3798      C8
 3799 0151 488D4560 		leaq	96(%rbp), %rax
 3800 0155 660F6CC1 		punpcklqdq	%xmm1, %xmm0
 3801 0159 0F114500 		movups	%xmm0, 0(%rbp)
 3802 015d 4839C7   		cmpq	%rax, %rdi
 3803 0160 7405     		je	.L205
 3804 0162 E8000000 		call	_ZdlPv@PLT
 3804      00
 3805              	.L205:
 3806 0167 488D0500 		leaq	16+_ZTVSt15basic_streambufIcSt11char_traitsIcEE(%rip), %rax
 3806      000000
 3807 016e 488D7D40 		leaq	64(%rbp), %rdi
 3808 0172 48894508 		movq	%rax, 8(%rbp)
 3809 0176 E8000000 		call	_ZNSt6localeD1Ev@PLT
 3809      00
 3810 017b 488D0500 		leaq	24+_ZTCN8UnitTest15MemoryOutStreamE0_So(%rip), %rax
 3810      000000
 3811 0182 4C89E7   		movq	%r12, %rdi
 3812 0185 48894500 		movq	%rax, 0(%rbp)
 3813 0189 488D0500 		leaq	16+_ZTVSt9basic_iosIcSt11char_traitsIcEE(%rip), %rax
 3813      000000
 3814 0190 48898590 		movq	%rax, 144(%rbp)
 3814      000000
 3815              	.LEHB84:
 3816 0197 E8000000 		call	_ZNSt8ios_baseD2Ev@PLT
 3816      00
 3817              	.LEHE84:
 3818 019c 4883C408 		addq	$8, %rsp
 3819              		.cfi_remember_state
 3820              		.cfi_def_cfa_offset 24
 3821 01a0 4889EF   		movq	%rbp, %rdi
 3822 01a3 5D       		popq	%rbp
 3823              		.cfi_def_cfa_offset 16
 3824 01a4 415C     		popq	%r12
 3825              		.cfi_def_cfa_offset 8
 3826 01a6 E9000000 		jmp	_ZdlPv@PLT
 3826      00
 3827              	.L207:
 3828              		.cfi_restore_state
 3829 01ab F30F1EFA 		endbr64
 3830 01af 4989C4   		movq	%rax, %r12
 3831              	.L206:
 3832 01b2 4889EF   		movq	%rbp, %rdi
 3833 01b5 E8000000 		call	_ZdlPv@PLT
 3833      00
 3834 01ba 4C89E7   		movq	%r12, %rdi
 3835              	.LEHB85:
 3836 01bd E8000000 		call	_Unwind_Resume@PLT
 3836      00
 3837              	.LEHE85:
 3838              		.cfi_endproc
 3839              	.LFE1533:
 3840              		.section	.gcc_except_table
 3841              	.LLSDA1533:
 3842 0273 FF       		.byte	0xff
 3843 0274 FF       		.byte	0xff
 3844 0275 01       		.byte	0x1
 3845 0276 0B       		.uleb128 .LLSDACSE1533-.LLSDACSB1533
 3846              	.LLSDACSB1533:
 3847 0277 B701     		.uleb128 .LEHB84-.LFB1533
 3848 0279 05       		.uleb128 .LEHE84-.LEHB84
 3849 027a CB01     		.uleb128 .L207-.LFB1533
 3850 027c 00       		.uleb128 0
 3851 027d DD01     		.uleb128 .LEHB85-.LFB1533
 3852 027f 05       		.uleb128 .LEHE85-.LEHB85
 3853 0280 00       		.uleb128 0
 3854 0281 00       		.uleb128 0
 3855              	.LLSDACSE1533:
 3856              		.section	.text._ZN8UnitTest15MemoryOutStreamD0Ev,"axG",@progbits,_ZN8UnitTest15MemoryOutStreamD0Ev
 3858              		.section	.text._ZN17ScopedCurrentTestD2Ev,"axG",@progbits,_ZN17ScopedCurrentTestD5Ev,comdat
 3859              		.align 2
 3860              		.p2align 4
 3861              		.weak	_ZN17ScopedCurrentTestD2Ev
 3863              	_ZN17ScopedCurrentTestD2Ev:
 3864              	.LFB1225:
 3865              		.cfi_startproc
 3866 0000 F30F1EFA 		endbr64
 3867 0004 53       		pushq	%rbx
 3868              		.cfi_def_cfa_offset 16
 3869              		.cfi_offset 3, -16
 3870 0005 4889FB   		movq	%rdi, %rbx
 3871 0008 E8000000 		call	_ZN8UnitTest11CurrentTest7ResultsEv@PLT
 3871      00
 3872 000d 488B13   		movq	(%rbx), %rdx
 3873 0010 488910   		movq	%rdx, (%rax)
 3874 0013 E8000000 		call	_ZN8UnitTest11CurrentTest7DetailsEv@PLT
 3874      00
 3875 0018 488B5308 		movq	8(%rbx), %rdx
 3876 001c 488910   		movq	%rdx, (%rax)
 3877 001f 5B       		popq	%rbx
 3878              		.cfi_def_cfa_offset 8
 3879 0020 C3       		ret
 3880              		.cfi_endproc
 3881              	.LFE1225:
 3883              		.weak	_ZN17ScopedCurrentTestD1Ev
 3884              		.set	_ZN17ScopedCurrentTestD1Ev,_ZN17ScopedCurrentTestD2Ev
 3885              		.section	.rodata.str1.1
 3886              	.LC41:
 3887 0069 78636570 		.string	"xception"
 3887      74696F6E 
 3887      00
 3888              		.section	.rodata.str1.8
 3889 0361 00000000 		.align 8
 3889      000000
 3890              	.LC42:
 3891 0368 73747273 		.string	"strstr(reporter.lastFailedMessage, \"xception\")"
 3891      74722872 
 3891      65706F72 
 3891      7465722E 
 3891      6C617374 
 3892              		.section	.rodata.str1.1
 3893              	.LC43:
 3894 0072 66697874 		.string	"fixture"
 3894      75726500 
 3895              		.section	.rodata.str1.8
 3896 0397 00       		.align 8
 3897              	.LC44:
 3898 0398 73747273 		.string	"strstr(reporter.lastFailedMessage, \"fixture\")"
 3898      74722872 
 3898      65706F72 
 3898      7465722E 
 3898      6C617374 
 3899              		.section	.rodata.str1.1
 3900              	.LC45:
 3901 007a 5468726F 		.string	"ThrowingThingie"
 3901      77696E67 
 3901      5468696E 
 3901      67696500 
 3902              		.section	.rodata.str1.8
 3903 03c6 0000     		.align 8
 3904              	.LC46:
 3905 03c8 73747273 		.string	"strstr(reporter.lastFailedMessage, \"ThrowingThingie\")"
 3905      74722872 
 3905      65706F72 
 3905      7465722E 
 3905      6C617374 
 3906 03fe 0000     		.align 8
 3907              	.LC47:
 3908 0400 556E6861 		.string	"Unhandled exception in CHECK(strstr(reporter.lastFailedMessage, \"xception\"))"
 3908      6E646C65 
 3908      64206578 
 3908      63657074 
 3908      696F6E20 
 3909 044d 000000   		.align 8
 3910              	.LC48:
 3911 0450 556E6861 		.string	"Unhandled exception in CHECK(strstr(reporter.lastFailedMessage, \"fixture\"))"
 3911      6E646C65 
 3911      64206578 
 3911      63657074 
 3911      696F6E20 
 3912 049c 00000000 		.align 8
 3913              	.LC49:
 3914 04a0 556E6861 		.string	"Unhandled exception in CHECK(strstr(reporter.lastFailedMessage, \"ThrowingThingie\"))"
 3914      6E646C65 
 3914      64206578 
 3914      63657074 
 3914      696F6E20 
 3915              		.section	.text.unlikely
 3916              		.align 2
 3917              	.LCOLDB50:
 3918              		.text
 3919              	.LHOTB50:
 3920              		.align 2
 3921 0aa4 66662E0F 		.p2align 4
 3921      1F840000 
 3921      00000090 
 3923              	_ZNK12_GLOBAL__N_157TestExceptionsInFixtureAreReportedAsHappeningInTheFixture7RunImplEv:
 3924              	.LFB1249:
 3925              		.cfi_startproc
 3926              		.cfi_personality 0x9b,DW.ref.__gxx_personality_v0
 3927              		.cfi_lsda 0x1b,.LLSDA1249
 3928 0ab0 F30F1EFA 		endbr64
 3929 0ab4 4156     		pushq	%r14
 3930              		.cfi_def_cfa_offset 16
 3931              		.cfi_offset 14, -16
 3932 0ab6 4155     		pushq	%r13
 3933              		.cfi_def_cfa_offset 24
 3934              		.cfi_offset 13, -24
 3935 0ab8 4154     		pushq	%r12
 3936              		.cfi_def_cfa_offset 32
 3937              		.cfi_offset 12, -32
 3938 0aba 55       		pushq	%rbp
 3939              		.cfi_def_cfa_offset 40
 3940              		.cfi_offset 6, -40
 3941 0abb 53       		pushq	%rbx
 3942              		.cfi_def_cfa_offset 48
 3943              		.cfi_offset 3, -48
 3944 0abc 488D1D00 		leaq	16+_ZTV17RecordingReporter(%rip), %rbx
 3944      000000
 3945 0ac3 4881EC80 		subq	$2176, %rsp
 3945      080000
 3946              		.cfi_def_cfa_offset 2224
 3947 0aca 64488B04 		movq	%fs:40, %rax
 3947      25280000 
 3947      00
 3948 0ad3 48898424 		movq	%rax, 2168(%rsp)
 3948      78080000 
 3949 0adb 31C0     		xorl	%eax, %eax
 3950 0add 4C8D6424 		leaq	64(%rsp), %r12
 3950      40
 3951 0ae2 4989E6   		movq	%rsp, %r14
 3952 0ae5 48895C24 		movq	%rbx, 64(%rsp)
 3952      40
 3953 0aea 4C89E6   		movq	%r12, %rsi
 3954 0aed 4C89F7   		movq	%r14, %rdi
 3955 0af0 C7442448 		movl	$0, 72(%rsp)
 3955      00000000 
 3956 0af8 C784244C 		movl	$0, 588(%rsp)
 3956      02000000 
 3956      000000
 3957 0b03 C7842450 		movl	$0, 848(%rsp)
 3957      03000000 
 3957      000000
 3958 0b0e C7842454 		movl	$0, 1620(%rsp)
 3958      06000000 
 3958      000000
 3959 0b19 48C78424 		movq	$0, 2136(%rsp)
 3959      58080000 
 3959      00000000 
 3960 0b25 48C78424 		movq	$0, 2144(%rsp)
 3960      60080000 
 3960      00000000 
 3961 0b31 C7842468 		movl	$0x00000000, 2152(%rsp)
 3961      08000000 
 3961      000000
 3962 0b3c C644244C 		movb	$0, 76(%rsp)
 3962      00
 3963 0b41 C684244C 		movb	$0, 332(%rsp)
 3963      01000000 
 3964 0b49 C6842450 		movb	$0, 592(%rsp)
 3964      02000000 
 3965 0b51 C6842454 		movb	$0, 852(%rsp)
 3965      03000000 
 3966 0b59 C6842454 		movb	$0, 1108(%rsp)
 3966      04000000 
 3967 0b61 C6842454 		movb	$0, 1364(%rsp)
 3967      05000000 
 3968 0b69 C6842458 		movb	$0, 1624(%rsp)
 3968      06000000 
 3969 0b71 C6842458 		movb	$0, 1880(%rsp)
 3969      07000000 
 3970              	.LEHB86:
 3971 0b79 E8000000 		call	_ZN8UnitTest11TestResultsC1EPNS_12TestReporterE@PLT
 3971      00
 3972 0b7e E8000000 		call	_ZN8UnitTest11CurrentTest7ResultsEv@PLT
 3972      00
 3973 0b83 4C8B28   		movq	(%rax), %r13
 3974 0b86 4C896C24 		movq	%r13, 32(%rsp)
 3974      20
 3975 0b8b E8000000 		call	_ZN8UnitTest11CurrentTest7DetailsEv@PLT
 3975      00
 3976 0b90 488B28   		movq	(%rax), %rbp
 3977 0b93 48896C24 		movq	%rbp, 40(%rsp)
 3977      28
 3978 0b98 E8000000 		call	_ZN8UnitTest11CurrentTest7ResultsEv@PLT
 3978      00
 3979              	.LEHE86:
 3980 0b9d 4C8930   		movq	%r14, (%rax)
 3981 0ba0 488D3D00 		leaq	_ZN12_GLOBAL__N_15list2E(%rip), %rdi
 3981      000000
 3982              	.LEHB87:
 3983 0ba7 E8000000 		call	_ZNK8UnitTest8TestList7GetHeadEv@PLT
 3983      00
 3984 0bac 4889C7   		movq	%rax, %rdi
 3985 0baf E8000000 		call	_ZN8UnitTest4Test3RunEv@PLT
 3985      00
 3986              	.LEHE87:
 3987              	.LEHB88:
 3988 0bb4 E8000000 		call	_ZN8UnitTest11CurrentTest7ResultsEv@PLT
 3988      00
 3989 0bb9 4C8928   		movq	%r13, (%rax)
 3990 0bbc E8000000 		call	_ZN8UnitTest11CurrentTest7DetailsEv@PLT
 3990      00
 3991              	.LEHE88:
 3992 0bc1 488928   		movq	%rbp, (%rax)
 3993 0bc4 488DAC24 		leaq	1364(%rsp), %rbp
 3993      54050000 
 3994 0bcc 488D3500 		leaq	.LC41(%rip), %rsi
 3994      000000
 3995 0bd3 4889EF   		movq	%rbp, %rdi
 3996 0bd6 E8000000 		call	strstr@PLT
 3996      00
 3997 0bdb 4885C0   		testq	%rax, %rax
 3998 0bde 0F84DC00 		je	.L242
 3998      0000
 3999              	.L213:
 4000 0be4 488D3500 		leaq	.LC43(%rip), %rsi
 4000      000000
 4001 0beb 4889EF   		movq	%rbp, %rdi
 4002 0bee E8000000 		call	strstr@PLT
 4002      00
 4003 0bf3 4885C0   		testq	%rax, %rax
 4004 0bf6 0F848400 		je	.L243
 4004      0000
 4005              	.L215:
 4006 0bfc 488D3500 		leaq	.LC45(%rip), %rsi
 4006      000000
 4007 0c03 4889EF   		movq	%rbp, %rdi
 4008 0c06 E8000000 		call	strstr@PLT
 4008      00
 4009 0c0b 4885C0   		testq	%rax, %rax
 4010 0c0e 7438     		je	.L244
 4011              	.L217:
 4012 0c10 4C89E7   		movq	%r12, %rdi
 4013 0c13 48895C24 		movq	%rbx, 64(%rsp)
 4013      40
 4014              	.LEHB89:
 4015 0c18 E8000000 		call	_ZN8UnitTest12TestReporterD2Ev@PLT
 4015      00
 4016              	.LEHE89:
 4017 0c1d 488B8424 		movq	2168(%rsp), %rax
 4017      78080000 
 4018 0c25 64482B04 		subq	%fs:40, %rax
 4018      25280000 
 4018      00
 4019 0c2e 0F85C500 		jne	.L245
 4019      0000
 4020 0c34 4881C480 		addq	$2176, %rsp
 4020      080000
 4021              		.cfi_remember_state
 4022              		.cfi_def_cfa_offset 48
 4023 0c3b 5B       		popq	%rbx
 4024              		.cfi_def_cfa_offset 40
 4025 0c3c 5D       		popq	%rbp
 4026              		.cfi_def_cfa_offset 32
 4027 0c3d 415C     		popq	%r12
 4028              		.cfi_def_cfa_offset 24
 4029 0c3f 415D     		popq	%r13
 4030              		.cfi_def_cfa_offset 16
 4031 0c41 415E     		popq	%r14
 4032              		.cfi_def_cfa_offset 8
 4033 0c43 C3       		ret
 4034              		.p2align 4,,10
 4035 0c44 0F1F4000 		.p2align 3
 4036              	.L244:
 4037              		.cfi_restore_state
 4038              	.LEHB90:
 4039 0c48 E8000000 		call	_ZN8UnitTest11CurrentTest7ResultsEv@PLT
 4039      00
 4040 0c4d 488B28   		movq	(%rax), %rbp
 4041 0c50 E8000000 		call	_ZN8UnitTest11CurrentTest7DetailsEv@PLT
 4041      00
 4042 0c55 4C8D6C24 		leaq	32(%rsp), %r13
 4042      20
 4043 0c5a 488B30   		movq	(%rax), %rsi
 4044 0c5d BA340000 		movl	$52, %edx
 4044      00
 4045 0c62 4C89EF   		movq	%r13, %rdi
 4046 0c65 E8000000 		call	_ZN8UnitTest11TestDetailsC1ERKS0_i@PLT
 4046      00
 4047 0c6a 488D1500 		leaq	.LC46(%rip), %rdx
 4047      000000
 4048 0c71 4C89EE   		movq	%r13, %rsi
 4049 0c74 4889EF   		movq	%rbp, %rdi
 4050 0c77 E8000000 		call	_ZN8UnitTest11TestResults13OnTestFailureERKNS_11TestDetailsEPKc@PLT
 4050      00
 4051              	.LEHE90:
 4052 0c7c EB92     		jmp	.L217
 4053 0c7e 6690     		.p2align 4,,10
 4054              		.p2align 3
 4055              	.L243:
 4056              	.LEHB91:
 4057 0c80 E8000000 		call	_ZN8UnitTest11CurrentTest7ResultsEv@PLT
 4057      00
 4058 0c85 4C8B30   		movq	(%rax), %r14
 4059 0c88 E8000000 		call	_ZN8UnitTest11CurrentTest7DetailsEv@PLT
 4059      00
 4060 0c8d 4C8D6C24 		leaq	32(%rsp), %r13
 4060      20
 4061 0c92 488B30   		movq	(%rax), %rsi
 4062 0c95 BA330000 		movl	$51, %edx
 4062      00
 4063 0c9a 4C89EF   		movq	%r13, %rdi
 4064 0c9d E8000000 		call	_ZN8UnitTest11TestDetailsC1ERKS0_i@PLT
 4064      00
 4065 0ca2 488D1500 		leaq	.LC44(%rip), %rdx
 4065      000000
 4066 0ca9 4C89EE   		movq	%r13, %rsi
 4067 0cac 4C89F7   		movq	%r14, %rdi
 4068 0caf E8000000 		call	_ZN8UnitTest11TestResults13OnTestFailureERKNS_11TestDetailsEPKc@PLT
 4068      00
 4069              	.LEHE91:
 4070 0cb4 E943FFFF 		jmp	.L215
 4070      FF
 4071 0cb9 0F1F8000 		.p2align 4,,10
 4071      000000
 4072              		.p2align 3
 4073              	.L242:
 4074              	.LEHB92:
 4075 0cc0 E8000000 		call	_ZN8UnitTest11CurrentTest7ResultsEv@PLT
 4075      00
 4076 0cc5 4C8B30   		movq	(%rax), %r14
 4077 0cc8 E8000000 		call	_ZN8UnitTest11CurrentTest7DetailsEv@PLT
 4077      00
 4078 0ccd 4C8D6C24 		leaq	32(%rsp), %r13
 4078      20
 4079 0cd2 488B30   		movq	(%rax), %rsi
 4080 0cd5 BA320000 		movl	$50, %edx
 4080      00
 4081 0cda 4C89EF   		movq	%r13, %rdi
 4082 0cdd E8000000 		call	_ZN8UnitTest11TestDetailsC1ERKS0_i@PLT
 4082      00
 4083 0ce2 488D1500 		leaq	.LC42(%rip), %rdx
 4083      000000
 4084 0ce9 4C89EE   		movq	%r13, %rsi
 4085 0cec 4C89F7   		movq	%r14, %rdi
 4086 0cef E8000000 		call	_ZN8UnitTest11TestResults13OnTestFailureERKNS_11TestDetailsEPKc@PLT
 4086      00
 4087              	.LEHE92:
 4088 0cf4 E9EBFEFF 		jmp	.L213
 4088      FF
 4089              	.L245:
 4090 0cf9 E8000000 		call	__stack_chk_fail@PLT
 4090      00
 4091              	.L232:
 4092 0cfe F30F1EFA 		endbr64
 4093 0d02 4889C7   		movq	%rax, %rdi
 4094 0d05 E9000000 		jmp	.L220
 4094      00
 4095              	.L234:
 4096 0d0a F30F1EFA 		endbr64
 4097 0d0e 4889C7   		movq	%rax, %rdi
 4098 0d11 E9000000 		jmp	.L223
 4098      00
 4099              	.L238:
 4100 0d16 F30F1EFA 		endbr64
 4101 0d1a E9000000 		jmp	.L239
 4101      00
 4102              	.L231:
 4103 0d1f F30F1EFA 		endbr64
 4104 0d23 4889C5   		movq	%rax, %rbp
 4105 0d26 E9000000 		jmp	.L218
 4105      00
 4106              	.L236:
 4107 0d2b F30F1EFA 		endbr64
 4108 0d2f 4889C7   		movq	%rax, %rdi
 4109 0d32 E9000000 		jmp	.L226
 4109      00
 4110              		.section	.gcc_except_table
 4111 0282 0000     		.align 4
 4112              	.LLSDA1249:
 4113 0284 FF       		.byte	0xff
 4114 0285 9B       		.byte	0x9b
 4115 0286 31       		.uleb128 .LLSDATT1249-.LLSDATTD1249
 4116              	.LLSDATTD1249:
 4117 0287 01       		.byte	0x1
 4118 0288 29       		.uleb128 .LLSDACSE1249-.LLSDACSB1249
 4119              	.LLSDACSB1249:
 4120 0289 C901     		.uleb128 .LEHB86-.LFB1249
 4121 028b 24       		.uleb128 .LEHE86-.LEHB86
 4122 028c E604     		.uleb128 .L238-.LFB1249
 4123 028e 00       		.uleb128 0
 4124 028f F701     		.uleb128 .LEHB87-.LFB1249
 4125 0291 0D       		.uleb128 .LEHE87-.LEHB87
 4126 0292 EF04     		.uleb128 .L231-.LFB1249
 4127 0294 00       		.uleb128 0
 4128 0295 8402     		.uleb128 .LEHB88-.LFB1249
 4129 0297 0D       		.uleb128 .LEHE88-.LEHB88
 4130 0298 E604     		.uleb128 .L238-.LFB1249
 4131 029a 00       		.uleb128 0
 4132 029b E802     		.uleb128 .LEHB89-.LFB1249
 4133 029d 05       		.uleb128 .LEHE89-.LEHB89
 4134 029e 00       		.uleb128 0
 4135 029f 00       		.uleb128 0
 4136 02a0 9803     		.uleb128 .LEHB90-.LFB1249
 4137 02a2 34       		.uleb128 .LEHE90-.LEHB90
 4138 02a3 FB04     		.uleb128 .L236-.LFB1249
 4139 02a5 01       		.uleb128 0x1
 4140 02a6 D003     		.uleb128 .LEHB91-.LFB1249
 4141 02a8 34       		.uleb128 .LEHE91-.LEHB91
 4142 02a9 DA04     		.uleb128 .L234-.LFB1249
 4143 02ab 01       		.uleb128 0x1
 4144 02ac 9004     		.uleb128 .LEHB92-.LFB1249
 4145 02ae 34       		.uleb128 .LEHE92-.LEHB92
 4146 02af CE04     		.uleb128 .L232-.LFB1249
 4147 02b1 01       		.uleb128 0x1
 4148              	.LLSDACSE1249:
 4149 02b2 01       		.byte	0x1
 4150 02b3 00       		.byte	0
 4151              		.align 4
 4152 02b4 00000000 		.long	0
 4153              	
 4154              	.LLSDATT1249:
 4155              		.text
 4156              		.cfi_endproc
 4157              		.section	.text.unlikely
 4158              		.cfi_startproc
 4159              		.cfi_personality 0x9b,DW.ref.__gxx_personality_v0
 4160              		.cfi_lsda 0x1b,.LLSDAC1249
 4162              	_ZNK12_GLOBAL__N_157TestExceptionsInFixtureAreReportedAsHappeningInTheFixture7RunImplEv.cold:
 4163              	.LFSB1249:
 4164              	.L220:
 4165              		.cfi_def_cfa_offset 2224
 4166              		.cfi_offset 3, -48
 4167              		.cfi_offset 6, -40
 4168              		.cfi_offset 12, -32
 4169              		.cfi_offset 13, -24
 4170              		.cfi_offset 14, -16
 4171 04ae E8000000 		call	__cxa_begin_catch@PLT
 4171      00
 4172              	.LEHB93:
 4173 04b3 E8000000 		call	_ZN8UnitTest11CurrentTest7ResultsEv@PLT
 4173      00
 4174 04b8 4C8B30   		movq	(%rax), %r14
 4175 04bb E8000000 		call	_ZN8UnitTest11CurrentTest7DetailsEv@PLT
 4175      00
 4176 04c0 4C8D6C24 		leaq	32(%rsp), %r13
 4176      20
 4177 04c5 488B30   		movq	(%rax), %rsi
 4178 04c8 BA320000 		movl	$50, %edx
 4178      00
 4179 04cd 4C89EF   		movq	%r13, %rdi
 4180 04d0 E8000000 		call	_ZN8UnitTest11TestDetailsC1ERKS0_i@PLT
 4180      00
 4181 04d5 488D1500 		leaq	.LC47(%rip), %rdx
 4181      000000
 4182 04dc 4C89EE   		movq	%r13, %rsi
 4183 04df 4C89F7   		movq	%r14, %rdi
 4184 04e2 E8000000 		call	_ZN8UnitTest11TestResults13OnTestFailureERKNS_11TestDetailsEPKc@PLT
 4184      00
 4185              	.LEHE93:
 4186              	.LEHB94:
 4187 04e7 E8000000 		call	__cxa_end_catch@PLT
 4187      00
 4188              	.LEHE94:
 4189 04ec E9000000 		jmp	.L213
 4189      00
 4190              	.L223:
 4191 04f1 E8000000 		call	__cxa_begin_catch@PLT
 4191      00
 4192              	.LEHB95:
 4193 04f6 E8000000 		call	_ZN8UnitTest11CurrentTest7ResultsEv@PLT
 4193      00
 4194 04fb 4C8B30   		movq	(%rax), %r14
 4195 04fe E8000000 		call	_ZN8UnitTest11CurrentTest7DetailsEv@PLT
 4195      00
 4196 0503 4C8D6C24 		leaq	32(%rsp), %r13
 4196      20
 4197 0508 488B30   		movq	(%rax), %rsi
 4198 050b BA330000 		movl	$51, %edx
 4198      00
 4199 0510 4C89EF   		movq	%r13, %rdi
 4200 0513 E8000000 		call	_ZN8UnitTest11TestDetailsC1ERKS0_i@PLT
 4200      00
 4201 0518 488D1500 		leaq	.LC48(%rip), %rdx
 4201      000000
 4202 051f 4C89EE   		movq	%r13, %rsi
 4203 0522 4C89F7   		movq	%r14, %rdi
 4204 0525 E8000000 		call	_ZN8UnitTest11TestResults13OnTestFailureERKNS_11TestDetailsEPKc@PLT
 4204      00
 4205              	.LEHE95:
 4206              	.LEHB96:
 4207 052a E8000000 		call	__cxa_end_catch@PLT
 4207      00
 4208              	.LEHE96:
 4209 052f E9000000 		jmp	.L215
 4209      00
 4210              	.L218:
 4211 0534 488D7C24 		leaq	32(%rsp), %rdi
 4211      20
 4212 0539 E8000000 		call	_ZN17ScopedCurrentTestD1Ev
 4212      00
 4213              	.L219:
 4214 053e 4C89E7   		movq	%r12, %rdi
 4215 0541 48895C24 		movq	%rbx, 64(%rsp)
 4215      40
 4216 0546 E8000000 		call	_ZN8UnitTest12TestReporterD2Ev@PLT
 4216      00
 4217 054b 4889EF   		movq	%rbp, %rdi
 4218              	.LEHB97:
 4219 054e E8000000 		call	_Unwind_Resume@PLT
 4219      00
 4220              	.LEHE97:
 4221              	.L235:
 4222 0553 F30F1EFA 		endbr64
 4223 0557 4889C5   		movq	%rax, %rbp
 4224 055a E8000000 		call	__cxa_end_catch@PLT
 4224      00
 4225 055f EBDD     		jmp	.L219
 4226              	.L230:
 4227 0561 F30F1EFA 		endbr64
 4228              	.L239:
 4229 0565 4889C5   		movq	%rax, %rbp
 4230 0568 EBD4     		jmp	.L219
 4231              	.L226:
 4232 056a E8000000 		call	__cxa_begin_catch@PLT
 4232      00
 4233              	.LEHB98:
 4234 056f E8000000 		call	_ZN8UnitTest11CurrentTest7ResultsEv@PLT
 4234      00
 4235 0574 488B28   		movq	(%rax), %rbp
 4236 0577 E8000000 		call	_ZN8UnitTest11CurrentTest7DetailsEv@PLT
 4236      00
 4237 057c 4C8D6C24 		leaq	32(%rsp), %r13
 4237      20
 4238 0581 488B30   		movq	(%rax), %rsi
 4239 0584 BA340000 		movl	$52, %edx
 4239      00
 4240 0589 4C89EF   		movq	%r13, %rdi
 4241 058c E8000000 		call	_ZN8UnitTest11TestDetailsC1ERKS0_i@PLT
 4241      00
 4242 0591 488D1500 		leaq	.LC49(%rip), %rdx
 4242      000000
 4243 0598 4C89EE   		movq	%r13, %rsi
 4244 059b 4889EF   		movq	%rbp, %rdi
 4245 059e E8000000 		call	_ZN8UnitTest11TestResults13OnTestFailureERKNS_11TestDetailsEPKc@PLT
 4245      00
 4246              	.LEHE98:
 4247              	.LEHB99:
 4248 05a3 E8000000 		call	__cxa_end_catch@PLT
 4248      00
 4249              	.LEHE99:
 4250 05a8 E9000000 		jmp	.L217
 4250      00
 4251              	.L233:
 4252 05ad F30F1EFA 		endbr64
 4253 05b1 4889C5   		movq	%rax, %rbp
 4254 05b4 E8000000 		call	__cxa_end_catch@PLT
 4254      00
 4255 05b9 EB83     		jmp	.L219
 4256              	.L237:
 4257 05bb F30F1EFA 		endbr64
 4258 05bf 4889C5   		movq	%rax, %rbp
 4259 05c2 E8000000 		call	__cxa_end_catch@PLT
 4259      00
 4260 05c7 E972FFFF 		jmp	.L219
 4260      FF
 4261              		.cfi_endproc
 4262              	.LFE1249:
 4263              		.section	.gcc_except_table
 4264              		.align 4
 4265              	.LLSDAC1249:
 4266 02b8 FF       		.byte	0xff
 4267 02b9 9B       		.byte	0x9b
 4268 02ba 2D       		.uleb128 .LLSDATTC1249-.LLSDATTDC1249
 4269              	.LLSDATTDC1249:
 4270 02bb 01       		.byte	0x1
 4271 02bc 25       		.uleb128 .LLSDACSEC1249-.LLSDACSBC1249
 4272              	.LLSDACSBC1249:
 4273 02bd 05       		.uleb128 .LEHB93-.LCOLDB50
 4274 02be 34       		.uleb128 .LEHE93-.LEHB93
 4275 02bf FF01     		.uleb128 .L233-.LCOLDB50
 4276 02c1 00       		.uleb128 0
 4277 02c2 39       		.uleb128 .LEHB94-.LCOLDB50
 4278 02c3 05       		.uleb128 .LEHE94-.LEHB94
 4279 02c4 B301     		.uleb128 .L230-.LCOLDB50
 4280 02c6 00       		.uleb128 0
 4281 02c7 48       		.uleb128 .LEHB95-.LCOLDB50
 4282 02c8 34       		.uleb128 .LEHE95-.LEHB95
 4283 02c9 A501     		.uleb128 .L235-.LCOLDB50
 4284 02cb 00       		.uleb128 0
 4285 02cc 7C       		.uleb128 .LEHB96-.LCOLDB50
 4286 02cd 05       		.uleb128 .LEHE96-.LEHB96
 4287 02ce B301     		.uleb128 .L230-.LCOLDB50
 4288 02d0 00       		.uleb128 0
 4289 02d1 A001     		.uleb128 .LEHB97-.LCOLDB50
 4290 02d3 05       		.uleb128 .LEHE97-.LEHB97
 4291 02d4 00       		.uleb128 0
 4292 02d5 00       		.uleb128 0
 4293 02d6 C101     		.uleb128 .LEHB98-.LCOLDB50
 4294 02d8 34       		.uleb128 .LEHE98-.LEHB98
 4295 02d9 8D02     		.uleb128 .L237-.LCOLDB50
 4296 02db 00       		.uleb128 0
 4297 02dc F501     		.uleb128 .LEHB99-.LCOLDB50
 4298 02de 05       		.uleb128 .LEHE99-.LEHB99
 4299 02df B301     		.uleb128 .L230-.LCOLDB50
 4300 02e1 00       		.uleb128 0
 4301              	.LLSDACSEC1249:
 4302 02e2 01       		.byte	0x1
 4303 02e3 00       		.byte	0
 4304              		.align 4
 4305 02e4 00000000 		.long	0
 4306              	
 4307              	.LLSDATTC1249:
 4308              		.section	.text.unlikely
 4309              		.text
 4311              		.section	.text.unlikely
 4313              	.LCOLDE50:
 4314              		.text
 4315              	.LHOTE50:
 4316              		.section	.text._ZNSt7__cxx1115basic_stringbufIcSt11char_traitsIcESaIcEED2Ev,"axG",@progbits,_ZNSt7
 4317              		.align 2
 4318              		.p2align 4
 4319              		.weak	_ZNSt7__cxx1115basic_stringbufIcSt11char_traitsIcESaIcEED2Ev
 4321              	_ZNSt7__cxx1115basic_stringbufIcSt11char_traitsIcESaIcEED2Ev:
 4322              	.LFB1362:
 4323              		.cfi_startproc
 4324 0000 F30F1EFA 		endbr64
 4325 0004 488D0500 		leaq	16+_ZTVNSt7__cxx1115basic_stringbufIcSt11char_traitsIcESaIcEEE(%rip), %rax
 4325      000000
 4326 000b 53       		pushq	%rbx
 4327              		.cfi_def_cfa_offset 16
 4328              		.cfi_offset 3, -16
 4329 000c 4889FB   		movq	%rdi, %rbx
 4330 000f 488907   		movq	%rax, (%rdi)
 4331 0012 488B7F48 		movq	72(%rdi), %rdi
 4332 0016 488D4358 		leaq	88(%rbx), %rax
 4333 001a 4839C7   		cmpq	%rax, %rdi
 4334 001d 7405     		je	.L247
 4335 001f E8000000 		call	_ZdlPv@PLT
 4335      00
 4336              	.L247:
 4337 0024 488D0500 		leaq	16+_ZTVSt15basic_streambufIcSt11char_traitsIcEE(%rip), %rax
 4337      000000
 4338 002b 488D7B38 		leaq	56(%rbx), %rdi
 4339 002f 488903   		movq	%rax, (%rbx)
 4340 0032 5B       		popq	%rbx
 4341              		.cfi_def_cfa_offset 8
 4342 0033 E9000000 		jmp	_ZNSt6localeD1Ev@PLT
 4342      00
 4343              		.cfi_endproc
 4344              	.LFE1362:
 4346              		.weak	_ZNSt7__cxx1115basic_stringbufIcSt11char_traitsIcESaIcEED1Ev
 4347              		.set	_ZNSt7__cxx1115basic_stringbufIcSt11char_traitsIcESaIcEED1Ev,_ZNSt7__cxx1115basic_stringbufIc
 4348              		.section	.text._ZN8UnitTest15MemoryOutStreamC1Ev,"axG",@progbits,_ZN8UnitTest15MemoryOutStreamC1Ev
 4349              		.align 2
 4350              		.p2align 4
 4351              		.weak	_ZN8UnitTest15MemoryOutStreamC1Ev
 4353              	_ZN8UnitTest15MemoryOutStreamC1Ev:
 4354              	.LFB1156:
 4355              		.cfi_startproc
 4356              		.cfi_personality 0x9b,DW.ref.__gxx_personality_v0
 4357              		.cfi_lsda 0x1b,.LLSDA1156
 4358 0000 F30F1EFA 		endbr64
 4359 0004 4156     		pushq	%r14
 4360              		.cfi_def_cfa_offset 16
 4361              		.cfi_offset 14, -16
 4362 0006 4155     		pushq	%r13
 4363              		.cfi_def_cfa_offset 24
 4364              		.cfi_offset 13, -24
 4365 0008 4154     		pushq	%r12
 4366              		.cfi_def_cfa_offset 32
 4367              		.cfi_offset 12, -32
 4368 000a 4C8D2500 		leaq	24+_ZTCN8UnitTest15MemoryOutStreamE0_So(%rip), %r12
 4368      000000
 4369 0011 55       		pushq	%rbp
 4370              		.cfi_def_cfa_offset 40
 4371              		.cfi_offset 6, -40
 4372 0012 488DAF90 		leaq	144(%rdi), %rbp
 4372      000000
 4373 0019 53       		pushq	%rbx
 4374              		.cfi_def_cfa_offset 48
 4375              		.cfi_offset 3, -48
 4376 001a 4889FB   		movq	%rdi, %rbx
 4377 001d 4889EF   		movq	%rbp, %rdi
 4378 0020 E8000000 		call	_ZNSt8ios_baseC2Ev@PLT
 4378      00
 4379 0025 31C0     		xorl	%eax, %eax
 4380 0027 4C8923   		movq	%r12, (%rbx)
 4381 002a 660FEFC0 		pxor	%xmm0, %xmm0
 4382 002e 66898370 		movw	%ax, 368(%rbx)
 4382      010000
 4383 0035 498D4424 		leaq	40(%r12), %rax
 4383      28
 4384 003a 31F6     		xorl	%esi, %esi
 4385 003c 4889EF   		movq	%rbp, %rdi
 4386 003f 48C78368 		movq	$0, 360(%rbx)
 4386      01000000 
 4386      000000
 4387 004a 48898390 		movq	%rax, 144(%rbx)
 4387      000000
 4388 0051 0F118378 		movups	%xmm0, 376(%rbx)
 4388      010000
 4389 0058 0F118388 		movups	%xmm0, 392(%rbx)
 4389      010000
 4390              	.LEHB100:
 4391 005f E8000000 		call	_ZNSt9basic_iosIcSt11char_traitsIcEE4initEPSt15basic_streambufIcS1_E@PLT
 4391      00
 4392              	.LEHE100:
 4393 0064 488D0500 		leaq	64+_ZTCN8UnitTest15MemoryOutStreamE0_NSt7__cxx1119basic_ostringstreamIcSt11char_traitsIcESaIc
 4393      000000
 4394 006b 488D1500 		leaq	24+_ZTCN8UnitTest15MemoryOutStreamE0_NSt7__cxx1119basic_ostringstreamIcSt11char_traitsIcESaIc
 4394      000000
 4395 0072 48898390 		movq	%rax, 144(%rbx)
 4395      000000
 4396 0079 488D0500 		leaq	16+_ZTVSt15basic_streambufIcSt11char_traitsIcEE(%rip), %rax
 4396      000000
 4397 0080 66480F6E 		movq	%rdx, %xmm0
 4397      C2
 4398 0085 488D7B40 		leaq	64(%rbx), %rdi
 4399 0089 66480F6E 		movq	%rax, %xmm1
 4399      C8
 4400 008e 4C8D6B08 		leaq	8(%rbx), %r13
 4401 0092 660F6CC1 		punpcklqdq	%xmm1, %xmm0
 4402 0096 0F1103   		movups	%xmm0, (%rbx)
 4403 0099 660FEFC0 		pxor	%xmm0, %xmm0
 4404 009d 0F114310 		movups	%xmm0, 16(%rbx)
 4405 00a1 0F114320 		movups	%xmm0, 32(%rbx)
 4406 00a5 0F114330 		movups	%xmm0, 48(%rbx)
 4407 00a9 E8000000 		call	_ZNSt6localeC1Ev@PLT
 4407      00
 4408 00ae 488D0500 		leaq	16+_ZTVNSt7__cxx1115basic_stringbufIcSt11char_traitsIcESaIcEEE(%rip), %rax
 4408      000000
 4409 00b5 C6436000 		movb	$0, 96(%rbx)
 4410 00b9 4C89EE   		movq	%r13, %rsi
 4411 00bc 48894308 		movq	%rax, 8(%rbx)
 4412 00c0 488D4360 		leaq	96(%rbx), %rax
 4413 00c4 48894350 		movq	%rax, 80(%rbx)
 4414 00c8 488B03   		movq	(%rbx), %rax
 4415 00cb 48C74358 		movq	$0, 88(%rbx)
 4415      00000000 
 4416 00d3 C7434810 		movl	$16, 72(%rbx)
 4416      000000
 4417 00da 488B78E8 		movq	-24(%rax), %rdi
 4418 00de 4801DF   		addq	%rbx, %rdi
 4419              	.LEHB101:
 4420 00e1 E8000000 		call	_ZNSt9basic_iosIcSt11char_traitsIcEE4initEPSt15basic_streambufIcS1_E@PLT
 4420      00
 4421              	.LEHE101:
 4422 00e6 488D0500 		leaq	24+_ZTVN8UnitTest15MemoryOutStreamE(%rip), %rax
 4422      000000
 4423 00ed 48C74378 		movq	$0, 120(%rbx)
 4423      00000000 
 4424 00f5 488903   		movq	%rax, (%rbx)
 4425 00f8 4883C028 		addq	$40, %rax
 4426 00fc 48898390 		movq	%rax, 144(%rbx)
 4426      000000
 4427 0103 488D8380 		leaq	128(%rbx), %rax
 4427      000000
 4428 010a 48894370 		movq	%rax, 112(%rbx)
 4429 010e C6838000 		movb	$0, 128(%rbx)
 4429      000000
 4430 0115 5B       		popq	%rbx
 4431              		.cfi_remember_state
 4432              		.cfi_def_cfa_offset 40
 4433 0116 5D       		popq	%rbp
 4434              		.cfi_def_cfa_offset 32
 4435 0117 415C     		popq	%r12
 4436              		.cfi_def_cfa_offset 24
 4437 0119 415D     		popq	%r13
 4438              		.cfi_def_cfa_offset 16
 4439 011b 415E     		popq	%r14
 4440              		.cfi_def_cfa_offset 8
 4441 011d C3       		ret
 4442              	.L253:
 4443              		.cfi_restore_state
 4444 011e F30F1EFA 		endbr64
 4445 0122 4989C6   		movq	%rax, %r14
 4446 0125 EB12     		jmp	.L252
 4447              	.L254:
 4448 0127 F30F1EFA 		endbr64
 4449 012b 4989C6   		movq	%rax, %r14
 4450              	.L251:
 4451 012e 4C89EF   		movq	%r13, %rdi
 4452 0131 E8000000 		call	_ZNSt7__cxx1115basic_stringbufIcSt11char_traitsIcESaIcEED1Ev
 4452      00
 4453 0136 4C8923   		movq	%r12, (%rbx)
 4454              	.L252:
 4455 0139 488D0500 		leaq	16+_ZTVSt9basic_iosIcSt11char_traitsIcEE(%rip), %rax
 4455      000000
 4456 0140 4889EF   		movq	%rbp, %rdi
 4457 0143 48898390 		movq	%rax, 144(%rbx)
 4457      000000
 4458 014a E8000000 		call	_ZNSt8ios_baseD2Ev@PLT
 4458      00
 4459 014f 4C89F7   		movq	%r14, %rdi
 4460              	.LEHB102:
 4461 0152 E8000000 		call	_Unwind_Resume@PLT
 4461      00
 4462              	.LEHE102:
 4463              		.cfi_endproc
 4464              	.LFE1156:
 4465              		.section	.gcc_except_table
 4466              	.LLSDA1156:
 4467 02e8 FF       		.byte	0xff
 4468 02e9 FF       		.byte	0xff
 4469 02ea 01       		.byte	0x1
 4470 02eb 10       		.uleb128 .LLSDACSE1156-.LLSDACSB1156
 4471              	.LLSDACSB1156:
 4472 02ec 5F       		.uleb128 .LEHB100-.LFB1156
 4473 02ed 05       		.uleb128 .LEHE100-.LEHB100
 4474 02ee 9E02     		.uleb128 .L253-.LFB1156
 4475 02f0 00       		.uleb128 0
 4476 02f1 E101     		.uleb128 .LEHB101-.LFB1156
 4477 02f3 05       		.uleb128 .LEHE101-.LEHB101
 4478 02f4 A702     		.uleb128 .L254-.LFB1156
 4479 02f6 00       		.uleb128 0
 4480 02f7 D202     		.uleb128 .LEHB102-.LFB1156
 4481 02f9 05       		.uleb128 .LEHE102-.LEHB102
 4482 02fa 00       		.uleb128 0
 4483 02fb 00       		.uleb128 0
 4484              	.LLSDACSE1156:
 4485              		.section	.text._ZN8UnitTest15MemoryOutStreamC1Ev,"axG",@progbits,_ZN8UnitTest15MemoryOutStreamC1Ev
 4487              		.section	.rodata.str1.1
 4488              	.LC51:
 4489 008a 556E6861 		.string	"Unhandled exception: "
 4489      6E646C65 
 4489      64206578 
 4489      63657074 
 4489      696F6E3A 
 4490              		.section	.rodata.str1.8
 4491 04f4 00000000 		.align 8
 4492              	.LC52:
 4493 04f8 556E6861 		.string	"Unhandled exception while constructing fixture FixtureCtorThrows"
 4493      6E646C65 
 4493      64206578 
 4493      63657074 
 4493      696F6E20 
 4494              		.section	.text.unlikely
 4495              		.align 2
 4497              	_ZNK12_GLOBAL__N_146TestFixtureCtorThrowsFixtureCtorThrowsTestName7RunImplEv:
 4498              	.LFB1305:
 4499              		.cfi_startproc
 4500              		.cfi_personality 0x9b,DW.ref.__gxx_personality_v0
 4501              		.cfi_lsda 0x1b,.LLSDA1305
 4502 05cc F30F1EFA 		endbr64
 4503 05d0 4156     		pushq	%r14
 4504              		.cfi_def_cfa_offset 16
 4505              		.cfi_offset 14, -16
 4506 05d2 4155     		pushq	%r13
 4507              		.cfi_def_cfa_offset 24
 4508              		.cfi_offset 13, -24
 4509 05d4 4C8D6F08 		leaq	8(%rdi), %r13
 4510 05d8 4154     		pushq	%r12
 4511              		.cfi_def_cfa_offset 32
 4512              		.cfi_offset 12, -32
 4513 05da 4989FC   		movq	%rdi, %r12
 4514 05dd BF080000 		movl	$8, %edi
 4514      00
 4515 05e2 55       		pushq	%rbp
 4516              		.cfi_def_cfa_offset 40
 4517              		.cfi_offset 6, -40
 4518 05e3 53       		pushq	%rbx
 4519              		.cfi_def_cfa_offset 48
 4520              		.cfi_offset 3, -48
 4521 05e4 4881ECC0 		subq	$448, %rsp
 4521      010000
 4522              		.cfi_def_cfa_offset 496
 4523 05eb 64488B04 		movq	%fs:40, %rax
 4523      25280000 
 4523      00
 4524 05f4 48898424 		movq	%rax, 440(%rsp)
 4524      B8010000 
 4525 05fc 31C0     		xorl	%eax, %eax
 4526 05fe E8000000 		call	__cxa_allocate_exception@PLT
 4526      00
 4527 0603 31D2     		xorl	%edx, %edx
 4528 0605 488D3500 		leaq	_ZTIPKc(%rip), %rsi
 4528      000000
 4529 060c 4889C7   		movq	%rax, %rdi
 4530 060f 488D0500 		leaq	.LC39(%rip), %rax
 4530      000000
 4531 0616 488907   		movq	%rax, (%rdi)
 4532              	.LEHB103:
 4533 0619 E8000000 		call	__cxa_throw@PLT
 4533      00
 4534              	.LEHE103:
 4535              	.L271:
 4536 061e F30F1EFA 		endbr64
 4537 0622 4889C7   		movq	%rax, %rdi
 4538              	.L259:
 4539 0625 4883FA01 		cmpq	$1, %rdx
 4540 0629 740C     		je	.L260
 4541 062b 4883FA02 		cmpq	$2, %rdx
 4542 062f 0F85E700 		jne	.L276
 4542      0000
 4543 0635 EB5A     		jmp	.L282
 4544              	.L260:
 4545 0637 E8000000 		call	__cxa_begin_catch@PLT
 4545      00
 4546 063c 4889C5   		movq	%rax, %rbp
 4547              	.LEHB104:
 4548 063f E8000000 		call	_ZN8UnitTest11CurrentTest7ResultsEv@PLT
 4548      00
 4549 0644 4C8B30   		movq	(%rax), %r14
 4550 0647 488B4500 		movq	0(%rbp), %rax
 4551 064b 4889EF   		movq	%rbp, %rdi
 4552 064e FF5010   		call	*16(%rax)
 4553 0651 4889EF   		movq	%rbp, %rdi
 4554 0654 4989C5   		movq	%rax, %r13
 4555 0657 E8000000 		call	_ZNK8UnitTest15AssertException10LineNumberEv@PLT
 4555      00
 4556 065c 4889EF   		movq	%rbp, %rdi
 4557 065f 89C3     		movl	%eax, %ebx
 4558 0661 E8000000 		call	_ZNK8UnitTest15AssertException8FilenameEv@PLT
 4558      00
 4559 0666 4889E5   		movq	%rsp, %rbp
 4560 0669 498B5424 		movq	8(%r12), %rdx
 4560      08
 4561 066e 498B7424 		movq	16(%r12), %rsi
 4561      10
 4562 0673 4889C1   		movq	%rax, %rcx
 4563 0676 4189D8   		movl	%ebx, %r8d
 4564 0679 4889EF   		movq	%rbp, %rdi
 4565 067c E8000000 		call	_ZN8UnitTest11TestDetailsC1EPKcS2_S2_i@PLT
 4565      00
 4566 0681 4C89EA   		movq	%r13, %rdx
 4567 0684 4889EE   		movq	%rbp, %rsi
 4568 0687 4C89F7   		movq	%r14, %rdi
 4569 068a E8000000 		call	_ZN8UnitTest11TestResults13OnTestFailureERKNS_11TestDetailsEPKc@PLT
 4569      00
 4570              	.LEHE104:
 4571 068f EB64     		jmp	.L280
 4572              	.L282:
 4573 0691 E8000000 		call	__cxa_begin_catch@PLT
 4573      00
 4574 0696 4C8D6424 		leaq	32(%rsp), %r12
 4574      20
 4575 069b 4C89E7   		movq	%r12, %rdi
 4576 069e 4889C5   		movq	%rax, %rbp
 4577              	.LEHB105:
 4578 06a1 E8000000 		call	_ZN8UnitTest15MemoryOutStreamC1Ev
 4578      00
 4579              	.LEHE105:
 4580 06a6 BA150000 		movl	$21, %edx
 4580      00
 4581 06ab 488D3500 		leaq	.LC51(%rip), %rsi
 4581      000000
 4582 06b2 4C89E7   		movq	%r12, %rdi
 4583              	.LEHB106:
 4584 06b5 E8000000 		call	_ZSt16__ostream_insertIcSt11char_traitsIcEERSt13basic_ostreamIT_T0_ES6_PKS3_l@PLT
 4584      00
 4585 06ba 488B4500 		movq	0(%rbp), %rax
 4586 06be 4889EF   		movq	%rbp, %rdi
 4587 06c1 FF5010   		call	*16(%rax)
 4588 06c4 4C89E7   		movq	%r12, %rdi
 4589 06c7 4889C6   		movq	%rax, %rsi
 4590 06ca E8000000 		call	_ZStlsISt11char_traitsIcEERSt13basic_ostreamIcT_ES5_PKc@PLT
 4590      00
 4591 06cf E8000000 		call	_ZN8UnitTest11CurrentTest7ResultsEv@PLT
 4591      00
 4592 06d4 4C89E7   		movq	%r12, %rdi
 4593 06d7 488B28   		movq	(%rax), %rbp
 4594 06da E8000000 		call	_ZNK8UnitTest15MemoryOutStream7GetTextEv@PLT
 4594      00
 4595 06df 4889C2   		movq	%rax, %rdx
 4596 06e2 4C89EE   		movq	%r13, %rsi
 4597 06e5 4889EF   		movq	%rbp, %rdi
 4598 06e8 E8000000 		call	_ZN8UnitTest11TestResults13OnTestFailureERKNS_11TestDetailsEPKc@PLT
 4598      00
 4599              	.LEHE106:
 4600 06ed 4C89E7   		movq	%r12, %rdi
 4601              	.LEHB107:
 4602 06f0 E8000000 		call	_ZN8UnitTest15MemoryOutStreamD1Ev
 4602      00
 4603              	.LEHE107:
 4604              	.L280:
 4605 06f5 488B8424 		movq	440(%rsp), %rax
 4605      B8010000 
 4606 06fd 64482B04 		subq	%fs:40, %rax
 4606      25280000 
 4606      00
 4607 0706 7559     		jne	.L279
 4608 0708 4881C4C0 		addq	$448, %rsp
 4608      010000
 4609              		.cfi_remember_state
 4610              		.cfi_def_cfa_offset 48
 4611 070f 5B       		popq	%rbx
 4612              		.cfi_def_cfa_offset 40
 4613 0710 5D       		popq	%rbp
 4614              		.cfi_def_cfa_offset 32
 4615 0711 415C     		popq	%r12
 4616              		.cfi_def_cfa_offset 24
 4617 0713 415D     		popq	%r13
 4618              		.cfi_def_cfa_offset 16
 4619 0715 415E     		popq	%r14
 4620              		.cfi_def_cfa_offset 8
 4621 0717 E9000000 		jmp	__cxa_end_catch@PLT
 4621      00
 4622              	.L276:
 4623              		.cfi_restore_state
 4624 071c E8000000 		call	__cxa_begin_catch@PLT
 4624      00
 4625              	.LEHB108:
 4626 0721 E8000000 		call	_ZN8UnitTest11CurrentTest7ResultsEv@PLT
 4626      00
 4627 0726 4889E5   		movq	%rsp, %rbp
 4628 0729 BA710000 		movl	$113, %edx
 4628      00
 4629 072e 4C89EE   		movq	%r13, %rsi
 4630 0731 4C8B20   		movq	(%rax), %r12
 4631 0734 4889EF   		movq	%rbp, %rdi
 4632 0737 E8000000 		call	_ZN8UnitTest11TestDetailsC1ERKS0_i@PLT
 4632      00
 4633 073c 488D1500 		leaq	.LC52(%rip), %rdx
 4633      000000
 4634 0743 4889EE   		movq	%rbp, %rsi
 4635 0746 4C89E7   		movq	%r12, %rdi
 4636 0749 E8000000 		call	_ZN8UnitTest11TestResults13OnTestFailureERKNS_11TestDetailsEPKc@PLT
 4636      00
 4637              	.LEHE108:
 4638 074e 488B8424 		movq	440(%rsp), %rax
 4638      B8010000 
 4639 0756 64482B04 		subq	%fs:40, %rax
 4639      25280000 
 4639      00
 4640 075f 7405     		je	.L265
 4641              	.L279:
 4642 0761 E8000000 		call	__stack_chk_fail@PLT
 4642      00
 4643              	.L265:
 4644 0766 4881C4C0 		addq	$448, %rsp
 4644      010000
 4645              		.cfi_remember_state
 4646              		.cfi_def_cfa_offset 48
 4647 076d 5B       		popq	%rbx
 4648              		.cfi_def_cfa_offset 40
 4649 076e 5D       		popq	%rbp
 4650              		.cfi_def_cfa_offset 32
 4651 076f 415C     		popq	%r12
 4652              		.cfi_def_cfa_offset 24
 4653 0771 415D     		popq	%r13
 4654              		.cfi_def_cfa_offset 16
 4655 0773 415E     		popq	%r14
 4656              		.cfi_def_cfa_offset 8
 4657              	.LEHB109:
 4658 0775 E9000000 		jmp	__cxa_end_catch@PLT
 4658      00
 4659              	.LEHE109:
 4660              	.L272:
 4661              		.cfi_restore_state
 4662 077a F30F1EFA 		endbr64
 4663 077e EB15     		jmp	.L281
 4664              	.L274:
 4665 0780 F30F1EFA 		endbr64
 4666 0784 4889C5   		movq	%rax, %rbp
 4667              	.L267:
 4668 0787 4C89E7   		movq	%r12, %rdi
 4669 078a E8000000 		call	_ZN8UnitTest15MemoryOutStreamD1Ev
 4669      00
 4670 078f EB07     		jmp	.L268
 4671              	.L273:
 4672 0791 F30F1EFA 		endbr64
 4673              	.L281:
 4674 0795 4889C5   		movq	%rax, %rbp
 4675              	.L268:
 4676 0798 E8000000 		call	__cxa_end_catch@PLT
 4676      00
 4677 079d 4889EF   		movq	%rbp, %rdi
 4678              	.LEHB110:
 4679 07a0 E8000000 		call	_Unwind_Resume@PLT
 4679      00
 4680              	.LEHE110:
 4681              	.L275:
 4682 07a5 F30F1EFA 		endbr64
 4683 07a9 4889C5   		movq	%rax, %rbp
 4684              	.L269:
 4685 07ac E8000000 		call	__cxa_end_catch@PLT
 4685      00
 4686 07b1 4889EF   		movq	%rbp, %rdi
 4687              	.LEHB111:
 4688 07b4 E8000000 		call	_Unwind_Resume@PLT
 4688      00
 4689              	.LEHE111:
 4690              		.cfi_endproc
 4691              	.LFE1305:
 4692              		.section	.gcc_except_table
 4693              		.align 4
 4694              	.LLSDA1305:
 4695 02fc FF       		.byte	0xff
 4696 02fd 9B       		.byte	0x9b
 4697 02fe 45       		.uleb128 .LLSDATT1305-.LLSDATTD1305
 4698              	.LLSDATTD1305:
 4699 02ff 01       		.byte	0x1
 4700 0300 30       		.uleb128 .LLSDACSE1305-.LLSDACSB1305
 4701              	.LLSDACSB1305:
 4702 0301 4D       		.uleb128 .LEHB103-.LFB1305
 4703 0302 05       		.uleb128 .LEHE103-.LEHB103
 4704 0303 52       		.uleb128 .L271-.LFB1305
 4705 0304 05       		.uleb128 0x5
 4706 0305 73       		.uleb128 .LEHB104-.LFB1305
 4707 0306 50       		.uleb128 .LEHE104-.LEHB104
 4708 0307 AE03     		.uleb128 .L272-.LFB1305
 4709 0309 00       		.uleb128 0
 4710 030a D501     		.uleb128 .LEHB105-.LFB1305
 4711 030c 05       		.uleb128 .LEHE105-.LEHB105
 4712 030d C503     		.uleb128 .L273-.LFB1305
 4713 030f 00       		.uleb128 0
 4714 0310 E901     		.uleb128 .LEHB106-.LFB1305
 4715 0312 38       		.uleb128 .LEHE106-.LEHB106
 4716 0313 B403     		.uleb128 .L274-.LFB1305
 4717 0315 00       		.uleb128 0
 4718 0316 A402     		.uleb128 .LEHB107-.LFB1305
 4719 0318 05       		.uleb128 .LEHE107-.LEHB107
 4720 0319 C503     		.uleb128 .L273-.LFB1305
 4721 031b 00       		.uleb128 0
 4722 031c D502     		.uleb128 .LEHB108-.LFB1305
 4723 031e 2D       		.uleb128 .LEHE108-.LEHB108
 4724 031f D903     		.uleb128 .L275-.LFB1305
 4725 0321 00       		.uleb128 0
 4726 0322 A903     		.uleb128 .LEHB109-.LFB1305
 4727 0324 05       		.uleb128 .LEHE109-.LEHB109
 4728 0325 00       		.uleb128 0
 4729 0326 00       		.uleb128 0
 4730 0327 D403     		.uleb128 .LEHB110-.LFB1305
 4731 0329 05       		.uleb128 .LEHE110-.LEHB110
 4732 032a 00       		.uleb128 0
 4733 032b 00       		.uleb128 0
 4734 032c E803     		.uleb128 .LEHB111-.LFB1305
 4735 032e 05       		.uleb128 .LEHE111-.LEHB111
 4736 032f 00       		.uleb128 0
 4737 0330 00       		.uleb128 0
 4738              	.LLSDACSE1305:
 4739 0331 03       		.byte	0x3
 4740 0332 00       		.byte	0
 4741 0333 02       		.byte	0x2
 4742 0334 7D       		.byte	0x7d
 4743 0335 01       		.byte	0x1
 4744 0336 7D       		.byte	0x7d
 4745 0337 00       		.align 4
 4746 0338 00000000 		.long	0
 4747              	
 4748 033c 00000000 		.long	DW.ref._ZTISt9exception-.
 4749 0340 00000000 		.long	DW.ref._ZTIN8UnitTest15AssertExceptionE-.
 4750              	.LLSDATT1305:
 4751              		.section	.text.unlikely
 4753              		.section	.rodata.str1.1
 4754              	.LC53:
 4755 00a0 4F6F7073 		.string	"Oops"
 4755      00
 4756              		.section	.rodata.str1.8
 4757 0539 00000000 		.align 8
 4757      000000
 4758              	.LC54:
 4759 0540 556E6861 		.string	"Unhandled exception while constructing fixture ThrowingThingie"
 4759      6E646C65 
 4759      64206578 
 4759      63657074 
 4759      696F6E20 
 4760              		.section	.text.unlikely
 4761 07b9 90       		.align 2
 4763              	_ZNK12_GLOBAL__N_132TestThrowingThingieDummyTestName7RunImplEv:
 4764              	.LFB1244:
 4765              		.cfi_startproc
 4766              		.cfi_personality 0x9b,DW.ref.__gxx_personality_v0
 4767              		.cfi_lsda 0x1b,.LLSDA1244
 4768 07ba F30F1EFA 		endbr64
 4769 07be 4156     		pushq	%r14
 4770              		.cfi_def_cfa_offset 16
 4771              		.cfi_offset 14, -16
 4772 07c0 4155     		pushq	%r13
 4773              		.cfi_def_cfa_offset 24
 4774              		.cfi_offset 13, -24
 4775 07c2 4C8D6F08 		leaq	8(%rdi), %r13
 4776 07c6 4154     		pushq	%r12
 4777              		.cfi_def_cfa_offset 32
 4778              		.cfi_offset 12, -32
 4779 07c8 4989FC   		movq	%rdi, %r12
 4780 07cb BF080000 		movl	$8, %edi
 4780      00
 4781 07d0 55       		pushq	%rbp
 4782              		.cfi_def_cfa_offset 40
 4783              		.cfi_offset 6, -40
 4784 07d1 53       		pushq	%rbx
 4785              		.cfi_def_cfa_offset 48
 4786              		.cfi_offset 3, -48
 4787 07d2 4881ECC0 		subq	$448, %rsp
 4787      010000
 4788              		.cfi_def_cfa_offset 496
 4789 07d9 64488B04 		movq	%fs:40, %rax
 4789      25280000 
 4789      00
 4790 07e2 48898424 		movq	%rax, 440(%rsp)
 4790      B8010000 
 4791 07ea 31C0     		xorl	%eax, %eax
 4792 07ec E8000000 		call	__cxa_allocate_exception@PLT
 4792      00
 4793 07f1 31D2     		xorl	%edx, %edx
 4794 07f3 488D3500 		leaq	_ZTIPKc(%rip), %rsi
 4794      000000
 4795 07fa 4889C7   		movq	%rax, %rdi
 4796 07fd 488D0500 		leaq	.LC53(%rip), %rax
 4796      000000
 4797 0804 488907   		movq	%rax, (%rdi)
 4798              	.LEHB112:
 4799 0807 E8000000 		call	__cxa_throw@PLT
 4799      00
 4800              	.LEHE112:
 4801              	.L296:
 4802 080c F30F1EFA 		endbr64
 4803 0810 4889C7   		movq	%rax, %rdi
 4804              	.L284:
 4805 0813 4883FA01 		cmpq	$1, %rdx
 4806 0817 740C     		je	.L285
 4807 0819 4883FA02 		cmpq	$2, %rdx
 4808 081d 0F85E700 		jne	.L301
 4808      0000
 4809 0823 EB5A     		jmp	.L307
 4810              	.L285:
 4811 0825 E8000000 		call	__cxa_begin_catch@PLT
 4811      00
 4812 082a 4889C5   		movq	%rax, %rbp
 4813              	.LEHB113:
 4814 082d E8000000 		call	_ZN8UnitTest11CurrentTest7ResultsEv@PLT
 4814      00
 4815 0832 4C8B30   		movq	(%rax), %r14
 4816 0835 488B4500 		movq	0(%rbp), %rax
 4817 0839 4889EF   		movq	%rbp, %rdi
 4818 083c FF5010   		call	*16(%rax)
 4819 083f 4889EF   		movq	%rbp, %rdi
 4820 0842 4989C5   		movq	%rax, %r13
 4821 0845 E8000000 		call	_ZNK8UnitTest15AssertException10LineNumberEv@PLT
 4821      00
 4822 084a 4889EF   		movq	%rbp, %rdi
 4823 084d 89C3     		movl	%eax, %ebx
 4824 084f E8000000 		call	_ZNK8UnitTest15AssertException8FilenameEv@PLT
 4824      00
 4825 0854 4889E5   		movq	%rsp, %rbp
 4826 0857 498B5424 		movq	8(%r12), %rdx
 4826      08
 4827 085c 498B7424 		movq	16(%r12), %rsi
 4827      10
 4828 0861 4889C1   		movq	%rax, %rcx
 4829 0864 4189D8   		movl	%ebx, %r8d
 4830 0867 4889EF   		movq	%rbp, %rdi
 4831 086a E8000000 		call	_ZN8UnitTest11TestDetailsC1EPKcS2_S2_i@PLT
 4831      00
 4832 086f 4C89EA   		movq	%r13, %rdx
 4833 0872 4889EE   		movq	%rbp, %rsi
 4834 0875 4C89F7   		movq	%r14, %rdi
 4835 0878 E8000000 		call	_ZN8UnitTest11TestResults13OnTestFailureERKNS_11TestDetailsEPKc@PLT
 4835      00
 4836              	.LEHE113:
 4837 087d EB64     		jmp	.L305
 4838              	.L307:
 4839 087f E8000000 		call	__cxa_begin_catch@PLT
 4839      00
 4840 0884 4C8D6424 		leaq	32(%rsp), %r12
 4840      20
 4841 0889 4C89E7   		movq	%r12, %rdi
 4842 088c 4889C5   		movq	%rax, %rbp
 4843              	.LEHB114:
 4844 088f E8000000 		call	_ZN8UnitTest15MemoryOutStreamC1Ev
 4844      00
 4845              	.LEHE114:
 4846 0894 BA150000 		movl	$21, %edx
 4846      00
 4847 0899 488D3500 		leaq	.LC51(%rip), %rsi
 4847      000000
 4848 08a0 4C89E7   		movq	%r12, %rdi
 4849              	.LEHB115:
 4850 08a3 E8000000 		call	_ZSt16__ostream_insertIcSt11char_traitsIcEERSt13basic_ostreamIT_T0_ES6_PKS3_l@PLT
 4850      00
 4851 08a8 488B4500 		movq	0(%rbp), %rax
 4852 08ac 4889EF   		movq	%rbp, %rdi
 4853 08af FF5010   		call	*16(%rax)
 4854 08b2 4C89E7   		movq	%r12, %rdi
 4855 08b5 4889C6   		movq	%rax, %rsi
 4856 08b8 E8000000 		call	_ZStlsISt11char_traitsIcEERSt13basic_ostreamIcT_ES5_PKc@PLT
 4856      00
 4857 08bd E8000000 		call	_ZN8UnitTest11CurrentTest7ResultsEv@PLT
 4857      00
 4858 08c2 4C89E7   		movq	%r12, %rdi
 4859 08c5 488B28   		movq	(%rax), %rbp
 4860 08c8 E8000000 		call	_ZNK8UnitTest15MemoryOutStream7GetTextEv@PLT
 4860      00
 4861 08cd 4889C2   		movq	%rax, %rdx
 4862 08d0 4C89EE   		movq	%r13, %rsi
 4863 08d3 4889EF   		movq	%rbp, %rdi
 4864 08d6 E8000000 		call	_ZN8UnitTest11TestResults13OnTestFailureERKNS_11TestDetailsEPKc@PLT
 4864      00
 4865              	.LEHE115:
 4866 08db 4C89E7   		movq	%r12, %rdi
 4867              	.LEHB116:
 4868 08de E8000000 		call	_ZN8UnitTest15MemoryOutStreamD1Ev
 4868      00
 4869              	.LEHE116:
 4870              	.L305:
 4871 08e3 488B8424 		movq	440(%rsp), %rax
 4871      B8010000 
 4872 08eb 64482B04 		subq	%fs:40, %rax
 4872      25280000 
 4872      00
 4873 08f4 7559     		jne	.L304
 4874 08f6 4881C4C0 		addq	$448, %rsp
 4874      010000
 4875              		.cfi_remember_state
 4876              		.cfi_def_cfa_offset 48
 4877 08fd 5B       		popq	%rbx
 4878              		.cfi_def_cfa_offset 40
 4879 08fe 5D       		popq	%rbp
 4880              		.cfi_def_cfa_offset 32
 4881 08ff 415C     		popq	%r12
 4882              		.cfi_def_cfa_offset 24
 4883 0901 415D     		popq	%r13
 4884              		.cfi_def_cfa_offset 16
 4885 0903 415E     		popq	%r14
 4886              		.cfi_def_cfa_offset 8
 4887 0905 E9000000 		jmp	__cxa_end_catch@PLT
 4887      00
 4888              	.L301:
 4889              		.cfi_restore_state
 4890 090a E8000000 		call	__cxa_begin_catch@PLT
 4890      00
 4891              	.LEHB117:
 4892 090f E8000000 		call	_ZN8UnitTest11CurrentTest7ResultsEv@PLT
 4892      00
 4893 0914 4889E5   		movq	%rsp, %rbp
 4894 0917 BA250000 		movl	$37, %edx
 4894      00
 4895 091c 4C89EE   		movq	%r13, %rsi
 4896 091f 4C8B20   		movq	(%rax), %r12
 4897 0922 4889EF   		movq	%rbp, %rdi
 4898 0925 E8000000 		call	_ZN8UnitTest11TestDetailsC1ERKS0_i@PLT
 4898      00
 4899 092a 488D1500 		leaq	.LC54(%rip), %rdx
 4899      000000
 4900 0931 4889EE   		movq	%rbp, %rsi
 4901 0934 4C89E7   		movq	%r12, %rdi
 4902 0937 E8000000 		call	_ZN8UnitTest11TestResults13OnTestFailureERKNS_11TestDetailsEPKc@PLT
 4902      00
 4903              	.LEHE117:
 4904 093c 488B8424 		movq	440(%rsp), %rax
 4904      B8010000 
 4905 0944 64482B04 		subq	%fs:40, %rax
 4905      25280000 
 4905      00
 4906 094d 7405     		je	.L290
 4907              	.L304:
 4908 094f E8000000 		call	__stack_chk_fail@PLT
 4908      00
 4909              	.L290:
 4910 0954 4881C4C0 		addq	$448, %rsp
 4910      010000
 4911              		.cfi_remember_state
 4912              		.cfi_def_cfa_offset 48
 4913 095b 5B       		popq	%rbx
 4914              		.cfi_def_cfa_offset 40
 4915 095c 5D       		popq	%rbp
 4916              		.cfi_def_cfa_offset 32
 4917 095d 415C     		popq	%r12
 4918              		.cfi_def_cfa_offset 24
 4919 095f 415D     		popq	%r13
 4920              		.cfi_def_cfa_offset 16
 4921 0961 415E     		popq	%r14
 4922              		.cfi_def_cfa_offset 8
 4923              	.LEHB118:
 4924 0963 E9000000 		jmp	__cxa_end_catch@PLT
 4924      00
 4925              	.LEHE118:
 4926              	.L297:
 4927              		.cfi_restore_state
 4928 0968 F30F1EFA 		endbr64
 4929 096c EB15     		jmp	.L306
 4930              	.L299:
 4931 096e F30F1EFA 		endbr64
 4932 0972 4889C5   		movq	%rax, %rbp
 4933              	.L292:
 4934 0975 4C89E7   		movq	%r12, %rdi
 4935 0978 E8000000 		call	_ZN8UnitTest15MemoryOutStreamD1Ev
 4935      00
 4936 097d EB07     		jmp	.L293
 4937              	.L298:
 4938 097f F30F1EFA 		endbr64
 4939              	.L306:
 4940 0983 4889C5   		movq	%rax, %rbp
 4941              	.L293:
 4942 0986 E8000000 		call	__cxa_end_catch@PLT
 4942      00
 4943 098b 4889EF   		movq	%rbp, %rdi
 4944              	.LEHB119:
 4945 098e E8000000 		call	_Unwind_Resume@PLT
 4945      00
 4946              	.LEHE119:
 4947              	.L300:
 4948 0993 F30F1EFA 		endbr64
 4949 0997 4889C5   		movq	%rax, %rbp
 4950              	.L294:
 4951 099a E8000000 		call	__cxa_end_catch@PLT
 4951      00
 4952 099f 4889EF   		movq	%rbp, %rdi
 4953              	.LEHB120:
 4954 09a2 E8000000 		call	_Unwind_Resume@PLT
 4954      00
 4955              	.LEHE120:
 4956              		.cfi_endproc
 4957              	.LFE1244:
 4958              		.section	.gcc_except_table
 4959              		.align 4
 4960              	.LLSDA1244:
 4961 0344 FF       		.byte	0xff
 4962 0345 9B       		.byte	0x9b
 4963 0346 45       		.uleb128 .LLSDATT1244-.LLSDATTD1244
 4964              	.LLSDATTD1244:
 4965 0347 01       		.byte	0x1
 4966 0348 30       		.uleb128 .LLSDACSE1244-.LLSDACSB1244
 4967              	.LLSDACSB1244:
 4968 0349 4D       		.uleb128 .LEHB112-.LFB1244
 4969 034a 05       		.uleb128 .LEHE112-.LEHB112
 4970 034b 52       		.uleb128 .L296-.LFB1244
 4971 034c 05       		.uleb128 0x5
 4972 034d 73       		.uleb128 .LEHB113-.LFB1244
 4973 034e 50       		.uleb128 .LEHE113-.LEHB113
 4974 034f AE03     		.uleb128 .L297-.LFB1244
 4975 0351 00       		.uleb128 0
 4976 0352 D501     		.uleb128 .LEHB114-.LFB1244
 4977 0354 05       		.uleb128 .LEHE114-.LEHB114
 4978 0355 C503     		.uleb128 .L298-.LFB1244
 4979 0357 00       		.uleb128 0
 4980 0358 E901     		.uleb128 .LEHB115-.LFB1244
 4981 035a 38       		.uleb128 .LEHE115-.LEHB115
 4982 035b B403     		.uleb128 .L299-.LFB1244
 4983 035d 00       		.uleb128 0
 4984 035e A402     		.uleb128 .LEHB116-.LFB1244
 4985 0360 05       		.uleb128 .LEHE116-.LEHB116
 4986 0361 C503     		.uleb128 .L298-.LFB1244
 4987 0363 00       		.uleb128 0
 4988 0364 D502     		.uleb128 .LEHB117-.LFB1244
 4989 0366 2D       		.uleb128 .LEHE117-.LEHB117
 4990 0367 D903     		.uleb128 .L300-.LFB1244
 4991 0369 00       		.uleb128 0
 4992 036a A903     		.uleb128 .LEHB118-.LFB1244
 4993 036c 05       		.uleb128 .LEHE118-.LEHB118
 4994 036d 00       		.uleb128 0
 4995 036e 00       		.uleb128 0
 4996 036f D403     		.uleb128 .LEHB119-.LFB1244
 4997 0371 05       		.uleb128 .LEHE119-.LEHB119
 4998 0372 00       		.uleb128 0
 4999 0373 00       		.uleb128 0
 5000 0374 E803     		.uleb128 .LEHB120-.LFB1244
 5001 0376 05       		.uleb128 .LEHE120-.LEHB120
 5002 0377 00       		.uleb128 0
 5003 0378 00       		.uleb128 0
 5004              	.LLSDACSE1244:
 5005 0379 03       		.byte	0x3
 5006 037a 00       		.byte	0
 5007 037b 02       		.byte	0x2
 5008 037c 7D       		.byte	0x7d
 5009 037d 01       		.byte	0x1
 5010 037e 7D       		.byte	0x7d
 5011 037f 00       		.align 4
 5012 0380 00000000 		.long	0
 5013              	
 5014 0384 00000000 		.long	DW.ref._ZTISt9exception-.
 5015 0388 00000000 		.long	DW.ref._ZTIN8UnitTest15AssertExceptionE-.
 5016              	.LLSDATT1244:
 5017              		.section	.text.unlikely
 5019              		.section	.rodata.str1.1
 5020              	.LC55:
 5021 00a5 556E6861 		.string	"Unhandled system exception"
 5021      6E646C65 
 5021      64207379 
 5021      7374656D 
 5021      20657863 
 5022              	.LC56:
 5023 00c0 556E6861 		.string	"Unhandled exception: Crash!"
 5023      6E646C65 
 5023      64206578 
 5023      63657074 
 5023      696F6E3A 
 5024              		.section	.text.unlikely
 5025              	.LCOLDB57:
 5026              		.text
 5027              	.LHOTB57:
 5028 0d37 660F1F84 		.p2align 4
 5028      00000000 
 5028      00
 5030              	_ZN8UnitTest11ExecuteTestIN12_GLOBAL__N_115SuiteTestSuite165DummyFixtureSimilarlyNamedFixtureTestsI
 5031              	.LFB1543:
 5032              		.cfi_startproc
 5033              		.cfi_personality 0x9b,DW.ref.__gxx_personality_v0
 5034              		.cfi_lsda 0x1b,.LLSDA1543
 5035 0d40 4156     		pushq	%r14
 5036              		.cfi_def_cfa_offset 16
 5037              		.cfi_offset 14, -16
 5038 0d42 4155     		pushq	%r13
 5039              		.cfi_def_cfa_offset 24
 5040              		.cfi_offset 13, -24
 5041 0d44 4154     		pushq	%r12
 5042              		.cfi_def_cfa_offset 32
 5043              		.cfi_offset 12, -32
 5044 0d46 55       		pushq	%rbp
 5045              		.cfi_def_cfa_offset 40
 5046              		.cfi_offset 6, -40
 5047 0d47 53       		pushq	%rbx
 5048              		.cfi_def_cfa_offset 48
 5049              		.cfi_offset 3, -48
 5050 0d48 4889FB   		movq	%rdi, %rbx
 5051 0d4b 4881EC40 		subq	$1600, %rsp
 5051      060000
 5052              		.cfi_def_cfa_offset 1648
 5053 0d52 48897C24 		movq	%rdi, 8(%rsp)
 5053      08
 5054 0d57 64488B04 		movq	%fs:40, %rax
 5054      25280000 
 5054      00
 5055 0d60 48898424 		movq	%rax, 1592(%rsp)
 5055      38060000 
 5056 0d68 31C0     		xorl	%eax, %eax
 5057              	.LEHB121:
 5058 0d6a E8000000 		call	_ZN8UnitTest11CurrentTest7DetailsEv@PLT
 5058      00
 5059              	.LEHE121:
 5060 0d6f 488DBC24 		leaq	464(%rsp), %rdi
 5060      D0010000 
 5061 0d77 488918   		movq	%rbx, (%rax)
 5062              	.LEHB122:
 5063 0d7a E8000000 		call	_ZN8UnitTest16SignalTranslatorC1Ev@PLT
 5063      00
 5064 0d7f 488B3D00 		movq	_ZN8UnitTest16SignalTranslator12s_jumpTargetE(%rip), %rdi
 5064      000000
 5065 0d86 BE010000 		movl	$1, %esi
 5065      00
 5066 0d8b E8000000 		call	__sigsetjmp@PLT
 5066      00
 5067 0d90 F30F1EFA 		endbr64
 5068 0d94 85C0     		testl	%eax, %eax
 5069 0d96 0F850000 		jne	.L329
 5069      0000
 5070 0d9c 488DBC24 		leaq	464(%rsp), %rdi
 5070      D0010000 
 5071 0da4 E8000000 		call	_ZN8UnitTest16SignalTranslatorD1Ev@PLT
 5071      00
 5072              	.LEHE122:
 5073              	.L308:
 5074 0da9 488B8424 		movq	1592(%rsp), %rax
 5074      38060000 
 5075 0db1 64482B04 		subq	%fs:40, %rax
 5075      25280000 
 5075      00
 5076 0dba 7510     		jne	.L332
 5077 0dbc 4881C440 		addq	$1600, %rsp
 5077      060000
 5078              		.cfi_remember_state
 5079              		.cfi_def_cfa_offset 48
 5080 0dc3 5B       		popq	%rbx
 5081              		.cfi_def_cfa_offset 40
 5082 0dc4 5D       		popq	%rbp
 5083              		.cfi_def_cfa_offset 32
 5084 0dc5 415C     		popq	%r12
 5085              		.cfi_def_cfa_offset 24
 5086 0dc7 415D     		popq	%r13
 5087              		.cfi_def_cfa_offset 16
 5088 0dc9 415E     		popq	%r14
 5089              		.cfi_def_cfa_offset 8
 5090 0dcb C3       		ret
 5091              	.L332:
 5092              		.cfi_restore_state
 5093 0dcc E8000000 		call	__stack_chk_fail@PLT
 5093      00
 5094              	.L327:
 5095 0dd1 F30F1EFA 		endbr64
 5096 0dd5 4889C7   		movq	%rax, %rdi
 5097 0dd8 4889D0   		movq	%rdx, %rax
 5098 0ddb E9000000 		jmp	.L312
 5098      00
 5099              		.section	.gcc_except_table
 5100              		.align 4
 5101              	.LLSDA1543:
 5102 038c FF       		.byte	0xff
 5103 038d 9B       		.byte	0x9b
 5104 038e 21       		.uleb128 .LLSDATT1543-.LLSDATTD1543
 5105              	.LLSDATTD1543:
 5106 038f 01       		.byte	0x1
 5107 0390 09       		.uleb128 .LLSDACSE1543-.LLSDACSB1543
 5108              	.LLSDACSB1543:
 5109 0391 2A       		.uleb128 .LEHB121-.LFB1543
 5110 0392 05       		.uleb128 .LEHE121-.LEHB121
 5111 0393 00       		.uleb128 0
 5112 0394 00       		.uleb128 0
 5113 0395 3A       		.uleb128 .LEHB122-.LFB1543
 5114 0396 2F       		.uleb128 .LEHE122-.LEHB122
 5115 0397 9101     		.uleb128 .L327-.LFB1543
 5116 0399 05       		.uleb128 0x5
 5117              	.LLSDACSE1543:
 5118 039a 03       		.byte	0x3
 5119 039b 00       		.byte	0
 5120 039c 02       		.byte	0x2
 5121 039d 7D       		.byte	0x7d
 5122 039e 01       		.byte	0x1
 5123 039f 7D       		.byte	0x7d
 5124 03a0 00       		.byte	0
 5125 03a1 7D       		.byte	0x7d
 5126 03a2 0000     		.align 4
 5127 03a4 00000000 		.long	0
 5128              	
 5129 03a8 00000000 		.long	DW.ref._ZTISt9exception-.
 5130 03ac 00000000 		.long	DW.ref._ZTIN8UnitTest15AssertExceptionE-.
 5131              	.LLSDATT1543:
 5132              		.text
 5133              		.cfi_endproc
 5134              		.section	.text.unlikely
 5135              		.cfi_startproc
 5136              		.cfi_personality 0x9b,DW.ref.__gxx_personality_v0
 5137              		.cfi_lsda 0x1b,.LLSDAC1543
 5139              	_ZN8UnitTest11ExecuteTestIN12_GLOBAL__N_115SuiteTestSuite165DummyFixtureSimilarlyNamedFixtureTestsI
 5140              	.LFSB1543:
 5141              	.L329:
 5142              		.cfi_def_cfa_offset 1648
 5143              		.cfi_offset 3, -48
 5144              		.cfi_offset 6, -40
 5145              		.cfi_offset 12, -32
 5146              		.cfi_offset 13, -24
 5147              		.cfi_offset 14, -16
 5148 09a7 BF080000 		movl	$8, %edi
 5148      00
 5149 09ac E8000000 		call	__cxa_allocate_exception@PLT
 5149      00
 5150 09b1 31D2     		xorl	%edx, %edx
 5151 09b3 488D3500 		leaq	_ZTIPKc(%rip), %rsi
 5151      000000
 5152 09ba 4889C7   		movq	%rax, %rdi
 5153 09bd 488D0500 		leaq	.LC55(%rip), %rax
 5153      000000
 5154 09c4 488907   		movq	%rax, (%rdi)
 5155              	.LEHB123:
 5156 09c7 E8000000 		call	__cxa_throw@PLT
 5156      00
 5157              	.LEHE123:
 5158              	.L328:
 5159 09cc F30F1EFA 		endbr64
 5160 09d0 4889C3   		movq	%rax, %rbx
 5161 09d3 4889D5   		movq	%rdx, %rbp
 5162 09d6 488DBC24 		leaq	464(%rsp), %rdi
 5162      D0010000 
 5163 09de E8000000 		call	_ZN8UnitTest16SignalTranslatorD1Ev@PLT
 5163      00
 5164 09e3 4889DF   		movq	%rbx, %rdi
 5165 09e6 4889E8   		movq	%rbp, %rax
 5166              	.L312:
 5167 09e9 4883F801 		cmpq	$1, %rax
 5168 09ed 7432     		je	.L313
 5169 09ef 4883F802 		cmpq	$2, %rax
 5170 09f3 0F848E00 		je	.L333
 5170      0000
 5171 09f9 E8000000 		call	__cxa_begin_catch@PLT
 5171      00
 5172              	.LEHB124:
 5173 09fe E8000000 		call	_ZN8UnitTest11CurrentTest7ResultsEv@PLT
 5173      00
 5174 0a03 488B7424 		movq	8(%rsp), %rsi
 5174      08
 5175 0a08 488B38   		movq	(%rax), %rdi
 5176 0a0b 488D1500 		leaq	.LC56(%rip), %rdx
 5176      000000
 5177 0a12 E8000000 		call	_ZN8UnitTest11TestResults13OnTestFailureERKNS_11TestDetailsEPKc@PLT
 5177      00
 5178              	.LEHE124:
 5179              	.LEHB125:
 5180 0a17 E8000000 		call	__cxa_end_catch@PLT
 5180      00
 5181              	.LEHE125:
 5182 0a1c E9000000 		jmp	.L308
 5182      00
 5183              	.L313:
 5184 0a21 E8000000 		call	__cxa_begin_catch@PLT
 5184      00
 5185 0a26 4889C5   		movq	%rax, %rbp
 5186              	.LEHB126:
 5187 0a29 E8000000 		call	_ZN8UnitTest11CurrentTest7ResultsEv@PLT
 5187      00
 5188 0a2e 4C8B28   		movq	(%rax), %r13
 5189 0a31 488B4500 		movq	0(%rbp), %rax
 5190 0a35 4889EF   		movq	%rbp, %rdi
 5191 0a38 FF5010   		call	*16(%rax)
 5192 0a3b 4889EF   		movq	%rbp, %rdi
 5193 0a3e 4989C6   		movq	%rax, %r14
 5194 0a41 E8000000 		call	_ZNK8UnitTest15AssertException10LineNumberEv@PLT
 5194      00
 5195 0a46 4889EF   		movq	%rbp, %rdi
 5196 0a49 4189C4   		movl	%eax, %r12d
 5197 0a4c E8000000 		call	_ZNK8UnitTest15AssertException8FilenameEv@PLT
 5197      00
 5198 0a51 4889C1   		movq	%rax, %rcx
 5199 0a54 488B4424 		movq	8(%rsp), %rax
 5199      08
 5200 0a59 488D7C24 		leaq	16(%rsp), %rdi
 5200      10
 5201 0a5e 4589E0   		movl	%r12d, %r8d
 5202 0a61 488B7008 		movq	8(%rax), %rsi
 5203 0a65 488B10   		movq	(%rax), %rdx
 5204 0a68 E8000000 		call	_ZN8UnitTest11TestDetailsC1EPKcS2_S2_i@PLT
 5204      00
 5205 0a6d 488D7424 		leaq	16(%rsp), %rsi
 5205      10
 5206 0a72 4C89F2   		movq	%r14, %rdx
 5207 0a75 4C89EF   		movq	%r13, %rdi
 5208 0a78 E8000000 		call	_ZN8UnitTest11TestResults13OnTestFailureERKNS_11TestDetailsEPKc@PLT
 5208      00
 5209              	.LEHE126:
 5210 0a7d E8000000 		call	__cxa_end_catch@PLT
 5210      00
 5211 0a82 E9000000 		jmp	.L308
 5211      00
 5212              	.L333:
 5213 0a87 E8000000 		call	__cxa_begin_catch@PLT
 5213      00
 5214 0a8c 488D7C24 		leaq	48(%rsp), %rdi
 5214      30
 5215 0a91 4889C5   		movq	%rax, %rbp
 5216              	.LEHB127:
 5217 0a94 E8000000 		call	_ZN8UnitTest15MemoryOutStreamC1Ev
 5217      00
 5218              	.LEHE127:
 5219 0a99 488D7C24 		leaq	48(%rsp), %rdi
 5219      30
 5220 0a9e BA150000 		movl	$21, %edx
 5220      00
 5221 0aa3 488D3500 		leaq	.LC51(%rip), %rsi
 5221      000000
 5222              	.LEHB128:
 5223 0aaa E8000000 		call	_ZSt16__ostream_insertIcSt11char_traitsIcEERSt13basic_ostreamIT_T0_ES6_PKS3_l@PLT
 5223      00
 5224 0aaf 488B4500 		movq	0(%rbp), %rax
 5225 0ab3 4889EF   		movq	%rbp, %rdi
 5226 0ab6 FF5010   		call	*16(%rax)
 5227 0ab9 488D7C24 		leaq	48(%rsp), %rdi
 5227      30
 5228 0abe 4889C6   		movq	%rax, %rsi
 5229 0ac1 E8000000 		call	_ZStlsISt11char_traitsIcEERSt13basic_ostreamIcT_ES5_PKc@PLT
 5229      00
 5230 0ac6 E8000000 		call	_ZN8UnitTest11CurrentTest7ResultsEv@PLT
 5230      00
 5231 0acb 488D7C24 		leaq	48(%rsp), %rdi
 5231      30
 5232 0ad0 488B28   		movq	(%rax), %rbp
 5233 0ad3 E8000000 		call	_ZNK8UnitTest15MemoryOutStream7GetTextEv@PLT
 5233      00
 5234 0ad8 488B7424 		movq	8(%rsp), %rsi
 5234      08
 5235 0add 4889C2   		movq	%rax, %rdx
 5236 0ae0 4889EF   		movq	%rbp, %rdi
 5237 0ae3 E8000000 		call	_ZN8UnitTest11TestResults13OnTestFailureERKNS_11TestDetailsEPKc@PLT
 5237      00
 5238              	.LEHE128:
 5239 0ae8 488D7C24 		leaq	48(%rsp), %rdi
 5239      30
 5240              	.LEHB129:
 5241 0aed E8000000 		call	_ZN8UnitTest15MemoryOutStreamD1Ev
 5241      00
 5242              	.LEHE129:
 5243 0af2 E8000000 		call	__cxa_end_catch@PLT
 5243      00
 5244 0af7 E9000000 		jmp	.L308
 5244      00
 5245              	.L326:
 5246 0afc F30F1EFA 		endbr64
 5247 0b00 4889C5   		movq	%rax, %rbp
 5248 0b03 E8000000 		call	__cxa_end_catch@PLT
 5248      00
 5249 0b08 4889EF   		movq	%rbp, %rdi
 5250              	.LEHB130:
 5251 0b0b E8000000 		call	_Unwind_Resume@PLT
 5251      00
 5252              	.LEHE130:
 5253              	.L323:
 5254 0b10 F30F1EFA 		endbr64
 5255 0b14 4889C5   		movq	%rax, %rbp
 5256 0b17 E8000000 		call	__cxa_end_catch@PLT
 5256      00
 5257 0b1c 4889EF   		movq	%rbp, %rdi
 5258              	.LEHB131:
 5259 0b1f E8000000 		call	_Unwind_Resume@PLT
 5259      00
 5260              	.LEHE131:
 5261              	.L325:
 5262 0b24 F30F1EFA 		endbr64
 5263 0b28 488D7C24 		leaq	48(%rsp), %rdi
 5263      30
 5264 0b2d 4889C5   		movq	%rax, %rbp
 5265 0b30 E8000000 		call	_ZN8UnitTest15MemoryOutStreamD1Ev
 5265      00
 5266              	.L320:
 5267 0b35 E8000000 		call	__cxa_end_catch@PLT
 5267      00
 5268 0b3a 4889EF   		movq	%rbp, %rdi
 5269              	.LEHB132:
 5270 0b3d E8000000 		call	_Unwind_Resume@PLT
 5270      00
 5271              	.LEHE132:
 5272              	.L324:
 5273 0b42 F30F1EFA 		endbr64
 5274 0b46 4889C5   		movq	%rax, %rbp
 5275 0b49 EBEA     		jmp	.L320
 5276              		.cfi_endproc
 5277              	.LFE1543:
 5278              		.section	.gcc_except_table
 5279              		.align 4
 5280              	.LLSDAC1543:
 5281 03b0 FF       		.byte	0xff
 5282 03b1 9B       		.byte	0x9b
 5283 03b2 4D       		.uleb128 .LLSDATTC1543-.LLSDATTDC1543
 5284              	.LLSDATTDC1543:
 5285 03b3 01       		.byte	0x1
 5286 03b4 34       		.uleb128 .LLSDACSEC1543-.LLSDACSBC1543
 5287              	.LLSDACSBC1543:
 5288 03b5 20       		.uleb128 .LEHB123-.LCOLDB57
 5289 03b6 05       		.uleb128 .LEHE123-.LEHB123
 5290 03b7 25       		.uleb128 .L328-.LCOLDB57
 5291 03b8 07       		.uleb128 0x7
 5292 03b9 57       		.uleb128 .LEHB124-.LCOLDB57
 5293 03ba 19       		.uleb128 .LEHE124-.LEHB124
 5294 03bb E902     		.uleb128 .L323-.LCOLDB57
 5295 03bd 00       		.uleb128 0
 5296 03be 70       		.uleb128 .LEHB125-.LCOLDB57
 5297 03bf 05       		.uleb128 .LEHE125-.LEHB125
 5298 03c0 00       		.uleb128 0
 5299 03c1 00       		.uleb128 0
 5300 03c2 8201     		.uleb128 .LEHB126-.LCOLDB57
 5301 03c4 54       		.uleb128 .LEHE126-.LEHB126
 5302 03c5 D502     		.uleb128 .L326-.LCOLDB57
 5303 03c7 00       		.uleb128 0
 5304 03c8 ED01     		.uleb128 .LEHB127-.LCOLDB57
 5305 03ca 05       		.uleb128 .LEHE127-.LEHB127
 5306 03cb 9B03     		.uleb128 .L324-.LCOLDB57
 5307 03cd 00       		.uleb128 0
 5308 03ce 8302     		.uleb128 .LEHB128-.LCOLDB57
 5309 03d0 3E       		.uleb128 .LEHE128-.LEHB128
 5310 03d1 FD02     		.uleb128 .L325-.LCOLDB57
 5311 03d3 00       		.uleb128 0
 5312 03d4 C602     		.uleb128 .LEHB129-.LCOLDB57
 5313 03d6 05       		.uleb128 .LEHE129-.LEHB129
 5314 03d7 9B03     		.uleb128 .L324-.LCOLDB57
 5315 03d9 00       		.uleb128 0
 5316 03da E402     		.uleb128 .LEHB130-.LCOLDB57
 5317 03dc 05       		.uleb128 .LEHE130-.LEHB130
 5318 03dd 00       		.uleb128 0
 5319 03de 00       		.uleb128 0
 5320 03df F802     		.uleb128 .LEHB131-.LCOLDB57
 5321 03e1 05       		.uleb128 .LEHE131-.LEHB131
 5322 03e2 00       		.uleb128 0
 5323 03e3 00       		.uleb128 0
 5324 03e4 9603     		.uleb128 .LEHB132-.LCOLDB57
 5325 03e6 05       		.uleb128 .LEHE132-.LEHB132
 5326 03e7 00       		.uleb128 0
 5327 03e8 00       		.uleb128 0
 5328              	.LLSDACSEC1543:
 5329 03e9 03       		.byte	0x3
 5330 03ea 00       		.byte	0
 5331 03eb 02       		.byte	0x2
 5332 03ec 7D       		.byte	0x7d
 5333 03ed 01       		.byte	0x1
 5334 03ee 7D       		.byte	0x7d
 5335 03ef 00       		.byte	0
 5336 03f0 7D       		.byte	0x7d
 5337 03f1 000000   		.align 4
 5338 03f4 00000000 		.long	0
 5339              	
 5340 03f8 00000000 		.long	DW.ref._ZTISt9exception-.
 5341 03fc 00000000 		.long	DW.ref._ZTIN8UnitTest15AssertExceptionE-.
 5342              	.LLSDATTC1543:
 5343              		.section	.text.unlikely
 5344              		.text
 5346              		.section	.text.unlikely
 5348              	.LCOLDE57:
 5349              		.text
 5350              	.LHOTE57:
 5351              		.section	.rodata.str1.8
 5352 057f 00       		.align 8
 5353              	.LC58:
 5354 0580 556E6861 		.string	"Unhandled exception while destroying fixture DummyFixture"
 5354      6E646C65 
 5354      64206578 
 5354      63657074 
 5354      696F6E20 
 5355              		.section	.text.unlikely
 5356 0b4b 90       		.align 2
 5357              	.LCOLDB59:
 5358              		.text
 5359              	.LHOTB59:
 5360              		.align 2
 5361              		.p2align 4
 5363              	_ZNK12_GLOBAL__N_115SuiteTestSuite163TestDummyFixtureSimilarlyNamedFixtureTestsInDifferentSuitesWor
 5364              	.LFB1261:
 5365              		.cfi_startproc
 5366              		.cfi_personality 0x9b,DW.ref.__gxx_personality_v0
 5367              		.cfi_lsda 0x1b,.LLSDA1261
 5368 0de0 F30F1EFA 		endbr64
 5369 0de4 4157     		pushq	%r15
 5370              		.cfi_def_cfa_offset 16
 5371              		.cfi_offset 15, -16
 5372 0de6 4156     		pushq	%r14
 5373              		.cfi_def_cfa_offset 24
 5374              		.cfi_offset 14, -24
 5375 0de8 4155     		pushq	%r13
 5376              		.cfi_def_cfa_offset 32
 5377              		.cfi_offset 13, -32
 5378 0dea 4154     		pushq	%r12
 5379              		.cfi_def_cfa_offset 40
 5380              		.cfi_offset 12, -40
 5381 0dec 55       		pushq	%rbp
 5382              		.cfi_def_cfa_offset 48
 5383              		.cfi_offset 6, -48
 5384 0ded 488D6F08 		leaq	8(%rdi), %rbp
 5385 0df1 53       		pushq	%rbx
 5386              		.cfi_def_cfa_offset 56
 5387              		.cfi_offset 3, -56
 5388 0df2 4889FB   		movq	%rdi, %rbx
 5389 0df5 4889EF   		movq	%rbp, %rdi
 5390 0df8 4881ECC8 		subq	$456, %rsp
 5390      010000
 5391              		.cfi_def_cfa_offset 512
 5392 0dff 64488B04 		movq	%fs:40, %rax
 5392      25280000 
 5392      00
 5393 0e08 48898424 		movq	%rax, 440(%rsp)
 5393      B8010000 
 5394 0e10 31C0     		xorl	%eax, %eax
 5395              	.LEHB133:
 5396 0e12 E829FFFF 		call	_ZN8UnitTest11ExecuteTestIN12_GLOBAL__N_115SuiteTestSuite165DummyFixtureSimilarlyNamedFixture
 5396      FF
 5397              	.LEHE133:
 5398 0e17 488B8424 		movq	440(%rsp), %rax
 5398      B8010000 
 5399 0e1f 64482B04 		subq	%fs:40, %rax
 5399      25280000 
 5399      00
 5400 0e28 7512     		jne	.L359
 5401 0e2a 4881C4C8 		addq	$456, %rsp
 5401      010000
 5402              		.cfi_remember_state
 5403              		.cfi_def_cfa_offset 56
 5404 0e31 5B       		popq	%rbx
 5405              		.cfi_def_cfa_offset 48
 5406 0e32 5D       		popq	%rbp
 5407              		.cfi_def_cfa_offset 40
 5408 0e33 415C     		popq	%r12
 5409              		.cfi_def_cfa_offset 32
 5410 0e35 415D     		popq	%r13
 5411              		.cfi_def_cfa_offset 24
 5412 0e37 415E     		popq	%r14
 5413              		.cfi_def_cfa_offset 16
 5414 0e39 415F     		popq	%r15
 5415              		.cfi_def_cfa_offset 8
 5416 0e3b C3       		ret
 5417              	.L359:
 5418              		.cfi_restore_state
 5419 0e3c E8000000 		call	__stack_chk_fail@PLT
 5419      00
 5420              	.L347:
 5421 0e41 F30F1EFA 		endbr64
 5422 0e45 4889C7   		movq	%rax, %rdi
 5423 0e48 E9000000 		jmp	.L335
 5423      00
 5424              		.section	.gcc_except_table
 5425              		.align 4
 5426              	.LLSDA1261:
 5427 0400 FF       		.byte	0xff
 5428 0401 9B       		.byte	0x9b
 5429 0402 19       		.uleb128 .LLSDATT1261-.LLSDATTD1261
 5430              	.LLSDATTD1261:
 5431 0403 01       		.byte	0x1
 5432 0404 04       		.uleb128 .LLSDACSE1261-.LLSDACSB1261
 5433              	.LLSDACSB1261:
 5434 0405 32       		.uleb128 .LEHB133-.LFB1261
 5435 0406 05       		.uleb128 .LEHE133-.LEHB133
 5436 0407 61       		.uleb128 .L347-.LFB1261
 5437 0408 05       		.uleb128 0x5
 5438              	.LLSDACSE1261:
 5439 0409 03       		.byte	0x3
 5440 040a 00       		.byte	0
 5441 040b 02       		.byte	0x2
 5442 040c 7D       		.byte	0x7d
 5443 040d 01       		.byte	0x1
 5444 040e 7D       		.byte	0x7d
 5445 040f 00       		.align 4
 5446 0410 00000000 		.long	0
 5447              	
 5448 0414 00000000 		.long	DW.ref._ZTISt9exception-.
 5449 0418 00000000 		.long	DW.ref._ZTIN8UnitTest15AssertExceptionE-.
 5450              	.LLSDATT1261:
 5451              		.text
 5452              		.cfi_endproc
 5453              		.section	.text.unlikely
 5454              		.cfi_startproc
 5455              		.cfi_personality 0x9b,DW.ref.__gxx_personality_v0
 5456              		.cfi_lsda 0x1b,.LLSDAC1261
 5458              	_ZNK12_GLOBAL__N_115SuiteTestSuite163TestDummyFixtureSimilarlyNamedFixtureTestsInDifferentSuitesWor
 5459              	.LFSB1261:
 5460              	.L335:
 5461              		.cfi_def_cfa_offset 512
 5462              		.cfi_offset 3, -56
 5463              		.cfi_offset 6, -48
 5464              		.cfi_offset 12, -40
 5465              		.cfi_offset 13, -32
 5466              		.cfi_offset 14, -24
 5467              		.cfi_offset 15, -16
 5468 0b4c 4883FA01 		cmpq	$1, %rdx
 5469 0b50 7469     		je	.L336
 5470 0b52 4883FA02 		cmpq	$2, %rdx
 5471 0b56 0F84DF00 		je	.L360
 5471      0000
 5472 0b5c E8000000 		call	__cxa_begin_catch@PLT
 5472      00
 5473              	.LEHB134:
 5474 0b61 E8000000 		call	_ZN8UnitTest11CurrentTest7ResultsEv@PLT
 5474      00
 5475 0b66 4989E4   		movq	%rsp, %r12
 5476 0b69 BA430000 		movl	$67, %edx
 5476      00
 5477 0b6e 4889EE   		movq	%rbp, %rsi
 5478 0b71 4C8B28   		movq	(%rax), %r13
 5479 0b74 4C89E7   		movq	%r12, %rdi
 5480 0b77 E8000000 		call	_ZN8UnitTest11TestDetailsC1ERKS0_i@PLT
 5480      00
 5481 0b7c 488D1500 		leaq	.LC58(%rip), %rdx
 5481      000000
 5482 0b83 4C89E6   		movq	%r12, %rsi
 5483 0b86 4C89EF   		movq	%r13, %rdi
 5484 0b89 E8000000 		call	_ZN8UnitTest11TestResults13OnTestFailureERKNS_11TestDetailsEPKc@PLT
 5484      00
 5485              	.LEHE134:
 5486 0b8e 488B8424 		movq	440(%rsp), %rax
 5486      B8010000 
 5487 0b96 64482B04 		subq	%fs:40, %rax
 5487      25280000 
 5487      00
 5488 0b9f 0F85FF00 		jne	.L356
 5488      0000
 5489 0ba5 4881C4C8 		addq	$456, %rsp
 5489      010000
 5490              		.cfi_remember_state
 5491              		.cfi_def_cfa_offset 56
 5492 0bac 5B       		popq	%rbx
 5493              		.cfi_def_cfa_offset 48
 5494 0bad 5D       		popq	%rbp
 5495              		.cfi_def_cfa_offset 40
 5496 0bae 415C     		popq	%r12
 5497              		.cfi_def_cfa_offset 32
 5498 0bb0 415D     		popq	%r13
 5499              		.cfi_def_cfa_offset 24
 5500 0bb2 415E     		popq	%r14
 5501              		.cfi_def_cfa_offset 16
 5502 0bb4 415F     		popq	%r15
 5503              		.cfi_def_cfa_offset 8
 5504              	.LEHB135:
 5505 0bb6 E9000000 		jmp	__cxa_end_catch@PLT
 5505      00
 5506              	.LEHE135:
 5507              	.L336:
 5508              		.cfi_restore_state
 5509 0bbb E8000000 		call	__cxa_begin_catch@PLT
 5509      00
 5510 0bc0 4889C5   		movq	%rax, %rbp
 5511              	.LEHB136:
 5512 0bc3 E8000000 		call	_ZN8UnitTest11CurrentTest7ResultsEv@PLT
 5512      00
 5513 0bc8 4C8B38   		movq	(%rax), %r15
 5514 0bcb 488B4500 		movq	0(%rbp), %rax
 5515 0bcf 4889EF   		movq	%rbp, %rdi
 5516 0bd2 FF5010   		call	*16(%rax)
 5517 0bd5 4889EF   		movq	%rbp, %rdi
 5518 0bd8 4989C5   		movq	%rax, %r13
 5519 0bdb E8000000 		call	_ZNK8UnitTest15AssertException10LineNumberEv@PLT
 5519      00
 5520 0be0 4889EF   		movq	%rbp, %rdi
 5521 0be3 4189C6   		movl	%eax, %r14d
 5522 0be6 E8000000 		call	_ZNK8UnitTest15AssertException8FilenameEv@PLT
 5522      00
 5523 0beb 4989E4   		movq	%rsp, %r12
 5524 0bee 488B5308 		movq	8(%rbx), %rdx
 5525 0bf2 488B7310 		movq	16(%rbx), %rsi
 5526 0bf6 4889C1   		movq	%rax, %rcx
 5527 0bf9 4589F0   		movl	%r14d, %r8d
 5528 0bfc 4C89E7   		movq	%r12, %rdi
 5529 0bff E8000000 		call	_ZN8UnitTest11TestDetailsC1EPKcS2_S2_i@PLT
 5529      00
 5530 0c04 4C89EA   		movq	%r13, %rdx
 5531 0c07 4C89E6   		movq	%r12, %rsi
 5532 0c0a 4C89FF   		movq	%r15, %rdi
 5533 0c0d E8000000 		call	_ZN8UnitTest11TestResults13OnTestFailureERKNS_11TestDetailsEPKc@PLT
 5533      00
 5534              	.LEHE136:
 5535              	.L358:
 5536 0c12 488B8424 		movq	440(%rsp), %rax
 5536      B8010000 
 5537 0c1a 64482B04 		subq	%fs:40, %rax
 5537      25280000 
 5537      00
 5538 0c23 757F     		jne	.L356
 5539 0c25 4881C4C8 		addq	$456, %rsp
 5539      010000
 5540              		.cfi_remember_state
 5541              		.cfi_def_cfa_offset 56
 5542 0c2c 5B       		popq	%rbx
 5543              		.cfi_def_cfa_offset 48
 5544 0c2d 5D       		popq	%rbp
 5545              		.cfi_def_cfa_offset 40
 5546 0c2e 415C     		popq	%r12
 5547              		.cfi_def_cfa_offset 32
 5548 0c30 415D     		popq	%r13
 5549              		.cfi_def_cfa_offset 24
 5550 0c32 415E     		popq	%r14
 5551              		.cfi_def_cfa_offset 16
 5552 0c34 415F     		popq	%r15
 5553              		.cfi_def_cfa_offset 8
 5554 0c36 E9000000 		jmp	__cxa_end_catch@PLT
 5554      00
 5555              	.L360:
 5556              		.cfi_restore_state
 5557 0c3b E8000000 		call	__cxa_begin_catch@PLT
 5557      00
 5558 0c40 4C8D6424 		leaq	32(%rsp), %r12
 5558      20
 5559 0c45 4C89E7   		movq	%r12, %rdi
 5560 0c48 4989C5   		movq	%rax, %r13
 5561              	.LEHB137:
 5562 0c4b E8000000 		call	_ZN8UnitTest15MemoryOutStreamC1Ev
 5562      00
 5563              	.LEHE137:
 5564 0c50 BA150000 		movl	$21, %edx
 5564      00
 5565 0c55 488D3500 		leaq	.LC51(%rip), %rsi
 5565      000000
 5566 0c5c 4C89E7   		movq	%r12, %rdi
 5567              	.LEHB138:
 5568 0c5f E8000000 		call	_ZSt16__ostream_insertIcSt11char_traitsIcEERSt13basic_ostreamIT_T0_ES6_PKS3_l@PLT
 5568      00
 5569 0c64 498B4500 		movq	0(%r13), %rax
 5570 0c68 4C89EF   		movq	%r13, %rdi
 5571 0c6b FF5010   		call	*16(%rax)
 5572 0c6e 4C89E7   		movq	%r12, %rdi
 5573 0c71 4889C6   		movq	%rax, %rsi
 5574 0c74 E8000000 		call	_ZStlsISt11char_traitsIcEERSt13basic_ostreamIcT_ES5_PKc@PLT
 5574      00
 5575 0c79 E8000000 		call	_ZN8UnitTest11CurrentTest7ResultsEv@PLT
 5575      00
 5576 0c7e 4C89E7   		movq	%r12, %rdi
 5577 0c81 4C8B28   		movq	(%rax), %r13
 5578 0c84 E8000000 		call	_ZNK8UnitTest15MemoryOutStream7GetTextEv@PLT
 5578      00
 5579 0c89 4889C2   		movq	%rax, %rdx
 5580 0c8c 4889EE   		movq	%rbp, %rsi
 5581 0c8f 4C89EF   		movq	%r13, %rdi
 5582 0c92 E8000000 		call	_ZN8UnitTest11TestResults13OnTestFailureERKNS_11TestDetailsEPKc@PLT
 5582      00
 5583              	.LEHE138:
 5584 0c97 4C89E7   		movq	%r12, %rdi
 5585              	.LEHB139:
 5586 0c9a E8000000 		call	_ZN8UnitTest15MemoryOutStreamD1Ev
 5586      00
 5587              	.LEHE139:
 5588 0c9f E96EFFFF 		jmp	.L358
 5588      FF
 5589              	.L356:
 5590 0ca4 E8000000 		call	__stack_chk_fail@PLT
 5590      00
 5591              	.L351:
 5592 0ca9 F30F1EFA 		endbr64
 5593 0cad 4889C5   		movq	%rax, %rbp
 5594 0cb0 E8000000 		call	__cxa_end_catch@PLT
 5594      00
 5595 0cb5 4889EF   		movq	%rbp, %rdi
 5596              	.LEHB140:
 5597 0cb8 E8000000 		call	_Unwind_Resume@PLT
 5597      00
 5598              	.LEHE140:
 5599              	.L348:
 5600 0cbd F30F1EFA 		endbr64
 5601              	.L357:
 5602 0cc1 4889C5   		movq	%rax, %rbp
 5603 0cc4 EB0F     		jmp	.L344
 5604              	.L350:
 5605 0cc6 F30F1EFA 		endbr64
 5606 0cca 4C89E7   		movq	%r12, %rdi
 5607 0ccd 4889C5   		movq	%rax, %rbp
 5608 0cd0 E8000000 		call	_ZN8UnitTest15MemoryOutStreamD1Ev
 5608      00
 5609              	.L344:
 5610 0cd5 E8000000 		call	__cxa_end_catch@PLT
 5610      00
 5611 0cda 4889EF   		movq	%rbp, %rdi
 5612              	.LEHB141:
 5613 0cdd E8000000 		call	_Unwind_Resume@PLT
 5613      00
 5614              	.LEHE141:
 5615              	.L349:
 5616 0ce2 F30F1EFA 		endbr64
 5617 0ce6 EBD9     		jmp	.L357
 5618              		.cfi_endproc
 5619              	.LFE1261:
 5620              		.section	.gcc_except_table
 5621              		.align 4
 5622              	.LLSDAC1261:
 5623 041c FF       		.byte	0xff
 5624 041d 9B       		.byte	0x9b
 5625 041e 41       		.uleb128 .LLSDATTC1261-.LLSDATTDC1261
 5626              	.LLSDATTDC1261:
 5627 041f 01       		.byte	0x1
 5628 0420 2A       		.uleb128 .LLSDACSEC1261-.LLSDACSBC1261
 5629              	.LLSDACSBC1261:
 5630 0421 15       		.uleb128 .LEHB134-.LCOLDB59
 5631 0422 2D       		.uleb128 .LEHE134-.LEHB134
 5632 0423 DD02     		.uleb128 .L351-.LCOLDB59
 5633 0425 00       		.uleb128 0
 5634 0426 6A       		.uleb128 .LEHB135-.LCOLDB59
 5635 0427 05       		.uleb128 .LEHE135-.LEHB135
 5636 0428 00       		.uleb128 0
 5637 0429 00       		.uleb128 0
 5638 042a 77       		.uleb128 .LEHB136-.LCOLDB59
 5639 042b 4F       		.uleb128 .LEHE136-.LEHB136
 5640 042c F102     		.uleb128 .L348-.LCOLDB59
 5641 042e 00       		.uleb128 0
 5642 042f FF01     		.uleb128 .LEHB137-.LCOLDB59
 5643 0431 05       		.uleb128 .LEHE137-.LEHB137
 5644 0432 9603     		.uleb128 .L349-.LCOLDB59
 5645 0434 00       		.uleb128 0
 5646 0435 9302     		.uleb128 .LEHB138-.LCOLDB59
 5647 0437 38       		.uleb128 .LEHE138-.LEHB138
 5648 0438 FA02     		.uleb128 .L350-.LCOLDB59
 5649 043a 00       		.uleb128 0
 5650 043b CE02     		.uleb128 .LEHB139-.LCOLDB59
 5651 043d 05       		.uleb128 .LEHE139-.LEHB139
 5652 043e 9603     		.uleb128 .L349-.LCOLDB59
 5653 0440 00       		.uleb128 0
 5654 0441 EC02     		.uleb128 .LEHB140-.LCOLDB59
 5655 0443 05       		.uleb128 .LEHE140-.LEHB140
 5656 0444 00       		.uleb128 0
 5657 0445 00       		.uleb128 0
 5658 0446 9103     		.uleb128 .LEHB141-.LCOLDB59
 5659 0448 05       		.uleb128 .LEHE141-.LEHB141
 5660 0449 00       		.uleb128 0
 5661 044a 00       		.uleb128 0
 5662              	.LLSDACSEC1261:
 5663 044b 03       		.byte	0x3
 5664 044c 00       		.byte	0
 5665 044d 02       		.byte	0x2
 5666 044e 7D       		.byte	0x7d
 5667 044f 01       		.byte	0x1
 5668 0450 7D       		.byte	0x7d
 5669 0451 000000   		.align 4
 5670 0454 00000000 		.long	0
 5671              	
 5672 0458 00000000 		.long	DW.ref._ZTISt9exception-.
 5673 045c 00000000 		.long	DW.ref._ZTIN8UnitTest15AssertExceptionE-.
 5674              	.LLSDATTC1261:
 5675              		.section	.text.unlikely
 5676              		.text
 5678              		.section	.text.unlikely
 5680              	.LCOLDE59:
 5681              		.text
 5682              	.LHOTE59:
 5683              		.section	.rodata.str1.1
 5684              	.LC60:
 5685 00dc 66696C65 		.string	"file"
 5685      00
 5686              	.LC61:
 5687 00e1 61737365 		.string	"assert failure"
 5687      72742066 
 5687      61696C75 
 5687      726500
 5688              		.section	.rodata.str1.8
 5689 05ba 00000000 		.align 8
 5689      0000
 5690              	.LC62:
 5691 05c0 556E6861 		.string	"Unhandled exception while destroying fixture FixtureCtorAsserts"
 5691      6E646C65 
 5691      64206578 
 5691      63657074 
 5691      696F6E20 
 5692              		.align 8
 5693              	.LC63:
 5694 0600 556E6861 		.string	"Unhandled exception while constructing fixture FixtureCtorAsserts"
 5694      6E646C65 
 5694      64206578 
 5694      63657074 
 5694      696F6E20 
 5695              		.section	.text.unlikely
 5696              		.align 2
 5697              	.LCOLDB64:
 5698              		.text
 5699              	.LHOTB64:
 5700 0e4d 90       		.align 2
 5701 0e4e 6690     		.p2align 4
 5703              	_ZNK12_GLOBAL__N_157TestFixtureCtorAssertsCorrectlyReportsAssertFailureInCtor7RunImplEv:
 5704              	.LFB1338:
 5705              		.cfi_startproc
 5706              		.cfi_personality 0x9b,DW.ref.__gxx_personality_v0
 5707              		.cfi_lsda 0x1b,.LLSDA1338
 5708 0e50 F30F1EFA 		endbr64
 5709 0e54 4157     		pushq	%r15
 5710              		.cfi_def_cfa_offset 16
 5711              		.cfi_offset 15, -16
 5712 0e56 BA7B0000 		movl	$123, %edx
 5712      00
 5713 0e5b 488D3500 		leaq	.LC60(%rip), %rsi
 5713      000000
 5714 0e62 4156     		pushq	%r14
 5715              		.cfi_def_cfa_offset 24
 5716              		.cfi_offset 14, -24
 5717 0e64 4155     		pushq	%r13
 5718              		.cfi_def_cfa_offset 32
 5719              		.cfi_offset 13, -32
 5720 0e66 4154     		pushq	%r12
 5721              		.cfi_def_cfa_offset 40
 5722              		.cfi_offset 12, -40
 5723 0e68 55       		pushq	%rbp
 5724              		.cfi_def_cfa_offset 48
 5725              		.cfi_offset 6, -48
 5726 0e69 488D6F08 		leaq	8(%rdi), %rbp
 5727 0e6d 53       		pushq	%rbx
 5728              		.cfi_def_cfa_offset 56
 5729              		.cfi_offset 3, -56
 5730 0e6e 4889FB   		movq	%rdi, %rbx
 5731 0e71 488D3D00 		leaq	.LC61(%rip), %rdi
 5731      000000
 5732 0e78 4881ECC8 		subq	$456, %rsp
 5732      010000
 5733              		.cfi_def_cfa_offset 512
 5734 0e7f 64488B04 		movq	%fs:40, %rax
 5734      25280000 
 5734      00
 5735 0e88 48898424 		movq	%rax, 440(%rsp)
 5735      B8010000 
 5736 0e90 31C0     		xorl	%eax, %eax
 5737              	.LEHB142:
 5738 0e92 E8000000 		call	_ZN8UnitTest12ReportAssertEPKcS1_i@PLT
 5738      00
 5739              	.LEHE142:
 5740 0e97 4889EF   		movq	%rbp, %rdi
