   1              		.file	"TestDeferredTestReporter.cpp"
   2              		.text
   3              		.align 2
   4              		.p2align 4
   6              	_ZN8UnitTest12_GLOBAL__N_124MockDeferredTestReporter13ReportSummaryEiiif:
   7              	.LFB1472:
   8              		.cfi_startproc
   9 0000 F30F1EFA 		endbr64
  10 0004 C3       		ret
  11              		.cfi_endproc
  12              	.LFE1472:
  14 0005 90       		.align 2
  15 0006 662E0F1F 		.p2align 4
  15      84000000 
  15      0000
  17              	_ZN8UnitTest12_GLOBAL__N_176TestDeferredTestReporterFixtureDeferredTestReporterTakesCopyOfFailureMe
  18              	.LFB1747:
  19              		.cfi_startproc
  20 0010 F30F1EFA 		endbr64
  21 0014 488D0500 		leaq	16+_ZTVN8UnitTest12_GLOBAL__N_176TestDeferredTestReporterFixtureDeferredTestReporterTakesCopy
  21      000000
  22 001b 488907   		movq	%rax, (%rdi)
  23 001e E9000000 		jmp	_ZN8UnitTest4TestD2Ev@PLT
  23      00
  24              		.cfi_endproc
  25              	.LFE1747:
  27              		.set	_ZN8UnitTest12_GLOBAL__N_176TestDeferredTestReporterFixtureDeferredTestReporterTakesCopyOfFai
  28 0023 90       		.align 2
  29 0024 66662E0F 		.p2align 4
  29      1F840000 
  29      00000090 
  31              	_ZN8UnitTest12_GLOBAL__N_182TestDeferredTestReporterFixtureReportFailureSavesFailureDetailsForMulti
  32              	.LFB1751:
  33              		.cfi_startproc
  34 0030 F30F1EFA 		endbr64
  35 0034 488D0500 		leaq	16+_ZTVN8UnitTest12_GLOBAL__N_182TestDeferredTestReporterFixtureReportFailureSavesFailureDeta
  35      000000
  36 003b 488907   		movq	%rax, (%rdi)
  37 003e E9000000 		jmp	_ZN8UnitTest4TestD2Ev@PLT
  37      00
  38              		.cfi_endproc
  39              	.LFE1751:
  41              		.set	_ZN8UnitTest12_GLOBAL__N_182TestDeferredTestReporterFixtureReportFailureSavesFailureDetailsFo
  42 0043 90       		.align 2
  43 0044 66662E0F 		.p2align 4
  43      1F840000 
  43      00000090 
  45              	_ZN8UnitTest12_GLOBAL__N_163TestDeferredTestReporterFixtureReportFailureSavesFailureDetailsD2Ev:
  46              	.LFB1755:
  47              		.cfi_startproc
  48 0050 F30F1EFA 		endbr64
  49 0054 488D0500 		leaq	16+_ZTVN8UnitTest12_GLOBAL__N_163TestDeferredTestReporterFixtureReportFailureSavesFailureDeta
  49      000000
  50 005b 488907   		movq	%rax, (%rdi)
  51 005e E9000000 		jmp	_ZN8UnitTest4TestD2Ev@PLT
  51      00
  52              		.cfi_endproc
  53              	.LFE1755:
  55              		.set	_ZN8UnitTest12_GLOBAL__N_163TestDeferredTestReporterFixtureReportFailureSavesFailureDetailsD1
  56 0063 90       		.align 2
  57 0064 66662E0F 		.p2align 4
  57      1F840000 
  57      00000090 
  59              	_ZN8UnitTest12_GLOBAL__N_160TestDeferredTestReporterFixtureReportTestEndCapturesTestTimeD2Ev:
  60              	.LFB1759:
  61              		.cfi_startproc
  62 0070 F30F1EFA 		endbr64
  63 0074 488D0500 		leaq	16+_ZTVN8UnitTest12_GLOBAL__N_160TestDeferredTestReporterFixtureReportTestEndCapturesTestTime
  63      000000
  64 007b 488907   		movq	%rax, (%rdi)
  65 007e E9000000 		jmp	_ZN8UnitTest4TestD2Ev@PLT
  65      00
  66              		.cfi_endproc
  67              	.LFE1759:
  69              		.set	_ZN8UnitTest12_GLOBAL__N_160TestDeferredTestReporterFixtureReportTestEndCapturesTestTimeD1Ev,
  70 0083 90       		.align 2
  71 0084 66662E0F 		.p2align 4
  71      1F840000 
  71      00000090 
  73              	_ZN8UnitTest12_GLOBAL__N_170TestDeferredTestReporterFixtureReportTestStartCapturesTestNameAndSuiteD
  74              	.LFB1763:
  75              		.cfi_startproc
  76 0090 F30F1EFA 		endbr64
  77 0094 488D0500 		leaq	16+_ZTVN8UnitTest12_GLOBAL__N_170TestDeferredTestReporterFixtureReportTestStartCapturesTestNa
  77      000000
  78 009b 488907   		movq	%rax, (%rdi)
  79 009e E9000000 		jmp	_ZN8UnitTest4TestD2Ev@PLT
  79      00
  80              		.cfi_endproc
  81              	.LFE1763:
  83              		.set	_ZN8UnitTest12_GLOBAL__N_170TestDeferredTestReporterFixtureReportTestStartCapturesTestNameAnd
  84 00a3 90       		.align 2
  85 00a4 66662E0F 		.p2align 4
  85      1F840000 
  85      00000090 
  87              	_ZN8UnitTest12_GLOBAL__N_169TestDeferredTestReporterFixtureReportTestStartCreatesANewDeferredTestD2
  88              	.LFB1767:
  89              		.cfi_startproc
  90 00b0 F30F1EFA 		endbr64
  91 00b4 488D0500 		leaq	16+_ZTVN8UnitTest12_GLOBAL__N_169TestDeferredTestReporterFixtureReportTestStartCreatesANewDef
  91      000000
  92 00bb 488907   		movq	%rax, (%rdi)
  93 00be E9000000 		jmp	_ZN8UnitTest4TestD2Ev@PLT
  93      00
  94              		.cfi_endproc
  95              	.LFE1767:
  97              		.set	_ZN8UnitTest12_GLOBAL__N_169TestDeferredTestReporterFixtureReportTestStartCreatesANewDeferred
  98              		.section	.text.unlikely,"ax",@progbits
  99              		.align 2
 100              	.LCOLDB0:
 101              		.text
 102              	.LHOTB0:
 103 00c3 90       		.align 2
 104 00c4 66662E0F 		.p2align 4
 104      1F840000 
 104      00000090 
 106              	_ZN8UnitTest12_GLOBAL__N_176TestDeferredTestReporterFixtureDeferredTestReporterTakesCopyOfFailureMe
 107              	.LFB1749:
 108              		.cfi_startproc
 109              		.cfi_personality 0x9b,DW.ref.__gxx_personality_v0
 110              		.cfi_lsda 0x1b,.LLSDA1749
 111 00d0 F30F1EFA 		endbr64
 112 00d4 4154     		pushq	%r12
 113              		.cfi_def_cfa_offset 16
 114              		.cfi_offset 12, -16
 115 00d6 488D0500 		leaq	16+_ZTVN8UnitTest12_GLOBAL__N_176TestDeferredTestReporterFixtureDeferredTestReporterTakesCopy
 115      000000
 116 00dd 55       		pushq	%rbp
 117              		.cfi_def_cfa_offset 24
 118              		.cfi_offset 6, -24
 119 00de 4889FD   		movq	%rdi, %rbp
 120 00e1 4883EC08 		subq	$8, %rsp
 121              		.cfi_def_cfa_offset 32
 122 00e5 488907   		movq	%rax, (%rdi)
 123              	.LEHB0:
 124 00e8 E8000000 		call	_ZN8UnitTest4TestD2Ev@PLT
 124      00
 125              	.LEHE0:
 126 00ed 4883C408 		addq	$8, %rsp
 127              		.cfi_remember_state
 128              		.cfi_def_cfa_offset 24
 129 00f1 4889EF   		movq	%rbp, %rdi
 130 00f4 5D       		popq	%rbp
 131              		.cfi_def_cfa_offset 16
 132 00f5 415C     		popq	%r12
 133              		.cfi_def_cfa_offset 8
 134 00f7 E9000000 		jmp	_ZdlPv@PLT
 134      00
 135              	.L11:
 136              		.cfi_restore_state
 137 00fc F30F1EFA 		endbr64
 138 0100 4989C4   		movq	%rax, %r12
 139 0103 E9000000 		jmp	.L10
 139      00
 140              		.globl	__gxx_personality_v0
 141              		.section	.gcc_except_table,"a",@progbits
 142              	.LLSDA1749:
 143 0000 FF       		.byte	0xff
 144 0001 FF       		.byte	0xff
 145 0002 01       		.byte	0x1
 146 0003 04       		.uleb128 .LLSDACSE1749-.LLSDACSB1749
 147              	.LLSDACSB1749:
 148 0004 18       		.uleb128 .LEHB0-.LFB1749
 149 0005 05       		.uleb128 .LEHE0-.LEHB0
 150 0006 2C       		.uleb128 .L11-.LFB1749
 151 0007 00       		.uleb128 0
 152              	.LLSDACSE1749:
 153              		.text
 154              		.cfi_endproc
 155              		.section	.text.unlikely
 156              		.cfi_startproc
 157              		.cfi_personality 0x9b,DW.ref.__gxx_personality_v0
 158              		.cfi_lsda 0x1b,.LLSDAC1749
 160              	_ZN8UnitTest12_GLOBAL__N_176TestDeferredTestReporterFixtureDeferredTestReporterTakesCopyOfFailureMe
 161              	.LFSB1749:
 162              	.L10:
 163              		.cfi_def_cfa_offset 32
 164              		.cfi_offset 6, -24
 165              		.cfi_offset 12, -16
 166 0000 4889EF   		movq	%rbp, %rdi
 167 0003 E8000000 		call	_ZdlPv@PLT
 167      00
 168 0008 4C89E7   		movq	%r12, %rdi
 169              	.LEHB1:
 170 000b E8000000 		call	_Unwind_Resume@PLT
 170      00
 171              	.LEHE1:
 172              		.cfi_endproc
 173              	.LFE1749:
 174              		.section	.gcc_except_table
 175              	.LLSDAC1749:
 176 0008 FF       		.byte	0xff
 177 0009 FF       		.byte	0xff
 178 000a 01       		.byte	0x1
 179 000b 04       		.uleb128 .LLSDACSEC1749-.LLSDACSBC1749
 180              	.LLSDACSBC1749:
 181 000c 0B       		.uleb128 .LEHB1-.LCOLDB0
 182 000d 05       		.uleb128 .LEHE1-.LEHB1
 183 000e 00       		.uleb128 0
 184 000f 00       		.uleb128 0
 185              	.LLSDACSEC1749:
 186              		.section	.text.unlikely
 187              		.text
 189              		.section	.text.unlikely
 191              	.LCOLDE0:
 192              		.text
 193              	.LHOTE0:
 194              		.section	.text.unlikely
 195              		.align 2
 196              	.LCOLDB1:
 197              		.text
 198              	.LHOTB1:
 199              		.align 2
 200 0108 0F1F8400 		.p2align 4
 200      00000000 
 202              	_ZN8UnitTest12_GLOBAL__N_182TestDeferredTestReporterFixtureReportFailureSavesFailureDetailsForMulti
 203              	.LFB1753:
 204              		.cfi_startproc
 205              		.cfi_personality 0x9b,DW.ref.__gxx_personality_v0
 206              		.cfi_lsda 0x1b,.LLSDA1753
 207 0110 F30F1EFA 		endbr64
 208 0114 4154     		pushq	%r12
 209              		.cfi_def_cfa_offset 16
 210              		.cfi_offset 12, -16
 211 0116 488D0500 		leaq	16+_ZTVN8UnitTest12_GLOBAL__N_182TestDeferredTestReporterFixtureReportFailureSavesFailureDeta
 211      000000
 212 011d 55       		pushq	%rbp
 213              		.cfi_def_cfa_offset 24
 214              		.cfi_offset 6, -24
 215 011e 4889FD   		movq	%rdi, %rbp
 216 0121 4883EC08 		subq	$8, %rsp
 217              		.cfi_def_cfa_offset 32
 218 0125 488907   		movq	%rax, (%rdi)
 219              	.LEHB2:
 220 0128 E8000000 		call	_ZN8UnitTest4TestD2Ev@PLT
 220      00
 221              	.LEHE2:
 222 012d 4883C408 		addq	$8, %rsp
 223              		.cfi_remember_state
 224              		.cfi_def_cfa_offset 24
 225 0131 4889EF   		movq	%rbp, %rdi
 226 0134 5D       		popq	%rbp
 227              		.cfi_def_cfa_offset 16
 228 0135 415C     		popq	%r12
 229              		.cfi_def_cfa_offset 8
 230 0137 E9000000 		jmp	_ZdlPv@PLT
 230      00
 231              	.L15:
 232              		.cfi_restore_state
 233 013c F30F1EFA 		endbr64
 234 0140 4989C4   		movq	%rax, %r12
 235 0143 E9000000 		jmp	.L14
 235      00
 236              		.section	.gcc_except_table
 237              	.LLSDA1753:
 238 0010 FF       		.byte	0xff
 239 0011 FF       		.byte	0xff
 240 0012 01       		.byte	0x1
 241 0013 04       		.uleb128 .LLSDACSE1753-.LLSDACSB1753
 242              	.LLSDACSB1753:
 243 0014 18       		.uleb128 .LEHB2-.LFB1753
 244 0015 05       		.uleb128 .LEHE2-.LEHB2
 245 0016 2C       		.uleb128 .L15-.LFB1753
 246 0017 00       		.uleb128 0
 247              	.LLSDACSE1753:
 248              		.text
 249              		.cfi_endproc
 250              		.section	.text.unlikely
 251              		.cfi_startproc
 252              		.cfi_personality 0x9b,DW.ref.__gxx_personality_v0
 253              		.cfi_lsda 0x1b,.LLSDAC1753
 255              	_ZN8UnitTest12_GLOBAL__N_182TestDeferredTestReporterFixtureReportFailureSavesFailureDetailsForMulti
 256              	.LFSB1753:
 257              	.L14:
 258              		.cfi_def_cfa_offset 32
 259              		.cfi_offset 6, -24
 260              		.cfi_offset 12, -16
 261 0010 4889EF   		movq	%rbp, %rdi
 262 0013 E8000000 		call	_ZdlPv@PLT
 262      00
 263 0018 4C89E7   		movq	%r12, %rdi
 264              	.LEHB3:
 265 001b E8000000 		call	_Unwind_Resume@PLT
 265      00
 266              	.LEHE3:
 267              		.cfi_endproc
 268              	.LFE1753:
 269              		.section	.gcc_except_table
 270              	.LLSDAC1753:
 271 0018 FF       		.byte	0xff
 272 0019 FF       		.byte	0xff
 273 001a 01       		.byte	0x1
 274 001b 04       		.uleb128 .LLSDACSEC1753-.LLSDACSBC1753
 275              	.LLSDACSBC1753:
 276 001c 0B       		.uleb128 .LEHB3-.LCOLDB1
 277 001d 05       		.uleb128 .LEHE3-.LEHB3
 278 001e 00       		.uleb128 0
 279 001f 00       		.uleb128 0
 280              	.LLSDACSEC1753:
 281              		.section	.text.unlikely
 282              		.text
 284              		.section	.text.unlikely
 286              	.LCOLDE1:
 287              		.text
 288              	.LHOTE1:
 289              		.section	.text.unlikely
 290              		.align 2
 291              	.LCOLDB2:
 292              		.text
 293              	.LHOTB2:
 294              		.align 2
 295 0148 0F1F8400 		.p2align 4
 295      00000000 
 297              	_ZN8UnitTest12_GLOBAL__N_163TestDeferredTestReporterFixtureReportFailureSavesFailureDetailsD0Ev:
 298              	.LFB1757:
 299              		.cfi_startproc
 300              		.cfi_personality 0x9b,DW.ref.__gxx_personality_v0
 301              		.cfi_lsda 0x1b,.LLSDA1757
 302 0150 F30F1EFA 		endbr64
 303 0154 4154     		pushq	%r12
 304              		.cfi_def_cfa_offset 16
 305              		.cfi_offset 12, -16
 306 0156 488D0500 		leaq	16+_ZTVN8UnitTest12_GLOBAL__N_163TestDeferredTestReporterFixtureReportFailureSavesFailureDeta
 306      000000
 307 015d 55       		pushq	%rbp
 308              		.cfi_def_cfa_offset 24
 309              		.cfi_offset 6, -24
 310 015e 4889FD   		movq	%rdi, %rbp
 311 0161 4883EC08 		subq	$8, %rsp
 312              		.cfi_def_cfa_offset 32
 313 0165 488907   		movq	%rax, (%rdi)
 314              	.LEHB4:
 315 0168 E8000000 		call	_ZN8UnitTest4TestD2Ev@PLT
 315      00
 316              	.LEHE4:
 317 016d 4883C408 		addq	$8, %rsp
 318              		.cfi_remember_state
 319              		.cfi_def_cfa_offset 24
 320 0171 4889EF   		movq	%rbp, %rdi
 321 0174 5D       		popq	%rbp
 322              		.cfi_def_cfa_offset 16
 323 0175 415C     		popq	%r12
 324              		.cfi_def_cfa_offset 8
 325 0177 E9000000 		jmp	_ZdlPv@PLT
 325      00
 326              	.L19:
 327              		.cfi_restore_state
 328 017c F30F1EFA 		endbr64
 329 0180 4989C4   		movq	%rax, %r12
 330 0183 E9000000 		jmp	.L18
 330      00
 331              		.section	.gcc_except_table
 332              	.LLSDA1757:
 333 0020 FF       		.byte	0xff
 334 0021 FF       		.byte	0xff
 335 0022 01       		.byte	0x1
 336 0023 04       		.uleb128 .LLSDACSE1757-.LLSDACSB1757
 337              	.LLSDACSB1757:
 338 0024 18       		.uleb128 .LEHB4-.LFB1757
 339 0025 05       		.uleb128 .LEHE4-.LEHB4
 340 0026 2C       		.uleb128 .L19-.LFB1757
 341 0027 00       		.uleb128 0
 342              	.LLSDACSE1757:
 343              		.text
 344              		.cfi_endproc
 345              		.section	.text.unlikely
 346              		.cfi_startproc
 347              		.cfi_personality 0x9b,DW.ref.__gxx_personality_v0
 348              		.cfi_lsda 0x1b,.LLSDAC1757
 350              	_ZN8UnitTest12_GLOBAL__N_163TestDeferredTestReporterFixtureReportFailureSavesFailureDetailsD0Ev.col
 351              	.LFSB1757:
 352              	.L18:
 353              		.cfi_def_cfa_offset 32
 354              		.cfi_offset 6, -24
 355              		.cfi_offset 12, -16
 356 0020 4889EF   		movq	%rbp, %rdi
 357 0023 E8000000 		call	_ZdlPv@PLT
 357      00
 358 0028 4C89E7   		movq	%r12, %rdi
 359              	.LEHB5:
 360 002b E8000000 		call	_Unwind_Resume@PLT
 360      00
 361              	.LEHE5:
 362              		.cfi_endproc
 363              	.LFE1757:
 364              		.section	.gcc_except_table
 365              	.LLSDAC1757:
 366 0028 FF       		.byte	0xff
 367 0029 FF       		.byte	0xff
 368 002a 01       		.byte	0x1
 369 002b 04       		.uleb128 .LLSDACSEC1757-.LLSDACSBC1757
 370              	.LLSDACSBC1757:
 371 002c 0B       		.uleb128 .LEHB5-.LCOLDB2
 372 002d 05       		.uleb128 .LEHE5-.LEHB5
 373 002e 00       		.uleb128 0
 374 002f 00       		.uleb128 0
 375              	.LLSDACSEC1757:
 376              		.section	.text.unlikely
 377              		.text
 379              		.section	.text.unlikely
 381              	.LCOLDE2:
 382              		.text
 383              	.LHOTE2:
 384              		.section	.text.unlikely
 385              		.align 2
 386              	.LCOLDB3:
 387              		.text
 388              	.LHOTB3:
 389              		.align 2
 390 0188 0F1F8400 		.p2align 4
 390      00000000 
 392              	_ZN8UnitTest12_GLOBAL__N_160TestDeferredTestReporterFixtureReportTestEndCapturesTestTimeD0Ev:
 393              	.LFB1761:
 394              		.cfi_startproc
 395              		.cfi_personality 0x9b,DW.ref.__gxx_personality_v0
 396              		.cfi_lsda 0x1b,.LLSDA1761
 397 0190 F30F1EFA 		endbr64
 398 0194 4154     		pushq	%r12
 399              		.cfi_def_cfa_offset 16
 400              		.cfi_offset 12, -16
 401 0196 488D0500 		leaq	16+_ZTVN8UnitTest12_GLOBAL__N_160TestDeferredTestReporterFixtureReportTestEndCapturesTestTime
 401      000000
 402 019d 55       		pushq	%rbp
 403              		.cfi_def_cfa_offset 24
 404              		.cfi_offset 6, -24
 405 019e 4889FD   		movq	%rdi, %rbp
 406 01a1 4883EC08 		subq	$8, %rsp
 407              		.cfi_def_cfa_offset 32
 408 01a5 488907   		movq	%rax, (%rdi)
 409              	.LEHB6:
 410 01a8 E8000000 		call	_ZN8UnitTest4TestD2Ev@PLT
 410      00
 411              	.LEHE6:
 412 01ad 4883C408 		addq	$8, %rsp
 413              		.cfi_remember_state
 414              		.cfi_def_cfa_offset 24
 415 01b1 4889EF   		movq	%rbp, %rdi
 416 01b4 5D       		popq	%rbp
 417              		.cfi_def_cfa_offset 16
 418 01b5 415C     		popq	%r12
 419              		.cfi_def_cfa_offset 8
 420 01b7 E9000000 		jmp	_ZdlPv@PLT
 420      00
 421              	.L23:
 422              		.cfi_restore_state
 423 01bc F30F1EFA 		endbr64
 424 01c0 4989C4   		movq	%rax, %r12
 425 01c3 E9000000 		jmp	.L22
 425      00
 426              		.section	.gcc_except_table
 427              	.LLSDA1761:
 428 0030 FF       		.byte	0xff
 429 0031 FF       		.byte	0xff
 430 0032 01       		.byte	0x1
 431 0033 04       		.uleb128 .LLSDACSE1761-.LLSDACSB1761
 432              	.LLSDACSB1761:
 433 0034 18       		.uleb128 .LEHB6-.LFB1761
 434 0035 05       		.uleb128 .LEHE6-.LEHB6
 435 0036 2C       		.uleb128 .L23-.LFB1761
 436 0037 00       		.uleb128 0
 437              	.LLSDACSE1761:
 438              		.text
 439              		.cfi_endproc
 440              		.section	.text.unlikely
 441              		.cfi_startproc
 442              		.cfi_personality 0x9b,DW.ref.__gxx_personality_v0
 443              		.cfi_lsda 0x1b,.LLSDAC1761
 445              	_ZN8UnitTest12_GLOBAL__N_160TestDeferredTestReporterFixtureReportTestEndCapturesTestTimeD0Ev.cold:
 446              	.LFSB1761:
 447              	.L22:
 448              		.cfi_def_cfa_offset 32
 449              		.cfi_offset 6, -24
 450              		.cfi_offset 12, -16
 451 0030 4889EF   		movq	%rbp, %rdi
 452 0033 E8000000 		call	_ZdlPv@PLT
 452      00
 453 0038 4C89E7   		movq	%r12, %rdi
 454              	.LEHB7:
 455 003b E8000000 		call	_Unwind_Resume@PLT
 455      00
 456              	.LEHE7:
 457              		.cfi_endproc
 458              	.LFE1761:
 459              		.section	.gcc_except_table
 460              	.LLSDAC1761:
 461 0038 FF       		.byte	0xff
 462 0039 FF       		.byte	0xff
 463 003a 01       		.byte	0x1
 464 003b 04       		.uleb128 .LLSDACSEC1761-.LLSDACSBC1761
 465              	.LLSDACSBC1761:
 466 003c 0B       		.uleb128 .LEHB7-.LCOLDB3
 467 003d 05       		.uleb128 .LEHE7-.LEHB7
 468 003e 00       		.uleb128 0
 469 003f 00       		.uleb128 0
 470              	.LLSDACSEC1761:
 471              		.section	.text.unlikely
 472              		.text
 474              		.section	.text.unlikely
 476              	.LCOLDE3:
 477              		.text
 478              	.LHOTE3:
 479              		.section	.text.unlikely
 480              		.align 2
 481              	.LCOLDB4:
 482              		.text
 483              	.LHOTB4:
 484              		.align 2
 485 01c8 0F1F8400 		.p2align 4
 485      00000000 
 487              	_ZN8UnitTest12_GLOBAL__N_170TestDeferredTestReporterFixtureReportTestStartCapturesTestNameAndSuiteD
 488              	.LFB1765:
 489              		.cfi_startproc
 490              		.cfi_personality 0x9b,DW.ref.__gxx_personality_v0
 491              		.cfi_lsda 0x1b,.LLSDA1765
 492 01d0 F30F1EFA 		endbr64
 493 01d4 4154     		pushq	%r12
 494              		.cfi_def_cfa_offset 16
 495              		.cfi_offset 12, -16
 496 01d6 488D0500 		leaq	16+_ZTVN8UnitTest12_GLOBAL__N_170TestDeferredTestReporterFixtureReportTestStartCapturesTestNa
 496      000000
 497 01dd 55       		pushq	%rbp
 498              		.cfi_def_cfa_offset 24
 499              		.cfi_offset 6, -24
 500 01de 4889FD   		movq	%rdi, %rbp
 501 01e1 4883EC08 		subq	$8, %rsp
 502              		.cfi_def_cfa_offset 32
 503 01e5 488907   		movq	%rax, (%rdi)
 504              	.LEHB8:
 505 01e8 E8000000 		call	_ZN8UnitTest4TestD2Ev@PLT
 505      00
 506              	.LEHE8:
 507 01ed 4883C408 		addq	$8, %rsp
 508              		.cfi_remember_state
 509              		.cfi_def_cfa_offset 24
 510 01f1 4889EF   		movq	%rbp, %rdi
 511 01f4 5D       		popq	%rbp
 512              		.cfi_def_cfa_offset 16
 513 01f5 415C     		popq	%r12
 514              		.cfi_def_cfa_offset 8
 515 01f7 E9000000 		jmp	_ZdlPv@PLT
 515      00
 516              	.L27:
 517              		.cfi_restore_state
 518 01fc F30F1EFA 		endbr64
 519 0200 4989C4   		movq	%rax, %r12
 520 0203 E9000000 		jmp	.L26
 520      00
 521              		.section	.gcc_except_table
 522              	.LLSDA1765:
 523 0040 FF       		.byte	0xff
 524 0041 FF       		.byte	0xff
 525 0042 01       		.byte	0x1
 526 0043 04       		.uleb128 .LLSDACSE1765-.LLSDACSB1765
 527              	.LLSDACSB1765:
 528 0044 18       		.uleb128 .LEHB8-.LFB1765
 529 0045 05       		.uleb128 .LEHE8-.LEHB8
 530 0046 2C       		.uleb128 .L27-.LFB1765
 531 0047 00       		.uleb128 0
 532              	.LLSDACSE1765:
 533              		.text
 534              		.cfi_endproc
 535              		.section	.text.unlikely
 536              		.cfi_startproc
 537              		.cfi_personality 0x9b,DW.ref.__gxx_personality_v0
 538              		.cfi_lsda 0x1b,.LLSDAC1765
 540              	_ZN8UnitTest12_GLOBAL__N_170TestDeferredTestReporterFixtureReportTestStartCapturesTestNameAndSuiteD
 541              	.LFSB1765:
 542              	.L26:
 543              		.cfi_def_cfa_offset 32
 544              		.cfi_offset 6, -24
 545              		.cfi_offset 12, -16
 546 0040 4889EF   		movq	%rbp, %rdi
 547 0043 E8000000 		call	_ZdlPv@PLT
 547      00
 548 0048 4C89E7   		movq	%r12, %rdi
 549              	.LEHB9:
 550 004b E8000000 		call	_Unwind_Resume@PLT
 550      00
 551              	.LEHE9:
 552              		.cfi_endproc
 553              	.LFE1765:
 554              		.section	.gcc_except_table
 555              	.LLSDAC1765:
 556 0048 FF       		.byte	0xff
 557 0049 FF       		.byte	0xff
 558 004a 01       		.byte	0x1
 559 004b 04       		.uleb128 .LLSDACSEC1765-.LLSDACSBC1765
 560              	.LLSDACSBC1765:
 561 004c 0B       		.uleb128 .LEHB9-.LCOLDB4
 562 004d 05       		.uleb128 .LEHE9-.LEHB9
 563 004e 00       		.uleb128 0
 564 004f 00       		.uleb128 0
 565              	.LLSDACSEC1765:
 566              		.section	.text.unlikely
 567              		.text
 569              		.section	.text.unlikely
 571              	.LCOLDE4:
 572              		.text
 573              	.LHOTE4:
 574              		.section	.text.unlikely
 575              		.align 2
 576              	.LCOLDB5:
 577              		.text
 578              	.LHOTB5:
 579              		.align 2
 580 0208 0F1F8400 		.p2align 4
 580      00000000 
 582              	_ZN8UnitTest12_GLOBAL__N_169TestDeferredTestReporterFixtureReportTestStartCreatesANewDeferredTestD0
 583              	.LFB1769:
 584              		.cfi_startproc
 585              		.cfi_personality 0x9b,DW.ref.__gxx_personality_v0
 586              		.cfi_lsda 0x1b,.LLSDA1769
 587 0210 F30F1EFA 		endbr64
 588 0214 4154     		pushq	%r12
 589              		.cfi_def_cfa_offset 16
 590              		.cfi_offset 12, -16
 591 0216 488D0500 		leaq	16+_ZTVN8UnitTest12_GLOBAL__N_169TestDeferredTestReporterFixtureReportTestStartCreatesANewDef
 591      000000
 592 021d 55       		pushq	%rbp
 593              		.cfi_def_cfa_offset 24
 594              		.cfi_offset 6, -24
 595 021e 4889FD   		movq	%rdi, %rbp
 596 0221 4883EC08 		subq	$8, %rsp
 597              		.cfi_def_cfa_offset 32
 598 0225 488907   		movq	%rax, (%rdi)
 599              	.LEHB10:
 600 0228 E8000000 		call	_ZN8UnitTest4TestD2Ev@PLT
 600      00
 601              	.LEHE10:
 602 022d 4883C408 		addq	$8, %rsp
 603              		.cfi_remember_state
 604              		.cfi_def_cfa_offset 24
 605 0231 4889EF   		movq	%rbp, %rdi
 606 0234 5D       		popq	%rbp
 607              		.cfi_def_cfa_offset 16
 608 0235 415C     		popq	%r12
 609              		.cfi_def_cfa_offset 8
 610 0237 E9000000 		jmp	_ZdlPv@PLT
 610      00
 611              	.L31:
 612              		.cfi_restore_state
 613 023c F30F1EFA 		endbr64
 614 0240 4989C4   		movq	%rax, %r12
 615 0243 E9000000 		jmp	.L30
 615      00
 616              		.section	.gcc_except_table
 617              	.LLSDA1769:
 618 0050 FF       		.byte	0xff
 619 0051 FF       		.byte	0xff
 620 0052 01       		.byte	0x1
 621 0053 04       		.uleb128 .LLSDACSE1769-.LLSDACSB1769
 622              	.LLSDACSB1769:
 623 0054 18       		.uleb128 .LEHB10-.LFB1769
 624 0055 05       		.uleb128 .LEHE10-.LEHB10
 625 0056 2C       		.uleb128 .L31-.LFB1769
 626 0057 00       		.uleb128 0
 627              	.LLSDACSE1769:
 628              		.text
 629              		.cfi_endproc
 630              		.section	.text.unlikely
 631              		.cfi_startproc
 632              		.cfi_personality 0x9b,DW.ref.__gxx_personality_v0
 633              		.cfi_lsda 0x1b,.LLSDAC1769
 635              	_ZN8UnitTest12_GLOBAL__N_169TestDeferredTestReporterFixtureReportTestStartCreatesANewDeferredTestD0
 636              	.LFSB1769:
 637              	.L30:
 638              		.cfi_def_cfa_offset 32
 639              		.cfi_offset 6, -24
 640              		.cfi_offset 12, -16
 641 0050 4889EF   		movq	%rbp, %rdi
 642 0053 E8000000 		call	_ZdlPv@PLT
 642      00
 643 0058 4C89E7   		movq	%r12, %rdi
 644              	.LEHB11:
 645 005b E8000000 		call	_Unwind_Resume@PLT
 645      00
 646              	.LEHE11:
 647              		.cfi_endproc
 648              	.LFE1769:
 649              		.section	.gcc_except_table
 650              	.LLSDAC1769:
 651 0058 FF       		.byte	0xff
 652 0059 FF       		.byte	0xff
 653 005a 01       		.byte	0x1
 654 005b 04       		.uleb128 .LLSDACSEC1769-.LLSDACSBC1769
 655              	.LLSDACSBC1769:
 656 005c 0B       		.uleb128 .LEHB11-.LCOLDB5
 657 005d 05       		.uleb128 .LEHE11-.LEHB11
 658 005e 00       		.uleb128 0
 659 005f 00       		.uleb128 0
 660              	.LLSDACSEC1769:
 661              		.section	.text.unlikely
 662              		.text
 664              		.section	.text.unlikely
 666              	.LCOLDE5:
 667              		.text
 668              	.LHOTE5:
 669              		.section	.text._ZN8UnitTest15MemoryOutStreamD1Ev,"axG",@progbits,_ZN8UnitTest15MemoryOutStreamD1Ev
 670              		.align 2
 671              		.p2align 4
 672              		.weak	_ZN8UnitTest15MemoryOutStreamD1Ev
 674              	_ZN8UnitTest15MemoryOutStreamD1Ev:
 675              	.LFB1776:
 676              		.cfi_startproc
 677 0000 F30F1EFA 		endbr64
 678 0004 55       		pushq	%rbp
 679              		.cfi_def_cfa_offset 16
 680              		.cfi_offset 6, -16
 681 0005 488D0500 		leaq	24+_ZTVN8UnitTest15MemoryOutStreamE(%rip), %rax
 681      000000
 682 000c 53       		pushq	%rbx
 683              		.cfi_def_cfa_offset 24
 684              		.cfi_offset 3, -24
 685 000d 4889FB   		movq	%rdi, %rbx
 686 0010 4883EC08 		subq	$8, %rsp
 687              		.cfi_def_cfa_offset 32
 688 0014 488907   		movq	%rax, (%rdi)
 689 0017 4883C028 		addq	$40, %rax
 690 001b 48898790 		movq	%rax, 144(%rdi)
 690      000000
 691 0022 488B7F70 		movq	112(%rdi), %rdi
 692 0026 488D8380 		leaq	128(%rbx), %rax
 692      000000
 693 002d 4839C7   		cmpq	%rax, %rdi
 694 0030 7405     		je	.L34
 695 0032 E8000000 		call	_ZdlPv@PLT
 695      00
 696              	.L34:
 697 0037 488D0500 		leaq	64+_ZTCN8UnitTest15MemoryOutStreamE0_NSt7__cxx1119basic_ostringstreamIcSt11char_traitsIcESaIc
 697      000000
 698 003e 488D1500 		leaq	24+_ZTCN8UnitTest15MemoryOutStreamE0_NSt7__cxx1119basic_ostringstreamIcSt11char_traitsIcESaIc
 698      000000
 699 0045 488B7B50 		movq	80(%rbx), %rdi
 700 0049 48898390 		movq	%rax, 144(%rbx)
 700      000000
 701 0050 488D0500 		leaq	16+_ZTVNSt7__cxx1115basic_stringbufIcSt11char_traitsIcESaIcEEE(%rip), %rax
 701      000000
 702 0057 66480F6E 		movq	%rdx, %xmm0
 702      C2
 703 005c 488DAB90 		leaq	144(%rbx), %rbp
 703      000000
 704 0063 66480F6E 		movq	%rax, %xmm1
 704      C8
 705 0068 488D4360 		leaq	96(%rbx), %rax
 706 006c 660F6CC1 		punpcklqdq	%xmm1, %xmm0
 707 0070 0F1103   		movups	%xmm0, (%rbx)
 708 0073 4839C7   		cmpq	%rax, %rdi
 709 0076 7405     		je	.L35
 710 0078 E8000000 		call	_ZdlPv@PLT
 710      00
 711              	.L35:
 712 007d 488D0500 		leaq	16+_ZTVSt15basic_streambufIcSt11char_traitsIcEE(%rip), %rax
 712      000000
 713 0084 488D7B40 		leaq	64(%rbx), %rdi
 714 0088 48894308 		movq	%rax, 8(%rbx)
 715 008c E8000000 		call	_ZNSt6localeD1Ev@PLT
 715      00
 716 0091 488D0500 		leaq	24+_ZTCN8UnitTest15MemoryOutStreamE0_So(%rip), %rax
 716      000000
 717 0098 4889EF   		movq	%rbp, %rdi
 718 009b 488903   		movq	%rax, (%rbx)
 719 009e 488D0500 		leaq	16+_ZTVSt9basic_iosIcSt11char_traitsIcEE(%rip), %rax
 719      000000
 720 00a5 48898390 		movq	%rax, 144(%rbx)
 720      000000
 721 00ac 4883C408 		addq	$8, %rsp
 722              		.cfi_def_cfa_offset 24
 723 00b0 5B       		popq	%rbx
 724              		.cfi_def_cfa_offset 16
 725 00b1 5D       		popq	%rbp
 726              		.cfi_def_cfa_offset 8
 727 00b2 E9000000 		jmp	_ZNSt8ios_baseD2Ev@PLT
 727      00
 728              		.cfi_endproc
 729              	.LFE1776:
 731              		.text
 732              		.align 2
 733 0248 0F1F8400 		.p2align 4
 733      00000000 
 735              	_ZN8UnitTest12_GLOBAL__N_124MockDeferredTestReporterD2Ev:
 736              	.LFB1771:
 737              		.cfi_startproc
 738 0250 F30F1EFA 		endbr64
 739 0254 4156     		pushq	%r14
 740              		.cfi_def_cfa_offset 16
 741              		.cfi_offset 14, -16
 742 0256 488D0500 		leaq	16+_ZTVN8UnitTest20DeferredTestReporterE(%rip), %rax
 742      000000
 743 025d 4989FE   		movq	%rdi, %r14
 744 0260 4155     		pushq	%r13
 745              		.cfi_def_cfa_offset 24
 746              		.cfi_offset 13, -24
 747 0262 4154     		pushq	%r12
 748              		.cfi_def_cfa_offset 32
 749              		.cfi_offset 12, -32
 750 0264 55       		pushq	%rbp
 751              		.cfi_def_cfa_offset 40
 752              		.cfi_offset 6, -40
 753 0265 53       		pushq	%rbx
 754              		.cfi_def_cfa_offset 48
 755              		.cfi_offset 3, -48
 756 0266 4C8B6F10 		movq	16(%rdi), %r13
 757 026a 4C8B6708 		movq	8(%rdi), %r12
 758 026e 488907   		movq	%rax, (%rdi)
 759 0271 4D39E5   		cmpq	%r12, %r13
 760 0274 0F849300 		je	.L38
 760      0000
 761 027a 660F1F44 		.p2align 4,,10
 761      0000
 762              		.p2align 3
 763              	.L50:
 764 0280 498B5C24 		movq	104(%r12), %rbx
 764      68
 765 0285 498B6C24 		movq	96(%r12), %rbp
 765      60
 766 028a 4839EB   		cmpq	%rbp, %rbx
 767 028d 7425     		je	.L39
 768 028f 90       		.p2align 4,,10
 769              		.p2align 3
 770              	.L43:
 771 0290 488B7D08 		movq	8(%rbp), %rdi
 772 0294 488D4518 		leaq	24(%rbp), %rax
 773 0298 4839C7   		cmpq	%rax, %rdi
 774 029b 0F848F00 		je	.L40
 774      0000
 775 02a1 E8000000 		call	_ZdlPv@PLT
 775      00
 776 02a6 4883C528 		addq	$40, %rbp
 777 02aa 4839DD   		cmpq	%rbx, %rbp
 778 02ad 75E1     		jne	.L43
 779              	.L42:
 780 02af 498B6C24 		movq	96(%r12), %rbp
 780      60
 781              	.L39:
 782 02b4 4885ED   		testq	%rbp, %rbp
 783 02b7 7408     		je	.L44
 784 02b9 4889EF   		movq	%rbp, %rdi
 785 02bc E8000000 		call	_ZdlPv@PLT
 785      00
 786              	.L44:
 787 02c1 498B7C24 		movq	64(%r12), %rdi
 787      40
 788 02c6 498D4424 		leaq	80(%r12), %rax
 788      50
 789 02cb 4839C7   		cmpq	%rax, %rdi
 790 02ce 7405     		je	.L45
 791 02d0 E8000000 		call	_ZdlPv@PLT
 791      00
 792              	.L45:
 793 02d5 498B7C24 		movq	32(%r12), %rdi
 793      20
 794 02da 498D4424 		leaq	48(%r12), %rax
 794      30
 795 02df 4839C7   		cmpq	%rax, %rdi
 796 02e2 7405     		je	.L46
 797 02e4 E8000000 		call	_ZdlPv@PLT
 797      00
 798              	.L46:
 799 02e9 498B3C24 		movq	(%r12), %rdi
 800 02ed 498D4424 		leaq	16(%r12), %rax
 800      10
 801 02f2 4839C7   		cmpq	%rax, %rdi
 802 02f5 7451     		je	.L47
 803 02f7 E8000000 		call	_ZdlPv@PLT
 803      00
 804 02fc 4983EC80 		subq	$-128, %r12
 805 0300 4D39E5   		cmpq	%r12, %r13
 806 0303 0F8577FF 		jne	.L50
 806      FFFF
 807              	.L49:
 808 0309 4D8B6608 		movq	8(%r14), %r12
 809              	.L38:
 810 030d 4D85E4   		testq	%r12, %r12
 811 0310 7408     		je	.L51
 812 0312 4C89E7   		movq	%r12, %rdi
 813 0315 E8000000 		call	_ZdlPv@PLT
 813      00
 814              	.L51:
 815 031a 5B       		popq	%rbx
 816              		.cfi_remember_state
 817              		.cfi_def_cfa_offset 40
 818 031b 4C89F7   		movq	%r14, %rdi
 819 031e 5D       		popq	%rbp
 820              		.cfi_def_cfa_offset 32
 821 031f 415C     		popq	%r12
 822              		.cfi_def_cfa_offset 24
 823 0321 415D     		popq	%r13
 824              		.cfi_def_cfa_offset 16
 825 0323 415E     		popq	%r14
 826              		.cfi_def_cfa_offset 8
 827 0325 E9000000 		jmp	_ZN8UnitTest12TestReporterD2Ev@PLT
 827      00
 828 032a 660F1F44 		.p2align 4,,10
 828      0000
 829              		.p2align 3
 830              	.L40:
 831              		.cfi_restore_state
 832 0330 4883C528 		addq	$40, %rbp
 833 0334 4839EB   		cmpq	%rbp, %rbx
 834 0337 0F8553FF 		jne	.L43
 834      FFFF
 835 033d E96DFFFF 		jmp	.L42
 835      FF
 836              		.p2align 4,,10
 837 0342 660F1F44 		.p2align 3
 837      0000
 838              	.L47:
 839 0348 4983EC80 		subq	$-128, %r12
 840 034c 4D39E5   		cmpq	%r12, %r13
 841 034f 0F852BFF 		jne	.L50
 841      FFFF
 842 0355 EBB2     		jmp	.L49
 843              		.cfi_endproc
 844              	.LFE1771:
 846              		.set	_ZN8UnitTest12_GLOBAL__N_124MockDeferredTestReporterD1Ev,_ZN8UnitTest12_GLOBAL__N_124MockDefe
 847              		.section	.text.unlikely
 848              		.align 2
 849              	.LCOLDB6:
 850              		.text
 851              	.LHOTB6:
 852 0357 90       		.align 2
 853 0358 0F1F8400 		.p2align 4
 853      00000000 
 855              	_ZN8UnitTest12_GLOBAL__N_124MockDeferredTestReporterD0Ev:
 856              	.LFB1773:
 857              		.cfi_startproc
 858              		.cfi_personality 0x9b,DW.ref.__gxx_personality_v0
 859              		.cfi_lsda 0x1b,.LLSDA1773
 860 0360 F30F1EFA 		endbr64
 861 0364 4156     		pushq	%r14
 862              		.cfi_def_cfa_offset 16
 863              		.cfi_offset 14, -16
 864 0366 488D0500 		leaq	16+_ZTVN8UnitTest20DeferredTestReporterE(%rip), %rax
 864      000000
 865 036d 4989FE   		movq	%rdi, %r14
 866 0370 4155     		pushq	%r13
 867              		.cfi_def_cfa_offset 24
 868              		.cfi_offset 13, -24
 869 0372 4154     		pushq	%r12
 870              		.cfi_def_cfa_offset 32
 871              		.cfi_offset 12, -32
 872 0374 55       		pushq	%rbp
 873              		.cfi_def_cfa_offset 40
 874              		.cfi_offset 6, -40
 875 0375 53       		pushq	%rbx
 876              		.cfi_def_cfa_offset 48
 877              		.cfi_offset 3, -48
 878 0376 4C8B6F10 		movq	16(%rdi), %r13
 879 037a 4C8B6708 		movq	8(%rdi), %r12
 880 037e 488907   		movq	%rax, (%rdi)
 881 0381 4D39E5   		cmpq	%r12, %r13
 882 0384 0F849300 		je	.L60
 882      0000
 883 038a 660F1F44 		.p2align 4,,10
 883      0000
 884              		.p2align 3
 885              	.L72:
 886 0390 498B5C24 		movq	104(%r12), %rbx
 886      68
 887 0395 498B6C24 		movq	96(%r12), %rbp
 887      60
 888 039a 4839EB   		cmpq	%rbp, %rbx
 889 039d 7425     		je	.L61
 890 039f 90       		.p2align 4,,10
 891              		.p2align 3
 892              	.L65:
 893 03a0 488B7D08 		movq	8(%rbp), %rdi
 894 03a4 488D4518 		leaq	24(%rbp), %rax
 895 03a8 4839C7   		cmpq	%rax, %rdi
 896 03ab 0F849700 		je	.L62
 896      0000
 897 03b1 E8000000 		call	_ZdlPv@PLT
 897      00
 898 03b6 4883C528 		addq	$40, %rbp
 899 03ba 4839DD   		cmpq	%rbx, %rbp
 900 03bd 75E1     		jne	.L65
 901              	.L64:
 902 03bf 498B6C24 		movq	96(%r12), %rbp
 902      60
 903              	.L61:
 904 03c4 4885ED   		testq	%rbp, %rbp
 905 03c7 7408     		je	.L66
 906 03c9 4889EF   		movq	%rbp, %rdi
 907 03cc E8000000 		call	_ZdlPv@PLT
 907      00
 908              	.L66:
 909 03d1 498B7C24 		movq	64(%r12), %rdi
 909      40
 910 03d6 498D4424 		leaq	80(%r12), %rax
 910      50
 911 03db 4839C7   		cmpq	%rax, %rdi
 912 03de 7405     		je	.L67
 913 03e0 E8000000 		call	_ZdlPv@PLT
 913      00
 914              	.L67:
 915 03e5 498B7C24 		movq	32(%r12), %rdi
 915      20
 916 03ea 498D4424 		leaq	48(%r12), %rax
 916      30
 917 03ef 4839C7   		cmpq	%rax, %rdi
 918 03f2 7405     		je	.L68
 919 03f4 E8000000 		call	_ZdlPv@PLT
 919      00
 920              	.L68:
 921 03f9 498B3C24 		movq	(%r12), %rdi
 922 03fd 498D4424 		leaq	16(%r12), %rax
 922      10
 923 0402 4839C7   		cmpq	%rax, %rdi
 924 0405 7459     		je	.L69
 925 0407 E8000000 		call	_ZdlPv@PLT
 925      00
 926 040c 4983EC80 		subq	$-128, %r12
 927 0410 4D39E5   		cmpq	%r12, %r13
 928 0413 0F8577FF 		jne	.L72
 928      FFFF
 929              	.L71:
 930 0419 4D8B6608 		movq	8(%r14), %r12
 931              	.L60:
 932 041d 4D85E4   		testq	%r12, %r12
 933 0420 7408     		je	.L73
 934 0422 4C89E7   		movq	%r12, %rdi
 935 0425 E8000000 		call	_ZdlPv@PLT
 935      00
 936              	.L73:
 937 042a 4C89F7   		movq	%r14, %rdi
 938              	.LEHB12:
 939 042d E8000000 		call	_ZN8UnitTest12TestReporterD2Ev@PLT
 939      00
 940              	.LEHE12:
 941 0432 5B       		popq	%rbx
 942              		.cfi_remember_state
 943              		.cfi_def_cfa_offset 40
 944 0433 4C89F7   		movq	%r14, %rdi
 945 0436 5D       		popq	%rbp
 946              		.cfi_def_cfa_offset 32
 947 0437 415C     		popq	%r12
 948              		.cfi_def_cfa_offset 24
 949 0439 415D     		popq	%r13
 950              		.cfi_def_cfa_offset 16
 951 043b 415E     		popq	%r14
 952              		.cfi_def_cfa_offset 8
 953 043d E9000000 		jmp	_ZdlPv@PLT
 953      00
 954              		.p2align 4,,10
 955 0442 660F1F44 		.p2align 3
 955      0000
 956              	.L62:
 957              		.cfi_restore_state
 958 0448 4883C528 		addq	$40, %rbp
 959 044c 4839EB   		cmpq	%rbp, %rbx
 960 044f 0F854BFF 		jne	.L65
 960      FFFF
 961 0455 E965FFFF 		jmp	.L64
 961      FF
 962 045a 660F1F44 		.p2align 4,,10
 962      0000
 963              		.p2align 3
 964              	.L69:
 965 0460 4983EC80 		subq	$-128, %r12
 966 0464 4D39E5   		cmpq	%r12, %r13
 967 0467 0F8523FF 		jne	.L72
 967      FFFF
 968 046d EBAA     		jmp	.L71
 969              	.L75:
 970 046f F30F1EFA 		endbr64
 971 0473 4889C5   		movq	%rax, %rbp
 972 0476 E9000000 		jmp	.L74
 972      00
 973              		.section	.gcc_except_table
 974              	.LLSDA1773:
 975 0060 FF       		.byte	0xff
 976 0061 FF       		.byte	0xff
 977 0062 01       		.byte	0x1
 978 0063 06       		.uleb128 .LLSDACSE1773-.LLSDACSB1773
 979              	.LLSDACSB1773:
 980 0064 CD01     		.uleb128 .LEHB12-.LFB1773
 981 0066 05       		.uleb128 .LEHE12-.LEHB12
 982 0067 8F02     		.uleb128 .L75-.LFB1773
 983 0069 00       		.uleb128 0
 984              	.LLSDACSE1773:
 985              		.text
 986              		.cfi_endproc
 987              		.section	.text.unlikely
 988              		.cfi_startproc
 989              		.cfi_personality 0x9b,DW.ref.__gxx_personality_v0
 990              		.cfi_lsda 0x1b,.LLSDAC1773
 992              	_ZN8UnitTest12_GLOBAL__N_124MockDeferredTestReporterD0Ev.cold:
 993              	.LFSB1773:
 994              	.L74:
 995              		.cfi_def_cfa_offset 48
 996              		.cfi_offset 3, -48
 997              		.cfi_offset 6, -40
 998              		.cfi_offset 12, -32
 999              		.cfi_offset 13, -24
 1000              		.cfi_offset 14, -16
 1001 0060 4C89F7   		movq	%r14, %rdi
 1002 0063 E8000000 		call	_ZdlPv@PLT
 1002      00
 1003 0068 4889EF   		movq	%rbp, %rdi
 1004              	.LEHB13:
 1005 006b E8000000 		call	_Unwind_Resume@PLT
 1005      00
 1006              	.LEHE13:
 1007              		.cfi_endproc
 1008              	.LFE1773:
 1009              		.section	.gcc_except_table
 1010              	.LLSDAC1773:
 1011 006a FF       		.byte	0xff
 1012 006b FF       		.byte	0xff
 1013 006c 01       		.byte	0x1
 1014 006d 04       		.uleb128 .LLSDACSEC1773-.LLSDACSBC1773
 1015              	.LLSDACSBC1773:
 1016 006e 0B       		.uleb128 .LEHB13-.LCOLDB6
 1017 006f 05       		.uleb128 .LEHE13-.LEHB13
 1018 0070 00       		.uleb128 0
 1019 0071 00       		.uleb128 0
 1020              	.LLSDACSEC1773:
 1021              		.section	.text.unlikely
 1022              		.text
 1024              		.section	.text.unlikely
 1026              	.LCOLDE6:
 1027              		.text
 1028              	.LHOTE6:
 1029              		.section	.text.unlikely
 1030              		.align 2
 1032              	_ZN8UnitTest12_GLOBAL__N_127DeferredTestReporterFixtureD2Ev:
 1033              	.LFB1491:
 1034              		.cfi_startproc
 1035 0070 4156     		pushq	%r14
 1036              		.cfi_def_cfa_offset 16
 1037              		.cfi_offset 14, -16
 1038 0072 4155     		pushq	%r13
 1039              		.cfi_def_cfa_offset 24
 1040              		.cfi_offset 13, -24
 1041 0074 4154     		pushq	%r12
 1042              		.cfi_def_cfa_offset 32
 1043              		.cfi_offset 12, -32
 1044 0076 55       		pushq	%rbp
 1045              		.cfi_def_cfa_offset 40
 1046              		.cfi_offset 6, -40
 1047 0077 4889FD   		movq	%rdi, %rbp
 1048 007a 53       		pushq	%rbx
 1049              		.cfi_def_cfa_offset 48
 1050              		.cfi_offset 3, -48
 1051 007b 488B7F60 		movq	96(%rdi), %rdi
 1052 007f 488D4570 		leaq	112(%rbp), %rax
 1053 0083 4839C7   		cmpq	%rax, %rdi
 1054 0086 7405     		je	.L84
 1055 0088 E8000000 		call	_ZdlPv@PLT
 1055      00
 1056              	.L84:
 1057 008d 488B7D40 		movq	64(%rbp), %rdi
 1058 0091 488D4550 		leaq	80(%rbp), %rax
 1059 0095 4839C7   		cmpq	%rax, %rdi
 1060 0098 7405     		je	.L85
 1061 009a E8000000 		call	_ZdlPv@PLT
 1061      00
 1062              	.L85:
 1063 009f 488B7D20 		movq	32(%rbp), %rdi
 1064 00a3 488D4530 		leaq	48(%rbp), %rax
 1065 00a7 4839C7   		cmpq	%rax, %rdi
 1066 00aa 7405     		je	.L86
 1067 00ac E8000000 		call	_ZdlPv@PLT
 1067      00
 1068              	.L86:
 1069 00b1 488D0500 		leaq	16+_ZTVN8UnitTest20DeferredTestReporterE(%rip), %rax
 1069      000000
 1070 00b8 4C8B6D10 		movq	16(%rbp), %r13
 1071 00bc 488B5D08 		movq	8(%rbp), %rbx
 1072 00c0 48894500 		movq	%rax, 0(%rbp)
 1073              	.L87:
 1074 00c4 4939DD   		cmpq	%rbx, %r13
 1075 00c7 7470     		je	.L104
 1076 00c9 4C8B7368 		movq	104(%rbx), %r14
 1077 00cd 4C8B6360 		movq	96(%rbx), %r12
 1078              	.L88:
 1079 00d1 4D39E6   		cmpq	%r12, %r14
 1080 00d4 741A     		je	.L105
 1081 00d6 498B7C24 		movq	8(%r12), %rdi
 1081      08
 1082 00db 498D4424 		leaq	24(%r12), %rax
 1082      18
 1083 00e0 4839C7   		cmpq	%rax, %rdi
 1084 00e3 7405     		je	.L89
 1085 00e5 E8000000 		call	_ZdlPv@PLT
 1085      00
 1086              	.L89:
 1087 00ea 4983C428 		addq	$40, %r12
 1088 00ee EBE1     		jmp	.L88
 1089              	.L105:
 1090 00f0 488B7B60 		movq	96(%rbx), %rdi
 1091 00f4 4885FF   		testq	%rdi, %rdi
 1092 00f7 7405     		je	.L91
 1093 00f9 E8000000 		call	_ZdlPv@PLT
 1093      00
 1094              	.L91:
 1095 00fe 488B7B40 		movq	64(%rbx), %rdi
 1096 0102 488D4350 		leaq	80(%rbx), %rax
 1097 0106 4839C7   		cmpq	%rax, %rdi
 1098 0109 7405     		je	.L92
 1099 010b E8000000 		call	_ZdlPv@PLT
 1099      00
 1100              	.L92:
 1101 0110 488B7B20 		movq	32(%rbx), %rdi
 1102 0114 488D4330 		leaq	48(%rbx), %rax
 1103 0118 4839C7   		cmpq	%rax, %rdi
 1104 011b 7405     		je	.L93
 1105 011d E8000000 		call	_ZdlPv@PLT
 1105      00
 1106              	.L93:
 1107 0122 488B3B   		movq	(%rbx), %rdi
 1108 0125 488D4310 		leaq	16(%rbx), %rax
 1109 0129 4839C7   		cmpq	%rax, %rdi
 1110 012c 7405     		je	.L94
 1111 012e E8000000 		call	_ZdlPv@PLT
 1111      00
 1112              	.L94:
 1113 0133 4883EB80 		subq	$-128, %rbx
 1114 0137 EB8B     		jmp	.L87
 1115              	.L104:
 1116 0139 488B7D08 		movq	8(%rbp), %rdi
 1117 013d 4885FF   		testq	%rdi, %rdi
 1118 0140 7405     		je	.L96
 1119 0142 E8000000 		call	_ZdlPv@PLT
 1119      00
 1120              	.L96:
 1121 0147 5B       		popq	%rbx
 1122              		.cfi_def_cfa_offset 40
 1123 0148 4889EF   		movq	%rbp, %rdi
 1124 014b 5D       		popq	%rbp
 1125              		.cfi_def_cfa_offset 32
 1126 014c 415C     		popq	%r12
 1127              		.cfi_def_cfa_offset 24
 1128 014e 415D     		popq	%r13
 1129              		.cfi_def_cfa_offset 16
 1130 0150 415E     		popq	%r14
 1131              		.cfi_def_cfa_offset 8
 1132 0152 E9000000 		jmp	_ZN8UnitTest12TestReporterD2Ev@PLT
 1132      00
 1133              		.cfi_endproc
 1134              	.LFE1491:
 1136              		.section	.text._ZN8UnitTest15MemoryOutStreamD1Ev,"axG",@progbits,_ZN8UnitTest15MemoryOutStreamD1Ev
 1137 00b7 660F1F84 		.p2align 4
 1137      00000000 
 1137      00
 1138              		.weak	_ZTv0_n24_N8UnitTest15MemoryOutStreamD1Ev
 1140              	_ZTv0_n24_N8UnitTest15MemoryOutStreamD1Ev:
 1141              	.LFB1783:
 1142              		.cfi_startproc
 1143 00c0 F30F1EFA 		endbr64
 1144 00c4 55       		pushq	%rbp
 1145              		.cfi_def_cfa_offset 16
 1146              		.cfi_offset 6, -16
 1147 00c5 53       		pushq	%rbx
 1148              		.cfi_def_cfa_offset 24
 1149              		.cfi_offset 3, -24
 1150 00c6 4889FB   		movq	%rdi, %rbx
 1151 00c9 4883EC08 		subq	$8, %rsp
 1152              		.cfi_def_cfa_offset 32
 1153 00cd 488B07   		movq	(%rdi), %rax
 1154 00d0 480358E8 		addq	-24(%rax), %rbx
 1155 00d4 488D0500 		leaq	24+_ZTVN8UnitTest15MemoryOutStreamE(%rip), %rax
 1155      000000
 1156 00db 488903   		movq	%rax, (%rbx)
 1157 00de 488B7B70 		movq	112(%rbx), %rdi
 1158 00e2 4883C028 		addq	$40, %rax
 1159 00e6 48898390 		movq	%rax, 144(%rbx)
 1159      000000
 1160 00ed 488D8380 		leaq	128(%rbx), %rax
 1160      000000
 1161 00f4 4839C7   		cmpq	%rax, %rdi
 1162 00f7 7405     		je	.L107
 1163 00f9 E8000000 		call	_ZdlPv@PLT
 1163      00
 1164              	.L107:
 1165 00fe 488D0500 		leaq	64+_ZTCN8UnitTest15MemoryOutStreamE0_NSt7__cxx1119basic_ostringstreamIcSt11char_traitsIcESaIc
 1165      000000
 1166 0105 488D1500 		leaq	24+_ZTCN8UnitTest15MemoryOutStreamE0_NSt7__cxx1119basic_ostringstreamIcSt11char_traitsIcESaIc
 1166      000000
 1167 010c 488B7B50 		movq	80(%rbx), %rdi
 1168 0110 48898390 		movq	%rax, 144(%rbx)
 1168      000000
 1169 0117 488D0500 		leaq	16+_ZTVNSt7__cxx1115basic_stringbufIcSt11char_traitsIcESaIcEEE(%rip), %rax
 1169      000000
 1170 011e 66480F6E 		movq	%rdx, %xmm0
 1170      C2
 1171 0123 488DAB90 		leaq	144(%rbx), %rbp
 1171      000000
 1172 012a 66480F6E 		movq	%rax, %xmm1
 1172      C8
 1173 012f 488D4360 		leaq	96(%rbx), %rax
 1174 0133 660F6CC1 		punpcklqdq	%xmm1, %xmm0
 1175 0137 0F1103   		movups	%xmm0, (%rbx)
 1176 013a 4839C7   		cmpq	%rax, %rdi
 1177 013d 7405     		je	.L108
 1178 013f E8000000 		call	_ZdlPv@PLT
 1178      00
 1179              	.L108:
 1180 0144 488D0500 		leaq	16+_ZTVSt15basic_streambufIcSt11char_traitsIcEE(%rip), %rax
 1180      000000
 1181 014b 488D7B40 		leaq	64(%rbx), %rdi
 1182 014f 48894308 		movq	%rax, 8(%rbx)
 1183 0153 E8000000 		call	_ZNSt6localeD1Ev@PLT
 1183      00
 1184 0158 488D0500 		leaq	24+_ZTCN8UnitTest15MemoryOutStreamE0_So(%rip), %rax
 1184      000000
 1185 015f 4889EF   		movq	%rbp, %rdi
 1186 0162 488903   		movq	%rax, (%rbx)
 1187 0165 488D0500 		leaq	16+_ZTVSt9basic_iosIcSt11char_traitsIcEE(%rip), %rax
 1187      000000
 1188 016c 48898390 		movq	%rax, 144(%rbx)
 1188      000000
 1189 0173 4883C408 		addq	$8, %rsp
 1190              		.cfi_def_cfa_offset 24
 1191 0177 5B       		popq	%rbx
 1192              		.cfi_def_cfa_offset 16
 1193 0178 5D       		popq	%rbp
 1194              		.cfi_def_cfa_offset 8
 1195 0179 E9000000 		jmp	_ZNSt8ios_baseD2Ev@PLT
 1195      00
 1196              		.cfi_endproc
 1197              	.LFE1783:
 1199              		.section	.text._ZN8UnitTest15MemoryOutStreamD0Ev,"axG",@progbits,_ZN8UnitTest15MemoryOutStreamD0Ev
 1200              		.align 2
 1201              		.p2align 4
 1202              		.weak	_ZN8UnitTest15MemoryOutStreamD0Ev
 1204              	_ZN8UnitTest15MemoryOutStreamD0Ev:
 1205              	.LFB1777:
 1206              		.cfi_startproc
 1207              		.cfi_personality 0x9b,DW.ref.__gxx_personality_v0
 1208              		.cfi_lsda 0x1b,.LLSDA1777
 1209 0000 F30F1EFA 		endbr64
 1210 0004 4154     		pushq	%r12
 1211              		.cfi_def_cfa_offset 16
 1212              		.cfi_offset 12, -16
 1213 0006 488D0500 		leaq	24+_ZTVN8UnitTest15MemoryOutStreamE(%rip), %rax
 1213      000000
 1214 000d 55       		pushq	%rbp
 1215              		.cfi_def_cfa_offset 24
 1216              		.cfi_offset 6, -24
 1217 000e 4889FD   		movq	%rdi, %rbp
 1218 0011 4883EC08 		subq	$8, %rsp
 1219              		.cfi_def_cfa_offset 32
 1220 0015 488907   		movq	%rax, (%rdi)
 1221 0018 4883C028 		addq	$40, %rax
 1222 001c 48898790 		movq	%rax, 144(%rdi)
 1222      000000
 1223 0023 488B7F70 		movq	112(%rdi), %rdi
 1224 0027 488D8580 		leaq	128(%rbp), %rax
 1224      000000
 1225 002e 4839C7   		cmpq	%rax, %rdi
 1226 0031 7405     		je	.L111
 1227 0033 E8000000 		call	_ZdlPv@PLT
 1227      00
 1228              	.L111:
 1229 0038 488D0500 		leaq	64+_ZTCN8UnitTest15MemoryOutStreamE0_NSt7__cxx1119basic_ostringstreamIcSt11char_traitsIcESaIc
 1229      000000
 1230 003f 488D1500 		leaq	24+_ZTCN8UnitTest15MemoryOutStreamE0_NSt7__cxx1119basic_ostringstreamIcSt11char_traitsIcESaIc
 1230      000000
 1231 0046 488B7D50 		movq	80(%rbp), %rdi
 1232 004a 48898590 		movq	%rax, 144(%rbp)
 1232      000000
 1233 0051 488D0500 		leaq	16+_ZTVNSt7__cxx1115basic_stringbufIcSt11char_traitsIcESaIcEEE(%rip), %rax
 1233      000000
 1234 0058 66480F6E 		movq	%rdx, %xmm0
 1234      C2
 1235 005d 4C8DA590 		leaq	144(%rbp), %r12
 1235      000000
 1236 0064 66480F6E 		movq	%rax, %xmm1
 1236      C8
 1237 0069 488D4560 		leaq	96(%rbp), %rax
 1238 006d 660F6CC1 		punpcklqdq	%xmm1, %xmm0
 1239 0071 0F114500 		movups	%xmm0, 0(%rbp)
 1240 0075 4839C7   		cmpq	%rax, %rdi
 1241 0078 7405     		je	.L112
 1242 007a E8000000 		call	_ZdlPv@PLT
 1242      00
 1243              	.L112:
 1244 007f 488D0500 		leaq	16+_ZTVSt15basic_streambufIcSt11char_traitsIcEE(%rip), %rax
 1244      000000
 1245 0086 488D7D40 		leaq	64(%rbp), %rdi
 1246 008a 48894508 		movq	%rax, 8(%rbp)
 1247 008e E8000000 		call	_ZNSt6localeD1Ev@PLT
 1247      00
 1248 0093 488D0500 		leaq	24+_ZTCN8UnitTest15MemoryOutStreamE0_So(%rip), %rax
 1248      000000
 1249 009a 4C89E7   		movq	%r12, %rdi
 1250 009d 48894500 		movq	%rax, 0(%rbp)
 1251 00a1 488D0500 		leaq	16+_ZTVSt9basic_iosIcSt11char_traitsIcEE(%rip), %rax
 1251      000000
 1252 00a8 48898590 		movq	%rax, 144(%rbp)
 1252      000000
 1253              	.LEHB14:
 1254 00af E8000000 		call	_ZNSt8ios_baseD2Ev@PLT
 1254      00
 1255              	.LEHE14:
 1256 00b4 4883C408 		addq	$8, %rsp
 1257              		.cfi_remember_state
 1258              		.cfi_def_cfa_offset 24
 1259 00b8 4889EF   		movq	%rbp, %rdi
 1260 00bb 5D       		popq	%rbp
 1261              		.cfi_def_cfa_offset 16
 1262 00bc 415C     		popq	%r12
 1263              		.cfi_def_cfa_offset 8
 1264 00be E9000000 		jmp	_ZdlPv@PLT
 1264      00
 1265              	.L114:
 1266              		.cfi_restore_state
 1267 00c3 F30F1EFA 		endbr64
 1268 00c7 4989C4   		movq	%rax, %r12
 1269              	.L113:
 1270 00ca 4889EF   		movq	%rbp, %rdi
 1271 00cd E8000000 		call	_ZdlPv@PLT
 1271      00
 1272 00d2 4C89E7   		movq	%r12, %rdi
 1273              	.LEHB15:
 1274 00d5 E8000000 		call	_Unwind_Resume@PLT
 1274      00
 1275              	.LEHE15:
 1276              		.cfi_endproc
 1277              	.LFE1777:
 1278              		.section	.gcc_except_table
 1279              	.LLSDA1777:
 1280 0072 FF       		.byte	0xff
 1281 0073 FF       		.byte	0xff
 1282 0074 01       		.byte	0x1
 1283 0075 0B       		.uleb128 .LLSDACSE1777-.LLSDACSB1777
 1284              	.LLSDACSB1777:
 1285 0076 AF01     		.uleb128 .LEHB14-.LFB1777
 1286 0078 05       		.uleb128 .LEHE14-.LEHB14
 1287 0079 C301     		.uleb128 .L114-.LFB1777
 1288 007b 00       		.uleb128 0
 1289 007c D501     		.uleb128 .LEHB15-.LFB1777
 1290 007e 05       		.uleb128 .LEHE15-.LEHB15
 1291 007f 00       		.uleb128 0
 1292 0080 00       		.uleb128 0
 1293              	.LLSDACSE1777:
 1294              		.section	.text._ZN8UnitTest15MemoryOutStreamD0Ev,"axG",@progbits,_ZN8UnitTest15MemoryOutStreamD0Ev
 1296 00da 660F1F44 		.p2align 4
 1296      0000
 1297              		.weak	_ZTv0_n24_N8UnitTest15MemoryOutStreamD0Ev
 1299              	_ZTv0_n24_N8UnitTest15MemoryOutStreamD0Ev:
 1300              	.LFB1782:
 1301              		.cfi_startproc
 1302              		.cfi_personality 0x9b,DW.ref.__gxx_personality_v0
 1303              		.cfi_lsda 0x1b,.LLSDA1782
 1304 00e0 F30F1EFA 		endbr64
 1305 00e4 4154     		pushq	%r12
 1306              		.cfi_def_cfa_offset 16
 1307              		.cfi_offset 12, -16
 1308 00e6 55       		pushq	%rbp
 1309              		.cfi_def_cfa_offset 24
 1310              		.cfi_offset 6, -24
 1311 00e7 4889FD   		movq	%rdi, %rbp
 1312 00ea 4883EC08 		subq	$8, %rsp
 1313              		.cfi_def_cfa_offset 32
 1314 00ee 488B07   		movq	(%rdi), %rax
 1315 00f1 480368E8 		addq	-24(%rax), %rbp
 1316 00f5 488D0500 		leaq	24+_ZTVN8UnitTest15MemoryOutStreamE(%rip), %rax
 1316      000000
 1317 00fc 48894500 		movq	%rax, 0(%rbp)
 1318 0100 488B7D70 		movq	112(%rbp), %rdi
 1319 0104 4883C028 		addq	$40, %rax
 1320 0108 48898590 		movq	%rax, 144(%rbp)
 1320      000000
 1321 010f 488D8580 		leaq	128(%rbp), %rax
 1321      000000
 1322 0116 4839C7   		cmpq	%rax, %rdi
 1323 0119 7405     		je	.L117
 1324 011b E8000000 		call	_ZdlPv@PLT
 1324      00
 1325              	.L117:
 1326 0120 488D0500 		leaq	64+_ZTCN8UnitTest15MemoryOutStreamE0_NSt7__cxx1119basic_ostringstreamIcSt11char_traitsIcESaIc
 1326      000000
 1327 0127 488D1500 		leaq	24+_ZTCN8UnitTest15MemoryOutStreamE0_NSt7__cxx1119basic_ostringstreamIcSt11char_traitsIcESaIc
 1327      000000
 1328 012e 488B7D50 		movq	80(%rbp), %rdi
 1329 0132 48898590 		movq	%rax, 144(%rbp)
 1329      000000
 1330 0139 488D0500 		leaq	16+_ZTVNSt7__cxx1115basic_stringbufIcSt11char_traitsIcESaIcEEE(%rip), %rax
 1330      000000
 1331 0140 66480F6E 		movq	%rdx, %xmm0
 1331      C2
 1332 0145 4C8DA590 		leaq	144(%rbp), %r12
 1332      000000
 1333 014c 66480F6E 		movq	%rax, %xmm1
 1333      C8
 1334 0151 488D4560 		leaq	96(%rbp), %rax
 1335 0155 660F6CC1 		punpcklqdq	%xmm1, %xmm0
 1336 0159 0F114500 		movups	%xmm0, 0(%rbp)
 1337 015d 4839C7   		cmpq	%rax, %rdi
 1338 0160 7405     		je	.L118
 1339 0162 E8000000 		call	_ZdlPv@PLT
 1339      00
 1340              	.L118:
 1341 0167 488D0500 		leaq	16+_ZTVSt15basic_streambufIcSt11char_traitsIcEE(%rip), %rax
 1341      000000
 1342 016e 488D7D40 		leaq	64(%rbp), %rdi
 1343 0172 48894508 		movq	%rax, 8(%rbp)
 1344 0176 E8000000 		call	_ZNSt6localeD1Ev@PLT
 1344      00
 1345 017b 488D0500 		leaq	24+_ZTCN8UnitTest15MemoryOutStreamE0_So(%rip), %rax
 1345      000000
 1346 0182 4C89E7   		movq	%r12, %rdi
 1347 0185 48894500 		movq	%rax, 0(%rbp)
 1348 0189 488D0500 		leaq	16+_ZTVSt9basic_iosIcSt11char_traitsIcEE(%rip), %rax
 1348      000000
 1349 0190 48898590 		movq	%rax, 144(%rbp)
 1349      000000
 1350              	.LEHB16:
 1351 0197 E8000000 		call	_ZNSt8ios_baseD2Ev@PLT
 1351      00
 1352              	.LEHE16:
 1353 019c 4883C408 		addq	$8, %rsp
 1354              		.cfi_remember_state
 1355              		.cfi_def_cfa_offset 24
 1356 01a0 4889EF   		movq	%rbp, %rdi
 1357 01a3 5D       		popq	%rbp
 1358              		.cfi_def_cfa_offset 16
 1359 01a4 415C     		popq	%r12
 1360              		.cfi_def_cfa_offset 8
 1361 01a6 E9000000 		jmp	_ZdlPv@PLT
 1361      00
 1362              	.L120:
 1363              		.cfi_restore_state
 1364 01ab F30F1EFA 		endbr64
 1365 01af 4989C4   		movq	%rax, %r12
 1366              	.L119:
 1367 01b2 4889EF   		movq	%rbp, %rdi
 1368 01b5 E8000000 		call	_ZdlPv@PLT
 1368      00
 1369 01ba 4C89E7   		movq	%r12, %rdi
 1370              	.LEHB17:
 1371 01bd E8000000 		call	_Unwind_Resume@PLT
 1371      00
 1372              	.LEHE17:
 1373              		.cfi_endproc
 1374              	.LFE1782:
 1375              		.section	.gcc_except_table
 1376              	.LLSDA1782:
 1377 0081 FF       		.byte	0xff
 1378 0082 FF       		.byte	0xff
 1379 0083 01       		.byte	0x1
 1380 0084 0B       		.uleb128 .LLSDACSE1782-.LLSDACSB1782
 1381              	.LLSDACSB1782:
 1382 0085 B701     		.uleb128 .LEHB16-.LFB1782
 1383 0087 05       		.uleb128 .LEHE16-.LEHB16
 1384 0088 CB01     		.uleb128 .L120-.LFB1782
 1385 008a 00       		.uleb128 0
 1386 008b DD01     		.uleb128 .LEHB17-.LFB1782
 1387 008d 05       		.uleb128 .LEHE17-.LEHB17
 1388 008e 00       		.uleb128 0
 1389 008f 00       		.uleb128 0
 1390              	.LLSDACSE1782:
 1391              		.section	.text._ZN8UnitTest15MemoryOutStreamD0Ev,"axG",@progbits,_ZN8UnitTest15MemoryOutStreamD0Ev
 1393              		.section	.text._ZN8UnitTest15MemoryOutStreamC1Ev,"axG",@progbits,_ZN8UnitTest15MemoryOutStreamC1Ev
 1394              		.align 2
 1395              		.p2align 4
 1396              		.weak	_ZN8UnitTest15MemoryOutStreamC1Ev
 1398              	_ZN8UnitTest15MemoryOutStreamC1Ev:
 1399              	.LFB1156:
 1400              		.cfi_startproc
 1401              		.cfi_personality 0x9b,DW.ref.__gxx_personality_v0
 1402              		.cfi_lsda 0x1b,.LLSDA1156
 1403 0000 F30F1EFA 		endbr64
 1404 0004 4157     		pushq	%r15
 1405              		.cfi_def_cfa_offset 16
 1406              		.cfi_offset 15, -16
 1407 0006 488D0500 		leaq	24+_ZTCN8UnitTest15MemoryOutStreamE0_NSt7__cxx1119basic_ostringstreamIcSt11char_traitsIcESaIc
 1407      000000
 1408 000d 4156     		pushq	%r14
 1409              		.cfi_def_cfa_offset 24
 1410              		.cfi_offset 14, -24
 1411 000f 66480F6E 		movq	%rax, %xmm1
 1411      C8
 1412 0014 4155     		pushq	%r13
 1413              		.cfi_def_cfa_offset 32
 1414              		.cfi_offset 13, -32
 1415 0016 4154     		pushq	%r12
 1416              		.cfi_def_cfa_offset 40
 1417              		.cfi_offset 12, -40
 1418 0018 4C8D2500 		leaq	24+_ZTCN8UnitTest15MemoryOutStreamE0_So(%rip), %r12
 1418      000000
 1419 001f 55       		pushq	%rbp
 1420              		.cfi_def_cfa_offset 48
 1421              		.cfi_offset 6, -48
 1422 0020 488DAF90 		leaq	144(%rdi), %rbp
 1422      000000
 1423 0027 53       		pushq	%rbx
 1424              		.cfi_def_cfa_offset 56
 1425              		.cfi_offset 3, -56
 1426 0028 4889FB   		movq	%rdi, %rbx
 1427 002b 4889EF   		movq	%rbp, %rdi
 1428 002e 4883EC18 		subq	$24, %rsp
 1429              		.cfi_def_cfa_offset 80
 1430 0032 0F160D00 		movhps	.LC7(%rip), %xmm1
 1430      000000
 1431 0039 0F290C24 		movaps	%xmm1, (%rsp)
 1432 003d E8000000 		call	_ZNSt8ios_baseC2Ev@PLT
 1432      00
 1433 0042 31C0     		xorl	%eax, %eax
 1434 0044 4C8923   		movq	%r12, (%rbx)
 1435 0047 660FEFC0 		pxor	%xmm0, %xmm0
 1436 004b 66898370 		movw	%ax, 368(%rbx)
 1436      010000
 1437 0052 498D4424 		leaq	40(%r12), %rax
 1437      28
 1438 0057 31F6     		xorl	%esi, %esi
 1439 0059 4889EF   		movq	%rbp, %rdi
 1440 005c 48C78368 		movq	$0, 360(%rbx)
 1440      01000000 
 1440      000000
 1441 0067 48898390 		movq	%rax, 144(%rbx)
 1441      000000
 1442 006e 0F118378 		movups	%xmm0, 376(%rbx)
 1442      010000
 1443 0075 0F118388 		movups	%xmm0, 392(%rbx)
 1443      010000
 1444              	.LEHB18:
 1445 007c E8000000 		call	_ZNSt9basic_iosIcSt11char_traitsIcEE4initEPSt15basic_streambufIcS1_E@PLT
 1445      00
 1446              	.LEHE18:
 1447 0081 488D0500 		leaq	64+_ZTCN8UnitTest15MemoryOutStreamE0_NSt7__cxx1119basic_ostringstreamIcSt11char_traitsIcESaIc
 1447      000000
 1448 0088 660F6F0C 		movdqa	(%rsp), %xmm1
 1448      24
 1449 008d 660FEFC0 		pxor	%xmm0, %xmm0
 1450 0091 4C8D6B40 		leaq	64(%rbx), %r13
 1451 0095 488D7308 		leaq	8(%rbx), %rsi
 1452 0099 4C89EF   		movq	%r13, %rdi
 1453 009c 0F114310 		movups	%xmm0, 16(%rbx)
 1454 00a0 4C8D7360 		leaq	96(%rbx), %r14
 1455 00a4 48898390 		movq	%rax, 144(%rbx)
 1455      000000
 1456 00ab 4C8D3D00 		leaq	16+_ZTVNSt7__cxx1115basic_stringbufIcSt11char_traitsIcESaIcEEE(%rip), %r15
 1456      000000
 1457 00b2 0F110B   		movups	%xmm1, (%rbx)
 1458 00b5 0F114320 		movups	%xmm0, 32(%rbx)
 1459 00b9 0F114330 		movups	%xmm0, 48(%rbx)
 1460 00bd 48893424 		movq	%rsi, (%rsp)
 1461 00c1 E8000000 		call	_ZNSt6localeC1Ev@PLT
 1461      00
 1462 00c6 488B03   		movq	(%rbx), %rax
 1463 00c9 C6436000 		movb	$0, 96(%rbx)
 1464 00cd 48C74358 		movq	$0, 88(%rbx)
 1464      00000000 
 1465 00d5 488B3424 		movq	(%rsp), %rsi
 1466 00d9 488B78E8 		movq	-24(%rax), %rdi
 1467 00dd 4C897B08 		movq	%r15, 8(%rbx)
 1468 00e1 C7434810 		movl	$16, 72(%rbx)
 1468      000000
 1469 00e8 4C897350 		movq	%r14, 80(%rbx)
 1470 00ec 4801DF   		addq	%rbx, %rdi
 1471              	.LEHB19:
 1472 00ef E8000000 		call	_ZNSt9basic_iosIcSt11char_traitsIcEE4initEPSt15basic_streambufIcS1_E@PLT
 1472      00
 1473              	.LEHE19:
 1474 00f4 488D0500 		leaq	24+_ZTVN8UnitTest15MemoryOutStreamE(%rip), %rax
 1474      000000
 1475 00fb 48C74378 		movq	$0, 120(%rbx)
 1475      00000000 
 1476 0103 488903   		movq	%rax, (%rbx)
 1477 0106 4883C028 		addq	$40, %rax
 1478 010a 48898390 		movq	%rax, 144(%rbx)
 1478      000000
 1479 0111 488D8380 		leaq	128(%rbx), %rax
 1479      000000
 1480 0118 48894370 		movq	%rax, 112(%rbx)
 1481 011c C6838000 		movb	$0, 128(%rbx)
 1481      000000
 1482 0123 4883C418 		addq	$24, %rsp
 1483              		.cfi_remember_state
 1484              		.cfi_def_cfa_offset 56
 1485 0127 5B       		popq	%rbx
 1486              		.cfi_def_cfa_offset 48
 1487 0128 5D       		popq	%rbp
 1488              		.cfi_def_cfa_offset 40
 1489 0129 415C     		popq	%r12
 1490              		.cfi_def_cfa_offset 32
 1491 012b 415D     		popq	%r13
 1492              		.cfi_def_cfa_offset 24
 1493 012d 415E     		popq	%r14
 1494              		.cfi_def_cfa_offset 16
 1495 012f 415F     		popq	%r15
 1496              		.cfi_def_cfa_offset 8
 1497 0131 C3       		ret
 1498              	.L127:
 1499              		.cfi_restore_state
 1500 0132 F30F1EFA 		endbr64
 1501 0136 4989C4   		movq	%rax, %r12
 1502 0139 EB34     		jmp	.L126
 1503              	.L128:
 1504 013b F30F1EFA 		endbr64
 1505 013f 48890424 		movq	%rax, (%rsp)
 1506              	.L124:
 1507 0143 488B7B50 		movq	80(%rbx), %rdi
 1508 0147 4C897B08 		movq	%r15, 8(%rbx)
 1509 014b 4939FE   		cmpq	%rdi, %r14
 1510 014e 7405     		je	.L125
 1511 0150 E8000000 		call	_ZdlPv@PLT
 1511      00
 1512              	.L125:
 1513 0155 488D0500 		leaq	16+_ZTVSt15basic_streambufIcSt11char_traitsIcEE(%rip), %rax
 1513      000000
 1514 015c 4C89EF   		movq	%r13, %rdi
 1515 015f 48894308 		movq	%rax, 8(%rbx)
 1516 0163 E8000000 		call	_ZNSt6localeD1Ev@PLT
 1516      00
 1517 0168 4C8923   		movq	%r12, (%rbx)
 1518 016b 4C8B2424 		movq	(%rsp), %r12
 1519              	.L126:
 1520 016f 488D0500 		leaq	16+_ZTVSt9basic_iosIcSt11char_traitsIcEE(%rip), %rax
 1520      000000
 1521 0176 4889EF   		movq	%rbp, %rdi
 1522 0179 48898390 		movq	%rax, 144(%rbx)
 1522      000000
 1523 0180 E8000000 		call	_ZNSt8ios_baseD2Ev@PLT
 1523      00
 1524 0185 4C89E7   		movq	%r12, %rdi
 1525              	.LEHB20:
 1526 0188 E8000000 		call	_Unwind_Resume@PLT
 1526      00
 1527              	.LEHE20:
 1528              		.cfi_endproc
 1529              	.LFE1156:
 1530              		.section	.gcc_except_table
 1531              	.LLSDA1156:
 1532 0090 FF       		.byte	0xff
 1533 0091 FF       		.byte	0xff
 1534 0092 01       		.byte	0x1
 1535 0093 10       		.uleb128 .LLSDACSE1156-.LLSDACSB1156
 1536              	.LLSDACSB1156:
 1537 0094 7C       		.uleb128 .LEHB18-.LFB1156
 1538 0095 05       		.uleb128 .LEHE18-.LEHB18
 1539 0096 B202     		.uleb128 .L127-.LFB1156
 1540 0098 00       		.uleb128 0
 1541 0099 EF01     		.uleb128 .LEHB19-.LFB1156
 1542 009b 05       		.uleb128 .LEHE19-.LEHB19
 1543 009c BB02     		.uleb128 .L128-.LFB1156
 1544 009e 00       		.uleb128 0
 1545 009f 8803     		.uleb128 .LEHB20-.LFB1156
 1546 00a1 05       		.uleb128 .LEHE20-.LEHB20
 1547 00a2 00       		.uleb128 0
 1548 00a3 00       		.uleb128 0
 1549              	.LLSDACSE1156:
 1550              		.section	.text._ZN8UnitTest15MemoryOutStreamC1Ev,"axG",@progbits,_ZN8UnitTest15MemoryOutStreamC1Ev
 1552              		.section	.rodata.str1.1,"aMS",@progbits,1
 1553              	.LC8:
 1554 0000 556E6861 		.string	"Unhandled system exception"
 1554      6E646C65 
 1554      64207379 
 1554      7374656D 
 1554      20657863 
 1555              		.section	.rodata.str1.8,"aMS",@progbits,1
 1556              		.align 8
 1557              	.LC10:
 1558 0000 76656374 		.string	"vector::_M_range_check: __n (which is %zu) >= this->size() (which is %zu)"
 1558      6F723A3A 
 1558      5F4D5F72 
 1558      616E6765 
 1558      5F636865 
 1559              		.section	.rodata.str1.1
 1560              	.LC13:
 1561 001b 45787065 		.string	"Expected "
 1561      63746564 
 1561      2000
 1562              	.LC15:
 1563 0025 202B2F2D 		.string	" +/- "
 1563      2000
 1564              	.LC17:
 1565 002b 20627574 		.string	" but was "
 1565      20776173 
 1565      2000
 1566              		.section	.rodata.str1.8
 1567 004a 00000000 		.align 8
 1567      0000
 1568              	.LC18:
 1569 0050 556E6861 		.string	"Unhandled exception in CHECK_CLOSE(elapsed, result.timeElapsed)"
 1569      6E646C65 
 1569      64206578 
 1569      63657074 
 1569      696F6E20 
 1570              		.section	.rodata.str1.1
 1571              	.LC19:
 1572 0035 556E6861 		.string	"Unhandled exception: "
 1572      6E646C65 
 1572      64206578 
 1572      63657074 
 1572      696F6E3A 
 1573              	.LC20:
 1574 004b 556E6861 		.string	"Unhandled exception: Crash!"
 1574      6E646C65 
 1574      64206578 
 1574      63657074 
 1574      696F6E3A 
 1575              		.section	.text.unlikely
 1576              	.LCOLDB21:
 1577              		.text
 1578              	.LHOTB21:
 1579 047b 0F1F4400 		.p2align 4
 1579      00
 1581              	_ZN8UnitTest11ExecuteTestINS_12_GLOBAL__N_162DeferredTestReporterFixtureReportTestEndCapturesTestTi
 1582              	.LFB1608:
 1583              		.cfi_startproc
 1584              		.cfi_personality 0x9b,DW.ref.__gxx_personality_v0
 1585              		.cfi_lsda 0x1b,.LLSDA1608
 1586 0480 4155     		pushq	%r13
 1587              		.cfi_def_cfa_offset 16
 1588              		.cfi_offset 13, -16
 1589 0482 4154     		pushq	%r12
 1590              		.cfi_def_cfa_offset 24
 1591              		.cfi_offset 12, -24
 1592 0484 55       		pushq	%rbp
 1593              		.cfi_def_cfa_offset 32
 1594              		.cfi_offset 6, -32
 1595 0485 53       		pushq	%rbx
 1596              		.cfi_def_cfa_offset 40
 1597              		.cfi_offset 3, -40
 1598 0486 4889F3   		movq	%rsi, %rbx
 1599 0489 4881EC48 		subq	$2120, %rsp
 1599      080000
 1600              		.cfi_def_cfa_offset 2160
 1601 0490 48897C24 		movq	%rdi, 16(%rsp)
 1601      10
 1602 0495 48897424 		movq	%rsi, 24(%rsp)
 1602      18
 1603 049a 64488B04 		movq	%fs:40, %rax
 1603      25280000 
 1603      00
 1604 04a3 48898424 		movq	%rax, 2104(%rsp)
 1604      38080000 
 1605 04ab 31C0     		xorl	%eax, %eax
 1606              	.LEHB21:
 1607 04ad E8000000 		call	_ZN8UnitTest11CurrentTest7DetailsEv@PLT
 1607      00
 1608              	.LEHE21:
 1609 04b2 488DBC24 		leaq	976(%rsp), %rdi
 1609      D0030000 
 1610 04ba 488918   		movq	%rbx, (%rax)
 1611              	.LEHB22:
 1612 04bd E8000000 		call	_ZN8UnitTest16SignalTranslatorC1Ev@PLT
 1612      00
 1613              	.LEHE22:
 1614 04c2 488B3D00 		movq	_ZN8UnitTest16SignalTranslator12s_jumpTargetE(%rip), %rdi
 1614      000000
 1615 04c9 BE010000 		movl	$1, %esi
 1615      00
 1616 04ce E8000000 		call	__sigsetjmp@PLT
 1616      00
 1617 04d3 F30F1EFA 		endbr64
 1618 04d7 85C0     		testl	%eax, %eax
 1619 04d9 0F850000 		jne	.L182
 1619      0000
 1620 04df 488B5C24 		movq	16(%rsp), %rbx
 1620      10
 1621 04e4 488DAB88 		leaq	136(%rbx), %rbp
 1621      000000
 1622 04eb 4889DF   		movq	%rbx, %rdi
 1623 04ee 4889EE   		movq	%rbp, %rsi
 1624              	.LEHB23:
 1625 04f1 E8000000 		call	_ZN8UnitTest20DeferredTestReporter15ReportTestStartERKNS_11TestDetailsE@PLT
 1625      00
 1626 04f6 F30F1005 		movss	.LC9(%rip), %xmm0
 1626      00000000 
 1627 04fe 4889EE   		movq	%rbp, %rsi
 1628 0501 4889DF   		movq	%rbx, %rdi
 1629 0504 E8000000 		call	_ZN8UnitTest20DeferredTestReporter16ReportTestFinishERKNS_11TestDetailsEf@PLT
 1629      00
 1630 0509 4889DF   		movq	%rbx, %rdi
 1631 050c E8000000 		call	_ZN8UnitTest20DeferredTestReporter10GetResultsEv@PLT
 1631      00
 1632              	.LEHE23:
 1633 0511 4C8B20   		movq	(%rax), %r12
 1634 0514 4C396008 		cmpq	%r12, 8(%rax)
 1635 0518 0F844403 		je	.L187
 1635      0000
 1636              	.LEHB24:
 1637 051e E8000000 		call	_ZN8UnitTest11CurrentTest7DetailsEv@PLT
 1637      00
 1638 0523 488B30   		movq	(%rax), %rsi
 1639 0526 488D7C24 		leaq	112(%rsp), %rdi
 1639      70
 1640 052b BA440000 		movl	$68, %edx
 1640      00
 1641 0530 E8000000 		call	_ZN8UnitTest11TestDetailsC1ERKS0_i@PLT
 1641      00
 1642 0535 E8000000 		call	_ZN8UnitTest11CurrentTest7ResultsEv@PLT
 1642      00
 1643              	.LEHE24:
 1644 053a F3410F10 		movss	120(%r12), %xmm0
 1644      442478
 1645 0541 488D1D00 		leaq	24+_ZTCN8UnitTest15MemoryOutStreamE0_NSt7__cxx1119basic_ostringstreamIcSt11char_traitsIcESaIc
 1645      000000
 1646 0548 488D1500 		leaq	16+_ZTVSt15basic_streambufIcSt11char_traitsIcEE(%rip), %rdx
 1646      000000
 1647 054f 4C8B28   		movq	(%rax), %r13
 1648 0552 0F2F0500 		comiss	.LC11(%rip), %xmm0
 1648      000000
 1649 0559 66480F6E 		movq	%rbx, %xmm2
 1649      D3
 1650 055e 66480F6E 		movq	%rdx, %xmm3
 1650      DA
 1651 0563 660F6CD3 		punpcklqdq	%xmm3, %xmm2
 1652 0567 0F291424 		movaps	%xmm2, (%rsp)
 1653 056b 0F83DF02 		jnb	.L188
 1653      0000
 1654              	.L136:
 1655 0571 488DAC24 		leaq	704(%rsp), %rbp
 1655      C0020000 
 1656 0579 4889EF   		movq	%rbp, %rdi
 1657 057c E8000000 		call	_ZNSt8ios_baseC2Ev@PLT
 1657      00
 1658 0581 31C0     		xorl	%eax, %eax
 1659 0583 660FEFC0 		pxor	%xmm0, %xmm0
 1660 0587 31F6     		xorl	%esi, %esi
 1661 0589 66898424 		movw	%ax, 928(%rsp)
 1661      A0030000 
 1662 0591 488D0500 		leaq	24+_ZTCN8UnitTest15MemoryOutStreamE0_So(%rip), %rax
 1662      000000
 1663 0598 4889EF   		movq	%rbp, %rdi
 1664 059b 48898424 		movq	%rax, 560(%rsp)
 1664      30020000 
 1665 05a3 4883C028 		addq	$40, %rax
 1666 05a7 48C78424 		movq	$0, 920(%rsp)
 1666      98030000 
 1666      00000000 
 1667 05b3 48898424 		movq	%rax, 704(%rsp)
 1667      C0020000 
 1668 05bb 0F118424 		movups	%xmm0, 936(%rsp)
 1668      A8030000 
 1669 05c3 0F118424 		movups	%xmm0, 952(%rsp)
 1669      B8030000 
 1670              	.LEHB25:
 1671 05cb E8000000 		call	_ZNSt9basic_iosIcSt11char_traitsIcEE4initEPSt15basic_streambufIcS1_E@PLT
 1671      00
 1672              	.LEHE25:
 1673 05d0 660F6F24 		movdqa	(%rsp), %xmm4
 1673      24
 1674 05d5 660FEFC0 		pxor	%xmm0, %xmm0
 1675 05d9 488D0500 		leaq	64+_ZTCN8UnitTest15MemoryOutStreamE0_NSt7__cxx1119basic_ostringstreamIcSt11char_traitsIcESaIc
 1675      000000
 1676 05e0 488DBC24 		leaq	624(%rsp), %rdi
 1676      70020000 
 1677 05e8 48898424 		movq	%rax, 704(%rsp)
 1677      C0020000 
 1678 05f0 488DAC24 		leaq	560(%rsp), %rbp
 1678      30020000 
 1679 05f8 0F29A424 		movaps	%xmm4, 560(%rsp)
 1679      30020000 
 1680 0600 0F298424 		movaps	%xmm0, 576(%rsp)
 1680      40020000 
 1681 0608 0F298424 		movaps	%xmm0, 592(%rsp)
 1681      50020000 
 1682 0610 0F298424 		movaps	%xmm0, 608(%rsp)
 1682      60020000 
 1683 0618 E8000000 		call	_ZNSt6localeC1Ev@PLT
 1683      00
 1684 061d 488D0500 		leaq	16+_ZTVNSt7__cxx1115basic_stringbufIcSt11char_traitsIcESaIcEEE(%rip), %rax
 1684      000000
 1685 0624 48C78424 		movq	$0, 648(%rsp)
 1685      88020000 
 1685      00000000 
 1686 0630 488DB424 		leaq	568(%rsp), %rsi
 1686      38020000 
 1687 0638 48898424 		movq	%rax, 568(%rsp)
 1687      38020000 
 1688 0640 488D8424 		leaq	656(%rsp), %rax
 1688      90020000 
 1689 0648 48898424 		movq	%rax, 640(%rsp)
 1689      80020000 
 1690 0650 488B8424 		movq	560(%rsp), %rax
 1690      30020000 
 1691 0658 C6842490 		movb	$0, 656(%rsp)
 1691      02000000 
 1692 0660 C7842478 		movl	$16, 632(%rsp)
 1692      02000010 
 1692      000000
 1693 066b 488B78E8 		movq	-24(%rax), %rdi
 1694 066f 4801EF   		addq	%rbp, %rdi
 1695              	.LEHB26:
 1696 0672 E8000000 		call	_ZNSt9basic_iosIcSt11char_traitsIcEE4initEPSt15basic_streambufIcS1_E@PLT
 1696      00
 1697              	.LEHE26:
 1698 0677 488D0500 		leaq	24+_ZTVN8UnitTest15MemoryOutStreamE(%rip), %rax
 1698      000000
 1699 067e 488DBC24 		leaq	560(%rsp), %rdi
 1699      30020000 
 1700 0686 BA090000 		movl	$9, %edx
 1700      00
 1701 068b 48C78424 		movq	$0, 680(%rsp)
 1701      A8020000 
 1701      00000000 
 1702 0697 48898424 		movq	%rax, 560(%rsp)
 1702      30020000 
 1703 069f 4883C028 		addq	$40, %rax
 1704 06a3 488D3500 		leaq	.LC13(%rip), %rsi
 1704      000000
 1705 06aa 48898424 		movq	%rax, 704(%rsp)
 1705      C0020000 
 1706 06b2 488D8424 		leaq	688(%rsp), %rax
 1706      B0020000 
 1707 06ba 48898424 		movq	%rax, 672(%rsp)
 1707      A0020000 
 1708 06c2 C68424B0 		movb	$0, 688(%rsp)
 1708      02000000 
 1709              	.LEHB27:
 1710 06ca E8000000 		call	_ZSt16__ostream_insertIcSt11char_traitsIcEERSt13basic_ostreamIT_T0_ES6_PKS3_l@PLT
 1710      00
 1711 06cf F20F1005 		movsd	.LC14(%rip), %xmm0
 1711      00000000 
 1712 06d7 488DBC24 		leaq	560(%rsp), %rdi
 1712      30020000 
 1713 06df E8000000 		call	_ZNSo9_M_insertIdEERSoT_@PLT
 1713      00
 1714 06e4 BA050000 		movl	$5, %edx
 1714      00
 1715 06e9 488D3500 		leaq	.LC15(%rip), %rsi
 1715      000000
 1716 06f0 4889C7   		movq	%rax, %rdi
 1717 06f3 4889C5   		movq	%rax, %rbp
 1718 06f6 E8000000 		call	_ZSt16__ostream_insertIcSt11char_traitsIcEERSt13basic_ostreamIT_T0_ES6_PKS3_l@PLT
 1718      00
 1719 06fb F20F1005 		movsd	.LC16(%rip), %xmm0
 1719      00000000 
 1720 0703 4889EF   		movq	%rbp, %rdi
 1721 0706 E8000000 		call	_ZNSo9_M_insertIdEERSoT_@PLT
 1721      00
 1722 070b BA090000 		movl	$9, %edx
 1722      00
 1723 0710 488D3500 		leaq	.LC17(%rip), %rsi
 1723      000000
 1724 0717 4889C7   		movq	%rax, %rdi
 1725 071a 4889C5   		movq	%rax, %rbp
 1726 071d E8000000 		call	_ZSt16__ostream_insertIcSt11char_traitsIcEERSt13basic_ostreamIT_T0_ES6_PKS3_l@PLT
 1726      00
 1727 0722 660FEFC0 		pxor	%xmm0, %xmm0
 1728 0726 4889EF   		movq	%rbp, %rdi
 1729 0729 F3410F5A 		cvtss2sd	120(%r12), %xmm0
 1729      442478
 1730 0730 E8000000 		call	_ZNSo9_M_insertIdEERSoT_@PLT
 1730      00
 1731 0735 488DBC24 		leaq	560(%rsp), %rdi
 1731      30020000 
 1732 073d E8000000 		call	_ZNK8UnitTest15MemoryOutStream7GetTextEv@PLT
 1732      00
 1733 0742 4889C2   		movq	%rax, %rdx
 1734 0745 488D7424 		leaq	112(%rsp), %rsi
 1734      70
 1735 074a 4C89EF   		movq	%r13, %rdi
 1736 074d E8000000 		call	_ZN8UnitTest11TestResults13OnTestFailureERKNS_11TestDetailsEPKc@PLT
 1736      00
 1737              	.LEHE27:
 1738 0752 488D0500 		leaq	16+_ZTVNSt7__cxx1115basic_stringbufIcSt11char_traitsIcESaIcEEE(%rip), %rax
 1738      000000
 1739 0759 488BBC24 		movq	672(%rsp), %rdi
 1739      A0020000 
 1740 0761 66480F6E 		movq	%rbx, %xmm0
 1740      C3
 1741 0766 66480F6E 		movq	%rax, %xmm5
 1741      E8
 1742 076b 488D0500 		leaq	24+_ZTVN8UnitTest15MemoryOutStreamE(%rip), %rax
 1742      000000
 1743 0772 48898424 		movq	%rax, 560(%rsp)
 1743      30020000 
 1744 077a 4883C028 		addq	$40, %rax
 1745 077e 660F6CC5 		punpcklqdq	%xmm5, %xmm0
 1746 0782 48898424 		movq	%rax, 704(%rsp)
 1746      C0020000 
 1747 078a 488D8424 		leaq	688(%rsp), %rax
 1747      B0020000 
 1748 0792 4839C7   		cmpq	%rax, %rdi
 1749 0795 7410     		je	.L150
 1750 0797 0F294424 		movaps	%xmm0, 32(%rsp)
 1750      20
 1751 079c E8000000 		call	_ZdlPv@PLT
 1751      00
 1752 07a1 660F6F44 		movdqa	32(%rsp), %xmm0
 1752      2420
 1753              	.L150:
 1754 07a7 488D0500 		leaq	64+_ZTCN8UnitTest15MemoryOutStreamE0_NSt7__cxx1119basic_ostringstreamIcSt11char_traitsIcESaIc
 1754      000000
 1755 07ae 488BBC24 		movq	640(%rsp), %rdi
 1755      80020000 
 1756 07b6 0F298424 		movaps	%xmm0, 560(%rsp)
 1756      30020000 
 1757 07be 48898424 		movq	%rax, 704(%rsp)
 1757      C0020000 
 1758 07c6 488D8424 		leaq	656(%rsp), %rax
 1758      90020000 
 1759 07ce 4839C7   		cmpq	%rax, %rdi
 1760 07d1 7405     		je	.L149
 1761 07d3 E8000000 		call	_ZdlPv@PLT
 1761      00
 1762              	.L149:
 1763 07d8 488D0500 		leaq	16+_ZTVSt15basic_streambufIcSt11char_traitsIcEE(%rip), %rax
 1763      000000
 1764 07df 488DBC24 		leaq	624(%rsp), %rdi
 1764      70020000 
 1765 07e7 48898424 		movq	%rax, 568(%rsp)
 1765      38020000 
 1766 07ef E8000000 		call	_ZNSt6localeD1Ev@PLT
 1766      00
 1767 07f4 488D0500 		leaq	24+_ZTCN8UnitTest15MemoryOutStreamE0_So(%rip), %rax
 1767      000000
 1768 07fb 488DBC24 		leaq	704(%rsp), %rdi
 1768      C0020000 
 1769 0803 48898424 		movq	%rax, 560(%rsp)
 1769      30020000 
 1770 080b 488D0500 		leaq	16+_ZTVSt9basic_iosIcSt11char_traitsIcEE(%rip), %rax
 1770      000000
 1771 0812 48898424 		movq	%rax, 704(%rsp)
 1771      C0020000 
 1772              	.LEHB28:
 1773 081a E8000000 		call	_ZNSt8ios_baseD2Ev@PLT
 1773      00
 1774              	.LEHE28:
 1775              	.L152:
 1776 081f 488DBC24 		leaq	976(%rsp), %rdi
 1776      D0030000 
 1777              	.LEHB29:
 1778 0827 E8000000 		call	_ZN8UnitTest16SignalTranslatorD1Ev@PLT
 1778      00
 1779              	.LEHE29:
 1780              	.L132:
 1781 082c 488B8424 		movq	2104(%rsp), %rax
 1781      38080000 
 1782 0834 64482B04 		subq	%fs:40, %rax
 1782      25280000 
 1782      00
 1783 083d 7535     		jne	.L189
 1784 083f 4881C448 		addq	$2120, %rsp
 1784      080000
 1785              		.cfi_remember_state
 1786              		.cfi_def_cfa_offset 40
 1787 0846 5B       		popq	%rbx
 1788              		.cfi_def_cfa_offset 32
 1789 0847 5D       		popq	%rbp
 1790              		.cfi_def_cfa_offset 24
 1791 0848 415C     		popq	%r12
 1792              		.cfi_def_cfa_offset 16
 1793 084a 415D     		popq	%r13
 1794              		.cfi_def_cfa_offset 8
 1795 084c C3       		ret
 1796 084d 0F1F00   		.p2align 4,,10
 1797              		.p2align 3
 1798              	.L188:
 1799              		.cfi_restore_state
 1800 0850 F30F100D 		movss	.LC12(%rip), %xmm1
 1800      00000000 
 1801 0858 0F2FC8   		comiss	%xmm0, %xmm1
 1802 085b 73C2     		jnb	.L152
 1803 085d E90FFDFF 		jmp	.L136
 1803      FF
 1804              	.L187:
 1805 0862 31D2     		xorl	%edx, %edx
 1806 0864 31F6     		xorl	%esi, %esi
 1807 0866 488D3D00 		leaq	.LC10(%rip), %rdi
 1807      000000
 1808 086d 31C0     		xorl	%eax, %eax
 1809              	.LEHB30:
 1810 086f E8000000 		call	_ZSt24__throw_out_of_range_fmtPKcz@PLT
 1810      00
 1811              	.LEHE30:
 1812              	.L189:
 1813 0874 E8000000 		call	__stack_chk_fail@PLT
 1813      00
 1814              	.L175:
 1815 0879 F30F1EFA 		endbr64
 1816 087d 4889C7   		movq	%rax, %rdi
 1817 0880 E9000000 		jmp	.L146
 1817      00
 1818              	.L168:
 1819 0885 F30F1EFA 		endbr64
 1820 0889 4889C7   		movq	%rax, %rdi
 1821 088c 4889D0   		movq	%rdx, %rax
 1822 088f E9000000 		jmp	.L157
 1822      00
 1823              	.L176:
 1824 0894 F30F1EFA 		endbr64
 1825 0898 4889C3   		movq	%rax, %rbx
 1826 089b E9000000 		jmp	.L153
 1826      00
 1827              	.L180:
 1828 08a0 F30F1EFA 		endbr64
 1829 08a4 E9000000 		jmp	.L181
 1829      00
 1830              	.L178:
 1831 08a9 F30F1EFA 		endbr64
 1832 08ad 4889C3   		movq	%rax, %rbx
 1833 08b0 E9000000 		jmp	.L140
 1833      00
 1834              	.L177:
 1835 08b5 F30F1EFA 		endbr64
 1836 08b9 4889C3   		movq	%rax, %rbx
 1837 08bc E9000000 		jmp	.L144
 1837      00
 1838              		.section	.gcc_except_table
 1839              		.align 4
 1840              	.LLSDA1608:
 1841 00a4 FF       		.byte	0xff
 1842 00a5 9B       		.byte	0x9b
 1843 00a6 51       		.uleb128 .LLSDATT1608-.LLSDATTD1608
 1844              	.LLSDATTD1608:
 1845 00a7 01       		.byte	0x1
 1846 00a8 39       		.uleb128 .LLSDACSE1608-.LLSDACSB1608
 1847              	.LLSDACSB1608:
 1848 00a9 2D       		.uleb128 .LEHB21-.LFB1608
 1849 00aa 05       		.uleb128 .LEHE21-.LEHB21
 1850 00ab 00       		.uleb128 0
 1851 00ac 00       		.uleb128 0
 1852 00ad 3D       		.uleb128 .LEHB22-.LFB1608
 1853 00ae 05       		.uleb128 .LEHE22-.LEHB22
 1854 00af 8508     		.uleb128 .L168-.LFB1608
 1855 00b1 05       		.uleb128 0x5
 1856 00b2 71       		.uleb128 .LEHB23-.LFB1608
 1857 00b3 20       		.uleb128 .LEHE23-.LEHB23
 1858 00b4 A008     		.uleb128 .L180-.LFB1608
 1859 00b6 07       		.uleb128 0x7
 1860 00b7 9E01     		.uleb128 .LEHB24-.LFB1608
 1861 00b9 1C       		.uleb128 .LEHE24-.LEHB24
 1862 00ba F907     		.uleb128 .L175-.LFB1608
 1863 00bc 01       		.uleb128 0x1
 1864 00bd CB02     		.uleb128 .LEHB25-.LFB1608
 1865 00bf 05       		.uleb128 .LEHE25-.LEHB25
 1866 00c0 B508     		.uleb128 .L177-.LFB1608
 1867 00c2 01       		.uleb128 0x1
 1868 00c3 F203     		.uleb128 .LEHB26-.LFB1608
 1869 00c5 05       		.uleb128 .LEHE26-.LEHB26
 1870 00c6 A908     		.uleb128 .L178-.LFB1608
 1871 00c8 01       		.uleb128 0x1
 1872 00c9 CA04     		.uleb128 .LEHB27-.LFB1608
 1873 00cb 8801     		.uleb128 .LEHE27-.LEHB27
 1874 00cd 9408     		.uleb128 .L176-.LFB1608
 1875 00cf 01       		.uleb128 0x1
 1876 00d0 9A07     		.uleb128 .LEHB28-.LFB1608
 1877 00d2 05       		.uleb128 .LEHE28-.LEHB28
 1878 00d3 F907     		.uleb128 .L175-.LFB1608
 1879 00d5 01       		.uleb128 0x1
 1880 00d6 A707     		.uleb128 .LEHB29-.LFB1608
 1881 00d8 05       		.uleb128 .LEHE29-.LEHB29
 1882 00d9 8508     		.uleb128 .L168-.LFB1608
 1883 00db 05       		.uleb128 0x5
 1884 00dc EF07     		.uleb128 .LEHB30-.LFB1608
 1885 00de 05       		.uleb128 .LEHE30-.LEHB30
 1886 00df A008     		.uleb128 .L180-.LFB1608
 1887 00e1 07       		.uleb128 0x7
 1888              	.LLSDACSE1608:
 1889 00e2 03       		.byte	0x3
 1890 00e3 00       		.byte	0
 1891 00e4 02       		.byte	0x2
 1892 00e5 7D       		.byte	0x7d
 1893 00e6 01       		.byte	0x1
 1894 00e7 7D       		.byte	0x7d
 1895 00e8 00       		.byte	0
 1896 00e9 7D       		.byte	0x7d
 1897 00ea 0000     		.align 4
 1898 00ec 00000000 		.long	0
 1899              	
 1900 00f0 00000000 		.long	DW.ref._ZTISt9exception-.
 1901 00f4 00000000 		.long	DW.ref._ZTIN8UnitTest15AssertExceptionE-.
 1902              	.LLSDATT1608:
 1903              		.text
 1904              		.cfi_endproc
 1905              		.section	.text.unlikely
 1906              		.cfi_startproc
 1907              		.cfi_personality 0x9b,DW.ref.__gxx_personality_v0
 1908              		.cfi_lsda 0x1b,.LLSDAC1608
 1910              	_ZN8UnitTest11ExecuteTestINS_12_GLOBAL__N_162DeferredTestReporterFixtureReportTestEndCapturesTestTi
 1911              	.LFSB1608:
 1912              	.L182:
 1913              		.cfi_def_cfa_offset 2160
 1914              		.cfi_offset 3, -40
 1915              		.cfi_offset 6, -32
 1916              		.cfi_offset 12, -24
 1917              		.cfi_offset 13, -16
 1918 0157 BF080000 		movl	$8, %edi
 1918      00
 1919 015c E8000000 		call	__cxa_allocate_exception@PLT
 1919      00
 1920 0161 31D2     		xorl	%edx, %edx
 1921 0163 488D3500 		leaq	_ZTIPKc(%rip), %rsi
 1921      000000
 1922 016a 4889C7   		movq	%rax, %rdi
 1923 016d 488D0500 		leaq	.LC8(%rip), %rax
 1923      000000
 1924 0174 488907   		movq	%rax, (%rdi)
 1925              	.LEHB31:
 1926 0177 E8000000 		call	__cxa_throw@PLT
 1926      00
 1927              	.LEHE31:
 1928              	.L140:
 1929 017c 488D0500 		leaq	16+_ZTVNSt7__cxx1115basic_stringbufIcSt11char_traitsIcESaIcEEE(%rip), %rax
 1929      000000
 1930 0183 488BBC24 		movq	640(%rsp), %rdi
 1930      80020000 
 1931 018b 48898424 		movq	%rax, 568(%rsp)
 1931      38020000 
 1932 0193 488D8424 		leaq	656(%rsp), %rax
 1932      90020000 
 1933 019b 4839C7   		cmpq	%rax, %rdi
 1934 019e 7405     		je	.L143
 1935 01a0 E8000000 		call	_ZdlPv@PLT
 1935      00
 1936              	.L143:
 1937 01a5 488D0500 		leaq	16+_ZTVSt15basic_streambufIcSt11char_traitsIcEE(%rip), %rax
 1937      000000
 1938 01ac 488DBC24 		leaq	624(%rsp), %rdi
 1938      70020000 
 1939 01b4 48898424 		movq	%rax, 568(%rsp)
 1939      38020000 
 1940 01bc E8000000 		call	_ZNSt6localeD1Ev@PLT
 1940      00
 1941 01c1 488D0500 		leaq	24+_ZTCN8UnitTest15MemoryOutStreamE0_So(%rip), %rax
 1941      000000
 1942 01c8 48898424 		movq	%rax, 560(%rsp)
 1942      30020000 
 1943              	.L144:
 1944 01d0 488D0500 		leaq	16+_ZTVSt9basic_iosIcSt11char_traitsIcEE(%rip), %rax
 1944      000000
 1945 01d7 488DBC24 		leaq	704(%rsp), %rdi
 1945      C0020000 
 1946 01df 48898424 		movq	%rax, 704(%rsp)
 1946      C0020000 
 1947 01e7 E8000000 		call	_ZNSt8ios_baseD2Ev@PLT
 1947      00
 1948 01ec 4889DF   		movq	%rbx, %rdi
 1949              	.L146:
 1950 01ef E8000000 		call	__cxa_begin_catch@PLT
 1950      00
 1951              	.LEHB32:
 1952 01f4 E8000000 		call	_ZN8UnitTest11CurrentTest7ResultsEv@PLT
 1952      00
 1953 01f9 488B28   		movq	(%rax), %rbp
 1954 01fc E8000000 		call	_ZN8UnitTest11CurrentTest7DetailsEv@PLT
 1954      00
 1955 0201 488B30   		movq	(%rax), %rsi
 1956 0204 488D7C24 		leaq	80(%rsp), %rdi
 1956      50
 1957 0209 BA440000 		movl	$68, %edx
 1957      00
 1958 020e E8000000 		call	_ZN8UnitTest11TestDetailsC1ERKS0_i@PLT
 1958      00
 1959 0213 488D7424 		leaq	80(%rsp), %rsi
 1959      50
 1960 0218 488D1500 		leaq	.LC18(%rip), %rdx
 1960      000000
 1961 021f 4889EF   		movq	%rbp, %rdi
 1962 0222 E8000000 		call	_ZN8UnitTest11TestResults13OnTestFailureERKNS_11TestDetailsEPKc@PLT
 1962      00
 1963              	.LEHE32:
 1964              	.LEHB33:
 1965 0227 E8000000 		call	__cxa_end_catch@PLT
 1965      00
 1966              	.LEHE33:
 1967 022c E9000000 		jmp	.L152
 1967      00
 1968              	.L169:
 1969 0231 F30F1EFA 		endbr64
 1970              	.L181:
 1971 0235 4889C3   		movq	%rax, %rbx
 1972 0238 4889D5   		movq	%rdx, %rbp
 1973 023b EB0F     		jmp	.L156
 1974              	.L174:
 1975 023d F30F1EFA 		endbr64
 1976 0241 4889C3   		movq	%rax, %rbx
 1977 0244 4889D5   		movq	%rdx, %rbp
 1978 0247 E8000000 		call	__cxa_end_catch@PLT
 1978      00
 1979              	.L156:
 1980 024c 488DBC24 		leaq	976(%rsp), %rdi
 1980      D0030000 
 1981 0254 E8000000 		call	_ZN8UnitTest16SignalTranslatorD1Ev@PLT
 1981      00
 1982 0259 4889DF   		movq	%rbx, %rdi
 1983 025c 4889E8   		movq	%rbp, %rax
 1984              	.L157:
 1985 025f 4883F801 		cmpq	$1, %rax
 1986 0263 7432     		je	.L158
 1987 0265 4883F802 		cmpq	$2, %rax
 1988 0269 0F84A100 		je	.L190
 1988      0000
 1989 026f E8000000 		call	__cxa_begin_catch@PLT
 1989      00
 1990              	.LEHB34:
 1991 0274 E8000000 		call	_ZN8UnitTest11CurrentTest7ResultsEv@PLT
 1991      00
 1992 0279 488B7424 		movq	24(%rsp), %rsi
 1992      18
 1993 027e 488B38   		movq	(%rax), %rdi
 1994 0281 488D1500 		leaq	.LC20(%rip), %rdx
 1994      000000
 1995 0288 E8000000 		call	_ZN8UnitTest11TestResults13OnTestFailureERKNS_11TestDetailsEPKc@PLT
 1995      00
 1996              	.LEHE34:
 1997              	.LEHB35:
 1998 028d E8000000 		call	__cxa_end_catch@PLT
 1998      00
 1999              	.LEHE35:
 2000 0292 E9000000 		jmp	.L132
 2000      00
 2001              	.L158:
 2002 0297 E8000000 		call	__cxa_begin_catch@PLT
 2002      00
 2003 029c 4889C5   		movq	%rax, %rbp
 2004              	.LEHB36:
 2005 029f E8000000 		call	_ZN8UnitTest11CurrentTest7ResultsEv@PLT
 2005      00
 2006 02a4 4C8B28   		movq	(%rax), %r13
 2007 02a7 488B4500 		movq	0(%rbp), %rax
 2008 02ab 4889EF   		movq	%rbp, %rdi
 2009 02ae FF5010   		call	*16(%rax)
 2010 02b1 4889EF   		movq	%rbp, %rdi
 2011 02b4 4989C4   		movq	%rax, %r12
 2012 02b7 E8000000 		call	_ZNK8UnitTest15AssertException10LineNumberEv@PLT
 2012      00
 2013 02bc 4889EF   		movq	%rbp, %rdi
 2014 02bf 89C3     		movl	%eax, %ebx
 2015 02c1 E8000000 		call	_ZNK8UnitTest15AssertException8FilenameEv@PLT
 2015      00
 2016 02c6 4889C1   		movq	%rax, %rcx
 2017 02c9 488B4424 		movq	24(%rsp), %rax
 2017      18
 2018 02ce 488D7C24 		leaq	48(%rsp), %rdi
 2018      30
 2019 02d3 4189D8   		movl	%ebx, %r8d
 2020 02d6 488B7008 		movq	8(%rax), %rsi
 2021 02da 488B10   		movq	(%rax), %rdx
 2022 02dd E8000000 		call	_ZN8UnitTest11TestDetailsC1EPKcS2_S2_i@PLT
 2022      00
 2023 02e2 488D7424 		leaq	48(%rsp), %rsi
 2023      30
 2024 02e7 4C89E2   		movq	%r12, %rdx
 2025 02ea 4C89EF   		movq	%r13, %rdi
 2026 02ed E8000000 		call	_ZN8UnitTest11TestResults13OnTestFailureERKNS_11TestDetailsEPKc@PLT
 2026      00
 2027              	.LEHE36:
 2028 02f2 E8000000 		call	__cxa_end_catch@PLT
 2028      00
 2029 02f7 E9000000 		jmp	.L132
 2029      00
 2030              	.L170:
 2031 02fc F30F1EFA 		endbr64
 2032 0300 4889C5   		movq	%rax, %rbp
 2033 0303 E8000000 		call	__cxa_end_catch@PLT
 2033      00
 2034 0308 4889EF   		movq	%rbp, %rdi
 2035              	.LEHB37:
 2036 030b E8000000 		call	_Unwind_Resume@PLT
 2036      00
 2037              	.LEHE37:
 2038              	.L190:
 2039 0310 E8000000 		call	__cxa_begin_catch@PLT
 2039      00
 2040 0315 488DBC24 		leaq	144(%rsp), %rdi
 2040      90000000 
 2041 031d 4889C5   		movq	%rax, %rbp
 2042              	.LEHB38:
 2043 0320 E8000000 		call	_ZN8UnitTest15MemoryOutStreamC1Ev
 2043      00
 2044              	.LEHE38:
 2045 0325 488DBC24 		leaq	144(%rsp), %rdi
 2045      90000000 
 2046 032d BA150000 		movl	$21, %edx
 2046      00
 2047 0332 488D3500 		leaq	.LC19(%rip), %rsi
 2047      000000
 2048              	.LEHB39:
 2049 0339 E8000000 		call	_ZSt16__ostream_insertIcSt11char_traitsIcEERSt13basic_ostreamIT_T0_ES6_PKS3_l@PLT
 2049      00
 2050 033e 488B4500 		movq	0(%rbp), %rax
 2051 0342 4889EF   		movq	%rbp, %rdi
 2052 0345 FF5010   		call	*16(%rax)
 2053 0348 488DBC24 		leaq	144(%rsp), %rdi
 2053      90000000 
 2054 0350 4889C6   		movq	%rax, %rsi
 2055 0353 E8000000 		call	_ZStlsISt11char_traitsIcEERSt13basic_ostreamIcT_ES5_PKc@PLT
 2055      00
 2056 0358 E8000000 		call	_ZN8UnitTest11CurrentTest7ResultsEv@PLT
 2056      00
 2057 035d 488DBC24 		leaq	144(%rsp), %rdi
 2057      90000000 
 2058 0365 488B28   		movq	(%rax), %rbp
 2059 0368 E8000000 		call	_ZNK8UnitTest15MemoryOutStream7GetTextEv@PLT
 2059      00
 2060 036d 488B7424 		movq	24(%rsp), %rsi
 2060      18
 2061 0372 4889C2   		movq	%rax, %rdx
 2062 0375 4889EF   		movq	%rbp, %rdi
 2063 0378 E8000000 		call	_ZN8UnitTest11TestResults13OnTestFailureERKNS_11TestDetailsEPKc@PLT
 2063      00
 2064              	.LEHE39:
 2065 037d 488DBC24 		leaq	144(%rsp), %rdi
 2065      90000000 
 2066              	.LEHB40:
 2067 0385 E8000000 		call	_ZN8UnitTest15MemoryOutStreamD1Ev
 2067      00
 2068              	.LEHE40:
 2069 038a E8000000 		call	__cxa_end_catch@PLT
 2069      00
 2070 038f E9000000 		jmp	.L132
 2070      00
 2071              	.L172:
 2072 0394 F30F1EFA 		endbr64
 2073 0398 488DBC24 		leaq	144(%rsp), %rdi
 2073      90000000 
 2074 03a0 4889C5   		movq	%rax, %rbp
 2075 03a3 E8000000 		call	_ZN8UnitTest15MemoryOutStreamD1Ev
 2075      00
 2076              	.L165:
 2077 03a8 E8000000 		call	__cxa_end_catch@PLT
 2077      00
 2078 03ad 4889EF   		movq	%rbp, %rdi
 2079              	.LEHB41:
 2080 03b0 E8000000 		call	_Unwind_Resume@PLT
 2080      00
 2081              	.LEHE41:
 2082              	.L171:
 2083 03b5 F30F1EFA 		endbr64
 2084 03b9 4889C5   		movq	%rax, %rbp
 2085 03bc EBEA     		jmp	.L165
 2086              	.L173:
 2087 03be F30F1EFA 		endbr64
 2088 03c2 4889C5   		movq	%rax, %rbp
 2089 03c5 E8000000 		call	__cxa_end_catch@PLT
 2089      00
 2090 03ca 4889EF   		movq	%rbp, %rdi
 2091              	.LEHB42:
 2092 03cd E8000000 		call	_Unwind_Resume@PLT
 2092      00
 2093              	.LEHE42:
 2094              	.L153:
 2095 03d2 488DBC24 		leaq	560(%rsp), %rdi
 2095      30020000 
 2096 03da E8000000 		call	_ZN8UnitTest15MemoryOutStreamD1Ev
 2096      00
 2097 03df 4889DF   		movq	%rbx, %rdi
 2098 03e2 E908FEFF 		jmp	.L146
 2098      FF
 2099              		.cfi_endproc
 2100              	.LFE1608:
 2101              		.section	.gcc_except_table
 2102              		.align 4
 2103              	.LLSDAC1608:
 2104 00f8 FF       		.byte	0xff
 2105 00f9 9B       		.byte	0x9b
 2106 00fa 59       		.uleb128 .LLSDATTC1608-.LLSDATTDC1608
 2107              	.LLSDATTDC1608:
 2108 00fb 01       		.byte	0x1
 2109 00fc 43       		.uleb128 .LLSDACSEC1608-.LLSDACSBC1608
 2110              	.LLSDACSBC1608:
 2111 00fd 20       		.uleb128 .LEHB31-.LCOLDB21
 2112 00fe 05       		.uleb128 .LEHE31-.LEHB31
 2113 00ff DA01     		.uleb128 .L169-.LCOLDB21
 2114 0101 07       		.uleb128 0x7
 2115 0102 9D01     		.uleb128 .LEHB32-.LCOLDB21
 2116 0104 33       		.uleb128 .LEHE32-.LEHB32
 2117 0105 E601     		.uleb128 .L174-.LCOLDB21
 2118 0107 07       		.uleb128 0x7
 2119 0108 D001     		.uleb128 .LEHB33-.LCOLDB21
 2120 010a 05       		.uleb128 .LEHE33-.LEHB33
 2121 010b DA01     		.uleb128 .L169-.LCOLDB21
 2122 010d 07       		.uleb128 0x7
 2123 010e 9D02     		.uleb128 .LEHB34-.LCOLDB21
 2124 0110 19       		.uleb128 .LEHE34-.LEHB34
 2125 0111 E704     		.uleb128 .L173-.LCOLDB21
 2126 0113 00       		.uleb128 0
 2127 0114 B602     		.uleb128 .LEHB35-.LCOLDB21
 2128 0116 05       		.uleb128 .LEHE35-.LEHB35
 2129 0117 00       		.uleb128 0
 2130 0118 00       		.uleb128 0
 2131 0119 C802     		.uleb128 .LEHB36-.LCOLDB21
 2132 011b 53       		.uleb128 .LEHE36-.LEHB36
 2133 011c A503     		.uleb128 .L170-.LCOLDB21
 2134 011e 00       		.uleb128 0
 2135 011f B403     		.uleb128 .LEHB37-.LCOLDB21
 2136 0121 05       		.uleb128 .LEHE37-.LEHB37
 2137 0122 00       		.uleb128 0
 2138 0123 00       		.uleb128 0
 2139 0124 C903     		.uleb128 .LEHB38-.LCOLDB21
 2140 0126 05       		.uleb128 .LEHE38-.LEHB38
 2141 0127 DE04     		.uleb128 .L171-.LCOLDB21
 2142 0129 00       		.uleb128 0
 2143 012a E203     		.uleb128 .LEHB39-.LCOLDB21
 2144 012c 44       		.uleb128 .LEHE39-.LEHB39
 2145 012d BD04     		.uleb128 .L172-.LCOLDB21
 2146 012f 00       		.uleb128 0
 2147 0130 AE04     		.uleb128 .LEHB40-.LCOLDB21
 2148 0132 05       		.uleb128 .LEHE40-.LEHB40
 2149 0133 DE04     		.uleb128 .L171-.LCOLDB21
 2150 0135 00       		.uleb128 0
 2151 0136 D904     		.uleb128 .LEHB41-.LCOLDB21
 2152 0138 05       		.uleb128 .LEHE41-.LEHB41
 2153 0139 00       		.uleb128 0
 2154 013a 00       		.uleb128 0
 2155 013b F604     		.uleb128 .LEHB42-.LCOLDB21
 2156 013d 05       		.uleb128 .LEHE42-.LEHB42
 2157 013e 00       		.uleb128 0
 2158 013f 00       		.uleb128 0
 2159              	.LLSDACSEC1608:
 2160 0140 03       		.byte	0x3
 2161 0141 00       		.byte	0
 2162 0142 02       		.byte	0x2
 2163 0143 7D       		.byte	0x7d
 2164 0144 01       		.byte	0x1
 2165 0145 7D       		.byte	0x7d
 2166 0146 00       		.byte	0
 2167 0147 7D       		.byte	0x7d
 2168              		.align 4
 2169 0148 00000000 		.long	0
 2170              	
 2171 014c 00000000 		.long	DW.ref._ZTISt9exception-.
 2172 0150 00000000 		.long	DW.ref._ZTIN8UnitTest15AssertExceptionE-.
 2173              	.LLSDATTC1608:
 2174              		.section	.text.unlikely
 2175              		.text
 2177              		.section	.text.unlikely
 2179              	.LCOLDE21:
 2180              		.text
 2181              	.LHOTE21:
 2182              		.section	.rodata.str1.8
 2183              		.align 8
 2184              	.LC22:
 2185 0090 556E6861 		.string	"Unhandled exception in CHECK_EQUAL(1, (int)reporter.GetResults().size())"
 2185      6E646C65 
 2185      64206578 
 2185      63657074 
 2185      696F6E20 
 2186              		.section	.text.unlikely
 2187              	.LCOLDB23:
 2188              		.text
 2189              	.LHOTB23:
 2190 08c1 66662E0F 		.p2align 4
 2190      1F840000 
 2190      0000000F 
 2190      1F4000
 2192              	_ZN8UnitTest11ExecuteTestINS_12_GLOBAL__N_171DeferredTestReporterFixtureReportTestStartCreatesANewD
 2193              	.LFB1601:
 2194              		.cfi_startproc
 2195              		.cfi_personality 0x9b,DW.ref.__gxx_personality_v0
 2196              		.cfi_lsda 0x1b,.LLSDA1601
 2197 08d0 4156     		pushq	%r14
 2198              		.cfi_def_cfa_offset 16
 2199              		.cfi_offset 14, -16
 2200 08d2 4155     		pushq	%r13
 2201              		.cfi_def_cfa_offset 24
 2202              		.cfi_offset 13, -24
 2203 08d4 4154     		pushq	%r12
 2204              		.cfi_def_cfa_offset 32
 2205              		.cfi_offset 12, -32
 2206 08d6 55       		pushq	%rbp
 2207              		.cfi_def_cfa_offset 40
 2208              		.cfi_offset 6, -40
 2209 08d7 53       		pushq	%rbx
 2210              		.cfi_def_cfa_offset 48
 2211              		.cfi_offset 3, -48
 2212 08d8 4889F3   		movq	%rsi, %rbx
 2213 08db 4881EC40 		subq	$2112, %rsp
 2213      080000
 2214              		.cfi_def_cfa_offset 2160
 2215 08e2 48897C24 		movq	%rdi, 16(%rsp)
 2215      10
 2216 08e7 48897424 		movq	%rsi, 24(%rsp)
 2216      18
 2217 08ec 64488B04 		movq	%fs:40, %rax
 2217      25280000 
 2217      00
 2218 08f5 48898424 		movq	%rax, 2104(%rsp)
 2218      38080000 
 2219 08fd 31C0     		xorl	%eax, %eax
 2220              	.LEHB43:
 2221 08ff E8000000 		call	_ZN8UnitTest11CurrentTest7DetailsEv@PLT
 2221      00
 2222              	.LEHE43:
 2223 0904 488DBC24 		leaq	976(%rsp), %rdi
 2223      D0030000 
 2224 090c 488918   		movq	%rbx, (%rax)
 2225              	.LEHB44:
 2226 090f E8000000 		call	_ZN8UnitTest16SignalTranslatorC1Ev@PLT
 2226      00
 2227              	.LEHE44:
 2228 0914 488B3D00 		movq	_ZN8UnitTest16SignalTranslator12s_jumpTargetE(%rip), %rdi
 2228      000000
 2229 091b BE010000 		movl	$1, %esi
 2229      00
 2230 0920 E8000000 		call	__sigsetjmp@PLT
 2230      00
 2231 0925 F30F1EFA 		endbr64
 2232 0929 85C0     		testl	%eax, %eax
 2233 092b 0F850000 		jne	.L237
 2233      0000
 2234 0931 488B5C24 		movq	16(%rsp), %rbx
 2234      10
 2235 0936 488DB388 		leaq	136(%rbx), %rsi
 2235      000000
 2236 093d 4889DF   		movq	%rbx, %rdi
 2237              	.LEHB45:
 2238 0940 E8000000 		call	_ZN8UnitTest20DeferredTestReporter15ReportTestStartERKNS_11TestDetailsE@PLT
 2238      00
 2239              	.LEHE45:
 2240              	.LEHB46:
 2241 0945 E8000000 		call	_ZN8UnitTest11CurrentTest7DetailsEv@PLT
 2241      00
 2242 094a 488B30   		movq	(%rax), %rsi
 2243 094d 488D7C24 		leaq	112(%rsp), %rdi
 2243      70
 2244 0952 BA310000 		movl	$49, %edx
 2244      00
 2245 0957 E8000000 		call	_ZN8UnitTest11TestDetailsC1ERKS0_i@PLT
 2245      00
 2246 095c 4889DF   		movq	%rbx, %rdi
 2247 095f E8000000 		call	_ZN8UnitTest20DeferredTestReporter10GetResultsEv@PLT
 2247      00
 2248 0964 488B5808 		movq	8(%rax), %rbx
 2249 0968 482B18   		subq	(%rax), %rbx
 2250 096b 48C1FB07 		sarq	$7, %rbx
 2251 096f 4189DD   		movl	%ebx, %r13d
 2252 0972 E8000000 		call	_ZN8UnitTest11CurrentTest7ResultsEv@PLT
 2252      00
 2253              	.LEHE46:
 2254 0977 488D2D00 		leaq	24+_ZTCN8UnitTest15MemoryOutStreamE0_NSt7__cxx1119basic_ostringstreamIcSt11char_traitsIcESaIc
 2254      000000
 2255 097e 488D1500 		leaq	16+_ZTVSt15basic_streambufIcSt11char_traitsIcEE(%rip), %rdx
 2255      000000
 2256 0985 4C8B30   		movq	(%rax), %r14
 2257 0988 66480F6E 		movq	%rbp, %xmm1
 2257      CD
 2258 098d 66480F6E 		movq	%rdx, %xmm2
 2258      D2
 2259 0992 660F6CCA 		punpcklqdq	%xmm2, %xmm1
 2260 0996 0F290C24 		movaps	%xmm1, (%rsp)
 2261 099a 83FB01   		cmpl	$1, %ebx
 2262 099d 7539     		jne	.L242
 2263              	.L208:
 2264 099f 488DBC24 		leaq	976(%rsp), %rdi
 2264      D0030000 
 2265              	.LEHB47:
 2266 09a7 E8000000 		call	_ZN8UnitTest16SignalTranslatorD1Ev@PLT
 2266      00
 2267              	.LEHE47:
 2268              	.L191:
 2269 09ac 488B8424 		movq	2104(%rsp), %rax
 2269      38080000 
 2270 09b4 64482B04 		subq	%fs:40, %rax
 2270      25280000 
 2270      00
 2271 09bd 0F859302 		jne	.L243
 2271      0000
 2272 09c3 4881C440 		addq	$2112, %rsp
 2272      080000
 2273              		.cfi_remember_state
 2274              		.cfi_def_cfa_offset 48
 2275 09ca 5B       		popq	%rbx
 2276              		.cfi_def_cfa_offset 40
 2277 09cb 5D       		popq	%rbp
 2278              		.cfi_def_cfa_offset 32
 2279 09cc 415C     		popq	%r12
 2280              		.cfi_def_cfa_offset 24
 2281 09ce 415D     		popq	%r13
 2282              		.cfi_def_cfa_offset 16
 2283 09d0 415E     		popq	%r14
 2284              		.cfi_def_cfa_offset 8
 2285 09d2 C3       		ret
 2286              		.p2align 4,,10
 2287 09d3 0F1F4400 		.p2align 3
 2287      00
 2288              	.L242:
 2289              		.cfi_restore_state
 2290 09d8 4C8DA424 		leaq	704(%rsp), %r12
 2290      C0020000 
 2291 09e0 4C89E7   		movq	%r12, %rdi
 2292 09e3 E8000000 		call	_ZNSt8ios_baseC2Ev@PLT
 2292      00
 2293 09e8 31C0     		xorl	%eax, %eax
 2294 09ea 660FEFC0 		pxor	%xmm0, %xmm0
 2295 09ee 31F6     		xorl	%esi, %esi
 2296 09f0 66898424 		movw	%ax, 928(%rsp)
 2296      A0030000 
 2297 09f8 488D0500 		leaq	24+_ZTCN8UnitTest15MemoryOutStreamE0_So(%rip), %rax
 2297      000000
 2298 09ff 4C89E7   		movq	%r12, %rdi
 2299 0a02 48898424 		movq	%rax, 560(%rsp)
 2299      30020000 
 2300 0a0a 4883C028 		addq	$40, %rax
 2301 0a0e 48C78424 		movq	$0, 920(%rsp)
 2301      98030000 
 2301      00000000 
 2302 0a1a 48898424 		movq	%rax, 704(%rsp)
 2302      C0020000 
 2303 0a22 0F118424 		movups	%xmm0, 936(%rsp)
 2303      A8030000 
 2304 0a2a 0F118424 		movups	%xmm0, 952(%rsp)
 2304      B8030000 
 2305              	.LEHB48:
 2306 0a32 E8000000 		call	_ZNSt9basic_iosIcSt11char_traitsIcEE4initEPSt15basic_streambufIcS1_E@PLT
 2306      00
 2307              	.LEHE48:
 2308 0a37 660F6F0C 		movdqa	(%rsp), %xmm1
 2308      24
 2309 0a3c 660FEFC0 		pxor	%xmm0, %xmm0
 2310 0a40 488D4528 		leaq	40(%rbp), %rax
 2311 0a44 488DBC24 		leaq	624(%rsp), %rdi
 2311      70020000 
 2312 0a4c 48898424 		movq	%rax, 704(%rsp)
 2312      C0020000 
 2313 0a54 488D9C24 		leaq	560(%rsp), %rbx
 2313      30020000 
 2314 0a5c 0F298C24 		movaps	%xmm1, 560(%rsp)
 2314      30020000 
 2315 0a64 0F298424 		movaps	%xmm0, 576(%rsp)
 2315      40020000 
 2316 0a6c 0F298424 		movaps	%xmm0, 592(%rsp)
 2316      50020000 
 2317 0a74 0F298424 		movaps	%xmm0, 608(%rsp)
 2317      60020000 
 2318 0a7c E8000000 		call	_ZNSt6localeC1Ev@PLT
 2318      00
 2319 0a81 488D0500 		leaq	16+_ZTVNSt7__cxx1115basic_stringbufIcSt11char_traitsIcESaIcEEE(%rip), %rax
 2319      000000
 2320 0a88 48C78424 		movq	$0, 648(%rsp)
 2320      88020000 
 2320      00000000 
 2321 0a94 488DB424 		leaq	568(%rsp), %rsi
 2321      38020000 
 2322 0a9c 48898424 		movq	%rax, 568(%rsp)
 2322      38020000 
 2323 0aa4 488D8424 		leaq	656(%rsp), %rax
 2323      90020000 
 2324 0aac 48898424 		movq	%rax, 640(%rsp)
 2324      80020000 
 2325 0ab4 488B8424 		movq	560(%rsp), %rax
 2325      30020000 
 2326 0abc C6842490 		movb	$0, 656(%rsp)
 2326      02000000 
 2327 0ac4 C7842478 		movl	$16, 632(%rsp)
 2327      02000010 
 2327      000000
 2328 0acf 480358E8 		addq	-24(%rax), %rbx
 2329 0ad3 4889DF   		movq	%rbx, %rdi
 2330              	.LEHB49:
 2331 0ad6 E8000000 		call	_ZNSt9basic_iosIcSt11char_traitsIcEE4initEPSt15basic_streambufIcS1_E@PLT
 2331      00
 2332              	.LEHE49:
 2333 0adb 488D0500 		leaq	24+_ZTVN8UnitTest15MemoryOutStreamE(%rip), %rax
 2333      000000
 2334 0ae2 488DBC24 		leaq	560(%rsp), %rdi
 2334      30020000 
 2335 0aea BA090000 		movl	$9, %edx
 2335      00
 2336 0aef 48C78424 		movq	$0, 680(%rsp)
 2336      A8020000 
 2336      00000000 
 2337 0afb 48898424 		movq	%rax, 560(%rsp)
 2337      30020000 
 2338 0b03 4883C028 		addq	$40, %rax
 2339 0b07 488D3500 		leaq	.LC13(%rip), %rsi
 2339      000000
 2340 0b0e 48898424 		movq	%rax, 704(%rsp)
 2340      C0020000 
 2341 0b16 488D8424 		leaq	688(%rsp), %rax
 2341      B0020000 
 2342 0b1e 48898424 		movq	%rax, 672(%rsp)
 2342      A0020000 
 2343 0b26 C68424B0 		movb	$0, 688(%rsp)
 2343      02000000 
 2344              	.LEHB50:
 2345 0b2e E8000000 		call	_ZSt16__ostream_insertIcSt11char_traitsIcEERSt13basic_ostreamIT_T0_ES6_PKS3_l@PLT
 2345      00
 2346 0b33 488DBC24 		leaq	560(%rsp), %rdi
 2346      30020000 
 2347 0b3b BE010000 		movl	$1, %esi
 2347      00
 2348 0b40 E8000000 		call	_ZNSolsEi@PLT
 2348      00
 2349 0b45 BA090000 		movl	$9, %edx
 2349      00
 2350 0b4a 488D3500 		leaq	.LC17(%rip), %rsi
 2350      000000
 2351 0b51 4889C7   		movq	%rax, %rdi
 2352 0b54 4989C4   		movq	%rax, %r12
 2353 0b57 E8000000 		call	_ZSt16__ostream_insertIcSt11char_traitsIcEERSt13basic_ostreamIT_T0_ES6_PKS3_l@PLT
 2353      00
 2354 0b5c 4489EE   		movl	%r13d, %esi
 2355 0b5f 4C89E7   		movq	%r12, %rdi
 2356 0b62 E8000000 		call	_ZNSolsEi@PLT
 2356      00
 2357 0b67 488DBC24 		leaq	560(%rsp), %rdi
 2357      30020000 
 2358 0b6f E8000000 		call	_ZNK8UnitTest15MemoryOutStream7GetTextEv@PLT
 2358      00
 2359 0b74 4889C2   		movq	%rax, %rdx
 2360 0b77 488D7424 		leaq	112(%rsp), %rsi
 2360      70
 2361 0b7c 4C89F7   		movq	%r14, %rdi
 2362 0b7f E8000000 		call	_ZN8UnitTest11TestResults13OnTestFailureERKNS_11TestDetailsEPKc@PLT
 2362      00
 2363              	.LEHE50:
 2364 0b84 488D0500 		leaq	16+_ZTVNSt7__cxx1115basic_stringbufIcSt11char_traitsIcESaIcEEE(%rip), %rax
 2364      000000
 2365 0b8b 488BBC24 		movq	672(%rsp), %rdi
 2365      A0020000 
 2366 0b93 66480F6E 		movq	%rbp, %xmm0
 2366      C5
 2367 0b98 66480F6E 		movq	%rax, %xmm3
 2367      D8
 2368 0b9d 488D0500 		leaq	24+_ZTVN8UnitTest15MemoryOutStreamE(%rip), %rax
 2368      000000
 2369 0ba4 48898424 		movq	%rax, 560(%rsp)
 2369      30020000 
 2370 0bac 4883C028 		addq	$40, %rax
 2371 0bb0 660F6CC3 		punpcklqdq	%xmm3, %xmm0
 2372 0bb4 48898424 		movq	%rax, 704(%rsp)
 2372      C0020000 
 2373 0bbc 488D8424 		leaq	688(%rsp), %rax
 2373      B0020000 
 2374 0bc4 4839C7   		cmpq	%rax, %rdi
 2375 0bc7 7410     		je	.L206
 2376 0bc9 0F294424 		movaps	%xmm0, 32(%rsp)
 2376      20
 2377 0bce E8000000 		call	_ZdlPv@PLT
 2377      00
 2378 0bd3 660F6F44 		movdqa	32(%rsp), %xmm0
 2378      2420
 2379              	.L206:
 2380 0bd9 488D0500 		leaq	64+_ZTCN8UnitTest15MemoryOutStreamE0_NSt7__cxx1119basic_ostringstreamIcSt11char_traitsIcESaIc
 2380      000000
 2381 0be0 488BBC24 		movq	640(%rsp), %rdi
 2381      80020000 
 2382 0be8 0F298424 		movaps	%xmm0, 560(%rsp)
 2382      30020000 
 2383 0bf0 48898424 		movq	%rax, 704(%rsp)
 2383      C0020000 
 2384 0bf8 488D8424 		leaq	656(%rsp), %rax
 2384      90020000 
 2385 0c00 4839C7   		cmpq	%rax, %rdi
 2386 0c03 7405     		je	.L205
 2387 0c05 E8000000 		call	_ZdlPv@PLT
 2387      00
 2388              	.L205:
 2389 0c0a 488D0500 		leaq	16+_ZTVSt15basic_streambufIcSt11char_traitsIcEE(%rip), %rax
 2389      000000
 2390 0c11 488DBC24 		leaq	624(%rsp), %rdi
 2390      70020000 
 2391 0c19 48898424 		movq	%rax, 568(%rsp)
 2391      38020000 
 2392 0c21 E8000000 		call	_ZNSt6localeD1Ev@PLT
 2392      00
 2393 0c26 488D0500 		leaq	24+_ZTCN8UnitTest15MemoryOutStreamE0_So(%rip), %rax
 2393      000000
 2394 0c2d 488DBC24 		leaq	704(%rsp), %rdi
 2394      C0020000 
 2395 0c35 48898424 		movq	%rax, 560(%rsp)
 2395      30020000 
 2396 0c3d 488D0500 		leaq	16+_ZTVSt9basic_iosIcSt11char_traitsIcEE(%rip), %rax
 2396      000000
 2397 0c44 48898424 		movq	%rax, 704(%rsp)
 2397      C0020000 
 2398              	.LEHB51:
 2399 0c4c E8000000 		call	_ZNSt8ios_baseD2Ev@PLT
 2399      00
 2400              	.LEHE51:
 2401 0c51 E949FDFF 		jmp	.L208
 2401      FF
 2402              	.L243:
 2403 0c56 E8000000 		call	__stack_chk_fail@PLT
 2403      00
 2404              	.L231:
 2405 0c5b F30F1EFA 		endbr64
 2406 0c5f 4889C7   		movq	%rax, %rdi
 2407 0c62 E9000000 		jmp	.L202
 2407      00
 2408              	.L224:
 2409 0c67 F30F1EFA 		endbr64
 2410 0c6b 4889C7   		movq	%rax, %rdi
 2411 0c6e 4889D0   		movq	%rdx, %rax
 2412 0c71 E9000000 		jmp	.L213
 2412      00
 2413              	.L235:
 2414 0c76 F30F1EFA 		endbr64
 2415 0c7a E9000000 		jmp	.L236
 2415      00
 2416              	.L234:
 2417 0c7f F30F1EFA 		endbr64
 2418 0c83 4889C3   		movq	%rax, %rbx
 2419 0c86 E9000000 		jmp	.L196
 2419      00
 2420              	.L232:
 2421 0c8b F30F1EFA 		endbr64
 2422 0c8f 4889C3   		movq	%rax, %rbx
 2423 0c92 E9000000 		jmp	.L209
 2423      00
 2424              	.L233:
 2425 0c97 F30F1EFA 		endbr64
 2426 0c9b 4889C3   		movq	%rax, %rbx
 2427 0c9e E9000000 		jmp	.L200
 2427      00
 2428              		.section	.gcc_except_table
 2429              		.align 4
 2430              	.LLSDA1601:
 2431 0154 FF       		.byte	0xff
 2432 0155 9B       		.byte	0x9b
 2433 0156 49       		.uleb128 .LLSDATT1601-.LLSDATTD1601
 2434              	.LLSDATTD1601:
 2435 0157 01       		.byte	0x1
 2436 0158 31       		.uleb128 .LLSDACSE1601-.LLSDACSB1601
 2437              	.LLSDACSB1601:
 2438 0159 2F       		.uleb128 .LEHB43-.LFB1601
 2439 015a 05       		.uleb128 .LEHE43-.LEHB43
 2440 015b 00       		.uleb128 0
 2441 015c 00       		.uleb128 0
 2442 015d 3F       		.uleb128 .LEHB44-.LFB1601
 2443 015e 05       		.uleb128 .LEHE44-.LEHB44
 2444 015f 9707     		.uleb128 .L224-.LFB1601
 2445 0161 05       		.uleb128 0x5
 2446 0162 70       		.uleb128 .LEHB45-.LFB1601
 2447 0163 05       		.uleb128 .LEHE45-.LEHB45
 2448 0164 A607     		.uleb128 .L235-.LFB1601
 2449 0166 07       		.uleb128 0x7
 2450 0167 75       		.uleb128 .LEHB46-.LFB1601
 2451 0168 32       		.uleb128 .LEHE46-.LEHB46
 2452 0169 8B07     		.uleb128 .L231-.LFB1601
 2453 016b 01       		.uleb128 0x1
 2454 016c D701     		.uleb128 .LEHB47-.LFB1601
 2455 016e 05       		.uleb128 .LEHE47-.LEHB47
 2456 016f 9707     		.uleb128 .L224-.LFB1601
 2457 0171 05       		.uleb128 0x5
 2458 0172 E202     		.uleb128 .LEHB48-.LFB1601
 2459 0174 05       		.uleb128 .LEHE48-.LEHB48
 2460 0175 C707     		.uleb128 .L233-.LFB1601
 2461 0177 01       		.uleb128 0x1
 2462 0178 8604     		.uleb128 .LEHB49-.LFB1601
 2463 017a 05       		.uleb128 .LEHE49-.LEHB49
 2464 017b AF07     		.uleb128 .L234-.LFB1601
 2465 017d 01       		.uleb128 0x1
 2466 017e DE04     		.uleb128 .LEHB50-.LFB1601
 2467 0180 56       		.uleb128 .LEHE50-.LEHB50
 2468 0181 BB07     		.uleb128 .L232-.LFB1601
 2469 0183 01       		.uleb128 0x1
 2470 0184 FC06     		.uleb128 .LEHB51-.LFB1601
 2471 0186 05       		.uleb128 .LEHE51-.LEHB51
 2472 0187 8B07     		.uleb128 .L231-.LFB1601
 2473 0189 01       		.uleb128 0x1
 2474              	.LLSDACSE1601:
 2475 018a 03       		.byte	0x3
 2476 018b 00       		.byte	0
 2477 018c 02       		.byte	0x2
 2478 018d 7D       		.byte	0x7d
 2479 018e 01       		.byte	0x1
 2480 018f 7D       		.byte	0x7d
 2481 0190 00       		.byte	0
 2482 0191 7D       		.byte	0x7d
 2483 0192 0000     		.align 4
 2484 0194 00000000 		.long	0
 2485              	
 2486 0198 00000000 		.long	DW.ref._ZTISt9exception-.
 2487 019c 00000000 		.long	DW.ref._ZTIN8UnitTest15AssertExceptionE-.
 2488              	.LLSDATT1601:
 2489              		.text
 2490              		.cfi_endproc
 2491              		.section	.text.unlikely
 2492              		.cfi_startproc
 2493              		.cfi_personality 0x9b,DW.ref.__gxx_personality_v0
 2494              		.cfi_lsda 0x1b,.LLSDAC1601
 2496              	_ZN8UnitTest11ExecuteTestINS_12_GLOBAL__N_171DeferredTestReporterFixtureReportTestStartCreatesANewD
 2497              	.LFSB1601:
 2498              	.L196:
 2499              		.cfi_def_cfa_offset 2160
 2500              		.cfi_offset 3, -48
 2501              		.cfi_offset 6, -40
 2502              		.cfi_offset 12, -32
 2503              		.cfi_offset 13, -24
 2504              		.cfi_offset 14, -16
 2505 03e7 488D0500 		leaq	16+_ZTVNSt7__cxx1115basic_stringbufIcSt11char_traitsIcESaIcEEE(%rip), %rax
 2505      000000
 2506 03ee 488BBC24 		movq	640(%rsp), %rdi
 2506      80020000 
 2507 03f6 48898424 		movq	%rax, 568(%rsp)
 2507      38020000 
 2508 03fe 488D8424 		leaq	656(%rsp), %rax
 2508      90020000 
 2509 0406 4839C7   		cmpq	%rax, %rdi
 2510 0409 7405     		je	.L199
 2511 040b E8000000 		call	_ZdlPv@PLT
 2511      00
 2512              	.L199:
 2513 0410 488D0500 		leaq	16+_ZTVSt15basic_streambufIcSt11char_traitsIcEE(%rip), %rax
 2513      000000
 2514 0417 488DBC24 		leaq	624(%rsp), %rdi
 2514      70020000 
 2515 041f 48898424 		movq	%rax, 568(%rsp)
 2515      38020000 
 2516 0427 E8000000 		call	_ZNSt6localeD1Ev@PLT
 2516      00
 2517 042c 488D0500 		leaq	24+_ZTCN8UnitTest15MemoryOutStreamE0_So(%rip), %rax
 2517      000000
 2518 0433 48898424 		movq	%rax, 560(%rsp)
 2518      30020000 
 2519              	.L200:
 2520 043b 488D0500 		leaq	16+_ZTVSt9basic_iosIcSt11char_traitsIcEE(%rip), %rax
 2520      000000
 2521 0442 488DBC24 		leaq	704(%rsp), %rdi
 2521      C0020000 
 2522 044a 48898424 		movq	%rax, 704(%rsp)
 2522      C0020000 
 2523 0452 E8000000 		call	_ZNSt8ios_baseD2Ev@PLT
 2523      00
 2524 0457 4889DF   		movq	%rbx, %rdi
 2525              	.L202:
 2526 045a E8000000 		call	__cxa_begin_catch@PLT
 2526      00
 2527              	.LEHB52:
 2528 045f E8000000 		call	_ZN8UnitTest11CurrentTest7ResultsEv@PLT
 2528      00
 2529 0464 488B28   		movq	(%rax), %rbp
 2530 0467 E8000000 		call	_ZN8UnitTest11CurrentTest7DetailsEv@PLT
 2530      00
 2531 046c 488B30   		movq	(%rax), %rsi
 2532 046f 488D7C24 		leaq	80(%rsp), %rdi
 2532      50
 2533 0474 BA310000 		movl	$49, %edx
 2533      00
 2534 0479 E8000000 		call	_ZN8UnitTest11TestDetailsC1ERKS0_i@PLT
 2534      00
 2535 047e 488D7424 		leaq	80(%rsp), %rsi
 2535      50
 2536 0483 488D1500 		leaq	.LC22(%rip), %rdx
 2536      000000
 2537 048a 4889EF   		movq	%rbp, %rdi
 2538 048d E8000000 		call	_ZN8UnitTest11TestResults13OnTestFailureERKNS_11TestDetailsEPKc@PLT
 2538      00
 2539              	.LEHE52:
 2540              	.LEHB53:
 2541 0492 E8000000 		call	__cxa_end_catch@PLT
 2541      00
 2542              	.LEHE53:
 2543 0497 E9000000 		jmp	.L208
 2543      00
 2544              	.L230:
 2545 049c F30F1EFA 		endbr64
 2546 04a0 4889C3   		movq	%rax, %rbx
 2547 04a3 4889D5   		movq	%rdx, %rbp
 2548 04a6 E8000000 		call	__cxa_end_catch@PLT
 2548      00
 2549              	.L212:
 2550 04ab 488DBC24 		leaq	976(%rsp), %rdi
 2550      D0030000 
 2551 04b3 E8000000 		call	_ZN8UnitTest16SignalTranslatorD1Ev@PLT
 2551      00
 2552 04b8 4889DF   		movq	%rbx, %rdi
 2553 04bb 4889E8   		movq	%rbp, %rax
 2554              	.L213:
 2555 04be 4883F801 		cmpq	$1, %rax
 2556 04c2 743E     		je	.L214
 2557 04c4 4883F802 		cmpq	$2, %rax
 2558 04c8 0F84E700 		je	.L244
 2558      0000
 2559 04ce E8000000 		call	__cxa_begin_catch@PLT
 2559      00
 2560              	.LEHB54:
 2561 04d3 E8000000 		call	_ZN8UnitTest11CurrentTest7ResultsEv@PLT
 2561      00
 2562 04d8 488B7424 		movq	24(%rsp), %rsi
 2562      18
 2563 04dd 488B38   		movq	(%rax), %rdi
 2564 04e0 488D1500 		leaq	.LC20(%rip), %rdx
 2564      000000
 2565 04e7 E8000000 		call	_ZN8UnitTest11TestResults13OnTestFailureERKNS_11TestDetailsEPKc@PLT
 2565      00
 2566              	.LEHE54:
 2567              	.LEHB55:
 2568 04ec E8000000 		call	__cxa_end_catch@PLT
 2568      00
 2569              	.LEHE55:
 2570 04f1 E9000000 		jmp	.L191
 2570      00
 2571              	.L225:
 2572 04f6 F30F1EFA 		endbr64
 2573              	.L236:
 2574 04fa 4889C3   		movq	%rax, %rbx
 2575 04fd 4889D5   		movq	%rdx, %rbp
 2576 0500 EBA9     		jmp	.L212
 2577              	.L214:
 2578 0502 E8000000 		call	__cxa_begin_catch@PLT
 2578      00
 2579 0507 4889C5   		movq	%rax, %rbp
 2580              	.LEHB56:
 2581 050a E8000000 		call	_ZN8UnitTest11CurrentTest7ResultsEv@PLT
 2581      00
 2582 050f 4C8B28   		movq	(%rax), %r13
 2583 0512 488B4500 		movq	0(%rbp), %rax
 2584 0516 4889EF   		movq	%rbp, %rdi
 2585 0519 FF5010   		call	*16(%rax)
 2586 051c 4889EF   		movq	%rbp, %rdi
 2587 051f 4989C4   		movq	%rax, %r12
 2588 0522 E8000000 		call	_ZNK8UnitTest15AssertException10LineNumberEv@PLT
 2588      00
 2589 0527 4889EF   		movq	%rbp, %rdi
 2590 052a 89C3     		movl	%eax, %ebx
 2591 052c E8000000 		call	_ZNK8UnitTest15AssertException8FilenameEv@PLT
 2591      00
 2592 0531 4889C1   		movq	%rax, %rcx
 2593 0534 488B4424 		movq	24(%rsp), %rax
 2593      18
 2594 0539 488D7C24 		leaq	48(%rsp), %rdi
 2594      30
 2595 053e 4189D8   		movl	%ebx, %r8d
 2596 0541 488B7008 		movq	8(%rax), %rsi
 2597 0545 488B10   		movq	(%rax), %rdx
 2598 0548 E8000000 		call	_ZN8UnitTest11TestDetailsC1EPKcS2_S2_i@PLT
 2598      00
 2599 054d 488D7424 		leaq	48(%rsp), %rsi
 2599      30
 2600 0552 4C89E2   		movq	%r12, %rdx
 2601 0555 4C89EF   		movq	%r13, %rdi
 2602 0558 E8000000 		call	_ZN8UnitTest11TestResults13OnTestFailureERKNS_11TestDetailsEPKc@PLT
 2602      00
 2603              	.LEHE56:
 2604 055d E8000000 		call	__cxa_end_catch@PLT
 2604      00
 2605 0562 E9000000 		jmp	.L191
 2605      00
 2606              	.L237:
 2607 0567 BF080000 		movl	$8, %edi
 2607      00
 2608 056c E8000000 		call	__cxa_allocate_exception@PLT
 2608      00
 2609 0571 31D2     		xorl	%edx, %edx
 2610 0573 488D3500 		leaq	_ZTIPKc(%rip), %rsi
 2610      000000
 2611 057a 4889C7   		movq	%rax, %rdi
 2612 057d 488D0500 		leaq	.LC8(%rip), %rax
 2612      000000
 2613 0584 488907   		movq	%rax, (%rdi)
 2614              	.LEHB57:
 2615 0587 E8000000 		call	__cxa_throw@PLT
 2615      00
 2616              	.LEHE57:
 2617              	.L209:
 2618 058c 488DBC24 		leaq	560(%rsp), %rdi
 2618      30020000 
 2619 0594 E8000000 		call	_ZN8UnitTest15MemoryOutStreamD1Ev
 2619      00
 2620 0599 4889DF   		movq	%rbx, %rdi
 2621 059c E9B9FEFF 		jmp	.L202
 2621      FF
 2622              	.L226:
 2623 05a1 F30F1EFA 		endbr64
 2624 05a5 4889C5   		movq	%rax, %rbp
 2625 05a8 E8000000 		call	__cxa_end_catch@PLT
 2625      00
 2626 05ad 4889EF   		movq	%rbp, %rdi
 2627              	.LEHB58:
 2628 05b0 E8000000 		call	_Unwind_Resume@PLT
 2628      00
 2629              	.LEHE58:
 2630              	.L244:
 2631 05b5 E8000000 		call	__cxa_begin_catch@PLT
 2631      00
 2632 05ba 488DBC24 		leaq	144(%rsp), %rdi
 2632      90000000 
 2633 05c2 4889C5   		movq	%rax, %rbp
 2634              	.LEHB59:
 2635 05c5 E8000000 		call	_ZN8UnitTest15MemoryOutStreamC1Ev
 2635      00
 2636              	.LEHE59:
 2637 05ca 488DBC24 		leaq	144(%rsp), %rdi
 2637      90000000 
 2638 05d2 BA150000 		movl	$21, %edx
 2638      00
 2639 05d7 488D3500 		leaq	.LC19(%rip), %rsi
 2639      000000
 2640              	.LEHB60:
 2641 05de E8000000 		call	_ZSt16__ostream_insertIcSt11char_traitsIcEERSt13basic_ostreamIT_T0_ES6_PKS3_l@PLT
 2641      00
 2642 05e3 488B4500 		movq	0(%rbp), %rax
 2643 05e7 4889EF   		movq	%rbp, %rdi
 2644 05ea FF5010   		call	*16(%rax)
 2645 05ed 488DBC24 		leaq	144(%rsp), %rdi
 2645      90000000 
 2646 05f5 4889C6   		movq	%rax, %rsi
 2647 05f8 E8000000 		call	_ZStlsISt11char_traitsIcEERSt13basic_ostreamIcT_ES5_PKc@PLT
 2647      00
 2648 05fd E8000000 		call	_ZN8UnitTest11CurrentTest7ResultsEv@PLT
 2648      00
 2649 0602 488DBC24 		leaq	144(%rsp), %rdi
 2649      90000000 
 2650 060a 488B28   		movq	(%rax), %rbp
 2651 060d E8000000 		call	_ZNK8UnitTest15MemoryOutStream7GetTextEv@PLT
 2651      00
 2652 0612 488B7424 		movq	24(%rsp), %rsi
 2652      18
 2653 0617 4889C2   		movq	%rax, %rdx
 2654 061a 4889EF   		movq	%rbp, %rdi
 2655 061d E8000000 		call	_ZN8UnitTest11TestResults13OnTestFailureERKNS_11TestDetailsEPKc@PLT
 2655      00
 2656              	.LEHE60:
 2657 0622 488DBC24 		leaq	144(%rsp), %rdi
 2657      90000000 
 2658              	.LEHB61:
 2659 062a E8000000 		call	_ZN8UnitTest15MemoryOutStreamD1Ev
 2659      00
 2660              	.LEHE61:
 2661 062f E8000000 		call	__cxa_end_catch@PLT
 2661      00
 2662 0634 E9000000 		jmp	.L191
 2662      00
 2663              	.L228:
 2664 0639 F30F1EFA 		endbr64
 2665 063d 488DBC24 		leaq	144(%rsp), %rdi
 2665      90000000 
 2666 0645 4889C5   		movq	%rax, %rbp
 2667 0648 E8000000 		call	_ZN8UnitTest15MemoryOutStreamD1Ev
 2667      00
 2668              	.L221:
 2669 064d E8000000 		call	__cxa_end_catch@PLT
 2669      00
 2670 0652 4889EF   		movq	%rbp, %rdi
 2671              	.LEHB62:
 2672 0655 E8000000 		call	_Unwind_Resume@PLT
 2672      00
 2673              	.LEHE62:
 2674              	.L227:
 2675 065a F30F1EFA 		endbr64
 2676 065e 4889C5   		movq	%rax, %rbp
 2677 0661 EBEA     		jmp	.L221
 2678              	.L229:
 2679 0663 F30F1EFA 		endbr64
 2680 0667 4889C5   		movq	%rax, %rbp
 2681 066a E8000000 		call	__cxa_end_catch@PLT
 2681      00
 2682 066f 4889EF   		movq	%rbp, %rdi
 2683              	.LEHB63:
 2684 0672 E8000000 		call	_Unwind_Resume@PLT
 2684      00
 2685              	.LEHE63:
 2686              		.cfi_endproc
 2687              	.LFE1601:
 2688              		.section	.gcc_except_table
 2689              		.align 4
 2690              	.LLSDAC1601:
 2691 01a0 FF       		.byte	0xff
 2692 01a1 9B       		.byte	0x9b
 2693 01a2 59       		.uleb128 .LLSDATTC1601-.LLSDATTDC1601
 2694              	.LLSDATTDC1601:
 2695 01a3 01       		.byte	0x1
 2696 01a4 43       		.uleb128 .LLSDACSEC1601-.LLSDACSBC1601
 2697              	.LLSDACSBC1601:
 2698 01a5 78       		.uleb128 .LEHB52-.LCOLDB23
 2699 01a6 33       		.uleb128 .LEHE52-.LEHB52
 2700 01a7 B501     		.uleb128 .L230-.LCOLDB23
 2701 01a9 07       		.uleb128 0x7
 2702 01aa AB01     		.uleb128 .LEHB53-.LCOLDB23
 2703 01ac 05       		.uleb128 .LEHE53-.LEHB53
 2704 01ad 8F02     		.uleb128 .L225-.LCOLDB23
 2705 01af 07       		.uleb128 0x7
 2706 01b0 EC01     		.uleb128 .LEHB54-.LCOLDB23
 2707 01b2 19       		.uleb128 .LEHE54-.LEHB54
 2708 01b3 FC04     		.uleb128 .L229-.LCOLDB23
 2709 01b5 00       		.uleb128 0
 2710 01b6 8502     		.uleb128 .LEHB55-.LCOLDB23
 2711 01b8 05       		.uleb128 .LEHE55-.LEHB55
 2712 01b9 00       		.uleb128 0
 2713 01ba 00       		.uleb128 0
 2714 01bb A302     		.uleb128 .LEHB56-.LCOLDB23
 2715 01bd 53       		.uleb128 .LEHE56-.LEHB56
 2716 01be BA03     		.uleb128 .L226-.LCOLDB23
 2717 01c0 00       		.uleb128 0
 2718 01c1 A003     		.uleb128 .LEHB57-.LCOLDB23
 2719 01c3 05       		.uleb128 .LEHE57-.LEHB57
 2720 01c4 8F02     		.uleb128 .L225-.LCOLDB23
 2721 01c6 07       		.uleb128 0x7
 2722 01c7 C903     		.uleb128 .LEHB58-.LCOLDB23
 2723 01c9 05       		.uleb128 .LEHE58-.LEHB58
 2724 01ca 00       		.uleb128 0
 2725 01cb 00       		.uleb128 0
 2726 01cc DE03     		.uleb128 .LEHB59-.LCOLDB23
 2727 01ce 05       		.uleb128 .LEHE59-.LEHB59
 2728 01cf F304     		.uleb128 .L227-.LCOLDB23
 2729 01d1 00       		.uleb128 0
 2730 01d2 F703     		.uleb128 .LEHB60-.LCOLDB23
 2731 01d4 44       		.uleb128 .LEHE60-.LEHB60
 2732 01d5 D204     		.uleb128 .L228-.LCOLDB23
 2733 01d7 00       		.uleb128 0
 2734 01d8 C304     		.uleb128 .LEHB61-.LCOLDB23
 2735 01da 05       		.uleb128 .LEHE61-.LEHB61
 2736 01db F304     		.uleb128 .L227-.LCOLDB23
 2737 01dd 00       		.uleb128 0
 2738 01de EE04     		.uleb128 .LEHB62-.LCOLDB23
 2739 01e0 05       		.uleb128 .LEHE62-.LEHB62
 2740 01e1 00       		.uleb128 0
 2741 01e2 00       		.uleb128 0
 2742 01e3 8B05     		.uleb128 .LEHB63-.LCOLDB23
 2743 01e5 05       		.uleb128 .LEHE63-.LEHB63
 2744 01e6 00       		.uleb128 0
 2745 01e7 00       		.uleb128 0
 2746              	.LLSDACSEC1601:
 2747 01e8 03       		.byte	0x3
 2748 01e9 00       		.byte	0
 2749 01ea 02       		.byte	0x2
 2750 01eb 7D       		.byte	0x7d
 2751 01ec 01       		.byte	0x1
 2752 01ed 7D       		.byte	0x7d
 2753 01ee 00       		.byte	0
 2754 01ef 7D       		.byte	0x7d
 2755              		.align 4
 2756 01f0 00000000 		.long	0
 2757              	
 2758 01f4 00000000 		.long	DW.ref._ZTISt9exception-.
 2759 01f8 00000000 		.long	DW.ref._ZTIN8UnitTest15AssertExceptionE-.
 2760              	.LLSDATTC1601:
 2761              		.section	.text.unlikely
 2762              		.text
 2764              		.section	.text.unlikely
 2766              	.LCOLDE23:
 2767              		.text
 2768              	.LHOTE23:
 2769              		.section	.text._ZNSt6vectorIN8UnitTest18DeferredTestResultESaIS1_EED2Ev,"axG",@progbits,_ZNSt6vect
 2770              		.align 2
 2771              		.p2align 4
 2772              		.weak	_ZNSt6vectorIN8UnitTest18DeferredTestResultESaIS1_EED2Ev
 2774              	_ZNSt6vectorIN8UnitTest18DeferredTestResultESaIS1_EED2Ev:
 2775              	.LFB1590:
 2776              		.cfi_startproc
 2777 0000 F30F1EFA 		endbr64
 2778 0004 4156     		pushq	%r14
 2779              		.cfi_def_cfa_offset 16
 2780              		.cfi_offset 14, -16
 2781 0006 4989FE   		movq	%rdi, %r14
 2782 0009 4155     		pushq	%r13
 2783              		.cfi_def_cfa_offset 24
 2784              		.cfi_offset 13, -24
 2785 000b 4154     		pushq	%r12
 2786              		.cfi_def_cfa_offset 32
 2787              		.cfi_offset 12, -32
 2788 000d 55       		pushq	%rbp
 2789              		.cfi_def_cfa_offset 40
 2790              		.cfi_offset 6, -40
 2791 000e 53       		pushq	%rbx
 2792              		.cfi_def_cfa_offset 48
 2793              		.cfi_offset 3, -48
 2794 000f 4C8B6F08 		movq	8(%rdi), %r13
 2795 0013 4C8B27   		movq	(%rdi), %r12
 2796 0016 4D39E5   		cmpq	%r12, %r13
 2797 0019 0F848D00 		je	.L246
 2797      0000
 2798 001f 90       		.p2align 4,,10
 2799              		.p2align 3
 2800              	.L258:
 2801 0020 498B5C24 		movq	104(%r12), %rbx
 2801      68
 2802 0025 498B6C24 		movq	96(%r12), %rbp
 2802      60
 2803 002a 4839EB   		cmpq	%rbp, %rbx
 2804 002d 7425     		je	.L247
 2805 002f 90       		.p2align 4,,10
 2806              		.p2align 3
 2807              	.L251:
 2808 0030 488B7D08 		movq	8(%rbp), %rdi
 2809 0034 488D4518 		leaq	24(%rbp), %rax
 2810 0038 4839C7   		cmpq	%rax, %rdi
 2811 003b 0F848700 		je	.L248
 2811      0000
 2812 0041 E8000000 		call	_ZdlPv@PLT
 2812      00
 2813 0046 4883C528 		addq	$40, %rbp
 2814 004a 4839DD   		cmpq	%rbx, %rbp
 2815 004d 75E1     		jne	.L251
 2816              	.L250:
 2817 004f 498B6C24 		movq	96(%r12), %rbp
 2817      60
 2818              	.L247:
 2819 0054 4885ED   		testq	%rbp, %rbp
 2820 0057 7408     		je	.L252
 2821 0059 4889EF   		movq	%rbp, %rdi
 2822 005c E8000000 		call	_ZdlPv@PLT
 2822      00
 2823              	.L252:
 2824 0061 498B7C24 		movq	64(%r12), %rdi
 2824      40
 2825 0066 498D4424 		leaq	80(%r12), %rax
 2825      50
 2826 006b 4839C7   		cmpq	%rax, %rdi
 2827 006e 7405     		je	.L253
 2828 0070 E8000000 		call	_ZdlPv@PLT
 2828      00
 2829              	.L253:
 2830 0075 498B7C24 		movq	32(%r12), %rdi
 2830      20
 2831 007a 498D4424 		leaq	48(%r12), %rax
 2831      30
 2832 007f 4839C7   		cmpq	%rax, %rdi
 2833 0082 7405     		je	.L254
 2834 0084 E8000000 		call	_ZdlPv@PLT
 2834      00
 2835              	.L254:
 2836 0089 498B3C24 		movq	(%r12), %rdi
 2837 008d 498D4424 		leaq	16(%r12), %rax
 2837      10
 2838 0092 4839C7   		cmpq	%rax, %rdi
 2839 0095 7449     		je	.L255
 2840 0097 E8000000 		call	_ZdlPv@PLT
 2840      00
 2841 009c 4983EC80 		subq	$-128, %r12
 2842 00a0 4D39E5   		cmpq	%r12, %r13
 2843 00a3 0F8577FF 		jne	.L258
 2843      FFFF
 2844              	.L257:
 2845 00a9 4D8B26   		movq	(%r14), %r12
 2846              	.L246:
 2847 00ac 4D85E4   		testq	%r12, %r12
 2848 00af 743E     		je	.L245
 2849 00b1 5B       		popq	%rbx
 2850              		.cfi_remember_state
 2851              		.cfi_def_cfa_offset 40
 2852 00b2 4C89E7   		movq	%r12, %rdi
 2853 00b5 5D       		popq	%rbp
 2854              		.cfi_def_cfa_offset 32
 2855 00b6 415C     		popq	%r12
 2856              		.cfi_def_cfa_offset 24
 2857 00b8 415D     		popq	%r13
 2858              		.cfi_def_cfa_offset 16
 2859 00ba 415E     		popq	%r14
 2860              		.cfi_def_cfa_offset 8
 2861 00bc E9000000 		jmp	_ZdlPv@PLT
 2861      00
 2862              		.p2align 4,,10
 2863 00c1 0F1F8000 		.p2align 3
 2863      000000
 2864              	.L248:
 2865              		.cfi_restore_state
 2866 00c8 4883C528 		addq	$40, %rbp
 2867 00cc 4839EB   		cmpq	%rbp, %rbx
 2868 00cf 0F855BFF 		jne	.L251
 2868      FFFF
 2869 00d5 E975FFFF 		jmp	.L250
 2869      FF
 2870 00da 660F1F44 		.p2align 4,,10
 2870      0000
 2871              		.p2align 3
 2872              	.L255:
 2873 00e0 4983EC80 		subq	$-128, %r12
 2874 00e4 4D39E5   		cmpq	%r12, %r13
 2875 00e7 0F8533FF 		jne	.L258
 2875      FFFF
 2876 00ed EBBA     		jmp	.L257
 2877              	.L245:
 2878 00ef 5B       		popq	%rbx
 2879              		.cfi_def_cfa_offset 40
 2880 00f0 5D       		popq	%rbp
 2881              		.cfi_def_cfa_offset 32
 2882 00f1 415C     		popq	%r12
 2883              		.cfi_def_cfa_offset 24
 2884 00f3 415D     		popq	%r13
 2885              		.cfi_def_cfa_offset 16
 2886 00f5 415E     		popq	%r14
 2887              		.cfi_def_cfa_offset 8
 2888 00f7 C3       		ret
 2889              		.cfi_endproc
 2890              	.LFE1590:
 2892              		.weak	_ZNSt6vectorIN8UnitTest18DeferredTestResultESaIS1_EED1Ev
 2893              		.set	_ZNSt6vectorIN8UnitTest18DeferredTestResultESaIS1_EED1Ev,_ZNSt6vectorIN8UnitTest18DeferredTes
 2894              		.section	.rodata.str1.8
 2895 00d9 00000000 		.align 8
 2895      000000
 2896              	.LC24:
 2897 00e0 556E6861 		.string	"Unhandled exception while destroying fixture DeferredTestReporterFixture"
 2897      6E646C65 
 2897      64206578 
 2897      63657074 
 2897      696F6E20 
 2898 0129 00000000 		.align 8
 2898      000000
 2899              	.LC25:
 2900 0130 556E6861 		.string	"Unhandled exception while constructing fixture DeferredTestReporterFixture"
 2900      6E646C65 
 2900      64206578 
 2900      63657074 
 2900      696F6E20 
 2901              		.section	.text.unlikely
 2902 0677 90       		.align 2
 2903              	.LCOLDB26:
 2904              		.text
 2905              	.LHOTB26:
 2906 0ca3 90       		.align 2
 2907 0ca4 66662E0F 		.p2align 4
 2907      1F840000 
 2907      00000090 
 2909              	_ZNK8UnitTest12_GLOBAL__N_169TestDeferredTestReporterFixtureReportTestStartCreatesANewDeferredTest7
 2910              	.LFB1498:
 2911              		.cfi_startproc
 2912              		.cfi_personality 0x9b,DW.ref.__gxx_personality_v0
 2913              		.cfi_lsda 0x1b,.LLSDA1498
 2914 0cb0 F30F1EFA 		endbr64
 2915 0cb4 4157     		pushq	%r15
 2916              		.cfi_def_cfa_offset 16
 2917              		.cfi_offset 15, -16
 2918 0cb6 BA6D6500 		movl	$25965, %edx
 2918      00
 2919 0cbb B9697400 		movl	$29801, %ecx
 2919      00
 2920 0cc0 BE2E6800 		movl	$26670, %esi
 2920      00
 2921 0cc5 4156     		pushq	%r14
 2922              		.cfi_def_cfa_offset 24
 2923              		.cfi_offset 14, -24
 2924 0cc7 41B80C00 		movl	$12, %r8d
 2924      0000
 2925 0ccd 4155     		pushq	%r13
 2926              		.cfi_def_cfa_offset 32
 2927              		.cfi_offset 13, -32
 2928 0ccf 4154     		pushq	%r12
 2929              		.cfi_def_cfa_offset 40
 2930              		.cfi_offset 12, -40
 2931 0cd1 55       		pushq	%rbp
 2932              		.cfi_def_cfa_offset 48
 2933              		.cfi_offset 6, -48
 2934 0cd2 53       		pushq	%rbx
 2935              		.cfi_def_cfa_offset 56
 2936              		.cfi_offset 3, -56
 2937 0cd3 4881ECD8 		subq	$472, %rsp
 2937      010000
 2938              		.cfi_def_cfa_offset 528
 2939 0cda 48893C24 		movq	%rdi, (%rsp)
 2940 0cde 488D6C24 		leaq	96(%rsp), %rbp
 2940      60
 2941 0ce3 4C8DA424 		leaq	128(%rsp), %r12
 2941      80000000 
 2942 0ceb 4C8DAC24 		leaq	160(%rsp), %r13
 2942      A0000000 
 2943 0cf3 64488B04 		movq	%fs:40, %rax
 2943      25280000 
 2943      00
 2944 0cfc 48898424 		movq	%rax, 456(%rsp)
 2944      C8010000 
 2945 0d04 4889F8   		movq	%rdi, %rax
 2946 0d07 66895424 		movw	%dx, 108(%rsp)
 2946      6C
 2947 0d0c 4C89E2   		movq	%r12, %rdx
 2948 0d0f 488DBC24 		leaq	184(%rsp), %rdi
 2948      B8000000 
 2949 0d17 66898C24 		movw	%cx, 140(%rsp)
 2949      8C000000 
 2950 0d1f 4C89E9   		movq	%r13, %rcx
 2951 0d22 6689B424 		movw	%si, 168(%rsp)
 2951      A8000000 
 2952 0d2a 4889EE   		movq	%rbp, %rsi
 2953 0d2d 48C74424 		movq	$0, 56(%rsp)
 2953      38000000 
 2953      00
 2954 0d36 48C74424 		movq	$0, 64(%rsp)
 2954      40000000 
 2954      00
 2955 0d3f 48C74424 		movq	$0, 72(%rsp)
 2955      48000000 
 2955      00
 2956 0d48 4C8D7808 		leaq	8(%rax), %r15
 2957 0d4c 488D0500 		leaq	16+_ZTVN8UnitTest12_GLOBAL__N_124MockDeferredTestReporterE(%rip), %rax
 2957      000000
 2958 0d53 48896C24 		movq	%rbp, 80(%rsp)
 2958      50
 2959 0d58 48894424 		movq	%rax, 48(%rsp)
 2959      30
 2960 0d5d 48B8556E 		movabsq	$7301572450962730581, %rax
 2960      69717565 
 2960      5465
 2961 0d67 48894424 		movq	%rax, 96(%rsp)
 2961      60
 2962 0d6c 48898424 		movq	%rax, 128(%rsp)
 2962      80000000 
 2963 0d74 48B86669 		movabsq	$7308604897068083558, %rax
 2963      6C656E61 
 2963      6D65
 2964 0d7e C7442468 		movl	$1632531571, 104(%rsp)
 2964      73744E61 
 2965 0d86 48C74424 		movq	$14, 88(%rsp)
 2965      580E0000 
 2965      00
 2966 0d8f C644246E 		movb	$0, 110(%rsp)
 2966      00
 2967 0d94 4C896424 		movq	%r12, 112(%rsp)
 2967      70
 2968 0d99 C7842488 		movl	$1968403571, 136(%rsp)
 2968      00000073 
 2968      745375
 2969 0da4 C684248E 		movb	$101, 142(%rsp)
 2969      00000065 
 2970 0dac 48C74424 		movq	$15, 120(%rsp)
 2970      780F0000 
 2970      00
 2971 0db5 C684248F 		movb	$0, 143(%rsp)
 2971      00000000 
 2972 0dbd 4C89AC24 		movq	%r13, 144(%rsp)
 2972      90000000 
 2973 0dc5 48898424 		movq	%rax, 160(%rsp)
 2973      A0000000 
 2974 0dcd 48C78424 		movq	$10, 152(%rsp)
 2974      98000000 
 2974      0A000000 
 2975 0dd9 C68424AA 		movb	$0, 170(%rsp)
 2975      00000000 
 2976 0de1 C78424B0 		movl	$12, 176(%rsp)
 2976      0000000C 
 2976      000000
 2977              	.LEHB64:
 2978 0dec E8000000 		call	_ZN8UnitTest11TestDetailsC1EPKcS2_S2_i@PLT
 2978      00
 2979              	.LEHE64:
 2980 0df1 4C8D7424 		leaq	48(%rsp), %r14
 2980      30
 2981 0df6 4C89FE   		movq	%r15, %rsi
 2982 0df9 4C89BC24 		movq	%r15, 216(%rsp)
 2982      D8000000 
 2983 0e01 4C89F7   		movq	%r14, %rdi
 2984              	.LEHB65:
 2985 0e04 E8C7FAFF 		call	_ZN8UnitTest11ExecuteTestINS_12_GLOBAL__N_171DeferredTestReporterFixtureReportTestStartCreate
 2985      FF
 2986              	.LEHE65:
 2987 0e09 488BBC24 		movq	144(%rsp), %rdi
 2987      90000000 
 2988 0e11 4C39EF   		cmpq	%r13, %rdi
 2989 0e14 7405     		je	.L271
 2990 0e16 E8000000 		call	_ZdlPv@PLT
 2990      00
 2991              	.L271:
 2992 0e1b 488B7C24 		movq	112(%rsp), %rdi
 2992      70
 2993 0e20 4C39E7   		cmpq	%r12, %rdi
 2994 0e23 7405     		je	.L272
 2995 0e25 E8000000 		call	_ZdlPv@PLT
 2995      00
 2996              	.L272:
 2997 0e2a 488B7C24 		movq	80(%rsp), %rdi
 2997      50
 2998 0e2f 4839EF   		cmpq	%rbp, %rdi
 2999 0e32 7405     		je	.L273
 3000 0e34 E8000000 		call	_ZdlPv@PLT
 3000      00
 3001              	.L273:
 3002 0e39 4C8B6C24 		movq	64(%rsp), %r13
 3002      40
 3003 0e3e 488B6C24 		movq	56(%rsp), %rbp
 3003      38
 3004 0e43 488D0500 		leaq	16+_ZTVN8UnitTest20DeferredTestReporterE(%rip), %rax
 3004      000000
 3005 0e4a 48894424 		movq	%rax, 48(%rsp)
 3005      30
 3006 0e4f 4939ED   		cmpq	%rbp, %r13
 3007 0e52 0F848C00 		je	.L274
 3007      0000
 3008 0e58 0F1F8400 		.p2align 4,,10
 3008      00000000 
 3009              		.p2align 3
 3010              	.L286:
 3011 0e60 4C8B6568 		movq	104(%rbp), %r12
 3012 0e64 488B5D60 		movq	96(%rbp), %rbx
 3013 0e68 4939DC   		cmpq	%rbx, %r12
 3014 0e6b 7426     		je	.L275
 3015 0e6d 0F1F00   		.p2align 4,,10
 3016              		.p2align 3
 3017              	.L279:
 3018 0e70 488B7B08 		movq	8(%rbx), %rdi
 3019 0e74 488D4318 		leaq	24(%rbx), %rax
 3020 0e78 4839C7   		cmpq	%rax, %rdi
 3021 0e7b 0F849F00 		je	.L276
 3021      0000
 3022 0e81 E8000000 		call	_ZdlPv@PLT
 3022      00
 3023 0e86 4883C328 		addq	$40, %rbx
 3024 0e8a 4C39E3   		cmpq	%r12, %rbx
 3025 0e8d 75E1     		jne	.L279
 3026              	.L278:
 3027 0e8f 488B5D60 		movq	96(%rbp), %rbx
 3028              	.L275:
 3029 0e93 4885DB   		testq	%rbx, %rbx
 3030 0e96 7408     		je	.L280
 3031 0e98 4889DF   		movq	%rbx, %rdi
 3032 0e9b E8000000 		call	_ZdlPv@PLT
 3032      00
 3033              	.L280:
 3034 0ea0 488B7D40 		movq	64(%rbp), %rdi
 3035 0ea4 488D4550 		leaq	80(%rbp), %rax
 3036 0ea8 4839C7   		cmpq	%rax, %rdi
 3037 0eab 7405     		je	.L281
 3038 0ead E8000000 		call	_ZdlPv@PLT
 3038      00
 3039              	.L281:
 3040 0eb2 488B7D20 		movq	32(%rbp), %rdi
 3041 0eb6 488D4530 		leaq	48(%rbp), %rax
 3042 0eba 4839C7   		cmpq	%rax, %rdi
 3043 0ebd 7405     		je	.L282
 3044 0ebf E8000000 		call	_ZdlPv@PLT
 3044      00
 3045              	.L282:
 3046 0ec4 488B7D00 		movq	0(%rbp), %rdi
 3047 0ec8 488D4510 		leaq	16(%rbp), %rax
 3048 0ecc 4839C7   		cmpq	%rax, %rdi
 3049 0ecf 7467     		je	.L283
 3050 0ed1 E8000000 		call	_ZdlPv@PLT
 3050      00
 3051 0ed6 4883ED80 		subq	$-128, %rbp
 3052 0eda 4C39ED   		cmpq	%r13, %rbp
 3053 0edd 7581     		jne	.L286
 3054              	.L285:
 3055 0edf 488B6C24 		movq	56(%rsp), %rbp
 3055      38
 3056              	.L274:
 3057 0ee4 4885ED   		testq	%rbp, %rbp
 3058 0ee7 7408     		je	.L287
 3059 0ee9 4889EF   		movq	%rbp, %rdi
 3060 0eec E8000000 		call	_ZdlPv@PLT
 3060      00
 3061              	.L287:
 3062 0ef1 4C89F7   		movq	%r14, %rdi
 3063              	.LEHB66:
 3064 0ef4 E8000000 		call	_ZN8UnitTest12TestReporterD2Ev@PLT
 3064      00
 3065              	.LEHE66:
 3066 0ef9 488B8424 		movq	456(%rsp), %rax
 3066      C8010000 
 3067 0f01 64482B04 		subq	%fs:40, %rax
 3067      25280000 
 3067      00
 3068 0f0a 753B     		jne	.L326
 3069 0f0c 4881C4D8 		addq	$472, %rsp
 3069      010000
 3070              		.cfi_remember_state
 3071              		.cfi_def_cfa_offset 56
 3072 0f13 5B       		popq	%rbx
 3073              		.cfi_def_cfa_offset 48
 3074 0f14 5D       		popq	%rbp
 3075              		.cfi_def_cfa_offset 40
 3076 0f15 415C     		popq	%r12
 3077              		.cfi_def_cfa_offset 32
 3078 0f17 415D     		popq	%r13
 3079              		.cfi_def_cfa_offset 24
 3080 0f19 415E     		popq	%r14
 3081              		.cfi_def_cfa_offset 16
 3082 0f1b 415F     		popq	%r15
 3083              		.cfi_def_cfa_offset 8
 3084 0f1d C3       		ret
 3085 0f1e 6690     		.p2align 4,,10
 3086              		.p2align 3
 3087              	.L276:
 3088              		.cfi_restore_state
 3089 0f20 4883C328 		addq	$40, %rbx
 3090 0f24 4939DC   		cmpq	%rbx, %r12
 3091 0f27 0F8543FF 		jne	.L279
 3091      FFFF
 3092 0f2d E95DFFFF 		jmp	.L278
 3092      FF
 3093              		.p2align 4,,10
 3094 0f32 660F1F44 		.p2align 3
 3094      0000
 3095              	.L283:
 3096 0f38 4883ED80 		subq	$-128, %rbp
 3097 0f3c 4939ED   		cmpq	%rbp, %r13
 3098 0f3f 0F851BFF 		jne	.L286
 3098      FFFF
 3099 0f45 EB98     		jmp	.L285
 3100              	.L326:
 3101 0f47 E8000000 		call	__stack_chk_fail@PLT
 3101      00
 3102              	.L304:
 3103 0f4c F30F1EFA 		endbr64
 3104 0f50 4889C7   		movq	%rax, %rdi
 3105 0f53 4889D0   		movq	%rdx, %rax
 3106 0f56 E9000000 		jmp	.L321
 3106      00
 3107              	.L305:
 3108 0f5b F30F1EFA 		endbr64
 3109 0f5f 4889C5   		movq	%rax, %rbp
 3110 0f62 4989D4   		movq	%rdx, %r12
 3111 0f65 E9000000 		jmp	.L290
 3111      00
 3112              	.L310:
 3113 0f6a F30F1EFA 		endbr64
 3114 0f6e 48895424 		movq	%rdx, 8(%rsp)
 3114      08
 3115 0f73 4889C3   		movq	%rax, %rbx
 3116 0f76 E9000000 		jmp	.L266
 3116      00
 3117              		.section	.gcc_except_table
 3118              		.align 4
 3119              	.LLSDA1498:
 3120 01fc FF       		.byte	0xff
 3121 01fd 9B       		.byte	0x9b
 3122 01fe 29       		.uleb128 .LLSDATT1498-.LLSDATTD1498
 3123              	.LLSDATTD1498:
 3124 01ff 01       		.byte	0x1
 3125 0200 12       		.uleb128 .LLSDACSE1498-.LLSDACSB1498
 3126              	.LLSDACSB1498:
 3127 0201 BC02     		.uleb128 .LEHB64-.LFB1498
 3128 0203 05       		.uleb128 .LEHE64-.LEHB64
 3129 0204 BA05     		.uleb128 .L310-.LFB1498
 3130 0206 07       		.uleb128 0x7
 3131 0207 D402     		.uleb128 .LEHB65-.LFB1498
 3132 0209 05       		.uleb128 .LEHE65-.LEHB65
 3133 020a AB05     		.uleb128 .L305-.LFB1498
 3134 020c 07       		.uleb128 0x7
 3135 020d C404     		.uleb128 .LEHB66-.LFB1498
 3136 020f 05       		.uleb128 .LEHE66-.LEHB66
 3137 0210 9C05     		.uleb128 .L304-.LFB1498
 3138 0212 05       		.uleb128 0x5
 3139              	.LLSDACSE1498:
 3140 0213 03       		.byte	0x3
 3141 0214 00       		.byte	0
 3142 0215 02       		.byte	0x2
 3143 0216 7D       		.byte	0x7d
 3144 0217 01       		.byte	0x1
 3145 0218 7D       		.byte	0x7d
 3146 0219 00       		.byte	0
 3147 021a 7D       		.byte	0x7d
 3148 021b 00       		.align 4
 3149 021c 00000000 		.long	0
 3150              	
 3151 0220 00000000 		.long	DW.ref._ZTISt9exception-.
 3152 0224 00000000 		.long	DW.ref._ZTIN8UnitTest15AssertExceptionE-.
 3153              	.LLSDATT1498:
 3154              		.text
 3155              		.cfi_endproc
 3156              		.section	.text.unlikely
 3157              		.cfi_startproc
 3158              		.cfi_personality 0x9b,DW.ref.__gxx_personality_v0
 3159              		.cfi_lsda 0x1b,.LLSDAC1498
 3161              	_ZNK8UnitTest12_GLOBAL__N_169TestDeferredTestReporterFixtureReportTestStartCreatesANewDeferredTest7
 3162              	.LFSB1498:
 3163              	.L290:
 3164              		.cfi_def_cfa_offset 528
 3165              		.cfi_offset 3, -56
 3166              		.cfi_offset 6, -48
 3167              		.cfi_offset 12, -40
 3168              		.cfi_offset 13, -32
 3169              		.cfi_offset 14, -24
 3170              		.cfi_offset 15, -16
 3171 0678 4C89F7   		movq	%r14, %rdi
 3172 067b E8F0F9FF 		call	_ZN8UnitTest12_GLOBAL__N_127DeferredTestReporterFixtureD2Ev
 3172      FF
 3173 0680 4889EF   		movq	%rbp, %rdi
 3174 0683 4C89E0   		movq	%r12, %rax
 3175              	.L321:
 3176 0686 BD010000 		movl	$1, %ebp
 3176      00
 3177              	.L270:
 3178 068b 4883F801 		cmpq	$1, %rax
 3179 068f 0F84D600 		je	.L291
 3179      0000
 3180 0695 4883F802 		cmpq	$2, %rax
 3181 0699 0F845701 		je	.L327
 3181      0000
 3182 069f E8000000 		call	__cxa_begin_catch@PLT
 3182      00
 3183 06a4 4084ED   		testb	%bpl, %bpl
 3184 06a7 0F85D201 		jne	.L328
 3184      0000
 3185              	.LEHB67:
 3186 06ad E8000000 		call	_ZN8UnitTest11CurrentTest7ResultsEv@PLT
 3186      00
 3187 06b2 488D6C24 		leaq	16(%rsp), %rbp
 3187      10
 3188 06b7 BA2E0000 		movl	$46, %edx
 3188      00
 3189 06bc 4C89FE   		movq	%r15, %rsi
 3190 06bf 4C8B20   		movq	(%rax), %r12
 3191 06c2 4889EF   		movq	%rbp, %rdi
 3192 06c5 E8000000 		call	_ZN8UnitTest11TestDetailsC1ERKS0_i@PLT
 3192      00
 3193 06ca 488D1500 		leaq	.LC25(%rip), %rdx
 3193      000000
 3194 06d1 4889EE   		movq	%rbp, %rsi
 3195 06d4 4C89E7   		movq	%r12, %rdi
 3196 06d7 E8000000 		call	_ZN8UnitTest11TestResults13OnTestFailureERKNS_11TestDetailsEPKc@PLT
 3196      00
 3197              	.LEHE67:
 3198              	.L297:
 3199 06dc 488B8424 		movq	456(%rsp), %rax
 3199      C8010000 
 3200 06e4 64482B04 		subq	%fs:40, %rax
 3200      25280000 
 3200      00
 3201 06ed 0F85FE00 		jne	.L323
 3201      0000
 3202 06f3 4881C4D8 		addq	$472, %rsp
 3202      010000
 3203              		.cfi_remember_state
 3204              		.cfi_def_cfa_offset 56
 3205 06fa 5B       		popq	%rbx
 3206              		.cfi_def_cfa_offset 48
 3207 06fb 5D       		popq	%rbp
 3208              		.cfi_def_cfa_offset 40
 3209 06fc 415C     		popq	%r12
 3210              		.cfi_def_cfa_offset 32
 3211 06fe 415D     		popq	%r13
 3212              		.cfi_def_cfa_offset 24
 3213 0700 415E     		popq	%r14
 3214              		.cfi_def_cfa_offset 16
 3215 0702 415F     		popq	%r15
 3216              		.cfi_def_cfa_offset 8
 3217              	.LEHB68:
 3218 0704 E9000000 		jmp	__cxa_end_catch@PLT
 3218      00
 3219              	.LEHE68:
 3220              	.L266:
 3221              		.cfi_restore_state
 3222 0709 488BBC24 		movq	144(%rsp), %rdi
 3222      90000000 
 3223 0711 4C39EF   		cmpq	%r13, %rdi
 3224 0714 7405     		je	.L267
 3225 0716 E8000000 		call	_ZdlPv@PLT
 3225      00
 3226              	.L267:
 3227 071b 488B7C24 		movq	112(%rsp), %rdi
 3227      70
 3228 0720 4C39E7   		cmpq	%r12, %rdi
 3229 0723 7405     		je	.L268
 3230 0725 E8000000 		call	_ZdlPv@PLT
 3230      00
 3231              	.L268:
 3232 072a 488B7C24 		movq	80(%rsp), %rdi
 3232      50
 3233 072f 4839EF   		cmpq	%rbp, %rdi
 3234 0732 7405     		je	.L269
 3235 0734 E8000000 		call	_ZdlPv@PLT
 3235      00
 3236              	.L269:
 3237 0739 488D0500 		leaq	16+_ZTVN8UnitTest20DeferredTestReporterE(%rip), %rax
 3237      000000
 3238 0740 488D7C24 		leaq	56(%rsp), %rdi
 3238      38
 3239 0745 31ED     		xorl	%ebp, %ebp
 3240 0747 4C8D7424 		leaq	48(%rsp), %r14
 3240      30
 3241 074c 48894424 		movq	%rax, 48(%rsp)
 3241      30
 3242 0751 E8000000 		call	_ZNSt6vectorIN8UnitTest18DeferredTestResultESaIS1_EED1Ev
 3242      00
 3243 0756 4C89F7   		movq	%r14, %rdi
 3244 0759 E8000000 		call	_ZN8UnitTest12TestReporterD2Ev@PLT
 3244      00
 3245 075e 488B4424 		movq	8(%rsp), %rax
 3245      08
 3246 0763 4889DF   		movq	%rbx, %rdi
 3247 0766 E920FFFF 		jmp	.L270
 3247      FF
 3248              	.L291:
 3249 076b E8000000 		call	__cxa_begin_catch@PLT
 3249      00
 3250 0770 4889C5   		movq	%rax, %rbp
 3251              	.LEHB69:
 3252 0773 E8000000 		call	_ZN8UnitTest11CurrentTest7ResultsEv@PLT
 3252      00
 3253 0778 4C8B30   		movq	(%rax), %r14
 3254 077b 488B4500 		movq	0(%rbp), %rax
 3255 077f 4889EF   		movq	%rbp, %rdi
 3256 0782 FF5010   		call	*16(%rax)
 3257 0785 4889EF   		movq	%rbp, %rdi
 3258 0788 4989C4   		movq	%rax, %r12
 3259 078b E8000000 		call	_ZNK8UnitTest15AssertException10LineNumberEv@PLT
 3259      00
 3260 0790 4889EF   		movq	%rbp, %rdi
 3261 0793 4189C5   		movl	%eax, %r13d
 3262 0796 E8000000 		call	_ZNK8UnitTest15AssertException8FilenameEv@PLT
 3262      00
 3263 079b 4889C1   		movq	%rax, %rcx
 3264 079e 488B0424 		movq	(%rsp), %rax
 3265 07a2 488D6C24 		leaq	16(%rsp), %rbp
 3265      10
 3266 07a7 4589E8   		movl	%r13d, %r8d
 3267 07aa 4889EF   		movq	%rbp, %rdi
 3268 07ad 488B5008 		movq	8(%rax), %rdx
 3269 07b1 488B7010 		movq	16(%rax), %rsi
 3270 07b5 E8000000 		call	_ZN8UnitTest11TestDetailsC1EPKcS2_S2_i@PLT
 3270      00
 3271 07ba 4C89E2   		movq	%r12, %rdx
 3272 07bd 4889EE   		movq	%rbp, %rsi
 3273 07c0 4C89F7   		movq	%r14, %rdi
 3274 07c3 E8000000 		call	_ZN8UnitTest11TestResults13OnTestFailureERKNS_11TestDetailsEPKc@PLT
 3274      00
 3275              	.LEHE69:
 3276              	.L325:
 3277 07c8 488B8424 		movq	456(%rsp), %rax
 3277      C8010000 
 3278 07d0 64482B04 		subq	%fs:40, %rax
 3278      25280000 
 3278      00
 3279 07d9 7516     		jne	.L323
 3280 07db 4881C4D8 		addq	$472, %rsp
 3280      010000
 3281              		.cfi_remember_state
 3282              		.cfi_def_cfa_offset 56
 3283 07e2 5B       		popq	%rbx
 3284              		.cfi_def_cfa_offset 48
 3285 07e3 5D       		popq	%rbp
 3286              		.cfi_def_cfa_offset 40
 3287 07e4 415C     		popq	%r12
 3288              		.cfi_def_cfa_offset 32
 3289 07e6 415D     		popq	%r13
 3290              		.cfi_def_cfa_offset 24
 3291 07e8 415E     		popq	%r14
 3292              		.cfi_def_cfa_offset 16
 3293 07ea 415F     		popq	%r15
 3294              		.cfi_def_cfa_offset 8
 3295 07ec E9000000 		jmp	__cxa_end_catch@PLT
 3295      00
 3296              	.L323:
 3297              		.cfi_restore_state
 3298 07f1 E8000000 		call	__stack_chk_fail@PLT
 3298      00
 3299              	.L327:
 3300 07f6 E8000000 		call	__cxa_begin_catch@PLT
 3300      00
 3301 07fb 4C89F7   		movq	%r14, %rdi
 3302 07fe 4889C5   		movq	%rax, %rbp
 3303              	.LEHB70:
 3304 0801 E8000000 		call	_ZN8UnitTest15MemoryOutStreamC1Ev
 3304      00
 3305              	.LEHE70:
 3306 0806 BA150000 		movl	$21, %edx
 3306      00
 3307 080b 488D3500 		leaq	.LC19(%rip), %rsi
 3307      000000
 3308 0812 4C89F7   		movq	%r14, %rdi
 3309              	.LEHB71:
 3310 0815 E8000000 		call	_ZSt16__ostream_insertIcSt11char_traitsIcEERSt13basic_ostreamIT_T0_ES6_PKS3_l@PLT
 3310      00
 3311 081a 488B4500 		movq	0(%rbp), %rax
 3312 081e 4889EF   		movq	%rbp, %rdi
 3313 0821 FF5010   		call	*16(%rax)
 3314 0824 4C89F7   		movq	%r14, %rdi
 3315 0827 4889C6   		movq	%rax, %rsi
 3316 082a E8000000 		call	_ZStlsISt11char_traitsIcEERSt13basic_ostreamIcT_ES5_PKc@PLT
 3316      00
 3317 082f E8000000 		call	_ZN8UnitTest11CurrentTest7ResultsEv@PLT
 3317      00
 3318 0834 4C89F7   		movq	%r14, %rdi
 3319 0837 488B28   		movq	(%rax), %rbp
 3320 083a E8000000 		call	_ZNK8UnitTest15MemoryOutStream7GetTextEv@PLT
 3320      00
 3321 083f 4889C2   		movq	%rax, %rdx
 3322 0842 4C89FE   		movq	%r15, %rsi
 3323 0845 4889EF   		movq	%rbp, %rdi
 3324 0848 E8000000 		call	_ZN8UnitTest11TestResults13OnTestFailureERKNS_11TestDetailsEPKc@PLT
 3324      00
 3325              	.LEHE71:
 3326 084d 4C89F7   		movq	%r14, %rdi
 3327              	.LEHB72:
 3328 0850 E8000000 		call	_ZN8UnitTest15MemoryOutStreamD1Ev
 3328      00
 3329              	.LEHE72:
 3330 0855 E96EFFFF 		jmp	.L325
 3330      FF
 3331              	.L308:
 3332 085a F30F1EFA 		endbr64
 3333 085e 4C89F7   		movq	%r14, %rdi
 3334 0861 4889C5   		movq	%rax, %rbp
 3335 0864 E8000000 		call	_ZN8UnitTest15MemoryOutStreamD1Ev
 3335      00
 3336              	.L301:
 3337 0869 E8000000 		call	__cxa_end_catch@PLT
 3337      00
 3338 086e 4889EF   		movq	%rbp, %rdi
 3339              	.LEHB73:
 3340 0871 E8000000 		call	_Unwind_Resume@PLT
 3340      00
 3341              	.LEHE73:
 3342              	.L307:
 3343 0876 F30F1EFA 		endbr64
 3344              	.L324:
 3345 087a 4889C5   		movq	%rax, %rbp
 3346 087d EBEA     		jmp	.L301
 3347              	.L328:
 3348              	.LEHB74:
 3349 087f E8000000 		call	_ZN8UnitTest11CurrentTest7ResultsEv@PLT
 3349      00
 3350 0884 488D6C24 		leaq	16(%rsp), %rbp
 3350      10
 3351 0889 BA2E0000 		movl	$46, %edx
 3351      00
 3352 088e 4C89FE   		movq	%r15, %rsi
 3353 0891 4C8B20   		movq	(%rax), %r12
 3354 0894 4889EF   		movq	%rbp, %rdi
 3355 0897 E8000000 		call	_ZN8UnitTest11TestDetailsC1ERKS0_i@PLT
 3355      00
 3356 089c 488D1500 		leaq	.LC24(%rip), %rdx
 3356      000000
 3357 08a3 4889EE   		movq	%rbp, %rsi
 3358 08a6 4C89E7   		movq	%r12, %rdi
 3359 08a9 E8000000 		call	_ZN8UnitTest11TestResults13OnTestFailureERKNS_11TestDetailsEPKc@PLT
 3359      00
 3360              	.LEHE74:
 3361 08ae E929FEFF 		jmp	.L297
 3361      FF
 3362              	.L309:
 3363 08b3 F30F1EFA 		endbr64
 3364 08b7 4889C5   		movq	%rax, %rbp
 3365 08ba E8000000 		call	__cxa_end_catch@PLT
 3365      00
 3366 08bf 4889EF   		movq	%rbp, %rdi
 3367              	.LEHB75:
 3368 08c2 E8000000 		call	_Unwind_Resume@PLT
 3368      00
 3369              	.LEHE75:
 3370              	.L306:
 3371 08c7 F30F1EFA 		endbr64
 3372 08cb EBAD     		jmp	.L324
 3373              		.cfi_endproc
 3374              	.LFE1498:
 3375              		.section	.gcc_except_table
 3376              		.align 4
 3377              	.LLSDAC1498:
 3378 0228 FF       		.byte	0xff
 3379 0229 9B       		.byte	0x9b
 3380 022a 49       		.uleb128 .LLSDATTC1498-.LLSDATTDC1498
 3381              	.LLSDATTDC1498:
 3382 022b 01       		.byte	0x1
 3383 022c 32       		.uleb128 .LLSDACSEC1498-.LLSDACSBC1498
 3384              	.LLSDACSBC1498:
 3385 022d 35       		.uleb128 .LEHB67-.LCOLDB26
 3386 022e 2F       		.uleb128 .LEHE67-.LEHB67
 3387 022f BB04     		.uleb128 .L309-.LCOLDB26
 3388 0231 00       		.uleb128 0
 3389 0232 8C01     		.uleb128 .LEHB68-.LCOLDB26
 3390 0234 05       		.uleb128 .LEHE68-.LEHB68
 3391 0235 00       		.uleb128 0
 3392 0236 00       		.uleb128 0
 3393 0237 FB01     		.uleb128 .LEHB69-.LCOLDB26
 3394 0239 55       		.uleb128 .LEHE69-.LEHB69
 3395 023a CF04     		.uleb128 .L306-.LCOLDB26
 3396 023c 00       		.uleb128 0
 3397 023d 8903     		.uleb128 .LEHB70-.LCOLDB26
 3398 023f 05       		.uleb128 .LEHE70-.LEHB70
 3399 0240 FE03     		.uleb128 .L307-.LCOLDB26
 3400 0242 00       		.uleb128 0
 3401 0243 9D03     		.uleb128 .LEHB71-.LCOLDB26
 3402 0245 38       		.uleb128 .LEHE71-.LEHB71
 3403 0246 E203     		.uleb128 .L308-.LCOLDB26
 3404 0248 00       		.uleb128 0
 3405 0249 D803     		.uleb128 .LEHB72-.LCOLDB26
 3406 024b 05       		.uleb128 .LEHE72-.LEHB72
 3407 024c FE03     		.uleb128 .L307-.LCOLDB26
 3408 024e 00       		.uleb128 0
 3409 024f F903     		.uleb128 .LEHB73-.LCOLDB26
 3410 0251 05       		.uleb128 .LEHE73-.LEHB73
 3411 0252 00       		.uleb128 0
 3412 0253 00       		.uleb128 0
 3413 0254 8704     		.uleb128 .LEHB74-.LCOLDB26
 3414 0256 2F       		.uleb128 .LEHE74-.LEHB74
 3415 0257 BB04     		.uleb128 .L309-.LCOLDB26
 3416 0259 00       		.uleb128 0
 3417 025a CA04     		.uleb128 .LEHB75-.LCOLDB26
 3418 025c 05       		.uleb128 .LEHE75-.LEHB75
 3419 025d 00       		.uleb128 0
 3420 025e 00       		.uleb128 0
 3421              	.LLSDACSEC1498:
 3422 025f 03       		.byte	0x3
 3423 0260 00       		.byte	0
 3424 0261 02       		.byte	0x2
 3425 0262 7D       		.byte	0x7d
 3426 0263 01       		.byte	0x1
 3427 0264 7D       		.byte	0x7d
 3428 0265 00       		.byte	0
 3429 0266 7D       		.byte	0x7d
 3430 0267 00       		.align 4
 3431 0268 00000000 		.long	0
 3432              	
 3433 026c 00000000 		.long	DW.ref._ZTISt9exception-.
 3434 0270 00000000 		.long	DW.ref._ZTIN8UnitTest15AssertExceptionE-.
 3435              	.LLSDATTC1498:
 3436              		.section	.text.unlikely
 3437              		.text
 3439              		.section	.text.unlikely
 3441              	.LCOLDE26:
 3442              		.text
 3443              	.LHOTE26:
 3444              		.section	.text.unlikely
 3445 08cd 90       		.align 2
 3446              	.LCOLDB27:
 3447              		.text
 3448              	.LHOTB27:
 3449 0f7b 90       		.align 2
 3450 0f7c 0F1F4000 		.p2align 4
 3452              	_ZNK8UnitTest12_GLOBAL__N_160TestDeferredTestReporterFixtureReportTestEndCapturesTestTime7RunImplEv
 3453              	.LFB1520:
 3454              		.cfi_startproc
 3455              		.cfi_personality 0x9b,DW.ref.__gxx_personality_v0
 3456              		.cfi_lsda 0x1b,.LLSDA1520
 3457 0f80 F30F1EFA 		endbr64
 3458 0f84 4157     		pushq	%r15
 3459              		.cfi_def_cfa_offset 16
 3460              		.cfi_offset 15, -16
 3461 0f86 BA6D6500 		movl	$25965, %edx
 3461      00
 3462 0f8b B9697400 		movl	$29801, %ecx
 3462      00
 3463 0f90 BE2E6800 		movl	$26670, %esi
 3463      00
 3464 0f95 4156     		pushq	%r14
 3465              		.cfi_def_cfa_offset 24
 3466              		.cfi_offset 14, -24
 3467 0f97 41B80C00 		movl	$12, %r8d
 3467      0000
 3468 0f9d 4155     		pushq	%r13
 3469              		.cfi_def_cfa_offset 32
 3470              		.cfi_offset 13, -32
 3471 0f9f 4154     		pushq	%r12
 3472              		.cfi_def_cfa_offset 40
 3473              		.cfi_offset 12, -40
 3474 0fa1 55       		pushq	%rbp
 3475              		.cfi_def_cfa_offset 48
 3476              		.cfi_offset 6, -48
 3477 0fa2 53       		pushq	%rbx
 3478              		.cfi_def_cfa_offset 56
 3479              		.cfi_offset 3, -56
 3480 0fa3 4881ECD8 		subq	$472, %rsp
 3480      010000
 3481              		.cfi_def_cfa_offset 528
 3482 0faa 48893C24 		movq	%rdi, (%rsp)
 3483 0fae 488D6C24 		leaq	96(%rsp), %rbp
 3483      60
 3484 0fb3 4C8DA424 		leaq	128(%rsp), %r12
 3484      80000000 
 3485 0fbb 4C8DAC24 		leaq	160(%rsp), %r13
 3485      A0000000 
 3486 0fc3 64488B04 		movq	%fs:40, %rax
 3486      25280000 
 3486      00
 3487 0fcc 48898424 		movq	%rax, 456(%rsp)
 3487      C8010000 
 3488 0fd4 4889F8   		movq	%rdi, %rax
 3489 0fd7 66895424 		movw	%dx, 108(%rsp)
 3489      6C
 3490 0fdc 4C89E2   		movq	%r12, %rdx
 3491 0fdf 488DBC24 		leaq	184(%rsp), %rdi
 3491      B8000000 
 3492 0fe7 66898C24 		movw	%cx, 140(%rsp)
 3492      8C000000 
 3493 0fef 4C89E9   		movq	%r13, %rcx
 3494 0ff2 6689B424 		movw	%si, 168(%rsp)
 3494      A8000000 
 3495 0ffa 4889EE   		movq	%rbp, %rsi
 3496 0ffd 48C74424 		movq	$0, 56(%rsp)
 3496      38000000 
 3496      00
 3497 1006 48C74424 		movq	$0, 64(%rsp)
 3497      40000000 
 3497      00
 3498 100f 48C74424 		movq	$0, 72(%rsp)
 3498      48000000 
 3498      00
 3499 1018 4C8D7808 		leaq	8(%rax), %r15
 3500 101c 488D0500 		leaq	16+_ZTVN8UnitTest12_GLOBAL__N_124MockDeferredTestReporterE(%rip), %rax
 3500      000000
 3501 1023 48896C24 		movq	%rbp, 80(%rsp)
 3501      50
 3502 1028 48894424 		movq	%rax, 48(%rsp)
 3502      30
 3503 102d 48B8556E 		movabsq	$7301572450962730581, %rax
 3503      69717565 
 3503      5465
 3504 1037 48894424 		movq	%rax, 96(%rsp)
 3504      60
 3505 103c 48898424 		movq	%rax, 128(%rsp)
 3505      80000000 
 3506 1044 48B86669 		movabsq	$7308604897068083558, %rax
 3506      6C656E61 
 3506      6D65
 3507 104e C7442468 		movl	$1632531571, 104(%rsp)
 3507      73744E61 
 3508 1056 48C74424 		movq	$14, 88(%rsp)
 3508      580E0000 
 3508      00
 3509 105f C644246E 		movb	$0, 110(%rsp)
 3509      00
 3510 1064 4C896424 		movq	%r12, 112(%rsp)
 3510      70
 3511 1069 C7842488 		movl	$1968403571, 136(%rsp)
 3511      00000073 
 3511      745375
 3512 1074 C684248E 		movb	$101, 142(%rsp)
 3512      00000065 
 3513 107c 48C74424 		movq	$15, 120(%rsp)
 3513      780F0000 
 3513      00
 3514 1085 C684248F 		movb	$0, 143(%rsp)
 3514      00000000 
 3515 108d 4C89AC24 		movq	%r13, 144(%rsp)
 3515      90000000 
 3516 1095 48898424 		movq	%rax, 160(%rsp)
 3516      A0000000 
 3517 109d 48C78424 		movq	$10, 152(%rsp)
 3517      98000000 
 3517      0A000000 
 3518 10a9 C68424AA 		movb	$0, 170(%rsp)
 3518      00000000 
 3519 10b1 C78424B0 		movl	$12, 176(%rsp)
 3519      0000000C 
 3519      000000
 3520              	.LEHB76:
 3521 10bc E8000000 		call	_ZN8UnitTest11TestDetailsC1EPKcS2_S2_i@PLT
 3521      00
 3522              	.LEHE76:
 3523 10c1 4C8D7424 		leaq	48(%rsp), %r14
 3523      30
 3524 10c6 4C89FE   		movq	%r15, %rsi
 3525 10c9 4C89BC24 		movq	%r15, 216(%rsp)
 3525      D8000000 
 3526 10d1 4C89F7   		movq	%r14, %rdi
 3527              	.LEHB77:
 3528 10d4 E8A7F3FF 		call	_ZN8UnitTest11ExecuteTestINS_12_GLOBAL__N_162DeferredTestReporterFixtureReportTestEndCaptures
 3528      FF
 3529              	.LEHE77:
 3530 10d9 488BBC24 		movq	144(%rsp), %rdi
 3530      90000000 
 3531 10e1 4C39EF   		cmpq	%r13, %rdi
 3532 10e4 7405     		je	.L336
 3533 10e6 E8000000 		call	_ZdlPv@PLT
 3533      00
 3534              	.L336:
 3535 10eb 488B7C24 		movq	112(%rsp), %rdi
 3535      70
 3536 10f0 4C39E7   		cmpq	%r12, %rdi
 3537 10f3 7405     		je	.L337
 3538 10f5 E8000000 		call	_ZdlPv@PLT
 3538      00
 3539              	.L337:
 3540 10fa 488B7C24 		movq	80(%rsp), %rdi
 3540      50
 3541 10ff 4839EF   		cmpq	%rbp, %rdi
 3542 1102 7405     		je	.L338
 3543 1104 E8000000 		call	_ZdlPv@PLT
 3543      00
 3544              	.L338:
 3545 1109 4C8B6C24 		movq	64(%rsp), %r13
 3545      40
 3546 110e 488B6C24 		movq	56(%rsp), %rbp
 3546      38
 3547 1113 488D0500 		leaq	16+_ZTVN8UnitTest20DeferredTestReporterE(%rip), %rax
 3547      000000
 3548 111a 48894424 		movq	%rax, 48(%rsp)
 3548      30
 3549 111f 4939ED   		cmpq	%rbp, %r13
 3550 1122 0F848C00 		je	.L339
 3550      0000
 3551 1128 0F1F8400 		.p2align 4,,10
 3551      00000000 
 3552              		.p2align 3
 3553              	.L351:
 3554 1130 4C8B6568 		movq	104(%rbp), %r12
 3555 1134 488B5D60 		movq	96(%rbp), %rbx
 3556 1138 4939DC   		cmpq	%rbx, %r12
 3557 113b 7426     		je	.L340
 3558 113d 0F1F00   		.p2align 4,,10
 3559              		.p2align 3
 3560              	.L344:
 3561 1140 488B7B08 		movq	8(%rbx), %rdi
 3562 1144 488D4318 		leaq	24(%rbx), %rax
 3563 1148 4839C7   		cmpq	%rax, %rdi
 3564 114b 0F849F00 		je	.L341
 3564      0000
 3565 1151 E8000000 		call	_ZdlPv@PLT
 3565      00
 3566 1156 4883C328 		addq	$40, %rbx
 3567 115a 4C39E3   		cmpq	%r12, %rbx
 3568 115d 75E1     		jne	.L344
 3569              	.L343:
 3570 115f 488B5D60 		movq	96(%rbp), %rbx
 3571              	.L340:
 3572 1163 4885DB   		testq	%rbx, %rbx
 3573 1166 7408     		je	.L345
 3574 1168 4889DF   		movq	%rbx, %rdi
 3575 116b E8000000 		call	_ZdlPv@PLT
 3575      00
 3576              	.L345:
 3577 1170 488B7D40 		movq	64(%rbp), %rdi
 3578 1174 488D4550 		leaq	80(%rbp), %rax
 3579 1178 4839C7   		cmpq	%rax, %rdi
 3580 117b 7405     		je	.L346
 3581 117d E8000000 		call	_ZdlPv@PLT
 3581      00
 3582              	.L346:
 3583 1182 488B7D20 		movq	32(%rbp), %rdi
 3584 1186 488D4530 		leaq	48(%rbp), %rax
 3585 118a 4839C7   		cmpq	%rax, %rdi
 3586 118d 7405     		je	.L347
 3587 118f E8000000 		call	_ZdlPv@PLT
 3587      00
 3588              	.L347:
 3589 1194 488B7D00 		movq	0(%rbp), %rdi
 3590 1198 488D4510 		leaq	16(%rbp), %rax
 3591 119c 4839C7   		cmpq	%rax, %rdi
 3592 119f 7467     		je	.L348
 3593 11a1 E8000000 		call	_ZdlPv@PLT
 3593      00
 3594 11a6 4883ED80 		subq	$-128, %rbp
 3595 11aa 4C39ED   		cmpq	%r13, %rbp
 3596 11ad 7581     		jne	.L351
 3597              	.L350:
 3598 11af 488B6C24 		movq	56(%rsp), %rbp
 3598      38
 3599              	.L339:
 3600 11b4 4885ED   		testq	%rbp, %rbp
 3601 11b7 7408     		je	.L352
 3602 11b9 4889EF   		movq	%rbp, %rdi
 3603 11bc E8000000 		call	_ZdlPv@PLT
 3603      00
 3604              	.L352:
 3605 11c1 4C89F7   		movq	%r14, %rdi
 3606              	.LEHB78:
 3607 11c4 E8000000 		call	_ZN8UnitTest12TestReporterD2Ev@PLT
 3607      00
 3608              	.LEHE78:
 3609 11c9 488B8424 		movq	456(%rsp), %rax
 3609      C8010000 
 3610 11d1 64482B04 		subq	%fs:40, %rax
 3610      25280000 
 3610      00
 3611 11da 753B     		jne	.L391
 3612 11dc 4881C4D8 		addq	$472, %rsp
 3612      010000
 3613              		.cfi_remember_state
 3614              		.cfi_def_cfa_offset 56
 3615 11e3 5B       		popq	%rbx
 3616              		.cfi_def_cfa_offset 48
 3617 11e4 5D       		popq	%rbp
 3618              		.cfi_def_cfa_offset 40
 3619 11e5 415C     		popq	%r12
 3620              		.cfi_def_cfa_offset 32
 3621 11e7 415D     		popq	%r13
 3622              		.cfi_def_cfa_offset 24
 3623 11e9 415E     		popq	%r14
 3624              		.cfi_def_cfa_offset 16
 3625 11eb 415F     		popq	%r15
 3626              		.cfi_def_cfa_offset 8
 3627 11ed C3       		ret
 3628 11ee 6690     		.p2align 4,,10
 3629              		.p2align 3
 3630              	.L341:
 3631              		.cfi_restore_state
 3632 11f0 4883C328 		addq	$40, %rbx
 3633 11f4 4939DC   		cmpq	%rbx, %r12
 3634 11f7 0F8543FF 		jne	.L344
 3634      FFFF
 3635 11fd E95DFFFF 		jmp	.L343
 3635      FF
 3636              		.p2align 4,,10
 3637 1202 660F1F44 		.p2align 3
 3637      0000
 3638              	.L348:
 3639 1208 4883ED80 		subq	$-128, %rbp
 3640 120c 4939ED   		cmpq	%rbp, %r13
 3641 120f 0F851BFF 		jne	.L351
 3641      FFFF
 3642 1215 EB98     		jmp	.L350
 3643              	.L391:
 3644 1217 E8000000 		call	__stack_chk_fail@PLT
 3644      00
 3645              	.L369:
 3646 121c F30F1EFA 		endbr64
 3647 1220 4889C7   		movq	%rax, %rdi
 3648 1223 4889D0   		movq	%rdx, %rax
 3649 1226 E9000000 		jmp	.L386
 3649      00
 3650              	.L370:
 3651 122b F30F1EFA 		endbr64
 3652 122f 4889C5   		movq	%rax, %rbp
 3653 1232 4989D4   		movq	%rdx, %r12
 3654 1235 E9000000 		jmp	.L355
 3654      00
 3655              	.L375:
 3656 123a F30F1EFA 		endbr64
 3657 123e 48895424 		movq	%rdx, 8(%rsp)
 3657      08
 3658 1243 4889C3   		movq	%rax, %rbx
 3659 1246 E9000000 		jmp	.L331
 3659      00
 3660              		.section	.gcc_except_table
 3661              		.align 4
 3662              	.LLSDA1520:
 3663 0274 FF       		.byte	0xff
 3664 0275 9B       		.byte	0x9b
 3665 0276 29       		.uleb128 .LLSDATT1520-.LLSDATTD1520
 3666              	.LLSDATTD1520:
 3667 0277 01       		.byte	0x1
 3668 0278 12       		.uleb128 .LLSDACSE1520-.LLSDACSB1520
 3669              	.LLSDACSB1520:
 3670 0279 BC02     		.uleb128 .LEHB76-.LFB1520
 3671 027b 05       		.uleb128 .LEHE76-.LEHB76
 3672 027c BA05     		.uleb128 .L375-.LFB1520
 3673 027e 07       		.uleb128 0x7
 3674 027f D402     		.uleb128 .LEHB77-.LFB1520
 3675 0281 05       		.uleb128 .LEHE77-.LEHB77
 3676 0282 AB05     		.uleb128 .L370-.LFB1520
 3677 0284 07       		.uleb128 0x7
 3678 0285 C404     		.uleb128 .LEHB78-.LFB1520
 3679 0287 05       		.uleb128 .LEHE78-.LEHB78
 3680 0288 9C05     		.uleb128 .L369-.LFB1520
 3681 028a 05       		.uleb128 0x5
 3682              	.LLSDACSE1520:
 3683 028b 03       		.byte	0x3
 3684 028c 00       		.byte	0
 3685 028d 02       		.byte	0x2
 3686 028e 7D       		.byte	0x7d
 3687 028f 01       		.byte	0x1
 3688 0290 7D       		.byte	0x7d
 3689 0291 00       		.byte	0
 3690 0292 7D       		.byte	0x7d
 3691 0293 00       		.align 4
 3692 0294 00000000 		.long	0
 3693              	
 3694 0298 00000000 		.long	DW.ref._ZTISt9exception-.
 3695 029c 00000000 		.long	DW.ref._ZTIN8UnitTest15AssertExceptionE-.
 3696              	.LLSDATT1520:
 3697              		.text
 3698              		.cfi_endproc
 3699              		.section	.text.unlikely
 3700              		.cfi_startproc
 3701              		.cfi_personality 0x9b,DW.ref.__gxx_personality_v0
 3702              		.cfi_lsda 0x1b,.LLSDAC1520
 3704              	_ZNK8UnitTest12_GLOBAL__N_160TestDeferredTestReporterFixtureReportTestEndCapturesTestTime7RunImplEv
 3705              	.LFSB1520:
 3706              	.L355:
 3707              		.cfi_def_cfa_offset 528
 3708              		.cfi_offset 3, -56
 3709              		.cfi_offset 6, -48
 3710              		.cfi_offset 12, -40
 3711              		.cfi_offset 13, -32
 3712              		.cfi_offset 14, -24
 3713              		.cfi_offset 15, -16
 3714 08ce 4C89F7   		movq	%r14, %rdi
 3715 08d1 E89AF7FF 		call	_ZN8UnitTest12_GLOBAL__N_127DeferredTestReporterFixtureD2Ev
 3715      FF
 3716 08d6 4889EF   		movq	%rbp, %rdi
 3717 08d9 4C89E0   		movq	%r12, %rax
 3718              	.L386:
 3719 08dc BD010000 		movl	$1, %ebp
 3719      00
 3720              	.L335:
 3721 08e1 4883F801 		cmpq	$1, %rax
 3722 08e5 0F84D600 		je	.L356
 3722      0000
 3723 08eb 4883F802 		cmpq	$2, %rax
 3724 08ef 0F845701 		je	.L392
 3724      0000
 3725 08f5 E8000000 		call	__cxa_begin_catch@PLT
 3725      00
 3726 08fa 4084ED   		testb	%bpl, %bpl
 3727 08fd 0F85D201 		jne	.L393
 3727      0000
 3728              	.LEHB79:
 3729 0903 E8000000 		call	_ZN8UnitTest11CurrentTest7ResultsEv@PLT
 3729      00
 3730 0908 488D6C24 		leaq	16(%rsp), %rbp
 3730      10
 3731 090d BA3D0000 		movl	$61, %edx
 3731      00
 3732 0912 4C89FE   		movq	%r15, %rsi
 3733 0915 4C8B20   		movq	(%rax), %r12
 3734 0918 4889EF   		movq	%rbp, %rdi
 3735 091b E8000000 		call	_ZN8UnitTest11TestDetailsC1ERKS0_i@PLT
 3735      00
 3736 0920 488D1500 		leaq	.LC25(%rip), %rdx
 3736      000000
 3737 0927 4889EE   		movq	%rbp, %rsi
 3738 092a 4C89E7   		movq	%r12, %rdi
 3739 092d E8000000 		call	_ZN8UnitTest11TestResults13OnTestFailureERKNS_11TestDetailsEPKc@PLT
 3739      00
 3740              	.LEHE79:
 3741              	.L362:
 3742 0932 488B8424 		movq	456(%rsp), %rax
 3742      C8010000 
 3743 093a 64482B04 		subq	%fs:40, %rax
 3743      25280000 
 3743      00
 3744 0943 0F85FE00 		jne	.L388
 3744      0000
 3745 0949 4881C4D8 		addq	$472, %rsp
 3745      010000
 3746              		.cfi_remember_state
 3747              		.cfi_def_cfa_offset 56
 3748 0950 5B       		popq	%rbx
 3749              		.cfi_def_cfa_offset 48
 3750 0951 5D       		popq	%rbp
 3751              		.cfi_def_cfa_offset 40
 3752 0952 415C     		popq	%r12
 3753              		.cfi_def_cfa_offset 32
 3754 0954 415D     		popq	%r13
 3755              		.cfi_def_cfa_offset 24
 3756 0956 415E     		popq	%r14
 3757              		.cfi_def_cfa_offset 16
 3758 0958 415F     		popq	%r15
 3759              		.cfi_def_cfa_offset 8
 3760              	.LEHB80:
 3761 095a E9000000 		jmp	__cxa_end_catch@PLT
 3761      00
 3762              	.LEHE80:
 3763              	.L331:
 3764              		.cfi_restore_state
 3765 095f 488BBC24 		movq	144(%rsp), %rdi
 3765      90000000 
 3766 0967 4C39EF   		cmpq	%r13, %rdi
 3767 096a 7405     		je	.L332
 3768 096c E8000000 		call	_ZdlPv@PLT
 3768      00
 3769              	.L332:
 3770 0971 488B7C24 		movq	112(%rsp), %rdi
 3770      70
 3771 0976 4C39E7   		cmpq	%r12, %rdi
 3772 0979 7405     		je	.L333
 3773 097b E8000000 		call	_ZdlPv@PLT
 3773      00
 3774              	.L333:
 3775 0980 488B7C24 		movq	80(%rsp), %rdi
 3775      50
 3776 0985 4839EF   		cmpq	%rbp, %rdi
 3777 0988 7405     		je	.L334
 3778 098a E8000000 		call	_ZdlPv@PLT
 3778      00
 3779              	.L334:
 3780 098f 488D0500 		leaq	16+_ZTVN8UnitTest20DeferredTestReporterE(%rip), %rax
 3780      000000
 3781 0996 488D7C24 		leaq	56(%rsp), %rdi
 3781      38
 3782 099b 31ED     		xorl	%ebp, %ebp
 3783 099d 4C8D7424 		leaq	48(%rsp), %r14
 3783      30
 3784 09a2 48894424 		movq	%rax, 48(%rsp)
 3784      30
 3785 09a7 E8000000 		call	_ZNSt6vectorIN8UnitTest18DeferredTestResultESaIS1_EED1Ev
 3785      00
 3786 09ac 4C89F7   		movq	%r14, %rdi
 3787 09af E8000000 		call	_ZN8UnitTest12TestReporterD2Ev@PLT
 3787      00
 3788 09b4 488B4424 		movq	8(%rsp), %rax
 3788      08
 3789 09b9 4889DF   		movq	%rbx, %rdi
 3790 09bc E920FFFF 		jmp	.L335
 3790      FF
 3791              	.L356:
 3792 09c1 E8000000 		call	__cxa_begin_catch@PLT
 3792      00
 3793 09c6 4889C5   		movq	%rax, %rbp
 3794              	.LEHB81:
 3795 09c9 E8000000 		call	_ZN8UnitTest11CurrentTest7ResultsEv@PLT
 3795      00
 3796 09ce 4C8B30   		movq	(%rax), %r14
 3797 09d1 488B4500 		movq	0(%rbp), %rax
 3798 09d5 4889EF   		movq	%rbp, %rdi
 3799 09d8 FF5010   		call	*16(%rax)
 3800 09db 4889EF   		movq	%rbp, %rdi
 3801 09de 4989C4   		movq	%rax, %r12
 3802 09e1 E8000000 		call	_ZNK8UnitTest15AssertException10LineNumberEv@PLT
 3802      00
 3803 09e6 4889EF   		movq	%rbp, %rdi
 3804 09e9 4189C5   		movl	%eax, %r13d
 3805 09ec E8000000 		call	_ZNK8UnitTest15AssertException8FilenameEv@PLT
 3805      00
 3806 09f1 4889C1   		movq	%rax, %rcx
 3807 09f4 488B0424 		movq	(%rsp), %rax
 3808 09f8 488D6C24 		leaq	16(%rsp), %rbp
 3808      10
 3809 09fd 4589E8   		movl	%r13d, %r8d
 3810 0a00 4889EF   		movq	%rbp, %rdi
 3811 0a03 488B5008 		movq	8(%rax), %rdx
 3812 0a07 488B7010 		movq	16(%rax), %rsi
 3813 0a0b E8000000 		call	_ZN8UnitTest11TestDetailsC1EPKcS2_S2_i@PLT
 3813      00
 3814 0a10 4C89E2   		movq	%r12, %rdx
 3815 0a13 4889EE   		movq	%rbp, %rsi
 3816 0a16 4C89F7   		movq	%r14, %rdi
 3817 0a19 E8000000 		call	_ZN8UnitTest11TestResults13OnTestFailureERKNS_11TestDetailsEPKc@PLT
 3817      00
 3818              	.LEHE81:
 3819              	.L390:
 3820 0a1e 488B8424 		movq	456(%rsp), %rax
 3820      C8010000 
 3821 0a26 64482B04 		subq	%fs:40, %rax
 3821      25280000 
 3821      00
 3822 0a2f 7516     		jne	.L388
 3823 0a31 4881C4D8 		addq	$472, %rsp
 3823      010000
 3824              		.cfi_remember_state
 3825              		.cfi_def_cfa_offset 56
 3826 0a38 5B       		popq	%rbx
 3827              		.cfi_def_cfa_offset 48
 3828 0a39 5D       		popq	%rbp
 3829              		.cfi_def_cfa_offset 40
 3830 0a3a 415C     		popq	%r12
 3831              		.cfi_def_cfa_offset 32
 3832 0a3c 415D     		popq	%r13
 3833              		.cfi_def_cfa_offset 24
 3834 0a3e 415E     		popq	%r14
 3835              		.cfi_def_cfa_offset 16
 3836 0a40 415F     		popq	%r15
 3837              		.cfi_def_cfa_offset 8
 3838 0a42 E9000000 		jmp	__cxa_end_catch@PLT
 3838      00
 3839              	.L388:
 3840              		.cfi_restore_state
 3841 0a47 E8000000 		call	__stack_chk_fail@PLT
 3841      00
 3842              	.L392:
 3843 0a4c E8000000 		call	__cxa_begin_catch@PLT
 3843      00
 3844 0a51 4C89F7   		movq	%r14, %rdi
 3845 0a54 4889C5   		movq	%rax, %rbp
 3846              	.LEHB82:
 3847 0a57 E8000000 		call	_ZN8UnitTest15MemoryOutStreamC1Ev
 3847      00
 3848              	.LEHE82:
 3849 0a5c BA150000 		movl	$21, %edx
 3849      00
 3850 0a61 488D3500 		leaq	.LC19(%rip), %rsi
 3850      000000
 3851 0a68 4C89F7   		movq	%r14, %rdi
 3852              	.LEHB83:
 3853 0a6b E8000000 		call	_ZSt16__ostream_insertIcSt11char_traitsIcEERSt13basic_ostreamIT_T0_ES6_PKS3_l@PLT
 3853      00
 3854 0a70 488B4500 		movq	0(%rbp), %rax
 3855 0a74 4889EF   		movq	%rbp, %rdi
 3856 0a77 FF5010   		call	*16(%rax)
 3857 0a7a 4C89F7   		movq	%r14, %rdi
 3858 0a7d 4889C6   		movq	%rax, %rsi
 3859 0a80 E8000000 		call	_ZStlsISt11char_traitsIcEERSt13basic_ostreamIcT_ES5_PKc@PLT
 3859      00
 3860 0a85 E8000000 		call	_ZN8UnitTest11CurrentTest7ResultsEv@PLT
 3860      00
 3861 0a8a 4C89F7   		movq	%r14, %rdi
 3862 0a8d 488B28   		movq	(%rax), %rbp
 3863 0a90 E8000000 		call	_ZNK8UnitTest15MemoryOutStream7GetTextEv@PLT
 3863      00
 3864 0a95 4889C2   		movq	%rax, %rdx
 3865 0a98 4C89FE   		movq	%r15, %rsi
 3866 0a9b 4889EF   		movq	%rbp, %rdi
 3867 0a9e E8000000 		call	_ZN8UnitTest11TestResults13OnTestFailureERKNS_11TestDetailsEPKc@PLT
 3867      00
 3868              	.LEHE83:
 3869 0aa3 4C89F7   		movq	%r14, %rdi
 3870              	.LEHB84:
 3871 0aa6 E8000000 		call	_ZN8UnitTest15MemoryOutStreamD1Ev
 3871      00
 3872              	.LEHE84:
 3873 0aab E96EFFFF 		jmp	.L390
 3873      FF
 3874              	.L373:
 3875 0ab0 F30F1EFA 		endbr64
 3876 0ab4 4C89F7   		movq	%r14, %rdi
 3877 0ab7 4889C5   		movq	%rax, %rbp
 3878 0aba E8000000 		call	_ZN8UnitTest15MemoryOutStreamD1Ev
 3878      00
 3879              	.L366:
 3880 0abf E8000000 		call	__cxa_end_catch@PLT
 3880      00
 3881 0ac4 4889EF   		movq	%rbp, %rdi
 3882              	.LEHB85:
 3883 0ac7 E8000000 		call	_Unwind_Resume@PLT
 3883      00
 3884              	.LEHE85:
 3885              	.L372:
 3886 0acc F30F1EFA 		endbr64
 3887              	.L389:
 3888 0ad0 4889C5   		movq	%rax, %rbp
 3889 0ad3 EBEA     		jmp	.L366
 3890              	.L393:
 3891              	.LEHB86:
 3892 0ad5 E8000000 		call	_ZN8UnitTest11CurrentTest7ResultsEv@PLT
 3892      00
 3893 0ada 488D6C24 		leaq	16(%rsp), %rbp
 3893      10
 3894 0adf BA3D0000 		movl	$61, %edx
 3894      00
 3895 0ae4 4C89FE   		movq	%r15, %rsi
 3896 0ae7 4C8B20   		movq	(%rax), %r12
 3897 0aea 4889EF   		movq	%rbp, %rdi
 3898 0aed E8000000 		call	_ZN8UnitTest11TestDetailsC1ERKS0_i@PLT
 3898      00
 3899 0af2 488D1500 		leaq	.LC24(%rip), %rdx
 3899      000000
 3900 0af9 4889EE   		movq	%rbp, %rsi
 3901 0afc 4C89E7   		movq	%r12, %rdi
 3902 0aff E8000000 		call	_ZN8UnitTest11TestResults13OnTestFailureERKNS_11TestDetailsEPKc@PLT
 3902      00
 3903              	.LEHE86:
 3904 0b04 E929FEFF 		jmp	.L362
 3904      FF
 3905              	.L374:
 3906 0b09 F30F1EFA 		endbr64
 3907 0b0d 4889C5   		movq	%rax, %rbp
 3908 0b10 E8000000 		call	__cxa_end_catch@PLT
 3908      00
 3909 0b15 4889EF   		movq	%rbp, %rdi
 3910              	.LEHB87:
 3911 0b18 E8000000 		call	_Unwind_Resume@PLT
 3911      00
 3912              	.LEHE87:
 3913              	.L371:
 3914 0b1d F30F1EFA 		endbr64
 3915 0b21 EBAD     		jmp	.L389
 3916              		.cfi_endproc
 3917              	.LFE1520:
 3918              		.section	.gcc_except_table
 3919              		.align 4
 3920              	.LLSDAC1520:
 3921 02a0 FF       		.byte	0xff
 3922 02a1 9B       		.byte	0x9b
 3923 02a2 49       		.uleb128 .LLSDATTC1520-.LLSDATTDC1520
 3924              	.LLSDATTDC1520:
 3925 02a3 01       		.byte	0x1
 3926 02a4 32       		.uleb128 .LLSDACSEC1520-.LLSDACSBC1520
 3927              	.LLSDACSBC1520:
 3928 02a5 35       		.uleb128 .LEHB79-.LCOLDB27
 3929 02a6 2F       		.uleb128 .LEHE79-.LEHB79
 3930 02a7 BB04     		.uleb128 .L374-.LCOLDB27
 3931 02a9 00       		.uleb128 0
 3932 02aa 8C01     		.uleb128 .LEHB80-.LCOLDB27
 3933 02ac 05       		.uleb128 .LEHE80-.LEHB80
 3934 02ad 00       		.uleb128 0
 3935 02ae 00       		.uleb128 0
 3936 02af FB01     		.uleb128 .LEHB81-.LCOLDB27
 3937 02b1 55       		.uleb128 .LEHE81-.LEHB81
 3938 02b2 CF04     		.uleb128 .L371-.LCOLDB27
 3939 02b4 00       		.uleb128 0
 3940 02b5 8903     		.uleb128 .LEHB82-.LCOLDB27
 3941 02b7 05       		.uleb128 .LEHE82-.LEHB82
 3942 02b8 FE03     		.uleb128 .L372-.LCOLDB27
 3943 02ba 00       		.uleb128 0
 3944 02bb 9D03     		.uleb128 .LEHB83-.LCOLDB27
 3945 02bd 38       		.uleb128 .LEHE83-.LEHB83
 3946 02be E203     		.uleb128 .L373-.LCOLDB27
 3947 02c0 00       		.uleb128 0
 3948 02c1 D803     		.uleb128 .LEHB84-.LCOLDB27
 3949 02c3 05       		.uleb128 .LEHE84-.LEHB84
 3950 02c4 FE03     		.uleb128 .L372-.LCOLDB27
 3951 02c6 00       		.uleb128 0
 3952 02c7 F903     		.uleb128 .LEHB85-.LCOLDB27
 3953 02c9 05       		.uleb128 .LEHE85-.LEHB85
 3954 02ca 00       		.uleb128 0
 3955 02cb 00       		.uleb128 0
 3956 02cc 8704     		.uleb128 .LEHB86-.LCOLDB27
 3957 02ce 2F       		.uleb128 .LEHE86-.LEHB86
 3958 02cf BB04     		.uleb128 .L374-.LCOLDB27
 3959 02d1 00       		.uleb128 0
 3960 02d2 CA04     		.uleb128 .LEHB87-.LCOLDB27
 3961 02d4 05       		.uleb128 .LEHE87-.LEHB87
 3962 02d5 00       		.uleb128 0
 3963 02d6 00       		.uleb128 0
 3964              	.LLSDACSEC1520:
 3965 02d7 03       		.byte	0x3
 3966 02d8 00       		.byte	0
 3967 02d9 02       		.byte	0x2
 3968 02da 7D       		.byte	0x7d
 3969 02db 01       		.byte	0x1
 3970 02dc 7D       		.byte	0x7d
 3971 02dd 00       		.byte	0
 3972 02de 7D       		.byte	0x7d
 3973 02df 00       		.align 4
 3974 02e0 00000000 		.long	0
 3975              	
 3976 02e4 00000000 		.long	DW.ref._ZTISt9exception-.
 3977 02e8 00000000 		.long	DW.ref._ZTIN8UnitTest15AssertExceptionE-.
 3978              	.LLSDATTC1520:
 3979              		.section	.text.unlikely
 3980              		.text
 3982              		.section	.text.unlikely
 3984              	.LCOLDE27:
 3985              		.text
 3986              	.LHOTE27:
 3987              		.section	.text._ZN8UnitTest10CheckEqualIPKcNSt7__cxx1112basic_stringIcSt11char_traitsIcESaIcEEEEEv
 3988              		.p2align 4
 3989              		.weak	_ZN8UnitTest10CheckEqualIPKcNSt7__cxx1112basic_stringIcSt11char_traitsIcESaIcEEEEEvRNS_11Tes
 3991              	_ZN8UnitTest10CheckEqualIPKcNSt7__cxx1112basic_stringIcSt11char_traitsIcESaIcEEEEEvRNS_11TestResult
 3992              	.LFB1607:
 3993              		.cfi_startproc
 3994              		.cfi_personality 0x9b,DW.ref.__gxx_personality_v0
 3995              		.cfi_lsda 0x1b,.LLSDA1607
 3996 0000 F30F1EFA 		endbr64
 3997 0004 4157     		pushq	%r15
 3998              		.cfi_def_cfa_offset 16
 3999              		.cfi_offset 15, -16
 4000 0006 4156     		pushq	%r14
 4001              		.cfi_def_cfa_offset 24
 4002              		.cfi_offset 14, -24
 4003 0008 4155     		pushq	%r13
 4004              		.cfi_def_cfa_offset 32
 4005              		.cfi_offset 13, -32
 4006 000a 4989CD   		movq	%rcx, %r13
 4007 000d 4154     		pushq	%r12
 4008              		.cfi_def_cfa_offset 40
 4009              		.cfi_offset 12, -40
 4010 000f 4989FC   		movq	%rdi, %r12
 4011 0012 4889D7   		movq	%rdx, %rdi
 4012 0015 55       		pushq	%rbp
 4013              		.cfi_def_cfa_offset 48
 4014              		.cfi_offset 6, -48
 4015 0016 4889F5   		movq	%rsi, %rbp
 4016 0019 53       		pushq	%rbx
 4017              		.cfi_def_cfa_offset 56
 4018              		.cfi_offset 3, -56
 4019 001a 4889D3   		movq	%rdx, %rbx
 4020 001d 4881ECD8 		subq	$472, %rsp
 4020      010000
 4021              		.cfi_def_cfa_offset 528
 4022 0024 488B36   		movq	(%rsi), %rsi
 4023 0027 F30F7E0D 		movq	.LC28(%rip), %xmm1
 4023      00000000 
 4024 002f 64488B04 		movq	%fs:40, %rax
 4024      25280000 
 4024      00
 4025 0038 48898424 		movq	%rax, 456(%rsp)
 4025      C8010000 
 4026 0040 31C0     		xorl	%eax, %eax
 4027 0042 0F160D00 		movhps	.LC7(%rip), %xmm1
 4027      000000
 4028 0049 0F290C24 		movaps	%xmm1, (%rsp)
 4029              	.LEHB88:
 4030 004d E8000000 		call	_ZNKSt7__cxx1112basic_stringIcSt11char_traitsIcESaIcEE7compareEPKc@PLT
 4030      00
 4031              	.LEHE88:
 4032 0052 85C0     		testl	%eax, %eax
 4033 0054 752A     		jne	.L418
 4034              	.L394:
 4035 0056 488B8424 		movq	456(%rsp), %rax
 4035      C8010000 
 4036 005e 64482B04 		subq	%fs:40, %rax
 4036      25280000 
 4036      00
 4037 0067 0F857F02 		jne	.L419
 4037      0000
 4038 006d 4881C4D8 		addq	$472, %rsp
 4038      010000
 4039              		.cfi_remember_state
 4040              		.cfi_def_cfa_offset 56
 4041 0074 5B       		popq	%rbx
 4042              		.cfi_def_cfa_offset 48
 4043 0075 5D       		popq	%rbp
 4044              		.cfi_def_cfa_offset 40
 4045 0076 415C     		popq	%r12
 4046              		.cfi_def_cfa_offset 32
 4047 0078 415D     		popq	%r13
 4048              		.cfi_def_cfa_offset 24
 4049 007a 415E     		popq	%r14
 4050              		.cfi_def_cfa_offset 16
 4051 007c 415F     		popq	%r15
 4052              		.cfi_def_cfa_offset 8
 4053 007e C3       		ret
 4054 007f 90       		.p2align 4,,10
 4055              		.p2align 3
 4056              	.L418:
 4057              		.cfi_restore_state
 4058 0080 4C8DBC24 		leaq	192(%rsp), %r15
 4058      C0000000 
 4059 0088 4C89FF   		movq	%r15, %rdi
 4060 008b E8000000 		call	_ZNSt8ios_baseC2Ev@PLT
 4060      00
 4061 0090 31C0     		xorl	%eax, %eax
 4062 0092 660FEFC0 		pxor	%xmm0, %xmm0
 4063 0096 31F6     		xorl	%esi, %esi
 4064 0098 66898424 		movw	%ax, 416(%rsp)
 4064      A0010000 
 4065 00a0 488D0500 		leaq	24+_ZTCN8UnitTest15MemoryOutStreamE0_So(%rip), %rax
 4065      000000
 4066 00a7 4C89FF   		movq	%r15, %rdi
 4067 00aa 48894424 		movq	%rax, 48(%rsp)
 4067      30
 4068 00af 4883C028 		addq	$40, %rax
 4069 00b3 48C78424 		movq	$0, 408(%rsp)
 4069      98010000 
 4069      00000000 
 4070 00bf 48898424 		movq	%rax, 192(%rsp)
 4070      C0000000 
 4071 00c7 0F118424 		movups	%xmm0, 424(%rsp)
 4071      A8010000 
 4072 00cf 0F118424 		movups	%xmm0, 440(%rsp)
 4072      B8010000 
 4073              	.LEHB89:
 4074 00d7 E8000000 		call	_ZNSt9basic_iosIcSt11char_traitsIcEE4initEPSt15basic_streambufIcS1_E@PLT
 4074      00
 4075              	.LEHE89:
 4076 00dc 488D0500 		leaq	64+_ZTCN8UnitTest15MemoryOutStreamE0_NSt7__cxx1119basic_ostringstreamIcSt11char_traitsIcESaIc
 4076      000000
 4077 00e3 660F6F1C 		movdqa	(%rsp), %xmm3
 4077      24
 4078 00e8 660FEFC0 		pxor	%xmm0, %xmm0
 4079 00ec 4C8D7424 		leaq	48(%rsp), %r14
 4079      30
 4080 00f1 48898424 		movq	%rax, 192(%rsp)
 4080      C0000000 
 4081 00f9 488D4424 		leaq	112(%rsp), %rax
 4081      70
 4082 00fe 4889C7   		movq	%rax, %rdi
 4083 0101 48890424 		movq	%rax, (%rsp)
 4084 0105 0F295C24 		movaps	%xmm3, 48(%rsp)
 4084      30
 4085 010a 0F294424 		movaps	%xmm0, 64(%rsp)
 4085      40
 4086 010f 0F294424 		movaps	%xmm0, 80(%rsp)
 4086      50
 4087 0114 0F294424 		movaps	%xmm0, 96(%rsp)
 4087      60
 4088 0119 E8000000 		call	_ZNSt6localeC1Ev@PLT
 4088      00
 4089 011e 488D0500 		leaq	16+_ZTVNSt7__cxx1115basic_stringbufIcSt11char_traitsIcESaIcEEE(%rip), %rax
 4089      000000
 4090 0125 48C78424 		movq	$0, 136(%rsp)
 4090      88000000 
 4090      00000000 
 4091 0131 488D7424 		leaq	56(%rsp), %rsi
 4091      38
 4092 0136 48894424 		movq	%rax, 56(%rsp)
 4092      38
 4093 013b 488D8424 		leaq	144(%rsp), %rax
 4093      90000000 
 4094 0143 48894424 		movq	%rax, 32(%rsp)
 4094      20
 4095 0148 48898424 		movq	%rax, 128(%rsp)
 4095      80000000 
 4096 0150 488B4424 		movq	48(%rsp), %rax
 4096      30
 4097 0155 C6842490 		movb	$0, 144(%rsp)
 4097      00000000 
 4098 015d 488B78E8 		movq	-24(%rax), %rdi
 4099 0161 C7442478 		movl	$16, 120(%rsp)
 4099      10000000 
 4100 0169 4C01F7   		addq	%r14, %rdi
 4101              	.LEHB90:
 4102 016c E8000000 		call	_ZNSt9basic_iosIcSt11char_traitsIcEE4initEPSt15basic_streambufIcS1_E@PLT
 4102      00
 4103              	.LEHE90:
 4104 0171 488D0500 		leaq	24+_ZTVN8UnitTest15MemoryOutStreamE(%rip), %rax
 4104      000000
 4105 0178 BA090000 		movl	$9, %edx
 4105      00
 4106 017d 4C89F7   		movq	%r14, %rdi
 4107 0180 48C78424 		movq	$0, 168(%rsp)
 4107      A8000000 
 4107      00000000 
 4108 018c 48894424 		movq	%rax, 48(%rsp)
 4108      30
 4109 0191 4883C028 		addq	$40, %rax
 4110 0195 488D3500 		leaq	.LC13(%rip), %rsi
 4110      000000
 4111 019c 48898424 		movq	%rax, 192(%rsp)
 4111      C0000000 
 4112 01a4 488D8424 		leaq	176(%rsp), %rax
 4112      B0000000 
 4113 01ac 48894424 		movq	%rax, 40(%rsp)
 4113      28
 4114 01b1 48898424 		movq	%rax, 160(%rsp)
 4114      A0000000 
 4115 01b9 C68424B0 		movb	$0, 176(%rsp)
 4115      00000000 
 4116              	.LEHB91:
 4117 01c1 E8000000 		call	_ZSt16__ostream_insertIcSt11char_traitsIcEERSt13basic_ostreamIT_T0_ES6_PKS3_l@PLT
 4117      00
 4118 01c6 488B6D00 		movq	0(%rbp), %rbp
 4119 01ca 4885ED   		testq	%rbp, %rbp
 4120 01cd 0F84FD00 		je	.L420
 4120      0000
 4121 01d3 4889EF   		movq	%rbp, %rdi
 4122 01d6 E8000000 		call	strlen@PLT
 4122      00
 4123 01db 4889EE   		movq	%rbp, %rsi
 4124 01de 4C89F7   		movq	%r14, %rdi
 4125 01e1 4889C2   		movq	%rax, %rdx
 4126 01e4 E8000000 		call	_ZSt16__ostream_insertIcSt11char_traitsIcEERSt13basic_ostreamIT_T0_ES6_PKS3_l@PLT
 4126      00
 4127              	.L403:
 4128 01e9 BA090000 		movl	$9, %edx
 4128      00
 4129 01ee 488D3500 		leaq	.LC17(%rip), %rsi
 4129      000000
 4130 01f5 4C89F7   		movq	%r14, %rdi
 4131 01f8 E8000000 		call	_ZSt16__ostream_insertIcSt11char_traitsIcEERSt13basic_ostreamIT_T0_ES6_PKS3_l@PLT
 4131      00
 4132 01fd 488B5308 		movq	8(%rbx), %rdx
 4133 0201 488B33   		movq	(%rbx), %rsi
 4134 0204 4C89F7   		movq	%r14, %rdi
 4135 0207 E8000000 		call	_ZSt16__ostream_insertIcSt11char_traitsIcEERSt13basic_ostreamIT_T0_ES6_PKS3_l@PLT
 4135      00
 4136 020c 4C89F7   		movq	%r14, %rdi
 4137 020f E8000000 		call	_ZNK8UnitTest15MemoryOutStream7GetTextEv@PLT
 4137      00
 4138 0214 F30F7E15 		movq	.LC28(%rip), %xmm2
 4138      00000000 
 4139 021c 4889C2   		movq	%rax, %rdx
 4140 021f 4C89EE   		movq	%r13, %rsi
 4141 0222 4C89E7   		movq	%r12, %rdi
 4142 0225 0F161500 		movhps	.LC29(%rip), %xmm2
 4142      000000
 4143 022c 0F295424 		movaps	%xmm2, 16(%rsp)
 4143      10
 4144 0231 E8000000 		call	_ZN8UnitTest11TestResults13OnTestFailureERKNS_11TestDetailsEPKc@PLT
 4144      00
 4145              	.LEHE91:
 4146 0236 488D0500 		leaq	24+_ZTVN8UnitTest15MemoryOutStreamE(%rip), %rax
 4146      000000
 4147 023d 488BBC24 		movq	160(%rsp), %rdi
 4147      A0000000 
 4148 0245 48894424 		movq	%rax, 48(%rsp)
 4148      30
 4149 024a 4883C028 		addq	$40, %rax
 4150 024e 48898424 		movq	%rax, 192(%rsp)
 4150      C0000000 
 4151 0256 483B7C24 		cmpq	40(%rsp), %rdi
 4151      28
 4152 025b 7405     		je	.L404
 4153 025d E8000000 		call	_ZdlPv@PLT
 4153      00
 4154              	.L404:
 4155 0262 660F6F64 		movdqa	16(%rsp), %xmm4
 4155      2410
 4156 0268 488D0500 		leaq	64+_ZTCN8UnitTest15MemoryOutStreamE0_NSt7__cxx1119basic_ostringstreamIcSt11char_traitsIcESaIc
 4156      000000
 4157 026f 488BBC24 		movq	128(%rsp), %rdi
 4157      80000000 
 4158 0277 48898424 		movq	%rax, 192(%rsp)
 4158      C0000000 
 4159 027f 0F296424 		movaps	%xmm4, 48(%rsp)
 4159      30
 4160 0284 483B7C24 		cmpq	32(%rsp), %rdi
 4160      20
 4161 0289 7405     		je	.L405
 4162 028b E8000000 		call	_ZdlPv@PLT
 4162      00
 4163              	.L405:
 4164 0290 488B3C24 		movq	(%rsp), %rdi
 4165 0294 488D0500 		leaq	16+_ZTVSt15basic_streambufIcSt11char_traitsIcEE(%rip), %rax
 4165      000000
 4166 029b 48894424 		movq	%rax, 56(%rsp)
 4166      38
 4167 02a0 E8000000 		call	_ZNSt6localeD1Ev@PLT
 4167      00
 4168 02a5 488D0500 		leaq	24+_ZTCN8UnitTest15MemoryOutStreamE0_So(%rip), %rax
 4168      000000
 4169 02ac 4C89FF   		movq	%r15, %rdi
 4170 02af 48894424 		movq	%rax, 48(%rsp)
 4170      30
 4171 02b4 488D0500 		leaq	16+_ZTVSt9basic_iosIcSt11char_traitsIcEE(%rip), %rax
 4171      000000
 4172 02bb 48898424 		movq	%rax, 192(%rsp)
 4172      C0000000 
 4173              	.LEHB92:
 4174 02c3 E8000000 		call	_ZNSt8ios_baseD2Ev@PLT
 4174      00
 4175              	.LEHE92:
 4176 02c8 E989FDFF 		jmp	.L394
 4176      FF
 4177 02cd 0F1F00   		.p2align 4,,10
 4178              		.p2align 3
 4179              	.L420:
 4180 02d0 488B4424 		movq	48(%rsp), %rax
 4180      30
 4181 02d5 488B78E8 		movq	-24(%rax), %rdi
 4182 02d9 4C01F7   		addq	%r14, %rdi
 4183 02dc 8B7720   		movl	32(%rdi), %esi
 4184 02df 83CE01   		orl	$1, %esi
 4185              	.LEHB93:
 4186 02e2 E8000000 		call	_ZNSt9basic_iosIcSt11char_traitsIcEE5clearESt12_Ios_Iostate@PLT
 4186      00
 4187              	.LEHE93:
 4188 02e7 E9FDFEFF 		jmp	.L403
 4188      FF
 4189              	.L419:
 4190 02ec E8000000 		call	__stack_chk_fail@PLT
 4190      00
 4191              	.L410:
 4192 02f1 F30F1EFA 		endbr64
 4193 02f5 4889C3   		movq	%rax, %rbx
 4194 02f8 EB12     		jmp	.L397
 4195              	.L408:
 4196 02fa F30F1EFA 		endbr64
 4197 02fe 4889C5   		movq	%rax, %rbp
 4198 0301 EB69     		jmp	.L406
 4199              	.L409:
 4200 0303 F30F1EFA 		endbr64
 4201 0307 4889C3   		movq	%rax, %rbx
 4202 030a EB41     		jmp	.L399
 4203              	.L397:
 4204 030c 488D0500 		leaq	16+_ZTVNSt7__cxx1115basic_stringbufIcSt11char_traitsIcESaIcEEE(%rip), %rax
 4204      000000
 4205 0313 488BBC24 		movq	128(%rsp), %rdi
 4205      80000000 
 4206 031b 48894424 		movq	%rax, 56(%rsp)
 4206      38
 4207 0320 483B7C24 		cmpq	32(%rsp), %rdi
 4207      20
 4208 0325 7405     		je	.L398
 4209 0327 E8000000 		call	_ZdlPv@PLT
 4209      00
 4210              	.L398:
 4211 032c 488B3C24 		movq	(%rsp), %rdi
 4212 0330 488D0500 		leaq	16+_ZTVSt15basic_streambufIcSt11char_traitsIcEE(%rip), %rax
 4212      000000
 4213 0337 48894424 		movq	%rax, 56(%rsp)
 4213      38
 4214 033c E8000000 		call	_ZNSt6localeD1Ev@PLT
 4214      00
 4215 0341 488D0500 		leaq	24+_ZTCN8UnitTest15MemoryOutStreamE0_So(%rip), %rax
 4215      000000
 4216 0348 48894424 		movq	%rax, 48(%rsp)
 4216      30
 4217              	.L399:
 4218 034d 488D0500 		leaq	16+_ZTVSt9basic_iosIcSt11char_traitsIcEE(%rip), %rax
 4218      000000
 4219 0354 4C89FF   		movq	%r15, %rdi
 4220 0357 48898424 		movq	%rax, 192(%rsp)
 4220      C0000000 
 4221 035f E8000000 		call	_ZNSt8ios_baseD2Ev@PLT
 4221      00
 4222 0364 4889DF   		movq	%rbx, %rdi
 4223              	.LEHB94:
 4224 0367 E8000000 		call	_Unwind_Resume@PLT
 4224      00
 4225              	.LEHE94:
 4226              	.L406:
 4227 036c 4C89F7   		movq	%r14, %rdi
 4228 036f E8000000 		call	_ZN8UnitTest15MemoryOutStreamD1Ev
 4228      00
 4229 0374 4889EF   		movq	%rbp, %rdi
 4230              	.LEHB95:
 4231 0377 E8000000 		call	_Unwind_Resume@PLT
 4231      00
 4232              	.LEHE95:
 4233              		.cfi_endproc
 4234              	.LFE1607:
 4235              		.section	.gcc_except_table
 4236              	.LLSDA1607:
 4237 02ec FF       		.byte	0xff
 4238 02ed FF       		.byte	0xff
 4239 02ee 01       		.byte	0x1
 4240 02ef 2B       		.uleb128 .LLSDACSE1607-.LLSDACSB1607
 4241              	.LLSDACSB1607:
 4242 02f0 4D       		.uleb128 .LEHB88-.LFB1607
 4243 02f1 05       		.uleb128 .LEHE88-.LEHB88
 4244 02f2 00       		.uleb128 0
 4245 02f3 00       		.uleb128 0
 4246 02f4 D701     		.uleb128 .LEHB89-.LFB1607
 4247 02f6 05       		.uleb128 .LEHE89-.LEHB89
 4248 02f7 8306     		.uleb128 .L409-.LFB1607
 4249 02f9 00       		.uleb128 0
 4250 02fa EC02     		.uleb128 .LEHB90-.LFB1607
 4251 02fc 05       		.uleb128 .LEHE90-.LEHB90
 4252 02fd F105     		.uleb128 .L410-.LFB1607
 4253 02ff 00       		.uleb128 0
 4254 0300 C103     		.uleb128 .LEHB91-.LFB1607
 4255 0302 75       		.uleb128 .LEHE91-.LEHB91
 4256 0303 FA05     		.uleb128 .L408-.LFB1607
 4257 0305 00       		.uleb128 0
 4258 0306 C305     		.uleb128 .LEHB92-.LFB1607
 4259 0308 05       		.uleb128 .LEHE92-.LEHB92
 4260 0309 00       		.uleb128 0
 4261 030a 00       		.uleb128 0
 4262 030b E205     		.uleb128 .LEHB93-.LFB1607
 4263 030d 05       		.uleb128 .LEHE93-.LEHB93
 4264 030e FA05     		.uleb128 .L408-.LFB1607
 4265 0310 00       		.uleb128 0
 4266 0311 E706     		.uleb128 .LEHB94-.LFB1607
 4267 0313 05       		.uleb128 .LEHE94-.LEHB94
 4268 0314 00       		.uleb128 0
 4269 0315 00       		.uleb128 0
 4270 0316 F706     		.uleb128 .LEHB95-.LFB1607
 4271 0318 05       		.uleb128 .LEHE95-.LEHB95
 4272 0319 00       		.uleb128 0
 4273 031a 00       		.uleb128 0
 4274              	.LLSDACSE1607:
 4275              		.section	.text._ZN8UnitTest10CheckEqualIPKcNSt7__cxx1112basic_stringIcSt11char_traitsIcESaIcEEEEEv
 4277              		.section	.rodata.str1.1
 4278              	.LC30:
 4279 0067 5265616C 		.string	"Real failure message"
 4279      20666169 
 4279      6C757265 
 4279      206D6573 
 4279      73616765 
 4280              		.section	.rodata.str1.8
 4281 017b 00000000 		.align 8
 4281      00
 4282              	.LC31:
 4283 0180 556E6861 		.string	"Unhandled exception in CHECK_EQUAL(goodStr, failure.second)"
 4283      6E646C65 
 4283      64206578 
 4283      63657074 
 4283      696F6E20 
 4284              		.section	.text.unlikely
 4285              	.LCOLDB34:
 4286              		.text
 4287              	.LHOTB34:
 4288 124b 0F1F4400 		.p2align 4
 4288      00
 4290              	_ZN8UnitTest11ExecuteTestINS_12_GLOBAL__N_178DeferredTestReporterFixtureDeferredTestReporterTakesCo
 4291              	.LFB1615:
 4292              		.cfi_startproc
 4293              		.cfi_personality 0x9b,DW.ref.__gxx_personality_v0
 4294              		.cfi_lsda 0x1b,.LLSDA1615
 4295 1250 4156     		pushq	%r14
 4296              		.cfi_def_cfa_offset 16
 4297              		.cfi_offset 14, -16
 4298 1252 4155     		pushq	%r13
 4299              		.cfi_def_cfa_offset 24
 4300              		.cfi_offset 13, -24
 4301 1254 4154     		pushq	%r12
 4302              		.cfi_def_cfa_offset 32
 4303              		.cfi_offset 12, -32
 4304 1256 55       		pushq	%rbp
 4305              		.cfi_def_cfa_offset 40
 4306              		.cfi_offset 6, -40
 4307 1257 53       		pushq	%rbx
 4308              		.cfi_def_cfa_offset 48
 4309              		.cfi_offset 3, -48
 4310 1258 4889F3   		movq	%rsi, %rbx
 4311 125b 4881EC10 		subq	$1808, %rsp
 4311      070000
 4312              		.cfi_def_cfa_offset 1856
 4313 1262 48893C24 		movq	%rdi, (%rsp)
 4314 1266 48897424 		movq	%rsi, 8(%rsp)
 4314      08
 4315 126b 64488B04 		movq	%fs:40, %rax
 4315      25280000 
 4315      00
 4316 1274 48898424 		movq	%rax, 1800(%rsp)
 4316      08070000 
 4317 127c 31C0     		xorl	%eax, %eax
 4318              	.LEHB96:
 4319 127e E8000000 		call	_ZN8UnitTest11CurrentTest7DetailsEv@PLT
 4319      00
 4320              	.LEHE96:
 4321 1283 488DBC24 		leaq	544(%rsp), %rdi
 4321      20020000 
 4322 128b 488918   		movq	%rbx, (%rax)
 4323              	.LEHB97:
 4324 128e E8000000 		call	_ZN8UnitTest16SignalTranslatorC1Ev@PLT
 4324      00
 4325              	.LEHE97:
 4326 1293 488B3D00 		movq	_ZN8UnitTest16SignalTranslator12s_jumpTargetE(%rip), %rdi
 4326      000000
 4327 129a BE010000 		movl	$1, %esi
 4327      00
 4328 129f E8000000 		call	__sigsetjmp@PLT
 4328      00
 4329 12a4 F30F1EFA 		endbr64
 4330 12a8 85C0     		testl	%eax, %eax
 4331 12aa 0F850000 		jne	.L452
 4331      0000
 4332 12b0 488B1C24 		movq	(%rsp), %rbx
 4333 12b4 4C8DA388 		leaq	136(%rbx), %r12
 4333      000000
 4334 12bb 4889DF   		movq	%rbx, %rdi
 4335 12be 4C89E6   		movq	%r12, %rsi
 4336              	.LEHB98:
 4337 12c1 E8000000 		call	_ZN8UnitTest20DeferredTestReporter15ReportTestStartERKNS_11TestDetailsE@PLT
 4337      00
 4338 12c6 660F6F05 		movdqa	.LC32(%rip), %xmm0
 4338      00000000 
 4339 12ce 488D0500 		leaq	.LC30(%rip), %rax
 4339      000000
 4340 12d5 4C89E6   		movq	%r12, %rsi
 4341 12d8 4889DF   		movq	%rbx, %rdi
 4342 12db 488D9424 		leaq	1664(%rsp), %rdx
 4342      80060000 
 4343 12e3 48894424 		movq	%rax, 24(%rsp)
 4343      18
 4344 12e8 C7842490 		movl	$1701273971, 1680(%rsp)
 4344      06000073 
 4344      616765
 4345 12f3 C6842494 		movb	$0, 1684(%rsp)
 4345      06000000 
 4346 12fb 0F298424 		movaps	%xmm0, 1664(%rsp)
 4346      80060000 
 4347 1303 E8000000 		call	_ZN8UnitTest20DeferredTestReporter13ReportFailureERKNS_11TestDetailsEPKc@PLT
 4347      00
 4348 1308 660F6F05 		movdqa	.LC33(%rip), %xmm0
 4348      00000000 
 4349 1310 B8650000 		movl	$101, %eax
 4349      00
 4350 1315 4889DF   		movq	%rbx, %rdi
 4351 1318 C7842490 		movl	$1734439795, 1680(%rsp)
 4351      06000073 
 4351      736167
 4352 1323 66898424 		movw	%ax, 1684(%rsp)
 4352      94060000 
 4353 132b 0F298424 		movaps	%xmm0, 1664(%rsp)
 4353      80060000 
 4354 1333 E8000000 		call	_ZN8UnitTest20DeferredTestReporter10GetResultsEv@PLT
 4354      00
 4355              	.LEHE98:
 4356 1338 488B10   		movq	(%rax), %rdx
 4357 133b 48395008 		cmpq	%rdx, 8(%rax)
 4358 133f 746F     		je	.L455
 4359 1341 4C8B6260 		movq	96(%rdx), %r12
 4360 1345 4C396268 		cmpq	%r12, 104(%rdx)
 4361 1349 747C     		je	.L456
 4362              	.LEHB99:
 4363 134b E8000000 		call	_ZN8UnitTest11CurrentTest7DetailsEv@PLT
 4363      00
 4364 1350 488B30   		movq	(%rax), %rsi
 4365 1353 488D7C24 		leaq	96(%rsp), %rdi
 4365      60
 4366 1358 BA720000 		movl	$114, %edx
 4366      00
 4367 135d E8000000 		call	_ZN8UnitTest11TestDetailsC1ERKS0_i@PLT
 4367      00
 4368 1362 4983C408 		addq	$8, %r12
 4369 1366 E8000000 		call	_ZN8UnitTest11CurrentTest7ResultsEv@PLT
 4369      00
 4370 136b 488B38   		movq	(%rax), %rdi
 4371 136e 488D4C24 		leaq	96(%rsp), %rcx
 4371      60
 4372 1373 488D7424 		leaq	24(%rsp), %rsi
 4372      18
 4373 1378 4C89E2   		movq	%r12, %rdx
 4374 137b E8000000 		call	_ZN8UnitTest10CheckEqualIPKcNSt7__cxx1112basic_stringIcSt11char_traitsIcESaIcEEEEEvRNS_11Test
 4374      00
 4375              	.LEHE99:
 4376              	.L428:
 4377 1380 488DBC24 		leaq	544(%rsp), %rdi
 4377      20020000 
 4378              	.LEHB100:
 4379 1388 E8000000 		call	_ZN8UnitTest16SignalTranslatorD1Ev@PLT
 4379      00
 4380              	.LEHE100:
 4381              	.L421:
 4382 138d 488B8424 		movq	1800(%rsp), %rax
 4382      08070000 
 4383 1395 64482B04 		subq	%fs:40, %rax
 4383      25280000 
 4383      00
 4384 139e 7522     		jne	.L457
 4385 13a0 4881C410 		addq	$1808, %rsp
 4385      070000
 4386              		.cfi_remember_state
 4387              		.cfi_def_cfa_offset 48
 4388 13a7 5B       		popq	%rbx
 4389              		.cfi_def_cfa_offset 40
 4390 13a8 5D       		popq	%rbp
 4391              		.cfi_def_cfa_offset 32
 4392 13a9 415C     		popq	%r12
 4393              		.cfi_def_cfa_offset 24
 4394 13ab 415D     		popq	%r13
 4395              		.cfi_def_cfa_offset 16
 4396 13ad 415E     		popq	%r14
 4397              		.cfi_def_cfa_offset 8
 4398 13af C3       		ret
 4399              	.L455:
 4400              		.cfi_restore_state
 4401 13b0 31D2     		xorl	%edx, %edx
 4402 13b2 31F6     		xorl	%esi, %esi
 4403 13b4 488D3D00 		leaq	.LC10(%rip), %rdi
 4403      000000
 4404 13bb 31C0     		xorl	%eax, %eax
 4405              	.LEHB101:
 4406 13bd E8000000 		call	_ZSt24__throw_out_of_range_fmtPKcz@PLT
 4406      00
 4407              	.L457:
 4408 13c2 E8000000 		call	__stack_chk_fail@PLT
 4408      00
 4409              	.L456:
 4410 13c7 31D2     		xorl	%edx, %edx
 4411 13c9 31F6     		xorl	%esi, %esi
 4412 13cb 488D3D00 		leaq	.LC10(%rip), %rdi
 4412      000000
 4413 13d2 31C0     		xorl	%eax, %eax
 4414 13d4 E8000000 		call	_ZSt24__throw_out_of_range_fmtPKcz@PLT
 4414      00
 4415              	.LEHE101:
 4416              	.L442:
 4417 13d9 F30F1EFA 		endbr64
 4418 13dd 4889C7   		movq	%rax, %rdi
 4419 13e0 4889D0   		movq	%rdx, %rax
 4420 13e3 E9000000 		jmp	.L431
 4420      00
 4421              	.L449:
 4422 13e8 F30F1EFA 		endbr64
 4423 13ec 4889C7   		movq	%rax, %rdi
 4424 13ef E9000000 		jmp	.L427
 4424      00
 4425              	.L450:
 4426 13f4 F30F1EFA 		endbr64
 4427 13f8 E9000000 		jmp	.L451
 4427      00
 4428              		.section	.gcc_except_table
 4429 031b 00       		.align 4
 4430              	.LLSDA1615:
 4431 031c FF       		.byte	0xff
 4432 031d 9B       		.byte	0x9b
 4433 031e 39       		.uleb128 .LLSDATT1615-.LLSDATTD1615
 4434              	.LLSDATTD1615:
 4435 031f 01       		.byte	0x1
 4436 0320 20       		.uleb128 .LLSDACSE1615-.LLSDACSB1615
 4437              	.LLSDACSB1615:
 4438 0321 2E       		.uleb128 .LEHB96-.LFB1615
 4439 0322 05       		.uleb128 .LEHE96-.LEHB96
 4440 0323 00       		.uleb128 0
 4441 0324 00       		.uleb128 0
 4442 0325 3E       		.uleb128 .LEHB97-.LFB1615
 4443 0326 05       		.uleb128 .LEHE97-.LEHB97
 4444 0327 8903     		.uleb128 .L442-.LFB1615
 4445 0329 05       		.uleb128 0x5
 4446 032a 71       		.uleb128 .LEHB98-.LFB1615
 4447 032b 77       		.uleb128 .LEHE98-.LEHB98
 4448 032c A403     		.uleb128 .L450-.LFB1615
 4449 032e 07       		.uleb128 0x7
 4450 032f FB01     		.uleb128 .LEHB99-.LFB1615
 4451 0331 35       		.uleb128 .LEHE99-.LEHB99
 4452 0332 9803     		.uleb128 .L449-.LFB1615
 4453 0334 01       		.uleb128 0x1
 4454 0335 B802     		.uleb128 .LEHB100-.LFB1615
 4455 0337 05       		.uleb128 .LEHE100-.LEHB100
 4456 0338 8903     		.uleb128 .L442-.LFB1615
 4457 033a 05       		.uleb128 0x5
 4458 033b ED02     		.uleb128 .LEHB101-.LFB1615
 4459 033d 1C       		.uleb128 .LEHE101-.LEHB101
 4460 033e A403     		.uleb128 .L450-.LFB1615
 4461 0340 07       		.uleb128 0x7
 4462              	.LLSDACSE1615:
 4463 0341 03       		.byte	0x3
 4464 0342 00       		.byte	0
 4465 0343 02       		.byte	0x2
 4466 0344 7D       		.byte	0x7d
 4467 0345 01       		.byte	0x1
 4468 0346 7D       		.byte	0x7d
 4469 0347 00       		.byte	0
 4470 0348 7D       		.byte	0x7d
 4471 0349 000000   		.align 4
 4472 034c 00000000 		.long	0
 4473              	
 4474 0350 00000000 		.long	DW.ref._ZTISt9exception-.
 4475 0354 00000000 		.long	DW.ref._ZTIN8UnitTest15AssertExceptionE-.
 4476              	.LLSDATT1615:
 4477              		.text
 4478              		.cfi_endproc
 4479              		.section	.text.unlikely
 4480              		.cfi_startproc
 4481              		.cfi_personality 0x9b,DW.ref.__gxx_personality_v0
 4482              		.cfi_lsda 0x1b,.LLSDAC1615
 4484              	_ZN8UnitTest11ExecuteTestINS_12_GLOBAL__N_178DeferredTestReporterFixtureDeferredTestReporterTakesCo
 4485              	.LFSB1615:
 4486 0b23 90       		nop
 4487              	.L448:
 4488              		.cfi_def_cfa_offset 1856
 4489              		.cfi_offset 3, -48
 4490              		.cfi_offset 6, -40
 4491              		.cfi_offset 12, -32
 4492              		.cfi_offset 13, -24
 4493              		.cfi_offset 14, -16
 4494 0b24 F30F1EFA 		endbr64
 4495 0b28 4889C3   		movq	%rax, %rbx
 4496 0b2b 4989D4   		movq	%rdx, %r12
 4497 0b2e E8000000 		call	__cxa_end_catch@PLT
 4497      00
 4498              	.L430:
 4499 0b33 488DBC24 		leaq	544(%rsp), %rdi
 4499      20020000 
 4500 0b3b E8000000 		call	_ZN8UnitTest16SignalTranslatorD1Ev@PLT
 4500      00
 4501 0b40 4889DF   		movq	%rbx, %rdi
 4502 0b43 4C89E0   		movq	%r12, %rax
 4503              	.L431:
 4504 0b46 4883F801 		cmpq	$1, %rax
 4505 0b4a 7474     		je	.L432
 4506 0b4c 4883F802 		cmpq	$2, %rax
 4507 0b50 0F84E300 		je	.L458
 4507      0000
 4508 0b56 E8000000 		call	__cxa_begin_catch@PLT
 4508      00
 4509              	.LEHB102:
 4510 0b5b E8000000 		call	_ZN8UnitTest11CurrentTest7ResultsEv@PLT
 4510      00
 4511 0b60 488B7424 		movq	8(%rsp), %rsi
 4511      08
 4512 0b65 488B38   		movq	(%rax), %rdi
 4513 0b68 488D1500 		leaq	.LC20(%rip), %rdx
 4513      000000
 4514 0b6f E8000000 		call	_ZN8UnitTest11TestResults13OnTestFailureERKNS_11TestDetailsEPKc@PLT
 4514      00
 4515              	.LEHE102:
 4516              	.LEHB103:
 4517 0b74 E8000000 		call	__cxa_end_catch@PLT
 4517      00
 4518              	.LEHE103:
 4519 0b79 E9000000 		jmp	.L421
 4519      00
 4520              	.L427:
 4521 0b7e E8000000 		call	__cxa_begin_catch@PLT
 4521      00
 4522              	.LEHB104:
 4523 0b83 E8000000 		call	_ZN8UnitTest11CurrentTest7ResultsEv@PLT
 4523      00
 4524 0b88 488B28   		movq	(%rax), %rbp
 4525 0b8b E8000000 		call	_ZN8UnitTest11CurrentTest7DetailsEv@PLT
 4525      00
 4526 0b90 488B30   		movq	(%rax), %rsi
 4527 0b93 488D7C24 		leaq	64(%rsp), %rdi
 4527      40
 4528 0b98 BA720000 		movl	$114, %edx
 4528      00
 4529 0b9d E8000000 		call	_ZN8UnitTest11TestDetailsC1ERKS0_i@PLT
 4529      00
 4530 0ba2 488D7424 		leaq	64(%rsp), %rsi
 4530      40
 4531 0ba7 488D1500 		leaq	.LC31(%rip), %rdx
 4531      000000
 4532 0bae 4889EF   		movq	%rbp, %rdi
 4533 0bb1 E8000000 		call	_ZN8UnitTest11TestResults13OnTestFailureERKNS_11TestDetailsEPKc@PLT
 4533      00
 4534              	.LEHE104:
 4535              	.LEHB105:
 4536 0bb6 E8000000 		call	__cxa_end_catch@PLT
 4536      00
 4537              	.LEHE105:
 4538 0bbb E9000000 		jmp	.L428
 4538      00
 4539              	.L432:
 4540 0bc0 E8000000 		call	__cxa_begin_catch@PLT
 4540      00
 4541 0bc5 4989C4   		movq	%rax, %r12
 4542              	.LEHB106:
 4543 0bc8 E8000000 		call	_ZN8UnitTest11CurrentTest7ResultsEv@PLT
 4543      00
 4544 0bcd 4C8B28   		movq	(%rax), %r13
 4545 0bd0 498B0424 		movq	(%r12), %rax
 4546 0bd4 4C89E7   		movq	%r12, %rdi
 4547 0bd7 FF5010   		call	*16(%rax)
 4548 0bda 4C89E7   		movq	%r12, %rdi
 4549 0bdd 4989C6   		movq	%rax, %r14
 4550 0be0 E8000000 		call	_ZNK8UnitTest15AssertException10LineNumberEv@PLT
 4550      00
 4551 0be5 4C89E7   		movq	%r12, %rdi
 4552 0be8 89C5     		movl	%eax, %ebp
 4553 0bea E8000000 		call	_ZNK8UnitTest15AssertException8FilenameEv@PLT
 4553      00
 4554 0bef 4889C1   		movq	%rax, %rcx
 4555 0bf2 488B4424 		movq	8(%rsp), %rax
 4555      08
 4556 0bf7 488D7C24 		leaq	32(%rsp), %rdi
 4556      20
 4557 0bfc 4189E8   		movl	%ebp, %r8d
 4558 0bff 488B7008 		movq	8(%rax), %rsi
 4559 0c03 488B10   		movq	(%rax), %rdx
 4560 0c06 E8000000 		call	_ZN8UnitTest11TestDetailsC1EPKcS2_S2_i@PLT
 4560      00
 4561 0c0b 488D7424 		leaq	32(%rsp), %rsi
 4561      20
 4562 0c10 4C89F2   		movq	%r14, %rdx
 4563 0c13 4C89EF   		movq	%r13, %rdi
 4564 0c16 E8000000 		call	_ZN8UnitTest11TestResults13OnTestFailureERKNS_11TestDetailsEPKc@PLT
 4564      00
 4565              	.LEHE106:
 4566 0c1b E8000000 		call	__cxa_end_catch@PLT
 4566      00
 4567 0c20 E9000000 		jmp	.L421
 4567      00
 4568              	.L444:
 4569 0c25 F30F1EFA 		endbr64
 4570 0c29 4989C4   		movq	%rax, %r12
 4571 0c2c E8000000 		call	__cxa_end_catch@PLT
 4571      00
 4572 0c31 4C89E7   		movq	%r12, %rdi
 4573              	.LEHB107:
 4574 0c34 E8000000 		call	_Unwind_Resume@PLT
 4574      00
 4575              	.LEHE107:
 4576              	.L458:
 4577 0c39 E8000000 		call	__cxa_begin_catch@PLT
 4577      00
 4578 0c3e 488DBC24 		leaq	128(%rsp), %rdi
 4578      80000000 
 4579 0c46 4989C4   		movq	%rax, %r12
 4580              	.LEHB108:
 4581 0c49 E8000000 		call	_ZN8UnitTest15MemoryOutStreamC1Ev
 4581      00
 4582              	.LEHE108:
 4583 0c4e 488DBC24 		leaq	128(%rsp), %rdi
 4583      80000000 
 4584 0c56 BA150000 		movl	$21, %edx
 4584      00
 4585 0c5b 488D3500 		leaq	.LC19(%rip), %rsi
 4585      000000
 4586              	.LEHB109:
 4587 0c62 E8000000 		call	_ZSt16__ostream_insertIcSt11char_traitsIcEERSt13basic_ostreamIT_T0_ES6_PKS3_l@PLT
 4587      00
 4588 0c67 498B0424 		movq	(%r12), %rax
 4589 0c6b 4C89E7   		movq	%r12, %rdi
 4590 0c6e FF5010   		call	*16(%rax)
 4591 0c71 488DBC24 		leaq	128(%rsp), %rdi
 4591      80000000 
 4592 0c79 4889C6   		movq	%rax, %rsi
 4593 0c7c E8000000 		call	_ZStlsISt11char_traitsIcEERSt13basic_ostreamIcT_ES5_PKc@PLT
 4593      00
 4594 0c81 E8000000 		call	_ZN8UnitTest11CurrentTest7ResultsEv@PLT
 4594      00
 4595 0c86 488DBC24 		leaq	128(%rsp), %rdi
 4595      80000000 
 4596 0c8e 488B28   		movq	(%rax), %rbp
 4597 0c91 E8000000 		call	_ZNK8UnitTest15MemoryOutStream7GetTextEv@PLT
 4597      00
 4598 0c96 488B7424 		movq	8(%rsp), %rsi
 4598      08
 4599 0c9b 4889C2   		movq	%rax, %rdx
 4600 0c9e 4889EF   		movq	%rbp, %rdi
 4601 0ca1 E8000000 		call	_ZN8UnitTest11TestResults13OnTestFailureERKNS_11TestDetailsEPKc@PLT
 4601      00
 4602              	.LEHE109:
 4603 0ca6 488DBC24 		leaq	128(%rsp), %rdi
 4603      80000000 
 4604              	.LEHB110:
 4605 0cae E8000000 		call	_ZN8UnitTest15MemoryOutStreamD1Ev
 4605      00
 4606              	.LEHE110:
 4607 0cb3 E8000000 		call	__cxa_end_catch@PLT
 4607      00
 4608 0cb8 E9000000 		jmp	.L421
 4608      00
 4609              	.L446:
 4610 0cbd F30F1EFA 		endbr64
 4611 0cc1 488DBC24 		leaq	128(%rsp), %rdi
 4611      80000000 
 4612 0cc9 4989C4   		movq	%rax, %r12
 4613 0ccc E8000000 		call	_ZN8UnitTest15MemoryOutStreamD1Ev
 4613      00
 4614              	.L439:
 4615 0cd1 E8000000 		call	__cxa_end_catch@PLT
 4615      00
 4616 0cd6 4C89E7   		movq	%r12, %rdi
 4617              	.LEHB111:
 4618 0cd9 E8000000 		call	_Unwind_Resume@PLT
 4618      00
 4619              	.LEHE111:
 4620              	.L445:
 4621 0cde F30F1EFA 		endbr64
 4622 0ce2 4989C4   		movq	%rax, %r12
 4623 0ce5 EBEA     		jmp	.L439
 4624              	.L447:
 4625 0ce7 F30F1EFA 		endbr64
 4626 0ceb 4989C4   		movq	%rax, %r12
 4627 0cee E8000000 		call	__cxa_end_catch@PLT
 4627      00
 4628 0cf3 4C89E7   		movq	%r12, %rdi
 4629              	.LEHB112:
 4630 0cf6 E8000000 		call	_Unwind_Resume@PLT
 4630      00
 4631              	.LEHE112:
 4632              	.L452:
 4633 0cfb BF080000 		movl	$8, %edi
 4633      00
 4634 0d00 E8000000 		call	__cxa_allocate_exception@PLT
 4634      00
 4635 0d05 31D2     		xorl	%edx, %edx
 4636 0d07 488D3500 		leaq	_ZTIPKc(%rip), %rsi
 4636      000000
 4637 0d0e 4889C7   		movq	%rax, %rdi
 4638 0d11 488D0500 		leaq	.LC8(%rip), %rax
 4638      000000
 4639 0d18 488907   		movq	%rax, (%rdi)
 4640              	.LEHB113:
 4641 0d1b E8000000 		call	__cxa_throw@PLT
 4641      00
 4642              	.LEHE113:
 4643              	.L443:
 4644 0d20 F30F1EFA 		endbr64
 4645              	.L451:
 4646 0d24 4889C3   		movq	%rax, %rbx
 4647 0d27 4989D4   		movq	%rdx, %r12
 4648 0d2a E904FEFF 		jmp	.L430
 4648      FF
 4649              		.cfi_endproc
 4650              	.LFE1615:
 4651              		.section	.gcc_except_table
 4652              		.align 4
 4653              	.LLSDAC1615:
 4654 0358 FF       		.byte	0xff
 4655 0359 9B       		.byte	0x9b
 4656 035a 59       		.uleb128 .LLSDATTC1615-.LLSDATTDC1615
 4657              	.LLSDATTDC1615:
 4658 035b 01       		.byte	0x1
 4659 035c 40       		.uleb128 .LLSDACSEC1615-.LLSDACSBC1615
 4660              	.LLSDACSBC1615:
 4661 035d 38       		.uleb128 .LEHB102-.LCOLDB34
 4662 035e 19       		.uleb128 .LEHE102-.LEHB102
 4663 035f C403     		.uleb128 .L447-.LCOLDB34
 4664 0361 00       		.uleb128 0
 4665 0362 51       		.uleb128 .LEHB103-.LCOLDB34
 4666 0363 05       		.uleb128 .LEHE103-.LEHB103
 4667 0364 00       		.uleb128 0
 4668 0365 00       		.uleb128 0
 4669 0366 60       		.uleb128 .LEHB104-.LCOLDB34
 4670 0367 33       		.uleb128 .LEHE104-.LEHB104
 4671 0368 01       		.uleb128 .L448-.LCOLDB34
 4672 0369 07       		.uleb128 0x7
 4673 036a 9301     		.uleb128 .LEHB105-.LCOLDB34
 4674 036c 05       		.uleb128 .LEHE105-.LEHB105
 4675 036d FD03     		.uleb128 .L443-.LCOLDB34
 4676 036f 07       		.uleb128 0x7
 4677 0370 A501     		.uleb128 .LEHB106-.LCOLDB34
 4678 0372 53       		.uleb128 .LEHE106-.LEHB106
 4679 0373 8202     		.uleb128 .L444-.LCOLDB34
 4680 0375 00       		.uleb128 0
 4681 0376 9102     		.uleb128 .LEHB107-.LCOLDB34
 4682 0378 05       		.uleb128 .LEHE107-.LEHB107
 4683 0379 00       		.uleb128 0
 4684 037a 00       		.uleb128 0
 4685 037b A602     		.uleb128 .LEHB108-.LCOLDB34
 4686 037d 05       		.uleb128 .LEHE108-.LEHB108
 4687 037e BB03     		.uleb128 .L445-.LCOLDB34
 4688 0380 00       		.uleb128 0
 4689 0381 BF02     		.uleb128 .LEHB109-.LCOLDB34
 4690 0383 44       		.uleb128 .LEHE109-.LEHB109
 4691 0384 9A03     		.uleb128 .L446-.LCOLDB34
 4692 0386 00       		.uleb128 0
 4693 0387 8B03     		.uleb128 .LEHB110-.LCOLDB34
 4694 0389 05       		.uleb128 .LEHE110-.LEHB110
 4695 038a BB03     		.uleb128 .L445-.LCOLDB34
 4696 038c 00       		.uleb128 0
 4697 038d B603     		.uleb128 .LEHB111-.LCOLDB34
 4698 038f 05       		.uleb128 .LEHE111-.LEHB111
 4699 0390 00       		.uleb128 0
 4700 0391 00       		.uleb128 0
 4701 0392 D303     		.uleb128 .LEHB112-.LCOLDB34
 4702 0394 05       		.uleb128 .LEHE112-.LEHB112
 4703 0395 00       		.uleb128 0
 4704 0396 00       		.uleb128 0
 4705 0397 F803     		.uleb128 .LEHB113-.LCOLDB34
 4706 0399 05       		.uleb128 .LEHE113-.LEHB113
 4707 039a FD03     		.uleb128 .L443-.LCOLDB34
 4708 039c 07       		.uleb128 0x7
 4709              	.LLSDACSEC1615:
 4710 039d 03       		.byte	0x3
 4711 039e 00       		.byte	0
 4712 039f 02       		.byte	0x2
 4713 03a0 7D       		.byte	0x7d
 4714 03a1 01       		.byte	0x1
 4715 03a2 7D       		.byte	0x7d
 4716 03a3 00       		.byte	0
 4717 03a4 7D       		.byte	0x7d
 4718 03a5 000000   		.align 4
 4719 03a8 00000000 		.long	0
 4720              	
 4721 03ac 00000000 		.long	DW.ref._ZTISt9exception-.
 4722 03b0 00000000 		.long	DW.ref._ZTIN8UnitTest15AssertExceptionE-.
 4723              	.LLSDATTC1615:
 4724              		.section	.text.unlikely
 4725              		.text
 4727              		.section	.text.unlikely
 4729              	.LCOLDE34:
 4730              		.text
 4731              	.LHOTE34:
 4732              		.section	.text.unlikely
 4733 0d2f 90       		.align 2
 4734              	.LCOLDB35:
 4735              		.text
 4736              	.LHOTB35:
 4737 13fd 90       		.align 2
 4738 13fe 6690     		.p2align 4
 4740              	_ZNK8UnitTest12_GLOBAL__N_176TestDeferredTestReporterFixtureDeferredTestReporterTakesCopyOfFailureM
 4741              	.LFB1553:
 4742              		.cfi_startproc
 4743              		.cfi_personality 0x9b,DW.ref.__gxx_personality_v0
 4744              		.cfi_lsda 0x1b,.LLSDA1553
 4745 1400 F30F1EFA 		endbr64
 4746 1404 4157     		pushq	%r15
 4747              		.cfi_def_cfa_offset 16
 4748              		.cfi_offset 15, -16
 4749 1406 BA6D6500 		movl	$25965, %edx
 4749      00
 4750 140b B9697400 		movl	$29801, %ecx
 4750      00
 4751 1410 BE2E6800 		movl	$26670, %esi
 4751      00
 4752 1415 4156     		pushq	%r14
 4753              		.cfi_def_cfa_offset 24
 4754              		.cfi_offset 14, -24
 4755 1417 41B80C00 		movl	$12, %r8d
 4755      0000
 4756 141d 4155     		pushq	%r13
 4757              		.cfi_def_cfa_offset 32
 4758              		.cfi_offset 13, -32
 4759 141f 4154     		pushq	%r12
 4760              		.cfi_def_cfa_offset 40
 4761              		.cfi_offset 12, -40
 4762 1421 55       		pushq	%rbp
 4763              		.cfi_def_cfa_offset 48
 4764              		.cfi_offset 6, -48
 4765 1422 53       		pushq	%rbx
 4766              		.cfi_def_cfa_offset 56
 4767              		.cfi_offset 3, -56
 4768 1423 4881ECD8 		subq	$472, %rsp
 4768      010000
 4769              		.cfi_def_cfa_offset 528
 4770 142a 48893C24 		movq	%rdi, (%rsp)
 4771 142e 488D6C24 		leaq	96(%rsp), %rbp
 4771      60
 4772 1433 4C8DA424 		leaq	128(%rsp), %r12
 4772      80000000 
 4773 143b 4C8DAC24 		leaq	160(%rsp), %r13
 4773      A0000000 
 4774 1443 64488B04 		movq	%fs:40, %rax
 4774      25280000 
 4774      00
 4775 144c 48898424 		movq	%rax, 456(%rsp)
 4775      C8010000 
 4776 1454 4889F8   		movq	%rdi, %rax
 4777 1457 66895424 		movw	%dx, 108(%rsp)
 4777      6C
 4778 145c 4C89E2   		movq	%r12, %rdx
 4779 145f 488DBC24 		leaq	184(%rsp), %rdi
 4779      B8000000 
 4780 1467 66898C24 		movw	%cx, 140(%rsp)
 4780      8C000000 
 4781 146f 4C89E9   		movq	%r13, %rcx
 4782 1472 6689B424 		movw	%si, 168(%rsp)
 4782      A8000000 
 4783 147a 4889EE   		movq	%rbp, %rsi
 4784 147d 48C74424 		movq	$0, 56(%rsp)
 4784      38000000 
 4784      00
 4785 1486 48C74424 		movq	$0, 64(%rsp)
 4785      40000000 
 4785      00
 4786 148f 48C74424 		movq	$0, 72(%rsp)
 4786      48000000 
 4786      00
 4787 1498 4C8D7808 		leaq	8(%rax), %r15
 4788 149c 488D0500 		leaq	16+_ZTVN8UnitTest12_GLOBAL__N_124MockDeferredTestReporterE(%rip), %rax
 4788      000000
 4789 14a3 48896C24 		movq	%rbp, 80(%rsp)
 4789      50
 4790 14a8 48894424 		movq	%rax, 48(%rsp)
 4790      30
 4791 14ad 48B8556E 		movabsq	$7301572450962730581, %rax
 4791      69717565 
 4791      5465
 4792 14b7 48894424 		movq	%rax, 96(%rsp)
 4792      60
 4793 14bc 48898424 		movq	%rax, 128(%rsp)
 4793      80000000 
 4794 14c4 48B86669 		movabsq	$7308604897068083558, %rax
 4794      6C656E61 
 4794      6D65
 4795 14ce C7442468 		movl	$1632531571, 104(%rsp)
 4795      73744E61 
 4796 14d6 48C74424 		movq	$14, 88(%rsp)
 4796      580E0000 
 4796      00
 4797 14df C644246E 		movb	$0, 110(%rsp)
 4797      00
 4798 14e4 4C896424 		movq	%r12, 112(%rsp)
 4798      70
 4799 14e9 C7842488 		movl	$1968403571, 136(%rsp)
 4799      00000073 
 4799      745375
 4800 14f4 C684248E 		movb	$101, 142(%rsp)
 4800      00000065 
 4801 14fc 48C74424 		movq	$15, 120(%rsp)
 4801      780F0000 
 4801      00
 4802 1505 C684248F 		movb	$0, 143(%rsp)
 4802      00000000 
 4803 150d 4C89AC24 		movq	%r13, 144(%rsp)
 4803      90000000 
 4804 1515 48898424 		movq	%rax, 160(%rsp)
 4804      A0000000 
 4805 151d 48C78424 		movq	$10, 152(%rsp)
 4805      98000000 
 4805      0A000000 
 4806 1529 C68424AA 		movb	$0, 170(%rsp)
 4806      00000000 
 4807 1531 C78424B0 		movl	$12, 176(%rsp)
 4807      0000000C 
 4807      000000
 4808              	.LEHB114:
 4809 153c E8000000 		call	_ZN8UnitTest11TestDetailsC1EPKcS2_S2_i@PLT
 4809      00
 4810              	.LEHE114:
 4811 1541 4C8D7424 		leaq	48(%rsp), %r14
 4811      30
 4812 1546 4C89FE   		movq	%r15, %rsi
 4813 1549 4C89BC24 		movq	%r15, 216(%rsp)
 4813      D8000000 
 4814 1551 4C89F7   		movq	%r14, %rdi
 4815              	.LEHB115:
 4816 1554 E8F7FCFF 		call	_ZN8UnitTest11ExecuteTestINS_12_GLOBAL__N_178DeferredTestReporterFixtureDeferredTestReporterT
 4816      FF
 4817              	.LEHE115:
 4818 1559 488BBC24 		movq	144(%rsp), %rdi
 4818      90000000 
 4819 1561 4C39EF   		cmpq	%r13, %rdi
 4820 1564 7405     		je	.L466
 4821 1566 E8000000 		call	_ZdlPv@PLT
 4821      00
 4822              	.L466:
 4823 156b 488B7C24 		movq	112(%rsp), %rdi
 4823      70
 4824 1570 4C39E7   		cmpq	%r12, %rdi
 4825 1573 7405     		je	.L467
 4826 1575 E8000000 		call	_ZdlPv@PLT
 4826      00
 4827              	.L467:
 4828 157a 488B7C24 		movq	80(%rsp), %rdi
 4828      50
 4829 157f 4839EF   		cmpq	%rbp, %rdi
 4830 1582 7405     		je	.L468
 4831 1584 E8000000 		call	_ZdlPv@PLT
 4831      00
 4832              	.L468:
 4833 1589 4C8B6C24 		movq	64(%rsp), %r13
 4833      40
 4834 158e 488B6C24 		movq	56(%rsp), %rbp
 4834      38
 4835 1593 488D0500 		leaq	16+_ZTVN8UnitTest20DeferredTestReporterE(%rip), %rax
 4835      000000
 4836 159a 48894424 		movq	%rax, 48(%rsp)
 4836      30
 4837 159f 4939ED   		cmpq	%rbp, %r13
 4838 15a2 0F848C00 		je	.L469
 4838      0000
 4839 15a8 0F1F8400 		.p2align 4,,10
 4839      00000000 
 4840              		.p2align 3
 4841              	.L481:
 4842 15b0 4C8B6568 		movq	104(%rbp), %r12
 4843 15b4 488B5D60 		movq	96(%rbp), %rbx
 4844 15b8 4939DC   		cmpq	%rbx, %r12
 4845 15bb 7426     		je	.L470
 4846 15bd 0F1F00   		.p2align 4,,10
 4847              		.p2align 3
 4848              	.L474:
 4849 15c0 488B7B08 		movq	8(%rbx), %rdi
 4850 15c4 488D4318 		leaq	24(%rbx), %rax
 4851 15c8 4839C7   		cmpq	%rax, %rdi
 4852 15cb 0F849F00 		je	.L471
 4852      0000
 4853 15d1 E8000000 		call	_ZdlPv@PLT
 4853      00
 4854 15d6 4883C328 		addq	$40, %rbx
 4855 15da 4C39E3   		cmpq	%r12, %rbx
 4856 15dd 75E1     		jne	.L474
 4857              	.L473:
 4858 15df 488B5D60 		movq	96(%rbp), %rbx
 4859              	.L470:
 4860 15e3 4885DB   		testq	%rbx, %rbx
 4861 15e6 7408     		je	.L475
 4862 15e8 4889DF   		movq	%rbx, %rdi
 4863 15eb E8000000 		call	_ZdlPv@PLT
 4863      00
 4864              	.L475:
 4865 15f0 488B7D40 		movq	64(%rbp), %rdi
 4866 15f4 488D4550 		leaq	80(%rbp), %rax
 4867 15f8 4839C7   		cmpq	%rax, %rdi
 4868 15fb 7405     		je	.L476
 4869 15fd E8000000 		call	_ZdlPv@PLT
 4869      00
 4870              	.L476:
 4871 1602 488B7D20 		movq	32(%rbp), %rdi
 4872 1606 488D4530 		leaq	48(%rbp), %rax
 4873 160a 4839C7   		cmpq	%rax, %rdi
 4874 160d 7405     		je	.L477
 4875 160f E8000000 		call	_ZdlPv@PLT
 4875      00
 4876              	.L477:
 4877 1614 488B7D00 		movq	0(%rbp), %rdi
 4878 1618 488D4510 		leaq	16(%rbp), %rax
 4879 161c 4839C7   		cmpq	%rax, %rdi
 4880 161f 7467     		je	.L478
 4881 1621 E8000000 		call	_ZdlPv@PLT
 4881      00
 4882 1626 4883ED80 		subq	$-128, %rbp
 4883 162a 4C39ED   		cmpq	%r13, %rbp
 4884 162d 7581     		jne	.L481
 4885              	.L480:
 4886 162f 488B6C24 		movq	56(%rsp), %rbp
 4886      38
 4887              	.L469:
 4888 1634 4885ED   		testq	%rbp, %rbp
 4889 1637 7408     		je	.L482
 4890 1639 4889EF   		movq	%rbp, %rdi
 4891 163c E8000000 		call	_ZdlPv@PLT
 4891      00
 4892              	.L482:
 4893 1641 4C89F7   		movq	%r14, %rdi
 4894              	.LEHB116:
 4895 1644 E8000000 		call	_ZN8UnitTest12TestReporterD2Ev@PLT
 4895      00
 4896              	.LEHE116:
 4897 1649 488B8424 		movq	456(%rsp), %rax
 4897      C8010000 
 4898 1651 64482B04 		subq	%fs:40, %rax
 4898      25280000 
 4898      00
 4899 165a 753B     		jne	.L521
 4900 165c 4881C4D8 		addq	$472, %rsp
 4900      010000
 4901              		.cfi_remember_state
 4902              		.cfi_def_cfa_offset 56
 4903 1663 5B       		popq	%rbx
 4904              		.cfi_def_cfa_offset 48
 4905 1664 5D       		popq	%rbp
 4906              		.cfi_def_cfa_offset 40
 4907 1665 415C     		popq	%r12
 4908              		.cfi_def_cfa_offset 32
 4909 1667 415D     		popq	%r13
 4910              		.cfi_def_cfa_offset 24
 4911 1669 415E     		popq	%r14
 4912              		.cfi_def_cfa_offset 16
 4913 166b 415F     		popq	%r15
 4914              		.cfi_def_cfa_offset 8
 4915 166d C3       		ret
 4916 166e 6690     		.p2align 4,,10
 4917              		.p2align 3
 4918              	.L471:
 4919              		.cfi_restore_state
 4920 1670 4883C328 		addq	$40, %rbx
 4921 1674 4939DC   		cmpq	%rbx, %r12
 4922 1677 0F8543FF 		jne	.L474
 4922      FFFF
 4923 167d E95DFFFF 		jmp	.L473
 4923      FF
 4924              		.p2align 4,,10
 4925 1682 660F1F44 		.p2align 3
 4925      0000
 4926              	.L478:
 4927 1688 4883ED80 		subq	$-128, %rbp
 4928 168c 4939ED   		cmpq	%rbp, %r13
 4929 168f 0F851BFF 		jne	.L481
 4929      FFFF
 4930 1695 EB98     		jmp	.L480
 4931              	.L521:
 4932 1697 E8000000 		call	__stack_chk_fail@PLT
 4932      00
 4933              	.L499:
 4934 169c F30F1EFA 		endbr64
 4935 16a0 4889C7   		movq	%rax, %rdi
 4936 16a3 4889D0   		movq	%rdx, %rax
 4937 16a6 E9000000 		jmp	.L516
 4937      00
 4938              	.L500:
 4939 16ab F30F1EFA 		endbr64
 4940 16af 4889C5   		movq	%rax, %rbp
 4941 16b2 4989D4   		movq	%rdx, %r12
 4942 16b5 E9000000 		jmp	.L485
 4942      00
 4943              	.L505:
 4944 16ba F30F1EFA 		endbr64
 4945 16be 48895424 		movq	%rdx, 8(%rsp)
 4945      08
 4946 16c3 4889C3   		movq	%rax, %rbx
 4947 16c6 E9000000 		jmp	.L461
 4947      00
 4948              		.section	.gcc_except_table
 4949              		.align 4
 4950              	.LLSDA1553:
 4951 03b4 FF       		.byte	0xff
 4952 03b5 9B       		.byte	0x9b
 4953 03b6 29       		.uleb128 .LLSDATT1553-.LLSDATTD1553
 4954              	.LLSDATTD1553:
 4955 03b7 01       		.byte	0x1
 4956 03b8 12       		.uleb128 .LLSDACSE1553-.LLSDACSB1553
 4957              	.LLSDACSB1553:
 4958 03b9 BC02     		.uleb128 .LEHB114-.LFB1553
 4959 03bb 05       		.uleb128 .LEHE114-.LEHB114
 4960 03bc BA05     		.uleb128 .L505-.LFB1553
 4961 03be 07       		.uleb128 0x7
 4962 03bf D402     		.uleb128 .LEHB115-.LFB1553
 4963 03c1 05       		.uleb128 .LEHE115-.LEHB115
 4964 03c2 AB05     		.uleb128 .L500-.LFB1553
 4965 03c4 07       		.uleb128 0x7
 4966 03c5 C404     		.uleb128 .LEHB116-.LFB1553
 4967 03c7 05       		.uleb128 .LEHE116-.LEHB116
 4968 03c8 9C05     		.uleb128 .L499-.LFB1553
 4969 03ca 05       		.uleb128 0x5
 4970              	.LLSDACSE1553:
 4971 03cb 03       		.byte	0x3
 4972 03cc 00       		.byte	0
 4973 03cd 02       		.byte	0x2
 4974 03ce 7D       		.byte	0x7d
 4975 03cf 01       		.byte	0x1
 4976 03d0 7D       		.byte	0x7d
 4977 03d1 00       		.byte	0
 4978 03d2 7D       		.byte	0x7d
 4979 03d3 00       		.align 4
 4980 03d4 00000000 		.long	0
 4981              	
 4982 03d8 00000000 		.long	DW.ref._ZTISt9exception-.
 4983 03dc 00000000 		.long	DW.ref._ZTIN8UnitTest15AssertExceptionE-.
 4984              	.LLSDATT1553:
 4985              		.text
 4986              		.cfi_endproc
 4987              		.section	.text.unlikely
 4988              		.cfi_startproc
 4989              		.cfi_personality 0x9b,DW.ref.__gxx_personality_v0
 4990              		.cfi_lsda 0x1b,.LLSDAC1553
 4992              	_ZNK8UnitTest12_GLOBAL__N_176TestDeferredTestReporterFixtureDeferredTestReporterTakesCopyOfFailureM
 4993              	.LFSB1553:
 4994              	.L485:
 4995              		.cfi_def_cfa_offset 528
 4996              		.cfi_offset 3, -56
 4997              		.cfi_offset 6, -48
 4998              		.cfi_offset 12, -40
 4999              		.cfi_offset 13, -32
 5000              		.cfi_offset 14, -24
 5001              		.cfi_offset 15, -16
 5002 0d30 4C89F7   		movq	%r14, %rdi
 5003 0d33 E838F3FF 		call	_ZN8UnitTest12_GLOBAL__N_127DeferredTestReporterFixtureD2Ev
 5003      FF
 5004 0d38 4889EF   		movq	%rbp, %rdi
 5005 0d3b 4C89E0   		movq	%r12, %rax
 5006              	.L516:
 5007 0d3e BD010000 		movl	$1, %ebp
 5007      00
 5008              	.L465:
 5009 0d43 4883F801 		cmpq	$1, %rax
 5010 0d47 0F84D600 		je	.L486
 5010      0000
 5011 0d4d 4883F802 		cmpq	$2, %rax
 5012 0d51 0F845701 		je	.L522
 5012      0000
 5013 0d57 E8000000 		call	__cxa_begin_catch@PLT
 5013      00
 5014 0d5c 4084ED   		testb	%bpl, %bpl
 5015 0d5f 0F85D201 		jne	.L523
 5015      0000
 5016              	.LEHB117:
 5017 0d65 E8000000 		call	_ZN8UnitTest11CurrentTest7ResultsEv@PLT
 5017      00
 5018 0d6a 488D6C24 		leaq	16(%rsp), %rbp
 5018      10
 5019 0d6f BA620000 		movl	$98, %edx
 5019      00
 5020 0d74 4C89FE   		movq	%r15, %rsi
 5021 0d77 4C8B20   		movq	(%rax), %r12
 5022 0d7a 4889EF   		movq	%rbp, %rdi
 5023 0d7d E8000000 		call	_ZN8UnitTest11TestDetailsC1ERKS0_i@PLT
 5023      00
 5024 0d82 488D1500 		leaq	.LC25(%rip), %rdx
 5024      000000
 5025 0d89 4889EE   		movq	%rbp, %rsi
 5026 0d8c 4C89E7   		movq	%r12, %rdi
 5027 0d8f E8000000 		call	_ZN8UnitTest11TestResults13OnTestFailureERKNS_11TestDetailsEPKc@PLT
 5027      00
 5028              	.LEHE117:
 5029              	.L492:
 5030 0d94 488B8424 		movq	456(%rsp), %rax
 5030      C8010000 
 5031 0d9c 64482B04 		subq	%fs:40, %rax
 5031      25280000 
 5031      00
 5032 0da5 0F85FE00 		jne	.L518
 5032      0000
 5033 0dab 4881C4D8 		addq	$472, %rsp
 5033      010000
 5034              		.cfi_remember_state
 5035              		.cfi_def_cfa_offset 56
 5036 0db2 5B       		popq	%rbx
 5037              		.cfi_def_cfa_offset 48
 5038 0db3 5D       		popq	%rbp
 5039              		.cfi_def_cfa_offset 40
 5040 0db4 415C     		popq	%r12
 5041              		.cfi_def_cfa_offset 32
 5042 0db6 415D     		popq	%r13
 5043              		.cfi_def_cfa_offset 24
 5044 0db8 415E     		popq	%r14
 5045              		.cfi_def_cfa_offset 16
 5046 0dba 415F     		popq	%r15
 5047              		.cfi_def_cfa_offset 8
 5048              	.LEHB118:
 5049 0dbc E9000000 		jmp	__cxa_end_catch@PLT
 5049      00
 5050              	.LEHE118:
 5051              	.L461:
 5052              		.cfi_restore_state
 5053 0dc1 488BBC24 		movq	144(%rsp), %rdi
 5053      90000000 
 5054 0dc9 4C39EF   		cmpq	%r13, %rdi
 5055 0dcc 7405     		je	.L462
 5056 0dce E8000000 		call	_ZdlPv@PLT
 5056      00
 5057              	.L462:
 5058 0dd3 488B7C24 		movq	112(%rsp), %rdi
 5058      70
 5059 0dd8 4C39E7   		cmpq	%r12, %rdi
 5060 0ddb 7405     		je	.L463
 5061 0ddd E8000000 		call	_ZdlPv@PLT
 5061      00
 5062              	.L463:
 5063 0de2 488B7C24 		movq	80(%rsp), %rdi
 5063      50
 5064 0de7 4839EF   		cmpq	%rbp, %rdi
 5065 0dea 7405     		je	.L464
 5066 0dec E8000000 		call	_ZdlPv@PLT
 5066      00
 5067              	.L464:
 5068 0df1 488D0500 		leaq	16+_ZTVN8UnitTest20DeferredTestReporterE(%rip), %rax
 5068      000000
 5069 0df8 488D7C24 		leaq	56(%rsp), %rdi
 5069      38
 5070 0dfd 31ED     		xorl	%ebp, %ebp
 5071 0dff 4C8D7424 		leaq	48(%rsp), %r14
 5071      30
 5072 0e04 48894424 		movq	%rax, 48(%rsp)
 5072      30
 5073 0e09 E8000000 		call	_ZNSt6vectorIN8UnitTest18DeferredTestResultESaIS1_EED1Ev
 5073      00
 5074 0e0e 4C89F7   		movq	%r14, %rdi
 5075 0e11 E8000000 		call	_ZN8UnitTest12TestReporterD2Ev@PLT
 5075      00
 5076 0e16 488B4424 		movq	8(%rsp), %rax
 5076      08
 5077 0e1b 4889DF   		movq	%rbx, %rdi
 5078 0e1e E920FFFF 		jmp	.L465
 5078      FF
 5079              	.L486:
 5080 0e23 E8000000 		call	__cxa_begin_catch@PLT
 5080      00
 5081 0e28 4889C5   		movq	%rax, %rbp
 5082              	.LEHB119:
 5083 0e2b E8000000 		call	_ZN8UnitTest11CurrentTest7ResultsEv@PLT
 5083      00
 5084 0e30 4C8B30   		movq	(%rax), %r14
 5085 0e33 488B4500 		movq	0(%rbp), %rax
 5086 0e37 4889EF   		movq	%rbp, %rdi
 5087 0e3a FF5010   		call	*16(%rax)
 5088 0e3d 4889EF   		movq	%rbp, %rdi
 5089 0e40 4989C4   		movq	%rax, %r12
 5090 0e43 E8000000 		call	_ZNK8UnitTest15AssertException10LineNumberEv@PLT
 5090      00
 5091 0e48 4889EF   		movq	%rbp, %rdi
 5092 0e4b 4189C5   		movl	%eax, %r13d
 5093 0e4e E8000000 		call	_ZNK8UnitTest15AssertException8FilenameEv@PLT
 5093      00
 5094 0e53 4889C1   		movq	%rax, %rcx
 5095 0e56 488B0424 		movq	(%rsp), %rax
 5096 0e5a 488D6C24 		leaq	16(%rsp), %rbp
 5096      10
 5097 0e5f 4589E8   		movl	%r13d, %r8d
 5098 0e62 4889EF   		movq	%rbp, %rdi
 5099 0e65 488B5008 		movq	8(%rax), %rdx
 5100 0e69 488B7010 		movq	16(%rax), %rsi
 5101 0e6d E8000000 		call	_ZN8UnitTest11TestDetailsC1EPKcS2_S2_i@PLT
 5101      00
 5102 0e72 4C89E2   		movq	%r12, %rdx
 5103 0e75 4889EE   		movq	%rbp, %rsi
 5104 0e78 4C89F7   		movq	%r14, %rdi
 5105 0e7b E8000000 		call	_ZN8UnitTest11TestResults13OnTestFailureERKNS_11TestDetailsEPKc@PLT
 5105      00
 5106              	.LEHE119:
 5107              	.L520:
 5108 0e80 488B8424 		movq	456(%rsp), %rax
 5108      C8010000 
 5109 0e88 64482B04 		subq	%fs:40, %rax
 5109      25280000 
 5109      00
 5110 0e91 7516     		jne	.L518
 5111 0e93 4881C4D8 		addq	$472, %rsp
 5111      010000
 5112              		.cfi_remember_state
 5113              		.cfi_def_cfa_offset 56
 5114 0e9a 5B       		popq	%rbx
 5115              		.cfi_def_cfa_offset 48
 5116 0e9b 5D       		popq	%rbp
 5117              		.cfi_def_cfa_offset 40
 5118 0e9c 415C     		popq	%r12
 5119              		.cfi_def_cfa_offset 32
 5120 0e9e 415D     		popq	%r13
 5121              		.cfi_def_cfa_offset 24
 5122 0ea0 415E     		popq	%r14
 5123              		.cfi_def_cfa_offset 16
 5124 0ea2 415F     		popq	%r15
 5125              		.cfi_def_cfa_offset 8
 5126 0ea4 E9000000 		jmp	__cxa_end_catch@PLT
 5126      00
 5127              	.L518:
 5128              		.cfi_restore_state
 5129 0ea9 E8000000 		call	__stack_chk_fail@PLT
 5129      00
 5130              	.L522:
 5131 0eae E8000000 		call	__cxa_begin_catch@PLT
 5131      00
 5132 0eb3 4C89F7   		movq	%r14, %rdi
 5133 0eb6 4889C5   		movq	%rax, %rbp
 5134              	.LEHB120:
 5135 0eb9 E8000000 		call	_ZN8UnitTest15MemoryOutStreamC1Ev
 5135      00
 5136              	.LEHE120:
 5137 0ebe BA150000 		movl	$21, %edx
 5137      00
 5138 0ec3 488D3500 		leaq	.LC19(%rip), %rsi
 5138      000000
 5139 0eca 4C89F7   		movq	%r14, %rdi
 5140              	.LEHB121:
 5141 0ecd E8000000 		call	_ZSt16__ostream_insertIcSt11char_traitsIcEERSt13basic_ostreamIT_T0_ES6_PKS3_l@PLT
 5141      00
 5142 0ed2 488B4500 		movq	0(%rbp), %rax
 5143 0ed6 4889EF   		movq	%rbp, %rdi
 5144 0ed9 FF5010   		call	*16(%rax)
 5145 0edc 4C89F7   		movq	%r14, %rdi
 5146 0edf 4889C6   		movq	%rax, %rsi
 5147 0ee2 E8000000 		call	_ZStlsISt11char_traitsIcEERSt13basic_ostreamIcT_ES5_PKc@PLT
 5147      00
 5148 0ee7 E8000000 		call	_ZN8UnitTest11CurrentTest7ResultsEv@PLT
 5148      00
 5149 0eec 4C89F7   		movq	%r14, %rdi
 5150 0eef 488B28   		movq	(%rax), %rbp
 5151 0ef2 E8000000 		call	_ZNK8UnitTest15MemoryOutStream7GetTextEv@PLT
 5151      00
 5152 0ef7 4889C2   		movq	%rax, %rdx
 5153 0efa 4C89FE   		movq	%r15, %rsi
 5154 0efd 4889EF   		movq	%rbp, %rdi
 5155 0f00 E8000000 		call	_ZN8UnitTest11TestResults13OnTestFailureERKNS_11TestDetailsEPKc@PLT
 5155      00
 5156              	.LEHE121:
 5157 0f05 4C89F7   		movq	%r14, %rdi
 5158              	.LEHB122:
 5159 0f08 E8000000 		call	_ZN8UnitTest15MemoryOutStreamD1Ev
 5159      00
 5160              	.LEHE122:
 5161 0f0d E96EFFFF 		jmp	.L520
 5161      FF
 5162              	.L503:
 5163 0f12 F30F1EFA 		endbr64
 5164 0f16 4C89F7   		movq	%r14, %rdi
 5165 0f19 4889C5   		movq	%rax, %rbp
 5166 0f1c E8000000 		call	_ZN8UnitTest15MemoryOutStreamD1Ev
 5166      00
 5167              	.L496:
 5168 0f21 E8000000 		call	__cxa_end_catch@PLT
 5168      00
 5169 0f26 4889EF   		movq	%rbp, %rdi
 5170              	.LEHB123:
 5171 0f29 E8000000 		call	_Unwind_Resume@PLT
 5171      00
 5172              	.LEHE123:
 5173              	.L502:
 5174 0f2e F30F1EFA 		endbr64
 5175              	.L519:
 5176 0f32 4889C5   		movq	%rax, %rbp
 5177 0f35 EBEA     		jmp	.L496
 5178              	.L523:
 5179              	.LEHB124:
 5180 0f37 E8000000 		call	_ZN8UnitTest11CurrentTest7ResultsEv@PLT
 5180      00
 5181 0f3c 488D6C24 		leaq	16(%rsp), %rbp
 5181      10
 5182 0f41 BA620000 		movl	$98, %edx
 5182      00
 5183 0f46 4C89FE   		movq	%r15, %rsi
 5184 0f49 4C8B20   		movq	(%rax), %r12
 5185 0f4c 4889EF   		movq	%rbp, %rdi
 5186 0f4f E8000000 		call	_ZN8UnitTest11TestDetailsC1ERKS0_i@PLT
 5186      00
 5187 0f54 488D1500 		leaq	.LC24(%rip), %rdx
 5187      000000
 5188 0f5b 4889EE   		movq	%rbp, %rsi
 5189 0f5e 4C89E7   		movq	%r12, %rdi
 5190 0f61 E8000000 		call	_ZN8UnitTest11TestResults13OnTestFailureERKNS_11TestDetailsEPKc@PLT
 5190      00
 5191              	.LEHE124:
 5192 0f66 E929FEFF 		jmp	.L492
 5192      FF
 5193              	.L504:
 5194 0f6b F30F1EFA 		endbr64
 5195 0f6f 4889C5   		movq	%rax, %rbp
 5196 0f72 E8000000 		call	__cxa_end_catch@PLT
 5196      00
 5197 0f77 4889EF   		movq	%rbp, %rdi
 5198              	.LEHB125:
 5199 0f7a E8000000 		call	_Unwind_Resume@PLT
 5199      00
 5200              	.LEHE125:
 5201              	.L501:
 5202 0f7f F30F1EFA 		endbr64
 5203 0f83 EBAD     		jmp	.L519
 5204              		.cfi_endproc
 5205              	.LFE1553:
 5206              		.section	.gcc_except_table
 5207              		.align 4
 5208              	.LLSDAC1553:
 5209 03e0 FF       		.byte	0xff
 5210 03e1 9B       		.byte	0x9b
 5211 03e2 49       		.uleb128 .LLSDATTC1553-.LLSDATTDC1553
 5212              	.LLSDATTDC1553:
 5213 03e3 01       		.byte	0x1
 5214 03e4 32       		.uleb128 .LLSDACSEC1553-.LLSDACSBC1553
 5215              	.LLSDACSBC1553:
 5216 03e5 35       		.uleb128 .LEHB117-.LCOLDB35
 5217 03e6 2F       		.uleb128 .LEHE117-.LEHB117
 5218 03e7 BB04     		.uleb128 .L504-.LCOLDB35
 5219 03e9 00       		.uleb128 0
 5220 03ea 8C01     		.uleb128 .LEHB118-.LCOLDB35
 5221 03ec 05       		.uleb128 .LEHE118-.LEHB118
 5222 03ed 00       		.uleb128 0
 5223 03ee 00       		.uleb128 0
 5224 03ef FB01     		.uleb128 .LEHB119-.LCOLDB35
 5225 03f1 55       		.uleb128 .LEHE119-.LEHB119
 5226 03f2 CF04     		.uleb128 .L501-.LCOLDB35
 5227 03f4 00       		.uleb128 0
 5228 03f5 8903     		.uleb128 .LEHB120-.LCOLDB35
 5229 03f7 05       		.uleb128 .LEHE120-.LEHB120
 5230 03f8 FE03     		.uleb128 .L502-.LCOLDB35
 5231 03fa 00       		.uleb128 0
 5232 03fb 9D03     		.uleb128 .LEHB121-.LCOLDB35
 5233 03fd 38       		.uleb128 .LEHE121-.LEHB121
 5234 03fe E203     		.uleb128 .L503-.LCOLDB35
 5235 0400 00       		.uleb128 0
 5236 0401 D803     		.uleb128 .LEHB122-.LCOLDB35
 5237 0403 05       		.uleb128 .LEHE122-.LEHB122
 5238 0404 FE03     		.uleb128 .L502-.LCOLDB35
 5239 0406 00       		.uleb128 0
 5240 0407 F903     		.uleb128 .LEHB123-.LCOLDB35
 5241 0409 05       		.uleb128 .LEHE123-.LEHB123
 5242 040a 00       		.uleb128 0
 5243 040b 00       		.uleb128 0
 5244 040c 8704     		.uleb128 .LEHB124-.LCOLDB35
 5245 040e 2F       		.uleb128 .LEHE124-.LEHB124
 5246 040f BB04     		.uleb128 .L504-.LCOLDB35
 5247 0411 00       		.uleb128 0
 5248 0412 CA04     		.uleb128 .LEHB125-.LCOLDB35
 5249 0414 05       		.uleb128 .LEHE125-.LEHB125
 5250 0415 00       		.uleb128 0
 5251 0416 00       		.uleb128 0
 5252              	.LLSDACSEC1553:
 5253 0417 03       		.byte	0x3
 5254 0418 00       		.byte	0
 5255 0419 02       		.byte	0x2
 5256 041a 7D       		.byte	0x7d
 5257 041b 01       		.byte	0x1
 5258 041c 7D       		.byte	0x7d
 5259 041d 00       		.byte	0
 5260 041e 7D       		.byte	0x7d
 5261 041f 00       		.align 4
 5262 0420 00000000 		.long	0
 5263              	
 5264 0424 00000000 		.long	DW.ref._ZTISt9exception-.
 5265 0428 00000000 		.long	DW.ref._ZTIN8UnitTest15AssertExceptionE-.
 5266              	.LLSDATTC1553:
 5267              		.section	.text.unlikely
 5268              		.text
 5270              		.section	.text.unlikely
 5272              	.LCOLDE35:
 5273              		.text
 5274              	.LHOTE35:
 5275              		.section	.rodata.str1.1
 5276              	.LC36:
 5277 007c 6661696C 		.string	"failure"
 5277      75726500 
 5278              	.LC37:
 5279 0084 72657375 		.string	"result.failed == true"
 5279      6C742E66 
 5279      61696C65 
 5279      64203D3D 
 5279      20747275 
 5280              		.section	.rodata.str1.8
 5281 01bc 00000000 		.align 8
 5282              	.LC38:
 5283 01c0 556E6861 		.string	"Unhandled exception in CHECK(result.failed == true)"
 5283      6E646C65 
 5283      64206578 
 5283      63657074 
 5283      696F6E20 
 5284 01f4 00000000 		.align 8
 5285              	.LC39:
 5286 01f8 556E6861 		.string	"Unhandled exception in CHECK_EQUAL(fileName.c_str(), result.failureFile)"
 5286      6E646C65 
 5286      64206578 
 5286      63657074 
 5286      696F6E20 
 5287              		.section	.text.unlikely
 5288              	.LCOLDB40:
 5289              		.text
 5290              	.LHOTB40:
 5291 16cb 0F1F4400 		.p2align 4
 5291      00
 5293              	_ZN8UnitTest11ExecuteTestINS_12_GLOBAL__N_165DeferredTestReporterFixtureReportFailureSavesFailureDe
 5294              	.LFB1610:
 5295              		.cfi_startproc
 5296              		.cfi_personality 0x9b,DW.ref.__gxx_personality_v0
 5297              		.cfi_lsda 0x1b,.LLSDA1610
 5298 16d0 4155     		pushq	%r13
 5299              		.cfi_def_cfa_offset 16
 5300              		.cfi_offset 13, -16
 5301 16d2 4154     		pushq	%r12
 5302              		.cfi_def_cfa_offset 24
 5303              		.cfi_offset 12, -24
 5304 16d4 55       		pushq	%rbp
 5305              		.cfi_def_cfa_offset 32
 5306              		.cfi_offset 6, -32
 5307 16d5 53       		pushq	%rbx
 5308              		.cfi_def_cfa_offset 40
 5309              		.cfi_offset 3, -40
 5310 16d6 4889F3   		movq	%rsi, %rbx
 5311 16d9 4881ECD8 		subq	$1752, %rsp
 5311      060000
 5312              		.cfi_def_cfa_offset 1792
 5313 16e0 48893C24 		movq	%rdi, (%rsp)
 5314 16e4 48897424 		movq	%rsi, 8(%rsp)
 5314      08
 5315 16e9 64488B04 		movq	%fs:40, %rax
 5315      25280000 
 5315      00
 5316 16f2 48898424 		movq	%rax, 1736(%rsp)
 5316      C8060000 
 5317 16fa 31C0     		xorl	%eax, %eax
 5318              	.LEHB126:
 5319 16fc E8000000 		call	_ZN8UnitTest11CurrentTest7DetailsEv@PLT
 5319      00
 5320              	.LEHE126:
 5321 1701 488DBC24 		leaq	608(%rsp), %rdi
 5321      60020000 
 5322 1709 488918   		movq	%rbx, (%rax)
 5323              	.LEHB127:
 5324 170c E8000000 		call	_ZN8UnitTest16SignalTranslatorC1Ev@PLT
 5324      00
 5325              	.LEHE127:
 5326 1711 488B3D00 		movq	_ZN8UnitTest16SignalTranslator12s_jumpTargetE(%rip), %rdi
 5326      000000
 5327 1718 BE010000 		movl	$1, %esi
 5327      00
 5328 171d E8000000 		call	__sigsetjmp@PLT
 5328      00
 5329 1722 F30F1EFA 		endbr64
 5330 1726 85C0     		testl	%eax, %eax
 5331 1728 0F850000 		jne	.L561
 5331      0000
 5332 172e 488B1C24 		movq	(%rsp), %rbx
 5333 1732 488DAB88 		leaq	136(%rbx), %rbp
 5333      000000
 5334 1739 4889DF   		movq	%rbx, %rdi
 5335 173c 4889EE   		movq	%rbp, %rsi
 5336              	.LEHB128:
 5337 173f E8000000 		call	_ZN8UnitTest20DeferredTestReporter15ReportTestStartERKNS_11TestDetailsE@PLT
 5337      00
 5338 1744 488D1500 		leaq	.LC36(%rip), %rdx
 5338      000000
 5339 174b 4889EE   		movq	%rbp, %rsi
 5340 174e 4889DF   		movq	%rbx, %rdi
 5341 1751 E8000000 		call	_ZN8UnitTest20DeferredTestReporter13ReportFailureERKNS_11TestDetailsEPKc@PLT
 5341      00
 5342 1756 4889DF   		movq	%rbx, %rdi
 5343 1759 E8000000 		call	_ZN8UnitTest20DeferredTestReporter10GetResultsEv@PLT
 5343      00
 5344              	.LEHE128:
 5345 175e 4C8B20   		movq	(%rax), %r12
 5346 1761 4C396008 		cmpq	%r12, 8(%rax)
 5347 1765 0F84BB00 		je	.L564
 5347      0000
 5348 176b 41807C24 		cmpb	$0, 124(%r12)
 5348      7C00
 5349 1771 7475     		je	.L565
 5350              	.L529:
 5351              	.LEHB129:
 5352 1773 E8000000 		call	_ZN8UnitTest11CurrentTest7DetailsEv@PLT
 5352      00
 5353 1778 488B30   		movq	(%rax), %rsi
 5354 177b 488D7C24 		leaq	96(%rsp), %rdi
 5354      60
 5355 1780 BA500000 		movl	$80, %edx
 5355      00
 5356 1785 E8000000 		call	_ZN8UnitTest11TestDetailsC1ERKS0_i@PLT
 5356      00
 5357 178a 488B0424 		movq	(%rsp), %rax
 5358 178e 4983C440 		addq	$64, %r12
 5359 1792 488B4060 		movq	96(%rax), %rax
 5360 1796 48894424 		movq	%rax, 24(%rsp)
 5360      18
 5361 179b E8000000 		call	_ZN8UnitTest11CurrentTest7ResultsEv@PLT
 5361      00
 5362 17a0 488B38   		movq	(%rax), %rdi
 5363 17a3 488D4C24 		leaq	96(%rsp), %rcx
 5363      60
 5364 17a8 488D7424 		leaq	24(%rsp), %rsi
 5364      18
 5365 17ad 4C89E2   		movq	%r12, %rdx
 5366 17b0 E8000000 		call	_ZN8UnitTest10CheckEqualIPKcNSt7__cxx1112basic_stringIcSt11char_traitsIcESaIcEEEEEvRNS_11Test
 5366      00
 5367              	.LEHE129:
 5368              	.L536:
 5369 17b5 488DBC24 		leaq	608(%rsp), %rdi
 5369      60020000 
 5370              	.LEHB130:
 5371 17bd E8000000 		call	_ZN8UnitTest16SignalTranslatorD1Ev@PLT
 5371      00
 5372              	.LEHE130:
 5373              	.L524:
 5374 17c2 488B8424 		movq	1736(%rsp), %rax
 5374      C8060000 
 5375 17ca 64482B04 		subq	%fs:40, %rax
 5375      25280000 
 5375      00
 5376 17d3 7563     		jne	.L566
 5377 17d5 4881C4D8 		addq	$1752, %rsp
 5377      060000
 5378              		.cfi_remember_state
 5379              		.cfi_def_cfa_offset 40
 5380 17dc 5B       		popq	%rbx
 5381              		.cfi_def_cfa_offset 32
 5382 17dd 5D       		popq	%rbp
 5383              		.cfi_def_cfa_offset 24
 5384 17de 415C     		popq	%r12
 5385              		.cfi_def_cfa_offset 16
 5386 17e0 415D     		popq	%r13
 5387              		.cfi_def_cfa_offset 8
 5388 17e2 C3       		ret
 5389              		.p2align 4,,10
 5390 17e3 0F1F4400 		.p2align 3
 5390      00
 5391              	.L565:
 5392              		.cfi_restore_state
 5393              	.LEHB131:
 5394 17e8 E8000000 		call	_ZN8UnitTest11CurrentTest7ResultsEv@PLT
 5394      00
 5395 17ed 488B28   		movq	(%rax), %rbp
 5396 17f0 E8000000 		call	_ZN8UnitTest11CurrentTest7DetailsEv@PLT
 5396      00
 5397 17f5 488B30   		movq	(%rax), %rsi
 5398 17f8 488DBC24 		leaq	160(%rsp), %rdi
 5398      A0000000 
 5399 1800 BA4F0000 		movl	$79, %edx
 5399      00
 5400 1805 E8000000 		call	_ZN8UnitTest11TestDetailsC1ERKS0_i@PLT
 5400      00
 5401 180a 488DB424 		leaq	160(%rsp), %rsi
 5401      A0000000 
 5402 1812 488D1500 		leaq	.LC37(%rip), %rdx
 5402      000000
 5403 1819 4889EF   		movq	%rbp, %rdi
 5404 181c E8000000 		call	_ZN8UnitTest11TestResults13OnTestFailureERKNS_11TestDetailsEPKc@PLT
 5404      00
 5405              	.LEHE131:
 5406 1821 E94DFFFF 		jmp	.L529
 5406      FF
 5407              	.L564:
 5408 1826 31D2     		xorl	%edx, %edx
 5409 1828 31F6     		xorl	%esi, %esi
 5410 182a 488D3D00 		leaq	.LC10(%rip), %rdi
 5410      000000
 5411 1831 31C0     		xorl	%eax, %eax
 5412              	.LEHB132:
 5413 1833 E8000000 		call	_ZSt24__throw_out_of_range_fmtPKcz@PLT
 5413      00
 5414              	.LEHE132:
 5415              	.L566:
 5416 1838 E8000000 		call	__stack_chk_fail@PLT
 5416      00
 5417              	.L559:
 5418 183d F30F1EFA 		endbr64
 5419 1841 E9000000 		jmp	.L560
 5419      00
 5420              	.L556:
 5421 1846 F30F1EFA 		endbr64
 5422 184a 4889C7   		movq	%rax, %rdi
 5423 184d E9000000 		jmp	.L535
 5423      00
 5424              	.L549:
 5425 1852 F30F1EFA 		endbr64
 5426 1856 4889C7   		movq	%rax, %rdi
 5427 1859 4889D5   		movq	%rdx, %rbp
 5428 185c E9000000 		jmp	.L538
 5428      00
 5429              	.L558:
 5430 1861 F30F1EFA 		endbr64
 5431 1865 4889C7   		movq	%rax, %rdi
 5432 1868 E9000000 		jmp	.L531
 5432      00
 5433              		.section	.gcc_except_table
 5434              		.align 4
 5435              	.LLSDA1610:
 5436 042c FF       		.byte	0xff
 5437 042d 9B       		.byte	0x9b
 5438 042e 3D       		.uleb128 .LLSDATT1610-.LLSDATTD1610
 5439              	.LLSDATTD1610:
 5440 042f 01       		.byte	0x1
 5441 0430 26       		.uleb128 .LLSDACSE1610-.LLSDACSB1610
 5442              	.LLSDACSB1610:
 5443 0431 2C       		.uleb128 .LEHB126-.LFB1610
 5444 0432 05       		.uleb128 .LEHE126-.LEHB126
 5445 0433 00       		.uleb128 0
 5446 0434 00       		.uleb128 0
 5447 0435 3C       		.uleb128 .LEHB127-.LFB1610
 5448 0436 05       		.uleb128 .LEHE127-.LEHB127
 5449 0437 8203     		.uleb128 .L549-.LFB1610
 5450 0439 05       		.uleb128 0x5
 5451 043a 6F       		.uleb128 .LEHB128-.LFB1610
 5452 043b 1F       		.uleb128 .LEHE128-.LEHB128
 5453 043c ED02     		.uleb128 .L559-.LFB1610
 5454 043e 07       		.uleb128 0x7
 5455 043f A301     		.uleb128 .LEHB129-.LFB1610
 5456 0441 42       		.uleb128 .LEHE129-.LEHB129
 5457 0442 F602     		.uleb128 .L556-.LFB1610
 5458 0444 01       		.uleb128 0x1
 5459 0445 ED01     		.uleb128 .LEHB130-.LFB1610
 5460 0447 05       		.uleb128 .LEHE130-.LEHB130
 5461 0448 8203     		.uleb128 .L549-.LFB1610
 5462 044a 05       		.uleb128 0x5
 5463 044b 9802     		.uleb128 .LEHB131-.LFB1610
 5464 044d 39       		.uleb128 .LEHE131-.LEHB131
 5465 044e 9103     		.uleb128 .L558-.LFB1610
 5466 0450 01       		.uleb128 0x1
 5467 0451 E302     		.uleb128 .LEHB132-.LFB1610
 5468 0453 05       		.uleb128 .LEHE132-.LEHB132
 5469 0454 ED02     		.uleb128 .L559-.LFB1610
 5470 0456 07       		.uleb128 0x7
 5471              	.LLSDACSE1610:
 5472 0457 03       		.byte	0x3
 5473 0458 00       		.byte	0
 5474 0459 02       		.byte	0x2
 5475 045a 7D       		.byte	0x7d
 5476 045b 01       		.byte	0x1
 5477 045c 7D       		.byte	0x7d
 5478 045d 00       		.byte	0
 5479 045e 7D       		.byte	0x7d
 5480 045f 00       		.align 4
 5481 0460 00000000 		.long	0
 5482              	
 5483 0464 00000000 		.long	DW.ref._ZTISt9exception-.
 5484 0468 00000000 		.long	DW.ref._ZTIN8UnitTest15AssertExceptionE-.
 5485              	.LLSDATT1610:
 5486              		.text
 5487              		.cfi_endproc
 5488              		.section	.text.unlikely
 5489              		.cfi_startproc
 5490              		.cfi_personality 0x9b,DW.ref.__gxx_personality_v0
 5491              		.cfi_lsda 0x1b,.LLSDAC1610
 5493              	_ZN8UnitTest11ExecuteTestINS_12_GLOBAL__N_165DeferredTestReporterFixtureReportFailureSavesFailureDe
 5494              	.LFSB1610:
 5495              	.L561:
 5496              		.cfi_def_cfa_offset 1792
 5497              		.cfi_offset 3, -40
 5498              		.cfi_offset 6, -32
 5499              		.cfi_offset 12, -24
 5500              		.cfi_offset 13, -16
 5501 0f85 BF080000 		movl	$8, %edi
 5501      00
 5502 0f8a E8000000 		call	__cxa_allocate_exception@PLT
 5502      00
 5503 0f8f 31D2     		xorl	%edx, %edx
 5504 0f91 488D3500 		leaq	_ZTIPKc(%rip), %rsi
 5504      000000
 5505 0f98 4889C7   		movq	%rax, %rdi
 5506 0f9b 488D0500 		leaq	.LC8(%rip), %rax
 5506      000000
 5507 0fa2 488907   		movq	%rax, (%rdi)
 5508              	.LEHB133:
 5509 0fa5 E8000000 		call	__cxa_throw@PLT
 5509      00
 5510              	.LEHE133:
 5511              	.L550:
 5512 0faa F30F1EFA 		endbr64
 5513              	.L560:
 5514 0fae 4889C3   		movq	%rax, %rbx
 5515 0fb1 4889D5   		movq	%rdx, %rbp
 5516              	.L534:
 5517 0fb4 488DBC24 		leaq	608(%rsp), %rdi
 5517      60020000 
 5518 0fbc E8000000 		call	_ZN8UnitTest16SignalTranslatorD1Ev@PLT
 5518      00
 5519 0fc1 4889DF   		movq	%rbx, %rdi
 5520              	.L538:
 5521 0fc4 4883FD01 		cmpq	$1, %rbp
 5522 0fc8 0F84E400 		je	.L539
 5522      0000
