   1              		.file	"TestTimeConstraint.cpp"
   2              		.text
   3              		.section	.text._ZN17RecordingReporter13ReportSummaryEiiif,"axG",@progbits,_ZN17RecordingReporter13
   4              		.align 2
   5              		.p2align 4
   6              		.weak	_ZN17RecordingReporter13ReportSummaryEiiif
   8              	_ZN17RecordingReporter13ReportSummaryEiiif:
   9              	.LFB1217:
  10              		.cfi_startproc
  11 0000 F30F1EFA 		endbr64
  12 0004 660F6ECE 		movd	%esi, %xmm1
  13 0008 660F6ED2 		movd	%edx, %xmm2
  14 000c 898F2408 		movl	%ecx, 2084(%rdi)
  14      0000
  15 0012 660F62CA 		punpckldq	%xmm2, %xmm1
  16 0016 F30F1187 		movss	%xmm0, 2088(%rdi)
  16      28080000 
  17 001e 660FD68F 		movq	%xmm1, 2076(%rdi)
  17      1C080000 
  18 0026 C3       		ret
  19              		.cfi_endproc
  20              	.LFE1217:
  22              		.text
  23              		.align 2
  24              		.p2align 4
  26              	_ZN12_GLOBAL__N_151TestTimeConstraintFailureIncludesTimeoutInformationD2Ev:
  27              	.LFB1329:
  28              		.cfi_startproc
  29 0000 F30F1EFA 		endbr64
  30 0004 488D0500 		leaq	16+_ZTVN12_GLOBAL__N_151TestTimeConstraintFailureIncludesTimeoutInformationE(%rip), %rax
  30      000000
  31 000b 488907   		movq	%rax, (%rdi)
  32 000e E9000000 		jmp	_ZN8UnitTest4TestD2Ev@PLT
  32      00
  33              		.cfi_endproc
  34              	.LFE1329:
  36              		.set	_ZN12_GLOBAL__N_151TestTimeConstraintFailureIncludesTimeoutInformationD1Ev,_ZN12_GLOBAL__N_15
  37 0013 90       		.align 2
  38 0014 66662E0F 		.p2align 4
  38      1F840000 
  38      00000090 
  40              	_ZN12_GLOBAL__N_144TestTimeConstraintFailureIncludesCorrectDataD2Ev:
  41              	.LFB1333:
  42              		.cfi_startproc
  43 0020 F30F1EFA 		endbr64
  44 0024 488D0500 		leaq	16+_ZTVN12_GLOBAL__N_144TestTimeConstraintFailureIncludesCorrectDataE(%rip), %rax
  44      000000
  45 002b 488907   		movq	%rax, (%rdi)
  46 002e E9000000 		jmp	_ZN8UnitTest4TestD2Ev@PLT
  46      00
  47              		.cfi_endproc
  48              	.LFE1333:
  50              		.set	_ZN12_GLOBAL__N_144TestTimeConstraintFailureIncludesCorrectDataD1Ev,_ZN12_GLOBAL__N_144TestTi
  51 0033 90       		.align 2
  52 0034 66662E0F 		.p2align 4
  52      1F840000 
  52      00000090 
  54              	_ZN12_GLOBAL__N_135TestTimeConstraintFailsWithSlowTestD2Ev:
  55              	.LFB1337:
  56              		.cfi_startproc
  57 0040 F30F1EFA 		endbr64
  58 0044 488D0500 		leaq	16+_ZTVN12_GLOBAL__N_135TestTimeConstraintFailsWithSlowTestE(%rip), %rax
  58      000000
  59 004b 488907   		movq	%rax, (%rdi)
  60 004e E9000000 		jmp	_ZN8UnitTest4TestD2Ev@PLT
  60      00
  61              		.cfi_endproc
  62              	.LFE1337:
  64              		.set	_ZN12_GLOBAL__N_135TestTimeConstraintFailsWithSlowTestD1Ev,_ZN12_GLOBAL__N_135TestTimeConstra
  65 0053 90       		.align 2
  66 0054 66662E0F 		.p2align 4
  66      1F840000 
  66      00000090 
  68              	_ZN12_GLOBAL__N_138TestTimeConstraintSucceedsWithFastTestD2Ev:
  69              	.LFB1341:
  70              		.cfi_startproc
  71 0060 F30F1EFA 		endbr64
  72 0064 488D0500 		leaq	16+_ZTVN12_GLOBAL__N_138TestTimeConstraintSucceedsWithFastTestE(%rip), %rax
  72      000000
  73 006b 488907   		movq	%rax, (%rdi)
  74 006e E9000000 		jmp	_ZN8UnitTest4TestD2Ev@PLT
  74      00
  75              		.cfi_endproc
  76              	.LFE1341:
  78              		.set	_ZN12_GLOBAL__N_138TestTimeConstraintSucceedsWithFastTestD1Ev,_ZN12_GLOBAL__N_138TestTimeCons
  79              		.section	.text._ZN17RecordingReporter15ReportTestStartERKN8UnitTest11TestDetailsE,"axG",@progbits,
  80              		.align 2
  81              		.p2align 4
  82              		.weak	_ZN17RecordingReporter15ReportTestStartERKN8UnitTest11TestDetailsE
  84              	_ZN17RecordingReporter15ReportTestStartERKN8UnitTest11TestDetailsE:
  85              	.LFB1214:
  86              		.cfi_startproc
  87 0000 F30F1EFA 		endbr64
  88 0004 55       		pushq	%rbp
  89              		.cfi_def_cfa_offset 16
  90              		.cfi_offset 6, -16
  91 0005 4889F5   		movq	%rsi, %rbp
  92 0008 BA000100 		movl	$256, %edx
  92      00
  93 000d 53       		pushq	%rbx
  94              		.cfi_def_cfa_offset 24
  95              		.cfi_offset 3, -24
  96 000e 4889FB   		movq	%rdi, %rbx
  97 0011 4883EC08 		subq	$8, %rsp
  98              		.cfi_def_cfa_offset 32
  99 0015 83470801 		addl	$1, 8(%rdi)
 100 0019 488B36   		movq	(%rsi), %rsi
 101 001c 488D7F0C 		leaq	12(%rdi), %rdi
 102 0020 E8000000 		call	__strcpy_chk@PLT
 102      00
 103 0025 488B7508 		movq	8(%rbp), %rsi
 104 0029 4883C408 		addq	$8, %rsp
 105              		.cfi_def_cfa_offset 24
 106 002d 488DBB0C 		leaq	268(%rbx), %rdi
 106      010000
 107 0034 BA000100 		movl	$256, %edx
 107      00
 108 0039 5B       		popq	%rbx
 109              		.cfi_def_cfa_offset 16
 110 003a 5D       		popq	%rbp
 111              		.cfi_def_cfa_offset 8
 112 003b E9000000 		jmp	__strcpy_chk@PLT
 112      00
 113              		.cfi_endproc
 114              	.LFE1214:
 116              		.section	.text._ZN17RecordingReporter13ReportFailureERKN8UnitTest11TestDetailsEPKc,"axG",@progbits
 117              		.align 2
 118              		.p2align 4
 119              		.weak	_ZN17RecordingReporter13ReportFailureERKN8UnitTest11TestDetailsEPKc
 121              	_ZN17RecordingReporter13ReportFailureERKN8UnitTest11TestDetailsEPKc:
 122              	.LFB1215:
 123              		.cfi_startproc
 124 0000 F30F1EFA 		endbr64
 125 0004 4154     		pushq	%r12
 126              		.cfi_def_cfa_offset 16
 127              		.cfi_offset 12, -16
 128 0006 4989D4   		movq	%rdx, %r12
 129 0009 BA000100 		movl	$256, %edx
 129      00
 130 000e 55       		pushq	%rbp
 131              		.cfi_def_cfa_offset 24
 132              		.cfi_offset 6, -24
 133 000f 4889F5   		movq	%rsi, %rbp
 134 0012 53       		pushq	%rbx
 135              		.cfi_def_cfa_offset 32
 136              		.cfi_offset 3, -32
 137 0013 488B7610 		movq	16(%rsi), %rsi
 138 0017 4889FB   		movq	%rdi, %rbx
 139 001a 83870C02 		addl	$1, 524(%rdi)
 139      000001
 140 0021 488DBF10 		leaq	528(%rdi), %rdi
 140      020000
 141 0028 E8000000 		call	__strcpy_chk@PLT
 141      00
 142 002d 8B4518   		movl	24(%rbp), %eax
 143 0030 488B7500 		movq	0(%rbp), %rsi
 144 0034 488DBB14 		leaq	788(%rbx), %rdi
 144      030000
 145 003b BA000100 		movl	$256, %edx
 145      00
 146 0040 89831003 		movl	%eax, 784(%rbx)
 146      0000
 147 0046 E8000000 		call	__strcpy_chk@PLT
 147      00
 148 004b 488B7508 		movq	8(%rbp), %rsi
 149 004f BA000100 		movl	$256, %edx
 149      00
 150 0054 488DBB14 		leaq	1044(%rbx), %rdi
 150      040000
 151 005b E8000000 		call	__strcpy_chk@PLT
 151      00
 152 0060 488DBB14 		leaq	1300(%rbx), %rdi
 152      050000
 153 0067 4C89E6   		movq	%r12, %rsi
 154 006a 5B       		popq	%rbx
 155              		.cfi_def_cfa_offset 24
 156 006b BA000100 		movl	$256, %edx
 156      00
 157 0070 5D       		popq	%rbp
 158              		.cfi_def_cfa_offset 16
 159 0071 415C     		popq	%r12
 160              		.cfi_def_cfa_offset 8
 161 0073 E9000000 		jmp	__strcpy_chk@PLT
 161      00
 162              		.cfi_endproc
 163              	.LFE1215:
 165              		.section	.text._ZN17RecordingReporter16ReportTestFinishERKN8UnitTest11TestDetailsEf,"axG",@progbit
 166              		.align 2
 167              		.p2align 4
 168              		.weak	_ZN17RecordingReporter16ReportTestFinishERKN8UnitTest11TestDetailsEf
 170              	_ZN17RecordingReporter16ReportTestFinishERKN8UnitTest11TestDetailsEf:
 171              	.LFB1216:
 172              		.cfi_startproc
 173 0000 F30F1EFA 		endbr64
 174 0004 55       		pushq	%rbp
 175              		.cfi_def_cfa_offset 16
 176              		.cfi_offset 6, -16
 177 0005 4889F5   		movq	%rsi, %rbp
 178 0008 BA000100 		movl	$256, %edx
 178      00
 179 000d 53       		pushq	%rbx
 180              		.cfi_def_cfa_offset 24
 181              		.cfi_offset 3, -24
 182 000e 4889FB   		movq	%rdi, %rbx
 183 0011 4883EC18 		subq	$24, %rsp
 184              		.cfi_def_cfa_offset 48
 185 0015 83871406 		addl	$1, 1556(%rdi)
 185      000001
 186 001c 488B36   		movq	(%rsi), %rsi
 187 001f 488DBF18 		leaq	1560(%rdi), %rdi
 187      060000
 188 0026 F30F1144 		movss	%xmm0, 12(%rsp)
 188      240C
 189 002c E8000000 		call	__strcpy_chk@PLT
 189      00
 190 0031 488B7508 		movq	8(%rbp), %rsi
 191 0035 BA000100 		movl	$256, %edx
 191      00
 192 003a 488DBB18 		leaq	1816(%rbx), %rdi
 192      070000
 193 0041 E8000000 		call	__strcpy_chk@PLT
 193      00
 194 0046 F30F1044 		movss	12(%rsp), %xmm0
 194      240C
 195 004c F30F1183 		movss	%xmm0, 2072(%rbx)
 195      18080000 
 196 0054 4883C418 		addq	$24, %rsp
 197              		.cfi_def_cfa_offset 24
 198 0058 5B       		popq	%rbx
 199              		.cfi_def_cfa_offset 16
 200 0059 5D       		popq	%rbp
 201              		.cfi_def_cfa_offset 8
 202 005a C3       		ret
 203              		.cfi_endproc
 204              	.LFE1216:
 206              		.section	.text.unlikely,"ax",@progbits
 207              		.align 2
 208              	.LCOLDB0:
 209              		.text
 210              	.LHOTB0:
 211 0073 90       		.align 2
 212 0074 66662E0F 		.p2align 4
 212      1F840000 
 212      00000090 
 214              	_ZN12_GLOBAL__N_151TestTimeConstraintFailureIncludesTimeoutInformationD0Ev:
 215              	.LFB1331:
 216              		.cfi_startproc
 217              		.cfi_personality 0x9b,DW.ref.__gxx_personality_v0
 218              		.cfi_lsda 0x1b,.LLSDA1331
 219 0080 F30F1EFA 		endbr64
 220 0084 4154     		pushq	%r12
 221              		.cfi_def_cfa_offset 16
 222              		.cfi_offset 12, -16
 223 0086 488D0500 		leaq	16+_ZTVN12_GLOBAL__N_151TestTimeConstraintFailureIncludesTimeoutInformationE(%rip), %rax
 223      000000
 224 008d 55       		pushq	%rbp
 225              		.cfi_def_cfa_offset 24
 226              		.cfi_offset 6, -24
 227 008e 4889FD   		movq	%rdi, %rbp
 228 0091 4883EC08 		subq	$8, %rsp
 229              		.cfi_def_cfa_offset 32
 230 0095 488907   		movq	%rax, (%rdi)
 231              	.LEHB0:
 232 0098 E8000000 		call	_ZN8UnitTest4TestD2Ev@PLT
 232      00
 233              	.LEHE0:
 234 009d 4883C408 		addq	$8, %rsp
 235              		.cfi_remember_state
 236              		.cfi_def_cfa_offset 24
 237 00a1 4889EF   		movq	%rbp, %rdi
 238 00a4 5D       		popq	%rbp
 239              		.cfi_def_cfa_offset 16
 240 00a5 415C     		popq	%r12
 241              		.cfi_def_cfa_offset 8
 242 00a7 E9000000 		jmp	_ZdlPv@PLT
 242      00
 243              	.L15:
 244              		.cfi_restore_state
 245 00ac F30F1EFA 		endbr64
 246 00b0 4989C4   		movq	%rax, %r12
 247 00b3 E9000000 		jmp	.L14
 247      00
 248              		.globl	__gxx_personality_v0
 249              		.section	.gcc_except_table,"a",@progbits
 250              	.LLSDA1331:
 251 0000 FF       		.byte	0xff
 252 0001 FF       		.byte	0xff
 253 0002 01       		.byte	0x1
 254 0003 04       		.uleb128 .LLSDACSE1331-.LLSDACSB1331
 255              	.LLSDACSB1331:
 256 0004 18       		.uleb128 .LEHB0-.LFB1331
 257 0005 05       		.uleb128 .LEHE0-.LEHB0
 258 0006 2C       		.uleb128 .L15-.LFB1331
 259 0007 00       		.uleb128 0
 260              	.LLSDACSE1331:
 261              		.text
 262              		.cfi_endproc
 263              		.section	.text.unlikely
 264              		.cfi_startproc
 265              		.cfi_personality 0x9b,DW.ref.__gxx_personality_v0
 266              		.cfi_lsda 0x1b,.LLSDAC1331
 268              	_ZN12_GLOBAL__N_151TestTimeConstraintFailureIncludesTimeoutInformationD0Ev.cold:
 269              	.LFSB1331:
 270              	.L14:
 271              		.cfi_def_cfa_offset 32
 272              		.cfi_offset 6, -24
 273              		.cfi_offset 12, -16
 274 0000 4889EF   		movq	%rbp, %rdi
 275 0003 E8000000 		call	_ZdlPv@PLT
 275      00
 276 0008 4C89E7   		movq	%r12, %rdi
 277              	.LEHB1:
 278 000b E8000000 		call	_Unwind_Resume@PLT
 278      00
 279              	.LEHE1:
 280              		.cfi_endproc
 281              	.LFE1331:
 282              		.section	.gcc_except_table
 283              	.LLSDAC1331:
 284 0008 FF       		.byte	0xff
 285 0009 FF       		.byte	0xff
 286 000a 01       		.byte	0x1
 287 000b 04       		.uleb128 .LLSDACSEC1331-.LLSDACSBC1331
 288              	.LLSDACSBC1331:
 289 000c 0B       		.uleb128 .LEHB1-.LCOLDB0
 290 000d 05       		.uleb128 .LEHE1-.LEHB1
 291 000e 00       		.uleb128 0
 292 000f 00       		.uleb128 0
 293              	.LLSDACSEC1331:
 294              		.section	.text.unlikely
 295              		.text
 297              		.section	.text.unlikely
 299              	.LCOLDE0:
 300              		.text
 301              	.LHOTE0:
 302              		.section	.text.unlikely
 303              		.align 2
 304              	.LCOLDB1:
 305              		.text
 306              	.LHOTB1:
 307              		.align 2
 308 00b8 0F1F8400 		.p2align 4
 308      00000000 
 310              	_ZN12_GLOBAL__N_144TestTimeConstraintFailureIncludesCorrectDataD0Ev:
 311              	.LFB1335:
 312              		.cfi_startproc
 313              		.cfi_personality 0x9b,DW.ref.__gxx_personality_v0
 314              		.cfi_lsda 0x1b,.LLSDA1335
 315 00c0 F30F1EFA 		endbr64
 316 00c4 4154     		pushq	%r12
 317              		.cfi_def_cfa_offset 16
 318              		.cfi_offset 12, -16
 319 00c6 488D0500 		leaq	16+_ZTVN12_GLOBAL__N_144TestTimeConstraintFailureIncludesCorrectDataE(%rip), %rax
 319      000000
 320 00cd 55       		pushq	%rbp
 321              		.cfi_def_cfa_offset 24
 322              		.cfi_offset 6, -24
 323 00ce 4889FD   		movq	%rdi, %rbp
 324 00d1 4883EC08 		subq	$8, %rsp
 325              		.cfi_def_cfa_offset 32
 326 00d5 488907   		movq	%rax, (%rdi)
 327              	.LEHB2:
 328 00d8 E8000000 		call	_ZN8UnitTest4TestD2Ev@PLT
 328      00
 329              	.LEHE2:
 330 00dd 4883C408 		addq	$8, %rsp
 331              		.cfi_remember_state
 332              		.cfi_def_cfa_offset 24
 333 00e1 4889EF   		movq	%rbp, %rdi
 334 00e4 5D       		popq	%rbp
 335              		.cfi_def_cfa_offset 16
 336 00e5 415C     		popq	%r12
 337              		.cfi_def_cfa_offset 8
 338 00e7 E9000000 		jmp	_ZdlPv@PLT
 338      00
 339              	.L19:
 340              		.cfi_restore_state
 341 00ec F30F1EFA 		endbr64
 342 00f0 4989C4   		movq	%rax, %r12
 343 00f3 E9000000 		jmp	.L18
 343      00
 344              		.section	.gcc_except_table
 345              	.LLSDA1335:
 346 0010 FF       		.byte	0xff
 347 0011 FF       		.byte	0xff
 348 0012 01       		.byte	0x1
 349 0013 04       		.uleb128 .LLSDACSE1335-.LLSDACSB1335
 350              	.LLSDACSB1335:
 351 0014 18       		.uleb128 .LEHB2-.LFB1335
 352 0015 05       		.uleb128 .LEHE2-.LEHB2
 353 0016 2C       		.uleb128 .L19-.LFB1335
 354 0017 00       		.uleb128 0
 355              	.LLSDACSE1335:
 356              		.text
 357              		.cfi_endproc
 358              		.section	.text.unlikely
 359              		.cfi_startproc
 360              		.cfi_personality 0x9b,DW.ref.__gxx_personality_v0
 361              		.cfi_lsda 0x1b,.LLSDAC1335
 363              	_ZN12_GLOBAL__N_144TestTimeConstraintFailureIncludesCorrectDataD0Ev.cold:
 364              	.LFSB1335:
 365              	.L18:
 366              		.cfi_def_cfa_offset 32
 367              		.cfi_offset 6, -24
 368              		.cfi_offset 12, -16
 369 0010 4889EF   		movq	%rbp, %rdi
 370 0013 E8000000 		call	_ZdlPv@PLT
 370      00
 371 0018 4C89E7   		movq	%r12, %rdi
 372              	.LEHB3:
 373 001b E8000000 		call	_Unwind_Resume@PLT
 373      00
 374              	.LEHE3:
 375              		.cfi_endproc
 376              	.LFE1335:
 377              		.section	.gcc_except_table
 378              	.LLSDAC1335:
 379 0018 FF       		.byte	0xff
 380 0019 FF       		.byte	0xff
 381 001a 01       		.byte	0x1
 382 001b 04       		.uleb128 .LLSDACSEC1335-.LLSDACSBC1335
 383              	.LLSDACSBC1335:
 384 001c 0B       		.uleb128 .LEHB3-.LCOLDB1
 385 001d 05       		.uleb128 .LEHE3-.LEHB3
 386 001e 00       		.uleb128 0
 387 001f 00       		.uleb128 0
 388              	.LLSDACSEC1335:
 389              		.section	.text.unlikely
 390              		.text
 392              		.section	.text.unlikely
 394              	.LCOLDE1:
 395              		.text
 396              	.LHOTE1:
 397              		.section	.text.unlikely
 398              		.align 2
 399              	.LCOLDB2:
 400              		.text
 401              	.LHOTB2:
 402              		.align 2
 403 00f8 0F1F8400 		.p2align 4
 403      00000000 
 405              	_ZN12_GLOBAL__N_135TestTimeConstraintFailsWithSlowTestD0Ev:
 406              	.LFB1339:
 407              		.cfi_startproc
 408              		.cfi_personality 0x9b,DW.ref.__gxx_personality_v0
 409              		.cfi_lsda 0x1b,.LLSDA1339
 410 0100 F30F1EFA 		endbr64
 411 0104 4154     		pushq	%r12
 412              		.cfi_def_cfa_offset 16
 413              		.cfi_offset 12, -16
 414 0106 488D0500 		leaq	16+_ZTVN12_GLOBAL__N_135TestTimeConstraintFailsWithSlowTestE(%rip), %rax
 414      000000
 415 010d 55       		pushq	%rbp
 416              		.cfi_def_cfa_offset 24
 417              		.cfi_offset 6, -24
 418 010e 4889FD   		movq	%rdi, %rbp
 419 0111 4883EC08 		subq	$8, %rsp
 420              		.cfi_def_cfa_offset 32
 421 0115 488907   		movq	%rax, (%rdi)
 422              	.LEHB4:
 423 0118 E8000000 		call	_ZN8UnitTest4TestD2Ev@PLT
 423      00
 424              	.LEHE4:
 425 011d 4883C408 		addq	$8, %rsp
 426              		.cfi_remember_state
 427              		.cfi_def_cfa_offset 24
 428 0121 4889EF   		movq	%rbp, %rdi
 429 0124 5D       		popq	%rbp
 430              		.cfi_def_cfa_offset 16
 431 0125 415C     		popq	%r12
 432              		.cfi_def_cfa_offset 8
 433 0127 E9000000 		jmp	_ZdlPv@PLT
 433      00
 434              	.L23:
 435              		.cfi_restore_state
 436 012c F30F1EFA 		endbr64
 437 0130 4989C4   		movq	%rax, %r12
 438 0133 E9000000 		jmp	.L22
 438      00
 439              		.section	.gcc_except_table
 440              	.LLSDA1339:
 441 0020 FF       		.byte	0xff
 442 0021 FF       		.byte	0xff
 443 0022 01       		.byte	0x1
 444 0023 04       		.uleb128 .LLSDACSE1339-.LLSDACSB1339
 445              	.LLSDACSB1339:
 446 0024 18       		.uleb128 .LEHB4-.LFB1339
 447 0025 05       		.uleb128 .LEHE4-.LEHB4
 448 0026 2C       		.uleb128 .L23-.LFB1339
 449 0027 00       		.uleb128 0
 450              	.LLSDACSE1339:
 451              		.text
 452              		.cfi_endproc
 453              		.section	.text.unlikely
 454              		.cfi_startproc
 455              		.cfi_personality 0x9b,DW.ref.__gxx_personality_v0
 456              		.cfi_lsda 0x1b,.LLSDAC1339
 458              	_ZN12_GLOBAL__N_135TestTimeConstraintFailsWithSlowTestD0Ev.cold:
 459              	.LFSB1339:
 460              	.L22:
 461              		.cfi_def_cfa_offset 32
 462              		.cfi_offset 6, -24
 463              		.cfi_offset 12, -16
 464 0020 4889EF   		movq	%rbp, %rdi
 465 0023 E8000000 		call	_ZdlPv@PLT
 465      00
 466 0028 4C89E7   		movq	%r12, %rdi
 467              	.LEHB5:
 468 002b E8000000 		call	_Unwind_Resume@PLT
 468      00
 469              	.LEHE5:
 470              		.cfi_endproc
 471              	.LFE1339:
 472              		.section	.gcc_except_table
 473              	.LLSDAC1339:
 474 0028 FF       		.byte	0xff
 475 0029 FF       		.byte	0xff
 476 002a 01       		.byte	0x1
 477 002b 04       		.uleb128 .LLSDACSEC1339-.LLSDACSBC1339
 478              	.LLSDACSBC1339:
 479 002c 0B       		.uleb128 .LEHB5-.LCOLDB2
 480 002d 05       		.uleb128 .LEHE5-.LEHB5
 481 002e 00       		.uleb128 0
 482 002f 00       		.uleb128 0
 483              	.LLSDACSEC1339:
 484              		.section	.text.unlikely
 485              		.text
 487              		.section	.text.unlikely
 489              	.LCOLDE2:
 490              		.text
 491              	.LHOTE2:
 492              		.section	.text.unlikely
 493              		.align 2
 494              	.LCOLDB3:
 495              		.text
 496              	.LHOTB3:
 497              		.align 2
 498 0138 0F1F8400 		.p2align 4
 498      00000000 
 500              	_ZN12_GLOBAL__N_138TestTimeConstraintSucceedsWithFastTestD0Ev:
 501              	.LFB1343:
 502              		.cfi_startproc
 503              		.cfi_personality 0x9b,DW.ref.__gxx_personality_v0
 504              		.cfi_lsda 0x1b,.LLSDA1343
 505 0140 F30F1EFA 		endbr64
 506 0144 4154     		pushq	%r12
 507              		.cfi_def_cfa_offset 16
 508              		.cfi_offset 12, -16
 509 0146 488D0500 		leaq	16+_ZTVN12_GLOBAL__N_138TestTimeConstraintSucceedsWithFastTestE(%rip), %rax
 509      000000
 510 014d 55       		pushq	%rbp
 511              		.cfi_def_cfa_offset 24
 512              		.cfi_offset 6, -24
 513 014e 4889FD   		movq	%rdi, %rbp
 514 0151 4883EC08 		subq	$8, %rsp
 515              		.cfi_def_cfa_offset 32
 516 0155 488907   		movq	%rax, (%rdi)
 517              	.LEHB6:
 518 0158 E8000000 		call	_ZN8UnitTest4TestD2Ev@PLT
 518      00
 519              	.LEHE6:
 520 015d 4883C408 		addq	$8, %rsp
 521              		.cfi_remember_state
 522              		.cfi_def_cfa_offset 24
 523 0161 4889EF   		movq	%rbp, %rdi
 524 0164 5D       		popq	%rbp
 525              		.cfi_def_cfa_offset 16
 526 0165 415C     		popq	%r12
 527              		.cfi_def_cfa_offset 8
 528 0167 E9000000 		jmp	_ZdlPv@PLT
 528      00
 529              	.L27:
 530              		.cfi_restore_state
 531 016c F30F1EFA 		endbr64
 532 0170 4989C4   		movq	%rax, %r12
 533 0173 E9000000 		jmp	.L26
 533      00
 534              		.section	.gcc_except_table
 535              	.LLSDA1343:
 536 0030 FF       		.byte	0xff
 537 0031 FF       		.byte	0xff
 538 0032 01       		.byte	0x1
 539 0033 04       		.uleb128 .LLSDACSE1343-.LLSDACSB1343
 540              	.LLSDACSB1343:
 541 0034 18       		.uleb128 .LEHB6-.LFB1343
 542 0035 05       		.uleb128 .LEHE6-.LEHB6
 543 0036 2C       		.uleb128 .L27-.LFB1343
 544 0037 00       		.uleb128 0
 545              	.LLSDACSE1343:
 546              		.text
 547              		.cfi_endproc
 548              		.section	.text.unlikely
 549              		.cfi_startproc
 550              		.cfi_personality 0x9b,DW.ref.__gxx_personality_v0
 551              		.cfi_lsda 0x1b,.LLSDAC1343
 553              	_ZN12_GLOBAL__N_138TestTimeConstraintSucceedsWithFastTestD0Ev.cold:
 554              	.LFSB1343:
 555              	.L26:
 556              		.cfi_def_cfa_offset 32
 557              		.cfi_offset 6, -24
 558              		.cfi_offset 12, -16
 559 0030 4889EF   		movq	%rbp, %rdi
 560 0033 E8000000 		call	_ZdlPv@PLT
 560      00
 561 0038 4C89E7   		movq	%r12, %rdi
 562              	.LEHB7:
 563 003b E8000000 		call	_Unwind_Resume@PLT
 563      00
 564              	.LEHE7:
 565              		.cfi_endproc
 566              	.LFE1343:
 567              		.section	.gcc_except_table
 568              	.LLSDAC1343:
 569 0038 FF       		.byte	0xff
 570 0039 FF       		.byte	0xff
 571 003a 01       		.byte	0x1
 572 003b 04       		.uleb128 .LLSDACSEC1343-.LLSDACSBC1343
 573              	.LLSDACSBC1343:
 574 003c 0B       		.uleb128 .LEHB7-.LCOLDB3
 575 003d 05       		.uleb128 .LEHE7-.LEHB7
 576 003e 00       		.uleb128 0
 577 003f 00       		.uleb128 0
 578              	.LLSDACSEC1343:
 579              		.section	.text.unlikely
 580              		.text
 582              		.section	.text.unlikely
 584              	.LCOLDE3:
 585              		.text
 586              	.LHOTE3:
 587              		.section	.text._ZN17RecordingReporterD2Ev,"axG",@progbits,_ZN17RecordingReporterD5Ev,comdat
 588              		.align 2
 589              		.p2align 4
 590              		.weak	_ZN17RecordingReporterD2Ev
 592              	_ZN17RecordingReporterD2Ev:
 593              	.LFB1345:
 594              		.cfi_startproc
 595 0000 F30F1EFA 		endbr64
 596 0004 488D0500 		leaq	16+_ZTV17RecordingReporter(%rip), %rax
 596      000000
 597 000b 488907   		movq	%rax, (%rdi)
 598 000e E9000000 		jmp	_ZN8UnitTest12TestReporterD2Ev@PLT
 598      00
 599              		.cfi_endproc
 600              	.LFE1345:
 602              		.weak	_ZN17RecordingReporterD1Ev
 603              		.set	_ZN17RecordingReporterD1Ev,_ZN17RecordingReporterD2Ev
 604              		.section	.text._ZN17RecordingReporterD0Ev,"axG",@progbits,_ZN17RecordingReporterD5Ev,comdat
 605              		.align 2
 606              		.p2align 4
 607              		.weak	_ZN17RecordingReporterD0Ev
 609              	_ZN17RecordingReporterD0Ev:
 610              	.LFB1347:
 611              		.cfi_startproc
 612              		.cfi_personality 0x9b,DW.ref.__gxx_personality_v0
 613              		.cfi_lsda 0x1b,.LLSDA1347
 614 0000 F30F1EFA 		endbr64
 615 0004 4154     		pushq	%r12
 616              		.cfi_def_cfa_offset 16
 617              		.cfi_offset 12, -16
 618 0006 488D0500 		leaq	16+_ZTV17RecordingReporter(%rip), %rax
 618      000000
 619 000d 55       		pushq	%rbp
 620              		.cfi_def_cfa_offset 24
 621              		.cfi_offset 6, -24
 622 000e 4889FD   		movq	%rdi, %rbp
 623 0011 4883EC08 		subq	$8, %rsp
 624              		.cfi_def_cfa_offset 32
 625 0015 488907   		movq	%rax, (%rdi)
 626              	.LEHB8:
 627 0018 E8000000 		call	_ZN8UnitTest12TestReporterD2Ev@PLT
 627      00
 628              	.LEHE8:
 629 001d 4883C408 		addq	$8, %rsp
 630              		.cfi_remember_state
 631              		.cfi_def_cfa_offset 24
 632 0021 4889EF   		movq	%rbp, %rdi
 633 0024 5D       		popq	%rbp
 634              		.cfi_def_cfa_offset 16
 635 0025 415C     		popq	%r12
 636              		.cfi_def_cfa_offset 8
 637 0027 E9000000 		jmp	_ZdlPv@PLT
 637      00
 638              	.L32:
 639              		.cfi_restore_state
 640 002c F30F1EFA 		endbr64
 641 0030 4989C4   		movq	%rax, %r12
 642              	.L31:
 643 0033 4889EF   		movq	%rbp, %rdi
 644 0036 E8000000 		call	_ZdlPv@PLT
 644      00
 645 003b 4C89E7   		movq	%r12, %rdi
 646              	.LEHB9:
 647 003e E8000000 		call	_Unwind_Resume@PLT
 647      00
 648              	.LEHE9:
 649              		.cfi_endproc
 650              	.LFE1347:
 651              		.section	.gcc_except_table
 652              	.LLSDA1347:
 653 0040 FF       		.byte	0xff
 654 0041 FF       		.byte	0xff
 655 0042 01       		.byte	0x1
 656 0043 08       		.uleb128 .LLSDACSE1347-.LLSDACSB1347
 657              	.LLSDACSB1347:
 658 0044 18       		.uleb128 .LEHB8-.LFB1347
 659 0045 05       		.uleb128 .LEHE8-.LEHB8
 660 0046 2C       		.uleb128 .L32-.LFB1347
 661 0047 00       		.uleb128 0
 662 0048 3E       		.uleb128 .LEHB9-.LFB1347
 663 0049 05       		.uleb128 .LEHE9-.LEHB9
 664 004a 00       		.uleb128 0
 665 004b 00       		.uleb128 0
 666              	.LLSDACSE1347:
 667              		.section	.text._ZN17RecordingReporterD0Ev,"axG",@progbits,_ZN17RecordingReporterD5Ev,comdat
 669              		.section	.text._ZN8UnitTest15MemoryOutStreamD1Ev,"axG",@progbits,_ZN8UnitTest15MemoryOutStreamD1Ev
 670              		.align 2
 671              		.p2align 4
 672              		.weak	_ZN8UnitTest15MemoryOutStreamD1Ev
 674              	_ZN8UnitTest15MemoryOutStreamD1Ev:
 675              	.LFB1273:
 676              		.cfi_startproc
 677 0000 F30F1EFA 		endbr64
 678 0004 55       		pushq	%rbp
 679              		.cfi_def_cfa_offset 16
 680              		.cfi_offset 6, -16
 681 0005 488D0500 		leaq	24+_ZTVN8UnitTest15MemoryOutStreamE(%rip), %rax
 681      000000
 682 000c 53       		pushq	%rbx
 683              		.cfi_def_cfa_offset 24
 684              		.cfi_offset 3, -24
 685 000d 4889FB   		movq	%rdi, %rbx
 686 0010 4883EC08 		subq	$8, %rsp
 687              		.cfi_def_cfa_offset 32
 688 0014 488907   		movq	%rax, (%rdi)
 689 0017 4883C028 		addq	$40, %rax
 690 001b 48898790 		movq	%rax, 144(%rdi)
 690      000000
 691 0022 488B7F70 		movq	112(%rdi), %rdi
 692 0026 488D8380 		leaq	128(%rbx), %rax
 692      000000
 693 002d 4839C7   		cmpq	%rax, %rdi
 694 0030 7405     		je	.L35
 695 0032 E8000000 		call	_ZdlPv@PLT
 695      00
 696              	.L35:
 697 0037 488D0500 		leaq	64+_ZTCN8UnitTest15MemoryOutStreamE0_NSt7__cxx1119basic_ostringstreamIcSt11char_traitsIcESaIc
 697      000000
 698 003e 488D1500 		leaq	24+_ZTCN8UnitTest15MemoryOutStreamE0_NSt7__cxx1119basic_ostringstreamIcSt11char_traitsIcESaIc
 698      000000
 699 0045 488B7B50 		movq	80(%rbx), %rdi
 700 0049 48898390 		movq	%rax, 144(%rbx)
 700      000000
 701 0050 488D0500 		leaq	16+_ZTVNSt7__cxx1115basic_stringbufIcSt11char_traitsIcESaIcEEE(%rip), %rax
 701      000000
 702 0057 66480F6E 		movq	%rdx, %xmm0
 702      C2
 703 005c 488DAB90 		leaq	144(%rbx), %rbp
 703      000000
 704 0063 66480F6E 		movq	%rax, %xmm1
 704      C8
 705 0068 488D4360 		leaq	96(%rbx), %rax
 706 006c 660F6CC1 		punpcklqdq	%xmm1, %xmm0
 707 0070 0F1103   		movups	%xmm0, (%rbx)
 708 0073 4839C7   		cmpq	%rax, %rdi
 709 0076 7405     		je	.L36
 710 0078 E8000000 		call	_ZdlPv@PLT
 710      00
 711              	.L36:
 712 007d 488D0500 		leaq	16+_ZTVSt15basic_streambufIcSt11char_traitsIcEE(%rip), %rax
 712      000000
 713 0084 488D7B40 		leaq	64(%rbx), %rdi
 714 0088 48894308 		movq	%rax, 8(%rbx)
 715 008c E8000000 		call	_ZNSt6localeD1Ev@PLT
 715      00
 716 0091 488D0500 		leaq	24+_ZTCN8UnitTest15MemoryOutStreamE0_So(%rip), %rax
 716      000000
 717 0098 4889EF   		movq	%rbp, %rdi
 718 009b 488903   		movq	%rax, (%rbx)
 719 009e 488D0500 		leaq	16+_ZTVSt9basic_iosIcSt11char_traitsIcEE(%rip), %rax
 719      000000
 720 00a5 48898390 		movq	%rax, 144(%rbx)
 720      000000
 721 00ac 4883C408 		addq	$8, %rsp
 722              		.cfi_def_cfa_offset 24
 723 00b0 5B       		popq	%rbx
 724              		.cfi_def_cfa_offset 16
 725 00b1 5D       		popq	%rbp
 726              		.cfi_def_cfa_offset 8
 727 00b2 E9000000 		jmp	_ZNSt8ios_baseD2Ev@PLT
 727      00
 728              		.cfi_endproc
 729              	.LFE1273:
 731 00b7 660F1F84 		.p2align 4
 731      00000000 
 731      00
 732              		.weak	_ZTv0_n24_N8UnitTest15MemoryOutStreamD1Ev
 734              	_ZTv0_n24_N8UnitTest15MemoryOutStreamD1Ev:
 735              	.LFB1352:
 736              		.cfi_startproc
 737 00c0 F30F1EFA 		endbr64
 738 00c4 55       		pushq	%rbp
 739              		.cfi_def_cfa_offset 16
 740              		.cfi_offset 6, -16
 741 00c5 53       		pushq	%rbx
 742              		.cfi_def_cfa_offset 24
 743              		.cfi_offset 3, -24
 744 00c6 4889FB   		movq	%rdi, %rbx
 745 00c9 4883EC08 		subq	$8, %rsp
 746              		.cfi_def_cfa_offset 32
 747 00cd 488B07   		movq	(%rdi), %rax
 748 00d0 480358E8 		addq	-24(%rax), %rbx
 749 00d4 488D0500 		leaq	24+_ZTVN8UnitTest15MemoryOutStreamE(%rip), %rax
 749      000000
 750 00db 488903   		movq	%rax, (%rbx)
 751 00de 488B7B70 		movq	112(%rbx), %rdi
 752 00e2 4883C028 		addq	$40, %rax
 753 00e6 48898390 		movq	%rax, 144(%rbx)
 753      000000
 754 00ed 488D8380 		leaq	128(%rbx), %rax
 754      000000
 755 00f4 4839C7   		cmpq	%rax, %rdi
 756 00f7 7405     		je	.L39
 757 00f9 E8000000 		call	_ZdlPv@PLT
 757      00
 758              	.L39:
 759 00fe 488D0500 		leaq	64+_ZTCN8UnitTest15MemoryOutStreamE0_NSt7__cxx1119basic_ostringstreamIcSt11char_traitsIcESaIc
 759      000000
 760 0105 488D1500 		leaq	24+_ZTCN8UnitTest15MemoryOutStreamE0_NSt7__cxx1119basic_ostringstreamIcSt11char_traitsIcESaIc
 760      000000
 761 010c 488B7B50 		movq	80(%rbx), %rdi
 762 0110 48898390 		movq	%rax, 144(%rbx)
 762      000000
 763 0117 488D0500 		leaq	16+_ZTVNSt7__cxx1115basic_stringbufIcSt11char_traitsIcESaIcEEE(%rip), %rax
 763      000000
 764 011e 66480F6E 		movq	%rdx, %xmm0
 764      C2
 765 0123 488DAB90 		leaq	144(%rbx), %rbp
 765      000000
 766 012a 66480F6E 		movq	%rax, %xmm1
 766      C8
 767 012f 488D4360 		leaq	96(%rbx), %rax
 768 0133 660F6CC1 		punpcklqdq	%xmm1, %xmm0
 769 0137 0F1103   		movups	%xmm0, (%rbx)
 770 013a 4839C7   		cmpq	%rax, %rdi
 771 013d 7405     		je	.L40
 772 013f E8000000 		call	_ZdlPv@PLT
 772      00
 773              	.L40:
 774 0144 488D0500 		leaq	16+_ZTVSt15basic_streambufIcSt11char_traitsIcEE(%rip), %rax
 774      000000
 775 014b 488D7B40 		leaq	64(%rbx), %rdi
 776 014f 48894308 		movq	%rax, 8(%rbx)
 777 0153 E8000000 		call	_ZNSt6localeD1Ev@PLT
 777      00
 778 0158 488D0500 		leaq	24+_ZTCN8UnitTest15MemoryOutStreamE0_So(%rip), %rax
 778      000000
 779 015f 4889EF   		movq	%rbp, %rdi
 780 0162 488903   		movq	%rax, (%rbx)
 781 0165 488D0500 		leaq	16+_ZTVSt9basic_iosIcSt11char_traitsIcEE(%rip), %rax
 781      000000
 782 016c 48898390 		movq	%rax, 144(%rbx)
 782      000000
 783 0173 4883C408 		addq	$8, %rsp
 784              		.cfi_def_cfa_offset 24
 785 0177 5B       		popq	%rbx
 786              		.cfi_def_cfa_offset 16
 787 0178 5D       		popq	%rbp
 788              		.cfi_def_cfa_offset 8
 789 0179 E9000000 		jmp	_ZNSt8ios_baseD2Ev@PLT
 789      00
 790              		.cfi_endproc
 791              	.LFE1352:
 793              		.section	.text._ZN8UnitTest15MemoryOutStreamD0Ev,"axG",@progbits,_ZN8UnitTest15MemoryOutStreamD0Ev
 794              		.align 2
 795              		.p2align 4
 796              		.weak	_ZN8UnitTest15MemoryOutStreamD0Ev
 798              	_ZN8UnitTest15MemoryOutStreamD0Ev:
 799              	.LFB1274:
 800              		.cfi_startproc
 801              		.cfi_personality 0x9b,DW.ref.__gxx_personality_v0
 802              		.cfi_lsda 0x1b,.LLSDA1274
 803 0000 F30F1EFA 		endbr64
 804 0004 4154     		pushq	%r12
 805              		.cfi_def_cfa_offset 16
 806              		.cfi_offset 12, -16
 807 0006 488D0500 		leaq	24+_ZTVN8UnitTest15MemoryOutStreamE(%rip), %rax
 807      000000
 808 000d 55       		pushq	%rbp
 809              		.cfi_def_cfa_offset 24
 810              		.cfi_offset 6, -24
 811 000e 4889FD   		movq	%rdi, %rbp
 812 0011 4883EC08 		subq	$8, %rsp
 813              		.cfi_def_cfa_offset 32
 814 0015 488907   		movq	%rax, (%rdi)
 815 0018 4883C028 		addq	$40, %rax
 816 001c 48898790 		movq	%rax, 144(%rdi)
 816      000000
 817 0023 488B7F70 		movq	112(%rdi), %rdi
 818 0027 488D8580 		leaq	128(%rbp), %rax
 818      000000
 819 002e 4839C7   		cmpq	%rax, %rdi
 820 0031 7405     		je	.L43
 821 0033 E8000000 		call	_ZdlPv@PLT
 821      00
 822              	.L43:
 823 0038 488D0500 		leaq	64+_ZTCN8UnitTest15MemoryOutStreamE0_NSt7__cxx1119basic_ostringstreamIcSt11char_traitsIcESaIc
 823      000000
 824 003f 488D1500 		leaq	24+_ZTCN8UnitTest15MemoryOutStreamE0_NSt7__cxx1119basic_ostringstreamIcSt11char_traitsIcESaIc
 824      000000
 825 0046 488B7D50 		movq	80(%rbp), %rdi
 826 004a 48898590 		movq	%rax, 144(%rbp)
 826      000000
 827 0051 488D0500 		leaq	16+_ZTVNSt7__cxx1115basic_stringbufIcSt11char_traitsIcESaIcEEE(%rip), %rax
 827      000000
 828 0058 66480F6E 		movq	%rdx, %xmm0
 828      C2
 829 005d 4C8DA590 		leaq	144(%rbp), %r12
 829      000000
 830 0064 66480F6E 		movq	%rax, %xmm1
 830      C8
 831 0069 488D4560 		leaq	96(%rbp), %rax
 832 006d 660F6CC1 		punpcklqdq	%xmm1, %xmm0
 833 0071 0F114500 		movups	%xmm0, 0(%rbp)
 834 0075 4839C7   		cmpq	%rax, %rdi
 835 0078 7405     		je	.L44
 836 007a E8000000 		call	_ZdlPv@PLT
 836      00
 837              	.L44:
 838 007f 488D0500 		leaq	16+_ZTVSt15basic_streambufIcSt11char_traitsIcEE(%rip), %rax
 838      000000
 839 0086 488D7D40 		leaq	64(%rbp), %rdi
 840 008a 48894508 		movq	%rax, 8(%rbp)
 841 008e E8000000 		call	_ZNSt6localeD1Ev@PLT
 841      00
 842 0093 488D0500 		leaq	24+_ZTCN8UnitTest15MemoryOutStreamE0_So(%rip), %rax
 842      000000
 843 009a 4C89E7   		movq	%r12, %rdi
 844 009d 48894500 		movq	%rax, 0(%rbp)
 845 00a1 488D0500 		leaq	16+_ZTVSt9basic_iosIcSt11char_traitsIcEE(%rip), %rax
 845      000000
 846 00a8 48898590 		movq	%rax, 144(%rbp)
 846      000000
 847              	.LEHB10:
 848 00af E8000000 		call	_ZNSt8ios_baseD2Ev@PLT
 848      00
 849              	.LEHE10:
 850 00b4 4883C408 		addq	$8, %rsp
 851              		.cfi_remember_state
 852              		.cfi_def_cfa_offset 24
 853 00b8 4889EF   		movq	%rbp, %rdi
 854 00bb 5D       		popq	%rbp
 855              		.cfi_def_cfa_offset 16
 856 00bc 415C     		popq	%r12
 857              		.cfi_def_cfa_offset 8
 858 00be E9000000 		jmp	_ZdlPv@PLT
 858      00
 859              	.L46:
 860              		.cfi_restore_state
 861 00c3 F30F1EFA 		endbr64
 862 00c7 4989C4   		movq	%rax, %r12
 863              	.L45:
 864 00ca 4889EF   		movq	%rbp, %rdi
 865 00cd E8000000 		call	_ZdlPv@PLT
 865      00
 866 00d2 4C89E7   		movq	%r12, %rdi
 867              	.LEHB11:
 868 00d5 E8000000 		call	_Unwind_Resume@PLT
 868      00
 869              	.LEHE11:
 870              		.cfi_endproc
 871              	.LFE1274:
 872              		.section	.gcc_except_table
 873              	.LLSDA1274:
 874 004c FF       		.byte	0xff
 875 004d FF       		.byte	0xff
 876 004e 01       		.byte	0x1
 877 004f 0B       		.uleb128 .LLSDACSE1274-.LLSDACSB1274
 878              	.LLSDACSB1274:
 879 0050 AF01     		.uleb128 .LEHB10-.LFB1274
 880 0052 05       		.uleb128 .LEHE10-.LEHB10
 881 0053 C301     		.uleb128 .L46-.LFB1274
 882 0055 00       		.uleb128 0
 883 0056 D501     		.uleb128 .LEHB11-.LFB1274
 884 0058 05       		.uleb128 .LEHE11-.LEHB11
 885 0059 00       		.uleb128 0
 886 005a 00       		.uleb128 0
 887              	.LLSDACSE1274:
 888              		.section	.text._ZN8UnitTest15MemoryOutStreamD0Ev,"axG",@progbits,_ZN8UnitTest15MemoryOutStreamD0Ev
 890 00da 660F1F44 		.p2align 4
 890      0000
 891              		.weak	_ZTv0_n24_N8UnitTest15MemoryOutStreamD0Ev
 893              	_ZTv0_n24_N8UnitTest15MemoryOutStreamD0Ev:
 894              	.LFB1351:
 895              		.cfi_startproc
 896              		.cfi_personality 0x9b,DW.ref.__gxx_personality_v0
 897              		.cfi_lsda 0x1b,.LLSDA1351
 898 00e0 F30F1EFA 		endbr64
 899 00e4 4154     		pushq	%r12
 900              		.cfi_def_cfa_offset 16
 901              		.cfi_offset 12, -16
 902 00e6 55       		pushq	%rbp
 903              		.cfi_def_cfa_offset 24
 904              		.cfi_offset 6, -24
 905 00e7 4889FD   		movq	%rdi, %rbp
 906 00ea 4883EC08 		subq	$8, %rsp
 907              		.cfi_def_cfa_offset 32
 908 00ee 488B07   		movq	(%rdi), %rax
 909 00f1 480368E8 		addq	-24(%rax), %rbp
 910 00f5 488D0500 		leaq	24+_ZTVN8UnitTest15MemoryOutStreamE(%rip), %rax
 910      000000
 911 00fc 48894500 		movq	%rax, 0(%rbp)
 912 0100 488B7D70 		movq	112(%rbp), %rdi
 913 0104 4883C028 		addq	$40, %rax
 914 0108 48898590 		movq	%rax, 144(%rbp)
 914      000000
 915 010f 488D8580 		leaq	128(%rbp), %rax
 915      000000
 916 0116 4839C7   		cmpq	%rax, %rdi
 917 0119 7405     		je	.L49
 918 011b E8000000 		call	_ZdlPv@PLT
 918      00
 919              	.L49:
 920 0120 488D0500 		leaq	64+_ZTCN8UnitTest15MemoryOutStreamE0_NSt7__cxx1119basic_ostringstreamIcSt11char_traitsIcESaIc
 920      000000
 921 0127 488D1500 		leaq	24+_ZTCN8UnitTest15MemoryOutStreamE0_NSt7__cxx1119basic_ostringstreamIcSt11char_traitsIcESaIc
 921      000000
 922 012e 488B7D50 		movq	80(%rbp), %rdi
 923 0132 48898590 		movq	%rax, 144(%rbp)
 923      000000
 924 0139 488D0500 		leaq	16+_ZTVNSt7__cxx1115basic_stringbufIcSt11char_traitsIcESaIcEEE(%rip), %rax
 924      000000
 925 0140 66480F6E 		movq	%rdx, %xmm0
 925      C2
 926 0145 4C8DA590 		leaq	144(%rbp), %r12
 926      000000
 927 014c 66480F6E 		movq	%rax, %xmm1
 927      C8
 928 0151 488D4560 		leaq	96(%rbp), %rax
 929 0155 660F6CC1 		punpcklqdq	%xmm1, %xmm0
 930 0159 0F114500 		movups	%xmm0, 0(%rbp)
 931 015d 4839C7   		cmpq	%rax, %rdi
 932 0160 7405     		je	.L50
 933 0162 E8000000 		call	_ZdlPv@PLT
 933      00
 934              	.L50:
 935 0167 488D0500 		leaq	16+_ZTVSt15basic_streambufIcSt11char_traitsIcEE(%rip), %rax
 935      000000
 936 016e 488D7D40 		leaq	64(%rbp), %rdi
 937 0172 48894508 		movq	%rax, 8(%rbp)
 938 0176 E8000000 		call	_ZNSt6localeD1Ev@PLT
 938      00
 939 017b 488D0500 		leaq	24+_ZTCN8UnitTest15MemoryOutStreamE0_So(%rip), %rax
 939      000000
 940 0182 4C89E7   		movq	%r12, %rdi
 941 0185 48894500 		movq	%rax, 0(%rbp)
 942 0189 488D0500 		leaq	16+_ZTVSt9basic_iosIcSt11char_traitsIcEE(%rip), %rax
 942      000000
 943 0190 48898590 		movq	%rax, 144(%rbp)
 943      000000
 944              	.LEHB12:
 945 0197 E8000000 		call	_ZNSt8ios_baseD2Ev@PLT
 945      00
 946              	.LEHE12:
 947 019c 4883C408 		addq	$8, %rsp
 948              		.cfi_remember_state
 949              		.cfi_def_cfa_offset 24
 950 01a0 4889EF   		movq	%rbp, %rdi
 951 01a3 5D       		popq	%rbp
 952              		.cfi_def_cfa_offset 16
 953 01a4 415C     		popq	%r12
 954              		.cfi_def_cfa_offset 8
 955 01a6 E9000000 		jmp	_ZdlPv@PLT
 955      00
 956              	.L52:
 957              		.cfi_restore_state
 958 01ab F30F1EFA 		endbr64
 959 01af 4989C4   		movq	%rax, %r12
 960              	.L51:
 961 01b2 4889EF   		movq	%rbp, %rdi
 962 01b5 E8000000 		call	_ZdlPv@PLT
 962      00
 963 01ba 4C89E7   		movq	%r12, %rdi
 964              	.LEHB13:
 965 01bd E8000000 		call	_Unwind_Resume@PLT
 965      00
 966              	.LEHE13:
 967              		.cfi_endproc
 968              	.LFE1351:
 969              		.section	.gcc_except_table
 970              	.LLSDA1351:
 971 005b FF       		.byte	0xff
 972 005c FF       		.byte	0xff
 973 005d 01       		.byte	0x1
 974 005e 0B       		.uleb128 .LLSDACSE1351-.LLSDACSB1351
 975              	.LLSDACSB1351:
 976 005f B701     		.uleb128 .LEHB12-.LFB1351
 977 0061 05       		.uleb128 .LEHE12-.LEHB12
 978 0062 CB01     		.uleb128 .L52-.LFB1351
 979 0064 00       		.uleb128 0
 980 0065 DD01     		.uleb128 .LEHB13-.LFB1351
 981 0067 05       		.uleb128 .LEHE13-.LEHB13
 982 0068 00       		.uleb128 0
 983 0069 00       		.uleb128 0
 984              	.LLSDACSE1351:
 985              		.section	.text._ZN8UnitTest15MemoryOutStreamD0Ev,"axG",@progbits,_ZN8UnitTest15MemoryOutStreamD0Ev
 987              		.section	.text._ZN17ScopedCurrentTestD2Ev,"axG",@progbits,_ZN17ScopedCurrentTestD5Ev,comdat
 988              		.align 2
 989              		.p2align 4
 990              		.weak	_ZN17ScopedCurrentTestD2Ev
 992              	_ZN17ScopedCurrentTestD2Ev:
 993              	.LFB1225:
 994              		.cfi_startproc
 995 0000 F30F1EFA 		endbr64
 996 0004 53       		pushq	%rbx
 997              		.cfi_def_cfa_offset 16
 998              		.cfi_offset 3, -16
 999 0005 4889FB   		movq	%rdi, %rbx
 1000 0008 E8000000 		call	_ZN8UnitTest11CurrentTest7ResultsEv@PLT
 1000      00
 1001 000d 488B13   		movq	(%rbx), %rdx
 1002 0010 488910   		movq	%rdx, (%rax)
 1003 0013 E8000000 		call	_ZN8UnitTest11CurrentTest7DetailsEv@PLT
 1003      00
 1004 0018 488B5308 		movq	8(%rbx), %rdx
 1005 001c 488910   		movq	%rdx, (%rax)
 1006 001f 5B       		popq	%rbx
 1007              		.cfi_def_cfa_offset 8
 1008 0020 C3       		ret
 1009              		.cfi_endproc
 1010              	.LFE1225:
 1012              		.weak	_ZN17ScopedCurrentTestD1Ev
 1013              		.set	_ZN17ScopedCurrentTestD1Ev,_ZN17ScopedCurrentTestD2Ev
 1014              		.section	.rodata.str1.1,"aMS",@progbits,1
 1015              	.LC5:
 1016 0000 00       		.string	""
 1017              	.LC6:
 1018 0001 696D6520 		.string	"ime constraint"
 1018      636F6E73 
 1018      74726169 
 1018      6E7400
 1019              		.section	.rodata.str1.8,"aMS",@progbits,1
 1020              		.align 8
 1021              	.LC7:
 1022 0000 73747273 		.string	"strstr(reporter.lastFailedMessage, \"ime constraint\")"
 1022      74722872 
 1022      65706F72 
 1022      7465722E 
 1022      6C617374 
 1023              		.section	.rodata.str1.1
 1024              	.LC8:
 1025 0010 756E6465 		.string	"under 10ms"
 1025      72203130 
 1025      6D7300
 1026              		.section	.rodata.str1.8
 1027 0035 000000   		.align 8
 1028              	.LC9:
 1029 0038 73747273 		.string	"strstr(reporter.lastFailedMessage, \"under 10ms\")"
 1029      74722872 
 1029      65706F72 
 1029      7465722E 
 1029      6C617374 
 1030 0069 00000000 		.align 8
 1030      000000
 1031              	.LC10:
 1032 0070 556E6861 		.string	"Unhandled exception in CHECK(strstr(reporter.lastFailedMessage, \"ime constraint\"))"
 1032      6E646C65 
 1032      64206578 
 1032      63657074 
 1032      696F6E20 
 1033 00c3 00000000 		.align 8
 1033      00
 1034              	.LC11:
 1035 00c8 556E6861 		.string	"Unhandled exception in CHECK(strstr(reporter.lastFailedMessage, \"under 10ms\"))"
 1035      6E646C65 
 1035      64206578 
 1035      63657074 
 1035      696F6E20 
 1036              		.section	.text.unlikely
 1037              		.align 2
 1038              	.LCOLDB12:
 1039              		.text
 1040              	.LHOTB12:
 1041              		.align 2
 1042 0178 0F1F8400 		.p2align 4
 1042      00000000 
 1044              	_ZNK12_GLOBAL__N_151TestTimeConstraintFailureIncludesTimeoutInformation7RunImplEv:
 1045              	.LFB1242:
 1046              		.cfi_startproc
 1047              		.cfi_personality 0x9b,DW.ref.__gxx_personality_v0
 1048              		.cfi_lsda 0x1b,.LLSDA1242
 1049 0180 F30F1EFA 		endbr64
 1050 0184 4157     		pushq	%r15
 1051              		.cfi_def_cfa_offset 16
 1052              		.cfi_offset 15, -16
 1053 0186 4156     		pushq	%r14
 1054              		.cfi_def_cfa_offset 24
 1055              		.cfi_offset 14, -24
 1056 0188 4155     		pushq	%r13
 1057              		.cfi_def_cfa_offset 32
 1058              		.cfi_offset 13, -32
 1059 018a 4154     		pushq	%r12
 1060              		.cfi_def_cfa_offset 40
 1061              		.cfi_offset 12, -40
 1062 018c 55       		pushq	%rbp
 1063              		.cfi_def_cfa_offset 48
 1064              		.cfi_offset 6, -48
 1065 018d 53       		pushq	%rbx
 1066              		.cfi_def_cfa_offset 56
 1067              		.cfi_offset 3, -56
 1068 018e 488D1D00 		leaq	16+_ZTV17RecordingReporter(%rip), %rbx
 1068      000000
 1069 0195 4881ECB8 		subq	$2232, %rsp
 1069      080000
 1070              		.cfi_def_cfa_offset 2288
 1071 019c 64488B04 		movq	%fs:40, %rax
 1071      25280000 
 1071      00
 1072 01a5 48898424 		movq	%rax, 2216(%rsp)
 1072      A8080000 
 1073 01ad 31C0     		xorl	%eax, %eax
 1074 01af 4C8D6424 		leaq	112(%rsp), %r12
 1074      70
 1075 01b4 488D6C24 		leaq	16(%rsp), %rbp
 1075      10
 1076 01b9 48895C24 		movq	%rbx, 112(%rsp)
 1076      70
 1077 01be 4C89E6   		movq	%r12, %rsi
 1078 01c1 4889EF   		movq	%rbp, %rdi
 1079 01c4 C7442478 		movl	$0, 120(%rsp)
 1079      00000000 
 1080 01cc C784247C 		movl	$0, 636(%rsp)
 1080      02000000 
 1080      000000
 1081 01d7 C7842480 		movl	$0, 896(%rsp)
 1081      03000000 
 1081      000000
 1082 01e2 C7842484 		movl	$0, 1668(%rsp)
 1082      06000000 
 1082      000000
 1083 01ed 48C78424 		movq	$0, 2184(%rsp)
 1083      88080000 
 1083      00000000 
 1084 01f9 48C78424 		movq	$0, 2192(%rsp)
 1084      90080000 
 1084      00000000 
 1085 0205 C7842498 		movl	$0x00000000, 2200(%rsp)
 1085      08000000 
 1085      000000
 1086 0210 C644247C 		movb	$0, 124(%rsp)
 1086      00
 1087 0215 C684247C 		movb	$0, 380(%rsp)
 1087      01000000 
 1088 021d C6842480 		movb	$0, 640(%rsp)
 1088      02000000 
 1089 0225 C6842484 		movb	$0, 900(%rsp)
 1089      03000000 
 1090 022d C6842484 		movb	$0, 1156(%rsp)
 1090      04000000 
 1091 0235 C6842484 		movb	$0, 1412(%rsp)
 1091      05000000 
 1092 023d C6842488 		movb	$0, 1672(%rsp)
 1092      06000000 
 1093 0245 C6842488 		movb	$0, 1928(%rsp)
 1093      07000000 
 1094              	.LEHB14:
 1095 024d E8000000 		call	_ZN8UnitTest11TestResultsC1EPNS_12TestReporterE@PLT
 1095      00
 1096 0252 E8000000 		call	_ZN8UnitTest11CurrentTest7ResultsEv@PLT
 1096      00
 1097 0257 4C8B30   		movq	(%rax), %r14
 1098 025a 4C893424 		movq	%r14, (%rsp)
 1099 025e E8000000 		call	_ZN8UnitTest11CurrentTest7DetailsEv@PLT
 1099      00
 1100 0263 4C8B28   		movq	(%rax), %r13
 1101 0266 4C896C24 		movq	%r13, 8(%rsp)
 1101      08
 1102 026b E8000000 		call	_ZN8UnitTest11CurrentTest7ResultsEv@PLT
 1102      00
 1103              	.LEHE14:
 1104 0270 488928   		movq	%rbp, (%rax)
 1105 0273 488D3500 		leaq	.LC5(%rip), %rsi
 1105      000000
 1106 027a 488D6C24 		leaq	80(%rsp), %rbp
 1106      50
 1107 027f 4531C0   		xorl	%r8d, %r8d
 1108 0282 4889F1   		movq	%rsi, %rcx
 1109 0285 4889F2   		movq	%rsi, %rdx
 1110 0288 4889EF   		movq	%rbp, %rdi
 1111              	.LEHB15:
 1112 028b E8000000 		call	_ZN8UnitTest11TestDetailsC1EPKcS2_S2_i@PLT
 1112      00
 1113 0290 4C8D7C24 		leaq	48(%rsp), %r15
 1113      30
 1114 0295 4889EA   		movq	%rbp, %rdx
 1115 0298 BE0A0000 		movl	$10, %esi
 1115      00
 1116 029d 4C89FF   		movq	%r15, %rdi
 1117 02a0 E8000000 		call	_ZN8UnitTest14TimeConstraintC1EiRKNS_11TestDetailsE@PLT
 1117      00
 1118              	.LEHE15:
 1119 02a5 BF140000 		movl	$20, %edi
 1119      00
 1120              	.LEHB16:
 1121 02aa E8000000 		call	_ZN8UnitTest11TimeHelpers7SleepMsEi@PLT
 1121      00
 1122              	.LEHE16:
 1123 02af 4C89FF   		movq	%r15, %rdi
 1124              	.LEHB17:
 1125 02b2 E8000000 		call	_ZN8UnitTest14TimeConstraintD1Ev@PLT
 1125      00
 1126              	.LEHE17:
 1127              	.LEHB18:
 1128 02b7 E8000000 		call	_ZN8UnitTest11CurrentTest7ResultsEv@PLT
 1128      00
 1129 02bc 4C8930   		movq	%r14, (%rax)
 1130 02bf E8000000 		call	_ZN8UnitTest11CurrentTest7DetailsEv@PLT
 1130      00
 1131              	.LEHE18:
 1132 02c4 4C8928   		movq	%r13, (%rax)
 1133 02c7 4C8DAC24 		leaq	1412(%rsp), %r13
 1133      84050000 
 1134 02cf 488D3500 		leaq	.LC6(%rip), %rsi
 1134      000000
 1135 02d6 4C89EF   		movq	%r13, %rdi
 1136 02d9 E8000000 		call	strstr@PLT
 1136      00
 1137 02de 4885C0   		testq	%rax, %rax
 1138 02e1 0F848900 		je	.L82
 1138      0000
 1139              	.L58:
 1140 02e7 488D3500 		leaq	.LC8(%rip), %rsi
 1140      000000
 1141 02ee 4C89EF   		movq	%r13, %rdi
 1142 02f1 E8000000 		call	strstr@PLT
 1142      00
 1143 02f6 4885C0   		testq	%rax, %rax
 1144 02f9 743D     		je	.L83
 1145              	.L60:
 1146 02fb 4C89E7   		movq	%r12, %rdi
 1147 02fe 48895C24 		movq	%rbx, 112(%rsp)
 1147      70
 1148              	.LEHB19:
 1149 0303 E8000000 		call	_ZN8UnitTest12TestReporterD2Ev@PLT
 1149      00
 1150              	.LEHE19:
 1151 0308 488B8424 		movq	2216(%rsp), %rax
 1151      A8080000 
 1152 0310 64482B04 		subq	%fs:40, %rax
 1152      25280000 
 1152      00
 1153 0319 0F858500 		jne	.L84
 1153      0000
 1154 031f 4881C4B8 		addq	$2232, %rsp
 1154      080000
 1155              		.cfi_remember_state
 1156              		.cfi_def_cfa_offset 56
 1157 0326 5B       		popq	%rbx
 1158              		.cfi_def_cfa_offset 48
 1159 0327 5D       		popq	%rbp
 1160              		.cfi_def_cfa_offset 40
 1161 0328 415C     		popq	%r12
 1162              		.cfi_def_cfa_offset 32
 1163 032a 415D     		popq	%r13
 1164              		.cfi_def_cfa_offset 24
 1165 032c 415E     		popq	%r14
 1166              		.cfi_def_cfa_offset 16
 1167 032e 415F     		popq	%r15
 1168              		.cfi_def_cfa_offset 8
 1169 0330 C3       		ret
 1170              		.p2align 4,,10
 1171 0331 0F1F8000 		.p2align 3
 1171      000000
 1172              	.L83:
 1173              		.cfi_restore_state
 1174              	.LEHB20:
 1175 0338 E8000000 		call	_ZN8UnitTest11CurrentTest7ResultsEv@PLT
 1175      00
 1176 033d 4C8B28   		movq	(%rax), %r13
 1177 0340 E8000000 		call	_ZN8UnitTest11CurrentTest7DetailsEv@PLT
 1177      00
 1178 0345 488B30   		movq	(%rax), %rsi
 1179 0348 BA420000 		movl	$66, %edx
 1179      00
 1180 034d 4889EF   		movq	%rbp, %rdi
 1181 0350 E8000000 		call	_ZN8UnitTest11TestDetailsC1ERKS0_i@PLT
 1181      00
 1182 0355 488D1500 		leaq	.LC9(%rip), %rdx
 1182      000000
 1183 035c 4889EE   		movq	%rbp, %rsi
 1184 035f 4C89EF   		movq	%r13, %rdi
 1185 0362 E8000000 		call	_ZN8UnitTest11TestResults13OnTestFailureERKNS_11TestDetailsEPKc@PLT
 1185      00
 1186              	.LEHE20:
 1187 0367 EB92     		jmp	.L60
 1188 0369 0F1F8000 		.p2align 4,,10
 1188      000000
 1189              		.p2align 3
 1190              	.L82:
 1191              	.LEHB21:
 1192 0370 E8000000 		call	_ZN8UnitTest11CurrentTest7ResultsEv@PLT
 1192      00
 1193 0375 4C8B30   		movq	(%rax), %r14
 1194 0378 E8000000 		call	_ZN8UnitTest11CurrentTest7DetailsEv@PLT
 1194      00
 1195 037d 488B30   		movq	(%rax), %rsi
 1196 0380 BA410000 		movl	$65, %edx
 1196      00
 1197 0385 4889EF   		movq	%rbp, %rdi
 1198 0388 E8000000 		call	_ZN8UnitTest11TestDetailsC1ERKS0_i@PLT
 1198      00
 1199 038d 488D1500 		leaq	.LC7(%rip), %rdx
 1199      000000
 1200 0394 4889EE   		movq	%rbp, %rsi
 1201 0397 4C89F7   		movq	%r14, %rdi
 1202 039a E8000000 		call	_ZN8UnitTest11TestResults13OnTestFailureERKNS_11TestDetailsEPKc@PLT
 1202      00
 1203              	.LEHE21:
 1204 039f E943FFFF 		jmp	.L58
 1204      FF
 1205              	.L84:
 1206 03a4 E8000000 		call	__stack_chk_fail@PLT
 1206      00
 1207              	.L74:
 1208 03a9 F30F1EFA 		endbr64
 1209 03ad 4889C7   		movq	%rax, %rdi
 1210 03b0 E9000000 		jmp	.L64
 1210      00
 1211              	.L73:
 1212 03b5 F30F1EFA 		endbr64
 1213 03b9 4889C5   		movq	%rax, %rbp
 1214 03bc E9000000 		jmp	.L61
 1214      00
 1215              	.L78:
 1216 03c1 F30F1EFA 		endbr64
 1217 03c5 E9000000 		jmp	.L79
 1217      00
 1218              	.L72:
 1219 03ca F30F1EFA 		endbr64
 1220 03ce 4889C5   		movq	%rax, %rbp
 1221 03d1 E9000000 		jmp	.L62
 1221      00
 1222              	.L76:
 1223 03d6 F30F1EFA 		endbr64
 1224 03da 4889C7   		movq	%rax, %rdi
 1225 03dd E9000000 		jmp	.L67
 1225      00
 1226              		.section	.gcc_except_table
 1227 006a 0000     		.align 4
 1228              	.LLSDA1242:
 1229 006c FF       		.byte	0xff
 1230 006d 9B       		.byte	0x9b
 1231 006e 39       		.uleb128 .LLSDATT1242-.LLSDATTD1242
 1232              	.LLSDATTD1242:
 1233 006f 01       		.byte	0x1
 1234 0070 2F       		.uleb128 .LLSDACSE1242-.LLSDACSB1242
 1235              	.LLSDACSB1242:
 1236 0071 CD01     		.uleb128 .LEHB14-.LFB1242
 1237 0073 23       		.uleb128 .LEHE14-.LEHB14
 1238 0074 C104     		.uleb128 .L78-.LFB1242
 1239 0076 00       		.uleb128 0
 1240 0077 8B02     		.uleb128 .LEHB15-.LFB1242
 1241 0079 1A       		.uleb128 .LEHE15-.LEHB15
 1242 007a CA04     		.uleb128 .L72-.LFB1242
 1243 007c 00       		.uleb128 0
 1244 007d AA02     		.uleb128 .LEHB16-.LFB1242
 1245 007f 05       		.uleb128 .LEHE16-.LEHB16
 1246 0080 B504     		.uleb128 .L73-.LFB1242
 1247 0082 00       		.uleb128 0
 1248 0083 B202     		.uleb128 .LEHB17-.LFB1242
 1249 0085 05       		.uleb128 .LEHE17-.LEHB17
 1250 0086 CA04     		.uleb128 .L72-.LFB1242
 1251 0088 00       		.uleb128 0
 1252 0089 B702     		.uleb128 .LEHB18-.LFB1242
 1253 008b 0D       		.uleb128 .LEHE18-.LEHB18
 1254 008c C104     		.uleb128 .L78-.LFB1242
 1255 008e 00       		.uleb128 0
 1256 008f 8303     		.uleb128 .LEHB19-.LFB1242
 1257 0091 05       		.uleb128 .LEHE19-.LEHB19
 1258 0092 00       		.uleb128 0
 1259 0093 00       		.uleb128 0
 1260 0094 B803     		.uleb128 .LEHB20-.LFB1242
 1261 0096 2F       		.uleb128 .LEHE20-.LEHB20
 1262 0097 D604     		.uleb128 .L76-.LFB1242
 1263 0099 01       		.uleb128 0x1
 1264 009a F003     		.uleb128 .LEHB21-.LFB1242
 1265 009c 2F       		.uleb128 .LEHE21-.LEHB21
 1266 009d A904     		.uleb128 .L74-.LFB1242
 1267 009f 01       		.uleb128 0x1
 1268              	.LLSDACSE1242:
 1269 00a0 01       		.byte	0x1
 1270 00a1 00       		.byte	0
 1271 00a2 0000     		.align 4
 1272 00a4 00000000 		.long	0
 1273              	
 1274              	.LLSDATT1242:
 1275              		.text
 1276              		.cfi_endproc
 1277              		.section	.text.unlikely
 1278              		.cfi_startproc
 1279              		.cfi_personality 0x9b,DW.ref.__gxx_personality_v0
 1280              		.cfi_lsda 0x1b,.LLSDAC1242
 1282              	_ZNK12_GLOBAL__N_151TestTimeConstraintFailureIncludesTimeoutInformation7RunImplEv.cold:
 1283              	.LFSB1242:
 1284              	.L64:
 1285              		.cfi_def_cfa_offset 2288
 1286              		.cfi_offset 3, -56
 1287              		.cfi_offset 6, -48
 1288              		.cfi_offset 12, -40
 1289              		.cfi_offset 13, -32
 1290              		.cfi_offset 14, -24
 1291              		.cfi_offset 15, -16
 1292 0040 E8000000 		call	__cxa_begin_catch@PLT
 1292      00
 1293              	.LEHB22:
 1294 0045 E8000000 		call	_ZN8UnitTest11CurrentTest7ResultsEv@PLT
 1294      00
 1295 004a 4C8B30   		movq	(%rax), %r14
 1296 004d E8000000 		call	_ZN8UnitTest11CurrentTest7DetailsEv@PLT
 1296      00
 1297 0052 488B30   		movq	(%rax), %rsi
 1298 0055 BA410000 		movl	$65, %edx
 1298      00
 1299 005a 4889EF   		movq	%rbp, %rdi
 1300 005d E8000000 		call	_ZN8UnitTest11TestDetailsC1ERKS0_i@PLT
 1300      00
 1301 0062 488D1500 		leaq	.LC10(%rip), %rdx
 1301      000000
 1302 0069 4889EE   		movq	%rbp, %rsi
 1303 006c 4C89F7   		movq	%r14, %rdi
 1304 006f E8000000 		call	_ZN8UnitTest11TestResults13OnTestFailureERKNS_11TestDetailsEPKc@PLT
 1304      00
 1305              	.LEHE22:
 1306              	.LEHB23:
 1307 0074 E8000000 		call	__cxa_end_catch@PLT
 1307      00
 1308              	.LEHE23:
 1309 0079 E9000000 		jmp	.L58
 1309      00
 1310              	.L61:
 1311 007e 4C89FF   		movq	%r15, %rdi
 1312 0081 E8000000 		call	_ZN8UnitTest14TimeConstraintD1Ev@PLT
 1312      00
 1313              	.L62:
 1314 0086 4889E7   		movq	%rsp, %rdi
 1315 0089 E8000000 		call	_ZN17ScopedCurrentTestD1Ev
 1315      00
 1316              	.L63:
 1317 008e 4C89E7   		movq	%r12, %rdi
 1318 0091 48895C24 		movq	%rbx, 112(%rsp)
 1318      70
 1319 0096 E8000000 		call	_ZN8UnitTest12TestReporterD2Ev@PLT
 1319      00
 1320 009b 4889EF   		movq	%rbp, %rdi
 1321              	.LEHB24:
 1322 009e E8000000 		call	_Unwind_Resume@PLT
 1322      00
 1323              	.LEHE24:
 1324              	.L71:
 1325 00a3 F30F1EFA 		endbr64
 1326              	.L79:
 1327 00a7 4889C5   		movq	%rax, %rbp
 1328 00aa EBE2     		jmp	.L63
 1329              	.L67:
 1330 00ac E8000000 		call	__cxa_begin_catch@PLT
 1330      00
 1331              	.LEHB25:
 1332 00b1 E8000000 		call	_ZN8UnitTest11CurrentTest7ResultsEv@PLT
 1332      00
 1333 00b6 4C8B28   		movq	(%rax), %r13
 1334 00b9 E8000000 		call	_ZN8UnitTest11CurrentTest7DetailsEv@PLT
 1334      00
 1335 00be 488B30   		movq	(%rax), %rsi
 1336 00c1 BA420000 		movl	$66, %edx
 1336      00
 1337 00c6 4889EF   		movq	%rbp, %rdi
 1338 00c9 E8000000 		call	_ZN8UnitTest11TestDetailsC1ERKS0_i@PLT
 1338      00
 1339 00ce 488D1500 		leaq	.LC11(%rip), %rdx
 1339      000000
 1340 00d5 4889EE   		movq	%rbp, %rsi
 1341 00d8 4C89EF   		movq	%r13, %rdi
 1342 00db E8000000 		call	_ZN8UnitTest11TestResults13OnTestFailureERKNS_11TestDetailsEPKc@PLT
 1342      00
 1343              	.LEHE25:
 1344              	.LEHB26:
 1345 00e0 E8000000 		call	__cxa_end_catch@PLT
 1345      00
 1346              	.LEHE26:
 1347 00e5 E9000000 		jmp	.L60
 1347      00
 1348              	.L75:
 1349 00ea F30F1EFA 		endbr64
 1350 00ee 4889C5   		movq	%rax, %rbp
 1351 00f1 E8000000 		call	__cxa_end_catch@PLT
 1351      00
 1352 00f6 EB96     		jmp	.L63
 1353              	.L77:
 1354 00f8 F30F1EFA 		endbr64
 1355 00fc 4889C5   		movq	%rax, %rbp
 1356 00ff E8000000 		call	__cxa_end_catch@PLT
 1356      00
 1357 0104 EB88     		jmp	.L63
 1358              		.cfi_endproc
 1359              	.LFE1242:
 1360              		.section	.gcc_except_table
 1361              		.align 4
 1362              	.LLSDAC1242:
 1363 00a8 FF       		.byte	0xff
 1364 00a9 9B       		.byte	0x9b
 1365 00aa 21       		.uleb128 .LLSDATTC1242-.LLSDATTDC1242
 1366              	.LLSDATTDC1242:
 1367 00ab 01       		.byte	0x1
 1368 00ac 17       		.uleb128 .LLSDACSEC1242-.LLSDACSBC1242
 1369              	.LLSDACSBC1242:
 1370 00ad 05       		.uleb128 .LEHB22-.LCOLDB12
 1371 00ae 2F       		.uleb128 .LEHE22-.LEHB22
 1372 00af AA01     		.uleb128 .L75-.LCOLDB12
 1373 00b1 00       		.uleb128 0
 1374 00b2 34       		.uleb128 .LEHB23-.LCOLDB12
 1375 00b3 05       		.uleb128 .LEHE23-.LEHB23
 1376 00b4 63       		.uleb128 .L71-.LCOLDB12
 1377 00b5 00       		.uleb128 0
 1378 00b6 5E       		.uleb128 .LEHB24-.LCOLDB12
 1379 00b7 05       		.uleb128 .LEHE24-.LEHB24
 1380 00b8 00       		.uleb128 0
 1381 00b9 00       		.uleb128 0
 1382 00ba 71       		.uleb128 .LEHB25-.LCOLDB12
 1383 00bb 2F       		.uleb128 .LEHE25-.LEHB25
 1384 00bc B801     		.uleb128 .L77-.LCOLDB12
 1385 00be 00       		.uleb128 0
 1386 00bf A001     		.uleb128 .LEHB26-.LCOLDB12
 1387 00c1 05       		.uleb128 .LEHE26-.LEHB26
 1388 00c2 63       		.uleb128 .L71-.LCOLDB12
 1389 00c3 00       		.uleb128 0
 1390              	.LLSDACSEC1242:
 1391 00c4 01       		.byte	0x1
 1392 00c5 00       		.byte	0
 1393 00c6 0000     		.align 4
 1394 00c8 00000000 		.long	0
 1395              	
 1396              	.LLSDATTC1242:
 1397              		.section	.text.unlikely
 1398              		.text
 1400              		.section	.text.unlikely
 1402              	.LCOLDE12:
 1403              		.text
 1404              	.LHOTE12:
 1405              		.section	.rodata._ZN8UnitTest10CheckEqualIiiEEvRNS_11TestResultsERKT_RKT0_RKNS_11TestDetailsE.str1
 1406              	.LC13:
 1407 0000 45787065 		.string	"Expected "
 1407      63746564 
 1407      2000
 1408              	.LC14:
 1409 000a 20627574 		.string	" but was "
 1409      20776173 
 1409      2000
 1410              		.section	.text._ZN8UnitTest10CheckEqualIiiEEvRNS_11TestResultsERKT_RKT0_RKNS_11TestDetailsE,"axG",
 1411              		.p2align 4
 1412              		.weak	_ZN8UnitTest10CheckEqualIiiEEvRNS_11TestResultsERKT_RKT0_RKNS_11TestDetailsE
 1414              	_ZN8UnitTest10CheckEqualIiiEEvRNS_11TestResultsERKT_RKT0_RKNS_11TestDetailsE:
 1415              	.LFB1270:
 1416              		.cfi_startproc
 1417              		.cfi_personality 0x9b,DW.ref.__gxx_personality_v0
 1418              		.cfi_lsda 0x1b,.LLSDA1270
 1419 0000 F30F1EFA 		endbr64
 1420 0004 4157     		pushq	%r15
 1421              		.cfi_def_cfa_offset 16
 1422              		.cfi_offset 15, -16
 1423 0006 4156     		pushq	%r14
 1424              		.cfi_def_cfa_offset 24
 1425              		.cfi_offset 14, -24
 1426 0008 4155     		pushq	%r13
 1427              		.cfi_def_cfa_offset 32
 1428              		.cfi_offset 13, -32
 1429 000a 4154     		pushq	%r12
 1430              		.cfi_def_cfa_offset 40
 1431              		.cfi_offset 12, -40
 1432 000c 55       		pushq	%rbp
 1433              		.cfi_def_cfa_offset 48
 1434              		.cfi_offset 6, -48
 1435 000d 53       		pushq	%rbx
 1436              		.cfi_def_cfa_offset 56
 1437              		.cfi_offset 3, -56
 1438 000e 4881ECD8 		subq	$472, %rsp
 1438      010000
 1439              		.cfi_def_cfa_offset 528
 1440 0015 F30F7E0D 		movq	.LC15(%rip), %xmm1
 1440      00000000 
 1441 001d 48897C24 		movq	%rdi, 32(%rsp)
 1441      20
 1442 0022 0F160D00 		movhps	.LC16(%rip), %xmm1
 1442      000000
 1443 0029 64488B04 		movq	%fs:40, %rax
 1443      25280000 
 1443      00
 1444 0032 48898424 		movq	%rax, 456(%rsp)
 1444      C8010000 
 1445 003a 31C0     		xorl	%eax, %eax
 1446 003c 8B02     		movl	(%rdx), %eax
 1447 003e 0F290C24 		movaps	%xmm1, (%rsp)
 1448 0042 3906     		cmpl	%eax, (%rsi)
 1449 0044 752A     		jne	.L102
 1450              	.L85:
 1451 0046 488B8424 		movq	456(%rsp), %rax
 1451      C8010000 
 1452 004e 64482B04 		subq	%fs:40, %rax
 1452      25280000 
 1452      00
 1453 0057 0F854A02 		jne	.L103
 1453      0000
 1454 005d 4881C4D8 		addq	$472, %rsp
 1454      010000
 1455              		.cfi_remember_state
 1456              		.cfi_def_cfa_offset 56
 1457 0064 5B       		popq	%rbx
 1458              		.cfi_def_cfa_offset 48
 1459 0065 5D       		popq	%rbp
 1460              		.cfi_def_cfa_offset 40
 1461 0066 415C     		popq	%r12
 1462              		.cfi_def_cfa_offset 32
 1463 0068 415D     		popq	%r13
 1464              		.cfi_def_cfa_offset 24
 1465 006a 415E     		popq	%r14
 1466              		.cfi_def_cfa_offset 16
 1467 006c 415F     		popq	%r15
 1468              		.cfi_def_cfa_offset 8
 1469 006e C3       		ret
 1470 006f 90       		.p2align 4,,10
 1471              		.p2align 3
 1472              	.L102:
 1473              		.cfi_restore_state
 1474 0070 4C8DB424 		leaq	192(%rsp), %r14
 1474      C0000000 
 1475 0078 4889F5   		movq	%rsi, %rbp
 1476 007b 4889D3   		movq	%rdx, %rbx
 1477 007e 4989CC   		movq	%rcx, %r12
 1478 0081 4C89F7   		movq	%r14, %rdi
 1479 0084 E8000000 		call	_ZNSt8ios_baseC2Ev@PLT
 1479      00
 1480 0089 31C0     		xorl	%eax, %eax
 1481 008b 660FEFC0 		pxor	%xmm0, %xmm0
 1482 008f 31F6     		xorl	%esi, %esi
 1483 0091 66898424 		movw	%ax, 416(%rsp)
 1483      A0010000 
 1484 0099 488D0500 		leaq	24+_ZTCN8UnitTest15MemoryOutStreamE0_So(%rip), %rax
 1484      000000
 1485 00a0 4C89F7   		movq	%r14, %rdi
 1486 00a3 48894424 		movq	%rax, 48(%rsp)
 1486      30
 1487 00a8 4883C028 		addq	$40, %rax
 1488 00ac 48C78424 		movq	$0, 408(%rsp)
 1488      98010000 
 1488      00000000 
 1489 00b8 48898424 		movq	%rax, 192(%rsp)
 1489      C0000000 
 1490 00c0 0F118424 		movups	%xmm0, 424(%rsp)
 1490      A8010000 
 1491 00c8 0F118424 		movups	%xmm0, 440(%rsp)
 1491      B8010000 
 1492              	.LEHB27:
 1493 00d0 E8000000 		call	_ZNSt9basic_iosIcSt11char_traitsIcEE4initEPSt15basic_streambufIcS1_E@PLT
 1493      00
 1494              	.LEHE27:
 1495 00d5 660F6F0C 		movdqa	(%rsp), %xmm1
 1495      24
 1496 00da 4C8D7C24 		leaq	112(%rsp), %r15
 1496      70
 1497 00df 660FEFC0 		pxor	%xmm0, %xmm0
 1498 00e3 488D0500 		leaq	64+_ZTCN8UnitTest15MemoryOutStreamE0_NSt7__cxx1119basic_ostringstreamIcSt11char_traitsIcESaIc
 1498      000000
 1499 00ea 4C89FF   		movq	%r15, %rdi
 1500 00ed 0F294424 		movaps	%xmm0, 64(%rsp)
 1500      40
 1501 00f2 4C8D6C24 		leaq	48(%rsp), %r13
 1501      30
 1502 00f7 48898424 		movq	%rax, 192(%rsp)
 1502      C0000000 
 1503 00ff 0F294C24 		movaps	%xmm1, 48(%rsp)
 1503      30
 1504 0104 0F294424 		movaps	%xmm0, 80(%rsp)
 1504      50
 1505 0109 0F294424 		movaps	%xmm0, 96(%rsp)
 1505      60
 1506 010e E8000000 		call	_ZNSt6localeC1Ev@PLT
 1506      00
 1507 0113 488D0500 		leaq	16+_ZTVNSt7__cxx1115basic_stringbufIcSt11char_traitsIcESaIcEEE(%rip), %rax
 1507      000000
 1508 011a 48C78424 		movq	$0, 136(%rsp)
 1508      88000000 
 1508      00000000 
 1509 0126 488D7424 		leaq	56(%rsp), %rsi
 1509      38
 1510 012b 48894424 		movq	%rax, 56(%rsp)
 1510      38
 1511 0130 488D8424 		leaq	144(%rsp), %rax
 1511      90000000 
 1512 0138 48890424 		movq	%rax, (%rsp)
 1513 013c 48898424 		movq	%rax, 128(%rsp)
 1513      80000000 
 1514 0144 488B4424 		movq	48(%rsp), %rax
 1514      30
 1515 0149 C6842490 		movb	$0, 144(%rsp)
 1515      00000000 
 1516 0151 488B78E8 		movq	-24(%rax), %rdi
 1517 0155 C7442478 		movl	$16, 120(%rsp)
 1517      10000000 
 1518 015d 4C01EF   		addq	%r13, %rdi
 1519              	.LEHB28:
 1520 0160 E8000000 		call	_ZNSt9basic_iosIcSt11char_traitsIcEE4initEPSt15basic_streambufIcS1_E@PLT
 1520      00
 1521              	.LEHE28:
 1522 0165 488D0500 		leaq	24+_ZTVN8UnitTest15MemoryOutStreamE(%rip), %rax
 1522      000000
 1523 016c BA090000 		movl	$9, %edx
 1523      00
 1524 0171 4C89EF   		movq	%r13, %rdi
 1525 0174 48C78424 		movq	$0, 168(%rsp)
 1525      A8000000 
 1525      00000000 
 1526 0180 48894424 		movq	%rax, 48(%rsp)
 1526      30
 1527 0185 4883C028 		addq	$40, %rax
 1528 0189 488D3500 		leaq	.LC13(%rip), %rsi
 1528      000000
 1529 0190 48898424 		movq	%rax, 192(%rsp)
 1529      C0000000 
 1530 0198 488D8424 		leaq	176(%rsp), %rax
 1530      B0000000 
 1531 01a0 48894424 		movq	%rax, 40(%rsp)
 1531      28
 1532 01a5 48898424 		movq	%rax, 160(%rsp)
 1532      A0000000 
 1533 01ad C68424B0 		movb	$0, 176(%rsp)
 1533      00000000 
 1534              	.LEHB29:
 1535 01b5 E8000000 		call	_ZSt16__ostream_insertIcSt11char_traitsIcEERSt13basic_ostreamIT_T0_ES6_PKS3_l@PLT
 1535      00
 1536 01ba 8B7500   		movl	0(%rbp), %esi
 1537 01bd 4C89EF   		movq	%r13, %rdi
 1538 01c0 E8000000 		call	_ZNSolsEi@PLT
 1538      00
 1539 01c5 BA090000 		movl	$9, %edx
 1539      00
 1540 01ca 488D3500 		leaq	.LC14(%rip), %rsi
 1540      000000
 1541 01d1 4889C7   		movq	%rax, %rdi
 1542 01d4 4889C5   		movq	%rax, %rbp
 1543 01d7 E8000000 		call	_ZSt16__ostream_insertIcSt11char_traitsIcEERSt13basic_ostreamIT_T0_ES6_PKS3_l@PLT
 1543      00
 1544 01dc 8B33     		movl	(%rbx), %esi
 1545 01de 4889EF   		movq	%rbp, %rdi
 1546 01e1 E8000000 		call	_ZNSolsEi@PLT
 1546      00
 1547 01e6 4C89EF   		movq	%r13, %rdi
 1548 01e9 E8000000 		call	_ZNK8UnitTest15MemoryOutStream7GetTextEv@PLT
 1548      00
 1549 01ee F30F7E15 		movq	.LC15(%rip), %xmm2
 1549      00000000 
 1550 01f6 488B7C24 		movq	32(%rsp), %rdi
 1550      20
 1551 01fb 4889C2   		movq	%rax, %rdx
 1552 01fe 4C89E6   		movq	%r12, %rsi
 1553 0201 0F161500 		movhps	.LC17(%rip), %xmm2
 1553      000000
 1554 0208 0F295424 		movaps	%xmm2, 16(%rsp)
 1554      10
 1555 020d E8000000 		call	_ZN8UnitTest11TestResults13OnTestFailureERKNS_11TestDetailsEPKc@PLT
 1555      00
 1556              	.LEHE29:
 1557 0212 488D0500 		leaq	24+_ZTVN8UnitTest15MemoryOutStreamE(%rip), %rax
 1557      000000
 1558 0219 488BBC24 		movq	160(%rsp), %rdi
 1558      A0000000 
 1559 0221 48894424 		movq	%rax, 48(%rsp)
 1559      30
 1560 0226 4883C028 		addq	$40, %rax
 1561 022a 48898424 		movq	%rax, 192(%rsp)
 1561      C0000000 
 1562 0232 483B7C24 		cmpq	40(%rsp), %rdi
 1562      28
 1563 0237 7405     		je	.L92
 1564 0239 E8000000 		call	_ZdlPv@PLT
 1564      00
 1565              	.L92:
 1566 023e 660F6F5C 		movdqa	16(%rsp), %xmm3
 1566      2410
 1567 0244 488D0500 		leaq	64+_ZTCN8UnitTest15MemoryOutStreamE0_NSt7__cxx1119basic_ostringstreamIcSt11char_traitsIcESaIc
 1567      000000
 1568 024b 488BBC24 		movq	128(%rsp), %rdi
 1568      80000000 
 1569 0253 48898424 		movq	%rax, 192(%rsp)
 1569      C0000000 
 1570 025b 0F295C24 		movaps	%xmm3, 48(%rsp)
 1570      30
 1571 0260 483B3C24 		cmpq	(%rsp), %rdi
 1572 0264 7405     		je	.L93
 1573 0266 E8000000 		call	_ZdlPv@PLT
 1573      00
 1574              	.L93:
 1575 026b 488D0500 		leaq	16+_ZTVSt15basic_streambufIcSt11char_traitsIcEE(%rip), %rax
 1575      000000
 1576 0272 4C89FF   		movq	%r15, %rdi
 1577 0275 48894424 		movq	%rax, 56(%rsp)
 1577      38
 1578 027a E8000000 		call	_ZNSt6localeD1Ev@PLT
 1578      00
 1579 027f 488D0500 		leaq	24+_ZTCN8UnitTest15MemoryOutStreamE0_So(%rip), %rax
 1579      000000
 1580 0286 4C89F7   		movq	%r14, %rdi
 1581 0289 48894424 		movq	%rax, 48(%rsp)
 1581      30
 1582 028e 488D0500 		leaq	16+_ZTVSt9basic_iosIcSt11char_traitsIcEE(%rip), %rax
 1582      000000
 1583 0295 48898424 		movq	%rax, 192(%rsp)
 1583      C0000000 
 1584              	.LEHB30:
 1585 029d E8000000 		call	_ZNSt8ios_baseD2Ev@PLT
 1585      00
 1586              	.LEHE30:
 1587 02a2 E99FFDFF 		jmp	.L85
 1587      FF
 1588              	.L103:
 1589 02a7 E8000000 		call	__stack_chk_fail@PLT
 1589      00
 1590              	.L97:
 1591 02ac F30F1EFA 		endbr64
 1592 02b0 4889C3   		movq	%rax, %rbx
 1593 02b3 EB4C     		jmp	.L90
 1594              	.L98:
 1595 02b5 F30F1EFA 		endbr64
 1596 02b9 4889C3   		movq	%rax, %rbx
 1597 02bc EB09     		jmp	.L88
 1598              	.L96:
 1599 02be F30F1EFA 		endbr64
 1600 02c2 4889C5   		movq	%rax, %rbp
 1601 02c5 EB59     		jmp	.L94
 1602              	.L88:
 1603 02c7 488D0500 		leaq	16+_ZTVNSt7__cxx1115basic_stringbufIcSt11char_traitsIcESaIcEEE(%rip), %rax
 1603      000000
 1604 02ce 488BBC24 		movq	128(%rsp), %rdi
 1604      80000000 
 1605 02d6 48894424 		movq	%rax, 56(%rsp)
 1605      38
 1606 02db 483B3C24 		cmpq	(%rsp), %rdi
 1607 02df 754F     		jne	.L104
 1608              	.L89:
 1609 02e1 488D0500 		leaq	16+_ZTVSt15basic_streambufIcSt11char_traitsIcEE(%rip), %rax
 1609      000000
 1610 02e8 4C89FF   		movq	%r15, %rdi
 1611 02eb 48894424 		movq	%rax, 56(%rsp)
 1611      38
 1612 02f0 E8000000 		call	_ZNSt6localeD1Ev@PLT
 1612      00
 1613 02f5 488D0500 		leaq	24+_ZTCN8UnitTest15MemoryOutStreamE0_So(%rip), %rax
 1613      000000
 1614 02fc 48894424 		movq	%rax, 48(%rsp)
 1614      30
 1615              	.L90:
 1616 0301 488D0500 		leaq	16+_ZTVSt9basic_iosIcSt11char_traitsIcEE(%rip), %rax
 1616      000000
 1617 0308 4C89F7   		movq	%r14, %rdi
 1618 030b 48898424 		movq	%rax, 192(%rsp)
 1618      C0000000 
 1619 0313 E8000000 		call	_ZNSt8ios_baseD2Ev@PLT
 1619      00
 1620 0318 4889DF   		movq	%rbx, %rdi
 1621              	.LEHB31:
 1622 031b E8000000 		call	_Unwind_Resume@PLT
 1622      00
 1623              	.LEHE31:
 1624              	.L94:
 1625 0320 4C89EF   		movq	%r13, %rdi
 1626 0323 E8000000 		call	_ZN8UnitTest15MemoryOutStreamD1Ev
 1626      00
 1627 0328 4889EF   		movq	%rbp, %rdi
 1628              	.LEHB32:
 1629 032b E8000000 		call	_Unwind_Resume@PLT
 1629      00
 1630              	.LEHE32:
 1631              	.L104:
 1632 0330 E8000000 		call	_ZdlPv@PLT
 1632      00
 1633 0335 EBAA     		jmp	.L89
 1634              		.cfi_endproc
 1635              	.LFE1270:
 1636              		.section	.gcc_except_table
 1637              	.LLSDA1270:
 1638 00cc FF       		.byte	0xff
 1639 00cd FF       		.byte	0xff
 1640 00ce 01       		.byte	0x1
 1641 00cf 21       		.uleb128 .LLSDACSE1270-.LLSDACSB1270
 1642              	.LLSDACSB1270:
 1643 00d0 D001     		.uleb128 .LEHB27-.LFB1270
 1644 00d2 05       		.uleb128 .LEHE27-.LEHB27
 1645 00d3 AC05     		.uleb128 .L97-.LFB1270
 1646 00d5 00       		.uleb128 0
 1647 00d6 E002     		.uleb128 .LEHB28-.LFB1270
 1648 00d8 05       		.uleb128 .LEHE28-.LEHB28
 1649 00d9 B505     		.uleb128 .L98-.LFB1270
 1650 00db 00       		.uleb128 0
 1651 00dc B503     		.uleb128 .LEHB29-.LFB1270
 1652 00de 5D       		.uleb128 .LEHE29-.LEHB29
 1653 00df BE05     		.uleb128 .L96-.LFB1270
 1654 00e1 00       		.uleb128 0
 1655 00e2 9D05     		.uleb128 .LEHB30-.LFB1270
 1656 00e4 05       		.uleb128 .LEHE30-.LEHB30
 1657 00e5 00       		.uleb128 0
 1658 00e6 00       		.uleb128 0
 1659 00e7 9B06     		.uleb128 .LEHB31-.LFB1270
 1660 00e9 05       		.uleb128 .LEHE31-.LEHB31
 1661 00ea 00       		.uleb128 0
 1662 00eb 00       		.uleb128 0
 1663 00ec AB06     		.uleb128 .LEHB32-.LFB1270
 1664 00ee 05       		.uleb128 .LEHE32-.LEHB32
 1665 00ef 00       		.uleb128 0
 1666 00f0 00       		.uleb128 0
 1667              	.LLSDACSE1270:
 1668              		.section	.text._ZN8UnitTest10CheckEqualIiiEEvRNS_11TestResultsERKT_RKT0_RKNS_11TestDetailsE,"axG",
 1670              		.section	.rodata.str1.1
 1671              	.LC18:
 1672 001b 66696C65 		.string	"filename"
 1672      6E616D65 
 1672      00
 1673              	.LC19:
 1674 0024 73756974 		.string	"suitename"
 1674      656E616D 
 1674      6500
 1675              	.LC20:
 1676 002e 74657374 		.string	"testname"
 1676      6E616D65 
 1676      00
 1677              		.section	.rodata.str1.8
 1678 0117 00       		.align 8
 1679              	.LC21:
 1680 0118 73747273 		.string	"strstr(reporter.lastFailedFile, \"filename\")"
 1680      74722872 
 1680      65706F72 
 1680      7465722E 
 1680      6C617374 
 1681 0144 00000000 		.align 8
 1682              	.LC22:
 1683 0148 73747273 		.string	"strstr(reporter.lastFailedTest, \"testname\")"
 1683      74722872 
 1683      65706F72 
 1683      7465722E 
 1683      6C617374 
 1684 0174 00000000 		.align 8
 1685              	.LC23:
 1686 0178 556E6861 		.string	"Unhandled exception in CHECK(strstr(reporter.lastFailedFile, \"filename\"))"
 1686      6E646C65 
 1686      64206578 
 1686      63657074 
 1686      696F6E20 
 1687 01c2 00000000 		.align 8
 1687      0000
 1688              	.LC24:
 1689 01c8 556E6861 		.string	"Unhandled exception in CHECK_EQUAL(10, reporter.lastFailedLine)"
 1689      6E646C65 
 1689      64206578 
 1689      63657074 
 1689      696F6E20 
 1690              		.align 8
 1691              	.LC25:
 1692 0208 556E6861 		.string	"Unhandled exception in CHECK(strstr(reporter.lastFailedTest, \"testname\"))"
 1692      6E646C65 
 1692      64206578 
 1692      63657074 
 1692      696F6E20 
 1693              		.section	.text.unlikely
 1694              		.align 2
 1695              	.LCOLDB26:
 1696              		.text
 1697              	.LHOTB26:
 1698              		.align 2
 1699 03e2 66662E0F 		.p2align 4
 1699      1F840000 
 1699      0000000F 
 1699      1F00
 1701              	_ZNK12_GLOBAL__N_144TestTimeConstraintFailureIncludesCorrectData7RunImplEv:
 1702              	.LFB1238:
 1703              		.cfi_startproc
 1704              		.cfi_personality 0x9b,DW.ref.__gxx_personality_v0
 1705              		.cfi_lsda 0x1b,.LLSDA1238
 1706 03f0 F30F1EFA 		endbr64
 1707 03f4 4157     		pushq	%r15
 1708              		.cfi_def_cfa_offset 16
 1709              		.cfi_offset 15, -16
 1710 03f6 4156     		pushq	%r14
 1711              		.cfi_def_cfa_offset 24
 1712              		.cfi_offset 14, -24
 1713 03f8 4155     		pushq	%r13
 1714              		.cfi_def_cfa_offset 32
 1715              		.cfi_offset 13, -32
 1716 03fa 4154     		pushq	%r12
 1717              		.cfi_def_cfa_offset 40
 1718              		.cfi_offset 12, -40
 1719 03fc 55       		pushq	%rbp
 1720              		.cfi_def_cfa_offset 48
 1721              		.cfi_offset 6, -48
 1722 03fd 53       		pushq	%rbx
 1723              		.cfi_def_cfa_offset 56
 1724              		.cfi_offset 3, -56
 1725 03fe 488D1D00 		leaq	16+_ZTV17RecordingReporter(%rip), %rbx
 1725      000000
 1726 0405 4881ECC8 		subq	$2248, %rsp
 1726      080000
 1727              		.cfi_def_cfa_offset 2304
 1728 040c 64488B04 		movq	%fs:40, %rax
 1728      25280000 
 1728      00
 1729 0415 48898424 		movq	%rax, 2232(%rsp)
 1729      B8080000 
 1730 041d 31C0     		xorl	%eax, %eax
 1731 041f 4C8DAC24 		leaq	128(%rsp), %r13
 1731      80000000 
 1732 0427 488D6C24 		leaq	32(%rsp), %rbp
 1732      20
 1733 042c 48899C24 		movq	%rbx, 128(%rsp)
 1733      80000000 
 1734 0434 4C89EE   		movq	%r13, %rsi
 1735 0437 4889EF   		movq	%rbp, %rdi
 1736 043a C7842488 		movl	$0, 136(%rsp)
 1736      00000000 
 1736      000000
 1737 0445 C784248C 		movl	$0, 652(%rsp)
 1737      02000000 
 1737      000000
 1738 0450 C7842490 		movl	$0, 912(%rsp)
 1738      03000000 
 1738      000000
 1739 045b C7842494 		movl	$0, 1684(%rsp)
 1739      06000000 
 1739      000000
 1740 0466 48C78424 		movq	$0, 2200(%rsp)
 1740      98080000 
 1740      00000000 
 1741 0472 48C78424 		movq	$0, 2208(%rsp)
 1741      A0080000 
 1741      00000000 
 1742 047e C78424A8 		movl	$0x00000000, 2216(%rsp)
 1742      08000000 
 1742      000000
 1743 0489 C684248C 		movb	$0, 140(%rsp)
 1743      00000000 
 1744 0491 C684248C 		movb	$0, 396(%rsp)
 1744      01000000 
 1745 0499 C6842490 		movb	$0, 656(%rsp)
 1745      02000000 
 1746 04a1 C6842494 		movb	$0, 916(%rsp)
 1746      03000000 
 1747 04a9 C6842494 		movb	$0, 1172(%rsp)
 1747      04000000 
 1748 04b1 C6842494 		movb	$0, 1428(%rsp)
 1748      05000000 
 1749 04b9 C6842498 		movb	$0, 1688(%rsp)
 1749      06000000 
 1750 04c1 C6842498 		movb	$0, 1944(%rsp)
 1750      07000000 
 1751              	.LEHB33:
 1752 04c9 E8000000 		call	_ZN8UnitTest11TestResultsC1EPNS_12TestReporterE@PLT
 1752      00
 1753 04ce E8000000 		call	_ZN8UnitTest11CurrentTest7ResultsEv@PLT
 1753      00
 1754 04d3 488B00   		movq	(%rax), %rax
 1755 04d6 48890424 		movq	%rax, (%rsp)
 1756 04da 48894424 		movq	%rax, 16(%rsp)
 1756      10
 1757 04df E8000000 		call	_ZN8UnitTest11CurrentTest7DetailsEv@PLT
 1757      00
 1758 04e4 488B30   		movq	(%rax), %rsi
 1759 04e7 48897424 		movq	%rsi, 8(%rsp)
 1759      08
 1760 04ec 48897424 		movq	%rsi, 24(%rsp)
 1760      18
 1761 04f1 E8000000 		call	_ZN8UnitTest11CurrentTest7ResultsEv@PLT
 1761      00
 1762              	.LEHE33:
 1763 04f6 488928   		movq	%rbp, (%rax)
 1764 04f9 4C8D6424 		leaq	64(%rsp), %r12
 1764      40
 1765 04fe 4C8D3D00 		leaq	.LC18(%rip), %r15
 1765      000000
 1766 0505 41B80A00 		movl	$10, %r8d
 1766      0000
 1767 050b 4C8D3500 		leaq	.LC20(%rip), %r14
 1767      000000
 1768 0512 4C89F9   		movq	%r15, %rcx
 1769 0515 488D1500 		leaq	.LC19(%rip), %rdx
 1769      000000
 1770 051c 4C89E7   		movq	%r12, %rdi
 1771 051f 4C89F6   		movq	%r14, %rsi
 1772              	.LEHB34:
 1773 0522 E8000000 		call	_ZN8UnitTest11TestDetailsC1EPKcS2_S2_i@PLT
 1773      00
 1774 0527 488D6C24 		leaq	96(%rsp), %rbp
 1774      60
 1775 052c 4C89E2   		movq	%r12, %rdx
 1776 052f BE0A0000 		movl	$10, %esi
 1776      00
 1777 0534 4889EF   		movq	%rbp, %rdi
 1778 0537 E8000000 		call	_ZN8UnitTest14TimeConstraintC1EiRKNS_11TestDetailsE@PLT
 1778      00
 1779              	.LEHE34:
 1780 053c BF140000 		movl	$20, %edi
 1780      00
 1781              	.LEHB35:
 1782 0541 E8000000 		call	_ZN8UnitTest11TimeHelpers7SleepMsEi@PLT
 1782      00
 1783              	.LEHE35:
 1784 0546 4889EF   		movq	%rbp, %rdi
 1785              	.LEHB36:
 1786 0549 E8000000 		call	_ZN8UnitTest14TimeConstraintD1Ev@PLT
 1786      00
 1787              	.LEHE36:
 1788              	.LEHB37:
 1789 054e E8000000 		call	_ZN8UnitTest11CurrentTest7ResultsEv@PLT
 1789      00
 1790 0553 488B0C24 		movq	(%rsp), %rcx
 1791 0557 488908   		movq	%rcx, (%rax)
 1792 055a E8000000 		call	_ZN8UnitTest11CurrentTest7DetailsEv@PLT
 1792      00
 1793              	.LEHE37:
 1794 055f 488B7424 		movq	8(%rsp), %rsi
 1794      08
 1795 0564 488DBC24 		leaq	656(%rsp), %rdi
 1795      90020000 
 1796 056c 488930   		movq	%rsi, (%rax)
 1797 056f 4C89FE   		movq	%r15, %rsi
 1798 0572 E8000000 		call	strstr@PLT
 1798      00
 1799 0577 4885C0   		testq	%rax, %rax
 1800 057a 0F849000 		je	.L136
 1800      0000
 1801              	.L107:
 1802              	.LEHB38:
 1803 0580 E8000000 		call	_ZN8UnitTest11CurrentTest7DetailsEv@PLT
 1803      00
 1804 0585 488B30   		movq	(%rax), %rsi
 1805 0588 BA310000 		movl	$49, %edx
 1805      00
 1806 058d 4889EF   		movq	%rbp, %rdi
 1807 0590 E8000000 		call	_ZN8UnitTest11TestDetailsC1ERKS0_i@PLT
 1807      00
 1808 0595 C7442440 		movl	$10, 64(%rsp)
 1808      0A000000 
 1809 059d E8000000 		call	_ZN8UnitTest11CurrentTest7ResultsEv@PLT
 1809      00
 1810 05a2 488B38   		movq	(%rax), %rdi
 1811 05a5 488D9424 		leaq	912(%rsp), %rdx
 1811      90030000 
 1812 05ad 4889E9   		movq	%rbp, %rcx
 1813 05b0 4C89E6   		movq	%r12, %rsi
 1814 05b3 E8000000 		call	_ZN8UnitTest10CheckEqualIiiEEvRNS_11TestResultsERKT_RKT0_RKNS_11TestDetailsE
 1814      00
 1815              	.LEHE38:
 1816              	.L117:
 1817 05b8 488DBC24 		leaq	1172(%rsp), %rdi
 1817      94040000 
 1818 05c0 4C89F6   		movq	%r14, %rsi
 1819 05c3 E8000000 		call	strstr@PLT
 1819      00
 1820 05c8 4885C0   		testq	%rax, %rax
 1821 05cb 747B     		je	.L137
 1822              	.L109:
 1823 05cd 4C89EF   		movq	%r13, %rdi
 1824 05d0 48899C24 		movq	%rbx, 128(%rsp)
 1824      80000000 
 1825              	.LEHB39:
 1826 05d8 E8000000 		call	_ZN8UnitTest12TestReporterD2Ev@PLT
 1826      00
 1827              	.LEHE39:
 1828 05dd 488B8424 		movq	2232(%rsp), %rax
 1828      B8080000 
 1829 05e5 64482B04 		subq	%fs:40, %rax
 1829      25280000 
 1829      00
 1830 05ee 0F858800 		jne	.L138
 1830      0000
 1831 05f4 4881C4C8 		addq	$2248, %rsp
 1831      080000
 1832              		.cfi_remember_state
 1833              		.cfi_def_cfa_offset 56
 1834 05fb 5B       		popq	%rbx
 1835              		.cfi_def_cfa_offset 48
 1836 05fc 5D       		popq	%rbp
 1837              		.cfi_def_cfa_offset 40
 1838 05fd 415C     		popq	%r12
 1839              		.cfi_def_cfa_offset 32
 1840 05ff 415D     		popq	%r13
 1841              		.cfi_def_cfa_offset 24
 1842 0601 415E     		popq	%r14
 1843              		.cfi_def_cfa_offset 16
 1844 0603 415F     		popq	%r15
 1845              		.cfi_def_cfa_offset 8
 1846 0605 C3       		ret
 1847 0606 662E0F1F 		.p2align 4,,10
 1847      84000000 
 1847      0000
 1848              		.p2align 3
 1849              	.L136:
 1850              		.cfi_restore_state
 1851              	.LEHB40:
 1852 0610 E8000000 		call	_ZN8UnitTest11CurrentTest7ResultsEv@PLT
 1852      00
 1853 0615 4C8B38   		movq	(%rax), %r15
 1854 0618 E8000000 		call	_ZN8UnitTest11CurrentTest7DetailsEv@PLT
 1854      00
 1855 061d 488B30   		movq	(%rax), %rsi
 1856 0620 BA300000 		movl	$48, %edx
 1856      00
 1857 0625 4889EF   		movq	%rbp, %rdi
 1858 0628 E8000000 		call	_ZN8UnitTest11TestDetailsC1ERKS0_i@PLT
 1858      00
 1859 062d 488D1500 		leaq	.LC21(%rip), %rdx
 1859      000000
 1860 0634 4889EE   		movq	%rbp, %rsi
 1861 0637 4C89FF   		movq	%r15, %rdi
 1862 063a E8000000 		call	_ZN8UnitTest11TestResults13OnTestFailureERKNS_11TestDetailsEPKc@PLT
 1862      00
 1863              	.LEHE40:
 1864 063f E93CFFFF 		jmp	.L107
 1864      FF
 1865              		.p2align 4,,10
 1866 0644 0F1F4000 		.p2align 3
 1867              	.L137:
 1868              	.LEHB41:
 1869 0648 E8000000 		call	_ZN8UnitTest11CurrentTest7ResultsEv@PLT
 1869      00
 1870 064d 4C8B20   		movq	(%rax), %r12
 1871 0650 E8000000 		call	_ZN8UnitTest11CurrentTest7DetailsEv@PLT
 1871      00
 1872 0655 488B30   		movq	(%rax), %rsi
 1873 0658 BA320000 		movl	$50, %edx
 1873      00
 1874 065d 4889EF   		movq	%rbp, %rdi
 1875 0660 E8000000 		call	_ZN8UnitTest11TestDetailsC1ERKS0_i@PLT
 1875      00
 1876 0665 488D1500 		leaq	.LC22(%rip), %rdx
 1876      000000
 1877 066c 4889EE   		movq	%rbp, %rsi
 1878 066f 4C89E7   		movq	%r12, %rdi
 1879 0672 E8000000 		call	_ZN8UnitTest11TestResults13OnTestFailureERKNS_11TestDetailsEPKc@PLT
 1879      00
 1880              	.LEHE41:
 1881 0677 E951FFFF 		jmp	.L109
 1881      FF
 1882              	.L138:
 1883 067c E8000000 		call	__stack_chk_fail@PLT
 1883      00
 1884              	.L128:
 1885 0681 F30F1EFA 		endbr64
 1886 0685 4889C7   		movq	%rax, %rdi
 1887 0688 E9000000 		jmp	.L116
 1887      00
 1888              	.L132:
 1889 068d F30F1EFA 		endbr64
 1890 0691 E9000000 		jmp	.L133
 1890      00
 1891              	.L125:
 1892 0696 F30F1EFA 		endbr64
 1893 069a 4989C4   		movq	%rax, %r12
 1894 069d E9000000 		jmp	.L110
 1894      00
 1895              	.L124:
 1896 06a2 F30F1EFA 		endbr64
 1897 06a6 4889C5   		movq	%rax, %rbp
 1898 06a9 E9000000 		jmp	.L111
 1898      00
 1899              	.L126:
 1900 06ae F30F1EFA 		endbr64
 1901 06b2 4889C7   		movq	%rax, %rdi
 1902 06b5 E9000000 		jmp	.L113
 1902      00
 1903              	.L130:
 1904 06ba F30F1EFA 		endbr64
 1905 06be 4889C7   		movq	%rax, %rdi
 1906 06c1 E9000000 		jmp	.L119
 1906      00
 1907              		.section	.gcc_except_table
 1908 00f1 000000   		.align 4
 1909              	.LLSDA1238:
 1910 00f4 FF       		.byte	0xff
 1911 00f5 9B       		.byte	0x9b
 1912 00f6 3D       		.uleb128 .LLSDATT1238-.LLSDATTD1238
 1913              	.LLSDATTD1238:
 1914 00f7 01       		.byte	0x1
 1915 00f8 35       		.uleb128 .LLSDACSE1238-.LLSDACSB1238
 1916              	.LLSDACSB1238:
 1917 00f9 D901     		.uleb128 .LEHB33-.LFB1238
 1918 00fb 2D       		.uleb128 .LEHE33-.LEHB33
 1919 00fc 9D05     		.uleb128 .L132-.LFB1238
 1920 00fe 00       		.uleb128 0
 1921 00ff B202     		.uleb128 .LEHB34-.LFB1238
 1922 0101 1A       		.uleb128 .LEHE34-.LEHB34
 1923 0102 B205     		.uleb128 .L124-.LFB1238
 1924 0104 00       		.uleb128 0
 1925 0105 D102     		.uleb128 .LEHB35-.LFB1238
 1926 0107 05       		.uleb128 .LEHE35-.LEHB35
 1927 0108 A605     		.uleb128 .L125-.LFB1238
 1928 010a 00       		.uleb128 0
 1929 010b D902     		.uleb128 .LEHB36-.LFB1238
 1930 010d 05       		.uleb128 .LEHE36-.LEHB36
 1931 010e B205     		.uleb128 .L124-.LFB1238
 1932 0110 00       		.uleb128 0
 1933 0111 DE02     		.uleb128 .LEHB37-.LFB1238
 1934 0113 11       		.uleb128 .LEHE37-.LEHB37
 1935 0114 9D05     		.uleb128 .L132-.LFB1238
 1936 0116 00       		.uleb128 0
 1937 0117 9003     		.uleb128 .LEHB38-.LFB1238
 1938 0119 38       		.uleb128 .LEHE38-.LEHB38
 1939 011a 9105     		.uleb128 .L128-.LFB1238
 1940 011c 01       		.uleb128 0x1
 1941 011d E803     		.uleb128 .LEHB39-.LFB1238
 1942 011f 05       		.uleb128 .LEHE39-.LEHB39
 1943 0120 00       		.uleb128 0
 1944 0121 00       		.uleb128 0
 1945 0122 A004     		.uleb128 .LEHB40-.LFB1238
 1946 0124 2F       		.uleb128 .LEHE40-.LEHB40
 1947 0125 BE05     		.uleb128 .L126-.LFB1238
 1948 0127 01       		.uleb128 0x1
 1949 0128 D804     		.uleb128 .LEHB41-.LFB1238
 1950 012a 2F       		.uleb128 .LEHE41-.LEHB41
 1951 012b CA05     		.uleb128 .L130-.LFB1238
 1952 012d 01       		.uleb128 0x1
 1953              	.LLSDACSE1238:
 1954 012e 01       		.byte	0x1
 1955 012f 00       		.byte	0
 1956              		.align 4
 1957 0130 00000000 		.long	0
 1958              	
 1959              	.LLSDATT1238:
 1960              		.text
 1961              		.cfi_endproc
 1962              		.section	.text.unlikely
 1963              		.cfi_startproc
 1964              		.cfi_personality 0x9b,DW.ref.__gxx_personality_v0
 1965              		.cfi_lsda 0x1b,.LLSDAC1238
 1967              	_ZNK12_GLOBAL__N_144TestTimeConstraintFailureIncludesCorrectData7RunImplEv.cold:
 1968              	.LFSB1238:
 1969              	.L116:
 1970              		.cfi_def_cfa_offset 2304
 1971              		.cfi_offset 3, -56
 1972              		.cfi_offset 6, -48
 1973              		.cfi_offset 12, -40
 1974              		.cfi_offset 13, -32
 1975              		.cfi_offset 14, -24
 1976              		.cfi_offset 15, -16
 1977 0106 E8000000 		call	__cxa_begin_catch@PLT
 1977      00
 1978              	.LEHB42:
 1979 010b E8000000 		call	_ZN8UnitTest11CurrentTest7ResultsEv@PLT
 1979      00
 1980 0110 4C8B20   		movq	(%rax), %r12
 1981 0113 E8000000 		call	_ZN8UnitTest11CurrentTest7DetailsEv@PLT
 1981      00
 1982 0118 488B30   		movq	(%rax), %rsi
 1983 011b BA310000 		movl	$49, %edx
 1983      00
 1984 0120 4889EF   		movq	%rbp, %rdi
 1985 0123 E8000000 		call	_ZN8UnitTest11TestDetailsC1ERKS0_i@PLT
 1985      00
 1986 0128 488D1500 		leaq	.LC24(%rip), %rdx
 1986      000000
 1987 012f 4889EE   		movq	%rbp, %rsi
 1988 0132 4C89E7   		movq	%r12, %rdi
 1989 0135 E8000000 		call	_ZN8UnitTest11TestResults13OnTestFailureERKNS_11TestDetailsEPKc@PLT
 1989      00
 1990              	.LEHE42:
 1991              	.LEHB43:
 1992 013a E8000000 		call	__cxa_end_catch@PLT
 1992      00
 1993              	.LEHE43:
 1994 013f E9000000 		jmp	.L117
 1994      00
 1995              	.L123:
 1996 0144 F30F1EFA 		endbr64
 1997              	.L133:
 1998 0148 4889C5   		movq	%rax, %rbp
 1999 014b EB0C     		jmp	.L112
 2000              	.L129:
 2001 014d F30F1EFA 		endbr64
 2002 0151 4889C5   		movq	%rax, %rbp
 2003 0154 E8000000 		call	__cxa_end_catch@PLT
 2003      00
 2004              	.L112:
 2005 0159 4C89EF   		movq	%r13, %rdi
 2006 015c 48899C24 		movq	%rbx, 128(%rsp)
 2006      80000000 
 2007 0164 E8000000 		call	_ZN8UnitTest12TestReporterD2Ev@PLT
 2007      00
 2008 0169 4889EF   		movq	%rbp, %rdi
 2009              	.LEHB44:
 2010 016c E8000000 		call	_Unwind_Resume@PLT
 2010      00
 2011              	.LEHE44:
 2012              	.L110:
 2013 0171 4889EF   		movq	%rbp, %rdi
 2014 0174 4C89E5   		movq	%r12, %rbp
 2015 0177 E8000000 		call	_ZN8UnitTest14TimeConstraintD1Ev@PLT
 2015      00
 2016              	.L111:
 2017 017c 488D7C24 		leaq	16(%rsp), %rdi
 2017      10
 2018 0181 E8000000 		call	_ZN17ScopedCurrentTestD1Ev
 2018      00
 2019 0186 EBD1     		jmp	.L112
 2020              	.L113:
 2021 0188 E8000000 		call	__cxa_begin_catch@PLT
 2021      00
 2022              	.LEHB45:
 2023 018d E8000000 		call	_ZN8UnitTest11CurrentTest7ResultsEv@PLT
 2023      00
 2024 0192 4C8B38   		movq	(%rax), %r15
 2025 0195 E8000000 		call	_ZN8UnitTest11CurrentTest7DetailsEv@PLT
 2025      00
 2026 019a 488B30   		movq	(%rax), %rsi
 2027 019d BA300000 		movl	$48, %edx
 2027      00
 2028 01a2 4889EF   		movq	%rbp, %rdi
 2029 01a5 E8000000 		call	_ZN8UnitTest11TestDetailsC1ERKS0_i@PLT
 2029      00
 2030 01aa 488D1500 		leaq	.LC23(%rip), %rdx
 2030      000000
 2031 01b1 4889EE   		movq	%rbp, %rsi
 2032 01b4 4C89FF   		movq	%r15, %rdi
 2033 01b7 E8000000 		call	_ZN8UnitTest11TestResults13OnTestFailureERKNS_11TestDetailsEPKc@PLT
 2033      00
 2034              	.LEHE45:
 2035              	.LEHB46:
 2036 01bc E8000000 		call	__cxa_end_catch@PLT
 2036      00
 2037              	.LEHE46:
 2038 01c1 E9000000 		jmp	.L107
 2038      00
 2039              	.L119:
 2040 01c6 E8000000 		call	__cxa_begin_catch@PLT
 2040      00
 2041              	.LEHB47:
 2042 01cb E8000000 		call	_ZN8UnitTest11CurrentTest7ResultsEv@PLT
 2042      00
 2043 01d0 4C8B20   		movq	(%rax), %r12
 2044 01d3 E8000000 		call	_ZN8UnitTest11CurrentTest7DetailsEv@PLT
 2044      00
 2045 01d8 488B30   		movq	(%rax), %rsi
 2046 01db BA320000 		movl	$50, %edx
 2046      00
 2047 01e0 4889EF   		movq	%rbp, %rdi
 2048 01e3 E8000000 		call	_ZN8UnitTest11TestDetailsC1ERKS0_i@PLT
 2048      00
 2049 01e8 488D1500 		leaq	.LC25(%rip), %rdx
 2049      000000
 2050 01ef 4889EE   		movq	%rbp, %rsi
 2051 01f2 4C89E7   		movq	%r12, %rdi
 2052 01f5 E8000000 		call	_ZN8UnitTest11TestResults13OnTestFailureERKNS_11TestDetailsEPKc@PLT
 2052      00
 2053              	.LEHE47:
 2054              	.LEHB48:
 2055 01fa E8000000 		call	__cxa_end_catch@PLT
 2055      00
 2056              	.LEHE48:
 2057 01ff E9000000 		jmp	.L109
 2057      00
 2058              	.L127:
 2059 0204 F30F1EFA 		endbr64
 2060 0208 4889C5   		movq	%rax, %rbp
 2061 020b E8000000 		call	__cxa_end_catch@PLT
 2061      00
 2062 0210 E944FFFF 		jmp	.L112
 2062      FF
 2063              	.L131:
 2064 0215 F30F1EFA 		endbr64
 2065 0219 4889C5   		movq	%rax, %rbp
 2066 021c E8000000 		call	__cxa_end_catch@PLT
 2066      00
 2067 0221 E933FFFF 		jmp	.L112
 2067      FF
 2068              		.cfi_endproc
 2069              	.LFE1238:
 2070              		.section	.gcc_except_table
 2071              		.align 4
 2072              	.LLSDAC1238:
 2073 0134 FF       		.byte	0xff
 2074 0135 9B       		.byte	0x9b
 2075 0136 2D       		.uleb128 .LLSDATTC1238-.LLSDATTDC1238
 2076              	.LLSDATTDC1238:
 2077 0137 01       		.byte	0x1
 2078 0138 22       		.uleb128 .LLSDACSEC1238-.LLSDACSBC1238
 2079              	.LLSDACSBC1238:
 2080 0139 05       		.uleb128 .LEHB42-.LCOLDB26
 2081 013a 2F       		.uleb128 .LEHE42-.LEHB42
 2082 013b 47       		.uleb128 .L129-.LCOLDB26
 2083 013c 00       		.uleb128 0
 2084 013d 34       		.uleb128 .LEHB43-.LCOLDB26
 2085 013e 05       		.uleb128 .LEHE43-.LEHB43
 2086 013f 3E       		.uleb128 .L123-.LCOLDB26
 2087 0140 00       		.uleb128 0
 2088 0141 66       		.uleb128 .LEHB44-.LCOLDB26
 2089 0142 05       		.uleb128 .LEHE44-.LEHB44
 2090 0143 00       		.uleb128 0
 2091 0144 00       		.uleb128 0
 2092 0145 8701     		.uleb128 .LEHB45-.LCOLDB26
 2093 0147 2F       		.uleb128 .LEHE45-.LEHB45
 2094 0148 FE01     		.uleb128 .L127-.LCOLDB26
 2095 014a 00       		.uleb128 0
 2096 014b B601     		.uleb128 .LEHB46-.LCOLDB26
 2097 014d 05       		.uleb128 .LEHE46-.LEHB46
 2098 014e 3E       		.uleb128 .L123-.LCOLDB26
 2099 014f 00       		.uleb128 0
 2100 0150 C501     		.uleb128 .LEHB47-.LCOLDB26
 2101 0152 2F       		.uleb128 .LEHE47-.LEHB47
 2102 0153 8F02     		.uleb128 .L131-.LCOLDB26
 2103 0155 00       		.uleb128 0
 2104 0156 F401     		.uleb128 .LEHB48-.LCOLDB26
 2105 0158 05       		.uleb128 .LEHE48-.LEHB48
 2106 0159 3E       		.uleb128 .L123-.LCOLDB26
 2107 015a 00       		.uleb128 0
 2108              	.LLSDACSEC1238:
 2109 015b 01       		.byte	0x1
 2110 015c 00       		.byte	0
 2111 015d 000000   		.align 4
 2112 0160 00000000 		.long	0
 2113              	
 2114              	.LLSDATTC1238:
 2115              		.section	.text.unlikely
 2116              		.text
 2118              		.section	.text.unlikely
 2120              	.LCOLDE26:
 2121              		.text
 2122              	.LHOTE26:
 2123              		.section	.rodata.str1.8
 2124 0252 00000000 		.align 8
 2124      0000
 2125              	.LC27:
 2126 0258 556E6861 		.string	"Unhandled exception in CHECK_EQUAL(1, result.GetFailureCount())"
 2126      6E646C65 
 2126      64206578 
 2126      63657074 
 2126      696F6E20 
 2127              		.section	.text.unlikely
 2128              		.align 2
 2129              	.LCOLDB28:
 2130              		.text
 2131              	.LHOTB28:
 2132              		.align 2
 2133 06c6 662E0F1F 		.p2align 4
 2133      84000000 
 2133      0000
 2135              	_ZNK12_GLOBAL__N_135TestTimeConstraintFailsWithSlowTest7RunImplEv:
 2136              	.LFB1234:
 2137              		.cfi_startproc
 2138              		.cfi_personality 0x9b,DW.ref.__gxx_personality_v0
 2139              		.cfi_lsda 0x1b,.LLSDA1234
 2140 06d0 F30F1EFA 		endbr64
 2141 06d4 4156     		pushq	%r14
 2142              		.cfi_def_cfa_offset 16
 2143              		.cfi_offset 14, -16
 2144 06d6 31F6     		xorl	%esi, %esi
 2145 06d8 4155     		pushq	%r13
 2146              		.cfi_def_cfa_offset 24
 2147              		.cfi_offset 13, -24
 2148 06da 4154     		pushq	%r12
 2149              		.cfi_def_cfa_offset 32
 2150              		.cfi_offset 12, -32
 2151 06dc 55       		pushq	%rbp
 2152              		.cfi_def_cfa_offset 40
 2153              		.cfi_offset 6, -40
 2154 06dd 53       		pushq	%rbx
 2155              		.cfi_def_cfa_offset 48
 2156              		.cfi_offset 3, -48
 2157 06de 4883C480 		addq	$-128, %rsp
 2158              		.cfi_def_cfa_offset 176
 2159 06e2 64488B04 		movq	%fs:40, %rax
 2159      25280000 
 2159      00
 2160 06eb 48894424 		movq	%rax, 120(%rsp)
 2160      78
 2161 06f0 31C0     		xorl	%eax, %eax
 2162 06f2 4C8D6C24 		leaq	16(%rsp), %r13
 2162      10
 2163 06f7 488D6C24 		leaq	80(%rsp), %rbp
 2163      50
 2164 06fc 4C89EF   		movq	%r13, %rdi
 2165              	.LEHB49:
 2166 06ff E8000000 		call	_ZN8UnitTest11TestResultsC1EPNS_12TestReporterE@PLT
 2166      00
 2167 0704 E8000000 		call	_ZN8UnitTest11CurrentTest7ResultsEv@PLT
 2167      00
 2168 0709 4C8B30   		movq	(%rax), %r14
 2169 070c 4C893424 		movq	%r14, (%rsp)
 2170 0710 E8000000 		call	_ZN8UnitTest11CurrentTest7DetailsEv@PLT
 2170      00
 2171 0715 488B18   		movq	(%rax), %rbx
 2172 0718 48895C24 		movq	%rbx, 8(%rsp)
 2172      08
 2173 071d E8000000 		call	_ZN8UnitTest11CurrentTest7ResultsEv@PLT
 2173      00
 2174              	.LEHE49:
 2175 0722 488D3500 		leaq	.LC5(%rip), %rsi
 2175      000000
 2176 0729 4531C0   		xorl	%r8d, %r8d
 2177 072c 4889EF   		movq	%rbp, %rdi
 2178 072f 4C8928   		movq	%r13, (%rax)
 2179 0732 4889F1   		movq	%rsi, %rcx
 2180 0735 4889F2   		movq	%rsi, %rdx
 2181              	.LEHB50:
 2182 0738 E8000000 		call	_ZN8UnitTest11TestDetailsC1EPKcS2_S2_i@PLT
 2182      00
 2183 073d 4C8D6424 		leaq	48(%rsp), %r12
 2183      30
 2184 0742 4889EA   		movq	%rbp, %rdx
 2185 0745 BE0A0000 		movl	$10, %esi
 2185      00
 2186 074a 4C89E7   		movq	%r12, %rdi
 2187 074d E8000000 		call	_ZN8UnitTest14TimeConstraintC1EiRKNS_11TestDetailsE@PLT
 2187      00
 2188              	.LEHE50:
 2189 0752 BF140000 		movl	$20, %edi
 2189      00
 2190              	.LEHB51:
 2191 0757 E8000000 		call	_ZN8UnitTest11TimeHelpers7SleepMsEi@PLT
 2191      00
 2192              	.LEHE51:
 2193 075c 4C89E7   		movq	%r12, %rdi
 2194              	.LEHB52:
 2195 075f E8000000 		call	_ZN8UnitTest14TimeConstraintD1Ev@PLT
 2195      00
 2196              	.LEHE52:
 2197              	.LEHB53:
 2198 0764 E8000000 		call	_ZN8UnitTest11CurrentTest7ResultsEv@PLT
 2198      00
 2199 0769 4C8930   		movq	%r14, (%rax)
 2200 076c E8000000 		call	_ZN8UnitTest11CurrentTest7DetailsEv@PLT
 2200      00
 2201              	.LEHE53:
 2202 0771 488918   		movq	%rbx, (%rax)
 2203              	.LEHB54:
 2204 0774 E8000000 		call	_ZN8UnitTest11CurrentTest7DetailsEv@PLT
 2204      00
 2205 0779 488B30   		movq	(%rax), %rsi
 2206 077c BA1F0000 		movl	$31, %edx
 2206      00
 2207 0781 4889EF   		movq	%rbp, %rdi
 2208 0784 E8000000 		call	_ZN8UnitTest11TestDetailsC1ERKS0_i@PLT
 2208      00
 2209 0789 4C89EF   		movq	%r13, %rdi
 2210 078c E8000000 		call	_ZNK8UnitTest11TestResults15GetFailureCountEv@PLT
 2210      00
 2211 0791 89442430 		movl	%eax, 48(%rsp)
 2212 0795 C7042401 		movl	$1, (%rsp)
 2212      000000
 2213 079c E8000000 		call	_ZN8UnitTest11CurrentTest7ResultsEv@PLT
 2213      00
 2214 07a1 488B38   		movq	(%rax), %rdi
 2215 07a4 4889E6   		movq	%rsp, %rsi
 2216 07a7 4889E9   		movq	%rbp, %rcx
 2217 07aa 4C89E2   		movq	%r12, %rdx
 2218 07ad E8000000 		call	_ZN8UnitTest10CheckEqualIiiEEvRNS_11TestResultsERKT_RKT0_RKNS_11TestDetailsE
 2218      00
 2219              	.LEHE54:
 2220              	.L139:
 2221 07b2 488B4424 		movq	120(%rsp), %rax
 2221      78
 2222 07b7 64482B04 		subq	%fs:40, %rax
 2222      25280000 
 2222      00
 2223 07c0 750D     		jne	.L151
 2224 07c2 4883EC80 		subq	$-128, %rsp
 2225              		.cfi_remember_state
 2226              		.cfi_def_cfa_offset 48
 2227 07c6 5B       		popq	%rbx
 2228              		.cfi_def_cfa_offset 40
 2229 07c7 5D       		popq	%rbp
 2230              		.cfi_def_cfa_offset 32
 2231 07c8 415C     		popq	%r12
 2232              		.cfi_def_cfa_offset 24
 2233 07ca 415D     		popq	%r13
 2234              		.cfi_def_cfa_offset 16
 2235 07cc 415E     		popq	%r14
 2236              		.cfi_def_cfa_offset 8
 2237 07ce C3       		ret
 2238              	.L151:
 2239              		.cfi_restore_state
 2240 07cf E8000000 		call	__stack_chk_fail@PLT
 2240      00
 2241              	.L148:
 2242 07d4 F30F1EFA 		endbr64
 2243 07d8 4889C7   		movq	%rax, %rdi
 2244 07db E9000000 		jmp	.L142
 2244      00
 2245              	.L147:
 2246 07e0 F30F1EFA 		endbr64
 2247 07e4 4889C5   		movq	%rax, %rbp
 2248 07e7 E9000000 		jmp	.L140
 2248      00
 2249              	.L146:
 2250 07ec F30F1EFA 		endbr64
 2251 07f0 4889C5   		movq	%rax, %rbp
 2252 07f3 E9000000 		jmp	.L141
 2252      00
 2253              		.section	.gcc_except_table
 2254              		.align 4
 2255              	.LLSDA1234:
 2256 0164 FF       		.byte	0xff
 2257 0165 9B       		.byte	0x9b
 2258 0166 29       		.uleb128 .LLSDATT1234-.LLSDATTD1234
 2259              	.LLSDATTD1234:
 2260 0167 01       		.byte	0x1
 2261 0168 20       		.uleb128 .LLSDACSE1234-.LLSDACSB1234
 2262              	.LLSDACSB1234:
 2263 0169 2F       		.uleb128 .LEHB49-.LFB1234
 2264 016a 23       		.uleb128 .LEHE49-.LEHB49
 2265 016b 00       		.uleb128 0
 2266 016c 00       		.uleb128 0
 2267 016d 68       		.uleb128 .LEHB50-.LFB1234
 2268 016e 1A       		.uleb128 .LEHE50-.LEHB50
 2269 016f 9C02     		.uleb128 .L146-.LFB1234
 2270 0171 00       		.uleb128 0
 2271 0172 8701     		.uleb128 .LEHB51-.LFB1234
 2272 0174 05       		.uleb128 .LEHE51-.LEHB51
 2273 0175 9002     		.uleb128 .L147-.LFB1234
 2274 0177 00       		.uleb128 0
 2275 0178 8F01     		.uleb128 .LEHB52-.LFB1234
 2276 017a 05       		.uleb128 .LEHE52-.LEHB52
 2277 017b 9C02     		.uleb128 .L146-.LFB1234
 2278 017d 00       		.uleb128 0
 2279 017e 9401     		.uleb128 .LEHB53-.LFB1234
 2280 0180 0D       		.uleb128 .LEHE53-.LEHB53
 2281 0181 00       		.uleb128 0
 2282 0182 00       		.uleb128 0
 2283 0183 A401     		.uleb128 .LEHB54-.LFB1234
 2284 0185 3E       		.uleb128 .LEHE54-.LEHB54
 2285 0186 8402     		.uleb128 .L148-.LFB1234
 2286 0188 01       		.uleb128 0x1
 2287              	.LLSDACSE1234:
 2288 0189 01       		.byte	0x1
 2289 018a 00       		.byte	0
 2290 018b 00       		.align 4
 2291 018c 00000000 		.long	0
 2292              	
 2293              	.LLSDATT1234:
 2294              		.text
 2295              		.cfi_endproc
 2296              		.section	.text.unlikely
 2297              		.cfi_startproc
 2298              		.cfi_personality 0x9b,DW.ref.__gxx_personality_v0
 2299              		.cfi_lsda 0x1b,.LLSDAC1234
 2301              	_ZNK12_GLOBAL__N_135TestTimeConstraintFailsWithSlowTest7RunImplEv.cold:
 2302              	.LFSB1234:
 2303              	.L142:
 2304              		.cfi_def_cfa_offset 176
 2305              		.cfi_offset 3, -48
 2306              		.cfi_offset 6, -40
 2307              		.cfi_offset 12, -32
 2308              		.cfi_offset 13, -24
 2309              		.cfi_offset 14, -16
 2310 0226 E8000000 		call	__cxa_begin_catch@PLT
 2310      00
 2311              	.LEHB55:
 2312 022b E8000000 		call	_ZN8UnitTest11CurrentTest7ResultsEv@PLT
 2312      00
 2313 0230 4C8B20   		movq	(%rax), %r12
 2314 0233 E8000000 		call	_ZN8UnitTest11CurrentTest7DetailsEv@PLT
 2314      00
 2315 0238 488B30   		movq	(%rax), %rsi
 2316 023b BA1F0000 		movl	$31, %edx
 2316      00
 2317 0240 4889EF   		movq	%rbp, %rdi
 2318 0243 E8000000 		call	_ZN8UnitTest11TestDetailsC1ERKS0_i@PLT
 2318      00
 2319 0248 488D1500 		leaq	.LC27(%rip), %rdx
 2319      000000
 2320 024f 4889EE   		movq	%rbp, %rsi
 2321 0252 4C89E7   		movq	%r12, %rdi
 2322 0255 E8000000 		call	_ZN8UnitTest11TestResults13OnTestFailureERKNS_11TestDetailsEPKc@PLT
 2322      00
 2323              	.LEHE55:
 2324              	.LEHB56:
 2325 025a E8000000 		call	__cxa_end_catch@PLT
 2325      00
 2326              	.LEHE56:
 2327 025f E9000000 		jmp	.L139
 2327      00
 2328              	.L140:
 2329 0264 4C89E7   		movq	%r12, %rdi
 2330 0267 E8000000 		call	_ZN8UnitTest14TimeConstraintD1Ev@PLT
 2330      00
 2331              	.L141:
 2332 026c 4889E7   		movq	%rsp, %rdi
 2333 026f E8000000 		call	_ZN17ScopedCurrentTestD1Ev
 2333      00
 2334 0274 4889EF   		movq	%rbp, %rdi
 2335              	.LEHB57:
 2336 0277 E8000000 		call	_Unwind_Resume@PLT
 2336      00
 2337              	.LEHE57:
 2338              	.L149:
 2339 027c F30F1EFA 		endbr64
 2340 0280 4889C5   		movq	%rax, %rbp
 2341 0283 E8000000 		call	__cxa_end_catch@PLT
 2341      00
 2342 0288 4889EF   		movq	%rbp, %rdi
 2343              	.LEHB58:
 2344 028b E8000000 		call	_Unwind_Resume@PLT
 2344      00
 2345              	.LEHE58:
 2346              		.cfi_endproc
 2347              	.LFE1234:
 2348              		.section	.gcc_except_table
 2349              		.align 4
 2350              	.LLSDAC1234:
 2351 0190 FF       		.byte	0xff
 2352 0191 9B       		.byte	0x9b
 2353 0192 19       		.uleb128 .LLSDATTC1234-.LLSDATTDC1234
 2354              	.LLSDATTDC1234:
 2355 0193 01       		.byte	0x1
 2356 0194 10       		.uleb128 .LLSDACSEC1234-.LLSDACSBC1234
 2357              	.LLSDACSBC1234:
 2358 0195 05       		.uleb128 .LEHB55-.LCOLDB28
 2359 0196 2F       		.uleb128 .LEHE55-.LEHB55
 2360 0197 56       		.uleb128 .L149-.LCOLDB28
 2361 0198 00       		.uleb128 0
 2362 0199 34       		.uleb128 .LEHB56-.LCOLDB28
 2363 019a 05       		.uleb128 .LEHE56-.LEHB56
 2364 019b 00       		.uleb128 0
 2365 019c 00       		.uleb128 0
 2366 019d 51       		.uleb128 .LEHB57-.LCOLDB28
 2367 019e 05       		.uleb128 .LEHE57-.LEHB57
 2368 019f 00       		.uleb128 0
 2369 01a0 00       		.uleb128 0
 2370 01a1 65       		.uleb128 .LEHB58-.LCOLDB28
 2371 01a2 05       		.uleb128 .LEHE58-.LEHB58
 2372 01a3 00       		.uleb128 0
 2373 01a4 00       		.uleb128 0
 2374              	.LLSDACSEC1234:
 2375 01a5 01       		.byte	0x1
 2376 01a6 00       		.byte	0
 2377 01a7 00       		.align 4
 2378 01a8 00000000 		.long	0
 2379              	
 2380              	.LLSDATTC1234:
 2381              		.section	.text.unlikely
 2382              		.text
 2384              		.section	.text.unlikely
 2386              	.LCOLDE28:
 2387              		.text
 2388              	.LHOTE28:
 2389              		.section	.rodata.str1.8
 2390              		.align 8
 2391              	.LC29:
 2392 0298 556E6861 		.string	"Unhandled exception in CHECK_EQUAL(0, result.GetFailureCount())"
 2392      6E646C65 
 2392      64206578 
 2392      63657074 
 2392      696F6E20 
 2393              		.section	.text.unlikely
 2394              		.align 2
 2395              	.LCOLDB30:
 2396              		.text
 2397              	.LHOTB30:
 2398              		.align 2
 2399 07f8 0F1F8400 		.p2align 4
 2399      00000000 
 2401              	_ZNK12_GLOBAL__N_138TestTimeConstraintSucceedsWithFastTest7RunImplEv:
 2402              	.LFB1230:
 2403              		.cfi_startproc
 2404              		.cfi_personality 0x9b,DW.ref.__gxx_personality_v0
 2405              		.cfi_lsda 0x1b,.LLSDA1230
 2406 0800 F30F1EFA 		endbr64
 2407 0804 4156     		pushq	%r14
 2408              		.cfi_def_cfa_offset 16
 2409              		.cfi_offset 14, -16
 2410 0806 31F6     		xorl	%esi, %esi
 2411 0808 4155     		pushq	%r13
 2412              		.cfi_def_cfa_offset 24
 2413              		.cfi_offset 13, -24
 2414 080a 4154     		pushq	%r12
 2415              		.cfi_def_cfa_offset 32
 2416              		.cfi_offset 12, -32
 2417 080c 55       		pushq	%rbp
 2418              		.cfi_def_cfa_offset 40
 2419              		.cfi_offset 6, -40
 2420 080d 53       		pushq	%rbx
 2421              		.cfi_def_cfa_offset 48
 2422              		.cfi_offset 3, -48
 2423 080e 4883C480 		addq	$-128, %rsp
 2424              		.cfi_def_cfa_offset 176
 2425 0812 64488B04 		movq	%fs:40, %rax
 2425      25280000 
 2425      00
 2426 081b 48894424 		movq	%rax, 120(%rsp)
 2426      78
 2427 0820 31C0     		xorl	%eax, %eax
 2428 0822 4C8D6C24 		leaq	16(%rsp), %r13
 2428      10
 2429 0827 488D6C24 		leaq	80(%rsp), %rbp
 2429      50
 2430 082c 4C89EF   		movq	%r13, %rdi
 2431              	.LEHB59:
 2432 082f E8000000 		call	_ZN8UnitTest11TestResultsC1EPNS_12TestReporterE@PLT
 2432      00
 2433 0834 E8000000 		call	_ZN8UnitTest11CurrentTest7ResultsEv@PLT
 2433      00
 2434 0839 4C8B30   		movq	(%rax), %r14
 2435 083c 4C893424 		movq	%r14, (%rsp)
 2436 0840 E8000000 		call	_ZN8UnitTest11CurrentTest7DetailsEv@PLT
 2436      00
 2437 0845 488B18   		movq	(%rax), %rbx
 2438 0848 48895C24 		movq	%rbx, 8(%rsp)
 2438      08
 2439 084d E8000000 		call	_ZN8UnitTest11CurrentTest7ResultsEv@PLT
 2439      00
 2440              	.LEHE59:
 2441 0852 488D3500 		leaq	.LC5(%rip), %rsi
 2441      000000
 2442 0859 4531C0   		xorl	%r8d, %r8d
 2443 085c 4889EF   		movq	%rbp, %rdi
 2444 085f 4C8928   		movq	%r13, (%rax)
 2445 0862 4889F1   		movq	%rsi, %rcx
 2446 0865 4889F2   		movq	%rsi, %rdx
 2447              	.LEHB60:
 2448 0868 E8000000 		call	_ZN8UnitTest11TestDetailsC1EPKcS2_S2_i@PLT
 2448      00
 2449 086d 4C8D6424 		leaq	48(%rsp), %r12
 2449      30
 2450 0872 4889EA   		movq	%rbp, %rdx
 2451 0875 BEC80000 		movl	$200, %esi
 2451      00
 2452 087a 4C89E7   		movq	%r12, %rdi
 2453 087d E8000000 		call	_ZN8UnitTest14TimeConstraintC1EiRKNS_11TestDetailsE@PLT
 2453      00
 2454              	.LEHE60:
 2455 0882 BF050000 		movl	$5, %edi
 2455      00
 2456              	.LEHB61:
 2457 0887 E8000000 		call	_ZN8UnitTest11TimeHelpers7SleepMsEi@PLT
 2457      00
 2458              	.LEHE61:
 2459 088c 4C89E7   		movq	%r12, %rdi
 2460              	.LEHB62:
 2461 088f E8000000 		call	_ZN8UnitTest14TimeConstraintD1Ev@PLT
 2461      00
 2462              	.LEHE62:
 2463              	.LEHB63:
 2464 0894 E8000000 		call	_ZN8UnitTest11CurrentTest7ResultsEv@PLT
 2464      00
 2465 0899 4C8930   		movq	%r14, (%rax)
 2466 089c E8000000 		call	_ZN8UnitTest11CurrentTest7DetailsEv@PLT
 2466      00
 2467              	.LEHE63:
 2468 08a1 488918   		movq	%rbx, (%rax)
 2469              	.LEHB64:
 2470 08a4 E8000000 		call	_ZN8UnitTest11CurrentTest7DetailsEv@PLT
 2470      00
 2471 08a9 488B30   		movq	(%rax), %rsi
 2472 08ac BA140000 		movl	$20, %edx
 2472      00
 2473 08b1 4889EF   		movq	%rbp, %rdi
 2474 08b4 E8000000 		call	_ZN8UnitTest11TestDetailsC1ERKS0_i@PLT
 2474      00
 2475 08b9 4C89EF   		movq	%r13, %rdi
 2476 08bc E8000000 		call	_ZNK8UnitTest11TestResults15GetFailureCountEv@PLT
 2476      00
 2477 08c1 89442430 		movl	%eax, 48(%rsp)
 2478 08c5 C7042400 		movl	$0, (%rsp)
 2478      000000
 2479 08cc E8000000 		call	_ZN8UnitTest11CurrentTest7ResultsEv@PLT
 2479      00
 2480 08d1 488B38   		movq	(%rax), %rdi
 2481 08d4 4889E6   		movq	%rsp, %rsi
 2482 08d7 4889E9   		movq	%rbp, %rcx
 2483 08da 4C89E2   		movq	%r12, %rdx
 2484 08dd E8000000 		call	_ZN8UnitTest10CheckEqualIiiEEvRNS_11TestResultsERKT_RKT0_RKNS_11TestDetailsE
 2484      00
 2485              	.LEHE64:
 2486              	.L152:
 2487 08e2 488B4424 		movq	120(%rsp), %rax
 2487      78
 2488 08e7 64482B04 		subq	%fs:40, %rax
 2488      25280000 
 2488      00
 2489 08f0 750D     		jne	.L164
 2490 08f2 4883EC80 		subq	$-128, %rsp
 2491              		.cfi_remember_state
 2492              		.cfi_def_cfa_offset 48
 2493 08f6 5B       		popq	%rbx
 2494              		.cfi_def_cfa_offset 40
 2495 08f7 5D       		popq	%rbp
 2496              		.cfi_def_cfa_offset 32
 2497 08f8 415C     		popq	%r12
 2498              		.cfi_def_cfa_offset 24
 2499 08fa 415D     		popq	%r13
 2500              		.cfi_def_cfa_offset 16
 2501 08fc 415E     		popq	%r14
 2502              		.cfi_def_cfa_offset 8
 2503 08fe C3       		ret
 2504              	.L164:
 2505              		.cfi_restore_state
 2506 08ff E8000000 		call	__stack_chk_fail@PLT
 2506      00
 2507              	.L161:
 2508 0904 F30F1EFA 		endbr64
 2509 0908 4889C7   		movq	%rax, %rdi
 2510 090b E9000000 		jmp	.L155
 2510      00
 2511              	.L160:
 2512 0910 F30F1EFA 		endbr64
 2513 0914 4889C5   		movq	%rax, %rbp
 2514 0917 E9000000 		jmp	.L153
 2514      00
 2515              	.L159:
 2516 091c F30F1EFA 		endbr64
 2517 0920 4889C5   		movq	%rax, %rbp
 2518 0923 E9000000 		jmp	.L154
 2518      00
 2519              		.section	.gcc_except_table
 2520              		.align 4
 2521              	.LLSDA1230:
 2522 01ac FF       		.byte	0xff
 2523 01ad 9B       		.byte	0x9b
 2524 01ae 29       		.uleb128 .LLSDATT1230-.LLSDATTD1230
 2525              	.LLSDATTD1230:
 2526 01af 01       		.byte	0x1
 2527 01b0 20       		.uleb128 .LLSDACSE1230-.LLSDACSB1230
 2528              	.LLSDACSB1230:
 2529 01b1 2F       		.uleb128 .LEHB59-.LFB1230
 2530 01b2 23       		.uleb128 .LEHE59-.LEHB59
 2531 01b3 00       		.uleb128 0
 2532 01b4 00       		.uleb128 0
 2533 01b5 68       		.uleb128 .LEHB60-.LFB1230
 2534 01b6 1A       		.uleb128 .LEHE60-.LEHB60
 2535 01b7 9C02     		.uleb128 .L159-.LFB1230
 2536 01b9 00       		.uleb128 0
 2537 01ba 8701     		.uleb128 .LEHB61-.LFB1230
 2538 01bc 05       		.uleb128 .LEHE61-.LEHB61
 2539 01bd 9002     		.uleb128 .L160-.LFB1230
 2540 01bf 00       		.uleb128 0
 2541 01c0 8F01     		.uleb128 .LEHB62-.LFB1230
 2542 01c2 05       		.uleb128 .LEHE62-.LEHB62
 2543 01c3 9C02     		.uleb128 .L159-.LFB1230
 2544 01c5 00       		.uleb128 0
 2545 01c6 9401     		.uleb128 .LEHB63-.LFB1230
 2546 01c8 0D       		.uleb128 .LEHE63-.LEHB63
 2547 01c9 00       		.uleb128 0
 2548 01ca 00       		.uleb128 0
 2549 01cb A401     		.uleb128 .LEHB64-.LFB1230
 2550 01cd 3E       		.uleb128 .LEHE64-.LEHB64
 2551 01ce 8402     		.uleb128 .L161-.LFB1230
 2552 01d0 01       		.uleb128 0x1
 2553              	.LLSDACSE1230:
 2554 01d1 01       		.byte	0x1
 2555 01d2 00       		.byte	0
 2556 01d3 00       		.align 4
 2557 01d4 00000000 		.long	0
 2558              	
 2559              	.LLSDATT1230:
 2560              		.text
 2561              		.cfi_endproc
 2562              		.section	.text.unlikely
 2563              		.cfi_startproc
 2564              		.cfi_personality 0x9b,DW.ref.__gxx_personality_v0
 2565              		.cfi_lsda 0x1b,.LLSDAC1230
 2567              	_ZNK12_GLOBAL__N_138TestTimeConstraintSucceedsWithFastTest7RunImplEv.cold:
 2568              	.LFSB1230:
 2569              	.L155:
 2570              		.cfi_def_cfa_offset 176
 2571              		.cfi_offset 3, -48
 2572              		.cfi_offset 6, -40
 2573              		.cfi_offset 12, -32
 2574              		.cfi_offset 13, -24
 2575              		.cfi_offset 14, -16
 2576 0290 E8000000 		call	__cxa_begin_catch@PLT
 2576      00
 2577              	.LEHB65:
 2578 0295 E8000000 		call	_ZN8UnitTest11CurrentTest7ResultsEv@PLT
 2578      00
 2579 029a 4C8B20   		movq	(%rax), %r12
 2580 029d E8000000 		call	_ZN8UnitTest11CurrentTest7DetailsEv@PLT
 2580      00
 2581 02a2 488B30   		movq	(%rax), %rsi
 2582 02a5 BA140000 		movl	$20, %edx
 2582      00
 2583 02aa 4889EF   		movq	%rbp, %rdi
 2584 02ad E8000000 		call	_ZN8UnitTest11TestDetailsC1ERKS0_i@PLT
 2584      00
 2585 02b2 488D1500 		leaq	.LC29(%rip), %rdx
 2585      000000
 2586 02b9 4889EE   		movq	%rbp, %rsi
 2587 02bc 4C89E7   		movq	%r12, %rdi
 2588 02bf E8000000 		call	_ZN8UnitTest11TestResults13OnTestFailureERKNS_11TestDetailsEPKc@PLT
 2588      00
 2589              	.LEHE65:
 2590              	.LEHB66:
 2591 02c4 E8000000 		call	__cxa_end_catch@PLT
 2591      00
 2592              	.LEHE66:
 2593 02c9 E9000000 		jmp	.L152
 2593      00
 2594              	.L153:
 2595 02ce 4C89E7   		movq	%r12, %rdi
 2596 02d1 E8000000 		call	_ZN8UnitTest14TimeConstraintD1Ev@PLT
 2596      00
 2597              	.L154:
 2598 02d6 4889E7   		movq	%rsp, %rdi
 2599 02d9 E8000000 		call	_ZN17ScopedCurrentTestD1Ev
 2599      00
 2600 02de 4889EF   		movq	%rbp, %rdi
 2601              	.LEHB67:
 2602 02e1 E8000000 		call	_Unwind_Resume@PLT
 2602      00
 2603              	.LEHE67:
 2604              	.L162:
 2605 02e6 F30F1EFA 		endbr64
 2606 02ea 4889C5   		movq	%rax, %rbp
 2607 02ed E8000000 		call	__cxa_end_catch@PLT
 2607      00
 2608 02f2 4889EF   		movq	%rbp, %rdi
 2609              	.LEHB68:
 2610 02f5 E8000000 		call	_Unwind_Resume@PLT
 2610      00
 2611              	.LEHE68:
 2612              		.cfi_endproc
 2613              	.LFE1230:
 2614              		.section	.gcc_except_table
 2615              		.align 4
 2616              	.LLSDAC1230:
 2617 01d8 FF       		.byte	0xff
 2618 01d9 9B       		.byte	0x9b
 2619 01da 19       		.uleb128 .LLSDATTC1230-.LLSDATTDC1230
 2620              	.LLSDATTDC1230:
 2621 01db 01       		.byte	0x1
 2622 01dc 10       		.uleb128 .LLSDACSEC1230-.LLSDACSBC1230
 2623              	.LLSDACSBC1230:
 2624 01dd 05       		.uleb128 .LEHB65-.LCOLDB30
 2625 01de 2F       		.uleb128 .LEHE65-.LEHB65
 2626 01df 56       		.uleb128 .L162-.LCOLDB30
 2627 01e0 00       		.uleb128 0
 2628 01e1 34       		.uleb128 .LEHB66-.LCOLDB30
 2629 01e2 05       		.uleb128 .LEHE66-.LEHB66
 2630 01e3 00       		.uleb128 0
 2631 01e4 00       		.uleb128 0
 2632 01e5 51       		.uleb128 .LEHB67-.LCOLDB30
 2633 01e6 05       		.uleb128 .LEHE67-.LEHB67
 2634 01e7 00       		.uleb128 0
 2635 01e8 00       		.uleb128 0
 2636 01e9 65       		.uleb128 .LEHB68-.LCOLDB30
 2637 01ea 05       		.uleb128 .LEHE68-.LEHB68
 2638 01eb 00       		.uleb128 0
 2639 01ec 00       		.uleb128 0
 2640              	.LLSDACSEC1230:
 2641 01ed 01       		.byte	0x1
 2642 01ee 00       		.byte	0
 2643 01ef 00       		.align 4
 2644 01f0 00000000 		.long	0
 2645              	
 2646              	.LLSDATTC1230:
 2647              		.section	.text.unlikely
 2648              		.text
 2650              		.section	.text.unlikely
 2652              	.LCOLDE30:
 2653              		.text
 2654              	.LHOTE30:
 2655              		.section	.rodata.str1.1
 2656              	.LC31:
 2657 0037 54657374 		.string	"TestTimeConstraint.cpp"
 2657      54696D65 
 2657      436F6E73 
 2657      74726169 
 2657      6E742E63 
 2658              	.LC32:
 2659 004e 44656661 		.string	"DefaultSuite"
 2659      756C7453 
 2659      75697465 
 2659      00
 2660              		.section	.rodata.str1.8
 2661              		.align 8
 2662              	.LC33:
 2663 02d8 54696D65 		.string	"TimeConstraintSucceedsWithFastTest"
 2663      436F6E73 
 2663      74726169 
 2663      6E745375 
 2663      63636565 
 2664 02fb 00000000 		.align 8
 2664      00
 2665              	.LC34:
 2666 0300 54696D65 		.string	"TimeConstraintFailsWithSlowTest"
 2666      436F6E73 
 2666      74726169 
 2666      6E744661 
 2666      696C7357 
 2667              		.align 8
 2668              	.LC35:
 2669 0320 54696D65 		.string	"TimeConstraintFailureIncludesCorrectData"
 2669      436F6E73 
 2669      74726169 
 2669      6E744661 
 2669      696C7572 
 2670 0349 00000000 		.align 8
 2670      000000
 2671              	.LC36:
 2672 0350 54696D65 		.string	"TimeConstraintFailureIncludesTimeoutInformation"
 2672      436F6E73 
 2672      74726169 
 2672      6E744661 
 2672      696C7572 
 2673              		.section	.text.startup,"ax",@progbits
 2674              		.p2align 4
 2676              	_GLOBAL__sub_I_TestTimeConstraint.cpp:
 2677              	.LFB1349:
 2678              		.cfi_startproc
 2679 0000 F30F1EFA 		endbr64
 2680 0004 4157     		pushq	%r15
 2681              		.cfi_def_cfa_offset 16
 2682              		.cfi_offset 15, -16
 2683 0006 4C8D3D00 		leaq	_ZN12_GLOBAL__N_146testTimeConstraintSucceedsWithFastTestInstanceE(%rip), %r15
 2683      000000
 2684 000d 41B80C00 		movl	$12, %r8d
 2684      0000
 2685 0013 488D3500 		leaq	.LC33(%rip), %rsi
 2685      000000
 2686 001a 4156     		pushq	%r14
 2687              		.cfi_def_cfa_offset 24
 2688              		.cfi_offset 14, -24
 2689 001c 4C8D3500 		leaq	.LC31(%rip), %r14
 2689      000000
 2690 0023 4C89FF   		movq	%r15, %rdi
 2691 0026 4155     		pushq	%r13
 2692              		.cfi_def_cfa_offset 32
 2693              		.cfi_offset 13, -32
 2694 0028 4C8D2D00 		leaq	.LC32(%rip), %r13
 2694      000000
 2695 002f 4C89F1   		movq	%r14, %rcx
 2696 0032 4154     		pushq	%r12
 2697              		.cfi_def_cfa_offset 40
 2698              		.cfi_offset 12, -40
 2699 0034 4C89EA   		movq	%r13, %rdx
 2700 0037 4C8D2500 		leaq	__dso_handle(%rip), %r12
 2700      000000
 2701 003e 4883EC08 		subq	$8, %rsp
 2702              		.cfi_def_cfa_offset 48
 2703 0042 E8000000 		call	_ZN8UnitTest4TestC2EPKcS2_S2_i@PLT
 2703      00
 2704 0047 4C89E2   		movq	%r12, %rdx
 2705 004a 4C89FE   		movq	%r15, %rsi
 2706 004d 488D3D00 		leaq	_ZN12_GLOBAL__N_138TestTimeConstraintSucceedsWithFastTestD1Ev(%rip), %rdi
 2706      000000
 2707 0054 488D0500 		leaq	16+_ZTVN12_GLOBAL__N_138TestTimeConstraintSucceedsWithFastTestE(%rip), %rax
 2707      000000
 2708 005b 48890500 		movq	%rax, _ZN12_GLOBAL__N_146testTimeConstraintSucceedsWithFastTestInstanceE(%rip)
 2708      000000
 2709 0062 E8000000 		call	__cxa_atexit@PLT
 2709      00
 2710 0067 E8000000 		call	_ZN8UnitTest4Test11GetTestListEv@PLT
 2710      00
 2711 006c 4C89FA   		movq	%r15, %rdx
 2712 006f 488D3D00 		leaq	_ZN12_GLOBAL__N_139adderTimeConstraintSucceedsWithFastTestE(%rip), %rdi
 2712      000000
 2713 0076 4C8D3D00 		leaq	_ZN12_GLOBAL__N_143testTimeConstraintFailsWithSlowTestInstanceE(%rip), %r15
 2713      000000
 2714 007d 4889C6   		movq	%rax, %rsi
 2715 0080 E8000000 		call	_ZN8UnitTest9ListAdderC1ERNS_8TestListEPNS_4TestE@PLT
 2715      00
 2716 0085 4C89F1   		movq	%r14, %rcx
 2717 0088 4C89EA   		movq	%r13, %rdx
 2718 008b 4C89FF   		movq	%r15, %rdi
 2719 008e 41B81700 		movl	$23, %r8d
 2719      0000
 2720 0094 488D3500 		leaq	.LC34(%rip), %rsi
 2720      000000
 2721 009b E8000000 		call	_ZN8UnitTest4TestC2EPKcS2_S2_i@PLT
 2721      00
 2722 00a0 4C89E2   		movq	%r12, %rdx
 2723 00a3 4C89FE   		movq	%r15, %rsi
 2724 00a6 488D3D00 		leaq	_ZN12_GLOBAL__N_135TestTimeConstraintFailsWithSlowTestD1Ev(%rip), %rdi
 2724      000000
 2725 00ad 488D0500 		leaq	16+_ZTVN12_GLOBAL__N_135TestTimeConstraintFailsWithSlowTestE(%rip), %rax
 2725      000000
 2726 00b4 48890500 		movq	%rax, _ZN12_GLOBAL__N_143testTimeConstraintFailsWithSlowTestInstanceE(%rip)
 2726      000000
 2727 00bb E8000000 		call	__cxa_atexit@PLT
 2727      00
 2728 00c0 E8000000 		call	_ZN8UnitTest4Test11GetTestListEv@PLT
 2728      00
 2729 00c5 4C89FA   		movq	%r15, %rdx
 2730 00c8 488D3D00 		leaq	_ZN12_GLOBAL__N_136adderTimeConstraintFailsWithSlowTestE(%rip), %rdi
 2730      000000
 2731 00cf 4C8D3D00 		leaq	_ZN12_GLOBAL__N_152testTimeConstraintFailureIncludesCorrectDataInstanceE(%rip), %r15
 2731      000000
 2732 00d6 4889C6   		movq	%rax, %rsi
 2733 00d9 E8000000 		call	_ZN8UnitTest9ListAdderC1ERNS_8TestListEPNS_4TestE@PLT
 2733      00
 2734 00de 4C89F1   		movq	%r14, %rcx
 2735 00e1 4C89EA   		movq	%r13, %rdx
 2736 00e4 4C89FF   		movq	%r15, %rdi
 2737 00e7 41B82200 		movl	$34, %r8d
 2737      0000
 2738 00ed 488D3500 		leaq	.LC35(%rip), %rsi
 2738      000000
 2739 00f4 E8000000 		call	_ZN8UnitTest4TestC2EPKcS2_S2_i@PLT
 2739      00
 2740 00f9 4C89E2   		movq	%r12, %rdx
 2741 00fc 4C89FE   		movq	%r15, %rsi
 2742 00ff 488D3D00 		leaq	_ZN12_GLOBAL__N_144TestTimeConstraintFailureIncludesCorrectDataD1Ev(%rip), %rdi
 2742      000000
 2743 0106 488D0500 		leaq	16+_ZTVN12_GLOBAL__N_144TestTimeConstraintFailureIncludesCorrectDataE(%rip), %rax
 2743      000000
 2744 010d 48890500 		movq	%rax, _ZN12_GLOBAL__N_152testTimeConstraintFailureIncludesCorrectDataInstanceE(%rip)
 2744      000000
 2745 0114 E8000000 		call	__cxa_atexit@PLT
 2745      00
 2746 0119 E8000000 		call	_ZN8UnitTest4Test11GetTestListEv@PLT
 2746      00
 2747 011e 4C89FA   		movq	%r15, %rdx
 2748 0121 488D3D00 		leaq	_ZN12_GLOBAL__N_145adderTimeConstraintFailureIncludesCorrectDataE(%rip), %rdi
 2748      000000
 2749 0128 4889C6   		movq	%rax, %rsi
 2750 012b E8000000 		call	_ZN8UnitTest9ListAdderC1ERNS_8TestListEPNS_4TestE@PLT
 2750      00
 2751 0130 4C89EA   		movq	%r13, %rdx
 2752 0133 4C89F1   		movq	%r14, %rcx
 2753 0136 4C8D2D00 		leaq	_ZN12_GLOBAL__N_159testTimeConstraintFailureIncludesTimeoutInformationInstanceE(%rip), %r13
 2753      000000
 2754 013d 41B83500 		movl	$53, %r8d
 2754      0000
 2755 0143 4C89EF   		movq	%r13, %rdi
 2756 0146 488D3500 		leaq	.LC36(%rip), %rsi
 2756      000000
 2757 014d E8000000 		call	_ZN8UnitTest4TestC2EPKcS2_S2_i@PLT
 2757      00
 2758 0152 4C89E2   		movq	%r12, %rdx
 2759 0155 4C89EE   		movq	%r13, %rsi
 2760 0158 488D3D00 		leaq	_ZN12_GLOBAL__N_151TestTimeConstraintFailureIncludesTimeoutInformationD1Ev(%rip), %rdi
 2760      000000
 2761 015f 488D0500 		leaq	16+_ZTVN12_GLOBAL__N_151TestTimeConstraintFailureIncludesTimeoutInformationE(%rip), %rax
 2761      000000
 2762 0166 48890500 		movq	%rax, _ZN12_GLOBAL__N_159testTimeConstraintFailureIncludesTimeoutInformationInstanceE(%rip)
 2762      000000
 2763 016d E8000000 		call	__cxa_atexit@PLT
 2763      00
 2764 0172 E8000000 		call	_ZN8UnitTest4Test11GetTestListEv@PLT
 2764      00
 2765 0177 4883C408 		addq	$8, %rsp
 2766              		.cfi_def_cfa_offset 40
 2767 017b 4C89EA   		movq	%r13, %rdx
 2768 017e 488D3D00 		leaq	_ZN12_GLOBAL__N_152adderTimeConstraintFailureIncludesTimeoutInformationE(%rip), %rdi
 2768      000000
 2769 0185 415C     		popq	%r12
 2770              		.cfi_def_cfa_offset 32
 2771 0187 4889C6   		movq	%rax, %rsi
 2772 018a 415D     		popq	%r13
 2773              		.cfi_def_cfa_offset 24
 2774 018c 415E     		popq	%r14
 2775              		.cfi_def_cfa_offset 16
 2776 018e 415F     		popq	%r15
 2777              		.cfi_def_cfa_offset 8
 2778 0190 E9000000 		jmp	_ZN8UnitTest9ListAdderC1ERNS_8TestListEPNS_4TestE@PLT
 2778      00
 2779              		.cfi_endproc
 2780              	.LFE1349:
 2782              		.section	.init_array,"aw"
 2783              		.align 8
 2784 0000 00000000 		.quad	_GLOBAL__sub_I_TestTimeConstraint.cpp
 2784      00000000 
 2785              		.weak	_ZTSN8UnitTest15MemoryOutStreamE
 2786              		.section	.rodata._ZTSN8UnitTest15MemoryOutStreamE,"aG",@progbits,_ZTSN8UnitTest15MemoryOutStreamE,
 2787              		.align 16
 2790              	_ZTSN8UnitTest15MemoryOutStreamE:
 2791 0000 4E38556E 		.string	"N8UnitTest15MemoryOutStreamE"
 2791      69745465 
 2791      73743135 
 2791      4D656D6F 
 2791      72794F75 
 2792              		.weak	_ZTIN8UnitTest15MemoryOutStreamE
 2793              		.section	.data.rel.ro._ZTIN8UnitTest15MemoryOutStreamE,"awG",@progbits,_ZTIN8UnitTest15MemoryOutSt
 2794              		.align 8
 2797              	_ZTIN8UnitTest15MemoryOutStreamE:
 2798 0000 00000000 		.quad	_ZTVN10__cxxabiv120__si_class_type_infoE+16
 2798      00000000 
 2799 0008 00000000 		.quad	_ZTSN8UnitTest15MemoryOutStreamE
 2799      00000000 
 2800 0010 00000000 		.quad	_ZTINSt7__cxx1119basic_ostringstreamIcSt11char_traitsIcESaIcEEE
 2800      00000000 
 2801              		.weak	_ZTS17RecordingReporter
 2802              		.section	.rodata._ZTS17RecordingReporter,"aG",@progbits,_ZTS17RecordingReporter,comdat
 2803              		.align 16
 2806              	_ZTS17RecordingReporter:
 2807 0000 31375265 		.string	"17RecordingReporter"
 2807      636F7264 
 2807      696E6752 
 2807      65706F72 
 2807      74657200 
 2808              		.weak	_ZTI17RecordingReporter
 2809              		.section	.data.rel.ro._ZTI17RecordingReporter,"awG",@progbits,_ZTI17RecordingReporter,comdat
 2810              		.align 8
 2813              	_ZTI17RecordingReporter:
 2814 0000 00000000 		.quad	_ZTVN10__cxxabiv120__si_class_type_infoE+16
 2814      00000000 
 2815 0008 00000000 		.quad	_ZTS17RecordingReporter
 2815      00000000 
 2816 0010 00000000 		.quad	_ZTIN8UnitTest12TestReporterE
 2816      00000000 
 2817              		.section	.data.rel.ro,"aw"
 2818              		.align 8
 2821              	_ZTIN12_GLOBAL__N_138TestTimeConstraintSucceedsWithFastTestE:
 2822 0000 00000000 		.quad	_ZTVN10__cxxabiv120__si_class_type_infoE+16
 2822      00000000 
 2823 0008 00000000 		.quad	_ZTSN12_GLOBAL__N_138TestTimeConstraintSucceedsWithFastTestE
 2823      00000000 
 2824 0010 00000000 		.quad	_ZTIN8UnitTest4TestE
 2824      00000000 
 2825              		.section	.rodata
 2826              		.align 32
 2829              	_ZTSN12_GLOBAL__N_138TestTimeConstraintSucceedsWithFastTestE:
 2830 0000 2A4E3132 		.string	"*N12_GLOBAL__N_138TestTimeConstraintSucceedsWithFastTestE"
 2830      5F474C4F 
 2830      42414C5F 
 2830      5F4E5F31 
 2830      33385465 
 2831              		.section	.data.rel.ro
 2832              		.align 8
 2835              	_ZTIN12_GLOBAL__N_135TestTimeConstraintFailsWithSlowTestE:
 2836 0018 00000000 		.quad	_ZTVN10__cxxabiv120__si_class_type_infoE+16
 2836      00000000 
 2837 0020 00000000 		.quad	_ZTSN12_GLOBAL__N_135TestTimeConstraintFailsWithSlowTestE
 2837      00000000 
 2838 0028 00000000 		.quad	_ZTIN8UnitTest4TestE
 2838      00000000 
 2839              		.section	.rodata
 2840 003a 00000000 		.align 32
 2840      0000
 2843              	_ZTSN12_GLOBAL__N_135TestTimeConstraintFailsWithSlowTestE:
 2844 0040 2A4E3132 		.string	"*N12_GLOBAL__N_135TestTimeConstraintFailsWithSlowTestE"
 2844      5F474C4F 
 2844      42414C5F 
 2844      5F4E5F31 
 2844      33355465 
 2845              		.section	.data.rel.ro
 2846              		.align 8
 2849              	_ZTIN12_GLOBAL__N_144TestTimeConstraintFailureIncludesCorrectDataE:
 2850 0030 00000000 		.quad	_ZTVN10__cxxabiv120__si_class_type_infoE+16
 2850      00000000 
 2851 0038 00000000 		.quad	_ZTSN12_GLOBAL__N_144TestTimeConstraintFailureIncludesCorrectDataE
 2851      00000000 
 2852 0040 00000000 		.quad	_ZTIN8UnitTest4TestE
 2852      00000000 
 2853              		.section	.rodata
 2854 0077 00000000 		.align 32
 2854      00000000 
 2854      00
 2857              	_ZTSN12_GLOBAL__N_144TestTimeConstraintFailureIncludesCorrectDataE:
 2858 0080 2A4E3132 		.string	"*N12_GLOBAL__N_144TestTimeConstraintFailureIncludesCorrectDataE"
 2858      5F474C4F 
 2858      42414C5F 
 2858      5F4E5F31 
 2858      34345465 
 2859              		.section	.data.rel.ro
 2860              		.align 8
 2863              	_ZTIN12_GLOBAL__N_151TestTimeConstraintFailureIncludesTimeoutInformationE:
 2864 0048 00000000 		.quad	_ZTVN10__cxxabiv120__si_class_type_infoE+16
 2864      00000000 
 2865 0050 00000000 		.quad	_ZTSN12_GLOBAL__N_151TestTimeConstraintFailureIncludesTimeoutInformationE
 2865      00000000 
 2866 0058 00000000 		.quad	_ZTIN8UnitTest4TestE
 2866      00000000 
 2867              		.section	.rodata
 2868              		.align 32
 2871              	_ZTSN12_GLOBAL__N_151TestTimeConstraintFailureIncludesTimeoutInformationE:
 2872 00c0 2A4E3132 		.string	"*N12_GLOBAL__N_151TestTimeConstraintFailureIncludesTimeoutInformationE"
 2872      5F474C4F 
 2872      42414C5F 
 2872      5F4E5F31 
 2872      35315465 
 2873              		.hidden	_ZTCN8UnitTest15MemoryOutStreamE0_So
 2874              		.weak	_ZTCN8UnitTest15MemoryOutStreamE0_So
 2875              		.section	.data.rel.ro._ZTCN8UnitTest15MemoryOutStreamE0_So,"awG",@progbits,_ZTVN8UnitTest15MemoryO
 2876              		.align 8
 2879              	_ZTCN8UnitTest15MemoryOutStreamE0_So:
 2880 0000 90000000 		.quad	144
 2880      00000000 
 2881 0008 00000000 		.quad	0
 2881      00000000 
 2882 0010 00000000 		.quad	_ZTISo
 2882      00000000 
 2883 0018 00000000 		.quad	0
 2883      00000000 
 2884 0020 00000000 		.quad	0
 2884      00000000 
 2885 0028 70FFFFFF 		.quad	-144
 2885      FFFFFFFF 
 2886 0030 70FFFFFF 		.quad	-144
 2886      FFFFFFFF 
 2887 0038 00000000 		.quad	_ZTISo
 2887      00000000 
 2888 0040 00000000 		.quad	0
 2888      00000000 
 2889 0048 00000000 		.quad	0
 2889      00000000 
 2890              		.hidden	_ZTCN8UnitTest15MemoryOutStreamE0_NSt7__cxx1119basic_ostringstreamIcSt11char_traitsIcESaIc
 2891              		.weak	_ZTCN8UnitTest15MemoryOutStreamE0_NSt7__cxx1119basic_ostringstreamIcSt11char_traitsIcESaIcEE
 2892              		.section	.data.rel.ro._ZTCN8UnitTest15MemoryOutStreamE0_NSt7__cxx1119basic_ostringstreamIcSt11char
 2893              		.align 8
 2896              	_ZTCN8UnitTest15MemoryOutStreamE0_NSt7__cxx1119basic_ostringstreamIcSt11char_traitsIcESaIcEEE:
 2897 0000 90000000 		.quad	144
 2897      00000000 
 2898 0008 00000000 		.quad	0
 2898      00000000 
 2899 0010 00000000 		.quad	_ZTINSt7__cxx1119basic_ostringstreamIcSt11char_traitsIcESaIcEEE
 2899      00000000 
 2900 0018 00000000 		.quad	0
 2900      00000000 
 2901 0020 00000000 		.quad	0
 2901      00000000 
 2902 0028 70FFFFFF 		.quad	-144
 2902      FFFFFFFF 
 2903 0030 70FFFFFF 		.quad	-144
 2903      FFFFFFFF 
 2904 0038 00000000 		.quad	_ZTINSt7__cxx1119basic_ostringstreamIcSt11char_traitsIcESaIcEEE
 2904      00000000 
 2905 0040 00000000 		.quad	0
 2905      00000000 
 2906 0048 00000000 		.quad	0
 2906      00000000 
 2907              		.weak	_ZTTN8UnitTest15MemoryOutStreamE
 2908              		.section	.data.rel.ro.local._ZTTN8UnitTest15MemoryOutStreamE,"awG",@progbits,_ZTVN8UnitTest15Memor
 2909              		.align 8
 2912              	_ZTTN8UnitTest15MemoryOutStreamE:
 2913 0000 00000000 		.quad	_ZTVN8UnitTest15MemoryOutStreamE+24
 2913      00000000 
 2914 0008 00000000 		.quad	_ZTCN8UnitTest15MemoryOutStreamE0_NSt7__cxx1119basic_ostringstreamIcSt11char_traitsIcESaIcEE
 2914      00000000 
 2915 0010 00000000 		.quad	_ZTCN8UnitTest15MemoryOutStreamE0_So+24
 2915      00000000 
 2916 0018 00000000 		.quad	_ZTCN8UnitTest15MemoryOutStreamE0_So+64
 2916      00000000 
 2917 0020 00000000 		.quad	_ZTCN8UnitTest15MemoryOutStreamE0_NSt7__cxx1119basic_ostringstreamIcSt11char_traitsIcESaIcEE
 2917      00000000 
 2918 0028 00000000 		.quad	_ZTVN8UnitTest15MemoryOutStreamE+64
 2918      00000000 
 2919              		.weak	_ZTVN8UnitTest15MemoryOutStreamE
 2920              		.section	.data.rel.ro.local._ZTVN8UnitTest15MemoryOutStreamE,"awG",@progbits,_ZTVN8UnitTest15Memor
 2921              		.align 8
 2924              	_ZTVN8UnitTest15MemoryOutStreamE:
 2925 0000 90000000 		.quad	144
 2925      00000000 
 2926 0008 00000000 		.quad	0
 2926      00000000 
 2927 0010 00000000 		.quad	_ZTIN8UnitTest15MemoryOutStreamE
 2927      00000000 
 2928 0018 00000000 		.quad	_ZN8UnitTest15MemoryOutStreamD1Ev
 2928      00000000 
 2929 0020 00000000 		.quad	_ZN8UnitTest15MemoryOutStreamD0Ev
 2929      00000000 
 2930 0028 70FFFFFF 		.quad	-144
 2930      FFFFFFFF 
 2931 0030 70FFFFFF 		.quad	-144
 2931      FFFFFFFF 
 2932 0038 00000000 		.quad	_ZTIN8UnitTest15MemoryOutStreamE
 2932      00000000 
 2933 0040 00000000 		.quad	_ZTv0_n24_N8UnitTest15MemoryOutStreamD1Ev
 2933      00000000 
 2934 0048 00000000 		.quad	_ZTv0_n24_N8UnitTest15MemoryOutStreamD0Ev
 2934      00000000 
 2935              		.weak	_ZTV17RecordingReporter
 2936              		.section	.data.rel.ro.local._ZTV17RecordingReporter,"awG",@progbits,_ZTV17RecordingReporter,comdat
 2937              		.align 8
 2940              	_ZTV17RecordingReporter:
 2941 0000 00000000 		.quad	0
 2941      00000000 
 2942 0008 00000000 		.quad	_ZTI17RecordingReporter
 2942      00000000 
 2943 0010 00000000 		.quad	_ZN17RecordingReporterD1Ev
 2943      00000000 
 2944 0018 00000000 		.quad	_ZN17RecordingReporterD0Ev
 2944      00000000 
 2945 0020 00000000 		.quad	_ZN17RecordingReporter15ReportTestStartERKN8UnitTest11TestDetailsE
 2945      00000000 
 2946 0028 00000000 		.quad	_ZN17RecordingReporter13ReportFailureERKN8UnitTest11TestDetailsEPKc
 2946      00000000 
 2947 0030 00000000 		.quad	_ZN17RecordingReporter16ReportTestFinishERKN8UnitTest11TestDetailsEf
 2947      00000000 
 2948 0038 00000000 		.quad	_ZN17RecordingReporter13ReportSummaryEiiif
 2948      00000000 
 2949              		.section	.data.rel.ro.local,"aw"
 2950              		.align 8
 2953              	_ZTVN12_GLOBAL__N_138TestTimeConstraintSucceedsWithFastTestE:
 2954 0000 00000000 		.quad	0
 2954      00000000 
 2955 0008 00000000 		.quad	_ZTIN12_GLOBAL__N_138TestTimeConstraintSucceedsWithFastTestE
 2955      00000000 
 2956 0010 00000000 		.quad	_ZN12_GLOBAL__N_138TestTimeConstraintSucceedsWithFastTestD1Ev
 2956      00000000 
 2957 0018 00000000 		.quad	_ZN12_GLOBAL__N_138TestTimeConstraintSucceedsWithFastTestD0Ev
 2957      00000000 
 2958 0020 00000000 		.quad	_ZNK12_GLOBAL__N_138TestTimeConstraintSucceedsWithFastTest7RunImplEv
 2958      00000000 
 2959              		.align 8
 2962              	_ZTVN12_GLOBAL__N_135TestTimeConstraintFailsWithSlowTestE:
 2963 0028 00000000 		.quad	0
 2963      00000000 
 2964 0030 00000000 		.quad	_ZTIN12_GLOBAL__N_135TestTimeConstraintFailsWithSlowTestE
 2964      00000000 
 2965 0038 00000000 		.quad	_ZN12_GLOBAL__N_135TestTimeConstraintFailsWithSlowTestD1Ev
 2965      00000000 
 2966 0040 00000000 		.quad	_ZN12_GLOBAL__N_135TestTimeConstraintFailsWithSlowTestD0Ev
 2966      00000000 
 2967 0048 00000000 		.quad	_ZNK12_GLOBAL__N_135TestTimeConstraintFailsWithSlowTest7RunImplEv
 2967      00000000 
 2968              		.align 8
 2971              	_ZTVN12_GLOBAL__N_144TestTimeConstraintFailureIncludesCorrectDataE:
 2972 0050 00000000 		.quad	0
 2972      00000000 
 2973 0058 00000000 		.quad	_ZTIN12_GLOBAL__N_144TestTimeConstraintFailureIncludesCorrectDataE
 2973      00000000 
 2974 0060 00000000 		.quad	_ZN12_GLOBAL__N_144TestTimeConstraintFailureIncludesCorrectDataD1Ev
 2974      00000000 
 2975 0068 00000000 		.quad	_ZN12_GLOBAL__N_144TestTimeConstraintFailureIncludesCorrectDataD0Ev
 2975      00000000 
 2976 0070 00000000 		.quad	_ZNK12_GLOBAL__N_144TestTimeConstraintFailureIncludesCorrectData7RunImplEv
 2976      00000000 
 2977              		.align 8
 2980              	_ZTVN12_GLOBAL__N_151TestTimeConstraintFailureIncludesTimeoutInformationE:
 2981 0078 00000000 		.quad	0
 2981      00000000 
 2982 0080 00000000 		.quad	_ZTIN12_GLOBAL__N_151TestTimeConstraintFailureIncludesTimeoutInformationE
 2982      00000000 
 2983 0088 00000000 		.quad	_ZN12_GLOBAL__N_151TestTimeConstraintFailureIncludesTimeoutInformationD1Ev
 2983      00000000 
 2984 0090 00000000 		.quad	_ZN12_GLOBAL__N_151TestTimeConstraintFailureIncludesTimeoutInformationD0Ev
 2984      00000000 
 2985 0098 00000000 		.quad	_ZNK12_GLOBAL__N_151TestTimeConstraintFailureIncludesTimeoutInformation7RunImplEv
 2985      00000000 
 2986              		.local	_ZN12_GLOBAL__N_152adderTimeConstraintFailureIncludesTimeoutInformationE
 2987              		.comm	_ZN12_GLOBAL__N_152adderTimeConstraintFailureIncludesTimeoutInformationE,1,1
 2988              		.local	_ZN12_GLOBAL__N_159testTimeConstraintFailureIncludesTimeoutInformationInstanceE
 2989              		.comm	_ZN12_GLOBAL__N_159testTimeConstraintFailureIncludesTimeoutInformationInstanceE,56,32
 2990              		.local	_ZN12_GLOBAL__N_145adderTimeConstraintFailureIncludesCorrectDataE
 2991              		.comm	_ZN12_GLOBAL__N_145adderTimeConstraintFailureIncludesCorrectDataE,1,1
 2992              		.local	_ZN12_GLOBAL__N_152testTimeConstraintFailureIncludesCorrectDataInstanceE
 2993              		.comm	_ZN12_GLOBAL__N_152testTimeConstraintFailureIncludesCorrectDataInstanceE,56,32
 2994              		.local	_ZN12_GLOBAL__N_136adderTimeConstraintFailsWithSlowTestE
 2995              		.comm	_ZN12_GLOBAL__N_136adderTimeConstraintFailsWithSlowTestE,1,1
 2996              		.local	_ZN12_GLOBAL__N_143testTimeConstraintFailsWithSlowTestInstanceE
 2997              		.comm	_ZN12_GLOBAL__N_143testTimeConstraintFailsWithSlowTestInstanceE,56,32
 2998              		.local	_ZN12_GLOBAL__N_139adderTimeConstraintSucceedsWithFastTestE
 2999              		.comm	_ZN12_GLOBAL__N_139adderTimeConstraintSucceedsWithFastTestE,1,1
 3000              		.local	_ZN12_GLOBAL__N_146testTimeConstraintSucceedsWithFastTestInstanceE
 3001              		.comm	_ZN12_GLOBAL__N_146testTimeConstraintSucceedsWithFastTestInstanceE,56,32
 3002              		.align 8
 3003              	.LC15:
 3004 00a0 00000000 		.quad	_ZTCN8UnitTest15MemoryOutStreamE0_NSt7__cxx1119basic_ostringstreamIcSt11char_traitsIcESaIcEE
 3004      00000000 
 3005              		.section	.data.rel.ro
 3006              		.align 8
 3007              	.LC16:
 3008 0060 00000000 		.quad	_ZTVSt15basic_streambufIcSt11char_traitsIcEE+16
 3008      00000000 
 3009              		.align 8
 3010              	.LC17:
 3011 0068 00000000 		.quad	_ZTVNSt7__cxx1115basic_stringbufIcSt11char_traitsIcESaIcEEE+16
 3011      00000000 
 3012              		.hidden	DW.ref.__gxx_personality_v0
 3013              		.weak	DW.ref.__gxx_personality_v0
 3014              		.section	.data.rel.local.DW.ref.__gxx_personality_v0,"awG",@progbits,DW.ref.__gxx_personality_v0,c
 3015              		.align 8
 3018              	DW.ref.__gxx_personality_v0:
 3019 0000 00000000 		.quad	__gxx_personality_v0
 3019      00000000 
 3020              		.hidden	__dso_handle
 3021              		.ident	"GCC: (Ubuntu 11.3.0-1ubuntu1~22.04) 11.3.0"
 3022              		.section	.note.GNU-stack,"",@progbits
 3023              		.section	.note.gnu.property,"a"
 3024              		.align 8
 3025 0000 04000000 		.long	1f - 0f
 3026 0004 10000000 		.long	4f - 1f
 3027 0008 05000000 		.long	5
 3028              	0:
 3029 000c 474E5500 		.string	"GNU"
 3030              	1:
 3031              		.align 8
 3032 0010 020000C0 		.long	0xc0000002
 3033 0014 04000000 		.long	3f - 2f
 3034              	2:
 3035 0018 03000000 		.long	0x3
 3036              	3:
 3037 001c 00000000 		.align 8
 3038              	4: