   1              		.file	"TestXmlTestReporter.cpp"
   2              		.text
   3              		.align 2
   4              		.p2align 4
   6              	_ZN12_GLOBAL__N_142TestXmlTestReporterFixtureMultipleFailuresD2Ev:
   7              	.LFB1675:
   8              		.cfi_startproc
   9 0000 F30F1EFA 		endbr64
  10 0004 488D0500 		leaq	16+_ZTVN12_GLOBAL__N_142TestXmlTestReporterFixtureMultipleFailuresE(%rip), %rax
  10      000000
  11 000b 488907   		movq	%rax, (%rdi)
  12 000e E9000000 		jmp	_ZN8UnitTest4TestD2Ev@PLT
  12      00
  13              		.cfi_endproc
  14              	.LFE1675:
  16              		.set	_ZN12_GLOBAL__N_142TestXmlTestReporterFixtureMultipleFailuresD1Ev,_ZN12_GLOBAL__N_142TestXmlT
  17 0013 90       		.align 2
  18 0014 66662E0F 		.p2align 4
  18      1F840000 
  18      00000090 
  20              	_ZN12_GLOBAL__N_149TestXmlTestReporterFixtureOneFailureAndOneSuccessD2Ev:
  21              	.LFB1679:
  22              		.cfi_startproc
  23 0020 F30F1EFA 		endbr64
  24 0024 488D0500 		leaq	16+_ZTVN12_GLOBAL__N_149TestXmlTestReporterFixtureOneFailureAndOneSuccessE(%rip), %rax
  24      000000
  25 002b 488907   		movq	%rax, (%rdi)
  26 002e E9000000 		jmp	_ZN8UnitTest4TestD2Ev@PLT
  26      00
  27              		.cfi_endproc
  28              	.LFE1679:
  30              		.set	_ZN12_GLOBAL__N_149TestXmlTestReporterFixtureOneFailureAndOneSuccessD1Ev,_ZN12_GLOBAL__N_149T
  31 0033 90       		.align 2
  32 0034 66662E0F 		.p2align 4
  32      1F840000 
  32      00000090 
  34              	_ZN12_GLOBAL__N_152TestXmlTestReporterFixtureFailureMessageIsXMLEscapedD2Ev:
  35              	.LFB1683:
  36              		.cfi_startproc
  37 0040 F30F1EFA 		endbr64
  38 0044 488D0500 		leaq	16+_ZTVN12_GLOBAL__N_152TestXmlTestReporterFixtureFailureMessageIsXMLEscapedE(%rip), %rax
  38      000000
  39 004b 488907   		movq	%rax, (%rdi)
  40 004e E9000000 		jmp	_ZN8UnitTest4TestD2Ev@PLT
  40      00
  41              		.cfi_endproc
  42              	.LFE1683:
  44              		.set	_ZN12_GLOBAL__N_152TestXmlTestReporterFixtureFailureMessageIsXMLEscapedD1Ev,_ZN12_GLOBAL__N_1
  45 0053 90       		.align 2
  46 0054 66662E0F 		.p2align 4
  46      1F840000 
  46      00000090 
  48              	_ZN12_GLOBAL__N_161TestXmlTestReporterFixtureSingleFailedTestReportSummaryFormatD2Ev:
  49              	.LFB1687:
  50              		.cfi_startproc
  51 0060 F30F1EFA 		endbr64
  52 0064 488D0500 		leaq	16+_ZTVN12_GLOBAL__N_161TestXmlTestReporterFixtureSingleFailedTestReportSummaryFormatE(%rip),
  52      000000
  53 006b 488907   		movq	%rax, (%rdi)
  54 006e E9000000 		jmp	_ZN8UnitTest4TestD2Ev@PLT
  54      00
  55              		.cfi_endproc
  56              	.LFE1687:
  58              		.set	_ZN12_GLOBAL__N_161TestXmlTestReporterFixtureSingleFailedTestReportSummaryFormatD1Ev,_ZN12_GL
  59 0073 90       		.align 2
  60 0074 66662E0F 		.p2align 4
  60      1F840000 
  60      00000090 
  62              	_ZN12_GLOBAL__N_165TestXmlTestReporterFixtureSingleSuccessfulTestReportSummaryFormatD2Ev:
  63              	.LFB1691:
  64              		.cfi_startproc
  65 0080 F30F1EFA 		endbr64
  66 0084 488D0500 		leaq	16+_ZTVN12_GLOBAL__N_165TestXmlTestReporterFixtureSingleSuccessfulTestReportSummaryFormatE(%r
  66      000000
  67 008b 488907   		movq	%rax, (%rdi)
  68 008e E9000000 		jmp	_ZN8UnitTest4TestD2Ev@PLT
  68      00
  69              		.cfi_endproc
  70              	.LFE1691:
  72              		.set	_ZN12_GLOBAL__N_165TestXmlTestReporterFixtureSingleSuccessfulTestReportSummaryFormatD1Ev,_ZN1
  73 0093 90       		.align 2
  74 0094 66662E0F 		.p2align 4
  74      1F840000 
  74      00000090 
  76              	_ZN12_GLOBAL__N_150TestXmlTestReporterFixtureEmptyReportSummaryFormatD2Ev:
  77              	.LFB1695:
  78              		.cfi_startproc
  79 00a0 F30F1EFA 		endbr64
  80 00a4 488D0500 		leaq	16+_ZTVN12_GLOBAL__N_150TestXmlTestReporterFixtureEmptyReportSummaryFormatE(%rip), %rax
  80      000000
  81 00ab 488907   		movq	%rax, (%rdi)
  82 00ae E9000000 		jmp	_ZN8UnitTest4TestD2Ev@PLT
  82      00
  83              		.cfi_endproc
  84              	.LFE1695:
  86              		.set	_ZN12_GLOBAL__N_150TestXmlTestReporterFixtureEmptyReportSummaryFormatD1Ev,_ZN12_GLOBAL__N_150
  87 00b3 90       		.align 2
  88 00b4 66662E0F 		.p2align 4
  88      1F840000 
  88      00000090 
  90              	_ZN12_GLOBAL__N_166TestXmlTestReporterFixtureOutputIsCachedUntilReportSummaryIsCalledD2Ev:
  91              	.LFB1699:
  92              		.cfi_startproc
  93 00c0 F30F1EFA 		endbr64
  94 00c4 488D0500 		leaq	16+_ZTVN12_GLOBAL__N_166TestXmlTestReporterFixtureOutputIsCachedUntilReportSummaryIsCalledE(%
  94      000000
  95 00cb 488907   		movq	%rax, (%rdi)
  96 00ce E9000000 		jmp	_ZN8UnitTest4TestD2Ev@PLT
  96      00
  97              		.cfi_endproc
  98              	.LFE1699:
 100              		.set	_ZN12_GLOBAL__N_166TestXmlTestReporterFixtureOutputIsCachedUntilReportSummaryIsCalledD1Ev,_ZN
 101 00d3 90       		.align 2
 102 00d4 66662E0F 		.p2align 4
 102      1F840000 
 102      00000090 
 104              	_ZN12_GLOBAL__N_154TestXmlTestReporterFixtureMultipleCharactersAreEscapedD2Ev:
 105              	.LFB1703:
 106              		.cfi_startproc
 107 00e0 F30F1EFA 		endbr64
 108 00e4 488D0500 		leaq	16+_ZTVN12_GLOBAL__N_154TestXmlTestReporterFixtureMultipleCharactersAreEscapedE(%rip), %rax
 108      000000
 109 00eb 488907   		movq	%rax, (%rdi)
 110 00ee E9000000 		jmp	_ZN8UnitTest4TestD2Ev@PLT
 110      00
 111              		.cfi_endproc
 112              	.LFE1703:
 114              		.set	_ZN12_GLOBAL__N_154TestXmlTestReporterFixtureMultipleCharactersAreEscapedD1Ev,_ZN12_GLOBAL__N
 115              		.section	.text.unlikely,"ax",@progbits
 116              		.align 2
 117              	.LCOLDB0:
 118              		.text
 119              	.LHOTB0:
 120 00f3 90       		.align 2
 121 00f4 66662E0F 		.p2align 4
 121      1F840000 
 121      00000090 
 123              	_ZN12_GLOBAL__N_142TestXmlTestReporterFixtureMultipleFailuresD0Ev:
 124              	.LFB1677:
 125              		.cfi_startproc
 126              		.cfi_personality 0x9b,DW.ref.__gxx_personality_v0
 127              		.cfi_lsda 0x1b,.LLSDA1677
 128 0100 F30F1EFA 		endbr64
 129 0104 4154     		pushq	%r12
 130              		.cfi_def_cfa_offset 16
 131              		.cfi_offset 12, -16
 132 0106 488D0500 		leaq	16+_ZTVN12_GLOBAL__N_142TestXmlTestReporterFixtureMultipleFailuresE(%rip), %rax
 132      000000
 133 010d 55       		pushq	%rbp
 134              		.cfi_def_cfa_offset 24
 135              		.cfi_offset 6, -24
 136 010e 4889FD   		movq	%rdi, %rbp
 137 0111 4883EC08 		subq	$8, %rsp
 138              		.cfi_def_cfa_offset 32
 139 0115 488907   		movq	%rax, (%rdi)
 140              	.LEHB0:
 141 0118 E8000000 		call	_ZN8UnitTest4TestD2Ev@PLT
 141      00
 142              	.LEHE0:
 143 011d 4883C408 		addq	$8, %rsp
 144              		.cfi_remember_state
 145              		.cfi_def_cfa_offset 24
 146 0121 4889EF   		movq	%rbp, %rdi
 147 0124 5D       		popq	%rbp
 148              		.cfi_def_cfa_offset 16
 149 0125 415C     		popq	%r12
 150              		.cfi_def_cfa_offset 8
 151 0127 E9000000 		jmp	_ZdlPv@PLT
 151      00
 152              	.L12:
 153              		.cfi_restore_state
 154 012c F30F1EFA 		endbr64
 155 0130 4989C4   		movq	%rax, %r12
 156 0133 E9000000 		jmp	.L11
 156      00
 157              		.globl	__gxx_personality_v0
 158              		.section	.gcc_except_table,"a",@progbits
 159              	.LLSDA1677:
 160 0000 FF       		.byte	0xff
 161 0001 FF       		.byte	0xff
 162 0002 01       		.byte	0x1
 163 0003 04       		.uleb128 .LLSDACSE1677-.LLSDACSB1677
 164              	.LLSDACSB1677:
 165 0004 18       		.uleb128 .LEHB0-.LFB1677
 166 0005 05       		.uleb128 .LEHE0-.LEHB0
 167 0006 2C       		.uleb128 .L12-.LFB1677
 168 0007 00       		.uleb128 0
 169              	.LLSDACSE1677:
 170              		.text
 171              		.cfi_endproc
 172              		.section	.text.unlikely
 173              		.cfi_startproc
 174              		.cfi_personality 0x9b,DW.ref.__gxx_personality_v0
 175              		.cfi_lsda 0x1b,.LLSDAC1677
 177              	_ZN12_GLOBAL__N_142TestXmlTestReporterFixtureMultipleFailuresD0Ev.cold:
 178              	.LFSB1677:
 179              	.L11:
 180              		.cfi_def_cfa_offset 32
 181              		.cfi_offset 6, -24
 182              		.cfi_offset 12, -16
 183 0000 4889EF   		movq	%rbp, %rdi
 184 0003 E8000000 		call	_ZdlPv@PLT
 184      00
 185 0008 4C89E7   		movq	%r12, %rdi
 186              	.LEHB1:
 187 000b E8000000 		call	_Unwind_Resume@PLT
 187      00
 188              	.LEHE1:
 189              		.cfi_endproc
 190              	.LFE1677:
 191              		.section	.gcc_except_table
 192              	.LLSDAC1677:
 193 0008 FF       		.byte	0xff
 194 0009 FF       		.byte	0xff
 195 000a 01       		.byte	0x1
 196 000b 04       		.uleb128 .LLSDACSEC1677-.LLSDACSBC1677
 197              	.LLSDACSBC1677:
 198 000c 0B       		.uleb128 .LEHB1-.LCOLDB0
 199 000d 05       		.uleb128 .LEHE1-.LEHB1
 200 000e 00       		.uleb128 0
 201 000f 00       		.uleb128 0
 202              	.LLSDACSEC1677:
 203              		.section	.text.unlikely
 204              		.text
 206              		.section	.text.unlikely
 208              	.LCOLDE0:
 209              		.text
 210              	.LHOTE0:
 211              		.section	.text.unlikely
 212              		.align 2
 213              	.LCOLDB1:
 214              		.text
 215              	.LHOTB1:
 216              		.align 2
 217 0138 0F1F8400 		.p2align 4
 217      00000000 
 219              	_ZN12_GLOBAL__N_149TestXmlTestReporterFixtureOneFailureAndOneSuccessD0Ev:
 220              	.LFB1681:
 221              		.cfi_startproc
 222              		.cfi_personality 0x9b,DW.ref.__gxx_personality_v0
 223              		.cfi_lsda 0x1b,.LLSDA1681
 224 0140 F30F1EFA 		endbr64
 225 0144 4154     		pushq	%r12
 226              		.cfi_def_cfa_offset 16
 227              		.cfi_offset 12, -16
 228 0146 488D0500 		leaq	16+_ZTVN12_GLOBAL__N_149TestXmlTestReporterFixtureOneFailureAndOneSuccessE(%rip), %rax
 228      000000
 229 014d 55       		pushq	%rbp
 230              		.cfi_def_cfa_offset 24
 231              		.cfi_offset 6, -24
 232 014e 4889FD   		movq	%rdi, %rbp
 233 0151 4883EC08 		subq	$8, %rsp
 234              		.cfi_def_cfa_offset 32
 235 0155 488907   		movq	%rax, (%rdi)
 236              	.LEHB2:
 237 0158 E8000000 		call	_ZN8UnitTest4TestD2Ev@PLT
 237      00
 238              	.LEHE2:
 239 015d 4883C408 		addq	$8, %rsp
 240              		.cfi_remember_state
 241              		.cfi_def_cfa_offset 24
 242 0161 4889EF   		movq	%rbp, %rdi
 243 0164 5D       		popq	%rbp
 244              		.cfi_def_cfa_offset 16
 245 0165 415C     		popq	%r12
 246              		.cfi_def_cfa_offset 8
 247 0167 E9000000 		jmp	_ZdlPv@PLT
 247      00
 248              	.L16:
 249              		.cfi_restore_state
 250 016c F30F1EFA 		endbr64
 251 0170 4989C4   		movq	%rax, %r12
 252 0173 E9000000 		jmp	.L15
 252      00
 253              		.section	.gcc_except_table
 254              	.LLSDA1681:
 255 0010 FF       		.byte	0xff
 256 0011 FF       		.byte	0xff
 257 0012 01       		.byte	0x1
 258 0013 04       		.uleb128 .LLSDACSE1681-.LLSDACSB1681
 259              	.LLSDACSB1681:
 260 0014 18       		.uleb128 .LEHB2-.LFB1681
 261 0015 05       		.uleb128 .LEHE2-.LEHB2
 262 0016 2C       		.uleb128 .L16-.LFB1681
 263 0017 00       		.uleb128 0
 264              	.LLSDACSE1681:
 265              		.text
 266              		.cfi_endproc
 267              		.section	.text.unlikely
 268              		.cfi_startproc
 269              		.cfi_personality 0x9b,DW.ref.__gxx_personality_v0
 270              		.cfi_lsda 0x1b,.LLSDAC1681
 272              	_ZN12_GLOBAL__N_149TestXmlTestReporterFixtureOneFailureAndOneSuccessD0Ev.cold:
 273              	.LFSB1681:
 274              	.L15:
 275              		.cfi_def_cfa_offset 32
 276              		.cfi_offset 6, -24
 277              		.cfi_offset 12, -16
 278 0010 4889EF   		movq	%rbp, %rdi
 279 0013 E8000000 		call	_ZdlPv@PLT
 279      00
 280 0018 4C89E7   		movq	%r12, %rdi
 281              	.LEHB3:
 282 001b E8000000 		call	_Unwind_Resume@PLT
 282      00
 283              	.LEHE3:
 284              		.cfi_endproc
 285              	.LFE1681:
 286              		.section	.gcc_except_table
 287              	.LLSDAC1681:
 288 0018 FF       		.byte	0xff
 289 0019 FF       		.byte	0xff
 290 001a 01       		.byte	0x1
 291 001b 04       		.uleb128 .LLSDACSEC1681-.LLSDACSBC1681
 292              	.LLSDACSBC1681:
 293 001c 0B       		.uleb128 .LEHB3-.LCOLDB1
 294 001d 05       		.uleb128 .LEHE3-.LEHB3
 295 001e 00       		.uleb128 0
 296 001f 00       		.uleb128 0
 297              	.LLSDACSEC1681:
 298              		.section	.text.unlikely
 299              		.text
 301              		.section	.text.unlikely
 303              	.LCOLDE1:
 304              		.text
 305              	.LHOTE1:
 306              		.section	.text.unlikely
 307              		.align 2
 308              	.LCOLDB2:
 309              		.text
 310              	.LHOTB2:
 311              		.align 2
 312 0178 0F1F8400 		.p2align 4
 312      00000000 
 314              	_ZN12_GLOBAL__N_152TestXmlTestReporterFixtureFailureMessageIsXMLEscapedD0Ev:
 315              	.LFB1685:
 316              		.cfi_startproc
 317              		.cfi_personality 0x9b,DW.ref.__gxx_personality_v0
 318              		.cfi_lsda 0x1b,.LLSDA1685
 319 0180 F30F1EFA 		endbr64
 320 0184 4154     		pushq	%r12
 321              		.cfi_def_cfa_offset 16
 322              		.cfi_offset 12, -16
 323 0186 488D0500 		leaq	16+_ZTVN12_GLOBAL__N_152TestXmlTestReporterFixtureFailureMessageIsXMLEscapedE(%rip), %rax
 323      000000
 324 018d 55       		pushq	%rbp
 325              		.cfi_def_cfa_offset 24
 326              		.cfi_offset 6, -24
 327 018e 4889FD   		movq	%rdi, %rbp
 328 0191 4883EC08 		subq	$8, %rsp
 329              		.cfi_def_cfa_offset 32
 330 0195 488907   		movq	%rax, (%rdi)
 331              	.LEHB4:
 332 0198 E8000000 		call	_ZN8UnitTest4TestD2Ev@PLT
 332      00
 333              	.LEHE4:
 334 019d 4883C408 		addq	$8, %rsp
 335              		.cfi_remember_state
 336              		.cfi_def_cfa_offset 24
 337 01a1 4889EF   		movq	%rbp, %rdi
 338 01a4 5D       		popq	%rbp
 339              		.cfi_def_cfa_offset 16
 340 01a5 415C     		popq	%r12
 341              		.cfi_def_cfa_offset 8
 342 01a7 E9000000 		jmp	_ZdlPv@PLT
 342      00
 343              	.L20:
 344              		.cfi_restore_state
 345 01ac F30F1EFA 		endbr64
 346 01b0 4989C4   		movq	%rax, %r12
 347 01b3 E9000000 		jmp	.L19
 347      00
 348              		.section	.gcc_except_table
 349              	.LLSDA1685:
 350 0020 FF       		.byte	0xff
 351 0021 FF       		.byte	0xff
 352 0022 01       		.byte	0x1
 353 0023 04       		.uleb128 .LLSDACSE1685-.LLSDACSB1685
 354              	.LLSDACSB1685:
 355 0024 18       		.uleb128 .LEHB4-.LFB1685
 356 0025 05       		.uleb128 .LEHE4-.LEHB4
 357 0026 2C       		.uleb128 .L20-.LFB1685
 358 0027 00       		.uleb128 0
 359              	.LLSDACSE1685:
 360              		.text
 361              		.cfi_endproc
 362              		.section	.text.unlikely
 363              		.cfi_startproc
 364              		.cfi_personality 0x9b,DW.ref.__gxx_personality_v0
 365              		.cfi_lsda 0x1b,.LLSDAC1685
 367              	_ZN12_GLOBAL__N_152TestXmlTestReporterFixtureFailureMessageIsXMLEscapedD0Ev.cold:
 368              	.LFSB1685:
 369              	.L19:
 370              		.cfi_def_cfa_offset 32
 371              		.cfi_offset 6, -24
 372              		.cfi_offset 12, -16
 373 0020 4889EF   		movq	%rbp, %rdi
 374 0023 E8000000 		call	_ZdlPv@PLT
 374      00
 375 0028 4C89E7   		movq	%r12, %rdi
 376              	.LEHB5:
 377 002b E8000000 		call	_Unwind_Resume@PLT
 377      00
 378              	.LEHE5:
 379              		.cfi_endproc
 380              	.LFE1685:
 381              		.section	.gcc_except_table
 382              	.LLSDAC1685:
 383 0028 FF       		.byte	0xff
 384 0029 FF       		.byte	0xff
 385 002a 01       		.byte	0x1
 386 002b 04       		.uleb128 .LLSDACSEC1685-.LLSDACSBC1685
 387              	.LLSDACSBC1685:
 388 002c 0B       		.uleb128 .LEHB5-.LCOLDB2
 389 002d 05       		.uleb128 .LEHE5-.LEHB5
 390 002e 00       		.uleb128 0
 391 002f 00       		.uleb128 0
 392              	.LLSDACSEC1685:
 393              		.section	.text.unlikely
 394              		.text
 396              		.section	.text.unlikely
 398              	.LCOLDE2:
 399              		.text
 400              	.LHOTE2:
 401              		.section	.text.unlikely
 402              		.align 2
 403              	.LCOLDB3:
 404              		.text
 405              	.LHOTB3:
 406              		.align 2
 407 01b8 0F1F8400 		.p2align 4
 407      00000000 
 409              	_ZN12_GLOBAL__N_161TestXmlTestReporterFixtureSingleFailedTestReportSummaryFormatD0Ev:
 410              	.LFB1689:
 411              		.cfi_startproc
 412              		.cfi_personality 0x9b,DW.ref.__gxx_personality_v0
 413              		.cfi_lsda 0x1b,.LLSDA1689
 414 01c0 F30F1EFA 		endbr64
 415 01c4 4154     		pushq	%r12
 416              		.cfi_def_cfa_offset 16
 417              		.cfi_offset 12, -16
 418 01c6 488D0500 		leaq	16+_ZTVN12_GLOBAL__N_161TestXmlTestReporterFixtureSingleFailedTestReportSummaryFormatE(%rip),
 418      000000
 419 01cd 55       		pushq	%rbp
 420              		.cfi_def_cfa_offset 24
 421              		.cfi_offset 6, -24
 422 01ce 4889FD   		movq	%rdi, %rbp
 423 01d1 4883EC08 		subq	$8, %rsp
 424              		.cfi_def_cfa_offset 32
 425 01d5 488907   		movq	%rax, (%rdi)
 426              	.LEHB6:
 427 01d8 E8000000 		call	_ZN8UnitTest4TestD2Ev@PLT
 427      00
 428              	.LEHE6:
 429 01dd 4883C408 		addq	$8, %rsp
 430              		.cfi_remember_state
 431              		.cfi_def_cfa_offset 24
 432 01e1 4889EF   		movq	%rbp, %rdi
 433 01e4 5D       		popq	%rbp
 434              		.cfi_def_cfa_offset 16
 435 01e5 415C     		popq	%r12
 436              		.cfi_def_cfa_offset 8
 437 01e7 E9000000 		jmp	_ZdlPv@PLT
 437      00
 438              	.L24:
 439              		.cfi_restore_state
 440 01ec F30F1EFA 		endbr64
 441 01f0 4989C4   		movq	%rax, %r12
 442 01f3 E9000000 		jmp	.L23
 442      00
 443              		.section	.gcc_except_table
 444              	.LLSDA1689:
 445 0030 FF       		.byte	0xff
 446 0031 FF       		.byte	0xff
 447 0032 01       		.byte	0x1
 448 0033 04       		.uleb128 .LLSDACSE1689-.LLSDACSB1689
 449              	.LLSDACSB1689:
 450 0034 18       		.uleb128 .LEHB6-.LFB1689
 451 0035 05       		.uleb128 .LEHE6-.LEHB6
 452 0036 2C       		.uleb128 .L24-.LFB1689
 453 0037 00       		.uleb128 0
 454              	.LLSDACSE1689:
 455              		.text
 456              		.cfi_endproc
 457              		.section	.text.unlikely
 458              		.cfi_startproc
 459              		.cfi_personality 0x9b,DW.ref.__gxx_personality_v0
 460              		.cfi_lsda 0x1b,.LLSDAC1689
 462              	_ZN12_GLOBAL__N_161TestXmlTestReporterFixtureSingleFailedTestReportSummaryFormatD0Ev.cold:
 463              	.LFSB1689:
 464              	.L23:
 465              		.cfi_def_cfa_offset 32
 466              		.cfi_offset 6, -24
 467              		.cfi_offset 12, -16
 468 0030 4889EF   		movq	%rbp, %rdi
 469 0033 E8000000 		call	_ZdlPv@PLT
 469      00
 470 0038 4C89E7   		movq	%r12, %rdi
 471              	.LEHB7:
 472 003b E8000000 		call	_Unwind_Resume@PLT
 472      00
 473              	.LEHE7:
 474              		.cfi_endproc
 475              	.LFE1689:
 476              		.section	.gcc_except_table
 477              	.LLSDAC1689:
 478 0038 FF       		.byte	0xff
 479 0039 FF       		.byte	0xff
 480 003a 01       		.byte	0x1
 481 003b 04       		.uleb128 .LLSDACSEC1689-.LLSDACSBC1689
 482              	.LLSDACSBC1689:
 483 003c 0B       		.uleb128 .LEHB7-.LCOLDB3
 484 003d 05       		.uleb128 .LEHE7-.LEHB7
 485 003e 00       		.uleb128 0
 486 003f 00       		.uleb128 0
 487              	.LLSDACSEC1689:
 488              		.section	.text.unlikely
 489              		.text
 491              		.section	.text.unlikely
 493              	.LCOLDE3:
 494              		.text
 495              	.LHOTE3:
 496              		.section	.text.unlikely
 497              		.align 2
 498              	.LCOLDB4:
 499              		.text
 500              	.LHOTB4:
 501              		.align 2
 502 01f8 0F1F8400 		.p2align 4
 502      00000000 
 504              	_ZN12_GLOBAL__N_165TestXmlTestReporterFixtureSingleSuccessfulTestReportSummaryFormatD0Ev:
 505              	.LFB1693:
 506              		.cfi_startproc
 507              		.cfi_personality 0x9b,DW.ref.__gxx_personality_v0
 508              		.cfi_lsda 0x1b,.LLSDA1693
 509 0200 F30F1EFA 		endbr64
 510 0204 4154     		pushq	%r12
 511              		.cfi_def_cfa_offset 16
 512              		.cfi_offset 12, -16
 513 0206 488D0500 		leaq	16+_ZTVN12_GLOBAL__N_165TestXmlTestReporterFixtureSingleSuccessfulTestReportSummaryFormatE(%r
 513      000000
 514 020d 55       		pushq	%rbp
 515              		.cfi_def_cfa_offset 24
 516              		.cfi_offset 6, -24
 517 020e 4889FD   		movq	%rdi, %rbp
 518 0211 4883EC08 		subq	$8, %rsp
 519              		.cfi_def_cfa_offset 32
 520 0215 488907   		movq	%rax, (%rdi)
 521              	.LEHB8:
 522 0218 E8000000 		call	_ZN8UnitTest4TestD2Ev@PLT
 522      00
 523              	.LEHE8:
 524 021d 4883C408 		addq	$8, %rsp
 525              		.cfi_remember_state
 526              		.cfi_def_cfa_offset 24
 527 0221 4889EF   		movq	%rbp, %rdi
 528 0224 5D       		popq	%rbp
 529              		.cfi_def_cfa_offset 16
 530 0225 415C     		popq	%r12
 531              		.cfi_def_cfa_offset 8
 532 0227 E9000000 		jmp	_ZdlPv@PLT
 532      00
 533              	.L28:
 534              		.cfi_restore_state
 535 022c F30F1EFA 		endbr64
 536 0230 4989C4   		movq	%rax, %r12
 537 0233 E9000000 		jmp	.L27
 537      00
 538              		.section	.gcc_except_table
 539              	.LLSDA1693:
 540 0040 FF       		.byte	0xff
 541 0041 FF       		.byte	0xff
 542 0042 01       		.byte	0x1
 543 0043 04       		.uleb128 .LLSDACSE1693-.LLSDACSB1693
 544              	.LLSDACSB1693:
 545 0044 18       		.uleb128 .LEHB8-.LFB1693
 546 0045 05       		.uleb128 .LEHE8-.LEHB8
 547 0046 2C       		.uleb128 .L28-.LFB1693
 548 0047 00       		.uleb128 0
 549              	.LLSDACSE1693:
 550              		.text
 551              		.cfi_endproc
 552              		.section	.text.unlikely
 553              		.cfi_startproc
 554              		.cfi_personality 0x9b,DW.ref.__gxx_personality_v0
 555              		.cfi_lsda 0x1b,.LLSDAC1693
 557              	_ZN12_GLOBAL__N_165TestXmlTestReporterFixtureSingleSuccessfulTestReportSummaryFormatD0Ev.cold:
 558              	.LFSB1693:
 559              	.L27:
 560              		.cfi_def_cfa_offset 32
 561              		.cfi_offset 6, -24
 562              		.cfi_offset 12, -16
 563 0040 4889EF   		movq	%rbp, %rdi
 564 0043 E8000000 		call	_ZdlPv@PLT
 564      00
 565 0048 4C89E7   		movq	%r12, %rdi
 566              	.LEHB9:
 567 004b E8000000 		call	_Unwind_Resume@PLT
 567      00
 568              	.LEHE9:
 569              		.cfi_endproc
 570              	.LFE1693:
 571              		.section	.gcc_except_table
 572              	.LLSDAC1693:
 573 0048 FF       		.byte	0xff
 574 0049 FF       		.byte	0xff
 575 004a 01       		.byte	0x1
 576 004b 04       		.uleb128 .LLSDACSEC1693-.LLSDACSBC1693
 577              	.LLSDACSBC1693:
 578 004c 0B       		.uleb128 .LEHB9-.LCOLDB4
 579 004d 05       		.uleb128 .LEHE9-.LEHB9
 580 004e 00       		.uleb128 0
 581 004f 00       		.uleb128 0
 582              	.LLSDACSEC1693:
 583              		.section	.text.unlikely
 584              		.text
 586              		.section	.text.unlikely
 588              	.LCOLDE4:
 589              		.text
 590              	.LHOTE4:
 591              		.section	.text.unlikely
 592              		.align 2
 593              	.LCOLDB5:
 594              		.text
 595              	.LHOTB5:
 596              		.align 2
 597 0238 0F1F8400 		.p2align 4
 597      00000000 
 599              	_ZN12_GLOBAL__N_150TestXmlTestReporterFixtureEmptyReportSummaryFormatD0Ev:
 600              	.LFB1697:
 601              		.cfi_startproc
 602              		.cfi_personality 0x9b,DW.ref.__gxx_personality_v0
 603              		.cfi_lsda 0x1b,.LLSDA1697
 604 0240 F30F1EFA 		endbr64
 605 0244 4154     		pushq	%r12
 606              		.cfi_def_cfa_offset 16
 607              		.cfi_offset 12, -16
 608 0246 488D0500 		leaq	16+_ZTVN12_GLOBAL__N_150TestXmlTestReporterFixtureEmptyReportSummaryFormatE(%rip), %rax
 608      000000
 609 024d 55       		pushq	%rbp
 610              		.cfi_def_cfa_offset 24
 611              		.cfi_offset 6, -24
 612 024e 4889FD   		movq	%rdi, %rbp
 613 0251 4883EC08 		subq	$8, %rsp
 614              		.cfi_def_cfa_offset 32
 615 0255 488907   		movq	%rax, (%rdi)
 616              	.LEHB10:
 617 0258 E8000000 		call	_ZN8UnitTest4TestD2Ev@PLT
 617      00
 618              	.LEHE10:
 619 025d 4883C408 		addq	$8, %rsp
 620              		.cfi_remember_state
 621              		.cfi_def_cfa_offset 24
 622 0261 4889EF   		movq	%rbp, %rdi
 623 0264 5D       		popq	%rbp
 624              		.cfi_def_cfa_offset 16
 625 0265 415C     		popq	%r12
 626              		.cfi_def_cfa_offset 8
 627 0267 E9000000 		jmp	_ZdlPv@PLT
 627      00
 628              	.L32:
 629              		.cfi_restore_state
 630 026c F30F1EFA 		endbr64
 631 0270 4989C4   		movq	%rax, %r12
 632 0273 E9000000 		jmp	.L31
 632      00
 633              		.section	.gcc_except_table
 634              	.LLSDA1697:
 635 0050 FF       		.byte	0xff
 636 0051 FF       		.byte	0xff
 637 0052 01       		.byte	0x1
 638 0053 04       		.uleb128 .LLSDACSE1697-.LLSDACSB1697
 639              	.LLSDACSB1697:
 640 0054 18       		.uleb128 .LEHB10-.LFB1697
 641 0055 05       		.uleb128 .LEHE10-.LEHB10
 642 0056 2C       		.uleb128 .L32-.LFB1697
 643 0057 00       		.uleb128 0
 644              	.LLSDACSE1697:
 645              		.text
 646              		.cfi_endproc
 647              		.section	.text.unlikely
 648              		.cfi_startproc
 649              		.cfi_personality 0x9b,DW.ref.__gxx_personality_v0
 650              		.cfi_lsda 0x1b,.LLSDAC1697
 652              	_ZN12_GLOBAL__N_150TestXmlTestReporterFixtureEmptyReportSummaryFormatD0Ev.cold:
 653              	.LFSB1697:
 654              	.L31:
 655              		.cfi_def_cfa_offset 32
 656              		.cfi_offset 6, -24
 657              		.cfi_offset 12, -16
 658 0050 4889EF   		movq	%rbp, %rdi
 659 0053 E8000000 		call	_ZdlPv@PLT
 659      00
 660 0058 4C89E7   		movq	%r12, %rdi
 661              	.LEHB11:
 662 005b E8000000 		call	_Unwind_Resume@PLT
 662      00
 663              	.LEHE11:
 664              		.cfi_endproc
 665              	.LFE1697:
 666              		.section	.gcc_except_table
 667              	.LLSDAC1697:
 668 0058 FF       		.byte	0xff
 669 0059 FF       		.byte	0xff
 670 005a 01       		.byte	0x1
 671 005b 04       		.uleb128 .LLSDACSEC1697-.LLSDACSBC1697
 672              	.LLSDACSBC1697:
 673 005c 0B       		.uleb128 .LEHB11-.LCOLDB5
 674 005d 05       		.uleb128 .LEHE11-.LEHB11
 675 005e 00       		.uleb128 0
 676 005f 00       		.uleb128 0
 677              	.LLSDACSEC1697:
 678              		.section	.text.unlikely
 679              		.text
 681              		.section	.text.unlikely
 683              	.LCOLDE5:
 684              		.text
 685              	.LHOTE5:
 686              		.section	.text.unlikely
 687              		.align 2
 688              	.LCOLDB6:
 689              		.text
 690              	.LHOTB6:
 691              		.align 2
 692 0278 0F1F8400 		.p2align 4
 692      00000000 
 694              	_ZN12_GLOBAL__N_166TestXmlTestReporterFixtureOutputIsCachedUntilReportSummaryIsCalledD0Ev:
 695              	.LFB1701:
 696              		.cfi_startproc
 697              		.cfi_personality 0x9b,DW.ref.__gxx_personality_v0
 698              		.cfi_lsda 0x1b,.LLSDA1701
 699 0280 F30F1EFA 		endbr64
 700 0284 4154     		pushq	%r12
 701              		.cfi_def_cfa_offset 16
 702              		.cfi_offset 12, -16
 703 0286 488D0500 		leaq	16+_ZTVN12_GLOBAL__N_166TestXmlTestReporterFixtureOutputIsCachedUntilReportSummaryIsCalledE(%
 703      000000
 704 028d 55       		pushq	%rbp
 705              		.cfi_def_cfa_offset 24
 706              		.cfi_offset 6, -24
 707 028e 4889FD   		movq	%rdi, %rbp
 708 0291 4883EC08 		subq	$8, %rsp
 709              		.cfi_def_cfa_offset 32
 710 0295 488907   		movq	%rax, (%rdi)
 711              	.LEHB12:
 712 0298 E8000000 		call	_ZN8UnitTest4TestD2Ev@PLT
 712      00
 713              	.LEHE12:
 714 029d 4883C408 		addq	$8, %rsp
 715              		.cfi_remember_state
 716              		.cfi_def_cfa_offset 24
 717 02a1 4889EF   		movq	%rbp, %rdi
 718 02a4 5D       		popq	%rbp
 719              		.cfi_def_cfa_offset 16
 720 02a5 415C     		popq	%r12
 721              		.cfi_def_cfa_offset 8
 722 02a7 E9000000 		jmp	_ZdlPv@PLT
 722      00
 723              	.L36:
 724              		.cfi_restore_state
 725 02ac F30F1EFA 		endbr64
 726 02b0 4989C4   		movq	%rax, %r12
 727 02b3 E9000000 		jmp	.L35
 727      00
 728              		.section	.gcc_except_table
 729              	.LLSDA1701:
 730 0060 FF       		.byte	0xff
 731 0061 FF       		.byte	0xff
 732 0062 01       		.byte	0x1
 733 0063 04       		.uleb128 .LLSDACSE1701-.LLSDACSB1701
 734              	.LLSDACSB1701:
 735 0064 18       		.uleb128 .LEHB12-.LFB1701
 736 0065 05       		.uleb128 .LEHE12-.LEHB12
 737 0066 2C       		.uleb128 .L36-.LFB1701
 738 0067 00       		.uleb128 0
 739              	.LLSDACSE1701:
 740              		.text
 741              		.cfi_endproc
 742              		.section	.text.unlikely
 743              		.cfi_startproc
 744              		.cfi_personality 0x9b,DW.ref.__gxx_personality_v0
 745              		.cfi_lsda 0x1b,.LLSDAC1701
 747              	_ZN12_GLOBAL__N_166TestXmlTestReporterFixtureOutputIsCachedUntilReportSummaryIsCalledD0Ev.cold:
 748              	.LFSB1701:
 749              	.L35:
 750              		.cfi_def_cfa_offset 32
 751              		.cfi_offset 6, -24
 752              		.cfi_offset 12, -16
 753 0060 4889EF   		movq	%rbp, %rdi
 754 0063 E8000000 		call	_ZdlPv@PLT
 754      00
 755 0068 4C89E7   		movq	%r12, %rdi
 756              	.LEHB13:
 757 006b E8000000 		call	_Unwind_Resume@PLT
 757      00
 758              	.LEHE13:
 759              		.cfi_endproc
 760              	.LFE1701:
 761              		.section	.gcc_except_table
 762              	.LLSDAC1701:
 763 0068 FF       		.byte	0xff
 764 0069 FF       		.byte	0xff
 765 006a 01       		.byte	0x1
 766 006b 04       		.uleb128 .LLSDACSEC1701-.LLSDACSBC1701
 767              	.LLSDACSBC1701:
 768 006c 0B       		.uleb128 .LEHB13-.LCOLDB6
 769 006d 05       		.uleb128 .LEHE13-.LEHB13
 770 006e 00       		.uleb128 0
 771 006f 00       		.uleb128 0
 772              	.LLSDACSEC1701:
 773              		.section	.text.unlikely
 774              		.text
 776              		.section	.text.unlikely
 778              	.LCOLDE6:
 779              		.text
 780              	.LHOTE6:
 781              		.section	.text.unlikely
 782              		.align 2
 783              	.LCOLDB7:
 784              		.text
 785              	.LHOTB7:
 786              		.align 2
 787 02b8 0F1F8400 		.p2align 4
 787      00000000 
 789              	_ZN12_GLOBAL__N_154TestXmlTestReporterFixtureMultipleCharactersAreEscapedD0Ev:
 790              	.LFB1705:
 791              		.cfi_startproc
 792              		.cfi_personality 0x9b,DW.ref.__gxx_personality_v0
 793              		.cfi_lsda 0x1b,.LLSDA1705
 794 02c0 F30F1EFA 		endbr64
 795 02c4 4154     		pushq	%r12
 796              		.cfi_def_cfa_offset 16
 797              		.cfi_offset 12, -16
 798 02c6 488D0500 		leaq	16+_ZTVN12_GLOBAL__N_154TestXmlTestReporterFixtureMultipleCharactersAreEscapedE(%rip), %rax
 798      000000
 799 02cd 55       		pushq	%rbp
 800              		.cfi_def_cfa_offset 24
 801              		.cfi_offset 6, -24
 802 02ce 4889FD   		movq	%rdi, %rbp
 803 02d1 4883EC08 		subq	$8, %rsp
 804              		.cfi_def_cfa_offset 32
 805 02d5 488907   		movq	%rax, (%rdi)
 806              	.LEHB14:
 807 02d8 E8000000 		call	_ZN8UnitTest4TestD2Ev@PLT
 807      00
 808              	.LEHE14:
 809 02dd 4883C408 		addq	$8, %rsp
 810              		.cfi_remember_state
 811              		.cfi_def_cfa_offset 24
 812 02e1 4889EF   		movq	%rbp, %rdi
 813 02e4 5D       		popq	%rbp
 814              		.cfi_def_cfa_offset 16
 815 02e5 415C     		popq	%r12
 816              		.cfi_def_cfa_offset 8
 817 02e7 E9000000 		jmp	_ZdlPv@PLT
 817      00
 818              	.L40:
 819              		.cfi_restore_state
 820 02ec F30F1EFA 		endbr64
 821 02f0 4989C4   		movq	%rax, %r12
 822 02f3 E9000000 		jmp	.L39
 822      00
 823              		.section	.gcc_except_table
 824              	.LLSDA1705:
 825 0070 FF       		.byte	0xff
 826 0071 FF       		.byte	0xff
 827 0072 01       		.byte	0x1
 828 0073 04       		.uleb128 .LLSDACSE1705-.LLSDACSB1705
 829              	.LLSDACSB1705:
 830 0074 18       		.uleb128 .LEHB14-.LFB1705
 831 0075 05       		.uleb128 .LEHE14-.LEHB14
 832 0076 2C       		.uleb128 .L40-.LFB1705
 833 0077 00       		.uleb128 0
 834              	.LLSDACSE1705:
 835              		.text
 836              		.cfi_endproc
 837              		.section	.text.unlikely
 838              		.cfi_startproc
 839              		.cfi_personality 0x9b,DW.ref.__gxx_personality_v0
 840              		.cfi_lsda 0x1b,.LLSDAC1705
 842              	_ZN12_GLOBAL__N_154TestXmlTestReporterFixtureMultipleCharactersAreEscapedD0Ev.cold:
 843              	.LFSB1705:
 844              	.L39:
 845              		.cfi_def_cfa_offset 32
 846              		.cfi_offset 6, -24
 847              		.cfi_offset 12, -16
 848 0070 4889EF   		movq	%rbp, %rdi
 849 0073 E8000000 		call	_ZdlPv@PLT
 849      00
 850 0078 4C89E7   		movq	%r12, %rdi
 851              	.LEHB15:
 852 007b E8000000 		call	_Unwind_Resume@PLT
 852      00
 853              	.LEHE15:
 854              		.cfi_endproc
 855              	.LFE1705:
 856              		.section	.gcc_except_table
 857              	.LLSDAC1705:
 858 0078 FF       		.byte	0xff
 859 0079 FF       		.byte	0xff
 860 007a 01       		.byte	0x1
 861 007b 04       		.uleb128 .LLSDACSEC1705-.LLSDACSBC1705
 862              	.LLSDACSBC1705:
 863 007c 0B       		.uleb128 .LEHB15-.LCOLDB7
 864 007d 05       		.uleb128 .LEHE15-.LEHB15
 865 007e 00       		.uleb128 0
 866 007f 00       		.uleb128 0
 867              	.LLSDACSEC1705:
 868              		.section	.text.unlikely
 869              		.text
 871              		.section	.text.unlikely
 873              	.LCOLDE7:
 874              		.text
 875              	.LHOTE7:
 876              		.section	.text._ZN8UnitTest15MemoryOutStreamD1Ev,"axG",@progbits,_ZN8UnitTest15MemoryOutStreamD1Ev
 877              		.align 2
 878              		.p2align 4
 879              		.weak	_ZN8UnitTest15MemoryOutStreamD1Ev
 881              	_ZN8UnitTest15MemoryOutStreamD1Ev:
 882              	.LFB1708:
 883              		.cfi_startproc
 884 0000 F30F1EFA 		endbr64
 885 0004 55       		pushq	%rbp
 886              		.cfi_def_cfa_offset 16
 887              		.cfi_offset 6, -16
 888 0005 488D0500 		leaq	24+_ZTVN8UnitTest15MemoryOutStreamE(%rip), %rax
 888      000000
 889 000c 53       		pushq	%rbx
 890              		.cfi_def_cfa_offset 24
 891              		.cfi_offset 3, -24
 892 000d 4889FB   		movq	%rdi, %rbx
 893 0010 4883EC08 		subq	$8, %rsp
 894              		.cfi_def_cfa_offset 32
 895 0014 488907   		movq	%rax, (%rdi)
 896 0017 4883C028 		addq	$40, %rax
 897 001b 48898790 		movq	%rax, 144(%rdi)
 897      000000
 898 0022 488B7F70 		movq	112(%rdi), %rdi
 899 0026 488D8380 		leaq	128(%rbx), %rax
 899      000000
 900 002d 4839C7   		cmpq	%rax, %rdi
 901 0030 7405     		je	.L43
 902 0032 E8000000 		call	_ZdlPv@PLT
 902      00
 903              	.L43:
 904 0037 488D0500 		leaq	64+_ZTCN8UnitTest15MemoryOutStreamE0_NSt7__cxx1119basic_ostringstreamIcSt11char_traitsIcESaIc
 904      000000
 905 003e 488D1500 		leaq	24+_ZTCN8UnitTest15MemoryOutStreamE0_NSt7__cxx1119basic_ostringstreamIcSt11char_traitsIcESaIc
 905      000000
 906 0045 488B7B50 		movq	80(%rbx), %rdi
 907 0049 48898390 		movq	%rax, 144(%rbx)
 907      000000
 908 0050 488D0500 		leaq	16+_ZTVNSt7__cxx1115basic_stringbufIcSt11char_traitsIcESaIcEEE(%rip), %rax
 908      000000
 909 0057 66480F6E 		movq	%rdx, %xmm0
 909      C2
 910 005c 488DAB90 		leaq	144(%rbx), %rbp
 910      000000
 911 0063 66480F6E 		movq	%rax, %xmm1
 911      C8
 912 0068 488D4360 		leaq	96(%rbx), %rax
 913 006c 660F6CC1 		punpcklqdq	%xmm1, %xmm0
 914 0070 0F1103   		movups	%xmm0, (%rbx)
 915 0073 4839C7   		cmpq	%rax, %rdi
 916 0076 7405     		je	.L44
 917 0078 E8000000 		call	_ZdlPv@PLT
 917      00
 918              	.L44:
 919 007d 488D0500 		leaq	16+_ZTVSt15basic_streambufIcSt11char_traitsIcEE(%rip), %rax
 919      000000
 920 0084 488D7B40 		leaq	64(%rbx), %rdi
 921 0088 48894308 		movq	%rax, 8(%rbx)
 922 008c E8000000 		call	_ZNSt6localeD1Ev@PLT
 922      00
 923 0091 488D0500 		leaq	24+_ZTCN8UnitTest15MemoryOutStreamE0_So(%rip), %rax
 923      000000
 924 0098 4889EF   		movq	%rbp, %rdi
 925 009b 488903   		movq	%rax, (%rbx)
 926 009e 488D0500 		leaq	16+_ZTVSt9basic_iosIcSt11char_traitsIcEE(%rip), %rax
 926      000000
 927 00a5 48898390 		movq	%rax, 144(%rbx)
 927      000000
 928 00ac 4883C408 		addq	$8, %rsp
 929              		.cfi_def_cfa_offset 24
 930 00b0 5B       		popq	%rbx
 931              		.cfi_def_cfa_offset 16
 932 00b1 5D       		popq	%rbp
 933              		.cfi_def_cfa_offset 8
 934 00b2 E9000000 		jmp	_ZNSt8ios_baseD2Ev@PLT
 934      00
 935              		.cfi_endproc
 936              	.LFE1708:
 938 00b7 660F1F84 		.p2align 4
 938      00000000 
 938      00
 939              		.weak	_ZTv0_n24_N8UnitTest15MemoryOutStreamD1Ev
 941              	_ZTv0_n24_N8UnitTest15MemoryOutStreamD1Ev:
 942              	.LFB1776:
 943              		.cfi_startproc
 944 00c0 F30F1EFA 		endbr64
 945 00c4 55       		pushq	%rbp
 946              		.cfi_def_cfa_offset 16
 947              		.cfi_offset 6, -16
 948 00c5 53       		pushq	%rbx
 949              		.cfi_def_cfa_offset 24
 950              		.cfi_offset 3, -24
 951 00c6 4889FB   		movq	%rdi, %rbx
 952 00c9 4883EC08 		subq	$8, %rsp
 953              		.cfi_def_cfa_offset 32
 954 00cd 488B07   		movq	(%rdi), %rax
 955 00d0 480358E8 		addq	-24(%rax), %rbx
 956 00d4 488D0500 		leaq	24+_ZTVN8UnitTest15MemoryOutStreamE(%rip), %rax
 956      000000
 957 00db 488903   		movq	%rax, (%rbx)
 958 00de 488B7B70 		movq	112(%rbx), %rdi
 959 00e2 4883C028 		addq	$40, %rax
 960 00e6 48898390 		movq	%rax, 144(%rbx)
 960      000000
 961 00ed 488D8380 		leaq	128(%rbx), %rax
 961      000000
 962 00f4 4839C7   		cmpq	%rax, %rdi
 963 00f7 7405     		je	.L47
 964 00f9 E8000000 		call	_ZdlPv@PLT
 964      00
 965              	.L47:
 966 00fe 488D0500 		leaq	64+_ZTCN8UnitTest15MemoryOutStreamE0_NSt7__cxx1119basic_ostringstreamIcSt11char_traitsIcESaIc
 966      000000
 967 0105 488D1500 		leaq	24+_ZTCN8UnitTest15MemoryOutStreamE0_NSt7__cxx1119basic_ostringstreamIcSt11char_traitsIcESaIc
 967      000000
 968 010c 488B7B50 		movq	80(%rbx), %rdi
 969 0110 48898390 		movq	%rax, 144(%rbx)
 969      000000
 970 0117 488D0500 		leaq	16+_ZTVNSt7__cxx1115basic_stringbufIcSt11char_traitsIcESaIcEEE(%rip), %rax
 970      000000
 971 011e 66480F6E 		movq	%rdx, %xmm0
 971      C2
 972 0123 488DAB90 		leaq	144(%rbx), %rbp
 972      000000
 973 012a 66480F6E 		movq	%rax, %xmm1
 973      C8
 974 012f 488D4360 		leaq	96(%rbx), %rax
 975 0133 660F6CC1 		punpcklqdq	%xmm1, %xmm0
 976 0137 0F1103   		movups	%xmm0, (%rbx)
 977 013a 4839C7   		cmpq	%rax, %rdi
 978 013d 7405     		je	.L48
 979 013f E8000000 		call	_ZdlPv@PLT
 979      00
 980              	.L48:
 981 0144 488D0500 		leaq	16+_ZTVSt15basic_streambufIcSt11char_traitsIcEE(%rip), %rax
 981      000000
 982 014b 488D7B40 		leaq	64(%rbx), %rdi
 983 014f 48894308 		movq	%rax, 8(%rbx)
 984 0153 E8000000 		call	_ZNSt6localeD1Ev@PLT
 984      00
 985 0158 488D0500 		leaq	24+_ZTCN8UnitTest15MemoryOutStreamE0_So(%rip), %rax
 985      000000
 986 015f 4889EF   		movq	%rbp, %rdi
 987 0162 488903   		movq	%rax, (%rbx)
 988 0165 488D0500 		leaq	16+_ZTVSt9basic_iosIcSt11char_traitsIcEE(%rip), %rax
 988      000000
 989 016c 48898390 		movq	%rax, 144(%rbx)
 989      000000
 990 0173 4883C408 		addq	$8, %rsp
 991              		.cfi_def_cfa_offset 24
 992 0177 5B       		popq	%rbx
 993              		.cfi_def_cfa_offset 16
 994 0178 5D       		popq	%rbp
 995              		.cfi_def_cfa_offset 8
 996 0179 E9000000 		jmp	_ZNSt8ios_baseD2Ev@PLT
 996      00
 997              		.cfi_endproc
 998              	.LFE1776:
 1000              		.section	.text._ZN8UnitTest15MemoryOutStreamD0Ev,"axG",@progbits,_ZN8UnitTest15MemoryOutStreamD0Ev
 1001              		.align 2
 1002              		.p2align 4
 1003              		.weak	_ZN8UnitTest15MemoryOutStreamD0Ev
 1005              	_ZN8UnitTest15MemoryOutStreamD0Ev:
 1006              	.LFB1709:
 1007              		.cfi_startproc
 1008              		.cfi_personality 0x9b,DW.ref.__gxx_personality_v0
 1009              		.cfi_lsda 0x1b,.LLSDA1709
 1010 0000 F30F1EFA 		endbr64
 1011 0004 4154     		pushq	%r12
 1012              		.cfi_def_cfa_offset 16
 1013              		.cfi_offset 12, -16
 1014 0006 488D0500 		leaq	24+_ZTVN8UnitTest15MemoryOutStreamE(%rip), %rax
 1014      000000
 1015 000d 55       		pushq	%rbp
 1016              		.cfi_def_cfa_offset 24
 1017              		.cfi_offset 6, -24
 1018 000e 4889FD   		movq	%rdi, %rbp
 1019 0011 4883EC08 		subq	$8, %rsp
 1020              		.cfi_def_cfa_offset 32
 1021 0015 488907   		movq	%rax, (%rdi)
 1022 0018 4883C028 		addq	$40, %rax
 1023 001c 48898790 		movq	%rax, 144(%rdi)
 1023      000000
 1024 0023 488B7F70 		movq	112(%rdi), %rdi
 1025 0027 488D8580 		leaq	128(%rbp), %rax
 1025      000000
 1026 002e 4839C7   		cmpq	%rax, %rdi
 1027 0031 7405     		je	.L51
 1028 0033 E8000000 		call	_ZdlPv@PLT
 1028      00
 1029              	.L51:
 1030 0038 488D0500 		leaq	64+_ZTCN8UnitTest15MemoryOutStreamE0_NSt7__cxx1119basic_ostringstreamIcSt11char_traitsIcESaIc
 1030      000000
 1031 003f 488D1500 		leaq	24+_ZTCN8UnitTest15MemoryOutStreamE0_NSt7__cxx1119basic_ostringstreamIcSt11char_traitsIcESaIc
 1031      000000
 1032 0046 488B7D50 		movq	80(%rbp), %rdi
 1033 004a 48898590 		movq	%rax, 144(%rbp)
 1033      000000
 1034 0051 488D0500 		leaq	16+_ZTVNSt7__cxx1115basic_stringbufIcSt11char_traitsIcESaIcEEE(%rip), %rax
 1034      000000
 1035 0058 66480F6E 		movq	%rdx, %xmm0
 1035      C2
 1036 005d 4C8DA590 		leaq	144(%rbp), %r12
 1036      000000
 1037 0064 66480F6E 		movq	%rax, %xmm1
 1037      C8
 1038 0069 488D4560 		leaq	96(%rbp), %rax
 1039 006d 660F6CC1 		punpcklqdq	%xmm1, %xmm0
 1040 0071 0F114500 		movups	%xmm0, 0(%rbp)
 1041 0075 4839C7   		cmpq	%rax, %rdi
 1042 0078 7405     		je	.L52
 1043 007a E8000000 		call	_ZdlPv@PLT
 1043      00
 1044              	.L52:
 1045 007f 488D0500 		leaq	16+_ZTVSt15basic_streambufIcSt11char_traitsIcEE(%rip), %rax
 1045      000000
 1046 0086 488D7D40 		leaq	64(%rbp), %rdi
 1047 008a 48894508 		movq	%rax, 8(%rbp)
 1048 008e E8000000 		call	_ZNSt6localeD1Ev@PLT
 1048      00
 1049 0093 488D0500 		leaq	24+_ZTCN8UnitTest15MemoryOutStreamE0_So(%rip), %rax
 1049      000000
 1050 009a 4C89E7   		movq	%r12, %rdi
 1051 009d 48894500 		movq	%rax, 0(%rbp)
 1052 00a1 488D0500 		leaq	16+_ZTVSt9basic_iosIcSt11char_traitsIcEE(%rip), %rax
 1052      000000
 1053 00a8 48898590 		movq	%rax, 144(%rbp)
 1053      000000
 1054              	.LEHB16:
 1055 00af E8000000 		call	_ZNSt8ios_baseD2Ev@PLT
 1055      00
 1056              	.LEHE16:
 1057 00b4 4883C408 		addq	$8, %rsp
 1058              		.cfi_remember_state
 1059              		.cfi_def_cfa_offset 24
 1060 00b8 4889EF   		movq	%rbp, %rdi
 1061 00bb 5D       		popq	%rbp
 1062              		.cfi_def_cfa_offset 16
 1063 00bc 415C     		popq	%r12
 1064              		.cfi_def_cfa_offset 8
 1065 00be E9000000 		jmp	_ZdlPv@PLT
 1065      00
 1066              	.L54:
 1067              		.cfi_restore_state
 1068 00c3 F30F1EFA 		endbr64
 1069 00c7 4989C4   		movq	%rax, %r12
 1070              	.L53:
 1071 00ca 4889EF   		movq	%rbp, %rdi
 1072 00cd E8000000 		call	_ZdlPv@PLT
 1072      00
 1073 00d2 4C89E7   		movq	%r12, %rdi
 1074              	.LEHB17:
 1075 00d5 E8000000 		call	_Unwind_Resume@PLT
 1075      00
 1076              	.LEHE17:
 1077              		.cfi_endproc
 1078              	.LFE1709:
 1079              		.section	.gcc_except_table
 1080              	.LLSDA1709:
 1081 0080 FF       		.byte	0xff
 1082 0081 FF       		.byte	0xff
 1083 0082 01       		.byte	0x1
 1084 0083 0B       		.uleb128 .LLSDACSE1709-.LLSDACSB1709
 1085              	.LLSDACSB1709:
 1086 0084 AF01     		.uleb128 .LEHB16-.LFB1709
 1087 0086 05       		.uleb128 .LEHE16-.LEHB16
 1088 0087 C301     		.uleb128 .L54-.LFB1709
 1089 0089 00       		.uleb128 0
 1090 008a D501     		.uleb128 .LEHB17-.LFB1709
 1091 008c 05       		.uleb128 .LEHE17-.LEHB17
 1092 008d 00       		.uleb128 0
 1093 008e 00       		.uleb128 0
 1094              	.LLSDACSE1709:
 1095              		.section	.text._ZN8UnitTest15MemoryOutStreamD0Ev,"axG",@progbits,_ZN8UnitTest15MemoryOutStreamD0Ev
 1097 00da 660F1F44 		.p2align 4
 1097      0000
 1098              		.weak	_ZTv0_n24_N8UnitTest15MemoryOutStreamD0Ev
 1100              	_ZTv0_n24_N8UnitTest15MemoryOutStreamD0Ev:
 1101              	.LFB1775:
 1102              		.cfi_startproc
 1103              		.cfi_personality 0x9b,DW.ref.__gxx_personality_v0
 1104              		.cfi_lsda 0x1b,.LLSDA1775
 1105 00e0 F30F1EFA 		endbr64
 1106 00e4 4154     		pushq	%r12
 1107              		.cfi_def_cfa_offset 16
 1108              		.cfi_offset 12, -16
 1109 00e6 55       		pushq	%rbp
 1110              		.cfi_def_cfa_offset 24
 1111              		.cfi_offset 6, -24
 1112 00e7 4889FD   		movq	%rdi, %rbp
 1113 00ea 4883EC08 		subq	$8, %rsp
 1114              		.cfi_def_cfa_offset 32
 1115 00ee 488B07   		movq	(%rdi), %rax
 1116 00f1 480368E8 		addq	-24(%rax), %rbp
 1117 00f5 488D0500 		leaq	24+_ZTVN8UnitTest15MemoryOutStreamE(%rip), %rax
 1117      000000
 1118 00fc 48894500 		movq	%rax, 0(%rbp)
 1119 0100 488B7D70 		movq	112(%rbp), %rdi
 1120 0104 4883C028 		addq	$40, %rax
 1121 0108 48898590 		movq	%rax, 144(%rbp)
 1121      000000
 1122 010f 488D8580 		leaq	128(%rbp), %rax
 1122      000000
 1123 0116 4839C7   		cmpq	%rax, %rdi
 1124 0119 7405     		je	.L57
 1125 011b E8000000 		call	_ZdlPv@PLT
 1125      00
 1126              	.L57:
 1127 0120 488D0500 		leaq	64+_ZTCN8UnitTest15MemoryOutStreamE0_NSt7__cxx1119basic_ostringstreamIcSt11char_traitsIcESaIc
 1127      000000
 1128 0127 488D1500 		leaq	24+_ZTCN8UnitTest15MemoryOutStreamE0_NSt7__cxx1119basic_ostringstreamIcSt11char_traitsIcESaIc
 1128      000000
 1129 012e 488B7D50 		movq	80(%rbp), %rdi
 1130 0132 48898590 		movq	%rax, 144(%rbp)
 1130      000000
 1131 0139 488D0500 		leaq	16+_ZTVNSt7__cxx1115basic_stringbufIcSt11char_traitsIcESaIcEEE(%rip), %rax
 1131      000000
 1132 0140 66480F6E 		movq	%rdx, %xmm0
 1132      C2
 1133 0145 4C8DA590 		leaq	144(%rbp), %r12
 1133      000000
 1134 014c 66480F6E 		movq	%rax, %xmm1
 1134      C8
 1135 0151 488D4560 		leaq	96(%rbp), %rax
 1136 0155 660F6CC1 		punpcklqdq	%xmm1, %xmm0
 1137 0159 0F114500 		movups	%xmm0, 0(%rbp)
 1138 015d 4839C7   		cmpq	%rax, %rdi
 1139 0160 7405     		je	.L58
 1140 0162 E8000000 		call	_ZdlPv@PLT
 1140      00
 1141              	.L58:
 1142 0167 488D0500 		leaq	16+_ZTVSt15basic_streambufIcSt11char_traitsIcEE(%rip), %rax
 1142      000000
 1143 016e 488D7D40 		leaq	64(%rbp), %rdi
 1144 0172 48894508 		movq	%rax, 8(%rbp)
 1145 0176 E8000000 		call	_ZNSt6localeD1Ev@PLT
 1145      00
 1146 017b 488D0500 		leaq	24+_ZTCN8UnitTest15MemoryOutStreamE0_So(%rip), %rax
 1146      000000
 1147 0182 4C89E7   		movq	%r12, %rdi
 1148 0185 48894500 		movq	%rax, 0(%rbp)
 1149 0189 488D0500 		leaq	16+_ZTVSt9basic_iosIcSt11char_traitsIcEE(%rip), %rax
 1149      000000
 1150 0190 48898590 		movq	%rax, 144(%rbp)
 1150      000000
 1151              	.LEHB18:
 1152 0197 E8000000 		call	_ZNSt8ios_baseD2Ev@PLT
 1152      00
 1153              	.LEHE18:
 1154 019c 4883C408 		addq	$8, %rsp
 1155              		.cfi_remember_state
 1156              		.cfi_def_cfa_offset 24
 1157 01a0 4889EF   		movq	%rbp, %rdi
 1158 01a3 5D       		popq	%rbp
 1159              		.cfi_def_cfa_offset 16
 1160 01a4 415C     		popq	%r12
 1161              		.cfi_def_cfa_offset 8
 1162 01a6 E9000000 		jmp	_ZdlPv@PLT
 1162      00
 1163              	.L60:
 1164              		.cfi_restore_state
 1165 01ab F30F1EFA 		endbr64
 1166 01af 4989C4   		movq	%rax, %r12
 1167              	.L59:
 1168 01b2 4889EF   		movq	%rbp, %rdi
 1169 01b5 E8000000 		call	_ZdlPv@PLT
 1169      00
 1170 01ba 4C89E7   		movq	%r12, %rdi
 1171              	.LEHB19:
 1172 01bd E8000000 		call	_Unwind_Resume@PLT
 1172      00
 1173              	.LEHE19:
 1174              		.cfi_endproc
 1175              	.LFE1775:
 1176              		.section	.gcc_except_table
 1177              	.LLSDA1775:
 1178 008f FF       		.byte	0xff
 1179 0090 FF       		.byte	0xff
 1180 0091 01       		.byte	0x1
 1181 0092 0B       		.uleb128 .LLSDACSE1775-.LLSDACSB1775
 1182              	.LLSDACSB1775:
 1183 0093 B701     		.uleb128 .LEHB18-.LFB1775
 1184 0095 05       		.uleb128 .LEHE18-.LEHB18
 1185 0096 CB01     		.uleb128 .L60-.LFB1775
 1186 0098 00       		.uleb128 0
 1187 0099 DD01     		.uleb128 .LEHB19-.LFB1775
 1188 009b 05       		.uleb128 .LEHE19-.LEHB19
 1189 009c 00       		.uleb128 0
 1190 009d 00       		.uleb128 0
 1191              	.LLSDACSE1775:
 1192              		.section	.text._ZN8UnitTest15MemoryOutStreamD0Ev,"axG",@progbits,_ZN8UnitTest15MemoryOutStreamD0Ev
 1194              		.section	.text._ZNSt7__cxx1115basic_stringbufIcSt11char_traitsIcESaIcEED2Ev,"axG",@progbits,_ZNSt7
 1195              		.align 2
 1196              		.p2align 4
 1197              		.weak	_ZNSt7__cxx1115basic_stringbufIcSt11char_traitsIcESaIcEED2Ev
 1199              	_ZNSt7__cxx1115basic_stringbufIcSt11char_traitsIcESaIcEED2Ev:
 1200              	.LFB1548:
 1201              		.cfi_startproc
 1202 0000 F30F1EFA 		endbr64
 1203 0004 488D0500 		leaq	16+_ZTVNSt7__cxx1115basic_stringbufIcSt11char_traitsIcESaIcEEE(%rip), %rax
 1203      000000
 1204 000b 53       		pushq	%rbx
 1205              		.cfi_def_cfa_offset 16
 1206              		.cfi_offset 3, -16
 1207 000c 4889FB   		movq	%rdi, %rbx
 1208 000f 488907   		movq	%rax, (%rdi)
 1209 0012 488B7F48 		movq	72(%rdi), %rdi
 1210 0016 488D4358 		leaq	88(%rbx), %rax
 1211 001a 4839C7   		cmpq	%rax, %rdi
 1212 001d 7405     		je	.L63
 1213 001f E8000000 		call	_ZdlPv@PLT
 1213      00
 1214              	.L63:
 1215 0024 488D0500 		leaq	16+_ZTVSt15basic_streambufIcSt11char_traitsIcEE(%rip), %rax
 1215      000000
 1216 002b 488D7B38 		leaq	56(%rbx), %rdi
 1217 002f 488903   		movq	%rax, (%rbx)
 1218 0032 5B       		popq	%rbx
 1219              		.cfi_def_cfa_offset 8
 1220 0033 E9000000 		jmp	_ZNSt6localeD1Ev@PLT
 1220      00
 1221              		.cfi_endproc
 1222              	.LFE1548:
 1224              		.weak	_ZNSt7__cxx1115basic_stringbufIcSt11char_traitsIcESaIcEED1Ev
 1225              		.set	_ZNSt7__cxx1115basic_stringbufIcSt11char_traitsIcESaIcEED1Ev,_ZNSt7__cxx1115basic_stringbufIc
 1226              		.section	.text._ZN8UnitTest15MemoryOutStreamC1Ev,"axG",@progbits,_ZN8UnitTest15MemoryOutStreamC1Ev
 1227              		.align 2
 1228              		.p2align 4
 1229              		.weak	_ZN8UnitTest15MemoryOutStreamC1Ev
 1231              	_ZN8UnitTest15MemoryOutStreamC1Ev:
 1232              	.LFB1156:
 1233              		.cfi_startproc
 1234              		.cfi_personality 0x9b,DW.ref.__gxx_personality_v0
 1235              		.cfi_lsda 0x1b,.LLSDA1156
 1236 0000 F30F1EFA 		endbr64
 1237 0004 4156     		pushq	%r14
 1238              		.cfi_def_cfa_offset 16
 1239              		.cfi_offset 14, -16
 1240 0006 4155     		pushq	%r13
 1241              		.cfi_def_cfa_offset 24
 1242              		.cfi_offset 13, -24
 1243 0008 4154     		pushq	%r12
 1244              		.cfi_def_cfa_offset 32
 1245              		.cfi_offset 12, -32
 1246 000a 4C8D2500 		leaq	24+_ZTCN8UnitTest15MemoryOutStreamE0_So(%rip), %r12
 1246      000000
 1247 0011 55       		pushq	%rbp
 1248              		.cfi_def_cfa_offset 40
 1249              		.cfi_offset 6, -40
 1250 0012 488DAF90 		leaq	144(%rdi), %rbp
 1250      000000
 1251 0019 53       		pushq	%rbx
 1252              		.cfi_def_cfa_offset 48
 1253              		.cfi_offset 3, -48
 1254 001a 4889FB   		movq	%rdi, %rbx
 1255 001d 4889EF   		movq	%rbp, %rdi
 1256 0020 E8000000 		call	_ZNSt8ios_baseC2Ev@PLT
 1256      00
 1257 0025 31C0     		xorl	%eax, %eax
 1258 0027 4C8923   		movq	%r12, (%rbx)
 1259 002a 660FEFC0 		pxor	%xmm0, %xmm0
 1260 002e 66898370 		movw	%ax, 368(%rbx)
 1260      010000
 1261 0035 498D4424 		leaq	40(%r12), %rax
 1261      28
 1262 003a 31F6     		xorl	%esi, %esi
 1263 003c 4889EF   		movq	%rbp, %rdi
 1264 003f 48C78368 		movq	$0, 360(%rbx)
 1264      01000000 
 1264      000000
 1265 004a 48898390 		movq	%rax, 144(%rbx)
 1265      000000
 1266 0051 0F118378 		movups	%xmm0, 376(%rbx)
 1266      010000
 1267 0058 0F118388 		movups	%xmm0, 392(%rbx)
 1267      010000
 1268              	.LEHB20:
 1269 005f E8000000 		call	_ZNSt9basic_iosIcSt11char_traitsIcEE4initEPSt15basic_streambufIcS1_E@PLT
 1269      00
 1270              	.LEHE20:
 1271 0064 488D0500 		leaq	64+_ZTCN8UnitTest15MemoryOutStreamE0_NSt7__cxx1119basic_ostringstreamIcSt11char_traitsIcESaIc
 1271      000000
 1272 006b 488D1500 		leaq	24+_ZTCN8UnitTest15MemoryOutStreamE0_NSt7__cxx1119basic_ostringstreamIcSt11char_traitsIcESaIc
 1272      000000
 1273 0072 48898390 		movq	%rax, 144(%rbx)
 1273      000000
 1274 0079 488D0500 		leaq	16+_ZTVSt15basic_streambufIcSt11char_traitsIcEE(%rip), %rax
 1274      000000
 1275 0080 66480F6E 		movq	%rdx, %xmm0
 1275      C2
 1276 0085 488D7B40 		leaq	64(%rbx), %rdi
 1277 0089 66480F6E 		movq	%rax, %xmm1
 1277      C8
 1278 008e 4C8D6B08 		leaq	8(%rbx), %r13
 1279 0092 660F6CC1 		punpcklqdq	%xmm1, %xmm0
 1280 0096 0F1103   		movups	%xmm0, (%rbx)
 1281 0099 660FEFC0 		pxor	%xmm0, %xmm0
 1282 009d 0F114310 		movups	%xmm0, 16(%rbx)
 1283 00a1 0F114320 		movups	%xmm0, 32(%rbx)
 1284 00a5 0F114330 		movups	%xmm0, 48(%rbx)
 1285 00a9 E8000000 		call	_ZNSt6localeC1Ev@PLT
 1285      00
 1286 00ae 488D0500 		leaq	16+_ZTVNSt7__cxx1115basic_stringbufIcSt11char_traitsIcESaIcEEE(%rip), %rax
 1286      000000
 1287 00b5 C6436000 		movb	$0, 96(%rbx)
 1288 00b9 4C89EE   		movq	%r13, %rsi
 1289 00bc 48894308 		movq	%rax, 8(%rbx)
 1290 00c0 488D4360 		leaq	96(%rbx), %rax
 1291 00c4 48894350 		movq	%rax, 80(%rbx)
 1292 00c8 488B03   		movq	(%rbx), %rax
 1293 00cb 48C74358 		movq	$0, 88(%rbx)
 1293      00000000 
 1294 00d3 C7434810 		movl	$16, 72(%rbx)
 1294      000000
 1295 00da 488B78E8 		movq	-24(%rax), %rdi
 1296 00de 4801DF   		addq	%rbx, %rdi
 1297              	.LEHB21:
 1298 00e1 E8000000 		call	_ZNSt9basic_iosIcSt11char_traitsIcEE4initEPSt15basic_streambufIcS1_E@PLT
 1298      00
 1299              	.LEHE21:
 1300 00e6 488D0500 		leaq	24+_ZTVN8UnitTest15MemoryOutStreamE(%rip), %rax
 1300      000000
 1301 00ed 48C74378 		movq	$0, 120(%rbx)
 1301      00000000 
 1302 00f5 488903   		movq	%rax, (%rbx)
 1303 00f8 4883C028 		addq	$40, %rax
 1304 00fc 48898390 		movq	%rax, 144(%rbx)
 1304      000000
 1305 0103 488D8380 		leaq	128(%rbx), %rax
 1305      000000
 1306 010a 48894370 		movq	%rax, 112(%rbx)
 1307 010e C6838000 		movb	$0, 128(%rbx)
 1307      000000
 1308 0115 5B       		popq	%rbx
 1309              		.cfi_remember_state
 1310              		.cfi_def_cfa_offset 40
 1311 0116 5D       		popq	%rbp
 1312              		.cfi_def_cfa_offset 32
 1313 0117 415C     		popq	%r12
 1314              		.cfi_def_cfa_offset 24
 1315 0119 415D     		popq	%r13
 1316              		.cfi_def_cfa_offset 16
 1317 011b 415E     		popq	%r14
 1318              		.cfi_def_cfa_offset 8
 1319 011d C3       		ret
 1320              	.L69:
 1321              		.cfi_restore_state
 1322 011e F30F1EFA 		endbr64
 1323 0122 4989C6   		movq	%rax, %r14
 1324 0125 EB12     		jmp	.L68
 1325              	.L70:
 1326 0127 F30F1EFA 		endbr64
 1327 012b 4989C6   		movq	%rax, %r14
 1328              	.L67:
 1329 012e 4C89EF   		movq	%r13, %rdi
 1330 0131 E8000000 		call	_ZNSt7__cxx1115basic_stringbufIcSt11char_traitsIcESaIcEED1Ev
 1330      00
 1331 0136 4C8923   		movq	%r12, (%rbx)
 1332              	.L68:
 1333 0139 488D0500 		leaq	16+_ZTVSt9basic_iosIcSt11char_traitsIcEE(%rip), %rax
 1333      000000
 1334 0140 4889EF   		movq	%rbp, %rdi
 1335 0143 48898390 		movq	%rax, 144(%rbx)
 1335      000000
 1336 014a E8000000 		call	_ZNSt8ios_baseD2Ev@PLT
 1336      00
 1337 014f 4C89F7   		movq	%r14, %rdi
 1338              	.LEHB22:
 1339 0152 E8000000 		call	_Unwind_Resume@PLT
 1339      00
 1340              	.LEHE22:
 1341              		.cfi_endproc
 1342              	.LFE1156:
 1343              		.section	.gcc_except_table
 1344              	.LLSDA1156:
 1345 009e FF       		.byte	0xff
 1346 009f FF       		.byte	0xff
 1347 00a0 01       		.byte	0x1
 1348 00a1 10       		.uleb128 .LLSDACSE1156-.LLSDACSB1156
 1349              	.LLSDACSB1156:
 1350 00a2 5F       		.uleb128 .LEHB20-.LFB1156
 1351 00a3 05       		.uleb128 .LEHE20-.LEHB20
 1352 00a4 9E02     		.uleb128 .L69-.LFB1156
 1353 00a6 00       		.uleb128 0
 1354 00a7 E101     		.uleb128 .LEHB21-.LFB1156
 1355 00a9 05       		.uleb128 .LEHE21-.LEHB21
 1356 00aa A702     		.uleb128 .L70-.LFB1156
 1357 00ac 00       		.uleb128 0
 1358 00ad D202     		.uleb128 .LEHB22-.LFB1156
 1359 00af 05       		.uleb128 .LEHE22-.LEHB22
 1360 00b0 00       		.uleb128 0
 1361 00b1 00       		.uleb128 0
 1362              	.LLSDACSE1156:
 1363              		.section	.text._ZN8UnitTest15MemoryOutStreamC1Ev,"axG",@progbits,_ZN8UnitTest15MemoryOutStreamC1Ev
 1365              		.section	.rodata.str1.1,"aMS",@progbits,1
 1366              	.LC8:
 1367 0000 556E6861 		.string	"Unhandled system exception"
 1367      6E646C65 
 1367      64207379 
 1367      7374656D 
 1367      20657863 
 1368              	.LC9:
 1369 001b 00       		.string	""
 1370              	.LC10:
 1371 001c 6D657373 		.string	"message"
 1371      61676500 
 1372              	.LC12:
 1373 0024 6F757470 		.string	"output.str().empty()"
 1373      75742E73 
 1373      74722829 
 1373      2E656D70 
 1373      74792829 
 1374              	.LC13:
 1375 0039 216F7574 		.string	"!output.str().empty()"
 1375      7075742E 
 1375      73747228 
 1375      292E656D 
 1375      70747928 
 1376              		.section	.rodata.str1.8,"aMS",@progbits,1
 1377              		.align 8
 1378              	.LC14:
 1379 0000 556E6861 		.string	"Unhandled exception in CHECK(output.str().empty())"
 1379      6E646C65 
 1379      64206578 
 1379      63657074 
 1379      696F6E20 
 1380 0033 00000000 		.align 8
 1380      00
 1381              	.LC15:
 1382 0038 556E6861 		.string	"Unhandled exception in CHECK(!output.str().empty())"
 1382      6E646C65 
 1382      64206578 
 1382      63657074 
 1382      696F6E20 
 1383              		.section	.rodata.str1.1
 1384              	.LC16:
 1385 004f 556E6861 		.string	"Unhandled exception: "
 1385      6E646C65 
 1385      64206578 
 1385      63657074 
 1385      696F6E3A 
 1386              	.LC17:
 1387 0065 556E6861 		.string	"Unhandled exception: Crash!"
 1387      6E646C65 
 1387      64206578 
 1387      63657074 
 1387      696F6E3A 
 1388              		.section	.text.unlikely
 1389              	.LCOLDB18:
 1390              		.text
 1391              	.LHOTB18:
 1392 02f8 0F1F8400 		.p2align 4
 1392      00000000 
 1394              	_ZN8UnitTest11ExecuteTestIN12_GLOBAL__N_168XmlTestReporterFixtureOutputIsCachedUntilReportSummaryIs
 1395              	.LFB1570:
 1396              		.cfi_startproc
 1397              		.cfi_personality 0x9b,DW.ref.__gxx_personality_v0
 1398              		.cfi_lsda 0x1b,.LLSDA1570
 1399 0300 4155     		pushq	%r13
 1400              		.cfi_def_cfa_offset 16
 1401              		.cfi_offset 13, -16
 1402 0302 4154     		pushq	%r12
 1403              		.cfi_def_cfa_offset 24
 1404              		.cfi_offset 12, -24
 1405 0304 55       		pushq	%rbp
 1406              		.cfi_def_cfa_offset 32
 1407              		.cfi_offset 6, -32
 1408 0305 53       		pushq	%rbx
 1409              		.cfi_def_cfa_offset 40
 1410              		.cfi_offset 3, -40
 1411 0306 4889F3   		movq	%rsi, %rbx
 1412 0309 4881EC28 		subq	$1832, %rsp
 1412      070000
 1413              		.cfi_def_cfa_offset 1872
 1414 0310 48893C24 		movq	%rdi, (%rsp)
 1415 0314 48897424 		movq	%rsi, 8(%rsp)
 1415      08
 1416 0319 64488B04 		movq	%fs:40, %rax
 1416      25280000 
 1416      00
 1417 0322 48898424 		movq	%rax, 1816(%rsp)
 1417      18070000 
 1418 032a 31C0     		xorl	%eax, %eax
 1419              	.LEHB23:
 1420 032c E8000000 		call	_ZN8UnitTest11CurrentTest7DetailsEv@PLT
 1420      00
 1421              	.LEHE23:
 1422 0331 488DBC24 		leaq	688(%rsp), %rdi
 1422      B0020000 
 1423 0339 488918   		movq	%rbx, (%rax)
 1424              	.LEHB24:
 1425 033c E8000000 		call	_ZN8UnitTest16SignalTranslatorC1Ev@PLT
 1425      00
 1426              	.LEHE24:
 1427 0341 488B3D00 		movq	_ZN8UnitTest16SignalTranslator12s_jumpTargetE(%rip), %rdi
 1427      000000
 1428 0348 BE010000 		movl	$1, %esi
 1428      00
 1429 034d E8000000 		call	__sigsetjmp@PLT
 1429      00
 1430 0352 F30F1EFA 		endbr64
 1431 0356 85C0     		testl	%eax, %eax
 1432 0358 0F850000 		jne	.L134
 1432      0000
 1433 035e 488D3500 		leaq	.LC9(%rip), %rsi
 1433      000000
 1434 0365 488D7C24 		leaq	48(%rsp), %rdi
 1434      30
 1435 036a 4531C0   		xorl	%r8d, %r8d
 1436 036d 4889F1   		movq	%rsi, %rcx
 1437 0370 4889F2   		movq	%rsi, %rdx
 1438              	.LEHB25:
 1439 0373 E8000000 		call	_ZN8UnitTest11TestDetailsC1EPKcS2_S2_i@PLT
 1439      00
 1440 0378 488B1C24 		movq	(%rsp), %rbx
 1441 037c 488D7424 		leaq	48(%rsp), %rsi
 1441      30
 1442 0381 488DAB78 		leaq	376(%rbx), %rbp
 1442      010000
 1443 0388 4889EF   		movq	%rbp, %rdi
 1444 038b E8000000 		call	_ZN8UnitTest20DeferredTestReporter15ReportTestStartERKNS_11TestDetailsE@PLT
 1444      00
 1445 0390 488D7424 		leaq	48(%rsp), %rsi
 1445      30
 1446 0395 488D1500 		leaq	.LC10(%rip), %rdx
 1446      000000
 1447 039c 4889EF   		movq	%rbp, %rdi
 1448 039f E8000000 		call	_ZN8UnitTest20DeferredTestReporter13ReportFailureERKNS_11TestDetailsEPKc@PLT
 1448      00
 1449 03a4 F30F1005 		movss	.LC11(%rip), %xmm0
 1449      00000000 
 1450 03ac 488D7424 		leaq	48(%rsp), %rsi
 1450      30
 1451 03b1 4889EF   		movq	%rbp, %rdi
 1452 03b4 E8000000 		call	_ZN8UnitTest20DeferredTestReporter16ReportTestFinishERKNS_11TestDetailsEf@PLT
 1452      00
 1453              	.LEHE25:
 1454 03b9 488D8424 		leaq	256(%rsp), %rax
 1454      00010000 
 1455 03c1 C6842400 		movb	$0, 256(%rsp)
 1455      01000000 
 1456 03c9 4C8D6350 		leaq	80(%rbx), %r12
 1457 03cd 48898424 		movq	%rax, 240(%rsp)
 1457      F0000000 
 1458 03d5 488B4330 		movq	48(%rbx), %rax
 1459 03d9 488DBC24 		leaq	240(%rsp), %rdi
 1459      F0000000 
 1460 03e1 48C78424 		movq	$0, 248(%rsp)
 1460      F8000000 
 1460      00000000 
 1461 03ed 4885C0   		testq	%rax, %rax
 1462 03f0 0F84FA01 		je	.L77
 1462      0000
 1463 03f6 4C8B4320 		movq	32(%rbx), %r8
 1464 03fa 4D85C0   		testq	%r8, %r8
 1465 03fd 0F844D01 		je	.L130
 1465      0000
 1466 0403 4C39C0   		cmpq	%r8, %rax
 1467 0406 0F874401 		ja	.L130
 1467      0000
 1468              	.L78:
 1469 040c 488B0424 		movq	(%rsp), %rax
 1470 0410 488DBC24 		leaq	240(%rsp), %rdi
 1470      F0000000 
 1471 0418 31D2     		xorl	%edx, %edx
 1472 041a 31F6     		xorl	%esi, %esi
 1473 041c 488B4828 		movq	40(%rax), %rcx
 1474 0420 4929C8   		subq	%rcx, %r8
 1475              	.LEHB26:
 1476 0423 E8000000 		call	_ZNSt7__cxx1112basic_stringIcSt11char_traitsIcESaIcEE10_M_replaceEmmPKcm@PLT
 1476      00
 1477              	.LEHE26:
 1478              	.L82:
 1479 0428 488BBC24 		movq	240(%rsp), %rdi
 1479      F0000000 
 1480 0430 488D8424 		leaq	256(%rsp), %rax
 1480      00010000 
 1481 0438 488B9C24 		movq	248(%rsp), %rbx
 1481      F8000000 
 1482 0440 4839C7   		cmpq	%rax, %rdi
 1483 0443 7405     		je	.L81
 1484 0445 E8000000 		call	_ZdlPv@PLT
 1484      00
 1485              	.L81:
 1486 044a 4885DB   		testq	%rbx, %rbx
 1487 044d 0F850D01 		jne	.L137
 1487      0000
 1488              	.L89:
 1489 0453 F30F1005 		movss	.LC11(%rip), %xmm0
 1489      00000000 
 1490 045b B9010000 		movl	$1, %ecx
 1490      00
 1491 0460 BA010000 		movl	$1, %edx
 1491      00
 1492 0465 4889EF   		movq	%rbp, %rdi
 1493 0468 BE010000 		movl	$1, %esi
 1493      00
 1494              	.LEHB27:
 1495 046d E8000000 		call	_ZN8UnitTest15XmlTestReporter13ReportSummaryEiiif@PLT
 1495      00
 1496              	.LEHE27:
 1497 0472 488B0C24 		movq	(%rsp), %rcx
 1498 0476 488D8424 		leaq	224(%rsp), %rax
 1498      E0000000 
 1499 047e 48C78424 		movq	$0, 216(%rsp)
 1499      D8000000 
 1499      00000000 
 1500 048a 488DBC24 		leaq	208(%rsp), %rdi
 1500      D0000000 
 1501 0492 48898424 		movq	%rax, 208(%rsp)
 1501      D0000000 
 1502 049a 488B4130 		movq	48(%rcx), %rax
 1503 049e C68424E0 		movb	$0, 224(%rsp)
 1503      00000000 
 1504 04a6 4885C0   		testq	%rax, %rax
 1505 04a9 0F843101 		je	.L90
 1505      0000
 1506 04af 4C8B4120 		movq	32(%rcx), %r8
 1507 04b3 4D85C0   		testq	%r8, %r8
 1508 04b6 0F848400 		je	.L131
 1508      0000
 1509 04bc 4C39C0   		cmpq	%r8, %rax
 1510 04bf 777F     		ja	.L131
 1511              	.L91:
 1512 04c1 488B0424 		movq	(%rsp), %rax
 1513 04c5 488DBC24 		leaq	208(%rsp), %rdi
 1513      D0000000 
 1514 04cd 31D2     		xorl	%edx, %edx
 1515 04cf 31F6     		xorl	%esi, %esi
 1516 04d1 488B4828 		movq	40(%rax), %rcx
 1517 04d5 4929C8   		subq	%rcx, %r8
 1518              	.LEHB28:
 1519 04d8 E8000000 		call	_ZNSt7__cxx1112basic_stringIcSt11char_traitsIcESaIcEE10_M_replaceEmmPKcm@PLT
 1519      00
 1520              	.LEHE28:
 1521              	.L95:
 1522 04dd 488BBC24 		movq	208(%rsp), %rdi
 1522      D0000000 
 1523 04e5 488D8424 		leaq	224(%rsp), %rax
 1523      E0000000 
 1524 04ed 488BAC24 		movq	216(%rsp), %rbp
 1524      D8000000 
 1525 04f5 4839C7   		cmpq	%rax, %rdi
 1526 04f8 7405     		je	.L94
 1527 04fa E8000000 		call	_ZdlPv@PLT
 1527      00
 1528              	.L94:
 1529 04ff 4885ED   		testq	%rbp, %rbp
 1530 0502 0F849800 		je	.L138
 1530      0000
 1531              	.L102:
 1532 0508 488DBC24 		leaq	688(%rsp), %rdi
 1532      B0020000 
 1533              	.LEHB29:
 1534 0510 E8000000 		call	_ZN8UnitTest16SignalTranslatorD1Ev@PLT
 1534      00
 1535              	.LEHE29:
 1536              	.L74:
 1537 0515 488B8424 		movq	1816(%rsp), %rax
 1537      18070000 
 1538 051d 64482B04 		subq	%fs:40, %rax
 1538      25280000 
 1538      00
 1539 0526 0F85D100 		jne	.L139
 1539      0000
 1540 052c 4881C428 		addq	$1832, %rsp
 1540      070000
 1541              		.cfi_remember_state
 1542              		.cfi_def_cfa_offset 40
 1543 0533 5B       		popq	%rbx
 1544              		.cfi_def_cfa_offset 32
 1545 0534 5D       		popq	%rbp
 1546              		.cfi_def_cfa_offset 24
 1547 0535 415C     		popq	%r12
 1548              		.cfi_def_cfa_offset 16
 1549 0537 415D     		popq	%r13
 1550              		.cfi_def_cfa_offset 8
 1551 0539 C3       		ret
 1552 053a 660F1F44 		.p2align 4,,10
 1552      0000
 1553              		.p2align 3
 1554              	.L131:
 1555              		.cfi_restore_state
 1556 0540 4989C0   		movq	%rax, %r8
 1557 0543 E979FFFF 		jmp	.L91
 1557      FF
 1558 0548 0F1F8400 		.p2align 4,,10
 1558      00000000 
 1559              		.p2align 3
 1560              	.L130:
 1561 0550 4989C0   		movq	%rax, %r8
 1562 0553 E9B4FEFF 		jmp	.L78
 1562      FF
 1563 0558 0F1F8400 		.p2align 4,,10
 1563      00000000 
 1564              		.p2align 3
 1565              	.L137:
 1566              	.LEHB30:
 1567 0560 E8000000 		call	_ZN8UnitTest11CurrentTest7ResultsEv@PLT
 1567      00
 1568 0565 4C8B28   		movq	(%rax), %r13
 1569 0568 E8000000 		call	_ZN8UnitTest11CurrentTest7DetailsEv@PLT
 1569      00
 1570 056d 488B30   		movq	(%rax), %rsi
 1571 0570 488DBC24 		leaq	176(%rsp), %rdi
 1571      B0000000 
 1572 0578 BA3E0000 		movl	$62, %edx
 1572      00
 1573 057d E8000000 		call	_ZN8UnitTest11TestDetailsC1ERKS0_i@PLT
 1573      00
 1574 0582 488DB424 		leaq	176(%rsp), %rsi
 1574      B0000000 
 1575 058a 488D1500 		leaq	.LC12(%rip), %rdx
 1575      000000
 1576 0591 4C89EF   		movq	%r13, %rdi
 1577 0594 E8000000 		call	_ZN8UnitTest11TestResults13OnTestFailureERKNS_11TestDetailsEPKc@PLT
 1577      00
 1578              	.LEHE30:
 1579 0599 E9B5FEFF 		jmp	.L89
 1579      FF
 1580 059e 6690     		.p2align 4,,10
 1581              		.p2align 3
 1582              	.L138:
 1583              	.LEHB31:
 1584 05a0 E8000000 		call	_ZN8UnitTest11CurrentTest7ResultsEv@PLT
 1584      00
 1585 05a5 488B28   		movq	(%rax), %rbp
 1586 05a8 E8000000 		call	_ZN8UnitTest11CurrentTest7DetailsEv@PLT
 1586      00
 1587 05ad 488B30   		movq	(%rax), %rsi
 1588 05b0 488D7C24 		leaq	112(%rsp), %rdi
 1588      70
 1589 05b5 BA410000 		movl	$65, %edx
 1589      00
 1590 05ba E8000000 		call	_ZN8UnitTest11TestDetailsC1ERKS0_i@PLT
 1590      00
 1591 05bf 488D7424 		leaq	112(%rsp), %rsi
 1591      70
 1592 05c4 488D1500 		leaq	.LC13(%rip), %rdx
 1592      000000
 1593 05cb 4889EF   		movq	%rbp, %rdi
 1594 05ce E8000000 		call	_ZN8UnitTest11TestResults13OnTestFailureERKNS_11TestDetailsEPKc@PLT
 1594      00
 1595              	.LEHE31:
 1596 05d3 E930FFFF 		jmp	.L102
 1596      FF
 1597 05d8 0F1F8400 		.p2align 4,,10
 1597      00000000 
 1598              		.p2align 3
 1599              	.L90:
 1600 05e0 4C89E6   		movq	%r12, %rsi
 1601              	.LEHB32:
 1602 05e3 E8000000 		call	_ZNSt7__cxx1112basic_stringIcSt11char_traitsIcESaIcEE9_M_assignERKS4_@PLT
 1602      00
 1603              	.LEHE32:
 1604 05e8 E9F0FEFF 		jmp	.L95
 1604      FF
 1605 05ed 0F1F00   		.p2align 4,,10
 1606              		.p2align 3
 1607              	.L77:
 1608 05f0 4C89E6   		movq	%r12, %rsi
 1609              	.LEHB33:
 1610 05f3 E8000000 		call	_ZNSt7__cxx1112basic_stringIcSt11char_traitsIcESaIcEE9_M_assignERKS4_@PLT
 1610      00
 1611              	.LEHE33:
 1612 05f8 E92BFEFF 		jmp	.L82
 1612      FF
 1613              	.L139:
 1614 05fd E8000000 		call	__stack_chk_fail@PLT
 1614      00
 1615              	.L128:
 1616 0602 F30F1EFA 		endbr64
 1617 0606 4889C3   		movq	%rax, %rbx
 1618 0609 E9000000 		jmp	.L85
 1618      00
 1619              	.L129:
 1620 060e F30F1EFA 		endbr64
 1621 0612 4889C3   		movq	%rax, %rbx
 1622 0615 E9000000 		jmp	.L98
 1622      00
 1623              	.L127:
 1624 061a F30F1EFA 		endbr64
 1625 061e 4889C7   		movq	%rax, %rdi
 1626 0621 E9000000 		jmp	.L87
 1626      00
 1627              	.L132:
 1628 0626 F30F1EFA 		endbr64
 1629 062a E9000000 		jmp	.L133
 1629      00
 1630              	.L125:
 1631 062f F30F1EFA 		endbr64
 1632 0633 4889C7   		movq	%rax, %rdi
 1633 0636 E9000000 		jmp	.L100
 1633      00
 1634              	.L118:
 1635 063b F30F1EFA 		endbr64
 1636 063f 4889C7   		movq	%rax, %rdi
 1637 0642 4889D5   		movq	%rdx, %rbp
 1638 0645 E9000000 		jmp	.L107
 1638      00
 1639              		.section	.gcc_except_table
 1640 00b2 0000     		.align 4
 1641              	.LLSDA1570:
 1642 00b4 FF       		.byte	0xff
 1643 00b5 9B       		.byte	0x9b
 1644 00b6 55       		.uleb128 .LLSDATT1570-.LLSDATTD1570
 1645              	.LLSDATTD1570:
 1646 00b7 01       		.byte	0x1
 1647 00b8 3E       		.uleb128 .LLSDACSE1570-.LLSDACSB1570
 1648              	.LLSDACSB1570:
 1649 00b9 2C       		.uleb128 .LEHB23-.LFB1570
 1650 00ba 05       		.uleb128 .LEHE23-.LEHB23
 1651 00bb 00       		.uleb128 0
 1652 00bc 00       		.uleb128 0
 1653 00bd 3C       		.uleb128 .LEHB24-.LFB1570
 1654 00be 05       		.uleb128 .LEHE24-.LEHB24
 1655 00bf BB06     		.uleb128 .L118-.LFB1570
 1656 00c1 05       		.uleb128 0x5
 1657 00c2 73       		.uleb128 .LEHB25-.LFB1570
 1658 00c3 46       		.uleb128 .LEHE25-.LEHB25
 1659 00c4 A606     		.uleb128 .L132-.LFB1570
 1660 00c6 07       		.uleb128 0x7
 1661 00c7 A302     		.uleb128 .LEHB26-.LFB1570
 1662 00c9 05       		.uleb128 .LEHE26-.LEHB26
 1663 00ca 8206     		.uleb128 .L128-.LFB1570
 1664 00cc 01       		.uleb128 0x1
 1665 00cd ED02     		.uleb128 .LEHB27-.LFB1570
 1666 00cf 05       		.uleb128 .LEHE27-.LEHB27
 1667 00d0 A606     		.uleb128 .L132-.LFB1570
 1668 00d2 07       		.uleb128 0x7
 1669 00d3 D803     		.uleb128 .LEHB28-.LFB1570
 1670 00d5 05       		.uleb128 .LEHE28-.LEHB28
 1671 00d6 8E06     		.uleb128 .L129-.LFB1570
 1672 00d8 01       		.uleb128 0x1
 1673 00d9 9004     		.uleb128 .LEHB29-.LFB1570
 1674 00db 05       		.uleb128 .LEHE29-.LEHB29
 1675 00dc BB06     		.uleb128 .L118-.LFB1570
 1676 00de 05       		.uleb128 0x5
 1677 00df E004     		.uleb128 .LEHB30-.LFB1570
 1678 00e1 39       		.uleb128 .LEHE30-.LEHB30
 1679 00e2 9A06     		.uleb128 .L127-.LFB1570
 1680 00e4 01       		.uleb128 0x1
 1681 00e5 A005     		.uleb128 .LEHB31-.LFB1570
 1682 00e7 33       		.uleb128 .LEHE31-.LEHB31
 1683 00e8 AF06     		.uleb128 .L125-.LFB1570
 1684 00ea 01       		.uleb128 0x1
 1685 00eb E305     		.uleb128 .LEHB32-.LFB1570
 1686 00ed 05       		.uleb128 .LEHE32-.LEHB32
 1687 00ee 8E06     		.uleb128 .L129-.LFB1570
 1688 00f0 01       		.uleb128 0x1
 1689 00f1 F305     		.uleb128 .LEHB33-.LFB1570
 1690 00f3 05       		.uleb128 .LEHE33-.LEHB33
 1691 00f4 8206     		.uleb128 .L128-.LFB1570
 1692 00f6 01       		.uleb128 0x1
 1693              	.LLSDACSE1570:
 1694 00f7 03       		.byte	0x3
 1695 00f8 00       		.byte	0
 1696 00f9 02       		.byte	0x2
 1697 00fa 7D       		.byte	0x7d
 1698 00fb 01       		.byte	0x1
 1699 00fc 7D       		.byte	0x7d
 1700 00fd 00       		.byte	0
 1701 00fe 7D       		.byte	0x7d
 1702 00ff 00       		.align 4
 1703 0100 00000000 		.long	0
 1704              	
 1705 0104 00000000 		.long	DW.ref._ZTISt9exception-.
 1706 0108 00000000 		.long	DW.ref._ZTIN8UnitTest15AssertExceptionE-.
 1707              	.LLSDATT1570:
 1708              		.text
 1709              		.cfi_endproc
 1710              		.section	.text.unlikely
 1711              		.cfi_startproc
 1712              		.cfi_personality 0x9b,DW.ref.__gxx_personality_v0
 1713              		.cfi_lsda 0x1b,.LLSDAC1570
 1715              	_ZN8UnitTest11ExecuteTestIN12_GLOBAL__N_168XmlTestReporterFixtureOutputIsCachedUntilReportSummaryIs
 1716              	.LFSB1570:
 1717              	.L134:
 1718              		.cfi_def_cfa_offset 1872
 1719              		.cfi_offset 3, -40
 1720              		.cfi_offset 6, -32
 1721              		.cfi_offset 12, -24
 1722              		.cfi_offset 13, -16
 1723 0080 BF080000 		movl	$8, %edi
 1723      00
 1724 0085 E8000000 		call	__cxa_allocate_exception@PLT
 1724      00
 1725 008a 31D2     		xorl	%edx, %edx
 1726 008c 488D3500 		leaq	_ZTIPKc(%rip), %rsi
 1726      000000
 1727 0093 4889C7   		movq	%rax, %rdi
 1728 0096 488D0500 		leaq	.LC8(%rip), %rax
 1728      000000
 1729 009d 488907   		movq	%rax, (%rdi)
 1730              	.LEHB34:
 1731 00a0 E8000000 		call	__cxa_throw@PLT
 1731      00
 1732              	.LEHE34:
 1733              	.L119:
 1734 00a5 F30F1EFA 		endbr64
 1735              	.L133:
 1736 00a9 4889C3   		movq	%rax, %rbx
 1737 00ac 4889D5   		movq	%rdx, %rbp
 1738 00af E9D30000 		jmp	.L105
 1738      00
 1739              	.L85:
 1740 00b4 488BBC24 		movq	240(%rsp), %rdi
 1740      F0000000 
 1741 00bc 488D8424 		leaq	256(%rsp), %rax
 1741      00010000 
 1742 00c4 4839C7   		cmpq	%rax, %rdi
 1743 00c7 7405     		je	.L88
 1744 00c9 E8000000 		call	_ZdlPv@PLT
 1744      00
 1745              	.L88:
 1746 00ce 4889DF   		movq	%rbx, %rdi
 1747              	.L87:
 1748 00d1 E8000000 		call	__cxa_begin_catch@PLT
 1748      00
 1749              	.LEHB35:
 1750 00d6 E8000000 		call	_ZN8UnitTest11CurrentTest7ResultsEv@PLT
 1750      00
 1751 00db 4C8B28   		movq	(%rax), %r13
 1752 00de E8000000 		call	_ZN8UnitTest11CurrentTest7DetailsEv@PLT
 1752      00
 1753 00e3 488B30   		movq	(%rax), %rsi
 1754 00e6 488DBC24 		leaq	144(%rsp), %rdi
 1754      90000000 
 1755 00ee BA3E0000 		movl	$62, %edx
 1755      00
 1756 00f3 E8000000 		call	_ZN8UnitTest11TestDetailsC1ERKS0_i@PLT
 1756      00
 1757 00f8 488DB424 		leaq	144(%rsp), %rsi
 1757      90000000 
 1758 0100 488D1500 		leaq	.LC14(%rip), %rdx
 1758      000000
 1759 0107 4C89EF   		movq	%r13, %rdi
 1760 010a E8000000 		call	_ZN8UnitTest11TestResults13OnTestFailureERKNS_11TestDetailsEPKc@PLT
 1760      00
 1761              	.LEHE35:
 1762              	.LEHB36:
 1763 010f E8000000 		call	__cxa_end_catch@PLT
 1763      00
 1764              	.LEHE36:
 1765 0114 E9000000 		jmp	.L89
 1765      00
 1766              	.L98:
 1767 0119 488BBC24 		movq	208(%rsp), %rdi
 1767      D0000000 
 1768 0121 488D8424 		leaq	224(%rsp), %rax
 1768      E0000000 
 1769 0129 4839C7   		cmpq	%rax, %rdi
 1770 012c 7405     		je	.L101
 1771 012e E8000000 		call	_ZdlPv@PLT
 1771      00
 1772              	.L101:
 1773 0133 4889DF   		movq	%rbx, %rdi
 1774              	.L100:
 1775 0136 E8000000 		call	__cxa_begin_catch@PLT
 1775      00
 1776              	.LEHB37:
 1777 013b E8000000 		call	_ZN8UnitTest11CurrentTest7ResultsEv@PLT
 1777      00
 1778 0140 488B28   		movq	(%rax), %rbp
 1779 0143 E8000000 		call	_ZN8UnitTest11CurrentTest7DetailsEv@PLT
 1779      00
 1780 0148 488B30   		movq	(%rax), %rsi
 1781 014b 488D7C24 		leaq	80(%rsp), %rdi
 1781      50
 1782 0150 BA410000 		movl	$65, %edx
 1782      00
 1783 0155 E8000000 		call	_ZN8UnitTest11TestDetailsC1ERKS0_i@PLT
 1783      00
 1784 015a 488D7424 		leaq	80(%rsp), %rsi
 1784      50
 1785 015f 488D1500 		leaq	.LC15(%rip), %rdx
 1785      000000
 1786 0166 4889EF   		movq	%rbp, %rdi
 1787 0169 E8000000 		call	_ZN8UnitTest11TestResults13OnTestFailureERKNS_11TestDetailsEPKc@PLT
 1787      00
 1788              	.LEHE37:
 1789              	.LEHB38:
 1790 016e E8000000 		call	__cxa_end_catch@PLT
 1790      00
 1791              	.LEHE38:
 1792 0173 E9000000 		jmp	.L102
 1792      00
 1793              	.L124:
 1794 0178 F30F1EFA 		endbr64
 1795 017c 4889C3   		movq	%rax, %rbx
 1796 017f 4889D5   		movq	%rdx, %rbp
 1797 0182 E8000000 		call	__cxa_end_catch@PLT
 1797      00
 1798              	.L105:
 1799 0187 488DBC24 		leaq	688(%rsp), %rdi
 1799      B0020000 
 1800 018f E8000000 		call	_ZN8UnitTest16SignalTranslatorD1Ev@PLT
 1800      00
 1801 0194 4889DF   		movq	%rbx, %rdi
 1802              	.L107:
 1803 0197 4883FD01 		cmpq	$1, %rbp
 1804 019b 7432     		je	.L108
 1805 019d 4883FD02 		cmpq	$2, %rbp
 1806 01a1 0F84A100 		je	.L140
 1806      0000
 1807 01a7 E8000000 		call	__cxa_begin_catch@PLT
 1807      00
 1808              	.LEHB39:
 1809 01ac E8000000 		call	_ZN8UnitTest11CurrentTest7ResultsEv@PLT
 1809      00
 1810 01b1 488B7424 		movq	8(%rsp), %rsi
 1810      08
 1811 01b6 488B38   		movq	(%rax), %rdi
 1812 01b9 488D1500 		leaq	.LC17(%rip), %rdx
 1812      000000
 1813 01c0 E8000000 		call	_ZN8UnitTest11TestResults13OnTestFailureERKNS_11TestDetailsEPKc@PLT
 1813      00
 1814              	.LEHE39:
 1815              	.LEHB40:
 1816 01c5 E8000000 		call	__cxa_end_catch@PLT
 1816      00
 1817              	.LEHE40:
 1818 01ca E9000000 		jmp	.L74
 1818      00
 1819              	.L108:
 1820 01cf E8000000 		call	__cxa_begin_catch@PLT
 1820      00
 1821 01d4 4889C5   		movq	%rax, %rbp
 1822              	.LEHB41:
 1823 01d7 E8000000 		call	_ZN8UnitTest11CurrentTest7ResultsEv@PLT
 1823      00
 1824 01dc 4C8B28   		movq	(%rax), %r13
 1825 01df 488B4500 		movq	0(%rbp), %rax
 1826 01e3 4889EF   		movq	%rbp, %rdi
 1827 01e6 FF5010   		call	*16(%rax)
 1828 01e9 4889EF   		movq	%rbp, %rdi
 1829 01ec 4989C4   		movq	%rax, %r12
 1830 01ef E8000000 		call	_ZNK8UnitTest15AssertException10LineNumberEv@PLT
 1830      00
 1831 01f4 4889EF   		movq	%rbp, %rdi
 1832 01f7 89C3     		movl	%eax, %ebx
 1833 01f9 E8000000 		call	_ZNK8UnitTest15AssertException8FilenameEv@PLT
 1833      00
 1834 01fe 4889C1   		movq	%rax, %rcx
 1835 0201 488B4424 		movq	8(%rsp), %rax
 1835      08
 1836 0206 488D7C24 		leaq	16(%rsp), %rdi
 1836      10
 1837 020b 4189D8   		movl	%ebx, %r8d
 1838 020e 488B7008 		movq	8(%rax), %rsi
 1839 0212 488B10   		movq	(%rax), %rdx
 1840 0215 E8000000 		call	_ZN8UnitTest11TestDetailsC1EPKcS2_S2_i@PLT
 1840      00
 1841 021a 488D7424 		leaq	16(%rsp), %rsi
 1841      10
 1842 021f 4C89E2   		movq	%r12, %rdx
 1843 0222 4C89EF   		movq	%r13, %rdi
 1844 0225 E8000000 		call	_ZN8UnitTest11TestResults13OnTestFailureERKNS_11TestDetailsEPKc@PLT
 1844      00
 1845              	.LEHE41:
 1846 022a E8000000 		call	__cxa_end_catch@PLT
 1846      00
 1847 022f E9000000 		jmp	.L74
 1847      00
 1848              	.L120:
 1849 0234 F30F1EFA 		endbr64
 1850 0238 4889C5   		movq	%rax, %rbp
 1851 023b E8000000 		call	__cxa_end_catch@PLT
 1851      00
 1852 0240 4889EF   		movq	%rbp, %rdi
 1853              	.LEHB42:
 1854 0243 E8000000 		call	_Unwind_Resume@PLT
 1854      00
 1855              	.LEHE42:
 1856              	.L140:
 1857 0248 E8000000 		call	__cxa_begin_catch@PLT
 1857      00
 1858 024d 488DBC24 		leaq	272(%rsp), %rdi
 1858      10010000 
 1859 0255 4889C5   		movq	%rax, %rbp
 1860              	.LEHB43:
 1861 0258 E8000000 		call	_ZN8UnitTest15MemoryOutStreamC1Ev
 1861      00
 1862              	.LEHE43:
 1863 025d 488DBC24 		leaq	272(%rsp), %rdi
 1863      10010000 
 1864 0265 BA150000 		movl	$21, %edx
 1864      00
 1865 026a 488D3500 		leaq	.LC16(%rip), %rsi
 1865      000000
 1866              	.LEHB44:
 1867 0271 E8000000 		call	_ZSt16__ostream_insertIcSt11char_traitsIcEERSt13basic_ostreamIT_T0_ES6_PKS3_l@PLT
 1867      00
 1868 0276 488B4500 		movq	0(%rbp), %rax
 1869 027a 4889EF   		movq	%rbp, %rdi
 1870 027d FF5010   		call	*16(%rax)
 1871 0280 488DBC24 		leaq	272(%rsp), %rdi
 1871      10010000 
 1872 0288 4889C6   		movq	%rax, %rsi
 1873 028b E8000000 		call	_ZStlsISt11char_traitsIcEERSt13basic_ostreamIcT_ES5_PKc@PLT
 1873      00
 1874 0290 E8000000 		call	_ZN8UnitTest11CurrentTest7ResultsEv@PLT
 1874      00
 1875 0295 488DBC24 		leaq	272(%rsp), %rdi
 1875      10010000 
 1876 029d 488B28   		movq	(%rax), %rbp
 1877 02a0 E8000000 		call	_ZNK8UnitTest15MemoryOutStream7GetTextEv@PLT
 1877      00
 1878 02a5 488B7424 		movq	8(%rsp), %rsi
 1878      08
 1879 02aa 4889C2   		movq	%rax, %rdx
 1880 02ad 4889EF   		movq	%rbp, %rdi
 1881 02b0 E8000000 		call	_ZN8UnitTest11TestResults13OnTestFailureERKNS_11TestDetailsEPKc@PLT
 1881      00
 1882              	.LEHE44:
 1883 02b5 488DBC24 		leaq	272(%rsp), %rdi
 1883      10010000 
 1884              	.LEHB45:
 1885 02bd E8000000 		call	_ZN8UnitTest15MemoryOutStreamD1Ev
 1885      00
 1886              	.LEHE45:
 1887 02c2 E8000000 		call	__cxa_end_catch@PLT
 1887      00
 1888 02c7 E9000000 		jmp	.L74
 1888      00
 1889              	.L122:
 1890 02cc F30F1EFA 		endbr64
 1891 02d0 488DBC24 		leaq	272(%rsp), %rdi
 1891      10010000 
 1892 02d8 4889C5   		movq	%rax, %rbp
 1893 02db E8000000 		call	_ZN8UnitTest15MemoryOutStreamD1Ev
 1893      00
 1894              	.L115:
 1895 02e0 E8000000 		call	__cxa_end_catch@PLT
 1895      00
 1896 02e5 4889EF   		movq	%rbp, %rdi
 1897              	.LEHB46:
 1898 02e8 E8000000 		call	_Unwind_Resume@PLT
 1898      00
 1899              	.LEHE46:
 1900              	.L121:
 1901 02ed F30F1EFA 		endbr64
 1902 02f1 4889C5   		movq	%rax, %rbp
 1903 02f4 EBEA     		jmp	.L115
 1904              	.L123:
 1905 02f6 F30F1EFA 		endbr64
 1906 02fa 4889C5   		movq	%rax, %rbp
 1907 02fd E8000000 		call	__cxa_end_catch@PLT
 1907      00
 1908 0302 4889EF   		movq	%rbp, %rdi
 1909              	.LEHB47:
 1910 0305 E8000000 		call	_Unwind_Resume@PLT
 1910      00
 1911              	.LEHE47:
 1912              	.L126:
 1913 030a F30F1EFA 		endbr64
 1914 030e 4889C3   		movq	%rax, %rbx
 1915 0311 4889D5   		movq	%rdx, %rbp
 1916 0314 E8000000 		call	__cxa_end_catch@PLT
 1916      00
 1917 0319 E969FEFF 		jmp	.L105
 1917      FF
 1918              		.cfi_endproc
 1919              	.LFE1570:
 1920              		.section	.gcc_except_table
 1921              		.align 4
 1922              	.LLSDAC1570:
 1923 010c FF       		.byte	0xff
 1924 010d 9B       		.byte	0x9b
 1925 010e 61       		.uleb128 .LLSDATTC1570-.LLSDATTDC1570
 1926              	.LLSDATTDC1570:
 1927 010f 01       		.byte	0x1
 1928 0110 4B       		.uleb128 .LLSDACSEC1570-.LLSDACSBC1570
 1929              	.LLSDACSBC1570:
 1930 0111 20       		.uleb128 .LEHB34-.LCOLDB18
 1931 0112 05       		.uleb128 .LEHE34-.LEHB34
 1932 0113 25       		.uleb128 .L119-.LCOLDB18
 1933 0114 07       		.uleb128 0x7
 1934 0115 56       		.uleb128 .LEHB35-.LCOLDB18
 1935 0116 39       		.uleb128 .LEHE35-.LEHB35
 1936 0117 8A05     		.uleb128 .L126-.LCOLDB18
 1937 0119 07       		.uleb128 0x7
 1938 011a 8F01     		.uleb128 .LEHB36-.LCOLDB18
 1939 011c 05       		.uleb128 .LEHE36-.LEHB36
 1940 011d 25       		.uleb128 .L119-.LCOLDB18
 1941 011e 07       		.uleb128 0x7
 1942 011f BB01     		.uleb128 .LEHB37-.LCOLDB18
 1943 0121 33       		.uleb128 .LEHE37-.LEHB37
 1944 0122 F801     		.uleb128 .L124-.LCOLDB18
 1945 0124 07       		.uleb128 0x7
 1946 0125 EE01     		.uleb128 .LEHB38-.LCOLDB18
 1947 0127 05       		.uleb128 .LEHE38-.LEHB38
 1948 0128 25       		.uleb128 .L119-.LCOLDB18
 1949 0129 07       		.uleb128 0x7
 1950 012a AC02     		.uleb128 .LEHB39-.LCOLDB18
 1951 012c 19       		.uleb128 .LEHE39-.LEHB39
 1952 012d F604     		.uleb128 .L123-.LCOLDB18
 1953 012f 00       		.uleb128 0
 1954 0130 C502     		.uleb128 .LEHB40-.LCOLDB18
 1955 0132 05       		.uleb128 .LEHE40-.LEHB40
 1956 0133 00       		.uleb128 0
 1957 0134 00       		.uleb128 0
 1958 0135 D702     		.uleb128 .LEHB41-.LCOLDB18
 1959 0137 53       		.uleb128 .LEHE41-.LEHB41
 1960 0138 B403     		.uleb128 .L120-.LCOLDB18
 1961 013a 00       		.uleb128 0
 1962 013b C303     		.uleb128 .LEHB42-.LCOLDB18
 1963 013d 05       		.uleb128 .LEHE42-.LEHB42
 1964 013e 00       		.uleb128 0
 1965 013f 00       		.uleb128 0
 1966 0140 D803     		.uleb128 .LEHB43-.LCOLDB18
 1967 0142 05       		.uleb128 .LEHE43-.LEHB43
 1968 0143 ED04     		.uleb128 .L121-.LCOLDB18
 1969 0145 00       		.uleb128 0
 1970 0146 F103     		.uleb128 .LEHB44-.LCOLDB18
 1971 0148 44       		.uleb128 .LEHE44-.LEHB44
 1972 0149 CC04     		.uleb128 .L122-.LCOLDB18
 1973 014b 00       		.uleb128 0
 1974 014c BD04     		.uleb128 .LEHB45-.LCOLDB18
 1975 014e 05       		.uleb128 .LEHE45-.LEHB45
 1976 014f ED04     		.uleb128 .L121-.LCOLDB18
 1977 0151 00       		.uleb128 0
 1978 0152 E804     		.uleb128 .LEHB46-.LCOLDB18
 1979 0154 05       		.uleb128 .LEHE46-.LEHB46
 1980 0155 00       		.uleb128 0
 1981 0156 00       		.uleb128 0
 1982 0157 8505     		.uleb128 .LEHB47-.LCOLDB18
 1983 0159 05       		.uleb128 .LEHE47-.LEHB47
 1984 015a 00       		.uleb128 0
 1985 015b 00       		.uleb128 0
 1986              	.LLSDACSEC1570:
 1987 015c 03       		.byte	0x3
 1988 015d 00       		.byte	0
 1989 015e 02       		.byte	0x2
 1990 015f 7D       		.byte	0x7d
 1991 0160 01       		.byte	0x1
 1992 0161 7D       		.byte	0x7d
 1993 0162 00       		.byte	0
 1994 0163 7D       		.byte	0x7d
 1995              		.align 4
 1996 0164 00000000 		.long	0
 1997              	
 1998 0168 00000000 		.long	DW.ref._ZTISt9exception-.
 1999 016c 00000000 		.long	DW.ref._ZTIN8UnitTest15AssertExceptionE-.
 2000              	.LLSDATTC1570:
 2001              		.section	.text.unlikely
 2002              		.text
 2004              		.section	.text.unlikely
 2006              	.LCOLDE18:
 2007              		.text
 2008              	.LHOTE18:
 2009              		.section	.text._ZNSt7__cxx1115basic_stringbufIcSt11char_traitsIcESaIcEED0Ev,"axG",@progbits,_ZNSt7
 2010              		.align 2
 2011              		.p2align 4
 2012              		.weak	_ZNSt7__cxx1115basic_stringbufIcSt11char_traitsIcESaIcEED0Ev
 2014              	_ZNSt7__cxx1115basic_stringbufIcSt11char_traitsIcESaIcEED0Ev:
 2015              	.LFB1550:
 2016              		.cfi_startproc
 2017 0000 F30F1EFA 		endbr64
 2018 0004 488D0500 		leaq	16+_ZTVNSt7__cxx1115basic_stringbufIcSt11char_traitsIcESaIcEEE(%rip), %rax
 2018      000000
 2019 000b 55       		pushq	%rbp
 2020              		.cfi_def_cfa_offset 16
 2021              		.cfi_offset 6, -16
 2022 000c 4889FD   		movq	%rdi, %rbp
 2023 000f 488907   		movq	%rax, (%rdi)
 2024 0012 488B7F48 		movq	72(%rdi), %rdi
 2025 0016 488D4558 		leaq	88(%rbp), %rax
 2026 001a 4839C7   		cmpq	%rax, %rdi
 2027 001d 7405     		je	.L142
 2028 001f E8000000 		call	_ZdlPv@PLT
 2028      00
 2029              	.L142:
 2030 0024 488D0500 		leaq	16+_ZTVSt15basic_streambufIcSt11char_traitsIcEE(%rip), %rax
 2030      000000
 2031 002b 488D7D38 		leaq	56(%rbp), %rdi
 2032 002f 48894500 		movq	%rax, 0(%rbp)
 2033 0033 E8000000 		call	_ZNSt6localeD1Ev@PLT
 2033      00
 2034 0038 4889EF   		movq	%rbp, %rdi
 2035 003b 5D       		popq	%rbp
 2036              		.cfi_def_cfa_offset 8
 2037 003c E9000000 		jmp	_ZdlPv@PLT
 2037      00
 2038              		.cfi_endproc
 2039              	.LFE1550:
 2041              		.section	.text.unlikely
 2042              		.align 2
 2044              	_ZN12_GLOBAL__N_122XmlTestReporterFixtureD2Ev:
 2045              	.LFB1450:
 2046              		.cfi_startproc
 2047              		.cfi_personality 0x9b,DW.ref.__gxx_personality_v0
 2048              		.cfi_lsda 0x1b,.LLSDA1450
 2049 031e 488D0500 		leaq	16+_ZTVN8UnitTest20DeferredTestReporterE(%rip), %rax
 2049      000000
 2050 0325 4156     		pushq	%r14
 2051              		.cfi_def_cfa_offset 16
 2052              		.cfi_offset 14, -16
 2053 0327 4155     		pushq	%r13
 2054              		.cfi_def_cfa_offset 24
 2055              		.cfi_offset 13, -24
 2056 0329 4154     		pushq	%r12
 2057              		.cfi_def_cfa_offset 32
 2058              		.cfi_offset 12, -32
 2059 032b 55       		pushq	%rbp
 2060              		.cfi_def_cfa_offset 40
 2061              		.cfi_offset 6, -40
 2062 032c 4889FD   		movq	%rdi, %rbp
 2063 032f 53       		pushq	%rbx
 2064              		.cfi_def_cfa_offset 48
 2065              		.cfi_offset 3, -48
 2066 0330 4C8BAF88 		movq	392(%rdi), %r13
 2066      010000
 2067 0337 48898778 		movq	%rax, 376(%rdi)
 2067      010000
 2068 033e 488B9F80 		movq	384(%rdi), %rbx
 2068      010000
 2069              	.L145:
 2070 0345 4939DD   		cmpq	%rbx, %r13
 2071 0348 7470     		je	.L165
 2072 034a 4C8B7368 		movq	104(%rbx), %r14
 2073 034e 4C8B6360 		movq	96(%rbx), %r12
 2074              	.L146:
 2075 0352 4D39E6   		cmpq	%r12, %r14
 2076 0355 741A     		je	.L166
 2077 0357 498B7C24 		movq	8(%r12), %rdi
 2077      08
 2078 035c 498D4424 		leaq	24(%r12), %rax
 2078      18
 2079 0361 4839C7   		cmpq	%rax, %rdi
 2080 0364 7405     		je	.L147
 2081 0366 E8000000 		call	_ZdlPv@PLT
 2081      00
 2082              	.L147:
 2083 036b 4983C428 		addq	$40, %r12
 2084 036f EBE1     		jmp	.L146
 2085              	.L166:
 2086 0371 488B7B60 		movq	96(%rbx), %rdi
 2087 0375 4885FF   		testq	%rdi, %rdi
 2088 0378 7405     		je	.L149
 2089 037a E8000000 		call	_ZdlPv@PLT
 2089      00
 2090              	.L149:
 2091 037f 488B7B40 		movq	64(%rbx), %rdi
 2092 0383 488D4350 		leaq	80(%rbx), %rax
 2093 0387 4839C7   		cmpq	%rax, %rdi
 2094 038a 7405     		je	.L150
 2095 038c E8000000 		call	_ZdlPv@PLT
 2095      00
 2096              	.L150:
 2097 0391 488B7B20 		movq	32(%rbx), %rdi
 2098 0395 488D4330 		leaq	48(%rbx), %rax
 2099 0399 4839C7   		cmpq	%rax, %rdi
 2100 039c 7405     		je	.L151
 2101 039e E8000000 		call	_ZdlPv@PLT
 2101      00
 2102              	.L151:
 2103 03a3 488B3B   		movq	(%rbx), %rdi
 2104 03a6 488D4310 		leaq	16(%rbx), %rax
 2105 03aa 4839C7   		cmpq	%rax, %rdi
 2106 03ad 7405     		je	.L152
 2107 03af E8000000 		call	_ZdlPv@PLT
 2107      00
 2108              	.L152:
 2109 03b4 4883EB80 		subq	$-128, %rbx
 2110 03b8 EB8B     		jmp	.L145
 2111              	.L165:
 2112 03ba 488BBD80 		movq	384(%rbp), %rdi
 2112      010000
 2113 03c1 4885FF   		testq	%rdi, %rdi
 2114 03c4 7405     		je	.L154
 2115 03c6 E8000000 		call	_ZdlPv@PLT
 2115      00
 2116              	.L154:
 2117 03cb 488DBD78 		leaq	376(%rbp), %rdi
 2117      010000
 2118              	.LEHB48:
 2119 03d2 E8000000 		call	_ZN8UnitTest12TestReporterD2Ev@PLT
 2119      00
 2120              	.LEHE48:
 2121 03d7 488D0500 		leaq	64+_ZTVNSt7__cxx1119basic_ostringstreamIcSt11char_traitsIcESaIcEEE(%rip), %rax
 2121      000000
 2122 03de 488D0D00 		leaq	24+_ZTVNSt7__cxx1119basic_ostringstreamIcSt11char_traitsIcESaIcEEE(%rip), %rcx
 2122      000000
 2123 03e5 488B7D50 		movq	80(%rbp), %rdi
 2124 03e9 48894570 		movq	%rax, 112(%rbp)
 2125 03ed 488D0500 		leaq	16+_ZTVNSt7__cxx1115basic_stringbufIcSt11char_traitsIcESaIcEEE(%rip), %rax
 2125      000000
 2126 03f4 66480F6E 		movq	%rcx, %xmm0
 2126      C1
 2127 03f9 66480F6E 		movq	%rax, %xmm1
 2127      C8
 2128 03fe 488D4560 		leaq	96(%rbp), %rax
 2129 0402 660F6CC1 		punpcklqdq	%xmm1, %xmm0
 2130 0406 0F114500 		movups	%xmm0, 0(%rbp)
 2131 040a 4839C7   		cmpq	%rax, %rdi
 2132 040d 7405     		je	.L155
 2133 040f E8000000 		call	_ZdlPv@PLT
 2133      00
 2134              	.L155:
 2135 0414 488D0500 		leaq	16+_ZTVSt15basic_streambufIcSt11char_traitsIcEE(%rip), %rax
 2135      000000
 2136 041b 488D7D40 		leaq	64(%rbp), %rdi
 2137 041f 48894508 		movq	%rax, 8(%rbp)
 2138 0423 E8000000 		call	_ZNSt6localeD1Ev@PLT
 2138      00
 2139 0428 488B0500 		movq	8+_ZTTNSt7__cxx1119basic_ostringstreamIcSt11char_traitsIcESaIcEEE(%rip), %rax
 2139      000000
 2140 042f 5B       		popq	%rbx
 2141              		.cfi_remember_state
 2142              		.cfi_def_cfa_offset 40
 2143 0430 488D7D70 		leaq	112(%rbp), %rdi
 2144 0434 488B1500 		movq	16+_ZTTNSt7__cxx1119basic_ostringstreamIcSt11char_traitsIcESaIcEEE(%rip), %rdx
 2144      000000
 2145 043b 48894500 		movq	%rax, 0(%rbp)
 2146 043f 488B40E8 		movq	-24(%rax), %rax
 2147 0443 48895405 		movq	%rdx, 0(%rbp,%rax)
 2147      00
 2148 0448 488D0500 		leaq	16+_ZTVSt9basic_iosIcSt11char_traitsIcEE(%rip), %rax
 2148      000000
 2149 044f 48894570 		movq	%rax, 112(%rbp)
 2150 0453 5D       		popq	%rbp
 2151              		.cfi_def_cfa_offset 32
 2152 0454 415C     		popq	%r12
 2153              		.cfi_def_cfa_offset 24
 2154 0456 415D     		popq	%r13
 2155              		.cfi_def_cfa_offset 16
 2156 0458 415E     		popq	%r14
 2157              		.cfi_def_cfa_offset 8
 2158              	.LEHB49:
 2159 045a E9000000 		jmp	_ZNSt8ios_baseD2Ev@PLT
 2159      00
 2160              	.LEHE49:
 2161              	.L157:
 2162              		.cfi_restore_state
 2163 045f F30F1EFA 		endbr64
 2164 0463 4989C4   		movq	%rax, %r12
 2165              	.L156:
 2166 0466 4889EF   		movq	%rbp, %rdi
 2167 0469 E8000000 		call	_ZNSt7__cxx1119basic_ostringstreamIcSt11char_traitsIcESaIcEED1Ev@PLT
 2167      00
 2168 046e 4C89E7   		movq	%r12, %rdi
 2169              	.LEHB50:
 2170 0471 E8000000 		call	_Unwind_Resume@PLT
 2170      00
 2171              	.LEHE50:
 2172              		.cfi_endproc
 2173              	.LFE1450:
 2174              		.section	.gcc_except_table
 2175              	.LLSDA1450:
 2176 0170 FF       		.byte	0xff
 2177 0171 FF       		.byte	0xff
 2178 0172 01       		.byte	0x1
 2179 0173 10       		.uleb128 .LLSDACSE1450-.LLSDACSB1450
 2180              	.LLSDACSB1450:
 2181 0174 B401     		.uleb128 .LEHB48-.LFB1450
 2182 0176 05       		.uleb128 .LEHE48-.LEHB48
 2183 0177 C102     		.uleb128 .L157-.LFB1450
 2184 0179 00       		.uleb128 0
 2185 017a BC02     		.uleb128 .LEHB49-.LFB1450
 2186 017c 05       		.uleb128 .LEHE49-.LEHB49
 2187 017d 00       		.uleb128 0
 2188 017e 00       		.uleb128 0
 2189 017f D302     		.uleb128 .LEHB50-.LFB1450
 2190 0181 05       		.uleb128 .LEHE50-.LEHB50
 2191 0182 00       		.uleb128 0
 2192 0183 00       		.uleb128 0
 2193              	.LLSDACSE1450:
 2194              		.section	.text.unlikely
 2196              		.section	.rodata.str1.8
 2197 006c 00000000 		.align 8
 2198              	.LC19:
 2199 0070 556E6861 		.string	"Unhandled exception while destroying fixture XmlTestReporterFixture"
 2199      6E646C65 
 2199      64206578 
 2199      63657074 
 2199      696F6E20 
 2200 00b4 00000000 		.align 8
 2201              	.LC20:
 2202 00b8 556E6861 		.string	"Unhandled exception while constructing fixture XmlTestReporterFixture"
 2202      6E646C65 
 2202      64206578 
 2202      63657074 
 2202      696F6E20 
 2203              		.section	.text.unlikely
 2204              		.align 2
 2205              	.LCOLDB22:
 2206              		.text
 2207              	.LHOTB22:
 2208              		.align 2
 2209 064a 660F1F44 		.p2align 4
 2209      0000
 2211              	_ZNK12_GLOBAL__N_166TestXmlTestReporterFixtureOutputIsCachedUntilReportSummaryIsCalled7RunImplEv:
 2212              	.LFB1468:
 2213              		.cfi_startproc
 2214              		.cfi_personality 0x9b,DW.ref.__gxx_personality_v0
 2215              		.cfi_lsda 0x1b,.LLSDA1468
 2216 0650 F30F1EFA 		endbr64
 2217 0654 4157     		pushq	%r15
 2218              		.cfi_def_cfa_offset 16
 2219              		.cfi_offset 15, -16
 2220 0656 4156     		pushq	%r14
 2221              		.cfi_def_cfa_offset 24
 2222              		.cfi_offset 14, -24
 2223 0658 4155     		pushq	%r13
 2224              		.cfi_def_cfa_offset 32
 2225              		.cfi_offset 13, -32
 2226 065a 4154     		pushq	%r12
 2227              		.cfi_def_cfa_offset 40
 2228              		.cfi_offset 12, -40
 2229 065c 55       		pushq	%rbp
 2230              		.cfi_def_cfa_offset 48
 2231              		.cfi_offset 6, -48
 2232 065d 53       		pushq	%rbx
 2233              		.cfi_def_cfa_offset 56
 2234              		.cfi_offset 3, -56
 2235 065e 488D1D00 		leaq	16+_ZTVNSt7__cxx1115basic_stringbufIcSt11char_traitsIcESaIcEEE(%rip), %rbx
 2235      000000
 2236 0665 66480F6E 		movq	%rbx, %xmm3
 2236      DB
 2237 066a 4881EC18 		subq	$536, %rsp
 2237      020000
 2238              		.cfi_def_cfa_offset 592
 2239 0671 48897C24 		movq	%rdi, 56(%rsp)
 2239      38
 2240 0676 4C8DB424 		leaq	208(%rsp), %r14
 2240      D0000000 
 2241 067e 4C8D6C24 		leaq	96(%rsp), %r13
 2241      60
 2242 0683 64488B04 		movq	%fs:40, %rax
 2242      25280000 
 2242      00
 2243 068c 48898424 		movq	%rax, 520(%rsp)
 2243      08020000 
 2244 0694 488D0500 		leaq	24+_ZTVNSt7__cxx1119basic_ostringstreamIcSt11char_traitsIcESaIcEEE(%rip), %rax
 2244      000000
 2245 069b 66480F6E 		movq	%rax, %xmm1
 2245      C8
 2246 06a0 66480F6E 		movq	%rax, %xmm2
 2246      D0
 2247 06a5 488D4708 		leaq	8(%rdi), %rax
 2248 06a9 4C89F7   		movq	%r14, %rdi
 2249 06ac 660F6CCB 		punpcklqdq	%xmm3, %xmm1
 2250 06b0 0F161500 		movhps	.LC21(%rip), %xmm2
 2250      000000
 2251 06b7 48894424 		movq	%rax, 32(%rsp)
 2251      20
 2252 06bc 0F294C24 		movaps	%xmm1, 16(%rsp)
 2252      10
 2253 06c1 0F291424 		movaps	%xmm2, (%rsp)
 2254 06c5 E8000000 		call	_ZNSt8ios_baseC2Ev@PLT
 2254      00
 2255 06ca 488D0500 		leaq	16+_ZTVSt9basic_iosIcSt11char_traitsIcEE(%rip), %rax
 2255      000000
 2256 06d1 660FEFC0 		pxor	%xmm0, %xmm0
 2257 06d5 31F6     		xorl	%esi, %esi
 2258 06d7 48898424 		movq	%rax, 208(%rsp)
 2258      D0000000 
 2259 06df 31C0     		xorl	%eax, %eax
 2260 06e1 66898424 		movw	%ax, 432(%rsp)
 2260      B0010000 
 2261 06e9 488B0500 		movq	8+_ZTTNSt7__cxx1119basic_ostringstreamIcSt11char_traitsIcESaIcEEE(%rip), %rax
 2261      000000
 2262 06f0 0F118424 		movups	%xmm0, 440(%rsp)
 2262      B8010000 
 2263 06f8 0F118424 		movups	%xmm0, 456(%rsp)
 2263      C8010000 
 2264 0700 488B78E8 		movq	-24(%rax), %rdi
 2265 0704 48894424 		movq	%rax, 96(%rsp)
 2265      60
 2266 0709 488B0500 		movq	16+_ZTTNSt7__cxx1119basic_ostringstreamIcSt11char_traitsIcESaIcEEE(%rip), %rax
 2266      000000
 2267 0710 48C78424 		movq	$0, 424(%rsp)
 2267      A8010000 
 2267      00000000 
 2268 071c 4C01EF   		addq	%r13, %rdi
 2269 071f 488907   		movq	%rax, (%rdi)
 2270              	.LEHB51:
 2271 0722 E8000000 		call	_ZNSt9basic_iosIcSt11char_traitsIcEE4initEPSt15basic_streambufIcS1_E@PLT
 2271      00
 2272              	.LEHE51:
 2273 0727 488D0500 		leaq	64+_ZTVNSt7__cxx1119basic_ostringstreamIcSt11char_traitsIcESaIcEEE(%rip), %rax
 2273      000000
 2274 072e 660F6F14 		movdqa	(%rsp), %xmm2
 2274      24
 2275 0733 660FEFC0 		pxor	%xmm0, %xmm0
 2276 0737 488D6C24 		leaq	104(%rsp), %rbp
 2276      68
 2277 073c 48898424 		movq	%rax, 208(%rsp)
 2277      D0000000 
 2278 0744 488D8424 		leaq	160(%rsp), %rax
 2278      A0000000 
 2279 074c 4889C7   		movq	%rax, %rdi
 2280 074f 48890424 		movq	%rax, (%rsp)
 2281 0753 0F295424 		movaps	%xmm2, 96(%rsp)
 2281      60
 2282 0758 0F294424 		movaps	%xmm0, 112(%rsp)
 2282      70
 2283 075d 0F298424 		movaps	%xmm0, 128(%rsp)
 2283      80000000 
 2284 0765 0F298424 		movaps	%xmm0, 144(%rsp)
 2284      90000000 
 2285 076d E8000000 		call	_ZNSt6localeC1Ev@PLT
 2285      00
 2286 0772 4889EE   		movq	%rbp, %rsi
 2287 0775 4C89F7   		movq	%r14, %rdi
 2288 0778 48895C24 		movq	%rbx, 104(%rsp)
 2288      68
 2289 077d 488D8424 		leaq	192(%rsp), %rax
 2289      C0000000 
 2290 0785 C68424C0 		movb	$0, 192(%rsp)
 2290      00000000 
 2291 078d C78424A8 		movl	$16, 168(%rsp)
 2291      00000010 
 2291      000000
 2292 0798 48894424 		movq	%rax, 40(%rsp)
 2292      28
 2293 079d 48898424 		movq	%rax, 176(%rsp)
 2293      B0000000 
 2294 07a5 48C78424 		movq	$0, 184(%rsp)
 2294      B8000000 
 2294      00000000 
 2295              	.LEHB52:
 2296 07b1 E8000000 		call	_ZNSt9basic_iosIcSt11char_traitsIcEE4initEPSt15basic_streambufIcS1_E@PLT
 2296      00
 2297              	.LEHE52:
 2298 07b6 488D8424 		leaq	472(%rsp), %rax
 2298      D8010000 
 2299 07be 4C89EE   		movq	%r13, %rsi
 2300 07c1 4889C7   		movq	%rax, %rdi
 2301 07c4 48894424 		movq	%rax, 48(%rsp)
 2301      30
 2302              	.LEHB53:
 2303 07c9 E8000000 		call	_ZN8UnitTest15XmlTestReporterC1ERSo@PLT
 2303      00
 2304              	.LEHE53:
 2305 07ce 488B4424 		movq	32(%rsp), %rax
 2305      20
 2306 07d3 4C89EF   		movq	%r13, %rdi
 2307 07d6 4889C6   		movq	%rax, %rsi
 2308 07d9 48898424 		movq	%rax, 512(%rsp)
 2308      00020000 
 2309              	.LEHB54:
 2310 07e1 E81AFBFF 		call	_ZN8UnitTest11ExecuteTestIN12_GLOBAL__N_168XmlTestReporterFixtureOutputIsCachedUntilReportSum
 2310      FF
 2311              	.LEHE54:
 2312 07e6 4C8BA424 		movq	488(%rsp), %r12
 2312      E8010000 
 2313 07ee 488BAC24 		movq	480(%rsp), %rbp
 2313      E0010000 
 2314 07f6 488D0500 		leaq	16+_ZTVN8UnitTest20DeferredTestReporterE(%rip), %rax
 2314      000000
 2315 07fd 48898424 		movq	%rax, 472(%rsp)
 2315      D8010000 
 2316 0805 4939EC   		cmpq	%rbp, %r12
 2317 0808 0F849100 		je	.L174
 2317      0000
 2318 080e 6690     		.p2align 4,,10
 2319              		.p2align 3
 2320              	.L186:
 2321 0810 488B5D68 		movq	104(%rbp), %rbx
 2322 0814 4C8B7D60 		movq	96(%rbp), %r15
 2323 0818 4C39FB   		cmpq	%r15, %rbx
 2324 081b 7426     		je	.L175
 2325 081d 0F1F00   		.p2align 4,,10
 2326              		.p2align 3
 2327              	.L179:
 2328 0820 498B7F08 		movq	8(%r15), %rdi
 2329 0824 498D4718 		leaq	24(%r15), %rax
 2330 0828 4839C7   		cmpq	%rax, %rdi
 2331 082b 0F842701 		je	.L176
 2331      0000
 2332 0831 E8000000 		call	_ZdlPv@PLT
 2332      00
 2333 0836 4983C728 		addq	$40, %r15
 2334 083a 4939DF   		cmpq	%rbx, %r15
 2335 083d 75E1     		jne	.L179
 2336              	.L178:
 2337 083f 4C8B7D60 		movq	96(%rbp), %r15
 2338              	.L175:
 2339 0843 4D85FF   		testq	%r15, %r15
 2340 0846 7408     		je	.L180
 2341 0848 4C89FF   		movq	%r15, %rdi
 2342 084b E8000000 		call	_ZdlPv@PLT
 2342      00
 2343              	.L180:
 2344 0850 488B7D40 		movq	64(%rbp), %rdi
 2345 0854 488D4550 		leaq	80(%rbp), %rax
 2346 0858 4839C7   		cmpq	%rax, %rdi
 2347 085b 7405     		je	.L181
 2348 085d E8000000 		call	_ZdlPv@PLT
 2348      00
 2349              	.L181:
 2350 0862 488B7D20 		movq	32(%rbp), %rdi
 2351 0866 488D4530 		leaq	48(%rbp), %rax
 2352 086a 4839C7   		cmpq	%rax, %rdi
 2353 086d 7405     		je	.L182
 2354 086f E8000000 		call	_ZdlPv@PLT
 2354      00
 2355              	.L182:
 2356 0874 488B7D00 		movq	0(%rbp), %rdi
 2357 0878 488D4510 		leaq	16(%rbp), %rax
 2358 087c 4839C7   		cmpq	%rax, %rdi
 2359 087f 0F84EB00 		je	.L183
 2359      0000
 2360 0885 E8000000 		call	_ZdlPv@PLT
 2360      00
 2361 088a 4883ED80 		subq	$-128, %rbp
 2362 088e 4939EC   		cmpq	%rbp, %r12
 2363 0891 0F8579FF 		jne	.L186
 2363      FFFF
 2364              	.L185:
 2365 0897 488BAC24 		movq	480(%rsp), %rbp
 2365      E0010000 
 2366              	.L174:
 2367 089f 4885ED   		testq	%rbp, %rbp
 2368 08a2 7408     		je	.L187
 2369 08a4 4889EF   		movq	%rbp, %rdi
 2370 08a7 E8000000 		call	_ZdlPv@PLT
 2370      00
 2371              	.L187:
 2372 08ac 488B7C24 		movq	48(%rsp), %rdi
 2372      30
 2373              	.LEHB55:
 2374 08b1 E8000000 		call	_ZN8UnitTest12TestReporterD2Ev@PLT
 2374      00
 2375              	.LEHE55:
 2376 08b6 660F6F64 		movdqa	16(%rsp), %xmm4
 2376      2410
 2377 08bc 488D0500 		leaq	64+_ZTVNSt7__cxx1119basic_ostringstreamIcSt11char_traitsIcESaIcEEE(%rip), %rax
 2377      000000
 2378 08c3 488BBC24 		movq	176(%rsp), %rdi
 2378      B0000000 
 2379 08cb 48898424 		movq	%rax, 208(%rsp)
 2379      D0000000 
 2380 08d3 0F296424 		movaps	%xmm4, 96(%rsp)
 2380      60
 2381 08d8 483B7C24 		cmpq	40(%rsp), %rdi
 2381      28
 2382 08dd 7405     		je	.L188
 2383 08df E8000000 		call	_ZdlPv@PLT
 2383      00
 2384              	.L188:
 2385 08e4 488B3C24 		movq	(%rsp), %rdi
 2386 08e8 488D0500 		leaq	16+_ZTVSt15basic_streambufIcSt11char_traitsIcEE(%rip), %rax
 2386      000000
 2387 08ef 48894424 		movq	%rax, 104(%rsp)
 2387      68
 2388 08f4 E8000000 		call	_ZNSt6localeD1Ev@PLT
 2388      00
 2389 08f9 488B0500 		movq	8+_ZTTNSt7__cxx1119basic_ostringstreamIcSt11char_traitsIcESaIcEEE(%rip), %rax
 2389      000000
 2390 0900 488B0D00 		movq	16+_ZTTNSt7__cxx1119basic_ostringstreamIcSt11char_traitsIcESaIcEEE(%rip), %rcx
 2390      000000
 2391 0907 4C89F7   		movq	%r14, %rdi
 2392 090a 48894424 		movq	%rax, 96(%rsp)
 2392      60
 2393 090f 488B40E8 		movq	-24(%rax), %rax
 2394 0913 48894C04 		movq	%rcx, 96(%rsp,%rax)
 2394      60
 2395 0918 488D0500 		leaq	16+_ZTVSt9basic_iosIcSt11char_traitsIcEE(%rip), %rax
 2395      000000
 2396 091f 48898424 		movq	%rax, 208(%rsp)
 2396      D0000000 
 2397              	.LEHB56:
 2398 0927 E8000000 		call	_ZNSt8ios_baseD2Ev@PLT
 2398      00
 2399              	.LEHE56:
 2400 092c 488B8424 		movq	520(%rsp), %rax
 2400      08020000 
 2401 0934 64482B04 		subq	%fs:40, %rax
 2401      25280000 
 2401      00
 2402 093d 7543     		jne	.L233
 2403 093f 4881C418 		addq	$536, %rsp
 2403      020000
 2404              		.cfi_remember_state
 2405              		.cfi_def_cfa_offset 56
 2406 0946 5B       		popq	%rbx
 2407              		.cfi_def_cfa_offset 48
 2408 0947 5D       		popq	%rbp
 2409              		.cfi_def_cfa_offset 40
 2410 0948 415C     		popq	%r12
 2411              		.cfi_def_cfa_offset 32
 2412 094a 415D     		popq	%r13
 2413              		.cfi_def_cfa_offset 24
 2414 094c 415E     		popq	%r14
 2415              		.cfi_def_cfa_offset 16
 2416 094e 415F     		popq	%r15
 2417              		.cfi_def_cfa_offset 8
 2418 0950 C3       		ret
 2419              		.p2align 4,,10
 2420 0951 0F1F8000 		.p2align 3
 2420      000000
 2421              	.L176:
 2422              		.cfi_restore_state
 2423 0958 4983C728 		addq	$40, %r15
 2424 095c 4C39FB   		cmpq	%r15, %rbx
 2425 095f 0F85BBFE 		jne	.L179
 2425      FFFF
 2426 0965 E9D5FEFF 		jmp	.L178
 2426      FF
 2427 096a 660F1F44 		.p2align 4,,10
 2427      0000
 2428              		.p2align 3
 2429              	.L183:
 2430 0970 4883ED80 		subq	$-128, %rbp
 2431 0974 4939EC   		cmpq	%rbp, %r12
 2432 0977 0F8593FE 		jne	.L186
 2432      FFFF
 2433 097d E915FFFF 		jmp	.L185
 2433      FF
 2434              	.L233:
 2435 0982 E8000000 		call	__stack_chk_fail@PLT
 2435      00
 2436              	.L207:
 2437 0987 F30F1EFA 		endbr64
 2438 098b 4889C7   		movq	%rax, %rdi
 2439 098e 4889D0   		movq	%rdx, %rax
 2440 0991 E9000000 		jmp	.L228
 2440      00
 2441              	.L216:
 2442 0996 F30F1EFA 		endbr64
 2443 099a 4889C3   		movq	%rax, %rbx
 2444 099d 4889D5   		movq	%rdx, %rbp
 2445 09a0 E9000000 		jmp	.L192
 2445      00
 2446              	.L208:
 2447 09a5 F30F1EFA 		endbr64
 2448 09a9 4889C3   		movq	%rax, %rbx
 2449 09ac 4889D5   		movq	%rdx, %rbp
 2450 09af E9000000 		jmp	.L193
 2450      00
 2451              	.L213:
 2452 09b4 F30F1EFA 		endbr64
 2453 09b8 4889C3   		movq	%rax, %rbx
 2454 09bb 4889D5   		movq	%rdx, %rbp
 2455 09be E9000000 		jmp	.L173
 2455      00
 2456              	.L215:
 2457 09c3 F30F1EFA 		endbr64
 2458 09c7 4889C3   		movq	%rax, %rbx
 2459 09ca 4989D4   		movq	%rdx, %r12
 2460 09cd E9000000 		jmp	.L169
 2460      00
 2461              	.L214:
 2462 09d2 F30F1EFA 		endbr64
 2463 09d6 4889C3   		movq	%rax, %rbx
 2464 09d9 4989D4   		movq	%rdx, %r12
 2465 09dc E9000000 		jmp	.L170
 2465      00
 2466              		.section	.gcc_except_table
 2467              		.align 4
 2468              	.LLSDA1468:
 2469 0184 FF       		.byte	0xff
 2470 0185 9B       		.byte	0x9b
 2471 0186 3D       		.uleb128 .LLSDATT1468-.LLSDATTD1468
 2472              	.LLSDATTD1468:
 2473 0187 01       		.byte	0x1
 2474 0188 24       		.uleb128 .LLSDACSE1468-.LLSDACSB1468
 2475              	.LLSDACSB1468:
 2476 0189 D201     		.uleb128 .LEHB51-.LFB1468
 2477 018b 05       		.uleb128 .LEHE51-.LEHB51
 2478 018c 8207     		.uleb128 .L214-.LFB1468
 2479 018e 07       		.uleb128 0x7
 2480 018f E102     		.uleb128 .LEHB52-.LFB1468
 2481 0191 05       		.uleb128 .LEHE52-.LEHB52
 2482 0192 F306     		.uleb128 .L215-.LFB1468
 2483 0194 07       		.uleb128 0x7
 2484 0195 F902     		.uleb128 .LEHB53-.LFB1468
 2485 0197 05       		.uleb128 .LEHE53-.LEHB53
 2486 0198 E406     		.uleb128 .L213-.LFB1468
 2487 019a 07       		.uleb128 0x7
 2488 019b 9103     		.uleb128 .LEHB54-.LFB1468
 2489 019d 05       		.uleb128 .LEHE54-.LEHB54
 2490 019e D506     		.uleb128 .L208-.LFB1468
 2491 01a0 07       		.uleb128 0x7
 2492 01a1 E104     		.uleb128 .LEHB55-.LFB1468
 2493 01a3 05       		.uleb128 .LEHE55-.LEHB55
 2494 01a4 C606     		.uleb128 .L216-.LFB1468
 2495 01a6 07       		.uleb128 0x7
 2496 01a7 D705     		.uleb128 .LEHB56-.LFB1468
 2497 01a9 05       		.uleb128 .LEHE56-.LEHB56
 2498 01aa B706     		.uleb128 .L207-.LFB1468
 2499 01ac 05       		.uleb128 0x5
 2500              	.LLSDACSE1468:
 2501 01ad 03       		.byte	0x3
 2502 01ae 00       		.byte	0
 2503 01af 02       		.byte	0x2
 2504 01b0 7D       		.byte	0x7d
 2505 01b1 01       		.byte	0x1
 2506 01b2 7D       		.byte	0x7d
 2507 01b3 00       		.byte	0
 2508 01b4 7D       		.byte	0x7d
 2509 01b5 000000   		.align 4
 2510 01b8 00000000 		.long	0
 2511              	
 2512 01bc 00000000 		.long	DW.ref._ZTISt9exception-.
 2513 01c0 00000000 		.long	DW.ref._ZTIN8UnitTest15AssertExceptionE-.
 2514              	.LLSDATT1468:
 2515              		.text
 2516              		.cfi_endproc
 2517              		.section	.text.unlikely
 2518              		.cfi_startproc
 2519              		.cfi_personality 0x9b,DW.ref.__gxx_personality_v0
 2520              		.cfi_lsda 0x1b,.LLSDAC1468
 2522              	_ZNK12_GLOBAL__N_166TestXmlTestReporterFixtureOutputIsCachedUntilReportSummaryIsCalled7RunImplEv.co
 2523              	.LFSB1468:
 2524              	.L193:
 2525              		.cfi_def_cfa_offset 592
 2526              		.cfi_offset 3, -56
 2527              		.cfi_offset 6, -48
 2528              		.cfi_offset 12, -40
 2529              		.cfi_offset 13, -32
 2530              		.cfi_offset 14, -24
 2531              		.cfi_offset 15, -16
 2532 0476 4C89EF   		movq	%r13, %rdi
 2533 0479 E8A0FEFF 		call	_ZN12_GLOBAL__N_122XmlTestReporterFixtureD2Ev
 2533      FF
 2534 047e 4889DF   		movq	%rbx, %rdi
 2535 0481 4889E8   		movq	%rbp, %rax
 2536              	.L228:
 2537 0484 BB010000 		movl	$1, %ebx
 2537      00
 2538              	.L171:
 2539 0489 4883F801 		cmpq	$1, %rax
 2540 048d 0F84EA00 		je	.L194
 2540      0000
 2541 0493 4883F802 		cmpq	$2, %rax
 2542 0497 0F846B01 		je	.L234
 2542      0000
 2543 049d E8000000 		call	__cxa_begin_catch@PLT
 2543      00
 2544 04a2 84DB     		testb	%bl, %bl
 2545 04a4 0F85E901 		jne	.L235
 2545      0000
 2546              	.LEHB57:
 2547 04aa E8000000 		call	_ZN8UnitTest11CurrentTest7ResultsEv@PLT
 2547      00
 2548 04af 488D6C24 		leaq	64(%rsp), %rbp
 2548      40
 2549 04b4 488B7424 		movq	32(%rsp), %rsi
 2549      20
 2550 04b9 BA370000 		movl	$55, %edx
 2550      00
 2551 04be 4C8B20   		movq	(%rax), %r12
 2552 04c1 4889EF   		movq	%rbp, %rdi
 2553 04c4 E8000000 		call	_ZN8UnitTest11TestDetailsC1ERKS0_i@PLT
 2553      00
 2554 04c9 488D1500 		leaq	.LC20(%rip), %rdx
 2554      000000
 2555 04d0 4889EE   		movq	%rbp, %rsi
 2556 04d3 4C89E7   		movq	%r12, %rdi
 2557 04d6 E8000000 		call	_ZN8UnitTest11TestResults13OnTestFailureERKNS_11TestDetailsEPKc@PLT
 2557      00
 2558              	.LEHE57:
 2559              	.L200:
 2560 04db 488B8424 		movq	520(%rsp), %rax
 2560      08020000 
 2561 04e3 64482B04 		subq	%fs:40, %rax
 2561      25280000 
 2561      00
 2562 04ec 0F851101 		jne	.L230
 2562      0000
 2563 04f2 4881C418 		addq	$536, %rsp
 2563      020000
 2564              		.cfi_remember_state
 2565              		.cfi_def_cfa_offset 56
 2566 04f9 5B       		popq	%rbx
 2567              		.cfi_def_cfa_offset 48
 2568 04fa 5D       		popq	%rbp
 2569              		.cfi_def_cfa_offset 40
 2570 04fb 415C     		popq	%r12
 2571              		.cfi_def_cfa_offset 32
 2572 04fd 415D     		popq	%r13
 2573              		.cfi_def_cfa_offset 24
 2574 04ff 415E     		popq	%r14
 2575              		.cfi_def_cfa_offset 16
 2576 0501 415F     		popq	%r15
 2577              		.cfi_def_cfa_offset 8
 2578              	.LEHB58:
 2579 0503 E9000000 		jmp	__cxa_end_catch@PLT
 2579      00
 2580              	.LEHE58:
 2581              	.L192:
 2582              		.cfi_restore_state
 2583 0508 4C89EF   		movq	%r13, %rdi
 2584 050b E8000000 		call	_ZNSt7__cxx1119basic_ostringstreamIcSt11char_traitsIcESaIcEED1Ev@PLT
 2584      00
 2585 0510 4889DF   		movq	%rbx, %rdi
 2586 0513 4889E8   		movq	%rbp, %rax
 2587 0516 BB010000 		movl	$1, %ebx
 2587      00
 2588 051b E969FFFF 		jmp	.L171
 2588      FF
 2589              	.L173:
 2590 0520 4C89EF   		movq	%r13, %rdi
 2591 0523 E8000000 		call	_ZNSt7__cxx1119basic_ostringstreamIcSt11char_traitsIcESaIcEED1Ev@PLT
 2591      00
 2592 0528 4889DF   		movq	%rbx, %rdi
 2593 052b 4889E8   		movq	%rbp, %rax
 2594 052e 31DB     		xorl	%ebx, %ebx
 2595 0530 E954FFFF 		jmp	.L171
 2595      FF
 2596              	.L169:
 2597 0535 4889EF   		movq	%rbp, %rdi
 2598 0538 E8000000 		call	_ZNSt7__cxx1115basic_stringbufIcSt11char_traitsIcESaIcEED1Ev
 2598      00
 2599 053d 488B0500 		movq	8+_ZTTNSt7__cxx1119basic_ostringstreamIcSt11char_traitsIcESaIcEEE(%rip), %rax
 2599      000000
 2600 0544 488B0D00 		movq	16+_ZTTNSt7__cxx1119basic_ostringstreamIcSt11char_traitsIcESaIcEEE(%rip), %rcx
 2600      000000
 2601 054b 48894424 		movq	%rax, 96(%rsp)
 2601      60
 2602 0550 488B40E8 		movq	-24(%rax), %rax
 2603 0554 48894C04 		movq	%rcx, 96(%rsp,%rax)
 2603      60
 2604              	.L170:
 2605 0559 488D0500 		leaq	16+_ZTVSt9basic_iosIcSt11char_traitsIcEE(%rip), %rax
 2605      000000
 2606 0560 4C89F7   		movq	%r14, %rdi
 2607 0563 48898424 		movq	%rax, 208(%rsp)
 2607      D0000000 
 2608 056b E8000000 		call	_ZNSt8ios_baseD2Ev@PLT
 2608      00
 2609 0570 4889DF   		movq	%rbx, %rdi
 2610 0573 4C89E0   		movq	%r12, %rax
 2611 0576 31DB     		xorl	%ebx, %ebx
 2612 0578 E90CFFFF 		jmp	.L171
 2612      FF
 2613              	.L194:
 2614 057d E8000000 		call	__cxa_begin_catch@PLT
 2614      00
 2615 0582 4889C5   		movq	%rax, %rbp
 2616              	.LEHB59:
 2617 0585 E8000000 		call	_ZN8UnitTest11CurrentTest7ResultsEv@PLT
 2617      00
 2618 058a 4C8B28   		movq	(%rax), %r13
 2619 058d 488B4500 		movq	0(%rbp), %rax
 2620 0591 4889EF   		movq	%rbp, %rdi
 2621 0594 FF5010   		call	*16(%rax)
 2622 0597 4889EF   		movq	%rbp, %rdi
 2623 059a 4989C4   		movq	%rax, %r12
 2624 059d E8000000 		call	_ZNK8UnitTest15AssertException10LineNumberEv@PLT
 2624      00
 2625 05a2 4889EF   		movq	%rbp, %rdi
 2626 05a5 89C3     		movl	%eax, %ebx
 2627 05a7 E8000000 		call	_ZNK8UnitTest15AssertException8FilenameEv@PLT
 2627      00
 2628 05ac 4889C1   		movq	%rax, %rcx
 2629 05af 488B4424 		movq	56(%rsp), %rax
 2629      38
 2630 05b4 488D6C24 		leaq	64(%rsp), %rbp
 2630      40
 2631 05b9 4189D8   		movl	%ebx, %r8d
 2632 05bc 4889EF   		movq	%rbp, %rdi
 2633 05bf 488B5008 		movq	8(%rax), %rdx
 2634 05c3 488B7010 		movq	16(%rax), %rsi
 2635 05c7 E8000000 		call	_ZN8UnitTest11TestDetailsC1EPKcS2_S2_i@PLT
 2635      00
 2636 05cc 4C89E2   		movq	%r12, %rdx
 2637 05cf 4889EE   		movq	%rbp, %rsi
 2638 05d2 4C89EF   		movq	%r13, %rdi
 2639 05d5 E8000000 		call	_ZN8UnitTest11TestResults13OnTestFailureERKNS_11TestDetailsEPKc@PLT
 2639      00
 2640              	.LEHE59:
 2641              	.L232:
 2642 05da 488B8424 		movq	520(%rsp), %rax
 2642      08020000 
 2643 05e2 64482B04 		subq	%fs:40, %rax
 2643      25280000 
 2643      00
 2644 05eb 7516     		jne	.L230
 2645 05ed 4881C418 		addq	$536, %rsp
 2645      020000
 2646              		.cfi_remember_state
 2647              		.cfi_def_cfa_offset 56
 2648 05f4 5B       		popq	%rbx
 2649              		.cfi_def_cfa_offset 48
 2650 05f5 5D       		popq	%rbp
 2651              		.cfi_def_cfa_offset 40
 2652 05f6 415C     		popq	%r12
 2653              		.cfi_def_cfa_offset 32
 2654 05f8 415D     		popq	%r13
 2655              		.cfi_def_cfa_offset 24
 2656 05fa 415E     		popq	%r14
 2657              		.cfi_def_cfa_offset 16
 2658 05fc 415F     		popq	%r15
 2659              		.cfi_def_cfa_offset 8
 2660 05fe E9000000 		jmp	__cxa_end_catch@PLT
 2660      00
 2661              	.L230:
 2662              		.cfi_restore_state
 2663 0603 E8000000 		call	__stack_chk_fail@PLT
 2663      00
 2664              	.L234:
 2665 0608 E8000000 		call	__cxa_begin_catch@PLT
 2665      00
 2666 060d 4C89EF   		movq	%r13, %rdi
 2667 0610 4889C5   		movq	%rax, %rbp
 2668              	.LEHB60:
 2669 0613 E8000000 		call	_ZN8UnitTest15MemoryOutStreamC1Ev
 2669      00
 2670              	.LEHE60:
 2671 0618 BA150000 		movl	$21, %edx
 2671      00
 2672 061d 488D3500 		leaq	.LC16(%rip), %rsi
 2672      000000
 2673 0624 4C89EF   		movq	%r13, %rdi
 2674              	.LEHB61:
 2675 0627 E8000000 		call	_ZSt16__ostream_insertIcSt11char_traitsIcEERSt13basic_ostreamIT_T0_ES6_PKS3_l@PLT
 2675      00
 2676 062c 488B4500 		movq	0(%rbp), %rax
 2677 0630 4889EF   		movq	%rbp, %rdi
 2678 0633 FF5010   		call	*16(%rax)
 2679 0636 4C89EF   		movq	%r13, %rdi
 2680 0639 4889C6   		movq	%rax, %rsi
 2681 063c E8000000 		call	_ZStlsISt11char_traitsIcEERSt13basic_ostreamIcT_ES5_PKc@PLT
 2681      00
 2682 0641 E8000000 		call	_ZN8UnitTest11CurrentTest7ResultsEv@PLT
 2682      00
 2683 0646 4C89EF   		movq	%r13, %rdi
 2684 0649 488B28   		movq	(%rax), %rbp
 2685 064c E8000000 		call	_ZNK8UnitTest15MemoryOutStream7GetTextEv@PLT
 2685      00
 2686 0651 488B7424 		movq	32(%rsp), %rsi
 2686      20
 2687 0656 4889C2   		movq	%rax, %rdx
 2688 0659 4889EF   		movq	%rbp, %rdi
 2689 065c E8000000 		call	_ZN8UnitTest11TestResults13OnTestFailureERKNS_11TestDetailsEPKc@PLT
 2689      00
 2690              	.LEHE61:
 2691 0661 4C89EF   		movq	%r13, %rdi
 2692              	.LEHB62:
 2693 0664 E8000000 		call	_ZN8UnitTest15MemoryOutStreamD1Ev
 2693      00
 2694              	.LEHE62:
 2695 0669 E96CFFFF 		jmp	.L232
 2695      FF
 2696              	.L211:
 2697 066e F30F1EFA 		endbr64
 2698 0672 4C89EF   		movq	%r13, %rdi
 2699 0675 4889C5   		movq	%rax, %rbp
 2700 0678 E8000000 		call	_ZN8UnitTest15MemoryOutStreamD1Ev
 2700      00
 2701              	.L204:
 2702 067d E8000000 		call	__cxa_end_catch@PLT
 2702      00
 2703 0682 4889EF   		movq	%rbp, %rdi
 2704              	.LEHB63:
 2705 0685 E8000000 		call	_Unwind_Resume@PLT
 2705      00
 2706              	.LEHE63:
 2707              	.L210:
 2708 068a F30F1EFA 		endbr64
 2709              	.L231:
 2710 068e 4889C5   		movq	%rax, %rbp
 2711 0691 EBEA     		jmp	.L204
 2712              	.L235:
 2713              	.LEHB64:
 2714 0693 E8000000 		call	_ZN8UnitTest11CurrentTest7ResultsEv@PLT
 2714      00
 2715 0698 488D6C24 		leaq	64(%rsp), %rbp
 2715      40
 2716 069d 488B7424 		movq	32(%rsp), %rsi
 2716      20
 2717 06a2 BA370000 		movl	$55, %edx
 2717      00
 2718 06a7 4C8B20   		movq	(%rax), %r12
 2719 06aa 4889EF   		movq	%rbp, %rdi
 2720 06ad E8000000 		call	_ZN8UnitTest11TestDetailsC1ERKS0_i@PLT
 2720      00
 2721 06b2 488D1500 		leaq	.LC19(%rip), %rdx
 2721      000000
 2722 06b9 4889EE   		movq	%rbp, %rsi
 2723 06bc 4C89E7   		movq	%r12, %rdi
 2724 06bf E8000000 		call	_ZN8UnitTest11TestResults13OnTestFailureERKNS_11TestDetailsEPKc@PLT
 2724      00
 2725              	.LEHE64:
 2726 06c4 E912FEFF 		jmp	.L200
 2726      FF
 2727              	.L212:
 2728 06c9 F30F1EFA 		endbr64
 2729 06cd 4889C5   		movq	%rax, %rbp
 2730 06d0 E8000000 		call	__cxa_end_catch@PLT
 2730      00
 2731 06d5 4889EF   		movq	%rbp, %rdi
 2732              	.LEHB65:
 2733 06d8 E8000000 		call	_Unwind_Resume@PLT
 2733      00
 2734              	.LEHE65:
 2735              	.L209:
 2736 06dd F30F1EFA 		endbr64
 2737 06e1 EBAB     		jmp	.L231
 2738              		.cfi_endproc
 2739              	.LFE1468:
 2740              		.section	.gcc_except_table
 2741              		.align 4
 2742              	.LLSDAC1468:
 2743 01c4 FF       		.byte	0xff
 2744 01c5 9B       		.byte	0x9b
 2745 01c6 49       		.uleb128 .LLSDATTC1468-.LLSDATTDC1468
 2746              	.LLSDATTDC1468:
 2747 01c7 01       		.byte	0x1
 2748 01c8 32       		.uleb128 .LLSDACSEC1468-.LLSDACSBC1468
 2749              	.LLSDACSBC1468:
 2750 01c9 34       		.uleb128 .LEHB57-.LCOLDB22
 2751 01ca 31       		.uleb128 .LEHE57-.LEHB57
 2752 01cb D304     		.uleb128 .L212-.LCOLDB22
 2753 01cd 00       		.uleb128 0
 2754 01ce 8D01     		.uleb128 .LEHB58-.LCOLDB22
 2755 01d0 05       		.uleb128 .LEHE58-.LEHB58
 2756 01d1 00       		.uleb128 0
 2757 01d2 00       		.uleb128 0
 2758 01d3 8F02     		.uleb128 .LEHB59-.LCOLDB22
 2759 01d5 55       		.uleb128 .LEHE59-.LEHB59
 2760 01d6 E704     		.uleb128 .L209-.LCOLDB22
 2761 01d8 00       		.uleb128 0
 2762 01d9 9D03     		.uleb128 .LEHB60-.LCOLDB22
 2763 01db 05       		.uleb128 .LEHE60-.LEHB60
 2764 01dc 9404     		.uleb128 .L210-.LCOLDB22
 2765 01de 00       		.uleb128 0
 2766 01df B103     		.uleb128 .LEHB61-.LCOLDB22
 2767 01e1 3A       		.uleb128 .LEHE61-.LEHB61
 2768 01e2 F803     		.uleb128 .L211-.LCOLDB22
 2769 01e4 00       		.uleb128 0
 2770 01e5 EE03     		.uleb128 .LEHB62-.LCOLDB22
 2771 01e7 05       		.uleb128 .LEHE62-.LEHB62
 2772 01e8 9404     		.uleb128 .L210-.LCOLDB22
 2773 01ea 00       		.uleb128 0
 2774 01eb 8F04     		.uleb128 .LEHB63-.LCOLDB22
 2775 01ed 05       		.uleb128 .LEHE63-.LEHB63
 2776 01ee 00       		.uleb128 0
 2777 01ef 00       		.uleb128 0
 2778 01f0 9D04     		.uleb128 .LEHB64-.LCOLDB22
 2779 01f2 31       		.uleb128 .LEHE64-.LEHB64
 2780 01f3 D304     		.uleb128 .L212-.LCOLDB22
 2781 01f5 00       		.uleb128 0
 2782 01f6 E204     		.uleb128 .LEHB65-.LCOLDB22
 2783 01f8 05       		.uleb128 .LEHE65-.LEHB65
 2784 01f9 00       		.uleb128 0
 2785 01fa 00       		.uleb128 0
 2786              	.LLSDACSEC1468:
 2787 01fb 03       		.byte	0x3
 2788 01fc 00       		.byte	0
 2789 01fd 02       		.byte	0x2
 2790 01fe 7D       		.byte	0x7d
 2791 01ff 01       		.byte	0x1
 2792 0200 7D       		.byte	0x7d
 2793 0201 00       		.byte	0
 2794 0202 7D       		.byte	0x7d
 2795 0203 00       		.align 4
 2796 0204 00000000 		.long	0
 2797              	
 2798 0208 00000000 		.long	DW.ref._ZTISt9exception-.
 2799 020c 00000000 		.long	DW.ref._ZTIN8UnitTest15AssertExceptionE-.
 2800              	.LLSDATTC1468:
 2801              		.section	.text.unlikely
 2802              		.text
 2804              		.section	.text.unlikely
 2806              	.LCOLDE22:
 2807              		.text
 2808              	.LHOTE22:
 2809              		.section	.rodata._ZN8UnitTest10CheckEqualIPKcNSt7__cxx1112basic_stringIcSt11char_traitsIcESaIcEEEE
 2810              	.LC23:
 2811 0000 45787065 		.string	"Expected "
 2811      63746564 
 2811      2000
 2812              	.LC24:
 2813 000a 20627574 		.string	" but was "
 2813      20776173 
 2813      2000
 2814              		.section	.text._ZN8UnitTest10CheckEqualIPKcNSt7__cxx1112basic_stringIcSt11char_traitsIcESaIcEEEEEv
 2815              		.p2align 4
 2816              		.weak	_ZN8UnitTest10CheckEqualIPKcNSt7__cxx1112basic_stringIcSt11char_traitsIcESaIcEEEEEvRNS_11Tes
 2818              	_ZN8UnitTest10CheckEqualIPKcNSt7__cxx1112basic_stringIcSt11char_traitsIcESaIcEEEEEvRNS_11TestResult
 2819              	.LFB1569:
 2820              		.cfi_startproc
 2821              		.cfi_personality 0x9b,DW.ref.__gxx_personality_v0
 2822              		.cfi_lsda 0x1b,.LLSDA1569
 2823 0000 F30F1EFA 		endbr64
 2824 0004 4157     		pushq	%r15
 2825              		.cfi_def_cfa_offset 16
 2826              		.cfi_offset 15, -16
 2827 0006 4156     		pushq	%r14
 2828              		.cfi_def_cfa_offset 24
 2829              		.cfi_offset 14, -24
 2830 0008 4155     		pushq	%r13
 2831              		.cfi_def_cfa_offset 32
 2832              		.cfi_offset 13, -32
 2833 000a 4154     		pushq	%r12
 2834              		.cfi_def_cfa_offset 40
 2835              		.cfi_offset 12, -40
 2836 000c 4989CC   		movq	%rcx, %r12
 2837 000f 55       		pushq	%rbp
 2838              		.cfi_def_cfa_offset 48
 2839              		.cfi_offset 6, -48
 2840 0010 4889F5   		movq	%rsi, %rbp
 2841 0013 53       		pushq	%rbx
 2842              		.cfi_def_cfa_offset 56
 2843              		.cfi_offset 3, -56
 2844 0014 4889D3   		movq	%rdx, %rbx
 2845 0017 4881ECD8 		subq	$472, %rsp
 2845      010000
 2846              		.cfi_def_cfa_offset 528
 2847 001e 488B36   		movq	(%rsi), %rsi
 2848 0021 F30F7E0D 		movq	.LC25(%rip), %xmm1
 2848      00000000 
 2849 0029 48897C24 		movq	%rdi, 16(%rsp)
 2849      10
 2850 002e 4889D7   		movq	%rdx, %rdi
 2851 0031 0F160D00 		movhps	.LC21(%rip), %xmm1
 2851      000000
 2852 0038 64488B04 		movq	%fs:40, %rax
 2852      25280000 
 2852      00
 2853 0041 48898424 		movq	%rax, 456(%rsp)
 2853      C8010000 
 2854 0049 31C0     		xorl	%eax, %eax
 2855 004b 0F290C24 		movaps	%xmm1, (%rsp)
 2856              	.LEHB66:
 2857 004f E8000000 		call	_ZNKSt7__cxx1112basic_stringIcSt11char_traitsIcESaIcEE7compareEPKc@PLT
 2857      00
 2858              	.LEHE66:
 2859 0054 85C0     		testl	%eax, %eax
 2860 0056 7530     		jne	.L259
 2861              	.L236:
 2862 0058 488B8424 		movq	456(%rsp), %rax
 2862      C8010000 
 2863 0060 64482B04 		subq	%fs:40, %rax
 2863      25280000 
 2863      00
 2864 0069 0F858D02 		jne	.L260
 2864      0000
 2865 006f 4881C4D8 		addq	$472, %rsp
 2865      010000
 2866              		.cfi_remember_state
 2867              		.cfi_def_cfa_offset 56
 2868 0076 5B       		popq	%rbx
 2869              		.cfi_def_cfa_offset 48
 2870 0077 5D       		popq	%rbp
 2871              		.cfi_def_cfa_offset 40
 2872 0078 415C     		popq	%r12
 2873              		.cfi_def_cfa_offset 32
 2874 007a 415D     		popq	%r13
 2875              		.cfi_def_cfa_offset 24
 2876 007c 415E     		popq	%r14
 2877              		.cfi_def_cfa_offset 16
 2878 007e 415F     		popq	%r15
 2879              		.cfi_def_cfa_offset 8
 2880 0080 C3       		ret
 2881              		.p2align 4,,10
 2882 0081 0F1F8000 		.p2align 3
 2882      000000
 2883              	.L259:
 2884              		.cfi_restore_state
 2885 0088 4C8DB424 		leaq	192(%rsp), %r14
 2885      C0000000 
 2886 0090 4C89F7   		movq	%r14, %rdi
 2887 0093 E8000000 		call	_ZNSt8ios_baseC2Ev@PLT
 2887      00
 2888 0098 31C0     		xorl	%eax, %eax
 2889 009a 660FEFC0 		pxor	%xmm0, %xmm0
 2890 009e 31F6     		xorl	%esi, %esi
 2891 00a0 66898424 		movw	%ax, 416(%rsp)
 2891      A0010000 
 2892 00a8 488D0500 		leaq	24+_ZTCN8UnitTest15MemoryOutStreamE0_So(%rip), %rax
 2892      000000
 2893 00af 4C89F7   		movq	%r14, %rdi
 2894 00b2 48894424 		movq	%rax, 48(%rsp)
 2894      30
 2895 00b7 4883C028 		addq	$40, %rax
 2896 00bb 48C78424 		movq	$0, 408(%rsp)
 2896      98010000 
 2896      00000000 
 2897 00c7 48898424 		movq	%rax, 192(%rsp)
 2897      C0000000 
 2898 00cf 0F118424 		movups	%xmm0, 424(%rsp)
 2898      A8010000 
 2899 00d7 0F118424 		movups	%xmm0, 440(%rsp)
 2899      B8010000 
 2900              	.LEHB67:
 2901 00df E8000000 		call	_ZNSt9basic_iosIcSt11char_traitsIcEE4initEPSt15basic_streambufIcS1_E@PLT
 2901      00
 2902              	.LEHE67:
 2903 00e4 488D0500 		leaq	64+_ZTCN8UnitTest15MemoryOutStreamE0_NSt7__cxx1119basic_ostringstreamIcSt11char_traitsIcESaIc
 2903      000000
 2904 00eb 660F6F1C 		movdqa	(%rsp), %xmm3
 2904      24
 2905 00f0 660FEFC0 		pxor	%xmm0, %xmm0
 2906 00f4 4C8D6C24 		leaq	48(%rsp), %r13
 2906      30
 2907 00f9 48898424 		movq	%rax, 192(%rsp)
 2907      C0000000 
 2908 0101 488D4424 		leaq	112(%rsp), %rax
 2908      70
 2909 0106 4C8D7C24 		leaq	56(%rsp), %r15
 2909      38
 2910 010b 4889C7   		movq	%rax, %rdi
 2911 010e 48894424 		movq	%rax, 40(%rsp)
 2911      28
 2912 0113 0F295C24 		movaps	%xmm3, 48(%rsp)
 2912      30
 2913 0118 0F294424 		movaps	%xmm0, 64(%rsp)
 2913      40
 2914 011d 0F294424 		movaps	%xmm0, 80(%rsp)
 2914      50
 2915 0122 0F294424 		movaps	%xmm0, 96(%rsp)
 2915      60
 2916 0127 E8000000 		call	_ZNSt6localeC1Ev@PLT
 2916      00
 2917 012c 488D0500 		leaq	16+_ZTVNSt7__cxx1115basic_stringbufIcSt11char_traitsIcESaIcEEE(%rip), %rax
 2917      000000
 2918 0133 4C89FE   		movq	%r15, %rsi
 2919 0136 48C78424 		movq	$0, 136(%rsp)
 2919      88000000 
 2919      00000000 
 2920 0142 48894424 		movq	%rax, 56(%rsp)
 2920      38
 2921 0147 488D8424 		leaq	144(%rsp), %rax
 2921      90000000 
 2922 014f 48894424 		movq	%rax, 24(%rsp)
 2922      18
 2923 0154 48898424 		movq	%rax, 128(%rsp)
 2923      80000000 
 2924 015c 488B4424 		movq	48(%rsp), %rax
 2924      30
 2925 0161 C6842490 		movb	$0, 144(%rsp)
 2925      00000000 
 2926 0169 488B78E8 		movq	-24(%rax), %rdi
 2927 016d C7442478 		movl	$16, 120(%rsp)
 2927      10000000 
 2928 0175 4C01EF   		addq	%r13, %rdi
 2929              	.LEHB68:
 2930 0178 E8000000 		call	_ZNSt9basic_iosIcSt11char_traitsIcEE4initEPSt15basic_streambufIcS1_E@PLT
 2930      00
 2931              	.LEHE68:
 2932 017d 4C8D3D00 		leaq	24+_ZTVN8UnitTest15MemoryOutStreamE(%rip), %r15
 2932      000000
 2933 0184 BA090000 		movl	$9, %edx
 2933      00
 2934 0189 4C89EF   		movq	%r13, %rdi
 2935 018c 48C78424 		movq	$0, 168(%rsp)
 2935      A8000000 
 2935      00000000 
 2936 0198 498D4728 		leaq	40(%r15), %rax
 2937 019c 488D3500 		leaq	.LC23(%rip), %rsi
 2937      000000
 2938 01a3 4C897C24 		movq	%r15, 48(%rsp)
 2938      30
 2939 01a8 48898424 		movq	%rax, 192(%rsp)
 2939      C0000000 
 2940 01b0 488D8424 		leaq	176(%rsp), %rax
 2940      B0000000 
 2941 01b8 48894424 		movq	%rax, 32(%rsp)
 2941      20
 2942 01bd 48898424 		movq	%rax, 160(%rsp)
 2942      A0000000 
 2943 01c5 C68424B0 		movb	$0, 176(%rsp)
 2943      00000000 
 2944              	.LEHB69:
 2945 01cd E8000000 		call	_ZSt16__ostream_insertIcSt11char_traitsIcEERSt13basic_ostreamIT_T0_ES6_PKS3_l@PLT
 2945      00
 2946 01d2 488B6D00 		movq	0(%rbp), %rbp
 2947 01d6 4885ED   		testq	%rbp, %rbp
 2948 01d9 0F840101 		je	.L261
 2948      0000
 2949 01df 4889EF   		movq	%rbp, %rdi
 2950 01e2 E8000000 		call	strlen@PLT
 2950      00
 2951 01e7 4889EE   		movq	%rbp, %rsi
 2952 01ea 4C89EF   		movq	%r13, %rdi
 2953 01ed 4889C2   		movq	%rax, %rdx
 2954 01f0 E8000000 		call	_ZSt16__ostream_insertIcSt11char_traitsIcEERSt13basic_ostreamIT_T0_ES6_PKS3_l@PLT
 2954      00
 2955              	.L244:
 2956 01f5 BA090000 		movl	$9, %edx
 2956      00
 2957 01fa 488D3500 		leaq	.LC24(%rip), %rsi
 2957      000000
 2958 0201 4C89EF   		movq	%r13, %rdi
 2959 0204 E8000000 		call	_ZSt16__ostream_insertIcSt11char_traitsIcEERSt13basic_ostreamIT_T0_ES6_PKS3_l@PLT
 2959      00
 2960 0209 488B5308 		movq	8(%rbx), %rdx
 2961 020d 488B33   		movq	(%rbx), %rsi
 2962 0210 4C89EF   		movq	%r13, %rdi
 2963 0213 E8000000 		call	_ZSt16__ostream_insertIcSt11char_traitsIcEERSt13basic_ostreamIT_T0_ES6_PKS3_l@PLT
 2963      00
 2964 0218 4C89EF   		movq	%r13, %rdi
 2965 021b E8000000 		call	_ZNK8UnitTest15MemoryOutStream7GetTextEv@PLT
 2965      00
 2966 0220 F30F7E15 		movq	.LC25(%rip), %xmm2
 2966      00000000 
 2967 0228 488B7C24 		movq	16(%rsp), %rdi
 2967      10
 2968 022d 4889C2   		movq	%rax, %rdx
 2969 0230 4C89E6   		movq	%r12, %rsi
 2970 0233 0F161500 		movhps	.LC26(%rip), %xmm2
 2970      000000
 2971 023a 0F291424 		movaps	%xmm2, (%rsp)
 2972 023e E8000000 		call	_ZN8UnitTest11TestResults13OnTestFailureERKNS_11TestDetailsEPKc@PLT
 2972      00
 2973              	.LEHE69:
 2974 0243 488D0500 		leaq	64+_ZTVN8UnitTest15MemoryOutStreamE(%rip), %rax
 2974      000000
 2975 024a 4C897C24 		movq	%r15, 48(%rsp)
 2975      30
 2976 024f 488BBC24 		movq	160(%rsp), %rdi
 2976      A0000000 
 2977 0257 48898424 		movq	%rax, 192(%rsp)
 2977      C0000000 
 2978 025f 483B7C24 		cmpq	32(%rsp), %rdi
 2978      20
 2979 0264 7405     		je	.L245
 2980 0266 E8000000 		call	_ZdlPv@PLT
 2980      00
 2981              	.L245:
 2982 026b 660F6F24 		movdqa	(%rsp), %xmm4
 2982      24
 2983 0270 488D0500 		leaq	64+_ZTCN8UnitTest15MemoryOutStreamE0_NSt7__cxx1119basic_ostringstreamIcSt11char_traitsIcESaIc
 2983      000000
 2984 0277 488BBC24 		movq	128(%rsp), %rdi
 2984      80000000 
 2985 027f 48898424 		movq	%rax, 192(%rsp)
 2985      C0000000 
 2986 0287 0F296424 		movaps	%xmm4, 48(%rsp)
 2986      30
 2987 028c 483B7C24 		cmpq	24(%rsp), %rdi
 2987      18
 2988 0291 7405     		je	.L246
 2989 0293 E8000000 		call	_ZdlPv@PLT
 2989      00
 2990              	.L246:
 2991 0298 488B7C24 		movq	40(%rsp), %rdi
 2991      28
 2992 029d 488D0500 		leaq	16+_ZTVSt15basic_streambufIcSt11char_traitsIcEE(%rip), %rax
 2992      000000
 2993 02a4 48894424 		movq	%rax, 56(%rsp)
 2993      38
 2994 02a9 E8000000 		call	_ZNSt6localeD1Ev@PLT
 2994      00
 2995 02ae 488D0500 		leaq	24+_ZTCN8UnitTest15MemoryOutStreamE0_So(%rip), %rax
 2995      000000
 2996 02b5 4C89F7   		movq	%r14, %rdi
 2997 02b8 48894424 		movq	%rax, 48(%rsp)
 2997      30
 2998 02bd 488D0500 		leaq	16+_ZTVSt9basic_iosIcSt11char_traitsIcEE(%rip), %rax
 2998      000000
 2999 02c4 48898424 		movq	%rax, 192(%rsp)
 2999      C0000000 
 3000              	.LEHB70:
 3001 02cc E8000000 		call	_ZNSt8ios_baseD2Ev@PLT
 3001      00
 3002              	.LEHE70:
 3003 02d1 E982FDFF 		jmp	.L236
 3003      FF
 3004 02d6 662E0F1F 		.p2align 4,,10
 3004      84000000 
 3004      0000
 3005              		.p2align 3
 3006              	.L261:
 3007 02e0 488B4424 		movq	48(%rsp), %rax
 3007      30
 3008 02e5 488B78E8 		movq	-24(%rax), %rdi
 3009 02e9 4C01EF   		addq	%r13, %rdi
 3010 02ec 8B7720   		movl	32(%rdi), %esi
 3011 02ef 83CE01   		orl	$1, %esi
 3012              	.LEHB71:
 3013 02f2 E8000000 		call	_ZNSt9basic_iosIcSt11char_traitsIcEE5clearESt12_Ios_Iostate@PLT
 3013      00
 3014              	.LEHE71:
 3015 02f7 E9F9FEFF 		jmp	.L244
 3015      FF
 3016              	.L260:
 3017 02fc E8000000 		call	__stack_chk_fail@PLT
 3017      00
 3018              	.L251:
 3019 0301 F30F1EFA 		endbr64
 3020 0305 4889C5   		movq	%rax, %rbp
 3021 0308 EB12     		jmp	.L239
 3022              	.L249:
 3023 030a F30F1EFA 		endbr64
 3024 030e 4889C5   		movq	%rax, %rbp
 3025 0311 EB3C     		jmp	.L247
 3026              	.L250:
 3027 0313 F30F1EFA 		endbr64
 3028 0317 4889C5   		movq	%rax, %rbp
 3029 031a EB14     		jmp	.L240
 3030              	.L239:
 3031 031c 4C89FF   		movq	%r15, %rdi
 3032 031f E8000000 		call	_ZNSt7__cxx1115basic_stringbufIcSt11char_traitsIcESaIcEED1Ev
 3032      00
 3033 0324 488D0500 		leaq	24+_ZTCN8UnitTest15MemoryOutStreamE0_So(%rip), %rax
 3033      000000
 3034 032b 48894424 		movq	%rax, 48(%rsp)
 3034      30
 3035              	.L240:
 3036 0330 488D0500 		leaq	16+_ZTVSt9basic_iosIcSt11char_traitsIcEE(%rip), %rax
 3036      000000
 3037 0337 4C89F7   		movq	%r14, %rdi
 3038 033a 48898424 		movq	%rax, 192(%rsp)
 3038      C0000000 
 3039 0342 E8000000 		call	_ZNSt8ios_baseD2Ev@PLT
 3039      00
 3040 0347 4889EF   		movq	%rbp, %rdi
 3041              	.LEHB72:
 3042 034a E8000000 		call	_Unwind_Resume@PLT
 3042      00
 3043              	.LEHE72:
 3044              	.L247:
 3045 034f 4C89EF   		movq	%r13, %rdi
 3046 0352 E8000000 		call	_ZN8UnitTest15MemoryOutStreamD1Ev
 3046      00
 3047 0357 4889EF   		movq	%rbp, %rdi
 3048              	.LEHB73:
 3049 035a E8000000 		call	_Unwind_Resume@PLT
 3049      00
 3050              	.LEHE73:
 3051              		.cfi_endproc
 3052              	.LFE1569:
 3053              		.section	.gcc_except_table
 3054              	.LLSDA1569:
 3055 0210 FF       		.byte	0xff
 3056 0211 FF       		.byte	0xff
 3057 0212 01       		.byte	0x1
 3058 0213 2B       		.uleb128 .LLSDACSE1569-.LLSDACSB1569
 3059              	.LLSDACSB1569:
 3060 0214 4F       		.uleb128 .LEHB66-.LFB1569
 3061 0215 05       		.uleb128 .LEHE66-.LEHB66
 3062 0216 00       		.uleb128 0
 3063 0217 00       		.uleb128 0
 3064 0218 DF01     		.uleb128 .LEHB67-.LFB1569
 3065 021a 05       		.uleb128 .LEHE67-.LEHB67
 3066 021b 9306     		.uleb128 .L250-.LFB1569
 3067 021d 00       		.uleb128 0
 3068 021e F802     		.uleb128 .LEHB68-.LFB1569
 3069 0220 05       		.uleb128 .LEHE68-.LEHB68
 3070 0221 8106     		.uleb128 .L251-.LFB1569
 3071 0223 00       		.uleb128 0
 3072 0224 CD03     		.uleb128 .LEHB69-.LFB1569
 3073 0226 76       		.uleb128 .LEHE69-.LEHB69
 3074 0227 8A06     		.uleb128 .L249-.LFB1569
 3075 0229 00       		.uleb128 0
 3076 022a CC05     		.uleb128 .LEHB70-.LFB1569
 3077 022c 05       		.uleb128 .LEHE70-.LEHB70
 3078 022d 00       		.uleb128 0
 3079 022e 00       		.uleb128 0
 3080 022f F205     		.uleb128 .LEHB71-.LFB1569
 3081 0231 05       		.uleb128 .LEHE71-.LEHB71
 3082 0232 8A06     		.uleb128 .L249-.LFB1569
 3083 0234 00       		.uleb128 0
 3084 0235 CA06     		.uleb128 .LEHB72-.LFB1569
 3085 0237 05       		.uleb128 .LEHE72-.LEHB72
 3086 0238 00       		.uleb128 0
 3087 0239 00       		.uleb128 0
 3088 023a DA06     		.uleb128 .LEHB73-.LFB1569
 3089 023c 05       		.uleb128 .LEHE73-.LEHB73
 3090 023d 00       		.uleb128 0
 3091 023e 00       		.uleb128 0
 3092              	.LLSDACSE1569:
 3093              		.section	.text._ZN8UnitTest10CheckEqualIPKcNSt7__cxx1112basic_stringIcSt11char_traitsIcESaIcEEEEEv
 3095              		.section	.rodata.str1.1
 3096              	.LC27:
 3097 0081 6661696C 		.string	"fail.h"
 3097      2E6800
 3098              	.LC28:
 3099 0088 73756974 		.string	"suite"
 3099      6500
 3100              	.LC29:
 3101 008e 4661696C 		.string	"FailedTest"
 3101      65645465 
 3101      737400
 3102              	.LC30:
 3103 0099 65787065 		.string	"expected 1 but was 2"
 3103      63746564 
 3103      20312062 
 3103      75742077 
 3103      61732032 
 3104              	.LC31:
 3105 00ae 65787065 		.string	"expected one but was two"
 3105      63746564 
 3105      206F6E65 
 3105      20627574 
 3105      20776173 
 3106              		.section	.rodata.str1.8
 3107 00fe 0000     		.align 8
 3108              	.LC34:
 3109 0100 3C3F786D 		.ascii	"<?xml version=\"1.0\""
 3109      6C207665 
 3109      7273696F 
 3109      6E3D2231 
 3109      2E3022
 3110 0113 3F3E3C75 		.string	"?><unittest-results tests=\"1\" failedtests=\"1\" failures=\"2\" time=\"1.1\"><test suite
 3110      6E697474 
 3110      6573742D 
 3110      72657375 
 3110      6C747320 
 3111 0214 00000000 		.align 8
 3112              	.LC35:
 3113 0218 556E6861 		.string	"Unhandled exception in CHECK_EQUAL(expected, output.str())"
 3113      6E646C65 
 3113      64206578 
 3113      63657074 
 3113      696F6E20 
 3114              		.section	.text.unlikely
 3115              	.LCOLDB36:
 3116              		.text
 3117              	.LHOTB36:
 3118 09e1 66662E0F 		.p2align 4
 3118      1F840000 
 3118      0000000F 
 3118      1F4000
 3120              	_ZN8UnitTest11ExecuteTestIN12_GLOBAL__N_144XmlTestReporterFixtureMultipleFailuresHelperEEEvRT_RKNS_
 3121              	.LFB1578:
 3122              		.cfi_startproc
 3123              		.cfi_personality 0x9b,DW.ref.__gxx_personality_v0
 3124              		.cfi_lsda 0x1b,.LLSDA1578
 3125 09f0 4156     		pushq	%r14
 3126              		.cfi_def_cfa_offset 16
 3127              		.cfi_offset 14, -16
 3128 09f2 4155     		pushq	%r13
 3129              		.cfi_def_cfa_offset 24
 3130              		.cfi_offset 13, -24
 3131 09f4 4154     		pushq	%r12
 3132              		.cfi_def_cfa_offset 32
 3133              		.cfi_offset 12, -32
 3134 09f6 55       		pushq	%rbp
 3135              		.cfi_def_cfa_offset 40
 3136              		.cfi_offset 6, -40
 3137 09f7 53       		pushq	%rbx
 3138              		.cfi_def_cfa_offset 48
 3139              		.cfi_offset 3, -48
 3140 09f8 4889F3   		movq	%rsi, %rbx
 3141 09fb 4881ECF0 		subq	$1776, %rsp
 3141      060000
 3142              		.cfi_def_cfa_offset 1824
 3143 0a02 48893C24 		movq	%rdi, (%rsp)
 3144 0a06 48897424 		movq	%rsi, 8(%rsp)
 3144      08
 3145 0a0b 64488B04 		movq	%fs:40, %rax
 3145      25280000 
 3145      00
 3146 0a14 48898424 		movq	%rax, 1768(%rsp)
 3146      E8060000 
 3147 0a1c 31C0     		xorl	%eax, %eax
 3148              	.LEHB74:
 3149 0a1e E8000000 		call	_ZN8UnitTest11CurrentTest7DetailsEv@PLT
 3149      00
 3150              	.LEHE74:
 3151 0a23 488DBC24 		leaq	640(%rsp), %rdi
 3151      80020000 
 3152 0a2b 488918   		movq	%rbx, (%rax)
 3153              	.LEHB75:
 3154 0a2e E8000000 		call	_ZN8UnitTest16SignalTranslatorC1Ev@PLT
 3154      00
 3155              	.LEHE75:
 3156 0a33 488B3D00 		movq	_ZN8UnitTest16SignalTranslator12s_jumpTargetE(%rip), %rdi
 3156      000000
 3157 0a3a BE010000 		movl	$1, %esi
 3157      00
 3158 0a3f E8000000 		call	__sigsetjmp@PLT
 3158      00
 3159 0a44 F30F1EFA 		endbr64
 3160 0a48 85C0     		testl	%eax, %eax
 3161 0a4a 0F850000 		jne	.L307
 3161      0000
 3162 0a50 488D7C24 		leaq	64(%rsp), %rdi
 3162      40
 3163 0a55 41B80100 		movl	$1, %r8d
 3163      0000
 3164 0a5b 488D0D00 		leaq	.LC27(%rip), %rcx
 3164      000000
 3165 0a62 488D1500 		leaq	.LC28(%rip), %rdx
 3165      000000
 3166 0a69 488D3500 		leaq	.LC29(%rip), %rsi
 3166      000000
 3167              	.LEHB76:
 3168 0a70 E8000000 		call	_ZN8UnitTest11TestDetailsC1EPKcS2_S2_i@PLT
 3168      00
 3169 0a75 488D7C24 		leaq	96(%rsp), %rdi
 3169      60
 3170 0a7a 41B81F00 		movl	$31, %r8d
 3170      0000
 3171 0a80 488D0D00 		leaq	.LC27(%rip), %rcx
 3171      000000
 3172 0a87 488D1500 		leaq	.LC28(%rip), %rdx
 3172      000000
 3173 0a8e 488D3500 		leaq	.LC29(%rip), %rsi
 3173      000000
 3174 0a95 E8000000 		call	_ZN8UnitTest11TestDetailsC1EPKcS2_S2_i@PLT
 3174      00
 3175 0a9a 488B1C24 		movq	(%rsp), %rbx
 3176 0a9e 488D7424 		leaq	64(%rsp), %rsi
 3176      40
 3177 0aa3 488DAB78 		leaq	376(%rbx), %rbp
 3177      010000
 3178 0aaa 4889EF   		movq	%rbp, %rdi
 3179 0aad E8000000 		call	_ZN8UnitTest20DeferredTestReporter15ReportTestStartERKNS_11TestDetailsE@PLT
 3179      00
 3180 0ab2 488D7424 		leaq	64(%rsp), %rsi
 3180      40
 3181 0ab7 488D1500 		leaq	.LC30(%rip), %rdx
 3181      000000
 3182 0abe 4889EF   		movq	%rbp, %rdi
 3183 0ac1 E8000000 		call	_ZN8UnitTest20DeferredTestReporter13ReportFailureERKNS_11TestDetailsEPKc@PLT
 3183      00
 3184 0ac6 488D7424 		leaq	96(%rsp), %rsi
 3184      60
 3185 0acb 488D1500 		leaq	.LC31(%rip), %rdx
 3185      000000
 3186 0ad2 4889EF   		movq	%rbp, %rdi
 3187 0ad5 E8000000 		call	_ZN8UnitTest20DeferredTestReporter13ReportFailureERKNS_11TestDetailsEPKc@PLT
 3187      00
 3188 0ada F30F1005 		movss	.LC32(%rip), %xmm0
 3188      00000000 
 3189 0ae2 488D7424 		leaq	64(%rsp), %rsi
 3189      40
 3190 0ae7 4889EF   		movq	%rbp, %rdi
 3191 0aea E8000000 		call	_ZN8UnitTest20DeferredTestReporter16ReportTestFinishERKNS_11TestDetailsEf@PLT
 3191      00
 3192 0aef F30F1005 		movss	.LC33(%rip), %xmm0
 3192      00000000 
 3193 0af7 B9020000 		movl	$2, %ecx
 3193      00
 3194 0afc BA010000 		movl	$1, %edx
 3194      00
 3195 0b01 4889EF   		movq	%rbp, %rdi
 3196 0b04 BE010000 		movl	$1, %esi
 3196      00
 3197 0b09 E8000000 		call	_ZN8UnitTest15XmlTestReporter13ReportSummaryEiiif@PLT
 3197      00
 3198              	.LEHE76:
 3199 0b0e 488D0500 		leaq	.LC34(%rip), %rax
 3199      000000
 3200 0b15 48894424 		movq	%rax, 24(%rsp)
 3200      18
 3201              	.LEHB77:
 3202 0b1a E8000000 		call	_ZN8UnitTest11CurrentTest7DetailsEv@PLT
 3202      00
 3203 0b1f 488B30   		movq	(%rax), %rsi
 3204 0b22 488DBC24 		leaq	160(%rsp), %rdi
 3204      A0000000 
 3205 0b2a BAB40000 		movl	$180, %edx
 3205      00
 3206 0b2f E8000000 		call	_ZN8UnitTest11TestDetailsC1ERKS0_i@PLT
 3206      00
 3207              	.LEHE77:
 3208 0b34 488D8424 		leaq	208(%rsp), %rax
 3208      D0000000 
 3209 0b3c C68424D0 		movb	$0, 208(%rsp)
 3209      00000000 
 3210 0b44 488DBC24 		leaq	192(%rsp), %rdi
 3210      C0000000 
 3211 0b4c 48898424 		movq	%rax, 192(%rsp)
 3211      C0000000 
 3212 0b54 488B4330 		movq	48(%rbx), %rax
 3213 0b58 48C78424 		movq	$0, 200(%rsp)
 3213      C8000000 
 3213      00000000 
 3214 0b64 4885C0   		testq	%rax, %rax
 3215 0b67 0F84B300 		je	.L265
 3215      0000
 3216 0b6d 4C8B4320 		movq	32(%rbx), %r8
 3217 0b71 4D85C0   		testq	%r8, %r8
 3218 0b74 0F849600 		je	.L304
 3218      0000
 3219 0b7a 4C39C0   		cmpq	%r8, %rax
 3220 0b7d 0F878D00 		ja	.L304
 3220      0000
 3221              	.L266:
 3222 0b83 488B0424 		movq	(%rsp), %rax
 3223 0b87 488DBC24 		leaq	192(%rsp), %rdi
 3223      C0000000 
 3224 0b8f 31D2     		xorl	%edx, %edx
 3225 0b91 31F6     		xorl	%esi, %esi
 3226 0b93 488B4828 		movq	40(%rax), %rcx
 3227 0b97 4929C8   		subq	%rcx, %r8
 3228              	.LEHB78:
 3229 0b9a E8000000 		call	_ZNSt7__cxx1112basic_stringIcSt11char_traitsIcESaIcEE10_M_replaceEmmPKcm@PLT
 3229      00
 3230              	.LEHE78:
 3231              	.L269:
 3232              	.LEHB79:
 3233 0b9f E8000000 		call	_ZN8UnitTest11CurrentTest7ResultsEv@PLT
 3233      00
 3234 0ba4 488B38   		movq	(%rax), %rdi
 3235 0ba7 488D8C24 		leaq	160(%rsp), %rcx
 3235      A0000000 
 3236 0baf 488D7424 		leaq	24(%rsp), %rsi
 3236      18
 3237 0bb4 488D9424 		leaq	192(%rsp), %rdx
 3237      C0000000 
 3238 0bbc E8000000 		call	_ZN8UnitTest10CheckEqualIPKcNSt7__cxx1112basic_stringIcSt11char_traitsIcESaIcEEEEEvRNS_11Test
 3238      00
 3239              	.LEHE79:
 3240 0bc1 488BBC24 		movq	192(%rsp), %rdi
 3240      C0000000 
 3241 0bc9 488D8424 		leaq	208(%rsp), %rax
 3241      D0000000 
 3242 0bd1 4839C7   		cmpq	%rax, %rdi
 3243 0bd4 7405     		je	.L275
 3244 0bd6 E8000000 		call	_ZdlPv@PLT
 3244      00
 3245              	.L275:
 3246 0bdb 488DBC24 		leaq	640(%rsp), %rdi
 3246      80020000 
 3247              	.LEHB80:
 3248 0be3 E8000000 		call	_ZN8UnitTest16SignalTranslatorD1Ev@PLT
 3248      00
 3249              	.LEHE80:
 3250              	.L262:
 3251 0be8 488B8424 		movq	1768(%rsp), %rax
 3251      E8060000 
 3252 0bf0 64482B04 		subq	%fs:40, %rax
 3252      25280000 
 3252      00
 3253 0bf9 7537     		jne	.L311
 3254 0bfb 4881C4F0 		addq	$1776, %rsp
 3254      060000
 3255              		.cfi_remember_state
 3256              		.cfi_def_cfa_offset 48
 3257 0c02 5B       		popq	%rbx
 3258              		.cfi_def_cfa_offset 40
 3259 0c03 5D       		popq	%rbp
 3260              		.cfi_def_cfa_offset 32
 3261 0c04 415C     		popq	%r12
 3262              		.cfi_def_cfa_offset 24
 3263 0c06 415D     		popq	%r13
 3264              		.cfi_def_cfa_offset 16
 3265 0c08 415E     		popq	%r14
 3266              		.cfi_def_cfa_offset 8
 3267 0c0a C3       		ret
 3268 0c0b 0F1F4400 		.p2align 4,,10
 3268      00
 3269              		.p2align 3
 3270              	.L304:
 3271              		.cfi_restore_state
 3272 0c10 4989C0   		movq	%rax, %r8
 3273 0c13 E96BFFFF 		jmp	.L266
 3273      FF
 3274 0c18 0F1F8400 		.p2align 4,,10
 3274      00000000 
 3275              		.p2align 3
 3276              	.L265:
 3277 0c20 488B3424 		movq	(%rsp), %rsi
 3278 0c24 4883C650 		addq	$80, %rsi
 3279              	.LEHB81:
 3280 0c28 E8000000 		call	_ZNSt7__cxx1112basic_stringIcSt11char_traitsIcESaIcEE9_M_assignERKS4_@PLT
 3280      00
 3281              	.LEHE81:
 3282 0c2d E96DFFFF 		jmp	.L269
 3282      FF
 3283              	.L311:
 3284 0c32 E8000000 		call	__stack_chk_fail@PLT
 3284      00
 3285              	.L301:
 3286 0c37 F30F1EFA 		endbr64
 3287 0c3b 4889C7   		movq	%rax, %rdi
 3288 0c3e E9000000 		jmp	.L272
 3288      00
 3289              	.L305:
 3290 0c43 F30F1EFA 		endbr64
 3291 0c47 E9000000 		jmp	.L306
 3291      00
 3292              	.L294:
 3293 0c4c F30F1EFA 		endbr64
 3294 0c50 4889C7   		movq	%rax, %rdi
 3295 0c53 4889D0   		movq	%rdx, %rax
 3296 0c56 E9000000 		jmp	.L283
 3296      00
 3297              	.L302:
 3298 0c5b F30F1EFA 		endbr64
 3299 0c5f 4889C3   		movq	%rax, %rbx
 3300 0c62 E9000000 		jmp	.L278
 3300      00
 3301              	.L303:
 3302 0c67 F30F1EFA 		endbr64
 3303 0c6b 4889C3   		movq	%rax, %rbx
 3304 0c6e E9000000 		jmp	.L270
 3304      00
 3305              		.section	.gcc_except_table
 3306 023f 00       		.align 4
 3307              	.LLSDA1578:
 3308 0240 FF       		.byte	0xff
 3309 0241 9B       		.byte	0x9b
 3310 0242 45       		.uleb128 .LLSDATT1578-.LLSDATTD1578
 3311              	.LLSDATTD1578:
 3312 0243 01       		.byte	0x1
 3313 0244 2E       		.uleb128 .LLSDACSE1578-.LLSDACSB1578
 3314              	.LLSDACSB1578:
 3315 0245 2E       		.uleb128 .LEHB74-.LFB1578
 3316 0246 05       		.uleb128 .LEHE74-.LEHB74
 3317 0247 00       		.uleb128 0
 3318 0248 00       		.uleb128 0
 3319 0249 3E       		.uleb128 .LEHB75-.LFB1578
 3320 024a 05       		.uleb128 .LEHE75-.LEHB75
 3321 024b DC04     		.uleb128 .L294-.LFB1578
 3322 024d 05       		.uleb128 0x5
 3323 024e 8001     		.uleb128 .LEHB76-.LFB1578
 3324 0250 9E01     		.uleb128 .LEHE76-.LEHB76
 3325 0252 D304     		.uleb128 .L305-.LFB1578
 3326 0254 07       		.uleb128 0x7
 3327 0255 AA02     		.uleb128 .LEHB77-.LFB1578
 3328 0257 1A       		.uleb128 .LEHE77-.LEHB77
 3329 0258 C704     		.uleb128 .L301-.LFB1578
 3330 025a 01       		.uleb128 0x1
 3331 025b AA03     		.uleb128 .LEHB78-.LFB1578
 3332 025d 05       		.uleb128 .LEHE78-.LEHB78
 3333 025e F704     		.uleb128 .L303-.LFB1578
 3334 0260 01       		.uleb128 0x1
 3335 0261 AF03     		.uleb128 .LEHB79-.LFB1578
 3336 0263 22       		.uleb128 .LEHE79-.LEHB79
 3337 0264 EB04     		.uleb128 .L302-.LFB1578
 3338 0266 01       		.uleb128 0x1
 3339 0267 F303     		.uleb128 .LEHB80-.LFB1578
 3340 0269 05       		.uleb128 .LEHE80-.LEHB80
 3341 026a DC04     		.uleb128 .L294-.LFB1578
 3342 026c 05       		.uleb128 0x5
 3343 026d B804     		.uleb128 .LEHB81-.LFB1578
 3344 026f 05       		.uleb128 .LEHE81-.LEHB81
 3345 0270 F704     		.uleb128 .L303-.LFB1578
 3346 0272 01       		.uleb128 0x1
 3347              	.LLSDACSE1578:
 3348 0273 03       		.byte	0x3
 3349 0274 00       		.byte	0
 3350 0275 02       		.byte	0x2
 3351 0276 7D       		.byte	0x7d
 3352 0277 01       		.byte	0x1
 3353 0278 7D       		.byte	0x7d
 3354 0279 00       		.byte	0
 3355 027a 7D       		.byte	0x7d
 3356 027b 00       		.align 4
 3357 027c 00000000 		.long	0
 3358              	
 3359 0280 00000000 		.long	DW.ref._ZTISt9exception-.
 3360 0284 00000000 		.long	DW.ref._ZTIN8UnitTest15AssertExceptionE-.
 3361              	.LLSDATT1578:
 3362              		.text
 3363              		.cfi_endproc
 3364              		.section	.text.unlikely
 3365              		.cfi_startproc
 3366              		.cfi_personality 0x9b,DW.ref.__gxx_personality_v0
 3367              		.cfi_lsda 0x1b,.LLSDAC1578
 3369              	_ZN8UnitTest11ExecuteTestIN12_GLOBAL__N_144XmlTestReporterFixtureMultipleFailuresHelperEEEvRT_RKNS_
 3370              	.LFSB1578:
 3371              	.L307:
 3372              		.cfi_def_cfa_offset 1824
 3373              		.cfi_offset 3, -48
 3374              		.cfi_offset 6, -40
 3375              		.cfi_offset 12, -32
 3376              		.cfi_offset 13, -24
 3377              		.cfi_offset 14, -16
 3378 06e3 BF080000 		movl	$8, %edi
 3378      00
 3379 06e8 E8000000 		call	__cxa_allocate_exception@PLT
 3379      00
 3380 06ed 31D2     		xorl	%edx, %edx
 3381 06ef 488D3500 		leaq	_ZTIPKc(%rip), %rsi
 3381      000000
 3382 06f6 4889C7   		movq	%rax, %rdi
 3383 06f9 488D0500 		leaq	.LC8(%rip), %rax
 3383      000000
 3384 0700 488907   		movq	%rax, (%rdi)
 3385              	.LEHB82:
 3386 0703 E8000000 		call	__cxa_throw@PLT
 3386      00
 3387              	.LEHE82:
 3388              	.L295:
 3389 0708 F30F1EFA 		endbr64
 3390              	.L306:
 3391 070c 4889C5   		movq	%rax, %rbp
 3392 070f 4889D3   		movq	%rdx, %rbx
 3393 0712 EB74     		jmp	.L282
 3394              	.L270:
 3395 0714 488BBC24 		movq	192(%rsp), %rdi
 3395      C0000000 
 3396 071c 488D8424 		leaq	208(%rsp), %rax
 3396      D0000000 
 3397 0724 4839C7   		cmpq	%rax, %rdi
 3398 0727 7405     		je	.L273
 3399 0729 E8000000 		call	_ZdlPv@PLT
 3399      00
 3400              	.L273:
 3401 072e 4889DF   		movq	%rbx, %rdi
 3402              	.L272:
 3403 0731 E8000000 		call	__cxa_begin_catch@PLT
 3403      00
 3404              	.LEHB83:
 3405 0736 E8000000 		call	_ZN8UnitTest11CurrentTest7ResultsEv@PLT
 3405      00
 3406 073b 488B28   		movq	(%rax), %rbp
 3407 073e E8000000 		call	_ZN8UnitTest11CurrentTest7DetailsEv@PLT
 3407      00
 3408 0743 488B30   		movq	(%rax), %rsi
 3409 0746 488DBC24 		leaq	128(%rsp), %rdi
 3409      80000000 
 3410 074e BAB40000 		movl	$180, %edx
 3410      00
 3411 0753 E8000000 		call	_ZN8UnitTest11TestDetailsC1ERKS0_i@PLT
 3411      00
 3412 0758 488DB424 		leaq	128(%rsp), %rsi
 3412      80000000 
 3413 0760 488D1500 		leaq	.LC35(%rip), %rdx
 3413      000000
 3414 0767 4889EF   		movq	%rbp, %rdi
 3415 076a E8000000 		call	_ZN8UnitTest11TestResults13OnTestFailureERKNS_11TestDetailsEPKc@PLT
 3415      00
 3416              	.LEHE83:
 3417              	.LEHB84:
 3418 076f E8000000 		call	__cxa_end_catch@PLT
 3418      00
 3419              	.LEHE84:
 3420 0774 E9000000 		jmp	.L275
 3420      00
 3421              	.L300:
 3422 0779 F30F1EFA 		endbr64
 3423 077d 4889C5   		movq	%rax, %rbp
 3424 0780 4889D3   		movq	%rdx, %rbx
 3425 0783 E8000000 		call	__cxa_end_catch@PLT
 3425      00
 3426              	.L282:
 3427 0788 488DBC24 		leaq	640(%rsp), %rdi
 3427      80020000 
 3428 0790 E8000000 		call	_ZN8UnitTest16SignalTranslatorD1Ev@PLT
 3428      00
 3429 0795 4889EF   		movq	%rbp, %rdi
 3430 0798 4889D8   		movq	%rbx, %rax
 3431              	.L283:
 3432 079b 4883F801 		cmpq	$1, %rax
 3433 079f 7454     		je	.L284
 3434 07a1 4883F802 		cmpq	$2, %rax
 3435 07a5 0F84C400 		je	.L312
 3435      0000
 3436 07ab E8000000 		call	__cxa_begin_catch@PLT
 3436      00
 3437              	.LEHB85:
 3438 07b0 E8000000 		call	_ZN8UnitTest11CurrentTest7ResultsEv@PLT
 3438      00
 3439 07b5 488B7424 		movq	8(%rsp), %rsi
 3439      08
 3440 07ba 488B38   		movq	(%rax), %rdi
 3441 07bd 488D1500 		leaq	.LC17(%rip), %rdx
 3441      000000
 3442 07c4 E8000000 		call	_ZN8UnitTest11TestResults13OnTestFailureERKNS_11TestDetailsEPKc@PLT
 3442      00
 3443              	.LEHE85:
 3444              	.LEHB86:
 3445 07c9 E8000000 		call	__cxa_end_catch@PLT
 3445      00
 3446              	.LEHE86:
 3447 07ce E9000000 		jmp	.L262
 3447      00
 3448              	.L278:
 3449 07d3 488BBC24 		movq	192(%rsp), %rdi
 3449      C0000000 
 3450 07db 488D8424 		leaq	208(%rsp), %rax
 3450      D0000000 
 3451 07e3 4839C7   		cmpq	%rax, %rdi
 3452 07e6 7405     		je	.L280
 3453 07e8 E8000000 		call	_ZdlPv@PLT
 3453      00
 3454              	.L280:
 3455 07ed 4889DF   		movq	%rbx, %rdi
 3456 07f0 E93CFFFF 		jmp	.L272
 3456      FF
 3457              	.L284:
 3458 07f5 E8000000 		call	__cxa_begin_catch@PLT
 3458      00
 3459 07fa 4889C5   		movq	%rax, %rbp
 3460              	.LEHB87:
 3461 07fd E8000000 		call	_ZN8UnitTest11CurrentTest7ResultsEv@PLT
 3461      00
 3462 0802 4C8B28   		movq	(%rax), %r13
 3463 0805 488B4500 		movq	0(%rbp), %rax
 3464 0809 4889EF   		movq	%rbp, %rdi
 3465 080c FF5010   		call	*16(%rax)
 3466 080f 4889EF   		movq	%rbp, %rdi
 3467 0812 4989C6   		movq	%rax, %r14
 3468 0815 E8000000 		call	_ZNK8UnitTest15AssertException10LineNumberEv@PLT
 3468      00
 3469 081a 4889EF   		movq	%rbp, %rdi
 3470 081d 4189C4   		movl	%eax, %r12d
 3471 0820 E8000000 		call	_ZNK8UnitTest15AssertException8FilenameEv@PLT
 3471      00
 3472 0825 4889C1   		movq	%rax, %rcx
 3473 0828 488B4424 		movq	8(%rsp), %rax
 3473      08
 3474 082d 488D7C24 		leaq	32(%rsp), %rdi
 3474      20
 3475 0832 4589E0   		movl	%r12d, %r8d
 3476 0835 488B7008 		movq	8(%rax), %rsi
 3477 0839 488B10   		movq	(%rax), %rdx
 3478 083c E8000000 		call	_ZN8UnitTest11TestDetailsC1EPKcS2_S2_i@PLT
 3478      00
 3479 0841 488D7424 		leaq	32(%rsp), %rsi
 3479      20
 3480 0846 4C89F2   		movq	%r14, %rdx
 3481 0849 4C89EF   		movq	%r13, %rdi
 3482 084c E8000000 		call	_ZN8UnitTest11TestResults13OnTestFailureERKNS_11TestDetailsEPKc@PLT
 3482      00
 3483              	.LEHE87:
 3484 0851 E8000000 		call	__cxa_end_catch@PLT
 3484      00
 3485 0856 E9000000 		jmp	.L262
 3485      00
 3486              	.L296:
 3487 085b F30F1EFA 		endbr64
 3488 085f 4889C5   		movq	%rax, %rbp
 3489 0862 E8000000 		call	__cxa_end_catch@PLT
 3489      00
 3490 0867 4889EF   		movq	%rbp, %rdi
 3491              	.LEHB88:
 3492 086a E8000000 		call	_Unwind_Resume@PLT
 3492      00
 3493              	.LEHE88:
 3494              	.L312:
 3495 086f E8000000 		call	__cxa_begin_catch@PLT
 3495      00
 3496 0874 488DBC24 		leaq	224(%rsp), %rdi
 3496      E0000000 
 3497 087c 4889C5   		movq	%rax, %rbp
 3498              	.LEHB89:
 3499 087f E8000000 		call	_ZN8UnitTest15MemoryOutStreamC1Ev
 3499      00
 3500              	.LEHE89:
 3501 0884 488DBC24 		leaq	224(%rsp), %rdi
 3501      E0000000 
 3502 088c BA150000 		movl	$21, %edx
 3502      00
 3503 0891 488D3500 		leaq	.LC16(%rip), %rsi
 3503      000000
 3504              	.LEHB90:
 3505 0898 E8000000 		call	_ZSt16__ostream_insertIcSt11char_traitsIcEERSt13basic_ostreamIT_T0_ES6_PKS3_l@PLT
 3505      00
 3506 089d 488B4500 		movq	0(%rbp), %rax
 3507 08a1 4889EF   		movq	%rbp, %rdi
 3508 08a4 FF5010   		call	*16(%rax)
 3509 08a7 488DBC24 		leaq	224(%rsp), %rdi
 3509      E0000000 
 3510 08af 4889C6   		movq	%rax, %rsi
 3511 08b2 E8000000 		call	_ZStlsISt11char_traitsIcEERSt13basic_ostreamIcT_ES5_PKc@PLT
 3511      00
 3512 08b7 E8000000 		call	_ZN8UnitTest11CurrentTest7ResultsEv@PLT
 3512      00
 3513 08bc 488DBC24 		leaq	224(%rsp), %rdi
 3513      E0000000 
 3514 08c4 488B28   		movq	(%rax), %rbp
 3515 08c7 E8000000 		call	_ZNK8UnitTest15MemoryOutStream7GetTextEv@PLT
 3515      00
 3516 08cc 488B7424 		movq	8(%rsp), %rsi
 3516      08
 3517 08d1 4889C2   		movq	%rax, %rdx
 3518 08d4 4889EF   		movq	%rbp, %rdi
 3519 08d7 E8000000 		call	_ZN8UnitTest11TestResults13OnTestFailureERKNS_11TestDetailsEPKc@PLT
 3519      00
 3520              	.LEHE90:
 3521 08dc 488DBC24 		leaq	224(%rsp), %rdi
 3521      E0000000 
 3522              	.LEHB91:
 3523 08e4 E8000000 		call	_ZN8UnitTest15MemoryOutStreamD1Ev
 3523      00
 3524              	.LEHE91:
 3525 08e9 E8000000 		call	__cxa_end_catch@PLT
 3525      00
 3526 08ee E9000000 		jmp	.L262
 3526      00
 3527              	.L298:
 3528 08f3 F30F1EFA 		endbr64
 3529 08f7 488DBC24 		leaq	224(%rsp), %rdi
 3529      E0000000 
 3530 08ff 4889C5   		movq	%rax, %rbp
 3531 0902 E8000000 		call	_ZN8UnitTest15MemoryOutStreamD1Ev
 3531      00
 3532              	.L291:
 3533 0907 E8000000 		call	__cxa_end_catch@PLT
 3533      00
 3534 090c 4889EF   		movq	%rbp, %rdi
 3535              	.LEHB92:
 3536 090f E8000000 		call	_Unwind_Resume@PLT
 3536      00
 3537              	.LEHE92:
 3538              	.L297:
 3539 0914 F30F1EFA 		endbr64
 3540 0918 4889C5   		movq	%rax, %rbp
 3541 091b EBEA     		jmp	.L291
 3542              	.L299:
 3543 091d F30F1EFA 		endbr64
 3544 0921 4889C5   		movq	%rax, %rbp
 3545 0924 E8000000 		call	__cxa_end_catch@PLT
 3545      00
 3546 0929 4889EF   		movq	%rbp, %rdi
 3547              	.LEHB93:
 3548 092c E8000000 		call	_Unwind_Resume@PLT
 3548      00
 3549              	.LEHE93:
 3550              		.cfi_endproc
 3551              	.LFE1578:
 3552              		.section	.gcc_except_table
 3553              		.align 4
 3554              	.LLSDAC1578:
 3555 0288 FF       		.byte	0xff
 3556 0289 9B       		.byte	0x9b
 3557 028a 59       		.uleb128 .LLSDATTC1578-.LLSDATTDC1578
 3558              	.LLSDATTDC1578:
 3559 028b 01       		.byte	0x1
 3560 028c 40       		.uleb128 .LLSDACSEC1578-.LLSDACSBC1578
 3561              	.LLSDACSBC1578:
 3562 028d 20       		.uleb128 .LEHB82-.LCOLDB36
 3563 028e 05       		.uleb128 .LEHE82-.LEHB82
 3564 028f 25       		.uleb128 .L295-.LCOLDB36
 3565 0290 07       		.uleb128 0x7
 3566 0291 53       		.uleb128 .LEHB83-.LCOLDB36
 3567 0292 39       		.uleb128 .LEHE83-.LEHB83
 3568 0293 9601     		.uleb128 .L300-.LCOLDB36
 3569 0295 07       		.uleb128 0x7
 3570 0296 8C01     		.uleb128 .LEHB84-.LCOLDB36
 3571 0298 05       		.uleb128 .LEHE84-.LEHB84
 3572 0299 25       		.uleb128 .L295-.LCOLDB36
 3573 029a 07       		.uleb128 0x7
 3574 029b CD01     		.uleb128 .LEHB85-.LCOLDB36
 3575 029d 19       		.uleb128 .LEHE85-.LEHB85
 3576 029e BA04     		.uleb128 .L299-.LCOLDB36
 3577 02a0 00       		.uleb128 0
 3578 02a1 E601     		.uleb128 .LEHB86-.LCOLDB36
 3579 02a3 05       		.uleb128 .LEHE86-.LEHB86
 3580 02a4 00       		.uleb128 0
 3581 02a5 00       		.uleb128 0
 3582 02a6 9A02     		.uleb128 .LEHB87-.LCOLDB36
 3583 02a8 54       		.uleb128 .LEHE87-.LEHB87
 3584 02a9 F802     		.uleb128 .L296-.LCOLDB36
 3585 02ab 00       		.uleb128 0
 3586 02ac 8703     		.uleb128 .LEHB88-.LCOLDB36
 3587 02ae 05       		.uleb128 .LEHE88-.LEHB88
 3588 02af 00       		.uleb128 0
 3589 02b0 00       		.uleb128 0
 3590 02b1 9C03     		.uleb128 .LEHB89-.LCOLDB36
 3591 02b3 05       		.uleb128 .LEHE89-.LEHB89
 3592 02b4 B104     		.uleb128 .L297-.LCOLDB36
 3593 02b6 00       		.uleb128 0
 3594 02b7 B503     		.uleb128 .LEHB90-.LCOLDB36
 3595 02b9 44       		.uleb128 .LEHE90-.LEHB90
 3596 02ba 9004     		.uleb128 .L298-.LCOLDB36
 3597 02bc 00       		.uleb128 0
 3598 02bd 8104     		.uleb128 .LEHB91-.LCOLDB36
 3599 02bf 05       		.uleb128 .LEHE91-.LEHB91
 3600 02c0 B104     		.uleb128 .L297-.LCOLDB36
 3601 02c2 00       		.uleb128 0
 3602 02c3 AC04     		.uleb128 .LEHB92-.LCOLDB36
 3603 02c5 05       		.uleb128 .LEHE92-.LEHB92
 3604 02c6 00       		.uleb128 0
 3605 02c7 00       		.uleb128 0
 3606 02c8 C904     		.uleb128 .LEHB93-.LCOLDB36
 3607 02ca 05       		.uleb128 .LEHE93-.LEHB93
 3608 02cb 00       		.uleb128 0
 3609 02cc 00       		.uleb128 0
 3610              	.LLSDACSEC1578:
 3611 02cd 03       		.byte	0x3
 3612 02ce 00       		.byte	0
 3613 02cf 02       		.byte	0x2
 3614 02d0 7D       		.byte	0x7d
 3615 02d1 01       		.byte	0x1
 3616 02d2 7D       		.byte	0x7d
 3617 02d3 00       		.byte	0
 3618 02d4 7D       		.byte	0x7d
 3619 02d5 000000   		.align 4
 3620 02d8 00000000 		.long	0
 3621              	
 3622 02dc 00000000 		.long	DW.ref._ZTISt9exception-.
 3623 02e0 00000000 		.long	DW.ref._ZTIN8UnitTest15AssertExceptionE-.
 3624              	.LLSDATTC1578:
 3625              		.section	.text.unlikely
 3626              		.text
 3628              		.section	.text.unlikely
 3630              	.LCOLDE36:
 3631              		.text
 3632              	.LHOTE36:
 3633              		.section	.text.unlikely
 3634 0931 90       		.align 2
 3635              	.LCOLDB37:
 3636              		.text
 3637              	.LHOTB37:
 3638 0c73 90       		.align 2
 3639 0c74 66662E0F 		.p2align 4
 3639      1F840000 
 3639      00000090 
 3641              	_ZNK12_GLOBAL__N_142TestXmlTestReporterFixtureMultipleFailures7RunImplEv:
 3642              	.LFB1534:
 3643              		.cfi_startproc
 3644              		.cfi_personality 0x9b,DW.ref.__gxx_personality_v0
 3645              		.cfi_lsda 0x1b,.LLSDA1534
 3646 0c80 F30F1EFA 		endbr64
 3647 0c84 4157     		pushq	%r15
 3648              		.cfi_def_cfa_offset 16
 3649              		.cfi_offset 15, -16
 3650 0c86 4156     		pushq	%r14
 3651              		.cfi_def_cfa_offset 24
 3652              		.cfi_offset 14, -24
 3653 0c88 4155     		pushq	%r13
 3654              		.cfi_def_cfa_offset 32
 3655              		.cfi_offset 13, -32
 3656 0c8a 4154     		pushq	%r12
 3657              		.cfi_def_cfa_offset 40
 3658              		.cfi_offset 12, -40
 3659 0c8c 55       		pushq	%rbp
 3660              		.cfi_def_cfa_offset 48
 3661              		.cfi_offset 6, -48
 3662 0c8d 53       		pushq	%rbx
 3663              		.cfi_def_cfa_offset 56
 3664              		.cfi_offset 3, -56
 3665 0c8e 488D1D00 		leaq	16+_ZTVNSt7__cxx1115basic_stringbufIcSt11char_traitsIcESaIcEEE(%rip), %rbx
 3665      000000
 3666 0c95 66480F6E 		movq	%rbx, %xmm3
 3666      DB
 3667 0c9a 4881EC18 		subq	$536, %rsp
 3667      020000
 3668              		.cfi_def_cfa_offset 592
 3669 0ca1 48897C24 		movq	%rdi, 56(%rsp)
 3669      38
 3670 0ca6 4C8DB424 		leaq	208(%rsp), %r14
 3670      D0000000 
 3671 0cae 4C8D6C24 		leaq	96(%rsp), %r13
 3671      60
 3672 0cb3 64488B04 		movq	%fs:40, %rax
 3672      25280000 
 3672      00
 3673 0cbc 48898424 		movq	%rax, 520(%rsp)
 3673      08020000 
 3674 0cc4 488D0500 		leaq	24+_ZTVNSt7__cxx1119basic_ostringstreamIcSt11char_traitsIcESaIcEEE(%rip), %rax
 3674      000000
 3675 0ccb 66480F6E 		movq	%rax, %xmm1
 3675      C8
 3676 0cd0 66480F6E 		movq	%rax, %xmm2
 3676      D0
 3677 0cd5 488D4708 		leaq	8(%rdi), %rax
 3678 0cd9 4C89F7   		movq	%r14, %rdi
 3679 0cdc 660F6CCB 		punpcklqdq	%xmm3, %xmm1
 3680 0ce0 0F161500 		movhps	.LC21(%rip), %xmm2
 3680      000000
 3681 0ce7 48894424 		movq	%rax, 32(%rsp)
 3681      20
 3682 0cec 0F294C24 		movaps	%xmm1, 16(%rsp)
 3682      10
 3683 0cf1 0F291424 		movaps	%xmm2, (%rsp)
 3684 0cf5 E8000000 		call	_ZNSt8ios_baseC2Ev@PLT
 3684      00
 3685 0cfa 488D0500 		leaq	16+_ZTVSt9basic_iosIcSt11char_traitsIcEE(%rip), %rax
 3685      000000
 3686 0d01 660FEFC0 		pxor	%xmm0, %xmm0
 3687 0d05 31F6     		xorl	%esi, %esi
 3688 0d07 48898424 		movq	%rax, 208(%rsp)
 3688      D0000000 
 3689 0d0f 31C0     		xorl	%eax, %eax
 3690 0d11 66898424 		movw	%ax, 432(%rsp)
 3690      B0010000 
 3691 0d19 488B0500 		movq	8+_ZTTNSt7__cxx1119basic_ostringstreamIcSt11char_traitsIcESaIcEEE(%rip), %rax
 3691      000000
 3692 0d20 0F118424 		movups	%xmm0, 440(%rsp)
 3692      B8010000 
 3693 0d28 0F118424 		movups	%xmm0, 456(%rsp)
 3693      C8010000 
 3694 0d30 488B78E8 		movq	-24(%rax), %rdi
 3695 0d34 48894424 		movq	%rax, 96(%rsp)
 3695      60
 3696 0d39 488B0500 		movq	16+_ZTTNSt7__cxx1119basic_ostringstreamIcSt11char_traitsIcESaIcEEE(%rip), %rax
 3696      000000
 3697 0d40 48C78424 		movq	$0, 424(%rsp)
 3697      A8010000 
 3697      00000000 
 3698 0d4c 4C01EF   		addq	%r13, %rdi
 3699 0d4f 488907   		movq	%rax, (%rdi)
 3700              	.LEHB94:
 3701 0d52 E8000000 		call	_ZNSt9basic_iosIcSt11char_traitsIcEE4initEPSt15basic_streambufIcS1_E@PLT
 3701      00
 3702              	.LEHE94:
 3703 0d57 488D0500 		leaq	64+_ZTVNSt7__cxx1119basic_ostringstreamIcSt11char_traitsIcESaIcEEE(%rip), %rax
 3703      000000
 3704 0d5e 660F6F14 		movdqa	(%rsp), %xmm2
 3704      24
 3705 0d63 660FEFC0 		pxor	%xmm0, %xmm0
 3706 0d67 488D6C24 		leaq	104(%rsp), %rbp
 3706      68
 3707 0d6c 48898424 		movq	%rax, 208(%rsp)
 3707      D0000000 
 3708 0d74 488D8424 		leaq	160(%rsp), %rax
 3708      A0000000 
 3709 0d7c 4889C7   		movq	%rax, %rdi
 3710 0d7f 48890424 		movq	%rax, (%rsp)
 3711 0d83 0F295424 		movaps	%xmm2, 96(%rsp)
 3711      60
 3712 0d88 0F294424 		movaps	%xmm0, 112(%rsp)
 3712      70
 3713 0d8d 0F298424 		movaps	%xmm0, 128(%rsp)
 3713      80000000 
 3714 0d95 0F298424 		movaps	%xmm0, 144(%rsp)
 3714      90000000 
 3715 0d9d E8000000 		call	_ZNSt6localeC1Ev@PLT
 3715      00
 3716 0da2 4889EE   		movq	%rbp, %rsi
 3717 0da5 4C89F7   		movq	%r14, %rdi
 3718 0da8 48895C24 		movq	%rbx, 104(%rsp)
 3718      68
 3719 0dad 488D8424 		leaq	192(%rsp), %rax
 3719      C0000000 
 3720 0db5 C68424C0 		movb	$0, 192(%rsp)
 3720      00000000 
 3721 0dbd C78424A8 		movl	$16, 168(%rsp)
 3721      00000010 
 3721      000000
 3722 0dc8 48894424 		movq	%rax, 40(%rsp)
 3722      28
 3723 0dcd 48898424 		movq	%rax, 176(%rsp)
 3723      B0000000 
 3724 0dd5 48C78424 		movq	$0, 184(%rsp)
 3724      B8000000 
 3724      00000000 
 3725              	.LEHB95:
 3726 0de1 E8000000 		call	_ZNSt9basic_iosIcSt11char_traitsIcEE4initEPSt15basic_streambufIcS1_E@PLT
 3726      00
 3727              	.LEHE95:
 3728 0de6 488D8424 		leaq	472(%rsp), %rax
 3728      D8010000 
 3729 0dee 4C89EE   		movq	%r13, %rsi
 3730 0df1 4889C7   		movq	%rax, %rdi
 3731 0df4 48894424 		movq	%rax, 48(%rsp)
 3731      30
 3732              	.LEHB96:
 3733 0df9 E8000000 		call	_ZN8UnitTest15XmlTestReporterC1ERSo@PLT
 3733      00
 3734              	.LEHE96:
 3735 0dfe 488B4424 		movq	32(%rsp), %rax
 3735      20
 3736 0e03 4C89EF   		movq	%r13, %rdi
 3737 0e06 4889C6   		movq	%rax, %rsi
 3738 0e09 48898424 		movq	%rax, 512(%rsp)
 3738      00020000 
 3739              	.LEHB97:
 3740 0e11 E8DAFBFF 		call	_ZN8UnitTest11ExecuteTestIN12_GLOBAL__N_144XmlTestReporterFixtureMultipleFailuresHelperEEEvRT
 3740      FF
 3741              	.LEHE97:
 3742 0e16 4C8BA424 		movq	488(%rsp), %r12
 3742      E8010000 
 3743 0e1e 488BAC24 		movq	480(%rsp), %rbp
 3743      E0010000 
 3744 0e26 488D0500 		leaq	16+_ZTVN8UnitTest20DeferredTestReporterE(%rip), %rax
 3744      000000
 3745 0e2d 48898424 		movq	%rax, 472(%rsp)
 3745      D8010000 
 3746 0e35 4939EC   		cmpq	%rbp, %r12
 3747 0e38 0F849100 		je	.L320
 3747      0000
 3748 0e3e 6690     		.p2align 4,,10
 3749              		.p2align 3
 3750              	.L332:
 3751 0e40 488B5D68 		movq	104(%rbp), %rbx
 3752 0e44 4C8B7D60 		movq	96(%rbp), %r15
 3753 0e48 4C39FB   		cmpq	%r15, %rbx
 3754 0e4b 7426     		je	.L321
 3755 0e4d 0F1F00   		.p2align 4,,10
 3756              		.p2align 3
 3757              	.L325:
 3758 0e50 498B7F08 		movq	8(%r15), %rdi
 3759 0e54 498D4718 		leaq	24(%r15), %rax
 3760 0e58 4839C7   		cmpq	%rax, %rdi
 3761 0e5b 0F842701 		je	.L322
 3761      0000
 3762 0e61 E8000000 		call	_ZdlPv@PLT
 3762      00
 3763 0e66 4983C728 		addq	$40, %r15
 3764 0e6a 4939DF   		cmpq	%rbx, %r15
 3765 0e6d 75E1     		jne	.L325
 3766              	.L324:
 3767 0e6f 4C8B7D60 		movq	96(%rbp), %r15
 3768              	.L321:
 3769 0e73 4D85FF   		testq	%r15, %r15
 3770 0e76 7408     		je	.L326
 3771 0e78 4C89FF   		movq	%r15, %rdi
 3772 0e7b E8000000 		call	_ZdlPv@PLT
 3772      00
 3773              	.L326:
 3774 0e80 488B7D40 		movq	64(%rbp), %rdi
 3775 0e84 488D4550 		leaq	80(%rbp), %rax
 3776 0e88 4839C7   		cmpq	%rax, %rdi
 3777 0e8b 7405     		je	.L327
 3778 0e8d E8000000 		call	_ZdlPv@PLT
 3778      00
 3779              	.L327:
 3780 0e92 488B7D20 		movq	32(%rbp), %rdi
 3781 0e96 488D4530 		leaq	48(%rbp), %rax
 3782 0e9a 4839C7   		cmpq	%rax, %rdi
 3783 0e9d 7405     		je	.L328
 3784 0e9f E8000000 		call	_ZdlPv@PLT
 3784      00
 3785              	.L328:
 3786 0ea4 488B7D00 		movq	0(%rbp), %rdi
 3787 0ea8 488D4510 		leaq	16(%rbp), %rax
 3788 0eac 4839C7   		cmpq	%rax, %rdi
 3789 0eaf 0F84EB00 		je	.L329
 3789      0000
 3790 0eb5 E8000000 		call	_ZdlPv@PLT
 3790      00
 3791 0eba 4883ED80 		subq	$-128, %rbp
 3792 0ebe 4939EC   		cmpq	%rbp, %r12
 3793 0ec1 0F8579FF 		jne	.L332
 3793      FFFF
 3794              	.L331:
 3795 0ec7 488BAC24 		movq	480(%rsp), %rbp
 3795      E0010000 
 3796              	.L320:
 3797 0ecf 4885ED   		testq	%rbp, %rbp
 3798 0ed2 7408     		je	.L333
 3799 0ed4 4889EF   		movq	%rbp, %rdi
 3800 0ed7 E8000000 		call	_ZdlPv@PLT
 3800      00
 3801              	.L333:
 3802 0edc 488B7C24 		movq	48(%rsp), %rdi
 3802      30
 3803              	.LEHB98:
 3804 0ee1 E8000000 		call	_ZN8UnitTest12TestReporterD2Ev@PLT
 3804      00
 3805              	.LEHE98:
 3806 0ee6 660F6F64 		movdqa	16(%rsp), %xmm4
 3806      2410
 3807 0eec 488D0500 		leaq	64+_ZTVNSt7__cxx1119basic_ostringstreamIcSt11char_traitsIcESaIcEEE(%rip), %rax
 3807      000000
 3808 0ef3 488BBC24 		movq	176(%rsp), %rdi
 3808      B0000000 
 3809 0efb 48898424 		movq	%rax, 208(%rsp)
 3809      D0000000 
 3810 0f03 0F296424 		movaps	%xmm4, 96(%rsp)
 3810      60
 3811 0f08 483B7C24 		cmpq	40(%rsp), %rdi
 3811      28
 3812 0f0d 7405     		je	.L334
 3813 0f0f E8000000 		call	_ZdlPv@PLT
 3813      00
 3814              	.L334:
 3815 0f14 488B3C24 		movq	(%rsp), %rdi
 3816 0f18 488D0500 		leaq	16+_ZTVSt15basic_streambufIcSt11char_traitsIcEE(%rip), %rax
 3816      000000
 3817 0f1f 48894424 		movq	%rax, 104(%rsp)
 3817      68
 3818 0f24 E8000000 		call	_ZNSt6localeD1Ev@PLT
 3818      00
 3819 0f29 488B0500 		movq	8+_ZTTNSt7__cxx1119basic_ostringstreamIcSt11char_traitsIcESaIcEEE(%rip), %rax
 3819      000000
 3820 0f30 488B0D00 		movq	16+_ZTTNSt7__cxx1119basic_ostringstreamIcSt11char_traitsIcESaIcEEE(%rip), %rcx
 3820      000000
 3821 0f37 4C89F7   		movq	%r14, %rdi
 3822 0f3a 48894424 		movq	%rax, 96(%rsp)
 3822      60
 3823 0f3f 488B40E8 		movq	-24(%rax), %rax
 3824 0f43 48894C04 		movq	%rcx, 96(%rsp,%rax)
 3824      60
 3825 0f48 488D0500 		leaq	16+_ZTVSt9basic_iosIcSt11char_traitsIcEE(%rip), %rax
 3825      000000
 3826 0f4f 48898424 		movq	%rax, 208(%rsp)
 3826      D0000000 
 3827              	.LEHB99:
 3828 0f57 E8000000 		call	_ZNSt8ios_baseD2Ev@PLT
 3828      00
 3829              	.LEHE99:
 3830 0f5c 488B8424 		movq	520(%rsp), %rax
 3830      08020000 
 3831 0f64 64482B04 		subq	%fs:40, %rax
 3831      25280000 
 3831      00
 3832 0f6d 7543     		jne	.L379
 3833 0f6f 4881C418 		addq	$536, %rsp
 3833      020000
 3834              		.cfi_remember_state
 3835              		.cfi_def_cfa_offset 56
 3836 0f76 5B       		popq	%rbx
 3837              		.cfi_def_cfa_offset 48
 3838 0f77 5D       		popq	%rbp
 3839              		.cfi_def_cfa_offset 40
 3840 0f78 415C     		popq	%r12
 3841              		.cfi_def_cfa_offset 32
 3842 0f7a 415D     		popq	%r13
 3843              		.cfi_def_cfa_offset 24
 3844 0f7c 415E     		popq	%r14
 3845              		.cfi_def_cfa_offset 16
 3846 0f7e 415F     		popq	%r15
 3847              		.cfi_def_cfa_offset 8
 3848 0f80 C3       		ret
 3849              		.p2align 4,,10
 3850 0f81 0F1F8000 		.p2align 3
 3850      000000
 3851              	.L322:
 3852              		.cfi_restore_state
 3853 0f88 4983C728 		addq	$40, %r15
 3854 0f8c 4C39FB   		cmpq	%r15, %rbx
 3855 0f8f 0F85BBFE 		jne	.L325
 3855      FFFF
 3856 0f95 E9D5FEFF 		jmp	.L324
 3856      FF
 3857 0f9a 660F1F44 		.p2align 4,,10
 3857      0000
 3858              		.p2align 3
 3859              	.L329:
 3860 0fa0 4883ED80 		subq	$-128, %rbp
 3861 0fa4 4939EC   		cmpq	%rbp, %r12
 3862 0fa7 0F8593FE 		jne	.L332
 3862      FFFF
 3863 0fad E915FFFF 		jmp	.L331
 3863      FF
 3864              	.L379:
 3865 0fb2 E8000000 		call	__stack_chk_fail@PLT
 3865      00
 3866              	.L353:
 3867 0fb7 F30F1EFA 		endbr64
 3868 0fbb 4889C7   		movq	%rax, %rdi
 3869 0fbe 4889D0   		movq	%rdx, %rax
 3870 0fc1 E9000000 		jmp	.L374
 3870      00
 3871              	.L362:
 3872 0fc6 F30F1EFA 		endbr64
 3873 0fca 4889C3   		movq	%rax, %rbx
 3874 0fcd 4889D5   		movq	%rdx, %rbp
 3875 0fd0 E9000000 		jmp	.L338
 3875      00
 3876              	.L354:
 3877 0fd5 F30F1EFA 		endbr64
 3878 0fd9 4889C3   		movq	%rax, %rbx
 3879 0fdc 4889D5   		movq	%rdx, %rbp
 3880 0fdf E9000000 		jmp	.L339
 3880      00
 3881              	.L359:
 3882 0fe4 F30F1EFA 		endbr64
 3883 0fe8 4889C3   		movq	%rax, %rbx
 3884 0feb 4889D5   		movq	%rdx, %rbp
 3885 0fee E9000000 		jmp	.L319
 3885      00
 3886              	.L361:
 3887 0ff3 F30F1EFA 		endbr64
 3888 0ff7 4889C3   		movq	%rax, %rbx
 3889 0ffa 4989D4   		movq	%rdx, %r12
 3890 0ffd E9000000 		jmp	.L315
 3890      00
 3891              	.L360:
 3892 1002 F30F1EFA 		endbr64
 3893 1006 4889C3   		movq	%rax, %rbx
 3894 1009 4989D4   		movq	%rdx, %r12
 3895 100c E9000000 		jmp	.L316
 3895      00
 3896              		.section	.gcc_except_table
 3897              		.align 4
 3898              	.LLSDA1534:
 3899 02e4 FF       		.byte	0xff
 3900 02e5 9B       		.byte	0x9b
 3901 02e6 3D       		.uleb128 .LLSDATT1534-.LLSDATTD1534
 3902              	.LLSDATTD1534:
 3903 02e7 01       		.byte	0x1
 3904 02e8 24       		.uleb128 .LLSDACSE1534-.LLSDACSB1534
 3905              	.LLSDACSB1534:
 3906 02e9 D201     		.uleb128 .LEHB94-.LFB1534
 3907 02eb 05       		.uleb128 .LEHE94-.LEHB94
 3908 02ec 8207     		.uleb128 .L360-.LFB1534
 3909 02ee 07       		.uleb128 0x7
 3910 02ef E102     		.uleb128 .LEHB95-.LFB1534
 3911 02f1 05       		.uleb128 .LEHE95-.LEHB95
 3912 02f2 F306     		.uleb128 .L361-.LFB1534
 3913 02f4 07       		.uleb128 0x7
 3914 02f5 F902     		.uleb128 .LEHB96-.LFB1534
 3915 02f7 05       		.uleb128 .LEHE96-.LEHB96
 3916 02f8 E406     		.uleb128 .L359-.LFB1534
 3917 02fa 07       		.uleb128 0x7
 3918 02fb 9103     		.uleb128 .LEHB97-.LFB1534
 3919 02fd 05       		.uleb128 .LEHE97-.LEHB97
 3920 02fe D506     		.uleb128 .L354-.LFB1534
 3921 0300 07       		.uleb128 0x7
 3922 0301 E104     		.uleb128 .LEHB98-.LFB1534
 3923 0303 05       		.uleb128 .LEHE98-.LEHB98
 3924 0304 C606     		.uleb128 .L362-.LFB1534
 3925 0306 07       		.uleb128 0x7
 3926 0307 D705     		.uleb128 .LEHB99-.LFB1534
 3927 0309 05       		.uleb128 .LEHE99-.LEHB99
 3928 030a B706     		.uleb128 .L353-.LFB1534
 3929 030c 05       		.uleb128 0x5
 3930              	.LLSDACSE1534:
 3931 030d 03       		.byte	0x3
 3932 030e 00       		.byte	0
 3933 030f 02       		.byte	0x2
 3934 0310 7D       		.byte	0x7d
 3935 0311 01       		.byte	0x1
 3936 0312 7D       		.byte	0x7d
 3937 0313 00       		.byte	0
 3938 0314 7D       		.byte	0x7d
 3939 0315 000000   		.align 4
 3940 0318 00000000 		.long	0
 3941              	
 3942 031c 00000000 		.long	DW.ref._ZTISt9exception-.
 3943 0320 00000000 		.long	DW.ref._ZTIN8UnitTest15AssertExceptionE-.
 3944              	.LLSDATT1534:
 3945              		.text
 3946              		.cfi_endproc
 3947              		.section	.text.unlikely
 3948              		.cfi_startproc
 3949              		.cfi_personality 0x9b,DW.ref.__gxx_personality_v0
 3950              		.cfi_lsda 0x1b,.LLSDAC1534
 3952              	_ZNK12_GLOBAL__N_142TestXmlTestReporterFixtureMultipleFailures7RunImplEv.cold:
 3953              	.LFSB1534:
 3954              	.L339:
 3955              		.cfi_def_cfa_offset 592
 3956              		.cfi_offset 3, -56
 3957              		.cfi_offset 6, -48
 3958              		.cfi_offset 12, -40
 3959              		.cfi_offset 13, -32
 3960              		.cfi_offset 14, -24
 3961              		.cfi_offset 15, -16
 3962 0932 4C89EF   		movq	%r13, %rdi
 3963 0935 E8E4F9FF 		call	_ZN12_GLOBAL__N_122XmlTestReporterFixtureD2Ev
 3963      FF
 3964 093a 4889DF   		movq	%rbx, %rdi
 3965 093d 4889E8   		movq	%rbp, %rax
 3966              	.L374:
 3967 0940 BB010000 		movl	$1, %ebx
 3967      00
 3968              	.L317:
 3969 0945 4883F801 		cmpq	$1, %rax
 3970 0949 0F84EA00 		je	.L340
 3970      0000
 3971 094f 4883F802 		cmpq	$2, %rax
 3972 0953 0F846B01 		je	.L380
 3972      0000
 3973 0959 E8000000 		call	__cxa_begin_catch@PLT
 3973      00
 3974 095e 84DB     		testb	%bl, %bl
 3975 0960 0F85E901 		jne	.L381
 3975      0000
 3976              	.LEHB100:
 3977 0966 E8000000 		call	_ZN8UnitTest11CurrentTest7ResultsEv@PLT
 3977      00
 3978 096b 488D6C24 		leaq	64(%rsp), %rbp
 3978      40
 3979 0970 488B7424 		movq	32(%rsp), %rsi
 3979      20
 3980 0975 BA9F0000 		movl	$159, %edx
 3980      00
 3981 097a 4C8B20   		movq	(%rax), %r12
 3982 097d 4889EF   		movq	%rbp, %rdi
 3983 0980 E8000000 		call	_ZN8UnitTest11TestDetailsC1ERKS0_i@PLT
 3983      00
 3984 0985 488D1500 		leaq	.LC20(%rip), %rdx
 3984      000000
 3985 098c 4889EE   		movq	%rbp, %rsi
 3986 098f 4C89E7   		movq	%r12, %rdi
 3987 0992 E8000000 		call	_ZN8UnitTest11TestResults13OnTestFailureERKNS_11TestDetailsEPKc@PLT
 3987      00
 3988              	.LEHE100:
 3989              	.L346:
 3990 0997 488B8424 		movq	520(%rsp), %rax
 3990      08020000 
 3991 099f 64482B04 		subq	%fs:40, %rax
 3991      25280000 
 3991      00
 3992 09a8 0F851101 		jne	.L376
 3992      0000
 3993 09ae 4881C418 		addq	$536, %rsp
 3993      020000
 3994              		.cfi_remember_state
 3995              		.cfi_def_cfa_offset 56
 3996 09b5 5B       		popq	%rbx
 3997              		.cfi_def_cfa_offset 48
 3998 09b6 5D       		popq	%rbp
 3999              		.cfi_def_cfa_offset 40
 4000 09b7 415C     		popq	%r12
 4001              		.cfi_def_cfa_offset 32
 4002 09b9 415D     		popq	%r13
 4003              		.cfi_def_cfa_offset 24
 4004 09bb 415E     		popq	%r14
 4005              		.cfi_def_cfa_offset 16
 4006 09bd 415F     		popq	%r15
 4007              		.cfi_def_cfa_offset 8
 4008              	.LEHB101:
 4009 09bf E9000000 		jmp	__cxa_end_catch@PLT
 4009      00
 4010              	.LEHE101:
 4011              	.L338:
 4012              		.cfi_restore_state
 4013 09c4 4C89EF   		movq	%r13, %rdi
 4014 09c7 E8000000 		call	_ZNSt7__cxx1119basic_ostringstreamIcSt11char_traitsIcESaIcEED1Ev@PLT
 4014      00
 4015 09cc 4889DF   		movq	%rbx, %rdi
 4016 09cf 4889E8   		movq	%rbp, %rax
 4017 09d2 BB010000 		movl	$1, %ebx
 4017      00
 4018 09d7 E969FFFF 		jmp	.L317
 4018      FF
 4019              	.L319:
 4020 09dc 4C89EF   		movq	%r13, %rdi
 4021 09df E8000000 		call	_ZNSt7__cxx1119basic_ostringstreamIcSt11char_traitsIcESaIcEED1Ev@PLT
 4021      00
 4022 09e4 4889DF   		movq	%rbx, %rdi
 4023 09e7 4889E8   		movq	%rbp, %rax
 4024 09ea 31DB     		xorl	%ebx, %ebx
 4025 09ec E954FFFF 		jmp	.L317
 4025      FF
 4026              	.L315:
 4027 09f1 4889EF   		movq	%rbp, %rdi
 4028 09f4 E8000000 		call	_ZNSt7__cxx1115basic_stringbufIcSt11char_traitsIcESaIcEED1Ev
 4028      00
 4029 09f9 488B0500 		movq	8+_ZTTNSt7__cxx1119basic_ostringstreamIcSt11char_traitsIcESaIcEEE(%rip), %rax
 4029      000000
 4030 0a00 488B0D00 		movq	16+_ZTTNSt7__cxx1119basic_ostringstreamIcSt11char_traitsIcESaIcEEE(%rip), %rcx
 4030      000000
 4031 0a07 48894424 		movq	%rax, 96(%rsp)
 4031      60
 4032 0a0c 488B40E8 		movq	-24(%rax), %rax
 4033 0a10 48894C04 		movq	%rcx, 96(%rsp,%rax)
 4033      60
 4034              	.L316:
 4035 0a15 488D0500 		leaq	16+_ZTVSt9basic_iosIcSt11char_traitsIcEE(%rip), %rax
 4035      000000
 4036 0a1c 4C89F7   		movq	%r14, %rdi
 4037 0a1f 48898424 		movq	%rax, 208(%rsp)
 4037      D0000000 
 4038 0a27 E8000000 		call	_ZNSt8ios_baseD2Ev@PLT
 4038      00
 4039 0a2c 4889DF   		movq	%rbx, %rdi
 4040 0a2f 4C89E0   		movq	%r12, %rax
 4041 0a32 31DB     		xorl	%ebx, %ebx
 4042 0a34 E90CFFFF 		jmp	.L317
 4042      FF
 4043              	.L340:
 4044 0a39 E8000000 		call	__cxa_begin_catch@PLT
 4044      00
 4045 0a3e 4889C5   		movq	%rax, %rbp
 4046              	.LEHB102:
 4047 0a41 E8000000 		call	_ZN8UnitTest11CurrentTest7ResultsEv@PLT
 4047      00
 4048 0a46 4C8B28   		movq	(%rax), %r13
 4049 0a49 488B4500 		movq	0(%rbp), %rax
 4050 0a4d 4889EF   		movq	%rbp, %rdi
 4051 0a50 FF5010   		call	*16(%rax)
 4052 0a53 4889EF   		movq	%rbp, %rdi
 4053 0a56 4989C4   		movq	%rax, %r12
 4054 0a59 E8000000 		call	_ZNK8UnitTest15AssertException10LineNumberEv@PLT
 4054      00
 4055 0a5e 4889EF   		movq	%rbp, %rdi
 4056 0a61 89C3     		movl	%eax, %ebx
 4057 0a63 E8000000 		call	_ZNK8UnitTest15AssertException8FilenameEv@PLT
 4057      00
 4058 0a68 4889C1   		movq	%rax, %rcx
 4059 0a6b 488B4424 		movq	56(%rsp), %rax
 4059      38
 4060 0a70 488D6C24 		leaq	64(%rsp), %rbp
 4060      40
 4061 0a75 4189D8   		movl	%ebx, %r8d
 4062 0a78 4889EF   		movq	%rbp, %rdi
 4063 0a7b 488B5008 		movq	8(%rax), %rdx
 4064 0a7f 488B7010 		movq	16(%rax), %rsi
 4065 0a83 E8000000 		call	_ZN8UnitTest11TestDetailsC1EPKcS2_S2_i@PLT
 4065      00
 4066 0a88 4C89E2   		movq	%r12, %rdx
 4067 0a8b 4889EE   		movq	%rbp, %rsi
 4068 0a8e 4C89EF   		movq	%r13, %rdi
 4069 0a91 E8000000 		call	_ZN8UnitTest11TestResults13OnTestFailureERKNS_11TestDetailsEPKc@PLT
 4069      00
 4070              	.LEHE102:
 4071              	.L378:
 4072 0a96 488B8424 		movq	520(%rsp), %rax
 4072      08020000 
 4073 0a9e 64482B04 		subq	%fs:40, %rax
 4073      25280000 
 4073      00
 4074 0aa7 7516     		jne	.L376
 4075 0aa9 4881C418 		addq	$536, %rsp
 4075      020000
 4076              		.cfi_remember_state
 4077              		.cfi_def_cfa_offset 56
 4078 0ab0 5B       		popq	%rbx
 4079              		.cfi_def_cfa_offset 48
 4080 0ab1 5D       		popq	%rbp
 4081              		.cfi_def_cfa_offset 40
 4082 0ab2 415C     		popq	%r12
 4083              		.cfi_def_cfa_offset 32
 4084 0ab4 415D     		popq	%r13
 4085              		.cfi_def_cfa_offset 24
 4086 0ab6 415E     		popq	%r14
 4087              		.cfi_def_cfa_offset 16
 4088 0ab8 415F     		popq	%r15
 4089              		.cfi_def_cfa_offset 8
 4090 0aba E9000000 		jmp	__cxa_end_catch@PLT
 4090      00
 4091              	.L376:
 4092              		.cfi_restore_state
 4093 0abf E8000000 		call	__stack_chk_fail@PLT
 4093      00
 4094              	.L380:
 4095 0ac4 E8000000 		call	__cxa_begin_catch@PLT
 4095      00
 4096 0ac9 4C89EF   		movq	%r13, %rdi
 4097 0acc 4889C5   		movq	%rax, %rbp
 4098              	.LEHB103:
 4099 0acf E8000000 		call	_ZN8UnitTest15MemoryOutStreamC1Ev
 4099      00
 4100              	.LEHE103:
 4101 0ad4 BA150000 		movl	$21, %edx
 4101      00
 4102 0ad9 488D3500 		leaq	.LC16(%rip), %rsi
 4102      000000
 4103 0ae0 4C89EF   		movq	%r13, %rdi
 4104              	.LEHB104:
 4105 0ae3 E8000000 		call	_ZSt16__ostream_insertIcSt11char_traitsIcEERSt13basic_ostreamIT_T0_ES6_PKS3_l@PLT
 4105      00
 4106 0ae8 488B4500 		movq	0(%rbp), %rax
 4107 0aec 4889EF   		movq	%rbp, %rdi
 4108 0aef FF5010   		call	*16(%rax)
 4109 0af2 4C89EF   		movq	%r13, %rdi
 4110 0af5 4889C6   		movq	%rax, %rsi
 4111 0af8 E8000000 		call	_ZStlsISt11char_traitsIcEERSt13basic_ostreamIcT_ES5_PKc@PLT
 4111      00
 4112 0afd E8000000 		call	_ZN8UnitTest11CurrentTest7ResultsEv@PLT
 4112      00
 4113 0b02 4C89EF   		movq	%r13, %rdi
 4114 0b05 488B28   		movq	(%rax), %rbp
 4115 0b08 E8000000 		call	_ZNK8UnitTest15MemoryOutStream7GetTextEv@PLT
 4115      00
 4116 0b0d 488B7424 		movq	32(%rsp), %rsi
 4116      20
 4117 0b12 4889C2   		movq	%rax, %rdx
 4118 0b15 4889EF   		movq	%rbp, %rdi
 4119 0b18 E8000000 		call	_ZN8UnitTest11TestResults13OnTestFailureERKNS_11TestDetailsEPKc@PLT
 4119      00
 4120              	.LEHE104:
 4121 0b1d 4C89EF   		movq	%r13, %rdi
 4122              	.LEHB105:
 4123 0b20 E8000000 		call	_ZN8UnitTest15MemoryOutStreamD1Ev
 4123      00
 4124              	.LEHE105:
 4125 0b25 E96CFFFF 		jmp	.L378
 4125      FF
 4126              	.L357:
 4127 0b2a F30F1EFA 		endbr64
 4128 0b2e 4C89EF   		movq	%r13, %rdi
 4129 0b31 4889C5   		movq	%rax, %rbp
 4130 0b34 E8000000 		call	_ZN8UnitTest15MemoryOutStreamD1Ev
 4130      00
 4131              	.L350:
 4132 0b39 E8000000 		call	__cxa_end_catch@PLT
 4132      00
 4133 0b3e 4889EF   		movq	%rbp, %rdi
 4134              	.LEHB106:
 4135 0b41 E8000000 		call	_Unwind_Resume@PLT
 4135      00
 4136              	.LEHE106:
 4137              	.L356:
 4138 0b46 F30F1EFA 		endbr64
 4139              	.L377:
 4140 0b4a 4889C5   		movq	%rax, %rbp
 4141 0b4d EBEA     		jmp	.L350
 4142              	.L381:
 4143              	.LEHB107:
 4144 0b4f E8000000 		call	_ZN8UnitTest11CurrentTest7ResultsEv@PLT
 4144      00
 4145 0b54 488D6C24 		leaq	64(%rsp), %rbp
 4145      40
 4146 0b59 488B7424 		movq	32(%rsp), %rsi
 4146      20
 4147 0b5e BA9F0000 		movl	$159, %edx
 4147      00
 4148 0b63 4C8B20   		movq	(%rax), %r12
 4149 0b66 4889EF   		movq	%rbp, %rdi
 4150 0b69 E8000000 		call	_ZN8UnitTest11TestDetailsC1ERKS0_i@PLT
 4150      00
 4151 0b6e 488D1500 		leaq	.LC19(%rip), %rdx
 4151      000000
 4152 0b75 4889EE   		movq	%rbp, %rsi
 4153 0b78 4C89E7   		movq	%r12, %rdi
 4154 0b7b E8000000 		call	_ZN8UnitTest11TestResults13OnTestFailureERKNS_11TestDetailsEPKc@PLT
 4154      00
 4155              	.LEHE107:
 4156 0b80 E912FEFF 		jmp	.L346
 4156      FF
 4157              	.L358:
 4158 0b85 F30F1EFA 		endbr64
 4159 0b89 4889C5   		movq	%rax, %rbp
 4160 0b8c E8000000 		call	__cxa_end_catch@PLT
 4160      00
 4161 0b91 4889EF   		movq	%rbp, %rdi
 4162              	.LEHB108:
 4163 0b94 E8000000 		call	_Unwind_Resume@PLT
 4163      00
 4164              	.LEHE108:
 4165              	.L355:
 4166 0b99 F30F1EFA 		endbr64
 4167 0b9d EBAB     		jmp	.L377
 4168              		.cfi_endproc
 4169              	.LFE1534:
 4170              		.section	.gcc_except_table
 4171              		.align 4
 4172              	.LLSDAC1534:
 4173 0324 FF       		.byte	0xff
 4174 0325 9B       		.byte	0x9b
 4175 0326 49       		.uleb128 .LLSDATTC1534-.LLSDATTDC1534
 4176              	.LLSDATTDC1534:
 4177 0327 01       		.byte	0x1
 4178 0328 32       		.uleb128 .LLSDACSEC1534-.LLSDACSBC1534
 4179              	.LLSDACSBC1534:
 4180 0329 34       		.uleb128 .LEHB100-.LCOLDB37
 4181 032a 31       		.uleb128 .LEHE100-.LEHB100
 4182 032b D304     		.uleb128 .L358-.LCOLDB37
 4183 032d 00       		.uleb128 0
 4184 032e 8D01     		.uleb128 .LEHB101-.LCOLDB37
 4185 0330 05       		.uleb128 .LEHE101-.LEHB101
 4186 0331 00       		.uleb128 0
 4187 0332 00       		.uleb128 0
 4188 0333 8F02     		.uleb128 .LEHB102-.LCOLDB37
 4189 0335 55       		.uleb128 .LEHE102-.LEHB102
 4190 0336 E704     		.uleb128 .L355-.LCOLDB37
 4191 0338 00       		.uleb128 0
 4192 0339 9D03     		.uleb128 .LEHB103-.LCOLDB37
 4193 033b 05       		.uleb128 .LEHE103-.LEHB103
 4194 033c 9404     		.uleb128 .L356-.LCOLDB37
 4195 033e 00       		.uleb128 0
 4196 033f B103     		.uleb128 .LEHB104-.LCOLDB37
 4197 0341 3A       		.uleb128 .LEHE104-.LEHB104
 4198 0342 F803     		.uleb128 .L357-.LCOLDB37
 4199 0344 00       		.uleb128 0
 4200 0345 EE03     		.uleb128 .LEHB105-.LCOLDB37
 4201 0347 05       		.uleb128 .LEHE105-.LEHB105
 4202 0348 9404     		.uleb128 .L356-.LCOLDB37
 4203 034a 00       		.uleb128 0
 4204 034b 8F04     		.uleb128 .LEHB106-.LCOLDB37
 4205 034d 05       		.uleb128 .LEHE106-.LEHB106
 4206 034e 00       		.uleb128 0
 4207 034f 00       		.uleb128 0
 4208 0350 9D04     		.uleb128 .LEHB107-.LCOLDB37
 4209 0352 31       		.uleb128 .LEHE107-.LEHB107
 4210 0353 D304     		.uleb128 .L358-.LCOLDB37
 4211 0355 00       		.uleb128 0
 4212 0356 E204     		.uleb128 .LEHB108-.LCOLDB37
 4213 0358 05       		.uleb128 .LEHE108-.LEHB108
 4214 0359 00       		.uleb128 0
 4215 035a 00       		.uleb128 0
 4216              	.LLSDACSEC1534:
 4217 035b 03       		.byte	0x3
 4218 035c 00       		.byte	0
 4219 035d 02       		.byte	0x2
 4220 035e 7D       		.byte	0x7d
 4221 035f 01       		.byte	0x1
 4222 0360 7D       		.byte	0x7d
 4223 0361 00       		.byte	0
 4224 0362 7D       		.byte	0x7d
 4225 0363 00       		.align 4
 4226 0364 00000000 		.long	0
 4227              	
 4228 0368 00000000 		.long	DW.ref._ZTISt9exception-.
 4229 036c 00000000 		.long	DW.ref._ZTIN8UnitTest15AssertExceptionE-.
 4230              	.LLSDATTC1534:
 4231              		.section	.text.unlikely
 4232              		.text
 4234              		.section	.text.unlikely
 4236              	.LCOLDE37:
 4237              		.text
 4238              	.LHOTE37:
 4239              		.section	.rodata.str1.1
 4240              	.LC38:
 4241 00c7 53756363 		.string	"SucceededTest"
 4241      65656465 
 4241      64546573 
 4241      7400
 4242              		.section	.rodata.str1.8
 4243 0253 00000000 		.align 8
 4243      00
 4244              	.LC39:
 4245 0258 3C3F786D 		.ascii	"<?xml versio"
 4245      6C207665 
 4245      7273696F 
 4246 0264 6E3D2231 		.string	"n=\"1.0\"?><unittest-results tests=\"2\" failedtests=\"1\" failures=\"1\" time=\"1.1\"><t
 4246      2E30223F 
 4246      3E3C756E 
 4246      69747465 
 4246      73742D72 
 4247              		.section	.text.unlikely
 4248              	.LCOLDB40:
 4249              		.text
 4250              	.LHOTB40:
 4251 1011 66662E0F 		.p2align 4
 4251      1F840000 
 4251      0000000F 
 4251      1F4000
 4253              	_ZN8UnitTest11ExecuteTestIN12_GLOBAL__N_151XmlTestReporterFixtureOneFailureAndOneSuccessHelperEEEvR
 4254              	.LFB1577:
 4255              		.cfi_startproc
 4256              		.cfi_personality 0x9b,DW.ref.__gxx_personality_v0
 4257              		.cfi_lsda 0x1b,.LLSDA1577
 4258 1020 4156     		pushq	%r14
 4259              		.cfi_def_cfa_offset 16
 4260              		.cfi_offset 14, -16
 4261 1022 4155     		pushq	%r13
 4262              		.cfi_def_cfa_offset 24
 4263              		.cfi_offset 13, -24
 4264 1024 4154     		pushq	%r12
 4265              		.cfi_def_cfa_offset 32
 4266              		.cfi_offset 12, -32
 4267 1026 55       		pushq	%rbp
 4268              		.cfi_def_cfa_offset 40
 4269              		.cfi_offset 6, -40
 4270 1027 53       		pushq	%rbx
 4271              		.cfi_def_cfa_offset 48
 4272              		.cfi_offset 3, -48
 4273 1028 4889F3   		movq	%rsi, %rbx
 4274 102b 4881ECF0 		subq	$1776, %rsp
 4274      060000
 4275              		.cfi_def_cfa_offset 1824
 4276 1032 48893C24 		movq	%rdi, (%rsp)
 4277 1036 48897424 		movq	%rsi, 8(%rsp)
 4277      08
 4278 103b 64488B04 		movq	%fs:40, %rax
 4278      25280000 
 4278      00
 4279 1044 48898424 		movq	%rax, 1768(%rsp)
 4279      E8060000 
 4280 104c 31C0     		xorl	%eax, %eax
 4281              	.LEHB109:
 4282 104e E8000000 		call	_ZN8UnitTest11CurrentTest7DetailsEv@PLT
 4282      00
 4283              	.LEHE109:
 4284 1053 488DBC24 		leaq	640(%rsp), %rdi
 4284      80020000 
 4285 105b 488918   		movq	%rbx, (%rax)
 4286              	.LEHB110:
 4287 105e E8000000 		call	_ZN8UnitTest16SignalTranslatorC1Ev@PLT
 4287      00
 4288              	.LEHE110:
 4289 1063 488B3D00 		movq	_ZN8UnitTest16SignalTranslator12s_jumpTargetE(%rip), %rdi
 4289      000000
 4290 106a BE010000 		movl	$1, %esi
 4290      00
 4291 106f E8000000 		call	__sigsetjmp@PLT
 4291      00
 4292 1074 F30F1EFA 		endbr64
 4293 1078 85C0     		testl	%eax, %eax
 4294 107a 0F850000 		jne	.L427
 4294      0000
 4295 1080 488D7C24 		leaq	64(%rsp), %rdi
 4295      40
 4296 1085 41B80100 		movl	$1, %r8d
 4296      0000
 4297 108b 488D0D00 		leaq	.LC27(%rip), %rcx
 4297      000000
 4298 1092 488D1500 		leaq	.LC28(%rip), %rdx
 4298      000000
 4299 1099 488D3500 		leaq	.LC29(%rip), %rsi
 4299      000000
 4300              	.LEHB111:
 4301 10a0 E8000000 		call	_ZN8UnitTest11TestDetailsC1EPKcS2_S2_i@PLT
 4301      00
 4302 10a5 488B1C24 		movq	(%rsp), %rbx
 4303 10a9 488D7424 		leaq	64(%rsp), %rsi
 4303      40
 4304 10ae 488DAB78 		leaq	376(%rbx), %rbp
 4304      010000
 4305 10b5 4889EF   		movq	%rbp, %rdi
 4306 10b8 E8000000 		call	_ZN8UnitTest20DeferredTestReporter15ReportTestStartERKNS_11TestDetailsE@PLT
 4306      00
 4307 10bd 488D7424 		leaq	64(%rsp), %rsi
 4307      40
 4308 10c2 488D1500 		leaq	.LC30(%rip), %rdx
 4308      000000
 4309 10c9 4889EF   		movq	%rbp, %rdi
 4310 10cc E8000000 		call	_ZN8UnitTest20DeferredTestReporter13ReportFailureERKNS_11TestDetailsEPKc@PLT
 4310      00
 4311 10d1 F30F1005 		movss	.LC32(%rip), %xmm0
 4311      00000000 
 4312 10d9 488D7424 		leaq	64(%rsp), %rsi
 4312      40
 4313 10de 4889EF   		movq	%rbp, %rdi
 4314 10e1 E8000000 		call	_ZN8UnitTest20DeferredTestReporter16ReportTestFinishERKNS_11TestDetailsEf@PLT
 4314      00
 4315 10e6 488D7C24 		leaq	96(%rsp), %rdi
 4315      60
 4316 10eb 4531C0   		xorl	%r8d, %r8d
 4317 10ee 488D0D00 		leaq	.LC9(%rip), %rcx
 4317      000000
 4318 10f5 488D1500 		leaq	.LC28(%rip), %rdx
 4318      000000
 4319 10fc 488D3500 		leaq	.LC38(%rip), %rsi
 4319      000000
 4320 1103 E8000000 		call	_ZN8UnitTest11TestDetailsC1EPKcS2_S2_i@PLT
 4320      00
 4321 1108 488D7424 		leaq	96(%rsp), %rsi
 4321      60
 4322 110d 4889EF   		movq	%rbp, %rdi
 4323 1110 E8000000 		call	_ZN8UnitTest20DeferredTestReporter15ReportTestStartERKNS_11TestDetailsE@PLT
 4323      00
 4324 1115 F30F1005 		movss	.LC11(%rip), %xmm0
 4324      00000000 
 4325 111d 488D7424 		leaq	96(%rsp), %rsi
 4325      60
 4326 1122 4889EF   		movq	%rbp, %rdi
 4327 1125 E8000000 		call	_ZN8UnitTest20DeferredTestReporter16ReportTestFinishERKNS_11TestDetailsEf@PLT
 4327      00
 4328 112a F30F1005 		movss	.LC33(%rip), %xmm0
 4328      00000000 
 4329 1132 B9010000 		movl	$1, %ecx
 4329      00
 4330 1137 BA010000 		movl	$1, %edx
 4330      00
 4331 113c 4889EF   		movq	%rbp, %rdi
 4332 113f BE020000 		movl	$2, %esi
 4332      00
 4333 1144 E8000000 		call	_ZN8UnitTest15XmlTestReporter13ReportSummaryEiiif@PLT
 4333      00
 4334              	.LEHE111:
 4335 1149 488D0500 		leaq	.LC39(%rip), %rax
 4335      000000
 4336 1150 48894424 		movq	%rax, 24(%rsp)
 4336      18
 4337              	.LEHB112:
 4338 1155 E8000000 		call	_ZN8UnitTest11CurrentTest7DetailsEv@PLT
 4338      00
 4339 115a 488B30   		movq	(%rax), %rsi
 4340 115d 488DBC24 		leaq	160(%rsp), %rdi
 4340      A0000000 
 4341 1165 BA9C0000 		movl	$156, %edx
 4341      00
 4342 116a E8000000 		call	_ZN8UnitTest11TestDetailsC1ERKS0_i@PLT
 4342      00
 4343              	.LEHE112:
 4344 116f 488D8424 		leaq	208(%rsp), %rax
 4344      D0000000 
 4345 1177 C68424D0 		movb	$0, 208(%rsp)
 4345      00000000 
 4346 117f 488DBC24 		leaq	192(%rsp), %rdi
 4346      C0000000 
 4347 1187 48898424 		movq	%rax, 192(%rsp)
 4347      C0000000 
 4348 118f 488B4330 		movq	48(%rbx), %rax
 4349 1193 48C78424 		movq	$0, 200(%rsp)
 4349      C8000000 
 4349      00000000 
 4350 119f 4885C0   		testq	%rax, %rax
 4351 11a2 0F84B800 		je	.L385
 4351      0000
 4352 11a8 4C8B4320 		movq	32(%rbx), %r8
 4353 11ac 4D85C0   		testq	%r8, %r8
 4354 11af 0F849B00 		je	.L424
 4354      0000
 4355 11b5 4C39C0   		cmpq	%r8, %rax
 4356 11b8 0F879200 		ja	.L424
 4356      0000
 4357              	.L386:
 4358 11be 488B0424 		movq	(%rsp), %rax
 4359 11c2 488DBC24 		leaq	192(%rsp), %rdi
 4359      C0000000 
 4360 11ca 31D2     		xorl	%edx, %edx
 4361 11cc 31F6     		xorl	%esi, %esi
 4362 11ce 488B4828 		movq	40(%rax), %rcx
 4363 11d2 4929C8   		subq	%rcx, %r8
 4364              	.LEHB113:
 4365 11d5 E8000000 		call	_ZNSt7__cxx1112basic_stringIcSt11char_traitsIcESaIcEE10_M_replaceEmmPKcm@PLT
 4365      00
 4366              	.LEHE113:
 4367              	.L389:
 4368              	.LEHB114:
 4369 11da E8000000 		call	_ZN8UnitTest11CurrentTest7ResultsEv@PLT
 4369      00
 4370 11df 488B38   		movq	(%rax), %rdi
 4371 11e2 488D8C24 		leaq	160(%rsp), %rcx
 4371      A0000000 
 4372 11ea 488D7424 		leaq	24(%rsp), %rsi
 4372      18
 4373 11ef 488D9424 		leaq	192(%rsp), %rdx
 4373      C0000000 
 4374 11f7 E8000000 		call	_ZN8UnitTest10CheckEqualIPKcNSt7__cxx1112basic_stringIcSt11char_traitsIcESaIcEEEEEvRNS_11Test
 4374      00
 4375              	.LEHE114:
 4376 11fc 488BBC24 		movq	192(%rsp), %rdi
 4376      C0000000 
 4377 1204 488D8424 		leaq	208(%rsp), %rax
 4377      D0000000 
 4378 120c 4839C7   		cmpq	%rax, %rdi
 4379 120f 7405     		je	.L395
 4380 1211 E8000000 		call	_ZdlPv@PLT
 4380      00
 4381              	.L395:
 4382 1216 488DBC24 		leaq	640(%rsp), %rdi
 4382      80020000 
 4383              	.LEHB115:
 4384 121e E8000000 		call	_ZN8UnitTest16SignalTranslatorD1Ev@PLT
 4384      00
 4385              	.LEHE115:
 4386              	.L382:
 4387 1223 488B8424 		movq	1768(%rsp), %rax
 4387      E8060000 
 4388 122b 64482B04 		subq	%fs:40, %rax
 4388      25280000 
 4388      00
 4389 1234 753C     		jne	.L431
 4390 1236 4881C4F0 		addq	$1776, %rsp
 4390      060000
 4391              		.cfi_remember_state
 4392              		.cfi_def_cfa_offset 48
 4393 123d 5B       		popq	%rbx
 4394              		.cfi_def_cfa_offset 40
 4395 123e 5D       		popq	%rbp
 4396              		.cfi_def_cfa_offset 32
 4397 123f 415C     		popq	%r12
 4398              		.cfi_def_cfa_offset 24
 4399 1241 415D     		popq	%r13
 4400              		.cfi_def_cfa_offset 16
 4401 1243 415E     		popq	%r14
 4402              		.cfi_def_cfa_offset 8
 4403 1245 C3       		ret
 4404 1246 662E0F1F 		.p2align 4,,10
 4404      84000000 
 4404      0000
 4405              		.p2align 3
 4406              	.L424:
 4407              		.cfi_restore_state
 4408 1250 4989C0   		movq	%rax, %r8
 4409 1253 E966FFFF 		jmp	.L386
 4409      FF
 4410 1258 0F1F8400 		.p2align 4,,10
 4410      00000000 
 4411              		.p2align 3
 4412              	.L385:
 4413 1260 488B3424 		movq	(%rsp), %rsi
 4414 1264 4883C650 		addq	$80, %rsi
 4415              	.LEHB116:
 4416 1268 E8000000 		call	_ZNSt7__cxx1112basic_stringIcSt11char_traitsIcESaIcEE9_M_assignERKS4_@PLT
 4416      00
 4417              	.LEHE116:
 4418 126d E968FFFF 		jmp	.L389
 4418      FF
 4419              	.L431:
 4420 1272 E8000000 		call	__stack_chk_fail@PLT
 4420      00
 4421              	.L421:
 4422 1277 F30F1EFA 		endbr64
 4423 127b 4889C7   		movq	%rax, %rdi
 4424 127e E9000000 		jmp	.L392
 4424      00
 4425              	.L425:
 4426 1283 F30F1EFA 		endbr64
 4427 1287 E9000000 		jmp	.L426
 4427      00
 4428              	.L414:
 4429 128c F30F1EFA 		endbr64
 4430 1290 4889C7   		movq	%rax, %rdi
 4431 1293 4889D0   		movq	%rdx, %rax
 4432 1296 E9000000 		jmp	.L403
 4432      00
 4433              	.L422:
 4434 129b F30F1EFA 		endbr64
 4435 129f 4889C3   		movq	%rax, %rbx
 4436 12a2 E9000000 		jmp	.L398
 4436      00
 4437              	.L423:
 4438 12a7 F30F1EFA 		endbr64
 4439 12ab 4889C3   		movq	%rax, %rbx
 4440 12ae E9000000 		jmp	.L390
 4440      00
 4441              		.section	.gcc_except_table
 4442              		.align 4
 4443              	.LLSDA1577:
 4444 0370 FF       		.byte	0xff
 4445 0371 9B       		.byte	0x9b
 4446 0372 45       		.uleb128 .LLSDATT1577-.LLSDATTD1577
 4447              	.LLSDATTD1577:
 4448 0373 01       		.byte	0x1
 4449 0374 2E       		.uleb128 .LLSDACSE1577-.LLSDACSB1577
 4450              	.LLSDACSB1577:
 4451 0375 2E       		.uleb128 .LEHB109-.LFB1577
 4452 0376 05       		.uleb128 .LEHE109-.LEHB109
 4453 0377 00       		.uleb128 0
 4454 0378 00       		.uleb128 0
 4455 0379 3E       		.uleb128 .LEHB110-.LFB1577
 4456 037a 05       		.uleb128 .LEHE110-.LEHB110
 4457 037b EC04     		.uleb128 .L414-.LFB1577
 4458 037d 05       		.uleb128 0x5
 4459 037e 8001     		.uleb128 .LEHB111-.LFB1577
 4460 0380 A901     		.uleb128 .LEHE111-.LEHB111
 4461 0382 E304     		.uleb128 .L425-.LFB1577
 4462 0384 07       		.uleb128 0x7
 4463 0385 B502     		.uleb128 .LEHB112-.LFB1577
 4464 0387 1A       		.uleb128 .LEHE112-.LEHB112
 4465 0388 D704     		.uleb128 .L421-.LFB1577
 4466 038a 01       		.uleb128 0x1
 4467 038b B503     		.uleb128 .LEHB113-.LFB1577
 4468 038d 05       		.uleb128 .LEHE113-.LEHB113
 4469 038e 8705     		.uleb128 .L423-.LFB1577
 4470 0390 01       		.uleb128 0x1
 4471 0391 BA03     		.uleb128 .LEHB114-.LFB1577
 4472 0393 22       		.uleb128 .LEHE114-.LEHB114
 4473 0394 FB04     		.uleb128 .L422-.LFB1577
 4474 0396 01       		.uleb128 0x1
 4475 0397 FE03     		.uleb128 .LEHB115-.LFB1577
 4476 0399 05       		.uleb128 .LEHE115-.LEHB115
 4477 039a EC04     		.uleb128 .L414-.LFB1577
 4478 039c 05       		.uleb128 0x5
 4479 039d C804     		.uleb128 .LEHB116-.LFB1577
 4480 039f 05       		.uleb128 .LEHE116-.LEHB116
 4481 03a0 8705     		.uleb128 .L423-.LFB1577
 4482 03a2 01       		.uleb128 0x1
 4483              	.LLSDACSE1577:
 4484 03a3 03       		.byte	0x3
 4485 03a4 00       		.byte	0
 4486 03a5 02       		.byte	0x2
 4487 03a6 7D       		.byte	0x7d
 4488 03a7 01       		.byte	0x1
 4489 03a8 7D       		.byte	0x7d
 4490 03a9 00       		.byte	0
 4491 03aa 7D       		.byte	0x7d
 4492 03ab 00       		.align 4
 4493 03ac 00000000 		.long	0
 4494              	
 4495 03b0 00000000 		.long	DW.ref._ZTISt9exception-.
 4496 03b4 00000000 		.long	DW.ref._ZTIN8UnitTest15AssertExceptionE-.
 4497              	.LLSDATT1577:
 4498              		.text
 4499              		.cfi_endproc
 4500              		.section	.text.unlikely
 4501              		.cfi_startproc
 4502              		.cfi_personality 0x9b,DW.ref.__gxx_personality_v0
 4503              		.cfi_lsda 0x1b,.LLSDAC1577
 4505              	_ZN8UnitTest11ExecuteTestIN12_GLOBAL__N_151XmlTestReporterFixtureOneFailureAndOneSuccessHelperEEEvR
 4506              	.LFSB1577:
 4507              	.L427:
 4508              		.cfi_def_cfa_offset 1824
 4509              		.cfi_offset 3, -48
 4510              		.cfi_offset 6, -40
 4511              		.cfi_offset 12, -32
 4512              		.cfi_offset 13, -24
 4513              		.cfi_offset 14, -16
 4514 0b9f BF080000 		movl	$8, %edi
 4514      00
 4515 0ba4 E8000000 		call	__cxa_allocate_exception@PLT
 4515      00
 4516 0ba9 31D2     		xorl	%edx, %edx
 4517 0bab 488D3500 		leaq	_ZTIPKc(%rip), %rsi
 4517      000000
 4518 0bb2 4889C7   		movq	%rax, %rdi
 4519 0bb5 488D0500 		leaq	.LC8(%rip), %rax
 4519      000000
 4520 0bbc 488907   		movq	%rax, (%rdi)
 4521              	.LEHB117:
 4522 0bbf E8000000 		call	__cxa_throw@PLT
 4522      00
 4523              	.LEHE117:
 4524              	.L415:
 4525 0bc4 F30F1EFA 		endbr64
 4526              	.L426:
 4527 0bc8 4889C5   		movq	%rax, %rbp
 4528 0bcb 4889D3   		movq	%rdx, %rbx
 4529 0bce EB74     		jmp	.L402
 4530              	.L390:
 4531 0bd0 488BBC24 		movq	192(%rsp), %rdi
 4531      C0000000 
 4532 0bd8 488D8424 		leaq	208(%rsp), %rax
 4532      D0000000 
 4533 0be0 4839C7   		cmpq	%rax, %rdi
 4534 0be3 7405     		je	.L393
 4535 0be5 E8000000 		call	_ZdlPv@PLT
 4535      00
 4536              	.L393:
 4537 0bea 4889DF   		movq	%rbx, %rdi
 4538              	.L392:
 4539 0bed E8000000 		call	__cxa_begin_catch@PLT
 4539      00
 4540              	.LEHB118:
 4541 0bf2 E8000000 		call	_ZN8UnitTest11CurrentTest7ResultsEv@PLT
 4541      00
 4542 0bf7 488B28   		movq	(%rax), %rbp
 4543 0bfa E8000000 		call	_ZN8UnitTest11CurrentTest7DetailsEv@PLT
 4543      00
 4544 0bff 488B30   		movq	(%rax), %rsi
 4545 0c02 488DBC24 		leaq	128(%rsp), %rdi
 4545      80000000 
 4546 0c0a BA9C0000 		movl	$156, %edx
 4546      00
 4547 0c0f E8000000 		call	_ZN8UnitTest11TestDetailsC1ERKS0_i@PLT
 4547      00
 4548 0c14 488DB424 		leaq	128(%rsp), %rsi
 4548      80000000 
 4549 0c1c 488D1500 		leaq	.LC35(%rip), %rdx
 4549      000000
 4550 0c23 4889EF   		movq	%rbp, %rdi
 4551 0c26 E8000000 		call	_ZN8UnitTest11TestResults13OnTestFailureERKNS_11TestDetailsEPKc@PLT
 4551      00
 4552              	.LEHE118:
 4553              	.LEHB119:
 4554 0c2b E8000000 		call	__cxa_end_catch@PLT
 4554      00
 4555              	.LEHE119:
 4556 0c30 E9000000 		jmp	.L395
 4556      00
 4557              	.L420:
 4558 0c35 F30F1EFA 		endbr64
 4559 0c39 4889C5   		movq	%rax, %rbp
 4560 0c3c 4889D3   		movq	%rdx, %rbx
 4561 0c3f E8000000 		call	__cxa_end_catch@PLT
 4561      00
 4562              	.L402:
 4563 0c44 488DBC24 		leaq	640(%rsp), %rdi
 4563      80020000 
 4564 0c4c E8000000 		call	_ZN8UnitTest16SignalTranslatorD1Ev@PLT
 4564      00
 4565 0c51 4889EF   		movq	%rbp, %rdi
 4566 0c54 4889D8   		movq	%rbx, %rax
 4567              	.L403:
 4568 0c57 4883F801 		cmpq	$1, %rax
 4569 0c5b 7454     		je	.L404
 4570 0c5d 4883F802 		cmpq	$2, %rax
 4571 0c61 0F84C400 		je	.L432
 4571      0000
 4572 0c67 E8000000 		call	__cxa_begin_catch@PLT
 4572      00
 4573              	.LEHB120:
 4574 0c6c E8000000 		call	_ZN8UnitTest11CurrentTest7ResultsEv@PLT
 4574      00
 4575 0c71 488B7424 		movq	8(%rsp), %rsi
 4575      08
 4576 0c76 488B38   		movq	(%rax), %rdi
 4577 0c79 488D1500 		leaq	.LC17(%rip), %rdx
 4577      000000
 4578 0c80 E8000000 		call	_ZN8UnitTest11TestResults13OnTestFailureERKNS_11TestDetailsEPKc@PLT
 4578      00
 4579              	.LEHE120:
 4580              	.LEHB121:
 4581 0c85 E8000000 		call	__cxa_end_catch@PLT
 4581      00
 4582              	.LEHE121:
 4583 0c8a E9000000 		jmp	.L382
 4583      00
 4584              	.L398:
 4585 0c8f 488BBC24 		movq	192(%rsp), %rdi
 4585      C0000000 
 4586 0c97 488D8424 		leaq	208(%rsp), %rax
 4586      D0000000 
 4587 0c9f 4839C7   		cmpq	%rax, %rdi
 4588 0ca2 7405     		je	.L400
 4589 0ca4 E8000000 		call	_ZdlPv@PLT
 4589      00
 4590              	.L400:
 4591 0ca9 4889DF   		movq	%rbx, %rdi
 4592 0cac E93CFFFF 		jmp	.L392
 4592      FF
 4593              	.L404:
 4594 0cb1 E8000000 		call	__cxa_begin_catch@PLT
 4594      00
 4595 0cb6 4889C5   		movq	%rax, %rbp
 4596              	.LEHB122:
 4597 0cb9 E8000000 		call	_ZN8UnitTest11CurrentTest7ResultsEv@PLT
 4597      00
 4598 0cbe 4C8B28   		movq	(%rax), %r13
 4599 0cc1 488B4500 		movq	0(%rbp), %rax
 4600 0cc5 4889EF   		movq	%rbp, %rdi
 4601 0cc8 FF5010   		call	*16(%rax)
 4602 0ccb 4889EF   		movq	%rbp, %rdi
 4603 0cce 4989C6   		movq	%rax, %r14
 4604 0cd1 E8000000 		call	_ZNK8UnitTest15AssertException10LineNumberEv@PLT
 4604      00
 4605 0cd6 4889EF   		movq	%rbp, %rdi
 4606 0cd9 4189C4   		movl	%eax, %r12d
 4607 0cdc E8000000 		call	_ZNK8UnitTest15AssertException8FilenameEv@PLT
 4607      00
 4608 0ce1 4889C1   		movq	%rax, %rcx
 4609 0ce4 488B4424 		movq	8(%rsp), %rax
 4609      08
 4610 0ce9 488D7C24 		leaq	32(%rsp), %rdi
 4610      20
 4611 0cee 4589E0   		movl	%r12d, %r8d
 4612 0cf1 488B7008 		movq	8(%rax), %rsi
 4613 0cf5 488B10   		movq	(%rax), %rdx
 4614 0cf8 E8000000 		call	_ZN8UnitTest11TestDetailsC1EPKcS2_S2_i@PLT
 4614      00
 4615 0cfd 488D7424 		leaq	32(%rsp), %rsi
 4615      20
 4616 0d02 4C89F2   		movq	%r14, %rdx
 4617 0d05 4C89EF   		movq	%r13, %rdi
 4618 0d08 E8000000 		call	_ZN8UnitTest11TestResults13OnTestFailureERKNS_11TestDetailsEPKc@PLT
 4618      00
 4619              	.LEHE122:
 4620 0d0d E8000000 		call	__cxa_end_catch@PLT
 4620      00
 4621 0d12 E9000000 		jmp	.L382
 4621      00
 4622              	.L416:
 4623 0d17 F30F1EFA 		endbr64
 4624 0d1b 4889C5   		movq	%rax, %rbp
 4625 0d1e E8000000 		call	__cxa_end_catch@PLT
 4625      00
 4626 0d23 4889EF   		movq	%rbp, %rdi
 4627              	.LEHB123:
 4628 0d26 E8000000 		call	_Unwind_Resume@PLT
 4628      00
 4629              	.LEHE123:
 4630              	.L432:
 4631 0d2b E8000000 		call	__cxa_begin_catch@PLT
 4631      00
 4632 0d30 488DBC24 		leaq	224(%rsp), %rdi
 4632      E0000000 
 4633 0d38 4889C5   		movq	%rax, %rbp
 4634              	.LEHB124:
 4635 0d3b E8000000 		call	_ZN8UnitTest15MemoryOutStreamC1Ev
 4635      00
 4636              	.LEHE124:
 4637 0d40 488DBC24 		leaq	224(%rsp), %rdi
 4637      E0000000 
 4638 0d48 BA150000 		movl	$21, %edx
 4638      00
 4639 0d4d 488D3500 		leaq	.LC16(%rip), %rsi
 4639      000000
 4640              	.LEHB125:
 4641 0d54 E8000000 		call	_ZSt16__ostream_insertIcSt11char_traitsIcEERSt13basic_ostreamIT_T0_ES6_PKS3_l@PLT
 4641      00
 4642 0d59 488B4500 		movq	0(%rbp), %rax
 4643 0d5d 4889EF   		movq	%rbp, %rdi
 4644 0d60 FF5010   		call	*16(%rax)
 4645 0d63 488DBC24 		leaq	224(%rsp), %rdi
 4645      E0000000 
 4646 0d6b 4889C6   		movq	%rax, %rsi
 4647 0d6e E8000000 		call	_ZStlsISt11char_traitsIcEERSt13basic_ostreamIcT_ES5_PKc@PLT
 4647      00
 4648 0d73 E8000000 		call	_ZN8UnitTest11CurrentTest7ResultsEv@PLT
 4648      00
 4649 0d78 488DBC24 		leaq	224(%rsp), %rdi
 4649      E0000000 
 4650 0d80 488B28   		movq	(%rax), %rbp
 4651 0d83 E8000000 		call	_ZNK8UnitTest15MemoryOutStream7GetTextEv@PLT
 4651      00
 4652 0d88 488B7424 		movq	8(%rsp), %rsi
 4652      08
 4653 0d8d 4889C2   		movq	%rax, %rdx
 4654 0d90 4889EF   		movq	%rbp, %rdi
 4655 0d93 E8000000 		call	_ZN8UnitTest11TestResults13OnTestFailureERKNS_11TestDetailsEPKc@PLT
 4655      00
 4656              	.LEHE125:
 4657 0d98 488DBC24 		leaq	224(%rsp), %rdi
 4657      E0000000 
 4658              	.LEHB126:
 4659 0da0 E8000000 		call	_ZN8UnitTest15MemoryOutStreamD1Ev
 4659      00
 4660              	.LEHE126:
 4661 0da5 E8000000 		call	__cxa_end_catch@PLT
 4661      00
 4662 0daa E9000000 		jmp	.L382
 4662      00
 4663              	.L418:
 4664 0daf F30F1EFA 		endbr64
 4665 0db3 488DBC24 		leaq	224(%rsp), %rdi
 4665      E0000000 
 4666 0dbb 4889C5   		movq	%rax, %rbp
 4667 0dbe E8000000 		call	_ZN8UnitTest15MemoryOutStreamD1Ev
 4667      00
 4668              	.L411:
 4669 0dc3 E8000000 		call	__cxa_end_catch@PLT
 4669      00
 4670 0dc8 4889EF   		movq	%rbp, %rdi
 4671              	.LEHB127:
 4672 0dcb E8000000 		call	_Unwind_Resume@PLT
 4672      00
 4673              	.LEHE127:
 4674              	.L417:
 4675 0dd0 F30F1EFA 		endbr64
 4676 0dd4 4889C5   		movq	%rax, %rbp
 4677 0dd7 EBEA     		jmp	.L411
 4678              	.L419:
 4679 0dd9 F30F1EFA 		endbr64
 4680 0ddd 4889C5   		movq	%rax, %rbp
 4681 0de0 E8000000 		call	__cxa_end_catch@PLT
 4681      00
 4682 0de5 4889EF   		movq	%rbp, %rdi
 4683              	.LEHB128:
 4684 0de8 E8000000 		call	_Unwind_Resume@PLT
 4684      00
 4685              	.LEHE128:
 4686              		.cfi_endproc
 4687              	.LFE1577:
 4688              		.section	.gcc_except_table
 4689              		.align 4
 4690              	.LLSDAC1577:
 4691 03b8 FF       		.byte	0xff
 4692 03b9 9B       		.byte	0x9b
 4693 03ba 59       		.uleb128 .LLSDATTC1577-.LLSDATTDC1577
 4694              	.LLSDATTDC1577:
 4695 03bb 01       		.byte	0x1
 4696 03bc 40       		.uleb128 .LLSDACSEC1577-.LLSDACSBC1577
 4697              	.LLSDACSBC1577:
 4698 03bd 20       		.uleb128 .LEHB117-.LCOLDB40
 4699 03be 05       		.uleb128 .LEHE117-.LEHB117
 4700 03bf 25       		.uleb128 .L415-.LCOLDB40
 4701 03c0 07       		.uleb128 0x7
 4702 03c1 53       		.uleb128 .LEHB118-.LCOLDB40
 4703 03c2 39       		.uleb128 .LEHE118-.LEHB118
 4704 03c3 9601     		.uleb128 .L420-.LCOLDB40
 4705 03c5 07       		.uleb128 0x7
 4706 03c6 8C01     		.uleb128 .LEHB119-.LCOLDB40
 4707 03c8 05       		.uleb128 .LEHE119-.LEHB119
 4708 03c9 25       		.uleb128 .L415-.LCOLDB40
 4709 03ca 07       		.uleb128 0x7
 4710 03cb CD01     		.uleb128 .LEHB120-.LCOLDB40
 4711 03cd 19       		.uleb128 .LEHE120-.LEHB120
 4712 03ce BA04     		.uleb128 .L419-.LCOLDB40
 4713 03d0 00       		.uleb128 0
 4714 03d1 E601     		.uleb128 .LEHB121-.LCOLDB40
 4715 03d3 05       		.uleb128 .LEHE121-.LEHB121
 4716 03d4 00       		.uleb128 0
 4717 03d5 00       		.uleb128 0
 4718 03d6 9A02     		.uleb128 .LEHB122-.LCOLDB40
 4719 03d8 54       		.uleb128 .LEHE122-.LEHB122
 4720 03d9 F802     		.uleb128 .L416-.LCOLDB40
 4721 03db 00       		.uleb128 0
 4722 03dc 8703     		.uleb128 .LEHB123-.LCOLDB40
 4723 03de 05       		.uleb128 .LEHE123-.LEHB123
 4724 03df 00       		.uleb128 0
 4725 03e0 00       		.uleb128 0
 4726 03e1 9C03     		.uleb128 .LEHB124-.LCOLDB40
 4727 03e3 05       		.uleb128 .LEHE124-.LEHB124
 4728 03e4 B104     		.uleb128 .L417-.LCOLDB40
 4729 03e6 00       		.uleb128 0
 4730 03e7 B503     		.uleb128 .LEHB125-.LCOLDB40
 4731 03e9 44       		.uleb128 .LEHE125-.LEHB125
 4732 03ea 9004     		.uleb128 .L418-.LCOLDB40
 4733 03ec 00       		.uleb128 0
 4734 03ed 8104     		.uleb128 .LEHB126-.LCOLDB40
 4735 03ef 05       		.uleb128 .LEHE126-.LEHB126
 4736 03f0 B104     		.uleb128 .L417-.LCOLDB40
 4737 03f2 00       		.uleb128 0
 4738 03f3 AC04     		.uleb128 .LEHB127-.LCOLDB40
 4739 03f5 05       		.uleb128 .LEHE127-.LEHB127
 4740 03f6 00       		.uleb128 0
 4741 03f7 00       		.uleb128 0
 4742 03f8 C904     		.uleb128 .LEHB128-.LCOLDB40
 4743 03fa 05       		.uleb128 .LEHE128-.LEHB128
 4744 03fb 00       		.uleb128 0
 4745 03fc 00       		.uleb128 0
 4746              	.LLSDACSEC1577:
 4747 03fd 03       		.byte	0x3
 4748 03fe 00       		.byte	0
 4749 03ff 02       		.byte	0x2
 4750 0400 7D       		.byte	0x7d
 4751 0401 01       		.byte	0x1
 4752 0402 7D       		.byte	0x7d
 4753 0403 00       		.byte	0
 4754 0404 7D       		.byte	0x7d
 4755 0405 000000   		.align 4
 4756 0408 00000000 		.long	0
 4757              	
 4758 040c 00000000 		.long	DW.ref._ZTISt9exception-.
 4759 0410 00000000 		.long	DW.ref._ZTIN8UnitTest15AssertExceptionE-.
 4760              	.LLSDATTC1577:
 4761              		.section	.text.unlikely
 4762              		.text
 4764              		.section	.text.unlikely
 4766              	.LCOLDE40:
 4767              		.text
 4768              	.LHOTE40:
 4769              		.section	.text.unlikely
 4770 0ded 90       		.align 2
 4771              	.LCOLDB41:
 4772              		.text
 4773              	.LHOTB41:
 4774 12b3 90       		.align 2
 4775 12b4 66662E0F 		.p2align 4
 4775      1F840000 
 4775      00000090 
 4777              	_ZNK12_GLOBAL__N_149TestXmlTestReporterFixtureOneFailureAndOneSuccess7RunImplEv:
 4778              	.LFB1523:
 4779              		.cfi_startproc
 4780              		.cfi_personality 0x9b,DW.ref.__gxx_personality_v0
 4781              		.cfi_lsda 0x1b,.LLSDA1523
 4782 12c0 F30F1EFA 		endbr64
 4783 12c4 4157     		pushq	%r15
 4784              		.cfi_def_cfa_offset 16
 4785              		.cfi_offset 15, -16
 4786 12c6 4156     		pushq	%r14
 4787              		.cfi_def_cfa_offset 24
 4788              		.cfi_offset 14, -24
 4789 12c8 4155     		pushq	%r13
 4790              		.cfi_def_cfa_offset 32
 4791              		.cfi_offset 13, -32
 4792 12ca 4154     		pushq	%r12
 4793              		.cfi_def_cfa_offset 40
 4794              		.cfi_offset 12, -40
 4795 12cc 55       		pushq	%rbp
 4796              		.cfi_def_cfa_offset 48
 4797              		.cfi_offset 6, -48
 4798 12cd 53       		pushq	%rbx
 4799              		.cfi_def_cfa_offset 56
 4800              		.cfi_offset 3, -56
 4801 12ce 488D1D00 		leaq	16+_ZTVNSt7__cxx1115basic_stringbufIcSt11char_traitsIcESaIcEEE(%rip), %rbx
 4801      000000
 4802 12d5 66480F6E 		movq	%rbx, %xmm3
 4802      DB
 4803 12da 4881EC18 		subq	$536, %rsp
 4803      020000
 4804              		.cfi_def_cfa_offset 592
 4805 12e1 48897C24 		movq	%rdi, 56(%rsp)
 4805      38
 4806 12e6 4C8DB424 		leaq	208(%rsp), %r14
 4806      D0000000 
 4807 12ee 4C8D6C24 		leaq	96(%rsp), %r13
 4807      60
 4808 12f3 64488B04 		movq	%fs:40, %rax
 4808      25280000 
 4808      00
 4809 12fc 48898424 		movq	%rax, 520(%rsp)
 4809      08020000 
 4810 1304 488D0500 		leaq	24+_ZTVNSt7__cxx1119basic_ostringstreamIcSt11char_traitsIcESaIcEEE(%rip), %rax
 4810      000000
 4811 130b 66480F6E 		movq	%rax, %xmm1
 4811      C8
 4812 1310 66480F6E 		movq	%rax, %xmm2
 4812      D0
 4813 1315 488D4708 		leaq	8(%rdi), %rax
 4814 1319 4C89F7   		movq	%r14, %rdi
 4815 131c 660F6CCB 		punpcklqdq	%xmm3, %xmm1
 4816 1320 0F161500 		movhps	.LC21(%rip), %xmm2
 4816      000000
 4817 1327 48894424 		movq	%rax, 32(%rsp)
 4817      20
 4818 132c 0F294C24 		movaps	%xmm1, 16(%rsp)
 4818      10
 4819 1331 0F291424 		movaps	%xmm2, (%rsp)
 4820 1335 E8000000 		call	_ZNSt8ios_baseC2Ev@PLT
 4820      00
 4821 133a 488D0500 		leaq	16+_ZTVSt9basic_iosIcSt11char_traitsIcEE(%rip), %rax
 4821      000000
 4822 1341 660FEFC0 		pxor	%xmm0, %xmm0
 4823 1345 31F6     		xorl	%esi, %esi
 4824 1347 48898424 		movq	%rax, 208(%rsp)
 4824      D0000000 
 4825 134f 31C0     		xorl	%eax, %eax
 4826 1351 66898424 		movw	%ax, 432(%rsp)
 4826      B0010000 
 4827 1359 488B0500 		movq	8+_ZTTNSt7__cxx1119basic_ostringstreamIcSt11char_traitsIcESaIcEEE(%rip), %rax
 4827      000000
 4828 1360 0F118424 		movups	%xmm0, 440(%rsp)
 4828      B8010000 
 4829 1368 0F118424 		movups	%xmm0, 456(%rsp)
 4829      C8010000 
 4830 1370 488B78E8 		movq	-24(%rax), %rdi
 4831 1374 48894424 		movq	%rax, 96(%rsp)
 4831      60
 4832 1379 488B0500 		movq	16+_ZTTNSt7__cxx1119basic_ostringstreamIcSt11char_traitsIcESaIcEEE(%rip), %rax
 4832      000000
 4833 1380 48C78424 		movq	$0, 424(%rsp)
 4833      A8010000 
 4833      00000000 
 4834 138c 4C01EF   		addq	%r13, %rdi
 4835 138f 488907   		movq	%rax, (%rdi)
 4836              	.LEHB129:
 4837 1392 E8000000 		call	_ZNSt9basic_iosIcSt11char_traitsIcEE4initEPSt15basic_streambufIcS1_E@PLT
 4837      00
 4838              	.LEHE129:
 4839 1397 488D0500 		leaq	64+_ZTVNSt7__cxx1119basic_ostringstreamIcSt11char_traitsIcESaIcEEE(%rip), %rax
 4839      000000
 4840 139e 660F6F14 		movdqa	(%rsp), %xmm2
 4840      24
 4841 13a3 660FEFC0 		pxor	%xmm0, %xmm0
 4842 13a7 488D6C24 		leaq	104(%rsp), %rbp
 4842      68
 4843 13ac 48898424 		movq	%rax, 208(%rsp)
 4843      D0000000 
 4844 13b4 488D8424 		leaq	160(%rsp), %rax
 4844      A0000000 
 4845 13bc 4889C7   		movq	%rax, %rdi
 4846 13bf 48890424 		movq	%rax, (%rsp)
 4847 13c3 0F295424 		movaps	%xmm2, 96(%rsp)
 4847      60
 4848 13c8 0F294424 		movaps	%xmm0, 112(%rsp)
 4848      70
 4849 13cd 0F298424 		movaps	%xmm0, 128(%rsp)
 4849      80000000 
 4850 13d5 0F298424 		movaps	%xmm0, 144(%rsp)
 4850      90000000 
 4851 13dd E8000000 		call	_ZNSt6localeC1Ev@PLT
 4851      00
 4852 13e2 4889EE   		movq	%rbp, %rsi
 4853 13e5 4C89F7   		movq	%r14, %rdi
 4854 13e8 48895C24 		movq	%rbx, 104(%rsp)
 4854      68
 4855 13ed 488D8424 		leaq	192(%rsp), %rax
 4855      C0000000 
 4856 13f5 C68424C0 		movb	$0, 192(%rsp)
 4856      00000000 
 4857 13fd C78424A8 		movl	$16, 168(%rsp)
 4857      00000010 
 4857      000000
 4858 1408 48894424 		movq	%rax, 40(%rsp)
 4858      28
 4859 140d 48898424 		movq	%rax, 176(%rsp)
 4859      B0000000 
 4860 1415 48C78424 		movq	$0, 184(%rsp)
 4860      B8000000 
 4860      00000000 
 4861              	.LEHB130:
 4862 1421 E8000000 		call	_ZNSt9basic_iosIcSt11char_traitsIcEE4initEPSt15basic_streambufIcS1_E@PLT
 4862      00
 4863              	.LEHE130:
 4864 1426 488D8424 		leaq	472(%rsp), %rax
 4864      D8010000 
 4865 142e 4C89EE   		movq	%r13, %rsi
 4866 1431 4889C7   		movq	%rax, %rdi
 4867 1434 48894424 		movq	%rax, 48(%rsp)
 4867      30
 4868              	.LEHB131:
 4869 1439 E8000000 		call	_ZN8UnitTest15XmlTestReporterC1ERSo@PLT
 4869      00
 4870              	.LEHE131:
 4871 143e 488B4424 		movq	32(%rsp), %rax
 4871      20
 4872 1443 4C89EF   		movq	%r13, %rdi
 4873 1446 4889C6   		movq	%rax, %rsi
 4874 1449 48898424 		movq	%rax, 512(%rsp)
 4874      00020000 
 4875              	.LEHB132:
 4876 1451 E8CAFBFF 		call	_ZN8UnitTest11ExecuteTestIN12_GLOBAL__N_151XmlTestReporterFixtureOneFailureAndOneSuccessHelpe
 4876      FF
 4877              	.LEHE132:
 4878 1456 4C8BA424 		movq	488(%rsp), %r12
 4878      E8010000 
 4879 145e 488BAC24 		movq	480(%rsp), %rbp
 4879      E0010000 
 4880 1466 488D0500 		leaq	16+_ZTVN8UnitTest20DeferredTestReporterE(%rip), %rax
 4880      000000
 4881 146d 48898424 		movq	%rax, 472(%rsp)
 4881      D8010000 
 4882 1475 4939EC   		cmpq	%rbp, %r12
 4883 1478 0F849100 		je	.L440
 4883      0000
 4884 147e 6690     		.p2align 4,,10
 4885              		.p2align 3
 4886              	.L452:
 4887 1480 488B5D68 		movq	104(%rbp), %rbx
 4888 1484 4C8B7D60 		movq	96(%rbp), %r15
 4889 1488 4C39FB   		cmpq	%r15, %rbx
 4890 148b 7426     		je	.L441
 4891 148d 0F1F00   		.p2align 4,,10
 4892              		.p2align 3
 4893              	.L445:
 4894 1490 498B7F08 		movq	8(%r15), %rdi
 4895 1494 498D4718 		leaq	24(%r15), %rax
 4896 1498 4839C7   		cmpq	%rax, %rdi
 4897 149b 0F842701 		je	.L442
 4897      0000
 4898 14a1 E8000000 		call	_ZdlPv@PLT
 4898      00
 4899 14a6 4983C728 		addq	$40, %r15
 4900 14aa 4939DF   		cmpq	%rbx, %r15
 4901 14ad 75E1     		jne	.L445
 4902              	.L444:
 4903 14af 4C8B7D60 		movq	96(%rbp), %r15
 4904              	.L441:
 4905 14b3 4D85FF   		testq	%r15, %r15
 4906 14b6 7408     		je	.L446
 4907 14b8 4C89FF   		movq	%r15, %rdi
 4908 14bb E8000000 		call	_ZdlPv@PLT
 4908      00
 4909              	.L446:
 4910 14c0 488B7D40 		movq	64(%rbp), %rdi
 4911 14c4 488D4550 		leaq	80(%rbp), %rax
 4912 14c8 4839C7   		cmpq	%rax, %rdi
 4913 14cb 7405     		je	.L447
 4914 14cd E8000000 		call	_ZdlPv@PLT
 4914      00
 4915              	.L447:
 4916 14d2 488B7D20 		movq	32(%rbp), %rdi
 4917 14d6 488D4530 		leaq	48(%rbp), %rax
 4918 14da 4839C7   		cmpq	%rax, %rdi
 4919 14dd 7405     		je	.L448
 4920 14df E8000000 		call	_ZdlPv@PLT
 4920      00
 4921              	.L448:
 4922 14e4 488B7D00 		movq	0(%rbp), %rdi
 4923 14e8 488D4510 		leaq	16(%rbp), %rax
 4924 14ec 4839C7   		cmpq	%rax, %rdi
 4925 14ef 0F84EB00 		je	.L449
 4925      0000
 4926 14f5 E8000000 		call	_ZdlPv@PLT
 4926      00
 4927 14fa 4883ED80 		subq	$-128, %rbp
 4928 14fe 4939EC   		cmpq	%rbp, %r12
 4929 1501 0F8579FF 		jne	.L452
 4929      FFFF
 4930              	.L451:
 4931 1507 488BAC24 		movq	480(%rsp), %rbp
 4931      E0010000 
 4932              	.L440:
 4933 150f 4885ED   		testq	%rbp, %rbp
 4934 1512 7408     		je	.L453
 4935 1514 4889EF   		movq	%rbp, %rdi
 4936 1517 E8000000 		call	_ZdlPv@PLT
 4936      00
 4937              	.L453:
 4938 151c 488B7C24 		movq	48(%rsp), %rdi
 4938      30
 4939              	.LEHB133:
 4940 1521 E8000000 		call	_ZN8UnitTest12TestReporterD2Ev@PLT
 4940      00
 4941              	.LEHE133:
 4942 1526 660F6F64 		movdqa	16(%rsp), %xmm4
 4942      2410
 4943 152c 488D0500 		leaq	64+_ZTVNSt7__cxx1119basic_ostringstreamIcSt11char_traitsIcESaIcEEE(%rip), %rax
 4943      000000
 4944 1533 488BBC24 		movq	176(%rsp), %rdi
 4944      B0000000 
 4945 153b 48898424 		movq	%rax, 208(%rsp)
 4945      D0000000 
 4946 1543 0F296424 		movaps	%xmm4, 96(%rsp)
 4946      60
 4947 1548 483B7C24 		cmpq	40(%rsp), %rdi
 4947      28
 4948 154d 7405     		je	.L454
 4949 154f E8000000 		call	_ZdlPv@PLT
 4949      00
 4950              	.L454:
 4951 1554 488B3C24 		movq	(%rsp), %rdi
 4952 1558 488D0500 		leaq	16+_ZTVSt15basic_streambufIcSt11char_traitsIcEE(%rip), %rax
 4952      000000
 4953 155f 48894424 		movq	%rax, 104(%rsp)
 4953      68
 4954 1564 E8000000 		call	_ZNSt6localeD1Ev@PLT
 4954      00
 4955 1569 488B0500 		movq	8+_ZTTNSt7__cxx1119basic_ostringstreamIcSt11char_traitsIcESaIcEEE(%rip), %rax
 4955      000000
 4956 1570 488B0D00 		movq	16+_ZTTNSt7__cxx1119basic_ostringstreamIcSt11char_traitsIcESaIcEEE(%rip), %rcx
 4956      000000
 4957 1577 4C89F7   		movq	%r14, %rdi
 4958 157a 48894424 		movq	%rax, 96(%rsp)
 4958      60
 4959 157f 488B40E8 		movq	-24(%rax), %rax
 4960 1583 48894C04 		movq	%rcx, 96(%rsp,%rax)
 4960      60
 4961 1588 488D0500 		leaq	16+_ZTVSt9basic_iosIcSt11char_traitsIcEE(%rip), %rax
 4961      000000
 4962 158f 48898424 		movq	%rax, 208(%rsp)
 4962      D0000000 
 4963              	.LEHB134:
 4964 1597 E8000000 		call	_ZNSt8ios_baseD2Ev@PLT
 4964      00
 4965              	.LEHE134:
 4966 159c 488B8424 		movq	520(%rsp), %rax
 4966      08020000 
 4967 15a4 64482B04 		subq	%fs:40, %rax
 4967      25280000 
 4967      00
 4968 15ad 7543     		jne	.L499
 4969 15af 4881C418 		addq	$536, %rsp
 4969      020000
 4970              		.cfi_remember_state
 4971              		.cfi_def_cfa_offset 56
 4972 15b6 5B       		popq	%rbx
 4973              		.cfi_def_cfa_offset 48
 4974 15b7 5D       		popq	%rbp
 4975              		.cfi_def_cfa_offset 40
 4976 15b8 415C     		popq	%r12
 4977              		.cfi_def_cfa_offset 32
 4978 15ba 415D     		popq	%r13
 4979              		.cfi_def_cfa_offset 24
 4980 15bc 415E     		popq	%r14
 4981              		.cfi_def_cfa_offset 16
 4982 15be 415F     		popq	%r15
 4983              		.cfi_def_cfa_offset 8
 4984 15c0 C3       		ret
 4985              		.p2align 4,,10
 4986 15c1 0F1F8000 		.p2align 3
 4986      000000
 4987              	.L442:
 4988              		.cfi_restore_state
 4989 15c8 4983C728 		addq	$40, %r15
 4990 15cc 4C39FB   		cmpq	%r15, %rbx
 4991 15cf 0F85BBFE 		jne	.L445
 4991      FFFF
 4992 15d5 E9D5FEFF 		jmp	.L444
 4992      FF
 4993 15da 660F1F44 		.p2align 4,,10
 4993      0000
 4994              		.p2align 3
 4995              	.L449:
 4996 15e0 4883ED80 		subq	$-128, %rbp
 4997 15e4 4939EC   		cmpq	%rbp, %r12
 4998 15e7 0F8593FE 		jne	.L452
 4998      FFFF
 4999 15ed E915FFFF 		jmp	.L451
 4999      FF
 5000              	.L499:
 5001 15f2 E8000000 		call	__stack_chk_fail@PLT
 5001      00
 5002              	.L473:
 5003 15f7 F30F1EFA 		endbr64
 5004 15fb 4889C7   		movq	%rax, %rdi
 5005 15fe 4889D0   		movq	%rdx, %rax
 5006 1601 E9000000 		jmp	.L494
 5006      00
 5007              	.L482:
 5008 1606 F30F1EFA 		endbr64
 5009 160a 4889C3   		movq	%rax, %rbx
 5010 160d 4889D5   		movq	%rdx, %rbp
 5011 1610 E9000000 		jmp	.L458
 5011      00
 5012              	.L474:
 5013 1615 F30F1EFA 		endbr64
 5014 1619 4889C3   		movq	%rax, %rbx
 5015 161c 4889D5   		movq	%rdx, %rbp
 5016 161f E9000000 		jmp	.L459
 5016      00
 5017              	.L479:
 5018 1624 F30F1EFA 		endbr64
 5019 1628 4889C3   		movq	%rax, %rbx
 5020 162b 4889D5   		movq	%rdx, %rbp
 5021 162e E9000000 		jmp	.L439
 5021      00
 5022              	.L481:
 5023 1633 F30F1EFA 		endbr64
 5024 1637 4889C3   		movq	%rax, %rbx
 5025 163a 4989D4   		movq	%rdx, %r12
 5026 163d E9000000 		jmp	.L435
 5026      00
 5027              	.L480:
 5028 1642 F30F1EFA 		endbr64
 5029 1646 4889C3   		movq	%rax, %rbx
 5030 1649 4989D4   		movq	%rdx, %r12
 5031 164c E9000000 		jmp	.L436
 5031      00
 5032              		.section	.gcc_except_table
 5033              		.align 4
 5034              	.LLSDA1523:
 5035 0414 FF       		.byte	0xff
 5036 0415 9B       		.byte	0x9b
 5037 0416 3D       		.uleb128 .LLSDATT1523-.LLSDATTD1523
 5038              	.LLSDATTD1523:
 5039 0417 01       		.byte	0x1
 5040 0418 24       		.uleb128 .LLSDACSE1523-.LLSDACSB1523
 5041              	.LLSDACSB1523:
 5042 0419 D201     		.uleb128 .LEHB129-.LFB1523
 5043 041b 05       		.uleb128 .LEHE129-.LEHB129
 5044 041c 8207     		.uleb128 .L480-.LFB1523
 5045 041e 07       		.uleb128 0x7
 5046 041f E102     		.uleb128 .LEHB130-.LFB1523
 5047 0421 05       		.uleb128 .LEHE130-.LEHB130
 5048 0422 F306     		.uleb128 .L481-.LFB1523
 5049 0424 07       		.uleb128 0x7
 5050 0425 F902     		.uleb128 .LEHB131-.LFB1523
 5051 0427 05       		.uleb128 .LEHE131-.LEHB131
 5052 0428 E406     		.uleb128 .L479-.LFB1523
 5053 042a 07       		.uleb128 0x7
 5054 042b 9103     		.uleb128 .LEHB132-.LFB1523
 5055 042d 05       		.uleb128 .LEHE132-.LEHB132
 5056 042e D506     		.uleb128 .L474-.LFB1523
 5057 0430 07       		.uleb128 0x7
 5058 0431 E104     		.uleb128 .LEHB133-.LFB1523
 5059 0433 05       		.uleb128 .LEHE133-.LEHB133
 5060 0434 C606     		.uleb128 .L482-.LFB1523
 5061 0436 07       		.uleb128 0x7
 5062 0437 D705     		.uleb128 .LEHB134-.LFB1523
 5063 0439 05       		.uleb128 .LEHE134-.LEHB134
 5064 043a B706     		.uleb128 .L473-.LFB1523
 5065 043c 05       		.uleb128 0x5
 5066              	.LLSDACSE1523:
 5067 043d 03       		.byte	0x3
 5068 043e 00       		.byte	0
 5069 043f 02       		.byte	0x2
 5070 0440 7D       		.byte	0x7d
 5071 0441 01       		.byte	0x1
 5072 0442 7D       		.byte	0x7d
 5073 0443 00       		.byte	0
 5074 0444 7D       		.byte	0x7d
 5075 0445 000000   		.align 4
 5076 0448 00000000 		.long	0
 5077              	
 5078 044c 00000000 		.long	DW.ref._ZTISt9exception-.
 5079 0450 00000000 		.long	DW.ref._ZTIN8UnitTest15AssertExceptionE-.
 5080              	.LLSDATT1523:
 5081              		.text
 5082              		.cfi_endproc
 5083              		.section	.text.unlikely
 5084              		.cfi_startproc
 5085              		.cfi_personality 0x9b,DW.ref.__gxx_personality_v0
 5086              		.cfi_lsda 0x1b,.LLSDAC1523
 5088              	_ZNK12_GLOBAL__N_149TestXmlTestReporterFixtureOneFailureAndOneSuccess7RunImplEv.cold:
 5089              	.LFSB1523:
 5090              	.L459:
 5091              		.cfi_def_cfa_offset 592
 5092              		.cfi_offset 3, -56
 5093              		.cfi_offset 6, -48
 5094              		.cfi_offset 12, -40
 5095              		.cfi_offset 13, -32
 5096              		.cfi_offset 14, -24
 5097              		.cfi_offset 15, -16
 5098 0dee 4C89EF   		movq	%r13, %rdi
 5099 0df1 E828F5FF 		call	_ZN12_GLOBAL__N_122XmlTestReporterFixtureD2Ev
 5099      FF
 5100 0df6 4889DF   		movq	%rbx, %rdi
 5101 0df9 4889E8   		movq	%rbp, %rax
 5102              	.L494:
 5103 0dfc BB010000 		movl	$1, %ebx
 5103      00
 5104              	.L437:
 5105 0e01 4883F801 		cmpq	$1, %rax
 5106 0e05 0F84EA00 		je	.L460
 5106      0000
 5107 0e0b 4883F802 		cmpq	$2, %rax
 5108 0e0f 0F846B01 		je	.L500
 5108      0000
 5109 0e15 E8000000 		call	__cxa_begin_catch@PLT
 5109      00
 5110 0e1a 84DB     		testb	%bl, %bl
 5111 0e1c 0F85E901 		jne	.L501
 5111      0000
 5112              	.LEHB135:
 5113 0e22 E8000000 		call	_ZN8UnitTest11CurrentTest7ResultsEv@PLT
 5113      00
 5114 0e27 488D6C24 		leaq	64(%rsp), %rbp
 5114      40
 5115 0e2c 488B7424 		movq	32(%rsp), %rsi
 5115      20
 5116 0e31 BA870000 		movl	$135, %edx
 5116      00
 5117 0e36 4C8B20   		movq	(%rax), %r12
 5118 0e39 4889EF   		movq	%rbp, %rdi
 5119 0e3c E8000000 		call	_ZN8UnitTest11TestDetailsC1ERKS0_i@PLT
 5119      00
 5120 0e41 488D1500 		leaq	.LC20(%rip), %rdx
 5120      000000
 5121 0e48 4889EE   		movq	%rbp, %rsi
 5122 0e4b 4C89E7   		movq	%r12, %rdi
 5123 0e4e E8000000 		call	_ZN8UnitTest11TestResults13OnTestFailureERKNS_11TestDetailsEPKc@PLT
 5123      00
 5124              	.LEHE135:
 5125              	.L466:
 5126 0e53 488B8424 		movq	520(%rsp), %rax
 5126      08020000 
 5127 0e5b 64482B04 		subq	%fs:40, %rax
 5127      25280000 
 5127      00
 5128 0e64 0F851101 		jne	.L496
 5128      0000
 5129 0e6a 4881C418 		addq	$536, %rsp
 5129      020000
 5130              		.cfi_remember_state
 5131              		.cfi_def_cfa_offset 56
 5132 0e71 5B       		popq	%rbx
 5133              		.cfi_def_cfa_offset 48
 5134 0e72 5D       		popq	%rbp
 5135              		.cfi_def_cfa_offset 40
 5136 0e73 415C     		popq	%r12
 5137              		.cfi_def_cfa_offset 32
 5138 0e75 415D     		popq	%r13
 5139              		.cfi_def_cfa_offset 24
 5140 0e77 415E     		popq	%r14
 5141              		.cfi_def_cfa_offset 16
 5142 0e79 415F     		popq	%r15
 5143              		.cfi_def_cfa_offset 8
 5144              	.LEHB136:
 5145 0e7b E9000000 		jmp	__cxa_end_catch@PLT
 5145      00
 5146              	.LEHE136:
 5147              	.L458:
 5148              		.cfi_restore_state
 5149 0e80 4C89EF   		movq	%r13, %rdi
 5150 0e83 E8000000 		call	_ZNSt7__cxx1119basic_ostringstreamIcSt11char_traitsIcESaIcEED1Ev@PLT
 5150      00
 5151 0e88 4889DF   		movq	%rbx, %rdi
 5152 0e8b 4889E8   		movq	%rbp, %rax
 5153 0e8e BB010000 		movl	$1, %ebx
 5153      00
 5154 0e93 E969FFFF 		jmp	.L437
 5154      FF
 5155              	.L439:
 5156 0e98 4C89EF   		movq	%r13, %rdi
 5157 0e9b E8000000 		call	_ZNSt7__cxx1119basic_ostringstreamIcSt11char_traitsIcESaIcEED1Ev@PLT
 5157      00
 5158 0ea0 4889DF   		movq	%rbx, %rdi
 5159 0ea3 4889E8   		movq	%rbp, %rax
 5160 0ea6 31DB     		xorl	%ebx, %ebx
 5161 0ea8 E954FFFF 		jmp	.L437
 5161      FF
 5162              	.L435:
 5163 0ead 4889EF   		movq	%rbp, %rdi
 5164 0eb0 E8000000 		call	_ZNSt7__cxx1115basic_stringbufIcSt11char_traitsIcESaIcEED1Ev
 5164      00
 5165 0eb5 488B0500 		movq	8+_ZTTNSt7__cxx1119basic_ostringstreamIcSt11char_traitsIcESaIcEEE(%rip), %rax
 5165      000000
 5166 0ebc 488B0D00 		movq	16+_ZTTNSt7__cxx1119basic_ostringstreamIcSt11char_traitsIcESaIcEEE(%rip), %rcx
 5166      000000
 5167 0ec3 48894424 		movq	%rax, 96(%rsp)
 5167      60
 5168 0ec8 488B40E8 		movq	-24(%rax), %rax
 5169 0ecc 48894C04 		movq	%rcx, 96(%rsp,%rax)
 5169      60
 5170              	.L436:
 5171 0ed1 488D0500 		leaq	16+_ZTVSt9basic_iosIcSt11char_traitsIcEE(%rip), %rax
 5171      000000
 5172 0ed8 4C89F7   		movq	%r14, %rdi
 5173 0edb 48898424 		movq	%rax, 208(%rsp)
 5173      D0000000 
 5174 0ee3 E8000000 		call	_ZNSt8ios_baseD2Ev@PLT
 5174      00
 5175 0ee8 4889DF   		movq	%rbx, %rdi
 5176 0eeb 4C89E0   		movq	%r12, %rax
 5177 0eee 31DB     		xorl	%ebx, %ebx
 5178 0ef0 E90CFFFF 		jmp	.L437
 5178      FF
 5179              	.L460:
 5180 0ef5 E8000000 		call	__cxa_begin_catch@PLT
 5180      00
 5181 0efa 4889C5   		movq	%rax, %rbp
 5182              	.LEHB137:
 5183 0efd E8000000 		call	_ZN8UnitTest11CurrentTest7ResultsEv@PLT
 5183      00
 5184 0f02 4C8B28   		movq	(%rax), %r13
 5185 0f05 488B4500 		movq	0(%rbp), %rax
 5186 0f09 4889EF   		movq	%rbp, %rdi
 5187 0f0c FF5010   		call	*16(%rax)
 5188 0f0f 4889EF   		movq	%rbp, %rdi
 5189 0f12 4989C4   		movq	%rax, %r12
 5190 0f15 E8000000 		call	_ZNK8UnitTest15AssertException10LineNumberEv@PLT
 5190      00
 5191 0f1a 4889EF   		movq	%rbp, %rdi
 5192 0f1d 89C3     		movl	%eax, %ebx
 5193 0f1f E8000000 		call	_ZNK8UnitTest15AssertException8FilenameEv@PLT
 5193      00
 5194 0f24 4889C1   		movq	%rax, %rcx
 5195 0f27 488B4424 		movq	56(%rsp), %rax
 5195      38
 5196 0f2c 488D6C24 		leaq	64(%rsp), %rbp
 5196      40
 5197 0f31 4189D8   		movl	%ebx, %r8d
 5198 0f34 4889EF   		movq	%rbp, %rdi
 5199 0f37 488B5008 		movq	8(%rax), %rdx
 5200 0f3b 488B7010 		movq	16(%rax), %rsi
 5201 0f3f E8000000 		call	_ZN8UnitTest11TestDetailsC1EPKcS2_S2_i@PLT
 5201      00
 5202 0f44 4C89E2   		movq	%r12, %rdx
 5203 0f47 4889EE   		movq	%rbp, %rsi
 5204 0f4a 4C89EF   		movq	%r13, %rdi
 5205 0f4d E8000000 		call	_ZN8UnitTest11TestResults13OnTestFailureERKNS_11TestDetailsEPKc@PLT
 5205      00
 5206              	.LEHE137:
 5207              	.L498:
 5208 0f52 488B8424 		movq	520(%rsp), %rax
 5208      08020000 
 5209 0f5a 64482B04 		subq	%fs:40, %rax
 5209      25280000 
 5209      00
 5210 0f63 7516     		jne	.L496
 5211 0f65 4881C418 		addq	$536, %rsp
 5211      020000
 5212              		.cfi_remember_state
 5213              		.cfi_def_cfa_offset 56
 5214 0f6c 5B       		popq	%rbx
 5215              		.cfi_def_cfa_offset 48
 5216 0f6d 5D       		popq	%rbp
 5217              		.cfi_def_cfa_offset 40
 5218 0f6e 415C     		popq	%r12
 5219              		.cfi_def_cfa_offset 32
 5220 0f70 415D     		popq	%r13
 5221              		.cfi_def_cfa_offset 24
 5222 0f72 415E     		popq	%r14
 5223              		.cfi_def_cfa_offset 16
 5224 0f74 415F     		popq	%r15
 5225              		.cfi_def_cfa_offset 8
 5226 0f76 E9000000 		jmp	__cxa_end_catch@PLT
 5226      00
 5227              	.L496:
 5228              		.cfi_restore_state
 5229 0f7b E8000000 		call	__stack_chk_fail@PLT
 5229      00
 5230              	.L500:
 5231 0f80 E8000000 		call	__cxa_begin_catch@PLT
 5231      00
 5232 0f85 4C89EF   		movq	%r13, %rdi
 5233 0f88 4889C5   		movq	%rax, %rbp
 5234              	.LEHB138:
 5235 0f8b E8000000 		call	_ZN8UnitTest15MemoryOutStreamC1Ev
 5235      00
 5236              	.LEHE138:
 5237 0f90 BA150000 		movl	$21, %edx
 5237      00
 5238 0f95 488D3500 		leaq	.LC16(%rip), %rsi
 5238      000000
 5239 0f9c 4C89EF   		movq	%r13, %rdi
 5240              	.LEHB139:
 5241 0f9f E8000000 		call	_ZSt16__ostream_insertIcSt11char_traitsIcEERSt13basic_ostreamIT_T0_ES6_PKS3_l@PLT
 5241      00
 5242 0fa4 488B4500 		movq	0(%rbp), %rax
 5243 0fa8 4889EF   		movq	%rbp, %rdi
 5244 0fab FF5010   		call	*16(%rax)
 5245 0fae 4C89EF   		movq	%r13, %rdi
 5246 0fb1 4889C6   		movq	%rax, %rsi
 5247 0fb4 E8000000 		call	_ZStlsISt11char_traitsIcEERSt13basic_ostreamIcT_ES5_PKc@PLT
 5247      00
 5248 0fb9 E8000000 		call	_ZN8UnitTest11CurrentTest7ResultsEv@PLT
 5248      00
 5249 0fbe 4C89EF   		movq	%r13, %rdi
 5250 0fc1 488B28   		movq	(%rax), %rbp
 5251 0fc4 E8000000 		call	_ZNK8UnitTest15MemoryOutStream7GetTextEv@PLT
 5251      00
 5252 0fc9 488B7424 		movq	32(%rsp), %rsi
 5252      20
 5253 0fce 4889C2   		movq	%rax, %rdx
 5254 0fd1 4889EF   		movq	%rbp, %rdi
 5255 0fd4 E8000000 		call	_ZN8UnitTest11TestResults13OnTestFailureERKNS_11TestDetailsEPKc@PLT
 5255      00
 5256              	.LEHE139:
 5257 0fd9 4C89EF   		movq	%r13, %rdi
 5258              	.LEHB140:
 5259 0fdc E8000000 		call	_ZN8UnitTest15MemoryOutStreamD1Ev
 5259      00
 5260              	.LEHE140:
 5261 0fe1 E96CFFFF 		jmp	.L498
 5261      FF
 5262              	.L477:
 5263 0fe6 F30F1EFA 		endbr64
 5264 0fea 4C89EF   		movq	%r13, %rdi
 5265 0fed 4889C5   		movq	%rax, %rbp
 5266 0ff0 E8000000 		call	_ZN8UnitTest15MemoryOutStreamD1Ev
 5266      00
 5267              	.L470:
 5268 0ff5 E8000000 		call	__cxa_end_catch@PLT
 5268      00
 5269 0ffa 4889EF   		movq	%rbp, %rdi
 5270              	.LEHB141:
 5271 0ffd E8000000 		call	_Unwind_Resume@PLT
 5271      00
 5272              	.LEHE141:
 5273              	.L476:
 5274 1002 F30F1EFA 		endbr64
 5275              	.L497:
 5276 1006 4889C5   		movq	%rax, %rbp
 5277 1009 EBEA     		jmp	.L470
 5278              	.L501:
 5279              	.LEHB142:
 5280 100b E8000000 		call	_ZN8UnitTest11CurrentTest7ResultsEv@PLT
 5280      00
 5281 1010 488D6C24 		leaq	64(%rsp), %rbp
 5281      40
 5282 1015 488B7424 		movq	32(%rsp), %rsi
 5282      20
 5283 101a BA870000 		movl	$135, %edx
 5283      00
 5284 101f 4C8B20   		movq	(%rax), %r12
 5285 1022 4889EF   		movq	%rbp, %rdi
 5286 1025 E8000000 		call	_ZN8UnitTest11TestDetailsC1ERKS0_i@PLT
 5286      00
 5287 102a 488D1500 		leaq	.LC19(%rip), %rdx
 5287      000000
 5288 1031 4889EE   		movq	%rbp, %rsi
 5289 1034 4C89E7   		movq	%r12, %rdi
 5290 1037 E8000000 		call	_ZN8UnitTest11TestResults13OnTestFailureERKNS_11TestDetailsEPKc@PLT
 5290      00
 5291              	.LEHE142:
 5292 103c E912FEFF 		jmp	.L466
 5292      FF
 5293              	.L478:
 5294 1041 F30F1EFA 		endbr64
 5295 1045 4889C5   		movq	%rax, %rbp
 5296 1048 E8000000 		call	__cxa_end_catch@PLT
 5296      00
 5297 104d 4889EF   		movq	%rbp, %rdi
 5298              	.LEHB143:
 5299 1050 E8000000 		call	_Unwind_Resume@PLT
 5299      00
 5300              	.LEHE143:
 5301              	.L475:
 5302 1055 F30F1EFA 		endbr64
 5303 1059 EBAB     		jmp	.L497
 5304              		.cfi_endproc
 5305              	.LFE1523:
 5306              		.section	.gcc_except_table
 5307              		.align 4
 5308              	.LLSDAC1523:
 5309 0454 FF       		.byte	0xff
 5310 0455 9B       		.byte	0x9b
 5311 0456 49       		.uleb128 .LLSDATTC1523-.LLSDATTDC1523
 5312              	.LLSDATTDC1523:
 5313 0457 01       		.byte	0x1
 5314 0458 32       		.uleb128 .LLSDACSEC1523-.LLSDACSBC1523
 5315              	.LLSDACSBC1523:
 5316 0459 34       		.uleb128 .LEHB135-.LCOLDB41
 5317 045a 31       		.uleb128 .LEHE135-.LEHB135
 5318 045b D304     		.uleb128 .L478-.LCOLDB41
 5319 045d 00       		.uleb128 0
 5320 045e 8D01     		.uleb128 .LEHB136-.LCOLDB41
 5321 0460 05       		.uleb128 .LEHE136-.LEHB136
 5322 0461 00       		.uleb128 0
 5323 0462 00       		.uleb128 0
 5324 0463 8F02     		.uleb128 .LEHB137-.LCOLDB41
 5325 0465 55       		.uleb128 .LEHE137-.LEHB137
 5326 0466 E704     		.uleb128 .L475-.LCOLDB41
 5327 0468 00       		.uleb128 0
 5328 0469 9D03     		.uleb128 .LEHB138-.LCOLDB41
 5329 046b 05       		.uleb128 .LEHE138-.LEHB138
 5330 046c 9404     		.uleb128 .L476-.LCOLDB41
 5331 046e 00       		.uleb128 0
 5332 046f B103     		.uleb128 .LEHB139-.LCOLDB41
 5333 0471 3A       		.uleb128 .LEHE139-.LEHB139
 5334 0472 F803     		.uleb128 .L477-.LCOLDB41
 5335 0474 00       		.uleb128 0
 5336 0475 EE03     		.uleb128 .LEHB140-.LCOLDB41
 5337 0477 05       		.uleb128 .LEHE140-.LEHB140
 5338 0478 9404     		.uleb128 .L476-.LCOLDB41
 5339 047a 00       		.uleb128 0
 5340 047b 8F04     		.uleb128 .LEHB141-.LCOLDB41
 5341 047d 05       		.uleb128 .LEHE141-.LEHB141
 5342 047e 00       		.uleb128 0
 5343 047f 00       		.uleb128 0
 5344 0480 9D04     		.uleb128 .LEHB142-.LCOLDB41
 5345 0482 31       		.uleb128 .LEHE142-.LEHB142
 5346 0483 D304     		.uleb128 .L478-.LCOLDB41
 5347 0485 00       		.uleb128 0
 5348 0486 E204     		.uleb128 .LEHB143-.LCOLDB41
 5349 0488 05       		.uleb128 .LEHE143-.LEHB143
 5350 0489 00       		.uleb128 0
 5351 048a 00       		.uleb128 0
 5352              	.LLSDACSEC1523:
 5353 048b 03       		.byte	0x3
 5354 048c 00       		.byte	0
 5355 048d 02       		.byte	0x2
 5356 048e 7D       		.byte	0x7d
 5357 048f 01       		.byte	0x1
 5358 0490 7D       		.byte	0x7d
 5359 0491 00       		.byte	0
 5360 0492 7D       		.byte	0x7d
 5361 0493 00       		.align 4
 5362 0494 00000000 		.long	0
 5363              	
 5364 0498 00000000 		.long	DW.ref._ZTISt9exception-.
 5365 049c 00000000 		.long	DW.ref._ZTIN8UnitTest15AssertExceptionE-.
 5366              	.LLSDATTC1523:
 5367              		.section	.text.unlikely
 5368              		.text
 5370              		.section	.text.unlikely
 5372              	.LCOLDE41:
 5373              		.text
 5374              	.LHOTE41:
 5375              		.section	.rodata.str1.1
 5376              	.LC42:
 5377 00d5 66696C65 		.string	"filename.h"
 5377      6E616D65 
 5377      2E6800
 5378              	.LC43:
 5379 00e0 54657374 		.string	"TestName"
 5379      4E616D65 
 5379      00
 5380              	.LC44:
 5381 00e9 2227263C 		.string	"\"'&<>"
 5381      3E00
 5382              		.section	.rodata.str1.8
 5383 0365 000000   		.align 8
 5384              	.LC45:
 5385 0368 3C3F786D 		.string	"<?xml version=\"1.0\"?><unittest-results tests=\"1\" failedtests=\"1\" failures=\"1\" tim
 5385      6C207665 
 5385      7273696F 
 5385      6E3D2231 
 5385      2E30223F 
 5386              		.section	.text.unlikely
 5387              	.LCOLDB46:
 5388              		.text
 5389              	.LHOTB46:
 5390 1651 66662E0F 		.p2align 4
 5390      1F840000 
 5390      0000000F 
 5390      1F4000
 5392              	_ZN8UnitTest11ExecuteTestIN12_GLOBAL__N_154XmlTestReporterFixtureFailureMessageIsXMLEscapedHelperEE
 5393              	.LFB1576:
 5394              		.cfi_startproc
 5395              		.cfi_personality 0x9b,DW.ref.__gxx_personality_v0
 5396              		.cfi_lsda 0x1b,.LLSDA1576
 5397 1660 4156     		pushq	%r14
 5398              		.cfi_def_cfa_offset 16
 5399              		.cfi_offset 14, -16
 5400 1662 4155     		pushq	%r13
 5401              		.cfi_def_cfa_offset 24
 5402              		.cfi_offset 13, -24
 5403 1664 4154     		pushq	%r12
 5404              		.cfi_def_cfa_offset 32
 5405              		.cfi_offset 12, -32
 5406 1666 55       		pushq	%rbp
 5407              		.cfi_def_cfa_offset 40
 5408              		.cfi_offset 6, -40
 5409 1667 53       		pushq	%rbx
 5410              		.cfi_def_cfa_offset 48
 5411              		.cfi_offset 3, -48
 5412 1668 4889F3   		movq	%rsi, %rbx
 5413 166b 4881ECD0 		subq	$1744, %rsp
 5413      060000
 5414              		.cfi_def_cfa_offset 1792
 5415 1672 48893C24 		movq	%rdi, (%rsp)
 5416 1676 48897424 		movq	%rsi, 8(%rsp)
 5416      08
 5417 167b 64488B04 		movq	%fs:40, %rax
 5417      25280000 
 5417      00
 5418 1684 48898424 		movq	%rax, 1736(%rsp)
 5418      C8060000 
 5419 168c 31C0     		xorl	%eax, %eax
 5420              	.LEHB144:
 5421 168e E8000000 		call	_ZN8UnitTest11CurrentTest7DetailsEv@PLT
 5421      00
 5422              	.LEHE144:
 5423 1693 488DBC24 		leaq	608(%rsp), %rdi
 5423      60020000 
 5424 169b 488918   		movq	%rbx, (%rax)
 5425              	.LEHB145:
 5426 169e E8000000 		call	_ZN8UnitTest16SignalTranslatorC1Ev@PLT
 5426      00
 5427              	.LEHE145:
 5428 16a3 488B3D00 		movq	_ZN8UnitTest16SignalTranslator12s_jumpTargetE(%rip), %rdi
 5428      000000
 5429 16aa BE010000 		movl	$1, %esi
 5429      00
 5430 16af E8000000 		call	__sigsetjmp@PLT
 5430      00
 5431 16b4 F30F1EFA 		endbr64
 5432 16b8 85C0     		testl	%eax, %eax
 5433 16ba 0F850000 		jne	.L547
 5433      0000
 5434 16c0 488D7C24 		leaq	64(%rsp), %rdi
 5434      40
 5435 16c5 41B8E110 		movl	$4321, %r8d
 5435      0000
 5436 16cb 488D0D00 		leaq	.LC42(%rip), %rcx
 5436      000000
 5437 16d2 488D1500 		leaq	.LC28(%rip), %rdx
 5437      000000
 5438 16d9 488D3500 		leaq	.LC43(%rip), %rsi
 5438      000000
 5439              	.LEHB146:
 5440 16e0 E8000000 		call	_ZN8UnitTest11TestDetailsC1EPKcS2_S2_i@PLT
 5440      00
 5441 16e5 488B1C24 		movq	(%rsp), %rbx
 5442 16e9 488D7424 		leaq	64(%rsp), %rsi
 5442      40
 5443 16ee 488DAB78 		leaq	376(%rbx), %rbp
 5443      010000
 5444 16f5 4889EF   		movq	%rbp, %rdi
 5445 16f8 E8000000 		call	_ZN8UnitTest20DeferredTestReporter15ReportTestStartERKNS_11TestDetailsE@PLT
 5445      00
 5446 16fd 488D7424 		leaq	64(%rsp), %rsi
 5446      40
 5447 1702 488D1500 		leaq	.LC44(%rip), %rdx
 5447      000000
 5448 1709 4889EF   		movq	%rbp, %rdi
 5449 170c E8000000 		call	_ZN8UnitTest20DeferredTestReporter13ReportFailureERKNS_11TestDetailsEPKc@PLT
 5449      00
 5450 1711 F30F1005 		movss	.LC32(%rip), %xmm0
 5450      00000000 
 5451 1719 488D7424 		leaq	64(%rsp), %rsi
 5451      40
 5452 171e 4889EF   		movq	%rbp, %rdi
 5453 1721 E8000000 		call	_ZN8UnitTest20DeferredTestReporter16ReportTestFinishERKNS_11TestDetailsEf@PLT
 5453      00
 5454 1726 F30F1005 		movss	.LC32(%rip), %xmm0
 5454      00000000 
 5455 172e B9010000 		movl	$1, %ecx
 5455      00
 5456 1733 BA010000 		movl	$1, %edx
 5456      00
 5457 1738 4889EF   		movq	%rbp, %rdi
 5458 173b BE010000 		movl	$1, %esi
 5458      00
 5459 1740 E8000000 		call	_ZN8UnitTest15XmlTestReporter13ReportSummaryEiiif@PLT
 5459      00
 5460              	.LEHE146:
 5461 1745 488D0500 		leaq	.LC45(%rip), %rax
 5461      000000
 5462 174c 48894424 		movq	%rax, 24(%rsp)
 5462      18
 5463              	.LEHB147:
 5464 1751 E8000000 		call	_ZN8UnitTest11CurrentTest7DetailsEv@PLT
 5464      00
 5465 1756 488B30   		movq	(%rax), %rsi
 5466 1759 488DBC24 		leaq	128(%rsp), %rdi
 5466      80000000 
 5467 1761 BA840000 		movl	$132, %edx
 5467      00
 5468 1766 E8000000 		call	_ZN8UnitTest11TestDetailsC1ERKS0_i@PLT
 5468      00
 5469              	.LEHE147:
 5470 176b 488D8424 		leaq	176(%rsp), %rax
 5470      B0000000 
 5471 1773 C68424B0 		movb	$0, 176(%rsp)
 5471      00000000 
 5472 177b 488DBC24 		leaq	160(%rsp), %rdi
 5472      A0000000 
 5473 1783 48898424 		movq	%rax, 160(%rsp)
 5473      A0000000 
 5474 178b 488B4330 		movq	48(%rbx), %rax
 5475 178f 48C78424 		movq	$0, 168(%rsp)
 5475      A8000000 
 5475      00000000 
 5476 179b 4885C0   		testq	%rax, %rax
 5477 179e 0F84AC00 		je	.L505
 5477      0000
 5478 17a4 4C8B4320 		movq	32(%rbx), %r8
 5479 17a8 4D85C0   		testq	%r8, %r8
 5480 17ab 0F849700 		je	.L544
 5480      0000
 5481 17b1 4C39C0   		cmpq	%r8, %rax
 5482 17b4 0F878E00 		ja	.L544
 5482      0000
 5483              	.L506:
 5484 17ba 488B0424 		movq	(%rsp), %rax
 5485 17be 488DBC24 		leaq	160(%rsp), %rdi
 5485      A0000000 
 5486 17c6 31D2     		xorl	%edx, %edx
 5487 17c8 31F6     		xorl	%esi, %esi
 5488 17ca 488B4828 		movq	40(%rax), %rcx
 5489 17ce 4929C8   		subq	%rcx, %r8
 5490              	.LEHB148:
 5491 17d1 E8000000 		call	_ZNSt7__cxx1112basic_stringIcSt11char_traitsIcESaIcEE10_M_replaceEmmPKcm@PLT
 5491      00
 5492              	.LEHE148:
 5493              	.L509:
 5494              	.LEHB149:
 5495 17d6 E8000000 		call	_ZN8UnitTest11CurrentTest7ResultsEv@PLT
 5495      00
 5496 17db 488B38   		movq	(%rax), %rdi
 5497 17de 488D8C24 		leaq	128(%rsp), %rcx
 5497      80000000 
 5498 17e6 488D7424 		leaq	24(%rsp), %rsi
 5498      18
 5499 17eb 488D9424 		leaq	160(%rsp), %rdx
 5499      A0000000 
 5500 17f3 E8000000 		call	_ZN8UnitTest10CheckEqualIPKcNSt7__cxx1112basic_stringIcSt11char_traitsIcESaIcEEEEEvRNS_11Test
 5500      00
 5501              	.LEHE149:
 5502 17f8 488BBC24 		movq	160(%rsp), %rdi
 5502      A0000000 
 5503 1800 488D8424 		leaq	176(%rsp), %rax
 5503      B0000000 
 5504 1808 4839C7   		cmpq	%rax, %rdi
 5505 180b 7405     		je	.L515
 5506 180d E8000000 		call	_ZdlPv@PLT
 5506      00
 5507              	.L515:
 5508 1812 488DBC24 		leaq	608(%rsp), %rdi
 5508      60020000 
 5509              	.LEHB150:
 5510 181a E8000000 		call	_ZN8UnitTest16SignalTranslatorD1Ev@PLT
 5510      00
 5511              	.LEHE150:
 5512              	.L502:
 5513 181f 488B8424 		movq	1736(%rsp), %rax
 5513      C8060000 
 5514 1827 64482B04 		subq	%fs:40, %rax
 5514      25280000 
 5514      00
 5515 1830 7530     		jne	.L551
 5516 1832 4881C4D0 		addq	$1744, %rsp
 5516      060000
 5517              		.cfi_remember_state
 5518              		.cfi_def_cfa_offset 48
 5519 1839 5B       		popq	%rbx
 5520              		.cfi_def_cfa_offset 40
 5521 183a 5D       		popq	%rbp
 5522              		.cfi_def_cfa_offset 32
 5523 183b 415C     		popq	%r12
 5524              		.cfi_def_cfa_offset 24
 5525 183d 415D     		popq	%r13
 5526              		.cfi_def_cfa_offset 16
 5527 183f 415E     		popq	%r14
 5528              		.cfi_def_cfa_offset 8
 5529 1841 C3       		ret
 5530              		.p2align 4,,10
 5531 1842 660F1F44 		.p2align 3
 5531      0000
 5532              	.L544:
 5533              		.cfi_restore_state
 5534 1848 4989C0   		movq	%rax, %r8
 5535 184b E96AFFFF 		jmp	.L506
 5535      FF
 5536              		.p2align 4,,10
 5537              		.p2align 3
 5538              	.L505:
 5539 1850 488B3424 		movq	(%rsp), %rsi
 5540 1854 4883C650 		addq	$80, %rsi
 5541              	.LEHB151:
 5542 1858 E8000000 		call	_ZNSt7__cxx1112basic_stringIcSt11char_traitsIcESaIcEE9_M_assignERKS4_@PLT
 5542      00
 5543              	.LEHE151:
 5544 185d E974FFFF 		jmp	.L509
 5544      FF
 5545              	.L551:
 5546 1862 E8000000 		call	__stack_chk_fail@PLT
 5546      00
 5547              	.L541:
 5548 1867 F30F1EFA 		endbr64
 5549 186b 4889C7   		movq	%rax, %rdi
 5550 186e E9000000 		jmp	.L512
 5550      00
 5551              	.L545:
 5552 1873 F30F1EFA 		endbr64
 5553 1877 E9000000 		jmp	.L546
 5553      00
 5554              	.L534:
 5555 187c F30F1EFA 		endbr64
 5556 1880 4889C7   		movq	%rax, %rdi
 5557 1883 4889D0   		movq	%rdx, %rax
 5558 1886 E9000000 		jmp	.L523
 5558      00
 5559              	.L542:
 5560 188b F30F1EFA 		endbr64
 5561 188f 4889C3   		movq	%rax, %rbx
 5562 1892 E9000000 		jmp	.L518
 5562      00
 5563              	.L543:
 5564 1897 F30F1EFA 		endbr64
 5565 189b 4889C3   		movq	%rax, %rbx
 5566 189e E9000000 		jmp	.L510
 5566      00
 5567              		.section	.gcc_except_table
 5568              		.align 4
 5569              	.LLSDA1576:
 5570 04a0 FF       		.byte	0xff
 5571 04a1 9B       		.byte	0x9b
 5572 04a2 45       		.uleb128 .LLSDATT1576-.LLSDATTD1576
 5573              	.LLSDATTD1576:
 5574 04a3 01       		.byte	0x1
 5575 04a4 2D       		.uleb128 .LLSDACSE1576-.LLSDACSB1576
 5576              	.LLSDACSB1576:
 5577 04a5 2E       		.uleb128 .LEHB144-.LFB1576
 5578 04a6 05       		.uleb128 .LEHE144-.LEHB144
 5579 04a7 00       		.uleb128 0
 5580 04a8 00       		.uleb128 0
 5581 04a9 3E       		.uleb128 .LEHB145-.LFB1576
 5582 04aa 05       		.uleb128 .LEHE145-.LEHB145
 5583 04ab 9C04     		.uleb128 .L534-.LFB1576
 5584 04ad 05       		.uleb128 0x5
 5585 04ae 8001     		.uleb128 .LEHB146-.LFB1576
 5586 04b0 65       		.uleb128 .LEHE146-.LEHB146
 5587 04b1 9304     		.uleb128 .L545-.LFB1576
 5588 04b3 07       		.uleb128 0x7
 5589 04b4 F101     		.uleb128 .LEHB147-.LFB1576
 5590 04b6 1A       		.uleb128 .LEHE147-.LEHB147
 5591 04b7 8704     		.uleb128 .L541-.LFB1576
 5592 04b9 01       		.uleb128 0x1
 5593 04ba F102     		.uleb128 .LEHB148-.LFB1576
 5594 04bc 05       		.uleb128 .LEHE148-.LEHB148
 5595 04bd B704     		.uleb128 .L543-.LFB1576
 5596 04bf 01       		.uleb128 0x1
 5597 04c0 F602     		.uleb128 .LEHB149-.LFB1576
 5598 04c2 22       		.uleb128 .LEHE149-.LEHB149
 5599 04c3 AB04     		.uleb128 .L542-.LFB1576
 5600 04c5 01       		.uleb128 0x1
 5601 04c6 BA03     		.uleb128 .LEHB150-.LFB1576
 5602 04c8 05       		.uleb128 .LEHE150-.LEHB150
 5603 04c9 9C04     		.uleb128 .L534-.LFB1576
 5604 04cb 05       		.uleb128 0x5
 5605 04cc F803     		.uleb128 .LEHB151-.LFB1576
 5606 04ce 05       		.uleb128 .LEHE151-.LEHB151
 5607 04cf B704     		.uleb128 .L543-.LFB1576
 5608 04d1 01       		.uleb128 0x1
 5609              	.LLSDACSE1576:
 5610 04d2 03       		.byte	0x3
 5611 04d3 00       		.byte	0
 5612 04d4 02       		.byte	0x2
 5613 04d5 7D       		.byte	0x7d
 5614 04d6 01       		.byte	0x1
 5615 04d7 7D       		.byte	0x7d
 5616 04d8 00       		.byte	0
 5617 04d9 7D       		.byte	0x7d
 5618 04da 0000     		.align 4
 5619 04dc 00000000 		.long	0
 5620              	
 5621 04e0 00000000 		.long	DW.ref._ZTISt9exception-.
 5622 04e4 00000000 		.long	DW.ref._ZTIN8UnitTest15AssertExceptionE-.
 5623              	.LLSDATT1576:
 5624              		.text
 5625              		.cfi_endproc
 5626              		.section	.text.unlikely
 5627              		.cfi_startproc
 5628              		.cfi_personality 0x9b,DW.ref.__gxx_personality_v0
 5629              		.cfi_lsda 0x1b,.LLSDAC1576
 5631              	_ZN8UnitTest11ExecuteTestIN12_GLOBAL__N_154XmlTestReporterFixtureFailureMessageIsXMLEscapedHelperEE
 5632              	.LFSB1576:
 5633              	.L547:
 5634              		.cfi_def_cfa_offset 1792
 5635              		.cfi_offset 3, -48
 5636              		.cfi_offset 6, -40
 5637              		.cfi_offset 12, -32
 5638              		.cfi_offset 13, -24
 5639              		.cfi_offset 14, -16
 5640 105b BF080000 		movl	$8, %edi
 5640      00
 5641 1060 E8000000 		call	__cxa_allocate_exception@PLT
 5641      00
 5642 1065 31D2     		xorl	%edx, %edx
 5643 1067 488D3500 		leaq	_ZTIPKc(%rip), %rsi
 5643      000000
 5644 106e 4889C7   		movq	%rax, %rdi
 5645 1071 488D0500 		leaq	.LC8(%rip), %rax
 5645      000000
 5646 1078 488907   		movq	%rax, (%rdi)
 5647              	.LEHB152:
 5648 107b E8000000 		call	__cxa_throw@PLT
 5648      00
 5649              	.LEHE152:
 5650              	.L535:
 5651 1080 F30F1EFA 		endbr64
 5652              	.L546:
 5653 1084 4889C5   		movq	%rax, %rbp
 5654 1087 4889D3   		movq	%rdx, %rbx
 5655 108a EB6E     		jmp	.L522
 5656              	.L510:
 5657 108c 488BBC24 		movq	160(%rsp), %rdi
 5657      A0000000 
 5658 1094 488D8424 		leaq	176(%rsp), %rax
 5658      B0000000 
 5659 109c 4839C7   		cmpq	%rax, %rdi
 5660 109f 7405     		je	.L513
 5661 10a1 E8000000 		call	_ZdlPv@PLT
 5661      00
 5662              	.L513:
 5663 10a6 4889DF   		movq	%rbx, %rdi
 5664              	.L512:
 5665 10a9 E8000000 		call	__cxa_begin_catch@PLT
 5665      00
 5666              	.LEHB153:
 5667 10ae E8000000 		call	_ZN8UnitTest11CurrentTest7ResultsEv@PLT
 5667      00
 5668 10b3 488B28   		movq	(%rax), %rbp
 5669 10b6 E8000000 		call	_ZN8UnitTest11CurrentTest7DetailsEv@PLT
 5669      00
 5670 10bb 488B30   		movq	(%rax), %rsi
 5671 10be 488D7C24 		leaq	96(%rsp), %rdi
 5671      60
 5672 10c3 BA840000 		movl	$132, %edx
 5672      00
 5673 10c8 E8000000 		call	_ZN8UnitTest11TestDetailsC1ERKS0_i@PLT
 5673      00
 5674 10cd 488D7424 		leaq	96(%rsp), %rsi
 5674      60
 5675 10d2 488D1500 		leaq	.LC35(%rip), %rdx
 5675      000000
 5676 10d9 4889EF   		movq	%rbp, %rdi
 5677 10dc E8000000 		call	_ZN8UnitTest11TestResults13OnTestFailureERKNS_11TestDetailsEPKc@PLT
 5677      00
 5678              	.LEHE153:
 5679              	.LEHB154:
 5680 10e1 E8000000 		call	__cxa_end_catch@PLT
 5680      00
 5681              	.LEHE154:
 5682 10e6 E9000000 		jmp	.L515
 5682      00
 5683              	.L540:
 5684 10eb F30F1EFA 		endbr64
 5685 10ef 4889C5   		movq	%rax, %rbp
 5686 10f2 4889D3   		movq	%rdx, %rbx
 5687 10f5 E8000000 		call	__cxa_end_catch@PLT
 5687      00
 5688              	.L522:
 5689 10fa 488DBC24 		leaq	608(%rsp), %rdi
 5689      60020000 
 5690 1102 E8000000 		call	_ZN8UnitTest16SignalTranslatorD1Ev@PLT
 5690      00
 5691 1107 4889EF   		movq	%rbp, %rdi
 5692 110a 4889D8   		movq	%rbx, %rax
 5693              	.L523:
 5694 110d 4883F801 		cmpq	$1, %rax
 5695 1111 7454     		je	.L524
 5696 1113 4883F802 		cmpq	$2, %rax
 5697 1117 0F84C400 		je	.L552
 5697      0000
 5698 111d E8000000 		call	__cxa_begin_catch@PLT
 5698      00
 5699              	.LEHB155:
 5700 1122 E8000000 		call	_ZN8UnitTest11CurrentTest7ResultsEv@PLT
 5700      00
 5701 1127 488B7424 		movq	8(%rsp), %rsi
 5701      08
 5702 112c 488B38   		movq	(%rax), %rdi
 5703 112f 488D1500 		leaq	.LC17(%rip), %rdx
 5703      000000
 5704 1136 E8000000 		call	_ZN8UnitTest11TestResults13OnTestFailureERKNS_11TestDetailsEPKc@PLT
 5704      00
 5705              	.LEHE155:
 5706              	.LEHB156:
 5707 113b E8000000 		call	__cxa_end_catch@PLT
 5707      00
 5708              	.LEHE156:
 5709 1140 E9000000 		jmp	.L502
 5709      00
 5710              	.L518:
 5711 1145 488BBC24 		movq	160(%rsp), %rdi
 5711      A0000000 
 5712 114d 488D8424 		leaq	176(%rsp), %rax
 5712      B0000000 
 5713 1155 4839C7   		cmpq	%rax, %rdi
 5714 1158 7405     		je	.L520
 5715 115a E8000000 		call	_ZdlPv@PLT
 5715      00
 5716              	.L520:
 5717 115f 4889DF   		movq	%rbx, %rdi
 5718 1162 E942FFFF 		jmp	.L512
 5718      FF
 5719              	.L524:
 5720 1167 E8000000 		call	__cxa_begin_catch@PLT
 5720      00
 5721 116c 4889C5   		movq	%rax, %rbp
 5722              	.LEHB157:
 5723 116f E8000000 		call	_ZN8UnitTest11CurrentTest7ResultsEv@PLT
 5723      00
 5724 1174 4C8B28   		movq	(%rax), %r13
 5725 1177 488B4500 		movq	0(%rbp), %rax
 5726 117b 4889EF   		movq	%rbp, %rdi
 5727 117e FF5010   		call	*16(%rax)
 5728 1181 4889EF   		movq	%rbp, %rdi
 5729 1184 4989C6   		movq	%rax, %r14
 5730 1187 E8000000 		call	_ZNK8UnitTest15AssertException10LineNumberEv@PLT
 5730      00
 5731 118c 4889EF   		movq	%rbp, %rdi
 5732 118f 4189C4   		movl	%eax, %r12d
 5733 1192 E8000000 		call	_ZNK8UnitTest15AssertException8FilenameEv@PLT
 5733      00
 5734 1197 4889C1   		movq	%rax, %rcx
 5735 119a 488B4424 		movq	8(%rsp), %rax
 5735      08
 5736 119f 488D7C24 		leaq	32(%rsp), %rdi
 5736      20
 5737 11a4 4589E0   		movl	%r12d, %r8d
 5738 11a7 488B7008 		movq	8(%rax), %rsi
 5739 11ab 488B10   		movq	(%rax), %rdx
 5740 11ae E8000000 		call	_ZN8UnitTest11TestDetailsC1EPKcS2_S2_i@PLT
 5740      00
 5741 11b3 488D7424 		leaq	32(%rsp), %rsi
 5741      20
 5742 11b8 4C89F2   		movq	%r14, %rdx
 5743 11bb 4C89EF   		movq	%r13, %rdi
 5744 11be E8000000 		call	_ZN8UnitTest11TestResults13OnTestFailureERKNS_11TestDetailsEPKc@PLT
 5744      00
 5745              	.LEHE157:
 5746 11c3 E8000000 		call	__cxa_end_catch@PLT
 5746      00
 5747 11c8 E9000000 		jmp	.L502
 5747      00
 5748              	.L536:
 5749 11cd F30F1EFA 		endbr64
 5750 11d1 4889C5   		movq	%rax, %rbp
 5751 11d4 E8000000 		call	__cxa_end_catch@PLT
 5751      00
 5752 11d9 4889EF   		movq	%rbp, %rdi
 5753              	.LEHB158:
 5754 11dc E8000000 		call	_Unwind_Resume@PLT
 5754      00
 5755              	.LEHE158:
 5756              	.L552:
 5757 11e1 E8000000 		call	__cxa_begin_catch@PLT
 5757      00
 5758 11e6 488DBC24 		leaq	192(%rsp), %rdi
 5758      C0000000 
 5759 11ee 4889C5   		movq	%rax, %rbp
 5760              	.LEHB159:
 5761 11f1 E8000000 		call	_ZN8UnitTest15MemoryOutStreamC1Ev
 5761      00
 5762              	.LEHE159:
 5763 11f6 488DBC24 		leaq	192(%rsp), %rdi
 5763      C0000000 
 5764 11fe BA150000 		movl	$21, %edx
 5764      00
 5765 1203 488D3500 		leaq	.LC16(%rip), %rsi
 5765      000000
 5766              	.LEHB160:
 5767 120a E8000000 		call	_ZSt16__ostream_insertIcSt11char_traitsIcEERSt13basic_ostreamIT_T0_ES6_PKS3_l@PLT
 5767      00
 5768 120f 488B4500 		movq	0(%rbp), %rax
 5769 1213 4889EF   		movq	%rbp, %rdi
 5770 1216 FF5010   		call	*16(%rax)
 5771 1219 488DBC24 		leaq	192(%rsp), %rdi
 5771      C0000000 
 5772 1221 4889C6   		movq	%rax, %rsi
 5773 1224 E8000000 		call	_ZStlsISt11char_traitsIcEERSt13basic_ostreamIcT_ES5_PKc@PLT
 5773      00
 5774 1229 E8000000 		call	_ZN8UnitTest11CurrentTest7ResultsEv@PLT
 5774      00
 5775 122e 488DBC24 		leaq	192(%rsp), %rdi
 5775      C0000000 
 5776 1236 488B28   		movq	(%rax), %rbp
 5777 1239 E8000000 		call	_ZNK8UnitTest15MemoryOutStream7GetTextEv@PLT
 5777      00
 5778 123e 488B7424 		movq	8(%rsp), %rsi
 5778      08
 5779 1243 4889C2   		movq	%rax, %rdx
 5780 1246 4889EF   		movq	%rbp, %rdi
 5781 1249 E8000000 		call	_ZN8UnitTest11TestResults13OnTestFailureERKNS_11TestDetailsEPKc@PLT
 5781      00
 5782              	.LEHE160:
 5783 124e 488DBC24 		leaq	192(%rsp), %rdi
 5783      C0000000 
 5784              	.LEHB161:
 5785 1256 E8000000 		call	_ZN8UnitTest15MemoryOutStreamD1Ev
 5785      00
 5786              	.LEHE161:
 5787 125b E8000000 		call	__cxa_end_catch@PLT
 5787      00
 5788 1260 E9000000 		jmp	.L502
 5788      00
 5789              	.L538:
 5790 1265 F30F1EFA 		endbr64
 5791 1269 488DBC24 		leaq	192(%rsp), %rdi
 5791      C0000000 
 5792 1271 4889C5   		movq	%rax, %rbp
 5793 1274 E8000000 		call	_ZN8UnitTest15MemoryOutStreamD1Ev
 5793      00
 5794              	.L531:
 5795 1279 E8000000 		call	__cxa_end_catch@PLT
 5795      00
 5796 127e 4889EF   		movq	%rbp, %rdi
 5797              	.LEHB162:
 5798 1281 E8000000 		call	_Unwind_Resume@PLT
 5798      00
 5799              	.LEHE162:
 5800              	.L537:
 5801 1286 F30F1EFA 		endbr64
 5802 128a 4889C5   		movq	%rax, %rbp
 5803 128d EBEA     		jmp	.L531
 5804              	.L539:
 5805 128f F30F1EFA 		endbr64
 5806 1293 4889C5   		movq	%rax, %rbp
 5807 1296 E8000000 		call	__cxa_end_catch@PLT
 5807      00
 5808 129b 4889EF   		movq	%rbp, %rdi
 5809              	.LEHB163:
 5810 129e E8000000 		call	_Unwind_Resume@PLT
 5810      00
 5811              	.LEHE163:
 5812              		.cfi_endproc
 5813              	.LFE1576:
 5814              		.section	.gcc_except_table
 5815              		.align 4
 5816              	.LLSDAC1576:
 5817 04e8 FF       		.byte	0xff
 5818 04e9 9B       		.byte	0x9b
 5819 04ea 59       		.uleb128 .LLSDATTC1576-.LLSDATTDC1576
 5820              	.LLSDATTDC1576:
 5821 04eb 01       		.byte	0x1
 5822 04ec 40       		.uleb128 .LLSDACSEC1576-.LLSDACSBC1576
 5823              	.LLSDACSBC1576:
 5824 04ed 20       		.uleb128 .LEHB152-.LCOLDB46
 5825 04ee 05       		.uleb128 .LEHE152-.LEHB152
 5826 04ef 25       		.uleb128 .L535-.LCOLDB46
 5827 04f0 07       		.uleb128 0x7
 5828 04f1 53       		.uleb128 .LEHB153-.LCOLDB46
 5829 04f2 33       		.uleb128 .LEHE153-.LEHB153
 5830 04f3 9001     		.uleb128 .L540-.LCOLDB46
 5831 04f5 07       		.uleb128 0x7
 5832 04f6 8601     		.uleb128 .LEHB154-.LCOLDB46
 5833 04f8 05       		.uleb128 .LEHE154-.LEHB154
 5834 04f9 25       		.uleb128 .L535-.LCOLDB46
 5835 04fa 07       		.uleb128 0x7
 5836 04fb C701     		.uleb128 .LEHB155-.LCOLDB46
 5837 04fd 19       		.uleb128 .LEHE155-.LEHB155
 5838 04fe B404     		.uleb128 .L539-.LCOLDB46
 5839 0500 00       		.uleb128 0
 5840 0501 E001     		.uleb128 .LEHB156-.LCOLDB46
 5841 0503 05       		.uleb128 .LEHE156-.LEHB156
 5842 0504 00       		.uleb128 0
 5843 0505 00       		.uleb128 0
 5844 0506 9402     		.uleb128 .LEHB157-.LCOLDB46
 5845 0508 54       		.uleb128 .LEHE157-.LEHB157
 5846 0509 F202     		.uleb128 .L536-.LCOLDB46
 5847 050b 00       		.uleb128 0
 5848 050c 8103     		.uleb128 .LEHB158-.LCOLDB46
 5849 050e 05       		.uleb128 .LEHE158-.LEHB158
 5850 050f 00       		.uleb128 0
 5851 0510 00       		.uleb128 0
 5852 0511 9603     		.uleb128 .LEHB159-.LCOLDB46
 5853 0513 05       		.uleb128 .LEHE159-.LEHB159
 5854 0514 AB04     		.uleb128 .L537-.LCOLDB46
 5855 0516 00       		.uleb128 0
 5856 0517 AF03     		.uleb128 .LEHB160-.LCOLDB46
 5857 0519 44       		.uleb128 .LEHE160-.LEHB160
 5858 051a 8A04     		.uleb128 .L538-.LCOLDB46
 5859 051c 00       		.uleb128 0
 5860 051d FB03     		.uleb128 .LEHB161-.LCOLDB46
 5861 051f 05       		.uleb128 .LEHE161-.LEHB161
 5862 0520 AB04     		.uleb128 .L537-.LCOLDB46
 5863 0522 00       		.uleb128 0
 5864 0523 A604     		.uleb128 .LEHB162-.LCOLDB46
 5865 0525 05       		.uleb128 .LEHE162-.LEHB162
 5866 0526 00       		.uleb128 0
 5867 0527 00       		.uleb128 0
 5868 0528 C304     		.uleb128 .LEHB163-.LCOLDB46
 5869 052a 05       		.uleb128 .LEHE163-.LEHB163
 5870 052b 00       		.uleb128 0
 5871 052c 00       		.uleb128 0
 5872              	.LLSDACSEC1576:
 5873 052d 03       		.byte	0x3
 5874 052e 00       		.byte	0
 5875 052f 02       		.byte	0x2
 5876 0530 7D       		.byte	0x7d
 5877 0531 01       		.byte	0x1
 5878 0532 7D       		.byte	0x7d
 5879 0533 00       		.byte	0
 5880 0534 7D       		.byte	0x7d
 5881 0535 000000   		.align 4
 5882 0538 00000000 		.long	0
 5883              	
 5884 053c 00000000 		.long	DW.ref._ZTISt9exception-.
 5885 0540 00000000 		.long	DW.ref._ZTIN8UnitTest15AssertExceptionE-.
 5886              	.LLSDATTC1576:
 5887              		.section	.text.unlikely
 5888              		.text
 5890              		.section	.text.unlikely
 5892              	.LCOLDE46:
 5893              		.text
 5894              	.LHOTE46:
 5895              		.section	.text.unlikely
 5896 12a3 90       		.align 2
 5897              	.LCOLDB47:
 5898              		.text
 5899              	.LHOTB47:
 5900 18a3 90       		.align 2
 5901 18a4 66662E0F 		.p2align 4
 5901      1F840000 
 5901      00000090 
 5903              	_ZNK12_GLOBAL__N_152TestXmlTestReporterFixtureFailureMessageIsXMLEscaped7RunImplEv:
 5904              	.LFB1512:
 5905              		.cfi_startproc
 5906              		.cfi_personality 0x9b,DW.ref.__gxx_personality_v0
 5907              		.cfi_lsda 0x1b,.LLSDA1512
 5908 18b0 F30F1EFA 		endbr64
 5909 18b4 4157     		pushq	%r15
 5910              		.cfi_def_cfa_offset 16
 5911              		.cfi_offset 15, -16
 5912 18b6 4156     		pushq	%r14
 5913              		.cfi_def_cfa_offset 24
 5914              		.cfi_offset 14, -24
 5915 18b8 4155     		pushq	%r13
 5916              		.cfi_def_cfa_offset 32
 5917              		.cfi_offset 13, -32
 5918 18ba 4154     		pushq	%r12
 5919              		.cfi_def_cfa_offset 40
 5920              		.cfi_offset 12, -40
 5921 18bc 55       		pushq	%rbp
 5922              		.cfi_def_cfa_offset 48
 5923              		.cfi_offset 6, -48
 5924 18bd 53       		pushq	%rbx
 5925              		.cfi_def_cfa_offset 56
 5926              		.cfi_offset 3, -56
 5927 18be 488D1D00 		leaq	16+_ZTVNSt7__cxx1115basic_stringbufIcSt11char_traitsIcESaIcEEE(%rip), %rbx
 5927      000000
 5928 18c5 66480F6E 		movq	%rbx, %xmm3
 5928      DB
 5929 18ca 4881EC18 		subq	$536, %rsp
 5929      020000
 5930              		.cfi_def_cfa_offset 592
 5931 18d1 48897C24 		movq	%rdi, 56(%rsp)
 5931      38
 5932 18d6 4C8DB424 		leaq	208(%rsp), %r14
 5932      D0000000 
 5933 18de 4C8D6C24 		leaq	96(%rsp), %r13
 5933      60
 5934 18e3 64488B04 		movq	%fs:40, %rax
 5934      25280000 
 5934      00
 5935 18ec 48898424 		movq	%rax, 520(%rsp)
 5935      08020000 
 5936 18f4 488D0500 		leaq	24+_ZTVNSt7__cxx1119basic_ostringstreamIcSt11char_traitsIcESaIcEEE(%rip), %rax
 5936      000000
 5937 18fb 66480F6E 		movq	%rax, %xmm1
 5937      C8
 5938 1900 66480F6E 		movq	%rax, %xmm2
 5938      D0
 5939 1905 488D4708 		leaq	8(%rdi), %rax
 5940 1909 4C89F7   		movq	%r14, %rdi
 5941 190c 660F6CCB 		punpcklqdq	%xmm3, %xmm1
 5942 1910 0F161500 		movhps	.LC21(%rip), %xmm2
 5942      000000
 5943 1917 48894424 		movq	%rax, 32(%rsp)
 5943      20
 5944 191c 0F294C24 		movaps	%xmm1, 16(%rsp)
 5944      10
 5945 1921 0F291424 		movaps	%xmm2, (%rsp)
 5946 1925 E8000000 		call	_ZNSt8ios_baseC2Ev@PLT
 5946      00
 5947 192a 488D0500 		leaq	16+_ZTVSt9basic_iosIcSt11char_traitsIcEE(%rip), %rax
 5947      000000
 5948 1931 660FEFC0 		pxor	%xmm0, %xmm0
 5949 1935 31F6     		xorl	%esi, %esi
 5950 1937 48898424 		movq	%rax, 208(%rsp)
 5950      D0000000 
 5951 193f 31C0     		xorl	%eax, %eax
 5952 1941 66898424 		movw	%ax, 432(%rsp)
 5952      B0010000 
 5953 1949 488B0500 		movq	8+_ZTTNSt7__cxx1119basic_ostringstreamIcSt11char_traitsIcESaIcEEE(%rip), %rax
 5953      000000
 5954 1950 0F118424 		movups	%xmm0, 440(%rsp)
 5954      B8010000 
 5955 1958 0F118424 		movups	%xmm0, 456(%rsp)
 5955      C8010000 
 5956 1960 488B78E8 		movq	-24(%rax), %rdi
 5957 1964 48894424 		movq	%rax, 96(%rsp)
 5957      60
 5958 1969 488B0500 		movq	16+_ZTTNSt7__cxx1119basic_ostringstreamIcSt11char_traitsIcESaIcEEE(%rip), %rax
 5958      000000
 5959 1970 48C78424 		movq	$0, 424(%rsp)
 5959      A8010000 
 5959      00000000 
 5960 197c 4C01EF   		addq	%r13, %rdi
 5961 197f 488907   		movq	%rax, (%rdi)
 5962              	.LEHB164:
 5963 1982 E8000000 		call	_ZNSt9basic_iosIcSt11char_traitsIcEE4initEPSt15basic_streambufIcS1_E@PLT
 5963      00
 5964              	.LEHE164:
 5965 1987 488D0500 		leaq	64+_ZTVNSt7__cxx1119basic_ostringstreamIcSt11char_traitsIcESaIcEEE(%rip), %rax
 5965      000000
 5966 198e 660F6F14 		movdqa	(%rsp), %xmm2
 5966      24
 5967 1993 660FEFC0 		pxor	%xmm0, %xmm0
 5968 1997 488D6C24 		leaq	104(%rsp), %rbp
 5968      68
 5969 199c 48898424 		movq	%rax, 208(%rsp)
 5969      D0000000 
 5970 19a4 488D8424 		leaq	160(%rsp), %rax
 5970      A0000000 
 5971 19ac 4889C7   		movq	%rax, %rdi
 5972 19af 48890424 		movq	%rax, (%rsp)
 5973 19b3 0F295424 		movaps	%xmm2, 96(%rsp)
 5973      60
 5974 19b8 0F294424 		movaps	%xmm0, 112(%rsp)
 5974      70
 5975 19bd 0F298424 		movaps	%xmm0, 128(%rsp)
 5975      80000000 
 5976 19c5 0F298424 		movaps	%xmm0, 144(%rsp)
 5976      90000000 
 5977 19cd E8000000 		call	_ZNSt6localeC1Ev@PLT
 5977      00
 5978 19d2 4889EE   		movq	%rbp, %rsi
 5979 19d5 4C89F7   		movq	%r14, %rdi
 5980 19d8 48895C24 		movq	%rbx, 104(%rsp)
 5980      68
 5981 19dd 488D8424 		leaq	192(%rsp), %rax
 5981      C0000000 
 5982 19e5 C68424C0 		movb	$0, 192(%rsp)
 5982      00000000 
 5983 19ed C78424A8 		movl	$16, 168(%rsp)
 5983      00000010 
 5983      000000
 5984 19f8 48894424 		movq	%rax, 40(%rsp)
 5984      28
 5985 19fd 48898424 		movq	%rax, 176(%rsp)
 5985      B0000000 
 5986 1a05 48C78424 		movq	$0, 184(%rsp)
 5986      B8000000 
 5986      00000000 
 5987              	.LEHB165:
 5988 1a11 E8000000 		call	_ZNSt9basic_iosIcSt11char_traitsIcEE4initEPSt15basic_streambufIcS1_E@PLT
 5988      00
 5989              	.LEHE165:
 5990 1a16 488D8424 		leaq	472(%rsp), %rax
 5990      D8010000 
 5991 1a1e 4C89EE   		movq	%r13, %rsi
 5992 1a21 4889C7   		movq	%rax, %rdi
 5993 1a24 48894424 		movq	%rax, 48(%rsp)
 5993      30
 5994              	.LEHB166:
 5995 1a29 E8000000 		call	_ZN8UnitTest15XmlTestReporterC1ERSo@PLT
 5995      00
 5996              	.LEHE166:
 5997 1a2e 488B4424 		movq	32(%rsp), %rax
 5997      20
 5998 1a33 4C89EF   		movq	%r13, %rdi
 5999 1a36 4889C6   		movq	%rax, %rsi
 6000 1a39 48898424 		movq	%rax, 512(%rsp)
 6000      00020000 
 6001              	.LEHB167:
 6002 1a41 E81AFCFF 		call	_ZN8UnitTest11ExecuteTestIN12_GLOBAL__N_154XmlTestReporterFixtureFailureMessageIsXMLEscapedHe
 6002      FF
 6003              	.LEHE167:
 6004 1a46 4C8BA424 		movq	488(%rsp), %r12
 6004      E8010000 
 6005 1a4e 488BAC24 		movq	480(%rsp), %rbp
 6005      E0010000 
 6006 1a56 488D0500 		leaq	16+_ZTVN8UnitTest20DeferredTestReporterE(%rip), %rax
 6006      000000
 6007 1a5d 48898424 		movq	%rax, 472(%rsp)
 6007      D8010000 
 6008 1a65 4939EC   		cmpq	%rbp, %r12
 6009 1a68 0F849100 		je	.L560
 6009      0000
 6010 1a6e 6690     		.p2align 4,,10
 6011              		.p2align 3
 6012              	.L572:
 6013 1a70 488B5D68 		movq	104(%rbp), %rbx
 6014 1a74 4C8B7D60 		movq	96(%rbp), %r15
 6015 1a78 4C39FB   		cmpq	%r15, %rbx
 6016 1a7b 7426     		je	.L561
 6017 1a7d 0F1F00   		.p2align 4,,10
 6018              		.p2align 3
 6019              	.L565:
 6020 1a80 498B7F08 		movq	8(%r15), %rdi
 6021 1a84 498D4718 		leaq	24(%r15), %rax
 6022 1a88 4839C7   		cmpq	%rax, %rdi
 6023 1a8b 0F842701 		je	.L562
 6023      0000
 6024 1a91 E8000000 		call	_ZdlPv@PLT
 6024      00
 6025 1a96 4983C728 		addq	$40, %r15
 6026 1a9a 4939DF   		cmpq	%rbx, %r15
 6027 1a9d 75E1     		jne	.L565
 6028              	.L564:
 6029 1a9f 4C8B7D60 		movq	96(%rbp), %r15
 6030              	.L561:
 6031 1aa3 4D85FF   		testq	%r15, %r15
 6032 1aa6 7408     		je	.L566
 6033 1aa8 4C89FF   		movq	%r15, %rdi
 6034 1aab E8000000 		call	_ZdlPv@PLT
 6034      00
 6035              	.L566:
 6036 1ab0 488B7D40 		movq	64(%rbp), %rdi
 6037 1ab4 488D4550 		leaq	80(%rbp), %rax
 6038 1ab8 4839C7   		cmpq	%rax, %rdi
 6039 1abb 7405     		je	.L567
 6040 1abd E8000000 		call	_ZdlPv@PLT
 6040      00
 6041              	.L567:
 6042 1ac2 488B7D20 		movq	32(%rbp), %rdi
 6043 1ac6 488D4530 		leaq	48(%rbp), %rax
 6044 1aca 4839C7   		cmpq	%rax, %rdi
 6045 1acd 7405     		je	.L568
 6046 1acf E8000000 		call	_ZdlPv@PLT
 6046      00
 6047              	.L568:
 6048 1ad4 488B7D00 		movq	0(%rbp), %rdi
 6049 1ad8 488D4510 		leaq	16(%rbp), %rax
 6050 1adc 4839C7   		cmpq	%rax, %rdi
 6051 1adf 0F84EB00 		je	.L569
 6051      0000
 6052 1ae5 E8000000 		call	_ZdlPv@PLT
 6052      00
 6053 1aea 4883ED80 		subq	$-128, %rbp
 6054 1aee 4939EC   		cmpq	%rbp, %r12
 6055 1af1 0F8579FF 		jne	.L572
 6055      FFFF
 6056              	.L571:
 6057 1af7 488BAC24 		movq	480(%rsp), %rbp
 6057      E0010000 
 6058              	.L560:
 6059 1aff 4885ED   		testq	%rbp, %rbp
 6060 1b02 7408     		je	.L573
 6061 1b04 4889EF   		movq	%rbp, %rdi
 6062 1b07 E8000000 		call	_ZdlPv@PLT
 6062      00
 6063              	.L573:
 6064 1b0c 488B7C24 		movq	48(%rsp), %rdi
 6064      30
 6065              	.LEHB168:
 6066 1b11 E8000000 		call	_ZN8UnitTest12TestReporterD2Ev@PLT
 6066      00
 6067              	.LEHE168:
 6068 1b16 660F6F64 		movdqa	16(%rsp), %xmm4
 6068      2410
 6069 1b1c 488D0500 		leaq	64+_ZTVNSt7__cxx1119basic_ostringstreamIcSt11char_traitsIcESaIcEEE(%rip), %rax
 6069      000000
 6070 1b23 488BBC24 		movq	176(%rsp), %rdi
 6070      B0000000 
 6071 1b2b 48898424 		movq	%rax, 208(%rsp)
 6071      D0000000 
 6072 1b33 0F296424 		movaps	%xmm4, 96(%rsp)
 6072      60
 6073 1b38 483B7C24 		cmpq	40(%rsp), %rdi
 6073      28
 6074 1b3d 7405     		je	.L574
 6075 1b3f E8000000 		call	_ZdlPv@PLT
 6075      00
 6076              	.L574:
 6077 1b44 488B3C24 		movq	(%rsp), %rdi
 6078 1b48 488D0500 		leaq	16+_ZTVSt15basic_streambufIcSt11char_traitsIcEE(%rip), %rax
 6078      000000
 6079 1b4f 48894424 		movq	%rax, 104(%rsp)
 6079      68
 6080 1b54 E8000000 		call	_ZNSt6localeD1Ev@PLT
 6080      00
 6081 1b59 488B0500 		movq	8+_ZTTNSt7__cxx1119basic_ostringstreamIcSt11char_traitsIcESaIcEEE(%rip), %rax
 6081      000000
 6082 1b60 488B0D00 		movq	16+_ZTTNSt7__cxx1119basic_ostringstreamIcSt11char_traitsIcESaIcEEE(%rip), %rcx
 6082      000000
 6083 1b67 4C89F7   		movq	%r14, %rdi
 6084 1b6a 48894424 		movq	%rax, 96(%rsp)
 6084      60
 6085 1b6f 488B40E8 		movq	-24(%rax), %rax
 6086 1b73 48894C04 		movq	%rcx, 96(%rsp,%rax)
 6086      60
 6087 1b78 488D0500 		leaq	16+_ZTVSt9basic_iosIcSt11char_traitsIcEE(%rip), %rax
 6087      000000
 6088 1b7f 48898424 		movq	%rax, 208(%rsp)
 6088      D0000000 
 6089              	.LEHB169:
 6090 1b87 E8000000 		call	_ZNSt8ios_baseD2Ev@PLT
 6090      00
 6091              	.LEHE169:
 6092 1b8c 488B8424 		movq	520(%rsp), %rax
 6092      08020000 
 6093 1b94 64482B04 		subq	%fs:40, %rax
 6093      25280000 
 6093      00
 6094 1b9d 7543     		jne	.L619
 6095 1b9f 4881C418 		addq	$536, %rsp
 6095      020000
 6096              		.cfi_remember_state
 6097              		.cfi_def_cfa_offset 56
 6098 1ba6 5B       		popq	%rbx
 6099              		.cfi_def_cfa_offset 48
 6100 1ba7 5D       		popq	%rbp
 6101              		.cfi_def_cfa_offset 40
 6102 1ba8 415C     		popq	%r12
 6103              		.cfi_def_cfa_offset 32
 6104 1baa 415D     		popq	%r13
 6105              		.cfi_def_cfa_offset 24
 6106 1bac 415E     		popq	%r14
 6107              		.cfi_def_cfa_offset 16
 6108 1bae 415F     		popq	%r15
 6109              		.cfi_def_cfa_offset 8
 6110 1bb0 C3       		ret
 6111              		.p2align 4,,10
 6112 1bb1 0F1F8000 		.p2align 3
 6112      000000
 6113              	.L562:
 6114              		.cfi_restore_state
 6115 1bb8 4983C728 		addq	$40, %r15
 6116 1bbc 4C39FB   		cmpq	%r15, %rbx
 6117 1bbf 0F85BBFE 		jne	.L565
 6117      FFFF
 6118 1bc5 E9D5FEFF 		jmp	.L564
 6118      FF
 6119 1bca 660F1F44 		.p2align 4,,10
 6119      0000
 6120              		.p2align 3
 6121              	.L569:
 6122 1bd0 4883ED80 		subq	$-128, %rbp
 6123 1bd4 4939EC   		cmpq	%rbp, %r12
 6124 1bd7 0F8593FE 		jne	.L572
 6124      FFFF
 6125 1bdd E915FFFF 		jmp	.L571
 6125      FF
 6126              	.L619:
 6127 1be2 E8000000 		call	__stack_chk_fail@PLT
 6127      00
 6128              	.L593:
 6129 1be7 F30F1EFA 		endbr64
 6130 1beb 4889C7   		movq	%rax, %rdi
 6131 1bee 4889D0   		movq	%rdx, %rax
 6132 1bf1 E9000000 		jmp	.L614
 6132      00
 6133              	.L602:
 6134 1bf6 F30F1EFA 		endbr64
 6135 1bfa 4889C3   		movq	%rax, %rbx
 6136 1bfd 4889D5   		movq	%rdx, %rbp
 6137 1c00 E9000000 		jmp	.L578
 6137      00
 6138              	.L594:
 6139 1c05 F30F1EFA 		endbr64
 6140 1c09 4889C3   		movq	%rax, %rbx
 6141 1c0c 4889D5   		movq	%rdx, %rbp
 6142 1c0f E9000000 		jmp	.L579
 6142      00
 6143              	.L599:
 6144 1c14 F30F1EFA 		endbr64
 6145 1c18 4889C3   		movq	%rax, %rbx
 6146 1c1b 4889D5   		movq	%rdx, %rbp
 6147 1c1e E9000000 		jmp	.L559
 6147      00
 6148              	.L601:
 6149 1c23 F30F1EFA 		endbr64
 6150 1c27 4889C3   		movq	%rax, %rbx
 6151 1c2a 4989D4   		movq	%rdx, %r12
 6152 1c2d E9000000 		jmp	.L555
 6152      00
 6153              	.L600:
 6154 1c32 F30F1EFA 		endbr64
 6155 1c36 4889C3   		movq	%rax, %rbx
 6156 1c39 4989D4   		movq	%rdx, %r12
 6157 1c3c E9000000 		jmp	.L556
 6157      00
 6158              		.section	.gcc_except_table
 6159              		.align 4
 6160              	.LLSDA1512:
 6161 0544 FF       		.byte	0xff
 6162 0545 9B       		.byte	0x9b
 6163 0546 3D       		.uleb128 .LLSDATT1512-.LLSDATTD1512
 6164              	.LLSDATTD1512:
 6165 0547 01       		.byte	0x1
 6166 0548 24       		.uleb128 .LLSDACSE1512-.LLSDACSB1512
 6167              	.LLSDACSB1512:
 6168 0549 D201     		.uleb128 .LEHB164-.LFB1512
 6169 054b 05       		.uleb128 .LEHE164-.LEHB164
 6170 054c 8207     		.uleb128 .L600-.LFB1512
 6171 054e 07       		.uleb128 0x7
 6172 054f E102     		.uleb128 .LEHB165-.LFB1512
 6173 0551 05       		.uleb128 .LEHE165-.LEHB165
 6174 0552 F306     		.uleb128 .L601-.LFB1512
 6175 0554 07       		.uleb128 0x7
 6176 0555 F902     		.uleb128 .LEHB166-.LFB1512
 6177 0557 05       		.uleb128 .LEHE166-.LEHB166
 6178 0558 E406     		.uleb128 .L599-.LFB1512
 6179 055a 07       		.uleb128 0x7
 6180 055b 9103     		.uleb128 .LEHB167-.LFB1512
 6181 055d 05       		.uleb128 .LEHE167-.LEHB167
 6182 055e D506     		.uleb128 .L594-.LFB1512
 6183 0560 07       		.uleb128 0x7
 6184 0561 E104     		.uleb128 .LEHB168-.LFB1512
 6185 0563 05       		.uleb128 .LEHE168-.LEHB168
 6186 0564 C606     		.uleb128 .L602-.LFB1512
 6187 0566 07       		.uleb128 0x7
 6188 0567 D705     		.uleb128 .LEHB169-.LFB1512
 6189 0569 05       		.uleb128 .LEHE169-.LEHB169
 6190 056a B706     		.uleb128 .L593-.LFB1512
 6191 056c 05       		.uleb128 0x5
 6192              	.LLSDACSE1512:
 6193 056d 03       		.byte	0x3
 6194 056e 00       		.byte	0
 6195 056f 02       		.byte	0x2
 6196 0570 7D       		.byte	0x7d
 6197 0571 01       		.byte	0x1
 6198 0572 7D       		.byte	0x7d
 6199 0573 00       		.byte	0
 6200 0574 7D       		.byte	0x7d
 6201 0575 000000   		.align 4
 6202 0578 00000000 		.long	0
 6203              	
 6204 057c 00000000 		.long	DW.ref._ZTISt9exception-.
 6205 0580 00000000 		.long	DW.ref._ZTIN8UnitTest15AssertExceptionE-.
 6206              	.LLSDATT1512:
 6207              		.text
 6208              		.cfi_endproc
 6209              		.section	.text.unlikely
 6210              		.cfi_startproc
 6211              		.cfi_personality 0x9b,DW.ref.__gxx_personality_v0
 6212              		.cfi_lsda 0x1b,.LLSDAC1512
 6214              	_ZNK12_GLOBAL__N_152TestXmlTestReporterFixtureFailureMessageIsXMLEscaped7RunImplEv.cold:
 6215              	.LFSB1512:
 6216              	.L579:
 6217              		.cfi_def_cfa_offset 592
 6218              		.cfi_offset 3, -56
 6219              		.cfi_offset 6, -48
 6220              		.cfi_offset 12, -40
 6221              		.cfi_offset 13, -32
 6222              		.cfi_offset 14, -24
 6223              		.cfi_offset 15, -16
 6224 12a4 4C89EF   		movq	%r13, %rdi
 6225 12a7 E872F0FF 		call	_ZN12_GLOBAL__N_122XmlTestReporterFixtureD2Ev
 6225      FF
 6226 12ac 4889DF   		movq	%rbx, %rdi
 6227 12af 4889E8   		movq	%rbp, %rax
 6228              	.L614:
 6229 12b2 BB010000 		movl	$1, %ebx
 6229      00
 6230              	.L557:
 6231 12b7 4883F801 		cmpq	$1, %rax
 6232 12bb 0F84EA00 		je	.L580
 6232      0000
 6233 12c1 4883F802 		cmpq	$2, %rax
 6234 12c5 0F846B01 		je	.L620
 6234      0000
 6235 12cb E8000000 		call	__cxa_begin_catch@PLT
 6235      00
 6236 12d0 84DB     		testb	%bl, %bl
 6237 12d2 0F85E901 		jne	.L621
 6237      0000
 6238              	.LEHB170:
 6239 12d8 E8000000 		call	_ZN8UnitTest11CurrentTest7ResultsEv@PLT
 6239      00
 6240 12dd 488D6C24 		leaq	64(%rsp), %rbp
 6240      40
 6241 12e2 488B7424 		movq	32(%rsp), %rsi
 6241      20
 6242 12e7 BA730000 		movl	$115, %edx
 6242      00
 6243 12ec 4C8B20   		movq	(%rax), %r12
 6244 12ef 4889EF   		movq	%rbp, %rdi
 6245 12f2 E8000000 		call	_ZN8UnitTest11TestDetailsC1ERKS0_i@PLT
 6245      00
 6246 12f7 488D1500 		leaq	.LC20(%rip), %rdx
 6246      000000
 6247 12fe 4889EE   		movq	%rbp, %rsi
 6248 1301 4C89E7   		movq	%r12, %rdi
 6249 1304 E8000000 		call	_ZN8UnitTest11TestResults13OnTestFailureERKNS_11TestDetailsEPKc@PLT
 6249      00
 6250              	.LEHE170:
 6251              	.L586:
 6252 1309 488B8424 		movq	520(%rsp), %rax
 6252      08020000 
 6253 1311 64482B04 		subq	%fs:40, %rax
 6253      25280000 
 6253      00
 6254 131a 0F851101 		jne	.L616
 6254      0000
 6255 1320 4881C418 		addq	$536, %rsp
 6255      020000
 6256              		.cfi_remember_state
 6257              		.cfi_def_cfa_offset 56
 6258 1327 5B       		popq	%rbx
 6259              		.cfi_def_cfa_offset 48
 6260 1328 5D       		popq	%rbp
 6261              		.cfi_def_cfa_offset 40
 6262 1329 415C     		popq	%r12
 6263              		.cfi_def_cfa_offset 32
 6264 132b 415D     		popq	%r13
 6265              		.cfi_def_cfa_offset 24
 6266 132d 415E     		popq	%r14
 6267              		.cfi_def_cfa_offset 16
 6268 132f 415F     		popq	%r15
 6269              		.cfi_def_cfa_offset 8
 6270              	.LEHB171:
 6271 1331 E9000000 		jmp	__cxa_end_catch@PLT
 6271      00
 6272              	.LEHE171:
 6273              	.L578:
 6274              		.cfi_restore_state
 6275 1336 4C89EF   		movq	%r13, %rdi
 6276 1339 E8000000 		call	_ZNSt7__cxx1119basic_ostringstreamIcSt11char_traitsIcESaIcEED1Ev@PLT
 6276      00
 6277 133e 4889DF   		movq	%rbx, %rdi
 6278 1341 4889E8   		movq	%rbp, %rax
 6279 1344 BB010000 		movl	$1, %ebx
 6279      00
 6280 1349 E969FFFF 		jmp	.L557
 6280      FF
 6281              	.L559:
 6282 134e 4C89EF   		movq	%r13, %rdi
 6283 1351 E8000000 		call	_ZNSt7__cxx1119basic_ostringstreamIcSt11char_traitsIcESaIcEED1Ev@PLT
 6283      00
 6284 1356 4889DF   		movq	%rbx, %rdi
 6285 1359 4889E8   		movq	%rbp, %rax
 6286 135c 31DB     		xorl	%ebx, %ebx
 6287 135e E954FFFF 		jmp	.L557
 6287      FF
 6288              	.L555:
 6289 1363 4889EF   		movq	%rbp, %rdi
 6290 1366 E8000000 		call	_ZNSt7__cxx1115basic_stringbufIcSt11char_traitsIcESaIcEED1Ev
 6290      00
 6291 136b 488B0500 		movq	8+_ZTTNSt7__cxx1119basic_ostringstreamIcSt11char_traitsIcESaIcEEE(%rip), %rax
 6291      000000
 6292 1372 488B0D00 		movq	16+_ZTTNSt7__cxx1119basic_ostringstreamIcSt11char_traitsIcESaIcEEE(%rip), %rcx
 6292      000000
 6293 1379 48894424 		movq	%rax, 96(%rsp)
 6293      60
 6294 137e 488B40E8 		movq	-24(%rax), %rax
 6295 1382 48894C04 		movq	%rcx, 96(%rsp,%rax)
 6295      60
 6296              	.L556:
 6297 1387 488D0500 		leaq	16+_ZTVSt9basic_iosIcSt11char_traitsIcEE(%rip), %rax
 6297      000000
 6298 138e 4C89F7   		movq	%r14, %rdi
 6299 1391 48898424 		movq	%rax, 208(%rsp)
 6299      D0000000 
 6300 1399 E8000000 		call	_ZNSt8ios_baseD2Ev@PLT
 6300      00
 6301 139e 4889DF   		movq	%rbx, %rdi
 6302 13a1 4C89E0   		movq	%r12, %rax
 6303 13a4 31DB     		xorl	%ebx, %ebx
 6304 13a6 E90CFFFF 		jmp	.L557
 6304      FF
 6305              	.L580:
 6306 13ab E8000000 		call	__cxa_begin_catch@PLT
 6306      00
 6307 13b0 4889C5   		movq	%rax, %rbp
 6308              	.LEHB172:
 6309 13b3 E8000000 		call	_ZN8UnitTest11CurrentTest7ResultsEv@PLT
 6309      00
 6310 13b8 4C8B28   		movq	(%rax), %r13
 6311 13bb 488B4500 		movq	0(%rbp), %rax
 6312 13bf 4889EF   		movq	%rbp, %rdi
 6313 13c2 FF5010   		call	*16(%rax)
 6314 13c5 4889EF   		movq	%rbp, %rdi
 6315 13c8 4989C4   		movq	%rax, %r12
 6316 13cb E8000000 		call	_ZNK8UnitTest15AssertException10LineNumberEv@PLT
 6316      00
 6317 13d0 4889EF   		movq	%rbp, %rdi
 6318 13d3 89C3     		movl	%eax, %ebx
 6319 13d5 E8000000 		call	_ZNK8UnitTest15AssertException8FilenameEv@PLT
 6319      00
 6320 13da 4889C1   		movq	%rax, %rcx
 6321 13dd 488B4424 		movq	56(%rsp), %rax
 6321      38
 6322 13e2 488D6C24 		leaq	64(%rsp), %rbp
 6322      40
 6323 13e7 4189D8   		movl	%ebx, %r8d
 6324 13ea 4889EF   		movq	%rbp, %rdi
 6325 13ed 488B5008 		movq	8(%rax), %rdx
 6326 13f1 488B7010 		movq	16(%rax), %rsi
 6327 13f5 E8000000 		call	_ZN8UnitTest11TestDetailsC1EPKcS2_S2_i@PLT
 6327      00
 6328 13fa 4C89E2   		movq	%r12, %rdx
 6329 13fd 4889EE   		movq	%rbp, %rsi
 6330 1400 4C89EF   		movq	%r13, %rdi
 6331 1403 E8000000 		call	_ZN8UnitTest11TestResults13OnTestFailureERKNS_11TestDetailsEPKc@PLT
 6331      00
 6332              	.LEHE172:
 6333              	.L618:
 6334 1408 488B8424 		movq	520(%rsp), %rax
 6334      08020000 
 6335 1410 64482B04 		subq	%fs:40, %rax
 6335      25280000 
 6335      00
 6336 1419 7516     		jne	.L616
 6337 141b 4881C418 		addq	$536, %rsp
 6337      020000
 6338              		.cfi_remember_state
 6339              		.cfi_def_cfa_offset 56
 6340 1422 5B       		popq	%rbx
 6341              		.cfi_def_cfa_offset 48
 6342 1423 5D       		popq	%rbp
 6343              		.cfi_def_cfa_offset 40
 6344 1424 415C     		popq	%r12
 6345              		.cfi_def_cfa_offset 32
 6346 1426 415D     		popq	%r13
 6347              		.cfi_def_cfa_offset 24
 6348 1428 415E     		popq	%r14
 6349              		.cfi_def_cfa_offset 16
 6350 142a 415F     		popq	%r15
 6351              		.cfi_def_cfa_offset 8
 6352 142c E9000000 		jmp	__cxa_end_catch@PLT
 6352      00
 6353              	.L616:
 6354              		.cfi_restore_state
 6355 1431 E8000000 		call	__stack_chk_fail@PLT
 6355      00
 6356              	.L620:
 6357 1436 E8000000 		call	__cxa_begin_catch@PLT
 6357      00
 6358 143b 4C89EF   		movq	%r13, %rdi
 6359 143e 4889C5   		movq	%rax, %rbp
 6360              	.LEHB173:
 6361 1441 E8000000 		call	_ZN8UnitTest15MemoryOutStreamC1Ev
 6361      00
 6362              	.LEHE173:
 6363 1446 BA150000 		movl	$21, %edx
 6363      00
 6364 144b 488D3500 		leaq	.LC16(%rip), %rsi
 6364      000000
 6365 1452 4C89EF   		movq	%r13, %rdi
 6366              	.LEHB174:
 6367 1455 E8000000 		call	_ZSt16__ostream_insertIcSt11char_traitsIcEERSt13basic_ostreamIT_T0_ES6_PKS3_l@PLT
 6367      00
 6368 145a 488B4500 		movq	0(%rbp), %rax
 6369 145e 4889EF   		movq	%rbp, %rdi
 6370 1461 FF5010   		call	*16(%rax)
 6371 1464 4C89EF   		movq	%r13, %rdi
 6372 1467 4889C6   		movq	%rax, %rsi
 6373 146a E8000000 		call	_ZStlsISt11char_traitsIcEERSt13basic_ostreamIcT_ES5_PKc@PLT
 6373      00
 6374 146f E8000000 		call	_ZN8UnitTest11CurrentTest7ResultsEv@PLT
 6374      00
 6375 1474 4C89EF   		movq	%r13, %rdi
 6376 1477 488B28   		movq	(%rax), %rbp
 6377 147a E8000000 		call	_ZNK8UnitTest15MemoryOutStream7GetTextEv@PLT
 6377      00
 6378 147f 488B7424 		movq	32(%rsp), %rsi
 6378      20
 6379 1484 4889C2   		movq	%rax, %rdx
 6380 1487 4889EF   		movq	%rbp, %rdi
 6381 148a E8000000 		call	_ZN8UnitTest11TestResults13OnTestFailureERKNS_11TestDetailsEPKc@PLT
 6381      00
 6382              	.LEHE174:
 6383 148f 4C89EF   		movq	%r13, %rdi
 6384              	.LEHB175:
 6385 1492 E8000000 		call	_ZN8UnitTest15MemoryOutStreamD1Ev
 6385      00
 6386              	.LEHE175:
 6387 1497 E96CFFFF 		jmp	.L618
 6387      FF
 6388              	.L597:
 6389 149c F30F1EFA 		endbr64
 6390 14a0 4C89EF   		movq	%r13, %rdi
 6391 14a3 4889C5   		movq	%rax, %rbp
 6392 14a6 E8000000 		call	_ZN8UnitTest15MemoryOutStreamD1Ev
 6392      00
 6393              	.L590:
 6394 14ab E8000000 		call	__cxa_end_catch@PLT
 6394      00
 6395 14b0 4889EF   		movq	%rbp, %rdi
 6396              	.LEHB176:
 6397 14b3 E8000000 		call	_Unwind_Resume@PLT
 6397      00
 6398              	.LEHE176:
 6399              	.L596:
 6400 14b8 F30F1EFA 		endbr64
 6401              	.L617:
 6402 14bc 4889C5   		movq	%rax, %rbp
 6403 14bf EBEA     		jmp	.L590
 6404              	.L621:
 6405              	.LEHB177:
 6406 14c1 E8000000 		call	_ZN8UnitTest11CurrentTest7ResultsEv@PLT
 6406      00
 6407 14c6 488D6C24 		leaq	64(%rsp), %rbp
 6407      40
 6408 14cb 488B7424 		movq	32(%rsp), %rsi
 6408      20
 6409 14d0 BA730000 		movl	$115, %edx
 6409      00
 6410 14d5 4C8B20   		movq	(%rax), %r12
 6411 14d8 4889EF   		movq	%rbp, %rdi
 6412 14db E8000000 		call	_ZN8UnitTest11TestDetailsC1ERKS0_i@PLT
 6412      00
 6413 14e0 488D1500 		leaq	.LC19(%rip), %rdx
 6413      000000
 6414 14e7 4889EE   		movq	%rbp, %rsi
 6415 14ea 4C89E7   		movq	%r12, %rdi
 6416 14ed E8000000 		call	_ZN8UnitTest11TestResults13OnTestFailureERKNS_11TestDetailsEPKc@PLT
 6416      00
 6417              	.LEHE177:
 6418 14f2 E912FEFF 		jmp	.L586
 6418      FF
 6419              	.L598:
 6420 14f7 F30F1EFA 		endbr64
 6421 14fb 4889C5   		movq	%rax, %rbp
 6422 14fe E8000000 		call	__cxa_end_catch@PLT
 6422      00
 6423 1503 4889EF   		movq	%rbp, %rdi
 6424              	.LEHB178:
 6425 1506 E8000000 		call	_Unwind_Resume@PLT
 6425      00
 6426              	.LEHE178:
 6427              	.L595:
 6428 150b F30F1EFA 		endbr64
 6429 150f EBAB     		jmp	.L617
 6430              		.cfi_endproc
 6431              	.LFE1512:
 6432              		.section	.gcc_except_table
 6433              		.align 4
 6434              	.LLSDAC1512:
 6435 0584 FF       		.byte	0xff
 6436 0585 9B       		.byte	0x9b
 6437 0586 49       		.uleb128 .LLSDATTC1512-.LLSDATTDC1512
 6438              	.LLSDATTDC1512:
 6439 0587 01       		.byte	0x1
 6440 0588 32       		.uleb128 .LLSDACSEC1512-.LLSDACSBC1512
 6441              	.LLSDACSBC1512:
 6442 0589 34       		.uleb128 .LEHB170-.LCOLDB47
 6443 058a 31       		.uleb128 .LEHE170-.LEHB170
 6444 058b D304     		.uleb128 .L598-.LCOLDB47
 6445 058d 00       		.uleb128 0
 6446 058e 8D01     		.uleb128 .LEHB171-.LCOLDB47
 6447 0590 05       		.uleb128 .LEHE171-.LEHB171
 6448 0591 00       		.uleb128 0
 6449 0592 00       		.uleb128 0
 6450 0593 8F02     		.uleb128 .LEHB172-.LCOLDB47
 6451 0595 55       		.uleb128 .LEHE172-.LEHB172
 6452 0596 E704     		.uleb128 .L595-.LCOLDB47
 6453 0598 00       		.uleb128 0
 6454 0599 9D03     		.uleb128 .LEHB173-.LCOLDB47
 6455 059b 05       		.uleb128 .LEHE173-.LEHB173
 6456 059c 9404     		.uleb128 .L596-.LCOLDB47
 6457 059e 00       		.uleb128 0
 6458 059f B103     		.uleb128 .LEHB174-.LCOLDB47
 6459 05a1 3A       		.uleb128 .LEHE174-.LEHB174
 6460 05a2 F803     		.uleb128 .L597-.LCOLDB47
 6461 05a4 00       		.uleb128 0
 6462 05a5 EE03     		.uleb128 .LEHB175-.LCOLDB47
 6463 05a7 05       		.uleb128 .LEHE175-.LEHB175
 6464 05a8 9404     		.uleb128 .L596-.LCOLDB47
 6465 05aa 00       		.uleb128 0
 6466 05ab 8F04     		.uleb128 .LEHB176-.LCOLDB47
 6467 05ad 05       		.uleb128 .LEHE176-.LEHB176
 6468 05ae 00       		.uleb128 0
 6469 05af 00       		.uleb128 0
 6470 05b0 9D04     		.uleb128 .LEHB177-.LCOLDB47
 6471 05b2 31       		.uleb128 .LEHE177-.LEHB177
 6472 05b3 D304     		.uleb128 .L598-.LCOLDB47
 6473 05b5 00       		.uleb128 0
 6474 05b6 E204     		.uleb128 .LEHB178-.LCOLDB47
 6475 05b8 05       		.uleb128 .LEHE178-.LEHB178
 6476 05b9 00       		.uleb128 0
 6477 05ba 00       		.uleb128 0
 6478              	.LLSDACSEC1512:
 6479 05bb 03       		.byte	0x3
 6480 05bc 00       		.byte	0
 6481 05bd 02       		.byte	0x2
 6482 05be 7D       		.byte	0x7d
 6483 05bf 01       		.byte	0x1
 6484 05c0 7D       		.byte	0x7d
 6485 05c1 00       		.byte	0
 6486 05c2 7D       		.byte	0x7d
 6487 05c3 00       		.align 4
 6488 05c4 00000000 		.long	0
 6489              	
 6490 05c8 00000000 		.long	DW.ref._ZTISt9exception-.
 6491 05cc 00000000 		.long	DW.ref._ZTIN8UnitTest15AssertExceptionE-.
 6492              	.LLSDATTC1512:
 6493              		.section	.text.unlikely
 6494              		.text
 6496              		.section	.text.unlikely
 6498              	.LCOLDE47:
 6499              		.text
 6500              	.LHOTE47:
 6501              		.section	.rodata.str1.1
 6502              	.LC48:
 6503 00ef 41204669 		.string	"A File"
 6503      6C6500
 6504              	.LC49:
 6505 00f6 41205465 		.string	"A Test"
 6505      737400
 6506              	.LC50:
 6507 00fd 41204661 		.string	"A Failure"
 6507      696C7572 
 6507      6500
 6508              		.section	.rodata.str1.8
 6509 044c 00000000 		.align 8
 6510              	.LC51:
 6511 0450 3C3F786D 		.string	"<?xml version=\"1.0\"?><unittest-results tests=\"1\" failedtests=\"1\" failures=\"1\" tim
 6511      6C207665 
 6511      7273696F 
 6511      6E3D2231 
 6511      2E30223F 
 6512              		.section	.text.unlikely
 6513              	.LCOLDB52:
 6514              		.text
 6515              	.LHOTB52:
 6516 1c41 66662E0F 		.p2align 4
 6516      1F840000 
 6516      0000000F 
 6516      1F4000
 6518              	_ZN8UnitTest11ExecuteTestIN12_GLOBAL__N_163XmlTestReporterFixtureSingleFailedTestReportSummaryForma
 6519              	.LFB1575:
 6520              		.cfi_startproc
 6521              		.cfi_personality 0x9b,DW.ref.__gxx_personality_v0
 6522              		.cfi_lsda 0x1b,.LLSDA1575
 6523 1c50 4156     		pushq	%r14
 6524              		.cfi_def_cfa_offset 16
 6525              		.cfi_offset 14, -16
 6526 1c52 4155     		pushq	%r13
 6527              		.cfi_def_cfa_offset 24
 6528              		.cfi_offset 13, -24
 6529 1c54 4154     		pushq	%r12
 6530              		.cfi_def_cfa_offset 32
 6531              		.cfi_offset 12, -32
 6532 1c56 55       		pushq	%rbp
 6533              		.cfi_def_cfa_offset 40
 6534              		.cfi_offset 6, -40
 6535 1c57 53       		pushq	%rbx
 6536              		.cfi_def_cfa_offset 48
 6537              		.cfi_offset 3, -48
 6538 1c58 4889F3   		movq	%rsi, %rbx
 6539 1c5b 4881ECD0 		subq	$1744, %rsp
 6539      060000
 6540              		.cfi_def_cfa_offset 1792
 6541 1c62 48893C24 		movq	%rdi, (%rsp)
 6542 1c66 48897424 		movq	%rsi, 8(%rsp)
 6542      08
 6543 1c6b 64488B04 		movq	%fs:40, %rax
 6543      25280000 
 6543      00
 6544 1c74 48898424 		movq	%rax, 1736(%rsp)
 6544      C8060000 
 6545 1c7c 31C0     		xorl	%eax, %eax
 6546              	.LEHB179:
 6547 1c7e E8000000 		call	_ZN8UnitTest11CurrentTest7DetailsEv@PLT
 6547      00
 6548              	.LEHE179:
 6549 1c83 488DBC24 		leaq	608(%rsp), %rdi
 6549      60020000 
 6550 1c8b 488918   		movq	%rbx, (%rax)
 6551              	.LEHB180:
 6552 1c8e E8000000 		call	_ZN8UnitTest16SignalTranslatorC1Ev@PLT
 6552      00
 6553              	.LEHE180:
 6554 1c93 488B3D00 		movq	_ZN8UnitTest16SignalTranslator12s_jumpTargetE(%rip), %rdi
 6554      000000
 6555 1c9a BE010000 		movl	$1, %esi
 6555      00
 6556 1c9f E8000000 		call	__sigsetjmp@PLT
 6556      00
 6557 1ca4 F30F1EFA 		endbr64
 6558 1ca8 85C0     		testl	%eax, %eax
 6559 1caa 0F850000 		jne	.L667
 6559      0000
 6560 1cb0 488D7C24 		leaq	64(%rsp), %rdi
 6560      40
 6561 1cb5 41B8E110 		movl	$4321, %r8d
 6561      0000
 6562 1cbb 488D0D00 		leaq	.LC48(%rip), %rcx
 6562      000000
 6563 1cc2 488D1500 		leaq	.LC28(%rip), %rdx
 6563      000000
 6564 1cc9 488D3500 		leaq	.LC49(%rip), %rsi
 6564      000000
 6565              	.LEHB181:
 6566 1cd0 E8000000 		call	_ZN8UnitTest11TestDetailsC1EPKcS2_S2_i@PLT
 6566      00
 6567 1cd5 488B1C24 		movq	(%rsp), %rbx
 6568 1cd9 488D7424 		leaq	64(%rsp), %rsi
 6568      40
 6569 1cde 488DAB78 		leaq	376(%rbx), %rbp
 6569      010000
 6570 1ce5 4889EF   		movq	%rbp, %rdi
 6571 1ce8 E8000000 		call	_ZN8UnitTest20DeferredTestReporter15ReportTestStartERKNS_11TestDetailsE@PLT
 6571      00
 6572 1ced 488D7424 		leaq	64(%rsp), %rsi
 6572      40
 6573 1cf2 488D1500 		leaq	.LC50(%rip), %rdx
 6573      000000
 6574 1cf9 4889EF   		movq	%rbp, %rdi
 6575 1cfc E8000000 		call	_ZN8UnitTest20DeferredTestReporter13ReportFailureERKNS_11TestDetailsEPKc@PLT
 6575      00
 6576 1d01 F30F1005 		movss	.LC32(%rip), %xmm0
 6576      00000000 
 6577 1d09 B9010000 		movl	$1, %ecx
 6577      00
 6578 1d0e BA010000 		movl	$1, %edx
 6578      00
 6579 1d13 4889EF   		movq	%rbp, %rdi
 6580 1d16 BE010000 		movl	$1, %esi
 6580      00
 6581 1d1b E8000000 		call	_ZN8UnitTest15XmlTestReporter13ReportSummaryEiiif@PLT
 6581      00
 6582              	.LEHE181:
 6583 1d20 488D0500 		leaq	.LC51(%rip), %rax
 6583      000000
 6584 1d27 48894424 		movq	%rax, 24(%rsp)
 6584      18
 6585              	.LEHB182:
 6586 1d2c E8000000 		call	_ZN8UnitTest11CurrentTest7DetailsEv@PLT
 6586      00
 6587 1d31 488B30   		movq	(%rax), %rsi
 6588 1d34 488DBC24 		leaq	128(%rsp), %rdi
 6588      80000000 
 6589 1d3c BA700000 		movl	$112, %edx
 6589      00
 6590 1d41 E8000000 		call	_ZN8UnitTest11TestDetailsC1ERKS0_i@PLT
 6590      00
 6591              	.LEHE182:
 6592 1d46 488D8424 		leaq	176(%rsp), %rax
 6592      B0000000 
 6593 1d4e C68424B0 		movb	$0, 176(%rsp)
 6593      00000000 
 6594 1d56 488DBC24 		leaq	160(%rsp), %rdi
 6594      A0000000 
 6595 1d5e 48898424 		movq	%rax, 160(%rsp)
 6595      A0000000 
 6596 1d66 488B4330 		movq	48(%rbx), %rax
 6597 1d6a 48C78424 		movq	$0, 168(%rsp)
 6597      A8000000 
 6597      00000000 
 6598 1d76 4885C0   		testq	%rax, %rax
 6599 1d79 0F84B100 		je	.L625
 6599      0000
 6600 1d7f 4C8B4320 		movq	32(%rbx), %r8
 6601 1d83 4D85C0   		testq	%r8, %r8
 6602 1d86 0F849400 		je	.L664
 6602      0000
 6603 1d8c 4C39C0   		cmpq	%r8, %rax
 6604 1d8f 0F878B00 		ja	.L664
 6604      0000
 6605              	.L626:
 6606 1d95 488B0424 		movq	(%rsp), %rax
 6607 1d99 488DBC24 		leaq	160(%rsp), %rdi
 6607      A0000000 
 6608 1da1 31D2     		xorl	%edx, %edx
 6609 1da3 31F6     		xorl	%esi, %esi
 6610 1da5 488B4828 		movq	40(%rax), %rcx
 6611 1da9 4929C8   		subq	%rcx, %r8
 6612              	.LEHB183:
 6613 1dac E8000000 		call	_ZNSt7__cxx1112basic_stringIcSt11char_traitsIcESaIcEE10_M_replaceEmmPKcm@PLT
 6613      00
 6614              	.LEHE183:
 6615              	.L629:
 6616              	.LEHB184:
 6617 1db1 E8000000 		call	_ZN8UnitTest11CurrentTest7ResultsEv@PLT
 6617      00
 6618 1db6 488B38   		movq	(%rax), %rdi
 6619 1db9 488D8C24 		leaq	128(%rsp), %rcx
 6619      80000000 
 6620 1dc1 488D7424 		leaq	24(%rsp), %rsi
 6620      18
 6621 1dc6 488D9424 		leaq	160(%rsp), %rdx
 6621      A0000000 
 6622 1dce E8000000 		call	_ZN8UnitTest10CheckEqualIPKcNSt7__cxx1112basic_stringIcSt11char_traitsIcESaIcEEEEEvRNS_11Test
 6622      00
 6623              	.LEHE184:
 6624 1dd3 488BBC24 		movq	160(%rsp), %rdi
 6624      A0000000 
 6625 1ddb 488D8424 		leaq	176(%rsp), %rax
 6625      B0000000 
 6626 1de3 4839C7   		cmpq	%rax, %rdi
 6627 1de6 7405     		je	.L635
 6628 1de8 E8000000 		call	_ZdlPv@PLT
 6628      00
 6629              	.L635:
 6630 1ded 488DBC24 		leaq	608(%rsp), %rdi
 6630      60020000 
 6631              	.LEHB185:
 6632 1df5 E8000000 		call	_ZN8UnitTest16SignalTranslatorD1Ev@PLT
 6632      00
 6633              	.LEHE185:
 6634              	.L622:
 6635 1dfa 488B8424 		movq	1736(%rsp), %rax
 6635      C8060000 
 6636 1e02 64482B04 		subq	%fs:40, %rax
 6636      25280000 
 6636      00
 6637 1e0b 7535     		jne	.L671
 6638 1e0d 4881C4D0 		addq	$1744, %rsp
 6638      060000
 6639              		.cfi_remember_state
 6640              		.cfi_def_cfa_offset 48
 6641 1e14 5B       		popq	%rbx
 6642              		.cfi_def_cfa_offset 40
 6643 1e15 5D       		popq	%rbp
 6644              		.cfi_def_cfa_offset 32
 6645 1e16 415C     		popq	%r12
 6646              		.cfi_def_cfa_offset 24
 6647 1e18 415D     		popq	%r13
 6648              		.cfi_def_cfa_offset 16
 6649 1e1a 415E     		popq	%r14
 6650              		.cfi_def_cfa_offset 8
 6651 1e1c C3       		ret
 6652 1e1d 0F1F00   		.p2align 4,,10
 6653              		.p2align 3
 6654              	.L664:
 6655              		.cfi_restore_state
 6656 1e20 4989C0   		movq	%rax, %r8
 6657 1e23 E96DFFFF 		jmp	.L626
 6657      FF
 6658 1e28 0F1F8400 		.p2align 4,,10
 6658      00000000 
 6659              		.p2align 3
 6660              	.L625:
 6661 1e30 488B3424 		movq	(%rsp), %rsi
 6662 1e34 4883C650 		addq	$80, %rsi
 6663              	.LEHB186:
 6664 1e38 E8000000 		call	_ZNSt7__cxx1112basic_stringIcSt11char_traitsIcESaIcEE9_M_assignERKS4_@PLT
 6664      00
 6665              	.LEHE186:
 6666 1e3d E96FFFFF 		jmp	.L629
 6666      FF
 6667              	.L671:
 6668 1e42 E8000000 		call	__stack_chk_fail@PLT
 6668      00
 6669              	.L661:
 6670 1e47 F30F1EFA 		endbr64
 6671 1e4b 4889C7   		movq	%rax, %rdi
 6672 1e4e E9000000 		jmp	.L632
 6672      00
 6673              	.L665:
 6674 1e53 F30F1EFA 		endbr64
 6675 1e57 E9000000 		jmp	.L666
 6675      00
 6676              	.L654:
 6677 1e5c F30F1EFA 		endbr64
 6678 1e60 4889C7   		movq	%rax, %rdi
 6679 1e63 4889D0   		movq	%rdx, %rax
 6680 1e66 E9000000 		jmp	.L643
 6680      00
 6681              	.L662:
 6682 1e6b F30F1EFA 		endbr64
 6683 1e6f 4889C3   		movq	%rax, %rbx
 6684 1e72 E9000000 		jmp	.L638
 6684      00
 6685              	.L663:
 6686 1e77 F30F1EFA 		endbr64
 6687 1e7b 4889C3   		movq	%rax, %rbx
 6688 1e7e E9000000 		jmp	.L630
 6688      00
 6689              		.section	.gcc_except_table
 6690              		.align 4
 6691              	.LLSDA1575:
 6692 05d0 FF       		.byte	0xff
 6693 05d1 9B       		.byte	0x9b
 6694 05d2 45       		.uleb128 .LLSDATT1575-.LLSDATTD1575
 6695              	.LLSDATTD1575:
 6696 05d3 01       		.byte	0x1
 6697 05d4 2D       		.uleb128 .LLSDACSE1575-.LLSDACSB1575
 6698              	.LLSDACSB1575:
 6699 05d5 2E       		.uleb128 .LEHB179-.LFB1575
 6700 05d6 05       		.uleb128 .LEHE179-.LEHB179
 6701 05d7 00       		.uleb128 0
 6702 05d8 00       		.uleb128 0
 6703 05d9 3E       		.uleb128 .LEHB180-.LFB1575
 6704 05da 05       		.uleb128 .LEHE180-.LEHB180
 6705 05db 8C04     		.uleb128 .L654-.LFB1575
 6706 05dd 05       		.uleb128 0x5
 6707 05de 8001     		.uleb128 .LEHB181-.LFB1575
 6708 05e0 50       		.uleb128 .LEHE181-.LEHB181
 6709 05e1 8304     		.uleb128 .L665-.LFB1575
 6710 05e3 07       		.uleb128 0x7
 6711 05e4 DC01     		.uleb128 .LEHB182-.LFB1575
 6712 05e6 1A       		.uleb128 .LEHE182-.LEHB182
 6713 05e7 F703     		.uleb128 .L661-.LFB1575
 6714 05e9 01       		.uleb128 0x1
 6715 05ea DC02     		.uleb128 .LEHB183-.LFB1575
 6716 05ec 05       		.uleb128 .LEHE183-.LEHB183
 6717 05ed A704     		.uleb128 .L663-.LFB1575
 6718 05ef 01       		.uleb128 0x1
 6719 05f0 E102     		.uleb128 .LEHB184-.LFB1575
 6720 05f2 22       		.uleb128 .LEHE184-.LEHB184
 6721 05f3 9B04     		.uleb128 .L662-.LFB1575
 6722 05f5 01       		.uleb128 0x1
 6723 05f6 A503     		.uleb128 .LEHB185-.LFB1575
 6724 05f8 05       		.uleb128 .LEHE185-.LEHB185
 6725 05f9 8C04     		.uleb128 .L654-.LFB1575
 6726 05fb 05       		.uleb128 0x5
 6727 05fc E803     		.uleb128 .LEHB186-.LFB1575
 6728 05fe 05       		.uleb128 .LEHE186-.LEHB186
 6729 05ff A704     		.uleb128 .L663-.LFB1575
 6730 0601 01       		.uleb128 0x1
 6731              	.LLSDACSE1575:
 6732 0602 03       		.byte	0x3
 6733 0603 00       		.byte	0
 6734 0604 02       		.byte	0x2
 6735 0605 7D       		.byte	0x7d
 6736 0606 01       		.byte	0x1
 6737 0607 7D       		.byte	0x7d
 6738 0608 00       		.byte	0
 6739 0609 7D       		.byte	0x7d
 6740 060a 0000     		.align 4
 6741 060c 00000000 		.long	0
 6742              	
 6743 0610 00000000 		.long	DW.ref._ZTISt9exception-.
 6744 0614 00000000 		.long	DW.ref._ZTIN8UnitTest15AssertExceptionE-.
 6745              	.LLSDATT1575:
 6746              		.text
 6747              		.cfi_endproc
 6748              		.section	.text.unlikely
 6749              		.cfi_startproc
 6750              		.cfi_personality 0x9b,DW.ref.__gxx_personality_v0
 6751              		.cfi_lsda 0x1b,.LLSDAC1575
 6753              	_ZN8UnitTest11ExecuteTestIN12_GLOBAL__N_163XmlTestReporterFixtureSingleFailedTestReportSummaryForma
 6754              	.LFSB1575:
 6755              	.L667:
 6756              		.cfi_def_cfa_offset 1792
 6757              		.cfi_offset 3, -48
 6758              		.cfi_offset 6, -40
 6759              		.cfi_offset 12, -32
 6760              		.cfi_offset 13, -24
 6761              		.cfi_offset 14, -16
 6762 1511 BF080000 		movl	$8, %edi
 6762      00
 6763 1516 E8000000 		call	__cxa_allocate_exception@PLT
 6763      00
 6764 151b 31D2     		xorl	%edx, %edx
 6765 151d 488D3500 		leaq	_ZTIPKc(%rip), %rsi
 6765      000000
 6766 1524 4889C7   		movq	%rax, %rdi
 6767 1527 488D0500 		leaq	.LC8(%rip), %rax
 6767      000000
 6768 152e 488907   		movq	%rax, (%rdi)
 6769              	.LEHB187:
 6770 1531 E8000000 		call	__cxa_throw@PLT
 6770      00
 6771              	.LEHE187:
 6772              	.L655:
 6773 1536 F30F1EFA 		endbr64
 6774              	.L666:
 6775 153a 4889C5   		movq	%rax, %rbp
 6776 153d 4889D3   		movq	%rdx, %rbx
 6777 1540 EB6E     		jmp	.L642
 6778              	.L630:
 6779 1542 488BBC24 		movq	160(%rsp), %rdi
 6779      A0000000 
 6780 154a 488D8424 		leaq	176(%rsp), %rax
 6780      B0000000 
 6781 1552 4839C7   		cmpq	%rax, %rdi
 6782 1555 7405     		je	.L633
 6783 1557 E8000000 		call	_ZdlPv@PLT
 6783      00
 6784              	.L633:
 6785 155c 4889DF   		movq	%rbx, %rdi
 6786              	.L632:
 6787 155f E8000000 		call	__cxa_begin_catch@PLT
 6787      00
 6788              	.LEHB188:
 6789 1564 E8000000 		call	_ZN8UnitTest11CurrentTest7ResultsEv@PLT
 6789      00
 6790 1569 488B28   		movq	(%rax), %rbp
 6791 156c E8000000 		call	_ZN8UnitTest11CurrentTest7DetailsEv@PLT
 6791      00
 6792 1571 488B30   		movq	(%rax), %rsi
 6793 1574 488D7C24 		leaq	96(%rsp), %rdi
 6793      60
 6794 1579 BA700000 		movl	$112, %edx
 6794      00
 6795 157e E8000000 		call	_ZN8UnitTest11TestDetailsC1ERKS0_i@PLT
 6795      00
 6796 1583 488D7424 		leaq	96(%rsp), %rsi
 6796      60
 6797 1588 488D1500 		leaq	.LC35(%rip), %rdx
 6797      000000
 6798 158f 4889EF   		movq	%rbp, %rdi
 6799 1592 E8000000 		call	_ZN8UnitTest11TestResults13OnTestFailureERKNS_11TestDetailsEPKc@PLT
 6799      00
 6800              	.LEHE188:
 6801              	.LEHB189:
 6802 1597 E8000000 		call	__cxa_end_catch@PLT
 6802      00
 6803              	.LEHE189:
 6804 159c E9000000 		jmp	.L635
 6804      00
 6805              	.L660:
 6806 15a1 F30F1EFA 		endbr64
 6807 15a5 4889C5   		movq	%rax, %rbp
 6808 15a8 4889D3   		movq	%rdx, %rbx
 6809 15ab E8000000 		call	__cxa_end_catch@PLT
 6809      00
 6810              	.L642:
 6811 15b0 488DBC24 		leaq	608(%rsp), %rdi
 6811      60020000 
 6812 15b8 E8000000 		call	_ZN8UnitTest16SignalTranslatorD1Ev@PLT
 6812      00
 6813 15bd 4889EF   		movq	%rbp, %rdi
 6814 15c0 4889D8   		movq	%rbx, %rax
 6815              	.L643:
 6816 15c3 4883F801 		cmpq	$1, %rax
 6817 15c7 7454     		je	.L644
 6818 15c9 4883F802 		cmpq	$2, %rax
 6819 15cd 0F84C400 		je	.L672
 6819      0000
 6820 15d3 E8000000 		call	__cxa_begin_catch@PLT
 6820      00
 6821              	.LEHB190:
 6822 15d8 E8000000 		call	_ZN8UnitTest11CurrentTest7ResultsEv@PLT
 6822      00
 6823 15dd 488B7424 		movq	8(%rsp), %rsi
 6823      08
 6824 15e2 488B38   		movq	(%rax), %rdi
 6825 15e5 488D1500 		leaq	.LC17(%rip), %rdx
 6825      000000
 6826 15ec E8000000 		call	_ZN8UnitTest11TestResults13OnTestFailureERKNS_11TestDetailsEPKc@PLT
 6826      00
 6827              	.LEHE190:
 6828              	.LEHB191:
 6829 15f1 E8000000 		call	__cxa_end_catch@PLT
 6829      00
 6830              	.LEHE191:
 6831 15f6 E9000000 		jmp	.L622
 6831      00
 6832              	.L638:
 6833 15fb 488BBC24 		movq	160(%rsp), %rdi
 6833      A0000000 
 6834 1603 488D8424 		leaq	176(%rsp), %rax
 6834      B0000000 
 6835 160b 4839C7   		cmpq	%rax, %rdi
 6836 160e 7405     		je	.L640
 6837 1610 E8000000 		call	_ZdlPv@PLT
 6837      00
 6838              	.L640:
 6839 1615 4889DF   		movq	%rbx, %rdi
 6840 1618 E942FFFF 		jmp	.L632
 6840      FF
 6841              	.L644:
 6842 161d E8000000 		call	__cxa_begin_catch@PLT
 6842      00
 6843 1622 4889C5   		movq	%rax, %rbp
 6844              	.LEHB192:
 6845 1625 E8000000 		call	_ZN8UnitTest11CurrentTest7ResultsEv@PLT
 6845      00
 6846 162a 4C8B28   		movq	(%rax), %r13
 6847 162d 488B4500 		movq	0(%rbp), %rax
 6848 1631 4889EF   		movq	%rbp, %rdi
 6849 1634 FF5010   		call	*16(%rax)
 6850 1637 4889EF   		movq	%rbp, %rdi
 6851 163a 4989C6   		movq	%rax, %r14
 6852 163d E8000000 		call	_ZNK8UnitTest15AssertException10LineNumberEv@PLT
 6852      00
 6853 1642 4889EF   		movq	%rbp, %rdi
 6854 1645 4189C4   		movl	%eax, %r12d
 6855 1648 E8000000 		call	_ZNK8UnitTest15AssertException8FilenameEv@PLT
 6855      00
 6856 164d 4889C1   		movq	%rax, %rcx
 6857 1650 488B4424 		movq	8(%rsp), %rax
 6857      08
 6858 1655 488D7C24 		leaq	32(%rsp), %rdi
 6858      20
 6859 165a 4589E0   		movl	%r12d, %r8d
 6860 165d 488B7008 		movq	8(%rax), %rsi
 6861 1661 488B10   		movq	(%rax), %rdx
 6862 1664 E8000000 		call	_ZN8UnitTest11TestDetailsC1EPKcS2_S2_i@PLT
 6862      00
 6863 1669 488D7424 		leaq	32(%rsp), %rsi
 6863      20
 6864 166e 4C89F2   		movq	%r14, %rdx
 6865 1671 4C89EF   		movq	%r13, %rdi
 6866 1674 E8000000 		call	_ZN8UnitTest11TestResults13OnTestFailureERKNS_11TestDetailsEPKc@PLT
 6866      00
 6867              	.LEHE192:
 6868 1679 E8000000 		call	__cxa_end_catch@PLT
 6868      00
 6869 167e E9000000 		jmp	.L622
 6869      00
 6870              	.L656:
 6871 1683 F30F1EFA 		endbr64
 6872 1687 4889C5   		movq	%rax, %rbp
 6873 168a E8000000 		call	__cxa_end_catch@PLT
 6873      00
 6874 168f 4889EF   		movq	%rbp, %rdi
 6875              	.LEHB193:
 6876 1692 E8000000 		call	_Unwind_Resume@PLT
 6876      00
 6877              	.LEHE193:
 6878              	.L672:
 6879 1697 E8000000 		call	__cxa_begin_catch@PLT
 6879      00
 6880 169c 488DBC24 		leaq	192(%rsp), %rdi
 6880      C0000000 
 6881 16a4 4889C5   		movq	%rax, %rbp
 6882              	.LEHB194:
 6883 16a7 E8000000 		call	_ZN8UnitTest15MemoryOutStreamC1Ev
 6883      00
 6884              	.LEHE194:
 6885 16ac 488DBC24 		leaq	192(%rsp), %rdi
 6885      C0000000 
 6886 16b4 BA150000 		movl	$21, %edx
 6886      00
 6887 16b9 488D3500 		leaq	.LC16(%rip), %rsi
 6887      000000
 6888              	.LEHB195:
 6889 16c0 E8000000 		call	_ZSt16__ostream_insertIcSt11char_traitsIcEERSt13basic_ostreamIT_T0_ES6_PKS3_l@PLT
 6889      00
 6890 16c5 488B4500 		movq	0(%rbp), %rax
 6891 16c9 4889EF   		movq	%rbp, %rdi
 6892 16cc FF5010   		call	*16(%rax)
 6893 16cf 488DBC24 		leaq	192(%rsp), %rdi
 6893      C0000000 
 6894 16d7 4889C6   		movq	%rax, %rsi
 6895 16da E8000000 		call	_ZStlsISt11char_traitsIcEERSt13basic_ostreamIcT_ES5_PKc@PLT
 6895      00
 6896 16df E8000000 		call	_ZN8UnitTest11CurrentTest7ResultsEv@PLT
 6896      00
 6897 16e4 488DBC24 		leaq	192(%rsp), %rdi
 6897      C0000000 
 6898 16ec 488B28   		movq	(%rax), %rbp
 6899 16ef E8000000 		call	_ZNK8UnitTest15MemoryOutStream7GetTextEv@PLT
 6899      00
 6900 16f4 488B7424 		movq	8(%rsp), %rsi
 6900      08
 6901 16f9 4889C2   		movq	%rax, %rdx
 6902 16fc 4889EF   		movq	%rbp, %rdi
 6903 16ff E8000000 		call	_ZN8UnitTest11TestResults13OnTestFailureERKNS_11TestDetailsEPKc@PLT
 6903      00
 6904              	.LEHE195:
 6905 1704 488DBC24 		leaq	192(%rsp), %rdi
 6905      C0000000 
 6906              	.LEHB196:
 6907 170c E8000000 		call	_ZN8UnitTest15MemoryOutStreamD1Ev
 6907      00
 6908              	.LEHE196:
 6909 1711 E8000000 		call	__cxa_end_catch@PLT
 6909      00
 6910 1716 E9000000 		jmp	.L622
 6910      00
 6911              	.L658:
 6912 171b F30F1EFA 		endbr64
 6913 171f 488DBC24 		leaq	192(%rsp), %rdi
 6913      C0000000 
 6914 1727 4889C5   		movq	%rax, %rbp
 6915 172a E8000000 		call	_ZN8UnitTest15MemoryOutStreamD1Ev
 6915      00
 6916              	.L651:
 6917 172f E8000000 		call	__cxa_end_catch@PLT
 6917      00
 6918 1734 4889EF   		movq	%rbp, %rdi
 6919              	.LEHB197:
 6920 1737 E8000000 		call	_Unwind_Resume@PLT
 6920      00
 6921              	.LEHE197:
 6922              	.L657:
 6923 173c F30F1EFA 		endbr64
 6924 1740 4889C5   		movq	%rax, %rbp
 6925 1743 EBEA     		jmp	.L651
 6926              	.L659:
 6927 1745 F30F1EFA 		endbr64
 6928 1749 4889C5   		movq	%rax, %rbp
 6929 174c E8000000 		call	__cxa_end_catch@PLT
 6929      00
 6930 1751 4889EF   		movq	%rbp, %rdi
 6931              	.LEHB198:
 6932 1754 E8000000 		call	_Unwind_Resume@PLT
 6932      00
 6933              	.LEHE198:
 6934              		.cfi_endproc
 6935              	.LFE1575:
 6936              		.section	.gcc_except_table
 6937              		.align 4
 6938              	.LLSDAC1575:
 6939 0618 FF       		.byte	0xff
 6940 0619 9B       		.byte	0x9b
 6941 061a 59       		.uleb128 .LLSDATTC1575-.LLSDATTDC1575
 6942              	.LLSDATTDC1575:
 6943 061b 01       		.byte	0x1
 6944 061c 40       		.uleb128 .LLSDACSEC1575-.LLSDACSBC1575
 6945              	.LLSDACSBC1575:
 6946 061d 20       		.uleb128 .LEHB187-.LCOLDB52
 6947 061e 05       		.uleb128 .LEHE187-.LEHB187
 6948 061f 25       		.uleb128 .L655-.LCOLDB52
 6949 0620 07       		.uleb128 0x7
 6950 0621 53       		.uleb128 .LEHB188-.LCOLDB52
 6951 0622 33       		.uleb128 .LEHE188-.LEHB188
 6952 0623 9001     		.uleb128 .L660-.LCOLDB52
 6953 0625 07       		.uleb128 0x7
 6954 0626 8601     		.uleb128 .LEHB189-.LCOLDB52
 6955 0628 05       		.uleb128 .LEHE189-.LEHB189
 6956 0629 25       		.uleb128 .L655-.LCOLDB52
 6957 062a 07       		.uleb128 0x7
 6958 062b C701     		.uleb128 .LEHB190-.LCOLDB52
 6959 062d 19       		.uleb128 .LEHE190-.LEHB190
 6960 062e B404     		.uleb128 .L659-.LCOLDB52
 6961 0630 00       		.uleb128 0
 6962 0631 E001     		.uleb128 .LEHB191-.LCOLDB52
 6963 0633 05       		.uleb128 .LEHE191-.LEHB191
 6964 0634 00       		.uleb128 0
 6965 0635 00       		.uleb128 0
 6966 0636 9402     		.uleb128 .LEHB192-.LCOLDB52
 6967 0638 54       		.uleb128 .LEHE192-.LEHB192
 6968 0639 F202     		.uleb128 .L656-.LCOLDB52
 6969 063b 00       		.uleb128 0
 6970 063c 8103     		.uleb128 .LEHB193-.LCOLDB52
 6971 063e 05       		.uleb128 .LEHE193-.LEHB193
 6972 063f 00       		.uleb128 0
 6973 0640 00       		.uleb128 0
 6974 0641 9603     		.uleb128 .LEHB194-.LCOLDB52
 6975 0643 05       		.uleb128 .LEHE194-.LEHB194
 6976 0644 AB04     		.uleb128 .L657-.LCOLDB52
 6977 0646 00       		.uleb128 0
 6978 0647 AF03     		.uleb128 .LEHB195-.LCOLDB52
 6979 0649 44       		.uleb128 .LEHE195-.LEHB195
 6980 064a 8A04     		.uleb128 .L658-.LCOLDB52
 6981 064c 00       		.uleb128 0
 6982 064d FB03     		.uleb128 .LEHB196-.LCOLDB52
 6983 064f 05       		.uleb128 .LEHE196-.LEHB196
 6984 0650 AB04     		.uleb128 .L657-.LCOLDB52
 6985 0652 00       		.uleb128 0
 6986 0653 A604     		.uleb128 .LEHB197-.LCOLDB52
 6987 0655 05       		.uleb128 .LEHE197-.LEHB197
 6988 0656 00       		.uleb128 0
 6989 0657 00       		.uleb128 0
 6990 0658 C304     		.uleb128 .LEHB198-.LCOLDB52
 6991 065a 05       		.uleb128 .LEHE198-.LEHB198
 6992 065b 00       		.uleb128 0
 6993 065c 00       		.uleb128 0
 6994              	.LLSDACSEC1575:
 6995 065d 03       		.byte	0x3
 6996 065e 00       		.byte	0
 6997 065f 02       		.byte	0x2
 6998 0660 7D       		.byte	0x7d
 6999 0661 01       		.byte	0x1
 7000 0662 7D       		.byte	0x7d
 7001 0663 00       		.byte	0
 7002 0664 7D       		.byte	0x7d
 7003 0665 000000   		.align 4
 7004 0668 00000000 		.long	0
 7005              	
 7006 066c 00000000 		.long	DW.ref._ZTISt9exception-.
 7007 0670 00000000 		.long	DW.ref._ZTIN8UnitTest15AssertExceptionE-.
 7008              	.LLSDATTC1575:
 7009              		.section	.text.unlikely
 7010              		.text
 7012              		.section	.text.unlikely
 7014              	.LCOLDE52:
 7015              		.text
 7016              	.LHOTE52:
 7017              		.section	.text.unlikely
 7018 1759 90       		.align 2
 7019              	.LCOLDB53:
 7020              		.text
 7021              	.LHOTB53:
 7022 1e83 90       		.align 2
 7023 1e84 66662E0F 		.p2align 4
 7023      1F840000 
 7023      00000090 
 7025              	_ZNK12_GLOBAL__N_161TestXmlTestReporterFixtureSingleFailedTestReportSummaryFormat7RunImplEv:
 7026              	.LFB1501:
 7027              		.cfi_startproc
 7028              		.cfi_personality 0x9b,DW.ref.__gxx_personality_v0
 7029              		.cfi_lsda 0x1b,.LLSDA1501
 7030 1e90 F30F1EFA 		endbr64
 7031 1e94 4157     		pushq	%r15
 7032              		.cfi_def_cfa_offset 16
 7033              		.cfi_offset 15, -16
 7034 1e96 4156     		pushq	%r14
 7035              		.cfi_def_cfa_offset 24
 7036              		.cfi_offset 14, -24
 7037 1e98 4155     		pushq	%r13
 7038              		.cfi_def_cfa_offset 32
 7039              		.cfi_offset 13, -32
 7040 1e9a 4154     		pushq	%r12
 7041              		.cfi_def_cfa_offset 40
 7042              		.cfi_offset 12, -40
 7043 1e9c 55       		pushq	%rbp
 7044              		.cfi_def_cfa_offset 48
 7045              		.cfi_offset 6, -48
 7046 1e9d 53       		pushq	%rbx
 7047              		.cfi_def_cfa_offset 56
 7048              		.cfi_offset 3, -56
 7049 1e9e 488D1D00 		leaq	16+_ZTVNSt7__cxx1115basic_stringbufIcSt11char_traitsIcESaIcEEE(%rip), %rbx
 7049      000000
 7050 1ea5 66480F6E 		movq	%rbx, %xmm3
 7050      DB
 7051 1eaa 4881EC18 		subq	$536, %rsp
 7051      020000
 7052              		.cfi_def_cfa_offset 592
 7053 1eb1 48897C24 		movq	%rdi, 56(%rsp)
 7053      38
 7054 1eb6 4C8DB424 		leaq	208(%rsp), %r14
 7054      D0000000 
 7055 1ebe 4C8D6C24 		leaq	96(%rsp), %r13
 7055      60
 7056 1ec3 64488B04 		movq	%fs:40, %rax
 7056      25280000 
 7056      00
 7057 1ecc 48898424 		movq	%rax, 520(%rsp)
 7057      08020000 
 7058 1ed4 488D0500 		leaq	24+_ZTVNSt7__cxx1119basic_ostringstreamIcSt11char_traitsIcESaIcEEE(%rip), %rax
 7058      000000
 7059 1edb 66480F6E 		movq	%rax, %xmm1
 7059      C8
 7060 1ee0 66480F6E 		movq	%rax, %xmm2
 7060      D0
 7061 1ee5 488D4708 		leaq	8(%rdi), %rax
 7062 1ee9 4C89F7   		movq	%r14, %rdi
 7063 1eec 660F6CCB 		punpcklqdq	%xmm3, %xmm1
 7064 1ef0 0F161500 		movhps	.LC21(%rip), %xmm2
 7064      000000
 7065 1ef7 48894424 		movq	%rax, 32(%rsp)
 7065      20
 7066 1efc 0F294C24 		movaps	%xmm1, 16(%rsp)
 7066      10
 7067 1f01 0F291424 		movaps	%xmm2, (%rsp)
 7068 1f05 E8000000 		call	_ZNSt8ios_baseC2Ev@PLT
 7068      00
 7069 1f0a 488D0500 		leaq	16+_ZTVSt9basic_iosIcSt11char_traitsIcEE(%rip), %rax
 7069      000000
 7070 1f11 660FEFC0 		pxor	%xmm0, %xmm0
 7071 1f15 31F6     		xorl	%esi, %esi
 7072 1f17 48898424 		movq	%rax, 208(%rsp)
 7072      D0000000 
 7073 1f1f 31C0     		xorl	%eax, %eax
 7074 1f21 66898424 		movw	%ax, 432(%rsp)
 7074      B0010000 
 7075 1f29 488B0500 		movq	8+_ZTTNSt7__cxx1119basic_ostringstreamIcSt11char_traitsIcESaIcEEE(%rip), %rax
 7075      000000
 7076 1f30 0F118424 		movups	%xmm0, 440(%rsp)
 7076      B8010000 
 7077 1f38 0F118424 		movups	%xmm0, 456(%rsp)
 7077      C8010000 
 7078 1f40 488B78E8 		movq	-24(%rax), %rdi
 7079 1f44 48894424 		movq	%rax, 96(%rsp)
 7079      60
 7080 1f49 488B0500 		movq	16+_ZTTNSt7__cxx1119basic_ostringstreamIcSt11char_traitsIcESaIcEEE(%rip), %rax
 7080      000000
 7081 1f50 48C78424 		movq	$0, 424(%rsp)
 7081      A8010000 
 7081      00000000 
 7082 1f5c 4C01EF   		addq	%r13, %rdi
 7083 1f5f 488907   		movq	%rax, (%rdi)
 7084              	.LEHB199:
 7085 1f62 E8000000 		call	_ZNSt9basic_iosIcSt11char_traitsIcEE4initEPSt15basic_streambufIcS1_E@PLT
 7085      00
 7086              	.LEHE199:
 7087 1f67 488D0500 		leaq	64+_ZTVNSt7__cxx1119basic_ostringstreamIcSt11char_traitsIcESaIcEEE(%rip), %rax
 7087      000000
 7088 1f6e 660F6F14 		movdqa	(%rsp), %xmm2
 7088      24
 7089 1f73 660FEFC0 		pxor	%xmm0, %xmm0
 7090 1f77 488D6C24 		leaq	104(%rsp), %rbp
 7090      68
 7091 1f7c 48898424 		movq	%rax, 208(%rsp)
 7091      D0000000 
 7092 1f84 488D8424 		leaq	160(%rsp), %rax
 7092      A0000000 
 7093 1f8c 4889C7   		movq	%rax, %rdi
 7094 1f8f 48890424 		movq	%rax, (%rsp)
 7095 1f93 0F295424 		movaps	%xmm2, 96(%rsp)
 7095      60
 7096 1f98 0F294424 		movaps	%xmm0, 112(%rsp)
 7096      70
 7097 1f9d 0F298424 		movaps	%xmm0, 128(%rsp)
 7097      80000000 
 7098 1fa5 0F298424 		movaps	%xmm0, 144(%rsp)
 7098      90000000 
 7099 1fad E8000000 		call	_ZNSt6localeC1Ev@PLT
 7099      00
 7100 1fb2 4889EE   		movq	%rbp, %rsi
 7101 1fb5 4C89F7   		movq	%r14, %rdi
 7102 1fb8 48895C24 		movq	%rbx, 104(%rsp)
 7102      68
 7103 1fbd 488D8424 		leaq	192(%rsp), %rax
 7103      C0000000 
 7104 1fc5 C68424C0 		movb	$0, 192(%rsp)
 7104      00000000 
 7105 1fcd C78424A8 		movl	$16, 168(%rsp)
 7105      00000010 
 7105      000000
 7106 1fd8 48894424 		movq	%rax, 40(%rsp)
 7106      28
 7107 1fdd 48898424 		movq	%rax, 176(%rsp)
 7107      B0000000 
 7108 1fe5 48C78424 		movq	$0, 184(%rsp)
 7108      B8000000 
 7108      00000000 
 7109              	.LEHB200:
 7110 1ff1 E8000000 		call	_ZNSt9basic_iosIcSt11char_traitsIcEE4initEPSt15basic_streambufIcS1_E@PLT
 7110      00
 7111              	.LEHE200:
 7112 1ff6 488D8424 		leaq	472(%rsp), %rax
 7112      D8010000 
 7113 1ffe 4C89EE   		movq	%r13, %rsi
 7114 2001 4889C7   		movq	%rax, %rdi
 7115 2004 48894424 		movq	%rax, 48(%rsp)
 7115      30
 7116              	.LEHB201:
 7117 2009 E8000000 		call	_ZN8UnitTest15XmlTestReporterC1ERSo@PLT
 7117      00
 7118              	.LEHE201:
 7119 200e 488B4424 		movq	32(%rsp), %rax
 7119      20
 7120 2013 4C89EF   		movq	%r13, %rdi
 7121 2016 4889C6   		movq	%rax, %rsi
 7122 2019 48898424 		movq	%rax, 512(%rsp)
 7122      00020000 
 7123              	.LEHB202:
 7124 2021 E82AFCFF 		call	_ZN8UnitTest11ExecuteTestIN12_GLOBAL__N_163XmlTestReporterFixtureSingleFailedTestReportSummar
 7124      FF
 7125              	.LEHE202:
 7126 2026 4C8BA424 		movq	488(%rsp), %r12
 7126      E8010000 
 7127 202e 488BAC24 		movq	480(%rsp), %rbp
 7127      E0010000 
 7128 2036 488D0500 		leaq	16+_ZTVN8UnitTest20DeferredTestReporterE(%rip), %rax
 7128      000000
 7129 203d 48898424 		movq	%rax, 472(%rsp)
 7129      D8010000 
 7130 2045 4939EC   		cmpq	%rbp, %r12
 7131 2048 0F849100 		je	.L680
 7131      0000
 7132 204e 6690     		.p2align 4,,10
 7133              		.p2align 3
 7134              	.L692:
 7135 2050 488B5D68 		movq	104(%rbp), %rbx
 7136 2054 4C8B7D60 		movq	96(%rbp), %r15
 7137 2058 4C39FB   		cmpq	%r15, %rbx
 7138 205b 7426     		je	.L681
 7139 205d 0F1F00   		.p2align 4,,10
 7140              		.p2align 3
 7141              	.L685:
 7142 2060 498B7F08 		movq	8(%r15), %rdi
 7143 2064 498D4718 		leaq	24(%r15), %rax
 7144 2068 4839C7   		cmpq	%rax, %rdi
 7145 206b 0F842701 		je	.L682
 7145      0000
 7146 2071 E8000000 		call	_ZdlPv@PLT
 7146      00
 7147 2076 4983C728 		addq	$40, %r15
 7148 207a 4939DF   		cmpq	%rbx, %r15
 7149 207d 75E1     		jne	.L685
 7150              	.L684:
 7151 207f 4C8B7D60 		movq	96(%rbp), %r15
 7152              	.L681:
 7153 2083 4D85FF   		testq	%r15, %r15
 7154 2086 7408     		je	.L686
 7155 2088 4C89FF   		movq	%r15, %rdi
 7156 208b E8000000 		call	_ZdlPv@PLT
 7156      00
 7157              	.L686:
 7158 2090 488B7D40 		movq	64(%rbp), %rdi
 7159 2094 488D4550 		leaq	80(%rbp), %rax
 7160 2098 4839C7   		cmpq	%rax, %rdi
 7161 209b 7405     		je	.L687
 7162 209d E8000000 		call	_ZdlPv@PLT
 7162      00
 7163              	.L687:
 7164 20a2 488B7D20 		movq	32(%rbp), %rdi
 7165 20a6 488D4530 		leaq	48(%rbp), %rax
 7166 20aa 4839C7   		cmpq	%rax, %rdi
 7167 20ad 7405     		je	.L688
 7168 20af E8000000 		call	_ZdlPv@PLT
 7168      00
 7169              	.L688:
 7170 20b4 488B7D00 		movq	0(%rbp), %rdi
 7171 20b8 488D4510 		leaq	16(%rbp), %rax
 7172 20bc 4839C7   		cmpq	%rax, %rdi
 7173 20bf 0F84EB00 		je	.L689
 7173      0000
 7174 20c5 E8000000 		call	_ZdlPv@PLT
 7174      00
 7175 20ca 4883ED80 		subq	$-128, %rbp
 7176 20ce 4939EC   		cmpq	%rbp, %r12
 7177 20d1 0F8579FF 		jne	.L692
 7177      FFFF
 7178              	.L691:
 7179 20d7 488BAC24 		movq	480(%rsp), %rbp
 7179      E0010000 
 7180              	.L680:
 7181 20df 4885ED   		testq	%rbp, %rbp
 7182 20e2 7408     		je	.L693
 7183 20e4 4889EF   		movq	%rbp, %rdi
 7184 20e7 E8000000 		call	_ZdlPv@PLT
 7184      00
 7185              	.L693:
 7186 20ec 488B7C24 		movq	48(%rsp), %rdi
 7186      30
 7187              	.LEHB203:
 7188 20f1 E8000000 		call	_ZN8UnitTest12TestReporterD2Ev@PLT
 7188      00
 7189              	.LEHE203:
 7190 20f6 660F6F64 		movdqa	16(%rsp), %xmm4
 7190      2410
 7191 20fc 488D0500 		leaq	64+_ZTVNSt7__cxx1119basic_ostringstreamIcSt11char_traitsIcESaIcEEE(%rip), %rax
 7191      000000
 7192 2103 488BBC24 		movq	176(%rsp), %rdi
 7192      B0000000 
 7193 210b 48898424 		movq	%rax, 208(%rsp)
 7193      D0000000 
 7194 2113 0F296424 		movaps	%xmm4, 96(%rsp)
 7194      60
 7195 2118 483B7C24 		cmpq	40(%rsp), %rdi
 7195      28
 7196 211d 7405     		je	.L694
 7197 211f E8000000 		call	_ZdlPv@PLT
 7197      00
 7198              	.L694:
 7199 2124 488B3C24 		movq	(%rsp), %rdi
 7200 2128 488D0500 		leaq	16+_ZTVSt15basic_streambufIcSt11char_traitsIcEE(%rip), %rax
 7200      000000
 7201 212f 48894424 		movq	%rax, 104(%rsp)
 7201      68
 7202 2134 E8000000 		call	_ZNSt6localeD1Ev@PLT
 7202      00
 7203 2139 488B0500 		movq	8+_ZTTNSt7__cxx1119basic_ostringstreamIcSt11char_traitsIcESaIcEEE(%rip), %rax
 7203      000000
 7204 2140 488B0D00 		movq	16+_ZTTNSt7__cxx1119basic_ostringstreamIcSt11char_traitsIcESaIcEEE(%rip), %rcx
 7204      000000
 7205 2147 4C89F7   		movq	%r14, %rdi
 7206 214a 48894424 		movq	%rax, 96(%rsp)
 7206      60
 7207 214f 488B40E8 		movq	-24(%rax), %rax
 7208 2153 48894C04 		movq	%rcx, 96(%rsp,%rax)
 7208      60
 7209 2158 488D0500 		leaq	16+_ZTVSt9basic_iosIcSt11char_traitsIcEE(%rip), %rax
 7209      000000
 7210 215f 48898424 		movq	%rax, 208(%rsp)
 7210      D0000000 
 7211              	.LEHB204:
 7212 2167 E8000000 		call	_ZNSt8ios_baseD2Ev@PLT
 7212      00
 7213              	.LEHE204:
 7214 216c 488B8424 		movq	520(%rsp), %rax
 7214      08020000 
 7215 2174 64482B04 		subq	%fs:40, %rax
 7215      25280000 
 7215      00
 7216 217d 7543     		jne	.L739
 7217 217f 4881C418 		addq	$536, %rsp
 7217      020000
 7218              		.cfi_remember_state
 7219              		.cfi_def_cfa_offset 56
 7220 2186 5B       		popq	%rbx
 7221              		.cfi_def_cfa_offset 48
 7222 2187 5D       		popq	%rbp
 7223              		.cfi_def_cfa_offset 40
 7224 2188 415C     		popq	%r12
 7225              		.cfi_def_cfa_offset 32
 7226 218a 415D     		popq	%r13
 7227              		.cfi_def_cfa_offset 24
 7228 218c 415E     		popq	%r14
 7229              		.cfi_def_cfa_offset 16
 7230 218e 415F     		popq	%r15
 7231              		.cfi_def_cfa_offset 8
 7232 2190 C3       		ret
 7233              		.p2align 4,,10
 7234 2191 0F1F8000 		.p2align 3
 7234      000000
 7235              	.L682:
 7236              		.cfi_restore_state
 7237 2198 4983C728 		addq	$40, %r15
 7238 219c 4C39FB   		cmpq	%r15, %rbx
 7239 219f 0F85BBFE 		jne	.L685
 7239      FFFF
 7240 21a5 E9D5FEFF 		jmp	.L684
 7240      FF
 7241 21aa 660F1F44 		.p2align 4,,10
 7241      0000
 7242              		.p2align 3
 7243              	.L689:
 7244 21b0 4883ED80 		subq	$-128, %rbp
 7245 21b4 4939EC   		cmpq	%rbp, %r12
 7246 21b7 0F8593FE 		jne	.L692
 7246      FFFF
 7247 21bd E915FFFF 		jmp	.L691
 7247      FF
 7248              	.L739:
 7249 21c2 E8000000 		call	__stack_chk_fail@PLT
 7249      00
 7250              	.L713:
 7251 21c7 F30F1EFA 		endbr64
 7252 21cb 4889C7   		movq	%rax, %rdi
 7253 21ce 4889D0   		movq	%rdx, %rax
 7254 21d1 E9000000 		jmp	.L734
 7254      00
 7255              	.L722:
 7256 21d6 F30F1EFA 		endbr64
 7257 21da 4889C3   		movq	%rax, %rbx
 7258 21dd 4889D5   		movq	%rdx, %rbp
 7259 21e0 E9000000 		jmp	.L698
 7259      00
 7260              	.L714:
 7261 21e5 F30F1EFA 		endbr64
 7262 21e9 4889C3   		movq	%rax, %rbx
 7263 21ec 4889D5   		movq	%rdx, %rbp
 7264 21ef E9000000 		jmp	.L699
 7264      00
 7265              	.L719:
 7266 21f4 F30F1EFA 		endbr64
 7267 21f8 4889C3   		movq	%rax, %rbx
 7268 21fb 4889D5   		movq	%rdx, %rbp
 7269 21fe E9000000 		jmp	.L679
 7269      00
 7270              	.L721:
 7271 2203 F30F1EFA 		endbr64
 7272 2207 4889C3   		movq	%rax, %rbx
 7273 220a 4989D4   		movq	%rdx, %r12
 7274 220d E9000000 		jmp	.L675
 7274      00
 7275              	.L720:
 7276 2212 F30F1EFA 		endbr64
 7277 2216 4889C3   		movq	%rax, %rbx
 7278 2219 4989D4   		movq	%rdx, %r12
 7279 221c E9000000 		jmp	.L676
 7279      00
 7280              		.section	.gcc_except_table
 7281              		.align 4
 7282              	.LLSDA1501:
 7283 0674 FF       		.byte	0xff
 7284 0675 9B       		.byte	0x9b
 7285 0676 3D       		.uleb128 .LLSDATT1501-.LLSDATTD1501
 7286              	.LLSDATTD1501:
 7287 0677 01       		.byte	0x1
 7288 0678 24       		.uleb128 .LLSDACSE1501-.LLSDACSB1501
 7289              	.LLSDACSB1501:
 7290 0679 D201     		.uleb128 .LEHB199-.LFB1501
 7291 067b 05       		.uleb128 .LEHE199-.LEHB199
 7292 067c 8207     		.uleb128 .L720-.LFB1501
 7293 067e 07       		.uleb128 0x7
 7294 067f E102     		.uleb128 .LEHB200-.LFB1501
 7295 0681 05       		.uleb128 .LEHE200-.LEHB200
 7296 0682 F306     		.uleb128 .L721-.LFB1501
 7297 0684 07       		.uleb128 0x7
 7298 0685 F902     		.uleb128 .LEHB201-.LFB1501
 7299 0687 05       		.uleb128 .LEHE201-.LEHB201
 7300 0688 E406     		.uleb128 .L719-.LFB1501
 7301 068a 07       		.uleb128 0x7
 7302 068b 9103     		.uleb128 .LEHB202-.LFB1501
 7303 068d 05       		.uleb128 .LEHE202-.LEHB202
 7304 068e D506     		.uleb128 .L714-.LFB1501
 7305 0690 07       		.uleb128 0x7
 7306 0691 E104     		.uleb128 .LEHB203-.LFB1501
 7307 0693 05       		.uleb128 .LEHE203-.LEHB203
 7308 0694 C606     		.uleb128 .L722-.LFB1501
 7309 0696 07       		.uleb128 0x7
 7310 0697 D705     		.uleb128 .LEHB204-.LFB1501
 7311 0699 05       		.uleb128 .LEHE204-.LEHB204
 7312 069a B706     		.uleb128 .L713-.LFB1501
 7313 069c 05       		.uleb128 0x5
 7314              	.LLSDACSE1501:
 7315 069d 03       		.byte	0x3
 7316 069e 00       		.byte	0
 7317 069f 02       		.byte	0x2
 7318 06a0 7D       		.byte	0x7d
 7319 06a1 01       		.byte	0x1
 7320 06a2 7D       		.byte	0x7d
 7321 06a3 00       		.byte	0
 7322 06a4 7D       		.byte	0x7d
 7323 06a5 000000   		.align 4
 7324 06a8 00000000 		.long	0
 7325              	
 7326 06ac 00000000 		.long	DW.ref._ZTISt9exception-.
 7327 06b0 00000000 		.long	DW.ref._ZTIN8UnitTest15AssertExceptionE-.
 7328              	.LLSDATT1501:
 7329              		.text
 7330              		.cfi_endproc
 7331              		.section	.text.unlikely
 7332              		.cfi_startproc
 7333              		.cfi_personality 0x9b,DW.ref.__gxx_personality_v0
 7334              		.cfi_lsda 0x1b,.LLSDAC1501
 7336              	_ZNK12_GLOBAL__N_161TestXmlTestReporterFixtureSingleFailedTestReportSummaryFormat7RunImplEv.cold:
 7337              	.LFSB1501:
 7338              	.L699:
 7339              		.cfi_def_cfa_offset 592
 7340              		.cfi_offset 3, -56
 7341              		.cfi_offset 6, -48
 7342              		.cfi_offset 12, -40
 7343              		.cfi_offset 13, -32
 7344              		.cfi_offset 14, -24
 7345              		.cfi_offset 15, -16
 7346 175a 4C89EF   		movq	%r13, %rdi
 7347 175d E8BCEBFF 		call	_ZN12_GLOBAL__N_122XmlTestReporterFixtureD2Ev
 7347      FF
 7348 1762 4889DF   		movq	%rbx, %rdi
 7349 1765 4889E8   		movq	%rbp, %rax
 7350              	.L734:
 7351 1768 BB010000 		movl	$1, %ebx
 7351      00
 7352              	.L677:
 7353 176d 4883F801 		cmpq	$1, %rax
 7354 1771 0F84EA00 		je	.L700
 7354      0000
 7355 1777 4883F802 		cmpq	$2, %rax
 7356 177b 0F846B01 		je	.L740
 7356      0000
 7357 1781 E8000000 		call	__cxa_begin_catch@PLT
 7357      00
 7358 1786 84DB     		testb	%bl, %bl
 7359 1788 0F85E901 		jne	.L741
 7359      0000
 7360              	.LEHB205:
 7361 178e E8000000 		call	_ZN8UnitTest11CurrentTest7ResultsEv@PLT
 7361      00
 7362 1793 488D6C24 		leaq	64(%rsp), %rbp
 7362      40
 7363 1798 488B7424 		movq	32(%rsp), %rsi
 7363      20
 7364 179d BA600000 		movl	$96, %edx
 7364      00
 7365 17a2 4C8B20   		movq	(%rax), %r12
 7366 17a5 4889EF   		movq	%rbp, %rdi
 7367 17a8 E8000000 		call	_ZN8UnitTest11TestDetailsC1ERKS0_i@PLT
 7367      00
 7368 17ad 488D1500 		leaq	.LC20(%rip), %rdx
 7368      000000
 7369 17b4 4889EE   		movq	%rbp, %rsi
 7370 17b7 4C89E7   		movq	%r12, %rdi
 7371 17ba E8000000 		call	_ZN8UnitTest11TestResults13OnTestFailureERKNS_11TestDetailsEPKc@PLT
 7371      00
 7372              	.LEHE205:
 7373              	.L706:
 7374 17bf 488B8424 		movq	520(%rsp), %rax
 7374      08020000 
 7375 17c7 64482B04 		subq	%fs:40, %rax
 7375      25280000 
 7375      00
 7376 17d0 0F851101 		jne	.L736
 7376      0000
 7377 17d6 4881C418 		addq	$536, %rsp
 7377      020000
 7378              		.cfi_remember_state
 7379              		.cfi_def_cfa_offset 56
 7380 17dd 5B       		popq	%rbx
 7381              		.cfi_def_cfa_offset 48
 7382 17de 5D       		popq	%rbp
 7383              		.cfi_def_cfa_offset 40
 7384 17df 415C     		popq	%r12
 7385              		.cfi_def_cfa_offset 32
 7386 17e1 415D     		popq	%r13
 7387              		.cfi_def_cfa_offset 24
 7388 17e3 415E     		popq	%r14
 7389              		.cfi_def_cfa_offset 16
 7390 17e5 415F     		popq	%r15
 7391              		.cfi_def_cfa_offset 8
 7392              	.LEHB206:
 7393 17e7 E9000000 		jmp	__cxa_end_catch@PLT
 7393      00
 7394              	.LEHE206:
 7395              	.L698:
 7396              		.cfi_restore_state
 7397 17ec 4C89EF   		movq	%r13, %rdi
 7398 17ef E8000000 		call	_ZNSt7__cxx1119basic_ostringstreamIcSt11char_traitsIcESaIcEED1Ev@PLT
 7398      00
 7399 17f4 4889DF   		movq	%rbx, %rdi
 7400 17f7 4889E8   		movq	%rbp, %rax
 7401 17fa BB010000 		movl	$1, %ebx
 7401      00
 7402 17ff E969FFFF 		jmp	.L677
 7402      FF
 7403              	.L679:
 7404 1804 4C89EF   		movq	%r13, %rdi
 7405 1807 E8000000 		call	_ZNSt7__cxx1119basic_ostringstreamIcSt11char_traitsIcESaIcEED1Ev@PLT
 7405      00
 7406 180c 4889DF   		movq	%rbx, %rdi
 7407 180f 4889E8   		movq	%rbp, %rax
 7408 1812 31DB     		xorl	%ebx, %ebx
 7409 1814 E954FFFF 		jmp	.L677
 7409      FF
 7410              	.L675:
 7411 1819 4889EF   		movq	%rbp, %rdi
 7412 181c E8000000 		call	_ZNSt7__cxx1115basic_stringbufIcSt11char_traitsIcESaIcEED1Ev
 7412      00
 7413 1821 488B0500 		movq	8+_ZTTNSt7__cxx1119basic_ostringstreamIcSt11char_traitsIcESaIcEEE(%rip), %rax
 7413      000000
 7414 1828 488B0D00 		movq	16+_ZTTNSt7__cxx1119basic_ostringstreamIcSt11char_traitsIcESaIcEEE(%rip), %rcx
 7414      000000
 7415 182f 48894424 		movq	%rax, 96(%rsp)
 7415      60
 7416 1834 488B40E8 		movq	-24(%rax), %rax
 7417 1838 48894C04 		movq	%rcx, 96(%rsp,%rax)
 7417      60
 7418              	.L676:
 7419 183d 488D0500 		leaq	16+_ZTVSt9basic_iosIcSt11char_traitsIcEE(%rip), %rax
 7419      000000
 7420 1844 4C89F7   		movq	%r14, %rdi
 7421 1847 48898424 		movq	%rax, 208(%rsp)
 7421      D0000000 
 7422 184f E8000000 		call	_ZNSt8ios_baseD2Ev@PLT
 7422      00
 7423 1854 4889DF   		movq	%rbx, %rdi
 7424 1857 4C89E0   		movq	%r12, %rax
 7425 185a 31DB     		xorl	%ebx, %ebx
 7426 185c E90CFFFF 		jmp	.L677
 7426      FF
 7427              	.L700:
 7428 1861 E8000000 		call	__cxa_begin_catch@PLT
 7428      00
 7429 1866 4889C5   		movq	%rax, %rbp
 7430              	.LEHB207:
 7431 1869 E8000000 		call	_ZN8UnitTest11CurrentTest7ResultsEv@PLT
 7431      00
 7432 186e 4C8B28   		movq	(%rax), %r13
 7433 1871 488B4500 		movq	0(%rbp), %rax
 7434 1875 4889EF   		movq	%rbp, %rdi
 7435 1878 FF5010   		call	*16(%rax)
 7436 187b 4889EF   		movq	%rbp, %rdi
 7437 187e 4989C4   		movq	%rax, %r12
 7438 1881 E8000000 		call	_ZNK8UnitTest15AssertException10LineNumberEv@PLT
 7438      00
 7439 1886 4889EF   		movq	%rbp, %rdi
 7440 1889 89C3     		movl	%eax, %ebx
 7441 188b E8000000 		call	_ZNK8UnitTest15AssertException8FilenameEv@PLT
 7441      00
 7442 1890 4889C1   		movq	%rax, %rcx
 7443 1893 488B4424 		movq	56(%rsp), %rax
 7443      38
 7444 1898 488D6C24 		leaq	64(%rsp), %rbp
 7444      40
 7445 189d 4189D8   		movl	%ebx, %r8d
 7446 18a0 4889EF   		movq	%rbp, %rdi
 7447 18a3 488B5008 		movq	8(%rax), %rdx
 7448 18a7 488B7010 		movq	16(%rax), %rsi
 7449 18ab E8000000 		call	_ZN8UnitTest11TestDetailsC1EPKcS2_S2_i@PLT
 7449      00
 7450 18b0 4C89E2   		movq	%r12, %rdx
 7451 18b3 4889EE   		movq	%rbp, %rsi
 7452 18b6 4C89EF   		movq	%r13, %rdi
 7453 18b9 E8000000 		call	_ZN8UnitTest11TestResults13OnTestFailureERKNS_11TestDetailsEPKc@PLT
 7453      00
 7454              	.LEHE207:
 7455              	.L738:
 7456 18be 488B8424 		movq	520(%rsp), %rax
 7456      08020000 
 7457 18c6 64482B04 		subq	%fs:40, %rax
 7457      25280000 
 7457      00
 7458 18cf 7516     		jne	.L736
 7459 18d1 4881C418 		addq	$536, %rsp
 7459      020000
 7460              		.cfi_remember_state
 7461              		.cfi_def_cfa_offset 56
 7462 18d8 5B       		popq	%rbx
 7463              		.cfi_def_cfa_offset 48
 7464 18d9 5D       		popq	%rbp
 7465              		.cfi_def_cfa_offset 40
 7466 18da 415C     		popq	%r12
 7467              		.cfi_def_cfa_offset 32
 7468 18dc 415D     		popq	%r13
 7469              		.cfi_def_cfa_offset 24
 7470 18de 415E     		popq	%r14
 7471              		.cfi_def_cfa_offset 16
 7472 18e0 415F     		popq	%r15
 7473              		.cfi_def_cfa_offset 8
 7474 18e2 E9000000 		jmp	__cxa_end_catch@PLT
 7474      00
 7475              	.L736:
 7476              		.cfi_restore_state
 7477 18e7 E8000000 		call	__stack_chk_fail@PLT
 7477      00
 7478              	.L740:
 7479 18ec E8000000 		call	__cxa_begin_catch@PLT
 7479      00
 7480 18f1 4C89EF   		movq	%r13, %rdi
 7481 18f4 4889C5   		movq	%rax, %rbp
 7482              	.LEHB208:
 7483 18f7 E8000000 		call	_ZN8UnitTest15MemoryOutStreamC1Ev
 7483      00
 7484              	.LEHE208:
 7485 18fc BA150000 		movl	$21, %edx
 7485      00
 7486 1901 488D3500 		leaq	.LC16(%rip), %rsi
 7486      000000
 7487 1908 4C89EF   		movq	%r13, %rdi
 7488              	.LEHB209:
 7489 190b E8000000 		call	_ZSt16__ostream_insertIcSt11char_traitsIcEERSt13basic_ostreamIT_T0_ES6_PKS3_l@PLT
 7489      00
 7490 1910 488B4500 		movq	0(%rbp), %rax
 7491 1914 4889EF   		movq	%rbp, %rdi
 7492 1917 FF5010   		call	*16(%rax)
 7493 191a 4C89EF   		movq	%r13, %rdi
 7494 191d 4889C6   		movq	%rax, %rsi
 7495 1920 E8000000 		call	_ZStlsISt11char_traitsIcEERSt13basic_ostreamIcT_ES5_PKc@PLT
 7495      00
 7496 1925 E8000000 		call	_ZN8UnitTest11CurrentTest7ResultsEv@PLT
 7496      00
 7497 192a 4C89EF   		movq	%r13, %rdi
 7498 192d 488B28   		movq	(%rax), %rbp
 7499 1930 E8000000 		call	_ZNK8UnitTest15MemoryOutStream7GetTextEv@PLT
 7499      00
 7500 1935 488B7424 		movq	32(%rsp), %rsi
 7500      20
 7501 193a 4889C2   		movq	%rax, %rdx
 7502 193d 4889EF   		movq	%rbp, %rdi
 7503 1940 E8000000 		call	_ZN8UnitTest11TestResults13OnTestFailureERKNS_11TestDetailsEPKc@PLT
 7503      00
 7504              	.LEHE209:
 7505 1945 4C89EF   		movq	%r13, %rdi
 7506              	.LEHB210:
 7507 1948 E8000000 		call	_ZN8UnitTest15MemoryOutStreamD1Ev
 7507      00
 7508              	.LEHE210:
 7509 194d E96CFFFF 		jmp	.L738
 7509      FF
 7510              	.L717:
 7511 1952 F30F1EFA 		endbr64
 7512 1956 4C89EF   		movq	%r13, %rdi
 7513 1959 4889C5   		movq	%rax, %rbp
 7514 195c E8000000 		call	_ZN8UnitTest15MemoryOutStreamD1Ev
 7514      00
 7515              	.L710:
 7516 1961 E8000000 		call	__cxa_end_catch@PLT
 7516      00
 7517 1966 4889EF   		movq	%rbp, %rdi
 7518              	.LEHB211:
 7519 1969 E8000000 		call	_Unwind_Resume@PLT
 7519      00
 7520              	.LEHE211:
 7521              	.L716:
 7522 196e F30F1EFA 		endbr64
 7523              	.L737:
 7524 1972 4889C5   		movq	%rax, %rbp
 7525 1975 EBEA     		jmp	.L710
 7526              	.L741:
 7527              	.LEHB212:
 7528 1977 E8000000 		call	_ZN8UnitTest11CurrentTest7ResultsEv@PLT
 7528      00
 7529 197c 488D6C24 		leaq	64(%rsp), %rbp
 7529      40
 7530 1981 488B7424 		movq	32(%rsp), %rsi
 7530      20
 7531 1986 BA600000 		movl	$96, %edx
 7531      00
 7532 198b 4C8B20   		movq	(%rax), %r12
 7533 198e 4889EF   		movq	%rbp, %rdi
 7534 1991 E8000000 		call	_ZN8UnitTest11TestDetailsC1ERKS0_i@PLT
 7534      00
 7535 1996 488D1500 		leaq	.LC19(%rip), %rdx
 7535      000000
 7536 199d 4889EE   		movq	%rbp, %rsi
 7537 19a0 4C89E7   		movq	%r12, %rdi
 7538 19a3 E8000000 		call	_ZN8UnitTest11TestResults13OnTestFailureERKNS_11TestDetailsEPKc@PLT
 7538      00
 7539              	.LEHE212:
 7540 19a8 E912FEFF 		jmp	.L706
 7540      FF
 7541              	.L718:
 7542 19ad F30F1EFA 		endbr64
 7543 19b1 4889C5   		movq	%rax, %rbp
 7544 19b4 E8000000 		call	__cxa_end_catch@PLT
 7544      00
 7545 19b9 4889EF   		movq	%rbp, %rdi
 7546              	.LEHB213:
 7547 19bc E8000000 		call	_Unwind_Resume@PLT
 7547      00
 7548              	.LEHE213:
 7549              	.L715:
 7550 19c1 F30F1EFA 		endbr64
 7551 19c5 EBAB     		jmp	.L737
 7552              		.cfi_endproc
 7553              	.LFE1501:
 7554              		.section	.gcc_except_table
 7555              		.align 4
 7556              	.LLSDAC1501:
 7557 06b4 FF       		.byte	0xff
 7558 06b5 9B       		.byte	0x9b
 7559 06b6 49       		.uleb128 .LLSDATTC1501-.LLSDATTDC1501
 7560              	.LLSDATTDC1501:
 7561 06b7 01       		.byte	0x1
 7562 06b8 32       		.uleb128 .LLSDACSEC1501-.LLSDACSBC1501
 7563              	.LLSDACSBC1501:
 7564 06b9 34       		.uleb128 .LEHB205-.LCOLDB53
 7565 06ba 31       		.uleb128 .LEHE205-.LEHB205
 7566 06bb D304     		.uleb128 .L718-.LCOLDB53
 7567 06bd 00       		.uleb128 0
 7568 06be 8D01     		.uleb128 .LEHB206-.LCOLDB53
 7569 06c0 05       		.uleb128 .LEHE206-.LEHB206
 7570 06c1 00       		.uleb128 0
 7571 06c2 00       		.uleb128 0
 7572 06c3 8F02     		.uleb128 .LEHB207-.LCOLDB53
 7573 06c5 55       		.uleb128 .LEHE207-.LEHB207
 7574 06c6 E704     		.uleb128 .L715-.LCOLDB53
 7575 06c8 00       		.uleb128 0
 7576 06c9 9D03     		.uleb128 .LEHB208-.LCOLDB53
 7577 06cb 05       		.uleb128 .LEHE208-.LEHB208
 7578 06cc 9404     		.uleb128 .L716-.LCOLDB53
 7579 06ce 00       		.uleb128 0
 7580 06cf B103     		.uleb128 .LEHB209-.LCOLDB53
 7581 06d1 3A       		.uleb128 .LEHE209-.LEHB209
 7582 06d2 F803     		.uleb128 .L717-.LCOLDB53
 7583 06d4 00       		.uleb128 0
 7584 06d5 EE03     		.uleb128 .LEHB210-.LCOLDB53
 7585 06d7 05       		.uleb128 .LEHE210-.LEHB210
 7586 06d8 9404     		.uleb128 .L716-.LCOLDB53
 7587 06da 00       		.uleb128 0
 7588 06db 8F04     		.uleb128 .LEHB211-.LCOLDB53
 7589 06dd 05       		.uleb128 .LEHE211-.LEHB211
 7590 06de 00       		.uleb128 0
 7591 06df 00       		.uleb128 0
 7592 06e0 9D04     		.uleb128 .LEHB212-.LCOLDB53
 7593 06e2 31       		.uleb128 .LEHE212-.LEHB212
 7594 06e3 D304     		.uleb128 .L718-.LCOLDB53
 7595 06e5 00       		.uleb128 0
 7596 06e6 E204     		.uleb128 .LEHB213-.LCOLDB53
 7597 06e8 05       		.uleb128 .LEHE213-.LEHB213
 7598 06e9 00       		.uleb128 0
 7599 06ea 00       		.uleb128 0
 7600              	.LLSDACSEC1501:
 7601 06eb 03       		.byte	0x3
 7602 06ec 00       		.byte	0
 7603 06ed 02       		.byte	0x2
 7604 06ee 7D       		.byte	0x7d
 7605 06ef 01       		.byte	0x1
 7606 06f0 7D       		.byte	0x7d
 7607 06f1 00       		.byte	0
 7608 06f2 7D       		.byte	0x7d
 7609 06f3 00       		.align 4
 7610 06f4 00000000 		.long	0
 7611              	
 7612 06f8 00000000 		.long	DW.ref._ZTISt9exception-.
 7613 06fc 00000000 		.long	DW.ref._ZTIN8UnitTest15AssertExceptionE-.
 7614              	.LLSDATTC1501:
 7615              		.section	.text.unlikely
 7616              		.text
 7618              		.section	.text.unlikely
 7620              	.LCOLDE53:
 7621              		.text
 7622              	.LHOTE53:
 7623              		.section	.rodata.str1.1
 7624              	.LC54:
 7625 0107 44656661 		.string	"DefaultSuite"
 7625      756C7453 
 7625      75697465 
 7625      00
 7626              		.section	.rodata.str1.8
 7627 051c 00000000 		.align 8
 7628              	.LC55:
 7629 0520 3C3F786D 		.string	"<?xml version=\"1.0\"?><unittest-results tests=\"1\" failedtests=\"0\" failures=\"0\" tim
 7629      6C207665 
 7629      7273696F 
 7629      6E3D2231 
 7629      2E30223F 
 7630              		.section	.text.unlikely
 7631              	.LCOLDB56:
 7632              		.text
 7633              	.LHOTB56:
 7634 2221 66662E0F 		.p2align 4
 7634      1F840000 
 7634      0000000F 
 7634      1F4000
 7636              	_ZN8UnitTest11ExecuteTestIN12_GLOBAL__N_167XmlTestReporterFixtureSingleSuccessfulTestReportSummaryF
 7637              	.LFB1574:
 7638              		.cfi_startproc
 7639              		.cfi_personality 0x9b,DW.ref.__gxx_personality_v0
 7640              		.cfi_lsda 0x1b,.LLSDA1574
 7641 2230 4156     		pushq	%r14
 7642              		.cfi_def_cfa_offset 16
 7643              		.cfi_offset 14, -16
 7644 2232 4155     		pushq	%r13
 7645              		.cfi_def_cfa_offset 24
 7646              		.cfi_offset 13, -24
 7647 2234 4154     		pushq	%r12
 7648              		.cfi_def_cfa_offset 32
 7649              		.cfi_offset 12, -32
 7650 2236 55       		pushq	%rbp
 7651              		.cfi_def_cfa_offset 40
 7652              		.cfi_offset 6, -40
 7653 2237 53       		pushq	%rbx
 7654              		.cfi_def_cfa_offset 48
 7655              		.cfi_offset 3, -48
 7656 2238 4889F3   		movq	%rsi, %rbx
 7657 223b 4881ECD0 		subq	$1744, %rsp
 7657      060000
 7658              		.cfi_def_cfa_offset 1792
 7659 2242 48893C24 		movq	%rdi, (%rsp)
 7660 2246 48897424 		movq	%rsi, 8(%rsp)
 7660      08
 7661 224b 64488B04 		movq	%fs:40, %rax
 7661      25280000 
 7661      00
 7662 2254 48898424 		movq	%rax, 1736(%rsp)
 7662      C8060000 
 7663 225c 31C0     		xorl	%eax, %eax
 7664              	.LEHB214:
 7665 225e E8000000 		call	_ZN8UnitTest11CurrentTest7DetailsEv@PLT
 7665      00
 7666              	.LEHE214:
 7667 2263 488DBC24 		leaq	608(%rsp), %rdi
 7667      60020000 
 7668 226b 488918   		movq	%rbx, (%rax)
 7669              	.LEHB215:
 7670 226e E8000000 		call	_ZN8UnitTest16SignalTranslatorC1Ev@PLT
 7670      00
 7671              	.LEHE215:
 7672 2273 488B3D00 		movq	_ZN8UnitTest16SignalTranslator12s_jumpTargetE(%rip), %rdi
 7672      000000
 7673 227a BE010000 		movl	$1, %esi
 7673      00
 7674 227f E8000000 		call	__sigsetjmp@PLT
 7674      00
 7675 2284 F30F1EFA 		endbr64
 7676 2288 85C0     		testl	%eax, %eax
 7677 228a 0F850000 		jne	.L787
 7677      0000
 7678 2290 488D7C24 		leaq	64(%rsp), %rdi
 7678      40
 7679 2295 4531C0   		xorl	%r8d, %r8d
 7680 2298 488D0D00 		leaq	.LC9(%rip), %rcx
 7680      000000
 7681 229f 488D1500 		leaq	.LC54(%rip), %rdx
 7681      000000
 7682 22a6 488D3500 		leaq	.LC43(%rip), %rsi
 7682      000000
 7683              	.LEHB216:
 7684 22ad E8000000 		call	_ZN8UnitTest11TestDetailsC1EPKcS2_S2_i@PLT
 7684      00
 7685 22b2 488B1C24 		movq	(%rsp), %rbx
 7686 22b6 488D7424 		leaq	64(%rsp), %rsi
 7686      40
 7687 22bb 488DAB78 		leaq	376(%rbx), %rbp
 7687      010000
 7688 22c2 4889EF   		movq	%rbp, %rdi
 7689 22c5 E8000000 		call	_ZN8UnitTest20DeferredTestReporter15ReportTestStartERKNS_11TestDetailsE@PLT
 7689      00
 7690 22ca F30F1005 		movss	.LC32(%rip), %xmm0
 7690      00000000 
 7691 22d2 31C9     		xorl	%ecx, %ecx
 7692 22d4 31D2     		xorl	%edx, %edx
 7693 22d6 4889EF   		movq	%rbp, %rdi
 7694 22d9 BE010000 		movl	$1, %esi
 7694      00
 7695 22de E8000000 		call	_ZN8UnitTest15XmlTestReporter13ReportSummaryEiiif@PLT
 7695      00
 7696              	.LEHE216:
 7697 22e3 488D0500 		leaq	.LC55(%rip), %rax
 7697      000000
 7698 22ea 48894424 		movq	%rax, 24(%rsp)
 7698      18
 7699              	.LEHB217:
 7700 22ef E8000000 		call	_ZN8UnitTest11CurrentTest7DetailsEv@PLT
 7700      00
 7701 22f4 488B30   		movq	(%rax), %rsi
 7702 22f7 488DBC24 		leaq	128(%rsp), %rdi
 7702      80000000 
 7703 22ff BA5D0000 		movl	$93, %edx
 7703      00
 7704 2304 E8000000 		call	_ZN8UnitTest11TestDetailsC1ERKS0_i@PLT
 7704      00
 7705              	.LEHE217:
 7706 2309 488D8424 		leaq	176(%rsp), %rax
 7706      B0000000 
 7707 2311 C68424B0 		movb	$0, 176(%rsp)
 7707      00000000 
 7708 2319 488DBC24 		leaq	160(%rsp), %rdi
 7708      A0000000 
 7709 2321 48898424 		movq	%rax, 160(%rsp)
 7709      A0000000 
 7710 2329 488B4330 		movq	48(%rbx), %rax
 7711 232d 48C78424 		movq	$0, 168(%rsp)
 7711      A8000000 
 7711      00000000 
 7712 2339 4885C0   		testq	%rax, %rax
 7713 233c 0F84AE00 		je	.L745
 7713      0000
 7714 2342 4C8B4320 		movq	32(%rbx), %r8
 7715 2346 4D85C0   		testq	%r8, %r8
 7716 2349 0F849100 		je	.L784
 7716      0000
 7717 234f 4C39C0   		cmpq	%r8, %rax
 7718 2352 0F878800 		ja	.L784
 7718      0000
 7719              	.L746:
 7720 2358 488B0424 		movq	(%rsp), %rax
 7721 235c 488DBC24 		leaq	160(%rsp), %rdi
 7721      A0000000 
 7722 2364 31D2     		xorl	%edx, %edx
 7723 2366 31F6     		xorl	%esi, %esi
 7724 2368 488B4828 		movq	40(%rax), %rcx
 7725 236c 4929C8   		subq	%rcx, %r8
 7726              	.LEHB218:
 7727 236f E8000000 		call	_ZNSt7__cxx1112basic_stringIcSt11char_traitsIcESaIcEE10_M_replaceEmmPKcm@PLT
 7727      00
 7728              	.LEHE218:
 7729              	.L749:
 7730              	.LEHB219:
 7731 2374 E8000000 		call	_ZN8UnitTest11CurrentTest7ResultsEv@PLT
 7731      00
 7732 2379 488B38   		movq	(%rax), %rdi
 7733 237c 488D8C24 		leaq	128(%rsp), %rcx
 7733      80000000 
 7734 2384 488D7424 		leaq	24(%rsp), %rsi
 7734      18
 7735 2389 488D9424 		leaq	160(%rsp), %rdx
 7735      A0000000 
 7736 2391 E8000000 		call	_ZN8UnitTest10CheckEqualIPKcNSt7__cxx1112basic_stringIcSt11char_traitsIcESaIcEEEEEvRNS_11Test
 7736      00
 7737              	.LEHE219:
 7738 2396 488BBC24 		movq	160(%rsp), %rdi
 7738      A0000000 
 7739 239e 488D8424 		leaq	176(%rsp), %rax
 7739      B0000000 
 7740 23a6 4839C7   		cmpq	%rax, %rdi
 7741 23a9 7405     		je	.L755
 7742 23ab E8000000 		call	_ZdlPv@PLT
 7742      00
 7743              	.L755:
 7744 23b0 488DBC24 		leaq	608(%rsp), %rdi
 7744      60020000 
 7745              	.LEHB220:
 7746 23b8 E8000000 		call	_ZN8UnitTest16SignalTranslatorD1Ev@PLT
 7746      00
 7747              	.LEHE220:
 7748              	.L742:
 7749 23bd 488B8424 		movq	1736(%rsp), %rax
 7749      C8060000 
 7750 23c5 64482B04 		subq	%fs:40, %rax
 7750      25280000 
 7750      00
 7751 23ce 7532     		jne	.L791
 7752 23d0 4881C4D0 		addq	$1744, %rsp
 7752      060000
 7753              		.cfi_remember_state
 7754              		.cfi_def_cfa_offset 48
 7755 23d7 5B       		popq	%rbx
 7756              		.cfi_def_cfa_offset 40
 7757 23d8 5D       		popq	%rbp
 7758              		.cfi_def_cfa_offset 32
 7759 23d9 415C     		popq	%r12
 7760              		.cfi_def_cfa_offset 24
 7761 23db 415D     		popq	%r13
 7762              		.cfi_def_cfa_offset 16
 7763 23dd 415E     		popq	%r14
 7764              		.cfi_def_cfa_offset 8
 7765 23df C3       		ret
 7766              		.p2align 4,,10
 7767              		.p2align 3
 7768              	.L784:
 7769              		.cfi_restore_state
 7770 23e0 4989C0   		movq	%rax, %r8
 7771 23e3 E970FFFF 		jmp	.L746
 7771      FF
 7772 23e8 0F1F8400 		.p2align 4,,10
 7772      00000000 
 7773              		.p2align 3
 7774              	.L745:
 7775 23f0 488B3424 		movq	(%rsp), %rsi
 7776 23f4 4883C650 		addq	$80, %rsi
 7777              	.LEHB221:
 7778 23f8 E8000000 		call	_ZNSt7__cxx1112basic_stringIcSt11char_traitsIcESaIcEE9_M_assignERKS4_@PLT
 7778      00
 7779              	.LEHE221:
 7780 23fd E972FFFF 		jmp	.L749
 7780      FF
 7781              	.L791:
 7782 2402 E8000000 		call	__stack_chk_fail@PLT
 7782      00
 7783              	.L781:
 7784 2407 F30F1EFA 		endbr64
 7785 240b 4889C7   		movq	%rax, %rdi
 7786 240e E9000000 		jmp	.L752
 7786      00
 7787              	.L785:
 7788 2413 F30F1EFA 		endbr64
 7789 2417 E9000000 		jmp	.L786
 7789      00
 7790              	.L774:
 7791 241c F30F1EFA 		endbr64
 7792 2420 4889C7   		movq	%rax, %rdi
 7793 2423 4889D0   		movq	%rdx, %rax
 7794 2426 E9000000 		jmp	.L763
 7794      00
 7795              	.L782:
 7796 242b F30F1EFA 		endbr64
 7797 242f 4889C3   		movq	%rax, %rbx
 7798 2432 E9000000 		jmp	.L758
 7798      00
 7799              	.L783:
 7800 2437 F30F1EFA 		endbr64
 7801 243b 4889C3   		movq	%rax, %rbx
 7802 243e E9000000 		jmp	.L750
 7802      00
 7803              		.section	.gcc_except_table
 7804              		.align 4
 7805              	.LLSDA1574:
 7806 0700 FF       		.byte	0xff
 7807 0701 9B       		.byte	0x9b
 7808 0702 45       		.uleb128 .LLSDATT1574-.LLSDATTD1574
 7809              	.LLSDATTD1574:
 7810 0703 01       		.byte	0x1
 7811 0704 2C       		.uleb128 .LLSDACSE1574-.LLSDACSB1574
 7812              	.LLSDACSB1574:
 7813 0705 2E       		.uleb128 .LEHB214-.LFB1574
 7814 0706 05       		.uleb128 .LEHE214-.LEHB214
 7815 0707 00       		.uleb128 0
 7816 0708 00       		.uleb128 0
 7817 0709 3E       		.uleb128 .LEHB215-.LFB1574
 7818 070a 05       		.uleb128 .LEHE215-.LEHB215
 7819 070b EC03     		.uleb128 .L774-.LFB1574
 7820 070d 05       		.uleb128 0x5
 7821 070e 7D       		.uleb128 .LEHB216-.LFB1574
 7822 070f 36       		.uleb128 .LEHE216-.LEHB216
 7823 0710 E303     		.uleb128 .L785-.LFB1574
 7824 0712 07       		.uleb128 0x7
 7825 0713 BF01     		.uleb128 .LEHB217-.LFB1574
 7826 0715 1A       		.uleb128 .LEHE217-.LEHB217
 7827 0716 D703     		.uleb128 .L781-.LFB1574
 7828 0718 01       		.uleb128 0x1
 7829 0719 BF02     		.uleb128 .LEHB218-.LFB1574
 7830 071b 05       		.uleb128 .LEHE218-.LEHB218
 7831 071c 8704     		.uleb128 .L783-.LFB1574
 7832 071e 01       		.uleb128 0x1
 7833 071f C402     		.uleb128 .LEHB219-.LFB1574
 7834 0721 22       		.uleb128 .LEHE219-.LEHB219
 7835 0722 FB03     		.uleb128 .L782-.LFB1574
 7836 0724 01       		.uleb128 0x1
 7837 0725 8803     		.uleb128 .LEHB220-.LFB1574
 7838 0727 05       		.uleb128 .LEHE220-.LEHB220
 7839 0728 EC03     		.uleb128 .L774-.LFB1574
 7840 072a 05       		.uleb128 0x5
 7841 072b C803     		.uleb128 .LEHB221-.LFB1574
 7842 072d 05       		.uleb128 .LEHE221-.LEHB221
 7843 072e 8704     		.uleb128 .L783-.LFB1574
 7844 0730 01       		.uleb128 0x1
 7845              	.LLSDACSE1574:
 7846 0731 03       		.byte	0x3
 7847 0732 00       		.byte	0
 7848 0733 02       		.byte	0x2
 7849 0734 7D       		.byte	0x7d
 7850 0735 01       		.byte	0x1
 7851 0736 7D       		.byte	0x7d
 7852 0737 00       		.byte	0
 7853 0738 7D       		.byte	0x7d
 7854 0739 000000   		.align 4
 7855 073c 00000000 		.long	0
 7856              	
 7857 0740 00000000 		.long	DW.ref._ZTISt9exception-.
 7858 0744 00000000 		.long	DW.ref._ZTIN8UnitTest15AssertExceptionE-.
 7859              	.LLSDATT1574:
 7860              		.text
 7861              		.cfi_endproc
 7862              		.section	.text.unlikely
 7863              		.cfi_startproc
 7864              		.cfi_personality 0x9b,DW.ref.__gxx_personality_v0
 7865              		.cfi_lsda 0x1b,.LLSDAC1574
 7867              	_ZN8UnitTest11ExecuteTestIN12_GLOBAL__N_167XmlTestReporterFixtureSingleSuccessfulTestReportSummaryF
 7868              	.LFSB1574:
 7869              	.L787:
 7870              		.cfi_def_cfa_offset 1792
 7871              		.cfi_offset 3, -48
 7872              		.cfi_offset 6, -40
 7873              		.cfi_offset 12, -32
 7874              		.cfi_offset 13, -24
 7875              		.cfi_offset 14, -16
 7876 19c7 BF080000 		movl	$8, %edi
 7876      00
 7877 19cc E8000000 		call	__cxa_allocate_exception@PLT
 7877      00
 7878 19d1 31D2     		xorl	%edx, %edx
 7879 19d3 488D3500 		leaq	_ZTIPKc(%rip), %rsi
 7879      000000
 7880 19da 4889C7   		movq	%rax, %rdi
 7881 19dd 488D0500 		leaq	.LC8(%rip), %rax
 7881      000000
 7882 19e4 488907   		movq	%rax, (%rdi)
 7883              	.LEHB222:
 7884 19e7 E8000000 		call	__cxa_throw@PLT
 7884      00
 7885              	.LEHE222:
 7886              	.L775:
 7887 19ec F30F1EFA 		endbr64
 7888              	.L786:
 7889 19f0 4889C5   		movq	%rax, %rbp
 7890 19f3 4889D3   		movq	%rdx, %rbx
 7891 19f6 EB6E     		jmp	.L762
 7892              	.L750:
 7893 19f8 488BBC24 		movq	160(%rsp), %rdi
 7893      A0000000 
 7894 1a00 488D8424 		leaq	176(%rsp), %rax
 7894      B0000000 
 7895 1a08 4839C7   		cmpq	%rax, %rdi
 7896 1a0b 7405     		je	.L753
 7897 1a0d E8000000 		call	_ZdlPv@PLT
 7897      00
 7898              	.L753:
 7899 1a12 4889DF   		movq	%rbx, %rdi
 7900              	.L752:
 7901 1a15 E8000000 		call	__cxa_begin_catch@PLT
 7901      00
 7902              	.LEHB223:
 7903 1a1a E8000000 		call	_ZN8UnitTest11CurrentTest7ResultsEv@PLT
 7903      00
 7904 1a1f 488B28   		movq	(%rax), %rbp
 7905 1a22 E8000000 		call	_ZN8UnitTest11CurrentTest7DetailsEv@PLT
 7905      00
 7906 1a27 488B30   		movq	(%rax), %rsi
 7907 1a2a 488D7C24 		leaq	96(%rsp), %rdi
 7907      60
 7908 1a2f BA5D0000 		movl	$93, %edx
 7908      00
 7909 1a34 E8000000 		call	_ZN8UnitTest11TestDetailsC1ERKS0_i@PLT
 7909      00
 7910 1a39 488D7424 		leaq	96(%rsp), %rsi
 7910      60
 7911 1a3e 488D1500 		leaq	.LC35(%rip), %rdx
 7911      000000
 7912 1a45 4889EF   		movq	%rbp, %rdi
 7913 1a48 E8000000 		call	_ZN8UnitTest11TestResults13OnTestFailureERKNS_11TestDetailsEPKc@PLT
 7913      00
 7914              	.LEHE223:
 7915              	.LEHB224:
 7916 1a4d E8000000 		call	__cxa_end_catch@PLT
 7916      00
 7917              	.LEHE224:
 7918 1a52 E9000000 		jmp	.L755
 7918      00
 7919              	.L780:
 7920 1a57 F30F1EFA 		endbr64
 7921 1a5b 4889C5   		movq	%rax, %rbp
 7922 1a5e 4889D3   		movq	%rdx, %rbx
 7923 1a61 E8000000 		call	__cxa_end_catch@PLT
 7923      00
 7924              	.L762:
 7925 1a66 488DBC24 		leaq	608(%rsp), %rdi
 7925      60020000 
 7926 1a6e E8000000 		call	_ZN8UnitTest16SignalTranslatorD1Ev@PLT
 7926      00
 7927 1a73 4889EF   		movq	%rbp, %rdi
 7928 1a76 4889D8   		movq	%rbx, %rax
 7929              	.L763:
 7930 1a79 4883F801 		cmpq	$1, %rax
 7931 1a7d 7454     		je	.L764
 7932 1a7f 4883F802 		cmpq	$2, %rax
 7933 1a83 0F84C400 		je	.L792
 7933      0000
 7934 1a89 E8000000 		call	__cxa_begin_catch@PLT
 7934      00
 7935              	.LEHB225:
 7936 1a8e E8000000 		call	_ZN8UnitTest11CurrentTest7ResultsEv@PLT
 7936      00
 7937 1a93 488B7424 		movq	8(%rsp), %rsi
 7937      08
 7938 1a98 488B38   		movq	(%rax), %rdi
 7939 1a9b 488D1500 		leaq	.LC17(%rip), %rdx
 7939      000000
 7940 1aa2 E8000000 		call	_ZN8UnitTest11TestResults13OnTestFailureERKNS_11TestDetailsEPKc@PLT
 7940      00
 7941              	.LEHE225:
 7942              	.LEHB226:
 7943 1aa7 E8000000 		call	__cxa_end_catch@PLT
 7943      00
 7944              	.LEHE226:
 7945 1aac E9000000 		jmp	.L742
 7945      00
 7946              	.L758:
 7947 1ab1 488BBC24 		movq	160(%rsp), %rdi
 7947      A0000000 
 7948 1ab9 488D8424 		leaq	176(%rsp), %rax
 7948      B0000000 
 7949 1ac1 4839C7   		cmpq	%rax, %rdi
 7950 1ac4 7405     		je	.L760
 7951 1ac6 E8000000 		call	_ZdlPv@PLT
 7951      00
 7952              	.L760:
 7953 1acb 4889DF   		movq	%rbx, %rdi
 7954 1ace E942FFFF 		jmp	.L752
 7954      FF
 7955              	.L764:
 7956 1ad3 E8000000 		call	__cxa_begin_catch@PLT
 7956      00
 7957 1ad8 4889C5   		movq	%rax, %rbp
 7958              	.LEHB227:
 7959 1adb E8000000 		call	_ZN8UnitTest11CurrentTest7ResultsEv@PLT
 7959      00
 7960 1ae0 4C8B28   		movq	(%rax), %r13
 7961 1ae3 488B4500 		movq	0(%rbp), %rax
 7962 1ae7 4889EF   		movq	%rbp, %rdi
 7963 1aea FF5010   		call	*16(%rax)
 7964 1aed 4889EF   		movq	%rbp, %rdi
 7965 1af0 4989C6   		movq	%rax, %r14
 7966 1af3 E8000000 		call	_ZNK8UnitTest15AssertException10LineNumberEv@PLT
 7966      00
 7967 1af8 4889EF   		movq	%rbp, %rdi
 7968 1afb 4189C4   		movl	%eax, %r12d
 7969 1afe E8000000 		call	_ZNK8UnitTest15AssertException8FilenameEv@PLT
 7969      00
 7970 1b03 4889C1   		movq	%rax, %rcx
 7971 1b06 488B4424 		movq	8(%rsp), %rax
 7971      08
 7972 1b0b 488D7C24 		leaq	32(%rsp), %rdi
 7972      20
 7973 1b10 4589E0   		movl	%r12d, %r8d
 7974 1b13 488B7008 		movq	8(%rax), %rsi
 7975 1b17 488B10   		movq	(%rax), %rdx
 7976 1b1a E8000000 		call	_ZN8UnitTest11TestDetailsC1EPKcS2_S2_i@PLT
 7976      00
 7977 1b1f 488D7424 		leaq	32(%rsp), %rsi
 7977      20
 7978 1b24 4C89F2   		movq	%r14, %rdx
 7979 1b27 4C89EF   		movq	%r13, %rdi
 7980 1b2a E8000000 		call	_ZN8UnitTest11TestResults13OnTestFailureERKNS_11TestDetailsEPKc@PLT
 7980      00
 7981              	.LEHE227:
 7982 1b2f E8000000 		call	__cxa_end_catch@PLT
 7982      00
 7983 1b34 E9000000 		jmp	.L742
 7983      00
 7984              	.L776:
 7985 1b39 F30F1EFA 		endbr64
 7986 1b3d 4889C5   		movq	%rax, %rbp
 7987 1b40 E8000000 		call	__cxa_end_catch@PLT
 7987      00
 7988 1b45 4889EF   		movq	%rbp, %rdi
 7989              	.LEHB228:
 7990 1b48 E8000000 		call	_Unwind_Resume@PLT
 7990      00
 7991              	.LEHE228:
 7992              	.L792:
 7993 1b4d E8000000 		call	__cxa_begin_catch@PLT
 7993      00
 7994 1b52 488DBC24 		leaq	192(%rsp), %rdi
 7994      C0000000 
 7995 1b5a 4889C5   		movq	%rax, %rbp
 7996              	.LEHB229:
 7997 1b5d E8000000 		call	_ZN8UnitTest15MemoryOutStreamC1Ev
 7997      00
 7998              	.LEHE229:
 7999 1b62 488DBC24 		leaq	192(%rsp), %rdi
 7999      C0000000 
 8000 1b6a BA150000 		movl	$21, %edx
 8000      00
 8001 1b6f 488D3500 		leaq	.LC16(%rip), %rsi
 8001      000000
 8002              	.LEHB230:
 8003 1b76 E8000000 		call	_ZSt16__ostream_insertIcSt11char_traitsIcEERSt13basic_ostreamIT_T0_ES6_PKS3_l@PLT
 8003      00
 8004 1b7b 488B4500 		movq	0(%rbp), %rax
 8005 1b7f 4889EF   		movq	%rbp, %rdi
 8006 1b82 FF5010   		call	*16(%rax)
 8007 1b85 488DBC24 		leaq	192(%rsp), %rdi
 8007      C0000000 
 8008 1b8d 4889C6   		movq	%rax, %rsi
 8009 1b90 E8000000 		call	_ZStlsISt11char_traitsIcEERSt13basic_ostreamIcT_ES5_PKc@PLT
 8009      00
 8010 1b95 E8000000 		call	_ZN8UnitTest11CurrentTest7ResultsEv@PLT
 8010      00
 8011 1b9a 488DBC24 		leaq	192(%rsp), %rdi
 8011      C0000000 
 8012 1ba2 488B28   		movq	(%rax), %rbp
 8013 1ba5 E8000000 		call	_ZNK8UnitTest15MemoryOutStream7GetTextEv@PLT
 8013      00
 8014 1baa 488B7424 		movq	8(%rsp), %rsi
 8014      08
 8015 1baf 4889C2   		movq	%rax, %rdx
 8016 1bb2 4889EF   		movq	%rbp, %rdi
 8017 1bb5 E8000000 		call	_ZN8UnitTest11TestResults13OnTestFailureERKNS_11TestDetailsEPKc@PLT
 8017      00
 8018              	.LEHE230:
 8019 1bba 488DBC24 		leaq	192(%rsp), %rdi
 8019      C0000000 
 8020              	.LEHB231:
 8021 1bc2 E8000000 		call	_ZN8UnitTest15MemoryOutStreamD1Ev
 8021      00
 8022              	.LEHE231:
 8023 1bc7 E8000000 		call	__cxa_end_catch@PLT
 8023      00
 8024 1bcc E9000000 		jmp	.L742
 8024      00
 8025              	.L778:
 8026 1bd1 F30F1EFA 		endbr64
 8027 1bd5 488DBC24 		leaq	192(%rsp), %rdi
 8027      C0000000 
 8028 1bdd 4889C5   		movq	%rax, %rbp
 8029 1be0 E8000000 		call	_ZN8UnitTest15MemoryOutStreamD1Ev
 8029      00
 8030              	.L771:
 8031 1be5 E8000000 		call	__cxa_end_catch@PLT
 8031      00
 8032 1bea 4889EF   		movq	%rbp, %rdi
 8033              	.LEHB232:
 8034 1bed E8000000 		call	_Unwind_Resume@PLT
 8034      00
 8035              	.LEHE232:
 8036              	.L777:
 8037 1bf2 F30F1EFA 		endbr64
 8038 1bf6 4889C5   		movq	%rax, %rbp
 8039 1bf9 EBEA     		jmp	.L771
 8040              	.L779:
 8041 1bfb F30F1EFA 		endbr64
 8042 1bff 4889C5   		movq	%rax, %rbp
 8043 1c02 E8000000 		call	__cxa_end_catch@PLT
 8043      00
 8044 1c07 4889EF   		movq	%rbp, %rdi
 8045              	.LEHB233:
 8046 1c0a E8000000 		call	_Unwind_Resume@PLT
 8046      00
 8047              	.LEHE233:
 8048              		.cfi_endproc
 8049              	.LFE1574:
 8050              		.section	.gcc_except_table
 8051              		.align 4
 8052              	.LLSDAC1574:
 8053 0748 FF       		.byte	0xff
 8054 0749 9B       		.byte	0x9b
 8055 074a 59       		.uleb128 .LLSDATTC1574-.LLSDATTDC1574
 8056              	.LLSDATTDC1574:
 8057 074b 01       		.byte	0x1
 8058 074c 40       		.uleb128 .LLSDACSEC1574-.LLSDACSBC1574
 8059              	.LLSDACSBC1574:
 8060 074d 20       		.uleb128 .LEHB222-.LCOLDB56
 8061 074e 05       		.uleb128 .LEHE222-.LEHB222
 8062 074f 25       		.uleb128 .L775-.LCOLDB56
 8063 0750 07       		.uleb128 0x7
 8064 0751 53       		.uleb128 .LEHB223-.LCOLDB56
 8065 0752 33       		.uleb128 .LEHE223-.LEHB223
 8066 0753 9001     		.uleb128 .L780-.LCOLDB56
 8067 0755 07       		.uleb128 0x7
 8068 0756 8601     		.uleb128 .LEHB224-.LCOLDB56
 8069 0758 05       		.uleb128 .LEHE224-.LEHB224
 8070 0759 25       		.uleb128 .L775-.LCOLDB56
 8071 075a 07       		.uleb128 0x7
 8072 075b C701     		.uleb128 .LEHB225-.LCOLDB56
 8073 075d 19       		.uleb128 .LEHE225-.LEHB225
 8074 075e B404     		.uleb128 .L779-.LCOLDB56
 8075 0760 00       		.uleb128 0
 8076 0761 E001     		.uleb128 .LEHB226-.LCOLDB56
 8077 0763 05       		.uleb128 .LEHE226-.LEHB226
 8078 0764 00       		.uleb128 0
 8079 0765 00       		.uleb128 0
 8080 0766 9402     		.uleb128 .LEHB227-.LCOLDB56
 8081 0768 54       		.uleb128 .LEHE227-.LEHB227
 8082 0769 F202     		.uleb128 .L776-.LCOLDB56
 8083 076b 00       		.uleb128 0
 8084 076c 8103     		.uleb128 .LEHB228-.LCOLDB56
 8085 076e 05       		.uleb128 .LEHE228-.LEHB228
 8086 076f 00       		.uleb128 0
 8087 0770 00       		.uleb128 0
 8088 0771 9603     		.uleb128 .LEHB229-.LCOLDB56
 8089 0773 05       		.uleb128 .LEHE229-.LEHB229
 8090 0774 AB04     		.uleb128 .L777-.LCOLDB56
 8091 0776 00       		.uleb128 0
 8092 0777 AF03     		.uleb128 .LEHB230-.LCOLDB56
 8093 0779 44       		.uleb128 .LEHE230-.LEHB230
 8094 077a 8A04     		.uleb128 .L778-.LCOLDB56
 8095 077c 00       		.uleb128 0
 8096 077d FB03     		.uleb128 .LEHB231-.LCOLDB56
 8097 077f 05       		.uleb128 .LEHE231-.LEHB231
 8098 0780 AB04     		.uleb128 .L777-.LCOLDB56
 8099 0782 00       		.uleb128 0
 8100 0783 A604     		.uleb128 .LEHB232-.LCOLDB56
 8101 0785 05       		.uleb128 .LEHE232-.LEHB232
 8102 0786 00       		.uleb128 0
 8103 0787 00       		.uleb128 0
 8104 0788 C304     		.uleb128 .LEHB233-.LCOLDB56
 8105 078a 05       		.uleb128 .LEHE233-.LEHB233
 8106 078b 00       		.uleb128 0
 8107 078c 00       		.uleb128 0
 8108              	.LLSDACSEC1574:
 8109 078d 03       		.byte	0x3
 8110 078e 00       		.byte	0
 8111 078f 02       		.byte	0x2
 8112 0790 7D       		.byte	0x7d
 8113 0791 01       		.byte	0x1
 8114 0792 7D       		.byte	0x7d
 8115 0793 00       		.byte	0
 8116 0794 7D       		.byte	0x7d
 8117 0795 000000   		.align 4
 8118 0798 00000000 		.long	0
 8119              	
 8120 079c 00000000 		.long	DW.ref._ZTISt9exception-.
 8121 07a0 00000000 		.long	DW.ref._ZTIN8UnitTest15AssertExceptionE-.
 8122              	.LLSDATTC1574:
 8123              		.section	.text.unlikely
 8124              		.text
 8126              		.section	.text.unlikely
 8128              	.LCOLDE56:
 8129              		.text
 8130              	.LHOTE56:
 8131              		.section	.text.unlikely
 8132 1c0f 90       		.align 2
 8133              	.LCOLDB57:
 8134              		.text
 8135              	.LHOTB57:
 8136 2443 90       		.align 2
 8137 2444 66662E0F 		.p2align 4
 8137      1F840000 
 8137      00000090 
 8139              	_ZNK12_GLOBAL__N_165TestXmlTestReporterFixtureSingleSuccessfulTestReportSummaryFormat7RunImplEv:
 8140              	.LFB1490:
 8141              		.cfi_startproc
 8142              		.cfi_personality 0x9b,DW.ref.__gxx_personality_v0
 8143              		.cfi_lsda 0x1b,.LLSDA1490
 8144 2450 F30F1EFA 		endbr64
 8145 2454 4157     		pushq	%r15
 8146              		.cfi_def_cfa_offset 16
 8147              		.cfi_offset 15, -16
 8148 2456 4156     		pushq	%r14
 8149              		.cfi_def_cfa_offset 24
 8150              		.cfi_offset 14, -24
 8151 2458 4155     		pushq	%r13
 8152              		.cfi_def_cfa_offset 32
 8153              		.cfi_offset 13, -32
 8154 245a 4154     		pushq	%r12
 8155              		.cfi_def_cfa_offset 40
 8156              		.cfi_offset 12, -40
 8157 245c 55       		pushq	%rbp
 8158              		.cfi_def_cfa_offset 48
 8159              		.cfi_offset 6, -48
 8160 245d 53       		pushq	%rbx
 8161              		.cfi_def_cfa_offset 56
 8162              		.cfi_offset 3, -56
 8163 245e 488D1D00 		leaq	16+_ZTVNSt7__cxx1115basic_stringbufIcSt11char_traitsIcESaIcEEE(%rip), %rbx
 8163      000000
 8164 2465 66480F6E 		movq	%rbx, %xmm3
 8164      DB
 8165 246a 4881EC18 		subq	$536, %rsp
 8165      020000
 8166              		.cfi_def_cfa_offset 592
 8167 2471 48897C24 		movq	%rdi, 56(%rsp)
 8167      38
 8168 2476 4C8DB424 		leaq	208(%rsp), %r14
 8168      D0000000 
 8169 247e 4C8D6C24 		leaq	96(%rsp), %r13
 8169      60
 8170 2483 64488B04 		movq	%fs:40, %rax
 8170      25280000 
 8170      00
 8171 248c 48898424 		movq	%rax, 520(%rsp)
 8171      08020000 
 8172 2494 488D0500 		leaq	24+_ZTVNSt7__cxx1119basic_ostringstreamIcSt11char_traitsIcESaIcEEE(%rip), %rax
 8172      000000
 8173 249b 66480F6E 		movq	%rax, %xmm1
 8173      C8
 8174 24a0 66480F6E 		movq	%rax, %xmm2
 8174      D0
 8175 24a5 488D4708 		leaq	8(%rdi), %rax
 8176 24a9 4C89F7   		movq	%r14, %rdi
 8177 24ac 660F6CCB 		punpcklqdq	%xmm3, %xmm1
 8178 24b0 0F161500 		movhps	.LC21(%rip), %xmm2
 8178      000000
 8179 24b7 48894424 		movq	%rax, 32(%rsp)
 8179      20
 8180 24bc 0F294C24 		movaps	%xmm1, 16(%rsp)
 8180      10
 8181 24c1 0F291424 		movaps	%xmm2, (%rsp)
 8182 24c5 E8000000 		call	_ZNSt8ios_baseC2Ev@PLT
 8182      00
 8183 24ca 488D0500 		leaq	16+_ZTVSt9basic_iosIcSt11char_traitsIcEE(%rip), %rax
 8183      000000
 8184 24d1 660FEFC0 		pxor	%xmm0, %xmm0
 8185 24d5 31F6     		xorl	%esi, %esi
 8186 24d7 48898424 		movq	%rax, 208(%rsp)
 8186      D0000000 
 8187 24df 31C0     		xorl	%eax, %eax
 8188 24e1 66898424 		movw	%ax, 432(%rsp)
 8188      B0010000 
 8189 24e9 488B0500 		movq	8+_ZTTNSt7__cxx1119basic_ostringstreamIcSt11char_traitsIcESaIcEEE(%rip), %rax
 8189      000000
 8190 24f0 0F118424 		movups	%xmm0, 440(%rsp)
 8190      B8010000 
 8191 24f8 0F118424 		movups	%xmm0, 456(%rsp)
 8191      C8010000 
 8192 2500 488B78E8 		movq	-24(%rax), %rdi
 8193 2504 48894424 		movq	%rax, 96(%rsp)
 8193      60
 8194 2509 488B0500 		movq	16+_ZTTNSt7__cxx1119basic_ostringstreamIcSt11char_traitsIcESaIcEEE(%rip), %rax
 8194      000000
 8195 2510 48C78424 		movq	$0, 424(%rsp)
 8195      A8010000 
 8195      00000000 
 8196 251c 4C01EF   		addq	%r13, %rdi
 8197 251f 488907   		movq	%rax, (%rdi)
 8198              	.LEHB234:
 8199 2522 E8000000 		call	_ZNSt9basic_iosIcSt11char_traitsIcEE4initEPSt15basic_streambufIcS1_E@PLT
 8199      00
 8200              	.LEHE234:
 8201 2527 488D0500 		leaq	64+_ZTVNSt7__cxx1119basic_ostringstreamIcSt11char_traitsIcESaIcEEE(%rip), %rax
 8201      000000
 8202 252e 660F6F14 		movdqa	(%rsp), %xmm2
 8202      24
 8203 2533 660FEFC0 		pxor	%xmm0, %xmm0
 8204 2537 488D6C24 		leaq	104(%rsp), %rbp
 8204      68
 8205 253c 48898424 		movq	%rax, 208(%rsp)
 8205      D0000000 
 8206 2544 488D8424 		leaq	160(%rsp), %rax
 8206      A0000000 
 8207 254c 4889C7   		movq	%rax, %rdi
 8208 254f 48890424 		movq	%rax, (%rsp)
 8209 2553 0F295424 		movaps	%xmm2, 96(%rsp)
 8209      60
 8210 2558 0F294424 		movaps	%xmm0, 112(%rsp)
 8210      70
 8211 255d 0F298424 		movaps	%xmm0, 128(%rsp)
 8211      80000000 
 8212 2565 0F298424 		movaps	%xmm0, 144(%rsp)
 8212      90000000 
 8213 256d E8000000 		call	_ZNSt6localeC1Ev@PLT
 8213      00
 8214 2572 4889EE   		movq	%rbp, %rsi
 8215 2575 4C89F7   		movq	%r14, %rdi
 8216 2578 48895C24 		movq	%rbx, 104(%rsp)
 8216      68
 8217 257d 488D8424 		leaq	192(%rsp), %rax
 8217      C0000000 
 8218 2585 C68424C0 		movb	$0, 192(%rsp)
 8218      00000000 
 8219 258d C78424A8 		movl	$16, 168(%rsp)
 8219      00000010 
 8219      000000
 8220 2598 48894424 		movq	%rax, 40(%rsp)
 8220      28
 8221 259d 48898424 		movq	%rax, 176(%rsp)
 8221      B0000000 
 8222 25a5 48C78424 		movq	$0, 184(%rsp)
 8222      B8000000 
 8222      00000000 
 8223              	.LEHB235:
 8224 25b1 E8000000 		call	_ZNSt9basic_iosIcSt11char_traitsIcEE4initEPSt15basic_streambufIcS1_E@PLT
 8224      00
 8225              	.LEHE235:
 8226 25b6 488D8424 		leaq	472(%rsp), %rax
 8226      D8010000 
 8227 25be 4C89EE   		movq	%r13, %rsi
 8228 25c1 4889C7   		movq	%rax, %rdi
 8229 25c4 48894424 		movq	%rax, 48(%rsp)
 8229      30
 8230              	.LEHB236:
 8231 25c9 E8000000 		call	_ZN8UnitTest15XmlTestReporterC1ERSo@PLT
 8231      00
 8232              	.LEHE236:
 8233 25ce 488B4424 		movq	32(%rsp), %rax
 8233      20
 8234 25d3 4C89EF   		movq	%r13, %rdi
 8235 25d6 4889C6   		movq	%rax, %rsi
 8236 25d9 48898424 		movq	%rax, 512(%rsp)
 8236      00020000 
 8237              	.LEHB237:
 8238 25e1 E84AFCFF 		call	_ZN8UnitTest11ExecuteTestIN12_GLOBAL__N_167XmlTestReporterFixtureSingleSuccessfulTestReportSu
 8238      FF
 8239              	.LEHE237:
 8240 25e6 4C8BA424 		movq	488(%rsp), %r12
 8240      E8010000 
 8241 25ee 488BAC24 		movq	480(%rsp), %rbp
 8241      E0010000 
 8242 25f6 488D0500 		leaq	16+_ZTVN8UnitTest20DeferredTestReporterE(%rip), %rax
 8242      000000
 8243 25fd 48898424 		movq	%rax, 472(%rsp)
 8243      D8010000 
 8244 2605 4939EC   		cmpq	%rbp, %r12
 8245 2608 0F849100 		je	.L800
 8245      0000
 8246 260e 6690     		.p2align 4,,10
 8247              		.p2align 3
 8248              	.L812:
 8249 2610 488B5D68 		movq	104(%rbp), %rbx
 8250 2614 4C8B7D60 		movq	96(%rbp), %r15
 8251 2618 4C39FB   		cmpq	%r15, %rbx
 8252 261b 7426     		je	.L801
 8253 261d 0F1F00   		.p2align 4,,10
 8254              		.p2align 3
 8255              	.L805:
 8256 2620 498B7F08 		movq	8(%r15), %rdi
 8257 2624 498D4718 		leaq	24(%r15), %rax
 8258 2628 4839C7   		cmpq	%rax, %rdi
 8259 262b 0F842701 		je	.L802
 8259      0000
 8260 2631 E8000000 		call	_ZdlPv@PLT
 8260      00
 8261 2636 4983C728 		addq	$40, %r15
 8262 263a 4939DF   		cmpq	%rbx, %r15
 8263 263d 75E1     		jne	.L805
 8264              	.L804:
 8265 263f 4C8B7D60 		movq	96(%rbp), %r15
 8266              	.L801:
 8267 2643 4D85FF   		testq	%r15, %r15
 8268 2646 7408     		je	.L806
 8269 2648 4C89FF   		movq	%r15, %rdi
 8270 264b E8000000 		call	_ZdlPv@PLT
 8270      00
 8271              	.L806:
 8272 2650 488B7D40 		movq	64(%rbp), %rdi
 8273 2654 488D4550 		leaq	80(%rbp), %rax
 8274 2658 4839C7   		cmpq	%rax, %rdi
 8275 265b 7405     		je	.L807
 8276 265d E8000000 		call	_ZdlPv@PLT
 8276      00
 8277              	.L807:
 8278 2662 488B7D20 		movq	32(%rbp), %rdi
 8279 2666 488D4530 		leaq	48(%rbp), %rax
 8280 266a 4839C7   		cmpq	%rax, %rdi
 8281 266d 7405     		je	.L808
 8282 266f E8000000 		call	_ZdlPv@PLT
 8282      00
 8283              	.L808:
 8284 2674 488B7D00 		movq	0(%rbp), %rdi
 8285 2678 488D4510 		leaq	16(%rbp), %rax
 8286 267c 4839C7   		cmpq	%rax, %rdi
 8287 267f 0F84EB00 		je	.L809
 8287      0000
 8288 2685 E8000000 		call	_ZdlPv@PLT
 8288      00
 8289 268a 4883ED80 		subq	$-128, %rbp
 8290 268e 4939EC   		cmpq	%rbp, %r12
 8291 2691 0F8579FF 		jne	.L812
 8291      FFFF
 8292              	.L811:
 8293 2697 488BAC24 		movq	480(%rsp), %rbp
 8293      E0010000 
 8294              	.L800:
 8295 269f 4885ED   		testq	%rbp, %rbp
 8296 26a2 7408     		je	.L813
 8297 26a4 4889EF   		movq	%rbp, %rdi
 8298 26a7 E8000000 		call	_ZdlPv@PLT
 8298      00
 8299              	.L813:
 8300 26ac 488B7C24 		movq	48(%rsp), %rdi
 8300      30
 8301              	.LEHB238:
 8302 26b1 E8000000 		call	_ZN8UnitTest12TestReporterD2Ev@PLT
 8302      00
 8303              	.LEHE238:
 8304 26b6 660F6F64 		movdqa	16(%rsp), %xmm4
 8304      2410
 8305 26bc 488D0500 		leaq	64+_ZTVNSt7__cxx1119basic_ostringstreamIcSt11char_traitsIcESaIcEEE(%rip), %rax
 8305      000000
 8306 26c3 488BBC24 		movq	176(%rsp), %rdi
 8306      B0000000 
 8307 26cb 48898424 		movq	%rax, 208(%rsp)
 8307      D0000000 
 8308 26d3 0F296424 		movaps	%xmm4, 96(%rsp)
 8308      60
 8309 26d8 483B7C24 		cmpq	40(%rsp), %rdi
 8309      28
 8310 26dd 7405     		je	.L814
 8311 26df E8000000 		call	_ZdlPv@PLT
 8311      00
 8312              	.L814:
 8313 26e4 488B3C24 		movq	(%rsp), %rdi
 8314 26e8 488D0500 		leaq	16+_ZTVSt15basic_streambufIcSt11char_traitsIcEE(%rip), %rax
 8314      000000
 8315 26ef 48894424 		movq	%rax, 104(%rsp)
 8315      68
 8316 26f4 E8000000 		call	_ZNSt6localeD1Ev@PLT
 8316      00
 8317 26f9 488B0500 		movq	8+_ZTTNSt7__cxx1119basic_ostringstreamIcSt11char_traitsIcESaIcEEE(%rip), %rax
 8317      000000
 8318 2700 488B0D00 		movq	16+_ZTTNSt7__cxx1119basic_ostringstreamIcSt11char_traitsIcESaIcEEE(%rip), %rcx
 8318      000000
 8319 2707 4C89F7   		movq	%r14, %rdi
 8320 270a 48894424 		movq	%rax, 96(%rsp)
 8320      60
 8321 270f 488B40E8 		movq	-24(%rax), %rax
 8322 2713 48894C04 		movq	%rcx, 96(%rsp,%rax)
 8322      60
 8323 2718 488D0500 		leaq	16+_ZTVSt9basic_iosIcSt11char_traitsIcEE(%rip), %rax
 8323      000000
 8324 271f 48898424 		movq	%rax, 208(%rsp)
 8324      D0000000 
 8325              	.LEHB239:
 8326 2727 E8000000 		call	_ZNSt8ios_baseD2Ev@PLT
 8326      00
 8327              	.LEHE239:
 8328 272c 488B8424 		movq	520(%rsp), %rax
 8328      08020000 
 8329 2734 64482B04 		subq	%fs:40, %rax
 8329      25280000 
 8329      00
 8330 273d 7543     		jne	.L859
 8331 273f 4881C418 		addq	$536, %rsp
 8331      020000
 8332              		.cfi_remember_state
 8333              		.cfi_def_cfa_offset 56
 8334 2746 5B       		popq	%rbx
 8335              		.cfi_def_cfa_offset 48
 8336 2747 5D       		popq	%rbp
 8337              		.cfi_def_cfa_offset 40
 8338 2748 415C     		popq	%r12
 8339              		.cfi_def_cfa_offset 32
 8340 274a 415D     		popq	%r13
 8341              		.cfi_def_cfa_offset 24
 8342 274c 415E     		popq	%r14
 8343              		.cfi_def_cfa_offset 16
 8344 274e 415F     		popq	%r15
 8345              		.cfi_def_cfa_offset 8
 8346 2750 C3       		ret
 8347              		.p2align 4,,10
 8348 2751 0F1F8000 		.p2align 3
 8348      000000
 8349              	.L802:
 8350              		.cfi_restore_state
 8351 2758 4983C728 		addq	$40, %r15
 8352 275c 4C39FB   		cmpq	%r15, %rbx
 8353 275f 0F85BBFE 		jne	.L805
 8353      FFFF
 8354 2765 E9D5FEFF 		jmp	.L804
 8354      FF
 8355 276a 660F1F44 		.p2align 4,,10
 8355      0000
 8356              		.p2align 3
 8357              	.L809:
 8358 2770 4883ED80 		subq	$-128, %rbp
 8359 2774 4939EC   		cmpq	%rbp, %r12
 8360 2777 0F8593FE 		jne	.L812
 8360      FFFF
 8361 277d E915FFFF 		jmp	.L811
 8361      FF
 8362              	.L859:
 8363 2782 E8000000 		call	__stack_chk_fail@PLT
 8363      00
 8364              	.L833:
 8365 2787 F30F1EFA 		endbr64
 8366 278b 4889C7   		movq	%rax, %rdi
 8367 278e 4889D0   		movq	%rdx, %rax
 8368 2791 E9000000 		jmp	.L854
 8368      00
 8369              	.L842:
 8370 2796 F30F1EFA 		endbr64
 8371 279a 4889C3   		movq	%rax, %rbx
 8372 279d 4889D5   		movq	%rdx, %rbp
 8373 27a0 E9000000 		jmp	.L818
 8373      00
 8374              	.L834:
 8375 27a5 F30F1EFA 		endbr64
 8376 27a9 4889C3   		movq	%rax, %rbx
 8377 27ac 4889D5   		movq	%rdx, %rbp
 8378 27af E9000000 		jmp	.L819
 8378      00
 8379              	.L839:
 8380 27b4 F30F1EFA 		endbr64
 8381 27b8 4889C3   		movq	%rax, %rbx
 8382 27bb 4889D5   		movq	%rdx, %rbp
 8383 27be E9000000 		jmp	.L799
 8383      00
 8384              	.L841:
 8385 27c3 F30F1EFA 		endbr64
 8386 27c7 4889C3   		movq	%rax, %rbx
 8387 27ca 4989D4   		movq	%rdx, %r12
 8388 27cd E9000000 		jmp	.L795
 8388      00
 8389              	.L840:
 8390 27d2 F30F1EFA 		endbr64
 8391 27d6 4889C3   		movq	%rax, %rbx
 8392 27d9 4989D4   		movq	%rdx, %r12
 8393 27dc E9000000 		jmp	.L796
 8393      00
 8394              		.section	.gcc_except_table
 8395              		.align 4
 8396              	.LLSDA1490:
 8397 07a4 FF       		.byte	0xff
 8398 07a5 9B       		.byte	0x9b
 8399 07a6 3D       		.uleb128 .LLSDATT1490-.LLSDATTD1490
 8400              	.LLSDATTD1490:
 8401 07a7 01       		.byte	0x1
 8402 07a8 24       		.uleb128 .LLSDACSE1490-.LLSDACSB1490
 8403              	.LLSDACSB1490:
 8404 07a9 D201     		.uleb128 .LEHB234-.LFB1490
 8405 07ab 05       		.uleb128 .LEHE234-.LEHB234
 8406 07ac 8207     		.uleb128 .L840-.LFB1490
 8407 07ae 07       		.uleb128 0x7
 8408 07af E102     		.uleb128 .LEHB235-.LFB1490
 8409 07b1 05       		.uleb128 .LEHE235-.LEHB235
 8410 07b2 F306     		.uleb128 .L841-.LFB1490
 8411 07b4 07       		.uleb128 0x7
 8412 07b5 F902     		.uleb128 .LEHB236-.LFB1490
 8413 07b7 05       		.uleb128 .LEHE236-.LEHB236
 8414 07b8 E406     		.uleb128 .L839-.LFB1490
 8415 07ba 07       		.uleb128 0x7
 8416 07bb 9103     		.uleb128 .LEHB237-.LFB1490
 8417 07bd 05       		.uleb128 .LEHE237-.LEHB237
 8418 07be D506     		.uleb128 .L834-.LFB1490
 8419 07c0 07       		.uleb128 0x7
 8420 07c1 E104     		.uleb128 .LEHB238-.LFB1490
 8421 07c3 05       		.uleb128 .LEHE238-.LEHB238
 8422 07c4 C606     		.uleb128 .L842-.LFB1490
 8423 07c6 07       		.uleb128 0x7
 8424 07c7 D705     		.uleb128 .LEHB239-.LFB1490
 8425 07c9 05       		.uleb128 .LEHE239-.LEHB239
 8426 07ca B706     		.uleb128 .L833-.LFB1490
 8427 07cc 05       		.uleb128 0x5
 8428              	.LLSDACSE1490:
 8429 07cd 03       		.byte	0x3
 8430 07ce 00       		.byte	0
 8431 07cf 02       		.byte	0x2
 8432 07d0 7D       		.byte	0x7d
 8433 07d1 01       		.byte	0x1
 8434 07d2 7D       		.byte	0x7d
 8435 07d3 00       		.byte	0
 8436 07d4 7D       		.byte	0x7d
 8437 07d5 000000   		.align 4
 8438 07d8 00000000 		.long	0
 8439              	
 8440 07dc 00000000 		.long	DW.ref._ZTISt9exception-.
 8441 07e0 00000000 		.long	DW.ref._ZTIN8UnitTest15AssertExceptionE-.
 8442              	.LLSDATT1490:
 8443              		.text
 8444              		.cfi_endproc
 8445              		.section	.text.unlikely
 8446              		.cfi_startproc
 8447              		.cfi_personality 0x9b,DW.ref.__gxx_personality_v0
 8448              		.cfi_lsda 0x1b,.LLSDAC1490
 8450              	_ZNK12_GLOBAL__N_165TestXmlTestReporterFixtureSingleSuccessfulTestReportSummaryFormat7RunImplEv.col
 8451              	.LFSB1490:
 8452              	.L819:
 8453              		.cfi_def_cfa_offset 592
 8454              		.cfi_offset 3, -56
 8455              		.cfi_offset 6, -48
 8456              		.cfi_offset 12, -40
 8457              		.cfi_offset 13, -32
 8458              		.cfi_offset 14, -24
 8459              		.cfi_offset 15, -16
 8460 1c10 4C89EF   		movq	%r13, %rdi
 8461 1c13 E806E7FF 		call	_ZN12_GLOBAL__N_122XmlTestReporterFixtureD2Ev
 8461      FF
 8462 1c18 4889DF   		movq	%rbx, %rdi
 8463 1c1b 4889E8   		movq	%rbp, %rax
 8464              	.L854:
 8465 1c1e BB010000 		movl	$1, %ebx
 8465      00
 8466              	.L797:
 8467 1c23 4883F801 		cmpq	$1, %rax
 8468 1c27 0F84EA00 		je	.L820
 8468      0000
 8469 1c2d 4883F802 		cmpq	$2, %rax
 8470 1c31 0F846B01 		je	.L860
 8470      0000
 8471 1c37 E8000000 		call	__cxa_begin_catch@PLT
 8471      00
 8472 1c3c 84DB     		testb	%bl, %bl
 8473 1c3e 0F85E901 		jne	.L861
 8473      0000
 8474              	.LEHB240:
 8475 1c44 E8000000 		call	_ZN8UnitTest11CurrentTest7ResultsEv@PLT
 8475      00
 8476 1c49 488D6C24 		leaq	64(%rsp), %rbp
 8476      40
 8477 1c4e 488B7424 		movq	32(%rsp), %rsi
 8477      20
 8478 1c53 BA500000 		movl	$80, %edx
 8478      00
 8479 1c58 4C8B20   		movq	(%rax), %r12
 8480 1c5b 4889EF   		movq	%rbp, %rdi
 8481 1c5e E8000000 		call	_ZN8UnitTest11TestDetailsC1ERKS0_i@PLT
 8481      00
 8482 1c63 488D1500 		leaq	.LC20(%rip), %rdx
 8482      000000
 8483 1c6a 4889EE   		movq	%rbp, %rsi
 8484 1c6d 4C89E7   		movq	%r12, %rdi
 8485 1c70 E8000000 		call	_ZN8UnitTest11TestResults13OnTestFailureERKNS_11TestDetailsEPKc@PLT
 8485      00
 8486              	.LEHE240:
 8487              	.L826:
 8488 1c75 488B8424 		movq	520(%rsp), %rax
 8488      08020000 
 8489 1c7d 64482B04 		subq	%fs:40, %rax
 8489      25280000 
 8489      00
 8490 1c86 0F851101 		jne	.L856
 8490      0000
 8491 1c8c 4881C418 		addq	$536, %rsp
 8491      020000
 8492              		.cfi_remember_state
 8493              		.cfi_def_cfa_offset 56
 8494 1c93 5B       		popq	%rbx
 8495              		.cfi_def_cfa_offset 48
 8496 1c94 5D       		popq	%rbp
 8497              		.cfi_def_cfa_offset 40
 8498 1c95 415C     		popq	%r12
 8499              		.cfi_def_cfa_offset 32
 8500 1c97 415D     		popq	%r13
 8501              		.cfi_def_cfa_offset 24
 8502 1c99 415E     		popq	%r14
 8503              		.cfi_def_cfa_offset 16
 8504 1c9b 415F     		popq	%r15
 8505              		.cfi_def_cfa_offset 8
 8506              	.LEHB241:
 8507 1c9d E9000000 		jmp	__cxa_end_catch@PLT
 8507      00
 8508              	.LEHE241:
 8509              	.L818:
 8510              		.cfi_restore_state
 8511 1ca2 4C89EF   		movq	%r13, %rdi
 8512 1ca5 E8000000 		call	_ZNSt7__cxx1119basic_ostringstreamIcSt11char_traitsIcESaIcEED1Ev@PLT
 8512      00
 8513 1caa 4889DF   		movq	%rbx, %rdi
 8514 1cad 4889E8   		movq	%rbp, %rax
 8515 1cb0 BB010000 		movl	$1, %ebx
 8515      00
 8516 1cb5 E969FFFF 		jmp	.L797
 8516      FF
 8517              	.L799:
 8518 1cba 4C89EF   		movq	%r13, %rdi
 8519 1cbd E8000000 		call	_ZNSt7__cxx1119basic_ostringstreamIcSt11char_traitsIcESaIcEED1Ev@PLT
 8519      00
 8520 1cc2 4889DF   		movq	%rbx, %rdi
 8521 1cc5 4889E8   		movq	%rbp, %rax
 8522 1cc8 31DB     		xorl	%ebx, %ebx
 8523 1cca E954FFFF 		jmp	.L797
 8523      FF
 8524              	.L795:
 8525 1ccf 4889EF   		movq	%rbp, %rdi
 8526 1cd2 E8000000 		call	_ZNSt7__cxx1115basic_stringbufIcSt11char_traitsIcESaIcEED1Ev
 8526      00
 8527 1cd7 488B0500 		movq	8+_ZTTNSt7__cxx1119basic_ostringstreamIcSt11char_traitsIcESaIcEEE(%rip), %rax
 8527      000000
 8528 1cde 488B0D00 		movq	16+_ZTTNSt7__cxx1119basic_ostringstreamIcSt11char_traitsIcESaIcEEE(%rip), %rcx
 8528      000000
 8529 1ce5 48894424 		movq	%rax, 96(%rsp)
 8529      60
 8530 1cea 488B40E8 		movq	-24(%rax), %rax
 8531 1cee 48894C04 		movq	%rcx, 96(%rsp,%rax)
 8531      60
 8532              	.L796:
 8533 1cf3 488D0500 		leaq	16+_ZTVSt9basic_iosIcSt11char_traitsIcEE(%rip), %rax
 8533      000000
 8534 1cfa 4C89F7   		movq	%r14, %rdi
 8535 1cfd 48898424 		movq	%rax, 208(%rsp)
 8535      D0000000 
 8536 1d05 E8000000 		call	_ZNSt8ios_baseD2Ev@PLT
 8536      00
 8537 1d0a 4889DF   		movq	%rbx, %rdi
 8538 1d0d 4C89E0   		movq	%r12, %rax
 8539 1d10 31DB     		xorl	%ebx, %ebx
 8540 1d12 E90CFFFF 		jmp	.L797
 8540      FF
 8541              	.L820:
 8542 1d17 E8000000 		call	__cxa_begin_catch@PLT
 8542      00
 8543 1d1c 4889C5   		movq	%rax, %rbp
 8544              	.LEHB242:
 8545 1d1f E8000000 		call	_ZN8UnitTest11CurrentTest7ResultsEv@PLT
 8545      00
 8546 1d24 4C8B28   		movq	(%rax), %r13
 8547 1d27 488B4500 		movq	0(%rbp), %rax
 8548 1d2b 4889EF   		movq	%rbp, %rdi
 8549 1d2e FF5010   		call	*16(%rax)
 8550 1d31 4889EF   		movq	%rbp, %rdi
 8551 1d34 4989C4   		movq	%rax, %r12
 8552 1d37 E8000000 		call	_ZNK8UnitTest15AssertException10LineNumberEv@PLT
 8552      00
 8553 1d3c 4889EF   		movq	%rbp, %rdi
 8554 1d3f 89C3     		movl	%eax, %ebx
 8555 1d41 E8000000 		call	_ZNK8UnitTest15AssertException8FilenameEv@PLT
 8555      00
 8556 1d46 4889C1   		movq	%rax, %rcx
 8557 1d49 488B4424 		movq	56(%rsp), %rax
 8557      38
 8558 1d4e 488D6C24 		leaq	64(%rsp), %rbp
 8558      40
 8559 1d53 4189D8   		movl	%ebx, %r8d
 8560 1d56 4889EF   		movq	%rbp, %rdi
 8561 1d59 488B5008 		movq	8(%rax), %rdx
 8562 1d5d 488B7010 		movq	16(%rax), %rsi
 8563 1d61 E8000000 		call	_ZN8UnitTest11TestDetailsC1EPKcS2_S2_i@PLT
 8563      00
 8564 1d66 4C89E2   		movq	%r12, %rdx
 8565 1d69 4889EE   		movq	%rbp, %rsi
 8566 1d6c 4C89EF   		movq	%r13, %rdi
 8567 1d6f E8000000 		call	_ZN8UnitTest11TestResults13OnTestFailureERKNS_11TestDetailsEPKc@PLT
 8567      00
 8568              	.LEHE242:
 8569              	.L858:
 8570 1d74 488B8424 		movq	520(%rsp), %rax
 8570      08020000 
 8571 1d7c 64482B04 		subq	%fs:40, %rax
 8571      25280000 
 8571      00
 8572 1d85 7516     		jne	.L856
 8573 1d87 4881C418 		addq	$536, %rsp
 8573      020000
 8574              		.cfi_remember_state
 8575              		.cfi_def_cfa_offset 56
 8576 1d8e 5B       		popq	%rbx
 8577              		.cfi_def_cfa_offset 48
 8578 1d8f 5D       		popq	%rbp
 8579              		.cfi_def_cfa_offset 40
 8580 1d90 415C     		popq	%r12
 8581              		.cfi_def_cfa_offset 32
 8582 1d92 415D     		popq	%r13
 8583              		.cfi_def_cfa_offset 24
 8584 1d94 415E     		popq	%r14
 8585              		.cfi_def_cfa_offset 16
 8586 1d96 415F     		popq	%r15
 8587              		.cfi_def_cfa_offset 8
 8588 1d98 E9000000 		jmp	__cxa_end_catch@PLT
 8588      00
 8589              	.L856:
 8590              		.cfi_restore_state
 8591 1d9d E8000000 		call	__stack_chk_fail@PLT
 8591      00
 8592              	.L860:
 8593 1da2 E8000000 		call	__cxa_begin_catch@PLT
 8593      00
 8594 1da7 4C89EF   		movq	%r13, %rdi
 8595 1daa 4889C5   		movq	%rax, %rbp
 8596              	.LEHB243:
 8597 1dad E8000000 		call	_ZN8UnitTest15MemoryOutStreamC1Ev
 8597      00
 8598              	.LEHE243:
 8599 1db2 BA150000 		movl	$21, %edx
 8599      00
 8600 1db7 488D3500 		leaq	.LC16(%rip), %rsi
 8600      000000
 8601 1dbe 4C89EF   		movq	%r13, %rdi
 8602              	.LEHB244:
 8603 1dc1 E8000000 		call	_ZSt16__ostream_insertIcSt11char_traitsIcEERSt13basic_ostreamIT_T0_ES6_PKS3_l@PLT
 8603      00
 8604 1dc6 488B4500 		movq	0(%rbp), %rax
 8605 1dca 4889EF   		movq	%rbp, %rdi
 8606 1dcd FF5010   		call	*16(%rax)
 8607 1dd0 4C89EF   		movq	%r13, %rdi
 8608 1dd3 4889C6   		movq	%rax, %rsi
 8609 1dd6 E8000000 		call	_ZStlsISt11char_traitsIcEERSt13basic_ostreamIcT_ES5_PKc@PLT
 8609      00
 8610 1ddb E8000000 		call	_ZN8UnitTest11CurrentTest7ResultsEv@PLT
 8610      00
 8611 1de0 4C89EF   		movq	%r13, %rdi
 8612 1de3 488B28   		movq	(%rax), %rbp
 8613 1de6 E8000000 		call	_ZNK8UnitTest15MemoryOutStream7GetTextEv@PLT
 8613      00
 8614 1deb 488B7424 		movq	32(%rsp), %rsi
 8614      20
 8615 1df0 4889C2   		movq	%rax, %rdx
 8616 1df3 4889EF   		movq	%rbp, %rdi
 8617 1df6 E8000000 		call	_ZN8UnitTest11TestResults13OnTestFailureERKNS_11TestDetailsEPKc@PLT
 8617      00
 8618              	.LEHE244:
 8619 1dfb 4C89EF   		movq	%r13, %rdi
 8620              	.LEHB245:
 8621 1dfe E8000000 		call	_ZN8UnitTest15MemoryOutStreamD1Ev
 8621      00
 8622              	.LEHE245:
 8623 1e03 E96CFFFF 		jmp	.L858
 8623      FF
 8624              	.L837:
 8625 1e08 F30F1EFA 		endbr64
 8626 1e0c 4C89EF   		movq	%r13, %rdi
 8627 1e0f 4889C5   		movq	%rax, %rbp
 8628 1e12 E8000000 		call	_ZN8UnitTest15MemoryOutStreamD1Ev
 8628      00
 8629              	.L830:
 8630 1e17 E8000000 		call	__cxa_end_catch@PLT
 8630      00
 8631 1e1c 4889EF   		movq	%rbp, %rdi
 8632              	.LEHB246:
 8633 1e1f E8000000 		call	_Unwind_Resume@PLT
 8633      00
 8634              	.LEHE246:
 8635              	.L836:
 8636 1e24 F30F1EFA 		endbr64
 8637              	.L857:
 8638 1e28 4889C5   		movq	%rax, %rbp
 8639 1e2b EBEA     		jmp	.L830
 8640              	.L861:
 8641              	.LEHB247:
 8642 1e2d E8000000 		call	_ZN8UnitTest11CurrentTest7ResultsEv@PLT
 8642      00
 8643 1e32 488D6C24 		leaq	64(%rsp), %rbp
 8643      40
 8644 1e37 488B7424 		movq	32(%rsp), %rsi
 8644      20
 8645 1e3c BA500000 		movl	$80, %edx
 8645      00
 8646 1e41 4C8B20   		movq	(%rax), %r12
 8647 1e44 4889EF   		movq	%rbp, %rdi
 8648 1e47 E8000000 		call	_ZN8UnitTest11TestDetailsC1ERKS0_i@PLT
 8648      00
 8649 1e4c 488D1500 		leaq	.LC19(%rip), %rdx
 8649      000000
 8650 1e53 4889EE   		movq	%rbp, %rsi
 8651 1e56 4C89E7   		movq	%r12, %rdi
 8652 1e59 E8000000 		call	_ZN8UnitTest11TestResults13OnTestFailureERKNS_11TestDetailsEPKc@PLT
 8652      00
 8653              	.LEHE247:
 8654 1e5e E912FEFF 		jmp	.L826
 8654      FF
 8655              	.L838:
 8656 1e63 F30F1EFA 		endbr64
 8657 1e67 4889C5   		movq	%rax, %rbp
 8658 1e6a E8000000 		call	__cxa_end_catch@PLT
 8658      00
 8659 1e6f 4889EF   		movq	%rbp, %rdi
 8660              	.LEHB248:
 8661 1e72 E8000000 		call	_Unwind_Resume@PLT
 8661      00
 8662              	.LEHE248:
 8663              	.L835:
 8664 1e77 F30F1EFA 		endbr64
 8665 1e7b EBAB     		jmp	.L857
 8666              		.cfi_endproc
 8667              	.LFE1490:
 8668              		.section	.gcc_except_table
 8669              		.align 4
 8670              	.LLSDAC1490:
 8671 07e4 FF       		.byte	0xff
 8672 07e5 9B       		.byte	0x9b
 8673 07e6 49       		.uleb128 .LLSDATTC1490-.LLSDATTDC1490
 8674              	.LLSDATTDC1490:
 8675 07e7 01       		.byte	0x1
 8676 07e8 32       		.uleb128 .LLSDACSEC1490-.LLSDACSBC1490
 8677              	.LLSDACSBC1490:
 8678 07e9 34       		.uleb128 .LEHB240-.LCOLDB57
 8679 07ea 31       		.uleb128 .LEHE240-.LEHB240
 8680 07eb D304     		.uleb128 .L838-.LCOLDB57
 8681 07ed 00       		.uleb128 0
 8682 07ee 8D01     		.uleb128 .LEHB241-.LCOLDB57
 8683 07f0 05       		.uleb128 .LEHE241-.LEHB241
 8684 07f1 00       		.uleb128 0
 8685 07f2 00       		.uleb128 0
 8686 07f3 8F02     		.uleb128 .LEHB242-.LCOLDB57
 8687 07f5 55       		.uleb128 .LEHE242-.LEHB242
 8688 07f6 E704     		.uleb128 .L835-.LCOLDB57
 8689 07f8 00       		.uleb128 0
 8690 07f9 9D03     		.uleb128 .LEHB243-.LCOLDB57
 8691 07fb 05       		.uleb128 .LEHE243-.LEHB243
 8692 07fc 9404     		.uleb128 .L836-.LCOLDB57
 8693 07fe 00       		.uleb128 0
 8694 07ff B103     		.uleb128 .LEHB244-.LCOLDB57
 8695 0801 3A       		.uleb128 .LEHE244-.LEHB244
 8696 0802 F803     		.uleb128 .L837-.LCOLDB57
 8697 0804 00       		.uleb128 0
 8698 0805 EE03     		.uleb128 .LEHB245-.LCOLDB57
 8699 0807 05       		.uleb128 .LEHE245-.LEHB245
 8700 0808 9404     		.uleb128 .L836-.LCOLDB57
 8701 080a 00       		.uleb128 0
 8702 080b 8F04     		.uleb128 .LEHB246-.LCOLDB57
 8703 080d 05       		.uleb128 .LEHE246-.LEHB246
 8704 080e 00       		.uleb128 0
 8705 080f 00       		.uleb128 0
 8706 0810 9D04     		.uleb128 .LEHB247-.LCOLDB57
 8707 0812 31       		.uleb128 .LEHE247-.LEHB247
 8708 0813 D304     		.uleb128 .L838-.LCOLDB57
 8709 0815 00       		.uleb128 0
 8710 0816 E204     		.uleb128 .LEHB248-.LCOLDB57
 8711 0818 05       		.uleb128 .LEHE248-.LEHB248
 8712 0819 00       		.uleb128 0
 8713 081a 00       		.uleb128 0
 8714              	.LLSDACSEC1490:
 8715 081b 03       		.byte	0x3
 8716 081c 00       		.byte	0
 8717 081d 02       		.byte	0x2
 8718 081e 7D       		.byte	0x7d
 8719 081f 01       		.byte	0x1
 8720 0820 7D       		.byte	0x7d
 8721 0821 00       		.byte	0
 8722 0822 7D       		.byte	0x7d
 8723 0823 00       		.align 4
 8724 0824 00000000 		.long	0
 8725              	
 8726 0828 00000000 		.long	DW.ref._ZTISt9exception-.
 8727 082c 00000000 		.long	DW.ref._ZTIN8UnitTest15AssertExceptionE-.
 8728              	.LLSDATTC1490:
 8729              		.section	.text.unlikely
 8730              		.text
 8732              		.section	.text.unlikely
 8734              	.LCOLDE57:
 8735              		.text
 8736              	.LHOTE57:
 8737              		.section	.rodata.str1.8
 8738 05c2 00000000 		.align 8
 8738      0000
 8739              	.LC58:
 8740 05c8 3C3F786D 		.string	"<?xml version=\"1.0\"?><unittest-results tests=\"0\" failedtests=\"0\" failures=\"0\" tim
 8740      6C207665 
 8740      7273696F 
 8740      6E3D2231 
 8740      2E30223F 
 8741              		.section	.text.unlikely
 8742              	.LCOLDB59:
 8743              		.text
 8744              	.LHOTB59:
 8745 27e1 66662E0F 		.p2align 4
 8745      1F840000 
 8745      0000000F 
 8745      1F4000
 8747              	_ZN8UnitTest11ExecuteTestIN12_GLOBAL__N_152XmlTestReporterFixtureEmptyReportSummaryFormatHelperEEEv
 8748              	.LFB1573:
 8749              		.cfi_startproc
 8750              		.cfi_personality 0x9b,DW.ref.__gxx_personality_v0
 8751              		.cfi_lsda 0x1b,.LLSDA1573
 8752 27f0 4156     		pushq	%r14
 8753              		.cfi_def_cfa_offset 16
 8754              		.cfi_offset 14, -16
 8755 27f2 4155     		pushq	%r13
 8756              		.cfi_def_cfa_offset 24
 8757              		.cfi_offset 13, -24
 8758 27f4 4154     		pushq	%r12
 8759              		.cfi_def_cfa_offset 32
 8760              		.cfi_offset 12, -32
 8761 27f6 55       		pushq	%rbp
 8762              		.cfi_def_cfa_offset 40
 8763              		.cfi_offset 6, -40
 8764 27f7 53       		pushq	%rbx
 8765              		.cfi_def_cfa_offset 48
 8766              		.cfi_offset 3, -48
 8767 27f8 4889F3   		movq	%rsi, %rbx
 8768 27fb 4881ECB0 		subq	$1712, %rsp
 8768      060000
 8769              		.cfi_def_cfa_offset 1760
 8770 2802 48893C24 		movq	%rdi, (%rsp)
 8771 2806 48897424 		movq	%rsi, 8(%rsp)
 8771      08
 8772 280b 64488B04 		movq	%fs:40, %rax
 8772      25280000 
 8772      00
 8773 2814 48898424 		movq	%rax, 1704(%rsp)
 8773      A8060000 
 8774 281c 31C0     		xorl	%eax, %eax
 8775              	.LEHB249:
 8776 281e E8000000 		call	_ZN8UnitTest11CurrentTest7DetailsEv@PLT
 8776      00
 8777              	.LEHE249:
 8778 2823 488DBC24 		leaq	576(%rsp), %rdi
 8778      40020000 
 8779 282b 488918   		movq	%rbx, (%rax)
 8780              	.LEHB250:
 8781 282e E8000000 		call	_ZN8UnitTest16SignalTranslatorC1Ev@PLT
 8781      00
 8782              	.LEHE250:
 8783 2833 488B3D00 		movq	_ZN8UnitTest16SignalTranslator12s_jumpTargetE(%rip), %rdi
 8783      000000
 8784 283a BE010000 		movl	$1, %esi
 8784      00
 8785 283f E8000000 		call	__sigsetjmp@PLT
 8785      00
 8786 2844 F30F1EFA 		endbr64
 8787 2848 85C0     		testl	%eax, %eax
 8788 284a 0F850000 		jne	.L907
 8788      0000
 8789 2850 488B1C24 		movq	(%rsp), %rbx
 8790 2854 F30F1005 		movss	.LC32(%rip), %xmm0
 8790      00000000 
 8791 285c 31C9     		xorl	%ecx, %ecx
 8792 285e 31D2     		xorl	%edx, %edx
 8793 2860 31F6     		xorl	%esi, %esi
 8794 2862 488DBB78 		leaq	376(%rbx), %rdi
 8794      010000
 8795              	.LEHB251:
 8796 2869 E8000000 		call	_ZN8UnitTest15XmlTestReporter13ReportSummaryEiiif@PLT
 8796      00
 8797              	.LEHE251:
 8798 286e 488D0500 		leaq	.LC58(%rip), %rax
 8798      000000
 8799 2875 48894424 		movq	%rax, 24(%rsp)
 8799      18
 8800              	.LEHB252:
 8801 287a E8000000 		call	_ZN8UnitTest11CurrentTest7DetailsEv@PLT
 8801      00
 8802 287f 488B30   		movq	(%rax), %rsi
 8803 2882 488D7C24 		leaq	96(%rsp), %rdi
 8803      60
 8804 2887 BA4D0000 		movl	$77, %edx
 8804      00
 8805 288c E8000000 		call	_ZN8UnitTest11TestDetailsC1ERKS0_i@PLT
 8805      00
 8806              	.LEHE252:
 8807 2891 488D8424 		leaq	144(%rsp), %rax
 8807      90000000 
 8808 2899 C6842490 		movb	$0, 144(%rsp)
 8808      00000000 
 8809 28a1 488DBC24 		leaq	128(%rsp), %rdi
 8809      80000000 
 8810 28a9 48898424 		movq	%rax, 128(%rsp)
 8810      80000000 
 8811 28b1 488B4330 		movq	48(%rbx), %rax
 8812 28b5 48C78424 		movq	$0, 136(%rsp)
 8812      88000000 
 8812      00000000 
 8813 28c1 4885C0   		testq	%rax, %rax
 8814 28c4 0F84A600 		je	.L865
 8814      0000
 8815 28ca 4C8B4320 		movq	32(%rbx), %r8
 8816 28ce 4D85C0   		testq	%r8, %r8
 8817 28d1 0F849100 		je	.L904
 8817      0000
 8818 28d7 4C39C0   		cmpq	%r8, %rax
 8819 28da 0F878800 		ja	.L904
 8819      0000
 8820              	.L866:
 8821 28e0 488B0424 		movq	(%rsp), %rax
 8822 28e4 488DBC24 		leaq	128(%rsp), %rdi
 8822      80000000 
 8823 28ec 31D2     		xorl	%edx, %edx
 8824 28ee 31F6     		xorl	%esi, %esi
 8825 28f0 488B4828 		movq	40(%rax), %rcx
 8826 28f4 4929C8   		subq	%rcx, %r8
 8827              	.LEHB253:
 8828 28f7 E8000000 		call	_ZNSt7__cxx1112basic_stringIcSt11char_traitsIcESaIcEE10_M_replaceEmmPKcm@PLT
 8828      00
 8829              	.LEHE253:
 8830              	.L869:
 8831              	.LEHB254:
 8832 28fc E8000000 		call	_ZN8UnitTest11CurrentTest7ResultsEv@PLT
 8832      00
 8833 2901 488B38   		movq	(%rax), %rdi
 8834 2904 488D4C24 		leaq	96(%rsp), %rcx
 8834      60
 8835 2909 488D7424 		leaq	24(%rsp), %rsi
 8835      18
 8836 290e 488D9424 		leaq	128(%rsp), %rdx
 8836      80000000 
 8837 2916 E8000000 		call	_ZN8UnitTest10CheckEqualIPKcNSt7__cxx1112basic_stringIcSt11char_traitsIcESaIcEEEEEvRNS_11Test
 8837      00
 8838              	.LEHE254:
 8839 291b 488BBC24 		movq	128(%rsp), %rdi
 8839      80000000 
 8840 2923 488D8424 		leaq	144(%rsp), %rax
 8840      90000000 
 8841 292b 4839C7   		cmpq	%rax, %rdi
 8842 292e 7405     		je	.L875
 8843 2930 E8000000 		call	_ZdlPv@PLT
 8843      00
 8844              	.L875:
 8845 2935 488DBC24 		leaq	576(%rsp), %rdi
 8845      40020000 
 8846              	.LEHB255:
 8847 293d E8000000 		call	_ZN8UnitTest16SignalTranslatorD1Ev@PLT
 8847      00
 8848              	.LEHE255:
 8849              	.L862:
 8850 2942 488B8424 		movq	1704(%rsp), %rax
 8850      A8060000 
 8851 294a 64482B04 		subq	%fs:40, %rax
 8851      25280000 
 8851      00
 8852 2953 752D     		jne	.L911
 8853 2955 4881C4B0 		addq	$1712, %rsp
 8853      060000
 8854              		.cfi_remember_state
 8855              		.cfi_def_cfa_offset 48
 8856 295c 5B       		popq	%rbx
 8857              		.cfi_def_cfa_offset 40
 8858 295d 5D       		popq	%rbp
 8859              		.cfi_def_cfa_offset 32
 8860 295e 415C     		popq	%r12
 8861              		.cfi_def_cfa_offset 24
 8862 2960 415D     		popq	%r13
 8863              		.cfi_def_cfa_offset 16
 8864 2962 415E     		popq	%r14
 8865              		.cfi_def_cfa_offset 8
 8866 2964 C3       		ret
 8867              		.p2align 4,,10
 8868 2965 0F1F00   		.p2align 3
 8869              	.L904:
 8870              		.cfi_restore_state
 8871 2968 4989C0   		movq	%rax, %r8
 8872 296b E970FFFF 		jmp	.L866
 8872      FF
 8873              		.p2align 4,,10
 8874              		.p2align 3
 8875              	.L865:
 8876 2970 488B3424 		movq	(%rsp), %rsi
 8877 2974 4883C650 		addq	$80, %rsi
 8878              	.LEHB256:
 8879 2978 E8000000 		call	_ZNSt7__cxx1112basic_stringIcSt11char_traitsIcESaIcEE9_M_assignERKS4_@PLT
 8879      00
 8880              	.LEHE256:
 8881 297d E97AFFFF 		jmp	.L869
 8881      FF
 8882              	.L911:
 8883 2982 E8000000 		call	__stack_chk_fail@PLT
 8883      00
 8884              	.L901:
 8885 2987 F30F1EFA 		endbr64
 8886 298b 4889C7   		movq	%rax, %rdi
 8887 298e E9000000 		jmp	.L872
 8887      00
 8888              	.L905:
 8889 2993 F30F1EFA 		endbr64
 8890 2997 E9000000 		jmp	.L906
 8890      00
 8891              	.L894:
 8892 299c F30F1EFA 		endbr64
 8893 29a0 4889C7   		movq	%rax, %rdi
 8894 29a3 4889D0   		movq	%rdx, %rax
 8895 29a6 E9000000 		jmp	.L883
 8895      00
 8896              	.L902:
 8897 29ab F30F1EFA 		endbr64
 8898 29af 4889C3   		movq	%rax, %rbx
 8899 29b2 E9000000 		jmp	.L878
 8899      00
 8900              	.L903:
 8901 29b7 F30F1EFA 		endbr64
 8902 29bb 4889C3   		movq	%rax, %rbx
 8903 29be E9000000 		jmp	.L870
 8903      00
 8904              		.section	.gcc_except_table
 8905              		.align 4
 8906              	.LLSDA1573:
 8907 0830 FF       		.byte	0xff
 8908 0831 9B       		.byte	0x9b
 8909 0832 45       		.uleb128 .LLSDATT1573-.LLSDATTD1573
 8910              	.LLSDATTD1573:
 8911 0833 01       		.byte	0x1
 8912 0834 2C       		.uleb128 .LLSDACSE1573-.LLSDACSB1573
 8913              	.LLSDACSB1573:
 8914 0835 2E       		.uleb128 .LEHB249-.LFB1573
 8915 0836 05       		.uleb128 .LEHE249-.LEHB249
 8916 0837 00       		.uleb128 0
 8917 0838 00       		.uleb128 0
 8918 0839 3E       		.uleb128 .LEHB250-.LFB1573
 8919 083a 05       		.uleb128 .LEHE250-.LEHB250
 8920 083b AC03     		.uleb128 .L894-.LFB1573
 8921 083d 05       		.uleb128 0x5
 8922 083e 79       		.uleb128 .LEHB251-.LFB1573
 8923 083f 05       		.uleb128 .LEHE251-.LEHB251
 8924 0840 A303     		.uleb128 .L905-.LFB1573
 8925 0842 07       		.uleb128 0x7
 8926 0843 8A01     		.uleb128 .LEHB252-.LFB1573
 8927 0845 17       		.uleb128 .LEHE252-.LEHB252
 8928 0846 9703     		.uleb128 .L901-.LFB1573
 8929 0848 01       		.uleb128 0x1
 8930 0849 8702     		.uleb128 .LEHB253-.LFB1573
 8931 084b 05       		.uleb128 .LEHE253-.LEHB253
 8932 084c C703     		.uleb128 .L903-.LFB1573
 8933 084e 01       		.uleb128 0x1
 8934 084f 8C02     		.uleb128 .LEHB254-.LFB1573
 8935 0851 1F       		.uleb128 .LEHE254-.LEHB254
 8936 0852 BB03     		.uleb128 .L902-.LFB1573
 8937 0854 01       		.uleb128 0x1
 8938 0855 CD02     		.uleb128 .LEHB255-.LFB1573
 8939 0857 05       		.uleb128 .LEHE255-.LEHB255
 8940 0858 AC03     		.uleb128 .L894-.LFB1573
 8941 085a 05       		.uleb128 0x5
 8942 085b 8803     		.uleb128 .LEHB256-.LFB1573
 8943 085d 05       		.uleb128 .LEHE256-.LEHB256
 8944 085e C703     		.uleb128 .L903-.LFB1573
 8945 0860 01       		.uleb128 0x1
 8946              	.LLSDACSE1573:
 8947 0861 03       		.byte	0x3
 8948 0862 00       		.byte	0
 8949 0863 02       		.byte	0x2
 8950 0864 7D       		.byte	0x7d
 8951 0865 01       		.byte	0x1
 8952 0866 7D       		.byte	0x7d
 8953 0867 00       		.byte	0
 8954 0868 7D       		.byte	0x7d
 8955 0869 000000   		.align 4
 8956 086c 00000000 		.long	0
 8957              	
 8958 0870 00000000 		.long	DW.ref._ZTISt9exception-.
 8959 0874 00000000 		.long	DW.ref._ZTIN8UnitTest15AssertExceptionE-.
 8960              	.LLSDATT1573:
 8961              		.text
 8962              		.cfi_endproc
 8963              		.section	.text.unlikely
 8964              		.cfi_startproc
 8965              		.cfi_personality 0x9b,DW.ref.__gxx_personality_v0
 8966              		.cfi_lsda 0x1b,.LLSDAC1573
 8968              	_ZN8UnitTest11ExecuteTestIN12_GLOBAL__N_152XmlTestReporterFixtureEmptyReportSummaryFormatHelperEEEv
 8969              	.LFSB1573:
 8970              	.L907:
 8971              		.cfi_def_cfa_offset 1760
 8972              		.cfi_offset 3, -48
 8973              		.cfi_offset 6, -40
 8974              		.cfi_offset 12, -32
 8975              		.cfi_offset 13, -24
 8976              		.cfi_offset 14, -16
 8977 1e7d BF080000 		movl	$8, %edi
 8977      00
 8978 1e82 E8000000 		call	__cxa_allocate_exception@PLT
 8978      00
 8979 1e87 31D2     		xorl	%edx, %edx
 8980 1e89 488D3500 		leaq	_ZTIPKc(%rip), %rsi
 8980      000000
 8981 1e90 4889C7   		movq	%rax, %rdi
 8982 1e93 488D0500 		leaq	.LC8(%rip), %rax
 8982      000000
 8983 1e9a 488907   		movq	%rax, (%rdi)
 8984              	.LEHB257:
 8985 1e9d E8000000 		call	__cxa_throw@PLT
 8985      00
 8986              	.LEHE257:
 8987              	.L895:
 8988 1ea2 F30F1EFA 		endbr64
 8989              	.L906:
 8990 1ea6 4889C3   		movq	%rax, %rbx
 8991 1ea9 4889D5   		movq	%rdx, %rbp
 8992 1eac EB6E     		jmp	.L882
 8993              	.L870:
 8994 1eae 488BBC24 		movq	128(%rsp), %rdi
 8994      80000000 
 8995 1eb6 488D8424 		leaq	144(%rsp), %rax
 8995      90000000 
 8996 1ebe 4839C7   		cmpq	%rax, %rdi
 8997 1ec1 7405     		je	.L873
 8998 1ec3 E8000000 		call	_ZdlPv@PLT
 8998      00
 8999              	.L873:
 9000 1ec8 4889DF   		movq	%rbx, %rdi
 9001              	.L872:
 9002 1ecb E8000000 		call	__cxa_begin_catch@PLT
 9002      00
 9003              	.LEHB258:
 9004 1ed0 E8000000 		call	_ZN8UnitTest11CurrentTest7ResultsEv@PLT
 9004      00
 9005 1ed5 488B28   		movq	(%rax), %rbp
 9006 1ed8 E8000000 		call	_ZN8UnitTest11CurrentTest7DetailsEv@PLT
 9006      00
 9007 1edd 488B30   		movq	(%rax), %rsi
 9008 1ee0 488D7C24 		leaq	64(%rsp), %rdi
 9008      40
 9009 1ee5 BA4D0000 		movl	$77, %edx
 9009      00
 9010 1eea E8000000 		call	_ZN8UnitTest11TestDetailsC1ERKS0_i@PLT
 9010      00
 9011 1eef 488D7424 		leaq	64(%rsp), %rsi
 9011      40
 9012 1ef4 488D1500 		leaq	.LC35(%rip), %rdx
 9012      000000
 9013 1efb 4889EF   		movq	%rbp, %rdi
 9014 1efe E8000000 		call	_ZN8UnitTest11TestResults13OnTestFailureERKNS_11TestDetailsEPKc@PLT
 9014      00
 9015              	.LEHE258:
 9016              	.LEHB259:
 9017 1f03 E8000000 		call	__cxa_end_catch@PLT
 9017      00
 9018              	.LEHE259:
 9019 1f08 E9000000 		jmp	.L875
 9019      00
 9020              	.L900:
 9021 1f0d F30F1EFA 		endbr64
 9022 1f11 4889C3   		movq	%rax, %rbx
 9023 1f14 4889D5   		movq	%rdx, %rbp
 9024 1f17 E8000000 		call	__cxa_end_catch@PLT
 9024      00
 9025              	.L882:
 9026 1f1c 488DBC24 		leaq	576(%rsp), %rdi
 9026      40020000 
 9027 1f24 E8000000 		call	_ZN8UnitTest16SignalTranslatorD1Ev@PLT
 9027      00
 9028 1f29 4889DF   		movq	%rbx, %rdi
 9029 1f2c 4889E8   		movq	%rbp, %rax
 9030              	.L883:
 9031 1f2f 4883F801 		cmpq	$1, %rax
 9032 1f33 7454     		je	.L884
 9033 1f35 4883F802 		cmpq	$2, %rax
 9034 1f39 0F84C400 		je	.L912
 9034      0000
 9035 1f3f E8000000 		call	__cxa_begin_catch@PLT
 9035      00
 9036              	.LEHB260:
 9037 1f44 E8000000 		call	_ZN8UnitTest11CurrentTest7ResultsEv@PLT
 9037      00
 9038 1f49 488B7424 		movq	8(%rsp), %rsi
 9038      08
 9039 1f4e 488B38   		movq	(%rax), %rdi
 9040 1f51 488D1500 		leaq	.LC17(%rip), %rdx
 9040      000000
 9041 1f58 E8000000 		call	_ZN8UnitTest11TestResults13OnTestFailureERKNS_11TestDetailsEPKc@PLT
 9041      00
 9042              	.LEHE260:
 9043              	.LEHB261:
 9044 1f5d E8000000 		call	__cxa_end_catch@PLT
 9044      00
 9045              	.LEHE261:
 9046 1f62 E9000000 		jmp	.L862
 9046      00
 9047              	.L878:
 9048 1f67 488BBC24 		movq	128(%rsp), %rdi
 9048      80000000 
 9049 1f6f 488D8424 		leaq	144(%rsp), %rax
 9049      90000000 
 9050 1f77 4839C7   		cmpq	%rax, %rdi
 9051 1f7a 7405     		je	.L880
 9052 1f7c E8000000 		call	_ZdlPv@PLT
 9052      00
 9053              	.L880:
 9054 1f81 4889DF   		movq	%rbx, %rdi
 9055 1f84 E942FFFF 		jmp	.L872
 9055      FF
 9056              	.L884:
 9057 1f89 E8000000 		call	__cxa_begin_catch@PLT
 9057      00
 9058 1f8e 4889C5   		movq	%rax, %rbp
 9059              	.LEHB262:
 9060 1f91 E8000000 		call	_ZN8UnitTest11CurrentTest7ResultsEv@PLT
 9060      00
 9061 1f96 4C8B28   		movq	(%rax), %r13
 9062 1f99 488B4500 		movq	0(%rbp), %rax
 9063 1f9d 4889EF   		movq	%rbp, %rdi
 9064 1fa0 FF5010   		call	*16(%rax)
 9065 1fa3 4889EF   		movq	%rbp, %rdi
 9066 1fa6 4989C6   		movq	%rax, %r14
 9067 1fa9 E8000000 		call	_ZNK8UnitTest15AssertException10LineNumberEv@PLT
 9067      00
 9068 1fae 4889EF   		movq	%rbp, %rdi
 9069 1fb1 4189C4   		movl	%eax, %r12d
 9070 1fb4 E8000000 		call	_ZNK8UnitTest15AssertException8FilenameEv@PLT
 9070      00
 9071 1fb9 4889C1   		movq	%rax, %rcx
 9072 1fbc 488B4424 		movq	8(%rsp), %rax
 9072      08
 9073 1fc1 488D7C24 		leaq	32(%rsp), %rdi
 9073      20
 9074 1fc6 4589E0   		movl	%r12d, %r8d
 9075 1fc9 488B7008 		movq	8(%rax), %rsi
 9076 1fcd 488B10   		movq	(%rax), %rdx
 9077 1fd0 E8000000 		call	_ZN8UnitTest11TestDetailsC1EPKcS2_S2_i@PLT
 9077      00
 9078 1fd5 488D7424 		leaq	32(%rsp), %rsi
 9078      20
 9079 1fda 4C89F2   		movq	%r14, %rdx
 9080 1fdd 4C89EF   		movq	%r13, %rdi
 9081 1fe0 E8000000 		call	_ZN8UnitTest11TestResults13OnTestFailureERKNS_11TestDetailsEPKc@PLT
 9081      00
 9082              	.LEHE262:
 9083 1fe5 E8000000 		call	__cxa_end_catch@PLT
 9083      00
 9084 1fea E9000000 		jmp	.L862
 9084      00
 9085              	.L896:
 9086 1fef F30F1EFA 		endbr64
 9087 1ff3 4889C5   		movq	%rax, %rbp
 9088 1ff6 E8000000 		call	__cxa_end_catch@PLT
 9088      00
 9089 1ffb 4889EF   		movq	%rbp, %rdi
 9090              	.LEHB263:
 9091 1ffe E8000000 		call	_Unwind_Resume@PLT
 9091      00
 9092              	.LEHE263:
 9093              	.L912:
 9094 2003 E8000000 		call	__cxa_begin_catch@PLT
 9094      00
 9095 2008 488DBC24 		leaq	160(%rsp), %rdi
 9095      A0000000 
 9096 2010 4889C5   		movq	%rax, %rbp
 9097              	.LEHB264:
 9098 2013 E8000000 		call	_ZN8UnitTest15MemoryOutStreamC1Ev
 9098      00
 9099              	.LEHE264:
 9100 2018 488DBC24 		leaq	160(%rsp), %rdi
 9100      A0000000 
 9101 2020 BA150000 		movl	$21, %edx
 9101      00
 9102 2025 488D3500 		leaq	.LC16(%rip), %rsi
 9102      000000
 9103              	.LEHB265:
 9104 202c E8000000 		call	_ZSt16__ostream_insertIcSt11char_traitsIcEERSt13basic_ostreamIT_T0_ES6_PKS3_l@PLT
 9104      00
 9105 2031 488B4500 		movq	0(%rbp), %rax
 9106 2035 4889EF   		movq	%rbp, %rdi
 9107 2038 FF5010   		call	*16(%rax)
 9108 203b 488DBC24 		leaq	160(%rsp), %rdi
 9108      A0000000 
 9109 2043 4889C6   		movq	%rax, %rsi
 9110 2046 E8000000 		call	_ZStlsISt11char_traitsIcEERSt13basic_ostreamIcT_ES5_PKc@PLT
 9110      00
 9111 204b E8000000 		call	_ZN8UnitTest11CurrentTest7ResultsEv@PLT
 9111      00
 9112 2050 488DBC24 		leaq	160(%rsp), %rdi
 9112      A0000000 
 9113 2058 488B28   		movq	(%rax), %rbp
 9114 205b E8000000 		call	_ZNK8UnitTest15MemoryOutStream7GetTextEv@PLT
 9114      00
 9115 2060 488B7424 		movq	8(%rsp), %rsi
 9115      08
 9116 2065 4889C2   		movq	%rax, %rdx
 9117 2068 4889EF   		movq	%rbp, %rdi
 9118 206b E8000000 		call	_ZN8UnitTest11TestResults13OnTestFailureERKNS_11TestDetailsEPKc@PLT
 9118      00
 9119              	.LEHE265:
 9120 2070 488DBC24 		leaq	160(%rsp), %rdi
 9120      A0000000 
 9121              	.LEHB266:
 9122 2078 E8000000 		call	_ZN8UnitTest15MemoryOutStreamD1Ev
 9122      00
 9123              	.LEHE266:
 9124 207d E8000000 		call	__cxa_end_catch@PLT
 9124      00
 9125 2082 E9000000 		jmp	.L862
 9125      00
 9126              	.L898:
 9127 2087 F30F1EFA 		endbr64
 9128 208b 488DBC24 		leaq	160(%rsp), %rdi
 9128      A0000000 
 9129 2093 4889C5   		movq	%rax, %rbp
 9130 2096 E8000000 		call	_ZN8UnitTest15MemoryOutStreamD1Ev
 9130      00
 9131              	.L891:
 9132 209b E8000000 		call	__cxa_end_catch@PLT
 9132      00
 9133 20a0 4889EF   		movq	%rbp, %rdi
 9134              	.LEHB267:
 9135 20a3 E8000000 		call	_Unwind_Resume@PLT
 9135      00
 9136              	.LEHE267:
 9137              	.L897:
 9138 20a8 F30F1EFA 		endbr64
 9139 20ac 4889C5   		movq	%rax, %rbp
 9140 20af EBEA     		jmp	.L891
 9141              	.L899:
 9142 20b1 F30F1EFA 		endbr64
 9143 20b5 4889C5   		movq	%rax, %rbp
 9144 20b8 E8000000 		call	__cxa_end_catch@PLT
 9144      00
 9145 20bd 4889EF   		movq	%rbp, %rdi
 9146              	.LEHB268:
 9147 20c0 E8000000 		call	_Unwind_Resume@PLT
 9147      00
 9148              	.LEHE268:
 9149              		.cfi_endproc
 9150              	.LFE1573:
 9151              		.section	.gcc_except_table
 9152              		.align 4
 9153              	.LLSDAC1573:
 9154 0878 FF       		.byte	0xff
 9155 0879 9B       		.byte	0x9b
 9156 087a 59       		.uleb128 .LLSDATTC1573-.LLSDATTDC1573
 9157              	.LLSDATTDC1573:
 9158 087b 01       		.byte	0x1
 9159 087c 40       		.uleb128 .LLSDACSEC1573-.LLSDACSBC1573
 9160              	.LLSDACSBC1573:
 9161 087d 20       		.uleb128 .LEHB257-.LCOLDB59
 9162 087e 05       		.uleb128 .LEHE257-.LEHB257
 9163 087f 25       		.uleb128 .L895-.LCOLDB59
 9164 0880 07       		.uleb128 0x7
 9165 0881 53       		.uleb128 .LEHB258-.LCOLDB59
 9166 0882 33       		.uleb128 .LEHE258-.LEHB258
 9167 0883 9001     		.uleb128 .L900-.LCOLDB59
 9168 0885 07       		.uleb128 0x7
 9169 0886 8601     		.uleb128 .LEHB259-.LCOLDB59
 9170 0888 05       		.uleb128 .LEHE259-.LEHB259
 9171 0889 25       		.uleb128 .L895-.LCOLDB59
 9172 088a 07       		.uleb128 0x7
 9173 088b C701     		.uleb128 .LEHB260-.LCOLDB59
 9174 088d 19       		.uleb128 .LEHE260-.LEHB260
 9175 088e B404     		.uleb128 .L899-.LCOLDB59
 9176 0890 00       		.uleb128 0
 9177 0891 E001     		.uleb128 .LEHB261-.LCOLDB59
 9178 0893 05       		.uleb128 .LEHE261-.LEHB261
 9179 0894 00       		.uleb128 0
 9180 0895 00       		.uleb128 0
 9181 0896 9402     		.uleb128 .LEHB262-.LCOLDB59
 9182 0898 54       		.uleb128 .LEHE262-.LEHB262
 9183 0899 F202     		.uleb128 .L896-.LCOLDB59
 9184 089b 00       		.uleb128 0
 9185 089c 8103     		.uleb128 .LEHB263-.LCOLDB59
 9186 089e 05       		.uleb128 .LEHE263-.LEHB263
 9187 089f 00       		.uleb128 0
 9188 08a0 00       		.uleb128 0
 9189 08a1 9603     		.uleb128 .LEHB264-.LCOLDB59
 9190 08a3 05       		.uleb128 .LEHE264-.LEHB264
 9191 08a4 AB04     		.uleb128 .L897-.LCOLDB59
 9192 08a6 00       		.uleb128 0
 9193 08a7 AF03     		.uleb128 .LEHB265-.LCOLDB59
 9194 08a9 44       		.uleb128 .LEHE265-.LEHB265
 9195 08aa 8A04     		.uleb128 .L898-.LCOLDB59
 9196 08ac 00       		.uleb128 0
 9197 08ad FB03     		.uleb128 .LEHB266-.LCOLDB59
 9198 08af 05       		.uleb128 .LEHE266-.LEHB266
 9199 08b0 AB04     		.uleb128 .L897-.LCOLDB59
 9200 08b2 00       		.uleb128 0
 9201 08b3 A604     		.uleb128 .LEHB267-.LCOLDB59
 9202 08b5 05       		.uleb128 .LEHE267-.LEHB267
 9203 08b6 00       		.uleb128 0
 9204 08b7 00       		.uleb128 0
 9205 08b8 C304     		.uleb128 .LEHB268-.LCOLDB59
 9206 08ba 05       		.uleb128 .LEHE268-.LEHB268
 9207 08bb 00       		.uleb128 0
 9208 08bc 00       		.uleb128 0
 9209              	.LLSDACSEC1573:
 9210 08bd 03       		.byte	0x3
 9211 08be 00       		.byte	0
 9212 08bf 02       		.byte	0x2
 9213 08c0 7D       		.byte	0x7d
 9214 08c1 01       		.byte	0x1
 9215 08c2 7D       		.byte	0x7d
 9216 08c3 00       		.byte	0
 9217 08c4 7D       		.byte	0x7d
 9218 08c5 000000   		.align 4
 9219 08c8 00000000 		.long	0
 9220              	
 9221 08cc 00000000 		.long	DW.ref._ZTISt9exception-.
 9222 08d0 00000000 		.long	DW.ref._ZTIN8UnitTest15AssertExceptionE-.
 9223              	.LLSDATTC1573:
 9224              		.section	.text.unlikely
 9225              		.text
 9227              		.section	.text.unlikely
 9229              	.LCOLDE59:
 9230              		.text
 9231              	.LHOTE59:
 9232              		.section	.text.unlikely
 9233 20c5 90       		.align 2
 9234              	.LCOLDB60:
 9235              		.text
 9236              	.LHOTB60:
 9237 29c3 90       		.align 2
 9238 29c4 66662E0F 		.p2align 4
 9238      1F840000 
 9238      00000090 
 9240              	_ZNK12_GLOBAL__N_150TestXmlTestReporterFixtureEmptyReportSummaryFormat7RunImplEv:
 9241              	.LFB1479:
 9242              		.cfi_startproc
 9243              		.cfi_personality 0x9b,DW.ref.__gxx_personality_v0
 9244              		.cfi_lsda 0x1b,.LLSDA1479
 9245 29d0 F30F1EFA 		endbr64
 9246 29d4 4157     		pushq	%r15
 9247              		.cfi_def_cfa_offset 16
 9248              		.cfi_offset 15, -16
 9249 29d6 4156     		pushq	%r14
 9250              		.cfi_def_cfa_offset 24
 9251              		.cfi_offset 14, -24
 9252 29d8 4155     		pushq	%r13
 9253              		.cfi_def_cfa_offset 32
 9254              		.cfi_offset 13, -32
 9255 29da 4154     		pushq	%r12
 9256              		.cfi_def_cfa_offset 40
 9257              		.cfi_offset 12, -40
 9258 29dc 55       		pushq	%rbp
 9259              		.cfi_def_cfa_offset 48
 9260              		.cfi_offset 6, -48
 9261 29dd 53       		pushq	%rbx
 9262              		.cfi_def_cfa_offset 56
 9263              		.cfi_offset 3, -56
 9264 29de 488D1D00 		leaq	16+_ZTVNSt7__cxx1115basic_stringbufIcSt11char_traitsIcESaIcEEE(%rip), %rbx
 9264      000000
 9265 29e5 66480F6E 		movq	%rbx, %xmm3
 9265      DB
 9266 29ea 4881EC18 		subq	$536, %rsp
 9266      020000
 9267              		.cfi_def_cfa_offset 592
 9268 29f1 48897C24 		movq	%rdi, 56(%rsp)
 9268      38
 9269 29f6 4C8DB424 		leaq	208(%rsp), %r14
 9269      D0000000 
 9270 29fe 4C8D6C24 		leaq	96(%rsp), %r13
 9270      60
 9271 2a03 64488B04 		movq	%fs:40, %rax
 9271      25280000 
 9271      00
 9272 2a0c 48898424 		movq	%rax, 520(%rsp)
 9272      08020000 
 9273 2a14 488D0500 		leaq	24+_ZTVNSt7__cxx1119basic_ostringstreamIcSt11char_traitsIcESaIcEEE(%rip), %rax
 9273      000000
 9274 2a1b 66480F6E 		movq	%rax, %xmm1
 9274      C8
 9275 2a20 66480F6E 		movq	%rax, %xmm2
 9275      D0
 9276 2a25 488D4708 		leaq	8(%rdi), %rax
 9277 2a29 4C89F7   		movq	%r14, %rdi
 9278 2a2c 660F6CCB 		punpcklqdq	%xmm3, %xmm1
 9279 2a30 0F161500 		movhps	.LC21(%rip), %xmm2
 9279      000000
 9280 2a37 48894424 		movq	%rax, 32(%rsp)
 9280      20
 9281 2a3c 0F294C24 		movaps	%xmm1, 16(%rsp)
 9281      10
 9282 2a41 0F291424 		movaps	%xmm2, (%rsp)
 9283 2a45 E8000000 		call	_ZNSt8ios_baseC2Ev@PLT
 9283      00
 9284 2a4a 488D0500 		leaq	16+_ZTVSt9basic_iosIcSt11char_traitsIcEE(%rip), %rax
 9284      000000
 9285 2a51 660FEFC0 		pxor	%xmm0, %xmm0
 9286 2a55 31F6     		xorl	%esi, %esi
 9287 2a57 48898424 		movq	%rax, 208(%rsp)
 9287      D0000000 
 9288 2a5f 31C0     		xorl	%eax, %eax
 9289 2a61 66898424 		movw	%ax, 432(%rsp)
 9289      B0010000 
 9290 2a69 488B0500 		movq	8+_ZTTNSt7__cxx1119basic_ostringstreamIcSt11char_traitsIcESaIcEEE(%rip), %rax
 9290      000000
 9291 2a70 0F118424 		movups	%xmm0, 440(%rsp)
 9291      B8010000 
 9292 2a78 0F118424 		movups	%xmm0, 456(%rsp)
 9292      C8010000 
 9293 2a80 488B78E8 		movq	-24(%rax), %rdi
 9294 2a84 48894424 		movq	%rax, 96(%rsp)
 9294      60
 9295 2a89 488B0500 		movq	16+_ZTTNSt7__cxx1119basic_ostringstreamIcSt11char_traitsIcESaIcEEE(%rip), %rax
 9295      000000
 9296 2a90 48C78424 		movq	$0, 424(%rsp)
 9296      A8010000 
 9296      00000000 
 9297 2a9c 4C01EF   		addq	%r13, %rdi
 9298 2a9f 488907   		movq	%rax, (%rdi)
 9299              	.LEHB269:
 9300 2aa2 E8000000 		call	_ZNSt9basic_iosIcSt11char_traitsIcEE4initEPSt15basic_streambufIcS1_E@PLT
 9300      00
 9301              	.LEHE269:
 9302 2aa7 488D0500 		leaq	64+_ZTVNSt7__cxx1119basic_ostringstreamIcSt11char_traitsIcESaIcEEE(%rip), %rax
 9302      000000
 9303 2aae 660F6F14 		movdqa	(%rsp), %xmm2
 9303      24
 9304 2ab3 660FEFC0 		pxor	%xmm0, %xmm0
 9305 2ab7 488D6C24 		leaq	104(%rsp), %rbp
 9305      68
 9306 2abc 48898424 		movq	%rax, 208(%rsp)
 9306      D0000000 
 9307 2ac4 488D8424 		leaq	160(%rsp), %rax
 9307      A0000000 
 9308 2acc 4889C7   		movq	%rax, %rdi
 9309 2acf 48890424 		movq	%rax, (%rsp)
 9310 2ad3 0F295424 		movaps	%xmm2, 96(%rsp)
 9310      60
 9311 2ad8 0F294424 		movaps	%xmm0, 112(%rsp)
 9311      70
 9312 2add 0F298424 		movaps	%xmm0, 128(%rsp)
 9312      80000000 
 9313 2ae5 0F298424 		movaps	%xmm0, 144(%rsp)
 9313      90000000 
 9314 2aed E8000000 		call	_ZNSt6localeC1Ev@PLT
 9314      00
 9315 2af2 4889EE   		movq	%rbp, %rsi
 9316 2af5 4C89F7   		movq	%r14, %rdi
 9317 2af8 48895C24 		movq	%rbx, 104(%rsp)
 9317      68
 9318 2afd 488D8424 		leaq	192(%rsp), %rax
 9318      C0000000 
 9319 2b05 C68424C0 		movb	$0, 192(%rsp)
 9319      00000000 
 9320 2b0d C78424A8 		movl	$16, 168(%rsp)
 9320      00000010 
 9320      000000
 9321 2b18 48894424 		movq	%rax, 40(%rsp)
 9321      28
 9322 2b1d 48898424 		movq	%rax, 176(%rsp)
 9322      B0000000 
 9323 2b25 48C78424 		movq	$0, 184(%rsp)
 9323      B8000000 
 9323      00000000 
 9324              	.LEHB270:
 9325 2b31 E8000000 		call	_ZNSt9basic_iosIcSt11char_traitsIcEE4initEPSt15basic_streambufIcS1_E@PLT
 9325      00
 9326              	.LEHE270:
 9327 2b36 488D8424 		leaq	472(%rsp), %rax
 9327      D8010000 
 9328 2b3e 4C89EE   		movq	%r13, %rsi
 9329 2b41 4889C7   		movq	%rax, %rdi
 9330 2b44 48894424 		movq	%rax, 48(%rsp)
 9330      30
 9331              	.LEHB271:
 9332 2b49 E8000000 		call	_ZN8UnitTest15XmlTestReporterC1ERSo@PLT
 9332      00
 9333              	.LEHE271:
 9334 2b4e 488B4424 		movq	32(%rsp), %rax
 9334      20
 9335 2b53 4C89EF   		movq	%r13, %rdi
 9336 2b56 4889C6   		movq	%rax, %rsi
 9337 2b59 48898424 		movq	%rax, 512(%rsp)
 9337      00020000 
 9338              	.LEHB272:
 9339 2b61 E88AFCFF 		call	_ZN8UnitTest11ExecuteTestIN12_GLOBAL__N_152XmlTestReporterFixtureEmptyReportSummaryFormatHelp
 9339      FF
 9340              	.LEHE272:
 9341 2b66 4C8BA424 		movq	488(%rsp), %r12
 9341      E8010000 
 9342 2b6e 488BAC24 		movq	480(%rsp), %rbp
 9342      E0010000 
 9343 2b76 488D0500 		leaq	16+_ZTVN8UnitTest20DeferredTestReporterE(%rip), %rax
 9343      000000
 9344 2b7d 48898424 		movq	%rax, 472(%rsp)
 9344      D8010000 
 9345 2b85 4939EC   		cmpq	%rbp, %r12
 9346 2b88 0F849100 		je	.L920
 9346      0000
 9347 2b8e 6690     		.p2align 4,,10
 9348              		.p2align 3
 9349              	.L932:
 9350 2b90 488B5D68 		movq	104(%rbp), %rbx
 9351 2b94 4C8B7D60 		movq	96(%rbp), %r15
 9352 2b98 4C39FB   		cmpq	%r15, %rbx
 9353 2b9b 7426     		je	.L921
 9354 2b9d 0F1F00   		.p2align 4,,10
 9355              		.p2align 3
 9356              	.L925:
 9357 2ba0 498B7F08 		movq	8(%r15), %rdi
 9358 2ba4 498D4718 		leaq	24(%r15), %rax
 9359 2ba8 4839C7   		cmpq	%rax, %rdi
 9360 2bab 0F842701 		je	.L922
 9360      0000
 9361 2bb1 E8000000 		call	_ZdlPv@PLT
 9361      00
 9362 2bb6 4983C728 		addq	$40, %r15
 9363 2bba 4939DF   		cmpq	%rbx, %r15
 9364 2bbd 75E1     		jne	.L925
 9365              	.L924:
 9366 2bbf 4C8B7D60 		movq	96(%rbp), %r15
 9367              	.L921:
 9368 2bc3 4D85FF   		testq	%r15, %r15
 9369 2bc6 7408     		je	.L926
 9370 2bc8 4C89FF   		movq	%r15, %rdi
 9371 2bcb E8000000 		call	_ZdlPv@PLT
 9371      00
 9372              	.L926:
 9373 2bd0 488B7D40 		movq	64(%rbp), %rdi
 9374 2bd4 488D4550 		leaq	80(%rbp), %rax
 9375 2bd8 4839C7   		cmpq	%rax, %rdi
 9376 2bdb 7405     		je	.L927
 9377 2bdd E8000000 		call	_ZdlPv@PLT
 9377      00
 9378              	.L927:
 9379 2be2 488B7D20 		movq	32(%rbp), %rdi
 9380 2be6 488D4530 		leaq	48(%rbp), %rax
 9381 2bea 4839C7   		cmpq	%rax, %rdi
 9382 2bed 7405     		je	.L928
 9383 2bef E8000000 		call	_ZdlPv@PLT
 9383      00
 9384              	.L928:
 9385 2bf4 488B7D00 		movq	0(%rbp), %rdi
 9386 2bf8 488D4510 		leaq	16(%rbp), %rax
 9387 2bfc 4839C7   		cmpq	%rax, %rdi
 9388 2bff 0F84EB00 		je	.L929
 9388      0000
 9389 2c05 E8000000 		call	_ZdlPv@PLT
 9389      00
 9390 2c0a 4883ED80 		subq	$-128, %rbp
 9391 2c0e 4939EC   		cmpq	%rbp, %r12
 9392 2c11 0F8579FF 		jne	.L932
 9392      FFFF
 9393              	.L931:
 9394 2c17 488BAC24 		movq	480(%rsp), %rbp
 9394      E0010000 
 9395              	.L920:
 9396 2c1f 4885ED   		testq	%rbp, %rbp
 9397 2c22 7408     		je	.L933
 9398 2c24 4889EF   		movq	%rbp, %rdi
 9399 2c27 E8000000 		call	_ZdlPv@PLT
 9399      00
 9400              	.L933:
 9401 2c2c 488B7C24 		movq	48(%rsp), %rdi
 9401      30
 9402              	.LEHB273:
 9403 2c31 E8000000 		call	_ZN8UnitTest12TestReporterD2Ev@PLT
 9403      00
 9404              	.LEHE273:
 9405 2c36 660F6F64 		movdqa	16(%rsp), %xmm4
 9405      2410
 9406 2c3c 488D0500 		leaq	64+_ZTVNSt7__cxx1119basic_ostringstreamIcSt11char_traitsIcESaIcEEE(%rip), %rax
 9406      000000
 9407 2c43 488BBC24 		movq	176(%rsp), %rdi
 9407      B0000000 
 9408 2c4b 48898424 		movq	%rax, 208(%rsp)
 9408      D0000000 
 9409 2c53 0F296424 		movaps	%xmm4, 96(%rsp)
 9409      60
 9410 2c58 483B7C24 		cmpq	40(%rsp), %rdi
 9410      28
 9411 2c5d 7405     		je	.L934
 9412 2c5f E8000000 		call	_ZdlPv@PLT
 9412      00
 9413              	.L934:
 9414 2c64 488B3C24 		movq	(%rsp), %rdi
 9415 2c68 488D0500 		leaq	16+_ZTVSt15basic_streambufIcSt11char_traitsIcEE(%rip), %rax
 9415      000000
 9416 2c6f 48894424 		movq	%rax, 104(%rsp)
 9416      68
 9417 2c74 E8000000 		call	_ZNSt6localeD1Ev@PLT
 9417      00
 9418 2c79 488B0500 		movq	8+_ZTTNSt7__cxx1119basic_ostringstreamIcSt11char_traitsIcESaIcEEE(%rip), %rax
 9418      000000
 9419 2c80 488B0D00 		movq	16+_ZTTNSt7__cxx1119basic_ostringstreamIcSt11char_traitsIcESaIcEEE(%rip), %rcx
 9419      000000
 9420 2c87 4C89F7   		movq	%r14, %rdi
 9421 2c8a 48894424 		movq	%rax, 96(%rsp)
 9421      60
 9422 2c8f 488B40E8 		movq	-24(%rax), %rax
 9423 2c93 48894C04 		movq	%rcx, 96(%rsp,%rax)
 9423      60
 9424 2c98 488D0500 		leaq	16+_ZTVSt9basic_iosIcSt11char_traitsIcEE(%rip), %rax
 9424      000000
 9425 2c9f 48898424 		movq	%rax, 208(%rsp)
 9425      D0000000 
 9426              	.LEHB274:
 9427 2ca7 E8000000 		call	_ZNSt8ios_baseD2Ev@PLT
 9427      00
 9428              	.LEHE274:
 9429 2cac 488B8424 		movq	520(%rsp), %rax
 9429      08020000 
 9430 2cb4 64482B04 		subq	%fs:40, %rax
 9430      25280000 
 9430      00
 9431 2cbd 7543     		jne	.L979
 9432 2cbf 4881C418 		addq	$536, %rsp
 9432      020000
 9433              		.cfi_remember_state
 9434              		.cfi_def_cfa_offset 56
 9435 2cc6 5B       		popq	%rbx
 9436              		.cfi_def_cfa_offset 48
 9437 2cc7 5D       		popq	%rbp
 9438              		.cfi_def_cfa_offset 40
 9439 2cc8 415C     		popq	%r12
 9440              		.cfi_def_cfa_offset 32
 9441 2cca 415D     		popq	%r13
 9442              		.cfi_def_cfa_offset 24
 9443 2ccc 415E     		popq	%r14
 9444              		.cfi_def_cfa_offset 16
 9445 2cce 415F     		popq	%r15
 9446              		.cfi_def_cfa_offset 8
 9447 2cd0 C3       		ret
 9448              		.p2align 4,,10
 9449 2cd1 0F1F8000 		.p2align 3
 9449      000000
 9450              	.L922:
 9451              		.cfi_restore_state
 9452 2cd8 4983C728 		addq	$40, %r15
 9453 2cdc 4C39FB   		cmpq	%r15, %rbx
 9454 2cdf 0F85BBFE 		jne	.L925
 9454      FFFF
 9455 2ce5 E9D5FEFF 		jmp	.L924
 9455      FF
 9456 2cea 660F1F44 		.p2align 4,,10
 9456      0000
 9457              		.p2align 3
 9458              	.L929:
 9459 2cf0 4883ED80 		subq	$-128, %rbp
 9460 2cf4 4939EC   		cmpq	%rbp, %r12
 9461 2cf7 0F8593FE 		jne	.L932
 9461      FFFF
 9462 2cfd E915FFFF 		jmp	.L931
 9462      FF
 9463              	.L979:
 9464 2d02 E8000000 		call	__stack_chk_fail@PLT
 9464      00
 9465              	.L953:
 9466 2d07 F30F1EFA 		endbr64
 9467 2d0b 4889C7   		movq	%rax, %rdi
 9468 2d0e 4889D0   		movq	%rdx, %rax
 9469 2d11 E9000000 		jmp	.L974
 9469      00
 9470              	.L962:
 9471 2d16 F30F1EFA 		endbr64
 9472 2d1a 4889C3   		movq	%rax, %rbx
 9473 2d1d 4889D5   		movq	%rdx, %rbp
 9474 2d20 E9000000 		jmp	.L938
 9474      00
 9475              	.L954:
 9476 2d25 F30F1EFA 		endbr64
 9477 2d29 4889C3   		movq	%rax, %rbx
 9478 2d2c 4889D5   		movq	%rdx, %rbp
 9479 2d2f E9000000 		jmp	.L939
 9479      00
 9480              	.L959:
 9481 2d34 F30F1EFA 		endbr64
 9482 2d38 4889C3   		movq	%rax, %rbx
 9483 2d3b 4889D5   		movq	%rdx, %rbp
 9484 2d3e E9000000 		jmp	.L919
 9484      00
 9485              	.L961:
 9486 2d43 F30F1EFA 		endbr64
 9487 2d47 4889C3   		movq	%rax, %rbx
 9488 2d4a 4989D4   		movq	%rdx, %r12
 9489 2d4d E9000000 		jmp	.L915
 9489      00
 9490              	.L960:
 9491 2d52 F30F1EFA 		endbr64
 9492 2d56 4889C3   		movq	%rax, %rbx
 9493 2d59 4989D4   		movq	%rdx, %r12
 9494 2d5c E9000000 		jmp	.L916
 9494      00
 9495              		.section	.gcc_except_table
 9496              		.align 4
 9497              	.LLSDA1479:
 9498 08d4 FF       		.byte	0xff
 9499 08d5 9B       		.byte	0x9b
 9500 08d6 3D       		.uleb128 .LLSDATT1479-.LLSDATTD1479
 9501              	.LLSDATTD1479:
 9502 08d7 01       		.byte	0x1
 9503 08d8 24       		.uleb128 .LLSDACSE1479-.LLSDACSB1479
 9504              	.LLSDACSB1479:
 9505 08d9 D201     		.uleb128 .LEHB269-.LFB1479
 9506 08db 05       		.uleb128 .LEHE269-.LEHB269
 9507 08dc 8207     		.uleb128 .L960-.LFB1479
 9508 08de 07       		.uleb128 0x7
 9509 08df E102     		.uleb128 .LEHB270-.LFB1479
 9510 08e1 05       		.uleb128 .LEHE270-.LEHB270
 9511 08e2 F306     		.uleb128 .L961-.LFB1479
 9512 08e4 07       		.uleb128 0x7
 9513 08e5 F902     		.uleb128 .LEHB271-.LFB1479
 9514 08e7 05       		.uleb128 .LEHE271-.LEHB271
 9515 08e8 E406     		.uleb128 .L959-.LFB1479
 9516 08ea 07       		.uleb128 0x7
 9517 08eb 9103     		.uleb128 .LEHB272-.LFB1479
 9518 08ed 05       		.uleb128 .LEHE272-.LEHB272
 9519 08ee D506     		.uleb128 .L954-.LFB1479
 9520 08f0 07       		.uleb128 0x7
 9521 08f1 E104     		.uleb128 .LEHB273-.LFB1479
 9522 08f3 05       		.uleb128 .LEHE273-.LEHB273
 9523 08f4 C606     		.uleb128 .L962-.LFB1479
 9524 08f6 07       		.uleb128 0x7
 9525 08f7 D705     		.uleb128 .LEHB274-.LFB1479
 9526 08f9 05       		.uleb128 .LEHE274-.LEHB274
 9527 08fa B706     		.uleb128 .L953-.LFB1479
 9528 08fc 05       		.uleb128 0x5
 9529              	.LLSDACSE1479:
 9530 08fd 03       		.byte	0x3
 9531 08fe 00       		.byte	0
 9532 08ff 02       		.byte	0x2
 9533 0900 7D       		.byte	0x7d
 9534 0901 01       		.byte	0x1
 9535 0902 7D       		.byte	0x7d
 9536 0903 00       		.byte	0
 9537 0904 7D       		.byte	0x7d
 9538 0905 000000   		.align 4
 9539 0908 00000000 		.long	0
 9540              	
 9541 090c 00000000 		.long	DW.ref._ZTISt9exception-.
 9542 0910 00000000 		.long	DW.ref._ZTIN8UnitTest15AssertExceptionE-.
 9543              	.LLSDATT1479:
 9544              		.text
 9545              		.cfi_endproc
 9546              		.section	.text.unlikely
 9547              		.cfi_startproc
 9548              		.cfi_personality 0x9b,DW.ref.__gxx_personality_v0
 9549              		.cfi_lsda 0x1b,.LLSDAC1479
 9551              	_ZNK12_GLOBAL__N_150TestXmlTestReporterFixtureEmptyReportSummaryFormat7RunImplEv.cold:
 9552              	.LFSB1479:
 9553              	.L939:
 9554              		.cfi_def_cfa_offset 592
 9555              		.cfi_offset 3, -56
 9556              		.cfi_offset 6, -48
 9557              		.cfi_offset 12, -40
 9558              		.cfi_offset 13, -32
 9559              		.cfi_offset 14, -24
 9560              		.cfi_offset 15, -16
 9561 20c6 4C89EF   		movq	%r13, %rdi
 9562 20c9 E850E2FF 		call	_ZN12_GLOBAL__N_122XmlTestReporterFixtureD2Ev
 9562      FF
 9563 20ce 4889DF   		movq	%rbx, %rdi
 9564 20d1 4889E8   		movq	%rbp, %rax
 9565              	.L974:
 9566 20d4 BB010000 		movl	$1, %ebx
 9566      00
 9567              	.L917:
 9568 20d9 4883F801 		cmpq	$1, %rax
 9569 20dd 0F84EA00 		je	.L940
 9569      0000
 9570 20e3 4883F802 		cmpq	$2, %rax
 9571 20e7 0F846B01 		je	.L980
 9571      0000
 9572 20ed E8000000 		call	__cxa_begin_catch@PLT
 9572      00
 9573 20f2 84DB     		testb	%bl, %bl
 9574 20f4 0F85E901 		jne	.L981
 9574      0000
 9575              	.LEHB275:
 9576 20fa E8000000 		call	_ZN8UnitTest11CurrentTest7ResultsEv@PLT
 9576      00
 9577 20ff 488D6C24 		leaq	64(%rsp), %rbp
 9577      40
 9578 2104 488B7424 		movq	32(%rsp), %rsi
 9578      20
 9579 2109 BA440000 		movl	$68, %edx
 9579      00
 9580 210e 4C8B20   		movq	(%rax), %r12
 9581 2111 4889EF   		movq	%rbp, %rdi
 9582 2114 E8000000 		call	_ZN8UnitTest11TestDetailsC1ERKS0_i@PLT
 9582      00
 9583 2119 488D1500 		leaq	.LC20(%rip), %rdx
 9583      000000
 9584 2120 4889EE   		movq	%rbp, %rsi
 9585 2123 4C89E7   		movq	%r12, %rdi
 9586 2126 E8000000 		call	_ZN8UnitTest11TestResults13OnTestFailureERKNS_11TestDetailsEPKc@PLT
 9586      00
 9587              	.LEHE275:
 9588              	.L946:
 9589 212b 488B8424 		movq	520(%rsp), %rax
 9589      08020000 
 9590 2133 64482B04 		subq	%fs:40, %rax
 9590      25280000 
 9590      00
 9591 213c 0F851101 		jne	.L976
 9591      0000
 9592 2142 4881C418 		addq	$536, %rsp
 9592      020000
 9593              		.cfi_remember_state
 9594              		.cfi_def_cfa_offset 56
 9595 2149 5B       		popq	%rbx
 9596              		.cfi_def_cfa_offset 48
 9597 214a 5D       		popq	%rbp
 9598              		.cfi_def_cfa_offset 40
 9599 214b 415C     		popq	%r12
 9600              		.cfi_def_cfa_offset 32
 9601 214d 415D     		popq	%r13
 9602              		.cfi_def_cfa_offset 24
 9603 214f 415E     		popq	%r14
 9604              		.cfi_def_cfa_offset 16
 9605 2151 415F     		popq	%r15
 9606              		.cfi_def_cfa_offset 8
 9607              	.LEHB276:
 9608 2153 E9000000 		jmp	__cxa_end_catch@PLT
 9608      00
 9609              	.LEHE276:
 9610              	.L938:
 9611              		.cfi_restore_state
 9612 2158 4C89EF   		movq	%r13, %rdi
 9613 215b E8000000 		call	_ZNSt7__cxx1119basic_ostringstreamIcSt11char_traitsIcESaIcEED1Ev@PLT
 9613      00
 9614 2160 4889DF   		movq	%rbx, %rdi
 9615 2163 4889E8   		movq	%rbp, %rax
 9616 2166 BB010000 		movl	$1, %ebx
 9616      00
 9617 216b E969FFFF 		jmp	.L917
 9617      FF
 9618              	.L919:
 9619 2170 4C89EF   		movq	%r13, %rdi
 9620 2173 E8000000 		call	_ZNSt7__cxx1119basic_ostringstreamIcSt11char_traitsIcESaIcEED1Ev@PLT
 9620      00
 9621 2178 4889DF   		movq	%rbx, %rdi
 9622 217b 4889E8   		movq	%rbp, %rax
 9623 217e 31DB     		xorl	%ebx, %ebx
 9624 2180 E954FFFF 		jmp	.L917
 9624      FF
 9625              	.L915:
 9626 2185 4889EF   		movq	%rbp, %rdi
 9627 2188 E8000000 		call	_ZNSt7__cxx1115basic_stringbufIcSt11char_traitsIcESaIcEED1Ev
 9627      00
 9628 218d 488B0500 		movq	8+_ZTTNSt7__cxx1119basic_ostringstreamIcSt11char_traitsIcESaIcEEE(%rip), %rax
 9628      000000
 9629 2194 488B0D00 		movq	16+_ZTTNSt7__cxx1119basic_ostringstreamIcSt11char_traitsIcESaIcEEE(%rip), %rcx
 9629      000000
 9630 219b 48894424 		movq	%rax, 96(%rsp)
 9630      60
 9631 21a0 488B40E8 		movq	-24(%rax), %rax
 9632 21a4 48894C04 		movq	%rcx, 96(%rsp,%rax)
 9632      60
 9633              	.L916:
 9634 21a9 488D0500 		leaq	16+_ZTVSt9basic_iosIcSt11char_traitsIcEE(%rip), %rax
 9634      000000
 9635 21b0 4C89F7   		movq	%r14, %rdi
 9636 21b3 48898424 		movq	%rax, 208(%rsp)
 9636      D0000000 
 9637 21bb E8000000 		call	_ZNSt8ios_baseD2Ev@PLT
 9637      00
 9638 21c0 4889DF   		movq	%rbx, %rdi
 9639 21c3 4C89E0   		movq	%r12, %rax
 9640 21c6 31DB     		xorl	%ebx, %ebx
 9641 21c8 E90CFFFF 		jmp	.L917
 9641      FF
 9642              	.L940:
 9643 21cd E8000000 		call	__cxa_begin_catch@PLT
 9643      00
 9644 21d2 4889C5   		movq	%rax, %rbp
 9645              	.LEHB277:
 9646 21d5 E8000000 		call	_ZN8UnitTest11CurrentTest7ResultsEv@PLT
 9646      00
 9647 21da 4C8B28   		movq	(%rax), %r13
 9648 21dd 488B4500 		movq	0(%rbp), %rax
 9649 21e1 4889EF   		movq	%rbp, %rdi
 9650 21e4 FF5010   		call	*16(%rax)
 9651 21e7 4889EF   		movq	%rbp, %rdi
 9652 21ea 4989C4   		movq	%rax, %r12
 9653 21ed E8000000 		call	_ZNK8UnitTest15AssertException10LineNumberEv@PLT
 9653      00
 9654 21f2 4889EF   		movq	%rbp, %rdi
 9655 21f5 89C3     		movl	%eax, %ebx
 9656 21f7 E8000000 		call	_ZNK8UnitTest15AssertException8FilenameEv@PLT
 9656      00
 9657 21fc 4889C1   		movq	%rax, %rcx
 9658 21ff 488B4424 		movq	56(%rsp), %rax
 9658      38
 9659 2204 488D6C24 		leaq	64(%rsp), %rbp
 9659      40
 9660 2209 4189D8   		movl	%ebx, %r8d
 9661 220c 4889EF   		movq	%rbp, %rdi
 9662 220f 488B5008 		movq	8(%rax), %rdx
 9663 2213 488B7010 		movq	16(%rax), %rsi
 9664 2217 E8000000 		call	_ZN8UnitTest11TestDetailsC1EPKcS2_S2_i@PLT
 9664      00
 9665 221c 4C89E2   		movq	%r12, %rdx
 9666 221f 4889EE   		movq	%rbp, %rsi
 9667 2222 4C89EF   		movq	%r13, %rdi
 9668 2225 E8000000 		call	_ZN8UnitTest11TestResults13OnTestFailureERKNS_11TestDetailsEPKc@PLT
 9668      00
 9669              	.LEHE277:
 9670              	.L978:
 9671 222a 488B8424 		movq	520(%rsp), %rax
 9671      08020000 
 9672 2232 64482B04 		subq	%fs:40, %rax
 9672      25280000 
 9672      00
 9673 223b 7516     		jne	.L976
 9674 223d 4881C418 		addq	$536, %rsp
 9674      020000
 9675              		.cfi_remember_state
 9676              		.cfi_def_cfa_offset 56
 9677 2244 5B       		popq	%rbx
 9678              		.cfi_def_cfa_offset 48
 9679 2245 5D       		popq	%rbp
 9680              		.cfi_def_cfa_offset 40
 9681 2246 415C     		popq	%r12
 9682              		.cfi_def_cfa_offset 32
 9683 2248 415D     		popq	%r13
 9684              		.cfi_def_cfa_offset 24
 9685 224a 415E     		popq	%r14
 9686              		.cfi_def_cfa_offset 16
 9687 224c 415F     		popq	%r15
 9688              		.cfi_def_cfa_offset 8
 9689 224e E9000000 		jmp	__cxa_end_catch@PLT
 9689      00
 9690              	.L976:
 9691              		.cfi_restore_state
 9692 2253 E8000000 		call	__stack_chk_fail@PLT
 9692      00
 9693              	.L980:
 9694 2258 E8000000 		call	__cxa_begin_catch@PLT
 9694      00
 9695 225d 4C89EF   		movq	%r13, %rdi
 9696 2260 4889C5   		movq	%rax, %rbp
 9697              	.LEHB278:
 9698 2263 E8000000 		call	_ZN8UnitTest15MemoryOutStreamC1Ev
 9698      00
 9699              	.LEHE278:
 9700 2268 BA150000 		movl	$21, %edx
 9700      00
 9701 226d 488D3500 		leaq	.LC16(%rip), %rsi
 9701      000000
 9702 2274 4C89EF   		movq	%r13, %rdi
 9703              	.LEHB279:
 9704 2277 E8000000 		call	_ZSt16__ostream_insertIcSt11char_traitsIcEERSt13basic_ostreamIT_T0_ES6_PKS3_l@PLT
 9704      00
 9705 227c 488B4500 		movq	0(%rbp), %rax
 9706 2280 4889EF   		movq	%rbp, %rdi
 9707 2283 FF5010   		call	*16(%rax)
 9708 2286 4C89EF   		movq	%r13, %rdi
 9709 2289 4889C6   		movq	%rax, %rsi
 9710 228c E8000000 		call	_ZStlsISt11char_traitsIcEERSt13basic_ostreamIcT_ES5_PKc@PLT
 9710      00
 9711 2291 E8000000 		call	_ZN8UnitTest11CurrentTest7ResultsEv@PLT
 9711      00
 9712 2296 4C89EF   		movq	%r13, %rdi
 9713 2299 488B28   		movq	(%rax), %rbp
 9714 229c E8000000 		call	_ZNK8UnitTest15MemoryOutStream7GetTextEv@PLT
 9714      00
 9715 22a1 488B7424 		movq	32(%rsp), %rsi
 9715      20
 9716 22a6 4889C2   		movq	%rax, %rdx
 9717 22a9 4889EF   		movq	%rbp, %rdi
 9718 22ac E8000000 		call	_ZN8UnitTest11TestResults13OnTestFailureERKNS_11TestDetailsEPKc@PLT
 9718      00
 9719              	.LEHE279:
 9720 22b1 4C89EF   		movq	%r13, %rdi
 9721              	.LEHB280:
 9722 22b4 E8000000 		call	_ZN8UnitTest15MemoryOutStreamD1Ev
 9722      00
 9723              	.LEHE280:
 9724 22b9 E96CFFFF 		jmp	.L978
 9724      FF
 9725              	.L957:
 9726 22be F30F1EFA 		endbr64
 9727 22c2 4C89EF   		movq	%r13, %rdi
 9728 22c5 4889C5   		movq	%rax, %rbp
 9729 22c8 E8000000 		call	_ZN8UnitTest15MemoryOutStreamD1Ev
 9729      00
 9730              	.L950:
 9731 22cd E8000000 		call	__cxa_end_catch@PLT
 9731      00
 9732 22d2 4889EF   		movq	%rbp, %rdi
 9733              	.LEHB281:
 9734 22d5 E8000000 		call	_Unwind_Resume@PLT
 9734      00
 9735              	.LEHE281:
 9736              	.L956:
 9737 22da F30F1EFA 		endbr64
 9738              	.L977:
 9739 22de 4889C5   		movq	%rax, %rbp
 9740 22e1 EBEA     		jmp	.L950
 9741              	.L981:
 9742              	.LEHB282:
 9743 22e3 E8000000 		call	_ZN8UnitTest11CurrentTest7ResultsEv@PLT
 9743      00
 9744 22e8 488D6C24 		leaq	64(%rsp), %rbp
 9744      40
 9745 22ed 488B7424 		movq	32(%rsp), %rsi
 9745      20
 9746 22f2 BA440000 		movl	$68, %edx
 9746      00
 9747 22f7 4C8B20   		movq	(%rax), %r12
 9748 22fa 4889EF   		movq	%rbp, %rdi
 9749 22fd E8000000 		call	_ZN8UnitTest11TestDetailsC1ERKS0_i@PLT
 9749      00
 9750 2302 488D1500 		leaq	.LC19(%rip), %rdx
 9750      000000
 9751 2309 4889EE   		movq	%rbp, %rsi
 9752 230c 4C89E7   		movq	%r12, %rdi
 9753 230f E8000000 		call	_ZN8UnitTest11TestResults13OnTestFailureERKNS_11TestDetailsEPKc@PLT
 9753      00
 9754              	.LEHE282:
 9755 2314 E912FEFF 		jmp	.L946
 9755      FF
 9756              	.L958:
 9757 2319 F30F1EFA 		endbr64
 9758 231d 4889C5   		movq	%rax, %rbp
 9759 2320 E8000000 		call	__cxa_end_catch@PLT
 9759      00
 9760 2325 4889EF   		movq	%rbp, %rdi
 9761              	.LEHB283:
 9762 2328 E8000000 		call	_Unwind_Resume@PLT
 9762      00
 9763              	.LEHE283:
 9764              	.L955:
 9765 232d F30F1EFA 		endbr64
 9766 2331 EBAB     		jmp	.L977
 9767              		.cfi_endproc
 9768              	.LFE1479:
 9769              		.section	.gcc_except_table
 9770              		.align 4
 9771              	.LLSDAC1479:
 9772 0914 FF       		.byte	0xff
 9773 0915 9B       		.byte	0x9b
 9774 0916 49       		.uleb128 .LLSDATTC1479-.LLSDATTDC1479
 9775              	.LLSDATTDC1479:
 9776 0917 01       		.byte	0x1
 9777 0918 32       		.uleb128 .LLSDACSEC1479-.LLSDACSBC1479
 9778              	.LLSDACSBC1479:
 9779 0919 34       		.uleb128 .LEHB275-.LCOLDB60
 9780 091a 31       		.uleb128 .LEHE275-.LEHB275
 9781 091b D304     		.uleb128 .L958-.LCOLDB60
 9782 091d 00       		.uleb128 0
 9783 091e 8D01     		.uleb128 .LEHB276-.LCOLDB60
 9784 0920 05       		.uleb128 .LEHE276-.LEHB276
 9785 0921 00       		.uleb128 0
 9786 0922 00       		.uleb128 0
 9787 0923 8F02     		.uleb128 .LEHB277-.LCOLDB60
 9788 0925 55       		.uleb128 .LEHE277-.LEHB277
 9789 0926 E704     		.uleb128 .L955-.LCOLDB60
 9790 0928 00       		.uleb128 0
 9791 0929 9D03     		.uleb128 .LEHB278-.LCOLDB60
 9792 092b 05       		.uleb128 .LEHE278-.LEHB278
 9793 092c 9404     		.uleb128 .L956-.LCOLDB60
 9794 092e 00       		.uleb128 0
 9795 092f B103     		.uleb128 .LEHB279-.LCOLDB60
 9796 0931 3A       		.uleb128 .LEHE279-.LEHB279
 9797 0932 F803     		.uleb128 .L957-.LCOLDB60
 9798 0934 00       		.uleb128 0
 9799 0935 EE03     		.uleb128 .LEHB280-.LCOLDB60
 9800 0937 05       		.uleb128 .LEHE280-.LEHB280
 9801 0938 9404     		.uleb128 .L956-.LCOLDB60
 9802 093a 00       		.uleb128 0
 9803 093b 8F04     		.uleb128 .LEHB281-.LCOLDB60
 9804 093d 05       		.uleb128 .LEHE281-.LEHB281
 9805 093e 00       		.uleb128 0
 9806 093f 00       		.uleb128 0
 9807 0940 9D04     		.uleb128 .LEHB282-.LCOLDB60
 9808 0942 31       		.uleb128 .LEHE282-.LEHB282
 9809 0943 D304     		.uleb128 .L958-.LCOLDB60
 9810 0945 00       		.uleb128 0
 9811 0946 E204     		.uleb128 .LEHB283-.LCOLDB60
 9812 0948 05       		.uleb128 .LEHE283-.LEHB283
 9813 0949 00       		.uleb128 0
 9814 094a 00       		.uleb128 0
 9815              	.LLSDACSEC1479:
 9816 094b 03       		.byte	0x3
 9817 094c 00       		.byte	0
 9818 094d 02       		.byte	0x2
 9819 094e 7D       		.byte	0x7d
 9820 094f 01       		.byte	0x1
 9821 0950 7D       		.byte	0x7d
 9822 0951 00       		.byte	0
 9823 0952 7D       		.byte	0x7d
 9824 0953 00       		.align 4
 9825 0954 00000000 		.long	0
 9826              	
 9827 0958 00000000 		.long	DW.ref._ZTISt9exception-.
 9828 095c 00000000 		.long	DW.ref._ZTIN8UnitTest15AssertExceptionE-.
 9829              	.LLSDATTC1479:
 9830              		.section	.text.unlikely
 9831              		.text
 9833              		.section	.text.unlikely
 9835              	.LCOLDE60:
 9836              		.text
 9837              	.LHOTE60:
 9838              		.section	.rodata.str1.1
 9839              	.LC61:
 9840 0114 22222727 		.string	"\"\"''&&<<>>"
 9840      26263C3C 
 9840      3E3E00
 9841              		.section	.rodata.str1.8
 9842 0635 000000   		.align 8
 9843              	.LC62:
 9844 0638 3C3F786D 		.string	"<?xml version=\"1.0\"?><unittest-results tests=\"1\" failedtests=\"2\" failures=\"3\" tim
 9844      6C207665 
 9844      7273696F 
 9844      6E3D2231 
 9844      2E30223F 
 9845              		.section	.text.unlikely
 9846              	.LCOLDB63:
 9847              		.text
 9848              	.LHOTB63:
 9849 2d61 66662E0F 		.p2align 4
 9849      1F840000 
 9849      0000000F 
 9849      1F4000
 9851              	_ZN8UnitTest11ExecuteTestIN12_GLOBAL__N_156XmlTestReporterFixtureMultipleCharactersAreEscapedHelper
 9852              	.LFB1566:
 9853              		.cfi_startproc
 9854              		.cfi_personality 0x9b,DW.ref.__gxx_personality_v0
 9855              		.cfi_lsda 0x1b,.LLSDA1566
 9856 2d70 4156     		pushq	%r14
 9857              		.cfi_def_cfa_offset 16
 9858              		.cfi_offset 14, -16
 9859 2d72 4155     		pushq	%r13
 9860              		.cfi_def_cfa_offset 24
 9861              		.cfi_offset 13, -24
 9862 2d74 4154     		pushq	%r12
 9863              		.cfi_def_cfa_offset 32
 9864              		.cfi_offset 12, -32
 9865 2d76 55       		pushq	%rbp
 9866              		.cfi_def_cfa_offset 40
 9867              		.cfi_offset 6, -40
 9868 2d77 53       		pushq	%rbx
 9869              		.cfi_def_cfa_offset 48
 9870              		.cfi_offset 3, -48
 9871 2d78 4889F3   		movq	%rsi, %rbx
 9872 2d7b 4881ECD0 		subq	$1744, %rsp
 9872      060000
 9873              		.cfi_def_cfa_offset 1792
 9874 2d82 48893C24 		movq	%rdi, (%rsp)
 9875 2d86 48897424 		movq	%rsi, 8(%rsp)
 9875      08
 9876 2d8b 64488B04 		movq	%fs:40, %rax
 9876      25280000 
 9876      00
 9877 2d94 48898424 		movq	%rax, 1736(%rsp)
 9877      C8060000 
 9878 2d9c 31C0     		xorl	%eax, %eax
 9879              	.LEHB284:
 9880 2d9e E8000000 		call	_ZN8UnitTest11CurrentTest7DetailsEv@PLT
 9880      00
 9881              	.LEHE284:
 9882 2da3 488DBC24 		leaq	608(%rsp), %rdi
 9882      60020000 
 9883 2dab 488918   		movq	%rbx, (%rax)
 9884              	.LEHB285:
 9885 2dae E8000000 		call	_ZN8UnitTest16SignalTranslatorC1Ev@PLT
 9885      00
 9886              	.LEHE285:
 9887 2db3 488B3D00 		movq	_ZN8UnitTest16SignalTranslator12s_jumpTargetE(%rip), %rdi
 9887      000000
 9888 2dba BE010000 		movl	$1, %esi
 9888      00
 9889 2dbf E8000000 		call	__sigsetjmp@PLT
 9889      00
 9890 2dc4 F30F1EFA 		endbr64
 9891 2dc8 85C0     		testl	%eax, %eax
 9892 2dca 0F850000 		jne	.L1027
 9892      0000
 9893 2dd0 488D7C24 		leaq	64(%rsp), %rdi
 9893      40
 9894 2dd5 41B8E110 		movl	$4321, %r8d
 9894      0000
 9895 2ddb 488D0D00 		leaq	.LC42(%rip), %rcx
 9895      000000
 9896 2de2 488D1500 		leaq	.LC28(%rip), %rdx
 9896      000000
 9897 2de9 488D3500 		leaq	.LC43(%rip), %rsi
 9897      000000
 9898              	.LEHB286:
 9899 2df0 E8000000 		call	_ZN8UnitTest11TestDetailsC1EPKcS2_S2_i@PLT
 9899      00
 9900 2df5 488B1C24 		movq	(%rsp), %rbx
 9901 2df9 488D7424 		leaq	64(%rsp), %rsi
 9901      40
 9902 2dfe 488DAB78 		leaq	376(%rbx), %rbp
 9902      010000
 9903 2e05 4889EF   		movq	%rbp, %rdi
 9904 2e08 E8000000 		call	_ZN8UnitTest20DeferredTestReporter15ReportTestStartERKNS_11TestDetailsE@PLT
 9904      00
 9905 2e0d 488D7424 		leaq	64(%rsp), %rsi
 9905      40
 9906 2e12 488D1500 		leaq	.LC61(%rip), %rdx
 9906      000000
 9907 2e19 4889EF   		movq	%rbp, %rdi
 9908 2e1c E8000000 		call	_ZN8UnitTest20DeferredTestReporter13ReportFailureERKNS_11TestDetailsEPKc@PLT
 9908      00
 9909 2e21 F30F1005 		movss	.LC32(%rip), %xmm0
 9909      00000000 
 9910 2e29 488D7424 		leaq	64(%rsp), %rsi
 9910      40
 9911 2e2e 4889EF   		movq	%rbp, %rdi
 9912 2e31 E8000000 		call	_ZN8UnitTest20DeferredTestReporter16ReportTestFinishERKNS_11TestDetailsEf@PLT
 9912      00
 9913 2e36 F30F1005 		movss	.LC32(%rip), %xmm0
 9913      00000000 
 9914 2e3e B9030000 		movl	$3, %ecx
 9914      00
 9915 2e43 BA020000 		movl	$2, %edx
 9915      00
 9916 2e48 4889EF   		movq	%rbp, %rdi
 9917 2e4b BE010000 		movl	$1, %esi
 9917      00
 9918 2e50 E8000000 		call	_ZN8UnitTest15XmlTestReporter13ReportSummaryEiiif@PLT
 9918      00
 9919              	.LEHE286:
 9920 2e55 488D0500 		leaq	.LC62(%rip), %rax
 9920      000000
 9921 2e5c 48894424 		movq	%rax, 24(%rsp)
 9921      18
 9922              	.LEHB287:
 9923 2e61 E8000000 		call	_ZN8UnitTest11CurrentTest7DetailsEv@PLT
 9923      00
 9924 2e66 488B30   		movq	(%rax), %rsi
 9925 2e69 488DBC24 		leaq	128(%rsp), %rdi
 9925      80000000 
 9926 2e71 BA340000 		movl	$52, %edx
 9926      00
 9927 2e76 E8000000 		call	_ZN8UnitTest11TestDetailsC1ERKS0_i@PLT
 9927      00
 9928              	.LEHE287:
 9929 2e7b 488D8424 		leaq	176(%rsp), %rax
 9929      B0000000 
 9930 2e83 C68424B0 		movb	$0, 176(%rsp)
 9930      00000000 
 9931 2e8b 488DBC24 		leaq	160(%rsp), %rdi
 9931      A0000000 
 9932 2e93 48898424 		movq	%rax, 160(%rsp)
 9932      A0000000 
 9933 2e9b 488B4330 		movq	48(%rbx), %rax
 9934 2e9f 48C78424 		movq	$0, 168(%rsp)
 9934      A8000000 
 9934      00000000 
 9935 2eab 4885C0   		testq	%rax, %rax
 9936 2eae 0F84AC00 		je	.L985
 9936      0000
 9937 2eb4 4C8B4320 		movq	32(%rbx), %r8
 9938 2eb8 4D85C0   		testq	%r8, %r8
 9939 2ebb 0F849700 		je	.L1024
 9939      0000
 9940 2ec1 4C39C0   		cmpq	%r8, %rax
 9941 2ec4 0F878E00 		ja	.L1024
 9941      0000
 9942              	.L986:
 9943 2eca 488B0424 		movq	(%rsp), %rax
 9944 2ece 488DBC24 		leaq	160(%rsp), %rdi
 9944      A0000000 
 9945 2ed6 31D2     		xorl	%edx, %edx
 9946 2ed8 31F6     		xorl	%esi, %esi
 9947 2eda 488B4828 		movq	40(%rax), %rcx
 9948 2ede 4929C8   		subq	%rcx, %r8
 9949              	.LEHB288:
 9950 2ee1 E8000000 		call	_ZNSt7__cxx1112basic_stringIcSt11char_traitsIcESaIcEE10_M_replaceEmmPKcm@PLT
 9950      00
 9951              	.LEHE288:
 9952              	.L989:
 9953              	.LEHB289:
 9954 2ee6 E8000000 		call	_ZN8UnitTest11CurrentTest7ResultsEv@PLT
 9954      00
 9955 2eeb 488B38   		movq	(%rax), %rdi
 9956 2eee 488D8C24 		leaq	128(%rsp), %rcx
 9956      80000000 
 9957 2ef6 488D7424 		leaq	24(%rsp), %rsi
 9957      18
 9958 2efb 488D9424 		leaq	160(%rsp), %rdx
 9958      A0000000 
 9959 2f03 E8000000 		call	_ZN8UnitTest10CheckEqualIPKcNSt7__cxx1112basic_stringIcSt11char_traitsIcESaIcEEEEEvRNS_11Test
 9959      00
 9960              	.LEHE289:
 9961 2f08 488BBC24 		movq	160(%rsp), %rdi
 9961      A0000000 
 9962 2f10 488D8424 		leaq	176(%rsp), %rax
 9962      B0000000 
 9963 2f18 4839C7   		cmpq	%rax, %rdi
 9964 2f1b 7405     		je	.L995
 9965 2f1d E8000000 		call	_ZdlPv@PLT
 9965      00
 9966              	.L995:
 9967 2f22 488DBC24 		leaq	608(%rsp), %rdi
 9967      60020000 
 9968              	.LEHB290:
 9969 2f2a E8000000 		call	_ZN8UnitTest16SignalTranslatorD1Ev@PLT
 9969      00
 9970              	.LEHE290:
 9971              	.L982:
 9972 2f2f 488B8424 		movq	1736(%rsp), %rax
 9972      C8060000 
 9973 2f37 64482B04 		subq	%fs:40, %rax
 9973      25280000 
 9973      00
 9974 2f40 7530     		jne	.L1031
 9975 2f42 4881C4D0 		addq	$1744, %rsp
 9975      060000
 9976              		.cfi_remember_state
 9977              		.cfi_def_cfa_offset 48
 9978 2f49 5B       		popq	%rbx
 9979              		.cfi_def_cfa_offset 40
 9980 2f4a 5D       		popq	%rbp
 9981              		.cfi_def_cfa_offset 32
 9982 2f4b 415C     		popq	%r12
 9983              		.cfi_def_cfa_offset 24
 9984 2f4d 415D     		popq	%r13
 9985              		.cfi_def_cfa_offset 16
 9986 2f4f 415E     		popq	%r14
 9987              		.cfi_def_cfa_offset 8
 9988 2f51 C3       		ret
 9989              		.p2align 4,,10
 9990 2f52 660F1F44 		.p2align 3
 9990      0000
 9991              	.L1024:
 9992              		.cfi_restore_state
 9993 2f58 4989C0   		movq	%rax, %r8
 9994 2f5b E96AFFFF 		jmp	.L986
 9994      FF
 9995              		.p2align 4,,10
 9996              		.p2align 3
 9997              	.L985:
 9998 2f60 488B3424 		movq	(%rsp), %rsi
 9999 2f64 4883C650 		addq	$80, %rsi
 10000              	.LEHB291:
 10001 2f68 E8000000 		call	_ZNSt7__cxx1112basic_stringIcSt11char_traitsIcESaIcEE9_M_assignERKS4_@PLT
 10001      00
 10002              	.LEHE291:
 10003 2f6d E974FFFF 		jmp	.L989
 10003      FF
 10004              	.L1031:
 10005 2f72 E8000000 		call	__stack_chk_fail@PLT
 10005      00
 10006              	.L1021:
 10007 2f77 F30F1EFA 		endbr64
 10008 2f7b 4889C7   		movq	%rax, %rdi
 10009 2f7e E9000000 		jmp	.L992
 10009      00
 10010              	.L1025:
 10011 2f83 F30F1EFA 		endbr64
 10012 2f87 E9000000 		jmp	.L1026
 10012      00
 10013              	.L1014:
 10014 2f8c F30F1EFA 		endbr64
 10015 2f90 4889C7   		movq	%rax, %rdi
 10016 2f93 4889D0   		movq	%rdx, %rax
 10017 2f96 E9000000 		jmp	.L1003
 10017      00
 10018              	.L1022:
 10019 2f9b F30F1EFA 		endbr64
 10020 2f9f 4889C3   		movq	%rax, %rbx
 10021 2fa2 E9000000 		jmp	.L998
 10021      00
 10022              	.L1023:
 10023 2fa7 F30F1EFA 		endbr64
 10024 2fab 4889C3   		movq	%rax, %rbx
 10025 2fae E9000000 		jmp	.L990
 10025      00
 10026              		.section	.gcc_except_table
 10027              		.align 4
 10028              	.LLSDA1566:
 10029 0960 FF       		.byte	0xff
 10030 0961 9B       		.byte	0x9b
 10031 0962 45       		.uleb128 .LLSDATT1566-.LLSDATTD1566
 10032              	.LLSDATTD1566:
 10033 0963 01       		.byte	0x1
 10034 0964 2D       		.uleb128 .LLSDACSE1566-.LLSDACSB1566
 10035              	.LLSDACSB1566:
 10036 0965 2E       		.uleb128 .LEHB284-.LFB1566
 10037 0966 05       		.uleb128 .LEHE284-.LEHB284
 10038 0967 00       		.uleb128 0
 10039 0968 00       		.uleb128 0
 10040 0969 3E       		.uleb128 .LEHB285-.LFB1566
 10041 096a 05       		.uleb128 .LEHE285-.LEHB285
 10042 096b 9C04     		.uleb128 .L1014-.LFB1566
 10043 096d 05       		.uleb128 0x5
 10044 096e 8001     		.uleb128 .LEHB286-.LFB1566
 10045 0970 65       		.uleb128 .LEHE286-.LEHB286
 10046 0971 9304     		.uleb128 .L1025-.LFB1566
 10047 0973 07       		.uleb128 0x7
 10048 0974 F101     		.uleb128 .LEHB287-.LFB1566
 10049 0976 1A       		.uleb128 .LEHE287-.LEHB287
 10050 0977 8704     		.uleb128 .L1021-.LFB1566
 10051 0979 01       		.uleb128 0x1
 10052 097a F102     		.uleb128 .LEHB288-.LFB1566
 10053 097c 05       		.uleb128 .LEHE288-.LEHB288
 10054 097d B704     		.uleb128 .L1023-.LFB1566
 10055 097f 01       		.uleb128 0x1
 10056 0980 F602     		.uleb128 .LEHB289-.LFB1566
 10057 0982 22       		.uleb128 .LEHE289-.LEHB289
 10058 0983 AB04     		.uleb128 .L1022-.LFB1566
 10059 0985 01       		.uleb128 0x1
 10060 0986 BA03     		.uleb128 .LEHB290-.LFB1566
 10061 0988 05       		.uleb128 .LEHE290-.LEHB290
 10062 0989 9C04     		.uleb128 .L1014-.LFB1566
 10063 098b 05       		.uleb128 0x5
 10064 098c F803     		.uleb128 .LEHB291-.LFB1566
 10065 098e 05       		.uleb128 .LEHE291-.LEHB291
 10066 098f B704     		.uleb128 .L1023-.LFB1566
 10067 0991 01       		.uleb128 0x1
 10068              	.LLSDACSE1566:
 10069 0992 03       		.byte	0x3
 10070 0993 00       		.byte	0
 10071 0994 02       		.byte	0x2
 10072 0995 7D       		.byte	0x7d
 10073 0996 01       		.byte	0x1
 10074 0997 7D       		.byte	0x7d
 10075 0998 00       		.byte	0
 10076 0999 7D       		.byte	0x7d
 10077 099a 0000     		.align 4
 10078 099c 00000000 		.long	0
 10079              	
 10080 09a0 00000000 		.long	DW.ref._ZTISt9exception-.
 10081 09a4 00000000 		.long	DW.ref._ZTIN8UnitTest15AssertExceptionE-.
 10082              	.LLSDATT1566:
 10083              		.text
 10084              		.cfi_endproc
 10085              		.section	.text.unlikely
 10086              		.cfi_startproc
 10087              		.cfi_personality 0x9b,DW.ref.__gxx_personality_v0
 10088              		.cfi_lsda 0x1b,.LLSDAC1566
 10090              	_ZN8UnitTest11ExecuteTestIN12_GLOBAL__N_156XmlTestReporterFixtureMultipleCharactersAreEscapedHelper
 10091              	.LFSB1566:
 10092              	.L1027:
 10093              		.cfi_def_cfa_offset 1792
 10094              		.cfi_offset 3, -48
 10095              		.cfi_offset 6, -40
 10096              		.cfi_offset 12, -32
 10097              		.cfi_offset 13, -24
 10098              		.cfi_offset 14, -16
 10099 2333 BF080000 		movl	$8, %edi
 10099      00
 10100 2338 E8000000 		call	__cxa_allocate_exception@PLT
 10100      00
 10101 233d 31D2     		xorl	%edx, %edx
 10102 233f 488D3500 		leaq	_ZTIPKc(%rip), %rsi
 10102      000000
 10103 2346 4889C7   		movq	%rax, %rdi
 10104 2349 488D0500 		leaq	.LC8(%rip), %rax
 10104      000000
 10105 2350 488907   		movq	%rax, (%rdi)
 10106              	.LEHB292:
 10107 2353 E8000000 		call	__cxa_throw@PLT
 10107      00
 10108              	.LEHE292:
 10109              	.L1015:
 10110 2358 F30F1EFA 		endbr64
 10111              	.L1026:
 10112 235c 4889C5   		movq	%rax, %rbp
 10113 235f 4889D3   		movq	%rdx, %rbx
 10114 2362 EB6E     		jmp	.L1002
 10115              	.L990:
 10116 2364 488BBC24 		movq	160(%rsp), %rdi
 10116      A0000000 
 10117 236c 488D8424 		leaq	176(%rsp), %rax
 10117      B0000000 
 10118 2374 4839C7   		cmpq	%rax, %rdi
 10119 2377 7405     		je	.L993
 10120 2379 E8000000 		call	_ZdlPv@PLT
 10120      00
 10121              	.L993:
 10122 237e 4889DF   		movq	%rbx, %rdi
 10123              	.L992:
 10124 2381 E8000000 		call	__cxa_begin_catch@PLT
 10124      00
 10125              	.LEHB293:
 10126 2386 E8000000 		call	_ZN8UnitTest11CurrentTest7ResultsEv@PLT
 10126      00
 10127 238b 488B28   		movq	(%rax), %rbp
 10128 238e E8000000 		call	_ZN8UnitTest11CurrentTest7DetailsEv@PLT
 10128      00
 10129 2393 488B30   		movq	(%rax), %rsi
 10130 2396 488D7C24 		leaq	96(%rsp), %rdi
 10130      60
 10131 239b BA340000 		movl	$52, %edx
 10131      00
 10132 23a0 E8000000 		call	_ZN8UnitTest11TestDetailsC1ERKS0_i@PLT
 10132      00
 10133 23a5 488D7424 		leaq	96(%rsp), %rsi
 10133      60
 10134 23aa 488D1500 		leaq	.LC35(%rip), %rdx
 10134      000000
 10135 23b1 4889EF   		movq	%rbp, %rdi
 10136 23b4 E8000000 		call	_ZN8UnitTest11TestResults13OnTestFailureERKNS_11TestDetailsEPKc@PLT
 10136      00
 10137              	.LEHE293:
 10138              	.LEHB294:
 10139 23b9 E8000000 		call	__cxa_end_catch@PLT
 10139      00
 10140              	.LEHE294:
 10141 23be E9000000 		jmp	.L995
 10141      00
 10142              	.L1020:
 10143 23c3 F30F1EFA 		endbr64
 10144 23c7 4889C5   		movq	%rax, %rbp
 10145 23ca 4889D3   		movq	%rdx, %rbx
 10146 23cd E8000000 		call	__cxa_end_catch@PLT
 10146      00
 10147              	.L1002:
 10148 23d2 488DBC24 		leaq	608(%rsp), %rdi
 10148      60020000 
 10149 23da E8000000 		call	_ZN8UnitTest16SignalTranslatorD1Ev@PLT
 10149      00
 10150 23df 4889EF   		movq	%rbp, %rdi
 10151 23e2 4889D8   		movq	%rbx, %rax
 10152              	.L1003:
 10153 23e5 4883F801 		cmpq	$1, %rax
 10154 23e9 7454     		je	.L1004
 10155 23eb 4883F802 		cmpq	$2, %rax
 10156 23ef 0F84C400 		je	.L1032
 10156      0000
 10157 23f5 E8000000 		call	__cxa_begin_catch@PLT
 10157      00
 10158              	.LEHB295:
 10159 23fa E8000000 		call	_ZN8UnitTest11CurrentTest7ResultsEv@PLT
 10159      00
 10160 23ff 488B7424 		movq	8(%rsp), %rsi
 10160      08
 10161 2404 488B38   		movq	(%rax), %rdi
 10162 2407 488D1500 		leaq	.LC17(%rip), %rdx
 10162      000000
 10163 240e E8000000 		call	_ZN8UnitTest11TestResults13OnTestFailureERKNS_11TestDetailsEPKc@PLT
 10163      00
 10164              	.LEHE295:
 10165              	.LEHB296:
 10166 2413 E8000000 		call	__cxa_end_catch@PLT
 10166      00
 10167              	.LEHE296:
 10168 2418 E9000000 		jmp	.L982
 10168      00
 10169              	.L998:
 10170 241d 488BBC24 		movq	160(%rsp), %rdi
 10170      A0000000 
 10171 2425 488D8424 		leaq	176(%rsp), %rax
 10171      B0000000 
 10172 242d 4839C7   		cmpq	%rax, %rdi
 10173 2430 7405     		je	.L1000
 10174 2432 E8000000 		call	_ZdlPv@PLT
 10174      00
 10175              	.L1000:
 10176 2437 4889DF   		movq	%rbx, %rdi
 10177 243a E942FFFF 		jmp	.L992
 10177      FF
 10178              	.L1004:
 10179 243f E8000000 		call	__cxa_begin_catch@PLT
 10179      00
 10180 2444 4889C5   		movq	%rax, %rbp
 10181              	.LEHB297:
 10182 2447 E8000000 		call	_ZN8UnitTest11CurrentTest7ResultsEv@PLT
 10182      00
 10183 244c 4C8B28   		movq	(%rax), %r13
 10184 244f 488B4500 		movq	0(%rbp), %rax
 10185 2453 4889EF   		movq	%rbp, %rdi
 10186 2456 FF5010   		call	*16(%rax)
 10187 2459 4889EF   		movq	%rbp, %rdi
 10188 245c 4989C6   		movq	%rax, %r14
 10189 245f E8000000 		call	_ZNK8UnitTest15AssertException10LineNumberEv@PLT
 10189      00
 10190 2464 4889EF   		movq	%rbp, %rdi
 10191 2467 4189C4   		movl	%eax, %r12d
 10192 246a E8000000 		call	_ZNK8UnitTest15AssertException8FilenameEv@PLT
 10192      00
 10193 246f 4889C1   		movq	%rax, %rcx
 10194 2472 488B4424 		movq	8(%rsp), %rax
 10194      08
 10195 2477 488D7C24 		leaq	32(%rsp), %rdi
 10195      20
 10196 247c 4589E0   		movl	%r12d, %r8d
 10197 247f 488B7008 		movq	8(%rax), %rsi
 10198 2483 488B10   		movq	(%rax), %rdx
 10199 2486 E8000000 		call	_ZN8UnitTest11TestDetailsC1EPKcS2_S2_i@PLT
 10199      00
 10200 248b 488D7424 		leaq	32(%rsp), %rsi
 10200      20
 10201 2490 4C89F2   		movq	%r14, %rdx
 10202 2493 4C89EF   		movq	%r13, %rdi
 10203 2496 E8000000 		call	_ZN8UnitTest11TestResults13OnTestFailureERKNS_11TestDetailsEPKc@PLT
 10203      00
 10204              	.LEHE297:
 10205 249b E8000000 		call	__cxa_end_catch@PLT
 10205      00
 10206 24a0 E9000000 		jmp	.L982
 10206      00
 10207              	.L1016:
 10208 24a5 F30F1EFA 		endbr64
 10209 24a9 4889C5   		movq	%rax, %rbp
 10210 24ac E8000000 		call	__cxa_end_catch@PLT
 10210      00
 10211 24b1 4889EF   		movq	%rbp, %rdi
 10212              	.LEHB298:
 10213 24b4 E8000000 		call	_Unwind_Resume@PLT
 10213      00
 10214              	.LEHE298:
 10215              	.L1032:
 10216 24b9 E8000000 		call	__cxa_begin_catch@PLT
 10216      00
 10217 24be 488DBC24 		leaq	192(%rsp), %rdi
 10217      C0000000 
 10218 24c6 4889C5   		movq	%rax, %rbp
 10219              	.LEHB299:
 10220 24c9 E8000000 		call	_ZN8UnitTest15MemoryOutStreamC1Ev
 10220      00
 10221              	.LEHE299:
 10222 24ce 488DBC24 		leaq	192(%rsp), %rdi
 10222      C0000000 
 10223 24d6 BA150000 		movl	$21, %edx
 10223      00
 10224 24db 488D3500 		leaq	.LC16(%rip), %rsi
 10224      000000
 10225              	.LEHB300:
 10226 24e2 E8000000 		call	_ZSt16__ostream_insertIcSt11char_traitsIcEERSt13basic_ostreamIT_T0_ES6_PKS3_l@PLT
 10226      00
 10227 24e7 488B4500 		movq	0(%rbp), %rax
 10228 24eb 4889EF   		movq	%rbp, %rdi
 10229 24ee FF5010   		call	*16(%rax)
 10230 24f1 488DBC24 		leaq	192(%rsp), %rdi
 10230      C0000000 
 10231 24f9 4889C6   		movq	%rax, %rsi
 10232 24fc E8000000 		call	_ZStlsISt11char_traitsIcEERSt13basic_ostreamIcT_ES5_PKc@PLT
 10232      00
 10233 2501 E8000000 		call	_ZN8UnitTest11CurrentTest7ResultsEv@PLT
 10233      00
 10234 2506 488DBC24 		leaq	192(%rsp), %rdi
 10234      C0000000 
 10235 250e 488B28   		movq	(%rax), %rbp
 10236 2511 E8000000 		call	_ZNK8UnitTest15MemoryOutStream7GetTextEv@PLT
 10236      00
 10237 2516 488B7424 		movq	8(%rsp), %rsi
 10237      08
 10238 251b 4889C2   		movq	%rax, %rdx
 10239 251e 4889EF   		movq	%rbp, %rdi
 10240 2521 E8000000 		call	_ZN8UnitTest11TestResults13OnTestFailureERKNS_11TestDetailsEPKc@PLT
 10240      00
 10241              	.LEHE300:
 10242 2526 488DBC24 		leaq	192(%rsp), %rdi
 10242      C0000000 
 10243              	.LEHB301:
 10244 252e E8000000 		call	_ZN8UnitTest15MemoryOutStreamD1Ev
 10244      00
 10245              	.LEHE301:
 10246 2533 E8000000 		call	__cxa_end_catch@PLT
 10246      00
 10247 2538 E9000000 		jmp	.L982
 10247      00
 10248              	.L1018:
 10249 253d F30F1EFA 		endbr64
 10250 2541 488DBC24 		leaq	192(%rsp), %rdi
 10250      C0000000 
 10251 2549 4889C5   		movq	%rax, %rbp
 10252 254c E8000000 		call	_ZN8UnitTest15MemoryOutStreamD1Ev
 10252      00
 10253              	.L1011:
 10254 2551 E8000000 		call	__cxa_end_catch@PLT
 10254      00
 10255 2556 4889EF   		movq	%rbp, %rdi
 10256              	.LEHB302:
 10257 2559 E8000000 		call	_Unwind_Resume@PLT
 10257      00
 10258              	.LEHE302:
 10259              	.L1017:
 10260 255e F30F1EFA 		endbr64
 10261 2562 4889C5   		movq	%rax, %rbp
 10262 2565 EBEA     		jmp	.L1011
 10263              	.L1019:
 10264 2567 F30F1EFA 		endbr64
 10265 256b 4889C5   		movq	%rax, %rbp
 10266 256e E8000000 		call	__cxa_end_catch@PLT
 10266      00
 10267 2573 4889EF   		movq	%rbp, %rdi
 10268              	.LEHB303:
 10269 2576 E8000000 		call	_Unwind_Resume@PLT
 10269      00
 10270              	.LEHE303:
 10271              		.cfi_endproc
 10272              	.LFE1566:
 10273              		.section	.gcc_except_table
 10274              		.align 4
 10275              	.LLSDAC1566:
 10276 09a8 FF       		.byte	0xff
 10277 09a9 9B       		.byte	0x9b
 10278 09aa 59       		.uleb128 .LLSDATTC1566-.LLSDATTDC1566
 10279              	.LLSDATTDC1566:
 10280 09ab 01       		.byte	0x1
 10281 09ac 40       		.uleb128 .LLSDACSEC1566-.LLSDACSBC1566
 10282              	.LLSDACSBC1566:
 10283 09ad 20       		.uleb128 .LEHB292-.LCOLDB63
 10284 09ae 05       		.uleb128 .LEHE292-.LEHB292
 10285 09af 25       		.uleb128 .L1015-.LCOLDB63
 10286 09b0 07       		.uleb128 0x7
 10287 09b1 53       		.uleb128 .LEHB293-.LCOLDB63
 10288 09b2 33       		.uleb128 .LEHE293-.LEHB293
 10289 09b3 9001     		.uleb128 .L1020-.LCOLDB63
 10290 09b5 07       		.uleb128 0x7
 10291 09b6 8601     		.uleb128 .LEHB294-.LCOLDB63
 10292 09b8 05       		.uleb128 .LEHE294-.LEHB294
 10293 09b9 25       		.uleb128 .L1015-.LCOLDB63
 10294 09ba 07       		.uleb128 0x7
 10295 09bb C701     		.uleb128 .LEHB295-.LCOLDB63
 10296 09bd 19       		.uleb128 .LEHE295-.LEHB295
 10297 09be B404     		.uleb128 .L1019-.LCOLDB63
 10298 09c0 00       		.uleb128 0
 10299 09c1 E001     		.uleb128 .LEHB296-.LCOLDB63
 10300 09c3 05       		.uleb128 .LEHE296-.LEHB296
 10301 09c4 00       		.uleb128 0
 10302 09c5 00       		.uleb128 0
 10303 09c6 9402     		.uleb128 .LEHB297-.LCOLDB63
 10304 09c8 54       		.uleb128 .LEHE297-.LEHB297
 10305 09c9 F202     		.uleb128 .L1016-.LCOLDB63
 10306 09cb 00       		.uleb128 0
 10307 09cc 8103     		.uleb128 .LEHB298-.LCOLDB63
 10308 09ce 05       		.uleb128 .LEHE298-.LEHB298
 10309 09cf 00       		.uleb128 0
 10310 09d0 00       		.uleb128 0
 10311 09d1 9603     		.uleb128 .LEHB299-.LCOLDB63
 10312 09d3 05       		.uleb128 .LEHE299-.LEHB299
 10313 09d4 AB04     		.uleb128 .L1017-.LCOLDB63
 10314 09d6 00       		.uleb128 0
 10315 09d7 AF03     		.uleb128 .LEHB300-.LCOLDB63
 10316 09d9 44       		.uleb128 .LEHE300-.LEHB300
 10317 09da 8A04     		.uleb128 .L1018-.LCOLDB63
 10318 09dc 00       		.uleb128 0
 10319 09dd FB03     		.uleb128 .LEHB301-.LCOLDB63
 10320 09df 05       		.uleb128 .LEHE301-.LEHB301
 10321 09e0 AB04     		.uleb128 .L1017-.LCOLDB63
 10322 09e2 00       		.uleb128 0
 10323 09e3 A604     		.uleb128 .LEHB302-.LCOLDB63
 10324 09e5 05       		.uleb128 .LEHE302-.LEHB302
 10325 09e6 00       		.uleb128 0
 10326 09e7 00       		.uleb128 0
 10327 09e8 C304     		.uleb128 .LEHB303-.LCOLDB63
 10328 09ea 05       		.uleb128 .LEHE303-.LEHB303
 10329 09eb 00       		.uleb128 0
 10330 09ec 00       		.uleb128 0
 10331              	.LLSDACSEC1566:
 10332 09ed 03       		.byte	0x3
 10333 09ee 00       		.byte	0
 10334 09ef 02       		.byte	0x2
 10335 09f0 7D       		.byte	0x7d
 10336 09f1 01       		.byte	0x1
 10337 09f2 7D       		.byte	0x7d
 10338 09f3 00       		.byte	0
 10339 09f4 7D       		.byte	0x7d
 10340 09f5 000000   		.align 4
 10341 09f8 00000000 		.long	0
 10342              	
 10343 09fc 00000000 		.long	DW.ref._ZTISt9exception-.
 10344 0a00 00000000 		.long	DW.ref._ZTIN8UnitTest15AssertExceptionE-.
 10345              	.LLSDATTC1566:
 10346              		.section	.text.unlikely
 10347              		.text
 10349              		.section	.text.unlikely
 10351              	.LCOLDE63:
 10352              		.text
 10353              	.LHOTE63:
 10354              		.section	.text.unlikely
 10355 257b 90       		.align 2
 10356              	.LCOLDB64:
 10357              		.text
 10358              	.LHOTB64:
 10359 2fb3 90       		.align 2
 10360 2fb4 66662E0F 		.p2align 4
 10360      1F840000 
 10360      00000090 
 10362              	_ZNK12_GLOBAL__N_154TestXmlTestReporterFixtureMultipleCharactersAreEscaped7RunImplEv:
 10363              	.LFB1457:
 10364              		.cfi_startproc
 10365              		.cfi_personality 0x9b,DW.ref.__gxx_personality_v0
 10366              		.cfi_lsda 0x1b,.LLSDA1457
 10367 2fc0 F30F1EFA 		endbr64
 10368 2fc4 4157     		pushq	%r15
 10369              		.cfi_def_cfa_offset 16
 10370              		.cfi_offset 15, -16
 10371 2fc6 4156     		pushq	%r14
 10372              		.cfi_def_cfa_offset 24
 10373              		.cfi_offset 14, -24
 10374 2fc8 4155     		pushq	%r13
 10375              		.cfi_def_cfa_offset 32
 10376              		.cfi_offset 13, -32
 10377 2fca 4154     		pushq	%r12
 10378              		.cfi_def_cfa_offset 40
 10379              		.cfi_offset 12, -40
 10380 2fcc 55       		pushq	%rbp
 10381              		.cfi_def_cfa_offset 48
 10382              		.cfi_offset 6, -48
 10383 2fcd 53       		pushq	%rbx
 10384              		.cfi_def_cfa_offset 56
 10385              		.cfi_offset 3, -56
 10386 2fce 488D1D00 		leaq	16+_ZTVNSt7__cxx1115basic_stringbufIcSt11char_traitsIcESaIcEEE(%rip), %rbx
 10386      000000
 10387 2fd5 66480F6E 		movq	%rbx, %xmm3
 10387      DB
 10388 2fda 4881EC18 		subq	$536, %rsp
 10388      020000
 10389              		.cfi_def_cfa_offset 592
 10390 2fe1 48897C24 		movq	%rdi, 56(%rsp)
 10390      38
 10391 2fe6 4C8DB424 		leaq	208(%rsp), %r14
 10391      D0000000 
 10392 2fee 4C8D6C24 		leaq	96(%rsp), %r13
 10392      60
 10393 2ff3 64488B04 		movq	%fs:40, %rax
 10393      25280000 
 10393      00
 10394 2ffc 48898424 		movq	%rax, 520(%rsp)
 10394      08020000 
 10395 3004 488D0500 		leaq	24+_ZTVNSt7__cxx1119basic_ostringstreamIcSt11char_traitsIcESaIcEEE(%rip), %rax
 10395      000000
 10396 300b 66480F6E 		movq	%rax, %xmm1
 10396      C8
 10397 3010 66480F6E 		movq	%rax, %xmm2
 10397      D0
 10398 3015 488D4708 		leaq	8(%rdi), %rax
 10399 3019 4C89F7   		movq	%r14, %rdi
 10400 301c 660F6CCB 		punpcklqdq	%xmm3, %xmm1
 10401 3020 0F161500 		movhps	.LC21(%rip), %xmm2
 10401      000000
 10402 3027 48894424 		movq	%rax, 32(%rsp)
 10402      20
 10403 302c 0F294C24 		movaps	%xmm1, 16(%rsp)
 10403      10
 10404 3031 0F291424 		movaps	%xmm2, (%rsp)
 10405 3035 E8000000 		call	_ZNSt8ios_baseC2Ev@PLT
 10405      00
 10406 303a 488D0500 		leaq	16+_ZTVSt9basic_iosIcSt11char_traitsIcEE(%rip), %rax
 10406      000000
 10407 3041 660FEFC0 		pxor	%xmm0, %xmm0
 10408 3045 31F6     		xorl	%esi, %esi
 10409 3047 48898424 		movq	%rax, 208(%rsp)
 10409      D0000000 
 10410 304f 31C0     		xorl	%eax, %eax
 10411 3051 66898424 		movw	%ax, 432(%rsp)
 10411      B0010000 
 10412 3059 488B0500 		movq	8+_ZTTNSt7__cxx1119basic_ostringstreamIcSt11char_traitsIcESaIcEEE(%rip), %rax
 10412      000000
 10413 3060 0F118424 		movups	%xmm0, 440(%rsp)
 10413      B8010000 
 10414 3068 0F118424 		movups	%xmm0, 456(%rsp)
 10414      C8010000 
 10415 3070 488B78E8 		movq	-24(%rax), %rdi
 10416 3074 48894424 		movq	%rax, 96(%rsp)
 10416      60
 10417 3079 488B0500 		movq	16+_ZTTNSt7__cxx1119basic_ostringstreamIcSt11char_traitsIcESaIcEEE(%rip), %rax
 10417      000000
 10418 3080 48C78424 		movq	$0, 424(%rsp)
 10418      A8010000 
 10418      00000000 
 10419 308c 4C01EF   		addq	%r13, %rdi
 10420 308f 488907   		movq	%rax, (%rdi)
 10421              	.LEHB304:
 10422 3092 E8000000 		call	_ZNSt9basic_iosIcSt11char_traitsIcEE4initEPSt15basic_streambufIcS1_E@PLT
 10422      00
 10423              	.LEHE304:
 10424 3097 488D0500 		leaq	64+_ZTVNSt7__cxx1119basic_ostringstreamIcSt11char_traitsIcESaIcEEE(%rip), %rax
 10424      000000
 10425 309e 660F6F14 		movdqa	(%rsp), %xmm2
 10425      24
 10426 30a3 660FEFC0 		pxor	%xmm0, %xmm0
 10427 30a7 488D6C24 		leaq	104(%rsp), %rbp
 10427      68
 10428 30ac 48898424 		movq	%rax, 208(%rsp)
 10428      D0000000 
 10429 30b4 488D8424 		leaq	160(%rsp), %rax
 10429      A0000000 
 10430 30bc 4889C7   		movq	%rax, %rdi
 10431 30bf 48890424 		movq	%rax, (%rsp)
 10432 30c3 0F295424 		movaps	%xmm2, 96(%rsp)
 10432      60
 10433 30c8 0F294424 		movaps	%xmm0, 112(%rsp)
 10433      70
 10434 30cd 0F298424 		movaps	%xmm0, 128(%rsp)
 10434      80000000 
 10435 30d5 0F298424 		movaps	%xmm0, 144(%rsp)
 10435      90000000 
 10436 30dd E8000000 		call	_ZNSt6localeC1Ev@PLT
 10436      00
 10437 30e2 4889EE   		movq	%rbp, %rsi
 10438 30e5 4C89F7   		movq	%r14, %rdi
 10439 30e8 48895C24 		movq	%rbx, 104(%rsp)
 10439      68
 10440 30ed 488D8424 		leaq	192(%rsp), %rax
 10440      C0000000 
 10441 30f5 C68424C0 		movb	$0, 192(%rsp)
 10441      00000000 
 10442 30fd C78424A8 		movl	$16, 168(%rsp)
 10442      00000010 
 10442      000000
 10443 3108 48894424 		movq	%rax, 40(%rsp)
 10443      28
 10444 310d 48898424 		movq	%rax, 176(%rsp)
 10444      B0000000 
 10445 3115 48C78424 		movq	$0, 184(%rsp)
 10445      B8000000 
 10445      00000000 
 10446              	.LEHB305:
 10447 3121 E8000000 		call	_ZNSt9basic_iosIcSt11char_traitsIcEE4initEPSt15basic_streambufIcS1_E@PLT
 10447      00
 10448              	.LEHE305:
 10449 3126 488D8424 		leaq	472(%rsp), %rax
 10449      D8010000 
 10450 312e 4C89EE   		movq	%r13, %rsi
 10451 3131 4889C7   		movq	%rax, %rdi
 10452 3134 48894424 		movq	%rax, 48(%rsp)
 10452      30
 10453              	.LEHB306:
 10454 3139 E8000000 		call	_ZN8UnitTest15XmlTestReporterC1ERSo@PLT
 10454      00
 10455              	.LEHE306:
 10456 313e 488B4424 		movq	32(%rsp), %rax
 10456      20
 10457 3143 4C89EF   		movq	%r13, %rdi
 10458 3146 4889C6   		movq	%rax, %rsi
 10459 3149 48898424 		movq	%rax, 512(%rsp)
 10459      00020000 
 10460              	.LEHB307:
 10461 3151 E81AFCFF 		call	_ZN8UnitTest11ExecuteTestIN12_GLOBAL__N_156XmlTestReporterFixtureMultipleCharactersAreEscaped
 10461      FF
 10462              	.LEHE307:
 10463 3156 4C8BA424 		movq	488(%rsp), %r12
 10463      E8010000 
 10464 315e 488BAC24 		movq	480(%rsp), %rbp
 10464      E0010000 
 10465 3166 488D0500 		leaq	16+_ZTVN8UnitTest20DeferredTestReporterE(%rip), %rax
 10465      000000
 10466 316d 48898424 		movq	%rax, 472(%rsp)
 10466      D8010000 
 10467 3175 4939EC   		cmpq	%rbp, %r12
 10468 3178 0F849100 		je	.L1040
 10468      0000
 10469 317e 6690     		.p2align 4,,10
 10470              		.p2align 3
 10471              	.L1052:
 10472 3180 488B5D68 		movq	104(%rbp), %rbx
 10473 3184 4C8B7D60 		movq	96(%rbp), %r15
 10474 3188 4C39FB   		cmpq	%r15, %rbx
 10475 318b 7426     		je	.L1041
 10476 318d 0F1F00   		.p2align 4,,10
 10477              		.p2align 3
 10478              	.L1045:
 10479 3190 498B7F08 		movq	8(%r15), %rdi
 10480 3194 498D4718 		leaq	24(%r15), %rax
 10481 3198 4839C7   		cmpq	%rax, %rdi
 10482 319b 0F842701 		je	.L1042
 10482      0000
 10483 31a1 E8000000 		call	_ZdlPv@PLT
 10483      00
 10484 31a6 4983C728 		addq	$40, %r15
 10485 31aa 4939DF   		cmpq	%rbx, %r15
 10486 31ad 75E1     		jne	.L1045
 10487              	.L1044:
 10488 31af 4C8B7D60 		movq	96(%rbp), %r15
 10489              	.L1041:
 10490 31b3 4D85FF   		testq	%r15, %r15
 10491 31b6 7408     		je	.L1046
 10492 31b8 4C89FF   		movq	%r15, %rdi
 10493 31bb E8000000 		call	_ZdlPv@PLT
 10493      00
 10494              	.L1046:
 10495 31c0 488B7D40 		movq	64(%rbp), %rdi
 10496 31c4 488D4550 		leaq	80(%rbp), %rax
 10497 31c8 4839C7   		cmpq	%rax, %rdi
 10498 31cb 7405     		je	.L1047
 10499 31cd E8000000 		call	_ZdlPv@PLT
 10499      00
 10500              	.L1047:
 10501 31d2 488B7D20 		movq	32(%rbp), %rdi
 10502 31d6 488D4530 		leaq	48(%rbp), %rax
 10503 31da 4839C7   		cmpq	%rax, %rdi
 10504 31dd 7405     		je	.L1048
 10505 31df E8000000 		call	_ZdlPv@PLT
 10505      00
 10506              	.L1048:
 10507 31e4 488B7D00 		movq	0(%rbp), %rdi
 10508 31e8 488D4510 		leaq	16(%rbp), %rax
 10509 31ec 4839C7   		cmpq	%rax, %rdi
 10510 31ef 0F84EB00 		je	.L1049
 10510      0000
 10511 31f5 E8000000 		call	_ZdlPv@PLT
 10511      00
 10512 31fa 4883ED80 		subq	$-128, %rbp
 10513 31fe 4939EC   		cmpq	%rbp, %r12
 10514 3201 0F8579FF 		jne	.L1052
 10514      FFFF
 10515              	.L1051:
 10516 3207 488BAC24 		movq	480(%rsp), %rbp
 10516      E0010000 
 10517              	.L1040:
 10518 320f 4885ED   		testq	%rbp, %rbp
 10519 3212 7408     		je	.L1053
 10520 3214 4889EF   		movq	%rbp, %rdi
 10521 3217 E8000000 		call	_ZdlPv@PLT
 10521      00
 10522              	.L1053:
 10523 321c 488B7C24 		movq	48(%rsp), %rdi
 10523      30
 10524              	.LEHB308:
 10525 3221 E8000000 		call	_ZN8UnitTest12TestReporterD2Ev@PLT
 10525      00
 10526              	.LEHE308:
 10527 3226 660F6F64 		movdqa	16(%rsp), %xmm4
 10527      2410
 10528 322c 488D0500 		leaq	64+_ZTVNSt7__cxx1119basic_ostringstreamIcSt11char_traitsIcESaIcEEE(%rip), %rax
 10528      000000
 10529 3233 488BBC24 		movq	176(%rsp), %rdi
 10529      B0000000 
 10530 323b 48898424 		movq	%rax, 208(%rsp)
 10530      D0000000 
 10531 3243 0F296424 		movaps	%xmm4, 96(%rsp)
 10531      60
 10532 3248 483B7C24 		cmpq	40(%rsp), %rdi
 10532      28
 10533 324d 7405     		je	.L1054
 10534 324f E8000000 		call	_ZdlPv@PLT
 10534      00
 10535              	.L1054:
 10536 3254 488B3C24 		movq	(%rsp), %rdi
 10537 3258 488D0500 		leaq	16+_ZTVSt15basic_streambufIcSt11char_traitsIcEE(%rip), %rax
 10537      000000
 10538 325f 48894424 		movq	%rax, 104(%rsp)
 10538      68
 10539 3264 E8000000 		call	_ZNSt6localeD1Ev@PLT
 10539      00
 10540 3269 488B0500 		movq	8+_ZTTNSt7__cxx1119basic_ostringstreamIcSt11char_traitsIcESaIcEEE(%rip), %rax
 10540      000000
 10541 3270 488B0D00 		movq	16+_ZTTNSt7__cxx1119basic_ostringstreamIcSt11char_traitsIcESaIcEEE(%rip), %rcx
 10541      000000
 10542 3277 4C89F7   		movq	%r14, %rdi
 10543 327a 48894424 		movq	%rax, 96(%rsp)
 10543      60
 10544 327f 488B40E8 		movq	-24(%rax), %rax
 10545 3283 48894C04 		movq	%rcx, 96(%rsp,%rax)
 10545      60
 10546 3288 488D0500 		leaq	16+_ZTVSt9basic_iosIcSt11char_traitsIcEE(%rip), %rax
 10546      000000
 10547 328f 48898424 		movq	%rax, 208(%rsp)
 10547      D0000000 
 10548              	.LEHB309:
 10549 3297 E8000000 		call	_ZNSt8ios_baseD2Ev@PLT
 10549      00
 10550              	.LEHE309:
 10551 329c 488B8424 		movq	520(%rsp), %rax
 10551      08020000 
 10552 32a4 64482B04 		subq	%fs:40, %rax
 10552      25280000 
 10552      00
 10553 32ad 7543     		jne	.L1099
 10554 32af 4881C418 		addq	$536, %rsp
 10554      020000
 10555              		.cfi_remember_state
 10556              		.cfi_def_cfa_offset 56
 10557 32b6 5B       		popq	%rbx
 10558              		.cfi_def_cfa_offset 48
 10559 32b7 5D       		popq	%rbp
 10560              		.cfi_def_cfa_offset 40
 10561 32b8 415C     		popq	%r12
 10562              		.cfi_def_cfa_offset 32
 10563 32ba 415D     		popq	%r13
 10564              		.cfi_def_cfa_offset 24
 10565 32bc 415E     		popq	%r14
 10566              		.cfi_def_cfa_offset 16
 10567 32be 415F     		popq	%r15
 10568              		.cfi_def_cfa_offset 8
 10569 32c0 C3       		ret
 10570              		.p2align 4,,10
 10571 32c1 0F1F8000 		.p2align 3
 10571      000000
 10572              	.L1042:
 10573              		.cfi_restore_state
 10574 32c8 4983C728 		addq	$40, %r15
 10575 32cc 4C39FB   		cmpq	%r15, %rbx
 10576 32cf 0F85BBFE 		jne	.L1045
 10576      FFFF
 10577 32d5 E9D5FEFF 		jmp	.L1044
 10577      FF
 10578 32da 660F1F44 		.p2align 4,,10
 10578      0000
 10579              		.p2align 3
 10580              	.L1049:
 10581 32e0 4883ED80 		subq	$-128, %rbp
 10582 32e4 4939EC   		cmpq	%rbp, %r12
 10583 32e7 0F8593FE 		jne	.L1052
 10583      FFFF
 10584 32ed E915FFFF 		jmp	.L1051
 10584      FF
 10585              	.L1099:
 10586 32f2 E8000000 		call	__stack_chk_fail@PLT
 10586      00
 10587              	.L1073:
 10588 32f7 F30F1EFA 		endbr64
 10589 32fb 4889C7   		movq	%rax, %rdi
 10590 32fe 4889D0   		movq	%rdx, %rax
 10591 3301 E9000000 		jmp	.L1094
 10591      00
 10592              	.L1082:
 10593 3306 F30F1EFA 		endbr64
 10594 330a 4889C3   		movq	%rax, %rbx
 10595 330d 4889D5   		movq	%rdx, %rbp
 10596 3310 E9000000 		jmp	.L1058
 10596      00
 10597              	.L1074:
 10598 3315 F30F1EFA 		endbr64
 10599 3319 4889C3   		movq	%rax, %rbx
 10600 331c 4889D5   		movq	%rdx, %rbp
 10601 331f E9000000 		jmp	.L1059
 10601      00
 10602              	.L1079:
 10603 3324 F30F1EFA 		endbr64
 10604 3328 4889C3   		movq	%rax, %rbx
 10605 332b 4889D5   		movq	%rdx, %rbp
 10606 332e E9000000 		jmp	.L1039
 10606      00
 10607              	.L1081:
 10608 3333 F30F1EFA 		endbr64
 10609 3337 4889C3   		movq	%rax, %rbx
 10610 333a 4989D4   		movq	%rdx, %r12
 10611 333d E9000000 		jmp	.L1035
 10611      00
 10612              	.L1080:
 10613 3342 F30F1EFA 		endbr64
 10614 3346 4889C3   		movq	%rax, %rbx
 10615 3349 4989D4   		movq	%rdx, %r12
 10616 334c E9000000 		jmp	.L1036
 10616      00
 10617              		.section	.gcc_except_table
 10618              		.align 4
 10619              	.LLSDA1457:
 10620 0a04 FF       		.byte	0xff
 10621 0a05 9B       		.byte	0x9b
 10622 0a06 3D       		.uleb128 .LLSDATT1457-.LLSDATTD1457
 10623              	.LLSDATTD1457:
 10624 0a07 01       		.byte	0x1
 10625 0a08 24       		.uleb128 .LLSDACSE1457-.LLSDACSB1457
 10626              	.LLSDACSB1457:
 10627 0a09 D201     		.uleb128 .LEHB304-.LFB1457
 10628 0a0b 05       		.uleb128 .LEHE304-.LEHB304
 10629 0a0c 8207     		.uleb128 .L1080-.LFB1457
 10630 0a0e 07       		.uleb128 0x7
 10631 0a0f E102     		.uleb128 .LEHB305-.LFB1457
 10632 0a11 05       		.uleb128 .LEHE305-.LEHB305
 10633 0a12 F306     		.uleb128 .L1081-.LFB1457
 10634 0a14 07       		.uleb128 0x7
 10635 0a15 F902     		.uleb128 .LEHB306-.LFB1457
 10636 0a17 05       		.uleb128 .LEHE306-.LEHB306
 10637 0a18 E406     		.uleb128 .L1079-.LFB1457
 10638 0a1a 07       		.uleb128 0x7
 10639 0a1b 9103     		.uleb128 .LEHB307-.LFB1457
 10640 0a1d 05       		.uleb128 .LEHE307-.LEHB307
 10641 0a1e D506     		.uleb128 .L1074-.LFB1457
 10642 0a20 07       		.uleb128 0x7
 10643 0a21 E104     		.uleb128 .LEHB308-.LFB1457
 10644 0a23 05       		.uleb128 .LEHE308-.LEHB308
 10645 0a24 C606     		.uleb128 .L1082-.LFB1457
 10646 0a26 07       		.uleb128 0x7
 10647 0a27 D705     		.uleb128 .LEHB309-.LFB1457
 10648 0a29 05       		.uleb128 .LEHE309-.LEHB309
 10649 0a2a B706     		.uleb128 .L1073-.LFB1457
 10650 0a2c 05       		.uleb128 0x5
 10651              	.LLSDACSE1457:
 10652 0a2d 03       		.byte	0x3
 10653 0a2e 00       		.byte	0
 10654 0a2f 02       		.byte	0x2
 10655 0a30 7D       		.byte	0x7d
 10656 0a31 01       		.byte	0x1
 10657 0a32 7D       		.byte	0x7d
 10658 0a33 00       		.byte	0
 10659 0a34 7D       		.byte	0x7d
 10660 0a35 000000   		.align 4
 10661 0a38 00000000 		.long	0
 10662              	
 10663 0a3c 00000000 		.long	DW.ref._ZTISt9exception-.
 10664 0a40 00000000 		.long	DW.ref._ZTIN8UnitTest15AssertExceptionE-.
 10665              	.LLSDATT1457:
 10666              		.text
 10667              		.cfi_endproc
 10668              		.section	.text.unlikely
 10669              		.cfi_startproc
 10670              		.cfi_personality 0x9b,DW.ref.__gxx_personality_v0
 10671              		.cfi_lsda 0x1b,.LLSDAC1457
 10673              	_ZNK12_GLOBAL__N_154TestXmlTestReporterFixtureMultipleCharactersAreEscaped7RunImplEv.cold:
 10674              	.LFSB1457:
 10675              	.L1059:
 10676              		.cfi_def_cfa_offset 592
 10677              		.cfi_offset 3, -56
 10678              		.cfi_offset 6, -48
 10679              		.cfi_offset 12, -40
 10680              		.cfi_offset 13, -32
 10681              		.cfi_offset 14, -24
 10682              		.cfi_offset 15, -16
 10683 257c 4C89EF   		movq	%r13, %rdi
 10684 257f E89ADDFF 		call	_ZN12_GLOBAL__N_122XmlTestReporterFixtureD2Ev
 10684      FF
 10685 2584 4889DF   		movq	%rbx, %rdi
 10686 2587 4889E8   		movq	%rbp, %rax
 10687              	.L1094:
 10688 258a BB010000 		movl	$1, %ebx
 10688      00
 10689              	.L1037:
 10690 258f 4883F801 		cmpq	$1, %rax
 10691 2593 0F84EA00 		je	.L1060
 10691      0000
 10692 2599 4883F802 		cmpq	$2, %rax
 10693 259d 0F846B01 		je	.L1100
 10693      0000
 10694 25a3 E8000000 		call	__cxa_begin_catch@PLT
 10694      00
 10695 25a8 84DB     		testb	%bl, %bl
 10696 25aa 0F85E901 		jne	.L1101
 10696      0000
 10697              	.LEHB310:
 10698 25b0 E8000000 		call	_ZN8UnitTest11CurrentTest7ResultsEv@PLT
 10698      00
 10699 25b5 488D6C24 		leaq	64(%rsp), %rbp
 10699      40
 10700 25ba 488B7424 		movq	32(%rsp), %rsi
 10700      20
 10701 25bf BA220000 		movl	$34, %edx
 10701      00
 10702 25c4 4C8B20   		movq	(%rax), %r12
 10703 25c7 4889EF   		movq	%rbp, %rdi
 10704 25ca E8000000 		call	_ZN8UnitTest11TestDetailsC1ERKS0_i@PLT
 10704      00
 10705 25cf 488D1500 		leaq	.LC20(%rip), %rdx
 10705      000000
 10706 25d6 4889EE   		movq	%rbp, %rsi
 10707 25d9 4C89E7   		movq	%r12, %rdi
 10708 25dc E8000000 		call	_ZN8UnitTest11TestResults13OnTestFailureERKNS_11TestDetailsEPKc@PLT
 10708      00
 10709              	.LEHE310:
 10710              	.L1066:
 10711 25e1 488B8424 		movq	520(%rsp), %rax
 10711      08020000 
 10712 25e9 64482B04 		subq	%fs:40, %rax
 10712      25280000 
 10712      00
 10713 25f2 0F851101 		jne	.L1096
 10713      0000
 10714 25f8 4881C418 		addq	$536, %rsp
 10714      020000
 10715              		.cfi_remember_state
 10716              		.cfi_def_cfa_offset 56
 10717 25ff 5B       		popq	%rbx
 10718              		.cfi_def_cfa_offset 48
 10719 2600 5D       		popq	%rbp
 10720              		.cfi_def_cfa_offset 40
 10721 2601 415C     		popq	%r12
 10722              		.cfi_def_cfa_offset 32
 10723 2603 415D     		popq	%r13
 10724              		.cfi_def_cfa_offset 24
 10725 2605 415E     		popq	%r14
 10726              		.cfi_def_cfa_offset 16
 10727 2607 415F     		popq	%r15
 10728              		.cfi_def_cfa_offset 8
 10729              	.LEHB311:
 10730 2609 E9000000 		jmp	__cxa_end_catch@PLT
 10730      00
 10731              	.LEHE311:
 10732              	.L1058:
 10733              		.cfi_restore_state
 10734 260e 4C89EF   		movq	%r13, %rdi
 10735 2611 E8000000 		call	_ZNSt7__cxx1119basic_ostringstreamIcSt11char_traitsIcESaIcEED1Ev@PLT
 10735      00
 10736 2616 4889DF   		movq	%rbx, %rdi
 10737 2619 4889E8   		movq	%rbp, %rax
 10738 261c BB010000 		movl	$1, %ebx
 10738      00
 10739 2621 E969FFFF 		jmp	.L1037
 10739      FF
 10740              	.L1039:
 10741 2626 4C89EF   		movq	%r13, %rdi
 10742 2629 E8000000 		call	_ZNSt7__cxx1119basic_ostringstreamIcSt11char_traitsIcESaIcEED1Ev@PLT
 10742      00
 10743 262e 4889DF   		movq	%rbx, %rdi
 10744 2631 4889E8   		movq	%rbp, %rax
 10745 2634 31DB     		xorl	%ebx, %ebx
 10746 2636 E954FFFF 		jmp	.L1037
 10746      FF
 10747              	.L1035:
 10748 263b 4889EF   		movq	%rbp, %rdi
 10749 263e E8000000 		call	_ZNSt7__cxx1115basic_stringbufIcSt11char_traitsIcESaIcEED1Ev
 10749      00
 10750 2643 488B0500 		movq	8+_ZTTNSt7__cxx1119basic_ostringstreamIcSt11char_traitsIcESaIcEEE(%rip), %rax
 10750      000000
 10751 264a 488B0D00 		movq	16+_ZTTNSt7__cxx1119basic_ostringstreamIcSt11char_traitsIcESaIcEEE(%rip), %rcx
 10751      000000
 10752 2651 48894424 		movq	%rax, 96(%rsp)
 10752      60
 10753 2656 488B40E8 		movq	-24(%rax), %rax
 10754 265a 48894C04 		movq	%rcx, 96(%rsp,%rax)
 10754      60
 10755              	.L1036:
 10756 265f 488D0500 		leaq	16+_ZTVSt9basic_iosIcSt11char_traitsIcEE(%rip), %rax
 10756      000000
 10757 2666 4C89F7   		movq	%r14, %rdi
 10758 2669 48898424 		movq	%rax, 208(%rsp)
 10758      D0000000 
 10759 2671 E8000000 		call	_ZNSt8ios_baseD2Ev@PLT
 10759      00
 10760 2676 4889DF   		movq	%rbx, %rdi
 10761 2679 4C89E0   		movq	%r12, %rax
 10762 267c 31DB     		xorl	%ebx, %ebx
 10763 267e E90CFFFF 		jmp	.L1037
 10763      FF
 10764              	.L1060:
 10765 2683 E8000000 		call	__cxa_begin_catch@PLT
 10765      00
 10766 2688 4889C5   		movq	%rax, %rbp
 10767              	.LEHB312:
 10768 268b E8000000 		call	_ZN8UnitTest11CurrentTest7ResultsEv@PLT
 10768      00
 10769 2690 4C8B28   		movq	(%rax), %r13
 10770 2693 488B4500 		movq	0(%rbp), %rax
 10771 2697 4889EF   		movq	%rbp, %rdi
 10772 269a FF5010   		call	*16(%rax)
 10773 269d 4889EF   		movq	%rbp, %rdi
 10774 26a0 4989C4   		movq	%rax, %r12
 10775 26a3 E8000000 		call	_ZNK8UnitTest15AssertException10LineNumberEv@PLT
 10775      00
 10776 26a8 4889EF   		movq	%rbp, %rdi
 10777 26ab 89C3     		movl	%eax, %ebx
 10778 26ad E8000000 		call	_ZNK8UnitTest15AssertException8FilenameEv@PLT
 10778      00
 10779 26b2 4889C1   		movq	%rax, %rcx
 10780 26b5 488B4424 		movq	56(%rsp), %rax
 10780      38
 10781 26ba 488D6C24 		leaq	64(%rsp), %rbp
 10781      40
 10782 26bf 4189D8   		movl	%ebx, %r8d
 10783 26c2 4889EF   		movq	%rbp, %rdi
 10784 26c5 488B5008 		movq	8(%rax), %rdx
 10785 26c9 488B7010 		movq	16(%rax), %rsi
 10786 26cd E8000000 		call	_ZN8UnitTest11TestDetailsC1EPKcS2_S2_i@PLT
 10786      00
 10787 26d2 4C89E2   		movq	%r12, %rdx
 10788 26d5 4889EE   		movq	%rbp, %rsi
 10789 26d8 4C89EF   		movq	%r13, %rdi
 10790 26db E8000000 		call	_ZN8UnitTest11TestResults13OnTestFailureERKNS_11TestDetailsEPKc@PLT
 10790      00
 10791              	.LEHE312:
 10792              	.L1098:
 10793 26e0 488B8424 		movq	520(%rsp), %rax
 10793      08020000 
 10794 26e8 64482B04 		subq	%fs:40, %rax
 10794      25280000 
 10794      00
 10795 26f1 7516     		jne	.L1096
 10796 26f3 4881C418 		addq	$536, %rsp
 10796      020000
 10797              		.cfi_remember_state
 10798              		.cfi_def_cfa_offset 56
 10799 26fa 5B       		popq	%rbx
 10800              		.cfi_def_cfa_offset 48
 10801 26fb 5D       		popq	%rbp
 10802              		.cfi_def_cfa_offset 40
 10803 26fc 415C     		popq	%r12
 10804              		.cfi_def_cfa_offset 32
 10805 26fe 415D     		popq	%r13
 10806              		.cfi_def_cfa_offset 24
 10807 2700 415E     		popq	%r14
 10808              		.cfi_def_cfa_offset 16
 10809 2702 415F     		popq	%r15
 10810              		.cfi_def_cfa_offset 8
 10811 2704 E9000000 		jmp	__cxa_end_catch@PLT
 10811      00
 10812              	.L1096:
 10813              		.cfi_restore_state
 10814 2709 E8000000 		call	__stack_chk_fail@PLT
 10814      00
 10815              	.L1100:
 10816 270e E8000000 		call	__cxa_begin_catch@PLT
 10816      00
 10817 2713 4C89EF   		movq	%r13, %rdi
 10818 2716 4889C5   		movq	%rax, %rbp
 10819              	.LEHB313:
 10820 2719 E8000000 		call	_ZN8UnitTest15MemoryOutStreamC1Ev
 10820      00
 10821              	.LEHE313:
 10822 271e BA150000 		movl	$21, %edx
 10822      00
 10823 2723 488D3500 		leaq	.LC16(%rip), %rsi
 10823      000000
 10824 272a 4C89EF   		movq	%r13, %rdi
 10825              	.LEHB314:
 10826 272d E8000000 		call	_ZSt16__ostream_insertIcSt11char_traitsIcEERSt13basic_ostreamIT_T0_ES6_PKS3_l@PLT
 10826      00
 10827 2732 488B4500 		movq	0(%rbp), %rax
 10828 2736 4889EF   		movq	%rbp, %rdi
 10829 2739 FF5010   		call	*16(%rax)
 10830 273c 4C89EF   		movq	%r13, %rdi
 10831 273f 4889C6   		movq	%rax, %rsi
 10832 2742 E8000000 		call	_ZStlsISt11char_traitsIcEERSt13basic_ostreamIcT_ES5_PKc@PLT
 10832      00
 10833 2747 E8000000 		call	_ZN8UnitTest11CurrentTest7ResultsEv@PLT
 10833      00
 10834 274c 4C89EF   		movq	%r13, %rdi
 10835 274f 488B28   		movq	(%rax), %rbp
 10836 2752 E8000000 		call	_ZNK8UnitTest15MemoryOutStream7GetTextEv@PLT
 10836      00
 10837 2757 488B7424 		movq	32(%rsp), %rsi
 10837      20
 10838 275c 4889C2   		movq	%rax, %rdx
 10839 275f 4889EF   		movq	%rbp, %rdi
 10840 2762 E8000000 		call	_ZN8UnitTest11TestResults13OnTestFailureERKNS_11TestDetailsEPKc@PLT
 10840      00
 10841              	.LEHE314:
 10842 2767 4C89EF   		movq	%r13, %rdi
 10843              	.LEHB315:
 10844 276a E8000000 		call	_ZN8UnitTest15MemoryOutStreamD1Ev
 10844      00
 10845              	.LEHE315:
 10846 276f E96CFFFF 		jmp	.L1098
 10846      FF
 10847              	.L1077:
 10848 2774 F30F1EFA 		endbr64
 10849 2778 4C89EF   		movq	%r13, %rdi
 10850 277b 4889C5   		movq	%rax, %rbp
 10851 277e E8000000 		call	_ZN8UnitTest15MemoryOutStreamD1Ev
 10851      00
 10852              	.L1070:
 10853 2783 E8000000 		call	__cxa_end_catch@PLT
 10853      00
 10854 2788 4889EF   		movq	%rbp, %rdi
 10855              	.LEHB316:
 10856 278b E8000000 		call	_Unwind_Resume@PLT
 10856      00
 10857              	.LEHE316:
 10858              	.L1076:
 10859 2790 F30F1EFA 		endbr64
 10860              	.L1097:
 10861 2794 4889C5   		movq	%rax, %rbp
 10862 2797 EBEA     		jmp	.L1070
 10863              	.L1101:
 10864              	.LEHB317:
 10865 2799 E8000000 		call	_ZN8UnitTest11CurrentTest7ResultsEv@PLT
 10865      00
 10866 279e 488D6C24 		leaq	64(%rsp), %rbp
 10866      40
 10867 27a3 488B7424 		movq	32(%rsp), %rsi
 10867      20
 10868 27a8 BA220000 		movl	$34, %edx
 10868      00
 10869 27ad 4C8B20   		movq	(%rax), %r12
 10870 27b0 4889EF   		movq	%rbp, %rdi
 10871 27b3 E8000000 		call	_ZN8UnitTest11TestDetailsC1ERKS0_i@PLT
 10871      00
 10872 27b8 488D1500 		leaq	.LC19(%rip), %rdx
 10872      000000
 10873 27bf 4889EE   		movq	%rbp, %rsi
 10874 27c2 4C89E7   		movq	%r12, %rdi
 10875 27c5 E8000000 		call	_ZN8UnitTest11TestResults13OnTestFailureERKNS_11TestDetailsEPKc@PLT
 10875      00
 10876              	.LEHE317:
 10877 27ca E912FEFF 		jmp	.L1066
 10877      FF
 10878              	.L1078:
 10879 27cf F30F1EFA 		endbr64
 10880 27d3 4889C5   		movq	%rax, %rbp
 10881 27d6 E8000000 		call	__cxa_end_catch@PLT
 10881      00
 10882 27db 4889EF   		movq	%rbp, %rdi
 10883              	.LEHB318:
 10884 27de E8000000 		call	_Unwind_Resume@PLT
 10884      00
 10885              	.LEHE318:
 10886              	.L1075:
 10887 27e3 F30F1EFA 		endbr64
 10888 27e7 EBAB     		jmp	.L1097
 10889              		.cfi_endproc
 10890              	.LFE1457:
 10891              		.section	.gcc_except_table
 10892              		.align 4
 10893              	.LLSDAC1457:
 10894 0a44 FF       		.byte	0xff
 10895 0a45 9B       		.byte	0x9b
 10896 0a46 49       		.uleb128 .LLSDATTC1457-.LLSDATTDC1457
 10897              	.LLSDATTDC1457:
 10898 0a47 01       		.byte	0x1
 10899 0a48 32       		.uleb128 .LLSDACSEC1457-.LLSDACSBC1457
 10900              	.LLSDACSBC1457:
 10901 0a49 34       		.uleb128 .LEHB310-.LCOLDB64
 10902 0a4a 31       		.uleb128 .LEHE310-.LEHB310
 10903 0a4b D304     		.uleb128 .L1078-.LCOLDB64
 10904 0a4d 00       		.uleb128 0
 10905 0a4e 8D01     		.uleb128 .LEHB311-.LCOLDB64
 10906 0a50 05       		.uleb128 .LEHE311-.LEHB311
 10907 0a51 00       		.uleb128 0
 10908 0a52 00       		.uleb128 0
 10909 0a53 8F02     		.uleb128 .LEHB312-.LCOLDB64
 10910 0a55 55       		.uleb128 .LEHE312-.LEHB312
 10911 0a56 E704     		.uleb128 .L1075-.LCOLDB64
 10912 0a58 00       		.uleb128 0
 10913 0a59 9D03     		.uleb128 .LEHB313-.LCOLDB64
 10914 0a5b 05       		.uleb128 .LEHE313-.LEHB313
 10915 0a5c 9404     		.uleb128 .L1076-.LCOLDB64
 10916 0a5e 00       		.uleb128 0
 10917 0a5f B103     		.uleb128 .LEHB314-.LCOLDB64
 10918 0a61 3A       		.uleb128 .LEHE314-.LEHB314
 10919 0a62 F803     		.uleb128 .L1077-.LCOLDB64
 10920 0a64 00       		.uleb128 0
 10921 0a65 EE03     		.uleb128 .LEHB315-.LCOLDB64
 10922 0a67 05       		.uleb128 .LEHE315-.LEHB315
 10923 0a68 9404     		.uleb128 .L1076-.LCOLDB64
 10924 0a6a 00       		.uleb128 0
 10925 0a6b 8F04     		.uleb128 .LEHB316-.LCOLDB64
 10926 0a6d 05       		.uleb128 .LEHE316-.LEHB316
 10927 0a6e 00       		.uleb128 0
 10928 0a6f 00       		.uleb128 0
 10929 0a70 9D04     		.uleb128 .LEHB317-.LCOLDB64
 10930 0a72 31       		.uleb128 .LEHE317-.LEHB317
 10931 0a73 D304     		.uleb128 .L1078-.LCOLDB64
 10932 0a75 00       		.uleb128 0
 10933 0a76 E204     		.uleb128 .LEHB318-.LCOLDB64
 10934 0a78 05       		.uleb128 .LEHE318-.LEHB318
 10935 0a79 00       		.uleb128 0
 10936 0a7a 00       		.uleb128 0
 10937              	.LLSDACSEC1457:
 10938 0a7b 03       		.byte	0x3
 10939 0a7c 00       		.byte	0
 10940 0a7d 02       		.byte	0x2
 10941 0a7e 7D       		.byte	0x7d
 10942 0a7f 01       		.byte	0x1
 10943 0a80 7D       		.byte	0x7d
 10944 0a81 00       		.byte	0
 10945 0a82 7D       		.byte	0x7d
 10946 0a83 00       		.align 4
 10947 0a84 00000000 		.long	0
 10948              	
 10949 0a88 00000000 		.long	DW.ref._ZTISt9exception-.
 10950 0a8c 00000000 		.long	DW.ref._ZTIN8UnitTest15AssertExceptionE-.
 10951              	.LLSDATTC1457:
 10952              		.section	.text.unlikely
 10953              		.text
 10955              		.section	.text.unlikely
 10957              	.LCOLDE64:
 10958              		.text
 10959              	.LHOTE64:
 10960              		.section	.rodata.str1.1
 10961              	.LC65:
 10962 011f 54657374 		.string	"TestXmlTestReporter.cpp"
 10962      586D6C54 
 10962      65737452 
 10962      65706F72 
 10962      7465722E 
 10963              	.LC66:
 10964 0137 4D756C74 		.string	"MultipleCharactersAreEscaped"
 10964      69706C65 
 10964      43686172 
 10964      61637465 
 10964      72734172 
 10965              		.section	.rodata.str1.8
 10966 0735 000000   		.align 8
 10967              	.LC67:
 10968 0738 4F757470 		.string	"OutputIsCachedUntilReportSummaryIsCalled"
 10968      75744973 
 10968      43616368 
 10968      6564556E 
 10968      74696C52 
 10969              		.section	.rodata.str1.1
 10970              	.LC68:
 10971 0154 456D7074 		.string	"EmptyReportSummaryFormat"
 10971      79526570 
 10971      6F727453 
 10971      756D6D61 
 10971      7279466F 
 10972              		.section	.rodata.str1.8
 10973 0761 00000000 		.align 8
 10973      000000
 10974              	.LC69:
 10975 0768 53696E67 		.string	"SingleSuccessfulTestReportSummaryFormat"
 10975      6C655375 
 10975      63636573 
 10975      7366756C 
 10975      54657374 
 10976              		.align 8
 10977              	.LC70:
 10978 0790 53696E67 		.string	"SingleFailedTestReportSummaryFormat"
 10978      6C654661 
 10978      696C6564 
 10978      54657374 
 10978      5265706F 
 10979              		.section	.rodata.str1.1
 10980              	.LC71:
 10981 016d 4661696C 		.string	"FailureMessageIsXMLEscaped"
 10981      7572654D 
 10981      65737361 
 10981      67654973 
 10981      584D4C45 
 10982              	.LC72:
 10983 0188 4F6E6546 		.string	"OneFailureAndOneSuccess"
 10983      61696C75 
 10983      7265416E 
 10983      644F6E65 
 10983      53756363 
 10984              	.LC73:
 10985 01a0 4D756C74 		.string	"MultipleFailures"
 10985      69706C65 
 10985      4661696C 
 10985      75726573 
 10985      00
 10986              		.section	.text.startup,"ax",@progbits
 10987              		.p2align 4
 10989              	_GLOBAL__sub_I_TestXmlTestReporter.cpp:
 10990              	.LFB1773:
 10991              		.cfi_startproc
 10992 0000 F30F1EFA 		endbr64
 10993 0004 4157     		pushq	%r15
 10994              		.cfi_def_cfa_offset 16
 10995              		.cfi_offset 15, -16
 10996 0006 4C8D3D00 		leaq	_ZN12_GLOBAL__N_162testXmlTestReporterFixtureMultipleCharactersAreEscapedInstanceE(%rip), %r1
 10996      000000
 10997 000d 41B82200 		movl	$34, %r8d
 10997      0000
 10998 0013 488D3500 		leaq	.LC66(%rip), %rsi
 10998      000000
 10999 001a 4156     		pushq	%r14
 11000              		.cfi_def_cfa_offset 24
 11001              		.cfi_offset 14, -24
 11002 001c 4C8D3500 		leaq	.LC65(%rip), %r14
 11002      000000
 11003 0023 4C89FF   		movq	%r15, %rdi
 11004 0026 4155     		pushq	%r13
 11005              		.cfi_def_cfa_offset 32
 11006              		.cfi_offset 13, -32
 11007 0028 4C8D2D00 		leaq	.LC54(%rip), %r13
 11007      000000
 11008 002f 4C89F1   		movq	%r14, %rcx
 11009 0032 4154     		pushq	%r12
 11010              		.cfi_def_cfa_offset 40
 11011              		.cfi_offset 12, -40
 11012 0034 4C89EA   		movq	%r13, %rdx
 11013 0037 4C8D2500 		leaq	__dso_handle(%rip), %r12
 11013      000000
 11014 003e 4883EC08 		subq	$8, %rsp
 11015              		.cfi_def_cfa_offset 48
 11016 0042 E8000000 		call	_ZN8UnitTest4TestC2EPKcS2_S2_i@PLT
 11016      00
 11017 0047 4C89E2   		movq	%r12, %rdx
 11018 004a 4C89FE   		movq	%r15, %rsi
 11019 004d 488D3D00 		leaq	_ZN12_GLOBAL__N_154TestXmlTestReporterFixtureMultipleCharactersAreEscapedD1Ev(%rip), %rdi
 11019      000000
 11020 0054 488D0500 		leaq	16+_ZTVN12_GLOBAL__N_154TestXmlTestReporterFixtureMultipleCharactersAreEscapedE(%rip), %rax
 11020      000000
 11021 005b 48890500 		movq	%rax, _ZN12_GLOBAL__N_162testXmlTestReporterFixtureMultipleCharactersAreEscapedInstanceE(%rip
 11021      000000
 11022 0062 E8000000 		call	__cxa_atexit@PLT
 11022      00
 11023 0067 E8000000 		call	_ZN8UnitTest4Test11GetTestListEv@PLT
 11023      00
 11024 006c 4C89FA   		movq	%r15, %rdx
 11025 006f 488D3D00 		leaq	_ZN12_GLOBAL__N_155adderXmlTestReporterFixtureMultipleCharactersAreEscapedE(%rip), %rdi
 11025      000000
 11026 0076 4C8D3D00 		leaq	_ZN12_GLOBAL__N_174testXmlTestReporterFixtureOutputIsCachedUntilReportSummaryIsCalledInstance
 11026      000000
 11027 007d 4889C6   		movq	%rax, %rsi
 11028 0080 E8000000 		call	_ZN8UnitTest9ListAdderC1ERNS_8TestListEPNS_4TestE@PLT
 11028      00
 11029 0085 4C89F1   		movq	%r14, %rcx
 11030 0088 4C89EA   		movq	%r13, %rdx
 11031 008b 4C89FF   		movq	%r15, %rdi
 11032 008e 41B83700 		movl	$55, %r8d
 11032      0000
 11033 0094 488D3500 		leaq	.LC67(%rip), %rsi
 11033      000000
 11034 009b E8000000 		call	_ZN8UnitTest4TestC2EPKcS2_S2_i@PLT
 11034      00
 11035 00a0 4C89E2   		movq	%r12, %rdx
 11036 00a3 4C89FE   		movq	%r15, %rsi
 11037 00a6 488D3D00 		leaq	_ZN12_GLOBAL__N_166TestXmlTestReporterFixtureOutputIsCachedUntilReportSummaryIsCalledD1Ev(%ri
 11037      000000
 11038 00ad 488D0500 		leaq	16+_ZTVN12_GLOBAL__N_166TestXmlTestReporterFixtureOutputIsCachedUntilReportSummaryIsCalledE(%
 11038      000000
 11039 00b4 48890500 		movq	%rax, _ZN12_GLOBAL__N_174testXmlTestReporterFixtureOutputIsCachedUntilReportSummaryIsCalledIn
 11039      000000
 11040 00bb E8000000 		call	__cxa_atexit@PLT
 11040      00
 11041 00c0 E8000000 		call	_ZN8UnitTest4Test11GetTestListEv@PLT
 11041      00
 11042 00c5 4C89FA   		movq	%r15, %rdx
 11043 00c8 488D3D00 		leaq	_ZN12_GLOBAL__N_167adderXmlTestReporterFixtureOutputIsCachedUntilReportSummaryIsCalledE(%rip)
 11043      000000
 11044 00cf 4C8D3D00 		leaq	_ZN12_GLOBAL__N_158testXmlTestReporterFixtureEmptyReportSummaryFormatInstanceE(%rip), %r15
 11044      000000
 11045 00d6 4889C6   		movq	%rax, %rsi
 11046 00d9 E8000000 		call	_ZN8UnitTest9ListAdderC1ERNS_8TestListEPNS_4TestE@PLT
 11046      00
 11047 00de 4C89F1   		movq	%r14, %rcx
 11048 00e1 4C89EA   		movq	%r13, %rdx
 11049 00e4 4C89FF   		movq	%r15, %rdi
 11050 00e7 41B84400 		movl	$68, %r8d
 11050      0000
 11051 00ed 488D3500 		leaq	.LC68(%rip), %rsi
 11051      000000
 11052 00f4 E8000000 		call	_ZN8UnitTest4TestC2EPKcS2_S2_i@PLT
 11052      00
 11053 00f9 4C89E2   		movq	%r12, %rdx
 11054 00fc 4C89FE   		movq	%r15, %rsi
 11055 00ff 488D3D00 		leaq	_ZN12_GLOBAL__N_150TestXmlTestReporterFixtureEmptyReportSummaryFormatD1Ev(%rip), %rdi
 11055      000000
 11056 0106 488D0500 		leaq	16+_ZTVN12_GLOBAL__N_150TestXmlTestReporterFixtureEmptyReportSummaryFormatE(%rip), %rax
 11056      000000
 11057 010d 48890500 		movq	%rax, _ZN12_GLOBAL__N_158testXmlTestReporterFixtureEmptyReportSummaryFormatInstanceE(%rip)
 11057      000000
 11058 0114 E8000000 		call	__cxa_atexit@PLT
 11058      00
 11059 0119 E8000000 		call	_ZN8UnitTest4Test11GetTestListEv@PLT
 11059      00
 11060 011e 4C89FA   		movq	%r15, %rdx
 11061 0121 488D3D00 		leaq	_ZN12_GLOBAL__N_151adderXmlTestReporterFixtureEmptyReportSummaryFormatE(%rip), %rdi
 11061      000000
 11062 0128 4C8D3D00 		leaq	_ZN12_GLOBAL__N_173testXmlTestReporterFixtureSingleSuccessfulTestReportSummaryFormatInstanceE
 11062      000000
 11063 012f 4889C6   		movq	%rax, %rsi
 11064 0132 E8000000 		call	_ZN8UnitTest9ListAdderC1ERNS_8TestListEPNS_4TestE@PLT
 11064      00
 11065 0137 4C89F1   		movq	%r14, %rcx
 11066 013a 4C89EA   		movq	%r13, %rdx
 11067 013d 4C89FF   		movq	%r15, %rdi
 11068 0140 41B85000 		movl	$80, %r8d
 11068      0000
 11069 0146 488D3500 		leaq	.LC69(%rip), %rsi
 11069      000000
 11070 014d E8000000 		call	_ZN8UnitTest4TestC2EPKcS2_S2_i@PLT
 11070      00
 11071 0152 4C89E2   		movq	%r12, %rdx
 11072 0155 4C89FE   		movq	%r15, %rsi
 11073 0158 488D3D00 		leaq	_ZN12_GLOBAL__N_165TestXmlTestReporterFixtureSingleSuccessfulTestReportSummaryFormatD1Ev(%rip
 11073      000000
 11074 015f 488D0500 		leaq	16+_ZTVN12_GLOBAL__N_165TestXmlTestReporterFixtureSingleSuccessfulTestReportSummaryFormatE(%r
 11074      000000
 11075 0166 48890500 		movq	%rax, _ZN12_GLOBAL__N_173testXmlTestReporterFixtureSingleSuccessfulTestReportSummaryFormatIns
 11075      000000
 11076 016d E8000000 		call	__cxa_atexit@PLT
 11076      00
 11077 0172 E8000000 		call	_ZN8UnitTest4Test11GetTestListEv@PLT
 11077      00
 11078 0177 4C89FA   		movq	%r15, %rdx
 11079 017a 488D3D00 		leaq	_ZN12_GLOBAL__N_166adderXmlTestReporterFixtureSingleSuccessfulTestReportSummaryFormatE(%rip),
 11079      000000
 11080 0181 4C8D3D00 		leaq	_ZN12_GLOBAL__N_169testXmlTestReporterFixtureSingleFailedTestReportSummaryFormatInstanceE(%ri
 11080      000000
 11081 0188 4889C6   		movq	%rax, %rsi
 11082 018b E8000000 		call	_ZN8UnitTest9ListAdderC1ERNS_8TestListEPNS_4TestE@PLT
 11082      00
 11083 0190 4C89F1   		movq	%r14, %rcx
 11084 0193 4C89EA   		movq	%r13, %rdx
 11085 0196 4C89FF   		movq	%r15, %rdi
 11086 0199 41B86000 		movl	$96, %r8d
 11086      0000
 11087 019f 488D3500 		leaq	.LC70(%rip), %rsi
 11087      000000
 11088 01a6 E8000000 		call	_ZN8UnitTest4TestC2EPKcS2_S2_i@PLT
 11088      00
 11089 01ab 4C89E2   		movq	%r12, %rdx
 11090 01ae 4C89FE   		movq	%r15, %rsi
 11091 01b1 488D3D00 		leaq	_ZN12_GLOBAL__N_161TestXmlTestReporterFixtureSingleFailedTestReportSummaryFormatD1Ev(%rip), %
 11091      000000
 11092 01b8 488D0500 		leaq	16+_ZTVN12_GLOBAL__N_161TestXmlTestReporterFixtureSingleFailedTestReportSummaryFormatE(%rip),
 11092      000000
 11093 01bf 48890500 		movq	%rax, _ZN12_GLOBAL__N_169testXmlTestReporterFixtureSingleFailedTestReportSummaryFormatInstanc
 11093      000000
 11094 01c6 E8000000 		call	__cxa_atexit@PLT
 11094      00
 11095 01cb E8000000 		call	_ZN8UnitTest4Test11GetTestListEv@PLT
 11095      00
 11096 01d0 4C89FA   		movq	%r15, %rdx
 11097 01d3 488D3D00 		leaq	_ZN12_GLOBAL__N_162adderXmlTestReporterFixtureSingleFailedTestReportSummaryFormatE(%rip), %rd
 11097      000000
 11098 01da 4C8D3D00 		leaq	_ZN12_GLOBAL__N_160testXmlTestReporterFixtureFailureMessageIsXMLEscapedInstanceE(%rip), %r15
 11098      000000
 11099 01e1 4889C6   		movq	%rax, %rsi
 11100 01e4 E8000000 		call	_ZN8UnitTest9ListAdderC1ERNS_8TestListEPNS_4TestE@PLT
 11100      00
 11101 01e9 4C89F1   		movq	%r14, %rcx
 11102 01ec 4C89EA   		movq	%r13, %rdx
 11103 01ef 4C89FF   		movq	%r15, %rdi
 11104 01f2 41B87300 		movl	$115, %r8d
 11104      0000
 11105 01f8 488D3500 		leaq	.LC71(%rip), %rsi
 11105      000000
 11106 01ff E8000000 		call	_ZN8UnitTest4TestC2EPKcS2_S2_i@PLT
 11106      00
 11107 0204 4C89E2   		movq	%r12, %rdx
 11108 0207 4C89FE   		movq	%r15, %rsi
 11109 020a 488D3D00 		leaq	_ZN12_GLOBAL__N_152TestXmlTestReporterFixtureFailureMessageIsXMLEscapedD1Ev(%rip), %rdi
 11109      000000
 11110 0211 488D0500 		leaq	16+_ZTVN12_GLOBAL__N_152TestXmlTestReporterFixtureFailureMessageIsXMLEscapedE(%rip), %rax
 11110      000000
 11111 0218 48890500 		movq	%rax, _ZN12_GLOBAL__N_160testXmlTestReporterFixtureFailureMessageIsXMLEscapedInstanceE(%rip)
 11111      000000
 11112 021f E8000000 		call	__cxa_atexit@PLT
 11112      00
 11113 0224 E8000000 		call	_ZN8UnitTest4Test11GetTestListEv@PLT
 11113      00
 11114 0229 4C89FA   		movq	%r15, %rdx
 11115 022c 488D3D00 		leaq	_ZN12_GLOBAL__N_153adderXmlTestReporterFixtureFailureMessageIsXMLEscapedE(%rip), %rdi
 11115      000000
 11116 0233 4C8D3D00 		leaq	_ZN12_GLOBAL__N_157testXmlTestReporterFixtureOneFailureAndOneSuccessInstanceE(%rip), %r15
 11116      000000
 11117 023a 4889C6   		movq	%rax, %rsi
 11118 023d E8000000 		call	_ZN8UnitTest9ListAdderC1ERNS_8TestListEPNS_4TestE@PLT
 11118      00
 11119 0242 4C89F1   		movq	%r14, %rcx
 11120 0245 4C89EA   		movq	%r13, %rdx
 11121 0248 4C89FF   		movq	%r15, %rdi
 11122 024b 41B88700 		movl	$135, %r8d
 11122      0000
 11123 0251 488D3500 		leaq	.LC72(%rip), %rsi
 11123      000000
 11124 0258 E8000000 		call	_ZN8UnitTest4TestC2EPKcS2_S2_i@PLT
 11124      00
 11125 025d 4C89E2   		movq	%r12, %rdx
 11126 0260 4C89FE   		movq	%r15, %rsi
 11127 0263 488D3D00 		leaq	_ZN12_GLOBAL__N_149TestXmlTestReporterFixtureOneFailureAndOneSuccessD1Ev(%rip), %rdi
 11127      000000
 11128 026a 488D0500 		leaq	16+_ZTVN12_GLOBAL__N_149TestXmlTestReporterFixtureOneFailureAndOneSuccessE(%rip), %rax
 11128      000000
 11129 0271 48890500 		movq	%rax, _ZN12_GLOBAL__N_157testXmlTestReporterFixtureOneFailureAndOneSuccessInstanceE(%rip)
 11129      000000
 11130 0278 E8000000 		call	__cxa_atexit@PLT
 11130      00
 11131 027d E8000000 		call	_ZN8UnitTest4Test11GetTestListEv@PLT
 11131      00
 11132 0282 4C89FA   		movq	%r15, %rdx
 11133 0285 488D3D00 		leaq	_ZN12_GLOBAL__N_150adderXmlTestReporterFixtureOneFailureAndOneSuccessE(%rip), %rdi
 11133      000000
 11134 028c 4889C6   		movq	%rax, %rsi
 11135 028f E8000000 		call	_ZN8UnitTest9ListAdderC1ERNS_8TestListEPNS_4TestE@PLT
 11135      00
 11136 0294 4C89EA   		movq	%r13, %rdx
 11137 0297 4C89F1   		movq	%r14, %rcx
 11138 029a 4C8D2D00 		leaq	_ZN12_GLOBAL__N_150testXmlTestReporterFixtureMultipleFailuresInstanceE(%rip), %r13
 11138      000000
 11139 02a1 41B89F00 		movl	$159, %r8d
 11139      0000
 11140 02a7 4C89EF   		movq	%r13, %rdi
 11141 02aa 488D3500 		leaq	.LC73(%rip), %rsi
 11141      000000
 11142 02b1 E8000000 		call	_ZN8UnitTest4TestC2EPKcS2_S2_i@PLT
 11142      00
 11143 02b6 4C89E2   		movq	%r12, %rdx
 11144 02b9 4C89EE   		movq	%r13, %rsi
 11145 02bc 488D3D00 		leaq	_ZN12_GLOBAL__N_142TestXmlTestReporterFixtureMultipleFailuresD1Ev(%rip), %rdi
 11145      000000
 11146 02c3 488D0500 		leaq	16+_ZTVN12_GLOBAL__N_142TestXmlTestReporterFixtureMultipleFailuresE(%rip), %rax
 11146      000000
 11147 02ca 48890500 		movq	%rax, _ZN12_GLOBAL__N_150testXmlTestReporterFixtureMultipleFailuresInstanceE(%rip)
 11147      000000
 11148 02d1 E8000000 		call	__cxa_atexit@PLT
 11148      00
 11149 02d6 E8000000 		call	_ZN8UnitTest4Test11GetTestListEv@PLT
 11149      00
 11150 02db 4883C408 		addq	$8, %rsp
 11151              		.cfi_def_cfa_offset 40
 11152 02df 4C89EA   		movq	%r13, %rdx
 11153 02e2 488D3D00 		leaq	_ZN12_GLOBAL__N_143adderXmlTestReporterFixtureMultipleFailuresE(%rip), %rdi
 11153      000000
 11154 02e9 415C     		popq	%r12
 11155              		.cfi_def_cfa_offset 32
 11156 02eb 4889C6   		movq	%rax, %rsi
 11157 02ee 415D     		popq	%r13
 11158              		.cfi_def_cfa_offset 24
 11159 02f0 415E     		popq	%r14
 11160              		.cfi_def_cfa_offset 16
 11161 02f2 415F     		popq	%r15
 11162              		.cfi_def_cfa_offset 8
 11163 02f4 E9000000 		jmp	_ZN8UnitTest9ListAdderC1ERNS_8TestListEPNS_4TestE@PLT
 11163      00
 11164              		.cfi_endproc
 11165              	.LFE1773:
 11167              		.section	.init_array,"aw"
 11168              		.align 8
 11169 0000 00000000 		.quad	_GLOBAL__sub_I_TestXmlTestReporter.cpp
 11169      00000000 
 11170              		.weak	_ZTSN8UnitTest15MemoryOutStreamE
 11171              		.section	.rodata._ZTSN8UnitTest15MemoryOutStreamE,"aG",@progbits,_ZTSN8UnitTest15MemoryOutStreamE,
 11172              		.align 16
 11175              	_ZTSN8UnitTest15MemoryOutStreamE:
 11176 0000 4E38556E 		.string	"N8UnitTest15MemoryOutStreamE"
 11176      69745465 
 11176      73743135 
 11176      4D656D6F 
 11176      72794F75 
 11177              		.weak	_ZTIN8UnitTest15MemoryOutStreamE
 11178              		.section	.data.rel.ro._ZTIN8UnitTest15MemoryOutStreamE,"awG",@progbits,_ZTIN8UnitTest15MemoryOutSt
 11179              		.align 8
 11182              	_ZTIN8UnitTest15MemoryOutStreamE:
 11183 0000 00000000 		.quad	_ZTVN10__cxxabiv120__si_class_type_infoE+16
 11183      00000000 
 11184 0008 00000000 		.quad	_ZTSN8UnitTest15MemoryOutStreamE
 11184      00000000 
 11185 0010 00000000 		.quad	_ZTINSt7__cxx1119basic_ostringstreamIcSt11char_traitsIcESaIcEEE
 11185      00000000 
 11186              		.section	.data.rel.ro,"aw"
 11187              		.align 8
 11190              	_ZTIN12_GLOBAL__N_154TestXmlTestReporterFixtureMultipleCharactersAreEscapedE:
 11191 0000 00000000 		.quad	_ZTVN10__cxxabiv120__si_class_type_infoE+16
 11191      00000000 
 11192 0008 00000000 		.quad	_ZTSN12_GLOBAL__N_154TestXmlTestReporterFixtureMultipleCharactersAreEscapedE
 11192      00000000 
 11193 0010 00000000 		.quad	_ZTIN8UnitTest4TestE
 11193      00000000 
 11194              		.section	.rodata
 11195              		.align 32
 11198              	_ZTSN12_GLOBAL__N_154TestXmlTestReporterFixtureMultipleCharactersAreEscapedE:
 11199 0000 2A4E3132 		.string	"*N12_GLOBAL__N_154TestXmlTestReporterFixtureMultipleCharactersAreEscapedE"
 11199      5F474C4F 
 11199      42414C5F 
 11199      5F4E5F31 
 11199      35345465 
 11200              		.section	.data.rel.ro
 11201              		.align 8
 11204              	_ZTIN12_GLOBAL__N_166TestXmlTestReporterFixtureOutputIsCachedUntilReportSummaryIsCalledE:
 11205 0018 00000000 		.quad	_ZTVN10__cxxabiv120__si_class_type_infoE+16
 11205      00000000 
 11206 0020 00000000 		.quad	_ZTSN12_GLOBAL__N_166TestXmlTestReporterFixtureOutputIsCachedUntilReportSummaryIsCalledE
 11206      00000000 
 11207 0028 00000000 		.quad	_ZTIN8UnitTest4TestE
 11207      00000000 
 11208              		.section	.rodata
 11209 004a 00000000 		.align 32
 11209      00000000 
 11209      00000000 
 11209      00000000 
 11209      00000000 
 11212              	_ZTSN12_GLOBAL__N_166TestXmlTestReporterFixtureOutputIsCachedUntilReportSummaryIsCalledE:
 11213 0060 2A4E3132 		.string	"*N12_GLOBAL__N_166TestXmlTestReporterFixtureOutputIsCachedUntilReportSummaryIsCalledE"
 11213      5F474C4F 
 11213      42414C5F 
 11213      5F4E5F31 
 11213      36365465 
 11214              		.section	.data.rel.ro
 11215              		.align 8
 11218              	_ZTIN12_GLOBAL__N_150TestXmlTestReporterFixtureEmptyReportSummaryFormatE:
 11219 0030 00000000 		.quad	_ZTVN10__cxxabiv120__si_class_type_infoE+16
 11219      00000000 
 11220 0038 00000000 		.quad	_ZTSN12_GLOBAL__N_150TestXmlTestReporterFixtureEmptyReportSummaryFormatE
 11220      00000000 
 11221 0040 00000000 		.quad	_ZTIN8UnitTest4TestE
 11221      00000000 
 11222              		.section	.rodata
 11223 00b6 00000000 		.align 32
 11223      00000000 
 11223      0000
 11226              	_ZTSN12_GLOBAL__N_150TestXmlTestReporterFixtureEmptyReportSummaryFormatE:
 11227 00c0 2A4E3132 		.string	"*N12_GLOBAL__N_150TestXmlTestReporterFixtureEmptyReportSummaryFormatE"
 11227      5F474C4F 
 11227      42414C5F 
 11227      5F4E5F31 
 11227      35305465 
 11228              		.section	.data.rel.ro
 11229              		.align 8
 11232              	_ZTIN12_GLOBAL__N_165TestXmlTestReporterFixtureSingleSuccessfulTestReportSummaryFormatE:
 11233 0048 00000000 		.quad	_ZTVN10__cxxabiv120__si_class_type_infoE+16
 11233      00000000 
 11234 0050 00000000 		.quad	_ZTSN12_GLOBAL__N_165TestXmlTestReporterFixtureSingleSuccessfulTestReportSummaryFormatE
 11234      00000000 
 11235 0058 00000000 		.quad	_ZTIN8UnitTest4TestE
 11235      00000000 
 11236              		.section	.rodata
 11237 0106 00000000 		.align 32
 11237      00000000 
 11237      00000000 
 11237      00000000 
 11237      00000000 
 11240              	_ZTSN12_GLOBAL__N_165TestXmlTestReporterFixtureSingleSuccessfulTestReportSummaryFormatE:
 11241 0120 2A4E3132 		.string	"*N12_GLOBAL__N_165TestXmlTestReporterFixtureSingleSuccessfulTestReportSummaryFormatE"
 11241      5F474C4F 
 11241      42414C5F 
 11241      5F4E5F31 
 11241      36355465 
 11242              		.section	.data.rel.ro
 11243              		.align 8
 11246              	_ZTIN12_GLOBAL__N_161TestXmlTestReporterFixtureSingleFailedTestReportSummaryFormatE:
 11247 0060 00000000 		.quad	_ZTVN10__cxxabiv120__si_class_type_infoE+16
 11247      00000000 
 11248 0068 00000000 		.quad	_ZTSN12_GLOBAL__N_161TestXmlTestReporterFixtureSingleFailedTestReportSummaryFormatE
 11248      00000000 
 11249 0070 00000000 		.quad	_ZTIN8UnitTest4TestE
 11249      00000000 
 11250              		.section	.rodata
 11251 0175 00000000 		.align 32
 11251      00000000 
 11251      000000
 11254              	_ZTSN12_GLOBAL__N_161TestXmlTestReporterFixtureSingleFailedTestReportSummaryFormatE:
 11255 0180 2A4E3132 		.string	"*N12_GLOBAL__N_161TestXmlTestReporterFixtureSingleFailedTestReportSummaryFormatE"
 11255      5F474C4F 
 11255      42414C5F 
 11255      5F4E5F31 
 11255      36315465 
 11256              		.section	.data.rel.ro
 11257              		.align 8
 11260              	_ZTIN12_GLOBAL__N_152TestXmlTestReporterFixtureFailureMessageIsXMLEscapedE:
 11261 0078 00000000 		.quad	_ZTVN10__cxxabiv120__si_class_type_infoE+16
 11261      00000000 
 11262 0080 00000000 		.quad	_ZTSN12_GLOBAL__N_152TestXmlTestReporterFixtureFailureMessageIsXMLEscapedE
 11262      00000000 
 11263 0088 00000000 		.quad	_ZTIN8UnitTest4TestE
 11263      00000000 
 11264              		.section	.rodata
 11265 01d1 00000000 		.align 32
 11265      00000000 
 11265      00000000 
 11265      000000
 11268              	_ZTSN12_GLOBAL__N_152TestXmlTestReporterFixtureFailureMessageIsXMLEscapedE:
 11269 01e0 2A4E3132 		.string	"*N12_GLOBAL__N_152TestXmlTestReporterFixtureFailureMessageIsXMLEscapedE"
 11269      5F474C4F 
 11269      42414C5F 
 11269      5F4E5F31 
 11269      35325465 
 11270              		.section	.data.rel.ro
 11271              		.align 8
 11274              	_ZTIN12_GLOBAL__N_149TestXmlTestReporterFixtureOneFailureAndOneSuccessE:
 11275 0090 00000000 		.quad	_ZTVN10__cxxabiv120__si_class_type_infoE+16
 11275      00000000 
 11276 0098 00000000 		.quad	_ZTSN12_GLOBAL__N_149TestXmlTestReporterFixtureOneFailureAndOneSuccessE
 11276      00000000 
 11277 00a0 00000000 		.quad	_ZTIN8UnitTest4TestE
 11277      00000000 
 11278              		.section	.rodata
 11279 0228 00000000 		.align 32
 11279      00000000 
 11279      00000000 
 11279      00000000 
 11279      00000000 
 11282              	_ZTSN12_GLOBAL__N_149TestXmlTestReporterFixtureOneFailureAndOneSuccessE:
 11283 0240 2A4E3132 		.string	"*N12_GLOBAL__N_149TestXmlTestReporterFixtureOneFailureAndOneSuccessE"
 11283      5F474C4F 
 11283      42414C5F 
 11283      5F4E5F31 
 11283      34395465 
 11284              		.section	.data.rel.ro
 11285              		.align 8
 11288              	_ZTIN12_GLOBAL__N_142TestXmlTestReporterFixtureMultipleFailuresE:
 11289 00a8 00000000 		.quad	_ZTVN10__cxxabiv120__si_class_type_infoE+16
 11289      00000000 
 11290 00b0 00000000 		.quad	_ZTSN12_GLOBAL__N_142TestXmlTestReporterFixtureMultipleFailuresE
 11290      00000000 
 11291 00b8 00000000 		.quad	_ZTIN8UnitTest4TestE
 11291      00000000 
 11292              		.section	.rodata
 11293 0285 00000000 		.align 32
 11293      00000000 
 11293      00000000 
 11293      00000000 
 11293      00000000 
 11296              	_ZTSN12_GLOBAL__N_142TestXmlTestReporterFixtureMultipleFailuresE:
 11297 02a0 2A4E3132 		.string	"*N12_GLOBAL__N_142TestXmlTestReporterFixtureMultipleFailuresE"
 11297      5F474C4F 
 11297      42414C5F 
 11297      5F4E5F31 
 11297      34325465 
 11298              		.hidden	_ZTCN8UnitTest15MemoryOutStreamE0_So
 11299              		.weak	_ZTCN8UnitTest15MemoryOutStreamE0_So
 11300              		.section	.data.rel.ro._ZTCN8UnitTest15MemoryOutStreamE0_So,"awG",@progbits,_ZTVN8UnitTest15MemoryO
 11301              		.align 8
 11304              	_ZTCN8UnitTest15MemoryOutStreamE0_So:
 11305 0000 90000000 		.quad	144
 11305      00000000 
 11306 0008 00000000 		.quad	0
 11306      00000000 
 11307 0010 00000000 		.quad	_ZTISo
 11307      00000000 
 11308 0018 00000000 		.quad	0
 11308      00000000 
 11309 0020 00000000 		.quad	0
 11309      00000000 
 11310 0028 70FFFFFF 		.quad	-144
 11310      FFFFFFFF 
 11311 0030 70FFFFFF 		.quad	-144
 11311      FFFFFFFF 
 11312 0038 00000000 		.quad	_ZTISo
 11312      00000000 
 11313 0040 00000000 		.quad	0
 11313      00000000 
 11314 0048 00000000 		.quad	0
 11314      00000000 
 11315              		.hidden	_ZTCN8UnitTest15MemoryOutStreamE0_NSt7__cxx1119basic_ostringstreamIcSt11char_traitsIcESaIc
 11316              		.weak	_ZTCN8UnitTest15MemoryOutStreamE0_NSt7__cxx1119basic_ostringstreamIcSt11char_traitsIcESaIcEE
 11317              		.section	.data.rel.ro._ZTCN8UnitTest15MemoryOutStreamE0_NSt7__cxx1119basic_ostringstreamIcSt11char
 11318              		.align 8
 11321              	_ZTCN8UnitTest15MemoryOutStreamE0_NSt7__cxx1119basic_ostringstreamIcSt11char_traitsIcESaIcEEE:
 11322 0000 90000000 		.quad	144
 11322      00000000 
 11323 0008 00000000 		.quad	0
 11323      00000000 
 11324 0010 00000000 		.quad	_ZTINSt7__cxx1119basic_ostringstreamIcSt11char_traitsIcESaIcEEE
 11324      00000000 
 11325 0018 00000000 		.quad	0
 11325      00000000 
 11326 0020 00000000 		.quad	0
 11326      00000000 
 11327 0028 70FFFFFF 		.quad	-144
 11327      FFFFFFFF 
 11328 0030 70FFFFFF 		.quad	-144
 11328      FFFFFFFF 
 11329 0038 00000000 		.quad	_ZTINSt7__cxx1119basic_ostringstreamIcSt11char_traitsIcESaIcEEE
 11329      00000000 
 11330 0040 00000000 		.quad	0
 11330      00000000 
 11331 0048 00000000 		.quad	0
 11331      00000000 
 11332              		.weak	_ZTTN8UnitTest15MemoryOutStreamE
 11333              		.section	.data.rel.ro.local._ZTTN8UnitTest15MemoryOutStreamE,"awG",@progbits,_ZTVN8UnitTest15Memor
 11334              		.align 8
 11337              	_ZTTN8UnitTest15MemoryOutStreamE:
 11338 0000 00000000 		.quad	_ZTVN8UnitTest15MemoryOutStreamE+24
 11338      00000000 
 11339 0008 00000000 		.quad	_ZTCN8UnitTest15MemoryOutStreamE0_NSt7__cxx1119basic_ostringstreamIcSt11char_traitsIcESaIcEE
 11339      00000000 
 11340 0010 00000000 		.quad	_ZTCN8UnitTest15MemoryOutStreamE0_So+24
 11340      00000000 
 11341 0018 00000000 		.quad	_ZTCN8UnitTest15MemoryOutStreamE0_So+64
 11341      00000000 
 11342 0020 00000000 		.quad	_ZTCN8UnitTest15MemoryOutStreamE0_NSt7__cxx1119basic_ostringstreamIcSt11char_traitsIcESaIcEE
 11342      00000000 
 11343 0028 00000000 		.quad	_ZTVN8UnitTest15MemoryOutStreamE+64
 11343      00000000 
 11344              		.weak	_ZTVN8UnitTest15MemoryOutStreamE
 11345              		.section	.data.rel.ro.local._ZTVN8UnitTest15MemoryOutStreamE,"awG",@progbits,_ZTVN8UnitTest15Memor
 11346              		.align 8
 11349              	_ZTVN8UnitTest15MemoryOutStreamE:
 11350 0000 90000000 		.quad	144
 11350      00000000 
 11351 0008 00000000 		.quad	0
 11351      00000000 
 11352 0010 00000000 		.quad	_ZTIN8UnitTest15MemoryOutStreamE
 11352      00000000 
 11353 0018 00000000 		.quad	_ZN8UnitTest15MemoryOutStreamD1Ev
 11353      00000000 
 11354 0020 00000000 		.quad	_ZN8UnitTest15MemoryOutStreamD0Ev
 11354      00000000 
 11355 0028 70FFFFFF 		.quad	-144
 11355      FFFFFFFF 
 11356 0030 70FFFFFF 		.quad	-144
 11356      FFFFFFFF 
 11357 0038 00000000 		.quad	_ZTIN8UnitTest15MemoryOutStreamE
 11357      00000000 
 11358 0040 00000000 		.quad	_ZTv0_n24_N8UnitTest15MemoryOutStreamD1Ev
 11358      00000000 
 11359 0048 00000000 		.quad	_ZTv0_n24_N8UnitTest15MemoryOutStreamD0Ev
 11359      00000000 
 11360              		.section	.data.rel.ro.local,"aw"
 11361              		.align 8
 11364              	_ZTVN12_GLOBAL__N_154TestXmlTestReporterFixtureMultipleCharactersAreEscapedE:
 11365 0000 00000000 		.quad	0
 11365      00000000 
 11366 0008 00000000 		.quad	_ZTIN12_GLOBAL__N_154TestXmlTestReporterFixtureMultipleCharactersAreEscapedE
 11366      00000000 
 11367 0010 00000000 		.quad	_ZN12_GLOBAL__N_154TestXmlTestReporterFixtureMultipleCharactersAreEscapedD1Ev
 11367      00000000 
 11368 0018 00000000 		.quad	_ZN12_GLOBAL__N_154TestXmlTestReporterFixtureMultipleCharactersAreEscapedD0Ev
 11368      00000000 
 11369 0020 00000000 		.quad	_ZNK12_GLOBAL__N_154TestXmlTestReporterFixtureMultipleCharactersAreEscaped7RunImplEv
 11369      00000000 
 11370              		.align 8
 11373              	_ZTVN12_GLOBAL__N_166TestXmlTestReporterFixtureOutputIsCachedUntilReportSummaryIsCalledE:
 11374 0028 00000000 		.quad	0
 11374      00000000 
 11375 0030 00000000 		.quad	_ZTIN12_GLOBAL__N_166TestXmlTestReporterFixtureOutputIsCachedUntilReportSummaryIsCalledE
 11375      00000000 
 11376 0038 00000000 		.quad	_ZN12_GLOBAL__N_166TestXmlTestReporterFixtureOutputIsCachedUntilReportSummaryIsCalledD1Ev
 11376      00000000 
 11377 0040 00000000 		.quad	_ZN12_GLOBAL__N_166TestXmlTestReporterFixtureOutputIsCachedUntilReportSummaryIsCalledD0Ev
 11377      00000000 
 11378 0048 00000000 		.quad	_ZNK12_GLOBAL__N_166TestXmlTestReporterFixtureOutputIsCachedUntilReportSummaryIsCalled7RunIm
 11378      00000000 
 11379              		.align 8
 11382              	_ZTVN12_GLOBAL__N_150TestXmlTestReporterFixtureEmptyReportSummaryFormatE:
 11383 0050 00000000 		.quad	0
 11383      00000000 
 11384 0058 00000000 		.quad	_ZTIN12_GLOBAL__N_150TestXmlTestReporterFixtureEmptyReportSummaryFormatE
 11384      00000000 
 11385 0060 00000000 		.quad	_ZN12_GLOBAL__N_150TestXmlTestReporterFixtureEmptyReportSummaryFormatD1Ev
 11385      00000000 
 11386 0068 00000000 		.quad	_ZN12_GLOBAL__N_150TestXmlTestReporterFixtureEmptyReportSummaryFormatD0Ev
 11386      00000000 
 11387 0070 00000000 		.quad	_ZNK12_GLOBAL__N_150TestXmlTestReporterFixtureEmptyReportSummaryFormat7RunImplEv
 11387      00000000 
 11388              		.align 8
 11391              	_ZTVN12_GLOBAL__N_165TestXmlTestReporterFixtureSingleSuccessfulTestReportSummaryFormatE:
 11392 0078 00000000 		.quad	0
 11392      00000000 
 11393 0080 00000000 		.quad	_ZTIN12_GLOBAL__N_165TestXmlTestReporterFixtureSingleSuccessfulTestReportSummaryFormatE
 11393      00000000 
 11394 0088 00000000 		.quad	_ZN12_GLOBAL__N_165TestXmlTestReporterFixtureSingleSuccessfulTestReportSummaryFormatD1Ev
 11394      00000000 
 11395 0090 00000000 		.quad	_ZN12_GLOBAL__N_165TestXmlTestReporterFixtureSingleSuccessfulTestReportSummaryFormatD0Ev
 11395      00000000 
 11396 0098 00000000 		.quad	_ZNK12_GLOBAL__N_165TestXmlTestReporterFixtureSingleSuccessfulTestReportSummaryFormat7RunImp
 11396      00000000 
 11397              		.align 8
 11400              	_ZTVN12_GLOBAL__N_161TestXmlTestReporterFixtureSingleFailedTestReportSummaryFormatE:
 11401 00a0 00000000 		.quad	0
 11401      00000000 
 11402 00a8 00000000 		.quad	_ZTIN12_GLOBAL__N_161TestXmlTestReporterFixtureSingleFailedTestReportSummaryFormatE
 11402      00000000 
 11403 00b0 00000000 		.quad	_ZN12_GLOBAL__N_161TestXmlTestReporterFixtureSingleFailedTestReportSummaryFormatD1Ev
 11403      00000000 
 11404 00b8 00000000 		.quad	_ZN12_GLOBAL__N_161TestXmlTestReporterFixtureSingleFailedTestReportSummaryFormatD0Ev
 11404      00000000 
 11405 00c0 00000000 		.quad	_ZNK12_GLOBAL__N_161TestXmlTestReporterFixtureSingleFailedTestReportSummaryFormat7RunImplEv
 11405      00000000 
 11406              		.align 8
 11409              	_ZTVN12_GLOBAL__N_152TestXmlTestReporterFixtureFailureMessageIsXMLEscapedE:
 11410 00c8 00000000 		.quad	0
 11410      00000000 
 11411 00d0 00000000 		.quad	_ZTIN12_GLOBAL__N_152TestXmlTestReporterFixtureFailureMessageIsXMLEscapedE
 11411      00000000 
 11412 00d8 00000000 		.quad	_ZN12_GLOBAL__N_152TestXmlTestReporterFixtureFailureMessageIsXMLEscapedD1Ev
 11412      00000000 
 11413 00e0 00000000 		.quad	_ZN12_GLOBAL__N_152TestXmlTestReporterFixtureFailureMessageIsXMLEscapedD0Ev
 11413      00000000 
 11414 00e8 00000000 		.quad	_ZNK12_GLOBAL__N_152TestXmlTestReporterFixtureFailureMessageIsXMLEscaped7RunImplEv
 11414      00000000 
 11415              		.align 8
 11418              	_ZTVN12_GLOBAL__N_149TestXmlTestReporterFixtureOneFailureAndOneSuccessE:
 11419 00f0 00000000 		.quad	0
 11419      00000000 
 11420 00f8 00000000 		.quad	_ZTIN12_GLOBAL__N_149TestXmlTestReporterFixtureOneFailureAndOneSuccessE
 11420      00000000 
 11421 0100 00000000 		.quad	_ZN12_GLOBAL__N_149TestXmlTestReporterFixtureOneFailureAndOneSuccessD1Ev
 11421      00000000 
 11422 0108 00000000 		.quad	_ZN12_GLOBAL__N_149TestXmlTestReporterFixtureOneFailureAndOneSuccessD0Ev
 11422      00000000 
 11423 0110 00000000 		.quad	_ZNK12_GLOBAL__N_149TestXmlTestReporterFixtureOneFailureAndOneSuccess7RunImplEv
 11423      00000000 
 11424              		.align 8
 11427              	_ZTVN12_GLOBAL__N_142TestXmlTestReporterFixtureMultipleFailuresE:
 11428 0118 00000000 		.quad	0
 11428      00000000 
 11429 0120 00000000 		.quad	_ZTIN12_GLOBAL__N_142TestXmlTestReporterFixtureMultipleFailuresE
 11429      00000000 
 11430 0128 00000000 		.quad	_ZN12_GLOBAL__N_142TestXmlTestReporterFixtureMultipleFailuresD1Ev
 11430      00000000 
 11431 0130 00000000 		.quad	_ZN12_GLOBAL__N_142TestXmlTestReporterFixtureMultipleFailuresD0Ev
 11431      00000000 
 11432 0138 00000000 		.quad	_ZNK12_GLOBAL__N_142TestXmlTestReporterFixtureMultipleFailures7RunImplEv
 11432      00000000 
 11433              		.local	_ZN12_GLOBAL__N_143adderXmlTestReporterFixtureMultipleFailuresE
 11434              		.comm	_ZN12_GLOBAL__N_143adderXmlTestReporterFixtureMultipleFailuresE,1,1
 11435              		.local	_ZN12_GLOBAL__N_150testXmlTestReporterFixtureMultipleFailuresInstanceE
 11436              		.comm	_ZN12_GLOBAL__N_150testXmlTestReporterFixtureMultipleFailuresInstanceE,56,32
 11437              		.local	_ZN12_GLOBAL__N_150adderXmlTestReporterFixtureOneFailureAndOneSuccessE
 11438              		.comm	_ZN12_GLOBAL__N_150adderXmlTestReporterFixtureOneFailureAndOneSuccessE,1,1
 11439              		.local	_ZN12_GLOBAL__N_157testXmlTestReporterFixtureOneFailureAndOneSuccessInstanceE
 11440              		.comm	_ZN12_GLOBAL__N_157testXmlTestReporterFixtureOneFailureAndOneSuccessInstanceE,56,32
 11441              		.local	_ZN12_GLOBAL__N_153adderXmlTestReporterFixtureFailureMessageIsXMLEscapedE
 11442              		.comm	_ZN12_GLOBAL__N_153adderXmlTestReporterFixtureFailureMessageIsXMLEscapedE,1,1
 11443              		.local	_ZN12_GLOBAL__N_160testXmlTestReporterFixtureFailureMessageIsXMLEscapedInstanceE
 11444              		.comm	_ZN12_GLOBAL__N_160testXmlTestReporterFixtureFailureMessageIsXMLEscapedInstanceE,56,32
 11445              		.local	_ZN12_GLOBAL__N_162adderXmlTestReporterFixtureSingleFailedTestReportSummaryFormatE
 11446              		.comm	_ZN12_GLOBAL__N_162adderXmlTestReporterFixtureSingleFailedTestReportSummaryFormatE,1,1
 11447              		.local	_ZN12_GLOBAL__N_169testXmlTestReporterFixtureSingleFailedTestReportSummaryFormatInstanceE
 11448              		.comm	_ZN12_GLOBAL__N_169testXmlTestReporterFixtureSingleFailedTestReportSummaryFormatInstanceE,56
 11449              		.local	_ZN12_GLOBAL__N_166adderXmlTestReporterFixtureSingleSuccessfulTestReportSummaryFormatE
 11450              		.comm	_ZN12_GLOBAL__N_166adderXmlTestReporterFixtureSingleSuccessfulTestReportSummaryFormatE,1,1
 11451              		.local	_ZN12_GLOBAL__N_173testXmlTestReporterFixtureSingleSuccessfulTestReportSummaryFormatInstanc
 11452              		.comm	_ZN12_GLOBAL__N_173testXmlTestReporterFixtureSingleSuccessfulTestReportSummaryFormatInstance
 11453              		.local	_ZN12_GLOBAL__N_151adderXmlTestReporterFixtureEmptyReportSummaryFormatE
 11454              		.comm	_ZN12_GLOBAL__N_151adderXmlTestReporterFixtureEmptyReportSummaryFormatE,1,1
 11455              		.local	_ZN12_GLOBAL__N_158testXmlTestReporterFixtureEmptyReportSummaryFormatInstanceE
 11456              		.comm	_ZN12_GLOBAL__N_158testXmlTestReporterFixtureEmptyReportSummaryFormatInstanceE,56,32
 11457              		.local	_ZN12_GLOBAL__N_167adderXmlTestReporterFixtureOutputIsCachedUntilReportSummaryIsCalledE
 11458              		.comm	_ZN12_GLOBAL__N_167adderXmlTestReporterFixtureOutputIsCachedUntilReportSummaryIsCalledE,1,1
 11459              		.local	_ZN12_GLOBAL__N_174testXmlTestReporterFixtureOutputIsCachedUntilReportSummaryIsCalledInstan
 11460              		.comm	_ZN12_GLOBAL__N_174testXmlTestReporterFixtureOutputIsCachedUntilReportSummaryIsCalledInstanc
 11461              		.local	_ZN12_GLOBAL__N_155adderXmlTestReporterFixtureMultipleCharactersAreEscapedE
 11462              		.comm	_ZN12_GLOBAL__N_155adderXmlTestReporterFixtureMultipleCharactersAreEscapedE,1,1
 11463              		.local	_ZN12_GLOBAL__N_162testXmlTestReporterFixtureMultipleCharactersAreEscapedInstanceE
 11464              		.comm	_ZN12_GLOBAL__N_162testXmlTestReporterFixtureMultipleCharactersAreEscapedInstanceE,56,32
 11465              		.section	.rodata.cst4,"aM",@progbits,4
 11466              		.align 4
 11467              	.LC11:
 11468 0000 0000803F 		.long	1065353216
 11469              		.section	.data.rel.ro
 11470              		.align 8
 11471              	.LC21:
 11472 00c0 00000000 		.quad	_ZTVSt15basic_streambufIcSt11char_traitsIcEE+16
 11472      00000000 
 11473              		.section	.data.rel.ro.local
 11474              		.align 8
 11475              	.LC25:
 11476 0140 00000000 		.quad	_ZTCN8UnitTest15MemoryOutStreamE0_NSt7__cxx1119basic_ostringstreamIcSt11char_traitsIcESaIcEE
 11476      00000000 
 11477              		.section	.data.rel.ro
 11478              		.align 8
 11479              	.LC26:
 11480 00c8 00000000 		.quad	_ZTVNSt7__cxx1115basic_stringbufIcSt11char_traitsIcESaIcEEE+16
 11480      00000000 
 11481              		.section	.rodata.cst4
 11482              		.align 4
 11483              	.LC32:
 11484 0004 CDCCCC3D 		.long	1036831949
 11485              		.align 4
 11486              	.LC33:
 11487 0008 CDCC8C3F 		.long	1066192077
 11488              		.hidden	DW.ref._ZTIN8UnitTest15AssertExceptionE
 11489              		.weak	DW.ref._ZTIN8UnitTest15AssertExceptionE
 11490              		.section	.data.rel.local.DW.ref._ZTIN8UnitTest15AssertExceptionE,"awG",@progbits,DW.ref._ZTIN8Unit
 11491              		.align 8
 11494              	DW.ref._ZTIN8UnitTest15AssertExceptionE:
 11495 0000 00000000 		.quad	_ZTIN8UnitTest15AssertExceptionE
 11495      00000000 
 11496              		.hidden	DW.ref._ZTISt9exception
 11497              		.weak	DW.ref._ZTISt9exception
 11498              		.section	.data.rel.local.DW.ref._ZTISt9exception,"awG",@progbits,DW.ref._ZTISt9exception,comdat
 11499              		.align 8
 11502              	DW.ref._ZTISt9exception:
 11503 0000 00000000 		.quad	_ZTISt9exception
 11503      00000000 
 11504              		.hidden	DW.ref.__gxx_personality_v0
 11505              		.weak	DW.ref.__gxx_personality_v0
 11506              		.section	.data.rel.local.DW.ref.__gxx_personality_v0,"awG",@progbits,DW.ref.__gxx_personality_v0,c
 11507              		.align 8
 11510              	DW.ref.__gxx_personality_v0:
 11511 0000 00000000 		.quad	__gxx_personality_v0
 11511      00000000 
 11512              		.hidden	__dso_handle
 11513              		.ident	"GCC: (Ubuntu 11.3.0-1ubuntu1~22.04) 11.3.0"
 11514              		.section	.note.GNU-stack,"",@progbits
 11515              		.section	.note.gnu.property,"a"
 11516              		.align 8
 11517 0000 04000000 		.long	1f - 0f
 11518 0004 10000000 		.long	4f - 1f
 11519 0008 05000000 		.long	5
 11520              	0:
 11521 000c 474E5500 		.string	"GNU"
 11522              	1:
 11523              		.align 8
 11524 0010 020000C0 		.long	0xc0000002
 11525 0014 04000000 		.long	3f - 2f
 11526              	2:
 11527 0018 03000000 		.long	0x3
 11528              	3:
 11529 001c 00000000 		.align 8
 11530              	4:
DEFINED SYMBOLS
                            *ABS*:0000000000000000 TestXmlTestReporter.cpp
     /tmp/ccyIgzPn.s:6      .text:0000000000000000 _ZN12_GLOBAL__N_142TestXmlTestReporterFixtureMultipleFailuresD2Ev
     /tmp/ccyIgzPn.s:11427  .data.rel.ro.local:0000000000000118 _ZTVN12_GLOBAL__N_142TestXmlTestReporterFixtureMultipleFailuresE
     /tmp/ccyIgzPn.s:6      .text:0000000000000000 _ZN12_GLOBAL__N_142TestXmlTestReporterFixtureMultipleFailuresD1Ev
     /tmp/ccyIgzPn.s:20     .text:0000000000000020 _ZN12_GLOBAL__N_149TestXmlTestReporterFixtureOneFailureAndOneSuccessD2Ev
     /tmp/ccyIgzPn.s:11418  .data.rel.ro.local:00000000000000f0 _ZTVN12_GLOBAL__N_149TestXmlTestReporterFixtureOneFailureAndOneSuccessE
     /tmp/ccyIgzPn.s:20     .text:0000000000000020 _ZN12_GLOBAL__N_149TestXmlTestReporterFixtureOneFailureAndOneSuccessD1Ev
     /tmp/ccyIgzPn.s:34     .text:0000000000000040 _ZN12_GLOBAL__N_152TestXmlTestReporterFixtureFailureMessageIsXMLEscapedD2Ev
     /tmp/ccyIgzPn.s:11409  .data.rel.ro.local:00000000000000c8 _ZTVN12_GLOBAL__N_152TestXmlTestReporterFixtureFailureMessageIsXMLEscapedE
     /tmp/ccyIgzPn.s:34     .text:0000000000000040 _ZN12_GLOBAL__N_152TestXmlTestReporterFixtureFailureMessageIsXMLEscapedD1Ev
     /tmp/ccyIgzPn.s:48     .text:0000000000000060 _ZN12_GLOBAL__N_161TestXmlTestReporterFixtureSingleFailedTestReportSummaryFormatD2Ev
     /tmp/ccyIgzPn.s:11400  .data.rel.ro.local:00000000000000a0 _ZTVN12_GLOBAL__N_161TestXmlTestReporterFixtureSingleFailedTestReportSummaryFormatE
     /tmp/ccyIgzPn.s:48     .text:0000000000000060 _ZN12_GLOBAL__N_161TestXmlTestReporterFixtureSingleFailedTestReportSummaryFormatD1Ev
     /tmp/ccyIgzPn.s:62     .text:0000000000000080 _ZN12_GLOBAL__N_165TestXmlTestReporterFixtureSingleSuccessfulTestReportSummaryFormatD2Ev
     /tmp/ccyIgzPn.s:11391  .data.rel.ro.local:0000000000000078 _ZTVN12_GLOBAL__N_165TestXmlTestReporterFixtureSingleSuccessfulTestReportSummaryFormatE
     /tmp/ccyIgzPn.s:62     .text:0000000000000080 _ZN12_GLOBAL__N_165TestXmlTestReporterFixtureSingleSuccessfulTestReportSummaryFormatD1Ev
     /tmp/ccyIgzPn.s:76     .text:00000000000000a0 _ZN12_GLOBAL__N_150TestXmlTestReporterFixtureEmptyReportSummaryFormatD2Ev
     /tmp/ccyIgzPn.s:11382  .data.rel.ro.local:0000000000000050 _ZTVN12_GLOBAL__N_150TestXmlTestReporterFixtureEmptyReportSummaryFormatE
     /tmp/ccyIgzPn.s:76     .text:00000000000000a0 _ZN12_GLOBAL__N_150TestXmlTestReporterFixtureEmptyReportSummaryFormatD1Ev
     /tmp/ccyIgzPn.s:90     .text:00000000000000c0 _ZN12_GLOBAL__N_166TestXmlTestReporterFixtureOutputIsCachedUntilReportSummaryIsCalledD2Ev
     /tmp/ccyIgzPn.s:11373  .data.rel.ro.local:0000000000000028 _ZTVN12_GLOBAL__N_166TestXmlTestReporterFixtureOutputIsCachedUntilReportSummaryIsCalledE
     /tmp/ccyIgzPn.s:90     .text:00000000000000c0 _ZN12_GLOBAL__N_166TestXmlTestReporterFixtureOutputIsCachedUntilReportSummaryIsCalledD1Ev
     /tmp/ccyIgzPn.s:104    .text:00000000000000e0 _ZN12_GLOBAL__N_154TestXmlTestReporterFixtureMultipleCharactersAreEscapedD2Ev
     /tmp/ccyIgzPn.s:11364  .data.rel.ro.local:0000000000000000 _ZTVN12_GLOBAL__N_154TestXmlTestReporterFixtureMultipleCharactersAreEscapedE
     /tmp/ccyIgzPn.s:104    .text:00000000000000e0 _ZN12_GLOBAL__N_154TestXmlTestReporterFixtureMultipleCharactersAreEscapedD1Ev
     /tmp/ccyIgzPn.s:123    .text:0000000000000100 _ZN12_GLOBAL__N_142TestXmlTestReporterFixtureMultipleFailuresD0Ev
     /tmp/ccyIgzPn.s:11510  .data.rel.local.DW.ref.__gxx_personality_v0:0000000000000000 DW.ref.__gxx_personality_v0
     /tmp/ccyIgzPn.s:177    .text.unlikely:0000000000000000 _ZN12_GLOBAL__N_142TestXmlTestReporterFixtureMultipleFailuresD0Ev.cold
     /tmp/ccyIgzPn.s:219    .text:0000000000000140 _ZN12_GLOBAL__N_149TestXmlTestReporterFixtureOneFailureAndOneSuccessD0Ev
     /tmp/ccyIgzPn.s:272    .text.unlikely:0000000000000010 _ZN12_GLOBAL__N_149TestXmlTestReporterFixtureOneFailureAndOneSuccessD0Ev.cold
     /tmp/ccyIgzPn.s:314    .text:0000000000000180 _ZN12_GLOBAL__N_152TestXmlTestReporterFixtureFailureMessageIsXMLEscapedD0Ev
     /tmp/ccyIgzPn.s:367    .text.unlikely:0000000000000020 _ZN12_GLOBAL__N_152TestXmlTestReporterFixtureFailureMessageIsXMLEscapedD0Ev.cold
     /tmp/ccyIgzPn.s:409    .text:00000000000001c0 _ZN12_GLOBAL__N_161TestXmlTestReporterFixtureSingleFailedTestReportSummaryFormatD0Ev
     /tmp/ccyIgzPn.s:462    .text.unlikely:0000000000000030 _ZN12_GLOBAL__N_161TestXmlTestReporterFixtureSingleFailedTestReportSummaryFormatD0Ev.cold
     /tmp/ccyIgzPn.s:504    .text:0000000000000200 _ZN12_GLOBAL__N_165TestXmlTestReporterFixtureSingleSuccessfulTestReportSummaryFormatD0Ev
     /tmp/ccyIgzPn.s:557    .text.unlikely:0000000000000040 _ZN12_GLOBAL__N_165TestXmlTestReporterFixtureSingleSuccessfulTestReportSummaryFormatD0Ev.cold
     /tmp/ccyIgzPn.s:599    .text:0000000000000240 _ZN12_GLOBAL__N_150TestXmlTestReporterFixtureEmptyReportSummaryFormatD0Ev
     /tmp/ccyIgzPn.s:652    .text.unlikely:0000000000000050 _ZN12_GLOBAL__N_150TestXmlTestReporterFixtureEmptyReportSummaryFormatD0Ev.cold
     /tmp/ccyIgzPn.s:694    .text:0000000000000280 _ZN12_GLOBAL__N_166TestXmlTestReporterFixtureOutputIsCachedUntilReportSummaryIsCalledD0Ev
     /tmp/ccyIgzPn.s:747    .text.unlikely:0000000000000060 _ZN12_GLOBAL__N_166TestXmlTestReporterFixtureOutputIsCachedUntilReportSummaryIsCalledD0Ev.cold
     /tmp/ccyIgzPn.s:789    .text:00000000000002c0 _ZN12_GLOBAL__N_154TestXmlTestReporterFixtureMultipleCharactersAreEscapedD0Ev
     /tmp/ccyIgzPn.s:842    .text.unlikely:0000000000000070 _ZN12_GLOBAL__N_154TestXmlTestReporterFixtureMultipleCharactersAreEscapedD0Ev.cold
     /tmp/ccyIgzPn.s:881    .text._ZN8UnitTest15MemoryOutStreamD1Ev:0000000000000000 _ZN8UnitTest15MemoryOutStreamD1Ev
     /tmp/ccyIgzPn.s:11349  .data.rel.ro.local._ZTVN8UnitTest15MemoryOutStreamE:0000000000000000 _ZTVN8UnitTest15MemoryOutStreamE
     /tmp/ccyIgzPn.s:11321  .data.rel.ro._ZTCN8UnitTest15MemoryOutStreamE0_NSt7__cxx1119basic_ostringstreamIcSt11char_traitsIcESaIcEEE:0000000000000000 _ZTCN8UnitTest15MemoryOutStreamE0_NSt7__cxx1119basic_ostringstreamIcSt11char_traitsIcESaIcEEE
     /tmp/ccyIgzPn.s:11304  .data.rel.ro._ZTCN8UnitTest15MemoryOutStreamE0_So:0000000000000000 _ZTCN8UnitTest15MemoryOutStreamE0_So
     /tmp/ccyIgzPn.s:941    .text._ZN8UnitTest15MemoryOutStreamD1Ev:00000000000000c0 _ZTv0_n24_N8UnitTest15MemoryOutStreamD1Ev
     /tmp/ccyIgzPn.s:1005   .text._ZN8UnitTest15MemoryOutStreamD0Ev:0000000000000000 _ZN8UnitTest15MemoryOutStreamD0Ev
     /tmp/ccyIgzPn.s:1100   .text._ZN8UnitTest15MemoryOutStreamD0Ev:00000000000000e0 _ZTv0_n24_N8UnitTest15MemoryOutStreamD0Ev
     /tmp/ccyIgzPn.s:1199   .text._ZNSt7__cxx1115basic_stringbufIcSt11char_traitsIcESaIcEED2Ev:0000000000000000 _ZNSt7__cxx1115basic_stringbufIcSt11char_traitsIcESaIcEED2Ev
     /tmp/ccyIgzPn.s:1199   .text._ZNSt7__cxx1115basic_stringbufIcSt11char_traitsIcESaIcEED2Ev:0000000000000000 _ZNSt7__cxx1115basic_stringbufIcSt11char_traitsIcESaIcEED1Ev
     /tmp/ccyIgzPn.s:1231   .text._ZN8UnitTest15MemoryOutStreamC1Ev:0000000000000000 _ZN8UnitTest15MemoryOutStreamC1Ev
     /tmp/ccyIgzPn.s:1394   .text:0000000000000300 _ZN8UnitTest11ExecuteTestIN12_GLOBAL__N_168XmlTestReporterFixtureOutputIsCachedUntilReportSummaryIsCalledHelperEEEvRT_RKNS_11TestDetailsE
     /tmp/ccyIgzPn.s:11502  .data.rel.local.DW.ref._ZTISt9exception:0000000000000000 DW.ref._ZTISt9exception
     /tmp/ccyIgzPn.s:11494  .data.rel.local.DW.ref._ZTIN8UnitTest15AssertExceptionE:0000000000000000 DW.ref._ZTIN8UnitTest15AssertExceptionE
     /tmp/ccyIgzPn.s:1715   .text.unlikely:0000000000000080 _ZN8UnitTest11ExecuteTestIN12_GLOBAL__N_168XmlTestReporterFixtureOutputIsCachedUntilReportSummaryIsCalledHelperEEEvRT_RKNS_11TestDetailsE.cold
     /tmp/ccyIgzPn.s:2014   .text._ZNSt7__cxx1115basic_stringbufIcSt11char_traitsIcESaIcEED0Ev:0000000000000000 _ZNSt7__cxx1115basic_stringbufIcSt11char_traitsIcESaIcEED0Ev
     /tmp/ccyIgzPn.s:2044   .text.unlikely:000000000000031e _ZN12_GLOBAL__N_122XmlTestReporterFixtureD2Ev
     /tmp/ccyIgzPn.s:2211   .text:0000000000000650 _ZNK12_GLOBAL__N_166TestXmlTestReporterFixtureOutputIsCachedUntilReportSummaryIsCalled7RunImplEv
     /tmp/ccyIgzPn.s:2522   .text.unlikely:0000000000000476 _ZNK12_GLOBAL__N_166TestXmlTestReporterFixtureOutputIsCachedUntilReportSummaryIsCalled7RunImplEv.cold
     /tmp/ccyIgzPn.s:2818   .text._ZN8UnitTest10CheckEqualIPKcNSt7__cxx1112basic_stringIcSt11char_traitsIcESaIcEEEEEvRNS_11TestResultsERKT_RKT0_RKNS_11TestDetailsE:0000000000000000 _ZN8UnitTest10CheckEqualIPKcNSt7__cxx1112basic_stringIcSt11char_traitsIcESaIcEEEEEvRNS_11TestResultsERKT_RKT0_RKNS_11TestDetailsE
     /tmp/ccyIgzPn.s:3120   .text:00000000000009f0 _ZN8UnitTest11ExecuteTestIN12_GLOBAL__N_144XmlTestReporterFixtureMultipleFailuresHelperEEEvRT_RKNS_11TestDetailsE
     /tmp/ccyIgzPn.s:3369   .text.unlikely:00000000000006e3 _ZN8UnitTest11ExecuteTestIN12_GLOBAL__N_144XmlTestReporterFixtureMultipleFailuresHelperEEEvRT_RKNS_11TestDetailsE.cold
     /tmp/ccyIgzPn.s:3641   .text:0000000000000c80 _ZNK12_GLOBAL__N_142TestXmlTestReporterFixtureMultipleFailures7RunImplEv
     /tmp/ccyIgzPn.s:3952   .text.unlikely:0000000000000932 _ZNK12_GLOBAL__N_142TestXmlTestReporterFixtureMultipleFailures7RunImplEv.cold
     /tmp/ccyIgzPn.s:4253   .text:0000000000001020 _ZN8UnitTest11ExecuteTestIN12_GLOBAL__N_151XmlTestReporterFixtureOneFailureAndOneSuccessHelperEEEvRT_RKNS_11TestDetailsE
     /tmp/ccyIgzPn.s:4505   .text.unlikely:0000000000000b9f _ZN8UnitTest11ExecuteTestIN12_GLOBAL__N_151XmlTestReporterFixtureOneFailureAndOneSuccessHelperEEEvRT_RKNS_11TestDetailsE.cold
     /tmp/ccyIgzPn.s:4777   .text:00000000000012c0 _ZNK12_GLOBAL__N_149TestXmlTestReporterFixtureOneFailureAndOneSuccess7RunImplEv
     /tmp/ccyIgzPn.s:5088   .text.unlikely:0000000000000dee _ZNK12_GLOBAL__N_149TestXmlTestReporterFixtureOneFailureAndOneSuccess7RunImplEv.cold
     /tmp/ccyIgzPn.s:5392   .text:0000000000001660 _ZN8UnitTest11ExecuteTestIN12_GLOBAL__N_154XmlTestReporterFixtureFailureMessageIsXMLEscapedHelperEEEvRT_RKNS_11TestDetailsE
     /tmp/ccyIgzPn.s:5631   .text.unlikely:000000000000105b _ZN8UnitTest11ExecuteTestIN12_GLOBAL__N_154XmlTestReporterFixtureFailureMessageIsXMLEscapedHelperEEEvRT_RKNS_11TestDetailsE.cold
     /tmp/ccyIgzPn.s:5903   .text:00000000000018b0 _ZNK12_GLOBAL__N_152TestXmlTestReporterFixtureFailureMessageIsXMLEscaped7RunImplEv
     /tmp/ccyIgzPn.s:6214   .text.unlikely:00000000000012a4 _ZNK12_GLOBAL__N_152TestXmlTestReporterFixtureFailureMessageIsXMLEscaped7RunImplEv.cold
     /tmp/ccyIgzPn.s:6518   .text:0000000000001c50 _ZN8UnitTest11ExecuteTestIN12_GLOBAL__N_163XmlTestReporterFixtureSingleFailedTestReportSummaryFormatHelperEEEvRT_RKNS_11TestDetailsE
     /tmp/ccyIgzPn.s:6753   .text.unlikely:0000000000001511 _ZN8UnitTest11ExecuteTestIN12_GLOBAL__N_163XmlTestReporterFixtureSingleFailedTestReportSummaryFormatHelperEEEvRT_RKNS_11TestDetailsE.cold
     /tmp/ccyIgzPn.s:7025   .text:0000000000001e90 _ZNK12_GLOBAL__N_161TestXmlTestReporterFixtureSingleFailedTestReportSummaryFormat7RunImplEv
     /tmp/ccyIgzPn.s:7336   .text.unlikely:000000000000175a _ZNK12_GLOBAL__N_161TestXmlTestReporterFixtureSingleFailedTestReportSummaryFormat7RunImplEv.cold
     /tmp/ccyIgzPn.s:7636   .text:0000000000002230 _ZN8UnitTest11ExecuteTestIN12_GLOBAL__N_167XmlTestReporterFixtureSingleSuccessfulTestReportSummaryFormatHelperEEEvRT_RKNS_11TestDetailsE
     /tmp/ccyIgzPn.s:7867   .text.unlikely:00000000000019c7 _ZN8UnitTest11ExecuteTestIN12_GLOBAL__N_167XmlTestReporterFixtureSingleSuccessfulTestReportSummaryFormatHelperEEEvRT_RKNS_11TestDetailsE.cold
     /tmp/ccyIgzPn.s:8139   .text:0000000000002450 _ZNK12_GLOBAL__N_165TestXmlTestReporterFixtureSingleSuccessfulTestReportSummaryFormat7RunImplEv
     /tmp/ccyIgzPn.s:8450   .text.unlikely:0000000000001c10 _ZNK12_GLOBAL__N_165TestXmlTestReporterFixtureSingleSuccessfulTestReportSummaryFormat7RunImplEv.cold
     /tmp/ccyIgzPn.s:8747   .text:00000000000027f0 _ZN8UnitTest11ExecuteTestIN12_GLOBAL__N_152XmlTestReporterFixtureEmptyReportSummaryFormatHelperEEEvRT_RKNS_11TestDetailsE
     /tmp/ccyIgzPn.s:8968   .text.unlikely:0000000000001e7d _ZN8UnitTest11ExecuteTestIN12_GLOBAL__N_152XmlTestReporterFixtureEmptyReportSummaryFormatHelperEEEvRT_RKNS_11TestDetailsE.cold
     /tmp/ccyIgzPn.s:9240   .text:00000000000029d0 _ZNK12_GLOBAL__N_150TestXmlTestReporterFixtureEmptyReportSummaryFormat7RunImplEv
     /tmp/ccyIgzPn.s:9551   .text.unlikely:00000000000020c6 _ZNK12_GLOBAL__N_150TestXmlTestReporterFixtureEmptyReportSummaryFormat7RunImplEv.cold
     /tmp/ccyIgzPn.s:9851   .text:0000000000002d70 _ZN8UnitTest11ExecuteTestIN12_GLOBAL__N_156XmlTestReporterFixtureMultipleCharactersAreEscapedHelperEEEvRT_RKNS_11TestDetailsE
     /tmp/ccyIgzPn.s:10090  .text.unlikely:0000000000002333 _ZN8UnitTest11ExecuteTestIN12_GLOBAL__N_156XmlTestReporterFixtureMultipleCharactersAreEscapedHelperEEEvRT_RKNS_11TestDetailsE.cold
     /tmp/ccyIgzPn.s:10362  .text:0000000000002fc0 _ZNK12_GLOBAL__N_154TestXmlTestReporterFixtureMultipleCharactersAreEscaped7RunImplEv
     /tmp/ccyIgzPn.s:10673  .text.unlikely:000000000000257c _ZNK12_GLOBAL__N_154TestXmlTestReporterFixtureMultipleCharactersAreEscaped7RunImplEv.cold
     /tmp/ccyIgzPn.s:10989  .text.startup:0000000000000000 _GLOBAL__sub_I_TestXmlTestReporter.cpp
     /tmp/ccyIgzPn.s:11464  .bss:00000000000001e0 _ZN12_GLOBAL__N_162testXmlTestReporterFixtureMultipleCharactersAreEscapedInstanceE
     /tmp/ccyIgzPn.s:11460  .bss:00000000000001d8 _ZN12_GLOBAL__N_155adderXmlTestReporterFixtureMultipleCharactersAreEscapedE
     /tmp/ccyIgzPn.s:11460  .bss:00000000000001a0 _ZN12_GLOBAL__N_174testXmlTestReporterFixtureOutputIsCachedUntilReportSummaryIsCalledInstanceE
     /tmp/ccyIgzPn.s:11456  .bss:0000000000000198 _ZN12_GLOBAL__N_167adderXmlTestReporterFixtureOutputIsCachedUntilReportSummaryIsCalledE
     /tmp/ccyIgzPn.s:11456  .bss:0000000000000160 _ZN12_GLOBAL__N_158testXmlTestReporterFixtureEmptyReportSummaryFormatInstanceE
     /tmp/ccyIgzPn.s:11452  .bss:0000000000000158 _ZN12_GLOBAL__N_151adderXmlTestReporterFixtureEmptyReportSummaryFormatE
     /tmp/ccyIgzPn.s:11452  .bss:0000000000000120 _ZN12_GLOBAL__N_173testXmlTestReporterFixtureSingleSuccessfulTestReportSummaryFormatInstanceE
     /tmp/ccyIgzPn.s:11448  .bss:0000000000000118 _ZN12_GLOBAL__N_166adderXmlTestReporterFixtureSingleSuccessfulTestReportSummaryFormatE
     /tmp/ccyIgzPn.s:11448  .bss:00000000000000e0 _ZN12_GLOBAL__N_169testXmlTestReporterFixtureSingleFailedTestReportSummaryFormatInstanceE
     /tmp/ccyIgzPn.s:11444  .bss:00000000000000d8 _ZN12_GLOBAL__N_162adderXmlTestReporterFixtureSingleFailedTestReportSummaryFormatE
     /tmp/ccyIgzPn.s:11444  .bss:00000000000000a0 _ZN12_GLOBAL__N_160testXmlTestReporterFixtureFailureMessageIsXMLEscapedInstanceE
     /tmp/ccyIgzPn.s:11440  .bss:0000000000000098 _ZN12_GLOBAL__N_153adderXmlTestReporterFixtureFailureMessageIsXMLEscapedE
     /tmp/ccyIgzPn.s:11440  .bss:0000000000000060 _ZN12_GLOBAL__N_157testXmlTestReporterFixtureOneFailureAndOneSuccessInstanceE
     /tmp/ccyIgzPn.s:11436  .bss:0000000000000058 _ZN12_GLOBAL__N_150adderXmlTestReporterFixtureOneFailureAndOneSuccessE
     /tmp/ccyIgzPn.s:11436  .bss:0000000000000020 _ZN12_GLOBAL__N_150testXmlTestReporterFixtureMultipleFailuresInstanceE
                             .bss:0000000000000000 _ZN12_GLOBAL__N_143adderXmlTestReporterFixtureMultipleFailuresE
     /tmp/ccyIgzPn.s:11175  .rodata._ZTSN8UnitTest15MemoryOutStreamE:0000000000000000 _ZTSN8UnitTest15MemoryOutStreamE
     /tmp/ccyIgzPn.s:11182  .data.rel.ro._ZTIN8UnitTest15MemoryOutStreamE:0000000000000000 _ZTIN8UnitTest15MemoryOutStreamE
     /tmp/ccyIgzPn.s:11190  .data.rel.ro:0000000000000000 _ZTIN12_GLOBAL__N_154TestXmlTestReporterFixtureMultipleCharactersAreEscapedE
     /tmp/ccyIgzPn.s:11198  .rodata:0000000000000000 _ZTSN12_GLOBAL__N_154TestXmlTestReporterFixtureMultipleCharactersAreEscapedE
     /tmp/ccyIgzPn.s:11204  .data.rel.ro:0000000000000018 _ZTIN12_GLOBAL__N_166TestXmlTestReporterFixtureOutputIsCachedUntilReportSummaryIsCalledE
     /tmp/ccyIgzPn.s:11212  .rodata:0000000000000060 _ZTSN12_GLOBAL__N_166TestXmlTestReporterFixtureOutputIsCachedUntilReportSummaryIsCalledE
     /tmp/ccyIgzPn.s:11218  .data.rel.ro:0000000000000030 _ZTIN12_GLOBAL__N_150TestXmlTestReporterFixtureEmptyReportSummaryFormatE
     /tmp/ccyIgzPn.s:11226  .rodata:00000000000000c0 _ZTSN12_GLOBAL__N_150TestXmlTestReporterFixtureEmptyReportSummaryFormatE
     /tmp/ccyIgzPn.s:11232  .data.rel.ro:0000000000000048 _ZTIN12_GLOBAL__N_165TestXmlTestReporterFixtureSingleSuccessfulTestReportSummaryFormatE
     /tmp/ccyIgzPn.s:11240  .rodata:0000000000000120 _ZTSN12_GLOBAL__N_165TestXmlTestReporterFixtureSingleSuccessfulTestReportSummaryFormatE
     /tmp/ccyIgzPn.s:11246  .data.rel.ro:0000000000000060 _ZTIN12_GLOBAL__N_161TestXmlTestReporterFixtureSingleFailedTestReportSummaryFormatE
     /tmp/ccyIgzPn.s:11254  .rodata:0000000000000180 _ZTSN12_GLOBAL__N_161TestXmlTestReporterFixtureSingleFailedTestReportSummaryFormatE
     /tmp/ccyIgzPn.s:11260  .data.rel.ro:0000000000000078 _ZTIN12_GLOBAL__N_152TestXmlTestReporterFixtureFailureMessageIsXMLEscapedE
     /tmp/ccyIgzPn.s:11268  .rodata:00000000000001e0 _ZTSN12_GLOBAL__N_152TestXmlTestReporterFixtureFailureMessageIsXMLEscapedE
     /tmp/ccyIgzPn.s:11274  .data.rel.ro:0000000000000090 _ZTIN12_GLOBAL__N_149TestXmlTestReporterFixtureOneFailureAndOneSuccessE
     /tmp/ccyIgzPn.s:11282  .rodata:0000000000000240 _ZTSN12_GLOBAL__N_149TestXmlTestReporterFixtureOneFailureAndOneSuccessE
     /tmp/ccyIgzPn.s:11288  .data.rel.ro:00000000000000a8 _ZTIN12_GLOBAL__N_142TestXmlTestReporterFixtureMultipleFailuresE
     /tmp/ccyIgzPn.s:11296  .rodata:00000000000002a0 _ZTSN12_GLOBAL__N_142TestXmlTestReporterFixtureMultipleFailuresE
     /tmp/ccyIgzPn.s:11337  .data.rel.ro.local._ZTTN8UnitTest15MemoryOutStreamE:0000000000000000 _ZTTN8UnitTest15MemoryOutStreamE
     /tmp/ccyIgzPn.s:1368   .rodata.str1.1:000000000000001b .LC9
     /tmp/ccyIgzPn.s:1370   .rodata.str1.1:000000000000001c .LC10
     /tmp/ccyIgzPn.s:11467  .rodata.cst4:0000000000000000 .LC11
     /tmp/ccyIgzPn.s:1372   .rodata.str1.1:0000000000000024 .LC12
     /tmp/ccyIgzPn.s:1374   .rodata.str1.1:0000000000000039 .LC13
     /tmp/ccyIgzPn.s:3096   .rodata.str1.1:0000000000000081 .LC27
     /tmp/ccyIgzPn.s:3098   .rodata.str1.1:0000000000000088 .LC28
     /tmp/ccyIgzPn.s:3100   .rodata.str1.1:000000000000008e .LC29
     /tmp/ccyIgzPn.s:3102   .rodata.str1.1:0000000000000099 .LC30
     /tmp/ccyIgzPn.s:3104   .rodata.str1.1:00000000000000ae .LC31
     /tmp/ccyIgzPn.s:11483  .rodata.cst4:0000000000000004 .LC32
     /tmp/ccyIgzPn.s:11486  .rodata.cst4:0000000000000008 .LC33
     /tmp/ccyIgzPn.s:3108   .rodata.str1.8:0000000000000100 .LC34
     /tmp/ccyIgzPn.s:4240   .rodata.str1.1:00000000000000c7 .LC38
     /tmp/ccyIgzPn.s:4244   .rodata.str1.8:0000000000000258 .LC39
     /tmp/ccyIgzPn.s:5376   .rodata.str1.1:00000000000000d5 .LC42
     /tmp/ccyIgzPn.s:5378   .rodata.str1.1:00000000000000e0 .LC43
     /tmp/ccyIgzPn.s:5380   .rodata.str1.1:00000000000000e9 .LC44
     /tmp/ccyIgzPn.s:5384   .rodata.str1.8:0000000000000368 .LC45
     /tmp/ccyIgzPn.s:6502   .rodata.str1.1:00000000000000ef .LC48
     /tmp/ccyIgzPn.s:6504   .rodata.str1.1:00000000000000f6 .LC49
     /tmp/ccyIgzPn.s:6506   .rodata.str1.1:00000000000000fd .LC50
     /tmp/ccyIgzPn.s:6510   .rodata.str1.8:0000000000000450 .LC51
     /tmp/ccyIgzPn.s:7624   .rodata.str1.1:0000000000000107 .LC54
     /tmp/ccyIgzPn.s:7628   .rodata.str1.8:0000000000000520 .LC55
     /tmp/ccyIgzPn.s:8739   .rodata.str1.8:00000000000005c8 .LC58
     /tmp/ccyIgzPn.s:9839   .rodata.str1.1:0000000000000114 .LC61
     /tmp/ccyIgzPn.s:9843   .rodata.str1.8:0000000000000638 .LC62
     /tmp/ccyIgzPn.s:1366   .rodata.str1.1:0000000000000000 .LC8
     /tmp/ccyIgzPn.s:1378   .rodata.str1.8:0000000000000000 .LC14
     /tmp/ccyIgzPn.s:1381   .rodata.str1.8:0000000000000038 .LC15
     /tmp/ccyIgzPn.s:1386   .rodata.str1.1:0000000000000065 .LC17
     /tmp/ccyIgzPn.s:1384   .rodata.str1.1:000000000000004f .LC16
     /tmp/ccyIgzPn.s:2201   .rodata.str1.8:00000000000000b8 .LC20
     /tmp/ccyIgzPn.s:2198   .rodata.str1.8:0000000000000070 .LC19
     /tmp/ccyIgzPn.s:3112   .rodata.str1.8:0000000000000218 .LC35
     /tmp/ccyIgzPn.s:2810   .rodata._ZN8UnitTest10CheckEqualIPKcNSt7__cxx1112basic_stringIcSt11char_traitsIcESaIcEEEEEvRNS_11TestResultsERKT_RKT0_RKNS_11TestDetailsE.str1.1:0000000000000000 .LC23
     /tmp/ccyIgzPn.s:2812   .rodata._ZN8UnitTest10CheckEqualIPKcNSt7__cxx1112basic_stringIcSt11char_traitsIcESaIcEEEEEvRNS_11TestResultsERKT_RKT0_RKNS_11TestDetailsE.str1.1:000000000000000a .LC24
     /tmp/ccyIgzPn.s:10963  .rodata.str1.1:0000000000000137 .LC66
     /tmp/ccyIgzPn.s:10961  .rodata.str1.1:000000000000011f .LC65
     /tmp/ccyIgzPn.s:10967  .rodata.str1.8:0000000000000738 .LC67
     /tmp/ccyIgzPn.s:10970  .rodata.str1.1:0000000000000154 .LC68
     /tmp/ccyIgzPn.s:10974  .rodata.str1.8:0000000000000768 .LC69
     /tmp/ccyIgzPn.s:10977  .rodata.str1.8:0000000000000790 .LC70
     /tmp/ccyIgzPn.s:10980  .rodata.str1.1:000000000000016d .LC71
     /tmp/ccyIgzPn.s:10982  .rodata.str1.1:0000000000000188 .LC72
     /tmp/ccyIgzPn.s:10984  .rodata.str1.1:00000000000001a0 .LC73
                           .group:0000000000000000 _ZNSt7__cxx1115basic_stringbufIcSt11char_traitsIcESaIcEED5Ev

UNDEFINED SYMBOLS
_ZN8UnitTest4TestD2Ev
_ZdlPv
__gxx_personality_v0
_Unwind_Resume
_ZTVNSt7__cxx1115basic_stringbufIcSt11char_traitsIcESaIcEEE
_ZTVSt15basic_streambufIcSt11char_traitsIcEE
_ZNSt6localeD1Ev
_ZTVSt9basic_iosIcSt11char_traitsIcEE
_ZNSt8ios_baseD2Ev
_ZNSt8ios_baseC2Ev
_ZNSt9basic_iosIcSt11char_traitsIcEE4initEPSt15basic_streambufIcS1_E
_ZNSt6localeC1Ev
_ZN8UnitTest11CurrentTest7DetailsEv
_ZN8UnitTest16SignalTranslatorC1Ev
_ZN8UnitTest16SignalTranslator12s_jumpTargetE
__sigsetjmp
_ZN8UnitTest11TestDetailsC1EPKcS2_S2_i
_ZN8UnitTest20DeferredTestReporter15ReportTestStartERKNS_11TestDetailsE
_ZN8UnitTest20DeferredTestReporter13ReportFailureERKNS_11TestDetailsEPKc
_ZN8UnitTest20DeferredTestReporter16ReportTestFinishERKNS_11TestDetailsEf
_ZNSt7__cxx1112basic_stringIcSt11char_traitsIcESaIcEE10_M_replaceEmmPKcm
_ZN8UnitTest15XmlTestReporter13ReportSummaryEiiif
_ZN8UnitTest16SignalTranslatorD1Ev
_ZN8UnitTest11CurrentTest7ResultsEv
_ZN8UnitTest11TestDetailsC1ERKS0_i
_ZN8UnitTest11TestResults13OnTestFailureERKNS_11TestDetailsEPKc
_ZNSt7__cxx1112basic_stringIcSt11char_traitsIcESaIcEE9_M_assignERKS4_
__stack_chk_fail
__cxa_allocate_exception
_ZTIPKc
__cxa_throw
__cxa_begin_catch
__cxa_end_catch
_ZNK8UnitTest15AssertException10LineNumberEv
_ZNK8UnitTest15AssertException8FilenameEv
_ZSt16__ostream_insertIcSt11char_traitsIcEERSt13basic_ostreamIT_T0_ES6_PKS3_l
_ZStlsISt11char_traitsIcEERSt13basic_ostreamIcT_ES5_PKc
_ZNK8UnitTest15MemoryOutStream7GetTextEv
_ZTVN8UnitTest20DeferredTestReporterE
_ZN8UnitTest12TestReporterD2Ev
_ZTVNSt7__cxx1119basic_ostringstreamIcSt11char_traitsIcESaIcEEE
_ZTTNSt7__cxx1119basic_ostringstreamIcSt11char_traitsIcESaIcEEE
_ZNSt7__cxx1119basic_ostringstreamIcSt11char_traitsIcESaIcEED1Ev
_ZN8UnitTest15XmlTestReporterC1ERSo
_ZNKSt7__cxx1112basic_stringIcSt11char_traitsIcESaIcEE7compareEPKc
strlen
_ZNSt9basic_iosIcSt11char_traitsIcEE5clearESt12_Ios_Iostate
__dso_handle
_ZN8UnitTest4TestC2EPKcS2_S2_i
__cxa_atexit
_ZN8UnitTest4Test11GetTestListEv
_ZN8UnitTest9ListAdderC1ERNS_8TestListEPNS_4TestE
_ZTVN10__cxxabiv120__si_class_type_infoE
_ZTINSt7__cxx1119basic_ostringstreamIcSt11char_traitsIcESaIcEEE
_ZTIN8UnitTest4TestE
_ZTISo
_ZTIN8UnitTest15AssertExceptionE
_ZTISt9exception
