   1              		.file	"TestXmlTestReporter.cpp"
   2              		.text
   3              		.align 2
   4              		.p2align 4
   6              	_ZN12_GLOBAL__N_142TestXmlTestReporterFixtureMultipleFailuresD2Ev:
   7              	.LFB1675:
   8              		.cfi_startproc
   9 0000 F30F1EFA 		endbr64
  10 0004 488D0500 		leaq	16+_ZTVN12_GLOBAL__N_142TestXmlTestReporterFixtureMultipleFailuresE(%rip), %rax
  10      000000
  11 000b 488907   		movq	%rax, (%rdi)
  12 000e E9000000 		jmp	_ZN8UnitTest4TestD2Ev@PLT
  12      00
  13              		.cfi_endproc
  14              	.LFE1675:
  16              		.set	_ZN12_GLOBAL__N_142TestXmlTestReporterFixtureMultipleFailuresD1Ev,_ZN12_GLOBAL__N_142TestXmlT
  17 0013 90       		.align 2
  18 0014 66662E0F 		.p2align 4
  18      1F840000 
  18      00000090 
  20              	_ZN12_GLOBAL__N_149TestXmlTestReporterFixtureOneFailureAndOneSuccessD2Ev:
  21              	.LFB1679:
  22              		.cfi_startproc
  23 0020 F30F1EFA 		endbr64
  24 0024 488D0500 		leaq	16+_ZTVN12_GLOBAL__N_149TestXmlTestReporterFixtureOneFailureAndOneSuccessE(%rip), %rax
  24      000000
  25 002b 488907   		movq	%rax, (%rdi)
  26 002e E9000000 		jmp	_ZN8UnitTest4TestD2Ev@PLT
  26      00
  27              		.cfi_endproc
  28              	.LFE1679:
  30              		.set	_ZN12_GLOBAL__N_149TestXmlTestReporterFixtureOneFailureAndOneSuccessD1Ev,_ZN12_GLOBAL__N_149T
  31 0033 90       		.align 2
  32 0034 66662E0F 		.p2align 4
  32      1F840000 
  32      00000090 
  34              	_ZN12_GLOBAL__N_152TestXmlTestReporterFixtureFailureMessageIsXMLEscapedD2Ev:
  35              	.LFB1683:
  36              		.cfi_startproc
  37 0040 F30F1EFA 		endbr64
  38 0044 488D0500 		leaq	16+_ZTVN12_GLOBAL__N_152TestXmlTestReporterFixtureFailureMessageIsXMLEscapedE(%rip), %rax
  38      000000
  39 004b 488907   		movq	%rax, (%rdi)
  40 004e E9000000 		jmp	_ZN8UnitTest4TestD2Ev@PLT
  40      00
  41              		.cfi_endproc
  42              	.LFE1683:
  44              		.set	_ZN12_GLOBAL__N_152TestXmlTestReporterFixtureFailureMessageIsXMLEscapedD1Ev,_ZN12_GLOBAL__N_1
  45 0053 90       		.align 2
  46 0054 66662E0F 		.p2align 4
  46      1F840000 
  46      00000090 
  48              	_ZN12_GLOBAL__N_161TestXmlTestReporterFixtureSingleFailedTestReportSummaryFormatD2Ev:
  49              	.LFB1687:
  50              		.cfi_startproc
  51 0060 F30F1EFA 		endbr64
  52 0064 488D0500 		leaq	16+_ZTVN12_GLOBAL__N_161TestXmlTestReporterFixtureSingleFailedTestReportSummaryFormatE(%rip),
  52      000000
  53 006b 488907   		movq	%rax, (%rdi)
  54 006e E9000000 		jmp	_ZN8UnitTest4TestD2Ev@PLT
  54      00
  55              		.cfi_endproc
  56              	.LFE1687:
  58              		.set	_ZN12_GLOBAL__N_161TestXmlTestReporterFixtureSingleFailedTestReportSummaryFormatD1Ev,_ZN12_GL
  59 0073 90       		.align 2
  60 0074 66662E0F 		.p2align 4
  60      1F840000 
  60      00000090 
  62              	_ZN12_GLOBAL__N_165TestXmlTestReporterFixtureSingleSuccessfulTestReportSummaryFormatD2Ev:
  63              	.LFB1691:
  64              		.cfi_startproc
  65 0080 F30F1EFA 		endbr64
  66 0084 488D0500 		leaq	16+_ZTVN12_GLOBAL__N_165TestXmlTestReporterFixtureSingleSuccessfulTestReportSummaryFormatE(%r
  66      000000
  67 008b 488907   		movq	%rax, (%rdi)
  68 008e E9000000 		jmp	_ZN8UnitTest4TestD2Ev@PLT
  68      00
  69              		.cfi_endproc
  70              	.LFE1691:
  72              		.set	_ZN12_GLOBAL__N_165TestXmlTestReporterFixtureSingleSuccessfulTestReportSummaryFormatD1Ev,_ZN1
  73 0093 90       		.align 2
  74 0094 66662E0F 		.p2align 4
  74      1F840000 
  74      00000090 
  76              	_ZN12_GLOBAL__N_150TestXmlTestReporterFixtureEmptyReportSummaryFormatD2Ev:
  77              	.LFB1695:
  78              		.cfi_startproc
  79 00a0 F30F1EFA 		endbr64
  80 00a4 488D0500 		leaq	16+_ZTVN12_GLOBAL__N_150TestXmlTestReporterFixtureEmptyReportSummaryFormatE(%rip), %rax
  80      000000
  81 00ab 488907   		movq	%rax, (%rdi)
  82 00ae E9000000 		jmp	_ZN8UnitTest4TestD2Ev@PLT
  82      00
  83              		.cfi_endproc
  84              	.LFE1695:
  86              		.set	_ZN12_GLOBAL__N_150TestXmlTestReporterFixtureEmptyReportSummaryFormatD1Ev,_ZN12_GLOBAL__N_150
  87 00b3 90       		.align 2
  88 00b4 66662E0F 		.p2align 4
  88      1F840000 
  88      00000090 
  90              	_ZN12_GLOBAL__N_166TestXmlTestReporterFixtureOutputIsCachedUntilReportSummaryIsCalledD2Ev:
  91              	.LFB1699:
  92              		.cfi_startproc
  93 00c0 F30F1EFA 		endbr64
  94 00c4 488D0500 		leaq	16+_ZTVN12_GLOBAL__N_166TestXmlTestReporterFixtureOutputIsCachedUntilReportSummaryIsCalledE(%
  94      000000
  95 00cb 488907   		movq	%rax, (%rdi)
  96 00ce E9000000 		jmp	_ZN8UnitTest4TestD2Ev@PLT
  96      00
  97              		.cfi_endproc
  98              	.LFE1699:
 100              		.set	_ZN12_GLOBAL__N_166TestXmlTestReporterFixtureOutputIsCachedUntilReportSummaryIsCalledD1Ev,_ZN
 101 00d3 90       		.align 2
 102 00d4 66662E0F 		.p2align 4
 102      1F840000 
 102      00000090 
 104              	_ZN12_GLOBAL__N_154TestXmlTestReporterFixtureMultipleCharactersAreEscapedD2Ev:
 105              	.LFB1703:
 106              		.cfi_startproc
 107 00e0 F30F1EFA 		endbr64
 108 00e4 488D0500 		leaq	16+_ZTVN12_GLOBAL__N_154TestXmlTestReporterFixtureMultipleCharactersAreEscapedE(%rip), %rax
 108      000000
 109 00eb 488907   		movq	%rax, (%rdi)
 110 00ee E9000000 		jmp	_ZN8UnitTest4TestD2Ev@PLT
 110      00
 111              		.cfi_endproc
 112              	.LFE1703:
 114              		.set	_ZN12_GLOBAL__N_154TestXmlTestReporterFixtureMultipleCharactersAreEscapedD1Ev,_ZN12_GLOBAL__N
 115              		.section	.text.unlikely,"ax",@progbits
 116              		.align 2
 117              	.LCOLDB0:
 118              		.text
 119              	.LHOTB0:
 120 00f3 90       		.align 2
 121 00f4 66662E0F 		.p2align 4
 121      1F840000 
 121      00000090 
 123              	_ZN12_GLOBAL__N_142TestXmlTestReporterFixtureMultipleFailuresD0Ev:
 124              	.LFB1677:
 125              		.cfi_startproc
 126              		.cfi_personality 0x9b,DW.ref.__gxx_personality_v0
 127              		.cfi_lsda 0x1b,.LLSDA1677
 128 0100 F30F1EFA 		endbr64
 129 0104 4154     		pushq	%r12
 130              		.cfi_def_cfa_offset 16
 131              		.cfi_offset 12, -16
 132 0106 488D0500 		leaq	16+_ZTVN12_GLOBAL__N_142TestXmlTestReporterFixtureMultipleFailuresE(%rip), %rax
 132      000000
 133 010d 55       		pushq	%rbp
 134              		.cfi_def_cfa_offset 24
 135              		.cfi_offset 6, -24
 136 010e 4889FD   		movq	%rdi, %rbp
 137 0111 4883EC08 		subq	$8, %rsp
 138              		.cfi_def_cfa_offset 32
 139 0115 488907   		movq	%rax, (%rdi)
 140              	.LEHB0:
 141 0118 E8000000 		call	_ZN8UnitTest4TestD2Ev@PLT
 141      00
 142              	.LEHE0:
 143 011d 4883C408 		addq	$8, %rsp
 144              		.cfi_remember_state
 145              		.cfi_def_cfa_offset 24
 146 0121 4889EF   		movq	%rbp, %rdi
 147 0124 5D       		popq	%rbp
 148              		.cfi_def_cfa_offset 16
 149 0125 415C     		popq	%r12
 150              		.cfi_def_cfa_offset 8
 151 0127 E9000000 		jmp	_ZdlPv@PLT
 151      00
 152              	.L12:
 153              		.cfi_restore_state
 154 012c F30F1EFA 		endbr64
 155 0130 4989C4   		movq	%rax, %r12
 156 0133 E9000000 		jmp	.L11
 156      00
 157              		.globl	__gxx_personality_v0
 158              		.section	.gcc_except_table,"a",@progbits
 159              	.LLSDA1677:
 160 0000 FF       		.byte	0xff
 161 0001 FF       		.byte	0xff
 162 0002 01       		.byte	0x1
 163 0003 04       		.uleb128 .LLSDACSE1677-.LLSDACSB1677
 164              	.LLSDACSB1677:
 165 0004 18       		.uleb128 .LEHB0-.LFB1677
 166 0005 05       		.uleb128 .LEHE0-.LEHB0
 167 0006 2C       		.uleb128 .L12-.LFB1677
 168 0007 00       		.uleb128 0
 169              	.LLSDACSE1677:
 170              		.text
 171              		.cfi_endproc
 172              		.section	.text.unlikely
 173              		.cfi_startproc
 174              		.cfi_personality 0x9b,DW.ref.__gxx_personality_v0
 175              		.cfi_lsda 0x1b,.LLSDAC1677
 177              	_ZN12_GLOBAL__N_142TestXmlTestReporterFixtureMultipleFailuresD0Ev.cold:
 178              	.LFSB1677:
 179              	.L11:
 180              		.cfi_def_cfa_offset 32
 181              		.cfi_offset 6, -24
 182              		.cfi_offset 12, -16
 183 0000 4889EF   		movq	%rbp, %rdi
 184 0003 E8000000 		call	_ZdlPv@PLT
 184      00
 185 0008 4C89E7   		movq	%r12, %rdi
 186              	.LEHB1:
 187 000b E8000000 		call	_Unwind_Resume@PLT
 187      00
 188              	.LEHE1:
 189              		.cfi_endproc
 190              	.LFE1677:
 191              		.section	.gcc_except_table
 192              	.LLSDAC1677:
 193 0008 FF       		.byte	0xff
 194 0009 FF       		.byte	0xff
 195 000a 01       		.byte	0x1
 196 000b 04       		.uleb128 .LLSDACSEC1677-.LLSDACSBC1677
 197              	.LLSDACSBC1677:
 198 000c 0B       		.uleb128 .LEHB1-.LCOLDB0
 199 000d 05       		.uleb128 .LEHE1-.LEHB1
 200 000e 00       		.uleb128 0
 201 000f 00       		.uleb128 0
 202              	.LLSDACSEC1677:
 203              		.section	.text.unlikely
 204              		.text
 206              		.section	.text.unlikely
 208              	.LCOLDE0:
 209              		.text
 210              	.LHOTE0:
 211              		.section	.text.unlikely
 212              		.align 2
 213              	.LCOLDB1:
 214              		.text
 215              	.LHOTB1:
 216              		.align 2
 217 0138 0F1F8400 		.p2align 4
 217      00000000 
 219              	_ZN12_GLOBAL__N_149TestXmlTestReporterFixtureOneFailureAndOneSuccessD0Ev:
 220              	.LFB1681:
 221              		.cfi_startproc
 222              		.cfi_personality 0x9b,DW.ref.__gxx_personality_v0
 223              		.cfi_lsda 0x1b,.LLSDA1681
 224 0140 F30F1EFA 		endbr64
 225 0144 4154     		pushq	%r12
 226              		.cfi_def_cfa_offset 16
 227              		.cfi_offset 12, -16
 228 0146 488D0500 		leaq	16+_ZTVN12_GLOBAL__N_149TestXmlTestReporterFixtureOneFailureAndOneSuccessE(%rip), %rax
 228      000000
 229 014d 55       		pushq	%rbp
 230              		.cfi_def_cfa_offset 24
 231              		.cfi_offset 6, -24
 232 014e 4889FD   		movq	%rdi, %rbp
 233 0151 4883EC08 		subq	$8, %rsp
 234              		.cfi_def_cfa_offset 32
 235 0155 488907   		movq	%rax, (%rdi)
 236              	.LEHB2:
 237 0158 E8000000 		call	_ZN8UnitTest4TestD2Ev@PLT
 237      00
 238              	.LEHE2:
 239 015d 4883C408 		addq	$8, %rsp
 240              		.cfi_remember_state
 241              		.cfi_def_cfa_offset 24
 242 0161 4889EF   		movq	%rbp, %rdi
 243 0164 5D       		popq	%rbp
 244              		.cfi_def_cfa_offset 16
 245 0165 415C     		popq	%r12
 246              		.cfi_def_cfa_offset 8
 247 0167 E9000000 		jmp	_ZdlPv@PLT
 247      00
 248              	.L16:
 249              		.cfi_restore_state
 250 016c F30F1EFA 		endbr64
 251 0170 4989C4   		movq	%rax, %r12
 252 0173 E9000000 		jmp	.L15
 252      00
 253              		.section	.gcc_except_table
 254              	.LLSDA1681:
 255 0010 FF       		.byte	0xff
 256 0011 FF       		.byte	0xff
 257 0012 01       		.byte	0x1
 258 0013 04       		.uleb128 .LLSDACSE1681-.LLSDACSB1681
 259              	.LLSDACSB1681:
 260 0014 18       		.uleb128 .LEHB2-.LFB1681
 261 0015 05       		.uleb128 .LEHE2-.LEHB2
 262 0016 2C       		.uleb128 .L16-.LFB1681
 263 0017 00       		.uleb128 0
 264              	.LLSDACSE1681:
 265              		.text
 266              		.cfi_endproc
 267              		.section	.text.unlikely
 268              		.cfi_startproc
 269              		.cfi_personality 0x9b,DW.ref.__gxx_personality_v0
 270              		.cfi_lsda 0x1b,.LLSDAC1681
 272              	_ZN12_GLOBAL__N_149TestXmlTestReporterFixtureOneFailureAndOneSuccessD0Ev.cold:
 273              	.LFSB1681:
 274              	.L15:
 275              		.cfi_def_cfa_offset 32
 276              		.cfi_offset 6, -24
 277              		.cfi_offset 12, -16
 278 0010 4889EF   		movq	%rbp, %rdi
 279 0013 E8000000 		call	_ZdlPv@PLT
 279      00
 280 0018 4C89E7   		movq	%r12, %rdi
 281              	.LEHB3:
 282 001b E8000000 		call	_Unwind_Resume@PLT
 282      00
 283              	.LEHE3:
 284              		.cfi_endproc
 285              	.LFE1681:
 286              		.section	.gcc_except_table
 287              	.LLSDAC1681:
 288 0018 FF       		.byte	0xff
 289 0019 FF       		.byte	0xff
 290 001a 01       		.byte	0x1
 291 001b 04       		.uleb128 .LLSDACSEC1681-.LLSDACSBC1681
 292              	.LLSDACSBC1681:
 293 001c 0B       		.uleb128 .LEHB3-.LCOLDB1
 294 001d 05       		.uleb128 .LEHE3-.LEHB3
 295 001e 00       		.uleb128 0
 296 001f 00       		.uleb128 0
 297              	.LLSDACSEC1681:
 298              		.section	.text.unlikely
 299              		.text
 301              		.section	.text.unlikely
 303              	.LCOLDE1:
 304              		.text
 305              	.LHOTE1:
 306              		.section	.text.unlikely
 307              		.align 2
 308              	.LCOLDB2:
 309              		.text
 310              	.LHOTB2:
 311              		.align 2
 312 0178 0F1F8400 		.p2align 4
 312      00000000 
 314              	_ZN12_GLOBAL__N_152TestXmlTestReporterFixtureFailureMessageIsXMLEscapedD0Ev:
 315              	.LFB1685:
 316              		.cfi_startproc
 317              		.cfi_personality 0x9b,DW.ref.__gxx_personality_v0
 318              		.cfi_lsda 0x1b,.LLSDA1685
 319 0180 F30F1EFA 		endbr64
 320 0184 4154     		pushq	%r12
 321              		.cfi_def_cfa_offset 16
 322              		.cfi_offset 12, -16
 323 0186 488D0500 		leaq	16+_ZTVN12_GLOBAL__N_152TestXmlTestReporterFixtureFailureMessageIsXMLEscapedE(%rip), %rax
 323      000000
 324 018d 55       		pushq	%rbp
 325              		.cfi_def_cfa_offset 24
 326              		.cfi_offset 6, -24
 327 018e 4889FD   		movq	%rdi, %rbp
 328 0191 4883EC08 		subq	$8, %rsp
 329              		.cfi_def_cfa_offset 32
 330 0195 488907   		movq	%rax, (%rdi)
 331              	.LEHB4:
 332 0198 E8000000 		call	_ZN8UnitTest4TestD2Ev@PLT
 332      00
 333              	.LEHE4:
 334 019d 4883C408 		addq	$8, %rsp
 335              		.cfi_remember_state
 336              		.cfi_def_cfa_offset 24
 337 01a1 4889EF   		movq	%rbp, %rdi
 338 01a4 5D       		popq	%rbp
 339              		.cfi_def_cfa_offset 16
 340 01a5 415C     		popq	%r12
 341              		.cfi_def_cfa_offset 8
 342 01a7 E9000000 		jmp	_ZdlPv@PLT
 342      00
 343              	.L20:
 344              		.cfi_restore_state
 345 01ac F30F1EFA 		endbr64
 346 01b0 4989C4   		movq	%rax, %r12
 347 01b3 E9000000 		jmp	.L19
 347      00
 348              		.section	.gcc_except_table
 349              	.LLSDA1685:
 350 0020 FF       		.byte	0xff
 351 0021 FF       		.byte	0xff
 352 0022 01       		.byte	0x1
 353 0023 04       		.uleb128 .LLSDACSE1685-.LLSDACSB1685
 354              	.LLSDACSB1685:
 355 0024 18       		.uleb128 .LEHB4-.LFB1685
 356 0025 05       		.uleb128 .LEHE4-.LEHB4
 357 0026 2C       		.uleb128 .L20-.LFB1685
 358 0027 00       		.uleb128 0
 359              	.LLSDACSE1685:
 360              		.text
 361              		.cfi_endproc
 362              		.section	.text.unlikely
 363              		.cfi_startproc
 364              		.cfi_personality 0x9b,DW.ref.__gxx_personality_v0
 365              		.cfi_lsda 0x1b,.LLSDAC1685
 367              	_ZN12_GLOBAL__N_152TestXmlTestReporterFixtureFailureMessageIsXMLEscapedD0Ev.cold:
 368              	.LFSB1685:
 369              	.L19:
 370              		.cfi_def_cfa_offset 32
 371              		.cfi_offset 6, -24
 372              		.cfi_offset 12, -16
 373 0020 4889EF   		movq	%rbp, %rdi
 374 0023 E8000000 		call	_ZdlPv@PLT
 374      00
 375 0028 4C89E7   		movq	%r12, %rdi
 376              	.LEHB5:
 377 002b E8000000 		call	_Unwind_Resume@PLT
 377      00
 378              	.LEHE5:
 379              		.cfi_endproc
 380              	.LFE1685:
 381              		.section	.gcc_except_table
 382              	.LLSDAC1685:
 383 0028 FF       		.byte	0xff
 384 0029 FF       		.byte	0xff
 385 002a 01       		.byte	0x1
 386 002b 04       		.uleb128 .LLSDACSEC1685-.LLSDACSBC1685
 387              	.LLSDACSBC1685:
 388 002c 0B       		.uleb128 .LEHB5-.LCOLDB2
 389 002d 05       		.uleb128 .LEHE5-.LEHB5
 390 002e 00       		.uleb128 0
 391 002f 00       		.uleb128 0
 392              	.LLSDACSEC1685:
 393              		.section	.text.unlikely
 394              		.text
 396              		.section	.text.unlikely
 398              	.LCOLDE2:
 399              		.text
 400              	.LHOTE2:
 401              		.section	.text.unlikely
 402              		.align 2
 403              	.LCOLDB3:
 404              		.text
 405              	.LHOTB3:
 406              		.align 2
 407 01b8 0F1F8400 		.p2align 4
 407      00000000 
 409              	_ZN12_GLOBAL__N_161TestXmlTestReporterFixtureSingleFailedTestReportSummaryFormatD0Ev:
 410              	.LFB1689:
 411              		.cfi_startproc
 412              		.cfi_personality 0x9b,DW.ref.__gxx_personality_v0
 413              		.cfi_lsda 0x1b,.LLSDA1689
 414 01c0 F30F1EFA 		endbr64
 415 01c4 4154     		pushq	%r12
 416              		.cfi_def_cfa_offset 16
 417              		.cfi_offset 12, -16
 418 01c6 488D0500 		leaq	16+_ZTVN12_GLOBAL__N_161TestXmlTestReporterFixtureSingleFailedTestReportSummaryFormatE(%rip),
 418      000000
 419 01cd 55       		pushq	%rbp
 420              		.cfi_def_cfa_offset 24
 421              		.cfi_offset 6, -24
 422 01ce 4889FD   		movq	%rdi, %rbp
 423 01d1 4883EC08 		subq	$8, %rsp
 424              		.cfi_def_cfa_offset 32
 425 01d5 488907   		movq	%rax, (%rdi)
 426              	.LEHB6:
 427 01d8 E8000000 		call	_ZN8UnitTest4TestD2Ev@PLT
 427      00
 428              	.LEHE6:
 429 01dd 4883C408 		addq	$8, %rsp
 430              		.cfi_remember_state
 431              		.cfi_def_cfa_offset 24
 432 01e1 4889EF   		movq	%rbp, %rdi
 433 01e4 5D       		popq	%rbp
 434              		.cfi_def_cfa_offset 16
 435 01e5 415C     		popq	%r12
 436              		.cfi_def_cfa_offset 8
 437 01e7 E9000000 		jmp	_ZdlPv@PLT
 437      00
 438              	.L24:
 439              		.cfi_restore_state
 440 01ec F30F1EFA 		endbr64
 441 01f0 4989C4   		movq	%rax, %r12
 442 01f3 E9000000 		jmp	.L23
 442      00
 443              		.section	.gcc_except_table
 444              	.LLSDA1689:
 445 0030 FF       		.byte	0xff
 446 0031 FF       		.byte	0xff
 447 0032 01       		.byte	0x1
 448 0033 04       		.uleb128 .LLSDACSE1689-.LLSDACSB1689
 449              	.LLSDACSB1689:
 450 0034 18       		.uleb128 .LEHB6-.LFB1689
 451 0035 05       		.uleb128 .LEHE6-.LEHB6
 452 0036 2C       		.uleb128 .L24-.LFB1689
 453 0037 00       		.uleb128 0
 454              	.LLSDACSE1689:
 455              		.text
 456              		.cfi_endproc
 457              		.section	.text.unlikely
 458              		.cfi_startproc
 459              		.cfi_personality 0x9b,DW.ref.__gxx_personality_v0
 460              		.cfi_lsda 0x1b,.LLSDAC1689
 462              	_ZN12_GLOBAL__N_161TestXmlTestReporterFixtureSingleFailedTestReportSummaryFormatD0Ev.cold:
 463              	.LFSB1689:
 464              	.L23:
 465              		.cfi_def_cfa_offset 32
 466              		.cfi_offset 6, -24
 467              		.cfi_offset 12, -16
 468 0030 4889EF   		movq	%rbp, %rdi
 469 0033 E8000000 		call	_ZdlPv@PLT
 469      00
 470 0038 4C89E7   		movq	%r12, %rdi
 471              	.LEHB7:
 472 003b E8000000 		call	_Unwind_Resume@PLT
 472      00
 473              	.LEHE7:
 474              		.cfi_endproc
 475              	.LFE1689:
 476              		.section	.gcc_except_table
 477              	.LLSDAC1689:
 478 0038 FF       		.byte	0xff
 479 0039 FF       		.byte	0xff
 480 003a 01       		.byte	0x1
 481 003b 04       		.uleb128 .LLSDACSEC1689-.LLSDACSBC1689
 482              	.LLSDACSBC1689:
 483 003c 0B       		.uleb128 .LEHB7-.LCOLDB3
 484 003d 05       		.uleb128 .LEHE7-.LEHB7
 485 003e 00       		.uleb128 0
 486 003f 00       		.uleb128 0
 487              	.LLSDACSEC1689:
 488              		.section	.text.unlikely
 489              		.text
 491              		.section	.text.unlikely
 493              	.LCOLDE3:
 494              		.text
 495              	.LHOTE3:
 496              		.section	.text.unlikely
 497              		.align 2
 498              	.LCOLDB4:
 499              		.text
 500              	.LHOTB4:
 501              		.align 2
 502 01f8 0F1F8400 		.p2align 4
 502      00000000 
 504              	_ZN12_GLOBAL__N_165TestXmlTestReporterFixtureSingleSuccessfulTestReportSummaryFormatD0Ev:
 505              	.LFB1693:
 506              		.cfi_startproc
 507              		.cfi_personality 0x9b,DW.ref.__gxx_personality_v0
 508              		.cfi_lsda 0x1b,.LLSDA1693
 509 0200 F30F1EFA 		endbr64
 510 0204 4154     		pushq	%r12
 511              		.cfi_def_cfa_offset 16
 512              		.cfi_offset 12, -16
 513 0206 488D0500 		leaq	16+_ZTVN12_GLOBAL__N_165TestXmlTestReporterFixtureSingleSuccessfulTestReportSummaryFormatE(%r
 513      000000
 514 020d 55       		pushq	%rbp
 515              		.cfi_def_cfa_offset 24
 516              		.cfi_offset 6, -24
 517 020e 4889FD   		movq	%rdi, %rbp
 518 0211 4883EC08 		subq	$8, %rsp
 519              		.cfi_def_cfa_offset 32
 520 0215 488907   		movq	%rax, (%rdi)
 521              	.LEHB8:
 522 0218 E8000000 		call	_ZN8UnitTest4TestD2Ev@PLT
 522      00
 523              	.LEHE8:
 524 021d 4883C408 		addq	$8, %rsp
 525              		.cfi_remember_state
 526              		.cfi_def_cfa_offset 24
 527 0221 4889EF   		movq	%rbp, %rdi
 528 0224 5D       		popq	%rbp
 529              		.cfi_def_cfa_offset 16
 530 0225 415C     		popq	%r12
 531              		.cfi_def_cfa_offset 8
 532 0227 E9000000 		jmp	_ZdlPv@PLT
 532      00
 533              	.L28:
 534              		.cfi_restore_state
 535 022c F30F1EFA 		endbr64
 536 0230 4989C4   		movq	%rax, %r12
 537 0233 E9000000 		jmp	.L27
 537      00
 538              		.section	.gcc_except_table
 539              	.LLSDA1693:
 540 0040 FF       		.byte	0xff
 541 0041 FF       		.byte	0xff
 542 0042 01       		.byte	0x1
 543 0043 04       		.uleb128 .LLSDACSE1693-.LLSDACSB1693
 544              	.LLSDACSB1693:
 545 0044 18       		.uleb128 .LEHB8-.LFB1693
 546 0045 05       		.uleb128 .LEHE8-.LEHB8
 547 0046 2C       		.uleb128 .L28-.LFB1693
 548 0047 00       		.uleb128 0
 549              	.LLSDACSE1693:
 550              		.text
 551              		.cfi_endproc
 552              		.section	.text.unlikely
 553              		.cfi_startproc
 554              		.cfi_personality 0x9b,DW.ref.__gxx_personality_v0
 555              		.cfi_lsda 0x1b,.LLSDAC1693
 557              	_ZN12_GLOBAL__N_165TestXmlTestReporterFixtureSingleSuccessfulTestReportSummaryFormatD0Ev.cold:
 558              	.LFSB1693:
 559              	.L27:
 560              		.cfi_def_cfa_offset 32
 561              		.cfi_offset 6, -24
 562              		.cfi_offset 12, -16
 563 0040 4889EF   		movq	%rbp, %rdi
 564 0043 E8000000 		call	_ZdlPv@PLT
 564      00
 565 0048 4C89E7   		movq	%r12, %rdi
 566              	.LEHB9:
 567 004b E8000000 		call	_Unwind_Resume@PLT
 567      00
 568              	.LEHE9:
 569              		.cfi_endproc
 570              	.LFE1693:
 571              		.section	.gcc_except_table
 572              	.LLSDAC1693:
 573 0048 FF       		.byte	0xff
 574 0049 FF       		.byte	0xff
 575 004a 01       		.byte	0x1
 576 004b 04       		.uleb128 .LLSDACSEC1693-.LLSDACSBC1693
 577              	.LLSDACSBC1693:
 578 004c 0B       		.uleb128 .LEHB9-.LCOLDB4
 579 004d 05       		.uleb128 .LEHE9-.LEHB9
 580 004e 00       		.uleb128 0
 581 004f 00       		.uleb128 0
 582              	.LLSDACSEC1693:
 583              		.section	.text.unlikely
 584              		.text
 586              		.section	.text.unlikely
 588              	.LCOLDE4:
 589              		.text
 590              	.LHOTE4:
 591              		.section	.text.unlikely
 592              		.align 2
 593              	.LCOLDB5:
 594              		.text
 595              	.LHOTB5:
 596              		.align 2
 597 0238 0F1F8400 		.p2align 4
 597      00000000 
 599              	_ZN12_GLOBAL__N_150TestXmlTestReporterFixtureEmptyReportSummaryFormatD0Ev:
 600              	.LFB1697:
 601              		.cfi_startproc
 602              		.cfi_personality 0x9b,DW.ref.__gxx_personality_v0
 603              		.cfi_lsda 0x1b,.LLSDA1697
 604 0240 F30F1EFA 		endbr64
 605 0244 4154     		pushq	%r12
 606              		.cfi_def_cfa_offset 16
 607              		.cfi_offset 12, -16
 608 0246 488D0500 		leaq	16+_ZTVN12_GLOBAL__N_150TestXmlTestReporterFixtureEmptyReportSummaryFormatE(%rip), %rax
 608      000000
 609 024d 55       		pushq	%rbp
 610              		.cfi_def_cfa_offset 24
 611              		.cfi_offset 6, -24
 612 024e 4889FD   		movq	%rdi, %rbp
 613 0251 4883EC08 		subq	$8, %rsp
 614              		.cfi_def_cfa_offset 32
 615 0255 488907   		movq	%rax, (%rdi)
 616              	.LEHB10:
 617 0258 E8000000 		call	_ZN8UnitTest4TestD2Ev@PLT
 617      00
 618              	.LEHE10:
 619 025d 4883C408 		addq	$8, %rsp
 620              		.cfi_remember_state
 621              		.cfi_def_cfa_offset 24
 622 0261 4889EF   		movq	%rbp, %rdi
 623 0264 5D       		popq	%rbp
 624              		.cfi_def_cfa_offset 16
 625 0265 415C     		popq	%r12
 626              		.cfi_def_cfa_offset 8
 627 0267 E9000000 		jmp	_ZdlPv@PLT
 627      00
 628              	.L32:
 629              		.cfi_restore_state
 630 026c F30F1EFA 		endbr64
 631 0270 4989C4   		movq	%rax, %r12
 632 0273 E9000000 		jmp	.L31
 632      00
 633              		.section	.gcc_except_table
 634              	.LLSDA1697:
 635 0050 FF       		.byte	0xff
 636 0051 FF       		.byte	0xff
 637 0052 01       		.byte	0x1
 638 0053 04       		.uleb128 .LLSDACSE1697-.LLSDACSB1697
 639              	.LLSDACSB1697:
 640 0054 18       		.uleb128 .LEHB10-.LFB1697
 641 0055 05       		.uleb128 .LEHE10-.LEHB10
 642 0056 2C       		.uleb128 .L32-.LFB1697
 643 0057 00       		.uleb128 0
 644              	.LLSDACSE1697:
 645              		.text
 646              		.cfi_endproc
 647              		.section	.text.unlikely
 648              		.cfi_startproc
 649              		.cfi_personality 0x9b,DW.ref.__gxx_personality_v0
 650              		.cfi_lsda 0x1b,.LLSDAC1697
 652              	_ZN12_GLOBAL__N_150TestXmlTestReporterFixtureEmptyReportSummaryFormatD0Ev.cold:
 653              	.LFSB1697:
 654              	.L31:
 655              		.cfi_def_cfa_offset 32
 656              		.cfi_offset 6, -24
 657              		.cfi_offset 12, -16
 658 0050 4889EF   		movq	%rbp, %rdi
 659 0053 E8000000 		call	_ZdlPv@PLT
 659      00
 660 0058 4C89E7   		movq	%r12, %rdi
 661              	.LEHB11:
 662 005b E8000000 		call	_Unwind_Resume@PLT
 662      00
 663              	.LEHE11:
 664              		.cfi_endproc
 665              	.LFE1697:
 666              		.section	.gcc_except_table
 667              	.LLSDAC1697:
 668 0058 FF       		.byte	0xff
 669 0059 FF       		.byte	0xff
 670 005a 01       		.byte	0x1
 671 005b 04       		.uleb128 .LLSDACSEC1697-.LLSDACSBC1697
 672              	.LLSDACSBC1697:
 673 005c 0B       		.uleb128 .LEHB11-.LCOLDB5
 674 005d 05       		.uleb128 .LEHE11-.LEHB11
 675 005e 00       		.uleb128 0
 676 005f 00       		.uleb128 0
 677              	.LLSDACSEC1697:
 678              		.section	.text.unlikely
 679              		.text
 681              		.section	.text.unlikely
 683              	.LCOLDE5:
 684              		.text
 685              	.LHOTE5:
 686              		.section	.text.unlikely
 687              		.align 2
 688              	.LCOLDB6:
 689              		.text
 690              	.LHOTB6:
 691              		.align 2
 692 0278 0F1F8400 		.p2align 4
 692      00000000 
 694              	_ZN12_GLOBAL__N_166TestXmlTestReporterFixtureOutputIsCachedUntilReportSummaryIsCalledD0Ev:
 695              	.LFB1701:
 696              		.cfi_startproc
 697              		.cfi_personality 0x9b,DW.ref.__gxx_personality_v0
 698              		.cfi_lsda 0x1b,.LLSDA1701
 699 0280 F30F1EFA 		endbr64
 700 0284 4154     		pushq	%r12
 701              		.cfi_def_cfa_offset 16
 702              		.cfi_offset 12, -16
 703 0286 488D0500 		leaq	16+_ZTVN12_GLOBAL__N_166TestXmlTestReporterFixtureOutputIsCachedUntilReportSummaryIsCalledE(%
 703      000000
 704 028d 55       		pushq	%rbp
 705              		.cfi_def_cfa_offset 24
 706              		.cfi_offset 6, -24
 707 028e 4889FD   		movq	%rdi, %rbp
 708 0291 4883EC08 		subq	$8, %rsp
 709              		.cfi_def_cfa_offset 32
 710 0295 488907   		movq	%rax, (%rdi)
 711              	.LEHB12:
 712 0298 E8000000 		call	_ZN8UnitTest4TestD2Ev@PLT
 712      00
 713              	.LEHE12:
 714 029d 4883C408 		addq	$8, %rsp
 715              		.cfi_remember_state
 716              		.cfi_def_cfa_offset 24
 717 02a1 4889EF   		movq	%rbp, %rdi
 718 02a4 5D       		popq	%rbp
 719              		.cfi_def_cfa_offset 16
 720 02a5 415C     		popq	%r12
 721              		.cfi_def_cfa_offset 8
 722 02a7 E9000000 		jmp	_ZdlPv@PLT
 722      00
 723              	.L36:
 724              		.cfi_restore_state
 725 02ac F30F1EFA 		endbr64
 726 02b0 4989C4   		movq	%rax, %r12
 727 02b3 E9000000 		jmp	.L35
 727      00
 728              		.section	.gcc_except_table
 729              	.LLSDA1701:
 730 0060 FF       		.byte	0xff
 731 0061 FF       		.byte	0xff
 732 0062 01       		.byte	0x1
 733 0063 04       		.uleb128 .LLSDACSE1701-.LLSDACSB1701
 734              	.LLSDACSB1701:
 735 0064 18       		.uleb128 .LEHB12-.LFB1701
 736 0065 05       		.uleb128 .LEHE12-.LEHB12
 737 0066 2C       		.uleb128 .L36-.LFB1701
 738 0067 00       		.uleb128 0
 739              	.LLSDACSE1701:
 740              		.text
 741              		.cfi_endproc
 742              		.section	.text.unlikely
 743              		.cfi_startproc
 744              		.cfi_personality 0x9b,DW.ref.__gxx_personality_v0
 745              		.cfi_lsda 0x1b,.LLSDAC1701
 747              	_ZN12_GLOBAL__N_166TestXmlTestReporterFixtureOutputIsCachedUntilReportSummaryIsCalledD0Ev.cold:
 748              	.LFSB1701:
 749              	.L35:
 750              		.cfi_def_cfa_offset 32
 751              		.cfi_offset 6, -24
 752              		.cfi_offset 12, -16
 753 0060 4889EF   		movq	%rbp, %rdi
 754 0063 E8000000 		call	_ZdlPv@PLT
 754      00
 755 0068 4C89E7   		movq	%r12, %rdi
 756              	.LEHB13:
 757 006b E8000000 		call	_Unwind_Resume@PLT
 757      00
 758              	.LEHE13:
 759              		.cfi_endproc
 760              	.LFE1701:
 761              		.section	.gcc_except_table
 762              	.LLSDAC1701:
 763 0068 FF       		.byte	0xff
 764 0069 FF       		.byte	0xff
 765 006a 01       		.byte	0x1
 766 006b 04       		.uleb128 .LLSDACSEC1701-.LLSDACSBC1701
 767              	.LLSDACSBC1701:
 768 006c 0B       		.uleb128 .LEHB13-.LCOLDB6
 769 006d 05       		.uleb128 .LEHE13-.LEHB13
 770 006e 00       		.uleb128 0
 771 006f 00       		.uleb128 0
 772              	.LLSDACSEC1701:
 773              		.section	.text.unlikely
 774              		.text
 776              		.section	.text.unlikely
 778              	.LCOLDE6:
 779              		.text
 780              	.LHOTE6:
 781              		.section	.text.unlikely
 782              		.align 2
 783              	.LCOLDB7:
 784              		.text
 785              	.LHOTB7:
 786              		.align 2
 787 02b8 0F1F8400 		.p2align 4
 787      00000000 
 789              	_ZN12_GLOBAL__N_154TestXmlTestReporterFixtureMultipleCharactersAreEscapedD0Ev:
 790              	.LFB1705:
 791              		.cfi_startproc
 792              		.cfi_personality 0x9b,DW.ref.__gxx_personality_v0
 793              		.cfi_lsda 0x1b,.LLSDA1705
 794 02c0 F30F1EFA 		endbr64
 795 02c4 4154     		pushq	%r12
 796              		.cfi_def_cfa_offset 16
 797              		.cfi_offset 12, -16
 798 02c6 488D0500 		leaq	16+_ZTVN12_GLOBAL__N_154TestXmlTestReporterFixtureMultipleCharactersAreEscapedE(%rip), %rax
 798      000000
 799 02cd 55       		pushq	%rbp
 800              		.cfi_def_cfa_offset 24
 801              		.cfi_offset 6, -24
 802 02ce 4889FD   		movq	%rdi, %rbp
 803 02d1 4883EC08 		subq	$8, %rsp
 804              		.cfi_def_cfa_offset 32
 805 02d5 488907   		movq	%rax, (%rdi)
 806              	.LEHB14:
 807 02d8 E8000000 		call	_ZN8UnitTest4TestD2Ev@PLT
 807      00
 808              	.LEHE14:
 809 02dd 4883C408 		addq	$8, %rsp
 810              		.cfi_remember_state
 811              		.cfi_def_cfa_offset 24
 812 02e1 4889EF   		movq	%rbp, %rdi
 813 02e4 5D       		popq	%rbp
 814              		.cfi_def_cfa_offset 16
 815 02e5 415C     		popq	%r12
 816              		.cfi_def_cfa_offset 8
 817 02e7 E9000000 		jmp	_ZdlPv@PLT
 817      00
 818              	.L40:
 819              		.cfi_restore_state
 820 02ec F30F1EFA 		endbr64
 821 02f0 4989C4   		movq	%rax, %r12
 822 02f3 E9000000 		jmp	.L39
 822      00
 823              		.section	.gcc_except_table
 824              	.LLSDA1705:
 825 0070 FF       		.byte	0xff
 826 0071 FF       		.byte	0xff
 827 0072 01       		.byte	0x1
 828 0073 04       		.uleb128 .LLSDACSE1705-.LLSDACSB1705
 829              	.LLSDACSB1705:
 830 0074 18       		.uleb128 .LEHB14-.LFB1705
 831 0075 05       		.uleb128 .LEHE14-.LEHB14
 832 0076 2C       		.uleb128 .L40-.LFB1705
 833 0077 00       		.uleb128 0
 834              	.LLSDACSE1705:
 835              		.text
 836              		.cfi_endproc
 837              		.section	.text.unlikely
 838              		.cfi_startproc
 839              		.cfi_personality 0x9b,DW.ref.__gxx_personality_v0
 840              		.cfi_lsda 0x1b,.LLSDAC1705
 842              	_ZN12_GLOBAL__N_154TestXmlTestReporterFixtureMultipleCharactersAreEscapedD0Ev.cold:
 843              	.LFSB1705:
 844              	.L39:
 845              		.cfi_def_cfa_offset 32
 846              		.cfi_offset 6, -24
 847              		.cfi_offset 12, -16
 848 0070 4889EF   		movq	%rbp, %rdi
 849 0073 E8000000 		call	_ZdlPv@PLT
 849      00
 850 0078 4C89E7   		movq	%r12, %rdi
 851              	.LEHB15:
 852 007b E8000000 		call	_Unwind_Resume@PLT
 852      00
 853              	.LEHE15:
 854              		.cfi_endproc
 855              	.LFE1705:
 856              		.section	.gcc_except_table
 857              	.LLSDAC1705:
 858 0078 FF       		.byte	0xff
 859 0079 FF       		.byte	0xff
 860 007a 01       		.byte	0x1
 861 007b 04       		.uleb128 .LLSDACSEC1705-.LLSDACSBC1705
 862              	.LLSDACSBC1705:
 863 007c 0B       		.uleb128 .LEHB15-.LCOLDB7
 864 007d 05       		.uleb128 .LEHE15-.LEHB15
 865 007e 00       		.uleb128 0
 866 007f 00       		.uleb128 0
 867              	.LLSDACSEC1705:
 868              		.section	.text.unlikely
 869              		.text
 871              		.section	.text.unlikely
 873              	.LCOLDE7:
 874              		.text
 875              	.LHOTE7:
 876              		.section	.text._ZN8UnitTest15MemoryOutStreamD1Ev,"axG",@progbits,_ZN8UnitTest15MemoryOutStreamD1Ev
 877              		.align 2
 878              		.p2align 4
 879              		.weak	_ZN8UnitTest15MemoryOutStreamD1Ev
 881              	_ZN8UnitTest15MemoryOutStreamD1Ev:
 882              	.LFB1708:
 883              		.cfi_startproc
 884 0000 F30F1EFA 		endbr64
 885 0004 55       		pushq	%rbp
 886              		.cfi_def_cfa_offset 16
 887              		.cfi_offset 6, -16
 888 0005 488D0500 		leaq	24+_ZTVN8UnitTest15MemoryOutStreamE(%rip), %rax
 888      000000
 889 000c 53       		pushq	%rbx
 890              		.cfi_def_cfa_offset 24
 891              		.cfi_offset 3, -24
 892 000d 4889FB   		movq	%rdi, %rbx
 893 0010 4883EC08 		subq	$8, %rsp
 894              		.cfi_def_cfa_offset 32
 895 0014 488907   		movq	%rax, (%rdi)
 896 0017 4883C028 		addq	$40, %rax
 897 001b 48898790 		movq	%rax, 144(%rdi)
 897      000000
 898 0022 488B7F70 		movq	112(%rdi), %rdi
 899 0026 488D8380 		leaq	128(%rbx), %rax
 899      000000
 900 002d 4839C7   		cmpq	%rax, %rdi
 901 0030 7405     		je	.L43
 902 0032 E8000000 		call	_ZdlPv@PLT
 902      00
 903              	.L43:
 904 0037 488D0500 		leaq	64+_ZTCN8UnitTest15MemoryOutStreamE0_NSt7__cxx1119basic_ostringstreamIcSt11char_traitsIcESaIc
 904      000000
 905 003e 488D1500 		leaq	24+_ZTCN8UnitTest15MemoryOutStreamE0_NSt7__cxx1119basic_ostringstreamIcSt11char_traitsIcESaIc
 905      000000
 906 0045 488B7B50 		movq	80(%rbx), %rdi
 907 0049 48898390 		movq	%rax, 144(%rbx)
 907      000000
 908 0050 488D0500 		leaq	16+_ZTVNSt7__cxx1115basic_stringbufIcSt11char_traitsIcESaIcEEE(%rip), %rax
 908      000000
 909 0057 66480F6E 		movq	%rdx, %xmm0
 909      C2
 910 005c 488DAB90 		leaq	144(%rbx), %rbp
 910      000000
 911 0063 66480F6E 		movq	%rax, %xmm1
 911      C8
 912 0068 488D4360 		leaq	96(%rbx), %rax
 913 006c 660F6CC1 		punpcklqdq	%xmm1, %xmm0
 914 0070 0F1103   		movups	%xmm0, (%rbx)
 915 0073 4839C7   		cmpq	%rax, %rdi
 916 0076 7405     		je	.L44
 917 0078 E8000000 		call	_ZdlPv@PLT
 917      00
 918              	.L44:
 919 007d 488D0500 		leaq	16+_ZTVSt15basic_streambufIcSt11char_traitsIcEE(%rip), %rax
 919      000000
 920 0084 488D7B40 		leaq	64(%rbx), %rdi
 921 0088 48894308 		movq	%rax, 8(%rbx)
 922 008c E8000000 		call	_ZNSt6localeD1Ev@PLT
 922      00
 923 0091 488D0500 		leaq	24+_ZTCN8UnitTest15MemoryOutStreamE0_So(%rip), %rax
 923      000000
 924 0098 4889EF   		movq	%rbp, %rdi
 925 009b 488903   		movq	%rax, (%rbx)
 926 009e 488D0500 		leaq	16+_ZTVSt9basic_iosIcSt11char_traitsIcEE(%rip), %rax
 926      000000
 927 00a5 48898390 		movq	%rax, 144(%rbx)
 927      000000
 928 00ac 4883C408 		addq	$8, %rsp
 929              		.cfi_def_cfa_offset 24
 930 00b0 5B       		popq	%rbx
 931              		.cfi_def_cfa_offset 16
 932 00b1 5D       		popq	%rbp
 933              		.cfi_def_cfa_offset 8
 934 00b2 E9000000 		jmp	_ZNSt8ios_baseD2Ev@PLT
 934      00
 935              		.cfi_endproc
 936              	.LFE1708:
 938 00b7 660F1F84 		.p2align 4
 938      00000000 
 938      00
 939              		.weak	_ZTv0_n24_N8UnitTest15MemoryOutStreamD1Ev
 941              	_ZTv0_n24_N8UnitTest15MemoryOutStreamD1Ev:
 942              	.LFB1776:
 943              		.cfi_startproc
 944 00c0 F30F1EFA 		endbr64
 945 00c4 55       		pushq	%rbp
 946              		.cfi_def_cfa_offset 16
 947              		.cfi_offset 6, -16
 948 00c5 53       		pushq	%rbx
 949              		.cfi_def_cfa_offset 24
 950              		.cfi_offset 3, -24
 951 00c6 4889FB   		movq	%rdi, %rbx
 952 00c9 4883EC08 		subq	$8, %rsp
 953              		.cfi_def_cfa_offset 32
 954 00cd 488B07   		movq	(%rdi), %rax
 955 00d0 480358E8 		addq	-24(%rax), %rbx
 956 00d4 488D0500 		leaq	24+_ZTVN8UnitTest15MemoryOutStreamE(%rip), %rax
 956      000000
 957 00db 488903   		movq	%rax, (%rbx)
 958 00de 488B7B70 		movq	112(%rbx), %rdi
 959 00e2 4883C028 		addq	$40, %rax
 960 00e6 48898390 		movq	%rax, 144(%rbx)
 960      000000
 961 00ed 488D8380 		leaq	128(%rbx), %rax
 961      000000
 962 00f4 4839C7   		cmpq	%rax, %rdi
 963 00f7 7405     		je	.L47
 964 00f9 E8000000 		call	_ZdlPv@PLT
 964      00
 965              	.L47:
 966 00fe 488D0500 		leaq	64+_ZTCN8UnitTest15MemoryOutStreamE0_NSt7__cxx1119basic_ostringstreamIcSt11char_traitsIcESaIc
 966      000000
 967 0105 488D1500 		leaq	24+_ZTCN8UnitTest15MemoryOutStreamE0_NSt7__cxx1119basic_ostringstreamIcSt11char_traitsIcESaIc
 967      000000
 968 010c 488B7B50 		movq	80(%rbx), %rdi
 969 0110 48898390 		movq	%rax, 144(%rbx)
 969      000000
 970 0117 488D0500 		leaq	16+_ZTVNSt7__cxx1115basic_stringbufIcSt11char_traitsIcESaIcEEE(%rip), %rax
 970      000000
 971 011e 66480F6E 		movq	%rdx, %xmm0
 971      C2
 972 0123 488DAB90 		leaq	144(%rbx), %rbp
 972      000000
 973 012a 66480F6E 		movq	%rax, %xmm1
 973      C8
 974 012f 488D4360 		leaq	96(%rbx), %rax
 975 0133 660F6CC1 		punpcklqdq	%xmm1, %xmm0
 976 0137 0F1103   		movups	%xmm0, (%rbx)
 977 013a 4839C7   		cmpq	%rax, %rdi
 978 013d 7405     		je	.L48
 979 013f E8000000 		call	_ZdlPv@PLT
 979      00
 980              	.L48:
 981 0144 488D0500 		leaq	16+_ZTVSt15basic_streambufIcSt11char_traitsIcEE(%rip), %rax
 981      000000
 982 014b 488D7B40 		leaq	64(%rbx), %rdi
 983 014f 48894308 		movq	%rax, 8(%rbx)
 984 0153 E8000000 		call	_ZNSt6localeD1Ev@PLT
 984      00
 985 0158 488D0500 		leaq	24+_ZTCN8UnitTest15MemoryOutStreamE0_So(%rip), %rax
 985      000000
 986 015f 4889EF   		movq	%rbp, %rdi
 987 0162 488903   		movq	%rax, (%rbx)
 988 0165 488D0500 		leaq	16+_ZTVSt9basic_iosIcSt11char_traitsIcEE(%rip), %rax
 988      000000
 989 016c 48898390 		movq	%rax, 144(%rbx)
 989      000000
 990 0173 4883C408 		addq	$8, %rsp
 991              		.cfi_def_cfa_offset 24
 992 0177 5B       		popq	%rbx
 993              		.cfi_def_cfa_offset 16
 994 0178 5D       		popq	%rbp
 995              		.cfi_def_cfa_offset 8
 996 0179 E9000000 		jmp	_ZNSt8ios_baseD2Ev@PLT
 996      00
 997              		.cfi_endproc
 998              	.LFE1776:
 1000              		.section	.text._ZN8UnitTest15MemoryOutStreamD0Ev,"axG",@progbits,_ZN8UnitTest15MemoryOutStreamD0Ev
 1001              		.align 2
 1002              		.p2align 4
 1003              		.weak	_ZN8UnitTest15MemoryOutStreamD0Ev
 1005              	_ZN8UnitTest15MemoryOutStreamD0Ev:
 1006              	.LFB1709:
 1007              		.cfi_startproc
 1008              		.cfi_personality 0x9b,DW.ref.__gxx_personality_v0
 1009              		.cfi_lsda 0x1b,.LLSDA1709
 1010 0000 F30F1EFA 		endbr64
 1011 0004 4154     		pushq	%r12
 1012              		.cfi_def_cfa_offset 16
 1013              		.cfi_offset 12, -16
 1014 0006 488D0500 		leaq	24+_ZTVN8UnitTest15MemoryOutStreamE(%rip), %rax
 1014      000000
 1015 000d 55       		pushq	%rbp
 1016              		.cfi_def_cfa_offset 24
 1017              		.cfi_offset 6, -24
 1018 000e 4889FD   		movq	%rdi, %rbp
 1019 0011 4883EC08 		subq	$8, %rsp
 1020              		.cfi_def_cfa_offset 32
 1021 0015 488907   		movq	%rax, (%rdi)
 1022 0018 4883C028 		addq	$40, %rax
 1023 001c 48898790 		movq	%rax, 144(%rdi)
 1023      000000
 1024 0023 488B7F70 		movq	112(%rdi), %rdi
 1025 0027 488D8580 		leaq	128(%rbp), %rax
 1025      000000
 1026 002e 4839C7   		cmpq	%rax, %rdi
 1027 0031 7405     		je	.L51
 1028 0033 E8000000 		call	_ZdlPv@PLT
 1028      00
 1029              	.L51:
 1030 0038 488D0500 		leaq	64+_ZTCN8UnitTest15MemoryOutStreamE0_NSt7__cxx1119basic_ostringstreamIcSt11char_traitsIcESaIc
 1030      000000
 1031 003f 488D1500 		leaq	24+_ZTCN8UnitTest15MemoryOutStreamE0_NSt7__cxx1119basic_ostringstreamIcSt11char_traitsIcESaIc
 1031      000000
 1032 0046 488B7D50 		movq	80(%rbp), %rdi
 1033 004a 48898590 		movq	%rax, 144(%rbp)
 1033      000000
 1034 0051 488D0500 		leaq	16+_ZTVNSt7__cxx1115basic_stringbufIcSt11char_traitsIcESaIcEEE(%rip), %rax
 1034      000000
 1035 0058 66480F6E 		movq	%rdx, %xmm0
 1035      C2
 1036 005d 4C8DA590 		leaq	144(%rbp), %r12
 1036      000000
 1037 0064 66480F6E 		movq	%rax, %xmm1
 1037      C8
 1038 0069 488D4560 		leaq	96(%rbp), %rax
 1039 006d 660F6CC1 		punpcklqdq	%xmm1, %xmm0
 1040 0071 0F114500 		movups	%xmm0, 0(%rbp)
 1041 0075 4839C7   		cmpq	%rax, %rdi
 1042 0078 7405     		je	.L52
 1043 007a E8000000 		call	_ZdlPv@PLT
 1043      00
 1044              	.L52:
 1045 007f 488D0500 		leaq	16+_ZTVSt15basic_streambufIcSt11char_traitsIcEE(%rip), %rax
 1045      000000
 1046 0086 488D7D40 		leaq	64(%rbp), %rdi
 1047 008a 48894508 		movq	%rax, 8(%rbp)
 1048 008e E8000000 		call	_ZNSt6localeD1Ev@PLT
 1048      00
 1049 0093 488D0500 		leaq	24+_ZTCN8UnitTest15MemoryOutStreamE0_So(%rip), %rax
 1049      000000
 1050 009a 4C89E7   		movq	%r12, %rdi
 1051 009d 48894500 		movq	%rax, 0(%rbp)
 1052 00a1 488D0500 		leaq	16+_ZTVSt9basic_iosIcSt11char_traitsIcEE(%rip), %rax
 1052      000000
 1053 00a8 48898590 		movq	%rax, 144(%rbp)
 1053      000000
 1054              	.LEHB16:
 1055 00af E8000000 		call	_ZNSt8ios_baseD2Ev@PLT
 1055      00
 1056              	.LEHE16:
 1057 00b4 4883C408 		addq	$8, %rsp
 1058              		.cfi_remember_state
 1059              		.cfi_def_cfa_offset 24
 1060 00b8 4889EF   		movq	%rbp, %rdi
 1061 00bb 5D       		popq	%rbp
 1062              		.cfi_def_cfa_offset 16
 1063 00bc 415C     		popq	%r12
 1064              		.cfi_def_cfa_offset 8
 1065 00be E9000000 		jmp	_ZdlPv@PLT
 1065      00
 1066              	.L54:
 1067              		.cfi_restore_state
 1068 00c3 F30F1EFA 		endbr64
 1069 00c7 4989C4   		movq	%rax, %r12
 1070              	.L53:
 1071 00ca 4889EF   		movq	%rbp, %rdi
 1072 00cd E8000000 		call	_ZdlPv@PLT
 1072      00
 1073 00d2 4C89E7   		movq	%r12, %rdi
 1074              	.LEHB17:
 1075 00d5 E8000000 		call	_Unwind_Resume@PLT
 1075      00
 1076              	.LEHE17:
 1077              		.cfi_endproc
 1078              	.LFE1709:
 1079              		.section	.gcc_except_table
 1080              	.LLSDA1709:
 1081 0080 FF       		.byte	0xff
 1082 0081 FF       		.byte	0xff
 1083 0082 01       		.byte	0x1
 1084 0083 0B       		.uleb128 .LLSDACSE1709-.LLSDACSB1709
 1085              	.LLSDACSB1709:
 1086 0084 AF01     		.uleb128 .LEHB16-.LFB1709
 1087 0086 05       		.uleb128 .LEHE16-.LEHB16
 1088 0087 C301     		.uleb128 .L54-.LFB1709
 1089 0089 00       		.uleb128 0
 1090 008a D501     		.uleb128 .LEHB17-.LFB1709
 1091 008c 05       		.uleb128 .LEHE17-.LEHB17
 1092 008d 00       		.uleb128 0
 1093 008e 00       		.uleb128 0
 1094              	.LLSDACSE1709:
 1095              		.section	.text._ZN8UnitTest15MemoryOutStreamD0Ev,"axG",@progbits,_ZN8UnitTest15MemoryOutStreamD0Ev
 1097 00da 660F1F44 		.p2align 4
 1097      0000
 1098              		.weak	_ZTv0_n24_N8UnitTest15MemoryOutStreamD0Ev
 1100              	_ZTv0_n24_N8UnitTest15MemoryOutStreamD0Ev:
 1101              	.LFB1775:
 1102              		.cfi_startproc
 1103              		.cfi_personality 0x9b,DW.ref.__gxx_personality_v0
 1104              		.cfi_lsda 0x1b,.LLSDA1775
 1105 00e0 F30F1EFA 		endbr64
 1106 00e4 4154     		pushq	%r12
 1107              		.cfi_def_cfa_offset 16
 1108              		.cfi_offset 12, -16
 1109 00e6 55       		pushq	%rbp
 1110              		.cfi_def_cfa_offset 24
 1111              		.cfi_offset 6, -24
 1112 00e7 4889FD   		movq	%rdi, %rbp
 1113 00ea 4883EC08 		subq	$8, %rsp
 1114              		.cfi_def_cfa_offset 32
 1115 00ee 488B07   		movq	(%rdi), %rax
 1116 00f1 480368E8 		addq	-24(%rax), %rbp
 1117 00f5 488D0500 		leaq	24+_ZTVN8UnitTest15MemoryOutStreamE(%rip), %rax
 1117      000000
 1118 00fc 48894500 		movq	%rax, 0(%rbp)
 1119 0100 488B7D70 		movq	112(%rbp), %rdi
 1120 0104 4883C028 		addq	$40, %rax
 1121 0108 48898590 		movq	%rax, 144(%rbp)
 1121      000000
 1122 010f 488D8580 		leaq	128(%rbp), %rax
 1122      000000
 1123 0116 4839C7   		cmpq	%rax, %rdi
 1124 0119 7405     		je	.L57
 1125 011b E8000000 		call	_ZdlPv@PLT
 1125      00
 1126              	.L57:
 1127 0120 488D0500 		leaq	64+_ZTCN8UnitTest15MemoryOutStreamE0_NSt7__cxx1119basic_ostringstreamIcSt11char_traitsIcESaIc
 1127      000000
 1128 0127 488D1500 		leaq	24+_ZTCN8UnitTest15MemoryOutStreamE0_NSt7__cxx1119basic_ostringstreamIcSt11char_traitsIcESaIc
 1128      000000
 1129 012e 488B7D50 		movq	80(%rbp), %rdi
 1130 0132 48898590 		movq	%rax, 144(%rbp)
 1130      000000
 1131 0139 488D0500 		leaq	16+_ZTVNSt7__cxx1115basic_stringbufIcSt11char_traitsIcESaIcEEE(%rip), %rax
 1131      000000
 1132 0140 66480F6E 		movq	%rdx, %xmm0
 1132      C2
 1133 0145 4C8DA590 		leaq	144(%rbp), %r12
 1133      000000
 1134 014c 66480F6E 		movq	%rax, %xmm1
 1134      C8
 1135 0151 488D4560 		leaq	96(%rbp), %rax
 1136 0155 660F6CC1 		punpcklqdq	%xmm1, %xmm0
 1137 0159 0F114500 		movups	%xmm0, 0(%rbp)
 1138 015d 4839C7   		cmpq	%rax, %rdi
 1139 0160 7405     		je	.L58
 1140 0162 E8000000 		call	_ZdlPv@PLT
 1140      00
 1141              	.L58:
 1142 0167 488D0500 		leaq	16+_ZTVSt15basic_streambufIcSt11char_traitsIcEE(%rip), %rax
 1142      000000
 1143 016e 488D7D40 		leaq	64(%rbp), %rdi
 1144 0172 48894508 		movq	%rax, 8(%rbp)
 1145 0176 E8000000 		call	_ZNSt6localeD1Ev@PLT
 1145      00
 1146 017b 488D0500 		leaq	24+_ZTCN8UnitTest15MemoryOutStreamE0_So(%rip), %rax
 1146      000000
 1147 0182 4C89E7   		movq	%r12, %rdi
 1148 0185 48894500 		movq	%rax, 0(%rbp)
 1149 0189 488D0500 		leaq	16+_ZTVSt9basic_iosIcSt11char_traitsIcEE(%rip), %rax
 1149      000000
 1150 0190 48898590 		movq	%rax, 144(%rbp)
 1150      000000
 1151              	.LEHB18:
 1152 0197 E8000000 		call	_ZNSt8ios_baseD2Ev@PLT
 1152      00
 1153              	.LEHE18:
 1154 019c 4883C408 		addq	$8, %rsp
 1155              		.cfi_remember_state
 1156              		.cfi_def_cfa_offset 24
 1157 01a0 4889EF   		movq	%rbp, %rdi
 1158 01a3 5D       		popq	%rbp
 1159              		.cfi_def_cfa_offset 16
 1160 01a4 415C     		popq	%r12
 1161              		.cfi_def_cfa_offset 8
 1162 01a6 E9000000 		jmp	_ZdlPv@PLT
 1162      00
 1163              	.L60:
 1164              		.cfi_restore_state
 1165 01ab F30F1EFA 		endbr64
 1166 01af 4989C4   		movq	%rax, %r12
 1167              	.L59:
 1168 01b2 4889EF   		movq	%rbp, %rdi
 1169 01b5 E8000000 		call	_ZdlPv@PLT
 1169      00
 1170 01ba 4C89E7   		movq	%r12, %rdi
 1171              	.LEHB19:
 1172 01bd E8000000 		call	_Unwind_Resume@PLT
 1172      00
 1173              	.LEHE19:
 1174              		.cfi_endproc
 1175              	.LFE1775:
 1176              		.section	.gcc_except_table
 1177              	.LLSDA1775:
 1178 008f FF       		.byte	0xff
 1179 0090 FF       		.byte	0xff
 1180 0091 01       		.byte	0x1
 1181 0092 0B       		.uleb128 .LLSDACSE1775-.LLSDACSB1775
 1182              	.LLSDACSB1775:
 1183 0093 B701     		.uleb128 .LEHB18-.LFB1775
 1184 0095 05       		.uleb128 .LEHE18-.LEHB18
 1185 0096 CB01     		.uleb128 .L60-.LFB1775
 1186 0098 00       		.uleb128 0
 1187 0099 DD01     		.uleb128 .LEHB19-.LFB1775
 1188 009b 05       		.uleb128 .LEHE19-.LEHB19
 1189 009c 00       		.uleb128 0
 1190 009d 00       		.uleb128 0
 1191              	.LLSDACSE1775:
 1192              		.section	.text._ZN8UnitTest15MemoryOutStreamD0Ev,"axG",@progbits,_ZN8UnitTest15MemoryOutStreamD0Ev
 1194              		.section	.text._ZNSt7__cxx1115basic_stringbufIcSt11char_traitsIcESaIcEED2Ev,"axG",@progbits,_ZNSt7
 1195              		.align 2
 1196              		.p2align 4
 1197              		.weak	_ZNSt7__cxx1115basic_stringbufIcSt11char_traitsIcESaIcEED2Ev
 1199              	_ZNSt7__cxx1115basic_stringbufIcSt11char_traitsIcESaIcEED2Ev:
 1200              	.LFB1548:
 1201              		.cfi_startproc
 1202 0000 F30F1EFA 		endbr64
 1203 0004 488D0500 		leaq	16+_ZTVNSt7__cxx1115basic_stringbufIcSt11char_traitsIcESaIcEEE(%rip), %rax
 1203      000000
 1204 000b 53       		pushq	%rbx
 1205              		.cfi_def_cfa_offset 16
 1206              		.cfi_offset 3, -16
 1207 000c 4889FB   		movq	%rdi, %rbx
 1208 000f 488907   		movq	%rax, (%rdi)
 1209 0012 488B7F48 		movq	72(%rdi), %rdi
 1210 0016 488D4358 		leaq	88(%rbx), %rax
 1211 001a 4839C7   		cmpq	%rax, %rdi
 1212 001d 7405     		je	.L63
 1213 001f E8000000 		call	_ZdlPv@PLT
 1213      00
 1214              	.L63:
 1215 0024 488D0500 		leaq	16+_ZTVSt15basic_streambufIcSt11char_traitsIcEE(%rip), %rax
 1215      000000
 1216 002b 488D7B38 		leaq	56(%rbx), %rdi
 1217 002f 488903   		movq	%rax, (%rbx)
 1218 0032 5B       		popq	%rbx
 1219              		.cfi_def_cfa_offset 8
 1220 0033 E9000000 		jmp	_ZNSt6localeD1Ev@PLT
 1220      00
 1221              		.cfi_endproc
 1222              	.LFE1548:
 1224              		.weak	_ZNSt7__cxx1115basic_stringbufIcSt11char_traitsIcESaIcEED1Ev
 1225              		.set	_ZNSt7__cxx1115basic_stringbufIcSt11char_traitsIcESaIcEED1Ev,_ZNSt7__cxx1115basic_stringbufIc
 1226              		.section	.text._ZN8UnitTest15MemoryOutStreamC1Ev,"axG",@progbits,_ZN8UnitTest15MemoryOutStreamC1Ev
 1227              		.align 2
 1228              		.p2align 4
 1229              		.weak	_ZN8UnitTest15MemoryOutStreamC1Ev
 1231              	_ZN8UnitTest15MemoryOutStreamC1Ev:
 1232              	.LFB1156:
 1233              		.cfi_startproc
 1234              		.cfi_personality 0x9b,DW.ref.__gxx_personality_v0
 1235              		.cfi_lsda 0x1b,.LLSDA1156
 1236 0000 F30F1EFA 		endbr64
 1237 0004 4156     		pushq	%r14
 1238              		.cfi_def_cfa_offset 16
 1239              		.cfi_offset 14, -16
 1240 0006 4155     		pushq	%r13
 1241              		.cfi_def_cfa_offset 24
 1242              		.cfi_offset 13, -24
 1243 0008 4154     		pushq	%r12
 1244              		.cfi_def_cfa_offset 32
 1245              		.cfi_offset 12, -32
 1246 000a 4C8D2500 		leaq	24+_ZTCN8UnitTest15MemoryOutStreamE0_So(%rip), %r12
 1246      000000
 1247 0011 55       		pushq	%rbp
 1248              		.cfi_def_cfa_offset 40
 1249              		.cfi_offset 6, -40
 1250 0012 488DAF90 		leaq	144(%rdi), %rbp
 1250      000000
 1251 0019 53       		pushq	%rbx
 1252              		.cfi_def_cfa_offset 48
 1253              		.cfi_offset 3, -48
 1254 001a 4889FB   		movq	%rdi, %rbx
 1255 001d 4889EF   		movq	%rbp, %rdi
 1256 0020 E8000000 		call	_ZNSt8ios_baseC2Ev@PLT
 1256      00
 1257 0025 31C0     		xorl	%eax, %eax
 1258 0027 4C8923   		movq	%r12, (%rbx)
 1259 002a 660FEFC0 		pxor	%xmm0, %xmm0
 1260 002e 66898370 		movw	%ax, 368(%rbx)
 1260      010000
 1261 0035 498D4424 		leaq	40(%r12), %rax
 1261      28
 1262 003a 31F6     		xorl	%esi, %esi
 1263 003c 4889EF   		movq	%rbp, %rdi
 1264 003f 48C78368 		movq	$0, 360(%rbx)
 1264      01000000 
 1264      000000
 1265 004a 48898390 		movq	%rax, 144(%rbx)
 1265      000000
 1266 0051 0F118378 		movups	%xmm0, 376(%rbx)
 1266      010000
 1267 0058 0F118388 		movups	%xmm0, 392(%rbx)
 1267      010000
 1268              	.LEHB20:
 1269 005f E8000000 		call	_ZNSt9basic_iosIcSt11char_traitsIcEE4initEPSt15basic_streambufIcS1_E@PLT
 1269      00
 1270              	.LEHE20:
 1271 0064 488D0500 		leaq	64+_ZTCN8UnitTest15MemoryOutStreamE0_NSt7__cxx1119basic_ostringstreamIcSt11char_traitsIcESaIc
 1271      000000
 1272 006b 488D1500 		leaq	24+_ZTCN8UnitTest15MemoryOutStreamE0_NSt7__cxx1119basic_ostringstreamIcSt11char_traitsIcESaIc
 1272      000000
 1273 0072 48898390 		movq	%rax, 144(%rbx)
 1273      000000
 1274 0079 488D0500 		leaq	16+_ZTVSt15basic_streambufIcSt11char_traitsIcEE(%rip), %rax
 1274      000000
 1275 0080 66480F6E 		movq	%rdx, %xmm0
 1275      C2
 1276 0085 488D7B40 		leaq	64(%rbx), %rdi
 1277 0089 66480F6E 		movq	%rax, %xmm1
 1277      C8
 1278 008e 4C8D6B08 		leaq	8(%rbx), %r13
 1279 0092 660F6CC1 		punpcklqdq	%xmm1, %xmm0
 1280 0096 0F1103   		movups	%xmm0, (%rbx)
 1281 0099 660FEFC0 		pxor	%xmm0, %xmm0
 1282 009d 0F114310 		movups	%xmm0, 16(%rbx)
 1283 00a1 0F114320 		movups	%xmm0, 32(%rbx)
 1284 00a5 0F114330 		movups	%xmm0, 48(%rbx)
 1285 00a9 E8000000 		call	_ZNSt6localeC1Ev@PLT
 1285      00
 1286 00ae 488D0500 		leaq	16+_ZTVNSt7__cxx1115basic_stringbufIcSt11char_traitsIcESaIcEEE(%rip), %rax
 1286      000000
 1287 00b5 C6436000 		movb	$0, 96(%rbx)
 1288 00b9 4C89EE   		movq	%r13, %rsi
 1289 00bc 48894308 		movq	%rax, 8(%rbx)
 1290 00c0 488D4360 		leaq	96(%rbx), %rax
 1291 00c4 48894350 		movq	%rax, 80(%rbx)
 1292 00c8 488B03   		movq	(%rbx), %rax
 1293 00cb 48C74358 		movq	$0, 88(%rbx)
 1293      00000000 
 1294 00d3 C7434810 		movl	$16, 72(%rbx)
 1294      000000
 1295 00da 488B78E8 		movq	-24(%rax), %rdi
 1296 00de 4801DF   		addq	%rbx, %rdi
 1297              	.LEHB21:
 1298 00e1 E8000000 		call	_ZNSt9basic_iosIcSt11char_traitsIcEE4initEPSt15basic_streambufIcS1_E@PLT
 1298      00
 1299              	.LEHE21:
 1300 00e6 488D0500 		leaq	24+_ZTVN8UnitTest15MemoryOutStreamE(%rip), %rax
 1300      000000
 1301 00ed 48C74378 		movq	$0, 120(%rbx)
 1301      00000000 
 1302 00f5 488903   		movq	%rax, (%rbx)
 1303 00f8 4883C028 		addq	$40, %rax
 1304 00fc 48898390 		movq	%rax, 144(%rbx)
 1304      000000
 1305 0103 488D8380 		leaq	128(%rbx), %rax
 1305      000000
 1306 010a 48894370 		movq	%rax, 112(%rbx)
 1307 010e C6838000 		movb	$0, 128(%rbx)
 1307      000000
 1308 0115 5B       		popq	%rbx
 1309              		.cfi_remember_state
 1310              		.cfi_def_cfa_offset 40
 1311 0116 5D       		popq	%rbp
 1312              		.cfi_def_cfa_offset 32
 1313 0117 415C     		popq	%r12
 1314              		.cfi_def_cfa_offset 24
 1315 0119 415D     		popq	%r13
 1316              		.cfi_def_cfa_offset 16
 1317 011b 415E     		popq	%r14
 1318              		.cfi_def_cfa_offset 8
 1319 011d C3       		ret
 1320              	.L69:
 1321              		.cfi_restore_state
 1322 011e F30F1EFA 		endbr64
 1323 0122 4989C6   		movq	%rax, %r14
 1324 0125 EB12     		jmp	.L68
 1325              	.L70:
 1326 0127 F30F1EFA 		endbr64
 1327 012b 4989C6   		movq	%rax, %r14
 1328              	.L67:
 1329 012e 4C89EF   		movq	%r13, %rdi
 1330 0131 E8000000 		call	_ZNSt7__cxx1115basic_stringbufIcSt11char_traitsIcESaIcEED1Ev
 1330      00
 1331 0136 4C8923   		movq	%r12, (%rbx)
 1332              	.L68:
 1333 0139 488D0500 		leaq	16+_ZTVSt9basic_iosIcSt11char_traitsIcEE(%rip), %rax
 1333      000000
 1334 0140 4889EF   		movq	%rbp, %rdi
 1335 0143 48898390 		movq	%rax, 144(%rbx)
 1335      000000
 1336 014a E8000000 		call	_ZNSt8ios_baseD2Ev@PLT
 1336      00
 1337 014f 4C89F7   		movq	%r14, %rdi
 1338              	.LEHB22:
 1339 0152 E8000000 		call	_Unwind_Resume@PLT
 1339      00
 1340              	.LEHE22:
 1341              		.cfi_endproc
 1342              	.LFE1156:
 1343              		.section	.gcc_except_table
 1344              	.LLSDA1156:
 1345 009e FF       		.byte	0xff
 1346 009f FF       		.byte	0xff
 1347 00a0 01       		.byte	0x1
 1348 00a1 10       		.uleb128 .LLSDACSE1156-.LLSDACSB1156
 1349              	.LLSDACSB1156:
 1350 00a2 5F       		.uleb128 .LEHB20-.LFB1156
 1351 00a3 05       		.uleb128 .LEHE20-.LEHB20
 1352 00a4 9E02     		.uleb128 .L69-.LFB1156
 1353 00a6 00       		.uleb128 0
 1354 00a7 E101     		.uleb128 .LEHB21-.LFB1156
 1355 00a9 05       		.uleb128 .LEHE21-.LEHB21
 1356 00aa A702     		.uleb128 .L70-.LFB1156
 1357 00ac 00       		.uleb128 0
 1358 00ad D202     		.uleb128 .LEHB22-.LFB1156
 1359 00af 05       		.uleb128 .LEHE22-.LEHB22
 1360 00b0 00       		.uleb128 0
 1361 00b1 00       		.uleb128 0
 1362              	.LLSDACSE1156:
 1363              		.section	.text._ZN8UnitTest15MemoryOutStreamC1Ev,"axG",@progbits,_ZN8UnitTest15MemoryOutStreamC1Ev
 1365              		.section	.rodata.str1.1,"aMS",@progbits,1
 1366              	.LC8:
 1367 0000 556E6861 		.string	"Unhandled system exception"
 1367      6E646C65 
 1367      64207379 
 1367      7374656D 
 1367      20657863 
 1368              	.LC9:
 1369 001b 00       		.string	""
 1370              	.LC10:
 1371 001c 6D657373 		.string	"message"
 1371      61676500 
 1372              	.LC12:
 1373 0024 6F757470 		.string	"output.str().empty()"
 1373      75742E73 
 1373      74722829 
 1373      2E656D70 
 1373      74792829 
 1374              	.LC13:
 1375 0039 216F7574 		.string	"!output.str().empty()"
 1375      7075742E 
 1375      73747228 
 1375      292E656D 
 1375      70747928 
 1376              		.section	.rodata.str1.8,"aMS",@progbits,1
 1377              		.align 8
 1378              	.LC14:
 1379 0000 556E6861 		.string	"Unhandled exception in CHECK(output.str().empty())"
 1379      6E646C65 
 1379      64206578 
 1379      63657074 
 1379      696F6E20 
 1380 0033 00000000 		.align 8
 1380      00
 1381              	.LC15:
 1382 0038 556E6861 		.string	"Unhandled exception in CHECK(!output.str().empty())"
 1382      6E646C65 
 1382      64206578 
 1382      63657074 
 1382      696F6E20 
 1383              		.section	.rodata.str1.1
 1384              	.LC16:
 1385 004f 556E6861 		.string	"Unhandled exception: "
 1385      6E646C65 
 1385      64206578 
 1385      63657074 
 1385      696F6E3A 
 1386              	.LC17:
 1387 0065 556E6861 		.string	"Unhandled exception: Crash!"
 1387      6E646C65 
 1387      64206578 
 1387      63657074 
 1387      696F6E3A 
 1388              		.section	.text.unlikely
 1389              	.LCOLDB18:
 1390              		.text
 1391              	.LHOTB18:
 1392 02f8 0F1F8400 		.p2align 4
 1392      00000000 
 1394              	_ZN8UnitTest11ExecuteTestIN12_GLOBAL__N_168XmlTestReporterFixtureOutputIsCachedUntilReportSummaryIs
 1395              	.LFB1570:
 1396              		.cfi_startproc
 1397              		.cfi_personality 0x9b,DW.ref.__gxx_personality_v0
 1398              		.cfi_lsda 0x1b,.LLSDA1570
 1399 0300 4155     		pushq	%r13
 1400              		.cfi_def_cfa_offset 16
 1401              		.cfi_offset 13, -16
 1402 0302 4154     		pushq	%r12
 1403              		.cfi_def_cfa_offset 24
 1404              		.cfi_offset 12, -24
 1405 0304 55       		pushq	%rbp
 1406              		.cfi_def_cfa_offset 32
 1407              		.cfi_offset 6, -32
 1408 0305 53       		pushq	%rbx
 1409              		.cfi_def_cfa_offset 40
 1410              		.cfi_offset 3, -40
 1411 0306 4889F3   		movq	%rsi, %rbx
 1412 0309 4881EC28 		subq	$1832, %rsp
 1412      070000
 1413              		.cfi_def_cfa_offset 1872
 1414 0310 48893C24 		movq	%rdi, (%rsp)
 1415 0314 48897424 		movq	%rsi, 8(%rsp)
 1415      08
 1416 0319 64488B04 		movq	%fs:40, %rax
 1416      25280000 
 1416      00
 1417 0322 48898424 		movq	%rax, 1816(%rsp)
 1417      18070000 
 1418 032a 31C0     		xorl	%eax, %eax
 1419              	.LEHB23:
 1420 032c E8000000 		call	_ZN8UnitTest11CurrentTest7DetailsEv@PLT
 1420      00
 1421              	.LEHE23:
 1422 0331 488DBC24 		leaq	688(%rsp), %rdi
 1422      B0020000 
 1423 0339 488918   		movq	%rbx, (%rax)
 1424              	.LEHB24:
 1425 033c E8000000 		call	_ZN8UnitTest16SignalTranslatorC1Ev@PLT
 1425      00
 1426              	.LEHE24:
 1427 0341 488B3D00 		movq	_ZN8UnitTest16SignalTranslator12s_jumpTargetE(%rip), %rdi
 1427      000000
 1428 0348 BE010000 		movl	$1, %esi
 1428      00
 1429 034d E8000000 		call	__sigsetjmp@PLT
 1429      00
 1430 0352 F30F1EFA 		endbr64
 1431 0356 85C0     		testl	%eax, %eax
 1432 0358 0F850000 		jne	.L134
 1432      0000
 1433 035e 488D3500 		leaq	.LC9(%rip), %rsi
 1433      000000
 1434 0365 488D7C24 		leaq	48(%rsp), %rdi
 1434      30
 1435 036a 4531C0   		xorl	%r8d, %r8d
 1436 036d 4889F1   		movq	%rsi, %rcx
 1437 0370 4889F2   		movq	%rsi, %rdx
 1438              	.LEHB25:
 1439 0373 E8000000 		call	_ZN8UnitTest11TestDetailsC1EPKcS2_S2_i@PLT
 1439      00
 1440 0378 488B1C24 		movq	(%rsp), %rbx
 1441 037c 488D7424 		leaq	48(%rsp), %rsi
 1441      30
 1442 0381 488DAB78 		leaq	376(%rbx), %rbp
 1442      010000
 1443 0388 4889EF   		movq	%rbp, %rdi
 1444 038b E8000000 		call	_ZN8UnitTest20DeferredTestReporter15ReportTestStartERKNS_11TestDetailsE@PLT
 1444      00
 1445 0390 488D7424 		leaq	48(%rsp), %rsi
 1445      30
 1446 0395 488D1500 		leaq	.LC10(%rip), %rdx
 1446      000000
 1447 039c 4889EF   		movq	%rbp, %rdi
 1448 039f E8000000 		call	_ZN8UnitTest20DeferredTestReporter13ReportFailureERKNS_11TestDetailsEPKc@PLT
 1448      00
 1449 03a4 F30F1005 		movss	.LC11(%rip), %xmm0
 1449      00000000 
 1450 03ac 488D7424 		leaq	48(%rsp), %rsi
 1450      30
 1451 03b1 4889EF   		movq	%rbp, %rdi
 1452 03b4 E8000000 		call	_ZN8UnitTest20DeferredTestReporter16ReportTestFinishERKNS_11TestDetailsEf@PLT
 1452      00
 1453              	.LEHE25:
 1454 03b9 488D8424 		leaq	256(%rsp), %rax
 1454      00010000 
 1455 03c1 C6842400 		movb	$0, 256(%rsp)
 1455      01000000 
 1456 03c9 4C8D6350 		leaq	80(%rbx), %r12
 1457 03cd 48898424 		movq	%rax, 240(%rsp)
 1457      F0000000 
 1458 03d5 488B4330 		movq	48(%rbx), %rax
 1459 03d9 488DBC24 		leaq	240(%rsp), %rdi
 1459      F0000000 
 1460 03e1 48C78424 		movq	$0, 248(%rsp)
 1460      F8000000 
 1460      00000000 
 1461 03ed 4885C0   		testq	%rax, %rax
 1462 03f0 0F84FA01 		je	.L77
 1462      0000
 1463 03f6 4C8B4320 		movq	32(%rbx), %r8
 1464 03fa 4D85C0   		testq	%r8, %r8
 1465 03fd 0F844D01 		je	.L130
 1465      0000
 1466 0403 4C39C0   		cmpq	%r8, %rax
 1467 0406 0F874401 		ja	.L130
 1467      0000
 1468              	.L78:
 1469 040c 488B0424 		movq	(%rsp), %rax
 1470 0410 488DBC24 		leaq	240(%rsp), %rdi
 1470      F0000000 
 1471 0418 31D2     		xorl	%edx, %edx
 1472 041a 31F6     		xorl	%esi, %esi
 1473 041c 488B4828 		movq	40(%rax), %rcx
 1474 0420 4929C8   		subq	%rcx, %r8
 1475              	.LEHB26:
 1476 0423 E8000000 		call	_ZNSt7__cxx1112basic_stringIcSt11char_traitsIcESaIcEE10_M_replaceEmmPKcm@PLT
 1476      00
 1477              	.LEHE26:
 1478              	.L82:
 1479 0428 488BBC24 		movq	240(%rsp), %rdi
 1479      F0000000 
 1480 0430 488D8424 		leaq	256(%rsp), %rax
 1480      00010000 
 1481 0438 488B9C24 		movq	248(%rsp), %rbx
 1481      F8000000 
 1482 0440 4839C7   		cmpq	%rax, %rdi
 1483 0443 7405     		je	.L81
 1484 0445 E8000000 		call	_ZdlPv@PLT
 1484      00
 1485              	.L81:
 1486 044a 4885DB   		testq	%rbx, %rbx
 1487 044d 0F850D01 		jne	.L137
 1487      0000
 1488              	.L89:
 1489 0453 F30F1005 		movss	.LC11(%rip), %xmm0
 1489      00000000 
 1490 045b B9010000 		movl	$1, %ecx
 1490      00
 1491 0460 BA010000 		movl	$1, %edx
 1491      00
 1492 0465 4889EF   		movq	%rbp, %rdi
 1493 0468 BE010000 		movl	$1, %esi
 1493      00
 1494              	.LEHB27:
 1495 046d E8000000 		call	_ZN8UnitTest15XmlTestReporter13ReportSummaryEiiif@PLT
 1495      00
 1496              	.LEHE27:
 1497 0472 488B0C24 		movq	(%rsp), %rcx
 1498 0476 488D8424 		leaq	224(%rsp), %rax
 1498      E0000000 
 1499 047e 48C78424 		movq	$0, 216(%rsp)
 1499      D8000000 
 1499      00000000 
 1500 048a 488DBC24 		leaq	208(%rsp), %rdi
 1500      D0000000 
 1501 0492 48898424 		movq	%rax, 208(%rsp)
 1501      D0000000 
 1502 049a 488B4130 		movq	48(%rcx), %rax
 1503 049e C68424E0 		movb	$0, 224(%rsp)
 1503      00000000 
 1504 04a6 4885C0   		testq	%rax, %rax
 1505 04a9 0F843101 		je	.L90
 1505      0000
 1506 04af 4C8B4120 		movq	32(%rcx), %r8
 1507 04b3 4D85C0   		testq	%r8, %r8
 1508 04b6 0F848400 		je	.L131
 1508      0000
 1509 04bc 4C39C0   		cmpq	%r8, %rax
 1510 04bf 777F     		ja	.L131
 1511              	.L91:
 1512 04c1 488B0424 		movq	(%rsp), %rax
 1513 04c5 488DBC24 		leaq	208(%rsp), %rdi
 1513      D0000000 
 1514 04cd 31D2     		xorl	%edx, %edx
 1515 04cf 31F6     		xorl	%esi, %esi
 1516 04d1 488B4828 		movq	40(%rax), %rcx
 1517 04d5 4929C8   		subq	%rcx, %r8
 1518              	.LEHB28:
 1519 04d8 E8000000 		call	_ZNSt7__cxx1112basic_stringIcSt11char_traitsIcESaIcEE10_M_replaceEmmPKcm@PLT
 1519      00
 1520              	.LEHE28:
 1521              	.L95:
 1522 04dd 488BBC24 		movq	208(%rsp), %rdi
 1522      D0000000 
 1523 04e5 488D8424 		leaq	224(%rsp), %rax
 1523      E0000000 
 1524 04ed 488BAC24 		movq	216(%rsp), %rbp
 1524      D8000000 
 1525 04f5 4839C7   		cmpq	%rax, %rdi
 1526 04f8 7405     		je	.L94
 1527 04fa E8000000 		call	_ZdlPv@PLT
 1527      00
 1528              	.L94:
 1529 04ff 4885ED   		testq	%rbp, %rbp
 1530 0502 0F849800 		je	.L138
 1530      0000
 1531              	.L102:
 1532 0508 488DBC24 		leaq	688(%rsp), %rdi
 1532      B0020000 
 1533              	.LEHB29:
 1534 0510 E8000000 		call	_ZN8UnitTest16SignalTranslatorD1Ev@PLT
 1534      00
 1535              	.LEHE29:
 1536              	.L74:
 1537 0515 488B8424 		movq	1816(%rsp), %rax
 1537      18070000 
 1538 051d 64482B04 		subq	%fs:40, %rax
 1538      25280000 
 1538      00
 1539 0526 0F85D100 		jne	.L139
 1539      0000
 1540 052c 4881C428 		addq	$1832, %rsp
 1540      070000
 1541              		.cfi_remember_state
 1542              		.cfi_def_cfa_offset 40
 1543 0533 5B       		popq	%rbx
 1544              		.cfi_def_cfa_offset 32
 1545 0534 5D       		popq	%rbp
 1546              		.cfi_def_cfa_offset 24
 1547 0535 415C     		popq	%r12
 1548              		.cfi_def_cfa_offset 16
 1549 0537 415D     		popq	%r13
 1550              		.cfi_def_cfa_offset 8
 1551 0539 C3       		ret
 1552 053a 660F1F44 		.p2align 4,,10
 1552      0000
 1553              		.p2align 3
 1554              	.L131:
 1555              		.cfi_restore_state
 1556 0540 4989C0   		movq	%rax, %r8
 1557 0543 E979FFFF 		jmp	.L91
 1557      FF
 1558 0548 0F1F8400 		.p2align 4,,10
 1558      00000000 
 1559              		.p2align 3
 1560              	.L130:
 1561 0550 4989C0   		movq	%rax, %r8
 1562 0553 E9B4FEFF 		jmp	.L78
 1562      FF
 1563 0558 0F1F8400 		.p2align 4,,10
 1563      00000000 
 1564              		.p2align 3
 1565              	.L137:
 1566              	.LEHB30:
 1567 0560 E8000000 		call	_ZN8UnitTest11CurrentTest7ResultsEv@PLT
 1567      00
 1568 0565 4C8B28   		movq	(%rax), %r13
 1569 0568 E8000000 		call	_ZN8UnitTest11CurrentTest7DetailsEv@PLT
 1569      00
 1570 056d 488B30   		movq	(%rax), %rsi
 1571 0570 488DBC24 		leaq	176(%rsp), %rdi
 1571      B0000000 
 1572 0578 BA3E0000 		movl	$62, %edx
 1572      00
 1573 057d E8000000 		call	_ZN8UnitTest11TestDetailsC1ERKS0_i@PLT
 1573      00
 1574 0582 488DB424 		leaq	176(%rsp), %rsi
 1574      B0000000 
 1575 058a 488D1500 		leaq	.LC12(%rip), %rdx
 1575      000000
 1576 0591 4C89EF   		movq	%r13, %rdi
 1577 0594 E8000000 		call	_ZN8UnitTest11TestResults13OnTestFailureERKNS_11TestDetailsEPKc@PLT
 1577      00
 1578              	.LEHE30:
 1579 0599 E9B5FEFF 		jmp	.L89
 1579      FF
 1580 059e 6690     		.p2align 4,,10
 1581              		.p2align 3
 1582              	.L138:
 1583              	.LEHB31:
 1584 05a0 E8000000 		call	_ZN8UnitTest11CurrentTest7ResultsEv@PLT
 1584      00
 1585 05a5 488B28   		movq	(%rax), %rbp
 1586 05a8 E8000000 		call	_ZN8UnitTest11CurrentTest7DetailsEv@PLT
 1586      00
 1587 05ad 488B30   		movq	(%rax), %rsi
 1588 05b0 488D7C24 		leaq	112(%rsp), %rdi
 1588      70
 1589 05b5 BA410000 		movl	$65, %edx
 1589      00
 1590 05ba E8000000 		call	_ZN8UnitTest11TestDetailsC1ERKS0_i@PLT
 1590      00
 1591 05bf 488D7424 		leaq	112(%rsp), %rsi
 1591      70
 1592 05c4 488D1500 		leaq	.LC13(%rip), %rdx
 1592      000000
 1593 05cb 4889EF   		movq	%rbp, %rdi
 1594 05ce E8000000 		call	_ZN8UnitTest11TestResults13OnTestFailureERKNS_11TestDetailsEPKc@PLT
 1594      00
 1595              	.LEHE31:
 1596 05d3 E930FFFF 		jmp	.L102
 1596      FF
 1597 05d8 0F1F8400 		.p2align 4,,10
 1597      00000000 
 1598              		.p2align 3
 1599              	.L90:
 1600 05e0 4C89E6   		movq	%r12, %rsi
 1601              	.LEHB32:
 1602 05e3 E8000000 		call	_ZNSt7__cxx1112basic_stringIcSt11char_traitsIcESaIcEE9_M_assignERKS4_@PLT
 1602      00
 1603              	.LEHE32:
 1604 05e8 E9F0FEFF 		jmp	.L95
 1604      FF
 1605 05ed 0F1F00   		.p2align 4,,10
 1606              		.p2align 3
 1607              	.L77:
 1608 05f0 4C89E6   		movq	%r12, %rsi
 1609              	.LEHB33:
 1610 05f3 E8000000 		call	_ZNSt7__cxx1112basic_stringIcSt11char_traitsIcESaIcEE9_M_assignERKS4_@PLT
 1610      00
 1611              	.LEHE33:
 1612 05f8 E92BFEFF 		jmp	.L82
 1612      FF
 1613              	.L139:
 1614 05fd E8000000 		call	__stack_chk_fail@PLT
 1614      00
 1615              	.L128:
 1616 0602 F30F1EFA 		endbr64
 1617 0606 4889C3   		movq	%rax, %rbx
 1618 0609 E9000000 		jmp	.L85
 1618      00
 1619              	.L129:
 1620 060e F30F1EFA 		endbr64
 1621 0612 4889C3   		movq	%rax, %rbx
 1622 0615 E9000000 		jmp	.L98
 1622      00
 1623              	.L127:
 1624 061a F30F1EFA 		endbr64
 1625 061e 4889C7   		movq	%rax, %rdi
 1626 0621 E9000000 		jmp	.L87
 1626      00
 1627              	.L132:
 1628 0626 F30F1EFA 		endbr64
 1629 062a E9000000 		jmp	.L133
 1629      00
 1630              	.L125:
 1631 062f F30F1EFA 		endbr64
 1632 0633 4889C7   		movq	%rax, %rdi
 1633 0636 E9000000 		jmp	.L100
 1633      00
 1634              	.L118:
 1635 063b F30F1EFA 		endbr64
 1636 063f 4889C7   		movq	%rax, %rdi
 1637 0642 4889D5   		movq	%rdx, %rbp
 1638 0645 E9000000 		jmp	.L107
 1638      00
 1639              		.section	.gcc_except_table
 1640 00b2 0000     		.align 4
 1641              	.LLSDA1570:
 1642 00b4 FF       		.byte	0xff
 1643 00b5 9B       		.byte	0x9b
 1644 00b6 55       		.uleb128 .LLSDATT1570-.LLSDATTD1570
 1645              	.LLSDATTD1570:
 1646 00b7 01       		.byte	0x1
 1647 00b8 3E       		.uleb128 .LLSDACSE1570-.LLSDACSB1570
 1648              	.LLSDACSB1570:
 1649 00b9 2C       		.uleb128 .LEHB23-.LFB1570
 1650 00ba 05       		.uleb128 .LEHE23-.LEHB23
 1651 00bb 00       		.uleb128 0
 1652 00bc 00       		.uleb128 0
 1653 00bd 3C       		.uleb128 .LEHB24-.LFB1570
 1654 00be 05       		.uleb128 .LEHE24-.LEHB24
 1655 00bf BB06     		.uleb128 .L118-.LFB1570
 1656 00c1 05       		.uleb128 0x5
 1657 00c2 73       		.uleb128 .LEHB25-.LFB1570
 1658 00c3 46       		.uleb128 .LEHE25-.LEHB25
 1659 00c4 A606     		.uleb128 .L132-.LFB1570
 1660 00c6 07       		.uleb128 0x7
 1661 00c7 A302     		.uleb128 .LEHB26-.LFB1570
 1662 00c9 05       		.uleb128 .LEHE26-.LEHB26
 1663 00ca 8206     		.uleb128 .L128-.LFB1570
 1664 00cc 01       		.uleb128 0x1
 1665 00cd ED02     		.uleb128 .LEHB27-.LFB1570
 1666 00cf 05       		.uleb128 .LEHE27-.LEHB27
 1667 00d0 A606     		.uleb128 .L132-.LFB1570
 1668 00d2 07       		.uleb128 0x7
 1669 00d3 D803     		.uleb128 .LEHB28-.LFB1570
 1670 00d5 05       		.uleb128 .LEHE28-.LEHB28
 1671 00d6 8E06     		.uleb128 .L129-.LFB1570
 1672 00d8 01       		.uleb128 0x1
 1673 00d9 9004     		.uleb128 .LEHB29-.LFB1570
 1674 00db 05       		.uleb128 .LEHE29-.LEHB29
 1675 00dc BB06     		.uleb128 .L118-.LFB1570
 1676 00de 05       		.uleb128 0x5
 1677 00df E004     		.uleb128 .LEHB30-.LFB1570
 1678 00e1 39       		.uleb128 .LEHE30-.LEHB30
 1679 00e2 9A06     		.uleb128 .L127-.LFB1570
 1680 00e4 01       		.uleb128 0x1
 1681 00e5 A005     		.uleb128 .LEHB31-.LFB1570
 1682 00e7 33       		.uleb128 .LEHE31-.LEHB31
 1683 00e8 AF06     		.uleb128 .L125-.LFB1570
 1684 00ea 01       		.uleb128 0x1
 1685 00eb E305     		.uleb128 .LEHB32-.LFB1570
 1686 00ed 05       		.uleb128 .LEHE32-.LEHB32
 1687 00ee 8E06     		.uleb128 .L129-.LFB1570
 1688 00f0 01       		.uleb128 0x1
 1689 00f1 F305     		.uleb128 .LEHB33-.LFB1570
 1690 00f3 05       		.uleb128 .LEHE33-.LEHB33
 1691 00f4 8206     		.uleb128 .L128-.LFB1570
 1692 00f6 01       		.uleb128 0x1
 1693              	.LLSDACSE1570:
 1694 00f7 03       		.byte	0x3
 1695 00f8 00       		.byte	0
 1696 00f9 02       		.byte	0x2
 1697 00fa 7D       		.byte	0x7d
 1698 00fb 01       		.byte	0x1
 1699 00fc 7D       		.byte	0x7d
 1700 00fd 00       		.byte	0
 1701 00fe 7D       		.byte	0x7d
 1702 00ff 00       		.align 4
 1703 0100 00000000 		.long	0
 1704              	
 1705 0104 00000000 		.long	DW.ref._ZTISt9exception-.
 1706 0108 00000000 		.long	DW.ref._ZTIN8UnitTest15AssertExceptionE-.
 1707              	.LLSDATT1570:
 1708              		.text
 1709              		.cfi_endproc
 1710              		.section	.text.unlikely
 1711              		.cfi_startproc
 1712              		.cfi_personality 0x9b,DW.ref.__gxx_personality_v0
 1713              		.cfi_lsda 0x1b,.LLSDAC1570
 1715              	_ZN8UnitTest11ExecuteTestIN12_GLOBAL__N_168XmlTestReporterFixtureOutputIsCachedUntilReportSummaryIs
 1716              	.LFSB1570:
 1717              	.L134:
 1718              		.cfi_def_cfa_offset 1872
 1719              		.cfi_offset 3, -40
 1720              		.cfi_offset 6, -32
 1721              		.cfi_offset 12, -24
 1722              		.cfi_offset 13, -16
 1723 0080 BF080000 		movl	$8, %edi
 1723      00
 1724 0085 E8000000 		call	__cxa_allocate_exception@PLT
 1724      00
 1725 008a 31D2     		xorl	%edx, %edx
 1726 008c 488D3500 		leaq	_ZTIPKc(%rip), %rsi
 1726      000000
 1727 0093 4889C7   		movq	%rax, %rdi
 1728 0096 488D0500 		leaq	.LC8(%rip), %rax
 1728      000000
 1729 009d 488907   		movq	%rax, (%rdi)
 1730              	.LEHB34:
 1731 00a0 E8000000 		call	__cxa_throw@PLT
 1731      00
 1732              	.LEHE34:
 1733              	.L119:
 1734 00a5 F30F1EFA 		endbr64
 1735              	.L133:
 1736 00a9 4889C3   		movq	%rax, %rbx
 1737 00ac 4889D5   		movq	%rdx, %rbp
 1738 00af E9D30000 		jmp	.L105
 1738      00
 1739              	.L85:
 1740 00b4 488BBC24 		movq	240(%rsp), %rdi
 1740      F0000000 
 1741 00bc 488D8424 		leaq	256(%rsp), %rax
 1741      00010000 
 1742 00c4 4839C7   		cmpq	%rax, %rdi
 1743 00c7 7405     		je	.L88
 1744 00c9 E8000000 		call	_ZdlPv@PLT
 1744      00
 1745              	.L88:
 1746 00ce 4889DF   		movq	%rbx, %rdi
 1747              	.L87:
 1748 00d1 E8000000 		call	__cxa_begin_catch@PLT
 1748      00
 1749              	.LEHB35:
 1750 00d6 E8000000 		call	_ZN8UnitTest11CurrentTest7ResultsEv@PLT
 1750      00
 1751 00db 4C8B28   		movq	(%rax), %r13
 1752 00de E8000000 		call	_ZN8UnitTest11CurrentTest7DetailsEv@PLT
 1752      00
 1753 00e3 488B30   		movq	(%rax), %rsi
 1754 00e6 488DBC24 		leaq	144(%rsp), %rdi
 1754      90000000 
 1755 00ee BA3E0000 		movl	$62, %edx
 1755      00
 1756 00f3 E8000000 		call	_ZN8UnitTest11TestDetailsC1ERKS0_i@PLT
 1756      00
 1757 00f8 488DB424 		leaq	144(%rsp), %rsi
 1757      90000000 
 1758 0100 488D1500 		leaq	.LC14(%rip), %rdx
 1758      000000
 1759 0107 4C89EF   		movq	%r13, %rdi
 1760 010a E8000000 		call	_ZN8UnitTest11TestResults13OnTestFailureERKNS_11TestDetailsEPKc@PLT
 1760      00
 1761              	.LEHE35:
 1762              	.LEHB36:
 1763 010f E8000000 		call	__cxa_end_catch@PLT
 1763      00
 1764              	.LEHE36:
 1765 0114 E9000000 		jmp	.L89
 1765      00
 1766              	.L98:
 1767 0119 488BBC24 		movq	208(%rsp), %rdi
 1767      D0000000 
 1768 0121 488D8424 		leaq	224(%rsp), %rax
 1768      E0000000 
 1769 0129 4839C7   		cmpq	%rax, %rdi
 1770 012c 7405     		je	.L101
 1771 012e E8000000 		call	_ZdlPv@PLT
 1771      00
 1772              	.L101:
 1773 0133 4889DF   		movq	%rbx, %rdi
 1774              	.L100:
 1775 0136 E8000000 		call	__cxa_begin_catch@PLT
 1775      00
 1776              	.LEHB37:
 1777 013b E8000000 		call	_ZN8UnitTest11CurrentTest7ResultsEv@PLT
 1777      00
 1778 0140 488B28   		movq	(%rax), %rbp
 1779 0143 E8000000 		call	_ZN8UnitTest11CurrentTest7DetailsEv@PLT
 1779      00
 1780 0148 488B30   		movq	(%rax), %rsi
 1781 014b 488D7C24 		leaq	80(%rsp), %rdi
 1781      50
 1782 0150 BA410000 		movl	$65, %edx
 1782      00
 1783 0155 E8000000 		call	_ZN8UnitTest11TestDetailsC1ERKS0_i@PLT
 1783      00
 1784 015a 488D7424 		leaq	80(%rsp), %rsi
 1784      50
 1785 015f 488D1500 		leaq	.LC15(%rip), %rdx
 1785      000000
 1786 0166 4889EF   		movq	%rbp, %rdi
 1787 0169 E8000000 		call	_ZN8UnitTest11TestResults13OnTestFailureERKNS_11TestDetailsEPKc@PLT
 1787      00
 1788              	.LEHE37:
 1789              	.LEHB38:
 1790 016e E8000000 		call	__cxa_end_catch@PLT
 1790      00
 1791              	.LEHE38:
 1792 0173 E9000000 		jmp	.L102
 1792      00
 1793              	.L124:
 1794 0178 F30F1EFA 		endbr64
 1795 017c 4889C3   		movq	%rax, %rbx
 1796 017f 4889D5   		movq	%rdx, %rbp
 1797 0182 E8000000 		call	__cxa_end_catch@PLT
 1797      00
 1798              	.L105:
 1799 0187 488DBC24 		leaq	688(%rsp), %rdi
 1799      B0020000 
 1800 018f E8000000 		call	_ZN8UnitTest16SignalTranslatorD1Ev@PLT
 1800      00
 1801 0194 4889DF   		movq	%rbx, %rdi
 1802              	.L107:
 1803 0197 4883FD01 		cmpq	$1, %rbp
 1804 019b 7432     		je	.L108
 1805 019d 4883FD02 		cmpq	$2, %rbp
 1806 01a1 0F84A100 		je	.L140
 1806      0000
 1807 01a7 E8000000 		call	__cxa_begin_catch@PLT
 1807      00
 1808              	.LEHB39:
 1809 01ac E8000000 		call	_ZN8UnitTest11CurrentTest7ResultsEv@PLT
 1809      00
 1810 01b1 488B7424 		movq	8(%rsp), %rsi
 1810      08
 1811 01b6 488B38   		movq	(%rax), %rdi
 1812 01b9 488D1500 		leaq	.LC17(%rip), %rdx
 1812      000000
 1813 01c0 E8000000 		call	_ZN8UnitTest11TestResults13OnTestFailureERKNS_11TestDetailsEPKc@PLT
 1813      00
 1814              	.LEHE39:
 1815              	.LEHB40:
 1816 01c5 E8000000 		call	__cxa_end_catch@PLT
 1816      00
 1817              	.LEHE40:
 1818 01ca E9000000 		jmp	.L74
 1818      00
 1819              	.L108:
 1820 01cf E8000000 		call	__cxa_begin_catch@PLT
 1820      00
 1821 01d4 4889C5   		movq	%rax, %rbp
 1822              	.LEHB41:
 1823 01d7 E8000000 		call	_ZN8UnitTest11CurrentTest7ResultsEv@PLT
 1823      00
 1824 01dc 4C8B28   		movq	(%rax), %r13
 1825 01df 488B4500 		movq	0(%rbp), %rax
 1826 01e3 4889EF   		movq	%rbp, %rdi
 1827 01e6 FF5010   		call	*16(%rax)
 1828 01e9 4889EF   		movq	%rbp, %rdi
 1829 01ec 4989C4   		movq	%rax, %r12
 1830 01ef E8000000 		call	_ZNK8UnitTest15AssertException10LineNumberEv@PLT
 1830      00
 1831 01f4 4889EF   		movq	%rbp, %rdi
 1832 01f7 89C3     		movl	%eax, %ebx
 1833 01f9 E8000000 		call	_ZNK8UnitTest15AssertException8FilenameEv@PLT
 1833      00
 1834 01fe 4889C1   		movq	%rax, %rcx
 1835 0201 488B4424 		movq	8(%rsp), %rax
 1835      08
 1836 0206 488D7C24 		leaq	16(%rsp), %rdi
 1836      10
 1837 020b 4189D8   		movl	%ebx, %r8d
 1838 020e 488B7008 		movq	8(%rax), %rsi
 1839 0212 488B10   		movq	(%rax), %rdx
 1840 0215 E8000000 		call	_ZN8UnitTest11TestDetailsC1EPKcS2_S2_i@PLT
 1840      00
 1841 021a 488D7424 		leaq	16(%rsp), %rsi
 1841      10
 1842 021f 4C89E2   		movq	%r12, %rdx
 1843 0222 4C89EF   		movq	%r13, %rdi
 1844 0225 E8000000 		call	_ZN8UnitTest11TestResults13OnTestFailureERKNS_11TestDetailsEPKc@PLT
 1844      00
 1845              	.LEHE41:
 1846 022a E8000000 		call	__cxa_end_catch@PLT
 1846      00
 1847 022f E9000000 		jmp	.L74
 1847      00
 1848              	.L120:
 1849 0234 F30F1EFA 		endbr64
 1850 0238 4889C5   		movq	%rax, %rbp
 1851 023b E8000000 		call	__cxa_end_catch@PLT
 1851      00
 1852 0240 4889EF   		movq	%rbp, %rdi
 1853              	.LEHB42:
 1854 0243 E8000000 		call	_Unwind_Resume@PLT
 1854      00
 1855              	.LEHE42:
 1856              	.L140:
 1857 0248 E8000000 		call	__cxa_begin_catch@PLT
 1857      00
 1858 024d 488DBC24 		leaq	272(%rsp), %rdi
 1858      10010000 
 1859 0255 4889C5   		movq	%rax, %rbp
 1860              	.LEHB43:
 1861 0258 E8000000 		call	_ZN8UnitTest15MemoryOutStreamC1Ev
 1861      00
 1862              	.LEHE43:
 1863 025d 488DBC24 		leaq	272(%rsp), %rdi
 1863      10010000 
 1864 0265 BA150000 		movl	$21, %edx
 1864      00
 1865 026a 488D3500 		leaq	.LC16(%rip), %rsi
 1865      000000
 1866              	.LEHB44:
 1867 0271 E8000000 		call	_ZSt16__ostream_insertIcSt11char_traitsIcEERSt13basic_ostreamIT_T0_ES6_PKS3_l@PLT
 1867      00
 1868 0276 488B4500 		movq	0(%rbp), %rax
 1869 027a 4889EF   		movq	%rbp, %rdi
 1870 027d FF5010   		call	*16(%rax)
 1871 0280 488DBC24 		leaq	272(%rsp), %rdi
 1871      10010000 
 1872 0288 4889C6   		movq	%rax, %rsi
 1873 028b E8000000 		call	_ZStlsISt11char_traitsIcEERSt13basic_ostreamIcT_ES5_PKc@PLT
 1873      00
 1874 0290 E8000000 		call	_ZN8UnitTest11CurrentTest7ResultsEv@PLT
 1874      00
 1875 0295 488DBC24 		leaq	272(%rsp), %rdi
 1875      10010000 
 1876 029d 488B28   		movq	(%rax), %rbp
 1877 02a0 E8000000 		call	_ZNK8UnitTest15MemoryOutStream7GetTextEv@PLT
 1877      00
 1878 02a5 488B7424 		movq	8(%rsp), %rsi
 1878      08
 1879 02aa 4889C2   		movq	%rax, %rdx
 1880 02ad 4889EF   		movq	%rbp, %rdi
 1881 02b0 E8000000 		call	_ZN8UnitTest11TestResults13OnTestFailureERKNS_11TestDetailsEPKc@PLT
 1881      00
 1882              	.LEHE44:
 1883 02b5 488DBC24 		leaq	272(%rsp), %rdi
 1883      10010000 
 1884              	.LEHB45:
 1885 02bd E8000000 		call	_ZN8UnitTest15MemoryOutStreamD1Ev
 1885      00
 1886              	.LEHE45:
 1887 02c2 E8000000 		call	__cxa_end_catch@PLT
 1887      00
 1888 02c7 E9000000 		jmp	.L74
 1888      00
 1889              	.L122:
 1890 02cc F30F1EFA 		endbr64
 1891 02d0 488DBC24 		leaq	272(%rsp), %rdi
 1891      10010000 
 1892 02d8 4889C5   		movq	%rax, %rbp
 1893 02db E8000000 		call	_ZN8UnitTest15MemoryOutStreamD1Ev
 1893      00
 1894              	.L115:
 1895 02e0 E8000000 		call	__cxa_end_catch@PLT
 1895      00
 1896 02e5 4889EF   		movq	%rbp, %rdi
 1897              	.LEHB46:
 1898 02e8 E8000000 		call	_Unwind_Resume@PLT
 1898      00
 1899              	.LEHE46:
 1900              	.L121:
 1901 02ed F30F1EFA 		endbr64
 1902 02f1 4889C5   		movq	%rax, %rbp
 1903 02f4 EBEA     		jmp	.L115
 1904              	.L123:
 1905 02f6 F30F1EFA 		endbr64
 1906 02fa 4889C5   		movq	%rax, %rbp
 1907 02fd E8000000 		call	__cxa_end_catch@PLT
 1907      00
 1908 0302 4889EF   		movq	%rbp, %rdi
 1909              	.LEHB47:
 1910 0305 E8000000 		call	_Unwind_Resume@PLT
 1910      00
 1911              	.LEHE47:
 1912              	.L126:
 1913 030a F30F1EFA 		endbr64
 1914 030e 4889C3   		movq	%rax, %rbx
 1915 0311 4889D5   		movq	%rdx, %rbp
 1916 0314 E8000000 		call	__cxa_end_catch@PLT
 1916      00
 1917 0319 E969FEFF 		jmp	.L105
 1917      FF
 1918              		.cfi_endproc
 1919              	.LFE1570:
 1920              		.section	.gcc_except_table
 1921              		.align 4
 1922              	.LLSDAC1570:
 1923 010c FF       		.byte	0xff
 1924 010d 9B       		.byte	0x9b
 1925 010e 61       		.uleb128 .LLSDATTC1570-.LLSDATTDC1570
 1926              	.LLSDATTDC1570:
 1927 010f 01       		.byte	0x1
 1928 0110 4B       		.uleb128 .LLSDACSEC1570-.LLSDACSBC1570
 1929              	.LLSDACSBC1570:
 1930 0111 20       		.uleb128 .LEHB34-.LCOLDB18
 1931 0112 05       		.uleb128 .LEHE34-.LEHB34
 1932 0113 25       		.uleb128 .L119-.LCOLDB18
 1933 0114 07       		.uleb128 0x7
 1934 0115 56       		.uleb128 .LEHB35-.LCOLDB18
 1935 0116 39       		.uleb128 .LEHE35-.LEHB35
 1936 0117 8A05     		.uleb128 .L126-.LCOLDB18
 1937 0119 07       		.uleb128 0x7
 1938 011a 8F01     		.uleb128 .LEHB36-.LCOLDB18
 1939 011c 05       		.uleb128 .LEHE36-.LEHB36
 1940 011d 25       		.uleb128 .L119-.LCOLDB18
 1941 011e 07       		.uleb128 0x7
 1942 011f BB01     		.uleb128 .LEHB37-.LCOLDB18
 1943 0121 33       		.uleb128 .LEHE37-.LEHB37
 1944 0122 F801     		.uleb128 .L124-.LCOLDB18
 1945 0124 07       		.uleb128 0x7
 1946 0125 EE01     		.uleb128 .LEHB38-.LCOLDB18
 1947 0127 05       		.uleb128 .LEHE38-.LEHB38
 1948 0128 25       		.uleb128 .L119-.LCOLDB18
 1949 0129 07       		.uleb128 0x7
 1950 012a AC02     		.uleb128 .LEHB39-.LCOLDB18
 1951 012c 19       		.uleb128 .LEHE39-.LEHB39
 1952 012d F604     		.uleb128 .L123-.LCOLDB18
 1953 012f 00       		.uleb128 0
 1954 0130 C502     		.uleb128 .LEHB40-.LCOLDB18
 1955 0132 05       		.uleb128 .LEHE40-.LEHB40
 1956 0133 00       		.uleb128 0
 1957 0134 00       		.uleb128 0
 1958 0135 D702     		.uleb128 .LEHB41-.LCOLDB18
 1959 0137 53       		.uleb128 .LEHE41-.LEHB41
 1960 0138 B403     		.uleb128 .L120-.LCOLDB18
 1961 013a 00       		.uleb128 0
 1962 013b C303     		.uleb128 .LEHB42-.LCOLDB18
 1963 013d 05       		.uleb128 .LEHE42-.LEHB42
 1964 013e 00       		.uleb128 0
 1965 013f 00       		.uleb128 0
 1966 0140 D803     		.uleb128 .LEHB43-.LCOLDB18
 1967 0142 05       		.uleb128 .LEHE43-.LEHB43
 1968 0143 ED04     		.uleb128 .L121-.LCOLDB18
 1969 0145 00       		.uleb128 0
 1970 0146 F103     		.uleb128 .LEHB44-.LCOLDB18
 1971 0148 44       		.uleb128 .LEHE44-.LEHB44
 1972 0149 CC04     		.uleb128 .L122-.LCOLDB18
 1973 014b 00       		.uleb128 0
 1974 014c BD04     		.uleb128 .LEHB45-.LCOLDB18
 1975 014e 05       		.uleb128 .LEHE45-.LEHB45
 1976 014f ED04     		.uleb128 .L121-.LCOLDB18
 1977 0151 00       		.uleb128 0
 1978 0152 E804     		.uleb128 .LEHB46-.LCOLDB18
 1979 0154 05       		.uleb128 .LEHE46-.LEHB46
 1980 0155 00       		.uleb128 0
 1981 0156 00       		.uleb128 0
 1982 0157 8505     		.uleb128 .LEHB47-.LCOLDB18
 1983 0159 05       		.uleb128 .LEHE47-.LEHB47
 1984 015a 00       		.uleb128 0
 1985 015b 00       		.uleb128 0
 1986              	.LLSDACSEC1570:
 1987 015c 03       		.byte	0x3
 1988 015d 00       		.byte	0
 1989 015e 02       		.byte	0x2
 1990 015f 7D       		.byte	0x7d
 1991 0160 01       		.byte	0x1
 1992 0161 7D       		.byte	0x7d
 1993 0162 00       		.byte	0
 1994 0163 7D       		.byte	0x7d
 1995              		.align 4
 1996 0164 00000000 		.long	0
 1997              	
 1998 0168 00000000 		.long	DW.ref._ZTISt9exception-.
 1999 016c 00000000 		.long	DW.ref._ZTIN8UnitTest15AssertExceptionE-.
 2000              	.LLSDATTC1570:
 2001              		.section	.text.unlikely
 2002              		.text
 2004              		.section	.text.unlikely
 2006              	.LCOLDE18:
 2007              		.text
 2008              	.LHOTE18:
 2009              		.section	.text._ZNSt7__cxx1115basic_stringbufIcSt11char_traitsIcESaIcEED0Ev,"axG",@progbits,_ZNSt7
 2010              		.align 2
 2011              		.p2align 4
 2012              		.weak	_ZNSt7__cxx1115basic_stringbufIcSt11char_traitsIcESaIcEED0Ev
 2014              	_ZNSt7__cxx1115basic_stringbufIcSt11char_traitsIcESaIcEED0Ev:
 2015              	.LFB1550:
 2016              		.cfi_startproc
 2017 0000 F30F1EFA 		endbr64
 2018 0004 488D0500 		leaq	16+_ZTVNSt7__cxx1115basic_stringbufIcSt11char_traitsIcESaIcEEE(%rip), %rax
 2018      000000
 2019 000b 55       		pushq	%rbp
 2020              		.cfi_def_cfa_offset 16
 2021              		.cfi_offset 6, -16
 2022 000c 4889FD   		movq	%rdi, %rbp
 2023 000f 488907   		movq	%rax, (%rdi)
 2024 0012 488B7F48 		movq	72(%rdi), %rdi
 2025 0016 488D4558 		leaq	88(%rbp), %rax
 2026 001a 4839C7   		cmpq	%rax, %rdi
 2027 001d 7405     		je	.L142
 2028 001f E8000000 		call	_ZdlPv@PLT
 2028      00
 2029              	.L142:
 2030 0024 488D0500 		leaq	16+_ZTVSt15basic_streambufIcSt11char_traitsIcEE(%rip), %rax
 2030      000000
 2031 002b 488D7D38 		leaq	56(%rbp), %rdi
 2032 002f 48894500 		movq	%rax, 0(%rbp)
 2033 0033 E8000000 		call	_ZNSt6localeD1Ev@PLT
 2033      00
 2034 0038 4889EF   		movq	%rbp, %rdi
 2035 003b 5D       		popq	%rbp
 2036              		.cfi_def_cfa_offset 8
 2037 003c E9000000 		jmp	_ZdlPv@PLT
 2037      00
 2038              		.cfi_endproc
 2039              	.LFE1550:
 2041              		.section	.text.unlikely
 2042              		.align 2
 2044              	_ZN12_GLOBAL__N_122XmlTestReporterFixtureD2Ev:
 2045              	.LFB1450:
 2046              		.cfi_startproc
 2047              		.cfi_personality 0x9b,DW.ref.__gxx_personality_v0
 2048              		.cfi_lsda 0x1b,.LLSDA1450
 2049 031e 488D0500 		leaq	16+_ZTVN8UnitTest20DeferredTestReporterE(%rip), %rax
 2049      000000
 2050 0325 4156     		pushq	%r14
 2051              		.cfi_def_cfa_offset 16
 2052              		.cfi_offset 14, -16
 2053 0327 4155     		pushq	%r13
 2054              		.cfi_def_cfa_offset 24
 2055              		.cfi_offset 13, -24
 2056 0329 4154     		pushq	%r12
 2057              		.cfi_def_cfa_offset 32
 2058              		.cfi_offset 12, -32
 2059 032b 55       		pushq	%rbp
 2060              		.cfi_def_cfa_offset 40
 2061              		.cfi_offset 6, -40
 2062 032c 4889FD   		movq	%rdi, %rbp
 2063 032f 53       		pushq	%rbx
 2064              		.cfi_def_cfa_offset 48
 2065              		.cfi_offset 3, -48
 2066 0330 4C8BAF88 		movq	392(%rdi), %r13
 2066      010000
 2067 0337 48898778 		movq	%rax, 376(%rdi)
 2067      010000
 2068 033e 488B9F80 		movq	384(%rdi), %rbx
 2068      010000
 2069              	.L145:
 2070 0345 4939DD   		cmpq	%rbx, %r13
 2071 0348 7470     		je	.L165
 2072 034a 4C8B7368 		movq	104(%rbx), %r14
 2073 034e 4C8B6360 		movq	96(%rbx), %r12
 2074              	.L146:
 2075 0352 4D39E6   		cmpq	%r12, %r14
 2076 0355 741A     		je	.L166
 2077 0357 498B7C24 		movq	8(%r12), %rdi
 2077      08
 2078 035c 498D4424 		leaq	24(%r12), %rax
 2078      18
 2079 0361 4839C7   		cmpq	%rax, %rdi
 2080 0364 7405     		je	.L147
 2081 0366 E8000000 		call	_ZdlPv@PLT
 2081      00
 2082              	.L147:
 2083 036b 4983C428 		addq	$40, %r12
 2084 036f EBE1     		jmp	.L146
 2085              	.L166:
 2086 0371 488B7B60 		movq	96(%rbx), %rdi
 2087 0375 4885FF   		testq	%rdi, %rdi
 2088 0378 7405     		je	.L149
 2089 037a E8000000 		call	_ZdlPv@PLT
 2089      00
 2090              	.L149:
 2091 037f 488B7B40 		movq	64(%rbx), %rdi
 2092 0383 488D4350 		leaq	80(%rbx), %rax
 2093 0387 4839C7   		cmpq	%rax, %rdi
 2094 038a 7405     		je	.L150
 2095 038c E8000000 		call	_ZdlPv@PLT
 2095      00
 2096              	.L150:
 2097 0391 488B7B20 		movq	32(%rbx), %rdi
 2098 0395 488D4330 		leaq	48(%rbx), %rax
 2099 0399 4839C7   		cmpq	%rax, %rdi
 2100 039c 7405     		je	.L151
 2101 039e E8000000 		call	_ZdlPv@PLT
 2101      00
 2102              	.L151:
 2103 03a3 488B3B   		movq	(%rbx), %rdi
 2104 03a6 488D4310 		leaq	16(%rbx), %rax
 2105 03aa 4839C7   		cmpq	%rax, %rdi
 2106 03ad 7405     		je	.L152
 2107 03af E8000000 		call	_ZdlPv@PLT
 2107      00
 2108              	.L152:
 2109 03b4 4883EB80 		subq	$-128, %rbx
 2110 03b8 EB8B     		jmp	.L145
 2111              	.L165:
 2112 03ba 488BBD80 		movq	384(%rbp), %rdi
 2112      010000
 2113 03c1 4885FF   		testq	%rdi, %rdi
 2114 03c4 7405     		je	.L154
 2115 03c6 E8000000 		call	_ZdlPv@PLT
 2115      00
 2116              	.L154:
 2117 03cb 488DBD78 		leaq	376(%rbp), %rdi
 2117      010000
 2118              	.LEHB48:
 2119 03d2 E8000000 		call	_ZN8UnitTest12TestReporterD2Ev@PLT
 2119      00
 2120              	.LEHE48:
 2121 03d7 488D0500 		leaq	64+_ZTVNSt7__cxx1119basic_ostringstreamIcSt11char_traitsIcESaIcEEE(%rip), %rax
 2121      000000
 2122 03de 488D0D00 		leaq	24+_ZTVNSt7__cxx1119basic_ostringstreamIcSt11char_traitsIcESaIcEEE(%rip), %rcx
 2122      000000
 2123 03e5 488B7D50 		movq	80(%rbp), %rdi
 2124 03e9 48894570 		movq	%rax, 112(%rbp)
 2125 03ed 488D0500 		leaq	16+_ZTVNSt7__cxx1115basic_stringbufIcSt11char_traitsIcESaIcEEE(%rip), %rax
 2125      000000
 2126 03f4 66480F6E 		movq	%rcx, %xmm0
 2126      C1
 2127 03f9 66480F6E 		movq	%rax, %xmm1
 2127      C8
 2128 03fe 488D4560 		leaq	96(%rbp), %rax
 2129 0402 660F6CC1 		punpcklqdq	%xmm1, %xmm0
 2130 0406 0F114500 		movups	%xmm0, 0(%rbp)
 2131 040a 4839C7   		cmpq	%rax, %rdi
 2132 040d 7405     		je	.L155
 2133 040f E8000000 		call	_ZdlPv@PLT
 2133      00
 2134              	.L155:
 2135 0414 488D0500 		leaq	16+_ZTVSt15basic_streambufIcSt11char_traitsIcEE(%rip), %rax
 2135      000000
 2136 041b 488D7D40 		leaq	64(%rbp), %rdi
 2137 041f 48894508 		movq	%rax, 8(%rbp)
 2138 0423 E8000000 		call	_ZNSt6localeD1Ev@PLT
 2138      00
 2139 0428 488B0500 		movq	8+_ZTTNSt7__cxx1119basic_ostringstreamIcSt11char_traitsIcESaIcEEE(%rip), %rax
 2139      000000
 2140 042f 5B       		popq	%rbx
 2141              		.cfi_remember_state
 2142              		.cfi_def_cfa_offset 40
 2143 0430 488D7D70 		leaq	112(%rbp), %rdi
 2144 0434 488B1500 		movq	16+_ZTTNSt7__cxx1119basic_ostringstreamIcSt11char_traitsIcESaIcEEE(%rip), %rdx
 2144      000000
 2145 043b 48894500 		movq	%rax, 0(%rbp)
 2146 043f 488B40E8 		movq	-24(%rax), %rax
 2147 0443 48895405 		movq	%rdx, 0(%rbp,%rax)
 2147      00
 2148 0448 488D0500 		leaq	16+_ZTVSt9basic_iosIcSt11char_traitsIcEE(%rip), %rax
 2148      000000
 2149 044f 48894570 		movq	%rax, 112(%rbp)
 2150 0453 5D       		popq	%rbp
 2151              		.cfi_def_cfa_offset 32
 2152 0454 415C     		popq	%r12
 2153              		.cfi_def_cfa_offset 24
 2154 0456 415D     		popq	%r13
 2155              		.cfi_def_cfa_offset 16
 2156 0458 415E     		popq	%r14
 2157              		.cfi_def_cfa_offset 8
 2158              	.LEHB49:
 2159 045a E9000000 		jmp	_ZNSt8ios_baseD2Ev@PLT
 2159      00
 2160              	.LEHE49:
 2161              	.L157:
 2162              		.cfi_restore_state
 2163 045f F30F1EFA 		endbr64
 2164 0463 4989C4   		movq	%rax, %r12
 2165              	.L156:
 2166 0466 4889EF   		movq	%rbp, %rdi
 2167 0469 E8000000 		call	_ZNSt7__cxx1119basic_ostringstreamIcSt11char_traitsIcESaIcEED1Ev@PLT
 2167      00
 2168 046e 4C89E7   		movq	%r12, %rdi
 2169              	.LEHB50:
 2170 0471 E8000000 		call	_Unwind_Resume@PLT
 2170      00
 2171              	.LEHE50:
 2172              		.cfi_endproc
 2173              	.LFE1450:
 2174              		.section	.gcc_except_table
 2175              	.LLSDA1450:
 2176 0170 FF       		.byte	0xff
 2177 0171 FF       		.byte	0xff
 2178 0172 01       		.byte	0x1
 2179 0173 10       		.uleb128 .LLSDACSE1450-.LLSDACSB1450
 2180              	.LLSDACSB1450:
 2181 0174 B401     		.uleb128 .LEHB48-.LFB1450
 2182 0176 05       		.uleb128 .LEHE48-.LEHB48
 2183 0177 C102     		.uleb128 .L157-.LFB1450
 2184 0179 00       		.uleb128 0
 2185 017a BC02     		.uleb128 .LEHB49-.LFB1450
 2186 017c 05       		.uleb128 .LEHE49-.LEHB49
 2187 017d 00       		.uleb128 0
 2188 017e 00       		.uleb128 0
 2189 017f D302     		.uleb128 .LEHB50-.LFB1450
 2190 0181 05       		.uleb128 .LEHE50-.LEHB50
 2191 0182 00       		.uleb128 0
 2192 0183 00       		.uleb128 0
 2193              	.LLSDACSE1450:
 2194              		.section	.text.unlikely
 2196              		.section	.rodata.str1.8
 2197 006c 00000000 		.align 8
 2198              	.LC19:
 2199 0070 556E6861 		.string	"Unhandled exception while destroying fixture XmlTestReporterFixture"
 2199      6E646C65 
 2199      64206578 
 2199      63657074 
 2199      696F6E20 
 2200 00b4 00000000 		.align 8
 2201              	.LC20:
 2202 00b8 556E6861 		.string	"Unhandled exception while constructing fixture XmlTestReporterFixture"
 2202      6E646C65 
 2202      64206578 
 2202      63657074 
 2202      696F6E20 
 2203              		.section	.text.unlikely
 2204              		.align 2
 2205              	.LCOLDB22:
 2206              		.text
 2207              	.LHOTB22:
 2208              		.align 2
 2209 064a 660F1F44 		.p2align 4
 2209      0000
 2211              	_ZNK12_GLOBAL__N_166TestXmlTestReporterFixtureOutputIsCachedUntilReportSummaryIsCalled7RunImplEv:
 2212              	.LFB1468:
 2213              		.cfi_startproc
 2214              		.cfi_personality 0x9b,DW.ref.__gxx_personality_v0
 2215              		.cfi_lsda 0x1b,.LLSDA1468
 2216 0650 F30F1EFA 		endbr64
 2217 0654 4157     		pushq	%r15
 2218              		.cfi_def_cfa_offset 16
 2219              		.cfi_offset 15, -16
 2220 0656 4156     		pushq	%r14
 2221              		.cfi_def_cfa_offset 24
 2222              		.cfi_offset 14, -24
 2223 0658 4155     		pushq	%r13
 2224              		.cfi_def_cfa_offset 32
 2225              		.cfi_offset 13, -32
 2226 065a 4154     		pushq	%r12
 2227              		.cfi_def_cfa_offset 40
 2228              		.cfi_offset 12, -40
 2229 065c 55       		pushq	%rbp
 2230              		.cfi_def_cfa_offset 48
 2231              		.cfi_offset 6, -48
 2232 065d 53       		pushq	%rbx
 2233              		.cfi_def_cfa_offset 56
 2234              		.cfi_offset 3, -56
 2235 065e 488D1D00 		leaq	16+_ZTVNSt7__cxx1115basic_stringbufIcSt11char_traitsIcESaIcEEE(%rip), %rbx
 2235      000000
 2236 0665 66480F6E 		movq	%rbx, %xmm3
 2236      DB
 2237 066a 4881EC18 		subq	$536, %rsp
 2237      020000
 2238              		.cfi_def_cfa_offset 592
 2239 0671 48897C24 		movq	%rdi, 56(%rsp)
 2239      38
 2240 0676 4C8DB424 		leaq	208(%rsp), %r14
 2240      D0000000 
 2241 067e 4C8D6C24 		leaq	96(%rsp), %r13
 2241      60
 2242 0683 64488B04 		movq	%fs:40, %rax
 2242      25280000 
 2242      00
 2243 068c 48898424 		movq	%rax, 520(%rsp)
 2243      08020000 
 2244 0694 488D0500 		leaq	24+_ZTVNSt7__cxx1119basic_ostringstreamIcSt11char_traitsIcESaIcEEE(%rip), %rax
 2244      000000
 2245 069b 66480F6E 		movq	%rax, %xmm1
 2245      C8
 2246 06a0 66480F6E 		movq	%rax, %xmm2
 2246      D0
 2247 06a5 488D4708 		leaq	8(%rdi), %rax
 2248 06a9 4C89F7   		movq	%r14, %rdi
 2249 06ac 660F6CCB 		punpcklqdq	%xmm3, %xmm1
 2250 06b0 0F161500 		movhps	.LC21(%rip), %xmm2
 2250      000000
 2251 06b7 48894424 		movq	%rax, 32(%rsp)
 2251      20
 2252 06bc 0F294C24 		movaps	%xmm1, 16(%rsp)
 2252      10
 2253 06c1 0F291424 		movaps	%xmm2, (%rsp)
 2254 06c5 E8000000 		call	_ZNSt8ios_baseC2Ev@PLT
 2254      00
 2255 06ca 488D0500 		leaq	16+_ZTVSt9basic_iosIcSt11char_traitsIcEE(%rip), %rax
 2255      000000
 2256 06d1 660FEFC0 		pxor	%xmm0, %xmm0
 2257 06d5 31F6     		xorl	%esi, %esi
 2258 06d7 48898424 		movq	%rax, 208(%rsp)
 2258      D0000000 
 2259 06df 31C0     		xorl	%eax, %eax
 2260 06e1 66898424 		movw	%ax, 432(%rsp)
 2260      B0010000 
 2261 06e9 488B0500 		movq	8+_ZTTNSt7__cxx1119basic_ostringstreamIcSt11char_traitsIcESaIcEEE(%rip), %rax
 2261      000000
 2262 06f0 0F118424 		movups	%xmm0, 440(%rsp)
 2262      B8010000 
 2263 06f8 0F118424 		movups	%xmm0, 456(%rsp)
 2263      C8010000 
 2264 0700 488B78E8 		movq	-24(%rax), %rdi
 2265 0704 48894424 		movq	%rax, 96(%rsp)
 2265      60
 2266 0709 488B0500 		movq	16+_ZTTNSt7__cxx1119basic_ostringstreamIcSt11char_traitsIcESaIcEEE(%rip), %rax
 2266      000000
 2267 0710 48C78424 		movq	$0, 424(%rsp)
 2267      A8010000 
 2267      00000000 
 2268 071c 4C01EF   		addq	%r13, %rdi
 2269 071f 488907   		movq	%rax, (%rdi)
 2270              	.LEHB51:
 2271 0722 E8000000 		call	_ZNSt9basic_iosIcSt11char_traitsIcEE4initEPSt15basic_streambufIcS1_E@PLT
 2271      00
 2272              	.LEHE51:
 2273 0727 488D0500 		leaq	64+_ZTVNSt7__cxx1119basic_ostringstreamIcSt11char_traitsIcESaIcEEE(%rip), %rax
 2273      000000
 2274 072e 660F6F14 		movdqa	(%rsp), %xmm2
 2274      24
 2275 0733 660FEFC0 		pxor	%xmm0, %xmm0
 2276 0737 488D6C24 		leaq	104(%rsp), %rbp
 2276      68
 2277 073c 48898424 		movq	%rax, 208(%rsp)
 2277      D0000000 
 2278 0744 488D8424 		leaq	160(%rsp), %rax
 2278      A0000000 
 2279 074c 4889C7   		movq	%rax, %rdi
 2280 074f 48890424 		movq	%rax, (%rsp)
 2281 0753 0F295424 		movaps	%xmm2, 96(%rsp)
 2281      60
 2282 0758 0F294424 		movaps	%xmm0, 112(%rsp)
 2282      70
 2283 075d 0F298424 		movaps	%xmm0, 128(%rsp)
 2283      80000000 
 2284 0765 0F298424 		movaps	%xmm0, 144(%rsp)
 2284      90000000 
 2285 076d E8000000 		call	_ZNSt6localeC1Ev@PLT
 2285      00
 2286 0772 4889EE   		movq	%rbp, %rsi
 2287 0775 4C89F7   		movq	%r14, %rdi
 2288 0778 48895C24 		movq	%rbx, 104(%rsp)
 2288      68
 2289 077d 488D8424 		leaq	192(%rsp), %rax
 2289      C0000000 
 2290 0785 C68424C0 		movb	$0, 192(%rsp)
 2290      00000000 
 2291 078d C78424A8 		movl	$16, 168(%rsp)
 2291      00000010 
 2291      000000
 2292 0798 48894424 		movq	%rax, 40(%rsp)
 2292      28
 2293 079d 48898424 		movq	%rax, 176(%rsp)
 2293      B0000000 
 2294 07a5 48C78424 		movq	$0, 184(%rsp)
 2294      B8000000 
 2294      00000000 
 2295              	.LEHB52:
 2296 07b1 E8000000 		call	_ZNSt9basic_iosIcSt11char_traitsIcEE4initEPSt15basic_streambufIcS1_E@PLT
 2296      00
 2297              	.LEHE52:
 2298 07b6 488D8424 		leaq	472(%rsp), %rax
 2298      D8010000 
 2299 07be 4C89EE   		movq	%r13, %rsi
 2300 07c1 4889C7   		movq	%rax, %rdi
 2301 07c4 48894424 		movq	%rax, 48(%rsp)
 2301      30
 2302              	.LEHB53:
 2303 07c9 E8000000 		call	_ZN8UnitTest15XmlTestReporterC1ERSo@PLT
 2303      00
 2304              	.LEHE53:
 2305 07ce 488B4424 		movq	32(%rsp), %rax
 2305      20
 2306 07d3 4C89EF   		movq	%r13, %rdi
 2307 07d6 4889C6   		movq	%rax, %rsi
 2308 07d9 48898424 		movq	%rax, 512(%rsp)
 2308      00020000 
 2309              	.LEHB54:
 2310 07e1 E81AFBFF 		call	_ZN8UnitTest11ExecuteTestIN12_GLOBAL__N_168XmlTestReporterFixtureOutputIsCachedUntilReportSum
 2310      FF
 2311              	.LEHE54:
 2312 07e6 4C8BA424 		movq	488(%rsp), %r12
 2312      E8010000 
 2313 07ee 488BAC24 		movq	480(%rsp), %rbp
 2313      E0010000 
 2314 07f6 488D0500 		leaq	16+_ZTVN8UnitTest20DeferredTestReporterE(%rip), %rax
 2314      000000
 2315 07fd 48898424 		movq	%rax, 472(%rsp)
 2315      D8010000 
 2316 0805 4939EC   		cmpq	%rbp, %r12
 2317 0808 0F849100 		je	.L174
 2317      0000
 2318 080e 6690     		.p2align 4,,10
 2319              		.p2align 3
 2320              	.L186:
 2321 0810 488B5D68 		movq	104(%rbp), %rbx
 2322 0814 4C8B7D60 		movq	96(%rbp), %r15
 2323 0818 4C39FB   		cmpq	%r15, %rbx
 2324 081b 7426     		je	.L175
 2325 081d 0F1F00   		.p2align 4,,10
 2326              		.p2align 3
 2327              	.L179:
 2328 0820 498B7F08 		movq	8(%r15), %rdi
 2329 0824 498D4718 		leaq	24(%r15), %rax
 2330 0828 4839C7   		cmpq	%rax, %rdi
 2331 082b 0F842701 		je	.L176
 2331      0000
 2332 0831 E8000000 		call	_ZdlPv@PLT
 2332      00
 2333 0836 4983C728 		addq	$40, %r15
 2334 083a 4939DF   		cmpq	%rbx, %r15
 2335 083d 75E1     		jne	.L179
 2336              	.L178:
 2337 083f 4C8B7D60 		movq	96(%rbp), %r15
 2338              	.L175:
 2339 0843 4D85FF   		testq	%r15, %r15
 2340 0846 7408     		je	.L180
 2341 0848 4C89FF   		movq	%r15, %rdi
 2342 084b E8000000 		call	_ZdlPv@PLT
 2342      00
 2343              	.L180:
 2344 0850 488B7D40 		movq	64(%rbp), %rdi
 2345 0854 488D4550 		leaq	80(%rbp), %rax
 2346 0858 4839C7   		cmpq	%rax, %rdi
 2347 085b 7405     		je	.L181
 2348 085d E8000000 		call	_ZdlPv@PLT
 2348      00
 2349              	.L181:
 2350 0862 488B7D20 		movq	32(%rbp), %rdi
 2351 0866 488D4530 		leaq	48(%rbp), %rax
 2352 086a 4839C7   		cmpq	%rax, %rdi
 2353 086d 7405     		je	.L182
 2354 086f E8000000 		call	_ZdlPv@PLT
 2354      00
 2355              	.L182:
 2356 0874 488B7D00 		movq	0(%rbp), %rdi
 2357 0878 488D4510 		leaq	16(%rbp), %rax
 2358 087c 4839C7   		cmpq	%rax, %rdi
 2359 087f 0F84EB00 		je	.L183
 2359      0000
 2360 0885 E8000000 		call	_ZdlPv@PLT
 2360      00
 2361 088a 4883ED80 		subq	$-128, %rbp
 2362 088e 4939EC   		cmpq	%rbp, %r12
 2363 0891 0F8579FF 		jne	.L186
 2363      FFFF
 2364              	.L185:
 2365 0897 488BAC24 		movq	480(%rsp), %rbp
 2365      E0010000 
 2366              	.L174:
 2367 089f 4885ED   		testq	%rbp, %rbp
 2368 08a2 7408     		je	.L187
 2369 08a4 4889EF   		movq	%rbp, %rdi
 2370 08a7 E8000000 		call	_ZdlPv@PLT
 2370      00
 2371              	.L187:
 2372 08ac 488B7C24 		movq	48(%rsp), %rdi
 2372      30
 2373              	.LEHB55:
 2374 08b1 E8000000 		call	_ZN8UnitTest12TestReporterD2Ev@PLT
 2374      00
 2375              	.LEHE55:
 2376 08b6 660F6F64 		movdqa	16(%rsp), %xmm4
 2376      2410
 2377 08bc 488D0500 		leaq	64+_ZTVNSt7__cxx1119basic_ostringstreamIcSt11char_traitsIcESaIcEEE(%rip), %rax
 2377      000000
 2378 08c3 488BBC24 		movq	176(%rsp), %rdi
 2378      B0000000 
 2379 08cb 48898424 		movq	%rax, 208(%rsp)
 2379      D0000000 
 2380 08d3 0F296424 		movaps	%xmm4, 96(%rsp)
 2380      60
 2381 08d8 483B7C24 		cmpq	40(%rsp), %rdi
 2381      28
 2382 08dd 7405     		je	.L188
 2383 08df E8000000 		call	_ZdlPv@PLT
 2383      00
 2384              	.L188:
 2385 08e4 488B3C24 		movq	(%rsp), %rdi
 2386 08e8 488D0500 		leaq	16+_ZTVSt15basic_streambufIcSt11char_traitsIcEE(%rip), %rax
 2386      000000
 2387 08ef 48894424 		movq	%rax, 104(%rsp)
 2387      68
 2388 08f4 E8000000 		call	_ZNSt6localeD1Ev@PLT
 2388      00
 2389 08f9 488B0500 		movq	8+_ZTTNSt7__cxx1119basic_ostringstreamIcSt11char_traitsIcESaIcEEE(%rip), %rax
 2389      000000
 2390 0900 488B0D00 		movq	16+_ZTTNSt7__cxx1119basic_ostringstreamIcSt11char_traitsIcESaIcEEE(%rip), %rcx
 2390      000000
 2391 0907 4C89F7   		movq	%r14, %rdi
 2392 090a 48894424 		movq	%rax, 96(%rsp)
 2392      60
 2393 090f 488B40E8 		movq	-24(%rax), %rax
 2394 0913 48894C04 		movq	%rcx, 96(%rsp,%rax)
 2394      60
 2395 0918 488D0500 		leaq	16+_ZTVSt9basic_iosIcSt11char_traitsIcEE(%rip), %rax
 2395      000000
 2396 091f 48898424 		movq	%rax, 208(%rsp)
 2396      D0000000 
 2397              	.LEHB56:
 2398 0927 E8000000 		call	_ZNSt8ios_baseD2Ev@PLT
 2398      00
 2399              	.LEHE56:
 2400 092c 488B8424 		movq	520(%rsp), %rax
 2400      08020000 
 2401 0934 64482B04 		subq	%fs:40, %rax
 2401      25280000 
 2401      00
 2402 093d 7543     		jne	.L233
 2403 093f 4881C418 		addq	$536, %rsp
 2403      020000
 2404              		.cfi_remember_state
 2405              		.cfi_def_cfa_offset 56
 2406 0946 5B       		popq	%rbx
 2407              		.cfi_def_cfa_offset 48
 2408 0947 5D       		popq	%rbp
 2409              		.cfi_def_cfa_offset 40
 2410 0948 415C     		popq	%r12
 2411              		.cfi_def_cfa_offset 32
 2412 094a 415D     		popq	%r13
 2413              		.cfi_def_cfa_offset 24
 2414 094c 415E     		popq	%r14
 2415              		.cfi_def_cfa_offset 16
 2416 094e 415F     		popq	%r15
 2417              		.cfi_def_cfa_offset 8
 2418 0950 C3       		ret
 2419              		.p2align 4,,10
 2420 0951 0F1F8000 		.p2align 3
 2420      000000
 2421              	.L176:
 2422              		.cfi_restore_state
 2423 0958 4983C728 		addq	$40, %r15
 2424 095c 4C39FB   		cmpq	%r15, %rbx
 2425 095f 0F85BBFE 		jne	.L179
 2425      FFFF
 2426 0965 E9D5FEFF 		jmp	.L178
 2426      FF
 2427 096a 660F1F44 		.p2align 4,,10
 2427      0000
 2428              		.p2align 3
 2429              	.L183:
 2430 0970 4883ED80 		subq	$-128, %rbp
 2431 0974 4939EC   		cmpq	%rbp, %r12
 2432 0977 0F8593FE 		jne	.L186
 2432      FFFF
 2433 097d E915FFFF 		jmp	.L185
 2433      FF
 2434              	.L233:
 2435 0982 E8000000 		call	__stack_chk_fail@PLT
 2435      00
 2436              	.L207:
 2437 0987 F30F1EFA 		endbr64
 2438 098b 4889C7   		movq	%rax, %rdi
 2439 098e 4889D0   		movq	%rdx, %rax
 2440 0991 E9000000 		jmp	.L228
 2440      00
 2441              	.L216:
 2442 0996 F30F1EFA 		endbr64
 2443 099a 4889C3   		movq	%rax, %rbx
 2444 099d 4889D5   		movq	%rdx, %rbp
 2445 09a0 E9000000 		jmp	.L192
 2445      00
 2446              	.L208:
 2447 09a5 F30F1EFA 		endbr64
 2448 09a9 4889C3   		movq	%rax, %rbx
 2449 09ac 4889D5   		movq	%rdx, %rbp
 2450 09af E9000000 		jmp	.L193
 2450      00
 2451              	.L213:
 2452 09b4 F30F1EFA 		endbr64
 2453 09b8 4889C3   		movq	%rax, %rbx
 2454 09bb 4889D5   		movq	%rdx, %rbp
 2455 09be E9000000 		jmp	.L173
 2455      00
 2456              	.L215:
 2457 09c3 F30F1EFA 		endbr64
 2458 09c7 4889C3   		movq	%rax, %rbx
 2459 09ca 4989D4   		movq	%rdx, %r12
 2460 09cd E9000000 		jmp	.L169
 2460      00
 2461              	.L214:
 2462 09d2 F30F1EFA 		endbr64
 2463 09d6 4889C3   		movq	%rax, %rbx
 2464 09d9 4989D4   		movq	%rdx, %r12
 2465 09dc E9000000 		jmp	.L170
 2465      00
 2466              		.section	.gcc_except_table
 2467              		.align 4
 2468              	.LLSDA1468:
 2469 0184 FF       		.byte	0xff
 2470 0185 9B       		.byte	0x9b
 2471 0186 3D       		.uleb128 .LLSDATT1468-.LLSDATTD1468
 2472              	.LLSDATTD1468:
 2473 0187 01       		.byte	0x1
 2474 0188 24       		.uleb128 .LLSDACSE1468-.LLSDACSB1468
 2475              	.LLSDACSB1468:
 2476 0189 D201     		.uleb128 .LEHB51-.LFB1468
 2477 018b 05       		.uleb128 .LEHE51-.LEHB51
 2478 018c 8207     		.uleb128 .L214-.LFB1468
 2479 018e 07       		.uleb128 0x7
 2480 018f E102     		.uleb128 .LEHB52-.LFB1468
 2481 0191 05       		.uleb128 .LEHE52-.LEHB52
 2482 0192 F306     		.uleb128 .L215-.LFB1468
 2483 0194 07       		.uleb128 0x7
 2484 0195 F902     		.uleb128 .LEHB53-.LFB1468
 2485 0197 05       		.uleb128 .LEHE53-.LEHB53
 2486 0198 E406     		.uleb128 .L213-.LFB1468
 2487 019a 07       		.uleb128 0x7
 2488 019b 9103     		.uleb128 .LEHB54-.LFB1468
 2489 019d 05       		.uleb128 .LEHE54-.LEHB54
 2490 019e D506     		.uleb128 .L208-.LFB1468
 2491 01a0 07       		.uleb128 0x7
 2492 01a1 E104     		.uleb128 .LEHB55-.LFB1468
 2493 01a3 05       		.uleb128 .LEHE55-.LEHB55
 2494 01a4 C606     		.uleb128 .L216-.LFB1468
 2495 01a6 07       		.uleb128 0x7
 2496 01a7 D705     		.uleb128 .LEHB56-.LFB1468
 2497 01a9 05       		.uleb128 .LEHE56-.LEHB56
 2498 01aa B706     		.uleb128 .L207-.LFB1468
 2499 01ac 05       		.uleb128 0x5
 2500              	.LLSDACSE1468:
 2501 01ad 03       		.byte	0x3
 2502 01ae 00       		.byte	0
 2503 01af 02       		.byte	0x2
 2504 01b0 7D       		.byte	0x7d
 2505 01b1 01       		.byte	0x1
 2506 01b2 7D       		.byte	0x7d
 2507 01b3 00       		.byte	0
 2508 01b4 7D       		.byte	0x7d
 2509 01b5 000000   		.align 4
 2510 01b8 00000000 		.long	0
 2511              	
 2512 01bc 00000000 		.long	DW.ref._ZTISt9exception-.
 2513 01c0 00000000 		.long	DW.ref._ZTIN8UnitTest15AssertExceptionE-.
 2514              	.LLSDATT1468:
 2515              		.text
 2516              		.cfi_endproc
 2517              		.section	.text.unlikely
 2518              		.cfi_startproc
 2519              		.cfi_personality 0x9b,DW.ref.__gxx_personality_v0
 2520              		.cfi_lsda 0x1b,.LLSDAC1468
 2522              	_ZNK12_GLOBAL__N_166TestXmlTestReporterFixtureOutputIsCachedUntilReportSummaryIsCalled7RunImplEv.co
 2523              	.LFSB1468:
 2524              	.L193:
 2525              		.cfi_def_cfa_offset 592
 2526              		.cfi_offset 3, -56
 2527              		.cfi_offset 6, -48
 2528              		.cfi_offset 12, -40
 2529              		.cfi_offset 13, -32
 2530              		.cfi_offset 14, -24
 2531              		.cfi_offset 15, -16
 2532 0476 4C89EF   		movq	%r13, %rdi
 2533 0479 E8A0FEFF 		call	_ZN12_GLOBAL__N_122XmlTestReporterFixtureD2Ev
 2533      FF
 2534 047e 4889DF   		movq	%rbx, %rdi
 2535 0481 4889E8   		movq	%rbp, %rax
 2536              	.L228:
 2537 0484 BB010000 		movl	$1, %ebx
 2537      00
 2538              	.L171:
 2539 0489 4883F801 		cmpq	$1, %rax
 2540 048d 0F84EA00 		je	.L194
 2540      0000
 2541 0493 4883F802 		cmpq	$2, %rax
 2542 0497 0F846B01 		je	.L234
 2542      0000
 2543 049d E8000000 		call	__cxa_begin_catch@PLT
 2543      00
 2544 04a2 84DB     		testb	%bl, %bl
 2545 04a4 0F85E901 		jne	.L235
 2545      0000
 2546              	.LEHB57:
 2547 04aa E8000000 		call	_ZN8UnitTest11CurrentTest7ResultsEv@PLT
 2547      00
 2548 04af 488D6C24 		leaq	64(%rsp), %rbp
 2548      40
 2549 04b4 488B7424 		movq	32(%rsp), %rsi
 2549      20
 2550 04b9 BA370000 		movl	$55, %edx
 2550      00
 2551 04be 4C8B20   		movq	(%rax), %r12
 2552 04c1 4889EF   		movq	%rbp, %rdi
 2553 04c4 E8000000 		call	_ZN8UnitTest11TestDetailsC1ERKS0_i@PLT
 2553      00
 2554 04c9 488D1500 		leaq	.LC20(%rip), %rdx
 2554      000000
 2555 04d0 4889EE   		movq	%rbp, %rsi
 2556 04d3 4C89E7   		movq	%r12, %rdi
 2557 04d6 E8000000 		call	_ZN8UnitTest11TestResults13OnTestFailureERKNS_11TestDetailsEPKc@PLT
 2557      00
 2558              	.LEHE57:
 2559              	.L200:
 2560 04db 488B8424 		movq	520(%rsp), %rax
 2560      08020000 
 2561 04e3 64482B04 		subq	%fs:40, %rax
 2561      25280000 
 2561      00
 2562 04ec 0F851101 		jne	.L230
 2562      0000
 2563 04f2 4881C418 		addq	$536, %rsp
 2563      020000
 2564              		.cfi_remember_state
 2565              		.cfi_def_cfa_offset 56
 2566 04f9 5B       		popq	%rbx
 2567              		.cfi_def_cfa_offset 48
 2568 04fa 5D       		popq	%rbp
 2569              		.cfi_def_cfa_offset 40
 2570 04fb 415C     		popq	%r12
 2571              		.cfi_def_cfa_offset 32
 2572 04fd 415D     		popq	%r13
 2573              		.cfi_def_cfa_offset 24
 2574 04ff 415E     		popq	%r14
 2575              		.cfi_def_cfa_offset 16
 2576 0501 415F     		popq	%r15
 2577              		.cfi_def_cfa_offset 8
 2578              	.LEHB58:
 2579 0503 E9000000 		jmp	__cxa_end_catch@PLT
 2579      00
 2580              	.LEHE58:
 2581              	.L192:
 2582              		.cfi_restore_state
 2583 0508 4C89EF   		movq	%r13, %rdi
 2584 050b E8000000 		call	_ZNSt7__cxx1119basic_ostringstreamIcSt11char_traitsIcESaIcEED1Ev@PLT
 2584      00
 2585 0510 4889DF   		movq	%rbx, %rdi
 2586 0513 4889E8   		movq	%rbp, %rax
 2587 0516 BB010000 		movl	$1, %ebx
 2587      00
 2588 051b E969FFFF 		jmp	.L171
 2588      FF
 2589              	.L173:
 2590 0520 4C89EF   		movq	%r13, %rdi
 2591 0523 E8000000 		call	_ZNSt7__cxx1119basic_ostringstreamIcSt11char_traitsIcESaIcEED1Ev@PLT
 2591      00
 2592 0528 4889DF   		movq	%rbx, %rdi
 2593 052b 4889E8   		movq	%rbp, %rax
 2594 052e 31DB     		xorl	%ebx, %ebx
 2595 0530 E954FFFF 		jmp	.L171
 2595      FF
 2596              	.L169:
 2597 0535 4889EF   		movq	%rbp, %rdi
 2598 0538 E8000000 		call	_ZNSt7__cxx1115basic_stringbufIcSt11char_traitsIcESaIcEED1Ev
 2598      00
 2599 053d 488B0500 		movq	8+_ZTTNSt7__cxx1119basic_ostringstreamIcSt11char_traitsIcESaIcEEE(%rip), %rax
 2599      000000
 2600 0544 488B0D00 		movq	16+_ZTTNSt7__cxx1119basic_ostringstreamIcSt11char_traitsIcESaIcEEE(%rip), %rcx
 2600      000000
 2601 054b 48894424 		movq	%rax, 96(%rsp)
 2601      60
 2602 0550 488B40E8 		movq	-24(%rax), %rax
 2603 0554 48894C04 		movq	%rcx, 96(%rsp,%rax)
 2603      60
 2604              	.L170:
 2605 0559 488D0500 		leaq	16+_ZTVSt9basic_iosIcSt11char_traitsIcEE(%rip), %rax
 2605      000000
 2606 0560 4C89F7   		movq	%r14, %rdi
 2607 0563 48898424 		movq	%rax, 208(%rsp)
 2607      D0000000 
 2608 056b E8000000 		call	_ZNSt8ios_baseD2Ev@PLT
 2608      00
 2609 0570 4889DF   		movq	%rbx, %rdi
 2610 0573 4C89E0   		movq	%r12, %rax
 2611 0576 31DB     		xorl	%ebx, %ebx
 2612 0578 E90CFFFF 		jmp	.L171
 2612      FF
 2613              	.L194:
 2614 057d E8000000 		call	__cxa_begin_catch@PLT
 2614      00
 2615 0582 4889C5   		movq	%rax, %rbp
 2616              	.LEHB59:
 2617 0585 E8000000 		call	_ZN8UnitTest11CurrentTest7ResultsEv@PLT
 2617      00
 2618 058a 4C8B28   		movq	(%rax), %r13
 2619 058d 488B4500 		movq	0(%rbp), %rax
 2620 0591 4889EF   		movq	%rbp, %rdi
 2621 0594 FF5010   		call	*16(%rax)
 2622 0597 4889EF   		movq	%rbp, %rdi
 2623 059a 4989C4   		movq	%rax, %r12
 2624 059d E8000000 		call	_ZNK8UnitTest15AssertException10LineNumberEv@PLT
 2624      00
 2625 05a2 4889EF   		movq	%rbp, %rdi
 2626 05a5 89C3     		movl	%eax, %ebx
 2627 05a7 E8000000 		call	_ZNK8UnitTest15AssertException8FilenameEv@PLT
 2627      00
 2628 05ac 4889C1   		movq	%rax, %rcx
 2629 05af 488B4424 		movq	56(%rsp), %rax
 2629      38
 2630 05b4 488D6C24 		leaq	64(%rsp), %rbp
 2630      40
 2631 05b9 4189D8   		movl	%ebx, %r8d
 2632 05bc 4889EF   		movq	%rbp, %rdi
 2633 05bf 488B5008 		movq	8(%rax), %rdx
 2634 05c3 488B7010 		movq	16(%rax), %rsi
 2635 05c7 E8000000 		call	_ZN8UnitTest11TestDetailsC1EPKcS2_S2_i@PLT
 2635      00
 2636 05cc 4C89E2   		movq	%r12, %rdx
 2637 05cf 4889EE   		movq	%rbp, %rsi
 2638 05d2 4C89EF   		movq	%r13, %rdi
 2639 05d5 E8000000 		call	_ZN8UnitTest11TestResults13OnTestFailureERKNS_11TestDetailsEPKc@PLT
 2639      00
 2640              	.LEHE59:
 2641              	.L232:
 2642 05da 488B8424 		movq	520(%rsp), %rax
 2642      08020000 
 2643 05e2 64482B04 		subq	%fs:40, %rax
 2643      25280000 
 2643      00
 2644 05eb 7516     		jne	.L230
 2645 05ed 4881C418 		addq	$536, %rsp
 2645      020000
 2646              		.cfi_remember_state
 2647              		.cfi_def_cfa_offset 56
 2648 05f4 5B       		popq	%rbx
 2649              		.cfi_def_cfa_offset 48
 2650 05f5 5D       		popq	%rbp
 2651              		.cfi_def_cfa_offset 40
 2652 05f6 415C     		popq	%r12
 2653              		.cfi_def_cfa_offset 32
 2654 05f8 415D     		popq	%r13
 2655              		.cfi_def_cfa_offset 24
 2656 05fa 415E     		popq	%r14
 2657              		.cfi_def_cfa_offset 16
 2658 05fc 415F     		popq	%r15
 2659              		.cfi_def_cfa_offset 8
 2660 05fe E9000000 		jmp	__cxa_end_catch@PLT
 2660      00
 2661              	.L230:
 2662              		.cfi_restore_state
 2663 0603 E8000000 		call	__stack_chk_fail@PLT
 2663      00
 2664              	.L234:
 2665 0608 E8000000 		call	__cxa_begin_catch@PLT
 2665      00
 2666 060d 4C89EF   		movq	%r13, %rdi
 2667 0610 4889C5   		movq	%rax, %rbp
 2668              	.LEHB60:
 2669 0613 E8000000 		call	_ZN8UnitTest15MemoryOutStreamC1Ev
 2669      00
 2670              	.LEHE60:
 2671 0618 BA150000 		movl	$21, %edx
 2671      00
 2672 061d 488D3500 		leaq	.LC16(%rip), %rsi
 2672      000000
 2673 0624 4C89EF   		movq	%r13, %rdi
 2674              	.LEHB61:
 2675 0627 E8000000 		call	_ZSt16__ostream_insertIcSt11char_traitsIcEERSt13basic_ostreamIT_T0_ES6_PKS3_l@PLT
 2675      00
 2676 062c 488B4500 		movq	0(%rbp), %rax
 2677 0630 4889EF   		movq	%rbp, %rdi
 2678 0633 FF5010   		call	*16(%rax)
 2679 0636 4C89EF   		movq	%r13, %rdi
 2680 0639 4889C6   		movq	%rax, %rsi
 2681 063c E8000000 		call	_ZStlsISt11char_traitsIcEERSt13basic_ostreamIcT_ES5_PKc@PLT
 2681      00
 2682 0641 E8000000 		call	_ZN8UnitTest11CurrentTest7ResultsEv@PLT
 2682      00
 2683 0646 4C89EF   		movq	%r13, %rdi
 2684 0649 488B28   		movq	(%rax), %rbp
 2685 064c E8000000 		call	_ZNK8UnitTest15MemoryOutStream7GetTextEv@PLT
 2685      00
 2686 0651 488B7424 		movq	32(%rsp), %rsi
 2686      20
 2687 0656 4889C2   		movq	%rax, %rdx
 2688 0659 4889EF   		movq	%rbp, %rdi
 2689 065c E8000000 		call	_ZN8UnitTest11TestResults13OnTestFailureERKNS_11TestDetailsEPKc@PLT
 2689      00
 2690              	.LEHE61:
 2691 0661 4C89EF   		movq	%r13, %rdi
 2692              	.LEHB62:
 2693 0664 E8000000 		call	_ZN8UnitTest15MemoryOutStreamD1Ev
 2693      00
 2694              	.LEHE62:
 2695 0669 E96CFFFF 		jmp	.L232
 2695      FF
 2696              	.L211:
 2697 066e F30F1EFA 		endbr64
 2698 0672 4C89EF   		movq	%r13, %rdi
 2699 0675 4889C5   		movq	%rax, %rbp
 2700 0678 E8000000 		call	_ZN8UnitTest15MemoryOutStreamD1Ev
 2700      00
 2701              	.L204:
 2702 067d E8000000 		call	__cxa_end_catch@PLT
 2702      00
 2703 0682 4889EF   		movq	%rbp, %rdi
 2704              	.LEHB63:
 2705 0685 E8000000 		call	_Unwind_Resume@PLT
 2705      00
 2706              	.LEHE63:
 2707              	.L210:
 2708 068a F30F1EFA 		endbr64
 2709              	.L231:
 2710 068e 4889C5   		movq	%rax, %rbp
 2711 0691 EBEA     		jmp	.L204
 2712              	.L235:
 2713              	.LEHB64:
 2714 0693 E8000000 		call	_ZN8UnitTest11CurrentTest7ResultsEv@PLT
 2714      00
 2715 0698 488D6C24 		leaq	64(%rsp), %rbp
 2715      40
 2716 069d 488B7424 		movq	32(%rsp), %rsi
 2716      20
 2717 06a2 BA370000 		movl	$55, %edx
 2717      00
 2718 06a7 4C8B20   		movq	(%rax), %r12
 2719 06aa 4889EF   		movq	%rbp, %rdi
 2720 06ad E8000000 		call	_ZN8UnitTest11TestDetailsC1ERKS0_i@PLT
 2720      00
 2721 06b2 488D1500 		leaq	.LC19(%rip), %rdx
 2721      000000
 2722 06b9 4889EE   		movq	%rbp, %rsi
 2723 06bc 4C89E7   		movq	%r12, %rdi
 2724 06bf E8000000 		call	_ZN8UnitTest11TestResults13OnTestFailureERKNS_11TestDetailsEPKc@PLT
 2724      00
 2725              	.LEHE64:
 2726 06c4 E912FEFF 		jmp	.L200
 2726      FF
 2727              	.L212:
 2728 06c9 F30F1EFA 		endbr64
 2729 06cd 4889C5   		movq	%rax, %rbp
 2730 06d0 E8000000 		call	__cxa_end_catch@PLT
 2730      00
 2731 06d5 4889EF   		movq	%rbp, %rdi
 2732              	.LEHB65:
 2733 06d8 E8000000 		call	_Unwind_Resume@PLT
 2733      00
 2734              	.LEHE65:
 2735              	.L209:
 2736 06dd F30F1EFA 		endbr64
 2737 06e1 EBAB     		jmp	.L231
 2738              		.cfi_endproc
 2739              	.LFE1468:
 2740              		.section	.gcc_except_table
 2741              		.align 4
 2742              	.LLSDAC1468:
 2743 01c4 FF       		.byte	0xff
 2744 01c5 9B       		.byte	0x9b
 2745 01c6 49       		.uleb128 .LLSDATTC1468-.LLSDATTDC1468
 2746              	.LLSDATTDC1468:
 2747 01c7 01       		.byte	0x1
 2748 01c8 32       		.uleb128 .LLSDACSEC1468-.LLSDACSBC1468
 2749              	.LLSDACSBC1468:
 2750 01c9 34       		.uleb128 .LEHB57-.LCOLDB22
 2751 01ca 31       		.uleb128 .LEHE57-.LEHB57
 2752 01cb D304     		.uleb128 .L212-.LCOLDB22
 2753 01cd 00       		.uleb128 0
 2754 01ce 8D01     		.uleb128 .LEHB58-.LCOLDB22
 2755 01d0 05       		.uleb128 .LEHE58-.LEHB58
 2756 01d1 00       		.uleb128 0
 2757 01d2 00       		.uleb128 0
 2758 01d3 8F02     		.uleb128 .LEHB59-.LCOLDB22
 2759 01d5 55       		.uleb128 .LEHE59-.LEHB59
 2760 01d6 E704     		.uleb128 .L209-.LCOLDB22
 2761 01d8 00       		.uleb128 0
 2762 01d9 9D03     		.uleb128 .LEHB60-.LCOLDB22
 2763 01db 05       		.uleb128 .LEHE60-.LEHB60
 2764 01dc 9404     		.uleb128 .L210-.LCOLDB22
 2765 01de 00       		.uleb128 0
 2766 01df B103     		.uleb128 .LEHB61-.LCOLDB22
 2767 01e1 3A       		.uleb128 .LEHE61-.LEHB61
 2768 01e2 F803     		.uleb128 .L211-.LCOLDB22
 2769 01e4 00       		.uleb128 0
 2770 01e5 EE03     		.uleb128 .LEHB62-.LCOLDB22
 2771 01e7 05       		.uleb128 .LEHE62-.LEHB62
 2772 01e8 9404     		.uleb128 .L210-.LCOLDB22
 2773 01ea 00       		.uleb128 0
 2774 01eb 8F04     		.uleb128 .LEHB63-.LCOLDB22
 2775 01ed 05       		.uleb128 .LEHE63-.LEHB63
 2776 01ee 00       		.uleb128 0
 2777 01ef 00       		.uleb128 0
 2778 01f0 9D04     		.uleb128 .LEHB64-.LCOLDB22
 2779 01f2 31       		.uleb128 .LEHE64-.LEHB64
 2780 01f3 D304     		.uleb128 .L212-.LCOLDB22
 2781 01f5 00       		.uleb128 0
 2782 01f6 E204     		.uleb128 .LEHB65-.LCOLDB22
 2783 01f8 05       		.uleb128 .LEHE65-.LEHB65
 2784 01f9 00       		.uleb128 0
 2785 01fa 00       		.uleb128 0
 2786              	.LLSDACSEC1468:
 2787 01fb 03       		.byte	0x3
 2788 01fc 00       		.byte	0
 2789 01fd 02       		.byte	0x2
 2790 01fe 7D       		.byte	0x7d
 2791 01ff 01       		.byte	0x1
 2792 0200 7D       		.byte	0x7d
 2793 0201 00       		.byte	0
 2794 0202 7D       		.byte	0x7d
 2795 0203 00       		.align 4
 2796 0204 00000000 		.long	0
 2797              	
 2798 0208 00000000 		.long	DW.ref._ZTISt9exception-.
 2799 020c 00000000 		.long	DW.ref._ZTIN8UnitTest15AssertExceptionE-.
 2800              	.LLSDATTC1468:
 2801              		.section	.text.unlikely
 2802              		.text
 2804              		.section	.text.unlikely
 2806              	.LCOLDE22:
 2807              		.text
 2808              	.LHOTE22:
 2809              		.section	.rodata._ZN8UnitTest10CheckEqualIPKcNSt7__cxx1112basic_stringIcSt11char_traitsIcESaIcEEEE
 2810              	.LC23:
 2811 0000 45787065 		.string	"Expected "
 2811      63746564 
 2811      2000
 2812              	.LC24:
 2813 000a 20627574 		.string	" but was "
 2813      20776173 
 2813      2000
 2814              		.section	.text._ZN8UnitTest10CheckEqualIPKcNSt7__cxx1112basic_stringIcSt11char_traitsIcESaIcEEEEEv
 2815              		.p2align 4
 2816              		.weak	_ZN8UnitTest10CheckEqualIPKcNSt7__cxx1112basic_stringIcSt11char_traitsIcESaIcEEEEEvRNS_11Tes
 2818              	_ZN8UnitTest10CheckEqualIPKcNSt7__cxx1112basic_stringIcSt11char_traitsIcESaIcEEEEEvRNS_11TestResult
 2819              	.LFB1569:
 2820              		.cfi_startproc
 2821              		.cfi_personality 0x9b,DW.ref.__gxx_personality_v0
 2822              		.cfi_lsda 0x1b,.LLSDA1569
 2823 0000 F30F1EFA 		endbr64
 2824 0004 4157     		pushq	%r15
 2825              		.cfi_def_cfa_offset 16
 2826              		.cfi_offset 15, -16
 2827 0006 4156     		pushq	%r14
 2828              		.cfi_def_cfa_offset 24
 2829              		.cfi_offset 14, -24
 2830 0008 4155     		pushq	%r13
 2831              		.cfi_def_cfa_offset 32
 2832              		.cfi_offset 13, -32
 2833 000a 4154     		pushq	%r12
 2834              		.cfi_def_cfa_offset 40
 2835              		.cfi_offset 12, -40
 2836 000c 4989CC   		movq	%rcx, %r12
 2837 000f 55       		pushq	%rbp
 2838              		.cfi_def_cfa_offset 48
 2839              		.cfi_offset 6, -48
 2840 0010 4889F5   		movq	%rsi, %rbp
 2841 0013 53       		pushq	%rbx
 2842              		.cfi_def_cfa_offset 56
 2843              		.cfi_offset 3, -56
 2844 0014 4889D3   		movq	%rdx, %rbx
 2845 0017 4881ECD8 		subq	$472, %rsp
 2845      010000
 2846              		.cfi_def_cfa_offset 528
 2847 001e 488B36   		movq	(%rsi), %rsi
 2848 0021 F30F7E0D 		movq	.LC25(%rip), %xmm1
 2848      00000000 
 2849 0029 48897C24 		movq	%rdi, 16(%rsp)
 2849      10
 2850 002e 4889D7   		movq	%rdx, %rdi
 2851 0031 0F160D00 		movhps	.LC21(%rip), %xmm1
 2851      000000
 2852 0038 64488B04 		movq	%fs:40, %rax
 2852      25280000 
 2852      00
 2853 0041 48898424 		movq	%rax, 456(%rsp)
 2853      C8010000 
 2854 0049 31C0     		xorl	%eax, %eax
 2855 004b 0F290C24 		movaps	%xmm1, (%rsp)
 2856              	.LEHB66:
 2857 004f E8000000 		call	_ZNKSt7__cxx1112basic_stringIcSt11char_traitsIcESaIcEE7compareEPKc@PLT
 2857      00
 2858              	.LEHE66:
 2859 0054 85C0     		testl	%eax, %eax
 2860 0056 7530     		jne	.L259
 2861              	.L236:
 2862 0058 488B8424 		movq	456(%rsp), %rax
 2862      C8010000 
 2863 0060 64482B04 		subq	%fs:40, %rax
 2863      25280000 
 2863      00
 2864 0069 0F858D02 		jne	.L260
 2864      0000
 2865 006f 4881C4D8 		addq	$472, %rsp
 2865      010000
 2866              		.cfi_remember_state
 2867              		.cfi_def_cfa_offset 56
 2868 0076 5B       		popq	%rbx
 2869              		.cfi_def_cfa_offset 48
 2870 0077 5D       		popq	%rbp
 2871              		.cfi_def_cfa_offset 40
 2872 0078 415C     		popq	%r12
 2873              		.cfi_def_cfa_offset 32
 2874 007a 415D     		popq	%r13
 2875              		.cfi_def_cfa_offset 24
 2876 007c 415E     		popq	%r14
 2877              		.cfi_def_cfa_offset 16
 2878 007e 415F     		popq	%r15
 2879              		.cfi_def_cfa_offset 8
 2880 0080 C3       		ret
 2881              		.p2align 4,,10
 2882 0081 0F1F8000 		.p2align 3
 2882      000000
 2883              	.L259:
 2884              		.cfi_restore_state
 2885 0088 4C8DB424 		leaq	192(%rsp), %r14
 2885      C0000000 
 2886 0090 4C89F7   		movq	%r14, %rdi
 2887 0093 E8000000 		call	_ZNSt8ios_baseC2Ev@PLT
 2887      00
 2888 0098 31C0     		xorl	%eax, %eax
 2889 009a 660FEFC0 		pxor	%xmm0, %xmm0
 2890 009e 31F6     		xorl	%esi, %esi
 2891 00a0 66898424 		movw	%ax, 416(%rsp)
 2891      A0010000 
 2892 00a8 488D0500 		leaq	24+_ZTCN8UnitTest15MemoryOutStreamE0_So(%rip), %rax
 2892      000000
 2893 00af 4C89F7   		movq	%r14, %rdi
 2894 00b2 48894424 		movq	%rax, 48(%rsp)
 2894      30
 2895 00b7 4883C028 		addq	$40, %rax
 2896 00bb 48C78424 		movq	$0, 408(%rsp)
 2896      98010000 
 2896      00000000 
 2897 00c7 48898424 		movq	%rax, 192(%rsp)
 2897      C0000000 
 2898 00cf 0F118424 		movups	%xmm0, 424(%rsp)
 2898      A8010000 
 2899 00d7 0F118424 		movups	%xmm0, 440(%rsp)
 2899      B8010000 
 2900              	.LEHB67:
 2901 00df E8000000 		call	_ZNSt9basic_iosIcSt11char_traitsIcEE4initEPSt15basic_streambufIcS1_E@PLT
 2901      00
 2902              	.LEHE67:
 2903 00e4 488D0500 		leaq	64+_ZTCN8UnitTest15MemoryOutStreamE0_NSt7__cxx1119basic_ostringstreamIcSt11char_traitsIcESaIc
 2903      000000
 2904 00eb 660F6F1C 		movdqa	(%rsp), %xmm3
 2904      24
 2905 00f0 660FEFC0 		pxor	%xmm0, %xmm0
 2906 00f4 4C8D6C24 		leaq	48(%rsp), %r13
 2906      30
 2907 00f9 48898424 		movq	%rax, 192(%rsp)
 2907      C0000000 
 2908 0101 488D4424 		leaq	112(%rsp), %rax
 2908      70
 2909 0106 4C8D7C24 		leaq	56(%rsp), %r15
 2909      38
 2910 010b 4889C7   		movq	%rax, %rdi
 2911 010e 48894424 		movq	%rax, 40(%rsp)
 2911      28
 2912 0113 0F295C24 		movaps	%xmm3, 48(%rsp)
 2912      30
 2913 0118 0F294424 		movaps	%xmm0, 64(%rsp)
 2913      40
 2914 011d 0F294424 		movaps	%xmm0, 80(%rsp)
 2914      50
 2915 0122 0F294424 		movaps	%xmm0, 96(%rsp)
 2915      60
 2916 0127 E8000000 		call	_ZNSt6localeC1Ev@PLT
 2916      00
 2917 012c 488D0500 		leaq	16+_ZTVNSt7__cxx1115basic_stringbufIcSt11char_traitsIcESaIcEEE(%rip), %rax
 2917      000000
 2918 0133 4C89FE   		movq	%r15, %rsi
 2919 0136 48C78424 		movq	$0, 136(%rsp)
 2919      88000000 
 2919      00000000 
 2920 0142 48894424 		movq	%rax, 56(%rsp)
 2920      38
 2921 0147 488D8424 		leaq	144(%rsp), %rax
 2921      90000000 
 2922 014f 48894424 		movq	%rax, 24(%rsp)
 2922      18
 2923 0154 48898424 		movq	%rax, 128(%rsp)
 2923      80000000 
 2924 015c 488B4424 		movq	48(%rsp), %rax
 2924      30
 2925 0161 C6842490 		movb	$0, 144(%rsp)
 2925      00000000 
 2926 0169 488B78E8 		movq	-24(%rax), %rdi
 2927 016d C7442478 		movl	$16, 120(%rsp)
 2927      10000000 
 2928 0175 4C01EF   		addq	%r13, %rdi
 2929              	.LEHB68:
 2930 0178 E8000000 		call	_ZNSt9basic_iosIcSt11char_traitsIcEE4initEPSt15basic_streambufIcS1_E@PLT
 2930      00
 2931              	.LEHE68:
 2932 017d 4C8D3D00 		leaq	24+_ZTVN8UnitTest15MemoryOutStreamE(%rip), %r15
 2932      000000
 2933 0184 BA090000 		movl	$9, %edx
 2933      00
 2934 0189 4C89EF   		movq	%r13, %rdi
 2935 018c 48C78424 		movq	$0, 168(%rsp)
 2935      A8000000 
 2935      00000000 
 2936 0198 498D4728 		leaq	40(%r15), %rax
 2937 019c 488D3500 		leaq	.LC23(%rip), %rsi
 2937      000000
 2938 01a3 4C897C24 		movq	%r15, 48(%rsp)
 2938      30
 2939 01a8 48898424 		movq	%rax, 192(%rsp)
 2939      C0000000 
 2940 01b0 488D8424 		leaq	176(%rsp), %rax
 2940      B0000000 
 2941 01b8 48894424 		movq	%rax, 32(%rsp)
 2941      20
 2942 01bd 48898424 		movq	%rax, 160(%rsp)
 2942      A0000000 
 2943 01c5 C68424B0 		movb	$0, 176(%rsp)
 2943      00000000 
 2944              	.LEHB69:
 2945 01cd E8000000 		call	_ZSt16__ostream_insertIcSt11char_traitsIcEERSt13basic_ostreamIT_T0_ES6_PKS3_l@PLT
 2945      00
 2946 01d2 488B6D00 		movq	0(%rbp), %rbp
 2947 01d6 4885ED   		testq	%rbp, %rbp
 2948 01d9 0F840101 		je	.L261
 2948      0000
 2949 01df 4889EF   		movq	%rbp, %rdi
 2950 01e2 E8000000 		call	strlen@PLT
 2950      00
 2951 01e7 4889EE   		movq	%rbp, %rsi
 2952 01ea 4C89EF   		movq	%r13, %rdi
 2953 01ed 4889C2   		movq	%rax, %rdx
 2954 01f0 E8000000 		call	_ZSt16__ostream_insertIcSt11char_traitsIcEERSt13basic_ostreamIT_T0_ES6_PKS3_l@PLT
 2954      00
 2955              	.L244:
 2956 01f5 BA090000 		movl	$9, %edx
 2956      00
 2957 01fa 488D3500 		leaq	.LC24(%rip), %rsi
 2957      000000
 2958 0201 4C89EF   		movq	%r13, %rdi
 2959 0204 E8000000 		call	_ZSt16__ostream_insertIcSt11char_traitsIcEERSt13basic_ostreamIT_T0_ES6_PKS3_l@PLT
 2959      00
 2960 0209 488B5308 		movq	8(%rbx), %rdx
 2961 020d 488B33   		movq	(%rbx), %rsi
 2962 0210 4C89EF   		movq	%r13, %rdi
 2963 0213 E8000000 		call	_ZSt16__ostream_insertIcSt11char_traitsIcEERSt13basic_ostreamIT_T0_ES6_PKS3_l@PLT
 2963      00
 2964 0218 4C89EF   		movq	%r13, %rdi
 2965 021b E8000000 		call	_ZNK8UnitTest15MemoryOutStream7GetTextEv@PLT
 2965      00
 2966 0220 F30F7E15 		movq	.LC25(%rip), %xmm2
 2966      00000000 
 2967 0228 488B7C24 		movq	16(%rsp), %rdi
 2967      10
 2968 022d 4889C2   		movq	%rax, %rdx
 2969 0230 4C89E6   		movq	%r12, %rsi
 2970 0233 0F161500 		movhps	.LC26(%rip), %xmm2
 2970      000000
 2971 023a 0F291424 		movaps	%xmm2, (%rsp)
 2972 023e E8000000 		call	_ZN8UnitTest11TestResults13OnTestFailureERKNS_11TestDetailsEPKc@PLT
 2972      00
 2973              	.LEHE69:
 2974 0243 488D0500 		leaq	64+_ZTVN8UnitTest15MemoryOutStreamE(%rip), %rax
 2974      000000
 2975 024a 4C897C24 		movq	%r15, 48(%rsp)
 2975      30
 2976 024f 488BBC24 		movq	160(%rsp), %rdi
 2976      A0000000 
 2977 0257 48898424 		movq	%rax, 192(%rsp)
 2977      C0000000 
 2978 025f 483B7C24 		cmpq	32(%rsp), %rdi
 2978      20
 2979 0264 7405     		je	.L245
 2980 0266 E8000000 		call	_ZdlPv@PLT
 2980      00
 2981              	.L245:
 2982 026b 660F6F24 		movdqa	(%rsp), %xmm4
 2982      24
 2983 0270 488D0500 		leaq	64+_ZTCN8UnitTest15MemoryOutStreamE0_NSt7__cxx1119basic_ostringstreamIcSt11char_traitsIcESaIc
 2983      000000
 2984 0277 488BBC24 		movq	128(%rsp), %rdi
 2984      80000000 
 2985 027f 48898424 		movq	%rax, 192(%rsp)
 2985      C0000000 
 2986 0287 0F296424 		movaps	%xmm4, 48(%rsp)
 2986      30
 2987 028c 483B7C24 		cmpq	24(%rsp), %rdi
 2987      18
 2988 0291 7405     		je	.L246
 2989 0293 E8000000 		call	_ZdlPv@PLT
 2989      00
 2990              	.L246:
 2991 0298 488B7C24 		movq	40(%rsp), %rdi
 2991      28
 2992 029d 488D0500 		leaq	16+_ZTVSt15basic_streambufIcSt11char_traitsIcEE(%rip), %rax
 2992      000000
 2993 02a4 48894424 		movq	%rax, 56(%rsp)
 2993      38
 2994 02a9 E8000000 		call	_ZNSt6localeD1Ev@PLT
 2994      00
 2995 02ae 488D0500 		leaq	24+_ZTCN8UnitTest15MemoryOutStreamE0_So(%rip), %rax
 2995      000000
 2996 02b5 4C89F7   		movq	%r14, %rdi
 2997 02b8 48894424 		movq	%rax, 48(%rsp)
 2997      30
 2998 02bd 488D0500 		leaq	16+_ZTVSt9basic_iosIcSt11char_traitsIcEE(%rip), %rax
 2998      000000
 2999 02c4 48898424 		movq	%rax, 192(%rsp)
 2999      C0000000 
 3000              	.LEHB70:
 3001 02cc E8000000 		call	_ZNSt8ios_baseD2Ev@PLT
 3001      00
 3002              	.LEHE70:
 3003 02d1 E982FDFF 		jmp	.L236
 3003      FF
 3004 02d6 662E0F1F 		.p2align 4,,10
 3004      84000000 
 3004      0000
 3005              		.p2align 3
 3006              	.L261:
 3007 02e0 488B4424 		movq	48(%rsp), %rax
 3007      30
 3008 02e5 488B78E8 		movq	-24(%rax), %rdi
 3009 02e9 4C01EF   		addq	%r13, %rdi
 3010 02ec 8B7720   		movl	32(%rdi), %esi
 3011 02ef 83CE01   		orl	$1, %esi
 3012              	.LEHB71:
 3013 02f2 E8000000 		call	_ZNSt9basic_iosIcSt11char_traitsIcEE5clearESt12_Ios_Iostate@PLT
 3013      00
 3014              	.LEHE71:
 3015 02f7 E9F9FEFF 		jmp	.L244
 3015      FF
 3016              	.L260:
 3017 02fc E8000000 		call	__stack_chk_fail@PLT
 3017      00
 3018              	.L251:
 3019 0301 F30F1EFA 		endbr64
 3020 0305 4889C5   		movq	%rax, %rbp
 3021 0308 EB12     		jmp	.L239
 3022              	.L249:
 3023 030a F30F1EFA 		endbr64
 3024 030e 4889C5   		movq	%rax, %rbp
 3025 0311 EB3C     		jmp	.L247
 3026              	.L250:
 3027 0313 F30F1EFA 		endbr64
 3028 0317 4889C5   		movq	%rax, %rbp
 3029 031a EB14     		jmp	.L240
 3030              	.L239:
 3031 031c 4C89FF   		movq	%r15, %rdi
 3032 031f E8000000 		call	_ZNSt7__cxx1115basic_stringbufIcSt11char_traitsIcESaIcEED1Ev
 3032      00
 3033 0324 488D0500 		leaq	24+_ZTCN8UnitTest15MemoryOutStreamE0_So(%rip), %rax
 3033      000000
 3034 032b 48894424 		movq	%rax, 48(%rsp)
 3034      30
 3035              	.L240:
 3036 0330 488D0500 		leaq	16+_ZTVSt9basic_iosIcSt11char_traitsIcEE(%rip), %rax
 3036      000000
 3037 0337 4C89F7   		movq	%r14, %rdi
 3038 033a 48898424 		movq	%rax, 192(%rsp)
 3038      C0000000 
 3039 0342 E8000000 		call	_ZNSt8ios_baseD2Ev@PLT
 3039      00
 3040 0347 4889EF   		movq	%rbp, %rdi
 3041              	.LEHB72:
 3042 034a E8000000 		call	_Unwind_Resume@PLT
 3042      00
 3043              	.LEHE72:
 3044              	.L247:
 3045 034f 4C89EF   		movq	%r13, %rdi
 3046 0352 E8000000 		call	_ZN8UnitTest15MemoryOutStreamD1Ev
 3046      00
 3047 0357 4889EF   		movq	%rbp, %rdi
 3048              	.LEHB73:
 3049 035a E8000000 		call	_Unwind_Resume@PLT
 3049      00
 3050              	.LEHE73:
 3051              		.cfi_endproc
 3052              	.LFE1569:
 3053              		.section	.gcc_except_table
 3054              	.LLSDA1569:
 3055 0210 FF       		.byte	0xff
 3056 0211 FF       		.byte	0xff
 3057 0212 01       		.byte	0x1
 3058 0213 2B       		.uleb128 .LLSDACSE1569-.LLSDACSB1569
 3059              	.LLSDACSB1569:
 3060 0214 4F       		.uleb128 .LEHB66-.LFB1569
 3061 0215 05       		.uleb128 .LEHE66-.LEHB66
 3062 0216 00       		.uleb128 0
 3063 0217 00       		.uleb128 0
 3064 0218 DF01     		.uleb128 .LEHB67-.LFB1569
 3065 021a 05       		.uleb128 .LEHE67-.LEHB67
 3066 021b 9306     		.uleb128 .L250-.LFB1569
 3067 021d 00       		.uleb128 0
 3068 021e F802     		.uleb128 .LEHB68-.LFB1569
 3069 0220 05       		.uleb128 .LEHE68-.LEHB68
 3070 0221 8106     		.uleb128 .L251-.LFB1569
 3071 0223 00       		.uleb128 0
 3072 0224 CD03     		.uleb128 .LEHB69-.LFB1569
 3073 0226 76       		.uleb128 .LEHE69-.LEHB69
 3074 0227 8A06     		.uleb128 .L249-.LFB1569
 3075 0229 00       		.uleb128 0
 3076 022a CC05     		.uleb128 .LEHB70-.LFB1569
 3077 022c 05       		.uleb128 .LEHE70-.LEHB70
 3078 022d 00       		.uleb128 0
 3079 022e 00       		.uleb128 0
 3080 022f F205     		.uleb128 .LEHB71-.LFB1569
 3081 0231 05       		.uleb128 .LEHE71-.LEHB71
 3082 0232 8A06     		.uleb128 .L249-.LFB1569
 3083 0234 00       		.uleb128 0
 3084 0235 CA06     		.uleb128 .LEHB72-.LFB1569
 3085 0237 05       		.uleb128 .LEHE72-.LEHB72
 3086 0238 00       		.uleb128 0
 3087 0239 00       		.uleb128 0
 3088 023a DA06     		.uleb128 .LEHB73-.LFB1569
 3089 023c 05       		.uleb128 .LEHE73-.LEHB73
 3090 023d 00       		.uleb128 0
 3091 023e 00       		.uleb128 0
 3092              	.LLSDACSE1569:
 3093              		.section	.text._ZN8UnitTest10CheckEqualIPKcNSt7__cxx1112basic_stringIcSt11char_traitsIcESaIcEEEEEv
 3095              		.section	.rodata.str1.1
 3096              	.LC27:
 3097 0081 6661696C 		.string	"fail.h"
 3097      2E6800
 3098              	.LC28:
 3099 0088 73756974 		.string	"suite"
 3099      6500
 3100              	.LC29:
 3101 008e 4661696C 		.string	"FailedTest"
 3101      65645465 
 3101      737400
 3102              	.LC30:
 3103 0099 65787065 		.string	"expected 1 but was 2"
 3103      63746564 
 3103      20312062 
 3103      75742077 
 3103      61732032 
 3104              	.LC31:
 3105 00ae 65787065 		.string	"expected one but was two"
 3105      63746564 
 3105      206F6E65 
 3105      20627574 
 3105      20776173 
 3106              		.section	.rodata.str1.8
 3107 00fe 0000     		.align 8
 3108              	.LC34:
 3109 0100 3C3F786D 		.ascii	"<?xml version=\"1.0\""
 3109      6C207665 
 3109      7273696F 
 3109      6E3D2231 
 3109      2E3022
 3110 0113 3F3E3C75 		.string	"?><unittest-results tests=\"1\" failedtests=\"1\" failures=\"2\" time=\"1.1\"><test suite
 3110      6E697474 
 3110      6573742D 
 3110      72657375 
 3110      6C747320 
 3111 0214 00000000 		.align 8
 3112              	.LC35:
 3113 0218 556E6861 		.string	"Unhandled exception in CHECK_EQUAL(expected, output.str())"
 3113      6E646C65 
 3113      64206578 
 3113      63657074 
 3113      696F6E20 
 3114              		.section	.text.unlikely
 3115              	.LCOLDB36:
 3116              		.text
 3117              	.LHOTB36:
 3118 09e1 66662E0F 		.p2align 4
 3118      1F840000 
 3118      0000000F 
 3118      1F4000
 3120              	_ZN8UnitTest11ExecuteTestIN12_GLOBAL__N_144XmlTestReporterFixtureMultipleFailuresHelperEEEvRT_RKNS_
 3121              	.LFB1578:
 3122              		.cfi_startproc
 3123              		.cfi_personality 0x9b,DW.ref.__gxx_personality_v0
 3124              		.cfi_lsda 0x1b,.LLSDA1578
 3125 09f0 4156     		pushq	%r14
 3126              		.cfi_def_cfa_offset 16
 3127              		.cfi_offset 14, -16
 3128 09f2 4155     		pushq	%r13
 3129              		.cfi_def_cfa_offset 24
 3130              		.cfi_offset 13, -24
 3131 09f4 4154     		pushq	%r12
 3132              		.cfi_def_cfa_offset 32
 3133              		.cfi_offset 12, -32
 3134 09f6 55       		pushq	%rbp
 3135              		.cfi_def_cfa_offset 40
 3136              		.cfi_offset 6, -40
 3137 09f7 53       		pushq	%rbx
 3138              		.cfi_def_cfa_offset 48
 3139              		.cfi_offset 3, -48
 3140 09f8 4889F3   		movq	%rsi, %rbx
 3141 09fb 4881ECF0 		subq	$1776, %rsp
 3141      060000
 3142              		.cfi_def_cfa_offset 1824
 3143 0a02 48893C24 		movq	%rdi, (%rsp)
 3144 0a06 48897424 		movq	%rsi, 8(%rsp)
 3144      08
 3145 0a0b 64488B04 		movq	%fs:40, %rax
 3145      25280000 
 3145      00
 3146 0a14 48898424 		movq	%rax, 1768(%rsp)
 3146      E8060000 
 3147 0a1c 31C0     		xorl	%eax, %eax
 3148              	.LEHB74:
 3149 0a1e E8000000 		call	_ZN8UnitTest11CurrentTest7DetailsEv@PLT
 3149      00
 3150              	.LEHE74:
 3151 0a23 488DBC24 		leaq	640(%rsp), %rdi
 3151      80020000 
 3152 0a2b 488918   		movq	%rbx, (%rax)
 3153              	.LEHB75:
 3154 0a2e E8000000 		call	_ZN8UnitTest16SignalTranslatorC1Ev@PLT
 3154      00
 3155              	.LEHE75:
 3156 0a33 488B3D00 		movq	_ZN8UnitTest16SignalTranslator12s_jumpTargetE(%rip), %rdi
 3156      000000
 3157 0a3a BE010000 		movl	$1, %esi
 3157      00
 3158 0a3f E8000000 		call	__sigsetjmp@PLT
 3158      00
 3159 0a44 F30F1EFA 		endbr64
 3160 0a48 85C0     		testl	%eax, %eax
 3161 0a4a 0F850000 		jne	.L307
 3161      0000
 3162 0a50 488D7C24 		leaq	64(%rsp), %rdi
 3162      40
 3163 0a55 41B80100 		movl	$1, %r8d
 3163      0000
 3164 0a5b 488D0D00 		leaq	.LC27(%rip), %rcx
 3164      000000
 3165 0a62 488D1500 		leaq	.LC28(%rip), %rdx
 3165      000000
 3166 0a69 488D3500 		leaq	.LC29(%rip), %rsi
 3166      000000
 3167              	.LEHB76:
 3168 0a70 E8000000 		call	_ZN8UnitTest11TestDetailsC1EPKcS2_S2_i@PLT
 3168      00
 3169 0a75 488D7C24 		leaq	96(%rsp), %rdi
 3169      60
 3170 0a7a 41B81F00 		movl	$31, %r8d
 3170      0000
 3171 0a80 488D0D00 		leaq	.LC27(%rip), %rcx
 3171      000000
 3172 0a87 488D1500 		leaq	.LC28(%rip), %rdx
 3172      000000
 3173 0a8e 488D3500 		leaq	.LC29(%rip), %rsi
 3173      000000
 3174 0a95 E8000000 		call	_ZN8UnitTest11TestDetailsC1EPKcS2_S2_i@PLT
 3174      00
 3175 0a9a 488B1C24 		movq	(%rsp), %rbx
 3176 0a9e 488D7424 		leaq	64(%rsp), %rsi
 3176      40
 3177 0aa3 488DAB78 		leaq	376(%rbx), %rbp
 3177      010000
 3178 0aaa 4889EF   		movq	%rbp, %rdi
 3179 0aad E8000000 		call	_ZN8UnitTest20DeferredTestReporter15ReportTestStartERKNS_11TestDetailsE@PLT
 3179      00
 3180 0ab2 488D7424 		leaq	64(%rsp), %rsi
 3180      40
 3181 0ab7 488D1500 		leaq	.LC30(%rip), %rdx
 3181      000000
 3182 0abe 4889EF   		movq	%rbp, %rdi
 3183 0ac1 E8000000 		call	_ZN8UnitTest20DeferredTestReporter13ReportFailureERKNS_11TestDetailsEPKc@PLT
 3183      00
 3184 0ac6 488D7424 		leaq	96(%rsp), %rsi
 3184      60
 3185 0acb 488D1500 		leaq	.LC31(%rip), %rdx
 3185      000000
 3186 0ad2 4889EF   		movq	%rbp, %rdi
 3187 0ad5 E8000000 		call	_ZN8UnitTest20DeferredTestReporter13ReportFailureERKNS_11TestDetailsEPKc@PLT
 3187      00
 3188 0ada F30F1005 		movss	.LC32(%rip), %xmm0
 3188      00000000 
 3189 0ae2 488D7424 		leaq	64(%rsp), %rsi
 3189      40
 3190 0ae7 4889EF   		movq	%rbp, %rdi
 3191 0aea E8000000 		call	_ZN8UnitTest20DeferredTestReporter16ReportTestFinishERKNS_11TestDetailsEf@PLT
 3191      00
 3192 0aef F30F1005 		movss	.LC33(%rip), %xmm0
 3192      00000000 
 3193 0af7 B9020000 		movl	$2, %ecx
 3193      00
 3194 0afc BA010000 		movl	$1, %edx
 3194      00
 3195 0b01 4889EF   		movq	%rbp, %rdi
 3196 0b04 BE010000 		movl	$1, %esi
 3196      00
 3197 0b09 E8000000 		call	_ZN8UnitTest15XmlTestReporter13ReportSummaryEiiif@PLT
 3197      00
 3198              	.LEHE76:
 3199 0b0e 488D0500 		leaq	.LC34(%rip), %rax
 3199      000000
 3200 0b15 48894424 		movq	%rax, 24(%rsp)
 3200      18
 3201              	.LEHB77:
 3202 0b1a E8000000 		call	_ZN8UnitTest11CurrentTest7DetailsEv@PLT
 3202      00
 3203 0b1f 488B30   		movq	(%rax), %rsi
 3204 0b22 488DBC24 		leaq	160(%rsp), %rdi
 3204      A0000000 
 3205 0b2a BAB40000 		movl	$180, %edx
 3205      00
 3206 0b2f E8000000 		call	_ZN8UnitTest11TestDetailsC1ERKS0_i@PLT
 3206      00
 3207              	.LEHE77:
 3208 0b34 488D8424 		leaq	208(%rsp), %rax
 3208      D0000000 
 3209 0b3c C68424D0 		movb	$0, 208(%rsp)
 3209      00000000 
 3210 0b44 488DBC24 		leaq	192(%rsp), %rdi
 3210      C0000000 
 3211 0b4c 48898424 		movq	%rax, 192(%rsp)
 3211      C0000000 
 3212 0b54 488B4330 		movq	48(%rbx), %rax
 3213 0b58 48C78424 		movq	$0, 200(%rsp)
 3213      C8000000 
 3213      00000000 
 3214 0b64 4885C0   		testq	%rax, %rax
 3215 0b67 0F84B300 		je	.L265
 3215      0000
 3216 0b6d 4C8B4320 		movq	32(%rbx), %r8
 3217 0b71 4D85C0   		testq	%r8, %r8
 3218 0b74 0F849600 		je	.L304
 3218      0000
 3219 0b7a 4C39C0   		cmpq	%r8, %rax
 3220 0b7d 0F878D00 		ja	.L304
 3220      0000
 3221              	.L266:
 3222 0b83 488B0424 		movq	(%rsp), %rax
 3223 0b87 488DBC24 		leaq	192(%rsp), %rdi
 3223      C0000000 
 3224 0b8f 31D2     		xorl	%edx, %edx
 3225 0b91 31F6     		xorl	%esi, %esi
 3226 0b93 488B4828 		movq	40(%rax), %rcx
 3227 0b97 4929C8   		subq	%rcx, %r8
 3228              	.LEHB78:
 3229 0b9a E8000000 		call	_ZNSt7__cxx1112basic_stringIcSt11char_traitsIcESaIcEE10_M_replaceEmmPKcm@PLT
 3229      00
 3230              	.LEHE78:
 3231              	.L269:
 3232              	.LEHB79:
 3233 0b9f E8000000 		call	_ZN8UnitTest11CurrentTest7ResultsEv@PLT
 3233      00
 3234 0ba4 488B38   		movq	(%rax), %rdi
 3235 0ba7 488D8C24 		leaq	160(%rsp), %rcx
 3235      A0000000 
 3236 0baf 488D7424 		leaq	24(%rsp), %rsi
 3236      18
 3237 0bb4 488D9424 		leaq	192(%rsp), %rdx
 3237      C0000000 
 3238 0bbc E8000000 		call	_ZN8UnitTest10CheckEqualIPKcNSt7__cxx1112basic_stringIcSt11char_traitsIcESaIcEEEEEvRNS_11Test
 3238      00
 3239              	.LEHE79:
 3240 0bc1 488BBC24 		movq	192(%rsp), %rdi
 3240      C0000000 
 3241 0bc9 488D8424 		leaq	208(%rsp), %rax
 3241      D0000000 
 3242 0bd1 4839C7   		cmpq	%rax, %rdi
 3243 0bd4 7405     		je	.L275
 3244 0bd6 E8000000 		call	_ZdlPv@PLT
 3244      00
 3245              	.L275:
 3246 0bdb 488DBC24 		leaq	640(%rsp), %rdi
 3246      80020000 
 3247              	.LEHB80:
 3248 0be3 E8000000 		call	_ZN8UnitTest16SignalTranslatorD1Ev@PLT
 3248      00
 3249              	.LEHE80:
 3250              	.L262:
 3251 0be8 488B8424 		movq	1768(%rsp), %rax
 3251      E8060000 
 3252 0bf0 64482B04 		subq	%fs:40, %rax
 3252      25280000 
 3252      00
 3253 0bf9 7537     		jne	.L311
 3254 0bfb 4881C4F0 		addq	$1776, %rsp
 3254      060000
 3255              		.cfi_remember_state
 3256              		.cfi_def_cfa_offset 48
 3257 0c02 5B       		popq	%rbx
 3258              		.cfi_def_cfa_offset 40
 3259 0c03 5D       		popq	%rbp
 3260              		.cfi_def_cfa_offset 32
 3261 0c04 415C     		popq	%r12
 3262              		.cfi_def_cfa_offset 24
 3263 0c06 415D     		popq	%r13
 3264              		.cfi_def_cfa_offset 16
 3265 0c08 415E     		popq	%r14
 3266              		.cfi_def_cfa_offset 8
 3267 0c0a C3       		ret
 3268 0c0b 0F1F4400 		.p2align 4,,10
 3268      00
 3269              		.p2align 3
 3270              	.L304:
 3271              		.cfi_restore_state
 3272 0c10 4989C0   		movq	%rax, %r8
 3273 0c13 E96BFFFF 		jmp	.L266
 3273      FF
 3274 0c18 0F1F8400 		.p2align 4,,10
 3274      00000000 
 3275              		.p2align 3
 3276              	.L265:
 3277 0c20 488B3424 		movq	(%rsp), %rsi
 3278 0c24 4883C650 		addq	$80, %rsi
 3279              	.LEHB81:
 3280 0c28 E8000000 		call	_ZNSt7__cxx1112basic_stringIcSt11char_traitsIcESaIcEE9_M_assignERKS4_@PLT
 3280      00
 3281              	.LEHE81:
 3282 0c2d E96DFFFF 		jmp	.L269
 3282      FF
 3283              	.L311:
 3284 0c32 E8000000 		call	__stack_chk_fail@PLT
 3284      00
 3285              	.L301:
 3286 0c37 F30F1EFA 		endbr64
 3287 0c3b 4889C7   		movq	%rax, %rdi
 3288 0c3e E9000000 		jmp	.L272
 3288      00
 3289              	.L305:
 3290 0c43 F30F1EFA 		endbr64
 3291 0c47 E9000000 		jmp	.L306
 3291      00
 3292              	.L294:
 3293 0c4c F30F1EFA 		endbr64
 3294 0c50 4889C7   		movq	%rax, %rdi
 3295 0c53 4889D0   		movq	%rdx, %rax
 3296 0c56 E9000000 		jmp	.L283
 3296      00
 3297              	.L302:
 3298 0c5b F30F1EFA 		endbr64
 3299 0c5f 4889C3   		movq	%rax, %rbx
 3300 0c62 E9000000 		jmp	.L278
 3300      00
 3301              	.L303:
 3302 0c67 F30F1EFA 		endbr64
 3303 0c6b 4889C3   		movq	%rax, %rbx
 3304 0c6e E9000000 		jmp	.L270
 3304      00
 3305              		.section	.gcc_except_table
 3306 023f 00       		.align 4
 3307              	.LLSDA1578:
 3308 0240 FF       		.byte	0xff
 3309 0241 9B       		.byte	0x9b
 3310 0242 45       		.uleb128 .LLSDATT1578-.LLSDATTD1578
 3311              	.LLSDATTD1578:
 3312 0243 01       		.byte	0x1
 3313 0244 2E       		.uleb128 .LLSDACSE1578-.LLSDACSB1578
 3314              	.LLSDACSB1578:
 3315 0245 2E       		.uleb128 .LEHB74-.LFB1578
 3316 0246 05       		.uleb128 .LEHE74-.LEHB74
 3317 0247 00       		.uleb128 0
 3318 0248 00       		.uleb128 0
 3319 0249 3E       		.uleb128 .LEHB75-.LFB1578
 3320 024a 05       		.uleb128 .LEHE75-.LEHB75
 3321 024b DC04     		.uleb128 .L294-.LFB1578
 3322 024d 05       		.uleb128 0x5
 3323 024e 8001     		.uleb128 .LEHB76-.LFB1578
 3324 0250 9E01     		.uleb128 .LEHE76-.LEHB76
 3325 0252 D304     		.uleb128 .L305-.LFB1578
 3326 0254 07       		.uleb128 0x7
 3327 0255 AA02     		.uleb128 .LEHB77-.LFB1578
 3328 0257 1A       		.uleb128 .LEHE77-.LEHB77
 3329 0258 C704     		.uleb128 .L301-.LFB1578
 3330 025a 01       		.uleb128 0x1
 3331 025b AA03     		.uleb128 .LEHB78-.LFB1578
 3332 025d 05       		.uleb128 .LEHE78-.LEHB78
 3333 025e F704     		.uleb128 .L303-.LFB1578
 3334 0260 01       		.uleb128 0x1
 3335 0261 AF03     		.uleb128 .LEHB79-.LFB1578
 3336 0263 22       		.uleb128 .LEHE79-.LEHB79
 3337 0264 EB04     		.uleb128 .L302-.LFB1578
 3338 0266 01       		.uleb128 0x1
 3339 0267 F303     		.uleb128 .LEHB80-.LFB1578
 3340 0269 05       		.uleb128 .LEHE80-.LEHB80
 3341 026a DC04     		.uleb128 .L294-.LFB1578
 3342 026c 05       		.uleb128 0x5
 3343 026d B804     		.uleb128 .LEHB81-.LFB1578
 3344 026f 05       		.uleb128 .LEHE81-.LEHB81
 3345 0270 F704     		.uleb128 .L303-.LFB1578
 3346 0272 01       		.uleb128 0x1
 3347              	.LLSDACSE1578:
 3348 0273 03       		.byte	0x3
 3349 0274 00       		.byte	0
 3350 0275 02       		.byte	0x2
 3351 0276 7D       		.byte	0x7d
 3352 0277 01       		.byte	0x1
 3353 0278 7D       		.byte	0x7d
 3354 0279 00       		.byte	0
 3355 027a 7D       		.byte	0x7d
 3356 027b 00       		.align 4
 3357 027c 00000000 		.long	0
 3358              	
 3359 0280 00000000 		.long	DW.ref._ZTISt9exception-.
 3360 0284 00000000 		.long	DW.ref._ZTIN8UnitTest15AssertExceptionE-.
 3361              	.LLSDATT1578:
 3362              		.text
 3363              		.cfi_endproc
 3364              		.section	.text.unlikely
 3365              		.cfi_startproc
 3366              		.cfi_personality 0x9b,DW.ref.__gxx_personality_v0
 3367              		.cfi_lsda 0x1b,.LLSDAC1578
 3369              	_ZN8UnitTest11ExecuteTestIN12_GLOBAL__N_144XmlTestReporterFixtureMultipleFailuresHelperEEEvRT_RKNS_
 3370              	.LFSB1578:
 3371              	.L307:
 3372              		.cfi_def_cfa_offset 1824
 3373              		.cfi_offset 3, -48
 3374              		.cfi_offset 6, -40
 3375              		.cfi_offset 12, -32
 3376              		.cfi_offset 13, -24
 3377              		.cfi_offset 14, -16
 3378 06e3 BF080000 		movl	$8, %edi
 3378      00
 3379 06e8 E8000000 		call	__cxa_allocate_exception@PLT
 3379      00
 3380 06ed 31D2     		xorl	%edx, %edx
 3381 06ef 488D3500 		leaq	_ZTIPKc(%rip), %rsi
 3381      000000
 3382 06f6 4889C7   		movq	%rax, %rdi
 3383 06f9 488D0500 		leaq	.LC8(%rip), %rax
 3383      000000
 3384 0700 488907   		movq	%rax, (%rdi)
 3385              	.LEHB82:
 3386 0703 E8000000 		call	__cxa_throw@PLT
 3386      00
 3387              	.LEHE82:
 3388              	.L295:
 3389 0708 F30F1EFA 		endbr64
 3390              	.L306:
 3391 070c 4889C5   		movq	%rax, %rbp
 3392 070f 4889D3   		movq	%rdx, %rbx
 3393 0712 EB74     		jmp	.L282
 3394              	.L270:
 3395 0714 488BBC24 		movq	192(%rsp), %rdi
 3395      C0000000 
 3396 071c 488D8424 		leaq	208(%rsp), %rax
 3396      D0000000 
 3397 0724 4839C7   		cmpq	%rax, %rdi
 3398 0727 7405     		je	.L273
 3399 0729 E8000000 		call	_ZdlPv@PLT
 3399      00
 3400              	.L273:
 3401 072e 4889DF   		movq	%rbx, %rdi
 3402              	.L272:
 3403 0731 E8000000 		call	__cxa_begin_catch@PLT
 3403      00
 3404              	.LEHB83:
 3405 0736 E8000000 		call	_ZN8UnitTest11CurrentTest7ResultsEv@PLT
 3405      00
 3406 073b 488B28   		movq	(%rax), %rbp
 3407 073e E8000000 		call	_ZN8UnitTest11CurrentTest7DetailsEv@PLT
 3407      00
 3408 0743 488B30   		movq	(%rax), %rsi
 3409 0746 488DBC24 		leaq	128(%rsp), %rdi
 3409      80000000 
 3410 074e BAB40000 		movl	$180, %edx
 3410      00
 3411 0753 E8000000 		call	_ZN8UnitTest11TestDetailsC1ERKS0_i@PLT
 3411      00
 3412 0758 488DB424 		leaq	128(%rsp), %rsi
 3412      80000000 
 3413 0760 488D1500 		leaq	.LC35(%rip), %rdx
 3413      000000
 3414 0767 4889EF   		movq	%rbp, %rdi
 3415 076a E8000000 		call	_ZN8UnitTest11TestResults13OnTestFailureERKNS_11TestDetailsEPKc@PLT
 3415      00
 3416              	.LEHE83:
 3417              	.LEHB84:
 3418 076f E8000000 		call	__cxa_end_catch@PLT
 3418      00
 3419              	.LEHE84:
 3420 0774 E9000000 		jmp	.L275
 3420      00
 3421              	.L300:
 3422 0779 F30F1EFA 		endbr64
 3423 077d 4889C5   		movq	%rax, %rbp
 3424 0780 4889D3   		movq	%rdx, %rbx
 3425 0783 E8000000 		call	__cxa_end_catch@PLT
 3425      00
 3426              	.L282:
 3427 0788 488DBC24 		leaq	640(%rsp), %rdi
 3427      80020000 
 3428 0790 E8000000 		call	_ZN8UnitTest16SignalTranslatorD1Ev@PLT
 3428      00
 3429 0795 4889EF   		movq	%rbp, %rdi
 3430 0798 4889D8   		movq	%rbx, %rax
 3431              	.L283:
 3432 079b 4883F801 		cmpq	$1, %rax
 3433 079f 7454     		je	.L284
 3434 07a1 4883F802 		cmpq	$2, %rax
 3435 07a5 0F84C400 		je	.L312
 3435      0000
 3436 07ab E8000000 		call	__cxa_begin_catch@PLT
 3436      00
 3437              	.LEHB85:
 3438 07b0 E8000000 		call	_ZN8UnitTest11CurrentTest7ResultsEv@PLT
 3438      00
 3439 07b5 488B7424 		movq	8(%rsp), %rsi
 3439      08
 3440 07ba 488B38   		movq	(%rax), %rdi
 3441 07bd 488D1500 		leaq	.LC17(%rip), %rdx
 3441      000000
 3442 07c4 E8000000 		call	_ZN8UnitTest11TestResults13OnTestFailureERKNS_11TestDetailsEPKc@PLT
 3442      00
 3443              	.LEHE85:
 3444              	.LEHB86:
 3445 07c9 E8000000 		call	__cxa_end_catch@PLT
 3445      00
 3446              	.LEHE86:
 3447 07ce E9000000 		jmp	.L262
 3447      00
 3448              	.L278:
 3449 07d3 488BBC24 		movq	192(%rsp), %rdi
 3449      C0000000 
 3450 07db 488D8424 		leaq	208(%rsp), %rax
 3450      D0000000 
 3451 07e3 4839C7   		cmpq	%rax, %rdi
 3452 07e6 7405     		je	.L280
 3453 07e8 E8000000 		call	_ZdlPv@PLT
 3453      00
 3454              	.L280:
 3455 07ed 4889DF   		movq	%rbx, %rdi
 3456 07f0 E93CFFFF 		jmp	.L272
 3456      FF
 3457              	.L284:
 3458 07f5 E8000000 		call	__cxa_begin_catch@PLT
 3458      00
 3459 07fa 4889C5   		movq	%rax, %rbp
 3460              	.LEHB87:
 3461 07fd E8000000 		call	_ZN8UnitTest11CurrentTest7ResultsEv@PLT
 3461      00
 3462 0802 4C8B28   		movq	(%rax), %r13
 3463 0805 488B4500 		movq	0(%rbp), %rax
 3464 0809 4889EF   		movq	%rbp, %rdi
 3465 080c FF5010   		call	*16(%rax)
 3466 080f 4889EF   		movq	%rbp, %rdi
 3467 0812 4989C6   		movq	%rax, %r14
 3468 0815 E8000000 		call	_ZNK8UnitTest15AssertException10LineNumberEv@PLT
 3468      00
 3469 081a 4889EF   		movq	%rbp, %rdi
 3470 081d 4189C4   		movl	%eax, %r12d
 3471 0820 E8000000 		call	_ZNK8UnitTest15AssertException8FilenameEv@PLT
 3471      00
 3472 0825 4889C1   		movq	%rax, %rcx
 3473 0828 488B4424 		movq	8(%rsp), %rax
 3473      08
 3474 082d 488D7C24 		leaq	32(%rsp), %rdi
 3474      20
 3475 0832 4589E0   		movl	%r12d, %r8d
 3476 0835 488B7008 		movq	8(%rax), %rsi
 3477 0839 488B10   		movq	(%rax), %rdx
 3478 083c E8000000 		call	_ZN8UnitTest11TestDetailsC1EPKcS2_S2_i@PLT
 3478      00
 3479 0841 488D7424 		leaq	32(%rsp), %rsi
 3479      20
 3480 0846 4C89F2   		movq	%r14, %rdx
 3481 0849 4C89EF   		movq	%r13, %rdi
 3482 084c E8000000 		call	_ZN8UnitTest11TestResults13OnTestFailureERKNS_11TestDetailsEPKc@PLT
 3482      00
 3483              	.LEHE87:
 3484 0851 E8000000 		call	__cxa_end_catch@PLT
 3484      00
 3485 0856 E9000000 		jmp	.L262
 3485      00
 3486              	.L296:
 3487 085b F30F1EFA 		endbr64
 3488 085f 4889C5   		movq	%rax, %rbp
 3489 0862 E8000000 		call	__cxa_end_catch@PLT
 3489      00
 3490 0867 4889EF   		movq	%rbp, %rdi
 3491              	.LEHB88:
 3492 086a E8000000 		call	_Unwind_Resume@PLT
 3492      00
 3493              	.LEHE88:
 3494              	.L312:
 3495 086f E8000000 		call	__cxa_begin_catch@PLT
 3495      00
 3496 0874 488DBC24 		leaq	224(%rsp), %rdi
 3496      E0000000 
 3497 087c 4889C5   		movq	%rax, %rbp
 3498              	.LEHB89:
 3499 087f E8000000 		call	_ZN8UnitTest15MemoryOutStreamC1Ev
 3499      00
 3500              	.LEHE89:
 3501 0884 488DBC24 		leaq	224(%rsp), %rdi
 3501      E0000000 
 3502 088c BA150000 		movl	$21, %edx
 3502      00
 3503 0891 488D3500 		leaq	.LC16(%rip), %rsi
 3503      000000
 3504              	.LEHB90:
 3505 0898 E8000000 		call	_ZSt16__ostream_insertIcSt11char_traitsIcEERSt13basic_ostreamIT_T0_ES6_PKS3_l@PLT
 3505      00
 3506 089d 488B4500 		movq	0(%rbp), %rax
 3507 08a1 4889EF   		movq	%rbp, %rdi
 3508 08a4 FF5010   		call	*16(%rax)
 3509 08a7 488DBC24 		leaq	224(%rsp), %rdi
 3509      E0000000 
 3510 08af 4889C6   		movq	%rax, %rsi
 3511 08b2 E8000000 		call	_ZStlsISt11char_traitsIcEERSt13basic_ostreamIcT_ES5_PKc@PLT
 3511      00
 3512 08b7 E8000000 		call	_ZN8UnitTest11CurrentTest7ResultsEv@PLT
 3512      00
 3513 08bc 488DBC24 		leaq	224(%rsp), %rdi
 3513      E0000000 
 3514 08c4 488B28   		movq	(%rax), %rbp
 3515 08c7 E8000000 		call	_ZNK8UnitTest15MemoryOutStream7GetTextEv@PLT
 3515      00
 3516 08cc 488B7424 		movq	8(%rsp), %rsi
 3516      08
 3517 08d1 4889C2   		movq	%rax, %rdx
 3518 08d4 4889EF   		movq	%rbp, %rdi
 3519 08d7 E8000000 		call	_ZN8UnitTest11TestResults13OnTestFailureERKNS_11TestDetailsEPKc@PLT
 3519      00
 3520              	.LEHE90:
 3521 08dc 488DBC24 		leaq	224(%rsp), %rdi
 3521      E0000000 
 3522              	.LEHB91:
 3523 08e4 E8000000 		call	_ZN8UnitTest15MemoryOutStreamD1Ev
 3523      00
 3524              	.LEHE91:
 3525 08e9 E8000000 		call	__cxa_end_catch@PLT
 3525      00
 3526 08ee E9000000 		jmp	.L262
 3526      00
 3527              	.L298:
 3528 08f3 F30F1EFA 		endbr64
 3529 08f7 488DBC24 		leaq	224(%rsp), %rdi
 3529      E0000000 
 3530 08ff 4889C5   		movq	%rax, %rbp
 3531 0902 E8000000 		call	_ZN8UnitTest15MemoryOutStreamD1Ev
 3531      00
 3532              	.L291:
 3533 0907 E8000000 		call	__cxa_end_catch@PLT
 3533      00
 3534 090c 4889EF   		movq	%rbp, %rdi
 3535              	.LEHB92:
 3536 090f E8000000 		call	_Unwind_Resume@PLT
 3536      00
 3537              	.LEHE92:
 3538              	.L297:
 3539 0914 F30F1EFA 		endbr64
 3540 0918 4889C5   		movq	%rax, %rbp
 3541 091b EBEA     		jmp	.L291
 3542              	.L299:
 3543 091d F30F1EFA 		endbr64
 3544 0921 4889C5   		movq	%rax, %rbp
 3545 0924 E8000000 		call	__cxa_end_catch@PLT
 3545      00
 3546 0929 4889EF   		movq	%rbp, %rdi
 3547              	.LEHB93:
 3548 092c E8000000 		call	_Unwind_Resume@PLT
 3548      00
 3549              	.LEHE93:
 3550              		.cfi_endproc
 3551              	.LFE1578:
 3552              		.section	.gcc_except_table
 3553              		.align 4
 3554              	.LLSDAC1578:
 3555 0288 FF       		.byte	0xff
 3556 0289 9B       		.byte	0x9b
 3557 028a 59       		.uleb128 .LLSDATTC1578-.LLSDATTDC1578
 3558              	.LLSDATTDC1578:
 3559 028b 01       		.byte	0x1
 3560 028c 40       		.uleb128 .LLSDACSEC1578-.LLSDACSBC1578
 3561              	.LLSDACSBC1578:
 3562 028d 20       		.uleb128 .LEHB82-.LCOLDB36
 3563 028e 05       		.uleb128 .LEHE82-.LEHB82
 3564 028f 25       		.uleb128 .L295-.LCOLDB36
 3565 0290 07       		.uleb128 0x7
 3566 0291 53       		.uleb128 .LEHB83-.LCOLDB36
 3567 0292 39       		.uleb128 .LEHE83-.LEHB83
 3568 0293 9601     		.uleb128 .L300-.LCOLDB36
 3569 0295 07       		.uleb128 0x7
 3570 0296 8C01     		.uleb128 .LEHB84-.LCOLDB36
 3571 0298 05       		.uleb128 .LEHE84-.LEHB84
 3572 0299 25       		.uleb128 .L295-.LCOLDB36
 3573 029a 07       		.uleb128 0x7
 3574 029b CD01     		.uleb128 .LEHB85-.LCOLDB36
 3575 029d 19       		.uleb128 .LEHE85-.LEHB85
 3576 029e BA04     		.uleb128 .L299-.LCOLDB36
 3577 02a0 00       		.uleb128 0
 3578 02a1 E601     		.uleb128 .LEHB86-.LCOLDB36
 3579 02a3 05       		.uleb128 .LEHE86-.LEHB86
 3580 02a4 00       		.uleb128 0
 3581 02a5 00       		.uleb128 0
 3582 02a6 9A02     		.uleb128 .LEHB87-.LCOLDB36
 3583 02a8 54       		.uleb128 .LEHE87-.LEHB87
 3584 02a9 F802     		.uleb128 .L296-.LCOLDB36
 3585 02ab 00       		.uleb128 0
 3586 02ac 8703     		.uleb128 .LEHB88-.LCOLDB36
 3587 02ae 05       		.uleb128 .LEHE88-.LEHB88
 3588 02af 00       		.uleb128 0
 3589 02b0 00       		.uleb128 0
 3590 02b1 9C03     		.uleb128 .LEHB89-.LCOLDB36
 3591 02b3 05       		.uleb128 .LEHE89-.LEHB89
 3592 02b4 B104     		.uleb128 .L297-.LCOLDB36
 3593 02b6 00       		.uleb128 0
 3594 02b7 B503     		.uleb128 .LEHB90-.LCOLDB36
 3595 02b9 44       		.uleb128 .LEHE90-.LEHB90
 3596 02ba 9004     		.uleb128 .L298-.LCOLDB36
 3597 02bc 00       		.uleb128 0
 3598 02bd 8104     		.uleb128 .LEHB91-.LCOLDB36
 3599 02bf 05       		.uleb128 .LEHE91-.LEHB91
 3600 02c0 B104     		.uleb128 .L297-.LCOLDB36
 3601 02c2 00       		.uleb128 0
 3602 02c3 AC04     		.uleb128 .LEHB92-.LCOLDB36
 3603 02c5 05       		.uleb128 .LEHE92-.LEHB92
 3604 02c6 00       		.uleb128 0
 3605 02c7 00       		.uleb128 0
 3606 02c8 C904     		.uleb128 .LEHB93-.LCOLDB36
 3607 02ca 05       		.uleb128 .LEHE93-.LEHB93
 3608 02cb 00       		.uleb128 0
 3609 02cc 00       		.uleb128 0
 3610              	.LLSDACSEC1578:
 3611 02cd 03       		.byte	0x3
 3612 02ce 00       		.byte	0
 3613 02cf 02       		.byte	0x2
 3614 02d0 7D       		.byte	0x7d
 3615 02d1 01       		.byte	0x1
 3616 02d2 7D       		.byte	0x7d
 3617 02d3 00       		.byte	0
 3618 02d4 7D       		.byte	0x7d
 3619 02d5 000000   		.align 4
 3620 02d8 00000000 		.long	0
 3621              	
 3622 02dc 00000000 		.long	DW.ref._ZTISt9exception-.
 3623 02e0 00000000 		.long	DW.ref._ZTIN8UnitTest15AssertExceptionE-.
 3624              	.LLSDATTC1578:
 3625              		.section	.text.unlikely
 3626              		.text
 3628              		.section	.text.unlikely
 3630              	.LCOLDE36:
 3631              		.text
 3632              	.LHOTE36:
 3633              		.section	.text.unlikely
 3634 0931 90       		.align 2
 3635              	.LCOLDB37:
 3636              		.text
 3637              	.LHOTB37:
 3638 0c73 90       		.align 2
 3639 0c74 66662E0F 		.p2align 4
 3639      1F840000 
 3639      00000090 
 3641              	_ZNK12_GLOBAL__N_142TestXmlTestReporterFixtureMultipleFailures7RunImplEv:
 3642              	.LFB1534:
 3643              		.cfi_startproc
 3644              		.cfi_personality 0x9b,DW.ref.__gxx_personality_v0
 3645              		.cfi_lsda 0x1b,.LLSDA1534
 3646 0c80 F30F1EFA 		endbr64
 3647 0c84 4157     		pushq	%r15
 3648              		.cfi_def_cfa_offset 16
 3649              		.cfi_offset 15, -16
 3650 0c86 4156     		pushq	%r14
 3651              		.cfi_def_cfa_offset 24
 3652              		.cfi_offset 14, -24
 3653 0c88 4155     		pushq	%r13
 3654              		.cfi_def_cfa_offset 32
 3655              		.cfi_offset 13, -32
 3656 0c8a 4154     		pushq	%r12
 3657              		.cfi_def_cfa_offset 40
 3658              		.cfi_offset 12, -40
 3659 0c8c 55       		pushq	%rbp
 3660              		.cfi_def_cfa_offset 48
 3661              		.cfi_offset 6, -48
 3662 0c8d 53       		pushq	%rbx
 3663              		.cfi_def_cfa_offset 56
 3664              		.cfi_offset 3, -56
 3665 0c8e 488D1D00 		leaq	16+_ZTVNSt7__cxx1115basic_stringbufIcSt11char_traitsIcESaIcEEE(%rip), %rbx
 3665      000000
 3666 0c95 66480F6E 		movq	%rbx, %xmm3
 3666      DB
 3667 0c9a 4881EC18 		subq	$536, %rsp
 3667      020000
 3668              		.cfi_def_cfa_offset 592
 3669 0ca1 48897C24 		movq	%rdi, 56(%rsp)
 3669      38
 3670 0ca6 4C8DB424 		leaq	208(%rsp), %r14
 3670      D0000000 
 3671 0cae 4C8D6C24 		leaq	96(%rsp), %r13
 3671      60
 3672 0cb3 64488B04 		movq	%fs:40, %rax
 3672      25280000 
 3672      00
 3673 0cbc 48898424 		movq	%rax, 520(%rsp)
 3673      08020000 
 3674 0cc4 488D0500 		leaq	24+_ZTVNSt7__cxx1119basic_ostringstreamIcSt11char_traitsIcESaIcEEE(%rip), %rax
 3674      000000
 3675 0ccb 66480F6E 		movq	%rax, %xmm1
 3675      C8
 3676 0cd0 66480F6E 		movq	%rax, %xmm2
 3676      D0
 3677 0cd5 488D4708 		leaq	8(%rdi), %rax
 3678 0cd9 4C89F7   		movq	%r14, %rdi
 3679 0cdc 660F6CCB 		punpcklqdq	%xmm3, %xmm1
 3680 0ce0 0F161500 		movhps	.LC21(%rip), %xmm2
 3680      000000
 3681 0ce7 48894424 		movq	%rax, 32(%rsp)
 3681      20
 3682 0cec 0F294C24 		movaps	%xmm1, 16(%rsp)
 3682      10
 3683 0cf1 0F291424 		movaps	%xmm2, (%rsp)
 3684 0cf5 E8000000 		call	_ZNSt8ios_baseC2Ev@PLT
 3684      00
 3685 0cfa 488D0500 		leaq	16+_ZTVSt9basic_iosIcSt11char_traitsIcEE(%rip), %rax
 3685      000000
 3686 0d01 660FEFC0 		pxor	%xmm0, %xmm0
 3687 0d05 31F6     		xorl	%esi, %esi
 3688 0d07 48898424 		movq	%rax, 208(%rsp)
 3688      D0000000 
 3689 0d0f 31C0     		xorl	%eax, %eax
 3690 0d11 66898424 		movw	%ax, 432(%rsp)
 3690      B0010000 
 3691 0d19 488B0500 		movq	8+_ZTTNSt7__cxx1119basic_ostringstreamIcSt11char_traitsIcESaIcEEE(%rip), %rax
 3691      000000
 3692 0d20 0F118424 		movups	%xmm0, 440(%rsp)
 3692      B8010000 
 3693 0d28 0F118424 		movups	%xmm0, 456(%rsp)
 3693      C8010000 
 3694 0d30 488B78E8 		movq	-24(%rax), %rdi
 3695 0d34 48894424 		movq	%rax, 96(%rsp)
 3695      60
 3696 0d39 488B0500 		movq	16+_ZTTNSt7__cxx1119basic_ostringstreamIcSt11char_traitsIcESaIcEEE(%rip), %rax
 3696      000000
 3697 0d40 48C78424 		movq	$0, 424(%rsp)
 3697      A8010000 
 3697      00000000 
 3698 0d4c 4C01EF   		addq	%r13, %rdi
 3699 0d4f 488907   		movq	%rax, (%rdi)
 3700              	.LEHB94:
 3701 0d52 E8000000 		call	_ZNSt9basic_iosIcSt11char_traitsIcEE4initEPSt15basic_streambufIcS1_E@PLT
 3701      00
 3702              	.LEHE94:
 3703 0d57 488D0500 		leaq	64+_ZTVNSt7__cxx1119basic_ostringstreamIcSt11char_traitsIcESaIcEEE(%rip), %rax
 3703      000000
 3704 0d5e 660F6F14 		movdqa	(%rsp), %xmm2
 3704      24
 3705 0d63 660FEFC0 		pxor	%xmm0, %xmm0
 3706 0d67 488D6C24 		leaq	104(%rsp), %rbp
 3706      68
 3707 0d6c 48898424 		movq	%rax, 208(%rsp)
 3707      D0000000 
 3708 0d74 488D8424 		leaq	160(%rsp), %rax
 3708      A0000000 
 3709 0d7c 4889C7   		movq	%rax, %rdi
 3710 0d7f 48890424 		movq	%rax, (%rsp)
 3711 0d83 0F295424 		movaps	%xmm2, 96(%rsp)
 3711      60
 3712 0d88 0F294424 		movaps	%xmm0, 112(%rsp)
 3712      70
 3713 0d8d 0F298424 		movaps	%xmm0, 128(%rsp)
 3713      80000000 
 3714 0d95 0F298424 		movaps	%xmm0, 144(%rsp)
 3714      90000000 
 3715 0d9d E8000000 		call	_ZNSt6localeC1Ev@PLT
 3715      00
 3716 0da2 4889EE   		movq	%rbp, %rsi
 3717 0da5 4C89F7   		movq	%r14, %rdi
 3718 0da8 48895C24 		movq	%rbx, 104(%rsp)
 3718      68
 3719 0dad 488D8424 		leaq	192(%rsp), %rax
 3719      C0000000 
 3720 0db5 C68424C0 		movb	$0, 192(%rsp)
 3720      00000000 
 3721 0dbd C78424A8 		movl	$16, 168(%rsp)
 3721      00000010 
 3721      000000
 3722 0dc8 48894424 		movq	%rax, 40(%rsp)
 3722      28
 3723 0dcd 48898424 		movq	%rax, 176(%rsp)
 3723      B0000000 
 3724 0dd5 48C78424 		movq	$0, 184(%rsp)
 3724      B8000000 
 3724      00000000 
 3725              	.LEHB95:
 3726 0de1 E8000000 		call	_ZNSt9basic_iosIcSt11char_traitsIcEE4initEPSt15basic_streambufIcS1_E@PLT
 3726      00
 3727              	.LEHE95:
 3728 0de6 488D8424 		leaq	472(%rsp), %rax
 3728      D8010000 
 3729 0dee 4C89EE   		movq	%r13, %rsi
 3730 0df1 4889C7   		movq	%rax, %rdi
 3731 0df4 48894424 		movq	%rax, 48(%rsp)
 3731      30
 3732              	.LEHB96:
 3733 0df9 E8000000 		call	_ZN8UnitTest15XmlTestReporterC1ERSo@PLT
 3733      00
 3734              	.LEHE96:
 3735 0dfe 488B4424 		movq	32(%rsp), %rax
 3735      20
 3736 0e03 4C89EF   		movq	%r13, %rdi
 3737 0e06 4889C6   		movq	%rax, %rsi
 3738 0e09 48898424 		movq	%rax, 512(%rsp)
 3738      00020000 
 3739              	.LEHB97:
 3740 0e11 E8DAFBFF 		call	_ZN8UnitTest11ExecuteTestIN12_GLOBAL__N_144XmlTestReporterFixtureMultipleFailuresHelperEEEvRT
 3740      FF
 3741              	.LEHE97:
 3742 0e16 4C8BA424 		movq	488(%rsp), %r12
 3742      E8010000 
 3743 0e1e 488BAC24 		movq	480(%rsp), %rbp
 3743      E0010000 
 3744 0e26 488D0500 		leaq	16+_ZTVN8UnitTest20DeferredTestReporterE(%rip), %rax
 3744      000000
 3745 0e2d 48898424 		movq	%rax, 472(%rsp)
 3745      D8010000 
 3746 0e35 4939EC   		cmpq	%rbp, %r12
 3747 0e38 0F849100 		je	.L320
 3747      0000
 3748 0e3e 6690     		.p2align 4,,10
 3749              		.p2align 3
 3750              	.L332:
 3751 0e40 488B5D68 		movq	104(%rbp), %rbx
 3752 0e44 4C8B7D60 		movq	96(%rbp), %r15
 3753 0e48 4C39FB   		cmpq	%r15, %rbx
 3754 0e4b 7426     		je	.L321
 3755 0e4d 0F1F00   		.p2align 4,,10
 3756              		.p2align 3
 3757              	.L325:
 3758 0e50 498B7F08 		movq	8(%r15), %rdi
 3759 0e54 498D4718 		leaq	24(%r15), %rax
 3760 0e58 4839C7   		cmpq	%rax, %rdi
 3761 0e5b 0F842701 		je	.L322
 3761      0000
 3762 0e61 E8000000 		call	_ZdlPv@PLT
 3762      00
 3763 0e66 4983C728 		addq	$40, %r15
 3764 0e6a 4939DF   		cmpq	%rbx, %r15
 3765 0e6d 75E1     		jne	.L325
 3766              	.L324:
 3767 0e6f 4C8B7D60 		movq	96(%rbp), %r15
 3768              	.L321:
 3769 0e73 4D85FF   		testq	%r15, %r15
 3770 0e76 7408     		je	.L326
 3771 0e78 4C89FF   		movq	%r15, %rdi
 3772 0e7b E8000000 		call	_ZdlPv@PLT
 3772      00
 3773              	.L326:
 3774 0e80 488B7D40 		movq	64(%rbp), %rdi
 3775 0e84 488D4550 		leaq	80(%rbp), %rax
 3776 0e88 4839C7   		cmpq	%rax, %rdi
 3777 0e8b 7405     		je	.L327
 3778 0e8d E8000000 		call	_ZdlPv@PLT
 3778      00
 3779              	.L327:
 3780 0e92 488B7D20 		movq	32(%rbp), %rdi
 3781 0e96 488D4530 		leaq	48(%rbp), %rax
 3782 0e9a 4839C7   		cmpq	%rax, %rdi
 3783 0e9d 7405     		je	.L328
 3784 0e9f E8000000 		call	_ZdlPv@PLT
 3784      00
 3785              	.L328:
 3786 0ea4 488B7D00 		movq	0(%rbp), %rdi
 3787 0ea8 488D4510 		leaq	16(%rbp), %rax
 3788 0eac 4839C7   		cmpq	%rax, %rdi
 3789 0eaf 0F84EB00 		je	.L329
 3789      0000
 3790 0eb5 E8000000 		call	_ZdlPv@PLT
 3790      00
 3791 0eba 4883ED80 		subq	$-128, %rbp
 3792 0ebe 4939EC   		cmpq	%rbp, %r12
 3793 0ec1 0F8579FF 		jne	.L332
 3793      FFFF
 3794              	.L331:
 3795 0ec7 488BAC24 		movq	480(%rsp), %rbp
 3795      E0010000 
 3796              	.L320:
 3797 0ecf 4885ED   		testq	%rbp, %rbp
 3798 0ed2 7408     		je	.L333
 3799 0ed4 4889EF   		movq	%rbp, %rdi
 3800 0ed7 E8000000 		call	_ZdlPv@PLT
 3800      00
 3801              	.L333:
 3802 0edc 488B7C24 		movq	48(%rsp), %rdi
 3802      30
 3803              	.LEHB98:
 3804 0ee1 E8000000 		call	_ZN8UnitTest12TestReporterD2Ev@PLT
 3804      00
 3805              	.LEHE98:
 3806 0ee6 660F6F64 		movdqa	16(%rsp), %xmm4
 3806      2410
 3807 0eec 488D0500 		leaq	64+_ZTVNSt7__cxx1119basic_ostringstreamIcSt11char_traitsIcESaIcEEE(%rip), %rax
 3807      000000
 3808 0ef3 488BBC24 		movq	176(%rsp), %rdi
 3808      B0000000 
 3809 0efb 48898424 		movq	%rax, 208(%rsp)
 3809      D0000000 
 3810 0f03 0F296424 		movaps	%xmm4, 96(%rsp)
 3810      60
 3811 0f08 483B7C24 		cmpq	40(%rsp), %rdi
 3811      28
 3812 0f0d 7405     		je	.L334
 3813 0f0f E8000000 		call	_ZdlPv@PLT
 3813      00
 3814              	.L334:
 3815 0f14 488B3C24 		movq	(%rsp), %rdi
 3816 0f18 488D0500 		leaq	16+_ZTVSt15basic_streambufIcSt11char_traitsIcEE(%rip), %rax
 3816      000000
 3817 0f1f 48894424 		movq	%rax, 104(%rsp)
 3817      68
 3818 0f24 E8000000 		call	_ZNSt6localeD1Ev@PLT
 3818      00
 3819 0f29 488B0500 		movq	8+_ZTTNSt7__cxx1119basic_ostringstreamIcSt11char_traitsIcESaIcEEE(%rip), %rax
 3819      000000
 3820 0f30 488B0D00 		movq	16+_ZTTNSt7__cxx1119basic_ostringstreamIcSt11char_traitsIcESaIcEEE(%rip), %rcx
 3820      000000
 3821 0f37 4C89F7   		movq	%r14, %rdi
 3822 0f3a 48894424 		movq	%rax, 96(%rsp)
 3822      60
 3823 0f3f 488B40E8 		movq	-24(%rax), %rax
 3824 0f43 48894C04 		movq	%rcx, 96(%rsp,%rax)
 3824      60
 3825 0f48 488D0500 		leaq	16+_ZTVSt9basic_iosIcSt11char_traitsIcEE(%rip), %rax
 3825      000000
 3826 0f4f 48898424 		movq	%rax, 208(%rsp)
 3826      D0000000 
 3827              	.LEHB99:
 3828 0f57 E8000000 		call	_ZNSt8ios_baseD2Ev@PLT
 3828      00
 3829              	.LEHE99:
 3830 0f5c 488B8424 		movq	520(%rsp), %rax
 3830      08020000 
 3831 0f64 64482B04 		subq	%fs:40, %rax
 3831      25280000 
 3831      00
 3832 0f6d 7543     		jne	.L379
 3833 0f6f 4881C418 		addq	$536, %rsp
 3833      020000
 3834              		.cfi_remember_state
 3835              		.cfi_def_cfa_offset 56
 3836 0f76 5B       		popq	%rbx
 3837              		.cfi_def_cfa_offset 48
 3838 0f77 5D       		popq	%rbp
 3839              		.cfi_def_cfa_offset 40
 3840 0f78 415C     		popq	%r12
 3841              		.cfi_def_cfa_offset 32
 3842 0f7a 415D     		popq	%r13
 3843              		.cfi_def_cfa_offset 24
 3844 0f7c 415E     		popq	%r14
 3845              		.cfi_def_cfa_offset 16
 3846 0f7e 415F     		popq	%r15
 3847              		.cfi_def_cfa_offset 8
 3848 0f80 C3       		ret
 3849              		.p2align 4,,10
 3850 0f81 0F1F8000 		.p2align 3
 3850      000000
 3851              	.L322:
 3852              		.cfi_restore_state
 3853 0f88 4983C728 		addq	$40, %r15
 3854 0f8c 4C39FB   		cmpq	%r15, %rbx
 3855 0f8f 0F85BBFE 		jne	.L325
 3855      FFFF
 3856 0f95 E9D5FEFF 		jmp	.L324
 3856      FF
 3857 0f9a 660F1F44 		.p2align 4,,10
 3857      0000
 3858              		.p2align 3
 3859              	.L329:
 3860 0fa0 4883ED80 		subq	$-128, %rbp
 3861 0fa4 4939EC   		cmpq	%rbp, %r12
 3862 0fa7 0F8593FE 		jne	.L332
 3862      FFFF
 3863 0fad E915FFFF 		jmp	.L331
 3863      FF
 3864              	.L379:
 3865 0fb2 E8000000 		call	__stack_chk_fail@PLT
 3865      00
 3866              	.L353:
 3867 0fb7 F30F1EFA 		endbr64
 3868 0fbb 4889C7   		movq	%rax, %rdi
 3869 0fbe 4889D0   		movq	%rdx, %rax
 3870 0fc1 E9000000 		jmp	.L374
 3870      00
 3871              	.L362:
 3872 0fc6 F30F1EFA 		endbr64
 3873 0fca 4889C3   		movq	%rax, %rbx
 3874 0fcd 4889D5   		movq	%rdx, %rbp
 3875 0fd0 E9000000 		jmp	.L338
 3875      00
 3876              	.L354:
 3877 0fd5 F30F1EFA 		endbr64
 3878 0fd9 4889C3   		movq	%rax, %rbx
 3879 0fdc 4889D5   		movq	%rdx, %rbp
 3880 0fdf E9000000 		jmp	.L339
 3880      00
 3881              	.L359:
 3882 0fe4 F30F1EFA 		endbr64
 3883 0fe8 4889C3   		movq	%rax, %rbx
 3884 0feb 4889D5   		movq	%rdx, %rbp
 3885 0fee E9000000 		jmp	.L319
 3885      00
 3886              	.L361:
 3887 0ff3 F30F1EFA 		endbr64
 3888 0ff7 4889C3   		movq	%rax, %rbx
 3889 0ffa 4989D4   		movq	%rdx, %r12
 3890 0ffd E9000000 		jmp	.L315
 3890      00
 3891              	.L360:
 3892 1002 F30F1EFA 		endbr64
 3893 1006 4889C3   		movq	%rax, %rbx
 3894 1009 4989D4   		movq	%rdx, %r12
 3895 100c E9000000 		jmp	.L316
 3895      00
 3896              		.section	.gcc_except_table
 3897              		.align 4
 3898              	.LLSDA1534:
 3899 02e4 FF       		.byte	0xff
 3900 02e5 9B       		.byte	0x9b
 3901 02e6 3D       		.uleb128 .LLSDATT1534-.LLSDATTD1534
 3902              	.LLSDATTD1534:
 3903 02e7 01       		.byte	0x1
 3904 02e8 24       		.uleb128 .LLSDACSE1534-.LLSDACSB1534
 3905              	.LLSDACSB1534:
 3906 02e9 D201     		.uleb128 .LEHB94-.LFB1534
 3907 02eb 05       		.uleb128 .LEHE94-.LEHB94
 3908 02ec 8207     		.uleb128 .L360-.LFB1534
 3909 02ee 07       		.uleb128 0x7
 3910 02ef E102     		.uleb128 .LEHB95-.LFB1534
 3911 02f1 05       		.uleb128 .LEHE95-.LEHB95
 3912 02f2 F306     		.uleb128 .L361-.LFB1534
 3913 02f4 07       		.uleb128 0x7
 3914 02f5 F902     		.uleb128 .LEHB96-.LFB1534
 3915 02f7 05       		.uleb128 .LEHE96-.LEHB96
 3916 02f8 E406     		.uleb128 .L359-.LFB1534
 3917 02fa 07       		.uleb128 0x7
 3918 02fb 9103     		.uleb128 .LEHB97-.LFB1534
 3919 02fd 05       		.uleb128 .LEHE97-.LEHB97
 3920 02fe D506     		.uleb128 .L354-.LFB1534
 3921 0300 07       		.uleb128 0x7
 3922 0301 E104     		.uleb128 .LEHB98-.LFB1534
 3923 0303 05       		.uleb128 .LEHE98-.LEHB98
 3924 0304 C606     		.uleb128 .L362-.LFB1534
 3925 0306 07       		.uleb128 0x7
 3926 0307 D705     		.uleb128 .LEHB99-.LFB1534
 3927 0309 05       		.uleb128 .LEHE99-.LEHB99
 3928 030a B706     		.uleb128 .L353-.LFB1534
 3929 030c 05       		.uleb128 0x5
 3930              	.LLSDACSE1534:
 3931 030d 03       		.byte	0x3
 3932 030e 00       		.byte	0
 3933 030f 02       		.byte	0x2
 3934 0310 7D       		.byte	0x7d
 3935 0311 01       		.byte	0x1
 3936 0312 7D       		.byte	0x7d
 3937 0313 00       		.byte	0
 3938 0314 7D       		.byte	0x7d
 3939 0315 000000   		.align 4
 3940 0318 00000000 		.long	0
 3941              	
 3942 031c 00000000 		.long	DW.ref._ZTISt9exception-.
 3943 0320 00000000 		.long	DW.ref._ZTIN8UnitTest15AssertExceptionE-.
 3944              	.LLSDATT1534:
 3945              		.text
 3946              		.cfi_endproc
 3947              		.section	.text.unlikely
 3948              		.cfi_startproc
 3949              		.cfi_personality 0x9b,DW.ref.__gxx_personality_v0
 3950              		.cfi_lsda 0x1b,.LLSDAC1534
 3952              	_ZNK12_GLOBAL__N_142TestXmlTestReporterFixtureMultipleFailures7RunImplEv.cold:
 3953              	.LFSB1534:
 3954              	.L339:
 3955              		.cfi_def_cfa_offset 592
 3956              		.cfi_offset 3, -56
 3957              		.cfi_offset 6, -48
 3958              		.cfi_offset 12, -40
 3959              		.cfi_offset 13, -32
 3960              		.cfi_offset 14, -24
 3961              		.cfi_offset 15, -16
 3962 0932 4C89EF   		movq	%r13, %rdi
 3963 0935 E8E4F9FF 		call	_ZN12_GLOBAL__N_122XmlTestReporterFixtureD2Ev
 3963      FF
 3964 093a 4889DF   		movq	%rbx, %rdi
 3965 093d 4889E8   		movq	%rbp, %rax
 3966              	.L374:
 3967 0940 BB010000 		movl	$1, %ebx
 3967      00
 3968              	.L317:
 3969 0945 4883F801 		cmpq	$1, %rax
 3970 0949 0F84EA00 		je	.L340
 3970      0000
 3971 094f 4883F802 		cmpq	$2, %rax
 3972 0953 0F846B01 		je	.L380
 3972      0000
 3973 0959 E8000000 		call	__cxa_begin_catch@PLT
 3973      00
 3974 095e 84DB     		testb	%bl, %bl
 3975 0960 0F85E901 		jne	.L381
 3975      0000
 3976              	.LEHB100:
 3977 0966 E8000000 		call	_ZN8UnitTest11CurrentTest7ResultsEv@PLT
 3977      00
 3978 096b 488D6C24 		leaq	64(%rsp), %rbp
 3978      40
 3979 0970 488B7424 		movq	32(%rsp), %rsi
 3979      20
 3980 0975 BA9F0000 		movl	$159, %edx
 3980      00
 3981 097a 4C8B20   		movq	(%rax), %r12
 3982 097d 4889EF   		movq	%rbp, %rdi
 3983 0980 E8000000 		call	_ZN8UnitTest11TestDetailsC1ERKS0_i@PLT
 3983      00
 3984 0985 488D1500 		leaq	.LC20(%rip), %rdx
 3984      000000
 3985 098c 4889EE   		movq	%rbp, %rsi
 3986 098f 4C89E7   		movq	%r12, %rdi
 3987 0992 E8000000 		call	_ZN8UnitTest11TestResults13OnTestFailureERKNS_11TestDetailsEPKc@PLT
 3987      00
 3988              	.LEHE100:
 3989              	.L346:
 3990 0997 488B8424 		movq	520(%rsp), %rax
 3990      08020000 
 3991 099f 64482B04 		subq	%fs:40, %rax
 3991      25280000 
 3991      00
 3992 09a8 0F851101 		jne	.L376
 3992      0000
 3993 09ae 4881C418 		addq	$536, %rsp
 3993      020000
 3994              		.cfi_remember_state
 3995              		.cfi_def_cfa_offset 56
 3996 09b5 5B       		popq	%rbx
 3997              		.cfi_def_cfa_offset 48
 3998 09b6 5D       		popq	%rbp
 3999              		.cfi_def_cfa_offset 40
 4000 09b7 415C     		popq	%r12
 4001              		.cfi_def_cfa_offset 32
 4002 09b9 415D     		popq	%r13
 4003              		.cfi_def_cfa_offset 24
 4004 09bb 415E     		popq	%r14
 4005              		.cfi_def_cfa_offset 16
 4006 09bd 415F     		popq	%r15
 4007              		.cfi_def_cfa_offset 8
 4008              	.LEHB101:
 4009 09bf E9000000 		jmp	__cxa_end_catch@PLT
 4009      00
 4010              	.LEHE101:
 4011              	.L338:
 4012              		.cfi_restore_state
 4013 09c4 4C89EF   		movq	%r13, %rdi
 4014 09c7 E8000000 		call	_ZNSt7__cxx1119basic_ostringstreamIcSt11char_traitsIcESaIcEED1Ev@PLT
 4014      00
 4015 09cc 4889DF   		movq	%rbx, %rdi
 4016 09cf 4889E8   		movq	%rbp, %rax
 4017 09d2 BB010000 		movl	$1, %ebx
 4017      00
 4018 09d7 E969FFFF 		jmp	.L317
 4018      FF
 4019              	.L319:
 4020 09dc 4C89EF   		movq	%r13, %rdi
 4021 09df E8000000 		call	_ZNSt7__cxx1119basic_ostringstreamIcSt11char_traitsIcESaIcEED1Ev@PLT
 4021      00
 4022 09e4 4889DF   		movq	%rbx, %rdi
 4023 09e7 4889E8   		movq	%rbp, %rax
 4024 09ea 31DB     		xorl	%ebx, %ebx
 4025 09ec E954FFFF 		jmp	.L317
 4025      FF
 4026              	.L315:
 4027 09f1 4889EF   		movq	%rbp, %rdi
 4028 09f4 E8000000 		call	_ZNSt7__cxx1115basic_stringbufIcSt11char_traitsIcESaIcEED1Ev
 4028      00
 4029 09f9 488B0500 		movq	8+_ZTTNSt7__cxx1119basic_ostringstreamIcSt11char_traitsIcESaIcEEE(%rip), %rax
 4029      000000
 4030 0a00 488B0D00 		movq	16+_ZTTNSt7__cxx1119basic_ostringstreamIcSt11char_traitsIcESaIcEEE(%rip), %rcx
 4030      000000
 4031 0a07 48894424 		movq	%rax, 96(%rsp)
 4031      60
 4032 0a0c 488B40E8 		movq	-24(%rax), %rax
 4033 0a10 48894C04 		movq	%rcx, 96(%rsp,%rax)
 4033      60
 4034              	.L316:
 4035 0a15 488D0500 		leaq	16+_ZTVSt9basic_iosIcSt11char_traitsIcEE(%rip), %rax
 4035      000000
 4036 0a1c 4C89F7   		movq	%r14, %rdi
 4037 0a1f 48898424 		movq	%rax, 208(%rsp)
 4037      D0000000 
 4038 0a27 E8000000 		call	_ZNSt8ios_baseD2Ev@PLT
 4038      00
 4039 0a2c 4889DF   		movq	%rbx, %rdi
 4040 0a2f 4C89E0   		movq	%r12, %rax
 4041 0a32 31DB     		xorl	%ebx, %ebx
 4042 0a34 E90CFFFF 		jmp	.L317
 4042      FF
 4043              	.L340:
 4044 0a39 E8000000 		call	__cxa_begin_catch@PLT
 4044      00
 4045 0a3e 4889C5   		movq	%rax, %rbp
 4046              	.LEHB102:
 4047 0a41 E8000000 		call	_ZN8UnitTest11CurrentTest7ResultsEv@PLT
 4047      00
 4048 0a46 4C8B28   		movq	(%rax), %r13
 4049 0a49 488B4500 		movq	0(%rbp), %rax
 4050 0a4d 4889EF   		movq	%rbp, %rdi
 4051 0a50 FF5010   		call	*16(%rax)
 4052 0a53 4889EF   		movq	%rbp, %rdi
 4053 0a56 4989C4   		movq	%rax, %r12
 4054 0a59 E8000000 		call	_ZNK8UnitTest15AssertException10LineNumberEv@PLT
 4054      00
 4055 0a5e 4889EF   		movq	%rbp, %rdi
 4056 0a61 89C3     		movl	%eax, %ebx
 4057 0a63 E8000000 		call	_ZNK8UnitTest15AssertException8FilenameEv@PLT
 4057      00
 4058 0a68 4889C1   		movq	%rax, %rcx
 4059 0a6b 488B4424 		movq	56(%rsp), %rax
 4059      38
 4060 0a70 488D6C24 		leaq	64(%rsp), %rbp
 4060      40
 4061 0a75 4189D8   		movl	%ebx, %r8d
 4062 0a78 4889EF   		movq	%rbp, %rdi
 4063 0a7b 488B5008 		movq	8(%rax), %rdx
 4064 0a7f 488B7010 		movq	16(%rax), %rsi
 4065 0a83 E8000000 		call	_ZN8UnitTest11TestDetailsC1EPKcS2_S2_i@PLT
 4065      00
 4066 0a88 4C89E2   		movq	%r12, %rdx
 4067 0a8b 4889EE   		movq	%rbp, %rsi
 4068 0a8e 4C89EF   		movq	%r13, %rdi
 4069 0a91 E8000000 		call	_ZN8UnitTest11TestResults13OnTestFailureERKNS_11TestDetailsEPKc@PLT
 4069      00
 4070              	.LEHE102:
 4071              	.L378:
 4072 0a96 488B8424 		movq	520(%rsp), %rax
 4072      08020000 
 4073 0a9e 64482B04 		subq	%fs:40, %rax
 4073      25280000 
 4073      00
 4074 0aa7 7516     		jne	.L376
 4075 0aa9 4881C418 		addq	$536, %rsp
 4075      020000
 4076              		.cfi_remember_state
 4077              		.cfi_def_cfa_offset 56
 4078 0ab0 5B       		popq	%rbx
 4079              		.cfi_def_cfa_offset 48
 4080 0ab1 5D       		popq	%rbp
 4081              		.cfi_def_cfa_offset 40
 4082 0ab2 415C     		popq	%r12
 4083              		.cfi_def_cfa_offset 32
 4084 0ab4 415D     		popq	%r13
 4085              		.cfi_def_cfa_offset 24
 4086 0ab6 415E     		popq	%r14
 4087              		.cfi_def_cfa_offset 16
 4088 0ab8 415F     		popq	%r15
 4089              		.cfi_def_cfa_offset 8
 4090 0aba E9000000 		jmp	__cxa_end_catch@PLT
 4090      00
 4091              	.L376:
 4092              		.cfi_restore_state
 4093 0abf E8000000 		call	__stack_chk_fail@PLT
 4093      00
 4094              	.L380:
 4095 0ac4 E8000000 		call	__cxa_begin_catch@PLT
 4095      00
 4096 0ac9 4C89EF   		movq	%r13, %rdi
 4097 0acc 4889C5   		movq	%rax, %rbp
 4098              	.LEHB103:
 4099 0acf E8000000 		call	_ZN8UnitTest15MemoryOutStreamC1Ev
 4099      00
 4100              	.LEHE103:
 4101 0ad4 BA150000 		movl	$21, %edx
 4101      00
 4102 0ad9 488D3500 		leaq	.LC16(%rip), %rsi
 4102      000000
 4103 0ae0 4C89EF   		movq	%r13, %rdi
 4104              	.LEHB104:
 4105 0ae3 E8000000 		call	_ZSt16__ostream_insertIcSt11char_traitsIcEERSt13basic_ostreamIT_T0_ES6_PKS3_l@PLT
 4105      00
 4106 0ae8 488B4500 		movq	0(%rbp), %rax
 4107 0aec 4889EF   		movq	%rbp, %rdi
 4108 0aef FF5010   		call	*16(%rax)
 4109 0af2 4C89EF   		movq	%r13, %rdi
 4110 0af5 4889C6   		movq	%rax, %rsi
 4111 0af8 E8000000 		call	_ZStlsISt11char_traitsIcEERSt13basic_ostreamIcT_ES5_PKc@PLT
 4111      00
 4112 0afd E8000000 		call	_ZN8UnitTest11CurrentTest7ResultsEv@PLT
 4112      00
 4113 0b02 4C89EF   		movq	%r13, %rdi
 4114 0b05 488B28   		movq	(%rax), %rbp
 4115 0b08 E8000000 		call	_ZNK8UnitTest15MemoryOutStream7GetTextEv@PLT
 4115      00
 4116 0b0d 488B7424 		movq	32(%rsp), %rsi
 4116      20
 4117 0b12 4889C2   		movq	%rax, %rdx
 4118 0b15 4889EF   		movq	%rbp, %rdi
 4119 0b18 E8000000 		call	_ZN8UnitTest11TestResults13OnTestFailureERKNS_11TestDetailsEPKc@PLT
 4119      00
 4120              	.LEHE104:
 4121 0b1d 4C89EF   		movq	%r13, %rdi
 4122              	.LEHB105:
 4123 0b20 E8000000 		call	_ZN8UnitTest15MemoryOutStreamD1Ev
 4123      00
 4124              	.LEHE105:
 4125 0b25 E96CFFFF 		jmp	.L378
 4125      FF
 4126              	.L357:
 4127 0b2a F30F1EFA 		endbr64
 4128 0b2e 4C89EF   		movq	%r13, %rdi
 4129 0b31 4889C5   		movq	%rax, %rbp
 4130 0b34 E8000000 		call	_ZN8UnitTest15MemoryOutStreamD1Ev
 4130      00
 4131              	.L350:
 4132 0b39 E8000000 		call	__cxa_end_catch@PLT
 4132      00
 4133 0b3e 4889EF   		movq	%rbp, %rdi
 4134              	.LEHB106:
 4135 0b41 E8000000 		call	_Unwind_Resume@PLT
 4135      00
 4136              	.LEHE106:
 4137              	.L356:
 4138 0b46 F30F1EFA 		endbr64
 4139              	.L377:
 4140 0b4a 4889C5   		movq	%rax, %rbp
 4141 0b4d EBEA     		jmp	.L350
 4142              	.L381:
 4143              	.LEHB107:
 4144 0b4f E8000000 		call	_ZN8UnitTest11CurrentTest7ResultsEv@PLT
 4144      00
 4145 0b54 488D6C24 		leaq	64(%rsp), %rbp
 4145      40
 4146 0b59 488B7424 		movq	32(%rsp), %rsi
 4146      20
 4147 0b5e BA9F0000 		movl	$159, %edx
 4147      00
 4148 0b63 4C8B20   		movq	(%rax), %r12
 4149 0b66 4889EF   		movq	%rbp, %rdi
 4150 0b69 E8000000 		call	_ZN8UnitTest11TestDetailsC1ERKS0_i@PLT
 4150      00
 4151 0b6e 488D1500 		leaq	.LC19(%rip), %rdx
 4151      000000
 4152 0b75 4889EE   		movq	%rbp, %rsi
 4153 0b78 4C89E7   		movq	%r12, %rdi
 4154 0b7b E8000000 		call	_ZN8UnitTest11TestResults13OnTestFailureERKNS_11TestDetailsEPKc@PLT
 4154      00
 4155              	.LEHE107:
 4156 0b80 E912FEFF 		jmp	.L346
 4156      FF
 4157              	.L358:
 4158 0b85 F30F1EFA 		endbr64
 4159 0b89 4889C5   		movq	%rax, %rbp
 4160 0b8c E8000000 		call	__cxa_end_catch@PLT
 4160      00
 4161 0b91 4889EF   		movq	%rbp, %rdi
 4162              	.LEHB108:
 4163 0b94 E8000000 		call	_Unwind_Resume@PLT
 4163      00
 4164              	.LEHE108:
 4165              	.L355:
 4166 0b99 F30F1EFA 		endbr64
 4167 0b9d EBAB     		jmp	.L377
 4168              		.cfi_endproc
 4169              	.LFE1534:
 4170              		.section	.gcc_except_table
 4171              		.align 4
 4172              	.LLSDAC1534:
 4173 0324 FF       		.byte	0xff
 4174 0325 9B       		.byte	0x9b
 4175 0326 49       		.uleb128 .LLSDATTC1534-.LLSDATTDC1534
 4176              	.LLSDATTDC1534:
 4177 0327 01       		.byte	0x1
 4178 0328 32       		.uleb128 .LLSDACSEC1534-.LLSDACSBC1534
 4179              	.LLSDACSBC1534:
 4180 0329 34       		.uleb128 .LEHB100-.LCOLDB37
 4181 032a 31       		.uleb128 .LEHE100-.LEHB100
 4182 032b D304     		.uleb128 .L358-.LCOLDB37
 4183 032d 00       		.uleb128 0
 4184 032e 8D01     		.uleb128 .LEHB101-.LCOLDB37
 4185 0330 05       		.uleb128 .LEHE101-.LEHB101
 4186 0331 00       		.uleb128 0
 4187 0332 00       		.uleb128 0
 4188 0333 8F02     		.uleb128 .LEHB102-.LCOLDB37
 4189 0335 55       		.uleb128 .LEHE102-.LEHB102
 4190 0336 E704     		.uleb128 .L355-.LCOLDB37
 4191 0338 00       		.uleb128 0
 4192 0339 9D03     		.uleb128 .LEHB103-.LCOLDB37
 4193 033b 05       		.uleb128 .LEHE103-.LEHB103
 4194 033c 9404     		.uleb128 .L356-.LCOLDB37
 4195 033e 00       		.uleb128 0
 4196 033f B103     		.uleb128 .LEHB104-.LCOLDB37
 4197 0341 3A       		.uleb128 .LEHE104-.LEHB104
 4198 0342 F803     		.uleb128 .L357-.LCOLDB37
 4199 0344 00       		.uleb128 0
 4200 0345 EE03     		.uleb128 .LEHB105-.LCOLDB37
 4201 0347 05       		.uleb128 .LEHE105-.LEHB105
 4202 0348 9404     		.uleb128 .L356-.LCOLDB37
 4203 034a 00       		.uleb128 0
 4204 034b 8F04     		.uleb128 .LEHB106-.LCOLDB37
 4205 034d 05       		.uleb128 .LEHE106-.LEHB106
 4206 034e 00       		.uleb128 0
 4207 034f 00       		.uleb128 0
 4208 0350 9D04     		.uleb128 .LEHB107-.LCOLDB37
 4209 0352 31       		.uleb128 .LEHE107-.LEHB107
 4210 0353 D304     		.uleb128 .L358-.LCOLDB37
 4211 0355 00       		.uleb128 0
 4212 0356 E204     		.uleb128 .LEHB108-.LCOLDB37
 4213 0358 05       		.uleb128 .LEHE108-.LEHB108
 4214 0359 00       		.uleb128 0
 4215 035a 00       		.uleb128 0
 4216              	.LLSDACSEC1534:
 4217 035b 03       		.byte	0x3
 4218 035c 00       		.byte	0
 4219 035d 02       		.byte	0x2
 4220 035e 7D       		.byte	0x7d
 4221 035f 01       		.byte	0x1
 4222 0360 7D       		.byte	0x7d
 4223 0361 00       		.byte	0
 4224 0362 7D       		.byte	0x7d
 4225 0363 00       		.align 4
 4226 0364 00000000 		.long	0
 4227              	
 4228 0368 00000000 		.long	DW.ref._ZTISt9exception-.
 4229 036c 00000000 		.long	DW.ref._ZTIN8UnitTest15AssertExceptionE-.
 4230              	.LLSDATTC1534:
 4231              		.section	.text.unlikely
 4232              		.text
 4234              		.section	.text.unlikely
 4236              	.LCOLDE37:
 4237              		.text
 4238              	.LHOTE37:
 4239              		.section	.rodata.str1.1
 4240              	.LC38:
 4241 00c7 53756363 		.string	"SucceededTest"
 4241      65656465 
 4241      64546573 
 4241      7400
 4242              		.section	.rodata.str1.8
 4243 0253 00000000 		.align 8
 4243      00
 4244              	.LC39:
 4245 0258 3C3F786D 		.ascii	"<?xml versio"
 4245      6C207665 
 4245      7273696F 
 4246 0264 6E3D2231 		.string	"n=\"1.0\"?><unittest-results tests=\"2\" failedtests=\"1\" failures=\"1\" time=\"1.1\"><t
 4246      2E30223F 
 4246      3E3C756E 
 4246      69747465 
 4246      73742D72 
 4247              		.section	.text.unlikely
 4248              	.LCOLDB40:
 4249              		.text
 4250              	.LHOTB40:
 4251 1011 66662E0F 		.p2align 4
 4251      1F840000 
 4251      0000000F 
 4251      1F4000
 4253              	_ZN8UnitTest11ExecuteTestIN12_GLOBAL__N_151XmlTestReporterFixtureOneFailureAndOneSuccessHelperEEEvR
 4254              	.LFB1577:
 4255              		.cfi_startproc
 4256              		.cfi_personality 0x9b,DW.ref.__gxx_personality_v0
 4257              		.cfi_lsda 0x1b,.LLSDA1577
 4258 1020 4156     		pushq	%r14
 4259              		.cfi_def_cfa_offset 16
 4260              		.cfi_offset 14, -16
 4261 1022 4155     		pushq	%r13
 4262              		.cfi_def_cfa_offset 24
 4263              		.cfi_offset 13, -24
 4264 1024 4154     		pushq	%r12
 4265              		.cfi_def_cfa_offset 32
 4266              		.cfi_offset 12, -32
 4267 1026 55       		pushq	%rbp
 4268              		.cfi_def_cfa_offset 40
 4269              		.cfi_offset 6, -40
 4270 1027 53       		pushq	%rbx
 4271              		.cfi_def_cfa_offset 48
 4272              		.cfi_offset 3, -48
 4273 1028 4889F3   		movq	%rsi, %rbx
 4274 102b 4881ECF0 		subq	$1776, %rsp
 4274      060000
 4275              		.cfi_def_cfa_offset 1824
 4276 1032 48893C24 		movq	%rdi, (%rsp)
 4277 1036 48897424 		movq	%rsi, 8(%rsp)
 4277      08
 4278 103b 64488B04 		movq	%fs:40, %rax
 4278      25280000 
 4278      00
 4279 1044 48898424 		movq	%rax, 1768(%rsp)
 4279      E8060000 
 4280 104c 31C0     		xorl	%eax, %eax
 4281              	.LEHB109:
 4282 104e E8000000 		call	_ZN8UnitTest11CurrentTest7DetailsEv@PLT
 4282      00
 4283              	.LEHE109:
 4284 1053 488DBC24 		leaq	640(%rsp), %rdi
 4284      80020000 
 4285 105b 488918   		movq	%rbx, (%rax)
 4286              	.LEHB110:
 4287 105e E8000000 		call	_ZN8UnitTest16SignalTranslatorC1Ev@PLT
 4287      00
 4288              	.LEHE110:
 4289 1063 488B3D00 		movq	_ZN8UnitTest16SignalTranslator12s_jumpTargetE(%rip), %rdi
 4289      000000
 4290 106a BE010000 		movl	$1, %esi
 4290      00
 4291 106f E8000000 		call	__sigsetjmp@PLT
 4291      00
 4292 1074 F30F1EFA 		endbr64
 4293 1078 85C0     		testl	%eax, %eax
 4294 107a 0F850000 		jne	.L427
 4294      0000
 4295 1080 488D7C24 		leaq	64(%rsp), %rdi
 4295      40
 4296 1085 41B80100 		movl	$1, %r8d
 4296      0000
 4297 108b 488D0D00 		leaq	.LC27(%rip), %rcx
 4297      000000
 4298 1092 488D1500 		leaq	.LC28(%rip), %rdx
 4298      000000
 4299 1099 488D3500 		leaq	.LC29(%rip), %rsi
 4299      000000
 4300              	.LEHB111:
 4301 10a0 E8000000 		call	_ZN8UnitTest11TestDetailsC1EPKcS2_S2_i@PLT
 4301      00
 4302 10a5 488B1C24 		movq	(%rsp), %rbx
 4303 10a9 488D7424 		leaq	64(%rsp), %rsi
 4303      40
 4304 10ae 488DAB78 		leaq	376(%rbx), %rbp
 4304      010000
 4305 10b5 4889EF   		movq	%rbp, %rdi
 4306 10b8 E8000000 		call	_ZN8UnitTest20DeferredTestReporter15ReportTestStartERKNS_11TestDetailsE@PLT
 4306      00
 4307 10bd 488D7424 		leaq	64(%rsp), %rsi
 4307      40
 4308 10c2 488D1500 		leaq	.LC30(%rip), %rdx
 4308      000000
 4309 10c9 4889EF   		movq	%rbp, %rdi
 4310 10cc E8000000 		call	_ZN8UnitTest20DeferredTestReporter13ReportFailureERKNS_11TestDetailsEPKc@PLT
 4310      00
 4311 10d1 F30F1005 		movss	.LC32(%rip), %xmm0
 4311      00000000 
 4312 10d9 488D7424 		leaq	64(%rsp), %rsi
 4312      40
 4313 10de 4889EF   		movq	%rbp, %rdi
 4314 10e1 E8000000 		call	_ZN8UnitTest20DeferredTestReporter16ReportTestFinishERKNS_11TestDetailsEf@PLT
 4314      00
 4315 10e6 488D7C24 		leaq	96(%rsp), %rdi
 4315      60
 4316 10eb 4531C0   		xorl	%r8d, %r8d
 4317 10ee 488D0D00 		leaq	.LC9(%rip), %rcx
 4317      000000
 4318 10f5 488D1500 		leaq	.LC28(%rip), %rdx
 4318      000000
 4319 10fc 488D3500 		leaq	.LC38(%rip), %rsi
 4319      000000
 4320 1103 E8000000 		call	_ZN8UnitTest11TestDetailsC1EPKcS2_S2_i@PLT
 4320      00
 4321 1108 488D7424 		leaq	96(%rsp), %rsi
 4321      60
 4322 110d 4889EF   		movq	%rbp, %rdi
 4323 1110 E8000000 		call	_ZN8UnitTest20DeferredTestReporter15ReportTestStartERKNS_11TestDetailsE@PLT
 4323      00
 4324 1115 F30F1005 		movss	.LC11(%rip), %xmm0
 4324      00000000 
 4325 111d 488D7424 		leaq	96(%rsp), %rsi
 4325      60
 4326 1122 4889EF   		movq	%rbp, %rdi
 4327 1125 E8000000 		call	_ZN8UnitTest20DeferredTestReporter16ReportTestFinishERKNS_11TestDetailsEf@PLT
 4327      00
 4328 112a F30F1005 		movss	.LC33(%rip), %xmm0
 4328      00000000 
 4329 1132 B9010000 		movl	$1, %ecx
 4329      00
 4330 1137 BA010000 		movl	$1, %edx
 4330      00
 4331 113c 4889EF   		movq	%rbp, %rdi
 4332 113f BE020000 		movl	$2, %esi
 4332      00
 4333 1144 E8000000 		call	_ZN8UnitTest15XmlTestReporter13ReportSummaryEiiif@PLT
 4333      00
 4334              	.LEHE111:
 4335 1149 488D0500 		leaq	.LC39(%rip), %rax
 4335      000000
 4336 1150 48894424 		movq	%rax, 24(%rsp)
 4336      18
 4337              	.LEHB112:
 4338 1155 E8000000 		call	_ZN8UnitTest11CurrentTest7DetailsEv@PLT
 4338      00
 4339 115a 488B30   		movq	(%rax), %rsi
 4340 115d 488DBC24 		leaq	160(%rsp), %rdi
 4340      A0000000 
 4341 1165 BA9C0000 		movl	$156, %edx
 4341      00
 4342 116a E8000000 		call	_ZN8UnitTest11TestDetailsC1ERKS0_i@PLT
 4342      00
 4343              	.LEHE112:
 4344 116f 488D8424 		leaq	208(%rsp), %rax
 4344      D0000000 
 4345 1177 C68424D0 		movb	$0, 208(%rsp)
 4345      00000000 
 4346 117f 488DBC24 		leaq	192(%rsp), %rdi
 4346      C0000000 
 4347 1187 48898424 		movq	%rax, 192(%rsp)
 4347      C0000000 
 4348 118f 488B4330 		movq	48(%rbx), %rax
 4349 1193 48C78424 		movq	$0, 200(%rsp)
 4349      C8000000 
 4349      00000000 
 4350 119f 4885C0   		testq	%rax, %rax
 4351 11a2 0F84B800 		je	.L385
 4351      0000
 4352 11a8 4C8B4320 		movq	32(%rbx), %r8
 4353 11ac 4D85C0   		testq	%r8, %r8
 4354 11af 0F849B00 		je	.L424
 4354      0000
 4355 11b5 4C39C0   		cmpq	%r8, %rax
 4356 11b8 0F879200 		ja	.L424
 4356      0000
 4357              	.L386:
 4358 11be 488B0424 		movq	(%rsp), %rax
 4359 11c2 488DBC24 		leaq	192(%rsp), %rdi
 4359      C0000000 
 4360 11ca 31D2     		xorl	%edx, %edx
 4361 11cc 31F6     		xorl	%esi, %esi
 4362 11ce 488B4828 		movq	40(%rax), %rcx
 4363 11d2 4929C8   		subq	%rcx, %r8
 4364              	.LEHB113:
 4365 11d5 E8000000 		call	_ZNSt7__cxx1112basic_stringIcSt11char_traitsIcESaIcEE10_M_replaceEmmPKcm@PLT
 4365      00
 4366              	.LEHE113:
 4367              	.L389:
 4368              	.LEHB114:
 4369 11da E8000000 		call	_ZN8UnitTest11CurrentTest7ResultsEv@PLT
 4369      00
 4370 11df 488B38   		movq	(%rax), %rdi
 4371 11e2 488D8C24 		leaq	160(%rsp), %rcx
 4371      A0000000 
 4372 11ea 488D7424 		leaq	24(%rsp), %rsi
 4372      18
 4373 11ef 488D9424 		leaq	192(%rsp), %rdx
 4373      C0000000 
 4374 11f7 E8000000 		call	_ZN8UnitTest10CheckEqualIPKcNSt7__cxx1112basic_stringIcSt11char_traitsIcESaIcEEEEEvRNS_11Test
 4374      00
 4375              	.LEHE114:
 4376 11fc 488BBC24 		movq	192(%rsp), %rdi
 4376      C0000000 
 4377 1204 488D8424 		leaq	208(%rsp), %rax
 4377      D0000000 
 4378 120c 4839C7   		cmpq	%rax, %rdi
 4379 120f 7405     		je	.L395
 4380 1211 E8000000 		call	_ZdlPv@PLT
 4380      00
 4381              	.L395:
 4382 1216 488DBC24 		leaq	640(%rsp), %rdi
 4382      80020000 
 4383              	.LEHB115:
 4384 121e E8000000 		call	_ZN8UnitTest16SignalTranslatorD1Ev@PLT
 4384      00
 4385              	.LEHE115:
 4386              	.L382:
 4387 1223 488B8424 		movq	1768(%rsp), %rax
 4387      E8060000 
 4388 122b 64482B04 		subq	%fs:40, %rax
 4388      25280000 
 4388      00
 4389 1234 753C     		jne	.L431
 4390 1236 4881C4F0 		addq	$1776, %rsp
 4390      060000
 4391              		.cfi_remember_state
 4392              		.cfi_def_cfa_offset 48
 4393 123d 5B       		popq	%rbx
 4394              		.cfi_def_cfa_offset 40
 4395 123e 5D       		popq	%rbp
 4396              		.cfi_def_cfa_offset 32
 4397 123f 415C     		popq	%r12
 4398              		.cfi_def_cfa_offset 24
 4399 1241 415D     		popq	%r13
 4400              		.cfi_def_cfa_offset 16
 4401 1243 415E     		popq	%r14
 4402              		.cfi_def_cfa_offset 8
 4403 1245 C3       		ret
 4404 1246 662E0F1F 		.p2align 4,,10
 4404      84000000 
 4404      0000
 4405              		.p2align 3
 4406              	.L424:
 4407              		.cfi_restore_state
 4408 1250 4989C0   		movq	%rax, %r8
 4409 1253 E966FFFF 		jmp	.L386
 4409      FF
 4410 1258 0F1F8400 		.p2align 4,,10
 4410      00000000 
 4411              		.p2align 3
 4412              	.L385:
 4413 1260 488B3424 		movq	(%rsp), %rsi
 4414 1264 4883C650 		addq	$80, %rsi
 4415              	.LEHB116:
 4416 1268 E8000000 		call	_ZNSt7__cxx1112basic_stringIcSt11char_traitsIcESaIcEE9_M_assignERKS4_@PLT
 4416      00
 4417              	.LEHE116:
 4418 126d E968FFFF 		jmp	.L389
 4418      FF
 4419              	.L431:
 4420 1272 E8000000 		call	__stack_chk_fail@PLT
 4420      00
 4421              	.L421:
 4422 1277 F30F1EFA 		endbr64
 4423 127b 4889C7   		movq	%rax, %rdi
 4424 127e E9000000 		jmp	.L392
 4424      00
 4425              	.L425:
 4426 1283 F30F1EFA 		endbr64
 4427 1287 E9000000 		jmp	.L426
 4427      00
 4428              	.L414:
 4429 128c F30F1EFA 		endbr64
 4430 1290 4889C7   		movq	%rax, %rdi
 4431 1293 4889D0   		movq	%rdx, %rax
 4432 1296 E9000000 		jmp	.L403
 4432      00
 4433              	.L422:
 4434 129b F30F1EFA 		endbr64
 4435 129f 4889C3   		movq	%rax, %rbx
 4436 12a2 E9000000 		jmp	.L398
 4436      00
 4437              	.L423:
 4438 12a7 F30F1EFA 		endbr64
 4439 12ab 4889C3   		movq	%rax, %rbx
 4440 12ae E9000000 		jmp	.L390
 4440      00
 4441              		.section	.gcc_except_table
 4442              		.align 4
 4443              	.LLSDA1577:
 4444 0370 FF       		.byte	0xff
 4445 0371 9B       		.byte	0x9b
 4446 0372 45       		.uleb128 .LLSDATT1577-.LLSDATTD1577
 4447              	.LLSDATTD1577:
 4448 0373 01       		.byte	0x1
 4449 0374 2E       		.uleb128 .LLSDACSE1577-.LLSDACSB1577
 4450              	.LLSDACSB1577:
 4451 0375 2E       		.uleb128 .LEHB109-.LFB1577
 4452 0376 05       		.uleb128 .LEHE109-.LEHB109
 4453 0377 00       		.uleb128 0
 4454 0378 00       		.uleb128 0
 4455 0379 3E       		.uleb128 .LEHB110-.LFB1577
 4456 037a 05       		.uleb128 .LEHE110-.LEHB110
 4457 037b EC04     		.uleb128 .L414-.LFB1577
 4458 037d 05       		.uleb128 0x5
 4459 037e 8001     		.uleb128 .LEHB111-.LFB1577
 4460 0380 A901     		.uleb128 .LEHE111-.LEHB111
 4461 0382 E304     		.uleb128 .L425-.LFB1577
 4462 0384 07       		.uleb128 0x7
 4463 0385 B502     		.uleb128 .LEHB112-.LFB1577
 4464 0387 1A       		.uleb128 .LEHE112-.LEHB112
 4465 0388 D704     		.uleb128 .L421-.LFB1577
 4466 038a 01       		.uleb128 0x1
 4467 038b B503     		.uleb128 .LEHB113-.LFB1577
 4468 038d 05       		.uleb128 .LEHE113-.LEHB113
 4469 038e 8705     		.uleb128 .L423-.LFB1577
 4470 0390 01       		.uleb128 0x1
 4471 0391 BA03     		.uleb128 .LEHB114-.LFB1577
 4472 0393 22       		.uleb128 .LEHE114-.LEHB114
 4473 0394 FB04     		.uleb128 .L422-.LFB1577
 4474 0396 01       		.uleb128 0x1
 4475 0397 FE03     		.uleb128 .LEHB115-.LFB1577
 4476 0399 05       		.uleb128 .LEHE115-.LEHB115
 4477 039a EC04     		.uleb128 .L414-.LFB1577
 4478 039c 05       		.uleb128 0x5
 4479 039d C804     		.uleb128 .LEHB116-.LFB1577
 4480 039f 05       		.uleb128 .LEHE116-.LEHB116
 4481 03a0 8705     		.uleb128 .L423-.LFB1577
 4482 03a2 01       		.uleb128 0x1
 4483              	.LLSDACSE1577:
 4484 03a3 03       		.byte	0x3
 4485 03a4 00       		.byte	0
 4486 03a5 02       		.byte	0x2
 4487 03a6 7D       		.byte	0x7d
 4488 03a7 01       		.byte	0x1
 4489 03a8 7D       		.byte	0x7d
 4490 03a9 00       		.byte	0
 4491 03aa 7D       		.byte	0x7d
 4492 03ab 00       		.align 4
 4493 03ac 00000000 		.long	0
 4494              	
 4495 03b0 00000000 		.long	DW.ref._ZTISt9exception-.
 4496 03b4 00000000 		.long	DW.ref._ZTIN8UnitTest15AssertExceptionE-.
 4497              	.LLSDATT1577:
 4498              		.text
 4499              		.cfi_endproc
 4500              		.section	.text.unlikely
 4501              		.cfi_startproc
 4502              		.cfi_personality 0x9b,DW.ref.__gxx_personality_v0
 4503              		.cfi_lsda 0x1b,.LLSDAC1577
 4505              	_ZN8UnitTest11ExecuteTestIN12_GLOBAL__N_151XmlTestReporterFixtureOneFailureAndOneSuccessHelperEEEvR
 4506              	.LFSB1577:
 4507              	.L427:
 4508              		.cfi_def_cfa_offset 1824
 4509              		.cfi_offset 3, -48
 4510              		.cfi_offset 6, -40
 4511              		.cfi_offset 12, -32
 4512              		.cfi_offset 13, -24
 4513              		.cfi_offset 14, -16
 4514 0b9f BF080000 		movl	$8, %edi
 4514      00
 4515 0ba4 E8000000 		call	__cxa_allocate_exception@PLT
 4515      00
 4516 0ba9 31D2     		xorl	%edx, %edx
 4517 0bab 488D3500 		leaq	_ZTIPKc(%rip), %rsi
 4517      000000
 4518 0bb2 4889C7   		movq	%rax, %rdi
 4519 0bb5 488D0500 		leaq	.LC8(%rip), %rax
 4519      000000
 4520 0bbc 488907   		movq	%rax, (%rdi)
 4521              	.LEHB117:
 4522 0bbf E8000000 		call	__cxa_throw@PLT
 4522      00
 4523              	.LEHE117:
 4524              	.L415:
 4525 0bc4 F30F1EFA 		endbr64
 4526              	.L426:
 4527 0bc8 4889C5   		movq	%rax, %rbp
 4528 0bcb 4889D3   		movq	%rdx, %rbx
 4529 0bce EB74     		jmp	.L402
 4530              	.L390:
 4531 0bd0 488BBC24 		movq	192(%rsp), %rdi
 4531      C0000000 
 4532 0bd8 488D8424 		leaq	208(%rsp), %rax
 4532      D0000000 
 4533 0be0 4839C7   		cmpq	%rax, %rdi
 4534 0be3 7405     		je	.L393
 4535 0be5 E8000000 		call	_ZdlPv@PLT
 4535      00
 4536              	.L393:
 4537 0bea 4889DF   		movq	%rbx, %rdi
 4538              	.L392:
 4539 0bed E8000000 		call	__cxa_begin_catch@PLT
 4539      00
 4540              	.LEHB118:
 4541 0bf2 E8000000 		call	_ZN8UnitTest11CurrentTest7ResultsEv@PLT
 4541      00
 4542 0bf7 488B28   		movq	(%rax), %rbp
 4543 0bfa E8000000 		call	_ZN8UnitTest11CurrentTest7DetailsEv@PLT
 4543      00
 4544 0bff 488B30   		movq	(%rax), %rsi
 4545 0c02 488DBC24 		leaq	128(%rsp), %rdi
 4545      80000000 
 4546 0c0a BA9C0000 		movl	$156, %edx
 4546      00
 4547 0c0f E8000000 		call	_ZN8UnitTest11TestDetailsC1ERKS0_i@PLT
 4547      00
 4548 0c14 488DB424 		leaq	128(%rsp), %rsi
 4548      80000000 
 4549 0c1c 488D1500 		leaq	.LC35(%rip), %rdx
 4549      000000
 4550 0c23 4889EF   		movq	%rbp, %rdi
 4551 0c26 E8000000 		call	_ZN8UnitTest11TestResults13OnTestFailureERKNS_11TestDetailsEPKc@PLT
 4551      00
 4552              	.LEHE118:
 4553              	.LEHB119:
 4554 0c2b E8000000 		call	__cxa_end_catch@PLT
 4554      00
 4555              	.LEHE119:
 4556 0c30 E9000000 		jmp	.L395
 4556      00
 4557              	.L420:
 4558 0c35 F30F1EFA 		endbr64
 4559 0c39 4889C5   		movq	%rax, %rbp
 4560 0c3c 4889D3   		movq	%rdx, %rbx
 4561 0c3f E8000000 		call	__cxa_end_catch@PLT
 4561      00
 4562              	.L402:
 4563 0c44 488DBC24 		leaq	640(%rsp), %rdi
 4563      80020000 
 4564 0c4c E8000000 		call	_ZN8UnitTest16SignalTranslatorD1Ev@PLT
 4564      00
 4565 0c51 4889EF   		movq	%rbp, %rdi
 4566 0c54 4889D8   		movq	%rbx, %rax
 4567              	.L403:
 4568 0c57 4883F801 		cmpq	$1, %rax
 4569 0c5b 7454     		je	.L404
 4570 0c5d 4883F802 		cmpq	$2, %rax
 4571 0c61 0F84C400 		je	.L432
 4571      0000
 4572 0c67 E8000000 		call	__cxa_begin_catch@PLT
 4572      00
 4573              	.LEHB120:
 4574 0c6c E8000000 		call	_ZN8UnitTest11CurrentTest7ResultsEv@PLT
 4574      00
 4575 0c71 488B7424 		movq	8(%rsp), %rsi
 4575      08
 4576 0c76 488B38   		movq	(%rax), %rdi
 4577 0c79 488D1500 		leaq	.LC17(%rip), %rdx
 4577      000000
 4578 0c80 E8000000 		call	_ZN8UnitTest11TestResults13OnTestFailureERKNS_11TestDetailsEPKc@PLT
 4578      00
 4579              	.LEHE120:
 4580              	.LEHB121:
 4581 0c85 E8000000 		call	__cxa_end_catch@PLT
 4581      00
 4582              	.LEHE121:
 4583 0c8a E9000000 		jmp	.L382
 4583      00
 4584              	.L398:
 4585 0c8f 488BBC24 		movq	192(%rsp), %rdi
 4585      C0000000 
 4586 0c97 488D8424 		leaq	208(%rsp), %rax
 4586      D0000000 
 4587 0c9f 4839C7   		cmpq	%rax, %rdi
 4588 0ca2 7405     		je	.L400
 4589 0ca4 E8000000 		call	_ZdlPv@PLT
 4589      00
 4590              	.L400:
 4591 0ca9 4889DF   		movq	%rbx, %rdi
 4592 0cac E93CFFFF 		jmp	.L392
 4592      FF
 4593              	.L404:
 4594 0cb1 E8000000 		call	__cxa_begin_catch@PLT
 4594      00
 4595 0cb6 4889C5   		movq	%rax, %rbp
 4596              	.LEHB122:
 4597 0cb9 E8000000 		call	_ZN8UnitTest11CurrentTest7ResultsEv@PLT
 4597      00
 4598 0cbe 4C8B28   		movq	(%rax), %r13
 4599 0cc1 488B4500 		movq	0(%rbp), %rax
 4600 0cc5 4889EF   		movq	%rbp, %rdi
 4601 0cc8 FF5010   		call	*16(%rax)
 4602 0ccb 4889EF   		movq	%rbp, %rdi
 4603 0cce 4989C6   		movq	%rax, %r14
 4604 0cd1 E8000000 		call	_ZNK8UnitTest15AssertException10LineNumberEv@PLT
 4604      00
 4605 0cd6 4889EF   		movq	%rbp, %rdi
 4606 0cd9 4189C4   		movl	%eax, %r12d
 4607 0cdc E8000000 		call	_ZNK8UnitTest15AssertException8FilenameEv@PLT
 4607      00
 4608 0ce1 4889C1   		movq	%rax, %rcx
 4609 0ce4 488B4424 		movq	8(%rsp), %rax
 4609      08
 4610 0ce9 488D7C24 		leaq	32(%rsp), %rdi
 4610      20
 4611 0cee 4589E0   		movl	%r12d, %r8d
 4612 0cf1 488B7008 		movq	8(%rax), %rsi
 4613 0cf5 488B10   		movq	(%rax), %rdx
 4614 0cf8 E8000000 		call	_ZN8UnitTest11TestDetailsC1EPKcS2_S2_i@PLT
 4614      00
 4615 0cfd 488D7424 		leaq	32(%rsp), %rsi
 4615      20
 4616 0d02 4C89F2   		movq	%r14, %rdx
 4617 0d05 4C89EF   		movq	%r13, %rdi
 4618 0d08 E8000000 		call	_ZN8UnitTest11TestResults13OnTestFailureERKNS_11TestDetailsEPKc@PLT
 4618      00
 4619              	.LEHE122:
 4620 0d0d E8000000 		call	__cxa_end_catch@PLT
 4620      00
 4621 0d12 E9000000 		jmp	.L382
 4621      00
 4622              	.L416:
 4623 0d17 F30F1EFA 		endbr64
 4624 0d1b 4889C5   		movq	%rax, %rbp
 4625 0d1e E8000000 		call	__cxa_end_catch@PLT
 4625      00
 4626 0d23 4889EF   		movq	%rbp, %rdi
 4627              	.LEHB123:
 4628 0d26 E8000000 		call	_Unwind_Resume@PLT
 4628      00
 4629              	.LEHE123:
 4630              	.L432:
 4631 0d2b E8000000 		call	__cxa_begin_catch@PLT
 4631      00
 4632 0d30 488DBC24 		leaq	224(%rsp), %rdi
 4632      E0000000 
 4633 0d38 4889C5   		movq	%rax, %rbp
 4634              	.LEHB124:
 4635 0d3b E8000000 		call	_ZN8UnitTest15MemoryOutStreamC1Ev
 4635      00
 4636              	.LEHE124:
 4637 0d40 488DBC24 		leaq	224(%rsp), %rdi
 4637      E0000000 
 4638 0d48 BA150000 		movl	$21, %edx
 4638      00
 4639 0d4d 488D3500 		leaq	.LC16(%rip), %rsi
 4639      000000
 4640              	.LEHB125:
 4641 0d54 E8000000 		call	_ZSt16__ostream_insertIcSt11char_traitsIcEERSt13basic_ostreamIT_T0_ES6_PKS3_l@PLT
 4641      00
 4642 0d59 488B4500 		movq	0(%rbp), %rax
 4643 0d5d 4889EF   		movq	%rbp, %rdi
 4644 0d60 FF5010   		call	*16(%rax)
 4645 0d63 488DBC24 		leaq	224(%rsp), %rdi
 4645      E0000000 
 4646 0d6b 4889C6   		movq	%rax, %rsi
 4647 0d6e E8000000 		call	_ZStlsISt11char_traitsIcEERSt13basic_ostreamIcT_ES5_PKc@PLT
 4647      00
 4648 0d73 E8000000 		call	_ZN8UnitTest11CurrentTest7ResultsEv@PLT
 4648      00
 4649 0d78 488DBC24 		leaq	224(%rsp), %rdi
 4649      E0000000 
 4650 0d80 488B28   		movq	(%rax), %rbp
 4651 0d83 E8000000 		call	_ZNK8UnitTest15MemoryOutStream7GetTextEv@PLT
 4651      00
 4652 0d88 488B7424 		movq	8(%rsp), %rsi
 4652      08
 4653 0d8d 4889C2   		movq	%rax, %rdx
 4654 0d90 4889EF   		movq	%rbp, %rdi
 4655 0d93 E8000000 		call	_ZN8UnitTest11TestResults13OnTestFailureERKNS_11TestDetailsEPKc@PLT
 4655      00
 4656              	.LEHE125:
 4657 0d98 488DBC24 		leaq	224(%rsp), %rdi
 4657      E0000000 
 4658              	.LEHB126:
 4659 0da0 E8000000 		call	_ZN8UnitTest15MemoryOutStreamD1Ev
 4659      00
 4660              	.LEHE126:
 4661 0da5 E8000000 		call	__cxa_end_catch@PLT
 4661      00
 4662 0daa E9000000 		jmp	.L382
 4662      00
 4663              	.L418:
 4664 0daf F30F1EFA 		endbr64
 4665 0db3 488DBC24 		leaq	224(%rsp), %rdi
 4665      E0000000 
 4666 0dbb 4889C5   		movq	%rax, %rbp
 4667 0dbe E8000000 		call	_ZN8UnitTest15MemoryOutStreamD1Ev
 4667      00
 4668              	.L411:
 4669 0dc3 E8000000 		call	__cxa_end_catch@PLT
 4669      00
 4670 0dc8 4889EF   		movq	%rbp, %rdi
 4671              	.LEHB127:
 4672 0dcb E8000000 		call	_Unwind_Resume@PLT
 4672      00
 4673              	.LEHE127:
 4674              	.L417:
 4675 0dd0 F30F1EFA 		endbr64
 4676 0dd4 4889C5   		movq	%rax, %rbp
 4677 0dd7 EBEA     		jmp	.L411
 4678              	.L419:
 4679 0dd9 F30F1EFA 		endbr64
 4680 0ddd 4889C5   		movq	%rax, %rbp
 4681 0de0 E8000000 		call	__cxa_end_catch@PLT
 4681      00
 4682 0de5 4889EF   		movq	%rbp, %rdi
 4683              	.LEHB128:
 4684 0de8 E8000000 		call	_Unwind_Resume@PLT
 4684      00
 4685              	.LEHE128:
 4686              		.cfi_endproc
 4687              	.LFE1577:
 4688              		.section	.gcc_except_table
 4689              		.align 4
 4690              	.LLSDAC1577:
 4691 03b8 FF       		.byte	0xff
 4692 03b9 9B       		.byte	0x9b
 4693 03ba 59       		.uleb128 .LLSDATTC1577-.LLSDATTDC1577
 4694              	.LLSDATTDC1577:
 4695 03bb 01       		.byte	0x1
 4696 03bc 40       		.uleb128 .LLSDACSEC1577-.LLSDACSBC1577
 4697              	.LLSDACSBC1577:
 4698 03bd 20       		.uleb128 .LEHB117-.LCOLDB40
 4699 03be 05       		.uleb128 .LEHE117-.LEHB117
 4700 03bf 25       		.uleb128 .L415-.LCOLDB40
 4701 03c0 07       		.uleb128 0x7
 4702 03c1 53       		.uleb128 .LEHB118-.LCOLDB40
 4703 03c2 39       		.uleb128 .LEHE118-.LEHB118
 4704 03c3 9601     		.uleb128 .L420-.LCOLDB40
 4705 03c5 07       		.uleb128 0x7
 4706 03c6 8C01     		.uleb128 .LEHB119-.LCOLDB40
 4707 03c8 05       		.uleb128 .LEHE119-.LEHB119
 4708 03c9 25       		.uleb128 .L415-.LCOLDB40
 4709 03ca 07       		.uleb128 0x7
 4710 03cb CD01     		.uleb128 .LEHB120-.LCOLDB40
 4711 03cd 19       		.uleb128 .LEHE120-.LEHB120
 4712 03ce BA04     		.uleb128 .L419-.LCOLDB40
 4713 03d0 00       		.uleb128 0
 4714 03d1 E601     		.uleb128 .LEHB121-.LCOLDB40
 4715 03d3 05       		.uleb128 .LEHE121-.LEHB121
 4716 03d4 00       		.uleb128 0
 4717 03d5 00       		.uleb128 0
 4718 03d6 9A02     		.uleb128 .LEHB122-.LCOLDB40
 4719 03d8 54       		.uleb128 .LEHE122-.LEHB122
 4720 03d9 F802     		.uleb128 .L416-.LCOLDB40
 4721 03db 00       		.uleb128 0
 4722 03dc 8703     		.uleb128 .LEHB123-.LCOLDB40
 4723 03de 05       		.uleb128 .LEHE123-.LEHB123
 4724 03df 00       		.uleb128 0
 4725 03e0 00       		.uleb128 0
 4726 03e1 9C03     		.uleb128 .LEHB124-.LCOLDB40
 4727 03e3 05       		.uleb128 .LEHE124-.LEHB124
 4728 03e4 B104     		.uleb128 .L417-.LCOLDB40
 4729 03e6 00       		.uleb128 0
 4730 03e7 B503     		.uleb128 .LEHB125-.LCOLDB40
 4731 03e9 44       		.uleb128 .LEHE125-.LEHB125
 4732 03ea 9004     		.uleb128 .L418-.LCOLDB40
 4733 03ec 00       		.uleb128 0
 4734 03ed 8104     		.uleb128 .LEHB126-.LCOLDB40
 4735 03ef 05       		.uleb128 .LEHE126-.LEHB126
 4736 03f0 B104     		.uleb128 .L417-.LCOLDB40
 4737 03f2 00       		.uleb128 0
 4738 03f3 AC04     		.uleb128 .LEHB127-.LCOLDB40
 4739 03f5 05       		.uleb128 .LEHE127-.LEHB127
 4740 03f6 00       		.uleb128 0
 4741 03f7 00       		.uleb128 0
 4742 03f8 C904     		.uleb128 .LEHB128-.LCOLDB40
 4743 03fa 05       		.uleb128 .LEHE128-.LEHB128
 4744 03fb 00       		.uleb128 0
 4745 03fc 00       		.uleb128 0
 4746              	.LLSDACSEC1577:
 4747 03fd 03       		.byte	0x3
 4748 03fe 00       		.byte	0
 4749 03ff 02       		.byte	0x2
 4750 0400 7D       		.byte	0x7d
 4751 0401 01       		.byte	0x1
 4752 0402 7D       		.byte	0x7d
 4753 0403 00       		.byte	0
 4754 0404 7D       		.byte	0x7d
 4755 0405 000000   		.align 4
 4756 0408 00000000 		.long	0
 4757              	
 4758 040c 00000000 		.long	DW.ref._ZTISt9exception-.
 4759 0410 00000000 		.long	DW.ref._ZTIN8UnitTest15AssertExceptionE-.
 4760              	.LLSDATTC1577:
 4761              		.section	.text.unlikely
 4762              		.text
 4764              		.section	.text.unlikely
 4766              	.LCOLDE40:
 4767              		.text
 4768              	.LHOTE40:
 4769              		.section	.text.unlikely
 4770 0ded 90       		.align 2
 4771              	.LCOLDB41:
 4772              		.text
 4773              	.LHOTB41:
 4774 12b3 90       		.align 2
 4775 12b4 66662E0F 		.p2align 4
 4775      1F840000 
 4775      00000090 
 4777              	_ZNK12_GLOBAL__N_149TestXmlTestReporterFixtureOneFailureAndOneSuccess7RunImplEv:
 4778              	.LFB1523:
 4779              		.cfi_startproc
 4780              		.cfi_personality 0x9b,DW.ref.__gxx_personality_v0
 4781              		.cfi_lsda 0x1b,.LLSDA1523
 4782 12c0 F30F1EFA 		endbr64
 4783 12c4 4157     		pushq	%r15
 4784              		.cfi_def_cfa_offset 16
 4785              		.cfi_offset 15, -16
 4786 12c6 4156     		pushq	%r14
 4787              		.cfi_def_cfa_offset 24
 4788              		.cfi_offset 14, -24
 4789 12c8 4155     		pushq	%r13
 4790              		.cfi_def_cfa_offset 32
 4791              		.cfi_offset 13, -32
 4792 12ca 4154     		pushq	%r12
 4793              		.cfi_def_cfa_offset 40
 4794              		.cfi_offset 12, -40
 4795 12cc 55       		pushq	%rbp
 4796              		.cfi_def_cfa_offset 48
 4797              		.cfi_offset 6, -48
 4798 12cd 53       		pushq	%rbx
 4799              		.cfi_def_cfa_offset 56
 4800              		.cfi_offset 3, -56
 4801 12ce 488D1D00 		leaq	16+_ZTVNSt7__cxx1115basic_stringbufIcSt11char_traitsIcESaIcEEE(%rip), %rbx
 4801      000000
 4802 12d5 66480F6E 		movq	%rbx, %xmm3
 4802      DB
 4803 12da 4881EC18 		subq	$536, %rsp
 4803      020000
 4804              		.cfi_def_cfa_offset 592
 4805 12e1 48897C24 		movq	%rdi, 56(%rsp)
 4805      38
 4806 12e6 4C8DB424 		leaq	208(%rsp), %r14
 4806      D0000000 
 4807 12ee 4C8D6C24 		leaq	96(%rsp), %r13
 4807      60
 4808 12f3 64488B04 		movq	%fs:40, %rax
 4808      25280000 
 4808      00
 4809 12fc 48898424 		movq	%rax, 520(%rsp)
 4809      08020000 
 4810 1304 488D0500 		leaq	24+_ZTVNSt7__cxx1119basic_ostringstreamIcSt11char_traitsIcESaIcEEE(%rip), %rax
 4810      000000
 4811 130b 66480F6E 		movq	%rax, %xmm1
 4811      C8
 4812 1310 66480F6E 		movq	%rax, %xmm2
 4812      D0
 4813 1315 488D4708 		leaq	8(%rdi), %rax
 4814 1319 4C89F7   		movq	%r14, %rdi
 4815 131c 660F6CCB 		punpcklqdq	%xmm3, %xmm1
 4816 1320 0F161500 		movhps	.LC21(%rip), %xmm2
 4816      000000
 4817 1327 48894424 		movq	%rax, 32(%rsp)
 4817      20
 4818 132c 0F294C24 		movaps	%xmm1, 16(%rsp)
 4818      10
 4819 1331 0F291424 		movaps	%xmm2, (%rsp)
 4820 1335 E8000000 		call	_ZNSt8ios_baseC2Ev@PLT
 4820      00
 4821 133a 488D0500 		leaq	16+_ZTVSt9basic_iosIcSt11char_traitsIcEE(%rip), %rax
 4821      000000
 4822 1341 660FEFC0 		pxor	%xmm0, %xmm0
 4823 1345 31F6     		xorl	%esi, %esi
 4824 1347 48898424 		movq	%rax, 208(%rsp)
 4824      D0000000 
 4825 134f 31C0     		xorl	%eax, %eax
 4826 1351 66898424 		movw	%ax, 432(%rsp)
 4826      B0010000 
 4827 1359 488B0500 		movq	8+_ZTTNSt7__cxx1119basic_ostringstreamIcSt11char_traitsIcESaIcEEE(%rip), %rax
 4827      000000
 4828 1360 0F118424 		movups	%xmm0, 440(%rsp)
 4828      B8010000 
 4829 1368 0F118424 		movups	%xmm0, 456(%rsp)
 4829      C8010000 
 4830 1370 488B78E8 		movq	-24(%rax), %rdi
 4831 1374 48894424 		movq	%rax, 96(%rsp)
 4831      60
 4832 1379 488B0500 		movq	16+_ZTTNSt7__cxx1119basic_ostringstreamIcSt11char_traitsIcESaIcEEE(%rip), %rax
 4832      000000
 4833 1380 48C78424 		movq	$0, 424(%rsp)
 4833      A8010000 
 4833      00000000 
 4834 138c 4C01EF   		addq	%r13, %rdi
 4835 138f 488907   		movq	%rax, (%rdi)
 4836              	.LEHB129:
 4837 1392 E8000000 		call	_ZNSt9basic_iosIcSt11char_traitsIcEE4initEPSt15basic_streambufIcS1_E@PLT
 4837      00
 4838              	.LEHE129:
 4839 1397 488D0500 		leaq	64+_ZTVNSt7__cxx1119basic_ostringstreamIcSt11char_traitsIcESaIcEEE(%rip), %rax
 4839      000000
 4840 139e 660F6F14 		movdqa	(%rsp), %xmm2
 4840      24
 4841 13a3 660FEFC0 		pxor	%xmm0, %xmm0
 4842 13a7 488D6C24 		leaq	104(%rsp), %rbp
 4842      68
 4843 13ac 48898424 		movq	%rax, 208(%rsp)
 4843      D0000000 
 4844 13b4 488D8424 		leaq	160(%rsp), %rax
 4844      A0000000 
 4845 13bc 4889C7   		movq	%rax, %rdi
 4846 13bf 48890424 		movq	%rax, (%rsp)
 4847 13c3 0F295424 		movaps	%xmm2, 96(%rsp)
 4847      60
 4848 13c8 0F294424 		movaps	%xmm0, 112(%rsp)
 4848      70
 4849 13cd 0F298424 		movaps	%xmm0, 128(%rsp)
 4849      80000000 
 4850 13d5 0F298424 		movaps	%xmm0, 144(%rsp)
 4850      90000000 
 4851 13dd E8000000 		call	_ZNSt6localeC1Ev@PLT
 4851      00
 4852 13e2 4889EE   		movq	%rbp, %rsi
 4853 13e5 4C89F7   		movq	%r14, %rdi
 4854 13e8 48895C24 		movq	%rbx, 104(%rsp)
 4854      68
 4855 13ed 488D8424 		leaq	192(%rsp), %rax
 4855      C0000000 
 4856 13f5 C68424C0 		movb	$0, 192(%rsp)
 4856      00000000 
 4857 13fd C78424A8 		movl	$16, 168(%rsp)
 4857      00000010 
 4857      000000
 4858 1408 48894424 		movq	%rax, 40(%rsp)
 4858      28
 4859 140d 48898424 		movq	%rax, 176(%rsp)
 4859      B0000000 
 4860 1415 48C78424 		movq	$0, 184(%rsp)
 4860      B8000000 
 4860      00000000 
 4861              	.LEHB130:
 4862 1421 E8000000 		call	_ZNSt9basic_iosIcSt11char_traitsIcEE4initEPSt15basic_streambufIcS1_E@PLT
 4862      00
 4863              	.LEHE130:
 4864 1426 488D8424 		leaq	472(%rsp), %rax
 4864      D8010000 
 4865 142e 4C89EE   		movq	%r13, %rsi
 4866 1431 4889C7   		movq	%rax, %rdi
 4867 1434 48894424 		movq	%rax, 48(%rsp)
 4867      30
 4868              	.LEHB131:
 4869 1439 E8000000 		call	_ZN8UnitTest15XmlTestReporterC1ERSo@PLT
 4869      00
 4870              	.LEHE131:
 4871 143e 488B4424 		movq	32(%rsp), %rax
 4871      20
 4872 1443 4C89EF   		movq	%r13, %rdi
 4873 1446 4889C6   		movq	%rax, %rsi
 4874 1449 48898424 		movq	%rax, 512(%rsp)
 4874      00020000 
 4875              	.LEHB132:
 4876 1451 E8CAFBFF 		call	_ZN8UnitTest11ExecuteTestIN12_GLOBAL__N_151XmlTestReporterFixtureOneFailureAndOneSuccessHelpe
 4876      FF
 4877              	.LEHE132:
 4878 1456 4C8BA424 		movq	488(%rsp), %r12
 4878      E8010000 
 4879 145e 488BAC24 		movq	480(%rsp), %rbp
 4879      E0010000 
 4880 1466 488D0500 		leaq	16+_ZTVN8UnitTest20DeferredTestReporterE(%rip), %rax
 4880      000000
 4881 146d 48898424 		movq	%rax, 472(%rsp)
 4881      D8010000 
 4882 1475 4939EC   		cmpq	%rbp, %r12
 4883 1478 0F849100 		je	.L440
 4883      0000
 4884 147e 6690     		.p2align 4,,10
 4885              		.p2align 3
 4886              	.L452:
 4887 1480 488B5D68 		movq	104(%rbp), %rbx
 4888 1484 4C8B7D60 		movq	96(%rbp), %r15
 4889 1488 4C39FB   		cmpq	%r15, %rbx
 4890 148b 7426     		je	.L441
 4891 148d 0F1F00   		.p2align 4,,10
 4892              		.p2align 3
 4893              	.L445:
 4894 1490 498B7F08 		movq	8(%r15), %rdi
 4895 1494 498D4718 		leaq	24(%r15), %rax
 4896 1498 4839C7   		cmpq	%rax, %rdi
 4897 149b 0F842701 		je	.L442
 4897      0000
 4898 14a1 E8000000 		call	_ZdlPv@PLT
 4898      00
 4899 14a6 4983C728 		addq	$40, %r15
 4900 14aa 4939DF   		cmpq	%rbx, %r15
 4901 14ad 75E1     		jne	.L445
 4902              	.L444:
 4903 14af 4C8B7D60 		movq	96(%rbp), %r15
 4904              	.L441:
 4905 14b3 4D85FF   		testq	%r15, %r15
 4906 14b6 7408     		je	.L446
 4907 14b8 4C89FF   		movq	%r15, %rdi
 4908 14bb E8000000 		call	_ZdlPv@PLT
 4908      00
 4909              	.L446:
 4910 14c0 488B7D40 		movq	64(%rbp), %rdi
 4911 14c4 488D4550 		leaq	80(%rbp), %rax
 4912 14c8 4839C7   		cmpq	%rax, %rdi
 4913 14cb 7405     		je	.L447
 4914 14cd E8000000 		call	_ZdlPv@PLT
 4914      00
 4915              	.L447:
 4916 14d2 488B7D20 		movq	32(%rbp), %rdi
 4917 14d6 488D4530 		leaq	48(%rbp), %rax
 4918 14da 4839C7   		cmpq	%rax, %rdi
 4919 14dd 7405     		je	.L448
 4920 14df E8000000 		call	_ZdlPv@PLT
 4920      00
 4921              	.L448:
 4922 14e4 488B7D00 		movq	0(%rbp), %rdi
 4923 14e8 488D4510 		leaq	16(%rbp), %rax
 4924 14ec 4839C7   		cmpq	%rax, %rdi
 4925 14ef 0F84EB00 		je	.L449
 4925      0000
 4926 14f5 E8000000 		call	_ZdlPv@PLT
 4926      00
 4927 14fa 4883ED80 		subq	$-128, %rbp
 4928 14fe 4939EC   		cmpq	%rbp, %r12
 4929 1501 0F8579FF 		jne	.L452
 4929      FFFF
 4930              	.L451:
 4931 1507 488BAC24 		movq	480(%rsp), %rbp
 4931      E0010000 
 4932              	.L440:
 4933 150f 4885ED   		testq	%rbp, %rbp
 4934 1512 7408     		je	.L453
 4935 1514 4889EF   		movq	%rbp, %rdi
 4936 1517 E8000000 		call	_ZdlPv@PLT
 4936      00
 4937              	.L453:
 4938 151c 488B7C24 		movq	48(%rsp), %rdi
 4938      30
 4939              	.LEHB133:
 4940 1521 E8000000 		call	_ZN8UnitTest12TestReporterD2Ev@PLT
 4940      00
 4941              	.LEHE133:
 4942 1526 660F6F64 		movdqa	16(%rsp), %xmm4
 4942      2410
 4943 152c 488D0500 		leaq	64+_ZTVNSt7__cxx1119basic_ostringstreamIcSt11char_traitsIcESaIcEEE(%rip), %rax
 4943      000000
 4944 1533 488BBC24 		movq	176(%rsp), %rdi
 4944      B0000000 
 4945 153b 48898424 		movq	%rax, 208(%rsp)
 4945      D0000000 
 4946 1543 0F296424 		movaps	%xmm4, 96(%rsp)
 4946      60
 4947 1548 483B7C24 		cmpq	40(%rsp), %rdi
 4947      28
 4948 154d 7405     		je	.L454
 4949 154f E8000000 		call	_ZdlPv@PLT
 4949      00
 4950              	.L454:
 4951 1554 488B3C24 		movq	(%rsp), %rdi
 4952 1558 488D0500 		leaq	16+_ZTVSt15basic_streambufIcSt11char_traitsIcEE(%rip), %rax
 4952      000000
 4953 155f 48894424 		movq	%rax, 104(%rsp)
 4953      68
 4954 1564 E8000000 		call	_ZNSt6localeD1Ev@PLT
 4954      00
 4955 1569 488B0500 		movq	8+_ZTTNSt7__cxx1119basic_ostringstreamIcSt11char_traitsIcESaIcEEE(%rip), %rax
 4955      000000
 4956 1570 488B0D00 		movq	16+_ZTTNSt7__cxx1119basic_ostringstreamIcSt11char_traitsIcESaIcEEE(%rip), %rcx
 4956      000000
 4957 1577 4C89F7   		movq	%r14, %rdi
 4958 157a 48894424 		movq	%rax, 96(%rsp)
 4958      60
 4959 157f 488B40E8 		movq	-24(%rax), %rax
 4960 1583 48894C04 		movq	%rcx, 96(%rsp,%rax)
 4960      60
 4961 1588 488D0500 		leaq	16+_ZTVSt9basic_iosIcSt11char_traitsIcEE(%rip), %rax
 4961      000000
 4962 158f 48898424 		movq	%rax, 208(%rsp)
 4962      D0000000 
 4963              	.LEHB134:
 4964 1597 E8000000 		call	_ZNSt8ios_baseD2Ev@PLT
 4964      00
 4965              	.LEHE134:
 4966 159c 488B8424 		movq	520(%rsp), %rax
 4966      08020000 
 4967 15a4 64482B04 		subq	%fs:40, %rax
 4967      25280000 
 4967      00
 4968 15ad 7543     		jne	.L499
 4969 15af 4881C418 		addq	$536, %rsp
 4969      020000
 4970              		.cfi_remember_state
 4971              		.cfi_def_cfa_offset 56
 4972 15b6 5B       		popq	%rbx
 4973              		.cfi_def_cfa_offset 48
 4974 15b7 5D       		popq	%rbp
 4975              		.cfi_def_cfa_offset 40
 4976 15b8 415C     		popq	%r12
 4977              		.cfi_def_cfa_offset 32
 4978 15ba 415D     		popq	%r13
 4979              		.cfi_def_cfa_offset 24
 4980 15bc 415E     		popq	%r14
 4981              		.cfi_def_cfa_offset 16
 4982 15be 415F     		popq	%r15
 4983              		.cfi_def_cfa_offset 8
 4984 15c0 C3       		ret
 4985              		.p2align 4,,10
 4986 15c1 0F1F8000 		.p2align 3
 4986      000000
 4987              	.L442:
 4988              		.cfi_restore_state
 4989 15c8 4983C728 		addq	$40, %r15
 4990 15cc 4C39FB   		cmpq	%r15, %rbx
 4991 15cf 0F85BBFE 		jne	.L445
 4991      FFFF
 4992 15d5 E9D5FEFF 		jmp	.L444
 4992      FF
 4993 15da 660F1F44 		.p2align 4,,10
 4993      0000
 4994              		.p2align 3
 4995              	.L449:
 4996 15e0 4883ED80 		subq	$-128, %rbp
 4997 15e4 4939EC   		cmpq	%rbp, %r12
 4998 15e7 0F8593FE 		jne	.L452
 4998      FFFF
 4999 15ed E915FFFF 		jmp	.L451
 4999      FF
 5000              	.L499:
 5001 15f2 E8000000 		call	__stack_chk_fail@PLT
 5001      00
 5002              	.L473:
 5003 15f7 F30F1EFA 		endbr64
 5004 15fb 4889C7   		movq	%rax, %rdi
 5005 15fe 4889D0   		movq	%rdx, %rax
 5006 1601 E9000000 		jmp	.L494
 5006      00
 5007              	.L482:
 5008 1606 F30F1EFA 		endbr64
 5009 160a 4889C3   		movq	%rax, %rbx
 5010 160d 4889D5   		movq	%rdx, %rbp
 5011 1610 E9000000 		jmp	.L458
 5011      00
 5012              	.L474:
 5013 1615 F30F1EFA 		endbr64
 5014 1619 4889C3   		movq	%rax, %rbx
 5015 161c 4889D5   		movq	%rdx, %rbp
 5016 161f E9000000 		jmp	.L459
 5016      00
 5017              	.L479:
 5018 1624 F30F1EFA 		endbr64
 5019 1628 4889C3   		movq	%rax, %rbx
 5020 162b 4889D5   		movq	%rdx, %rbp
 5021 162e E9000000 		jmp	.L439
 5021      00
 5022              	.L481:
 5023 1633 F30F1EFA 		endbr64
 5024 1637 4889C3   		movq	%rax, %rbx
 5025 163a 4989D4   		movq	%rdx, %r12
 5026 163d E9000000 		jmp	.L435
 5026      00
 5027              	.L480:
 5028 1642 F30F1EFA 		endbr64
 5029 1646 4889C3   		movq	%rax, %rbx
 5030 1649 4989D4   		movq	%rdx, %r12
 5031 164c E9000000 		jmp	.L436
 5031      00
 5032              		.section	.gcc_except_table
 5033              		.align 4
 5034              	.LLSDA1523:
 5035 0414 FF       		.byte	0xff
 5036 0415 9B       		.byte	0x9b
 5037 0416 3D       		.uleb128 .LLSDATT1523-.LLSDATTD1523
 5038              	.LLSDATTD1523:
 5039 0417 01       		.byte	0x1
 5040 0418 24       		.uleb128 .LLSDACSE1523-.LLSDACSB1523
 5041              	.LLSDACSB1523:
 5042 0419 D201     		.uleb128 .LEHB129-.LFB1523
 5043 041b 05       		.uleb128 .LEHE129-.LEHB129
 5044 041c 8207     		.uleb128 .L480-.LFB1523
 5045 041e 07       		.uleb128 0x7
 5046 041f E102     		.uleb128 .LEHB130-.LFB1523
 5047 0421 05       		.uleb128 .LEHE130-.LEHB130
 5048 0422 F306     		.uleb128 .L481-.LFB1523
 5049 0424 07       		.uleb128 0x7
 5050 0425 F902     		.uleb128 .LEHB131-.LFB1523
 5051 0427 05       		.uleb128 .LEHE131-.LEHB131
 5052 0428 E406     		.uleb128 .L479-.LFB1523
 5053 042a 07       		.uleb128 0x7
 5054 042b 9103     		.uleb128 .LEHB132-.LFB1523
 5055 042d 05       		.uleb128 .LEHE132-.LEHB132
 5056 042e D506     		.uleb128 .L474-.LFB1523
 5057 0430 07       		.uleb128 0x7
 5058 0431 E104     		.uleb128 .LEHB133-.LFB1523
 5059 0433 05       		.uleb128 .LEHE133-.LEHB133
 5060 0434 C606     		.uleb128 .L482-.LFB1523
 5061 0436 07       		.uleb128 0x7
 5062 0437 D705     		.uleb128 .LEHB134-.LFB1523
 5063 0439 05       		.uleb128 .LEHE134-.LEHB134
 5064 043a B706     		.uleb128 .L473-.LFB1523
 5065 043c 05       		.uleb128 0x5
 5066              	.LLSDACSE1523:
 5067 043d 03       		.byte	0x3
 5068 043e 00       		.byte	0
 5069 043f 02       		.byte	0x2
 5070 0440 7D       		.byte	0x7d
 5071 0441 01       		.byte	0x1
 5072 0442 7D       		.byte	0x7d
 5073 0443 00       		.byte	0
 5074 0444 7D       		.byte	0x7d
 5075 0445 000000   		.align 4
 5076 0448 00000000 		.long	0
 5077              	
 5078 044c 00000000 		.long	DW.ref._ZTISt9exception-.
 5079 0450 00000000 		.long	DW.ref._ZTIN8UnitTest15AssertExceptionE-.
 5080              	.LLSDATT1523:
 5081              		.text
 5082              		.cfi_endproc
 5083              		.section	.text.unlikely
 5084              		.cfi_startproc
 5085              		.cfi_personality 0x9b,DW.ref.__gxx_personality_v0
 5086              		.cfi_lsda 0x1b,.LLSDAC1523
 5088              	_ZNK12_GLOBAL__N_149TestXmlTestReporterFixtureOneFailureAndOneSuccess7RunImplEv.cold:
 5089              	.LFSB1523:
 5090              	.L459:
 5091              		.cfi_def_cfa_offset 592
 5092              		.cfi_offset 3, -56
 5093              		.cfi_offset 6, -48
 5094              		.cfi_offset 12, -40
 5095              		.cfi_offset 13, -32
 5096              		.cfi_offset 14, -24
 5097              		.cfi_offset 15, -16
 5098 0dee 4C89EF   		movq	%r13, %rdi
 5099 0df1 E828F5FF 		call	_ZN12_GLOBAL__N_122XmlTestReporterFixtureD2Ev
 5099      FF
 5100 0df6 4889DF   		movq	%rbx, %rdi
 5101 0df9 4889E8   		movq	%rbp, %rax
 5102              	.L494:
 5103 0dfc BB010000 		movl	$1, %ebx
 5103      00
 5104              	.L437:
 5105 0e01 4883F801 		cmpq	$1, %rax
 5106 0e05 0F84EA00 		je	.L460
 5106      0000
 5107 0e0b 4883F802 		cmpq	$2, %rax
 5108 0e0f 0F846B01 		je	.L500
 5108      0000
 5109 0e15 E8000000 		call	__cxa_begin_catch@PLT
 5109      00
 5110 0e1a 84DB     		testb	%bl, %bl
 5111 0e1c 0F85E901 		jne	.L501
 5111      0000
 5112              	.LEHB135:
 5113 0e22 E8000000 		call	_ZN8UnitTest11CurrentTest7ResultsEv@PLT
 5113      00
 5114 0e27 488D6C24 		leaq	64(%rsp), %rbp
 5114      40
 5115 0e2c 488B7424 		movq	32(%rsp), %rsi
 5115      20
 5116 0e31 BA870000 		movl	$135, %edx
 5116      00
 5117 0e36 4C8B20   		movq	(%rax), %r12
 5118 0e39 4889EF   		movq	%rbp, %rdi
 5119 0e3c E8000000 		call	_ZN8UnitTest11TestDetailsC1ERKS0_i@PLT
 5119      00
 5120 0e41 488D1500 		leaq	.LC20(%rip), %rdx
 5120      000000
 5121 0e48 4889EE   		movq	%rbp, %rsi
 5122 0e4b 4C89E7   		movq	%r12, %rdi
 5123 0e4e E8000000 		call	_ZN8UnitTest11TestResults13OnTestFailureERKNS_11TestDetailsEPKc@PLT
 5123      00
 5124              	.LEHE135:
 5125              	.L466:
 5126 0e53 488B8424 		movq	520(%rsp), %rax
 5126      08020000 
 5127 0e5b 64482B04 		subq	%fs:40, %rax
 5127      25280000 
 5127      00
 5128 0e64 0F851101 		jne	.L496
 5128      0000
 5129 0e6a 4881C418 		addq	$536, %rsp
 5129      020000
 5130              		.cfi_remember_state
 5131              		.cfi_def_cfa_offset 56
 5132 0e71 5B       		popq	%rbx
 5133              		.cfi_def_cfa_offset 48
 5134 0e72 5D       		popq	%rbp
 5135              		.cfi_def_cfa_offset 40
 5136 0e73 415C     		popq	%r12
 5137              		.cfi_def_cfa_offset 32
 5138 0e75 415D     		popq	%r13
 5139              		.cfi_def_cfa_offset 24
 5140 0e77 415E     		popq	%r14
 5141              		.cfi_def_cfa_offset 16
 5142 0e79 415F     		popq	%r15
 5143              		.cfi_def_cfa_offset 8
 5144              	.LEHB136:
 5145 0e7b E9000000 		jmp	__cxa_end_catch@PLT
 5145      00
 5146              	.LEHE136:
 5147              	.L458:
 5148              		.cfi_restore_state
 5149 0e80 4C89EF   		movq	%r13, %rdi
 5150 0e83 E8000000 		call	_ZNSt7__cxx1119basic_ostringstreamIcSt11char_traitsIcESaIcEED1Ev@PLT
 5150      00
 5151 0e88 4889DF   		movq	%rbx, %rdi
 5152 0e8b 4889E8   		movq	%rbp, %rax
 5153 0e8e BB010000 		movl	$1, %ebx
 5153      00
 5154 0e93 E969FFFF 		jmp	.L437
 5154      FF
 5155              	.L439:
 5156 0e98 4C89EF   		movq	%r13, %rdi
 5157 0e9b E8000000 		call	_ZNSt7__cxx1119basic_ostringstreamIcSt11char_traitsIcESaIcEED1Ev@PLT
 5157      00
 5158 0ea0 4889DF   		movq	%rbx, %rdi
 5159 0ea3 4889E8   		movq	%rbp, %rax
 5160 0ea6 31DB     		xorl	%ebx, %ebx
 5161 0ea8 E954FFFF 		jmp	.L437
 5161      FF
 5162              	.L435:
 5163 0ead 4889EF   		movq	%rbp, %rdi
 5164 0eb0 E8000000 		call	_ZNSt7__cxx1115basic_stringbufIcSt11char_traitsIcESaIcEED1Ev
 5164      00
 5165 0eb5 488B0500 		movq	8+_ZTTNSt7__cxx1119basic_ostringstreamIcSt11char_traitsIcESaIcEEE(%rip), %rax
 5165      000000
 5166 0ebc 488B0D00 		movq	16+_ZTTNSt7__cxx1119basic_ostringstreamIcSt11char_traitsIcESaIcEEE(%rip), %rcx
 5166      000000
 5167 0ec3 48894424 		movq	%rax, 96(%rsp)
 5167      60
 5168 0ec8 488B40E8 		movq	-24(%rax), %rax
 5169 0ecc 48894C04 		movq	%rcx, 96(%rsp,%rax)
 5169      60
 5170              	.L436:
 5171 0ed1 488D0500 		leaq	16+_ZTVSt9basic_iosIcSt11char_traitsIcEE(%rip), %rax
 5171      000000
 5172 0ed8 4C89F7   		movq	%r14, %rdi
 5173 0edb 48898424 		movq	%rax, 208(%rsp)
 5173      D0000000 
 5174 0ee3 E8000000 		call	_ZNSt8ios_baseD2Ev@PLT
 5174      00
 5175 0ee8 4889DF   		movq	%rbx, %rdi
 5176 0eeb 4C89E0   		movq	%r12, %rax
 5177 0eee 31DB     		xorl	%ebx, %ebx
 5178 0ef0 E90CFFFF 		jmp	.L437
 5178      FF
 5179              	.L460:
 5180 0ef5 E8000000 		call	__cxa_begin_catch@PLT
 5180      00
 5181 0efa 4889C5   		movq	%rax, %rbp
 5182              	.LEHB137:
 5183 0efd E8000000 		call	_ZN8UnitTest11CurrentTest7ResultsEv@PLT
 5183      00
 5184 0f02 4C8B28   		movq	(%rax), %r13
 5185 0f05 488B4500 		movq	0(%rbp), %rax
 5186 0f09 4889EF   		movq	%rbp, %rdi
 5187 0f0c FF5010   		call	*16(%rax)
 5188 0f0f 4889EF   		movq	%rbp, %rdi
 5189 0f12 4989C4   		movq	%rax, %r12
 5190 0f15 E8000000 		call	_ZNK8UnitTest15AssertException10LineNumberEv@PLT
 5190      00
 5191 0f1a 4889EF   		movq	%rbp, %rdi
 5192 0f1d 89C3     		movl	%eax, %ebx
 5193 0f1f E8000000 		call	_ZNK8UnitTest15AssertException8FilenameEv@PLT
 5193      00
 5194 0f24 4889C1   		movq	%rax, %rcx
 5195 0f27 488B4424 		movq	56(%rsp), %rax
 5195      38
 5196 0f2c 488D6C24 		leaq	64(%rsp), %rbp
 5196      40
 5197 0f31 4189D8   		movl	%ebx, %r8d
 5198 0f34 4889EF   		movq	%rbp, %rdi
 5199 0f37 488B5008 		movq	8(%rax), %rdx
 5200 0f3b 488B7010 		movq	16(%rax), %rsi
 5201 0f3f E8000000 		call	_ZN8UnitTest11TestDetailsC1EPKcS2_S2_i@PLT
 5201      00
 5202 0f44 4C89E2   		movq	%r12, %rdx
 5203 0f47 4889EE   		movq	%rbp, %rsi
 5204 0f4a 4C89EF   		movq	%r13, %rdi
 5205 0f4d E8000000 		call	_ZN8UnitTest11TestResults13OnTestFailureERKNS_11TestDetailsEPKc@PLT
 5205      00
 5206              	.LEHE137:
 5207              	.L498:
 5208 0f52 488B8424 		movq	520(%rsp), %rax
 5208      08020000 
 5209 0f5a 64482B04 		subq	%fs:40, %rax
 5209      25280000 
 5209      00
 5210 0f63 7516     		jne	.L496
 5211 0f65 4881C418 		addq	$536, %rsp
 5211      020000
 5212              		.cfi_remember_state
 5213              		.cfi_def_cfa_offset 56
 5214 0f6c 5B       		popq	%rbx
 5215              		.cfi_def_cfa_offset 48
 5216 0f6d 5D       		popq	%rbp
 5217              		.cfi_def_cfa_offset 40
 5218 0f6e 415C     		popq	%r12
 5219              		.cfi_def_cfa_offset 32
 5220 0f70 415D     		popq	%r13
 5221              		.cfi_def_cfa_offset 24
 5222 0f72 415E     		popq	%r14
 5223              		.cfi_def_cfa_offset 16
 5224 0f74 415F     		popq	%r15
 5225              		.cfi_def_cfa_offset 8
 5226 0f76 E9000000 		jmp	__cxa_end_catch@PLT
 5226      00
 5227              	.L496:
 5228              		.cfi_restore_state
 5229 0f7b E8000000 		call	__stack_chk_fail@PLT
 5229      00
 5230              	.L500:
 5231 0f80 E8000000 		call	__cxa_begin_catch@PLT
 5231      00
 5232 0f85 4C89EF   		movq	%r13, %rdi
 5233 0f88 4889C5   		movq	%rax, %rbp
 5234              	.LEHB138:
 5235 0f8b E8000000 		call	_ZN8UnitTest15MemoryOutStreamC1Ev
 5235      00
 5236              	.LEHE138:
 5237 0f90 BA150000 		movl	$21, %edx
 5237      00
 5238 0f95 488D3500 		leaq	.LC16(%rip), %rsi
 5238      000000
 5239 0f9c 4C89EF   		movq	%r13, %rdi
 5240              	.LEHB139:
 5241 0f9f E8000000 		call	_ZSt16__ostream_insertIcSt11char_traitsIcEERSt13basic_ostreamIT_T0_ES6_PKS3_l@PLT
 5241      00
 5242 0fa4 488B4500 		movq	0(%rbp), %rax
 5243 0fa8 4889EF   		movq	%rbp, %rdi
 5244 0fab FF5010   		call	*16(%rax)
 5245 0fae 4C89EF   		movq	%r13, %rdi
 5246 0fb1 4889C6   		movq	%rax, %rsi
 5247 0fb4 E8000000 		call	_ZStlsISt11char_traitsIcEERSt13basic_ostreamIcT_ES5_PKc@PLT
 5247      00
 5248 0fb9 E8000000 		call	_ZN8UnitTest11CurrentTest7ResultsEv@PLT
 5248      00
 5249 0fbe 4C89EF   		movq	%r13, %rdi
 5250 0fc1 488B28   		movq	(%rax), %rbp
 5251 0fc4 E8000000 		call	_ZNK8UnitTest15MemoryOutStream7GetTextEv@PLT
 5251      00
 5252 0fc9 488B7424 		movq	32(%rsp), %rsi
 5252      20
 5253 0fce 4889C2   		movq	%rax, %rdx
 5254 0fd1 4889EF   		movq	%rbp, %rdi
 5255 0fd4 E8000000 		call	_ZN8UnitTest11TestResults13OnTestFailureERKNS_11TestDetailsEPKc@PLT
 5255      00
 5256              	.LEHE139:
 5257 0fd9 4C89EF   		movq	%r13, %rdi
 5258              	.LEHB140:
 5259 0fdc E8000000 		call	_ZN8UnitTest15MemoryOutStreamD1Ev
 5259      00
 5260              	.LEHE140:
 5261 0fe1 E96CFFFF 		jmp	.L498
 5261      FF
 5262              	.L477:
 5263 0fe6 F30F1EFA 		endbr64
 5264 0fea 4C89EF   		movq	%r13, %rdi
 5265 0fed 4889C5   		movq	%rax, %rbp
 5266 0ff0 E8000000 		call	_ZN8UnitTest15MemoryOutStreamD1Ev
 5266      00
 5267              	.L470:
 5268 0ff5 E8000000 		call	__cxa_end_catch@PLT
 5268      00
 5269 0ffa 4889EF   		movq	%rbp, %rdi
 5270              	.LEHB141:
 5271 0ffd E8000000 		call	_Unwind_Resume@PLT
 5271      00
 5272              	.LEHE141:
 5273              	.L476:
 5274 1002 F30F1EFA 		endbr64
 5275              	.L497:
 5276 1006 4889C5   		movq	%rax, %rbp
 5277 1009 EBEA     		jmp	.L470
 5278              	.L501:
 5279              	.LEHB142:
 5280 100b E8000000 		call	_ZN8UnitTest11CurrentTest7ResultsEv@PLT
 5280      00
 5281 1010 488D6C24 		leaq	64(%rsp), %rbp
 5281      40
 5282 1015 488B7424 		movq	32(%rsp), %rsi
 5282      20
 5283 101a BA870000 		movl	$135, %edx
 5283      00
 5284 101f 4C8B20   		movq	(%rax), %r12
 5285 1022 4889EF   		movq	%rbp, %rdi
 5286 1025 E8000000 		call	_ZN8UnitTest11TestDetailsC1ERKS0_i@PLT
 5286      00
 5287 102a 488D1500 		leaq	.LC19(%rip), %rdx
 5287      000000
 5288 1031 4889EE   		movq	%rbp, %rsi
 5289 1034 4C89E7   		movq	%r12, %rdi
 5290 1037 E8000000 		call	_ZN8UnitTest11TestResults13OnTestFailureERKNS_11TestDetailsEPKc@PLT
 5290      00
 5291              	.LEHE142:
 5292 103c E912FEFF 		jmp	.L466
 5292      FF
 5293              	.L478:
 5294 1041 F30F1EFA 		endbr64
 5295 1045 4889C5   		movq	%rax, %rbp
 5296 1048 E8000000 		call	__cxa_end_catch@PLT
 5296      00
 5297 104d 4889EF   		movq	%rbp, %rdi
 5298              	.LEHB143:
 5299 1050 E8000000 		call	_Unwind_Resume@PLT
 5299      00
 5300              	.LEHE143:
 5301              	.L475:
 5302 1055 F30F1EFA 		endbr64
 5303 1059 EBAB     		jmp	.L497
 5304              		.cfi_endproc
 5305              	.LFE1523:
 5306              		.section	.gcc_except_table
 5307              		.align 4
 5308              	.LLSDAC1523:
 5309 0454 FF       		.byte	0xff
 5310 0455 9B       		.byte	0x9b
 5311 0456 49       		.uleb128 .LLSDATTC1523-.LLSDATTDC1523
 5312              	.LLSDATTDC1523:
 5313 0457 01       		.byte	0x1
 5314 0458 32       		.uleb128 .LLSDACSEC1523-.LLSDACSBC1523
 5315              	.LLSDACSBC1523:
 5316 0459 34       		.uleb128 .LEHB135-.LCOLDB41
 5317 045a 31       		.uleb128 .LEHE135-.LEHB135
 5318 045b D304     		.uleb128 .L478-.LCOLDB41
 5319 045d 00       		.uleb128 0
 5320 045e 8D01     		.uleb128 .LEHB136-.LCOLDB41
 5321 0460 05       		.uleb128 .LEHE136-.LEHB136
 5322 0461 00       		.uleb128 0
 5323 0462 00       		.uleb128 0
 5324 0463 8F02     		.uleb128 .LEHB137-.LCOLDB41
 5325 0465 55       		.uleb128 .LEHE137-.LEHB137
 5326 0466 E704     		.uleb128 .L475-.LCOLDB41
 5327 0468 00       		.uleb128 0
 5328 0469 9D03     		.uleb128 .LEHB138-.LCOLDB41
 5329 046b 05       		.uleb128 .LEHE138-.LEHB138
 5330 046c 9404     		.uleb128 .L476-.LCOLDB41
 5331 046e 00       		.uleb128 0
 5332 046f B103     		.uleb128 .LEHB139-.LCOLDB41
 5333 0471 3A       		.uleb128 .LEHE139-.LEHB139
 5334 0472 F803     		.uleb128 .L477-.LCOLDB41
 5335 0474 00       		.uleb128 0
 5336 0475 EE03     		.uleb128 .LEHB140-.LCOLDB41
 5337 0477 05       		.uleb128 .LEHE140-.LEHB140
 5338 0478 9404     		.uleb128 .L476-.LCOLDB41
 5339 047a 00       		.uleb128 0
 5340 047b 8F04     		.uleb128 .LEHB141-.LCOLDB41
 5341 047d 05       		.uleb128 .LEHE141-.LEHB141
 5342 047e 00       		.uleb128 0
 5343 047f 00       		.uleb128 0
 5344 0480 9D04     		.uleb128 .LEHB142-.LCOLDB41
 5345 0482 31       		.uleb128 .LEHE142-.LEHB142
 5346 0483 D304     		.uleb128 .L478-.LCOLDB41
 5347 0485 00       		.uleb128 0
 5348 0486 E204     		.uleb128 .LEHB143-.LCOLDB41
 5349 0488 05       		.uleb128 .LEHE143-.LEHB143
 5350 0489 00       		.uleb128 0
 5351 048a 00       		.uleb128 0
 5352              	.LLSDACSEC1523:
 5353 048b 03       		.byte	0x3
 5354 048c 00       		.byte	0
 5355 048d 02       		.byte	0x2
 5356 048e 7D       		.byte	0x7d
 5357 048f 01       		.byte	0x1
 5358 0490 7D       		.byte	0x7d
 5359 0491 00       		.byte	0
 5360 0492 7D       		.byte	0x7d
 5361 0493 00       		.align 4
 5362 0494 00000000 		.long	0
 5363              	
 5364 0498 00000000 		.long	DW.ref._ZTISt9exception-.
 5365 049c 00000000 		.long	DW.ref._ZTIN8UnitTest15AssertExceptionE-.
 5366              	.LLSDATTC1523:
 5367              		.section	.text.unlikely
 5368              		.text
 5370              		.section	.text.unlikely
 5372              	.LCOLDE41:
 5373              		.text
 5374              	.LHOTE41:
 5375              		.section	.rodata.str1.1
 5376              	.LC42:
 5377 00d5 66696C65 		.string	"filename.h"
 5377      6E616D65 
 5377      2E6800
 5378              	.LC43:
 5379 00e0 54657374 		.string	"TestName"
 5379      4E616D65 
 5379      00
 5380              	.LC44:
 5381 00e9 2227263C 		.string	"\"'&<>"
 5381      3E00
 5382              		.section	.rodata.str1.8
 5383 0365 000000   		.align 8
 5384              	.LC45:
 5385 0368 3C3F786D 		.string	"<?xml version=\"1.0\"?><unittest-results tests=\"1\" failedtests=\"1\" failures=\"1\" tim
 5385      6C207665 
 5385      7273696F 
 5385      6E3D2231 
 5385      2E30223F 
 5386              		.section	.text.unlikely
 5387              	.LCOLDB46:
 5388              		.text
 5389              	.LHOTB46:
 5390 1651 66662E0F 		.p2align 4
 5390      1F840000 
 5390      0000000F 
 5390      1F4000
 5392              	_ZN8UnitTest11ExecuteTestIN12_GLOBAL__N_154XmlTestReporterFixtureFailureMessageIsXMLEscapedHelperEE
 5393              	.LFB1576:
 5394              		.cfi_startproc
 5395              		.cfi_personality 0x9b,DW.ref.__gxx_personality_v0
 5396              		.cfi_lsda 0x1b,.LLSDA1576
 5397 1660 4156     		pushq	%r14
 5398              		.cfi_def_cfa_offset 16
 5399              		.cfi_offset 14, -16
 5400 1662 4155     		pushq	%r13
 5401              		.cfi_def_cfa_offset 24
 5402              		.cfi_offset 13, -24
 5403 1664 4154     		pushq	%r12
 5404              		.cfi_def_cfa_offset 32
 5405              		.cfi_offset 12, -32
 5406 1666 55       		pushq	%rbp
 5407              		.cfi_def_cfa_offset 40
 5408              		.cfi_offset 6, -40
 5409 1667 53       		pushq	%rbx
 5410              		.cfi_def_cfa_offset 48
 5411              		.cfi_offset 3, -48
 5412 1668 4889F3   		movq	%rsi, %rbx
 5413 166b 4881ECD0 		subq	$1744, %rsp
 5413      060000
 5414              		.cfi_def_cfa_offset 1792
 5415 1672 48893C24 		movq	%rdi, (%rsp)
 5416 1676 48897424 		movq	%rsi, 8(%rsp)
 5416      08
 5417 167b 64488B04 		movq	%fs:40, %rax
 5417      25280000 
 5417      00
 5418 1684 48898424 		movq	%rax, 1736(%rsp)
 5418      C8060000 
 5419 168c 31C0     		xorl	%eax, %eax
 5420              	.LEHB144:
 5421 168e E8000000 		call	_ZN8UnitTest11CurrentTest7DetailsEv@PLT
 5421      00
 5422              	.LEHE144:
 5423 1693 488DBC24 		leaq	608(%rsp), %rdi
 5423      60020000 
 5424 169b 488918   		movq	%rbx, (%rax)
 5425              	.LEHB145:
 5426 169e E8000000 		call	_ZN8UnitTest16SignalTranslatorC1Ev@PLT
 5426      00
 5427              	.LEHE145:
 5428 16a3 488B3D00 		movq	_ZN8UnitTest16SignalTranslator12s_jumpTargetE(%rip), %rdi
 5428      000000
 5429 16aa BE010000 		movl	$1, %esi
 5429      00
 5430 16af E8000000 		call	__sigsetjmp@PLT
 5430      00
 5431 16b4 F30F1EFA 		endbr64
 5432 16b8 85C0     		testl	%eax, %eax
 5433 16ba 0F850000 		jne	.L547
 5433      0000
 5434 16c0 488D7C24 		leaq	64(%rsp), %rdi
 5434      40
 5435 16c5 41B8E110 		movl	$4321, %r8d
 5435      0000
 5436 16cb 488D0D00 		leaq	.LC42(%rip), %rcx
 5436      000000
 5437 16d2 488D1500 		leaq	.LC28(%rip), %rdx
 5437      000000
 5438 16d9 488D3500 		leaq	.LC43(%rip), %rsi
 5438      000000
 5439              	.LEHB146:
 5440 16e0 E8000000 		call	_ZN8UnitTest11TestDetailsC1EPKcS2_S2_i@PLT
 5440      00
 5441 16e5 488B1C24 		movq	(%rsp), %rbx
 5442 16e9 488D7424 		leaq	64(%rsp), %rsi
 5442      40
 5443 16ee 488DAB78 		leaq	376(%rbx), %rbp
 5443      010000
 5444 16f5 4889EF   		movq	%rbp, %rdi
 5445 16f8 E8000000 		call	_ZN8UnitTest20DeferredTestReporter15ReportTestStartERKNS_11TestDetailsE@PLT
 5445      00
 5446 16fd 488D7424 		leaq	64(%rsp), %rsi
 5446      40
 5447 1702 488D1500 		leaq	.LC44(%rip), %rdx
 5447      000000
 5448 1709 4889EF   		movq	%rbp, %rdi
 5449 170c E8000000 		call	_ZN8UnitTest20DeferredTestReporter13ReportFailureERKNS_11TestDetailsEPKc@PLT
 5449      00
 5450 1711 F30F1005 		movss	.LC32(%rip), %xmm0
 5450      00000000 
 5451 1719 488D7424 		leaq	64(%rsp), %rsi
 5451      40
 5452 171e 4889EF   		movq	%rbp, %rdi
 5453 1721 E8000000 		call	_ZN8UnitTest20DeferredTestReporter16ReportTestFinishERKNS_11TestDetailsEf@PLT
 5453      00
 5454 1726 F30F1005 		movss	.LC32(%rip), %xmm0
 5454      00000000 
 5455 172e B9010000 		movl	$1, %ecx
 5455      00
 5456 1733 BA010000 		movl	$1, %edx
 5456      00
 5457 1738 4889EF   		movq	%rbp, %rdi
 5458 173b BE010000 		movl	$1, %esi
 5458      00
 5459 1740 E8000000 		call	_ZN8UnitTest15XmlTestReporter13ReportSummaryEiiif@PLT
 5459      00
 5460              	.LEHE146:
 5461 1745 488D0500 		leaq	.LC45(%rip), %rax
 5461      000000
