   1              		.file	"TestTest.cpp"
   2              		.text
   3              		.align 2
   4              		.p2align 4
   6              	_ZZNK12_GLOBAL__N_128TestPassingTestHasNoFailures7RunImplEvENK11PassingTest7RunImplEv:
   7              	.LFB1197:
   8              		.cfi_startproc
   9 0000 F30F1EFA 		endbr64
  10 0004 C3       		ret
  11              		.cfi_endproc
  12              	.LFE1197:
  14 0005 90       		.align 2
  15 0006 662E0F1F 		.p2align 4
  15      84000000 
  15      0000
  17              	_ZZNK12_GLOBAL__N_138TestCrashingTestsAreReportedAsFailures7RunImplEvENK12CrashingTest7RunImplEv:
  18              	.LFB1221:
  19              		.cfi_startproc
  20 0010 F30F1EFA 		endbr64
  21 0014 C7042500 		movl	$0, 0
  21      00000000 
  21      000000
  22 001f 0F0B     		ud2
  23              		.cfi_endproc
  24              	.LFE1221:
  26 0021 90       		.align 2
  27 0022 66662E0F 		.p2align 4
  27      1F840000 
  27      0000000F 
  27      1F00
  29              	_ZN12_GLOBAL__N_136TestOutOfCoreCHECKMacrosCanFailTestsD2Ev:
  30              	.LFB1321:
  31              		.cfi_startproc
  32 0030 F30F1EFA 		endbr64
  33 0034 488D0500 		leaq	16+_ZTVN12_GLOBAL__N_136TestOutOfCoreCHECKMacrosCanFailTestsE(%rip), %rax
  33      000000
  34 003b 488907   		movq	%rax, (%rdi)
  35 003e E9000000 		jmp	_ZN8UnitTest4TestD2Ev@PLT
  35      00
  36              		.cfi_endproc
  37              	.LFE1321:
  39              		.set	_ZN12_GLOBAL__N_136TestOutOfCoreCHECKMacrosCanFailTestsD1Ev,_ZN12_GLOBAL__N_136TestOutOfCoreC
  40 0043 90       		.align 2
  41 0044 66662E0F 		.p2align 4
  41      1F840000 
  41      00000090 
  43              	_ZN12_GLOBAL__N_134TestTestReflectsSpecifiedSuiteNameD2Ev:
  44              	.LFB1325:
  45              		.cfi_startproc
  46 0050 F30F1EFA 		endbr64
  47 0054 488D0500 		leaq	16+_ZTVN12_GLOBAL__N_134TestTestReflectsSpecifiedSuiteNameE(%rip), %rax
  47      000000
  48 005b 488907   		movq	%rax, (%rdi)
  49 005e E9000000 		jmp	_ZN8UnitTest4TestD2Ev@PLT
  49      00
  50              		.cfi_endproc
  51              	.LFE1325:
  53              		.set	_ZN12_GLOBAL__N_134TestTestReflectsSpecifiedSuiteNameD1Ev,_ZN12_GLOBAL__N_134TestTestReflects
  54 0063 90       		.align 2
  55 0064 66662E0F 		.p2align 4
  55      1F840000 
  55      00000090 
  57              	_ZN12_GLOBAL__N_144TestTestWithUnspecifiedSuiteGetsDefaultSuiteD2Ev:
  58              	.LFB1329:
  59              		.cfi_startproc
  60 0070 F30F1EFA 		endbr64
  61 0074 488D0500 		leaq	16+_ZTVN12_GLOBAL__N_144TestTestWithUnspecifiedSuiteGetsDefaultSuiteE(%rip), %rax
  61      000000
  62 007b 488907   		movq	%rax, (%rdi)
  63 007e E9000000 		jmp	_ZN8UnitTest4TestD2Ev@PLT
  63      00
  64              		.cfi_endproc
  65              	.LFE1329:
  67              		.set	_ZN12_GLOBAL__N_144TestTestWithUnspecifiedSuiteGetsDefaultSuiteD1Ev,_ZN12_GLOBAL__N_144TestTe
  68 0083 90       		.align 2
  69 0084 66662E0F 		.p2align 4
  69      1F840000 
  69      00000090 
  71              	_ZN12_GLOBAL__N_138TestCrashingTestsAreReportedAsFailuresD2Ev:
  72              	.LFB1333:
  73              		.cfi_startproc
  74 0090 F30F1EFA 		endbr64
  75 0094 488D0500 		leaq	16+_ZTVN12_GLOBAL__N_138TestCrashingTestsAreReportedAsFailuresE(%rip), %rax
  75      000000
  76 009b 488907   		movq	%rax, (%rdi)
  77 009e E9000000 		jmp	_ZN8UnitTest4TestD2Ev@PLT
  77      00
  78              		.cfi_endproc
  79              	.LFE1333:
  81              		.set	_ZN12_GLOBAL__N_138TestCrashingTestsAreReportedAsFailuresD1Ev,_ZN12_GLOBAL__N_138TestCrashing
  82 00a3 90       		.align 2
  83 00a4 66662E0F 		.p2align 4
  83      1F840000 
  83      00000090 
  85              	_ZZNK12_GLOBAL__N_138TestCrashingTestsAreReportedAsFailures7RunImplEvEN12CrashingTestD2Ev:
  86              	.LFB1337:
  87              		.cfi_startproc
  88 00b0 F30F1EFA 		endbr64
  89 00b4 488D0500 		leaq	16+_ZTVZNK12_GLOBAL__N_138TestCrashingTestsAreReportedAsFailures7RunImplEvE12CrashingTest(%ri
  89      000000
  90 00bb 488907   		movq	%rax, (%rdi)
  91 00be E9000000 		jmp	_ZN8UnitTest4TestD2Ev@PLT
  91      00
  92              		.cfi_endproc
  93              	.LFE1337:
  95              		.set	_ZZNK12_GLOBAL__N_138TestCrashingTestsAreReportedAsFailures7RunImplEvEN12CrashingTestD1Ev,_ZZ
  96 00c3 90       		.align 2
  97 00c4 66662E0F 		.p2align 4
  97      1F840000 
  97      00000090 
  99              	_ZN12_GLOBAL__N_138TestThrowingTestsAreReportedAsFailuresD2Ev:
 100              	.LFB1341:
 101              		.cfi_startproc
 102 00d0 F30F1EFA 		endbr64
 103 00d4 488D0500 		leaq	16+_ZTVN12_GLOBAL__N_138TestThrowingTestsAreReportedAsFailuresE(%rip), %rax
 103      000000
 104 00db 488907   		movq	%rax, (%rdi)
 105 00de E9000000 		jmp	_ZN8UnitTest4TestD2Ev@PLT
 105      00
 106              		.cfi_endproc
 107              	.LFE1341:
 109              		.set	_ZN12_GLOBAL__N_138TestThrowingTestsAreReportedAsFailuresD1Ev,_ZN12_GLOBAL__N_138TestThrowing
 110 00e3 90       		.align 2
 111 00e4 66662E0F 		.p2align 4
 111      1F840000 
 111      00000090 
 113              	_ZZNK12_GLOBAL__N_138TestThrowingTestsAreReportedAsFailures7RunImplEvEN12CrashingTestD2Ev:
 114              	.LFB1345:
 115              		.cfi_startproc
 116 00f0 F30F1EFA 		endbr64
 117 00f4 488D0500 		leaq	16+_ZTVZNK12_GLOBAL__N_138TestThrowingTestsAreReportedAsFailures7RunImplEvE12CrashingTest(%ri
 117      000000
 118 00fb 488907   		movq	%rax, (%rdi)
 119 00fe E9000000 		jmp	_ZN8UnitTest4TestD2Ev@PLT
 119      00
 120              		.cfi_endproc
 121              	.LFE1345:
 123              		.set	_ZZNK12_GLOBAL__N_138TestThrowingTestsAreReportedAsFailures7RunImplEvEN12CrashingTestD1Ev,_ZZ
 124 0103 90       		.align 2
 125 0104 66662E0F 		.p2align 4
 125      1F840000 
 125      00000090 
 127              	_ZN12_GLOBAL__N_126TestFailingTestHasFailuresD2Ev:
 128              	.LFB1349:
 129              		.cfi_startproc
 130 0110 F30F1EFA 		endbr64
 131 0114 488D0500 		leaq	16+_ZTVN12_GLOBAL__N_126TestFailingTestHasFailuresE(%rip), %rax
 131      000000
 132 011b 488907   		movq	%rax, (%rdi)
 133 011e E9000000 		jmp	_ZN8UnitTest4TestD2Ev@PLT
 133      00
 134              		.cfi_endproc
 135              	.LFE1349:
 137              		.set	_ZN12_GLOBAL__N_126TestFailingTestHasFailuresD1Ev,_ZN12_GLOBAL__N_126TestFailingTestHasFailur
 138 0123 90       		.align 2
 139 0124 66662E0F 		.p2align 4
 139      1F840000 
 139      00000090 
 141              	_ZZNK12_GLOBAL__N_126TestFailingTestHasFailures7RunImplEvEN11FailingTestD2Ev:
 142              	.LFB1353:
 143              		.cfi_startproc
 144 0130 F30F1EFA 		endbr64
 145 0134 488D0500 		leaq	16+_ZTVZNK12_GLOBAL__N_126TestFailingTestHasFailures7RunImplEvE11FailingTest(%rip), %rax
 145      000000
 146 013b 488907   		movq	%rax, (%rdi)
 147 013e E9000000 		jmp	_ZN8UnitTest4TestD2Ev@PLT
 147      00
 148              		.cfi_endproc
 149              	.LFE1353:
 151              		.set	_ZZNK12_GLOBAL__N_126TestFailingTestHasFailures7RunImplEvEN11FailingTestD1Ev,_ZZNK12_GLOBAL__
 152 0143 90       		.align 2
 153 0144 66662E0F 		.p2align 4
 153      1F840000 
 153      00000090 
 155              	_ZN12_GLOBAL__N_128TestPassingTestHasNoFailuresD2Ev:
 156              	.LFB1357:
 157              		.cfi_startproc
 158 0150 F30F1EFA 		endbr64
 159 0154 488D0500 		leaq	16+_ZTVN12_GLOBAL__N_128TestPassingTestHasNoFailuresE(%rip), %rax
 159      000000
 160 015b 488907   		movq	%rax, (%rdi)
 161 015e E9000000 		jmp	_ZN8UnitTest4TestD2Ev@PLT
 161      00
 162              		.cfi_endproc
 163              	.LFE1357:
 165              		.set	_ZN12_GLOBAL__N_128TestPassingTestHasNoFailuresD1Ev,_ZN12_GLOBAL__N_128TestPassingTestHasNoFa
 166 0163 90       		.align 2
 167 0164 66662E0F 		.p2align 4
 167      1F840000 
 167      00000090 
 169              	_ZZNK12_GLOBAL__N_128TestPassingTestHasNoFailures7RunImplEvEN11PassingTestD2Ev:
 170              	.LFB1361:
 171              		.cfi_startproc
 172 0170 F30F1EFA 		endbr64
 173 0174 488D0500 		leaq	16+_ZTVZNK12_GLOBAL__N_128TestPassingTestHasNoFailures7RunImplEvE11PassingTest(%rip), %rax
 173      000000
 174 017b 488907   		movq	%rax, (%rdi)
 175 017e E9000000 		jmp	_ZN8UnitTest4TestD2Ev@PLT
 175      00
 176              		.cfi_endproc
 177              	.LFE1361:
 179              		.set	_ZZNK12_GLOBAL__N_128TestPassingTestHasNoFailures7RunImplEvEN11PassingTestD1Ev,_ZZNK12_GLOBAL
 180              		.section	.rodata.str1.1,"aMS",@progbits,1
 181              	.LC0:
 182 0000 66616C73 		.string	"false"
 182      6500
 183              		.section	.rodata.str1.8,"aMS",@progbits,1
 184              		.align 8
 185              	.LC1:
 186 0000 556E6861 		.string	"Unhandled exception in CHECK(false)"
 186      6E646C65 
 186      64206578 
 186      63657074 
 186      696F6E20 
 187              		.section	.text.unlikely,"ax",@progbits
 188              		.align 2
 189              	.LCOLDB2:
 190              		.text
 191              	.LHOTB2:
 192 0183 90       		.align 2
 193 0184 66662E0F 		.p2align 4
 193      1F840000 
 193      00000090 
 195              	_ZZNK12_GLOBAL__N_126TestFailingTestHasFailures7RunImplEvENK11FailingTest7RunImplEv:
 196              	.LFB1205:
 197              		.cfi_startproc
 198              		.cfi_personality 0x9b,DW.ref.__gxx_personality_v0
 199              		.cfi_lsda 0x1b,.LLSDA1205
 200 0190 F30F1EFA 		endbr64
 201 0194 4154     		pushq	%r12
 202              		.cfi_def_cfa_offset 16
 203              		.cfi_offset 12, -16
 204 0196 55       		pushq	%rbp
 205              		.cfi_def_cfa_offset 24
 206              		.cfi_offset 6, -24
 207 0197 4883EC38 		subq	$56, %rsp
 208              		.cfi_def_cfa_offset 80
 209 019b 64488B04 		movq	%fs:40, %rax
 209      25280000 
 209      00
 210 01a4 48894424 		movq	%rax, 40(%rsp)
 210      28
 211 01a9 31C0     		xorl	%eax, %eax
 212              	.LEHB0:
 213 01ab E8000000 		call	_ZN8UnitTest11CurrentTest7ResultsEv@PLT
 213      00
 214 01b0 4C8B20   		movq	(%rax), %r12
 215 01b3 E8000000 		call	_ZN8UnitTest11CurrentTest7DetailsEv@PLT
 215      00
 216 01b8 4889E5   		movq	%rsp, %rbp
 217 01bb 488B30   		movq	(%rax), %rsi
 218 01be BA280000 		movl	$40, %edx
 218      00
 219 01c3 4889EF   		movq	%rbp, %rdi
 220 01c6 E8000000 		call	_ZN8UnitTest11TestDetailsC1ERKS0_i@PLT
 220      00
 221 01cb 488D1500 		leaq	.LC0(%rip), %rdx
 221      000000
 222 01d2 4889EE   		movq	%rbp, %rsi
 223 01d5 4C89E7   		movq	%r12, %rdi
 224 01d8 E8000000 		call	_ZN8UnitTest11TestResults13OnTestFailureERKNS_11TestDetailsEPKc@PLT
 224      00
 225              	.LEHE0:
 226 01dd 488B4424 		movq	40(%rsp), %rax
 226      28
 227 01e2 64482B04 		subq	%fs:40, %rax
 227      25280000 
 227      00
 228 01eb 7508     		jne	.L24
 229 01ed 4883C438 		addq	$56, %rsp
 230              		.cfi_remember_state
 231              		.cfi_def_cfa_offset 24
 232 01f1 5D       		popq	%rbp
 233              		.cfi_def_cfa_offset 16
 234 01f2 415C     		popq	%r12
 235              		.cfi_def_cfa_offset 8
 236 01f4 C3       		ret
 237              	.L24:
 238              		.cfi_restore_state
 239 01f5 E8000000 		call	__stack_chk_fail@PLT
 239      00
 240              	.L20:
 241 01fa F30F1EFA 		endbr64
 242 01fe 4889C7   		movq	%rax, %rdi
 243 0201 E9000000 		jmp	.L16
 243      00
 244              		.globl	__gxx_personality_v0
 245              		.section	.gcc_except_table,"a",@progbits
 246              		.align 4
 247              	.LLSDA1205:
 248 0000 FF       		.byte	0xff
 249 0001 9B       		.byte	0x9b
 250 0002 0D       		.uleb128 .LLSDATT1205-.LLSDATTD1205
 251              	.LLSDATTD1205:
 252 0003 01       		.byte	0x1
 253 0004 04       		.uleb128 .LLSDACSE1205-.LLSDACSB1205
 254              	.LLSDACSB1205:
 255 0005 1B       		.uleb128 .LEHB0-.LFB1205
 256 0006 32       		.uleb128 .LEHE0-.LEHB0
 257 0007 6A       		.uleb128 .L20-.LFB1205
 258 0008 01       		.uleb128 0x1
 259              	.LLSDACSE1205:
 260 0009 01       		.byte	0x1
 261 000a 00       		.byte	0
 262 000b 00       		.align 4
 263 000c 00000000 		.long	0
 264              	
 265              	.LLSDATT1205:
 266              		.text
 267              		.cfi_endproc
 268              		.section	.text.unlikely
 269              		.cfi_startproc
 270              		.cfi_personality 0x9b,DW.ref.__gxx_personality_v0
 271              		.cfi_lsda 0x1b,.LLSDAC1205
 273              	_ZZNK12_GLOBAL__N_126TestFailingTestHasFailures7RunImplEvENK11FailingTest7RunImplEv.cold:
 274              	.LFSB1205:
 275              	.L16:
 276              		.cfi_def_cfa_offset 80
 277              		.cfi_offset 6, -24
 278              		.cfi_offset 12, -16
 279 0000 E8000000 		call	__cxa_begin_catch@PLT
 279      00
 280              	.LEHB1:
 281 0005 E8000000 		call	_ZN8UnitTest11CurrentTest7ResultsEv@PLT
 281      00
 282 000a 4C8B20   		movq	(%rax), %r12
 283 000d E8000000 		call	_ZN8UnitTest11CurrentTest7DetailsEv@PLT
 283      00
 284 0012 4889E5   		movq	%rsp, %rbp
 285 0015 488B30   		movq	(%rax), %rsi
 286 0018 BA280000 		movl	$40, %edx
 286      00
 287 001d 4889EF   		movq	%rbp, %rdi
 288 0020 E8000000 		call	_ZN8UnitTest11TestDetailsC1ERKS0_i@PLT
 288      00
 289 0025 488D1500 		leaq	.LC1(%rip), %rdx
 289      000000
 290 002c 4889EE   		movq	%rbp, %rsi
 291 002f 4C89E7   		movq	%r12, %rdi
 292 0032 E8000000 		call	_ZN8UnitTest11TestResults13OnTestFailureERKNS_11TestDetailsEPKc@PLT
 292      00
 293              	.LEHE1:
 294 0037 488B4424 		movq	40(%rsp), %rax
 294      28
 295 003c 64482B04 		subq	%fs:40, %rax
 295      25280000 
 295      00
 296 0045 7520     		jne	.L25
 297 0047 4883C438 		addq	$56, %rsp
 298              		.cfi_remember_state
 299              		.cfi_def_cfa_offset 24
 300 004b 5D       		popq	%rbp
 301              		.cfi_def_cfa_offset 16
 302 004c 415C     		popq	%r12
 303              		.cfi_def_cfa_offset 8
 304              	.LEHB2:
 305 004e E9000000 		jmp	__cxa_end_catch@PLT
 305      00
 306              	.LEHE2:
 307              	.L21:
 308              		.cfi_restore_state
 309 0053 F30F1EFA 		endbr64
 310 0057 4889C5   		movq	%rax, %rbp
 311 005a E8000000 		call	__cxa_end_catch@PLT
 311      00
 312 005f 4889EF   		movq	%rbp, %rdi
 313              	.LEHB3:
 314 0062 E8000000 		call	_Unwind_Resume@PLT
 314      00
 315              	.LEHE3:
 316              	.L25:
 317 0067 E8000000 		call	__stack_chk_fail@PLT
 317      00
 318              		.cfi_endproc
 319              	.LFE1205:
 320              		.section	.gcc_except_table
 321              		.align 4
 322              	.LLSDAC1205:
 323 0010 FF       		.byte	0xff
 324 0011 9B       		.byte	0x9b
 325 0012 15       		.uleb128 .LLSDATTC1205-.LLSDATTDC1205
 326              	.LLSDATTDC1205:
 327 0013 01       		.byte	0x1
 328 0014 0C       		.uleb128 .LLSDACSEC1205-.LLSDACSBC1205
 329              	.LLSDACSBC1205:
 330 0015 05       		.uleb128 .LEHB1-.LCOLDB2
 331 0016 32       		.uleb128 .LEHE1-.LEHB1
 332 0017 53       		.uleb128 .L21-.LCOLDB2
 333 0018 00       		.uleb128 0
 334 0019 4E       		.uleb128 .LEHB2-.LCOLDB2
 335 001a 05       		.uleb128 .LEHE2-.LEHB2
 336 001b 00       		.uleb128 0
 337 001c 00       		.uleb128 0
 338 001d 62       		.uleb128 .LEHB3-.LCOLDB2
 339 001e 05       		.uleb128 .LEHE3-.LEHB3
 340 001f 00       		.uleb128 0
 341 0020 00       		.uleb128 0
 342              	.LLSDACSEC1205:
 343 0021 01       		.byte	0x1
 344 0022 00       		.byte	0
 345 0023 00       		.align 4
 346 0024 00000000 		.long	0
 347              	
 348              	.LLSDATTC1205:
 349              		.section	.text.unlikely
 350              		.text
 352              		.section	.text.unlikely
 354              	.LCOLDE2:
 355              		.text
 356              	.LHOTE2:
 357              		.section	.text.unlikely
 358              		.align 2
 359              	.LCOLDB3:
 360              		.text
 361              	.LHOTB3:
 362              		.align 2
 363 0206 662E0F1F 		.p2align 4
 363      84000000 
 363      0000
 365              	_ZN12_GLOBAL__N_136TestOutOfCoreCHECKMacrosCanFailTestsD0Ev:
 366              	.LFB1323:
 367              		.cfi_startproc
 368              		.cfi_personality 0x9b,DW.ref.__gxx_personality_v0
 369              		.cfi_lsda 0x1b,.LLSDA1323
 370 0210 F30F1EFA 		endbr64
 371 0214 4154     		pushq	%r12
 372              		.cfi_def_cfa_offset 16
 373              		.cfi_offset 12, -16
 374 0216 488D0500 		leaq	16+_ZTVN12_GLOBAL__N_136TestOutOfCoreCHECKMacrosCanFailTestsE(%rip), %rax
 374      000000
 375 021d 55       		pushq	%rbp
 376              		.cfi_def_cfa_offset 24
 377              		.cfi_offset 6, -24
 378 021e 4889FD   		movq	%rdi, %rbp
 379 0221 4883EC08 		subq	$8, %rsp
 380              		.cfi_def_cfa_offset 32
 381 0225 488907   		movq	%rax, (%rdi)
 382              	.LEHB4:
 383 0228 E8000000 		call	_ZN8UnitTest4TestD2Ev@PLT
 383      00
 384              	.LEHE4:
 385 022d 4883C408 		addq	$8, %rsp
 386              		.cfi_remember_state
 387              		.cfi_def_cfa_offset 24
 388 0231 4889EF   		movq	%rbp, %rdi
 389 0234 5D       		popq	%rbp
 390              		.cfi_def_cfa_offset 16
 391 0235 415C     		popq	%r12
 392              		.cfi_def_cfa_offset 8
 393 0237 E9000000 		jmp	_ZdlPv@PLT
 393      00
 394              	.L28:
 395              		.cfi_restore_state
 396 023c F30F1EFA 		endbr64
 397 0240 4989C4   		movq	%rax, %r12
 398 0243 E9000000 		jmp	.L27
 398      00
 399              		.section	.gcc_except_table
 400              	.LLSDA1323:
 401 0028 FF       		.byte	0xff
 402 0029 FF       		.byte	0xff
 403 002a 01       		.byte	0x1
 404 002b 04       		.uleb128 .LLSDACSE1323-.LLSDACSB1323
 405              	.LLSDACSB1323:
 406 002c 18       		.uleb128 .LEHB4-.LFB1323
 407 002d 05       		.uleb128 .LEHE4-.LEHB4
 408 002e 2C       		.uleb128 .L28-.LFB1323
 409 002f 00       		.uleb128 0
 410              	.LLSDACSE1323:
 411              		.text
 412              		.cfi_endproc
 413              		.section	.text.unlikely
 414              		.cfi_startproc
 415              		.cfi_personality 0x9b,DW.ref.__gxx_personality_v0
 416              		.cfi_lsda 0x1b,.LLSDAC1323
 418              	_ZN12_GLOBAL__N_136TestOutOfCoreCHECKMacrosCanFailTestsD0Ev.cold:
 419              	.LFSB1323:
 420              	.L27:
 421              		.cfi_def_cfa_offset 32
 422              		.cfi_offset 6, -24
 423              		.cfi_offset 12, -16
 424 006c 4889EF   		movq	%rbp, %rdi
 425 006f E8000000 		call	_ZdlPv@PLT
 425      00
 426 0074 4C89E7   		movq	%r12, %rdi
 427              	.LEHB5:
 428 0077 E8000000 		call	_Unwind_Resume@PLT
 428      00
 429              	.LEHE5:
 430              		.cfi_endproc
 431              	.LFE1323:
 432              		.section	.gcc_except_table
 433              	.LLSDAC1323:
 434 0030 FF       		.byte	0xff
 435 0031 FF       		.byte	0xff
 436 0032 01       		.byte	0x1
 437 0033 04       		.uleb128 .LLSDACSEC1323-.LLSDACSBC1323
 438              	.LLSDACSBC1323:
 439 0034 0B       		.uleb128 .LEHB5-.LCOLDB3
 440 0035 05       		.uleb128 .LEHE5-.LEHB5
 441 0036 00       		.uleb128 0
 442 0037 00       		.uleb128 0
 443              	.LLSDACSEC1323:
 444              		.section	.text.unlikely
 445              		.text
 447              		.section	.text.unlikely
 449              	.LCOLDE3:
 450              		.text
 451              	.LHOTE3:
 452              		.section	.text.unlikely
 453              		.align 2
 454              	.LCOLDB4:
 455              		.text
 456              	.LHOTB4:
 457              		.align 2
 458 0248 0F1F8400 		.p2align 4
 458      00000000 
 460              	_ZN12_GLOBAL__N_134TestTestReflectsSpecifiedSuiteNameD0Ev:
 461              	.LFB1327:
 462              		.cfi_startproc
 463              		.cfi_personality 0x9b,DW.ref.__gxx_personality_v0
 464              		.cfi_lsda 0x1b,.LLSDA1327
 465 0250 F30F1EFA 		endbr64
 466 0254 4154     		pushq	%r12
 467              		.cfi_def_cfa_offset 16
 468              		.cfi_offset 12, -16
 469 0256 488D0500 		leaq	16+_ZTVN12_GLOBAL__N_134TestTestReflectsSpecifiedSuiteNameE(%rip), %rax
 469      000000
 470 025d 55       		pushq	%rbp
 471              		.cfi_def_cfa_offset 24
 472              		.cfi_offset 6, -24
 473 025e 4889FD   		movq	%rdi, %rbp
 474 0261 4883EC08 		subq	$8, %rsp
 475              		.cfi_def_cfa_offset 32
 476 0265 488907   		movq	%rax, (%rdi)
 477              	.LEHB6:
 478 0268 E8000000 		call	_ZN8UnitTest4TestD2Ev@PLT
 478      00
 479              	.LEHE6:
 480 026d 4883C408 		addq	$8, %rsp
 481              		.cfi_remember_state
 482              		.cfi_def_cfa_offset 24
 483 0271 4889EF   		movq	%rbp, %rdi
 484 0274 5D       		popq	%rbp
 485              		.cfi_def_cfa_offset 16
 486 0275 415C     		popq	%r12
 487              		.cfi_def_cfa_offset 8
 488 0277 E9000000 		jmp	_ZdlPv@PLT
 488      00
 489              	.L32:
 490              		.cfi_restore_state
 491 027c F30F1EFA 		endbr64
 492 0280 4989C4   		movq	%rax, %r12
 493 0283 E9000000 		jmp	.L31
 493      00
 494              		.section	.gcc_except_table
 495              	.LLSDA1327:
 496 0038 FF       		.byte	0xff
 497 0039 FF       		.byte	0xff
 498 003a 01       		.byte	0x1
 499 003b 04       		.uleb128 .LLSDACSE1327-.LLSDACSB1327
 500              	.LLSDACSB1327:
 501 003c 18       		.uleb128 .LEHB6-.LFB1327
 502 003d 05       		.uleb128 .LEHE6-.LEHB6
 503 003e 2C       		.uleb128 .L32-.LFB1327
 504 003f 00       		.uleb128 0
 505              	.LLSDACSE1327:
 506              		.text
 507              		.cfi_endproc
 508              		.section	.text.unlikely
 509              		.cfi_startproc
 510              		.cfi_personality 0x9b,DW.ref.__gxx_personality_v0
 511              		.cfi_lsda 0x1b,.LLSDAC1327
 513              	_ZN12_GLOBAL__N_134TestTestReflectsSpecifiedSuiteNameD0Ev.cold:
 514              	.LFSB1327:
 515              	.L31:
 516              		.cfi_def_cfa_offset 32
 517              		.cfi_offset 6, -24
 518              		.cfi_offset 12, -16
 519 007c 4889EF   		movq	%rbp, %rdi
 520 007f E8000000 		call	_ZdlPv@PLT
 520      00
 521 0084 4C89E7   		movq	%r12, %rdi
 522              	.LEHB7:
 523 0087 E8000000 		call	_Unwind_Resume@PLT
 523      00
 524              	.LEHE7:
 525              		.cfi_endproc
 526              	.LFE1327:
 527              		.section	.gcc_except_table
 528              	.LLSDAC1327:
 529 0040 FF       		.byte	0xff
 530 0041 FF       		.byte	0xff
 531 0042 01       		.byte	0x1
 532 0043 04       		.uleb128 .LLSDACSEC1327-.LLSDACSBC1327
 533              	.LLSDACSBC1327:
 534 0044 0B       		.uleb128 .LEHB7-.LCOLDB4
 535 0045 05       		.uleb128 .LEHE7-.LEHB7
 536 0046 00       		.uleb128 0
 537 0047 00       		.uleb128 0
 538              	.LLSDACSEC1327:
 539              		.section	.text.unlikely
 540              		.text
 542              		.section	.text.unlikely
 544              	.LCOLDE4:
 545              		.text
 546              	.LHOTE4:
 547              		.section	.text.unlikely
 548              		.align 2
 549              	.LCOLDB5:
 550              		.text
 551              	.LHOTB5:
 552              		.align 2
 553 0288 0F1F8400 		.p2align 4
 553      00000000 
 555              	_ZN12_GLOBAL__N_144TestTestWithUnspecifiedSuiteGetsDefaultSuiteD0Ev:
 556              	.LFB1331:
 557              		.cfi_startproc
 558              		.cfi_personality 0x9b,DW.ref.__gxx_personality_v0
 559              		.cfi_lsda 0x1b,.LLSDA1331
 560 0290 F30F1EFA 		endbr64
 561 0294 4154     		pushq	%r12
 562              		.cfi_def_cfa_offset 16
 563              		.cfi_offset 12, -16
 564 0296 488D0500 		leaq	16+_ZTVN12_GLOBAL__N_144TestTestWithUnspecifiedSuiteGetsDefaultSuiteE(%rip), %rax
 564      000000
 565 029d 55       		pushq	%rbp
 566              		.cfi_def_cfa_offset 24
 567              		.cfi_offset 6, -24
 568 029e 4889FD   		movq	%rdi, %rbp
 569 02a1 4883EC08 		subq	$8, %rsp
 570              		.cfi_def_cfa_offset 32
 571 02a5 488907   		movq	%rax, (%rdi)
 572              	.LEHB8:
 573 02a8 E8000000 		call	_ZN8UnitTest4TestD2Ev@PLT
 573      00
 574              	.LEHE8:
 575 02ad 4883C408 		addq	$8, %rsp
 576              		.cfi_remember_state
 577              		.cfi_def_cfa_offset 24
 578 02b1 4889EF   		movq	%rbp, %rdi
 579 02b4 5D       		popq	%rbp
 580              		.cfi_def_cfa_offset 16
 581 02b5 415C     		popq	%r12
 582              		.cfi_def_cfa_offset 8
 583 02b7 E9000000 		jmp	_ZdlPv@PLT
 583      00
 584              	.L36:
 585              		.cfi_restore_state
 586 02bc F30F1EFA 		endbr64
 587 02c0 4989C4   		movq	%rax, %r12
 588 02c3 E9000000 		jmp	.L35
 588      00
 589              		.section	.gcc_except_table
 590              	.LLSDA1331:
 591 0048 FF       		.byte	0xff
 592 0049 FF       		.byte	0xff
 593 004a 01       		.byte	0x1
 594 004b 04       		.uleb128 .LLSDACSE1331-.LLSDACSB1331
 595              	.LLSDACSB1331:
 596 004c 18       		.uleb128 .LEHB8-.LFB1331
 597 004d 05       		.uleb128 .LEHE8-.LEHB8
 598 004e 2C       		.uleb128 .L36-.LFB1331
 599 004f 00       		.uleb128 0
 600              	.LLSDACSE1331:
 601              		.text
 602              		.cfi_endproc
 603              		.section	.text.unlikely
 604              		.cfi_startproc
 605              		.cfi_personality 0x9b,DW.ref.__gxx_personality_v0
 606              		.cfi_lsda 0x1b,.LLSDAC1331
 608              	_ZN12_GLOBAL__N_144TestTestWithUnspecifiedSuiteGetsDefaultSuiteD0Ev.cold:
 609              	.LFSB1331:
 610              	.L35:
 611              		.cfi_def_cfa_offset 32
 612              		.cfi_offset 6, -24
 613              		.cfi_offset 12, -16
 614 008c 4889EF   		movq	%rbp, %rdi
 615 008f E8000000 		call	_ZdlPv@PLT
 615      00
 616 0094 4C89E7   		movq	%r12, %rdi
 617              	.LEHB9:
 618 0097 E8000000 		call	_Unwind_Resume@PLT
 618      00
 619              	.LEHE9:
 620              		.cfi_endproc
 621              	.LFE1331:
 622              		.section	.gcc_except_table
 623              	.LLSDAC1331:
 624 0050 FF       		.byte	0xff
 625 0051 FF       		.byte	0xff
 626 0052 01       		.byte	0x1
 627 0053 04       		.uleb128 .LLSDACSEC1331-.LLSDACSBC1331
 628              	.LLSDACSBC1331:
 629 0054 0B       		.uleb128 .LEHB9-.LCOLDB5
 630 0055 05       		.uleb128 .LEHE9-.LEHB9
 631 0056 00       		.uleb128 0
 632 0057 00       		.uleb128 0
 633              	.LLSDACSEC1331:
 634              		.section	.text.unlikely
 635              		.text
 637              		.section	.text.unlikely
 639              	.LCOLDE5:
 640              		.text
 641              	.LHOTE5:
 642              		.section	.text.unlikely
 643              		.align 2
 644              	.LCOLDB6:
 645              		.text
 646              	.LHOTB6:
 647              		.align 2
 648 02c8 0F1F8400 		.p2align 4
 648      00000000 
 650              	_ZZNK12_GLOBAL__N_138TestCrashingTestsAreReportedAsFailures7RunImplEvEN12CrashingTestD0Ev:
 651              	.LFB1339:
 652              		.cfi_startproc
 653              		.cfi_personality 0x9b,DW.ref.__gxx_personality_v0
 654              		.cfi_lsda 0x1b,.LLSDA1339
 655 02d0 F30F1EFA 		endbr64
 656 02d4 4154     		pushq	%r12
 657              		.cfi_def_cfa_offset 16
 658              		.cfi_offset 12, -16
 659 02d6 488D0500 		leaq	16+_ZTVZNK12_GLOBAL__N_138TestCrashingTestsAreReportedAsFailures7RunImplEvE12CrashingTest(%ri
 659      000000
 660 02dd 55       		pushq	%rbp
 661              		.cfi_def_cfa_offset 24
 662              		.cfi_offset 6, -24
 663 02de 4889FD   		movq	%rdi, %rbp
 664 02e1 4883EC08 		subq	$8, %rsp
 665              		.cfi_def_cfa_offset 32
 666 02e5 488907   		movq	%rax, (%rdi)
 667              	.LEHB10:
 668 02e8 E8000000 		call	_ZN8UnitTest4TestD2Ev@PLT
 668      00
 669              	.LEHE10:
 670 02ed 4883C408 		addq	$8, %rsp
 671              		.cfi_remember_state
 672              		.cfi_def_cfa_offset 24
 673 02f1 4889EF   		movq	%rbp, %rdi
 674 02f4 5D       		popq	%rbp
 675              		.cfi_def_cfa_offset 16
 676 02f5 415C     		popq	%r12
 677              		.cfi_def_cfa_offset 8
 678 02f7 E9000000 		jmp	_ZdlPv@PLT
 678      00
 679              	.L40:
 680              		.cfi_restore_state
 681 02fc F30F1EFA 		endbr64
 682 0300 4989C4   		movq	%rax, %r12
 683 0303 E9000000 		jmp	.L39
 683      00
 684              		.section	.gcc_except_table
 685              	.LLSDA1339:
 686 0058 FF       		.byte	0xff
 687 0059 FF       		.byte	0xff
 688 005a 01       		.byte	0x1
 689 005b 04       		.uleb128 .LLSDACSE1339-.LLSDACSB1339
 690              	.LLSDACSB1339:
 691 005c 18       		.uleb128 .LEHB10-.LFB1339
 692 005d 05       		.uleb128 .LEHE10-.LEHB10
 693 005e 2C       		.uleb128 .L40-.LFB1339
 694 005f 00       		.uleb128 0
 695              	.LLSDACSE1339:
 696              		.text
 697              		.cfi_endproc
 698              		.section	.text.unlikely
 699              		.cfi_startproc
 700              		.cfi_personality 0x9b,DW.ref.__gxx_personality_v0
 701              		.cfi_lsda 0x1b,.LLSDAC1339
 703              	_ZZNK12_GLOBAL__N_138TestCrashingTestsAreReportedAsFailures7RunImplEvEN12CrashingTestD0Ev.cold:
 704              	.LFSB1339:
 705              	.L39:
 706              		.cfi_def_cfa_offset 32
 707              		.cfi_offset 6, -24
 708              		.cfi_offset 12, -16
 709 009c 4889EF   		movq	%rbp, %rdi
 710 009f E8000000 		call	_ZdlPv@PLT
 710      00
 711 00a4 4C89E7   		movq	%r12, %rdi
 712              	.LEHB11:
 713 00a7 E8000000 		call	_Unwind_Resume@PLT
 713      00
 714              	.LEHE11:
 715              		.cfi_endproc
 716              	.LFE1339:
 717              		.section	.gcc_except_table
 718              	.LLSDAC1339:
 719 0060 FF       		.byte	0xff
 720 0061 FF       		.byte	0xff
 721 0062 01       		.byte	0x1
 722 0063 04       		.uleb128 .LLSDACSEC1339-.LLSDACSBC1339
 723              	.LLSDACSBC1339:
 724 0064 0B       		.uleb128 .LEHB11-.LCOLDB6
 725 0065 05       		.uleb128 .LEHE11-.LEHB11
 726 0066 00       		.uleb128 0
 727 0067 00       		.uleb128 0
 728              	.LLSDACSEC1339:
 729              		.section	.text.unlikely
 730              		.text
 732              		.section	.text.unlikely
 734              	.LCOLDE6:
 735              		.text
 736              	.LHOTE6:
 737              		.section	.text.unlikely
 738              		.align 2
 739              	.LCOLDB7:
 740              		.text
 741              	.LHOTB7:
 742              		.align 2
 743 0308 0F1F8400 		.p2align 4
 743      00000000 
 745              	_ZN12_GLOBAL__N_138TestCrashingTestsAreReportedAsFailuresD0Ev:
 746              	.LFB1335:
 747              		.cfi_startproc
 748              		.cfi_personality 0x9b,DW.ref.__gxx_personality_v0
 749              		.cfi_lsda 0x1b,.LLSDA1335
 750 0310 F30F1EFA 		endbr64
 751 0314 4154     		pushq	%r12
 752              		.cfi_def_cfa_offset 16
 753              		.cfi_offset 12, -16
 754 0316 488D0500 		leaq	16+_ZTVN12_GLOBAL__N_138TestCrashingTestsAreReportedAsFailuresE(%rip), %rax
 754      000000
 755 031d 55       		pushq	%rbp
 756              		.cfi_def_cfa_offset 24
 757              		.cfi_offset 6, -24
 758 031e 4889FD   		movq	%rdi, %rbp
 759 0321 4883EC08 		subq	$8, %rsp
 760              		.cfi_def_cfa_offset 32
 761 0325 488907   		movq	%rax, (%rdi)
 762              	.LEHB12:
 763 0328 E8000000 		call	_ZN8UnitTest4TestD2Ev@PLT
 763      00
 764              	.LEHE12:
 765 032d 4883C408 		addq	$8, %rsp
 766              		.cfi_remember_state
 767              		.cfi_def_cfa_offset 24
 768 0331 4889EF   		movq	%rbp, %rdi
 769 0334 5D       		popq	%rbp
 770              		.cfi_def_cfa_offset 16
 771 0335 415C     		popq	%r12
 772              		.cfi_def_cfa_offset 8
 773 0337 E9000000 		jmp	_ZdlPv@PLT
 773      00
 774              	.L44:
 775              		.cfi_restore_state
 776 033c F30F1EFA 		endbr64
 777 0340 4989C4   		movq	%rax, %r12
 778 0343 E9000000 		jmp	.L43
 778      00
 779              		.section	.gcc_except_table
 780              	.LLSDA1335:
 781 0068 FF       		.byte	0xff
 782 0069 FF       		.byte	0xff
 783 006a 01       		.byte	0x1
 784 006b 04       		.uleb128 .LLSDACSE1335-.LLSDACSB1335
 785              	.LLSDACSB1335:
 786 006c 18       		.uleb128 .LEHB12-.LFB1335
 787 006d 05       		.uleb128 .LEHE12-.LEHB12
 788 006e 2C       		.uleb128 .L44-.LFB1335
 789 006f 00       		.uleb128 0
 790              	.LLSDACSE1335:
 791              		.text
 792              		.cfi_endproc
 793              		.section	.text.unlikely
 794              		.cfi_startproc
 795              		.cfi_personality 0x9b,DW.ref.__gxx_personality_v0
 796              		.cfi_lsda 0x1b,.LLSDAC1335
 798              	_ZN12_GLOBAL__N_138TestCrashingTestsAreReportedAsFailuresD0Ev.cold:
 799              	.LFSB1335:
 800              	.L43:
 801              		.cfi_def_cfa_offset 32
 802              		.cfi_offset 6, -24
 803              		.cfi_offset 12, -16
 804 00ac 4889EF   		movq	%rbp, %rdi
 805 00af E8000000 		call	_ZdlPv@PLT
 805      00
 806 00b4 4C89E7   		movq	%r12, %rdi
 807              	.LEHB13:
 808 00b7 E8000000 		call	_Unwind_Resume@PLT
 808      00
 809              	.LEHE13:
 810              		.cfi_endproc
 811              	.LFE1335:
 812              		.section	.gcc_except_table
 813              	.LLSDAC1335:
 814 0070 FF       		.byte	0xff
 815 0071 FF       		.byte	0xff
 816 0072 01       		.byte	0x1
 817 0073 04       		.uleb128 .LLSDACSEC1335-.LLSDACSBC1335
 818              	.LLSDACSBC1335:
 819 0074 0B       		.uleb128 .LEHB13-.LCOLDB7
 820 0075 05       		.uleb128 .LEHE13-.LEHB13
 821 0076 00       		.uleb128 0
 822 0077 00       		.uleb128 0
 823              	.LLSDACSEC1335:
 824              		.section	.text.unlikely
 825              		.text
 827              		.section	.text.unlikely
 829              	.LCOLDE7:
 830              		.text
 831              	.LHOTE7:
 832              		.section	.text.unlikely
 833              		.align 2
 834              	.LCOLDB8:
 835              		.text
 836              	.LHOTB8:
 837              		.align 2
 838 0348 0F1F8400 		.p2align 4
 838      00000000 
 840              	_ZZNK12_GLOBAL__N_138TestThrowingTestsAreReportedAsFailures7RunImplEvEN12CrashingTestD0Ev:
 841              	.LFB1347:
 842              		.cfi_startproc
 843              		.cfi_personality 0x9b,DW.ref.__gxx_personality_v0
 844              		.cfi_lsda 0x1b,.LLSDA1347
 845 0350 F30F1EFA 		endbr64
 846 0354 4154     		pushq	%r12
 847              		.cfi_def_cfa_offset 16
 848              		.cfi_offset 12, -16
 849 0356 488D0500 		leaq	16+_ZTVZNK12_GLOBAL__N_138TestThrowingTestsAreReportedAsFailures7RunImplEvE12CrashingTest(%ri
 849      000000
 850 035d 55       		pushq	%rbp
 851              		.cfi_def_cfa_offset 24
 852              		.cfi_offset 6, -24
 853 035e 4889FD   		movq	%rdi, %rbp
 854 0361 4883EC08 		subq	$8, %rsp
 855              		.cfi_def_cfa_offset 32
 856 0365 488907   		movq	%rax, (%rdi)
 857              	.LEHB14:
 858 0368 E8000000 		call	_ZN8UnitTest4TestD2Ev@PLT
 858      00
 859              	.LEHE14:
 860 036d 4883C408 		addq	$8, %rsp
 861              		.cfi_remember_state
 862              		.cfi_def_cfa_offset 24
 863 0371 4889EF   		movq	%rbp, %rdi
 864 0374 5D       		popq	%rbp
 865              		.cfi_def_cfa_offset 16
 866 0375 415C     		popq	%r12
 867              		.cfi_def_cfa_offset 8
 868 0377 E9000000 		jmp	_ZdlPv@PLT
 868      00
 869              	.L48:
 870              		.cfi_restore_state
 871 037c F30F1EFA 		endbr64
 872 0380 4989C4   		movq	%rax, %r12
 873 0383 E9000000 		jmp	.L47
 873      00
 874              		.section	.gcc_except_table
 875              	.LLSDA1347:
 876 0078 FF       		.byte	0xff
 877 0079 FF       		.byte	0xff
 878 007a 01       		.byte	0x1
 879 007b 04       		.uleb128 .LLSDACSE1347-.LLSDACSB1347
 880              	.LLSDACSB1347:
 881 007c 18       		.uleb128 .LEHB14-.LFB1347
 882 007d 05       		.uleb128 .LEHE14-.LEHB14
 883 007e 2C       		.uleb128 .L48-.LFB1347
 884 007f 00       		.uleb128 0
 885              	.LLSDACSE1347:
 886              		.text
 887              		.cfi_endproc
 888              		.section	.text.unlikely
 889              		.cfi_startproc
 890              		.cfi_personality 0x9b,DW.ref.__gxx_personality_v0
 891              		.cfi_lsda 0x1b,.LLSDAC1347
 893              	_ZZNK12_GLOBAL__N_138TestThrowingTestsAreReportedAsFailures7RunImplEvEN12CrashingTestD0Ev.cold:
 894              	.LFSB1347:
 895              	.L47:
 896              		.cfi_def_cfa_offset 32
 897              		.cfi_offset 6, -24
 898              		.cfi_offset 12, -16
 899 00bc 4889EF   		movq	%rbp, %rdi
 900 00bf E8000000 		call	_ZdlPv@PLT
 900      00
 901 00c4 4C89E7   		movq	%r12, %rdi
 902              	.LEHB15:
 903 00c7 E8000000 		call	_Unwind_Resume@PLT
 903      00
 904              	.LEHE15:
 905              		.cfi_endproc
 906              	.LFE1347:
 907              		.section	.gcc_except_table
 908              	.LLSDAC1347:
 909 0080 FF       		.byte	0xff
 910 0081 FF       		.byte	0xff
 911 0082 01       		.byte	0x1
 912 0083 04       		.uleb128 .LLSDACSEC1347-.LLSDACSBC1347
 913              	.LLSDACSBC1347:
 914 0084 0B       		.uleb128 .LEHB15-.LCOLDB8
 915 0085 05       		.uleb128 .LEHE15-.LEHB15
 916 0086 00       		.uleb128 0
 917 0087 00       		.uleb128 0
 918              	.LLSDACSEC1347:
 919              		.section	.text.unlikely
 920              		.text
 922              		.section	.text.unlikely
 924              	.LCOLDE8:
 925              		.text
 926              	.LHOTE8:
 927              		.section	.text.unlikely
 928              		.align 2
 929              	.LCOLDB9:
 930              		.text
 931              	.LHOTB9:
 932              		.align 2
 933 0388 0F1F8400 		.p2align 4
 933      00000000 
 935              	_ZN12_GLOBAL__N_138TestThrowingTestsAreReportedAsFailuresD0Ev:
 936              	.LFB1343:
 937              		.cfi_startproc
 938              		.cfi_personality 0x9b,DW.ref.__gxx_personality_v0
 939              		.cfi_lsda 0x1b,.LLSDA1343
 940 0390 F30F1EFA 		endbr64
 941 0394 4154     		pushq	%r12
 942              		.cfi_def_cfa_offset 16
 943              		.cfi_offset 12, -16
 944 0396 488D0500 		leaq	16+_ZTVN12_GLOBAL__N_138TestThrowingTestsAreReportedAsFailuresE(%rip), %rax
 944      000000
 945 039d 55       		pushq	%rbp
 946              		.cfi_def_cfa_offset 24
 947              		.cfi_offset 6, -24
 948 039e 4889FD   		movq	%rdi, %rbp
 949 03a1 4883EC08 		subq	$8, %rsp
 950              		.cfi_def_cfa_offset 32
 951 03a5 488907   		movq	%rax, (%rdi)
 952              	.LEHB16:
 953 03a8 E8000000 		call	_ZN8UnitTest4TestD2Ev@PLT
 953      00
 954              	.LEHE16:
 955 03ad 4883C408 		addq	$8, %rsp
 956              		.cfi_remember_state
 957              		.cfi_def_cfa_offset 24
 958 03b1 4889EF   		movq	%rbp, %rdi
 959 03b4 5D       		popq	%rbp
 960              		.cfi_def_cfa_offset 16
 961 03b5 415C     		popq	%r12
 962              		.cfi_def_cfa_offset 8
 963 03b7 E9000000 		jmp	_ZdlPv@PLT
 963      00
 964              	.L52:
 965              		.cfi_restore_state
 966 03bc F30F1EFA 		endbr64
 967 03c0 4989C4   		movq	%rax, %r12
 968 03c3 E9000000 		jmp	.L51
 968      00
 969              		.section	.gcc_except_table
 970              	.LLSDA1343:
 971 0088 FF       		.byte	0xff
 972 0089 FF       		.byte	0xff
 973 008a 01       		.byte	0x1
 974 008b 04       		.uleb128 .LLSDACSE1343-.LLSDACSB1343
 975              	.LLSDACSB1343:
 976 008c 18       		.uleb128 .LEHB16-.LFB1343
 977 008d 05       		.uleb128 .LEHE16-.LEHB16
 978 008e 2C       		.uleb128 .L52-.LFB1343
 979 008f 00       		.uleb128 0
 980              	.LLSDACSE1343:
 981              		.text
 982              		.cfi_endproc
 983              		.section	.text.unlikely
 984              		.cfi_startproc
 985              		.cfi_personality 0x9b,DW.ref.__gxx_personality_v0
 986              		.cfi_lsda 0x1b,.LLSDAC1343
 988              	_ZN12_GLOBAL__N_138TestThrowingTestsAreReportedAsFailuresD0Ev.cold:
 989              	.LFSB1343:
 990              	.L51:
 991              		.cfi_def_cfa_offset 32
 992              		.cfi_offset 6, -24
 993              		.cfi_offset 12, -16
 994 00cc 4889EF   		movq	%rbp, %rdi
 995 00cf E8000000 		call	_ZdlPv@PLT
 995      00
 996 00d4 4C89E7   		movq	%r12, %rdi
 997              	.LEHB17:
 998 00d7 E8000000 		call	_Unwind_Resume@PLT
 998      00
 999              	.LEHE17:
 1000              		.cfi_endproc
 1001              	.LFE1343:
 1002              		.section	.gcc_except_table
 1003              	.LLSDAC1343:
 1004 0090 FF       		.byte	0xff
 1005 0091 FF       		.byte	0xff
 1006 0092 01       		.byte	0x1
 1007 0093 04       		.uleb128 .LLSDACSEC1343-.LLSDACSBC1343
 1008              	.LLSDACSBC1343:
 1009 0094 0B       		.uleb128 .LEHB17-.LCOLDB9
 1010 0095 05       		.uleb128 .LEHE17-.LEHB17
 1011 0096 00       		.uleb128 0
 1012 0097 00       		.uleb128 0
 1013              	.LLSDACSEC1343:
 1014              		.section	.text.unlikely
 1015              		.text
 1017              		.section	.text.unlikely
 1019              	.LCOLDE9:
 1020              		.text
 1021              	.LHOTE9:
 1022              		.section	.text.unlikely
 1023              		.align 2
 1024              	.LCOLDB10:
 1025              		.text
 1026              	.LHOTB10:
 1027              		.align 2
 1028 03c8 0F1F8400 		.p2align 4
 1028      00000000 
 1030              	_ZZNK12_GLOBAL__N_126TestFailingTestHasFailures7RunImplEvEN11FailingTestD0Ev:
 1031              	.LFB1355:
 1032              		.cfi_startproc
 1033              		.cfi_personality 0x9b,DW.ref.__gxx_personality_v0
 1034              		.cfi_lsda 0x1b,.LLSDA1355
 1035 03d0 F30F1EFA 		endbr64
 1036 03d4 4154     		pushq	%r12
 1037              		.cfi_def_cfa_offset 16
 1038              		.cfi_offset 12, -16
 1039 03d6 488D0500 		leaq	16+_ZTVZNK12_GLOBAL__N_126TestFailingTestHasFailures7RunImplEvE11FailingTest(%rip), %rax
 1039      000000
 1040 03dd 55       		pushq	%rbp
 1041              		.cfi_def_cfa_offset 24
 1042              		.cfi_offset 6, -24
 1043 03de 4889FD   		movq	%rdi, %rbp
 1044 03e1 4883EC08 		subq	$8, %rsp
 1045              		.cfi_def_cfa_offset 32
 1046 03e5 488907   		movq	%rax, (%rdi)
 1047              	.LEHB18:
 1048 03e8 E8000000 		call	_ZN8UnitTest4TestD2Ev@PLT
 1048      00
 1049              	.LEHE18:
 1050 03ed 4883C408 		addq	$8, %rsp
 1051              		.cfi_remember_state
 1052              		.cfi_def_cfa_offset 24
 1053 03f1 4889EF   		movq	%rbp, %rdi
 1054 03f4 5D       		popq	%rbp
 1055              		.cfi_def_cfa_offset 16
 1056 03f5 415C     		popq	%r12
 1057              		.cfi_def_cfa_offset 8
 1058 03f7 E9000000 		jmp	_ZdlPv@PLT
 1058      00
 1059              	.L56:
 1060              		.cfi_restore_state
 1061 03fc F30F1EFA 		endbr64
 1062 0400 4989C4   		movq	%rax, %r12
 1063 0403 E9000000 		jmp	.L55
 1063      00
 1064              		.section	.gcc_except_table
 1065              	.LLSDA1355:
 1066 0098 FF       		.byte	0xff
 1067 0099 FF       		.byte	0xff
 1068 009a 01       		.byte	0x1
 1069 009b 04       		.uleb128 .LLSDACSE1355-.LLSDACSB1355
 1070              	.LLSDACSB1355:
 1071 009c 18       		.uleb128 .LEHB18-.LFB1355
 1072 009d 05       		.uleb128 .LEHE18-.LEHB18
 1073 009e 2C       		.uleb128 .L56-.LFB1355
 1074 009f 00       		.uleb128 0
 1075              	.LLSDACSE1355:
 1076              		.text
 1077              		.cfi_endproc
 1078              		.section	.text.unlikely
 1079              		.cfi_startproc
 1080              		.cfi_personality 0x9b,DW.ref.__gxx_personality_v0
 1081              		.cfi_lsda 0x1b,.LLSDAC1355
 1083              	_ZZNK12_GLOBAL__N_126TestFailingTestHasFailures7RunImplEvEN11FailingTestD0Ev.cold:
 1084              	.LFSB1355:
 1085              	.L55:
 1086              		.cfi_def_cfa_offset 32
 1087              		.cfi_offset 6, -24
 1088              		.cfi_offset 12, -16
 1089 00dc 4889EF   		movq	%rbp, %rdi
 1090 00df E8000000 		call	_ZdlPv@PLT
 1090      00
 1091 00e4 4C89E7   		movq	%r12, %rdi
 1092              	.LEHB19:
 1093 00e7 E8000000 		call	_Unwind_Resume@PLT
 1093      00
 1094              	.LEHE19:
 1095              		.cfi_endproc
 1096              	.LFE1355:
 1097              		.section	.gcc_except_table
 1098              	.LLSDAC1355:
 1099 00a0 FF       		.byte	0xff
 1100 00a1 FF       		.byte	0xff
 1101 00a2 01       		.byte	0x1
 1102 00a3 04       		.uleb128 .LLSDACSEC1355-.LLSDACSBC1355
 1103              	.LLSDACSBC1355:
 1104 00a4 0B       		.uleb128 .LEHB19-.LCOLDB10
 1105 00a5 05       		.uleb128 .LEHE19-.LEHB19
 1106 00a6 00       		.uleb128 0
 1107 00a7 00       		.uleb128 0
 1108              	.LLSDACSEC1355:
 1109              		.section	.text.unlikely
 1110              		.text
 1112              		.section	.text.unlikely
 1114              	.LCOLDE10:
 1115              		.text
 1116              	.LHOTE10:
 1117              		.section	.text.unlikely
 1118              		.align 2
 1119              	.LCOLDB11:
 1120              		.text
 1121              	.LHOTB11:
 1122              		.align 2
 1123 0408 0F1F8400 		.p2align 4
 1123      00000000 
 1125              	_ZN12_GLOBAL__N_126TestFailingTestHasFailuresD0Ev:
 1126              	.LFB1351:
 1127              		.cfi_startproc
 1128              		.cfi_personality 0x9b,DW.ref.__gxx_personality_v0
 1129              		.cfi_lsda 0x1b,.LLSDA1351
 1130 0410 F30F1EFA 		endbr64
 1131 0414 4154     		pushq	%r12
 1132              		.cfi_def_cfa_offset 16
 1133              		.cfi_offset 12, -16
 1134 0416 488D0500 		leaq	16+_ZTVN12_GLOBAL__N_126TestFailingTestHasFailuresE(%rip), %rax
 1134      000000
 1135 041d 55       		pushq	%rbp
 1136              		.cfi_def_cfa_offset 24
 1137              		.cfi_offset 6, -24
 1138 041e 4889FD   		movq	%rdi, %rbp
 1139 0421 4883EC08 		subq	$8, %rsp
 1140              		.cfi_def_cfa_offset 32
 1141 0425 488907   		movq	%rax, (%rdi)
 1142              	.LEHB20:
 1143 0428 E8000000 		call	_ZN8UnitTest4TestD2Ev@PLT
 1143      00
 1144              	.LEHE20:
 1145 042d 4883C408 		addq	$8, %rsp
 1146              		.cfi_remember_state
 1147              		.cfi_def_cfa_offset 24
 1148 0431 4889EF   		movq	%rbp, %rdi
 1149 0434 5D       		popq	%rbp
 1150              		.cfi_def_cfa_offset 16
 1151 0435 415C     		popq	%r12
 1152              		.cfi_def_cfa_offset 8
 1153 0437 E9000000 		jmp	_ZdlPv@PLT
 1153      00
 1154              	.L60:
 1155              		.cfi_restore_state
 1156 043c F30F1EFA 		endbr64
 1157 0440 4989C4   		movq	%rax, %r12
 1158 0443 E9000000 		jmp	.L59
 1158      00
 1159              		.section	.gcc_except_table
 1160              	.LLSDA1351:
 1161 00a8 FF       		.byte	0xff
 1162 00a9 FF       		.byte	0xff
 1163 00aa 01       		.byte	0x1
 1164 00ab 04       		.uleb128 .LLSDACSE1351-.LLSDACSB1351
 1165              	.LLSDACSB1351:
 1166 00ac 18       		.uleb128 .LEHB20-.LFB1351
 1167 00ad 05       		.uleb128 .LEHE20-.LEHB20
 1168 00ae 2C       		.uleb128 .L60-.LFB1351
 1169 00af 00       		.uleb128 0
 1170              	.LLSDACSE1351:
 1171              		.text
 1172              		.cfi_endproc
 1173              		.section	.text.unlikely
 1174              		.cfi_startproc
 1175              		.cfi_personality 0x9b,DW.ref.__gxx_personality_v0
 1176              		.cfi_lsda 0x1b,.LLSDAC1351
 1178              	_ZN12_GLOBAL__N_126TestFailingTestHasFailuresD0Ev.cold:
 1179              	.LFSB1351:
 1180              	.L59:
 1181              		.cfi_def_cfa_offset 32
 1182              		.cfi_offset 6, -24
 1183              		.cfi_offset 12, -16
 1184 00ec 4889EF   		movq	%rbp, %rdi
 1185 00ef E8000000 		call	_ZdlPv@PLT
 1185      00
 1186 00f4 4C89E7   		movq	%r12, %rdi
 1187              	.LEHB21:
 1188 00f7 E8000000 		call	_Unwind_Resume@PLT
 1188      00
 1189              	.LEHE21:
 1190              		.cfi_endproc
 1191              	.LFE1351:
 1192              		.section	.gcc_except_table
 1193              	.LLSDAC1351:
 1194 00b0 FF       		.byte	0xff
 1195 00b1 FF       		.byte	0xff
 1196 00b2 01       		.byte	0x1
 1197 00b3 04       		.uleb128 .LLSDACSEC1351-.LLSDACSBC1351
 1198              	.LLSDACSBC1351:
 1199 00b4 0B       		.uleb128 .LEHB21-.LCOLDB11
 1200 00b5 05       		.uleb128 .LEHE21-.LEHB21
 1201 00b6 00       		.uleb128 0
 1202 00b7 00       		.uleb128 0
 1203              	.LLSDACSEC1351:
 1204              		.section	.text.unlikely
 1205              		.text
 1207              		.section	.text.unlikely
 1209              	.LCOLDE11:
 1210              		.text
 1211              	.LHOTE11:
 1212              		.section	.text.unlikely
 1213              		.align 2
 1214              	.LCOLDB12:
 1215              		.text
 1216              	.LHOTB12:
 1217              		.align 2
 1218 0448 0F1F8400 		.p2align 4
 1218      00000000 
 1220              	_ZZNK12_GLOBAL__N_128TestPassingTestHasNoFailures7RunImplEvEN11PassingTestD0Ev:
 1221              	.LFB1363:
 1222              		.cfi_startproc
 1223              		.cfi_personality 0x9b,DW.ref.__gxx_personality_v0
 1224              		.cfi_lsda 0x1b,.LLSDA1363
 1225 0450 F30F1EFA 		endbr64
 1226 0454 4154     		pushq	%r12
 1227              		.cfi_def_cfa_offset 16
 1228              		.cfi_offset 12, -16
 1229 0456 488D0500 		leaq	16+_ZTVZNK12_GLOBAL__N_128TestPassingTestHasNoFailures7RunImplEvE11PassingTest(%rip), %rax
 1229      000000
 1230 045d 55       		pushq	%rbp
 1231              		.cfi_def_cfa_offset 24
 1232              		.cfi_offset 6, -24
 1233 045e 4889FD   		movq	%rdi, %rbp
 1234 0461 4883EC08 		subq	$8, %rsp
 1235              		.cfi_def_cfa_offset 32
 1236 0465 488907   		movq	%rax, (%rdi)
 1237              	.LEHB22:
 1238 0468 E8000000 		call	_ZN8UnitTest4TestD2Ev@PLT
 1238      00
 1239              	.LEHE22:
 1240 046d 4883C408 		addq	$8, %rsp
 1241              		.cfi_remember_state
 1242              		.cfi_def_cfa_offset 24
 1243 0471 4889EF   		movq	%rbp, %rdi
 1244 0474 5D       		popq	%rbp
 1245              		.cfi_def_cfa_offset 16
 1246 0475 415C     		popq	%r12
 1247              		.cfi_def_cfa_offset 8
 1248 0477 E9000000 		jmp	_ZdlPv@PLT
 1248      00
 1249              	.L64:
 1250              		.cfi_restore_state
 1251 047c F30F1EFA 		endbr64
 1252 0480 4989C4   		movq	%rax, %r12
 1253 0483 E9000000 		jmp	.L63
 1253      00
 1254              		.section	.gcc_except_table
 1255              	.LLSDA1363:
 1256 00b8 FF       		.byte	0xff
 1257 00b9 FF       		.byte	0xff
 1258 00ba 01       		.byte	0x1
 1259 00bb 04       		.uleb128 .LLSDACSE1363-.LLSDACSB1363
 1260              	.LLSDACSB1363:
 1261 00bc 18       		.uleb128 .LEHB22-.LFB1363
 1262 00bd 05       		.uleb128 .LEHE22-.LEHB22
 1263 00be 2C       		.uleb128 .L64-.LFB1363
 1264 00bf 00       		.uleb128 0
 1265              	.LLSDACSE1363:
 1266              		.text
 1267              		.cfi_endproc
 1268              		.section	.text.unlikely
 1269              		.cfi_startproc
 1270              		.cfi_personality 0x9b,DW.ref.__gxx_personality_v0
 1271              		.cfi_lsda 0x1b,.LLSDAC1363
 1273              	_ZZNK12_GLOBAL__N_128TestPassingTestHasNoFailures7RunImplEvEN11PassingTestD0Ev.cold:
 1274              	.LFSB1363:
 1275              	.L63:
 1276              		.cfi_def_cfa_offset 32
 1277              		.cfi_offset 6, -24
 1278              		.cfi_offset 12, -16
 1279 00fc 4889EF   		movq	%rbp, %rdi
 1280 00ff E8000000 		call	_ZdlPv@PLT
 1280      00
 1281 0104 4C89E7   		movq	%r12, %rdi
 1282              	.LEHB23:
 1283 0107 E8000000 		call	_Unwind_Resume@PLT
 1283      00
 1284              	.LEHE23:
 1285              		.cfi_endproc
 1286              	.LFE1363:
 1287              		.section	.gcc_except_table
 1288              	.LLSDAC1363:
 1289 00c0 FF       		.byte	0xff
 1290 00c1 FF       		.byte	0xff
 1291 00c2 01       		.byte	0x1
 1292 00c3 04       		.uleb128 .LLSDACSEC1363-.LLSDACSBC1363
 1293              	.LLSDACSBC1363:
 1294 00c4 0B       		.uleb128 .LEHB23-.LCOLDB12
 1295 00c5 05       		.uleb128 .LEHE23-.LEHB23
 1296 00c6 00       		.uleb128 0
 1297 00c7 00       		.uleb128 0
 1298              	.LLSDACSEC1363:
 1299              		.section	.text.unlikely
 1300              		.text
 1302              		.section	.text.unlikely
 1304              	.LCOLDE12:
 1305              		.text
 1306              	.LHOTE12:
 1307              		.section	.text.unlikely
 1308              		.align 2
 1309              	.LCOLDB13:
 1310              		.text
 1311              	.LHOTB13:
 1312              		.align 2
 1313 0488 0F1F8400 		.p2align 4
 1313      00000000 
 1315              	_ZN12_GLOBAL__N_128TestPassingTestHasNoFailuresD0Ev:
 1316              	.LFB1359:
 1317              		.cfi_startproc
 1318              		.cfi_personality 0x9b,DW.ref.__gxx_personality_v0
 1319              		.cfi_lsda 0x1b,.LLSDA1359
 1320 0490 F30F1EFA 		endbr64
 1321 0494 4154     		pushq	%r12
 1322              		.cfi_def_cfa_offset 16
 1323              		.cfi_offset 12, -16
 1324 0496 488D0500 		leaq	16+_ZTVN12_GLOBAL__N_128TestPassingTestHasNoFailuresE(%rip), %rax
 1324      000000
 1325 049d 55       		pushq	%rbp
 1326              		.cfi_def_cfa_offset 24
 1327              		.cfi_offset 6, -24
 1328 049e 4889FD   		movq	%rdi, %rbp
 1329 04a1 4883EC08 		subq	$8, %rsp
 1330              		.cfi_def_cfa_offset 32
 1331 04a5 488907   		movq	%rax, (%rdi)
 1332              	.LEHB24:
 1333 04a8 E8000000 		call	_ZN8UnitTest4TestD2Ev@PLT
 1333      00
 1334              	.LEHE24:
 1335 04ad 4883C408 		addq	$8, %rsp
 1336              		.cfi_remember_state
 1337              		.cfi_def_cfa_offset 24
 1338 04b1 4889EF   		movq	%rbp, %rdi
 1339 04b4 5D       		popq	%rbp
 1340              		.cfi_def_cfa_offset 16
 1341 04b5 415C     		popq	%r12
 1342              		.cfi_def_cfa_offset 8
 1343 04b7 E9000000 		jmp	_ZdlPv@PLT
 1343      00
 1344              	.L68:
 1345              		.cfi_restore_state
 1346 04bc F30F1EFA 		endbr64
 1347 04c0 4989C4   		movq	%rax, %r12
 1348 04c3 E9000000 		jmp	.L67
 1348      00
 1349              		.section	.gcc_except_table
 1350              	.LLSDA1359:
 1351 00c8 FF       		.byte	0xff
 1352 00c9 FF       		.byte	0xff
 1353 00ca 01       		.byte	0x1
 1354 00cb 04       		.uleb128 .LLSDACSE1359-.LLSDACSB1359
 1355              	.LLSDACSB1359:
 1356 00cc 18       		.uleb128 .LEHB24-.LFB1359
 1357 00cd 05       		.uleb128 .LEHE24-.LEHB24
 1358 00ce 2C       		.uleb128 .L68-.LFB1359
 1359 00cf 00       		.uleb128 0
 1360              	.LLSDACSE1359:
 1361              		.text
 1362              		.cfi_endproc
 1363              		.section	.text.unlikely
 1364              		.cfi_startproc
 1365              		.cfi_personality 0x9b,DW.ref.__gxx_personality_v0
 1366              		.cfi_lsda 0x1b,.LLSDAC1359
 1368              	_ZN12_GLOBAL__N_128TestPassingTestHasNoFailuresD0Ev.cold:
 1369              	.LFSB1359:
 1370              	.L67:
 1371              		.cfi_def_cfa_offset 32
 1372              		.cfi_offset 6, -24
 1373              		.cfi_offset 12, -16
 1374 010c 4889EF   		movq	%rbp, %rdi
 1375 010f E8000000 		call	_ZdlPv@PLT
 1375      00
 1376 0114 4C89E7   		movq	%r12, %rdi
 1377              	.LEHB25:
 1378 0117 E8000000 		call	_Unwind_Resume@PLT
 1378      00
 1379              	.LEHE25:
 1380              		.cfi_endproc
 1381              	.LFE1359:
 1382              		.section	.gcc_except_table
 1383              	.LLSDAC1359:
 1384 00d0 FF       		.byte	0xff
 1385 00d1 FF       		.byte	0xff
 1386 00d2 01       		.byte	0x1
 1387 00d3 04       		.uleb128 .LLSDACSEC1359-.LLSDACSBC1359
 1388              	.LLSDACSBC1359:
 1389 00d4 0B       		.uleb128 .LEHB25-.LCOLDB13
 1390 00d5 05       		.uleb128 .LEHE25-.LEHB25
 1391 00d6 00       		.uleb128 0
 1392 00d7 00       		.uleb128 0
 1393              	.LLSDACSEC1359:
 1394              		.section	.text.unlikely
 1395              		.text
 1397              		.section	.text.unlikely
 1399              	.LCOLDE13:
 1400              		.text
 1401              	.LHOTE13:
 1402              		.section	.rodata.str1.1
 1403              	.LC14:
 1404 0006 426C6168 		.string	"Blah"
 1404      00
 1405              		.section	.text.unlikely
 1406              		.align 2
 1408              	_ZZNK12_GLOBAL__N_138TestThrowingTestsAreReportedAsFailures7RunImplEvENK12CrashingTest7RunImplEv:
 1409              	.LFB1213:
 1410              		.cfi_startproc
 1411 011c F30F1EFA 		endbr64
 1412 0120 50       		pushq	%rax
 1413              		.cfi_def_cfa_offset 16
 1414 0121 58       		popq	%rax
 1415              		.cfi_def_cfa_offset 8
 1416 0122 BF080000 		movl	$8, %edi
 1416      00
 1417 0127 50       		pushq	%rax
 1418              		.cfi_def_cfa_offset 16
 1419 0128 E8000000 		call	__cxa_allocate_exception@PLT
 1419      00
 1420 012d 31D2     		xorl	%edx, %edx
 1421 012f 488D3500 		leaq	_ZTIPKc(%rip), %rsi
 1421      000000
 1422 0136 4889C7   		movq	%rax, %rdi
 1423 0139 488D0500 		leaq	.LC14(%rip), %rax
 1423      000000
 1424 0140 488907   		movq	%rax, (%rdi)
 1425 0143 E8000000 		call	__cxa_throw@PLT
 1425      00
 1426              		.cfi_endproc
 1427              	.LFE1213:
 1429              		.section	.text._ZN8UnitTest15MemoryOutStreamD1Ev,"axG",@progbits,_ZN8UnitTest15MemoryOutStreamD1Ev
 1430              		.align 2
 1431              		.p2align 4
 1432              		.weak	_ZN8UnitTest15MemoryOutStreamD1Ev
 1434              	_ZN8UnitTest15MemoryOutStreamD1Ev:
 1435              	.LFB1266:
 1436              		.cfi_startproc
 1437 0000 F30F1EFA 		endbr64
 1438 0004 55       		pushq	%rbp
 1439              		.cfi_def_cfa_offset 16
 1440              		.cfi_offset 6, -16
 1441 0005 488D0500 		leaq	24+_ZTVN8UnitTest15MemoryOutStreamE(%rip), %rax
 1441      000000
 1442 000c 53       		pushq	%rbx
 1443              		.cfi_def_cfa_offset 24
 1444              		.cfi_offset 3, -24
 1445 000d 4889FB   		movq	%rdi, %rbx
 1446 0010 4883EC08 		subq	$8, %rsp
 1447              		.cfi_def_cfa_offset 32
 1448 0014 488907   		movq	%rax, (%rdi)
 1449 0017 4883C028 		addq	$40, %rax
 1450 001b 48898790 		movq	%rax, 144(%rdi)
 1450      000000
 1451 0022 488B7F70 		movq	112(%rdi), %rdi
 1452 0026 488D8380 		leaq	128(%rbx), %rax
 1452      000000
 1453 002d 4839C7   		cmpq	%rax, %rdi
 1454 0030 7405     		je	.L73
 1455 0032 E8000000 		call	_ZdlPv@PLT
 1455      00
 1456              	.L73:
 1457 0037 488D0500 		leaq	64+_ZTCN8UnitTest15MemoryOutStreamE0_NSt7__cxx1119basic_ostringstreamIcSt11char_traitsIcESaIc
 1457      000000
 1458 003e 488D1500 		leaq	24+_ZTCN8UnitTest15MemoryOutStreamE0_NSt7__cxx1119basic_ostringstreamIcSt11char_traitsIcESaIc
 1458      000000
 1459 0045 488B7B50 		movq	80(%rbx), %rdi
 1460 0049 48898390 		movq	%rax, 144(%rbx)
 1460      000000
 1461 0050 488D0500 		leaq	16+_ZTVNSt7__cxx1115basic_stringbufIcSt11char_traitsIcESaIcEEE(%rip), %rax
 1461      000000
 1462 0057 66480F6E 		movq	%rdx, %xmm0
 1462      C2
 1463 005c 488DAB90 		leaq	144(%rbx), %rbp
 1463      000000
 1464 0063 66480F6E 		movq	%rax, %xmm1
 1464      C8
 1465 0068 488D4360 		leaq	96(%rbx), %rax
 1466 006c 660F6CC1 		punpcklqdq	%xmm1, %xmm0
 1467 0070 0F1103   		movups	%xmm0, (%rbx)
 1468 0073 4839C7   		cmpq	%rax, %rdi
 1469 0076 7405     		je	.L74
 1470 0078 E8000000 		call	_ZdlPv@PLT
 1470      00
 1471              	.L74:
 1472 007d 488D0500 		leaq	16+_ZTVSt15basic_streambufIcSt11char_traitsIcEE(%rip), %rax
 1472      000000
 1473 0084 488D7B40 		leaq	64(%rbx), %rdi
 1474 0088 48894308 		movq	%rax, 8(%rbx)
 1475 008c E8000000 		call	_ZNSt6localeD1Ev@PLT
 1475      00
 1476 0091 488D0500 		leaq	24+_ZTCN8UnitTest15MemoryOutStreamE0_So(%rip), %rax
 1476      000000
 1477 0098 4889EF   		movq	%rbp, %rdi
 1478 009b 488903   		movq	%rax, (%rbx)
 1479 009e 488D0500 		leaq	16+_ZTVSt9basic_iosIcSt11char_traitsIcEE(%rip), %rax
 1479      000000
 1480 00a5 48898390 		movq	%rax, 144(%rbx)
 1480      000000
 1481 00ac 4883C408 		addq	$8, %rsp
 1482              		.cfi_def_cfa_offset 24
 1483 00b0 5B       		popq	%rbx
 1484              		.cfi_def_cfa_offset 16
 1485 00b1 5D       		popq	%rbp
 1486              		.cfi_def_cfa_offset 8
 1487 00b2 E9000000 		jmp	_ZNSt8ios_baseD2Ev@PLT
 1487      00
 1488              		.cfi_endproc
 1489              	.LFE1266:
 1491 00b7 660F1F84 		.p2align 4
 1491      00000000 
 1491      00
 1492              		.weak	_ZTv0_n24_N8UnitTest15MemoryOutStreamD1Ev
 1494              	_ZTv0_n24_N8UnitTest15MemoryOutStreamD1Ev:
 1495              	.LFB1368:
 1496              		.cfi_startproc
 1497 00c0 F30F1EFA 		endbr64
 1498 00c4 55       		pushq	%rbp
 1499              		.cfi_def_cfa_offset 16
 1500              		.cfi_offset 6, -16
 1501 00c5 53       		pushq	%rbx
 1502              		.cfi_def_cfa_offset 24
 1503              		.cfi_offset 3, -24
 1504 00c6 4889FB   		movq	%rdi, %rbx
 1505 00c9 4883EC08 		subq	$8, %rsp
 1506              		.cfi_def_cfa_offset 32
 1507 00cd 488B07   		movq	(%rdi), %rax
 1508 00d0 480358E8 		addq	-24(%rax), %rbx
 1509 00d4 488D0500 		leaq	24+_ZTVN8UnitTest15MemoryOutStreamE(%rip), %rax
 1509      000000
 1510 00db 488903   		movq	%rax, (%rbx)
 1511 00de 488B7B70 		movq	112(%rbx), %rdi
 1512 00e2 4883C028 		addq	$40, %rax
 1513 00e6 48898390 		movq	%rax, 144(%rbx)
 1513      000000
 1514 00ed 488D8380 		leaq	128(%rbx), %rax
 1514      000000
 1515 00f4 4839C7   		cmpq	%rax, %rdi
 1516 00f7 7405     		je	.L77
 1517 00f9 E8000000 		call	_ZdlPv@PLT
 1517      00
 1518              	.L77:
 1519 00fe 488D0500 		leaq	64+_ZTCN8UnitTest15MemoryOutStreamE0_NSt7__cxx1119basic_ostringstreamIcSt11char_traitsIcESaIc
 1519      000000
 1520 0105 488D1500 		leaq	24+_ZTCN8UnitTest15MemoryOutStreamE0_NSt7__cxx1119basic_ostringstreamIcSt11char_traitsIcESaIc
 1520      000000
 1521 010c 488B7B50 		movq	80(%rbx), %rdi
 1522 0110 48898390 		movq	%rax, 144(%rbx)
 1522      000000
 1523 0117 488D0500 		leaq	16+_ZTVNSt7__cxx1115basic_stringbufIcSt11char_traitsIcESaIcEEE(%rip), %rax
 1523      000000
 1524 011e 66480F6E 		movq	%rdx, %xmm0
 1524      C2
 1525 0123 488DAB90 		leaq	144(%rbx), %rbp
 1525      000000
 1526 012a 66480F6E 		movq	%rax, %xmm1
 1526      C8
 1527 012f 488D4360 		leaq	96(%rbx), %rax
 1528 0133 660F6CC1 		punpcklqdq	%xmm1, %xmm0
 1529 0137 0F1103   		movups	%xmm0, (%rbx)
 1530 013a 4839C7   		cmpq	%rax, %rdi
 1531 013d 7405     		je	.L78
 1532 013f E8000000 		call	_ZdlPv@PLT
 1532      00
 1533              	.L78:
 1534 0144 488D0500 		leaq	16+_ZTVSt15basic_streambufIcSt11char_traitsIcEE(%rip), %rax
 1534      000000
 1535 014b 488D7B40 		leaq	64(%rbx), %rdi
 1536 014f 48894308 		movq	%rax, 8(%rbx)
 1537 0153 E8000000 		call	_ZNSt6localeD1Ev@PLT
 1537      00
 1538 0158 488D0500 		leaq	24+_ZTCN8UnitTest15MemoryOutStreamE0_So(%rip), %rax
 1538      000000
 1539 015f 4889EF   		movq	%rbp, %rdi
 1540 0162 488903   		movq	%rax, (%rbx)
 1541 0165 488D0500 		leaq	16+_ZTVSt9basic_iosIcSt11char_traitsIcEE(%rip), %rax
 1541      000000
 1542 016c 48898390 		movq	%rax, 144(%rbx)
 1542      000000
 1543 0173 4883C408 		addq	$8, %rsp
 1544              		.cfi_def_cfa_offset 24
 1545 0177 5B       		popq	%rbx
 1546              		.cfi_def_cfa_offset 16
 1547 0178 5D       		popq	%rbp
 1548              		.cfi_def_cfa_offset 8
 1549 0179 E9000000 		jmp	_ZNSt8ios_baseD2Ev@PLT
 1549      00
 1550              		.cfi_endproc
 1551              	.LFE1368:
 1553              		.section	.text._ZN8UnitTest15MemoryOutStreamD0Ev,"axG",@progbits,_ZN8UnitTest15MemoryOutStreamD0Ev
 1554              		.align 2
 1555              		.p2align 4
 1556              		.weak	_ZN8UnitTest15MemoryOutStreamD0Ev
 1558              	_ZN8UnitTest15MemoryOutStreamD0Ev:
 1559              	.LFB1267:
 1560              		.cfi_startproc
 1561              		.cfi_personality 0x9b,DW.ref.__gxx_personality_v0
 1562              		.cfi_lsda 0x1b,.LLSDA1267
 1563 0000 F30F1EFA 		endbr64
 1564 0004 4154     		pushq	%r12
 1565              		.cfi_def_cfa_offset 16
 1566              		.cfi_offset 12, -16
 1567 0006 488D0500 		leaq	24+_ZTVN8UnitTest15MemoryOutStreamE(%rip), %rax
 1567      000000
 1568 000d 55       		pushq	%rbp
 1569              		.cfi_def_cfa_offset 24
 1570              		.cfi_offset 6, -24
 1571 000e 4889FD   		movq	%rdi, %rbp
 1572 0011 4883EC08 		subq	$8, %rsp
 1573              		.cfi_def_cfa_offset 32
 1574 0015 488907   		movq	%rax, (%rdi)
 1575 0018 4883C028 		addq	$40, %rax
 1576 001c 48898790 		movq	%rax, 144(%rdi)
 1576      000000
 1577 0023 488B7F70 		movq	112(%rdi), %rdi
 1578 0027 488D8580 		leaq	128(%rbp), %rax
 1578      000000
 1579 002e 4839C7   		cmpq	%rax, %rdi
 1580 0031 7405     		je	.L81
 1581 0033 E8000000 		call	_ZdlPv@PLT
 1581      00
 1582              	.L81:
 1583 0038 488D0500 		leaq	64+_ZTCN8UnitTest15MemoryOutStreamE0_NSt7__cxx1119basic_ostringstreamIcSt11char_traitsIcESaIc
 1583      000000
 1584 003f 488D1500 		leaq	24+_ZTCN8UnitTest15MemoryOutStreamE0_NSt7__cxx1119basic_ostringstreamIcSt11char_traitsIcESaIc
 1584      000000
 1585 0046 488B7D50 		movq	80(%rbp), %rdi
 1586 004a 48898590 		movq	%rax, 144(%rbp)
 1586      000000
 1587 0051 488D0500 		leaq	16+_ZTVNSt7__cxx1115basic_stringbufIcSt11char_traitsIcESaIcEEE(%rip), %rax
 1587      000000
 1588 0058 66480F6E 		movq	%rdx, %xmm0
 1588      C2
 1589 005d 4C8DA590 		leaq	144(%rbp), %r12
 1589      000000
 1590 0064 66480F6E 		movq	%rax, %xmm1
 1590      C8
 1591 0069 488D4560 		leaq	96(%rbp), %rax
 1592 006d 660F6CC1 		punpcklqdq	%xmm1, %xmm0
 1593 0071 0F114500 		movups	%xmm0, 0(%rbp)
 1594 0075 4839C7   		cmpq	%rax, %rdi
 1595 0078 7405     		je	.L82
 1596 007a E8000000 		call	_ZdlPv@PLT
 1596      00
 1597              	.L82:
 1598 007f 488D0500 		leaq	16+_ZTVSt15basic_streambufIcSt11char_traitsIcEE(%rip), %rax
 1598      000000
 1599 0086 488D7D40 		leaq	64(%rbp), %rdi
 1600 008a 48894508 		movq	%rax, 8(%rbp)
 1601 008e E8000000 		call	_ZNSt6localeD1Ev@PLT
 1601      00
 1602 0093 488D0500 		leaq	24+_ZTCN8UnitTest15MemoryOutStreamE0_So(%rip), %rax
 1602      000000
 1603 009a 4C89E7   		movq	%r12, %rdi
 1604 009d 48894500 		movq	%rax, 0(%rbp)
 1605 00a1 488D0500 		leaq	16+_ZTVSt9basic_iosIcSt11char_traitsIcEE(%rip), %rax
 1605      000000
 1606 00a8 48898590 		movq	%rax, 144(%rbp)
 1606      000000
 1607              	.LEHB26:
 1608 00af E8000000 		call	_ZNSt8ios_baseD2Ev@PLT
 1608      00
 1609              	.LEHE26:
 1610 00b4 4883C408 		addq	$8, %rsp
 1611              		.cfi_remember_state
 1612              		.cfi_def_cfa_offset 24
 1613 00b8 4889EF   		movq	%rbp, %rdi
 1614 00bb 5D       		popq	%rbp
 1615              		.cfi_def_cfa_offset 16
 1616 00bc 415C     		popq	%r12
 1617              		.cfi_def_cfa_offset 8
 1618 00be E9000000 		jmp	_ZdlPv@PLT
 1618      00
 1619              	.L84:
 1620              		.cfi_restore_state
 1621 00c3 F30F1EFA 		endbr64
 1622 00c7 4989C4   		movq	%rax, %r12
 1623              	.L83:
 1624 00ca 4889EF   		movq	%rbp, %rdi
 1625 00cd E8000000 		call	_ZdlPv@PLT
 1625      00
 1626 00d2 4C89E7   		movq	%r12, %rdi
 1627              	.LEHB27:
 1628 00d5 E8000000 		call	_Unwind_Resume@PLT
 1628      00
 1629              	.LEHE27:
 1630              		.cfi_endproc
 1631              	.LFE1267:
 1632              		.section	.gcc_except_table
 1633              	.LLSDA1267:
 1634 00d8 FF       		.byte	0xff
 1635 00d9 FF       		.byte	0xff
 1636 00da 01       		.byte	0x1
 1637 00db 0B       		.uleb128 .LLSDACSE1267-.LLSDACSB1267
 1638              	.LLSDACSB1267:
 1639 00dc AF01     		.uleb128 .LEHB26-.LFB1267
 1640 00de 05       		.uleb128 .LEHE26-.LEHB26
 1641 00df C301     		.uleb128 .L84-.LFB1267
 1642 00e1 00       		.uleb128 0
 1643 00e2 D501     		.uleb128 .LEHB27-.LFB1267
 1644 00e4 05       		.uleb128 .LEHE27-.LEHB27
 1645 00e5 00       		.uleb128 0
 1646 00e6 00       		.uleb128 0
 1647              	.LLSDACSE1267:
 1648              		.section	.text._ZN8UnitTest15MemoryOutStreamD0Ev,"axG",@progbits,_ZN8UnitTest15MemoryOutStreamD0Ev
 1650 00da 660F1F44 		.p2align 4
 1650      0000
 1651              		.weak	_ZTv0_n24_N8UnitTest15MemoryOutStreamD0Ev
 1653              	_ZTv0_n24_N8UnitTest15MemoryOutStreamD0Ev:
 1654              	.LFB1367:
 1655              		.cfi_startproc
 1656              		.cfi_personality 0x9b,DW.ref.__gxx_personality_v0
 1657              		.cfi_lsda 0x1b,.LLSDA1367
 1658 00e0 F30F1EFA 		endbr64
 1659 00e4 4154     		pushq	%r12
 1660              		.cfi_def_cfa_offset 16
 1661              		.cfi_offset 12, -16
 1662 00e6 55       		pushq	%rbp
 1663              		.cfi_def_cfa_offset 24
 1664              		.cfi_offset 6, -24
 1665 00e7 4889FD   		movq	%rdi, %rbp
 1666 00ea 4883EC08 		subq	$8, %rsp
 1667              		.cfi_def_cfa_offset 32
 1668 00ee 488B07   		movq	(%rdi), %rax
 1669 00f1 480368E8 		addq	-24(%rax), %rbp
 1670 00f5 488D0500 		leaq	24+_ZTVN8UnitTest15MemoryOutStreamE(%rip), %rax
 1670      000000
 1671 00fc 48894500 		movq	%rax, 0(%rbp)
 1672 0100 488B7D70 		movq	112(%rbp), %rdi
 1673 0104 4883C028 		addq	$40, %rax
 1674 0108 48898590 		movq	%rax, 144(%rbp)
 1674      000000
 1675 010f 488D8580 		leaq	128(%rbp), %rax
 1675      000000
 1676 0116 4839C7   		cmpq	%rax, %rdi
 1677 0119 7405     		je	.L87
 1678 011b E8000000 		call	_ZdlPv@PLT
 1678      00
 1679              	.L87:
 1680 0120 488D0500 		leaq	64+_ZTCN8UnitTest15MemoryOutStreamE0_NSt7__cxx1119basic_ostringstreamIcSt11char_traitsIcESaIc
 1680      000000
 1681 0127 488D1500 		leaq	24+_ZTCN8UnitTest15MemoryOutStreamE0_NSt7__cxx1119basic_ostringstreamIcSt11char_traitsIcESaIc
 1681      000000
 1682 012e 488B7D50 		movq	80(%rbp), %rdi
 1683 0132 48898590 		movq	%rax, 144(%rbp)
 1683      000000
 1684 0139 488D0500 		leaq	16+_ZTVNSt7__cxx1115basic_stringbufIcSt11char_traitsIcESaIcEEE(%rip), %rax
 1684      000000
 1685 0140 66480F6E 		movq	%rdx, %xmm0
 1685      C2
 1686 0145 4C8DA590 		leaq	144(%rbp), %r12
 1686      000000
 1687 014c 66480F6E 		movq	%rax, %xmm1
 1687      C8
 1688 0151 488D4560 		leaq	96(%rbp), %rax
 1689 0155 660F6CC1 		punpcklqdq	%xmm1, %xmm0
 1690 0159 0F114500 		movups	%xmm0, 0(%rbp)
 1691 015d 4839C7   		cmpq	%rax, %rdi
 1692 0160 7405     		je	.L88
 1693 0162 E8000000 		call	_ZdlPv@PLT
 1693      00
 1694              	.L88:
 1695 0167 488D0500 		leaq	16+_ZTVSt15basic_streambufIcSt11char_traitsIcEE(%rip), %rax
 1695      000000
 1696 016e 488D7D40 		leaq	64(%rbp), %rdi
 1697 0172 48894508 		movq	%rax, 8(%rbp)
 1698 0176 E8000000 		call	_ZNSt6localeD1Ev@PLT
 1698      00
 1699 017b 488D0500 		leaq	24+_ZTCN8UnitTest15MemoryOutStreamE0_So(%rip), %rax
 1699      000000
 1700 0182 4C89E7   		movq	%r12, %rdi
 1701 0185 48894500 		movq	%rax, 0(%rbp)
 1702 0189 488D0500 		leaq	16+_ZTVSt9basic_iosIcSt11char_traitsIcEE(%rip), %rax
 1702      000000
 1703 0190 48898590 		movq	%rax, 144(%rbp)
 1703      000000
 1704              	.LEHB28:
 1705 0197 E8000000 		call	_ZNSt8ios_baseD2Ev@PLT
 1705      00
 1706              	.LEHE28:
 1707 019c 4883C408 		addq	$8, %rsp
 1708              		.cfi_remember_state
 1709              		.cfi_def_cfa_offset 24
 1710 01a0 4889EF   		movq	%rbp, %rdi
 1711 01a3 5D       		popq	%rbp
 1712              		.cfi_def_cfa_offset 16
 1713 01a4 415C     		popq	%r12
 1714              		.cfi_def_cfa_offset 8
 1715 01a6 E9000000 		jmp	_ZdlPv@PLT
 1715      00
 1716              	.L90:
 1717              		.cfi_restore_state
 1718 01ab F30F1EFA 		endbr64
 1719 01af 4989C4   		movq	%rax, %r12
 1720              	.L89:
 1721 01b2 4889EF   		movq	%rbp, %rdi
 1722 01b5 E8000000 		call	_ZdlPv@PLT
 1722      00
 1723 01ba 4C89E7   		movq	%r12, %rdi
 1724              	.LEHB29:
 1725 01bd E8000000 		call	_Unwind_Resume@PLT
 1725      00
 1726              	.LEHE29:
 1727              		.cfi_endproc
 1728              	.LFE1367:
 1729              		.section	.gcc_except_table
 1730              	.LLSDA1367:
 1731 00e7 FF       		.byte	0xff
 1732 00e8 FF       		.byte	0xff
 1733 00e9 01       		.byte	0x1
 1734 00ea 0B       		.uleb128 .LLSDACSE1367-.LLSDACSB1367
 1735              	.LLSDACSB1367:
 1736 00eb B701     		.uleb128 .LEHB28-.LFB1367
 1737 00ed 05       		.uleb128 .LEHE28-.LEHB28
 1738 00ee CB01     		.uleb128 .L90-.LFB1367
 1739 00f0 00       		.uleb128 0
 1740 00f1 DD01     		.uleb128 .LEHB29-.LFB1367
 1741 00f3 05       		.uleb128 .LEHE29-.LEHB29
 1742 00f4 00       		.uleb128 0
 1743 00f5 00       		.uleb128 0
 1744              	.LLSDACSE1367:
 1745              		.section	.text._ZN8UnitTest15MemoryOutStreamD0Ev,"axG",@progbits,_ZN8UnitTest15MemoryOutStreamD0Ev
 1747              		.section	.text._ZN17ScopedCurrentTestD2Ev,"axG",@progbits,_ZN17ScopedCurrentTestD5Ev,comdat
 1748              		.align 2
 1749              		.p2align 4
 1750              		.weak	_ZN17ScopedCurrentTestD2Ev
 1752              	_ZN17ScopedCurrentTestD2Ev:
 1753              	.LFB1188:
 1754              		.cfi_startproc
 1755 0000 F30F1EFA 		endbr64
 1756 0004 53       		pushq	%rbx
 1757              		.cfi_def_cfa_offset 16
 1758              		.cfi_offset 3, -16
 1759 0005 4889FB   		movq	%rdi, %rbx
 1760 0008 E8000000 		call	_ZN8UnitTest11CurrentTest7ResultsEv@PLT
 1760      00
 1761 000d 488B13   		movq	(%rbx), %rdx
 1762 0010 488910   		movq	%rdx, (%rax)
 1763 0013 E8000000 		call	_ZN8UnitTest11CurrentTest7DetailsEv@PLT
 1763      00
 1764 0018 488B5308 		movq	8(%rbx), %rdx
 1765 001c 488910   		movq	%rdx, (%rax)
 1766 001f 5B       		popq	%rbx
 1767              		.cfi_def_cfa_offset 8
 1768 0020 C3       		ret
 1769              		.cfi_endproc
 1770              	.LFE1188:
 1772              		.weak	_ZN17ScopedCurrentTestD1Ev
 1773              		.set	_ZN17ScopedCurrentTestD1Ev,_ZN17ScopedCurrentTestD2Ev
 1774              		.section	.rodata._ZN8UnitTest10CheckEqualIiiEEvRNS_11TestResultsERKT_RKT0_RKNS_11TestDetailsE.str1
 1775              	.LC15:
 1776 0000 45787065 		.string	"Expected "
 1776      63746564 
 1776      2000
 1777              	.LC16:
 1778 000a 20627574 		.string	" but was "
 1778      20776173 
 1778      2000
 1779              		.section	.text._ZN8UnitTest10CheckEqualIiiEEvRNS_11TestResultsERKT_RKT0_RKNS_11TestDetailsE,"axG",
 1780              		.p2align 4
 1781              		.weak	_ZN8UnitTest10CheckEqualIiiEEvRNS_11TestResultsERKT_RKT0_RKNS_11TestDetailsE
 1783              	_ZN8UnitTest10CheckEqualIiiEEvRNS_11TestResultsERKT_RKT0_RKNS_11TestDetailsE:
 1784              	.LFB1263:
 1785              		.cfi_startproc
 1786              		.cfi_personality 0x9b,DW.ref.__gxx_personality_v0
 1787              		.cfi_lsda 0x1b,.LLSDA1263
 1788 0000 F30F1EFA 		endbr64
 1789 0004 4157     		pushq	%r15
 1790              		.cfi_def_cfa_offset 16
 1791              		.cfi_offset 15, -16
 1792 0006 4156     		pushq	%r14
 1793              		.cfi_def_cfa_offset 24
 1794              		.cfi_offset 14, -24
 1795 0008 4155     		pushq	%r13
 1796              		.cfi_def_cfa_offset 32
 1797              		.cfi_offset 13, -32
 1798 000a 4154     		pushq	%r12
 1799              		.cfi_def_cfa_offset 40
 1800              		.cfi_offset 12, -40
 1801 000c 55       		pushq	%rbp
 1802              		.cfi_def_cfa_offset 48
 1803              		.cfi_offset 6, -48
 1804 000d 53       		pushq	%rbx
 1805              		.cfi_def_cfa_offset 56
 1806              		.cfi_offset 3, -56
 1807 000e 4881ECD8 		subq	$472, %rsp
 1807      010000
 1808              		.cfi_def_cfa_offset 528
 1809 0015 F30F7E0D 		movq	.LC17(%rip), %xmm1
 1809      00000000 
 1810 001d 48897C24 		movq	%rdi, 32(%rsp)
 1810      20
 1811 0022 0F160D00 		movhps	.LC18(%rip), %xmm1
 1811      000000
 1812 0029 64488B04 		movq	%fs:40, %rax
 1812      25280000 
 1812      00
 1813 0032 48898424 		movq	%rax, 456(%rsp)
 1813      C8010000 
 1814 003a 31C0     		xorl	%eax, %eax
 1815 003c 8B02     		movl	(%rdx), %eax
 1816 003e 0F290C24 		movaps	%xmm1, (%rsp)
 1817 0042 3906     		cmpl	%eax, (%rsi)
 1818 0044 752A     		jne	.L111
 1819              	.L94:
 1820 0046 488B8424 		movq	456(%rsp), %rax
 1820      C8010000 
 1821 004e 64482B04 		subq	%fs:40, %rax
 1821      25280000 
 1821      00
 1822 0057 0F854A02 		jne	.L112
 1822      0000
 1823 005d 4881C4D8 		addq	$472, %rsp
 1823      010000
 1824              		.cfi_remember_state
 1825              		.cfi_def_cfa_offset 56
 1826 0064 5B       		popq	%rbx
 1827              		.cfi_def_cfa_offset 48
 1828 0065 5D       		popq	%rbp
 1829              		.cfi_def_cfa_offset 40
 1830 0066 415C     		popq	%r12
 1831              		.cfi_def_cfa_offset 32
 1832 0068 415D     		popq	%r13
 1833              		.cfi_def_cfa_offset 24
 1834 006a 415E     		popq	%r14
 1835              		.cfi_def_cfa_offset 16
 1836 006c 415F     		popq	%r15
 1837              		.cfi_def_cfa_offset 8
 1838 006e C3       		ret
 1839 006f 90       		.p2align 4,,10
 1840              		.p2align 3
 1841              	.L111:
 1842              		.cfi_restore_state
 1843 0070 4C8DB424 		leaq	192(%rsp), %r14
 1843      C0000000 
 1844 0078 4889F5   		movq	%rsi, %rbp
 1845 007b 4889D3   		movq	%rdx, %rbx
 1846 007e 4989CC   		movq	%rcx, %r12
 1847 0081 4C89F7   		movq	%r14, %rdi
 1848 0084 E8000000 		call	_ZNSt8ios_baseC2Ev@PLT
 1848      00
 1849 0089 31C0     		xorl	%eax, %eax
 1850 008b 660FEFC0 		pxor	%xmm0, %xmm0
 1851 008f 31F6     		xorl	%esi, %esi
 1852 0091 66898424 		movw	%ax, 416(%rsp)
 1852      A0010000 
 1853 0099 488D0500 		leaq	24+_ZTCN8UnitTest15MemoryOutStreamE0_So(%rip), %rax
 1853      000000
 1854 00a0 4C89F7   		movq	%r14, %rdi
 1855 00a3 48894424 		movq	%rax, 48(%rsp)
 1855      30
 1856 00a8 4883C028 		addq	$40, %rax
 1857 00ac 48C78424 		movq	$0, 408(%rsp)
 1857      98010000 
 1857      00000000 
 1858 00b8 48898424 		movq	%rax, 192(%rsp)
 1858      C0000000 
 1859 00c0 0F118424 		movups	%xmm0, 424(%rsp)
 1859      A8010000 
 1860 00c8 0F118424 		movups	%xmm0, 440(%rsp)
 1860      B8010000 
 1861              	.LEHB30:
 1862 00d0 E8000000 		call	_ZNSt9basic_iosIcSt11char_traitsIcEE4initEPSt15basic_streambufIcS1_E@PLT
 1862      00
 1863              	.LEHE30:
 1864 00d5 660F6F0C 		movdqa	(%rsp), %xmm1
 1864      24
 1865 00da 4C8D7C24 		leaq	112(%rsp), %r15
 1865      70
 1866 00df 660FEFC0 		pxor	%xmm0, %xmm0
 1867 00e3 488D0500 		leaq	64+_ZTCN8UnitTest15MemoryOutStreamE0_NSt7__cxx1119basic_ostringstreamIcSt11char_traitsIcESaIc
 1867      000000
 1868 00ea 4C89FF   		movq	%r15, %rdi
 1869 00ed 0F294424 		movaps	%xmm0, 64(%rsp)
 1869      40
 1870 00f2 4C8D6C24 		leaq	48(%rsp), %r13
 1870      30
 1871 00f7 48898424 		movq	%rax, 192(%rsp)
 1871      C0000000 
 1872 00ff 0F294C24 		movaps	%xmm1, 48(%rsp)
 1872      30
 1873 0104 0F294424 		movaps	%xmm0, 80(%rsp)
 1873      50
 1874 0109 0F294424 		movaps	%xmm0, 96(%rsp)
 1874      60
 1875 010e E8000000 		call	_ZNSt6localeC1Ev@PLT
 1875      00
 1876 0113 488D0500 		leaq	16+_ZTVNSt7__cxx1115basic_stringbufIcSt11char_traitsIcESaIcEEE(%rip), %rax
 1876      000000
 1877 011a 48C78424 		movq	$0, 136(%rsp)
 1877      88000000 
 1877      00000000 
 1878 0126 488D7424 		leaq	56(%rsp), %rsi
 1878      38
 1879 012b 48894424 		movq	%rax, 56(%rsp)
 1879      38
 1880 0130 488D8424 		leaq	144(%rsp), %rax
 1880      90000000 
 1881 0138 48890424 		movq	%rax, (%rsp)
 1882 013c 48898424 		movq	%rax, 128(%rsp)
 1882      80000000 
 1883 0144 488B4424 		movq	48(%rsp), %rax
 1883      30
 1884 0149 C6842490 		movb	$0, 144(%rsp)
 1884      00000000 
 1885 0151 488B78E8 		movq	-24(%rax), %rdi
 1886 0155 C7442478 		movl	$16, 120(%rsp)
 1886      10000000 
 1887 015d 4C01EF   		addq	%r13, %rdi
 1888              	.LEHB31:
 1889 0160 E8000000 		call	_ZNSt9basic_iosIcSt11char_traitsIcEE4initEPSt15basic_streambufIcS1_E@PLT
 1889      00
 1890              	.LEHE31:
 1891 0165 488D0500 		leaq	24+_ZTVN8UnitTest15MemoryOutStreamE(%rip), %rax
 1891      000000
 1892 016c BA090000 		movl	$9, %edx
 1892      00
 1893 0171 4C89EF   		movq	%r13, %rdi
 1894 0174 48C78424 		movq	$0, 168(%rsp)
 1894      A8000000 
 1894      00000000 
 1895 0180 48894424 		movq	%rax, 48(%rsp)
 1895      30
 1896 0185 4883C028 		addq	$40, %rax
 1897 0189 488D3500 		leaq	.LC15(%rip), %rsi
 1897      000000
 1898 0190 48898424 		movq	%rax, 192(%rsp)
 1898      C0000000 
 1899 0198 488D8424 		leaq	176(%rsp), %rax
 1899      B0000000 
 1900 01a0 48894424 		movq	%rax, 40(%rsp)
 1900      28
 1901 01a5 48898424 		movq	%rax, 160(%rsp)
 1901      A0000000 
 1902 01ad C68424B0 		movb	$0, 176(%rsp)
 1902      00000000 
 1903              	.LEHB32:
 1904 01b5 E8000000 		call	_ZSt16__ostream_insertIcSt11char_traitsIcEERSt13basic_ostreamIT_T0_ES6_PKS3_l@PLT
 1904      00
 1905 01ba 8B7500   		movl	0(%rbp), %esi
 1906 01bd 4C89EF   		movq	%r13, %rdi
 1907 01c0 E8000000 		call	_ZNSolsEi@PLT
 1907      00
 1908 01c5 BA090000 		movl	$9, %edx
 1908      00
 1909 01ca 488D3500 		leaq	.LC16(%rip), %rsi
 1909      000000
 1910 01d1 4889C7   		movq	%rax, %rdi
 1911 01d4 4889C5   		movq	%rax, %rbp
 1912 01d7 E8000000 		call	_ZSt16__ostream_insertIcSt11char_traitsIcEERSt13basic_ostreamIT_T0_ES6_PKS3_l@PLT
 1912      00
 1913 01dc 8B33     		movl	(%rbx), %esi
 1914 01de 4889EF   		movq	%rbp, %rdi
 1915 01e1 E8000000 		call	_ZNSolsEi@PLT
 1915      00
 1916 01e6 4C89EF   		movq	%r13, %rdi
 1917 01e9 E8000000 		call	_ZNK8UnitTest15MemoryOutStream7GetTextEv@PLT
 1917      00
 1918 01ee F30F7E15 		movq	.LC17(%rip), %xmm2
 1918      00000000 
 1919 01f6 488B7C24 		movq	32(%rsp), %rdi
 1919      20
 1920 01fb 4889C2   		movq	%rax, %rdx
 1921 01fe 4C89E6   		movq	%r12, %rsi
 1922 0201 0F161500 		movhps	.LC19(%rip), %xmm2
 1922      000000
 1923 0208 0F295424 		movaps	%xmm2, 16(%rsp)
 1923      10
 1924 020d E8000000 		call	_ZN8UnitTest11TestResults13OnTestFailureERKNS_11TestDetailsEPKc@PLT
 1924      00
 1925              	.LEHE32:
 1926 0212 488D0500 		leaq	24+_ZTVN8UnitTest15MemoryOutStreamE(%rip), %rax
 1926      000000
 1927 0219 488BBC24 		movq	160(%rsp), %rdi
 1927      A0000000 
 1928 0221 48894424 		movq	%rax, 48(%rsp)
 1928      30
 1929 0226 4883C028 		addq	$40, %rax
 1930 022a 48898424 		movq	%rax, 192(%rsp)
 1930      C0000000 
 1931 0232 483B7C24 		cmpq	40(%rsp), %rdi
 1931      28
 1932 0237 7405     		je	.L101
 1933 0239 E8000000 		call	_ZdlPv@PLT
 1933      00
 1934              	.L101:
 1935 023e 660F6F5C 		movdqa	16(%rsp), %xmm3
 1935      2410
 1936 0244 488D0500 		leaq	64+_ZTCN8UnitTest15MemoryOutStreamE0_NSt7__cxx1119basic_ostringstreamIcSt11char_traitsIcESaIc
 1936      000000
 1937 024b 488BBC24 		movq	128(%rsp), %rdi
 1937      80000000 
 1938 0253 48898424 		movq	%rax, 192(%rsp)
 1938      C0000000 
 1939 025b 0F295C24 		movaps	%xmm3, 48(%rsp)
 1939      30
 1940 0260 483B3C24 		cmpq	(%rsp), %rdi
 1941 0264 7405     		je	.L102
 1942 0266 E8000000 		call	_ZdlPv@PLT
 1942      00
 1943              	.L102:
 1944 026b 488D0500 		leaq	16+_ZTVSt15basic_streambufIcSt11char_traitsIcEE(%rip), %rax
 1944      000000
 1945 0272 4C89FF   		movq	%r15, %rdi
 1946 0275 48894424 		movq	%rax, 56(%rsp)
 1946      38
 1947 027a E8000000 		call	_ZNSt6localeD1Ev@PLT
 1947      00
 1948 027f 488D0500 		leaq	24+_ZTCN8UnitTest15MemoryOutStreamE0_So(%rip), %rax
 1948      000000
 1949 0286 4C89F7   		movq	%r14, %rdi
 1950 0289 48894424 		movq	%rax, 48(%rsp)
 1950      30
 1951 028e 488D0500 		leaq	16+_ZTVSt9basic_iosIcSt11char_traitsIcEE(%rip), %rax
 1951      000000
 1952 0295 48898424 		movq	%rax, 192(%rsp)
 1952      C0000000 
 1953              	.LEHB33:
 1954 029d E8000000 		call	_ZNSt8ios_baseD2Ev@PLT
 1954      00
 1955              	.LEHE33:
 1956 02a2 E99FFDFF 		jmp	.L94
 1956      FF
 1957              	.L112:
 1958 02a7 E8000000 		call	__stack_chk_fail@PLT
 1958      00
 1959              	.L106:
 1960 02ac F30F1EFA 		endbr64
 1961 02b0 4889C3   		movq	%rax, %rbx
 1962 02b3 EB4C     		jmp	.L99
 1963              	.L107:
 1964 02b5 F30F1EFA 		endbr64
 1965 02b9 4889C3   		movq	%rax, %rbx
 1966 02bc EB09     		jmp	.L97
 1967              	.L105:
 1968 02be F30F1EFA 		endbr64
 1969 02c2 4889C5   		movq	%rax, %rbp
 1970 02c5 EB59     		jmp	.L103
 1971              	.L97:
 1972 02c7 488D0500 		leaq	16+_ZTVNSt7__cxx1115basic_stringbufIcSt11char_traitsIcESaIcEEE(%rip), %rax
 1972      000000
 1973 02ce 488BBC24 		movq	128(%rsp), %rdi
 1973      80000000 
 1974 02d6 48894424 		movq	%rax, 56(%rsp)
 1974      38
 1975 02db 483B3C24 		cmpq	(%rsp), %rdi
 1976 02df 754F     		jne	.L113
 1977              	.L98:
 1978 02e1 488D0500 		leaq	16+_ZTVSt15basic_streambufIcSt11char_traitsIcEE(%rip), %rax
 1978      000000
 1979 02e8 4C89FF   		movq	%r15, %rdi
 1980 02eb 48894424 		movq	%rax, 56(%rsp)
 1980      38
 1981 02f0 E8000000 		call	_ZNSt6localeD1Ev@PLT
 1981      00
 1982 02f5 488D0500 		leaq	24+_ZTCN8UnitTest15MemoryOutStreamE0_So(%rip), %rax
 1982      000000
 1983 02fc 48894424 		movq	%rax, 48(%rsp)
 1983      30
 1984              	.L99:
 1985 0301 488D0500 		leaq	16+_ZTVSt9basic_iosIcSt11char_traitsIcEE(%rip), %rax
 1985      000000
 1986 0308 4C89F7   		movq	%r14, %rdi
 1987 030b 48898424 		movq	%rax, 192(%rsp)
 1987      C0000000 
 1988 0313 E8000000 		call	_ZNSt8ios_baseD2Ev@PLT
 1988      00
 1989 0318 4889DF   		movq	%rbx, %rdi
 1990              	.LEHB34:
 1991 031b E8000000 		call	_Unwind_Resume@PLT
 1991      00
 1992              	.LEHE34:
 1993              	.L103:
 1994 0320 4C89EF   		movq	%r13, %rdi
 1995 0323 E8000000 		call	_ZN8UnitTest15MemoryOutStreamD1Ev
 1995      00
 1996 0328 4889EF   		movq	%rbp, %rdi
 1997              	.LEHB35:
 1998 032b E8000000 		call	_Unwind_Resume@PLT
 1998      00
 1999              	.LEHE35:
 2000              	.L113:
 2001 0330 E8000000 		call	_ZdlPv@PLT
 2001      00
 2002 0335 EBAA     		jmp	.L98
 2003              		.cfi_endproc
 2004              	.LFE1263:
 2005              		.section	.gcc_except_table
 2006              	.LLSDA1263:
 2007 00f6 FF       		.byte	0xff
 2008 00f7 FF       		.byte	0xff
 2009 00f8 01       		.byte	0x1
 2010 00f9 21       		.uleb128 .LLSDACSE1263-.LLSDACSB1263
 2011              	.LLSDACSB1263:
 2012 00fa D001     		.uleb128 .LEHB30-.LFB1263
 2013 00fc 05       		.uleb128 .LEHE30-.LEHB30
 2014 00fd AC05     		.uleb128 .L106-.LFB1263
 2015 00ff 00       		.uleb128 0
 2016 0100 E002     		.uleb128 .LEHB31-.LFB1263
 2017 0102 05       		.uleb128 .LEHE31-.LEHB31
 2018 0103 B505     		.uleb128 .L107-.LFB1263
 2019 0105 00       		.uleb128 0
 2020 0106 B503     		.uleb128 .LEHB32-.LFB1263
 2021 0108 5D       		.uleb128 .LEHE32-.LEHB32
 2022 0109 BE05     		.uleb128 .L105-.LFB1263
 2023 010b 00       		.uleb128 0
 2024 010c 9D05     		.uleb128 .LEHB33-.LFB1263
 2025 010e 05       		.uleb128 .LEHE33-.LEHB33
 2026 010f 00       		.uleb128 0
 2027 0110 00       		.uleb128 0
 2028 0111 9B06     		.uleb128 .LEHB34-.LFB1263
 2029 0113 05       		.uleb128 .LEHE34-.LEHB34
 2030 0114 00       		.uleb128 0
 2031 0115 00       		.uleb128 0
 2032 0116 AB06     		.uleb128 .LEHB35-.LFB1263
 2033 0118 05       		.uleb128 .LEHE35-.LEHB35
 2034 0119 00       		.uleb128 0
 2035 011a 00       		.uleb128 0
 2036              	.LLSDACSE1263:
 2037              		.section	.text._ZN8UnitTest10CheckEqualIiiEEvRNS_11TestResultsERKT_RKT0_RKNS_11TestDetailsE,"axG",
 2039              		.section	.rodata.str1.8
 2040 0024 00000000 		.align 8
 2041              	.LC20:
 2042 0028 556E6861 		.string	"Unhandled exception in CHECK_EQUAL(1, results.GetFailureCount())"
 2042      6E646C65 
 2042      64206578 
 2042      63657074 
 2042      696F6E20 
 2043              		.section	.text.unlikely
 2044              		.align 2
 2045              	.LCOLDB21:
 2046              		.text
 2047              	.LHOTB21:
 2048              		.align 2
 2049 04c8 0F1F8400 		.p2align 4
 2049      00000000 
 2051              	_ZNK12_GLOBAL__N_136TestOutOfCoreCHECKMacrosCanFailTests7RunImplEv:
 2052              	.LFB1234:
 2053              		.cfi_startproc
 2054              		.cfi_personality 0x9b,DW.ref.__gxx_personality_v0
 2055              		.cfi_lsda 0x1b,.LLSDA1234
 2056 04d0 F30F1EFA 		endbr64
 2057 04d4 4156     		pushq	%r14
 2058              		.cfi_def_cfa_offset 16
 2059              		.cfi_offset 14, -16
 2060 04d6 31F6     		xorl	%esi, %esi
 2061 04d8 4155     		pushq	%r13
 2062              		.cfi_def_cfa_offset 24
 2063              		.cfi_offset 13, -24
 2064 04da 4154     		pushq	%r12
 2065              		.cfi_def_cfa_offset 32
 2066              		.cfi_offset 12, -32
 2067 04dc 55       		pushq	%rbp
 2068              		.cfi_def_cfa_offset 40
 2069              		.cfi_offset 6, -40
 2070 04dd 53       		pushq	%rbx
 2071              		.cfi_def_cfa_offset 48
 2072              		.cfi_offset 3, -48
 2073 04de 4883EC70 		subq	$112, %rsp
 2074              		.cfi_def_cfa_offset 160
 2075 04e2 64488B04 		movq	%fs:40, %rax
 2075      25280000 
 2075      00
 2076 04eb 48894424 		movq	%rax, 104(%rsp)
 2076      68
 2077 04f0 31C0     		xorl	%eax, %eax
 2078 04f2 4C8D6424 		leaq	32(%rsp), %r12
 2078      20
 2079 04f7 4C89E7   		movq	%r12, %rdi
 2080              	.LEHB36:
 2081 04fa E8000000 		call	_ZN8UnitTest11TestResultsC1EPNS_12TestReporterE@PLT
 2081      00
 2082 04ff E8000000 		call	_ZN8UnitTest11CurrentTest7ResultsEv@PLT
 2082      00
 2083 0504 488B18   		movq	(%rax), %rbx
 2084 0507 48895C24 		movq	%rbx, 16(%rsp)
 2084      10
 2085 050c E8000000 		call	_ZN8UnitTest11CurrentTest7DetailsEv@PLT
 2085      00
 2086 0511 4C8B28   		movq	(%rax), %r13
 2087 0514 4C896C24 		movq	%r13, 24(%rsp)
 2087      18
 2088 0519 E8000000 		call	_ZN8UnitTest11CurrentTest7ResultsEv@PLT
 2088      00
 2089              	.LEHE36:
 2090 051e 4C8920   		movq	%r12, (%rax)
 2091              	.LEHB37:
 2092 0521 E8000000 		call	_ZN8UnitTest11CurrentTest7ResultsEv@PLT
 2092      00
 2093 0526 4C8B30   		movq	(%rax), %r14
 2094 0529 E8000000 		call	_ZN8UnitTest11CurrentTest7DetailsEv@PLT
 2094      00
 2095 052e 488D6C24 		leaq	64(%rsp), %rbp
 2095      40
 2096 0533 488B30   		movq	(%rax), %rsi
 2097 0536 BA760000 		movl	$118, %edx
 2097      00
 2098 053b 4889EF   		movq	%rbp, %rdi
 2099 053e E8000000 		call	_ZN8UnitTest11TestDetailsC1ERKS0_i@PLT
 2099      00
 2100 0543 488D1500 		leaq	.LC0(%rip), %rdx
 2100      000000
 2101 054a 4889EE   		movq	%rbp, %rsi
 2102 054d 4C89F7   		movq	%r14, %rdi
 2103 0550 E8000000 		call	_ZN8UnitTest11TestResults13OnTestFailureERKNS_11TestDetailsEPKc@PLT
 2103      00
 2104              	.LEHE37:
 2105              	.L117:
 2106              	.LEHB38:
 2107 0555 E8000000 		call	_ZN8UnitTest11CurrentTest7ResultsEv@PLT
 2107      00
 2108 055a 488918   		movq	%rbx, (%rax)
 2109 055d E8000000 		call	_ZN8UnitTest11CurrentTest7DetailsEv@PLT
 2109      00
 2110              	.LEHE38:
 2111 0562 4C8928   		movq	%r13, (%rax)
 2112              	.LEHB39:
 2113 0565 E8000000 		call	_ZN8UnitTest11CurrentTest7DetailsEv@PLT
 2113      00
 2114 056a 488B30   		movq	(%rax), %rsi
 2115 056d BA810000 		movl	$129, %edx
 2115      00
 2116 0572 4889EF   		movq	%rbp, %rdi
 2117 0575 E8000000 		call	_ZN8UnitTest11TestDetailsC1ERKS0_i@PLT
 2117      00
 2118 057a 4C89E7   		movq	%r12, %rdi
 2119 057d E8000000 		call	_ZNK8UnitTest11TestResults15GetFailureCountEv@PLT
 2119      00
 2120 0582 89442410 		movl	%eax, 16(%rsp)
 2121 0586 C744240C 		movl	$1, 12(%rsp)
 2121      01000000 
 2122 058e E8000000 		call	_ZN8UnitTest11CurrentTest7ResultsEv@PLT
 2122      00
 2123 0593 488B38   		movq	(%rax), %rdi
 2124 0596 488D5424 		leaq	16(%rsp), %rdx
 2124      10
 2125 059b 488D7424 		leaq	12(%rsp), %rsi
 2125      0C
 2126 05a0 4889E9   		movq	%rbp, %rcx
 2127 05a3 E8000000 		call	_ZN8UnitTest10CheckEqualIiiEEvRNS_11TestResultsERKT_RKT0_RKNS_11TestDetailsE
 2127      00
 2128              	.LEHE39:
 2129              	.L114:
 2130 05a8 488B4424 		movq	104(%rsp), %rax
 2130      68
 2131 05ad 64482B04 		subq	%fs:40, %rax
 2131      25280000 
 2131      00
 2132 05b6 750D     		jne	.L131
 2133 05b8 4883C470 		addq	$112, %rsp
 2134              		.cfi_remember_state
 2135              		.cfi_def_cfa_offset 48
 2136 05bc 5B       		popq	%rbx
 2137              		.cfi_def_cfa_offset 40
 2138 05bd 5D       		popq	%rbp
 2139              		.cfi_def_cfa_offset 32
 2140 05be 415C     		popq	%r12
 2141              		.cfi_def_cfa_offset 24
 2142 05c0 415D     		popq	%r13
 2143              		.cfi_def_cfa_offset 16
 2144 05c2 415E     		popq	%r14
 2145              		.cfi_def_cfa_offset 8
 2146 05c4 C3       		ret
 2147              	.L131:
 2148              		.cfi_restore_state
 2149 05c5 E8000000 		call	__stack_chk_fail@PLT
 2149      00
 2150              	.L125:
 2151 05ca F30F1EFA 		endbr64
 2152 05ce 4889C7   		movq	%rax, %rdi
 2153 05d1 E9000000 		jmp	.L120
 2153      00
 2154              	.L128:
 2155 05d6 F30F1EFA 		endbr64
 2156 05da 4889C7   		movq	%rax, %rdi
 2157 05dd E9000000 		jmp	.L116
 2157      00
 2158              		.section	.gcc_except_table
 2159 011b 00       		.align 4
 2160              	.LLSDA1234:
 2161 011c FF       		.byte	0xff
 2162 011d 9B       		.byte	0x9b
 2163 011e 1D       		.uleb128 .LLSDATT1234-.LLSDATTD1234
 2164              	.LLSDATTD1234:
 2165 011f 01       		.byte	0x1
 2166 0120 14       		.uleb128 .LLSDACSE1234-.LLSDACSB1234
 2167              	.LLSDACSB1234:
 2168 0121 2A       		.uleb128 .LEHB36-.LFB1234
 2169 0122 24       		.uleb128 .LEHE36-.LEHB36
 2170 0123 00       		.uleb128 0
 2171 0124 00       		.uleb128 0
 2172 0125 51       		.uleb128 .LEHB37-.LFB1234
 2173 0126 34       		.uleb128 .LEHE37-.LEHB37
 2174 0127 8602     		.uleb128 .L128-.LFB1234
 2175 0129 01       		.uleb128 0x1
 2176 012a 8501     		.uleb128 .LEHB38-.LFB1234
 2177 012c 0D       		.uleb128 .LEHE38-.LEHB38
 2178 012d 00       		.uleb128 0
 2179 012e 00       		.uleb128 0
 2180 012f 9501     		.uleb128 .LEHB39-.LFB1234
 2181 0131 43       		.uleb128 .LEHE39-.LEHB39
 2182 0132 FA01     		.uleb128 .L125-.LFB1234
 2183 0134 01       		.uleb128 0x1
 2184              	.LLSDACSE1234:
 2185 0135 01       		.byte	0x1
 2186 0136 00       		.byte	0
 2187 0137 00       		.align 4
 2188 0138 00000000 		.long	0
 2189              	
 2190              	.LLSDATT1234:
 2191              		.text
 2192              		.cfi_endproc
 2193              		.section	.text.unlikely
 2194              		.cfi_startproc
 2195              		.cfi_personality 0x9b,DW.ref.__gxx_personality_v0
 2196              		.cfi_lsda 0x1b,.LLSDAC1234
 2198              	_ZNK12_GLOBAL__N_136TestOutOfCoreCHECKMacrosCanFailTests7RunImplEv.cold:
 2199              	.LFSB1234:
 2200              	.L120:
 2201              		.cfi_def_cfa_offset 160
 2202              		.cfi_offset 3, -48
 2203              		.cfi_offset 6, -40
 2204              		.cfi_offset 12, -32
 2205              		.cfi_offset 13, -24
 2206              		.cfi_offset 14, -16
 2207 0148 E8000000 		call	__cxa_begin_catch@PLT
 2207      00
 2208              	.LEHB40:
 2209 014d E8000000 		call	_ZN8UnitTest11CurrentTest7ResultsEv@PLT
 2209      00
 2210 0152 4C8B20   		movq	(%rax), %r12
 2211 0155 E8000000 		call	_ZN8UnitTest11CurrentTest7DetailsEv@PLT
 2211      00
 2212 015a 488B30   		movq	(%rax), %rsi
 2213 015d BA810000 		movl	$129, %edx
 2213      00
 2214 0162 4889EF   		movq	%rbp, %rdi
 2215 0165 E8000000 		call	_ZN8UnitTest11TestDetailsC1ERKS0_i@PLT
 2215      00
 2216 016a 488D1500 		leaq	.LC20(%rip), %rdx
 2216      000000
 2217 0171 4889EE   		movq	%rbp, %rsi
 2218 0174 4C89E7   		movq	%r12, %rdi
 2219 0177 E8000000 		call	_ZN8UnitTest11TestResults13OnTestFailureERKNS_11TestDetailsEPKc@PLT
 2219      00
 2220              	.LEHE40:
 2221              	.LEHB41:
 2222 017c E8000000 		call	__cxa_end_catch@PLT
 2222      00
 2223              	.LEHE41:
 2224 0181 E9000000 		jmp	.L114
 2224      00
 2225              	.L116:
 2226 0186 E8000000 		call	__cxa_begin_catch@PLT
 2226      00
 2227              	.LEHB42:
 2228 018b E8000000 		call	_ZN8UnitTest11CurrentTest7ResultsEv@PLT
 2228      00
 2229 0190 4C8B30   		movq	(%rax), %r14
 2230 0193 E8000000 		call	_ZN8UnitTest11CurrentTest7DetailsEv@PLT
 2230      00
 2231 0198 488D6C24 		leaq	64(%rsp), %rbp
 2231      40
 2232 019d 488B30   		movq	(%rax), %rsi
 2233 01a0 BA760000 		movl	$118, %edx
 2233      00
 2234 01a5 4889EF   		movq	%rbp, %rdi
 2235 01a8 E8000000 		call	_ZN8UnitTest11TestDetailsC1ERKS0_i@PLT
 2235      00
 2236 01ad 488D1500 		leaq	.LC1(%rip), %rdx
 2236      000000
 2237 01b4 4889EE   		movq	%rbp, %rsi
 2238 01b7 4C89F7   		movq	%r14, %rdi
 2239 01ba E8000000 		call	_ZN8UnitTest11TestResults13OnTestFailureERKNS_11TestDetailsEPKc@PLT
 2239      00
 2240              	.LEHE42:
 2241              	.LEHB43:
 2242 01bf E8000000 		call	__cxa_end_catch@PLT
 2242      00
 2243              	.LEHE43:
 2244 01c4 E9000000 		jmp	.L117
 2244      00
 2245              	.L126:
 2246 01c9 F30F1EFA 		endbr64
 2247 01cd 4889C5   		movq	%rax, %rbp
 2248 01d0 E8000000 		call	__cxa_end_catch@PLT
 2248      00
 2249 01d5 4889EF   		movq	%rbp, %rdi
 2250              	.LEHB44:
 2251 01d8 E8000000 		call	_Unwind_Resume@PLT
 2251      00
 2252              	.LEHE44:
 2253              	.L124:
 2254 01dd F30F1EFA 		endbr64
 2255 01e1 4889C5   		movq	%rax, %rbp
 2256 01e4 EB0C     		jmp	.L119
 2257              	.L127:
 2258 01e6 F30F1EFA 		endbr64
 2259 01ea 4889C5   		movq	%rax, %rbp
 2260 01ed E8000000 		call	__cxa_end_catch@PLT
 2260      00
 2261              	.L119:
 2262 01f2 488D7C24 		leaq	16(%rsp), %rdi
 2262      10
 2263 01f7 E8000000 		call	_ZN17ScopedCurrentTestD1Ev
 2263      00
 2264 01fc 4889EF   		movq	%rbp, %rdi
 2265              	.LEHB45:
 2266 01ff E8000000 		call	_Unwind_Resume@PLT
 2266      00
 2267              	.LEHE45:
 2268              		.cfi_endproc
 2269              	.LFE1234:
 2270              		.section	.gcc_except_table
 2271              		.align 4
 2272              	.LLSDAC1234:
 2273 013c FF       		.byte	0xff
 2274 013d 9B       		.byte	0x9b
 2275 013e 25       		.uleb128 .LLSDATTC1234-.LLSDATTDC1234
 2276              	.LLSDATTDC1234:
 2277 013f 01       		.byte	0x1
 2278 0140 1D       		.uleb128 .LLSDACSEC1234-.LLSDACSBC1234
 2279              	.LLSDACSBC1234:
 2280 0141 05       		.uleb128 .LEHB40-.LCOLDB21
 2281 0142 2F       		.uleb128 .LEHE40-.LEHB40
 2282 0143 8101     		.uleb128 .L126-.LCOLDB21
 2283 0145 00       		.uleb128 0
 2284 0146 34       		.uleb128 .LEHB41-.LCOLDB21
 2285 0147 05       		.uleb128 .LEHE41-.LEHB41
 2286 0148 00       		.uleb128 0
 2287 0149 00       		.uleb128 0
 2288 014a 43       		.uleb128 .LEHB42-.LCOLDB21
 2289 014b 34       		.uleb128 .LEHE42-.LEHB42
 2290 014c 9E01     		.uleb128 .L127-.LCOLDB21
 2291 014e 00       		.uleb128 0
 2292 014f 77       		.uleb128 .LEHB43-.LCOLDB21
 2293 0150 05       		.uleb128 .LEHE43-.LEHB43
 2294 0151 9501     		.uleb128 .L124-.LCOLDB21
 2295 0153 00       		.uleb128 0
 2296 0154 9001     		.uleb128 .LEHB44-.LCOLDB21
 2297 0156 05       		.uleb128 .LEHE44-.LEHB44
 2298 0157 00       		.uleb128 0
 2299 0158 00       		.uleb128 0
 2300 0159 B701     		.uleb128 .LEHB45-.LCOLDB21
 2301 015b 05       		.uleb128 .LEHE45-.LEHB45
 2302 015c 00       		.uleb128 0
 2303 015d 00       		.uleb128 0
 2304              	.LLSDACSEC1234:
 2305 015e 01       		.byte	0x1
 2306 015f 00       		.byte	0
 2307              		.align 4
 2308 0160 00000000 		.long	0
 2309              	
 2310              	.LLSDATTC1234:
 2311              		.section	.text.unlikely
 2312              		.text
 2314              		.section	.text.unlikely
 2316              	.LCOLDE21:
 2317              		.text
 2318              	.LHOTE21:
 2319              		.section	.rodata.str1.1
 2320              	.LC22:
 2321 000b 00       		.string	""
 2322              	.LC23:
 2323 000c 44656661 		.string	"DefaultSuite"
 2323      756C7453 
 2323      75697465 
 2323      00
 2324              	.LC24:
 2325 0019 63726173 		.string	"crashing"
 2325      68696E67 
 2325      00
 2326              		.section	.text.unlikely
 2327              		.align 2
 2328              	.LCOLDB25:
 2329              		.text
 2330              	.LHOTB25:
 2331              		.align 2
 2332 05e2 66662E0F 		.p2align 4
 2332      1F840000 
 2332      0000000F 
 2332      1F00
 2334              	_ZNK12_GLOBAL__N_138TestCrashingTestsAreReportedAsFailures7RunImplEv:
 2335              	.LFB1217:
 2336              		.cfi_startproc
 2337              		.cfi_personality 0x9b,DW.ref.__gxx_personality_v0
 2338              		.cfi_lsda 0x1b,.LLSDA1217
 2339 05f0 F30F1EFA 		endbr64
 2340 05f4 4156     		pushq	%r14
 2341              		.cfi_def_cfa_offset 16
 2342              		.cfi_offset 14, -16
 2343 05f6 31F6     		xorl	%esi, %esi
 2344 05f8 4155     		pushq	%r13
 2345              		.cfi_def_cfa_offset 24
 2346              		.cfi_offset 13, -24
 2347 05fa 4154     		pushq	%r12
 2348              		.cfi_def_cfa_offset 32
 2349              		.cfi_offset 12, -32
 2350 05fc 55       		pushq	%rbp
 2351              		.cfi_def_cfa_offset 40
 2352              		.cfi_offset 6, -40
 2353 05fd 53       		pushq	%rbx
 2354              		.cfi_def_cfa_offset 48
 2355              		.cfi_offset 3, -48
 2356 05fe 4883C480 		addq	$-128, %rsp
 2357              		.cfi_def_cfa_offset 176
 2358 0602 64488B04 		movq	%fs:40, %rax
 2358      25280000 
 2358      00
 2359 060b 48894424 		movq	%rax, 120(%rsp)
 2359      78
 2360 0610 31C0     		xorl	%eax, %eax
 2361 0612 4C8D6424 		leaq	32(%rsp), %r12
 2361      20
 2362 0617 488D6C24 		leaq	64(%rsp), %rbp
 2362      40
 2363 061c 4C89E7   		movq	%r12, %rdi
 2364              	.LEHB46:
 2365 061f E8000000 		call	_ZN8UnitTest11TestResultsC1EPNS_12TestReporterE@PLT
 2365      00
 2366 0624 E8000000 		call	_ZN8UnitTest11CurrentTest7ResultsEv@PLT
 2366      00
 2367 0629 4C8B30   		movq	(%rax), %r14
 2368 062c 4C897424 		movq	%r14, 16(%rsp)
 2368      10
 2369 0631 E8000000 		call	_ZN8UnitTest11CurrentTest7DetailsEv@PLT
 2369      00
 2370 0636 4C8B28   		movq	(%rax), %r13
 2371 0639 4C896C24 		movq	%r13, 24(%rsp)
 2371      18
 2372 063e E8000000 		call	_ZN8UnitTest11CurrentTest7ResultsEv@PLT
 2372      00
 2373              	.LEHE46:
 2374 0643 4531C0   		xorl	%r8d, %r8d
 2375 0646 4889EF   		movq	%rbp, %rdi
 2376 0649 488D0D00 		leaq	.LC22(%rip), %rcx
 2376      000000
 2377 0650 4C8920   		movq	%r12, (%rax)
 2378 0653 488D1500 		leaq	.LC23(%rip), %rdx
 2378      000000
 2379 065a 488D3500 		leaq	.LC24(%rip), %rsi
 2379      000000
 2380              	.LEHB47:
 2381 0661 E8000000 		call	_ZN8UnitTest4TestC2EPKcS2_S2_i@PLT
 2381      00
 2382              	.LEHE47:
 2383 0666 488D1D00 		leaq	16+_ZTVZNK12_GLOBAL__N_138TestCrashingTestsAreReportedAsFailures7RunImplEvE12CrashingTest(%ri
 2383      000000
 2384 066d 4889EF   		movq	%rbp, %rdi
 2385 0670 48895C24 		movq	%rbx, 64(%rsp)
 2385      40
 2386              	.LEHB48:
 2387 0675 E8000000 		call	_ZN8UnitTest4Test3RunEv@PLT
 2387      00
 2388              	.LEHE48:
 2389 067a 4889EF   		movq	%rbp, %rdi
 2390 067d 48895C24 		movq	%rbx, 64(%rsp)
 2390      40
 2391              	.LEHB49:
 2392 0682 E8000000 		call	_ZN8UnitTest4TestD2Ev@PLT
 2392      00
 2393              	.LEHE49:
 2394              	.LEHB50:
 2395 0687 E8000000 		call	_ZN8UnitTest11CurrentTest7ResultsEv@PLT
 2395      00
 2396 068c 4C8930   		movq	%r14, (%rax)
 2397 068f E8000000 		call	_ZN8UnitTest11CurrentTest7DetailsEv@PLT
 2397      00
 2398              	.LEHE50:
 2399 0694 4C8928   		movq	%r13, (%rax)
 2400              	.LEHB51:
 2401 0697 E8000000 		call	_ZN8UnitTest11CurrentTest7DetailsEv@PLT
 2401      00
 2402 069c 488B30   		movq	(%rax), %rsi
 2403 069f BA620000 		movl	$98, %edx
 2403      00
 2404 06a4 4889EF   		movq	%rbp, %rdi
 2405 06a7 E8000000 		call	_ZN8UnitTest11TestDetailsC1ERKS0_i@PLT
 2405      00
 2406 06ac 4C89E7   		movq	%r12, %rdi
 2407 06af E8000000 		call	_ZNK8UnitTest11TestResults15GetFailureCountEv@PLT
 2407      00
 2408 06b4 89442410 		movl	%eax, 16(%rsp)
 2409 06b8 C744240C 		movl	$1, 12(%rsp)
 2409      01000000 
 2410 06c0 E8000000 		call	_ZN8UnitTest11CurrentTest7ResultsEv@PLT
 2410      00
 2411 06c5 488B38   		movq	(%rax), %rdi
 2412 06c8 488D5424 		leaq	16(%rsp), %rdx
 2412      10
 2413 06cd 488D7424 		leaq	12(%rsp), %rsi
 2413      0C
 2414 06d2 4889E9   		movq	%rbp, %rcx
 2415 06d5 E8000000 		call	_ZN8UnitTest10CheckEqualIiiEEvRNS_11TestResultsERKT_RKT0_RKNS_11TestDetailsE
 2415      00
 2416              	.LEHE51:
 2417              	.L132:
 2418 06da 488B4424 		movq	120(%rsp), %rax
 2418      78
 2419 06df 64482B04 		subq	%fs:40, %rax
 2419      25280000 
 2419      00
 2420 06e8 750D     		jne	.L144
 2421 06ea 4883EC80 		subq	$-128, %rsp
 2422              		.cfi_remember_state
 2423              		.cfi_def_cfa_offset 48
 2424 06ee 5B       		popq	%rbx
 2425              		.cfi_def_cfa_offset 40
 2426 06ef 5D       		popq	%rbp
 2427              		.cfi_def_cfa_offset 32
 2428 06f0 415C     		popq	%r12
 2429              		.cfi_def_cfa_offset 24
 2430 06f2 415D     		popq	%r13
 2431              		.cfi_def_cfa_offset 16
 2432 06f4 415E     		popq	%r14
 2433              		.cfi_def_cfa_offset 8
 2434 06f6 C3       		ret
 2435              	.L144:
 2436              		.cfi_restore_state
 2437 06f7 E8000000 		call	__stack_chk_fail@PLT
 2437      00
 2438              	.L141:
 2439 06fc F30F1EFA 		endbr64
 2440 0700 4889C7   		movq	%rax, %rdi
 2441 0703 E9000000 		jmp	.L135
 2441      00
 2442              	.L140:
 2443 0708 F30F1EFA 		endbr64
 2444 070c 4989C4   		movq	%rax, %r12
 2445 070f E9000000 		jmp	.L133
 2445      00
 2446              	.L139:
 2447 0714 F30F1EFA 		endbr64
 2448 0718 4989C4   		movq	%rax, %r12
 2449 071b E9000000 		jmp	.L134
 2449      00
 2450              		.section	.gcc_except_table
 2451              		.align 4
 2452              	.LLSDA1217:
 2453 0164 FF       		.byte	0xff
 2454 0165 9B       		.byte	0x9b
 2455 0166 29       		.uleb128 .LLSDATT1217-.LLSDATTD1217
 2456              	.LLSDATTD1217:
 2457 0167 01       		.byte	0x1
 2458 0168 20       		.uleb128 .LLSDACSE1217-.LLSDACSB1217
 2459              	.LLSDACSB1217:
 2460 0169 2F       		.uleb128 .LEHB46-.LFB1217
 2461 016a 24       		.uleb128 .LEHE46-.LEHB46
 2462 016b 00       		.uleb128 0
 2463 016c 00       		.uleb128 0
 2464 016d 71       		.uleb128 .LEHB47-.LFB1217
 2465 016e 05       		.uleb128 .LEHE47-.LEHB47
 2466 016f A402     		.uleb128 .L139-.LFB1217
 2467 0171 00       		.uleb128 0
 2468 0172 8501     		.uleb128 .LEHB48-.LFB1217
 2469 0174 05       		.uleb128 .LEHE48-.LEHB48
 2470 0175 9802     		.uleb128 .L140-.LFB1217
 2471 0177 00       		.uleb128 0
 2472 0178 9201     		.uleb128 .LEHB49-.LFB1217
 2473 017a 05       		.uleb128 .LEHE49-.LEHB49
 2474 017b A402     		.uleb128 .L139-.LFB1217
 2475 017d 00       		.uleb128 0
 2476 017e 9701     		.uleb128 .LEHB50-.LFB1217
 2477 0180 0D       		.uleb128 .LEHE50-.LEHB50
 2478 0181 00       		.uleb128 0
 2479 0182 00       		.uleb128 0
 2480 0183 A701     		.uleb128 .LEHB51-.LFB1217
 2481 0185 43       		.uleb128 .LEHE51-.LEHB51
 2482 0186 8C02     		.uleb128 .L141-.LFB1217
 2483 0188 01       		.uleb128 0x1
 2484              	.LLSDACSE1217:
 2485 0189 01       		.byte	0x1
 2486 018a 00       		.byte	0
 2487 018b 00       		.align 4
 2488 018c 00000000 		.long	0
 2489              	
 2490              	.LLSDATT1217:
 2491              		.text
 2492              		.cfi_endproc
 2493              		.section	.text.unlikely
 2494              		.cfi_startproc
 2495              		.cfi_personality 0x9b,DW.ref.__gxx_personality_v0
 2496              		.cfi_lsda 0x1b,.LLSDAC1217
 2498              	_ZNK12_GLOBAL__N_138TestCrashingTestsAreReportedAsFailures7RunImplEv.cold:
 2499              	.LFSB1217:
 2500              	.L135:
 2501              		.cfi_def_cfa_offset 176
 2502              		.cfi_offset 3, -48
 2503              		.cfi_offset 6, -40
 2504              		.cfi_offset 12, -32
 2505              		.cfi_offset 13, -24
 2506              		.cfi_offset 14, -16
 2507 0204 E8000000 		call	__cxa_begin_catch@PLT
 2507      00
 2508              	.LEHB52:
 2509 0209 E8000000 		call	_ZN8UnitTest11CurrentTest7ResultsEv@PLT
 2509      00
 2510 020e 4C8B20   		movq	(%rax), %r12
 2511 0211 E8000000 		call	_ZN8UnitTest11CurrentTest7DetailsEv@PLT
 2511      00
 2512 0216 488B30   		movq	(%rax), %rsi
 2513 0219 BA620000 		movl	$98, %edx
 2513      00
 2514 021e 4889EF   		movq	%rbp, %rdi
 2515 0221 E8000000 		call	_ZN8UnitTest11TestDetailsC1ERKS0_i@PLT
 2515      00
 2516 0226 488D1500 		leaq	.LC20(%rip), %rdx
 2516      000000
 2517 022d 4889EE   		movq	%rbp, %rsi
 2518 0230 4C89E7   		movq	%r12, %rdi
 2519 0233 E8000000 		call	_ZN8UnitTest11TestResults13OnTestFailureERKNS_11TestDetailsEPKc@PLT
 2519      00
 2520              	.LEHE52:
 2521              	.LEHB53:
 2522 0238 E8000000 		call	__cxa_end_catch@PLT
 2522      00
 2523              	.LEHE53:
 2524 023d E9000000 		jmp	.L132
 2524      00
 2525              	.L133:
 2526 0242 4889EF   		movq	%rbp, %rdi
 2527 0245 48895C24 		movq	%rbx, 64(%rsp)
 2527      40
 2528 024a E8000000 		call	_ZN8UnitTest4TestD2Ev@PLT
 2528      00
 2529              	.L134:
 2530 024f 488D7C24 		leaq	16(%rsp), %rdi
 2530      10
 2531 0254 E8000000 		call	_ZN17ScopedCurrentTestD1Ev
 2531      00
 2532 0259 4C89E7   		movq	%r12, %rdi
 2533              	.LEHB54:
 2534 025c E8000000 		call	_Unwind_Resume@PLT
 2534      00
 2535              	.LEHE54:
 2536              	.L142:
 2537 0261 F30F1EFA 		endbr64
 2538 0265 4889C5   		movq	%rax, %rbp
 2539 0268 E8000000 		call	__cxa_end_catch@PLT
 2539      00
 2540 026d 4889EF   		movq	%rbp, %rdi
 2541              	.LEHB55:
 2542 0270 E8000000 		call	_Unwind_Resume@PLT
 2542      00
 2543              	.LEHE55:
 2544              		.cfi_endproc
 2545              	.LFE1217:
 2546              		.section	.gcc_except_table
 2547              		.align 4
 2548              	.LLSDAC1217:
 2549 0190 FF       		.byte	0xff
 2550 0191 9B       		.byte	0x9b
 2551 0192 19       		.uleb128 .LLSDATTC1217-.LLSDATTDC1217
 2552              	.LLSDATTDC1217:
 2553 0193 01       		.byte	0x1
 2554 0194 10       		.uleb128 .LLSDACSEC1217-.LLSDACSBC1217
 2555              	.LLSDACSBC1217:
 2556 0195 05       		.uleb128 .LEHB52-.LCOLDB25
 2557 0196 2F       		.uleb128 .LEHE52-.LEHB52
 2558 0197 5D       		.uleb128 .L142-.LCOLDB25
 2559 0198 00       		.uleb128 0
 2560 0199 34       		.uleb128 .LEHB53-.LCOLDB25
 2561 019a 05       		.uleb128 .LEHE53-.LEHB53
 2562 019b 00       		.uleb128 0
 2563 019c 00       		.uleb128 0
 2564 019d 58       		.uleb128 .LEHB54-.LCOLDB25
 2565 019e 05       		.uleb128 .LEHE54-.LEHB54
 2566 019f 00       		.uleb128 0
 2567 01a0 00       		.uleb128 0
 2568 01a1 6C       		.uleb128 .LEHB55-.LCOLDB25
 2569 01a2 05       		.uleb128 .LEHE55-.LEHB55
 2570 01a3 00       		.uleb128 0
 2571 01a4 00       		.uleb128 0
 2572              	.LLSDACSEC1217:
 2573 01a5 01       		.byte	0x1
 2574 01a6 00       		.byte	0
 2575 01a7 00       		.align 4
 2576 01a8 00000000 		.long	0
 2577              	
 2578              	.LLSDATTC1217:
 2579              		.section	.text.unlikely
 2580              		.text
 2582              		.section	.text.unlikely
 2584              	.LCOLDE25:
 2585              		.text
 2586              	.LHOTE25:
 2587              		.section	.rodata.str1.1
 2588              	.LC26:
 2589 0022 7468726F 		.string	"throwing"
 2589      77696E67 
 2589      00
 2590              		.section	.text.unlikely
 2591 0275 90       		.align 2
 2592              	.LCOLDB27:
 2593              		.text
 2594              	.LHOTB27:
 2595              		.align 2
 2596              		.p2align 4
 2598              	_ZNK12_GLOBAL__N_138TestThrowingTestsAreReportedAsFailures7RunImplEv:
 2599              	.LFB1209:
 2600              		.cfi_startproc
 2601              		.cfi_personality 0x9b,DW.ref.__gxx_personality_v0
 2602              		.cfi_lsda 0x1b,.LLSDA1209
 2603 0720 F30F1EFA 		endbr64
 2604 0724 4156     		pushq	%r14
 2605              		.cfi_def_cfa_offset 16
 2606              		.cfi_offset 14, -16
 2607 0726 31F6     		xorl	%esi, %esi
 2608 0728 4155     		pushq	%r13
 2609              		.cfi_def_cfa_offset 24
 2610              		.cfi_offset 13, -24
 2611 072a 4154     		pushq	%r12
 2612              		.cfi_def_cfa_offset 32
 2613              		.cfi_offset 12, -32
 2614 072c 55       		pushq	%rbp
 2615              		.cfi_def_cfa_offset 40
 2616              		.cfi_offset 6, -40
 2617 072d 53       		pushq	%rbx
 2618              		.cfi_def_cfa_offset 48
 2619              		.cfi_offset 3, -48
 2620 072e 4883C480 		addq	$-128, %rsp
 2621              		.cfi_def_cfa_offset 176
 2622 0732 64488B04 		movq	%fs:40, %rax
 2622      25280000 
 2622      00
 2623 073b 48894424 		movq	%rax, 120(%rsp)
 2623      78
 2624 0740 31C0     		xorl	%eax, %eax
 2625 0742 4C8D6424 		leaq	32(%rsp), %r12
 2625      20
 2626 0747 488D6C24 		leaq	64(%rsp), %rbp
 2626      40
 2627 074c 4C89E7   		movq	%r12, %rdi
 2628              	.LEHB56:
 2629 074f E8000000 		call	_ZN8UnitTest11TestResultsC1EPNS_12TestReporterE@PLT
 2629      00
 2630 0754 E8000000 		call	_ZN8UnitTest11CurrentTest7ResultsEv@PLT
 2630      00
 2631 0759 4C8B30   		movq	(%rax), %r14
 2632 075c 4C897424 		movq	%r14, 16(%rsp)
 2632      10
 2633 0761 E8000000 		call	_ZN8UnitTest11CurrentTest7DetailsEv@PLT
 2633      00
 2634 0766 4C8B28   		movq	(%rax), %r13
 2635 0769 4C896C24 		movq	%r13, 24(%rsp)
 2635      18
 2636 076e E8000000 		call	_ZN8UnitTest11CurrentTest7ResultsEv@PLT
 2636      00
 2637              	.LEHE56:
 2638 0773 4531C0   		xorl	%r8d, %r8d
 2639 0776 4889EF   		movq	%rbp, %rdi
 2640 0779 488D0D00 		leaq	.LC22(%rip), %rcx
 2640      000000
 2641 0780 4C8920   		movq	%r12, (%rax)
 2642 0783 488D1500 		leaq	.LC23(%rip), %rdx
 2642      000000
 2643 078a 488D3500 		leaq	.LC26(%rip), %rsi
 2643      000000
 2644              	.LEHB57:
 2645 0791 E8000000 		call	_ZN8UnitTest4TestC2EPKcS2_S2_i@PLT
 2645      00
 2646              	.LEHE57:
 2647 0796 488D1D00 		leaq	16+_ZTVZNK12_GLOBAL__N_138TestThrowingTestsAreReportedAsFailures7RunImplEvE12CrashingTest(%ri
 2647      000000
 2648 079d 4889EF   		movq	%rbp, %rdi
 2649 07a0 48895C24 		movq	%rbx, 64(%rsp)
 2649      40
 2650              	.LEHB58:
 2651 07a5 E8000000 		call	_ZN8UnitTest4Test3RunEv@PLT
 2651      00
 2652              	.LEHE58:
 2653 07aa 4889EF   		movq	%rbp, %rdi
 2654 07ad 48895C24 		movq	%rbx, 64(%rsp)
 2654      40
 2655              	.LEHB59:
 2656 07b2 E8000000 		call	_ZN8UnitTest4TestD2Ev@PLT
 2656      00
 2657              	.LEHE59:
 2658              	.LEHB60:
 2659 07b7 E8000000 		call	_ZN8UnitTest11CurrentTest7ResultsEv@PLT
 2659      00
 2660 07bc 4C8930   		movq	%r14, (%rax)
 2661 07bf E8000000 		call	_ZN8UnitTest11CurrentTest7DetailsEv@PLT
 2661      00
 2662              	.LEHE60:
 2663 07c4 4C8928   		movq	%r13, (%rax)
 2664              	.LEHB61:
 2665 07c7 E8000000 		call	_ZN8UnitTest11CurrentTest7DetailsEv@PLT
 2665      00
 2666 07cc 488B30   		movq	(%rax), %rsi
 2667 07cf BA480000 		movl	$72, %edx
 2667      00
 2668 07d4 4889EF   		movq	%rbp, %rdi
 2669 07d7 E8000000 		call	_ZN8UnitTest11TestDetailsC1ERKS0_i@PLT
 2669      00
 2670 07dc 4C89E7   		movq	%r12, %rdi
 2671 07df E8000000 		call	_ZNK8UnitTest11TestResults15GetFailureCountEv@PLT
 2671      00
 2672 07e4 89442410 		movl	%eax, 16(%rsp)
 2673 07e8 C744240C 		movl	$1, 12(%rsp)
 2673      01000000 
 2674 07f0 E8000000 		call	_ZN8UnitTest11CurrentTest7ResultsEv@PLT
 2674      00
 2675 07f5 488B38   		movq	(%rax), %rdi
 2676 07f8 488D5424 		leaq	16(%rsp), %rdx
 2676      10
 2677 07fd 488D7424 		leaq	12(%rsp), %rsi
 2677      0C
 2678 0802 4889E9   		movq	%rbp, %rcx
 2679 0805 E8000000 		call	_ZN8UnitTest10CheckEqualIiiEEvRNS_11TestResultsERKT_RKT0_RKNS_11TestDetailsE
 2679      00
 2680              	.LEHE61:
 2681              	.L145:
 2682 080a 488B4424 		movq	120(%rsp), %rax
 2682      78
 2683 080f 64482B04 		subq	%fs:40, %rax
 2683      25280000 
 2683      00
 2684 0818 750D     		jne	.L157
 2685 081a 4883EC80 		subq	$-128, %rsp
 2686              		.cfi_remember_state
 2687              		.cfi_def_cfa_offset 48
 2688 081e 5B       		popq	%rbx
 2689              		.cfi_def_cfa_offset 40
 2690 081f 5D       		popq	%rbp
 2691              		.cfi_def_cfa_offset 32
 2692 0820 415C     		popq	%r12
 2693              		.cfi_def_cfa_offset 24
 2694 0822 415D     		popq	%r13
 2695              		.cfi_def_cfa_offset 16
 2696 0824 415E     		popq	%r14
 2697              		.cfi_def_cfa_offset 8
 2698 0826 C3       		ret
 2699              	.L157:
 2700              		.cfi_restore_state
 2701 0827 E8000000 		call	__stack_chk_fail@PLT
 2701      00
 2702              	.L154:
 2703 082c F30F1EFA 		endbr64
 2704 0830 4889C7   		movq	%rax, %rdi
 2705 0833 E9000000 		jmp	.L148
 2705      00
 2706              	.L153:
 2707 0838 F30F1EFA 		endbr64
 2708 083c 4989C4   		movq	%rax, %r12
 2709 083f E9000000 		jmp	.L146
 2709      00
 2710              	.L152:
 2711 0844 F30F1EFA 		endbr64
 2712 0848 4989C4   		movq	%rax, %r12
 2713 084b E9000000 		jmp	.L147
 2713      00
 2714              		.section	.gcc_except_table
 2715              		.align 4
 2716              	.LLSDA1209:
 2717 01ac FF       		.byte	0xff
 2718 01ad 9B       		.byte	0x9b
 2719 01ae 29       		.uleb128 .LLSDATT1209-.LLSDATTD1209
 2720              	.LLSDATTD1209:
 2721 01af 01       		.byte	0x1
 2722 01b0 20       		.uleb128 .LLSDACSE1209-.LLSDACSB1209
 2723              	.LLSDACSB1209:
 2724 01b1 2F       		.uleb128 .LEHB56-.LFB1209
 2725 01b2 24       		.uleb128 .LEHE56-.LEHB56
 2726 01b3 00       		.uleb128 0
 2727 01b4 00       		.uleb128 0
 2728 01b5 71       		.uleb128 .LEHB57-.LFB1209
 2729 01b6 05       		.uleb128 .LEHE57-.LEHB57
 2730 01b7 A402     		.uleb128 .L152-.LFB1209
 2731 01b9 00       		.uleb128 0
 2732 01ba 8501     		.uleb128 .LEHB58-.LFB1209
 2733 01bc 05       		.uleb128 .LEHE58-.LEHB58
 2734 01bd 9802     		.uleb128 .L153-.LFB1209
 2735 01bf 00       		.uleb128 0
 2736 01c0 9201     		.uleb128 .LEHB59-.LFB1209
 2737 01c2 05       		.uleb128 .LEHE59-.LEHB59
 2738 01c3 A402     		.uleb128 .L152-.LFB1209
 2739 01c5 00       		.uleb128 0
 2740 01c6 9701     		.uleb128 .LEHB60-.LFB1209
 2741 01c8 0D       		.uleb128 .LEHE60-.LEHB60
 2742 01c9 00       		.uleb128 0
 2743 01ca 00       		.uleb128 0
 2744 01cb A701     		.uleb128 .LEHB61-.LFB1209
 2745 01cd 43       		.uleb128 .LEHE61-.LEHB61
 2746 01ce 8C02     		.uleb128 .L154-.LFB1209
 2747 01d0 01       		.uleb128 0x1
 2748              	.LLSDACSE1209:
 2749 01d1 01       		.byte	0x1
 2750 01d2 00       		.byte	0
 2751 01d3 00       		.align 4
 2752 01d4 00000000 		.long	0
 2753              	
 2754              	.LLSDATT1209:
 2755              		.text
 2756              		.cfi_endproc
 2757              		.section	.text.unlikely
 2758              		.cfi_startproc
 2759              		.cfi_personality 0x9b,DW.ref.__gxx_personality_v0
 2760              		.cfi_lsda 0x1b,.LLSDAC1209
 2762              	_ZNK12_GLOBAL__N_138TestThrowingTestsAreReportedAsFailures7RunImplEv.cold:
 2763              	.LFSB1209:
 2764              	.L148:
 2765              		.cfi_def_cfa_offset 176
 2766              		.cfi_offset 3, -48
 2767              		.cfi_offset 6, -40
 2768              		.cfi_offset 12, -32
 2769              		.cfi_offset 13, -24
 2770              		.cfi_offset 14, -16
 2771 0276 E8000000 		call	__cxa_begin_catch@PLT
 2771      00
 2772              	.LEHB62:
 2773 027b E8000000 		call	_ZN8UnitTest11CurrentTest7ResultsEv@PLT
 2773      00
 2774 0280 4C8B20   		movq	(%rax), %r12
 2775 0283 E8000000 		call	_ZN8UnitTest11CurrentTest7DetailsEv@PLT
 2775      00
 2776 0288 488B30   		movq	(%rax), %rsi
 2777 028b BA480000 		movl	$72, %edx
 2777      00
 2778 0290 4889EF   		movq	%rbp, %rdi
 2779 0293 E8000000 		call	_ZN8UnitTest11TestDetailsC1ERKS0_i@PLT
 2779      00
 2780 0298 488D1500 		leaq	.LC20(%rip), %rdx
 2780      000000
 2781 029f 4889EE   		movq	%rbp, %rsi
 2782 02a2 4C89E7   		movq	%r12, %rdi
 2783 02a5 E8000000 		call	_ZN8UnitTest11TestResults13OnTestFailureERKNS_11TestDetailsEPKc@PLT
 2783      00
 2784              	.LEHE62:
 2785              	.LEHB63:
 2786 02aa E8000000 		call	__cxa_end_catch@PLT
 2786      00
 2787              	.LEHE63:
 2788 02af E9000000 		jmp	.L145
 2788      00
 2789              	.L146:
 2790 02b4 4889EF   		movq	%rbp, %rdi
 2791 02b7 48895C24 		movq	%rbx, 64(%rsp)
 2791      40
 2792 02bc E8000000 		call	_ZN8UnitTest4TestD2Ev@PLT
 2792      00
 2793              	.L147:
 2794 02c1 488D7C24 		leaq	16(%rsp), %rdi
 2794      10
 2795 02c6 E8000000 		call	_ZN17ScopedCurrentTestD1Ev
 2795      00
 2796 02cb 4C89E7   		movq	%r12, %rdi
 2797              	.LEHB64:
 2798 02ce E8000000 		call	_Unwind_Resume@PLT
 2798      00
 2799              	.LEHE64:
 2800              	.L155:
 2801 02d3 F30F1EFA 		endbr64
 2802 02d7 4889C5   		movq	%rax, %rbp
 2803 02da E8000000 		call	__cxa_end_catch@PLT
 2803      00
 2804 02df 4889EF   		movq	%rbp, %rdi
 2805              	.LEHB65:
 2806 02e2 E8000000 		call	_Unwind_Resume@PLT
 2806      00
 2807              	.LEHE65:
 2808              		.cfi_endproc
 2809              	.LFE1209:
 2810              		.section	.gcc_except_table
 2811              		.align 4
 2812              	.LLSDAC1209:
 2813 01d8 FF       		.byte	0xff
 2814 01d9 9B       		.byte	0x9b
 2815 01da 19       		.uleb128 .LLSDATTC1209-.LLSDATTDC1209
 2816              	.LLSDATTDC1209:
 2817 01db 01       		.byte	0x1
 2818 01dc 10       		.uleb128 .LLSDACSEC1209-.LLSDACSBC1209
 2819              	.LLSDACSBC1209:
 2820 01dd 05       		.uleb128 .LEHB62-.LCOLDB27
 2821 01de 2F       		.uleb128 .LEHE62-.LEHB62
 2822 01df 5D       		.uleb128 .L155-.LCOLDB27
 2823 01e0 00       		.uleb128 0
 2824 01e1 34       		.uleb128 .LEHB63-.LCOLDB27
 2825 01e2 05       		.uleb128 .LEHE63-.LEHB63
 2826 01e3 00       		.uleb128 0
 2827 01e4 00       		.uleb128 0
 2828 01e5 58       		.uleb128 .LEHB64-.LCOLDB27
 2829 01e6 05       		.uleb128 .LEHE64-.LEHB64
 2830 01e7 00       		.uleb128 0
 2831 01e8 00       		.uleb128 0
 2832 01e9 6C       		.uleb128 .LEHB65-.LCOLDB27
 2833 01ea 05       		.uleb128 .LEHE65-.LEHB65
 2834 01eb 00       		.uleb128 0
 2835 01ec 00       		.uleb128 0
 2836              	.LLSDACSEC1209:
 2837 01ed 01       		.byte	0x1
 2838 01ee 00       		.byte	0
 2839 01ef 00       		.align 4
 2840 01f0 00000000 		.long	0
 2841              	
 2842              	.LLSDATTC1209:
 2843              		.section	.text.unlikely
 2844              		.text
 2846              		.section	.text.unlikely
 2848              	.LCOLDE27:
 2849              		.text
 2850              	.LHOTE27:
 2851              		.section	.rodata.str1.1
 2852              	.LC28:
 2853 002b 6661696C 		.string	"failing"
 2853      696E6700 
 2854              		.section	.text.unlikely
 2855 02e7 90       		.align 2
 2856              	.LCOLDB29:
 2857              		.text
 2858              	.LHOTB29:
 2859              		.align 2
 2860              		.p2align 4
 2862              	_ZNK12_GLOBAL__N_126TestFailingTestHasFailures7RunImplEv:
 2863              	.LFB1201:
 2864              		.cfi_startproc
 2865              		.cfi_personality 0x9b,DW.ref.__gxx_personality_v0
 2866              		.cfi_lsda 0x1b,.LLSDA1201
 2867 0850 F30F1EFA 		endbr64
 2868 0854 4156     		pushq	%r14
 2869              		.cfi_def_cfa_offset 16
 2870              		.cfi_offset 14, -16
 2871 0856 31F6     		xorl	%esi, %esi
 2872 0858 4155     		pushq	%r13
 2873              		.cfi_def_cfa_offset 24
 2874              		.cfi_offset 13, -24
 2875 085a 4154     		pushq	%r12
 2876              		.cfi_def_cfa_offset 32
 2877              		.cfi_offset 12, -32
 2878 085c 55       		pushq	%rbp
 2879              		.cfi_def_cfa_offset 40
 2880              		.cfi_offset 6, -40
 2881 085d 53       		pushq	%rbx
 2882              		.cfi_def_cfa_offset 48
 2883              		.cfi_offset 3, -48
 2884 085e 4883C480 		addq	$-128, %rsp
 2885              		.cfi_def_cfa_offset 176
 2886 0862 64488B04 		movq	%fs:40, %rax
 2886      25280000 
 2886      00
 2887 086b 48894424 		movq	%rax, 120(%rsp)
 2887      78
 2888 0870 31C0     		xorl	%eax, %eax
 2889 0872 4C8D6424 		leaq	32(%rsp), %r12
 2889      20
 2890 0877 488D6C24 		leaq	64(%rsp), %rbp
 2890      40
 2891 087c 4C89E7   		movq	%r12, %rdi
 2892              	.LEHB66:
 2893 087f E8000000 		call	_ZN8UnitTest11TestResultsC1EPNS_12TestReporterE@PLT
 2893      00
 2894 0884 E8000000 		call	_ZN8UnitTest11CurrentTest7ResultsEv@PLT
 2894      00
 2895 0889 4C8B30   		movq	(%rax), %r14
 2896 088c 4C897424 		movq	%r14, 16(%rsp)
 2896      10
 2897 0891 E8000000 		call	_ZN8UnitTest11CurrentTest7DetailsEv@PLT
 2897      00
 2898 0896 4C8B28   		movq	(%rax), %r13
 2899 0899 4C896C24 		movq	%r13, 24(%rsp)
 2899      18
 2900 089e E8000000 		call	_ZN8UnitTest11CurrentTest7ResultsEv@PLT
 2900      00
 2901              	.LEHE66:
 2902 08a3 4531C0   		xorl	%r8d, %r8d
 2903 08a6 4889EF   		movq	%rbp, %rdi
 2904 08a9 488D0D00 		leaq	.LC22(%rip), %rcx
 2904      000000
 2905 08b0 4C8920   		movq	%r12, (%rax)
 2906 08b3 488D1500 		leaq	.LC23(%rip), %rdx
 2906      000000
 2907 08ba 488D3500 		leaq	.LC28(%rip), %rsi
 2907      000000
 2908              	.LEHB67:
 2909 08c1 E8000000 		call	_ZN8UnitTest4TestC2EPKcS2_S2_i@PLT
 2909      00
 2910              	.LEHE67:
 2911 08c6 488D1D00 		leaq	16+_ZTVZNK12_GLOBAL__N_126TestFailingTestHasFailures7RunImplEvE11FailingTest(%rip), %rbx
 2911      000000
 2912 08cd 4889EF   		movq	%rbp, %rdi
 2913 08d0 48895C24 		movq	%rbx, 64(%rsp)
 2913      40
 2914              	.LEHB68:
 2915 08d5 E8000000 		call	_ZN8UnitTest4Test3RunEv@PLT
 2915      00
 2916              	.LEHE68:
 2917 08da 4889EF   		movq	%rbp, %rdi
 2918 08dd 48895C24 		movq	%rbx, 64(%rsp)
 2918      40
 2919              	.LEHB69:
 2920 08e2 E8000000 		call	_ZN8UnitTest4TestD2Ev@PLT
 2920      00
 2921              	.LEHE69:
 2922              	.LEHB70:
 2923 08e7 E8000000 		call	_ZN8UnitTest11CurrentTest7ResultsEv@PLT
 2923      00
 2924 08ec 4C8930   		movq	%r14, (%rax)
 2925 08ef E8000000 		call	_ZN8UnitTest11CurrentTest7DetailsEv@PLT
 2925      00
 2926              	.LEHE70:
 2927 08f4 4C8928   		movq	%r13, (%rax)
 2928              	.LEHB71:
 2929 08f7 E8000000 		call	_ZN8UnitTest11CurrentTest7DetailsEv@PLT
 2929      00
 2930 08fc 488B30   		movq	(%rax), %rsi
 2931 08ff BA320000 		movl	$50, %edx
 2931      00
 2932 0904 4889EF   		movq	%rbp, %rdi
 2933 0907 E8000000 		call	_ZN8UnitTest11TestDetailsC1ERKS0_i@PLT
 2933      00
 2934 090c 4C89E7   		movq	%r12, %rdi
 2935 090f E8000000 		call	_ZNK8UnitTest11TestResults15GetFailureCountEv@PLT
 2935      00
 2936 0914 89442410 		movl	%eax, 16(%rsp)
 2937 0918 C744240C 		movl	$1, 12(%rsp)
 2937      01000000 
 2938 0920 E8000000 		call	_ZN8UnitTest11CurrentTest7ResultsEv@PLT
 2938      00
 2939 0925 488B38   		movq	(%rax), %rdi
 2940 0928 488D5424 		leaq	16(%rsp), %rdx
 2940      10
 2941 092d 488D7424 		leaq	12(%rsp), %rsi
 2941      0C
 2942 0932 4889E9   		movq	%rbp, %rcx
 2943 0935 E8000000 		call	_ZN8UnitTest10CheckEqualIiiEEvRNS_11TestResultsERKT_RKT0_RKNS_11TestDetailsE
 2943      00
 2944              	.LEHE71:
 2945              	.L158:
 2946 093a 488B4424 		movq	120(%rsp), %rax
 2946      78
 2947 093f 64482B04 		subq	%fs:40, %rax
 2947      25280000 
 2947      00
 2948 0948 750D     		jne	.L170
 2949 094a 4883EC80 		subq	$-128, %rsp
 2950              		.cfi_remember_state
 2951              		.cfi_def_cfa_offset 48
 2952 094e 5B       		popq	%rbx
 2953              		.cfi_def_cfa_offset 40
 2954 094f 5D       		popq	%rbp
 2955              		.cfi_def_cfa_offset 32
 2956 0950 415C     		popq	%r12
 2957              		.cfi_def_cfa_offset 24
 2958 0952 415D     		popq	%r13
 2959              		.cfi_def_cfa_offset 16
 2960 0954 415E     		popq	%r14
 2961              		.cfi_def_cfa_offset 8
 2962 0956 C3       		ret
 2963              	.L170:
 2964              		.cfi_restore_state
 2965 0957 E8000000 		call	__stack_chk_fail@PLT
 2965      00
 2966              	.L167:
 2967 095c F30F1EFA 		endbr64
 2968 0960 4889C7   		movq	%rax, %rdi
 2969 0963 E9000000 		jmp	.L161
 2969      00
 2970              	.L166:
 2971 0968 F30F1EFA 		endbr64
 2972 096c 4989C4   		movq	%rax, %r12
 2973 096f E9000000 		jmp	.L159
 2973      00
 2974              	.L165:
 2975 0974 F30F1EFA 		endbr64
 2976 0978 4989C4   		movq	%rax, %r12
 2977 097b E9000000 		jmp	.L160
 2977      00
 2978              		.section	.gcc_except_table
 2979              		.align 4
 2980              	.LLSDA1201:
 2981 01f4 FF       		.byte	0xff
 2982 01f5 9B       		.byte	0x9b
 2983 01f6 29       		.uleb128 .LLSDATT1201-.LLSDATTD1201
 2984              	.LLSDATTD1201:
 2985 01f7 01       		.byte	0x1
 2986 01f8 20       		.uleb128 .LLSDACSE1201-.LLSDACSB1201
 2987              	.LLSDACSB1201:
 2988 01f9 2F       		.uleb128 .LEHB66-.LFB1201
 2989 01fa 24       		.uleb128 .LEHE66-.LEHB66
 2990 01fb 00       		.uleb128 0
 2991 01fc 00       		.uleb128 0
 2992 01fd 71       		.uleb128 .LEHB67-.LFB1201
 2993 01fe 05       		.uleb128 .LEHE67-.LEHB67
 2994 01ff A402     		.uleb128 .L165-.LFB1201
 2995 0201 00       		.uleb128 0
 2996 0202 8501     		.uleb128 .LEHB68-.LFB1201
 2997 0204 05       		.uleb128 .LEHE68-.LEHB68
 2998 0205 9802     		.uleb128 .L166-.LFB1201
 2999 0207 00       		.uleb128 0
 3000 0208 9201     		.uleb128 .LEHB69-.LFB1201
 3001 020a 05       		.uleb128 .LEHE69-.LEHB69
 3002 020b A402     		.uleb128 .L165-.LFB1201
 3003 020d 00       		.uleb128 0
 3004 020e 9701     		.uleb128 .LEHB70-.LFB1201
 3005 0210 0D       		.uleb128 .LEHE70-.LEHB70
 3006 0211 00       		.uleb128 0
 3007 0212 00       		.uleb128 0
 3008 0213 A701     		.uleb128 .LEHB71-.LFB1201
 3009 0215 43       		.uleb128 .LEHE71-.LEHB71
 3010 0216 8C02     		.uleb128 .L167-.LFB1201
 3011 0218 01       		.uleb128 0x1
 3012              	.LLSDACSE1201:
 3013 0219 01       		.byte	0x1
 3014 021a 00       		.byte	0
 3015 021b 00       		.align 4
 3016 021c 00000000 		.long	0
 3017              	
 3018              	.LLSDATT1201:
 3019              		.text
 3020              		.cfi_endproc
 3021              		.section	.text.unlikely
 3022              		.cfi_startproc
 3023              		.cfi_personality 0x9b,DW.ref.__gxx_personality_v0
 3024              		.cfi_lsda 0x1b,.LLSDAC1201
 3026              	_ZNK12_GLOBAL__N_126TestFailingTestHasFailures7RunImplEv.cold:
 3027              	.LFSB1201:
 3028              	.L161:
 3029              		.cfi_def_cfa_offset 176
 3030              		.cfi_offset 3, -48
 3031              		.cfi_offset 6, -40
 3032              		.cfi_offset 12, -32
 3033              		.cfi_offset 13, -24
 3034              		.cfi_offset 14, -16
 3035 02e8 E8000000 		call	__cxa_begin_catch@PLT
 3035      00
 3036              	.LEHB72:
 3037 02ed E8000000 		call	_ZN8UnitTest11CurrentTest7ResultsEv@PLT
 3037      00
 3038 02f2 4C8B20   		movq	(%rax), %r12
 3039 02f5 E8000000 		call	_ZN8UnitTest11CurrentTest7DetailsEv@PLT
 3039      00
 3040 02fa 488B30   		movq	(%rax), %rsi
 3041 02fd BA320000 		movl	$50, %edx
 3041      00
 3042 0302 4889EF   		movq	%rbp, %rdi
 3043 0305 E8000000 		call	_ZN8UnitTest11TestDetailsC1ERKS0_i@PLT
 3043      00
 3044 030a 488D1500 		leaq	.LC20(%rip), %rdx
 3044      000000
 3045 0311 4889EE   		movq	%rbp, %rsi
 3046 0314 4C89E7   		movq	%r12, %rdi
 3047 0317 E8000000 		call	_ZN8UnitTest11TestResults13OnTestFailureERKNS_11TestDetailsEPKc@PLT
 3047      00
 3048              	.LEHE72:
 3049              	.LEHB73:
 3050 031c E8000000 		call	__cxa_end_catch@PLT
 3050      00
 3051              	.LEHE73:
 3052 0321 E9000000 		jmp	.L158
 3052      00
 3053              	.L159:
 3054 0326 4889EF   		movq	%rbp, %rdi
 3055 0329 48895C24 		movq	%rbx, 64(%rsp)
 3055      40
 3056 032e E8000000 		call	_ZN8UnitTest4TestD2Ev@PLT
 3056      00
 3057              	.L160:
 3058 0333 488D7C24 		leaq	16(%rsp), %rdi
 3058      10
 3059 0338 E8000000 		call	_ZN17ScopedCurrentTestD1Ev
 3059      00
 3060 033d 4C89E7   		movq	%r12, %rdi
 3061              	.LEHB74:
 3062 0340 E8000000 		call	_Unwind_Resume@PLT
 3062      00
 3063              	.LEHE74:
 3064              	.L168:
 3065 0345 F30F1EFA 		endbr64
 3066 0349 4889C5   		movq	%rax, %rbp
 3067 034c E8000000 		call	__cxa_end_catch@PLT
 3067      00
 3068 0351 4889EF   		movq	%rbp, %rdi
 3069              	.LEHB75:
 3070 0354 E8000000 		call	_Unwind_Resume@PLT
 3070      00
 3071              	.LEHE75:
 3072              		.cfi_endproc
 3073              	.LFE1201:
 3074              		.section	.gcc_except_table
 3075              		.align 4
 3076              	.LLSDAC1201:
 3077 0220 FF       		.byte	0xff
 3078 0221 9B       		.byte	0x9b
 3079 0222 19       		.uleb128 .LLSDATTC1201-.LLSDATTDC1201
 3080              	.LLSDATTDC1201:
 3081 0223 01       		.byte	0x1
 3082 0224 10       		.uleb128 .LLSDACSEC1201-.LLSDACSBC1201
 3083              	.LLSDACSBC1201:
 3084 0225 05       		.uleb128 .LEHB72-.LCOLDB29
 3085 0226 2F       		.uleb128 .LEHE72-.LEHB72
 3086 0227 5D       		.uleb128 .L168-.LCOLDB29
 3087 0228 00       		.uleb128 0
 3088 0229 34       		.uleb128 .LEHB73-.LCOLDB29
 3089 022a 05       		.uleb128 .LEHE73-.LEHB73
 3090 022b 00       		.uleb128 0
 3091 022c 00       		.uleb128 0
 3092 022d 58       		.uleb128 .LEHB74-.LCOLDB29
 3093 022e 05       		.uleb128 .LEHE74-.LEHB74
 3094 022f 00       		.uleb128 0
 3095 0230 00       		.uleb128 0
 3096 0231 6C       		.uleb128 .LEHB75-.LCOLDB29
 3097 0232 05       		.uleb128 .LEHE75-.LEHB75
 3098 0233 00       		.uleb128 0
 3099 0234 00       		.uleb128 0
 3100              	.LLSDACSEC1201:
 3101 0235 01       		.byte	0x1
 3102 0236 00       		.byte	0
 3103 0237 00       		.align 4
 3104 0238 00000000 		.long	0
 3105              	
 3106              	.LLSDATTC1201:
 3107              		.section	.text.unlikely
 3108              		.text
 3110              		.section	.text.unlikely
 3112              	.LCOLDE29:
 3113              		.text
 3114              	.LHOTE29:
 3115              		.section	.rodata.str1.1
 3116              	.LC30:
 3117 0033 70617373 		.string	"passing"
 3117      696E6700 
 3118              		.section	.rodata.str1.8
 3119 0069 00000000 		.align 8
 3119      000000
 3120              	.LC31:
 3121 0070 556E6861 		.string	"Unhandled exception in CHECK_EQUAL(0, results.GetFailureCount())"
 3121      6E646C65 
 3121      64206578 
 3121      63657074 
 3121      696F6E20 
 3122              		.section	.text.unlikely
 3123 0359 90       		.align 2
 3124              	.LCOLDB32:
 3125              		.text
 3126              	.LHOTB32:
 3127              		.align 2
 3128              		.p2align 4
 3130              	_ZNK12_GLOBAL__N_128TestPassingTestHasNoFailures7RunImplEv:
 3131              	.LFB1193:
 3132              		.cfi_startproc
 3133              		.cfi_personality 0x9b,DW.ref.__gxx_personality_v0
 3134              		.cfi_lsda 0x1b,.LLSDA1193
 3135 0980 F30F1EFA 		endbr64
 3136 0984 4156     		pushq	%r14
 3137              		.cfi_def_cfa_offset 16
 3138              		.cfi_offset 14, -16
 3139 0986 31F6     		xorl	%esi, %esi
 3140 0988 4155     		pushq	%r13
 3141              		.cfi_def_cfa_offset 24
 3142              		.cfi_offset 13, -24
 3143 098a 4154     		pushq	%r12
 3144              		.cfi_def_cfa_offset 32
 3145              		.cfi_offset 12, -32
 3146 098c 55       		pushq	%rbp
 3147              		.cfi_def_cfa_offset 40
 3148              		.cfi_offset 6, -40
 3149 098d 53       		pushq	%rbx
 3150              		.cfi_def_cfa_offset 48
 3151              		.cfi_offset 3, -48
 3152 098e 4883C480 		addq	$-128, %rsp
 3153              		.cfi_def_cfa_offset 176
 3154 0992 64488B04 		movq	%fs:40, %rax
 3154      25280000 
 3154      00
 3155 099b 48894424 		movq	%rax, 120(%rsp)
 3155      78
 3156 09a0 31C0     		xorl	%eax, %eax
 3157 09a2 4C8D6424 		leaq	32(%rsp), %r12
 3157      20
 3158 09a7 488D6C24 		leaq	64(%rsp), %rbp
 3158      40
 3159 09ac 4C89E7   		movq	%r12, %rdi
 3160              	.LEHB76:
 3161 09af E8000000 		call	_ZN8UnitTest11TestResultsC1EPNS_12TestReporterE@PLT
 3161      00
 3162 09b4 E8000000 		call	_ZN8UnitTest11CurrentTest7ResultsEv@PLT
 3162      00
 3163 09b9 4C8B30   		movq	(%rax), %r14
 3164 09bc 4C897424 		movq	%r14, 16(%rsp)
 3164      10
 3165 09c1 E8000000 		call	_ZN8UnitTest11CurrentTest7DetailsEv@PLT
 3165      00
 3166 09c6 4C8B28   		movq	(%rax), %r13
 3167 09c9 4C896C24 		movq	%r13, 24(%rsp)
 3167      18
 3168 09ce E8000000 		call	_ZN8UnitTest11CurrentTest7ResultsEv@PLT
 3168      00
 3169              	.LEHE76:
 3170 09d3 4531C0   		xorl	%r8d, %r8d
 3171 09d6 4889EF   		movq	%rbp, %rdi
 3172 09d9 488D0D00 		leaq	.LC22(%rip), %rcx
 3172      000000
 3173 09e0 4C8920   		movq	%r12, (%rax)
 3174 09e3 488D1500 		leaq	.LC23(%rip), %rdx
 3174      000000
 3175 09ea 488D3500 		leaq	.LC30(%rip), %rsi
 3175      000000
 3176              	.LEHB77:
 3177 09f1 E8000000 		call	_ZN8UnitTest4TestC2EPKcS2_S2_i@PLT
 3177      00
 3178              	.LEHE77:
 3179 09f6 488D1D00 		leaq	16+_ZTVZNK12_GLOBAL__N_128TestPassingTestHasNoFailures7RunImplEvE11PassingTest(%rip), %rbx
 3179      000000
 3180 09fd 4889EF   		movq	%rbp, %rdi
 3181 0a00 48895C24 		movq	%rbx, 64(%rsp)
 3181      40
 3182              	.LEHB78:
 3183 0a05 E8000000 		call	_ZN8UnitTest4Test3RunEv@PLT
 3183      00
 3184              	.LEHE78:
 3185 0a0a 4889EF   		movq	%rbp, %rdi
 3186 0a0d 48895C24 		movq	%rbx, 64(%rsp)
 3186      40
 3187              	.LEHB79:
 3188 0a12 E8000000 		call	_ZN8UnitTest4TestD2Ev@PLT
 3188      00
 3189              	.LEHE79:
 3190              	.LEHB80:
 3191 0a17 E8000000 		call	_ZN8UnitTest11CurrentTest7ResultsEv@PLT
 3191      00
 3192 0a1c 4C8930   		movq	%r14, (%rax)
 3193 0a1f E8000000 		call	_ZN8UnitTest11CurrentTest7DetailsEv@PLT
 3193      00
 3194              	.LEHE80:
 3195 0a24 4C8928   		movq	%r13, (%rax)
 3196              	.LEHB81:
 3197 0a27 E8000000 		call	_ZN8UnitTest11CurrentTest7DetailsEv@PLT
 3197      00
 3198 0a2c 488B30   		movq	(%rax), %rsi
 3199 0a2f BA1C0000 		movl	$28, %edx
 3199      00
 3200 0a34 4889EF   		movq	%rbp, %rdi
 3201 0a37 E8000000 		call	_ZN8UnitTest11TestDetailsC1ERKS0_i@PLT
 3201      00
 3202 0a3c 4C89E7   		movq	%r12, %rdi
 3203 0a3f E8000000 		call	_ZNK8UnitTest11TestResults15GetFailureCountEv@PLT
 3203      00
 3204 0a44 89442410 		movl	%eax, 16(%rsp)
 3205 0a48 C744240C 		movl	$0, 12(%rsp)
 3205      00000000 
 3206 0a50 E8000000 		call	_ZN8UnitTest11CurrentTest7ResultsEv@PLT
 3206      00
 3207 0a55 488B38   		movq	(%rax), %rdi
 3208 0a58 488D5424 		leaq	16(%rsp), %rdx
 3208      10
 3209 0a5d 488D7424 		leaq	12(%rsp), %rsi
 3209      0C
 3210 0a62 4889E9   		movq	%rbp, %rcx
 3211 0a65 E8000000 		call	_ZN8UnitTest10CheckEqualIiiEEvRNS_11TestResultsERKT_RKT0_RKNS_11TestDetailsE
 3211      00
 3212              	.LEHE81:
 3213              	.L171:
 3214 0a6a 488B4424 		movq	120(%rsp), %rax
 3214      78
 3215 0a6f 64482B04 		subq	%fs:40, %rax
 3215      25280000 
 3215      00
 3216 0a78 750D     		jne	.L183
 3217 0a7a 4883EC80 		subq	$-128, %rsp
 3218              		.cfi_remember_state
 3219              		.cfi_def_cfa_offset 48
 3220 0a7e 5B       		popq	%rbx
 3221              		.cfi_def_cfa_offset 40
 3222 0a7f 5D       		popq	%rbp
 3223              		.cfi_def_cfa_offset 32
 3224 0a80 415C     		popq	%r12
 3225              		.cfi_def_cfa_offset 24
 3226 0a82 415D     		popq	%r13
 3227              		.cfi_def_cfa_offset 16
 3228 0a84 415E     		popq	%r14
 3229              		.cfi_def_cfa_offset 8
 3230 0a86 C3       		ret
 3231              	.L183:
 3232              		.cfi_restore_state
 3233 0a87 E8000000 		call	__stack_chk_fail@PLT
 3233      00
 3234              	.L180:
 3235 0a8c F30F1EFA 		endbr64
 3236 0a90 4889C7   		movq	%rax, %rdi
 3237 0a93 E9000000 		jmp	.L174
 3237      00
 3238              	.L179:
 3239 0a98 F30F1EFA 		endbr64
 3240 0a9c 4989C4   		movq	%rax, %r12
 3241 0a9f E9000000 		jmp	.L172
 3241      00
 3242              	.L178:
 3243 0aa4 F30F1EFA 		endbr64
 3244 0aa8 4989C4   		movq	%rax, %r12
 3245 0aab E9000000 		jmp	.L173
 3245      00
 3246              		.section	.gcc_except_table
 3247              		.align 4
 3248              	.LLSDA1193:
 3249 023c FF       		.byte	0xff
 3250 023d 9B       		.byte	0x9b
 3251 023e 29       		.uleb128 .LLSDATT1193-.LLSDATTD1193
 3252              	.LLSDATTD1193:
 3253 023f 01       		.byte	0x1
 3254 0240 20       		.uleb128 .LLSDACSE1193-.LLSDACSB1193
 3255              	.LLSDACSB1193:
 3256 0241 2F       		.uleb128 .LEHB76-.LFB1193
 3257 0242 24       		.uleb128 .LEHE76-.LEHB76
 3258 0243 00       		.uleb128 0
 3259 0244 00       		.uleb128 0
 3260 0245 71       		.uleb128 .LEHB77-.LFB1193
 3261 0246 05       		.uleb128 .LEHE77-.LEHB77
 3262 0247 A402     		.uleb128 .L178-.LFB1193
 3263 0249 00       		.uleb128 0
 3264 024a 8501     		.uleb128 .LEHB78-.LFB1193
 3265 024c 05       		.uleb128 .LEHE78-.LEHB78
 3266 024d 9802     		.uleb128 .L179-.LFB1193
 3267 024f 00       		.uleb128 0
 3268 0250 9201     		.uleb128 .LEHB79-.LFB1193
 3269 0252 05       		.uleb128 .LEHE79-.LEHB79
 3270 0253 A402     		.uleb128 .L178-.LFB1193
 3271 0255 00       		.uleb128 0
 3272 0256 9701     		.uleb128 .LEHB80-.LFB1193
 3273 0258 0D       		.uleb128 .LEHE80-.LEHB80
 3274 0259 00       		.uleb128 0
 3275 025a 00       		.uleb128 0
 3276 025b A701     		.uleb128 .LEHB81-.LFB1193
 3277 025d 43       		.uleb128 .LEHE81-.LEHB81
 3278 025e 8C02     		.uleb128 .L180-.LFB1193
 3279 0260 01       		.uleb128 0x1
 3280              	.LLSDACSE1193:
 3281 0261 01       		.byte	0x1
 3282 0262 00       		.byte	0
 3283 0263 00       		.align 4
 3284 0264 00000000 		.long	0
 3285              	
 3286              	.LLSDATT1193:
 3287              		.text
 3288              		.cfi_endproc
 3289              		.section	.text.unlikely
 3290              		.cfi_startproc
 3291              		.cfi_personality 0x9b,DW.ref.__gxx_personality_v0
 3292              		.cfi_lsda 0x1b,.LLSDAC1193
 3294              	_ZNK12_GLOBAL__N_128TestPassingTestHasNoFailures7RunImplEv.cold:
 3295              	.LFSB1193:
 3296              	.L174:
 3297              		.cfi_def_cfa_offset 176
 3298              		.cfi_offset 3, -48
 3299              		.cfi_offset 6, -40
 3300              		.cfi_offset 12, -32
 3301              		.cfi_offset 13, -24
 3302              		.cfi_offset 14, -16
 3303 035a E8000000 		call	__cxa_begin_catch@PLT
 3303      00
 3304              	.LEHB82:
 3305 035f E8000000 		call	_ZN8UnitTest11CurrentTest7ResultsEv@PLT
 3305      00
 3306 0364 4C8B20   		movq	(%rax), %r12
 3307 0367 E8000000 		call	_ZN8UnitTest11CurrentTest7DetailsEv@PLT
 3307      00
 3308 036c 488B30   		movq	(%rax), %rsi
 3309 036f BA1C0000 		movl	$28, %edx
 3309      00
 3310 0374 4889EF   		movq	%rbp, %rdi
 3311 0377 E8000000 		call	_ZN8UnitTest11TestDetailsC1ERKS0_i@PLT
 3311      00
 3312 037c 488D1500 		leaq	.LC31(%rip), %rdx
 3312      000000
 3313 0383 4889EE   		movq	%rbp, %rsi
 3314 0386 4C89E7   		movq	%r12, %rdi
 3315 0389 E8000000 		call	_ZN8UnitTest11TestResults13OnTestFailureERKNS_11TestDetailsEPKc@PLT
 3315      00
 3316              	.LEHE82:
 3317              	.LEHB83:
 3318 038e E8000000 		call	__cxa_end_catch@PLT
 3318      00
 3319              	.LEHE83:
 3320 0393 E9000000 		jmp	.L171
 3320      00
 3321              	.L172:
 3322 0398 4889EF   		movq	%rbp, %rdi
 3323 039b 48895C24 		movq	%rbx, 64(%rsp)
 3323      40
 3324 03a0 E8000000 		call	_ZN8UnitTest4TestD2Ev@PLT
 3324      00
 3325              	.L173:
 3326 03a5 488D7C24 		leaq	16(%rsp), %rdi
 3326      10
 3327 03aa E8000000 		call	_ZN17ScopedCurrentTestD1Ev
 3327      00
 3328 03af 4C89E7   		movq	%r12, %rdi
 3329              	.LEHB84:
 3330 03b2 E8000000 		call	_Unwind_Resume@PLT
 3330      00
 3331              	.LEHE84:
 3332              	.L181:
 3333 03b7 F30F1EFA 		endbr64
 3334 03bb 4889C5   		movq	%rax, %rbp
 3335 03be E8000000 		call	__cxa_end_catch@PLT
 3335      00
 3336 03c3 4889EF   		movq	%rbp, %rdi
 3337              	.LEHB85:
 3338 03c6 E8000000 		call	_Unwind_Resume@PLT
 3338      00
 3339              	.LEHE85:
 3340              		.cfi_endproc
 3341              	.LFE1193:
 3342              		.section	.gcc_except_table
 3343              		.align 4
 3344              	.LLSDAC1193:
 3345 0268 FF       		.byte	0xff
 3346 0269 9B       		.byte	0x9b
 3347 026a 19       		.uleb128 .LLSDATTC1193-.LLSDATTDC1193
 3348              	.LLSDATTDC1193:
 3349 026b 01       		.byte	0x1
 3350 026c 10       		.uleb128 .LLSDACSEC1193-.LLSDACSBC1193
 3351              	.LLSDACSBC1193:
 3352 026d 05       		.uleb128 .LEHB82-.LCOLDB32
 3353 026e 2F       		.uleb128 .LEHE82-.LEHB82
 3354 026f 5D       		.uleb128 .L181-.LCOLDB32
 3355 0270 00       		.uleb128 0
 3356 0271 34       		.uleb128 .LEHB83-.LCOLDB32
 3357 0272 05       		.uleb128 .LEHE83-.LEHB83
 3358 0273 00       		.uleb128 0
 3359 0274 00       		.uleb128 0
 3360 0275 58       		.uleb128 .LEHB84-.LCOLDB32
 3361 0276 05       		.uleb128 .LEHE84-.LEHB84
 3362 0277 00       		.uleb128 0
 3363 0278 00       		.uleb128 0
 3364 0279 6C       		.uleb128 .LEHB85-.LCOLDB32
 3365 027a 05       		.uleb128 .LEHE85-.LEHB85
 3366 027b 00       		.uleb128 0
 3367 027c 00       		.uleb128 0
 3368              	.LLSDACSEC1193:
 3369 027d 01       		.byte	0x1
 3370 027e 00       		.byte	0
 3371 027f 00       		.align 4
 3372 0280 00000000 		.long	0
 3373              	
 3374              	.LLSDATTC1193:
 3375              		.section	.text.unlikely
 3376              		.text
 3378              		.section	.text.unlikely
 3380              	.LCOLDE32:
 3381              		.text
 3382              	.LHOTE32:
 3383              		.section	.rodata.str1.1
 3384              	.LC33:
 3385 003b 54657374 		.string	"TestTest.cpp"
 3385      54657374 
 3385      2E637070 
 3385      00
 3386              	.LC34:
 3387 0048 50617373 		.string	"PassingTestHasNoFailures"
 3387      696E6754 
 3387      65737448 
 3387      61734E6F 
 3387      4661696C 
 3388              	.LC35:
 3389 0061 4661696C 		.string	"FailingTestHasFailures"
 3389      696E6754 
 3389      65737448 
 3389      61734661 
 3389      696C7572 
 3390              		.section	.rodata.str1.8
 3391 00b1 00000000 		.align 8
 3391      000000
 3392              	.LC36:
 3393 00b8 5468726F 		.string	"ThrowingTestsAreReportedAsFailures"
 3393      77696E67 
 3393      54657374 
 3393      73417265 
 3393      5265706F 
 3394 00db 00000000 		.align 8
 3394      00
 3395              	.LC37:
 3396 00e0 43726173 		.string	"CrashingTestsAreReportedAsFailures"
 3396      68696E67 
 3396      54657374 
 3396      73417265 
 3396      5265706F 
 3397 0103 00000000 		.align 8
 3397      00
 3398              	.LC38:
 3399 0108 54657374 		.string	"TestWithUnspecifiedSuiteGetsDefaultSuite"
 3399      57697468 
 3399      556E7370 
 3399      65636966 
 3399      69656453 
 3400 0131 00000000 		.align 8
 3400      000000
 3401              	.LC39:
 3402 0138 54657374 		.string	"TestReflectsSpecifiedSuiteName"
 3402      5265666C 
 3402      65637473 
 3402      53706563 
 3402      69666965 
 3403 0157 00       		.align 8
 3404              	.LC40:
 3405 0158 4F75744F 		.string	"OutOfCoreCHECKMacrosCanFailTests"
 3405      66436F72 
 3405      65434845 
 3405      434B4D61 
 3405      63726F73 
 3406              		.section	.text.startup,"ax",@progbits
 3407              		.p2align 4
 3409              	_GLOBAL__sub_I_TestTest.cpp:
 3410              	.LFB1365:
 3411              		.cfi_startproc
 3412 0000 F30F1EFA 		endbr64
 3413 0004 4157     		pushq	%r15
 3414              		.cfi_def_cfa_offset 16
 3415              		.cfi_offset 15, -16
 3416 0006 4C8D3D00 		leaq	_ZN12_GLOBAL__N_136testPassingTestHasNoFailuresInstanceE(%rip), %r15
 3416      000000
 3417 000d 41B80A00 		movl	$10, %r8d
 3417      0000
 3418 0013 488D3500 		leaq	.LC34(%rip), %rsi
 3418      000000
 3419 001a 4156     		pushq	%r14
 3420              		.cfi_def_cfa_offset 24
 3421              		.cfi_offset 14, -24
 3422 001c 4C8D3500 		leaq	.LC33(%rip), %r14
 3422      000000
 3423 0023 4C89FF   		movq	%r15, %rdi
 3424 0026 4155     		pushq	%r13
 3425              		.cfi_def_cfa_offset 32
 3426              		.cfi_offset 13, -32
 3427 0028 4C8D2D00 		leaq	.LC23(%rip), %r13
 3427      000000
 3428 002f 4C89F1   		movq	%r14, %rcx
 3429 0032 4154     		pushq	%r12
 3430              		.cfi_def_cfa_offset 40
 3431              		.cfi_offset 12, -40
 3432 0034 4C89EA   		movq	%r13, %rdx
 3433 0037 4C8D2500 		leaq	__dso_handle(%rip), %r12
 3433      000000
 3434 003e 4883EC08 		subq	$8, %rsp
 3435              		.cfi_def_cfa_offset 48
 3436 0042 E8000000 		call	_ZN8UnitTest4TestC2EPKcS2_S2_i@PLT
 3436      00
 3437 0047 4C89E2   		movq	%r12, %rdx
 3438 004a 4C89FE   		movq	%r15, %rsi
 3439 004d 488D3D00 		leaq	_ZN12_GLOBAL__N_128TestPassingTestHasNoFailuresD1Ev(%rip), %rdi
 3439      000000
 3440 0054 488D0500 		leaq	16+_ZTVN12_GLOBAL__N_128TestPassingTestHasNoFailuresE(%rip), %rax
 3440      000000
 3441 005b 48890500 		movq	%rax, _ZN12_GLOBAL__N_136testPassingTestHasNoFailuresInstanceE(%rip)
 3441      000000
 3442 0062 E8000000 		call	__cxa_atexit@PLT
 3442      00
 3443 0067 E8000000 		call	_ZN8UnitTest4Test11GetTestListEv@PLT
 3443      00
 3444 006c 4C89FA   		movq	%r15, %rdx
 3445 006f 488D3D00 		leaq	_ZN12_GLOBAL__N_129adderPassingTestHasNoFailuresE(%rip), %rdi
 3445      000000
 3446 0076 4C8D3D00 		leaq	_ZN12_GLOBAL__N_134testFailingTestHasFailuresInstanceE(%rip), %r15
 3446      000000
 3447 007d 4889C6   		movq	%rax, %rsi
 3448 0080 E8000000 		call	_ZN8UnitTest9ListAdderC1ERNS_8TestListEPNS_4TestE@PLT
 3448      00
 3449 0085 4C89F1   		movq	%r14, %rcx
 3450 0088 4C89EA   		movq	%r13, %rdx
 3451 008b 4C89FF   		movq	%r15, %rdi
 3452 008e 41B82000 		movl	$32, %r8d
 3452      0000
 3453 0094 488D3500 		leaq	.LC35(%rip), %rsi
 3453      000000
 3454 009b E8000000 		call	_ZN8UnitTest4TestC2EPKcS2_S2_i@PLT
 3454      00
 3455 00a0 4C89E2   		movq	%r12, %rdx
 3456 00a3 4C89FE   		movq	%r15, %rsi
 3457 00a6 488D3D00 		leaq	_ZN12_GLOBAL__N_126TestFailingTestHasFailuresD1Ev(%rip), %rdi
 3457      000000
 3458 00ad 488D0500 		leaq	16+_ZTVN12_GLOBAL__N_126TestFailingTestHasFailuresE(%rip), %rax
 3458      000000
 3459 00b4 48890500 		movq	%rax, _ZN12_GLOBAL__N_134testFailingTestHasFailuresInstanceE(%rip)
 3459      000000
 3460 00bb E8000000 		call	__cxa_atexit@PLT
 3460      00
 3461 00c0 E8000000 		call	_ZN8UnitTest4Test11GetTestListEv@PLT
 3461      00
 3462 00c5 4C89FA   		movq	%r15, %rdx
 3463 00c8 488D3D00 		leaq	_ZN12_GLOBAL__N_127adderFailingTestHasFailuresE(%rip), %rdi
 3463      000000
 3464 00cf 4C8D3D00 		leaq	_ZN12_GLOBAL__N_146testThrowingTestsAreReportedAsFailuresInstanceE(%rip), %r15
 3464      000000
 3465 00d6 4889C6   		movq	%rax, %rsi
 3466 00d9 E8000000 		call	_ZN8UnitTest9ListAdderC1ERNS_8TestListEPNS_4TestE@PLT
 3466      00
 3467 00de 4C89F1   		movq	%r14, %rcx
 3468 00e1 4C89EA   		movq	%r13, %rdx
 3469 00e4 4C89FF   		movq	%r15, %rdi
 3470 00e7 41B83600 		movl	$54, %r8d
 3470      0000
 3471 00ed 488D3500 		leaq	.LC36(%rip), %rsi
 3471      000000
 3472 00f4 E8000000 		call	_ZN8UnitTest4TestC2EPKcS2_S2_i@PLT
 3472      00
 3473 00f9 4C89E2   		movq	%r12, %rdx
 3474 00fc 4C89FE   		movq	%r15, %rsi
 3475 00ff 488D3D00 		leaq	_ZN12_GLOBAL__N_138TestThrowingTestsAreReportedAsFailuresD1Ev(%rip), %rdi
 3475      000000
 3476 0106 488D0500 		leaq	16+_ZTVN12_GLOBAL__N_138TestThrowingTestsAreReportedAsFailuresE(%rip), %rax
 3476      000000
 3477 010d 48890500 		movq	%rax, _ZN12_GLOBAL__N_146testThrowingTestsAreReportedAsFailuresInstanceE(%rip)
 3477      000000
 3478 0114 E8000000 		call	__cxa_atexit@PLT
 3478      00
 3479 0119 E8000000 		call	_ZN8UnitTest4Test11GetTestListEv@PLT
 3479      00
 3480 011e 4C89FA   		movq	%r15, %rdx
 3481 0121 488D3D00 		leaq	_ZN12_GLOBAL__N_139adderThrowingTestsAreReportedAsFailuresE(%rip), %rdi
 3481      000000
 3482 0128 4C8D3D00 		leaq	_ZN12_GLOBAL__N_146testCrashingTestsAreReportedAsFailuresInstanceE(%rip), %r15
 3482      000000
 3483 012f 4889C6   		movq	%rax, %rsi
 3484 0132 E8000000 		call	_ZN8UnitTest9ListAdderC1ERNS_8TestListEPNS_4TestE@PLT
 3484      00
 3485 0137 4C89F1   		movq	%r14, %rcx
 3486 013a 4C89EA   		movq	%r13, %rdx
 3487 013d 4C89FF   		movq	%r15, %rdi
 3488 0140 41B84D00 		movl	$77, %r8d
 3488      0000
 3489 0146 488D3500 		leaq	.LC37(%rip), %rsi
 3489      000000
 3490 014d E8000000 		call	_ZN8UnitTest4TestC2EPKcS2_S2_i@PLT
 3490      00
 3491 0152 4C89E2   		movq	%r12, %rdx
 3492 0155 4C89FE   		movq	%r15, %rsi
 3493 0158 488D3D00 		leaq	_ZN12_GLOBAL__N_138TestCrashingTestsAreReportedAsFailuresD1Ev(%rip), %rdi
 3493      000000
 3494 015f 488D0500 		leaq	16+_ZTVN12_GLOBAL__N_138TestCrashingTestsAreReportedAsFailuresE(%rip), %rax
 3494      000000
 3495 0166 48890500 		movq	%rax, _ZN12_GLOBAL__N_146testCrashingTestsAreReportedAsFailuresInstanceE(%rip)
 3495      000000
 3496 016d E8000000 		call	__cxa_atexit@PLT
 3496      00
 3497 0172 E8000000 		call	_ZN8UnitTest4Test11GetTestListEv@PLT
 3497      00
 3498 0177 4C89FA   		movq	%r15, %rdx
 3499 017a 488D3D00 		leaq	_ZN12_GLOBAL__N_139adderCrashingTestsAreReportedAsFailuresE(%rip), %rdi
 3499      000000
 3500 0181 4C8D3D00 		leaq	_ZN12_GLOBAL__N_152testTestWithUnspecifiedSuiteGetsDefaultSuiteInstanceE(%rip), %r15
 3500      000000
 3501 0188 4889C6   		movq	%rax, %rsi
 3502 018b E8000000 		call	_ZN8UnitTest9ListAdderC1ERNS_8TestListEPNS_4TestE@PLT
 3502      00
 3503 0190 4C89F1   		movq	%r14, %rcx
 3504 0193 4C89EA   		movq	%r13, %rdx
 3505 0196 4C89FF   		movq	%r15, %rdi
 3506 0199 41B86600 		movl	$102, %r8d
 3506      0000
 3507 019f 488D3500 		leaq	.LC38(%rip), %rsi
 3507      000000
 3508 01a6 E8000000 		call	_ZN8UnitTest4TestC2EPKcS2_S2_i@PLT
 3508      00
 3509 01ab 4C89E2   		movq	%r12, %rdx
 3510 01ae 4C89FE   		movq	%r15, %rsi
 3511 01b1 488D3D00 		leaq	_ZN12_GLOBAL__N_144TestTestWithUnspecifiedSuiteGetsDefaultSuiteD1Ev(%rip), %rdi
 3511      000000
 3512 01b8 488D0500 		leaq	16+_ZTVN12_GLOBAL__N_144TestTestWithUnspecifiedSuiteGetsDefaultSuiteE(%rip), %rax
 3512      000000
 3513 01bf 48890500 		movq	%rax, _ZN12_GLOBAL__N_152testTestWithUnspecifiedSuiteGetsDefaultSuiteInstanceE(%rip)
 3513      000000
 3514 01c6 E8000000 		call	__cxa_atexit@PLT
 3514      00
 3515 01cb E8000000 		call	_ZN8UnitTest4Test11GetTestListEv@PLT
 3515      00
 3516 01d0 4C89FA   		movq	%r15, %rdx
 3517 01d3 488D3D00 		leaq	_ZN12_GLOBAL__N_145adderTestWithUnspecifiedSuiteGetsDefaultSuiteE(%rip), %rdi
 3517      000000
 3518 01da 4C8D3D00 		leaq	_ZN12_GLOBAL__N_142testTestReflectsSpecifiedSuiteNameInstanceE(%rip), %r15
 3518      000000
 3519 01e1 4889C6   		movq	%rax, %rsi
 3520 01e4 E8000000 		call	_ZN8UnitTest9ListAdderC1ERNS_8TestListEPNS_4TestE@PLT
 3520      00
 3521 01e9 4C89F1   		movq	%r14, %rcx
 3522 01ec 4C89EA   		movq	%r13, %rdx
 3523 01ef 4C89FF   		movq	%r15, %rdi
 3524 01f2 41B86D00 		movl	$109, %r8d
 3524      0000
 3525 01f8 488D3500 		leaq	.LC39(%rip), %rsi
 3525      000000
 3526 01ff E8000000 		call	_ZN8UnitTest4TestC2EPKcS2_S2_i@PLT
 3526      00
 3527 0204 4C89E2   		movq	%r12, %rdx
 3528 0207 4C89FE   		movq	%r15, %rsi
 3529 020a 488D3D00 		leaq	_ZN12_GLOBAL__N_134TestTestReflectsSpecifiedSuiteNameD1Ev(%rip), %rdi
 3529      000000
 3530 0211 488D0500 		leaq	16+_ZTVN12_GLOBAL__N_134TestTestReflectsSpecifiedSuiteNameE(%rip), %rax
 3530      000000
 3531 0218 48890500 		movq	%rax, _ZN12_GLOBAL__N_142testTestReflectsSpecifiedSuiteNameInstanceE(%rip)
 3531      000000
 3532 021f E8000000 		call	__cxa_atexit@PLT
 3532      00
 3533 0224 E8000000 		call	_ZN8UnitTest4Test11GetTestListEv@PLT
 3533      00
 3534 0229 4C89FA   		movq	%r15, %rdx
 3535 022c 488D3D00 		leaq	_ZN12_GLOBAL__N_135adderTestReflectsSpecifiedSuiteNameE(%rip), %rdi
 3535      000000
 3536 0233 4889C6   		movq	%rax, %rsi
 3537 0236 E8000000 		call	_ZN8UnitTest9ListAdderC1ERNS_8TestListEPNS_4TestE@PLT
 3537      00
 3538 023b 4C89EA   		movq	%r13, %rdx
 3539 023e 4C89F1   		movq	%r14, %rcx
 3540 0241 4C8D2D00 		leaq	_ZN12_GLOBAL__N_144testOutOfCoreCHECKMacrosCanFailTestsInstanceE(%rip), %r13
 3540      000000
 3541 0248 41B87900 		movl	$121, %r8d
 3541      0000
 3542 024e 4C89EF   		movq	%r13, %rdi
 3543 0251 488D3500 		leaq	.LC40(%rip), %rsi
 3543      000000
 3544 0258 E8000000 		call	_ZN8UnitTest4TestC2EPKcS2_S2_i@PLT
 3544      00
 3545 025d 4C89E2   		movq	%r12, %rdx
 3546 0260 4C89EE   		movq	%r13, %rsi
 3547 0263 488D3D00 		leaq	_ZN12_GLOBAL__N_136TestOutOfCoreCHECKMacrosCanFailTestsD1Ev(%rip), %rdi
 3547      000000
 3548 026a 488D0500 		leaq	16+_ZTVN12_GLOBAL__N_136TestOutOfCoreCHECKMacrosCanFailTestsE(%rip), %rax
 3548      000000
 3549 0271 48890500 		movq	%rax, _ZN12_GLOBAL__N_144testOutOfCoreCHECKMacrosCanFailTestsInstanceE(%rip)
 3549      000000
 3550 0278 E8000000 		call	__cxa_atexit@PLT
 3550      00
 3551 027d E8000000 		call	_ZN8UnitTest4Test11GetTestListEv@PLT
 3551      00
 3552 0282 4883C408 		addq	$8, %rsp
 3553              		.cfi_def_cfa_offset 40
 3554 0286 4C89EA   		movq	%r13, %rdx
 3555 0289 488D3D00 		leaq	_ZN12_GLOBAL__N_137adderOutOfCoreCHECKMacrosCanFailTestsE(%rip), %rdi
 3555      000000
 3556 0290 415C     		popq	%r12
 3557              		.cfi_def_cfa_offset 32
 3558 0292 4889C6   		movq	%rax, %rsi
 3559 0295 415D     		popq	%r13
 3560              		.cfi_def_cfa_offset 24
 3561 0297 415E     		popq	%r14
 3562              		.cfi_def_cfa_offset 16
 3563 0299 415F     		popq	%r15
 3564              		.cfi_def_cfa_offset 8
 3565 029b E9000000 		jmp	_ZN8UnitTest9ListAdderC1ERNS_8TestListEPNS_4TestE@PLT
 3565      00
 3566              		.cfi_endproc
 3567              	.LFE1365:
 3569              		.section	.init_array,"aw"
 3570              		.align 8
 3571 0000 00000000 		.quad	_GLOBAL__sub_I_TestTest.cpp
 3571      00000000 
 3572              		.section	.rodata.str1.1
 3573              	.LC41:
 3574 0078 74657374 		.string	"testSuite"
 3574      53756974 
 3574      6500
 3575              	.LC42:
 3576 0082 74657374 		.string	"test"
 3576      00
 3577              		.section	.rodata.str1.8
 3578 0179 00000000 		.align 8
 3578      000000
 3579              	.LC43:
 3580 0180 74657374 		.string	"test.m_details.suiteName != NULL"
 3580      2E6D5F64 
 3580      65746169 
 3580      6C732E73 
 3580      75697465 
 3581 01a1 00000000 		.align 8
 3581      000000
 3582              	.LC44:
 3583 01a8 556E6861 		.string	"Unhandled exception in CHECK(test.m_details.suiteName != NULL)"
 3583      6E646C65 
 3583      64206578 
 3583      63657074 
 3583      696F6E20 
 3584 01e7 00       		.align 8
 3585              	.LC45:
 3586 01e8 556E6861 		.string	"Unhandled exception in CHECK_EQUAL(\"testSuite\", test.m_details.suiteName)"
 3586      6E646C65 
 3586      64206578 
 3586      63657074 
 3586      696F6E20 
 3587              		.section	.text.unlikely
 3588 03cb 90       		.align 2
 3589              	.LCOLDB46:
 3590              		.text
 3591              	.LHOTB46:
 3592              		.align 2
 3593              		.p2align 4
 3595              	_ZNK12_GLOBAL__N_134TestTestReflectsSpecifiedSuiteName7RunImplEv:
 3596              	.LFB1229:
 3597              		.cfi_startproc
 3598              		.cfi_personality 0x9b,DW.ref.__gxx_personality_v0
 3599              		.cfi_lsda 0x1b,.LLSDA1229
 3600 0ab0 F30F1EFA 		endbr64
 3601 0ab4 4156     		pushq	%r14
 3602              		.cfi_def_cfa_offset 16
 3603              		.cfi_offset 14, -16
 3604 0ab6 4531C0   		xorl	%r8d, %r8d
 3605 0ab9 488D0D00 		leaq	.LC22(%rip), %rcx
 3605      000000
 3606 0ac0 488D3500 		leaq	.LC42(%rip), %rsi
 3606      000000
 3607 0ac7 4155     		pushq	%r13
 3608              		.cfi_def_cfa_offset 24
 3609              		.cfi_offset 13, -24
 3610 0ac9 4C8D2D00 		leaq	.LC41(%rip), %r13
 3610      000000
 3611 0ad0 4154     		pushq	%r12
 3612              		.cfi_def_cfa_offset 32
 3613              		.cfi_offset 12, -32
 3614 0ad2 4C89EA   		movq	%r13, %rdx
 3615 0ad5 55       		pushq	%rbp
 3616              		.cfi_def_cfa_offset 40
 3617              		.cfi_offset 6, -40
 3618 0ad6 4883EC68 		subq	$104, %rsp
 3619              		.cfi_def_cfa_offset 144
 3620 0ada 64488B04 		movq	%fs:40, %rax
 3620      25280000 
 3620      00
 3621 0ae3 48894424 		movq	%rax, 88(%rsp)
 3621      58
 3622 0ae8 31C0     		xorl	%eax, %eax
 3623 0aea 488D6C24 		leaq	32(%rsp), %rbp
 3623      20
 3624 0aef 4889EF   		movq	%rbp, %rdi
 3625              	.LEHB86:
 3626 0af2 E8000000 		call	_ZN8UnitTest4TestC1EPKcS2_S2_i@PLT
 3626      00
 3627              	.LEHE86:
 3628 0af7 48837C24 		cmpq	$0, 40(%rsp)
 3628      2800
 3629 0afd 7461     		je	.L204
 3630              	.L188:
 3631              	.LEHB87:
 3632 0aff E8000000 		call	_ZN8UnitTest11CurrentTest7DetailsEv@PLT
 3632      00
 3633 0b04 4989E4   		movq	%rsp, %r12
 3634 0b07 488B30   		movq	(%rax), %rsi
 3635 0b0a BA710000 		movl	$113, %edx
 3635      00
 3636 0b0f 4C89E7   		movq	%r12, %rdi
 3637 0b12 E8000000 		call	_ZN8UnitTest11TestDetailsC1ERKS0_i@PLT
 3637      00
 3638 0b17 4C8B7424 		movq	40(%rsp), %r14
 3638      28
 3639 0b1c E8000000 		call	_ZN8UnitTest11CurrentTest7ResultsEv@PLT
 3639      00
 3640 0b21 488B38   		movq	(%rax), %rdi
 3641 0b24 4C89E1   		movq	%r12, %rcx
 3642 0b27 4C89F2   		movq	%r14, %rdx
 3643 0b2a 4C89EE   		movq	%r13, %rsi
 3644 0b2d E8000000 		call	_ZN8UnitTest10CheckEqualERNS_11TestResultsEPKcS3_RKNS_11TestDetailsE@PLT
 3644      00
 3645              	.LEHE87:
 3646              	.L194:
 3647 0b32 4889EF   		movq	%rbp, %rdi
 3648              	.LEHB88:
 3649 0b35 E8000000 		call	_ZN8UnitTest4TestD1Ev@PLT
 3649      00
 3650              	.LEHE88:
 3651 0b3a 488B4424 		movq	88(%rsp), %rax
 3651      58
 3652 0b3f 64482B04 		subq	%fs:40, %rax
 3652      25280000 
 3652      00
 3653 0b48 754D     		jne	.L205
 3654 0b4a 4883C468 		addq	$104, %rsp
 3655              		.cfi_remember_state
 3656              		.cfi_def_cfa_offset 40
 3657 0b4e 5D       		popq	%rbp
 3658              		.cfi_def_cfa_offset 32
 3659 0b4f 415C     		popq	%r12
 3660              		.cfi_def_cfa_offset 24
 3661 0b51 415D     		popq	%r13
 3662              		.cfi_def_cfa_offset 16
 3663 0b53 415E     		popq	%r14
 3664              		.cfi_def_cfa_offset 8
 3665 0b55 C3       		ret
 3666 0b56 662E0F1F 		.p2align 4,,10
 3666      84000000 
 3666      0000
 3667              		.p2align 3
 3668              	.L204:
 3669              		.cfi_restore_state
 3670              	.LEHB89:
 3671 0b60 E8000000 		call	_ZN8UnitTest11CurrentTest7ResultsEv@PLT
 3671      00
 3672 0b65 4C8B30   		movq	(%rax), %r14
 3673 0b68 E8000000 		call	_ZN8UnitTest11CurrentTest7DetailsEv@PLT
 3673      00
 3674 0b6d 4989E4   		movq	%rsp, %r12
 3675 0b70 488B30   		movq	(%rax), %rsi
 3676 0b73 BA700000 		movl	$112, %edx
 3676      00
 3677 0b78 4C89E7   		movq	%r12, %rdi
 3678 0b7b E8000000 		call	_ZN8UnitTest11TestDetailsC1ERKS0_i@PLT
 3678      00
 3679 0b80 488D1500 		leaq	.LC43(%rip), %rdx
 3679      000000
 3680 0b87 4C89E6   		movq	%r12, %rsi
 3681 0b8a 4C89F7   		movq	%r14, %rdi
 3682 0b8d E8000000 		call	_ZN8UnitTest11TestResults13OnTestFailureERKNS_11TestDetailsEPKc@PLT
 3682      00
 3683              	.LEHE89:
 3684 0b92 E968FFFF 		jmp	.L188
 3684      FF
 3685              	.L205:
 3686 0b97 E8000000 		call	__stack_chk_fail@PLT
 3686      00
 3687              	.L200:
 3688 0b9c F30F1EFA 		endbr64
 3689 0ba0 4889C7   		movq	%rax, %rdi
 3690 0ba3 E9000000 		jmp	.L193
 3690      00
 3691              	.L197:
 3692 0ba8 F30F1EFA 		endbr64
 3693 0bac 4889C7   		movq	%rax, %rdi
 3694 0baf E9000000 		jmp	.L189
 3694      00
 3695              		.section	.gcc_except_table
 3696              		.align 4
 3697              	.LLSDA1229:
 3698 0284 FF       		.byte	0xff
 3699 0285 9B       		.byte	0x9b
 3700 0286 1D       		.uleb128 .LLSDATT1229-.LLSDATTD1229
 3701              	.LLSDATTD1229:
 3702 0287 01       		.byte	0x1
 3703 0288 14       		.uleb128 .LLSDACSE1229-.LLSDACSB1229
 3704              	.LLSDACSB1229:
 3705 0289 42       		.uleb128 .LEHB86-.LFB1229
 3706 028a 05       		.uleb128 .LEHE86-.LEHB86
 3707 028b 00       		.uleb128 0
 3708 028c 00       		.uleb128 0
 3709 028d 4F       		.uleb128 .LEHB87-.LFB1229
 3710 028e 33       		.uleb128 .LEHE87-.LEHB87
 3711 028f EC01     		.uleb128 .L200-.LFB1229
 3712 0291 01       		.uleb128 0x1
 3713 0292 8501     		.uleb128 .LEHB88-.LFB1229
 3714 0294 05       		.uleb128 .LEHE88-.LEHB88
 3715 0295 00       		.uleb128 0
 3716 0296 00       		.uleb128 0
 3717 0297 B001     		.uleb128 .LEHB89-.LFB1229
 3718 0299 32       		.uleb128 .LEHE89-.LEHB89
 3719 029a F801     		.uleb128 .L197-.LFB1229
 3720 029c 01       		.uleb128 0x1
 3721              	.LLSDACSE1229:
 3722 029d 01       		.byte	0x1
 3723 029e 00       		.byte	0
 3724 029f 00       		.align 4
 3725 02a0 00000000 		.long	0
 3726              	
 3727              	.LLSDATT1229:
 3728              		.text
 3729              		.cfi_endproc
 3730              		.section	.text.unlikely
 3731              		.cfi_startproc
 3732              		.cfi_personality 0x9b,DW.ref.__gxx_personality_v0
 3733              		.cfi_lsda 0x1b,.LLSDAC1229
 3735              	_ZNK12_GLOBAL__N_134TestTestReflectsSpecifiedSuiteName7RunImplEv.cold:
 3736              	.LFSB1229:
 3737              	.L193:
 3738              		.cfi_def_cfa_offset 144
 3739              		.cfi_offset 6, -40
 3740              		.cfi_offset 12, -32
 3741              		.cfi_offset 13, -24
 3742              		.cfi_offset 14, -16
 3743 03cc E8000000 		call	__cxa_begin_catch@PLT
 3743      00
 3744              	.LEHB90:
 3745 03d1 E8000000 		call	_ZN8UnitTest11CurrentTest7ResultsEv@PLT
 3745      00
 3746 03d6 4C8B28   		movq	(%rax), %r13
 3747 03d9 E8000000 		call	_ZN8UnitTest11CurrentTest7DetailsEv@PLT
 3747      00
 3748 03de 4989E4   		movq	%rsp, %r12
 3749 03e1 488B30   		movq	(%rax), %rsi
 3750 03e4 BA710000 		movl	$113, %edx
 3750      00
 3751 03e9 4C89E7   		movq	%r12, %rdi
 3752 03ec E8000000 		call	_ZN8UnitTest11TestDetailsC1ERKS0_i@PLT
 3752      00
 3753 03f1 488D1500 		leaq	.LC45(%rip), %rdx
 3753      000000
 3754 03f8 4C89E6   		movq	%r12, %rsi
 3755 03fb 4C89EF   		movq	%r13, %rdi
 3756 03fe E8000000 		call	_ZN8UnitTest11TestResults13OnTestFailureERKNS_11TestDetailsEPKc@PLT
 3756      00
 3757              	.LEHE90:
 3758              	.LEHB91:
 3759 0403 E8000000 		call	__cxa_end_catch@PLT
 3759      00
 3760              	.LEHE91:
 3761 0408 E9000000 		jmp	.L194
 3761      00
 3762              	.L189:
 3763 040d E8000000 		call	__cxa_begin_catch@PLT
 3763      00
 3764              	.LEHB92:
 3765 0412 E8000000 		call	_ZN8UnitTest11CurrentTest7ResultsEv@PLT
 3765      00
 3766 0417 4C8B30   		movq	(%rax), %r14
 3767 041a E8000000 		call	_ZN8UnitTest11CurrentTest7DetailsEv@PLT
 3767      00
 3768 041f 4989E4   		movq	%rsp, %r12
 3769 0422 488B30   		movq	(%rax), %rsi
 3770 0425 BA700000 		movl	$112, %edx
 3770      00
 3771 042a 4C89E7   		movq	%r12, %rdi
 3772 042d E8000000 		call	_ZN8UnitTest11TestDetailsC1ERKS0_i@PLT
 3772      00
 3773 0432 488D1500 		leaq	.LC44(%rip), %rdx
 3773      000000
 3774 0439 4C89E6   		movq	%r12, %rsi
 3775 043c 4C89F7   		movq	%r14, %rdi
 3776 043f E8000000 		call	_ZN8UnitTest11TestResults13OnTestFailureERKNS_11TestDetailsEPKc@PLT
 3776      00
 3777              	.LEHE92:
 3778              	.LEHB93:
 3779 0444 E8000000 		call	__cxa_end_catch@PLT
 3779      00
 3780              	.LEHE93:
 3781 0449 E9000000 		jmp	.L188
 3781      00
 3782              	.L198:
 3783 044e F30F1EFA 		endbr64
 3784 0452 4989C4   		movq	%rax, %r12
 3785 0455 EB0C     		jmp	.L192
 3786              	.L201:
 3787 0457 F30F1EFA 		endbr64
 3788 045b 4989C4   		movq	%rax, %r12
 3789 045e E8000000 		call	__cxa_end_catch@PLT
 3789      00
 3790              	.L192:
 3791 0463 4889EF   		movq	%rbp, %rdi
 3792 0466 E8000000 		call	_ZN8UnitTest4TestD1Ev@PLT
 3792      00
 3793 046b 4C89E7   		movq	%r12, %rdi
 3794              	.LEHB94:
 3795 046e E8000000 		call	_Unwind_Resume@PLT
 3795      00
 3796              	.LEHE94:
 3797              	.L199:
 3798 0473 F30F1EFA 		endbr64
 3799 0477 4989C4   		movq	%rax, %r12
 3800 047a E8000000 		call	__cxa_end_catch@PLT
 3800      00
 3801 047f EBE2     		jmp	.L192
 3802              		.cfi_endproc
 3803              	.LFE1229:
 3804              		.section	.gcc_except_table
 3805              		.align 4
 3806              	.LLSDAC1229:
 3807 02a4 FF       		.byte	0xff
 3808 02a5 9B       		.byte	0x9b
 3809 02a6 21       		.uleb128 .LLSDATTC1229-.LLSDATTDC1229
 3810              	.LLSDATTDC1229:
 3811 02a7 01       		.byte	0x1
 3812 02a8 19       		.uleb128 .LLSDACSEC1229-.LLSDACSBC1229
 3813              	.LLSDACSBC1229:
 3814 02a9 05       		.uleb128 .LEHB90-.LCOLDB46
 3815 02aa 32       		.uleb128 .LEHE90-.LEHB90
 3816 02ab 8B01     		.uleb128 .L201-.LCOLDB46
 3817 02ad 00       		.uleb128 0
 3818 02ae 37       		.uleb128 .LEHB91-.LCOLDB46
 3819 02af 05       		.uleb128 .LEHE91-.LEHB91
 3820 02b0 8201     		.uleb128 .L198-.LCOLDB46
 3821 02b2 00       		.uleb128 0
 3822 02b3 46       		.uleb128 .LEHB92-.LCOLDB46
 3823 02b4 32       		.uleb128 .LEHE92-.LEHB92
 3824 02b5 A701     		.uleb128 .L199-.LCOLDB46
 3825 02b7 00       		.uleb128 0
 3826 02b8 78       		.uleb128 .LEHB93-.LCOLDB46
 3827 02b9 05       		.uleb128 .LEHE93-.LEHB93
 3828 02ba 8201     		.uleb128 .L198-.LCOLDB46
 3829 02bc 00       		.uleb128 0
 3830 02bd A201     		.uleb128 .LEHB94-.LCOLDB46
 3831 02bf 05       		.uleb128 .LEHE94-.LEHB94
 3832 02c0 00       		.uleb128 0
 3833 02c1 00       		.uleb128 0
 3834              	.LLSDACSEC1229:
 3835 02c2 01       		.byte	0x1
 3836 02c3 00       		.byte	0
 3837              		.align 4
 3838 02c4 00000000 		.long	0
 3839              	
 3840              	.LLSDATTC1229:
 3841              		.section	.text.unlikely
 3842              		.text
 3844              		.section	.text.unlikely
 3846              	.LCOLDE46:
 3847              		.text
 3848              	.LHOTE46:
 3849              		.section	.rodata.str1.8
 3850 0232 00000000 		.align 8
 3850      0000
 3851              	.LC47:
 3852 0238 556E6861 		.string	"Unhandled exception in CHECK_EQUAL(\"DefaultSuite\", test.m_details.suiteName)"
 3852      6E646C65 
 3852      64206578 
 3852      63657074 
 3852      696F6E20 
 3853              		.section	.text.unlikely
 3854 0481 90       		.align 2
 3855              	.LCOLDB48:
 3856              		.text
 3857              	.LHOTB48:
 3858              		.align 2
 3859 0bb4 66662E0F 		.p2align 4
 3859      1F840000 
 3859      00000090 
 3861              	_ZNK12_GLOBAL__N_144TestTestWithUnspecifiedSuiteGetsDefaultSuite7RunImplEv:
 3862              	.LFB1225:
 3863              		.cfi_startproc
 3864              		.cfi_personality 0x9b,DW.ref.__gxx_personality_v0
 3865              		.cfi_lsda 0x1b,.LLSDA1225
 3866 0bc0 F30F1EFA 		endbr64
 3867 0bc4 4156     		pushq	%r14
 3868              		.cfi_def_cfa_offset 16
 3869              		.cfi_offset 14, -16
 3870 0bc6 4531C0   		xorl	%r8d, %r8d
 3871 0bc9 488D0D00 		leaq	.LC22(%rip), %rcx
 3871      000000
 3872 0bd0 488D3500 		leaq	.LC42(%rip), %rsi
 3872      000000
 3873 0bd7 4155     		pushq	%r13
 3874              		.cfi_def_cfa_offset 24
 3875              		.cfi_offset 13, -24
 3876 0bd9 4C8D2D00 		leaq	.LC23(%rip), %r13
 3876      000000
 3877 0be0 4154     		pushq	%r12
 3878              		.cfi_def_cfa_offset 32
 3879              		.cfi_offset 12, -32
 3880 0be2 4C89EA   		movq	%r13, %rdx
 3881 0be5 55       		pushq	%rbp
 3882              		.cfi_def_cfa_offset 40
 3883              		.cfi_offset 6, -40
 3884 0be6 4883EC68 		subq	$104, %rsp
 3885              		.cfi_def_cfa_offset 144
 3886 0bea 64488B04 		movq	%fs:40, %rax
 3886      25280000 
 3886      00
 3887 0bf3 48894424 		movq	%rax, 88(%rsp)
 3887      58
 3888 0bf8 31C0     		xorl	%eax, %eax
 3889 0bfa 488D6C24 		leaq	32(%rsp), %rbp
 3889      20
 3890 0bff 4889EF   		movq	%rbp, %rdi
 3891              	.LEHB95:
 3892 0c02 E8000000 		call	_ZN8UnitTest4TestC1EPKcS2_S2_i@PLT
 3892      00
 3893              	.LEHE95:
 3894 0c07 48837C24 		cmpq	$0, 40(%rsp)
 3894      2800
 3895 0c0d 7461     		je	.L224
 3896              	.L208:
 3897              	.LEHB96:
 3898 0c0f E8000000 		call	_ZN8UnitTest11CurrentTest7DetailsEv@PLT
 3898      00
 3899 0c14 4989E4   		movq	%rsp, %r12
 3900 0c17 488B30   		movq	(%rax), %rsi
 3901 0c1a BA6A0000 		movl	$106, %edx
 3901      00
 3902 0c1f 4C89E7   		movq	%r12, %rdi
 3903 0c22 E8000000 		call	_ZN8UnitTest11TestDetailsC1ERKS0_i@PLT
 3903      00
 3904 0c27 4C8B7424 		movq	40(%rsp), %r14
 3904      28
 3905 0c2c E8000000 		call	_ZN8UnitTest11CurrentTest7ResultsEv@PLT
 3905      00
 3906 0c31 488B38   		movq	(%rax), %rdi
 3907 0c34 4C89E1   		movq	%r12, %rcx
 3908 0c37 4C89F2   		movq	%r14, %rdx
 3909 0c3a 4C89EE   		movq	%r13, %rsi
 3910 0c3d E8000000 		call	_ZN8UnitTest10CheckEqualERNS_11TestResultsEPKcS3_RKNS_11TestDetailsE@PLT
 3910      00
 3911              	.LEHE96:
 3912              	.L214:
 3913 0c42 4889EF   		movq	%rbp, %rdi
 3914              	.LEHB97:
 3915 0c45 E8000000 		call	_ZN8UnitTest4TestD1Ev@PLT
 3915      00
 3916              	.LEHE97:
 3917 0c4a 488B4424 		movq	88(%rsp), %rax
 3917      58
 3918 0c4f 64482B04 		subq	%fs:40, %rax
 3918      25280000 
 3918      00
 3919 0c58 754D     		jne	.L225
 3920 0c5a 4883C468 		addq	$104, %rsp
 3921              		.cfi_remember_state
 3922              		.cfi_def_cfa_offset 40
 3923 0c5e 5D       		popq	%rbp
 3924              		.cfi_def_cfa_offset 32
 3925 0c5f 415C     		popq	%r12
 3926              		.cfi_def_cfa_offset 24
 3927 0c61 415D     		popq	%r13
 3928              		.cfi_def_cfa_offset 16
 3929 0c63 415E     		popq	%r14
 3930              		.cfi_def_cfa_offset 8
 3931 0c65 C3       		ret
 3932 0c66 662E0F1F 		.p2align 4,,10
 3932      84000000 
 3932      0000
 3933              		.p2align 3
 3934              	.L224:
 3935              		.cfi_restore_state
 3936              	.LEHB98:
 3937 0c70 E8000000 		call	_ZN8UnitTest11CurrentTest7ResultsEv@PLT
 3937      00
 3938 0c75 4C8B30   		movq	(%rax), %r14
 3939 0c78 E8000000 		call	_ZN8UnitTest11CurrentTest7DetailsEv@PLT
 3939      00
 3940 0c7d 4989E4   		movq	%rsp, %r12
 3941 0c80 488B30   		movq	(%rax), %rsi
 3942 0c83 BA690000 		movl	$105, %edx
 3942      00
 3943 0c88 4C89E7   		movq	%r12, %rdi
 3944 0c8b E8000000 		call	_ZN8UnitTest11TestDetailsC1ERKS0_i@PLT
 3944      00
 3945 0c90 488D1500 		leaq	.LC43(%rip), %rdx
 3945      000000
 3946 0c97 4C89E6   		movq	%r12, %rsi
 3947 0c9a 4C89F7   		movq	%r14, %rdi
 3948 0c9d E8000000 		call	_ZN8UnitTest11TestResults13OnTestFailureERKNS_11TestDetailsEPKc@PLT
 3948      00
 3949              	.LEHE98:
 3950 0ca2 E968FFFF 		jmp	.L208
 3950      FF
 3951              	.L225:
 3952 0ca7 E8000000 		call	__stack_chk_fail@PLT
 3952      00
 3953              	.L220:
 3954 0cac F30F1EFA 		endbr64
 3955 0cb0 4889C7   		movq	%rax, %rdi
 3956 0cb3 E9000000 		jmp	.L213
 3956      00
 3957              	.L217:
 3958 0cb8 F30F1EFA 		endbr64
 3959 0cbc 4889C7   		movq	%rax, %rdi
 3960 0cbf E9000000 		jmp	.L209
 3960      00
 3961              		.section	.gcc_except_table
 3962              		.align 4
 3963              	.LLSDA1225:
 3964 02c8 FF       		.byte	0xff
 3965 02c9 9B       		.byte	0x9b
 3966 02ca 1D       		.uleb128 .LLSDATT1225-.LLSDATTD1225
 3967              	.LLSDATTD1225:
 3968 02cb 01       		.byte	0x1
 3969 02cc 14       		.uleb128 .LLSDACSE1225-.LLSDACSB1225
 3970              	.LLSDACSB1225:
 3971 02cd 42       		.uleb128 .LEHB95-.LFB1225
 3972 02ce 05       		.uleb128 .LEHE95-.LEHB95
 3973 02cf 00       		.uleb128 0
 3974 02d0 00       		.uleb128 0
 3975 02d1 4F       		.uleb128 .LEHB96-.LFB1225
 3976 02d2 33       		.uleb128 .LEHE96-.LEHB96
 3977 02d3 EC01     		.uleb128 .L220-.LFB1225
 3978 02d5 01       		.uleb128 0x1
 3979 02d6 8501     		.uleb128 .LEHB97-.LFB1225
 3980 02d8 05       		.uleb128 .LEHE97-.LEHB97
 3981 02d9 00       		.uleb128 0
 3982 02da 00       		.uleb128 0
 3983 02db B001     		.uleb128 .LEHB98-.LFB1225
 3984 02dd 32       		.uleb128 .LEHE98-.LEHB98
 3985 02de F801     		.uleb128 .L217-.LFB1225
 3986 02e0 01       		.uleb128 0x1
 3987              	.LLSDACSE1225:
 3988 02e1 01       		.byte	0x1
 3989 02e2 00       		.byte	0
 3990 02e3 00       		.align 4
 3991 02e4 00000000 		.long	0
 3992              	
 3993              	.LLSDATT1225:
 3994              		.text
 3995              		.cfi_endproc
 3996              		.section	.text.unlikely
 3997              		.cfi_startproc
 3998              		.cfi_personality 0x9b,DW.ref.__gxx_personality_v0
 3999              		.cfi_lsda 0x1b,.LLSDAC1225
 4001              	_ZNK12_GLOBAL__N_144TestTestWithUnspecifiedSuiteGetsDefaultSuite7RunImplEv.cold:
 4002              	.LFSB1225:
 4003              	.L213:
 4004              		.cfi_def_cfa_offset 144
 4005              		.cfi_offset 6, -40
 4006              		.cfi_offset 12, -32
 4007              		.cfi_offset 13, -24
 4008              		.cfi_offset 14, -16
 4009 0482 E8000000 		call	__cxa_begin_catch@PLT
 4009      00
 4010              	.LEHB99:
 4011 0487 E8000000 		call	_ZN8UnitTest11CurrentTest7ResultsEv@PLT
 4011      00
 4012 048c 4C8B28   		movq	(%rax), %r13
 4013 048f E8000000 		call	_ZN8UnitTest11CurrentTest7DetailsEv@PLT
 4013      00
 4014 0494 4989E4   		movq	%rsp, %r12
 4015 0497 488B30   		movq	(%rax), %rsi
 4016 049a BA6A0000 		movl	$106, %edx
 4016      00
 4017 049f 4C89E7   		movq	%r12, %rdi
 4018 04a2 E8000000 		call	_ZN8UnitTest11TestDetailsC1ERKS0_i@PLT
 4018      00
 4019 04a7 488D1500 		leaq	.LC47(%rip), %rdx
 4019      000000
 4020 04ae 4C89E6   		movq	%r12, %rsi
 4021 04b1 4C89EF   		movq	%r13, %rdi
 4022 04b4 E8000000 		call	_ZN8UnitTest11TestResults13OnTestFailureERKNS_11TestDetailsEPKc@PLT
 4022      00
 4023              	.LEHE99:
 4024              	.LEHB100:
 4025 04b9 E8000000 		call	__cxa_end_catch@PLT
 4025      00
 4026              	.LEHE100:
 4027 04be E9000000 		jmp	.L214
 4027      00
 4028              	.L209:
 4029 04c3 E8000000 		call	__cxa_begin_catch@PLT
 4029      00
 4030              	.LEHB101:
 4031 04c8 E8000000 		call	_ZN8UnitTest11CurrentTest7ResultsEv@PLT
 4031      00
 4032 04cd 4C8B30   		movq	(%rax), %r14
 4033 04d0 E8000000 		call	_ZN8UnitTest11CurrentTest7DetailsEv@PLT
 4033      00
 4034 04d5 4989E4   		movq	%rsp, %r12
 4035 04d8 488B30   		movq	(%rax), %rsi
 4036 04db BA690000 		movl	$105, %edx
 4036      00
 4037 04e0 4C89E7   		movq	%r12, %rdi
 4038 04e3 E8000000 		call	_ZN8UnitTest11TestDetailsC1ERKS0_i@PLT
 4038      00
 4039 04e8 488D1500 		leaq	.LC44(%rip), %rdx
 4039      000000
 4040 04ef 4C89E6   		movq	%r12, %rsi
 4041 04f2 4C89F7   		movq	%r14, %rdi
 4042 04f5 E8000000 		call	_ZN8UnitTest11TestResults13OnTestFailureERKNS_11TestDetailsEPKc@PLT
 4042      00
 4043              	.LEHE101:
 4044              	.LEHB102:
 4045 04fa E8000000 		call	__cxa_end_catch@PLT
 4045      00
 4046              	.LEHE102:
 4047 04ff E9000000 		jmp	.L208
 4047      00
 4048              	.L218:
 4049 0504 F30F1EFA 		endbr64
 4050 0508 4989C4   		movq	%rax, %r12
 4051 050b EB0C     		jmp	.L212
 4052              	.L221:
 4053 050d F30F1EFA 		endbr64
 4054 0511 4989C4   		movq	%rax, %r12
 4055 0514 E8000000 		call	__cxa_end_catch@PLT
 4055      00
 4056              	.L212:
 4057 0519 4889EF   		movq	%rbp, %rdi
 4058 051c E8000000 		call	_ZN8UnitTest4TestD1Ev@PLT
 4058      00
 4059 0521 4C89E7   		movq	%r12, %rdi
 4060              	.LEHB103:
 4061 0524 E8000000 		call	_Unwind_Resume@PLT
 4061      00
 4062              	.LEHE103:
 4063              	.L219:
 4064 0529 F30F1EFA 		endbr64
 4065 052d 4989C4   		movq	%rax, %r12
 4066 0530 E8000000 		call	__cxa_end_catch@PLT
 4066      00
 4067 0535 EBE2     		jmp	.L212
 4068              		.cfi_endproc
 4069              	.LFE1225:
 4070              		.section	.gcc_except_table
 4071              		.align 4
 4072              	.LLSDAC1225:
 4073 02e8 FF       		.byte	0xff
 4074 02e9 9B       		.byte	0x9b
 4075 02ea 21       		.uleb128 .LLSDATTC1225-.LLSDATTDC1225
 4076              	.LLSDATTDC1225:
 4077 02eb 01       		.byte	0x1
 4078 02ec 19       		.uleb128 .LLSDACSEC1225-.LLSDACSBC1225
 4079              	.LLSDACSBC1225:
 4080 02ed 05       		.uleb128 .LEHB99-.LCOLDB48
 4081 02ee 32       		.uleb128 .LEHE99-.LEHB99
 4082 02ef 8B01     		.uleb128 .L221-.LCOLDB48
 4083 02f1 00       		.uleb128 0
 4084 02f2 37       		.uleb128 .LEHB100-.LCOLDB48
 4085 02f3 05       		.uleb128 .LEHE100-.LEHB100
 4086 02f4 8201     		.uleb128 .L218-.LCOLDB48
 4087 02f6 00       		.uleb128 0
 4088 02f7 46       		.uleb128 .LEHB101-.LCOLDB48
 4089 02f8 32       		.uleb128 .LEHE101-.LEHB101
 4090 02f9 A701     		.uleb128 .L219-.LCOLDB48
 4091 02fb 00       		.uleb128 0
 4092 02fc 78       		.uleb128 .LEHB102-.LCOLDB48
 4093 02fd 05       		.uleb128 .LEHE102-.LEHB102
 4094 02fe 8201     		.uleb128 .L218-.LCOLDB48
 4095 0300 00       		.uleb128 0
 4096 0301 A201     		.uleb128 .LEHB103-.LCOLDB48
 4097 0303 05       		.uleb128 .LEHE103-.LEHB103
 4098 0304 00       		.uleb128 0
 4099 0305 00       		.uleb128 0
 4100              	.LLSDACSEC1225:
 4101 0306 01       		.byte	0x1
 4102 0307 00       		.byte	0
 4103              		.align 4
 4104 0308 00000000 		.long	0
 4105              	
 4106              	.LLSDATTC1225:
 4107              		.section	.text.unlikely
 4108              		.text
 4110              		.section	.text.unlikely
 4112              	.LCOLDE48:
 4113              		.text
 4114              	.LHOTE48:
 4115              		.weak	_ZTSN8UnitTest15MemoryOutStreamE
 4116              		.section	.rodata._ZTSN8UnitTest15MemoryOutStreamE,"aG",@progbits,_ZTSN8UnitTest15MemoryOutStreamE,
 4117              		.align 16
 4120              	_ZTSN8UnitTest15MemoryOutStreamE:
 4121 0000 4E38556E 		.string	"N8UnitTest15MemoryOutStreamE"
 4121      69745465 
 4121      73743135 
 4121      4D656D6F 
 4121      72794F75 
 4122              		.weak	_ZTIN8UnitTest15MemoryOutStreamE
 4123              		.section	.data.rel.ro._ZTIN8UnitTest15MemoryOutStreamE,"awG",@progbits,_ZTIN8UnitTest15MemoryOutSt
 4124              		.align 8
 4127              	_ZTIN8UnitTest15MemoryOutStreamE:
 4128 0000 00000000 		.quad	_ZTVN10__cxxabiv120__si_class_type_infoE+16
 4128      00000000 
 4129 0008 00000000 		.quad	_ZTSN8UnitTest15MemoryOutStreamE
 4129      00000000 
 4130 0010 00000000 		.quad	_ZTINSt7__cxx1119basic_ostringstreamIcSt11char_traitsIcESaIcEEE
 4130      00000000 
 4131              		.section	.data.rel.ro,"aw"
 4132              		.align 8
 4135              	_ZTIN12_GLOBAL__N_128TestPassingTestHasNoFailuresE:
 4136 0000 00000000 		.quad	_ZTVN10__cxxabiv120__si_class_type_infoE+16
 4136      00000000 
 4137 0008 00000000 		.quad	_ZTSN12_GLOBAL__N_128TestPassingTestHasNoFailuresE
 4137      00000000 
 4138 0010 00000000 		.quad	_ZTIN8UnitTest4TestE
 4138      00000000 
 4139              		.section	.rodata
 4140              		.align 32
 4143              	_ZTSN12_GLOBAL__N_128TestPassingTestHasNoFailuresE:
 4144 0000 2A4E3132 		.string	"*N12_GLOBAL__N_128TestPassingTestHasNoFailuresE"
 4144      5F474C4F 
 4144      42414C5F 
 4144      5F4E5F31 
 4144      32385465 
 4145              		.section	.data.rel.ro
 4146              		.align 8
 4149              	_ZTIZNK12_GLOBAL__N_128TestPassingTestHasNoFailures7RunImplEvE11PassingTest:
 4150 0018 00000000 		.quad	_ZTVN10__cxxabiv120__si_class_type_infoE+16
 4150      00000000 
 4151 0020 00000000 		.quad	_ZTSZNK12_GLOBAL__N_128TestPassingTestHasNoFailures7RunImplEvE11PassingTest
 4151      00000000 
 4152 0028 00000000 		.quad	_ZTIN8UnitTest4TestE
 4152      00000000 
 4153              		.section	.rodata
 4154 0030 00000000 		.align 32
 4154      00000000 
 4154      00000000 
 4154      00000000 
 4157              	_ZTSZNK12_GLOBAL__N_128TestPassingTestHasNoFailures7RunImplEvE11PassingTest:
 4158 0040 2A5A4E4B 		.string	"*ZNK12_GLOBAL__N_128TestPassingTestHasNoFailures7RunImplEvE11PassingTest"
 4158      31325F47 
 4158      4C4F4241 
 4158      4C5F5F4E 
 4158      5F313238 
 4159              		.section	.data.rel.ro
 4160              		.align 8
 4163              	_ZTIN12_GLOBAL__N_126TestFailingTestHasFailuresE:
 4164 0030 00000000 		.quad	_ZTVN10__cxxabiv120__si_class_type_infoE+16
 4164      00000000 
 4165 0038 00000000 		.quad	_ZTSN12_GLOBAL__N_126TestFailingTestHasFailuresE
 4165      00000000 
 4166 0040 00000000 		.quad	_ZTIN8UnitTest4TestE
 4166      00000000 
 4167              		.section	.rodata
 4168 0089 00000000 		.align 32
 4168      00000000 
 4168      00000000 
 4168      00000000 
 4168      00000000 
 4171              	_ZTSN12_GLOBAL__N_126TestFailingTestHasFailuresE:
 4172 00a0 2A4E3132 		.string	"*N12_GLOBAL__N_126TestFailingTestHasFailuresE"
 4172      5F474C4F 
 4172      42414C5F 
 4172      5F4E5F31 
 4172      32365465 
 4173              		.section	.data.rel.ro
 4174              		.align 8
 4177              	_ZTIZNK12_GLOBAL__N_126TestFailingTestHasFailures7RunImplEvE11FailingTest:
 4178 0048 00000000 		.quad	_ZTVN10__cxxabiv120__si_class_type_infoE+16
 4178      00000000 
 4179 0050 00000000 		.quad	_ZTSZNK12_GLOBAL__N_126TestFailingTestHasFailures7RunImplEvE11FailingTest
 4179      00000000 
 4180 0058 00000000 		.quad	_ZTIN8UnitTest4TestE
 4180      00000000 
 4181              		.section	.rodata
 4182 00ce 00000000 		.align 32
 4182      00000000 
 4182      00000000 
 4182      00000000 
 4182      0000
 4185              	_ZTSZNK12_GLOBAL__N_126TestFailingTestHasFailures7RunImplEvE11FailingTest:
 4186 00e0 2A5A4E4B 		.string	"*ZNK12_GLOBAL__N_126TestFailingTestHasFailures7RunImplEvE11FailingTest"
 4186      31325F47 
 4186      4C4F4241 
 4186      4C5F5F4E 
 4186      5F313236 
 4187              		.section	.data.rel.ro
 4188              		.align 8
 4191              	_ZTIN12_GLOBAL__N_138TestThrowingTestsAreReportedAsFailuresE:
 4192 0060 00000000 		.quad	_ZTVN10__cxxabiv120__si_class_type_infoE+16
 4192      00000000 
 4193 0068 00000000 		.quad	_ZTSN12_GLOBAL__N_138TestThrowingTestsAreReportedAsFailuresE
 4193      00000000 
 4194 0070 00000000 		.quad	_ZTIN8UnitTest4TestE
 4194      00000000 
 4195              		.section	.rodata
 4196 0127 00000000 		.align 32
 4196      00000000 
 4196      00000000 
 4196      00000000 
 4196      00000000 
 4199              	_ZTSN12_GLOBAL__N_138TestThrowingTestsAreReportedAsFailuresE:
 4200 0140 2A4E3132 		.string	"*N12_GLOBAL__N_138TestThrowingTestsAreReportedAsFailuresE"
 4200      5F474C4F 
 4200      42414C5F 
 4200      5F4E5F31 
 4200      33385465 
 4201              		.section	.data.rel.ro
 4202              		.align 8
 4205              	_ZTIZNK12_GLOBAL__N_138TestThrowingTestsAreReportedAsFailures7RunImplEvE12CrashingTest:
 4206 0078 00000000 		.quad	_ZTVN10__cxxabiv120__si_class_type_infoE+16
 4206      00000000 
 4207 0080 00000000 		.quad	_ZTSZNK12_GLOBAL__N_138TestThrowingTestsAreReportedAsFailures7RunImplEvE12CrashingTest
 4207      00000000 
 4208 0088 00000000 		.quad	_ZTIN8UnitTest4TestE
 4208      00000000 
 4209              		.section	.rodata
 4210 017a 00000000 		.align 32
 4210      0000
 4213              	_ZTSZNK12_GLOBAL__N_138TestThrowingTestsAreReportedAsFailures7RunImplEvE12CrashingTest:
 4214 0180 2A5A4E4B 		.string	"*ZNK12_GLOBAL__N_138TestThrowingTestsAreReportedAsFailures7RunImplEvE12CrashingTest"
 4214      31325F47 
 4214      4C4F4241 
 4214      4C5F5F4E 
 4214      5F313338 
 4215              		.section	.data.rel.ro
 4216              		.align 8
 4219              	_ZTIN12_GLOBAL__N_138TestCrashingTestsAreReportedAsFailuresE:
 4220 0090 00000000 		.quad	_ZTVN10__cxxabiv120__si_class_type_infoE+16
 4220      00000000 
 4221 0098 00000000 		.quad	_ZTSN12_GLOBAL__N_138TestCrashingTestsAreReportedAsFailuresE
 4221      00000000 
 4222 00a0 00000000 		.quad	_ZTIN8UnitTest4TestE
 4222      00000000 
 4223              		.section	.rodata
 4224 01d4 00000000 		.align 32
 4224      00000000 
 4224      00000000 
 4227              	_ZTSN12_GLOBAL__N_138TestCrashingTestsAreReportedAsFailuresE:
 4228 01e0 2A4E3132 		.string	"*N12_GLOBAL__N_138TestCrashingTestsAreReportedAsFailuresE"
 4228      5F474C4F 
 4228      42414C5F 
 4228      5F4E5F31 
 4228      33385465 
 4229              		.section	.data.rel.ro
 4230              		.align 8
 4233              	_ZTIZNK12_GLOBAL__N_138TestCrashingTestsAreReportedAsFailures7RunImplEvE12CrashingTest:
 4234 00a8 00000000 		.quad	_ZTVN10__cxxabiv120__si_class_type_infoE+16
 4234      00000000 
 4235 00b0 00000000 		.quad	_ZTSZNK12_GLOBAL__N_138TestCrashingTestsAreReportedAsFailures7RunImplEvE12CrashingTest
 4235      00000000 
 4236 00b8 00000000 		.quad	_ZTIN8UnitTest4TestE
 4236      00000000 
 4237              		.section	.rodata
 4238 021a 00000000 		.align 32
 4238      0000
 4241              	_ZTSZNK12_GLOBAL__N_138TestCrashingTestsAreReportedAsFailures7RunImplEvE12CrashingTest:
 4242 0220 2A5A4E4B 		.string	"*ZNK12_GLOBAL__N_138TestCrashingTestsAreReportedAsFailures7RunImplEvE12CrashingTest"
 4242      31325F47 
 4242      4C4F4241 
 4242      4C5F5F4E 
 4242      5F313338 
 4243              		.section	.data.rel.ro
 4244              		.align 8
 4247              	_ZTIN12_GLOBAL__N_144TestTestWithUnspecifiedSuiteGetsDefaultSuiteE:
 4248 00c0 00000000 		.quad	_ZTVN10__cxxabiv120__si_class_type_infoE+16
 4248      00000000 
 4249 00c8 00000000 		.quad	_ZTSN12_GLOBAL__N_144TestTestWithUnspecifiedSuiteGetsDefaultSuiteE
 4249      00000000 
 4250 00d0 00000000 		.quad	_ZTIN8UnitTest4TestE
 4250      00000000 
 4251              		.section	.rodata
 4252 0274 00000000 		.align 32
 4252      00000000 
 4252      00000000 
 4255              	_ZTSN12_GLOBAL__N_144TestTestWithUnspecifiedSuiteGetsDefaultSuiteE:
 4256 0280 2A4E3132 		.string	"*N12_GLOBAL__N_144TestTestWithUnspecifiedSuiteGetsDefaultSuiteE"
 4256      5F474C4F 
 4256      42414C5F 
 4256      5F4E5F31 
 4256      34345465 
 4257              		.section	.data.rel.ro
 4258              		.align 8
 4261              	_ZTIN12_GLOBAL__N_134TestTestReflectsSpecifiedSuiteNameE:
 4262 00d8 00000000 		.quad	_ZTVN10__cxxabiv120__si_class_type_infoE+16
 4262      00000000 
 4263 00e0 00000000 		.quad	_ZTSN12_GLOBAL__N_134TestTestReflectsSpecifiedSuiteNameE
 4263      00000000 
 4264 00e8 00000000 		.quad	_ZTIN8UnitTest4TestE
 4264      00000000 
 4265              		.section	.rodata
 4266              		.align 32
 4269              	_ZTSN12_GLOBAL__N_134TestTestReflectsSpecifiedSuiteNameE:
 4270 02c0 2A4E3132 		.string	"*N12_GLOBAL__N_134TestTestReflectsSpecifiedSuiteNameE"
 4270      5F474C4F 
 4270      42414C5F 
 4270      5F4E5F31 
 4270      33345465 
 4271              		.section	.data.rel.ro
 4272              		.align 8
 4275              	_ZTIN12_GLOBAL__N_136TestOutOfCoreCHECKMacrosCanFailTestsE:
 4276 00f0 00000000 		.quad	_ZTVN10__cxxabiv120__si_class_type_infoE+16
 4276      00000000 
 4277 00f8 00000000 		.quad	_ZTSN12_GLOBAL__N_136TestOutOfCoreCHECKMacrosCanFailTestsE
 4277      00000000 
 4278 0100 00000000 		.quad	_ZTIN8UnitTest4TestE
 4278      00000000 
 4279              		.section	.rodata
 4280 02f6 00000000 		.align 32
 4280      00000000 
 4280      0000
 4283              	_ZTSN12_GLOBAL__N_136TestOutOfCoreCHECKMacrosCanFailTestsE:
 4284 0300 2A4E3132 		.string	"*N12_GLOBAL__N_136TestOutOfCoreCHECKMacrosCanFailTestsE"
 4284      5F474C4F 
 4284      42414C5F 
 4284      5F4E5F31 
 4284      33365465 
 4285              		.hidden	_ZTCN8UnitTest15MemoryOutStreamE0_So
 4286              		.weak	_ZTCN8UnitTest15MemoryOutStreamE0_So
 4287              		.section	.data.rel.ro._ZTCN8UnitTest15MemoryOutStreamE0_So,"awG",@progbits,_ZTVN8UnitTest15MemoryO
 4288              		.align 8
 4291              	_ZTCN8UnitTest15MemoryOutStreamE0_So:
 4292 0000 90000000 		.quad	144
 4292      00000000 
 4293 0008 00000000 		.quad	0
 4293      00000000 
 4294 0010 00000000 		.quad	_ZTISo
 4294      00000000 
 4295 0018 00000000 		.quad	0
 4295      00000000 
 4296 0020 00000000 		.quad	0
 4296      00000000 
 4297 0028 70FFFFFF 		.quad	-144
 4297      FFFFFFFF 
 4298 0030 70FFFFFF 		.quad	-144
 4298      FFFFFFFF 
 4299 0038 00000000 		.quad	_ZTISo
 4299      00000000 
 4300 0040 00000000 		.quad	0
 4300      00000000 
 4301 0048 00000000 		.quad	0
 4301      00000000 
 4302              		.hidden	_ZTCN8UnitTest15MemoryOutStreamE0_NSt7__cxx1119basic_ostringstreamIcSt11char_traitsIcESaIc
 4303              		.weak	_ZTCN8UnitTest15MemoryOutStreamE0_NSt7__cxx1119basic_ostringstreamIcSt11char_traitsIcESaIcEE
 4304              		.section	.data.rel.ro._ZTCN8UnitTest15MemoryOutStreamE0_NSt7__cxx1119basic_ostringstreamIcSt11char
 4305              		.align 8
 4308              	_ZTCN8UnitTest15MemoryOutStreamE0_NSt7__cxx1119basic_ostringstreamIcSt11char_traitsIcESaIcEEE:
 4309 0000 90000000 		.quad	144
 4309      00000000 
 4310 0008 00000000 		.quad	0
 4310      00000000 
 4311 0010 00000000 		.quad	_ZTINSt7__cxx1119basic_ostringstreamIcSt11char_traitsIcESaIcEEE
 4311      00000000 
 4312 0018 00000000 		.quad	0
 4312      00000000 
 4313 0020 00000000 		.quad	0
 4313      00000000 
 4314 0028 70FFFFFF 		.quad	-144
 4314      FFFFFFFF 
 4315 0030 70FFFFFF 		.quad	-144
 4315      FFFFFFFF 
 4316 0038 00000000 		.quad	_ZTINSt7__cxx1119basic_ostringstreamIcSt11char_traitsIcESaIcEEE
 4316      00000000 
 4317 0040 00000000 		.quad	0
 4317      00000000 
 4318 0048 00000000 		.quad	0
 4318      00000000 
 4319              		.weak	_ZTTN8UnitTest15MemoryOutStreamE
 4320              		.section	.data.rel.ro.local._ZTTN8UnitTest15MemoryOutStreamE,"awG",@progbits,_ZTVN8UnitTest15Memor
 4321              		.align 8
 4324              	_ZTTN8UnitTest15MemoryOutStreamE:
 4325 0000 00000000 		.quad	_ZTVN8UnitTest15MemoryOutStreamE+24
 4325      00000000 
 4326 0008 00000000 		.quad	_ZTCN8UnitTest15MemoryOutStreamE0_NSt7__cxx1119basic_ostringstreamIcSt11char_traitsIcESaIcEE
 4326      00000000 
 4327 0010 00000000 		.quad	_ZTCN8UnitTest15MemoryOutStreamE0_So+24
 4327      00000000 
 4328 0018 00000000 		.quad	_ZTCN8UnitTest15MemoryOutStreamE0_So+64
 4328      00000000 
 4329 0020 00000000 		.quad	_ZTCN8UnitTest15MemoryOutStreamE0_NSt7__cxx1119basic_ostringstreamIcSt11char_traitsIcESaIcEE
 4329      00000000 
 4330 0028 00000000 		.quad	_ZTVN8UnitTest15MemoryOutStreamE+64
 4330      00000000 
 4331              		.weak	_ZTVN8UnitTest15MemoryOutStreamE
 4332              		.section	.data.rel.ro.local._ZTVN8UnitTest15MemoryOutStreamE,"awG",@progbits,_ZTVN8UnitTest15Memor
 4333              		.align 8
 4336              	_ZTVN8UnitTest15MemoryOutStreamE:
 4337 0000 90000000 		.quad	144
 4337      00000000 
 4338 0008 00000000 		.quad	0
 4338      00000000 
 4339 0010 00000000 		.quad	_ZTIN8UnitTest15MemoryOutStreamE
 4339      00000000 
 4340 0018 00000000 		.quad	_ZN8UnitTest15MemoryOutStreamD1Ev
 4340      00000000 
 4341 0020 00000000 		.quad	_ZN8UnitTest15MemoryOutStreamD0Ev
 4341      00000000 
 4342 0028 70FFFFFF 		.quad	-144
 4342      FFFFFFFF 
 4343 0030 70FFFFFF 		.quad	-144
 4343      FFFFFFFF 
 4344 0038 00000000 		.quad	_ZTIN8UnitTest15MemoryOutStreamE
 4344      00000000 
 4345 0040 00000000 		.quad	_ZTv0_n24_N8UnitTest15MemoryOutStreamD1Ev
 4345      00000000 
 4346 0048 00000000 		.quad	_ZTv0_n24_N8UnitTest15MemoryOutStreamD0Ev
 4346      00000000 
 4347              		.section	.data.rel.ro.local,"aw"
 4348              		.align 8
 4351              	_ZTVZNK12_GLOBAL__N_128TestPassingTestHasNoFailures7RunImplEvE11PassingTest:
 4352 0000 00000000 		.quad	0
 4352      00000000 
 4353 0008 00000000 		.quad	_ZTIZNK12_GLOBAL__N_128TestPassingTestHasNoFailures7RunImplEvE11PassingTest
 4353      00000000 
 4354 0010 00000000 		.quad	_ZZNK12_GLOBAL__N_128TestPassingTestHasNoFailures7RunImplEvEN11PassingTestD1Ev
 4354      00000000 
 4355 0018 00000000 		.quad	_ZZNK12_GLOBAL__N_128TestPassingTestHasNoFailures7RunImplEvEN11PassingTestD0Ev
 4355      00000000 
 4356 0020 00000000 		.quad	_ZZNK12_GLOBAL__N_128TestPassingTestHasNoFailures7RunImplEvENK11PassingTest7RunImplEv
 4356      00000000 
 4357              		.align 8
 4360              	_ZTVN12_GLOBAL__N_128TestPassingTestHasNoFailuresE:
 4361 0028 00000000 		.quad	0
 4361      00000000 
 4362 0030 00000000 		.quad	_ZTIN12_GLOBAL__N_128TestPassingTestHasNoFailuresE
 4362      00000000 
 4363 0038 00000000 		.quad	_ZN12_GLOBAL__N_128TestPassingTestHasNoFailuresD1Ev
 4363      00000000 
 4364 0040 00000000 		.quad	_ZN12_GLOBAL__N_128TestPassingTestHasNoFailuresD0Ev
 4364      00000000 
 4365 0048 00000000 		.quad	_ZNK12_GLOBAL__N_128TestPassingTestHasNoFailures7RunImplEv
 4365      00000000 
 4366              		.align 8
 4369              	_ZTVZNK12_GLOBAL__N_126TestFailingTestHasFailures7RunImplEvE11FailingTest:
 4370 0050 00000000 		.quad	0
 4370      00000000 
 4371 0058 00000000 		.quad	_ZTIZNK12_GLOBAL__N_126TestFailingTestHasFailures7RunImplEvE11FailingTest
 4371      00000000 
 4372 0060 00000000 		.quad	_ZZNK12_GLOBAL__N_126TestFailingTestHasFailures7RunImplEvEN11FailingTestD1Ev
 4372      00000000 
 4373 0068 00000000 		.quad	_ZZNK12_GLOBAL__N_126TestFailingTestHasFailures7RunImplEvEN11FailingTestD0Ev
 4373      00000000 
 4374 0070 00000000 		.quad	_ZZNK12_GLOBAL__N_126TestFailingTestHasFailures7RunImplEvENK11FailingTest7RunImplEv
 4374      00000000 
 4375              		.align 8
 4378              	_ZTVN12_GLOBAL__N_126TestFailingTestHasFailuresE:
 4379 0078 00000000 		.quad	0
 4379      00000000 
 4380 0080 00000000 		.quad	_ZTIN12_GLOBAL__N_126TestFailingTestHasFailuresE
 4380      00000000 
 4381 0088 00000000 		.quad	_ZN12_GLOBAL__N_126TestFailingTestHasFailuresD1Ev
 4381      00000000 
 4382 0090 00000000 		.quad	_ZN12_GLOBAL__N_126TestFailingTestHasFailuresD0Ev
 4382      00000000 
 4383 0098 00000000 		.quad	_ZNK12_GLOBAL__N_126TestFailingTestHasFailures7RunImplEv
 4383      00000000 
 4384              		.align 8
 4387              	_ZTVZNK12_GLOBAL__N_138TestThrowingTestsAreReportedAsFailures7RunImplEvE12CrashingTest:
 4388 00a0 00000000 		.quad	0
 4388      00000000 
 4389 00a8 00000000 		.quad	_ZTIZNK12_GLOBAL__N_138TestThrowingTestsAreReportedAsFailures7RunImplEvE12CrashingTest
 4389      00000000 
 4390 00b0 00000000 		.quad	_ZZNK12_GLOBAL__N_138TestThrowingTestsAreReportedAsFailures7RunImplEvEN12CrashingTestD1Ev
 4390      00000000 
 4391 00b8 00000000 		.quad	_ZZNK12_GLOBAL__N_138TestThrowingTestsAreReportedAsFailures7RunImplEvEN12CrashingTestD0Ev
 4391      00000000 
 4392 00c0 00000000 		.quad	_ZZNK12_GLOBAL__N_138TestThrowingTestsAreReportedAsFailures7RunImplEvENK12CrashingTest7RunIm
 4392      00000000 
 4393              		.align 8
 4396              	_ZTVN12_GLOBAL__N_138TestThrowingTestsAreReportedAsFailuresE:
 4397 00c8 00000000 		.quad	0
 4397      00000000 
 4398 00d0 00000000 		.quad	_ZTIN12_GLOBAL__N_138TestThrowingTestsAreReportedAsFailuresE
 4398      00000000 
 4399 00d8 00000000 		.quad	_ZN12_GLOBAL__N_138TestThrowingTestsAreReportedAsFailuresD1Ev
 4399      00000000 
 4400 00e0 00000000 		.quad	_ZN12_GLOBAL__N_138TestThrowingTestsAreReportedAsFailuresD0Ev
 4400      00000000 
 4401 00e8 00000000 		.quad	_ZNK12_GLOBAL__N_138TestThrowingTestsAreReportedAsFailures7RunImplEv
 4401      00000000 
 4402              		.align 8
 4405              	_ZTVZNK12_GLOBAL__N_138TestCrashingTestsAreReportedAsFailures7RunImplEvE12CrashingTest:
 4406 00f0 00000000 		.quad	0
 4406      00000000 
 4407 00f8 00000000 		.quad	_ZTIZNK12_GLOBAL__N_138TestCrashingTestsAreReportedAsFailures7RunImplEvE12CrashingTest
 4407      00000000 
 4408 0100 00000000 		.quad	_ZZNK12_GLOBAL__N_138TestCrashingTestsAreReportedAsFailures7RunImplEvEN12CrashingTestD1Ev
 4408      00000000 
 4409 0108 00000000 		.quad	_ZZNK12_GLOBAL__N_138TestCrashingTestsAreReportedAsFailures7RunImplEvEN12CrashingTestD0Ev
 4409      00000000 
 4410 0110 00000000 		.quad	_ZZNK12_GLOBAL__N_138TestCrashingTestsAreReportedAsFailures7RunImplEvENK12CrashingTest7RunIm
 4410      00000000 
 4411              		.align 8
 4414              	_ZTVN12_GLOBAL__N_138TestCrashingTestsAreReportedAsFailuresE:
 4415 0118 00000000 		.quad	0
 4415      00000000 
 4416 0120 00000000 		.quad	_ZTIN12_GLOBAL__N_138TestCrashingTestsAreReportedAsFailuresE
 4416      00000000 
 4417 0128 00000000 		.quad	_ZN12_GLOBAL__N_138TestCrashingTestsAreReportedAsFailuresD1Ev
 4417      00000000 
 4418 0130 00000000 		.quad	_ZN12_GLOBAL__N_138TestCrashingTestsAreReportedAsFailuresD0Ev
 4418      00000000 
 4419 0138 00000000 		.quad	_ZNK12_GLOBAL__N_138TestCrashingTestsAreReportedAsFailures7RunImplEv
 4419      00000000 
 4420              		.align 8
 4423              	_ZTVN12_GLOBAL__N_144TestTestWithUnspecifiedSuiteGetsDefaultSuiteE:
 4424 0140 00000000 		.quad	0
 4424      00000000 
 4425 0148 00000000 		.quad	_ZTIN12_GLOBAL__N_144TestTestWithUnspecifiedSuiteGetsDefaultSuiteE
 4425      00000000 
 4426 0150 00000000 		.quad	_ZN12_GLOBAL__N_144TestTestWithUnspecifiedSuiteGetsDefaultSuiteD1Ev
 4426      00000000 
 4427 0158 00000000 		.quad	_ZN12_GLOBAL__N_144TestTestWithUnspecifiedSuiteGetsDefaultSuiteD0Ev
 4427      00000000 
 4428 0160 00000000 		.quad	_ZNK12_GLOBAL__N_144TestTestWithUnspecifiedSuiteGetsDefaultSuite7RunImplEv
 4428      00000000 
 4429              		.align 8
 4432              	_ZTVN12_GLOBAL__N_134TestTestReflectsSpecifiedSuiteNameE:
 4433 0168 00000000 		.quad	0
 4433      00000000 
 4434 0170 00000000 		.quad	_ZTIN12_GLOBAL__N_134TestTestReflectsSpecifiedSuiteNameE
 4434      00000000 
 4435 0178 00000000 		.quad	_ZN12_GLOBAL__N_134TestTestReflectsSpecifiedSuiteNameD1Ev
 4435      00000000 
 4436 0180 00000000 		.quad	_ZN12_GLOBAL__N_134TestTestReflectsSpecifiedSuiteNameD0Ev
 4436      00000000 
 4437 0188 00000000 		.quad	_ZNK12_GLOBAL__N_134TestTestReflectsSpecifiedSuiteName7RunImplEv
 4437      00000000 
 4438              		.align 8
 4441              	_ZTVN12_GLOBAL__N_136TestOutOfCoreCHECKMacrosCanFailTestsE:
 4442 0190 00000000 		.quad	0
 4442      00000000 
 4443 0198 00000000 		.quad	_ZTIN12_GLOBAL__N_136TestOutOfCoreCHECKMacrosCanFailTestsE
 4443      00000000 
 4444 01a0 00000000 		.quad	_ZN12_GLOBAL__N_136TestOutOfCoreCHECKMacrosCanFailTestsD1Ev
 4444      00000000 
 4445 01a8 00000000 		.quad	_ZN12_GLOBAL__N_136TestOutOfCoreCHECKMacrosCanFailTestsD0Ev
 4445      00000000 
 4446 01b0 00000000 		.quad	_ZNK12_GLOBAL__N_136TestOutOfCoreCHECKMacrosCanFailTests7RunImplEv
 4446      00000000 
 4447              		.local	_ZN12_GLOBAL__N_137adderOutOfCoreCHECKMacrosCanFailTestsE
 4448              		.comm	_ZN12_GLOBAL__N_137adderOutOfCoreCHECKMacrosCanFailTestsE,1,1
 4449              		.local	_ZN12_GLOBAL__N_144testOutOfCoreCHECKMacrosCanFailTestsInstanceE
 4450              		.comm	_ZN12_GLOBAL__N_144testOutOfCoreCHECKMacrosCanFailTestsInstanceE,56,32
 4451              		.local	_ZN12_GLOBAL__N_135adderTestReflectsSpecifiedSuiteNameE
 4452              		.comm	_ZN12_GLOBAL__N_135adderTestReflectsSpecifiedSuiteNameE,1,1
 4453              		.local	_ZN12_GLOBAL__N_142testTestReflectsSpecifiedSuiteNameInstanceE
 4454              		.comm	_ZN12_GLOBAL__N_142testTestReflectsSpecifiedSuiteNameInstanceE,56,32
 4455              		.local	_ZN12_GLOBAL__N_145adderTestWithUnspecifiedSuiteGetsDefaultSuiteE
 4456              		.comm	_ZN12_GLOBAL__N_145adderTestWithUnspecifiedSuiteGetsDefaultSuiteE,1,1
 4457              		.local	_ZN12_GLOBAL__N_152testTestWithUnspecifiedSuiteGetsDefaultSuiteInstanceE
 4458              		.comm	_ZN12_GLOBAL__N_152testTestWithUnspecifiedSuiteGetsDefaultSuiteInstanceE,56,32
 4459              		.local	_ZN12_GLOBAL__N_139adderCrashingTestsAreReportedAsFailuresE
 4460              		.comm	_ZN12_GLOBAL__N_139adderCrashingTestsAreReportedAsFailuresE,1,1
 4461              		.local	_ZN12_GLOBAL__N_146testCrashingTestsAreReportedAsFailuresInstanceE
 4462              		.comm	_ZN12_GLOBAL__N_146testCrashingTestsAreReportedAsFailuresInstanceE,56,32
 4463              		.local	_ZN12_GLOBAL__N_139adderThrowingTestsAreReportedAsFailuresE
 4464              		.comm	_ZN12_GLOBAL__N_139adderThrowingTestsAreReportedAsFailuresE,1,1
 4465              		.local	_ZN12_GLOBAL__N_146testThrowingTestsAreReportedAsFailuresInstanceE
 4466              		.comm	_ZN12_GLOBAL__N_146testThrowingTestsAreReportedAsFailuresInstanceE,56,32
 4467              		.local	_ZN12_GLOBAL__N_127adderFailingTestHasFailuresE
 4468              		.comm	_ZN12_GLOBAL__N_127adderFailingTestHasFailuresE,1,1
 4469              		.local	_ZN12_GLOBAL__N_134testFailingTestHasFailuresInstanceE
 4470              		.comm	_ZN12_GLOBAL__N_134testFailingTestHasFailuresInstanceE,56,32
 4471              		.local	_ZN12_GLOBAL__N_129adderPassingTestHasNoFailuresE
 4472              		.comm	_ZN12_GLOBAL__N_129adderPassingTestHasNoFailuresE,1,1
 4473              		.local	_ZN12_GLOBAL__N_136testPassingTestHasNoFailuresInstanceE
 4474              		.comm	_ZN12_GLOBAL__N_136testPassingTestHasNoFailuresInstanceE,56,32
 4475              		.align 8
 4476              	.LC17:
 4477 01b8 00000000 		.quad	_ZTCN8UnitTest15MemoryOutStreamE0_NSt7__cxx1119basic_ostringstreamIcSt11char_traitsIcESaIcEE
 4477      00000000 
 4478              		.section	.data.rel.ro
 4479              		.align 8
 4480              	.LC18:
 4481 0108 00000000 		.quad	_ZTVSt15basic_streambufIcSt11char_traitsIcEE+16
 4481      00000000 
 4482              		.align 8
 4483              	.LC19:
 4484 0110 00000000 		.quad	_ZTVNSt7__cxx1115basic_stringbufIcSt11char_traitsIcESaIcEEE+16
 4484      00000000 
 4485              		.hidden	DW.ref.__gxx_personality_v0
 4486              		.weak	DW.ref.__gxx_personality_v0
 4487              		.section	.data.rel.local.DW.ref.__gxx_personality_v0,"awG",@progbits,DW.ref.__gxx_personality_v0,c
 4488              		.align 8
 4491              	DW.ref.__gxx_personality_v0:
 4492 0000 00000000 		.quad	__gxx_personality_v0
 4492      00000000 
 4493              		.hidden	__dso_handle
 4494              		.ident	"GCC: (Ubuntu 11.3.0-1ubuntu1~22.04) 11.3.0"
 4495              		.section	.note.GNU-stack,"",@progbits
 4496              		.section	.note.gnu.property,"a"
 4497              		.align 8
 4498 0000 04000000 		.long	1f - 0f
 4499 0004 10000000 		.long	4f - 1f
 4500 0008 05000000 		.long	5
 4501              	0:
 4502 000c 474E5500 		.string	"GNU"
 4503              	1:
 4504              		.align 8
 4505 0010 020000C0 		.long	0xc0000002
 4506 0014 04000000 		.long	3f - 2f
 4507              	2:
 4508 0018 03000000 		.long	0x3
 4509              	3:
 4510 001c 00000000 		.align 8
 4511              	4: