   1              		.file	"TestChecks.cpp"
   2              		.text
   3              		.section	.text._ZN17RecordingReporter13ReportSummaryEiiif,"axG",@progbits,_ZN17RecordingReporter13
   4              		.align 2
   5              		.p2align 4
   6              		.weak	_ZN17RecordingReporter13ReportSummaryEiiif
   8              	_ZN17RecordingReporter13ReportSummaryEiiif:
   9              	.LFB1217:
  10              		.cfi_startproc
  11 0000 F30F1EFA 		endbr64
  12 0004 660F6ECE 		movd	%esi, %xmm1
  13 0008 660F6ED2 		movd	%edx, %xmm2
  14 000c 898F2408 		movl	%ecx, 2084(%rdi)
  14      0000
  15 0012 660F62CA 		punpckldq	%xmm2, %xmm1
  16 0016 F30F1187 		movss	%xmm0, 2088(%rdi)
  16      28080000 
  17 001e 660FD68F 		movq	%xmm1, 2076(%rdi)
  17      1C080000 
  18 0026 C3       		ret
  19              		.cfi_endproc
  20              	.LFE1217:
  22              		.text
  23              		.align 2
  24              		.p2align 4
  26              	_ZN12_GLOBAL__N_143TestCheckArray2DCloseFailureIncludesDetailsD2Ev:
  27              	.LFB1424:
  28              		.cfi_startproc
  29 0000 F30F1EFA 		endbr64
  30 0004 488D0500 		leaq	16+_ZTVN12_GLOBAL__N_143TestCheckArray2DCloseFailureIncludesDetailsE(%rip), %rax
  30      000000
  31 000b 488907   		movq	%rax, (%rdi)
  32 000e E9000000 		jmp	_ZN8UnitTest4TestD2Ev@PLT
  32      00
  33              		.cfi_endproc
  34              	.LFE1424:
  36              		.set	_ZN12_GLOBAL__N_143TestCheckArray2DCloseFailureIncludesDetailsD1Ev,_ZN12_GLOBAL__N_143TestChe
  37 0013 90       		.align 2
  38 0014 66662E0F 		.p2align 4
  38      1F840000 
  38      00000090 
  40              	_ZN12_GLOBAL__N_133TestCheckCloseWithDoublesSucceedsD2Ev:
  41              	.LFB1428:
  42              		.cfi_startproc
  43 0020 F30F1EFA 		endbr64
  44 0024 488D0500 		leaq	16+_ZTVN12_GLOBAL__N_133TestCheckCloseWithDoublesSucceedsE(%rip), %rax
  44      000000
  45 002b 488907   		movq	%rax, (%rdi)
  46 002e E9000000 		jmp	_ZN8UnitTest4TestD2Ev@PLT
  46      00
  47              		.cfi_endproc
  48              	.LFE1428:
  50              		.set	_ZN12_GLOBAL__N_133TestCheckCloseWithDoublesSucceedsD1Ev,_ZN12_GLOBAL__N_133TestCheckCloseWit
  51 0033 90       		.align 2
  52 0034 66662E0F 		.p2align 4
  52      1F840000 
  52      00000090 
  54              	_ZN12_GLOBAL__N_126TestCheckArray2DCloseFalseD2Ev:
  55              	.LFB1432:
  56              		.cfi_startproc
  57 0040 F30F1EFA 		endbr64
  58 0044 488D0500 		leaq	16+_ZTVN12_GLOBAL__N_126TestCheckArray2DCloseFalseE(%rip), %rax
  58      000000
  59 004b 488907   		movq	%rax, (%rdi)
  60 004e E9000000 		jmp	_ZN8UnitTest4TestD2Ev@PLT
  60      00
  61              		.cfi_endproc
  62              	.LFE1432:
  64              		.set	_ZN12_GLOBAL__N_126TestCheckArray2DCloseFalseD1Ev,_ZN12_GLOBAL__N_126TestCheckArray2DCloseFal
  65 0053 90       		.align 2
  66 0054 66662E0F 		.p2align 4
  66      1F840000 
  66      00000090 
  68              	_ZN12_GLOBAL__N_125TestCheckArray2DCloseTrueD2Ev:
  69              	.LFB1436:
  70              		.cfi_startproc
  71 0060 F30F1EFA 		endbr64
  72 0064 488D0500 		leaq	16+_ZTVN12_GLOBAL__N_125TestCheckArray2DCloseTrueE(%rip), %rax
  72      000000
  73 006b 488907   		movq	%rax, (%rdi)
  74 006e E9000000 		jmp	_ZN8UnitTest4TestD2Ev@PLT
  74      00
  75              		.cfi_endproc
  76              	.LFE1436:
  78              		.set	_ZN12_GLOBAL__N_125TestCheckArray2DCloseTrueD1Ev,_ZN12_GLOBAL__N_125TestCheckArray2DCloseTrue
  79 0073 90       		.align 2
  80 0074 66662E0F 		.p2align 4
  80      1F840000 
  80      00000090 
  82              	_ZN12_GLOBAL__N_141TestCheckArrayCloseFailureIncludesDetailsD2Ev:
  83              	.LFB1440:
  84              		.cfi_startproc
  85 0080 F30F1EFA 		endbr64
  86 0084 488D0500 		leaq	16+_ZTVN12_GLOBAL__N_141TestCheckArrayCloseFailureIncludesDetailsE(%rip), %rax
  86      000000
  87 008b 488907   		movq	%rax, (%rdi)
  88 008e E9000000 		jmp	_ZN8UnitTest4TestD2Ev@PLT
  88      00
  89              		.cfi_endproc
  90              	.LFE1440:
  92              		.set	_ZN12_GLOBAL__N_141TestCheckArrayCloseFailureIncludesDetailsD1Ev,_ZN12_GLOBAL__N_141TestCheck
  93 0093 90       		.align 2
  94 0094 66662E0F 		.p2align 4
  94      1F840000 
  94      00000090 
  96              	_ZN12_GLOBAL__N_124TestCheckArrayCloseFalseD2Ev:
  97              	.LFB1444:
  98              		.cfi_startproc
  99 00a0 F30F1EFA 		endbr64
 100 00a4 488D0500 		leaq	16+_ZTVN12_GLOBAL__N_124TestCheckArrayCloseFalseE(%rip), %rax
 100      000000
 101 00ab 488907   		movq	%rax, (%rdi)
 102 00ae E9000000 		jmp	_ZN8UnitTest4TestD2Ev@PLT
 102      00
 103              		.cfi_endproc
 104              	.LFE1444:
 106              		.set	_ZN12_GLOBAL__N_124TestCheckArrayCloseFalseD1Ev,_ZN12_GLOBAL__N_124TestCheckArrayCloseFalseD2
 107 00b3 90       		.align 2
 108 00b4 66662E0F 		.p2align 4
 108      1F840000 
 108      00000090 
 110              	_ZN12_GLOBAL__N_123TestCheckArrayCloseTrueD2Ev:
 111              	.LFB1448:
 112              		.cfi_startproc
 113 00c0 F30F1EFA 		endbr64
 114 00c4 488D0500 		leaq	16+_ZTVN12_GLOBAL__N_123TestCheckArrayCloseTrueE(%rip), %rax
 114      000000
 115 00cb 488907   		movq	%rax, (%rdi)
 116 00ce E9000000 		jmp	_ZN8UnitTest4TestD2Ev@PLT
 116      00
 117              		.cfi_endproc
 118              	.LFE1448:
 120              		.set	_ZN12_GLOBAL__N_123TestCheckArrayCloseTrueD1Ev,_ZN12_GLOBAL__N_123TestCheckArrayCloseTrueD2Ev
 121 00d3 90       		.align 2
 122 00d4 66662E0F 		.p2align 4
 122      1F840000 
 122      00000090 
 124              	_ZN12_GLOBAL__N_124TestCheckArrayEqualFalseD2Ev:
 125              	.LFB1452:
 126              		.cfi_startproc
 127 00e0 F30F1EFA 		endbr64
 128 00e4 488D0500 		leaq	16+_ZTVN12_GLOBAL__N_124TestCheckArrayEqualFalseE(%rip), %rax
 128      000000
 129 00eb 488907   		movq	%rax, (%rdi)
 130 00ee E9000000 		jmp	_ZN8UnitTest4TestD2Ev@PLT
 130      00
 131              		.cfi_endproc
 132              	.LFE1452:
 134              		.set	_ZN12_GLOBAL__N_124TestCheckArrayEqualFalseD1Ev,_ZN12_GLOBAL__N_124TestCheckArrayEqualFalseD2
 135 00f3 90       		.align 2
 136 00f4 66662E0F 		.p2align 4
 136      1F840000 
 136      00000090 
 138              	_ZN12_GLOBAL__N_123TestCheckArrayEqualTrueD2Ev:
 139              	.LFB1456:
 140              		.cfi_startproc
 141 0100 F30F1EFA 		endbr64
 142 0104 488D0500 		leaq	16+_ZTVN12_GLOBAL__N_123TestCheckArrayEqualTrueE(%rip), %rax
 142      000000
 143 010b 488907   		movq	%rax, (%rdi)
 144 010e E9000000 		jmp	_ZN8UnitTest4TestD2Ev@PLT
 144      00
 145              		.cfi_endproc
 146              	.LFE1456:
 148              		.set	_ZN12_GLOBAL__N_123TestCheckArrayEqualTrueD1Ev,_ZN12_GLOBAL__N_123TestCheckArrayEqualTrueD2Ev
 149 0113 90       		.align 2
 150 0114 66662E0F 		.p2align 4
 150      1F840000 
 150      00000090 
 152              	_ZN12_GLOBAL__N_136TestCheckCloseFailureIncludesDetailsD2Ev:
 153              	.LFB1460:
 154              		.cfi_startproc
 155 0120 F30F1EFA 		endbr64
 156 0124 488D0500 		leaq	16+_ZTVN12_GLOBAL__N_136TestCheckCloseFailureIncludesDetailsE(%rip), %rax
 156      000000
 157 012b 488907   		movq	%rax, (%rdi)
 158 012e E9000000 		jmp	_ZN8UnitTest4TestD2Ev@PLT
 158      00
 159              		.cfi_endproc
 160              	.LFE1460:
 162              		.set	_ZN12_GLOBAL__N_136TestCheckCloseFailureIncludesDetailsD1Ev,_ZN12_GLOBAL__N_136TestCheckClose
 163 0133 90       		.align 2
 164 0134 66662E0F 		.p2align 4
 164      1F840000 
 164      00000090 
 166              	_ZN12_GLOBAL__N_138TestCheckCloseFailureIncludesToleranceD2Ev:
 167              	.LFB1464:
 168              		.cfi_startproc
 169 0140 F30F1EFA 		endbr64
 170 0144 488D0500 		leaq	16+_ZTVN12_GLOBAL__N_138TestCheckCloseFailureIncludesToleranceE(%rip), %rax
 170      000000
 171 014b 488907   		movq	%rax, (%rdi)
 172 014e E9000000 		jmp	_ZN8UnitTest4TestD2Ev@PLT
 172      00
 173              		.cfi_endproc
 174              	.LFE1464:
 176              		.set	_ZN12_GLOBAL__N_138TestCheckCloseFailureIncludesToleranceD1Ev,_ZN12_GLOBAL__N_138TestCheckClo
 177 0153 90       		.align 2
 178 0154 66662E0F 		.p2align 4
 178      1F840000 
 178      00000090 
 180              	_ZN12_GLOBAL__N_151TestCheckCloseFailureIncludesCheckExpectedAndActualD2Ev:
 181              	.LFB1468:
 182              		.cfi_startproc
 183 0160 F30F1EFA 		endbr64
 184 0164 488D0500 		leaq	16+_ZTVN12_GLOBAL__N_151TestCheckCloseFailureIncludesCheckExpectedAndActualE(%rip), %rax
 184      000000
 185 016b 488907   		movq	%rax, (%rdi)
 186 016e E9000000 		jmp	_ZN8UnitTest4TestD2Ev@PLT
 186      00
 187              		.cfi_endproc
 188              	.LFE1468:
 190              		.set	_ZN12_GLOBAL__N_151TestCheckCloseFailureIncludesCheckExpectedAndActualD1Ev,_ZN12_GLOBAL__N_15
 191 0173 90       		.align 2
 192 0174 66662E0F 		.p2align 4
 192      1F840000 
 192      00000090 
 194              	_ZN12_GLOBAL__N_139TestCheckCloseWithNaNAgainstItselfFailsD2Ev:
 195              	.LFB1472:
 196              		.cfi_startproc
 197 0180 F30F1EFA 		endbr64
 198 0184 488D0500 		leaq	16+_ZTVN12_GLOBAL__N_139TestCheckCloseWithNaNAgainstItselfFailsE(%rip), %rax
 198      000000
 199 018b 488907   		movq	%rax, (%rdi)
 200 018e E9000000 		jmp	_ZN8UnitTest4TestD2Ev@PLT
 200      00
 201              		.cfi_endproc
 202              	.LFE1472:
 204              		.set	_ZN12_GLOBAL__N_139TestCheckCloseWithNaNAgainstItselfFailsD1Ev,_ZN12_GLOBAL__N_139TestCheckCl
 205 0193 90       		.align 2
 206 0194 66662E0F 		.p2align 4
 206      1F840000 
 206      00000090 
 208              	_ZN12_GLOBAL__N_126TestCheckCloseWithNaNFailsD2Ev:
 209              	.LFB1476:
 210              		.cfi_startproc
 211 01a0 F30F1EFA 		endbr64
 212 01a4 488D0500 		leaq	16+_ZTVN12_GLOBAL__N_126TestCheckCloseWithNaNFailsE(%rip), %rax
 212      000000
 213 01ab 488907   		movq	%rax, (%rdi)
 214 01ae E9000000 		jmp	_ZN8UnitTest4TestD2Ev@PLT
 214      00
 215              		.cfi_endproc
 216              	.LFE1476:
 218              		.set	_ZN12_GLOBAL__N_126TestCheckCloseWithNaNFailsD1Ev,_ZN12_GLOBAL__N_126TestCheckCloseWithNaNFai
 219 01b3 90       		.align 2
 220 01b4 66662E0F 		.p2align 4
 220      1F840000 
 220      00000090 
 222              	_ZN12_GLOBAL__N_147TestCheckCloseWithZeroEpsilonWorksForSameNumberD2Ev:
 223              	.LFB1480:
 224              		.cfi_startproc
 225 01c0 F30F1EFA 		endbr64
 226 01c4 488D0500 		leaq	16+_ZTVN12_GLOBAL__N_147TestCheckCloseWithZeroEpsilonWorksForSameNumberE(%rip), %rax
 226      000000
 227 01cb 488907   		movq	%rax, (%rdi)
 228 01ce E9000000 		jmp	_ZN8UnitTest4TestD2Ev@PLT
 228      00
 229              		.cfi_endproc
 230              	.LFE1480:
 232              		.set	_ZN12_GLOBAL__N_147TestCheckCloseWithZeroEpsilonWorksForSameNumberD1Ev,_ZN12_GLOBAL__N_147Tes
 233 01d3 90       		.align 2
 234 01d4 66662E0F 		.p2align 4
 234      1F840000 
 234      00000090 
 236              	_ZN12_GLOBAL__N_119TestCheckCloseFalseD2Ev:
 237              	.LFB1484:
 238              		.cfi_startproc
 239 01e0 F30F1EFA 		endbr64
 240 01e4 488D0500 		leaq	16+_ZTVN12_GLOBAL__N_119TestCheckCloseFalseE(%rip), %rax
 240      000000
 241 01eb 488907   		movq	%rax, (%rdi)
 242 01ee E9000000 		jmp	_ZN8UnitTest4TestD2Ev@PLT
 242      00
 243              		.cfi_endproc
 244              	.LFE1484:
 246              		.set	_ZN12_GLOBAL__N_119TestCheckCloseFalseD1Ev,_ZN12_GLOBAL__N_119TestCheckCloseFalseD2Ev
 247 01f3 90       		.align 2
 248 01f4 66662E0F 		.p2align 4
 248      1F840000 
 248      00000090 
 250              	_ZN12_GLOBAL__N_118TestCheckCloseTrueD2Ev:
 251              	.LFB1488:
 252              		.cfi_startproc
 253 0200 F30F1EFA 		endbr64
 254 0204 488D0500 		leaq	16+_ZTVN12_GLOBAL__N_118TestCheckCloseTrueE(%rip), %rax
 254      000000
 255 020b 488907   		movq	%rax, (%rdi)
 256 020e E9000000 		jmp	_ZN8UnitTest4TestD2Ev@PLT
 256      00
 257              		.cfi_endproc
 258              	.LFE1488:
 260              		.set	_ZN12_GLOBAL__N_118TestCheckCloseTrueD1Ev,_ZN12_GLOBAL__N_118TestCheckCloseTrueD2Ev
 261 0213 90       		.align 2
 262 0214 66662E0F 		.p2align 4
 262      1F840000 
 262      00000090 
 264              	_ZN12_GLOBAL__N_136TestCheckEqualFailureIncludesDetailsD2Ev:
 265              	.LFB1492:
 266              		.cfi_startproc
 267 0220 F30F1EFA 		endbr64
 268 0224 488D0500 		leaq	16+_ZTVN12_GLOBAL__N_136TestCheckEqualFailureIncludesDetailsE(%rip), %rax
 268      000000
 269 022b 488907   		movq	%rax, (%rdi)
 270 022e E9000000 		jmp	_ZN8UnitTest4TestD2Ev@PLT
 270      00
 271              		.cfi_endproc
 272              	.LFE1492:
 274              		.set	_ZN12_GLOBAL__N_136TestCheckEqualFailureIncludesDetailsD1Ev,_ZN12_GLOBAL__N_136TestCheckEqual
 275 0233 90       		.align 2
 276 0234 66662E0F 		.p2align 4
 276      1F840000 
 276      00000090 
 278              	_ZN12_GLOBAL__N_151TestCheckEqualFailureIncludesCheckExpectedAndActualD2Ev:
 279              	.LFB1496:
 280              		.cfi_startproc
 281 0240 F30F1EFA 		endbr64
 282 0244 488D0500 		leaq	16+_ZTVN12_GLOBAL__N_151TestCheckEqualFailureIncludesCheckExpectedAndActualE(%rip), %rax
 282      000000
 283 024b 488907   		movq	%rax, (%rdi)
 284 024e E9000000 		jmp	_ZN8UnitTest4TestD2Ev@PLT
 284      00
 285              		.cfi_endproc
 286              	.LFE1496:
 288              		.set	_ZN12_GLOBAL__N_151TestCheckEqualFailureIncludesCheckExpectedAndActualD1Ev,_ZN12_GLOBAL__N_15
 289 0253 90       		.align 2
 290 0254 66662E0F 		.p2align 4
 290      1F840000 
 290      00000090 
 292              	_ZN12_GLOBAL__N_153TestCheckEqualsWithStringsWorksOnContentsWithALiteralD2Ev:
 293              	.LFB1500:
 294              		.cfi_startproc
 295 0260 F30F1EFA 		endbr64
 296 0264 488D0500 		leaq	16+_ZTVN12_GLOBAL__N_153TestCheckEqualsWithStringsWorksOnContentsWithALiteralE(%rip), %rax
 296      000000
 297 026b 488907   		movq	%rax, (%rdi)
 298 026e E9000000 		jmp	_ZN8UnitTest4TestD2Ev@PLT
 298      00
 299              		.cfi_endproc
 300              	.LFE1500:
 302              		.set	_ZN12_GLOBAL__N_153TestCheckEqualsWithStringsWorksOnContentsWithALiteralD1Ev,_ZN12_GLOBAL__N_
 303 0273 90       		.align 2
 304 0274 66662E0F 		.p2align 4
 304      1F840000 
 304      00000090 
 306              	_ZN12_GLOBAL__N_154TestCheckEqualsWithStringsWorksOnContentsConstNonConstD2Ev:
 307              	.LFB1504:
 308              		.cfi_startproc
 309 0280 F30F1EFA 		endbr64
 310 0284 488D0500 		leaq	16+_ZTVN12_GLOBAL__N_154TestCheckEqualsWithStringsWorksOnContentsConstNonConstE(%rip), %rax
 310      000000
 311 028b 488907   		movq	%rax, (%rdi)
 312 028e E9000000 		jmp	_ZN8UnitTest4TestD2Ev@PLT
 312      00
 313              		.cfi_endproc
 314              	.LFE1504:
 316              		.set	_ZN12_GLOBAL__N_154TestCheckEqualsWithStringsWorksOnContentsConstNonConstD1Ev,_ZN12_GLOBAL__N
 317 0293 90       		.align 2
 318 0294 66662E0F 		.p2align 4
 318      1F840000 
 318      00000090 
 320              	_ZN12_GLOBAL__N_154TestCheckEqualsWithStringsWorksOnContentsNonConstConstD2Ev:
 321              	.LFB1508:
 322              		.cfi_startproc
 323 02a0 F30F1EFA 		endbr64
 324 02a4 488D0500 		leaq	16+_ZTVN12_GLOBAL__N_154TestCheckEqualsWithStringsWorksOnContentsNonConstConstE(%rip), %rax
 324      000000
 325 02ab 488907   		movq	%rax, (%rdi)
 326 02ae E9000000 		jmp	_ZN8UnitTest4TestD2Ev@PLT
 326      00
 327              		.cfi_endproc
 328              	.LFE1508:
 330              		.set	_ZN12_GLOBAL__N_154TestCheckEqualsWithStringsWorksOnContentsNonConstConstD1Ev,_ZN12_GLOBAL__N
 331 02b3 90       		.align 2
 332 02b4 66662E0F 		.p2align 4
 332      1F840000 
 332      00000090 
 334              	_ZN12_GLOBAL__N_151TestCheckEqualsWithStringsWorksOnContentsConstConstD2Ev:
 335              	.LFB1512:
 336              		.cfi_startproc
 337 02c0 F30F1EFA 		endbr64
 338 02c4 488D0500 		leaq	16+_ZTVN12_GLOBAL__N_151TestCheckEqualsWithStringsWorksOnContentsConstConstE(%rip), %rax
 338      000000
 339 02cb 488907   		movq	%rax, (%rdi)
 340 02ce E9000000 		jmp	_ZN8UnitTest4TestD2Ev@PLT
 340      00
 341              		.cfi_endproc
 342              	.LFE1512:
 344              		.set	_ZN12_GLOBAL__N_151TestCheckEqualsWithStringsWorksOnContentsConstConstD1Ev,_ZN12_GLOBAL__N_15
 345 02d3 90       		.align 2
 346 02d4 66662E0F 		.p2align 4
 346      1F840000 
 346      00000090 
 348              	_ZN12_GLOBAL__N_157TestCheckEqualsWithStringsWorksOnContentsNonConstNonConstD2Ev:
 349              	.LFB1516:
 350              		.cfi_startproc
 351 02e0 F30F1EFA 		endbr64
 352 02e4 488D0500 		leaq	16+_ZTVN12_GLOBAL__N_157TestCheckEqualsWithStringsWorksOnContentsNonConstNonConstE(%rip), %ra
 352      000000
 353 02eb 488907   		movq	%rax, (%rdi)
 354 02ee E9000000 		jmp	_ZN8UnitTest4TestD2Ev@PLT
 354      00
 355              		.cfi_endproc
 356              	.LFE1516:
 358              		.set	_ZN12_GLOBAL__N_157TestCheckEqualsWithStringsWorksOnContentsNonConstNonConstD1Ev,_ZN12_GLOBAL
 359 02f3 90       		.align 2
 360 02f4 66662E0F 		.p2align 4
 360      1F840000 
 360      00000090 
 362              	_ZN12_GLOBAL__N_149TestCheckEqualsWithStringsFailsOnDifferentStringsD2Ev:
 363              	.LFB1520:
 364              		.cfi_startproc
 365 0300 F30F1EFA 		endbr64
 366 0304 488D0500 		leaq	16+_ZTVN12_GLOBAL__N_149TestCheckEqualsWithStringsFailsOnDifferentStringsE(%rip), %rax
 366      000000
 367 030b 488907   		movq	%rax, (%rdi)
 368 030e E9000000 		jmp	_ZN8UnitTest4TestD2Ev@PLT
 368      00
 369              		.cfi_endproc
 370              	.LFE1520:
 372              		.set	_ZN12_GLOBAL__N_149TestCheckEqualsWithStringsFailsOnDifferentStringsD1Ev,_ZN12_GLOBAL__N_149T
 373 0313 90       		.align 2
 374 0314 66662E0F 		.p2align 4
 374      1F840000 
 374      00000090 
 376              	_ZN12_GLOBAL__N_130TestCheckEqualWithUnsignedLongD2Ev:
 377              	.LFB1524:
 378              		.cfi_startproc
 379 0320 F30F1EFA 		endbr64
 380 0324 488D0500 		leaq	16+_ZTVN12_GLOBAL__N_130TestCheckEqualWithUnsignedLongE(%rip), %rax
 380      000000
 381 032b 488907   		movq	%rax, (%rdi)
 382 032e E9000000 		jmp	_ZN8UnitTest4TestD2Ev@PLT
 382      00
 383              		.cfi_endproc
 384              	.LFE1524:
 386              		.set	_ZN12_GLOBAL__N_130TestCheckEqualWithUnsignedLongD1Ev,_ZN12_GLOBAL__N_130TestCheckEqualWithUn
 387              		.section	.text._ZN17RecordingReporter15ReportTestStartERKN8UnitTest11TestDetailsE,"axG",@progbits,
 388              		.align 2
 389              		.p2align 4
 390              		.weak	_ZN17RecordingReporter15ReportTestStartERKN8UnitTest11TestDetailsE
 392              	_ZN17RecordingReporter15ReportTestStartERKN8UnitTest11TestDetailsE:
 393              	.LFB1214:
 394              		.cfi_startproc
 395 0000 F30F1EFA 		endbr64
 396 0004 55       		pushq	%rbp
 397              		.cfi_def_cfa_offset 16
 398              		.cfi_offset 6, -16
 399 0005 4889F5   		movq	%rsi, %rbp
 400 0008 BA000100 		movl	$256, %edx
 400      00
 401 000d 53       		pushq	%rbx
 402              		.cfi_def_cfa_offset 24
 403              		.cfi_offset 3, -24
 404 000e 4889FB   		movq	%rdi, %rbx
 405 0011 4883EC08 		subq	$8, %rsp
 406              		.cfi_def_cfa_offset 32
 407 0015 83470801 		addl	$1, 8(%rdi)
 408 0019 488B36   		movq	(%rsi), %rsi
 409 001c 488D7F0C 		leaq	12(%rdi), %rdi
 410 0020 E8000000 		call	__strcpy_chk@PLT
 410      00
 411 0025 488B7508 		movq	8(%rbp), %rsi
 412 0029 4883C408 		addq	$8, %rsp
 413              		.cfi_def_cfa_offset 24
 414 002d 488DBB0C 		leaq	268(%rbx), %rdi
 414      010000
 415 0034 BA000100 		movl	$256, %edx
 415      00
 416 0039 5B       		popq	%rbx
 417              		.cfi_def_cfa_offset 16
 418 003a 5D       		popq	%rbp
 419              		.cfi_def_cfa_offset 8
 420 003b E9000000 		jmp	__strcpy_chk@PLT
 420      00
 421              		.cfi_endproc
 422              	.LFE1214:
 424              		.section	.text._ZN17RecordingReporter13ReportFailureERKN8UnitTest11TestDetailsEPKc,"axG",@progbits
 425              		.align 2
 426              		.p2align 4
 427              		.weak	_ZN17RecordingReporter13ReportFailureERKN8UnitTest11TestDetailsEPKc
 429              	_ZN17RecordingReporter13ReportFailureERKN8UnitTest11TestDetailsEPKc:
 430              	.LFB1215:
 431              		.cfi_startproc
 432 0000 F30F1EFA 		endbr64
 433 0004 4154     		pushq	%r12
 434              		.cfi_def_cfa_offset 16
 435              		.cfi_offset 12, -16
 436 0006 4989D4   		movq	%rdx, %r12
 437 0009 BA000100 		movl	$256, %edx
 437      00
 438 000e 55       		pushq	%rbp
 439              		.cfi_def_cfa_offset 24
 440              		.cfi_offset 6, -24
 441 000f 4889F5   		movq	%rsi, %rbp
 442 0012 53       		pushq	%rbx
 443              		.cfi_def_cfa_offset 32
 444              		.cfi_offset 3, -32
 445 0013 488B7610 		movq	16(%rsi), %rsi
 446 0017 4889FB   		movq	%rdi, %rbx
 447 001a 83870C02 		addl	$1, 524(%rdi)
 447      000001
 448 0021 488DBF10 		leaq	528(%rdi), %rdi
 448      020000
 449 0028 E8000000 		call	__strcpy_chk@PLT
 449      00
 450 002d 8B4518   		movl	24(%rbp), %eax
 451 0030 488B7500 		movq	0(%rbp), %rsi
 452 0034 488DBB14 		leaq	788(%rbx), %rdi
 452      030000
 453 003b BA000100 		movl	$256, %edx
 453      00
 454 0040 89831003 		movl	%eax, 784(%rbx)
 454      0000
 455 0046 E8000000 		call	__strcpy_chk@PLT
 455      00
 456 004b 488B7508 		movq	8(%rbp), %rsi
 457 004f BA000100 		movl	$256, %edx
 457      00
 458 0054 488DBB14 		leaq	1044(%rbx), %rdi
 458      040000
 459 005b E8000000 		call	__strcpy_chk@PLT
 459      00
 460 0060 488DBB14 		leaq	1300(%rbx), %rdi
 460      050000
 461 0067 4C89E6   		movq	%r12, %rsi
 462 006a 5B       		popq	%rbx
 463              		.cfi_def_cfa_offset 24
 464 006b BA000100 		movl	$256, %edx
 464      00
 465 0070 5D       		popq	%rbp
 466              		.cfi_def_cfa_offset 16
 467 0071 415C     		popq	%r12
 468              		.cfi_def_cfa_offset 8
 469 0073 E9000000 		jmp	__strcpy_chk@PLT
 469      00
 470              		.cfi_endproc
 471              	.LFE1215:
 473              		.section	.text._ZN17RecordingReporter16ReportTestFinishERKN8UnitTest11TestDetailsEf,"axG",@progbit
 474              		.align 2
 475              		.p2align 4
 476              		.weak	_ZN17RecordingReporter16ReportTestFinishERKN8UnitTest11TestDetailsEf
 478              	_ZN17RecordingReporter16ReportTestFinishERKN8UnitTest11TestDetailsEf:
 479              	.LFB1216:
 480              		.cfi_startproc
 481 0000 F30F1EFA 		endbr64
 482 0004 55       		pushq	%rbp
 483              		.cfi_def_cfa_offset 16
 484              		.cfi_offset 6, -16
 485 0005 4889F5   		movq	%rsi, %rbp
 486 0008 BA000100 		movl	$256, %edx
 486      00
 487 000d 53       		pushq	%rbx
 488              		.cfi_def_cfa_offset 24
 489              		.cfi_offset 3, -24
 490 000e 4889FB   		movq	%rdi, %rbx
 491 0011 4883EC18 		subq	$24, %rsp
 492              		.cfi_def_cfa_offset 48
 493 0015 83871406 		addl	$1, 1556(%rdi)
 493      000001
 494 001c 488B36   		movq	(%rsi), %rsi
 495 001f 488DBF18 		leaq	1560(%rdi), %rdi
 495      060000
 496 0026 F30F1144 		movss	%xmm0, 12(%rsp)
 496      240C
 497 002c E8000000 		call	__strcpy_chk@PLT
 497      00
 498 0031 488B7508 		movq	8(%rbp), %rsi
 499 0035 BA000100 		movl	$256, %edx
 499      00
 500 003a 488DBB18 		leaq	1816(%rbx), %rdi
 500      070000
 501 0041 E8000000 		call	__strcpy_chk@PLT
 501      00
 502 0046 F30F1044 		movss	12(%rsp), %xmm0
 502      240C
 503 004c F30F1183 		movss	%xmm0, 2072(%rbx)
 503      18080000 
 504 0054 4883C418 		addq	$24, %rsp
 505              		.cfi_def_cfa_offset 24
 506 0058 5B       		popq	%rbx
 507              		.cfi_def_cfa_offset 16
 508 0059 5D       		popq	%rbp
 509              		.cfi_def_cfa_offset 8
 510 005a C3       		ret
 511              		.cfi_endproc
 512              	.LFE1216:
 514              		.section	.text.unlikely,"ax",@progbits
 515              		.align 2
 516              	.LCOLDB0:
 517              		.text
 518              	.LHOTB0:
 519 0333 90       		.align 2
 520 0334 66662E0F 		.p2align 4
 520      1F840000 
 520      00000090 
 522              	_ZN12_GLOBAL__N_143TestCheckArray2DCloseFailureIncludesDetailsD0Ev:
 523              	.LFB1426:
 524              		.cfi_startproc
 525              		.cfi_personality 0x9b,DW.ref.__gxx_personality_v0
 526              		.cfi_lsda 0x1b,.LLSDA1426
 527 0340 F30F1EFA 		endbr64
 528 0344 4154     		pushq	%r12
 529              		.cfi_def_cfa_offset 16
 530              		.cfi_offset 12, -16
 531 0346 488D0500 		leaq	16+_ZTVN12_GLOBAL__N_143TestCheckArray2DCloseFailureIncludesDetailsE(%rip), %rax
 531      000000
 532 034d 55       		pushq	%rbp
 533              		.cfi_def_cfa_offset 24
 534              		.cfi_offset 6, -24
 535 034e 4889FD   		movq	%rdi, %rbp
 536 0351 4883EC08 		subq	$8, %rsp
 537              		.cfi_def_cfa_offset 32
 538 0355 488907   		movq	%rax, (%rdi)
 539              	.LEHB0:
 540 0358 E8000000 		call	_ZN8UnitTest4TestD2Ev@PLT
 540      00
 541              	.LEHE0:
 542 035d 4883C408 		addq	$8, %rsp
 543              		.cfi_remember_state
 544              		.cfi_def_cfa_offset 24
 545 0361 4889EF   		movq	%rbp, %rdi
 546 0364 5D       		popq	%rbp
 547              		.cfi_def_cfa_offset 16
 548 0365 415C     		popq	%r12
 549              		.cfi_def_cfa_offset 8
 550 0367 E9000000 		jmp	_ZdlPv@PLT
 550      00
 551              	.L37:
 552              		.cfi_restore_state
 553 036c F30F1EFA 		endbr64
 554 0370 4989C4   		movq	%rax, %r12
 555 0373 E9000000 		jmp	.L36
 555      00
 556              		.globl	__gxx_personality_v0
 557              		.section	.gcc_except_table,"a",@progbits
 558              	.LLSDA1426:
 559 0000 FF       		.byte	0xff
 560 0001 FF       		.byte	0xff
 561 0002 01       		.byte	0x1
 562 0003 04       		.uleb128 .LLSDACSE1426-.LLSDACSB1426
 563              	.LLSDACSB1426:
 564 0004 18       		.uleb128 .LEHB0-.LFB1426
 565 0005 05       		.uleb128 .LEHE0-.LEHB0
 566 0006 2C       		.uleb128 .L37-.LFB1426
 567 0007 00       		.uleb128 0
 568              	.LLSDACSE1426:
 569              		.text
 570              		.cfi_endproc
 571              		.section	.text.unlikely
 572              		.cfi_startproc
 573              		.cfi_personality 0x9b,DW.ref.__gxx_personality_v0
 574              		.cfi_lsda 0x1b,.LLSDAC1426
 576              	_ZN12_GLOBAL__N_143TestCheckArray2DCloseFailureIncludesDetailsD0Ev.cold:
 577              	.LFSB1426:
 578              	.L36:
 579              		.cfi_def_cfa_offset 32
 580              		.cfi_offset 6, -24
 581              		.cfi_offset 12, -16
 582 0000 4889EF   		movq	%rbp, %rdi
 583 0003 E8000000 		call	_ZdlPv@PLT
 583      00
 584 0008 4C89E7   		movq	%r12, %rdi
 585              	.LEHB1:
 586 000b E8000000 		call	_Unwind_Resume@PLT
 586      00
 587              	.LEHE1:
 588              		.cfi_endproc
 589              	.LFE1426:
 590              		.section	.gcc_except_table
 591              	.LLSDAC1426:
 592 0008 FF       		.byte	0xff
 593 0009 FF       		.byte	0xff
 594 000a 01       		.byte	0x1
 595 000b 04       		.uleb128 .LLSDACSEC1426-.LLSDACSBC1426
 596              	.LLSDACSBC1426:
 597 000c 0B       		.uleb128 .LEHB1-.LCOLDB0
 598 000d 05       		.uleb128 .LEHE1-.LEHB1
 599 000e 00       		.uleb128 0
 600 000f 00       		.uleb128 0
 601              	.LLSDACSEC1426:
 602              		.section	.text.unlikely
 603              		.text
 605              		.section	.text.unlikely
 607              	.LCOLDE0:
 608              		.text
 609              	.LHOTE0:
 610              		.section	.text.unlikely
 611              		.align 2
 612              	.LCOLDB1:
 613              		.text
 614              	.LHOTB1:
 615              		.align 2
 616 0378 0F1F8400 		.p2align 4
 616      00000000 
 618              	_ZN12_GLOBAL__N_133TestCheckCloseWithDoublesSucceedsD0Ev:
 619              	.LFB1430:
 620              		.cfi_startproc
 621              		.cfi_personality 0x9b,DW.ref.__gxx_personality_v0
 622              		.cfi_lsda 0x1b,.LLSDA1430
 623 0380 F30F1EFA 		endbr64
 624 0384 4154     		pushq	%r12
 625              		.cfi_def_cfa_offset 16
 626              		.cfi_offset 12, -16
 627 0386 488D0500 		leaq	16+_ZTVN12_GLOBAL__N_133TestCheckCloseWithDoublesSucceedsE(%rip), %rax
 627      000000
 628 038d 55       		pushq	%rbp
 629              		.cfi_def_cfa_offset 24
 630              		.cfi_offset 6, -24
 631 038e 4889FD   		movq	%rdi, %rbp
 632 0391 4883EC08 		subq	$8, %rsp
 633              		.cfi_def_cfa_offset 32
 634 0395 488907   		movq	%rax, (%rdi)
 635              	.LEHB2:
 636 0398 E8000000 		call	_ZN8UnitTest4TestD2Ev@PLT
 636      00
 637              	.LEHE2:
 638 039d 4883C408 		addq	$8, %rsp
 639              		.cfi_remember_state
 640              		.cfi_def_cfa_offset 24
 641 03a1 4889EF   		movq	%rbp, %rdi
 642 03a4 5D       		popq	%rbp
 643              		.cfi_def_cfa_offset 16
 644 03a5 415C     		popq	%r12
 645              		.cfi_def_cfa_offset 8
 646 03a7 E9000000 		jmp	_ZdlPv@PLT
 646      00
 647              	.L41:
 648              		.cfi_restore_state
 649 03ac F30F1EFA 		endbr64
 650 03b0 4989C4   		movq	%rax, %r12
 651 03b3 E9000000 		jmp	.L40
 651      00
 652              		.section	.gcc_except_table
 653              	.LLSDA1430:
 654 0010 FF       		.byte	0xff
 655 0011 FF       		.byte	0xff
 656 0012 01       		.byte	0x1
 657 0013 04       		.uleb128 .LLSDACSE1430-.LLSDACSB1430
 658              	.LLSDACSB1430:
 659 0014 18       		.uleb128 .LEHB2-.LFB1430
 660 0015 05       		.uleb128 .LEHE2-.LEHB2
 661 0016 2C       		.uleb128 .L41-.LFB1430
 662 0017 00       		.uleb128 0
 663              	.LLSDACSE1430:
 664              		.text
 665              		.cfi_endproc
 666              		.section	.text.unlikely
 667              		.cfi_startproc
 668              		.cfi_personality 0x9b,DW.ref.__gxx_personality_v0
 669              		.cfi_lsda 0x1b,.LLSDAC1430
 671              	_ZN12_GLOBAL__N_133TestCheckCloseWithDoublesSucceedsD0Ev.cold:
 672              	.LFSB1430:
 673              	.L40:
 674              		.cfi_def_cfa_offset 32
 675              		.cfi_offset 6, -24
 676              		.cfi_offset 12, -16
 677 0010 4889EF   		movq	%rbp, %rdi
 678 0013 E8000000 		call	_ZdlPv@PLT
 678      00
 679 0018 4C89E7   		movq	%r12, %rdi
 680              	.LEHB3:
 681 001b E8000000 		call	_Unwind_Resume@PLT
 681      00
 682              	.LEHE3:
 683              		.cfi_endproc
 684              	.LFE1430:
 685              		.section	.gcc_except_table
 686              	.LLSDAC1430:
 687 0018 FF       		.byte	0xff
 688 0019 FF       		.byte	0xff
 689 001a 01       		.byte	0x1
 690 001b 04       		.uleb128 .LLSDACSEC1430-.LLSDACSBC1430
 691              	.LLSDACSBC1430:
 692 001c 0B       		.uleb128 .LEHB3-.LCOLDB1
 693 001d 05       		.uleb128 .LEHE3-.LEHB3
 694 001e 00       		.uleb128 0
 695 001f 00       		.uleb128 0
 696              	.LLSDACSEC1430:
 697              		.section	.text.unlikely
 698              		.text
 700              		.section	.text.unlikely
 702              	.LCOLDE1:
 703              		.text
 704              	.LHOTE1:
 705              		.section	.text.unlikely
 706              		.align 2
 707              	.LCOLDB2:
 708              		.text
 709              	.LHOTB2:
 710              		.align 2
 711 03b8 0F1F8400 		.p2align 4
 711      00000000 
 713              	_ZN12_GLOBAL__N_126TestCheckArray2DCloseFalseD0Ev:
 714              	.LFB1434:
 715              		.cfi_startproc
 716              		.cfi_personality 0x9b,DW.ref.__gxx_personality_v0
 717              		.cfi_lsda 0x1b,.LLSDA1434
 718 03c0 F30F1EFA 		endbr64
 719 03c4 4154     		pushq	%r12
 720              		.cfi_def_cfa_offset 16
 721              		.cfi_offset 12, -16
 722 03c6 488D0500 		leaq	16+_ZTVN12_GLOBAL__N_126TestCheckArray2DCloseFalseE(%rip), %rax
 722      000000
 723 03cd 55       		pushq	%rbp
 724              		.cfi_def_cfa_offset 24
 725              		.cfi_offset 6, -24
 726 03ce 4889FD   		movq	%rdi, %rbp
 727 03d1 4883EC08 		subq	$8, %rsp
 728              		.cfi_def_cfa_offset 32
 729 03d5 488907   		movq	%rax, (%rdi)
 730              	.LEHB4:
 731 03d8 E8000000 		call	_ZN8UnitTest4TestD2Ev@PLT
 731      00
 732              	.LEHE4:
 733 03dd 4883C408 		addq	$8, %rsp
 734              		.cfi_remember_state
 735              		.cfi_def_cfa_offset 24
 736 03e1 4889EF   		movq	%rbp, %rdi
 737 03e4 5D       		popq	%rbp
 738              		.cfi_def_cfa_offset 16
 739 03e5 415C     		popq	%r12
 740              		.cfi_def_cfa_offset 8
 741 03e7 E9000000 		jmp	_ZdlPv@PLT
 741      00
 742              	.L45:
 743              		.cfi_restore_state
 744 03ec F30F1EFA 		endbr64
 745 03f0 4989C4   		movq	%rax, %r12
 746 03f3 E9000000 		jmp	.L44
 746      00
 747              		.section	.gcc_except_table
 748              	.LLSDA1434:
 749 0020 FF       		.byte	0xff
 750 0021 FF       		.byte	0xff
 751 0022 01       		.byte	0x1
 752 0023 04       		.uleb128 .LLSDACSE1434-.LLSDACSB1434
 753              	.LLSDACSB1434:
 754 0024 18       		.uleb128 .LEHB4-.LFB1434
 755 0025 05       		.uleb128 .LEHE4-.LEHB4
 756 0026 2C       		.uleb128 .L45-.LFB1434
 757 0027 00       		.uleb128 0
 758              	.LLSDACSE1434:
 759              		.text
 760              		.cfi_endproc
 761              		.section	.text.unlikely
 762              		.cfi_startproc
 763              		.cfi_personality 0x9b,DW.ref.__gxx_personality_v0
 764              		.cfi_lsda 0x1b,.LLSDAC1434
 766              	_ZN12_GLOBAL__N_126TestCheckArray2DCloseFalseD0Ev.cold:
 767              	.LFSB1434:
 768              	.L44:
 769              		.cfi_def_cfa_offset 32
 770              		.cfi_offset 6, -24
 771              		.cfi_offset 12, -16
 772 0020 4889EF   		movq	%rbp, %rdi
 773 0023 E8000000 		call	_ZdlPv@PLT
 773      00
 774 0028 4C89E7   		movq	%r12, %rdi
 775              	.LEHB5:
 776 002b E8000000 		call	_Unwind_Resume@PLT
 776      00
 777              	.LEHE5:
 778              		.cfi_endproc
 779              	.LFE1434:
 780              		.section	.gcc_except_table
 781              	.LLSDAC1434:
 782 0028 FF       		.byte	0xff
 783 0029 FF       		.byte	0xff
 784 002a 01       		.byte	0x1
 785 002b 04       		.uleb128 .LLSDACSEC1434-.LLSDACSBC1434
 786              	.LLSDACSBC1434:
 787 002c 0B       		.uleb128 .LEHB5-.LCOLDB2
 788 002d 05       		.uleb128 .LEHE5-.LEHB5
 789 002e 00       		.uleb128 0
 790 002f 00       		.uleb128 0
 791              	.LLSDACSEC1434:
 792              		.section	.text.unlikely
 793              		.text
 795              		.section	.text.unlikely
 797              	.LCOLDE2:
 798              		.text
 799              	.LHOTE2:
 800              		.section	.text.unlikely
 801              		.align 2
 802              	.LCOLDB3:
 803              		.text
 804              	.LHOTB3:
 805              		.align 2
 806 03f8 0F1F8400 		.p2align 4
 806      00000000 
 808              	_ZN12_GLOBAL__N_125TestCheckArray2DCloseTrueD0Ev:
 809              	.LFB1438:
 810              		.cfi_startproc
 811              		.cfi_personality 0x9b,DW.ref.__gxx_personality_v0
 812              		.cfi_lsda 0x1b,.LLSDA1438
 813 0400 F30F1EFA 		endbr64
 814 0404 4154     		pushq	%r12
 815              		.cfi_def_cfa_offset 16
 816              		.cfi_offset 12, -16
 817 0406 488D0500 		leaq	16+_ZTVN12_GLOBAL__N_125TestCheckArray2DCloseTrueE(%rip), %rax
 817      000000
 818 040d 55       		pushq	%rbp
 819              		.cfi_def_cfa_offset 24
 820              		.cfi_offset 6, -24
 821 040e 4889FD   		movq	%rdi, %rbp
 822 0411 4883EC08 		subq	$8, %rsp
 823              		.cfi_def_cfa_offset 32
 824 0415 488907   		movq	%rax, (%rdi)
 825              	.LEHB6:
 826 0418 E8000000 		call	_ZN8UnitTest4TestD2Ev@PLT
 826      00
 827              	.LEHE6:
 828 041d 4883C408 		addq	$8, %rsp
 829              		.cfi_remember_state
 830              		.cfi_def_cfa_offset 24
 831 0421 4889EF   		movq	%rbp, %rdi
 832 0424 5D       		popq	%rbp
 833              		.cfi_def_cfa_offset 16
 834 0425 415C     		popq	%r12
 835              		.cfi_def_cfa_offset 8
 836 0427 E9000000 		jmp	_ZdlPv@PLT
 836      00
 837              	.L49:
 838              		.cfi_restore_state
 839 042c F30F1EFA 		endbr64
 840 0430 4989C4   		movq	%rax, %r12
 841 0433 E9000000 		jmp	.L48
 841      00
 842              		.section	.gcc_except_table
 843              	.LLSDA1438:
 844 0030 FF       		.byte	0xff
 845 0031 FF       		.byte	0xff
 846 0032 01       		.byte	0x1
 847 0033 04       		.uleb128 .LLSDACSE1438-.LLSDACSB1438
 848              	.LLSDACSB1438:
 849 0034 18       		.uleb128 .LEHB6-.LFB1438
 850 0035 05       		.uleb128 .LEHE6-.LEHB6
 851 0036 2C       		.uleb128 .L49-.LFB1438
 852 0037 00       		.uleb128 0
 853              	.LLSDACSE1438:
 854              		.text
 855              		.cfi_endproc
 856              		.section	.text.unlikely
 857              		.cfi_startproc
 858              		.cfi_personality 0x9b,DW.ref.__gxx_personality_v0
 859              		.cfi_lsda 0x1b,.LLSDAC1438
 861              	_ZN12_GLOBAL__N_125TestCheckArray2DCloseTrueD0Ev.cold:
 862              	.LFSB1438:
 863              	.L48:
 864              		.cfi_def_cfa_offset 32
 865              		.cfi_offset 6, -24
 866              		.cfi_offset 12, -16
 867 0030 4889EF   		movq	%rbp, %rdi
 868 0033 E8000000 		call	_ZdlPv@PLT
 868      00
 869 0038 4C89E7   		movq	%r12, %rdi
 870              	.LEHB7:
 871 003b E8000000 		call	_Unwind_Resume@PLT
 871      00
 872              	.LEHE7:
 873              		.cfi_endproc
 874              	.LFE1438:
 875              		.section	.gcc_except_table
 876              	.LLSDAC1438:
 877 0038 FF       		.byte	0xff
 878 0039 FF       		.byte	0xff
 879 003a 01       		.byte	0x1
 880 003b 04       		.uleb128 .LLSDACSEC1438-.LLSDACSBC1438
 881              	.LLSDACSBC1438:
 882 003c 0B       		.uleb128 .LEHB7-.LCOLDB3
 883 003d 05       		.uleb128 .LEHE7-.LEHB7
 884 003e 00       		.uleb128 0
 885 003f 00       		.uleb128 0
 886              	.LLSDACSEC1438:
 887              		.section	.text.unlikely
 888              		.text
 890              		.section	.text.unlikely
 892              	.LCOLDE3:
 893              		.text
 894              	.LHOTE3:
 895              		.section	.text.unlikely
 896              		.align 2
 897              	.LCOLDB4:
 898              		.text
 899              	.LHOTB4:
 900              		.align 2
 901 0438 0F1F8400 		.p2align 4
 901      00000000 
 903              	_ZN12_GLOBAL__N_141TestCheckArrayCloseFailureIncludesDetailsD0Ev:
 904              	.LFB1442:
 905              		.cfi_startproc
 906              		.cfi_personality 0x9b,DW.ref.__gxx_personality_v0
 907              		.cfi_lsda 0x1b,.LLSDA1442
 908 0440 F30F1EFA 		endbr64
 909 0444 4154     		pushq	%r12
 910              		.cfi_def_cfa_offset 16
 911              		.cfi_offset 12, -16
 912 0446 488D0500 		leaq	16+_ZTVN12_GLOBAL__N_141TestCheckArrayCloseFailureIncludesDetailsE(%rip), %rax
 912      000000
 913 044d 55       		pushq	%rbp
 914              		.cfi_def_cfa_offset 24
 915              		.cfi_offset 6, -24
 916 044e 4889FD   		movq	%rdi, %rbp
 917 0451 4883EC08 		subq	$8, %rsp
 918              		.cfi_def_cfa_offset 32
 919 0455 488907   		movq	%rax, (%rdi)
 920              	.LEHB8:
 921 0458 E8000000 		call	_ZN8UnitTest4TestD2Ev@PLT
 921      00
 922              	.LEHE8:
 923 045d 4883C408 		addq	$8, %rsp
 924              		.cfi_remember_state
 925              		.cfi_def_cfa_offset 24
 926 0461 4889EF   		movq	%rbp, %rdi
 927 0464 5D       		popq	%rbp
 928              		.cfi_def_cfa_offset 16
 929 0465 415C     		popq	%r12
 930              		.cfi_def_cfa_offset 8
 931 0467 E9000000 		jmp	_ZdlPv@PLT
 931      00
 932              	.L53:
 933              		.cfi_restore_state
 934 046c F30F1EFA 		endbr64
 935 0470 4989C4   		movq	%rax, %r12
 936 0473 E9000000 		jmp	.L52
 936      00
 937              		.section	.gcc_except_table
 938              	.LLSDA1442:
 939 0040 FF       		.byte	0xff
 940 0041 FF       		.byte	0xff
 941 0042 01       		.byte	0x1
 942 0043 04       		.uleb128 .LLSDACSE1442-.LLSDACSB1442
 943              	.LLSDACSB1442:
 944 0044 18       		.uleb128 .LEHB8-.LFB1442
 945 0045 05       		.uleb128 .LEHE8-.LEHB8
 946 0046 2C       		.uleb128 .L53-.LFB1442
 947 0047 00       		.uleb128 0
 948              	.LLSDACSE1442:
 949              		.text
 950              		.cfi_endproc
 951              		.section	.text.unlikely
 952              		.cfi_startproc
 953              		.cfi_personality 0x9b,DW.ref.__gxx_personality_v0
 954              		.cfi_lsda 0x1b,.LLSDAC1442
 956              	_ZN12_GLOBAL__N_141TestCheckArrayCloseFailureIncludesDetailsD0Ev.cold:
 957              	.LFSB1442:
 958              	.L52:
 959              		.cfi_def_cfa_offset 32
 960              		.cfi_offset 6, -24
 961              		.cfi_offset 12, -16
 962 0040 4889EF   		movq	%rbp, %rdi
 963 0043 E8000000 		call	_ZdlPv@PLT
 963      00
 964 0048 4C89E7   		movq	%r12, %rdi
 965              	.LEHB9:
 966 004b E8000000 		call	_Unwind_Resume@PLT
 966      00
 967              	.LEHE9:
 968              		.cfi_endproc
 969              	.LFE1442:
 970              		.section	.gcc_except_table
 971              	.LLSDAC1442:
 972 0048 FF       		.byte	0xff
 973 0049 FF       		.byte	0xff
 974 004a 01       		.byte	0x1
 975 004b 04       		.uleb128 .LLSDACSEC1442-.LLSDACSBC1442
 976              	.LLSDACSBC1442:
 977 004c 0B       		.uleb128 .LEHB9-.LCOLDB4
 978 004d 05       		.uleb128 .LEHE9-.LEHB9
 979 004e 00       		.uleb128 0
 980 004f 00       		.uleb128 0
 981              	.LLSDACSEC1442:
 982              		.section	.text.unlikely
 983              		.text
 985              		.section	.text.unlikely
 987              	.LCOLDE4:
 988              		.text
 989              	.LHOTE4:
 990              		.section	.text.unlikely
 991              		.align 2
 992              	.LCOLDB5:
 993              		.text
 994              	.LHOTB5:
 995              		.align 2
 996 0478 0F1F8400 		.p2align 4
 996      00000000 
 998              	_ZN12_GLOBAL__N_124TestCheckArrayCloseFalseD0Ev:
 999              	.LFB1446:
 1000              		.cfi_startproc
 1001              		.cfi_personality 0x9b,DW.ref.__gxx_personality_v0
 1002              		.cfi_lsda 0x1b,.LLSDA1446
 1003 0480 F30F1EFA 		endbr64
 1004 0484 4154     		pushq	%r12
 1005              		.cfi_def_cfa_offset 16
 1006              		.cfi_offset 12, -16
 1007 0486 488D0500 		leaq	16+_ZTVN12_GLOBAL__N_124TestCheckArrayCloseFalseE(%rip), %rax
 1007      000000
 1008 048d 55       		pushq	%rbp
 1009              		.cfi_def_cfa_offset 24
 1010              		.cfi_offset 6, -24
 1011 048e 4889FD   		movq	%rdi, %rbp
 1012 0491 4883EC08 		subq	$8, %rsp
 1013              		.cfi_def_cfa_offset 32
 1014 0495 488907   		movq	%rax, (%rdi)
 1015              	.LEHB10:
 1016 0498 E8000000 		call	_ZN8UnitTest4TestD2Ev@PLT
 1016      00
 1017              	.LEHE10:
 1018 049d 4883C408 		addq	$8, %rsp
 1019              		.cfi_remember_state
 1020              		.cfi_def_cfa_offset 24
 1021 04a1 4889EF   		movq	%rbp, %rdi
 1022 04a4 5D       		popq	%rbp
 1023              		.cfi_def_cfa_offset 16
 1024 04a5 415C     		popq	%r12
 1025              		.cfi_def_cfa_offset 8
 1026 04a7 E9000000 		jmp	_ZdlPv@PLT
 1026      00
 1027              	.L57:
 1028              		.cfi_restore_state
 1029 04ac F30F1EFA 		endbr64
 1030 04b0 4989C4   		movq	%rax, %r12
 1031 04b3 E9000000 		jmp	.L56
 1031      00
 1032              		.section	.gcc_except_table
 1033              	.LLSDA1446:
 1034 0050 FF       		.byte	0xff
 1035 0051 FF       		.byte	0xff
 1036 0052 01       		.byte	0x1
 1037 0053 04       		.uleb128 .LLSDACSE1446-.LLSDACSB1446
 1038              	.LLSDACSB1446:
 1039 0054 18       		.uleb128 .LEHB10-.LFB1446
 1040 0055 05       		.uleb128 .LEHE10-.LEHB10
 1041 0056 2C       		.uleb128 .L57-.LFB1446
 1042 0057 00       		.uleb128 0
 1043              	.LLSDACSE1446:
 1044              		.text
 1045              		.cfi_endproc
 1046              		.section	.text.unlikely
 1047              		.cfi_startproc
 1048              		.cfi_personality 0x9b,DW.ref.__gxx_personality_v0
 1049              		.cfi_lsda 0x1b,.LLSDAC1446
 1051              	_ZN12_GLOBAL__N_124TestCheckArrayCloseFalseD0Ev.cold:
 1052              	.LFSB1446:
 1053              	.L56:
 1054              		.cfi_def_cfa_offset 32
 1055              		.cfi_offset 6, -24
 1056              		.cfi_offset 12, -16
 1057 0050 4889EF   		movq	%rbp, %rdi
 1058 0053 E8000000 		call	_ZdlPv@PLT
 1058      00
 1059 0058 4C89E7   		movq	%r12, %rdi
 1060              	.LEHB11:
 1061 005b E8000000 		call	_Unwind_Resume@PLT
 1061      00
 1062              	.LEHE11:
 1063              		.cfi_endproc
 1064              	.LFE1446:
 1065              		.section	.gcc_except_table
 1066              	.LLSDAC1446:
 1067 0058 FF       		.byte	0xff
 1068 0059 FF       		.byte	0xff
 1069 005a 01       		.byte	0x1
 1070 005b 04       		.uleb128 .LLSDACSEC1446-.LLSDACSBC1446
 1071              	.LLSDACSBC1446:
 1072 005c 0B       		.uleb128 .LEHB11-.LCOLDB5
 1073 005d 05       		.uleb128 .LEHE11-.LEHB11
 1074 005e 00       		.uleb128 0
 1075 005f 00       		.uleb128 0
 1076              	.LLSDACSEC1446:
 1077              		.section	.text.unlikely
 1078              		.text
 1080              		.section	.text.unlikely
 1082              	.LCOLDE5:
 1083              		.text
 1084              	.LHOTE5:
 1085              		.section	.text.unlikely
 1086              		.align 2
 1087              	.LCOLDB6:
 1088              		.text
 1089              	.LHOTB6:
 1090              		.align 2
 1091 04b8 0F1F8400 		.p2align 4
 1091      00000000 
 1093              	_ZN12_GLOBAL__N_123TestCheckArrayCloseTrueD0Ev:
 1094              	.LFB1450:
 1095              		.cfi_startproc
 1096              		.cfi_personality 0x9b,DW.ref.__gxx_personality_v0
 1097              		.cfi_lsda 0x1b,.LLSDA1450
 1098 04c0 F30F1EFA 		endbr64
 1099 04c4 4154     		pushq	%r12
 1100              		.cfi_def_cfa_offset 16
 1101              		.cfi_offset 12, -16
 1102 04c6 488D0500 		leaq	16+_ZTVN12_GLOBAL__N_123TestCheckArrayCloseTrueE(%rip), %rax
 1102      000000
 1103 04cd 55       		pushq	%rbp
 1104              		.cfi_def_cfa_offset 24
 1105              		.cfi_offset 6, -24
 1106 04ce 4889FD   		movq	%rdi, %rbp
 1107 04d1 4883EC08 		subq	$8, %rsp
 1108              		.cfi_def_cfa_offset 32
 1109 04d5 488907   		movq	%rax, (%rdi)
 1110              	.LEHB12:
 1111 04d8 E8000000 		call	_ZN8UnitTest4TestD2Ev@PLT
 1111      00
 1112              	.LEHE12:
 1113 04dd 4883C408 		addq	$8, %rsp
 1114              		.cfi_remember_state
 1115              		.cfi_def_cfa_offset 24
 1116 04e1 4889EF   		movq	%rbp, %rdi
 1117 04e4 5D       		popq	%rbp
 1118              		.cfi_def_cfa_offset 16
 1119 04e5 415C     		popq	%r12
 1120              		.cfi_def_cfa_offset 8
 1121 04e7 E9000000 		jmp	_ZdlPv@PLT
 1121      00
 1122              	.L61:
 1123              		.cfi_restore_state
 1124 04ec F30F1EFA 		endbr64
 1125 04f0 4989C4   		movq	%rax, %r12
 1126 04f3 E9000000 		jmp	.L60
 1126      00
 1127              		.section	.gcc_except_table
 1128              	.LLSDA1450:
 1129 0060 FF       		.byte	0xff
 1130 0061 FF       		.byte	0xff
 1131 0062 01       		.byte	0x1
 1132 0063 04       		.uleb128 .LLSDACSE1450-.LLSDACSB1450
 1133              	.LLSDACSB1450:
 1134 0064 18       		.uleb128 .LEHB12-.LFB1450
 1135 0065 05       		.uleb128 .LEHE12-.LEHB12
 1136 0066 2C       		.uleb128 .L61-.LFB1450
 1137 0067 00       		.uleb128 0
 1138              	.LLSDACSE1450:
 1139              		.text
 1140              		.cfi_endproc
 1141              		.section	.text.unlikely
 1142              		.cfi_startproc
 1143              		.cfi_personality 0x9b,DW.ref.__gxx_personality_v0
 1144              		.cfi_lsda 0x1b,.LLSDAC1450
 1146              	_ZN12_GLOBAL__N_123TestCheckArrayCloseTrueD0Ev.cold:
 1147              	.LFSB1450:
 1148              	.L60:
 1149              		.cfi_def_cfa_offset 32
 1150              		.cfi_offset 6, -24
 1151              		.cfi_offset 12, -16
 1152 0060 4889EF   		movq	%rbp, %rdi
 1153 0063 E8000000 		call	_ZdlPv@PLT
 1153      00
 1154 0068 4C89E7   		movq	%r12, %rdi
 1155              	.LEHB13:
 1156 006b E8000000 		call	_Unwind_Resume@PLT
 1156      00
 1157              	.LEHE13:
 1158              		.cfi_endproc
 1159              	.LFE1450:
 1160              		.section	.gcc_except_table
 1161              	.LLSDAC1450:
 1162 0068 FF       		.byte	0xff
 1163 0069 FF       		.byte	0xff
 1164 006a 01       		.byte	0x1
 1165 006b 04       		.uleb128 .LLSDACSEC1450-.LLSDACSBC1450
 1166              	.LLSDACSBC1450:
 1167 006c 0B       		.uleb128 .LEHB13-.LCOLDB6
 1168 006d 05       		.uleb128 .LEHE13-.LEHB13
 1169 006e 00       		.uleb128 0
 1170 006f 00       		.uleb128 0
 1171              	.LLSDACSEC1450:
 1172              		.section	.text.unlikely
 1173              		.text
 1175              		.section	.text.unlikely
 1177              	.LCOLDE6:
 1178              		.text
 1179              	.LHOTE6:
 1180              		.section	.text.unlikely
 1181              		.align 2
 1182              	.LCOLDB7:
 1183              		.text
 1184              	.LHOTB7:
 1185              		.align 2
 1186 04f8 0F1F8400 		.p2align 4
 1186      00000000 
 1188              	_ZN12_GLOBAL__N_124TestCheckArrayEqualFalseD0Ev:
 1189              	.LFB1454:
 1190              		.cfi_startproc
 1191              		.cfi_personality 0x9b,DW.ref.__gxx_personality_v0
 1192              		.cfi_lsda 0x1b,.LLSDA1454
 1193 0500 F30F1EFA 		endbr64
 1194 0504 4154     		pushq	%r12
 1195              		.cfi_def_cfa_offset 16
 1196              		.cfi_offset 12, -16
 1197 0506 488D0500 		leaq	16+_ZTVN12_GLOBAL__N_124TestCheckArrayEqualFalseE(%rip), %rax
 1197      000000
 1198 050d 55       		pushq	%rbp
 1199              		.cfi_def_cfa_offset 24
 1200              		.cfi_offset 6, -24
 1201 050e 4889FD   		movq	%rdi, %rbp
 1202 0511 4883EC08 		subq	$8, %rsp
 1203              		.cfi_def_cfa_offset 32
 1204 0515 488907   		movq	%rax, (%rdi)
 1205              	.LEHB14:
 1206 0518 E8000000 		call	_ZN8UnitTest4TestD2Ev@PLT
 1206      00
 1207              	.LEHE14:
 1208 051d 4883C408 		addq	$8, %rsp
 1209              		.cfi_remember_state
 1210              		.cfi_def_cfa_offset 24
 1211 0521 4889EF   		movq	%rbp, %rdi
 1212 0524 5D       		popq	%rbp
 1213              		.cfi_def_cfa_offset 16
 1214 0525 415C     		popq	%r12
 1215              		.cfi_def_cfa_offset 8
 1216 0527 E9000000 		jmp	_ZdlPv@PLT
 1216      00
 1217              	.L65:
 1218              		.cfi_restore_state
 1219 052c F30F1EFA 		endbr64
 1220 0530 4989C4   		movq	%rax, %r12
 1221 0533 E9000000 		jmp	.L64
 1221      00
 1222              		.section	.gcc_except_table
 1223              	.LLSDA1454:
 1224 0070 FF       		.byte	0xff
 1225 0071 FF       		.byte	0xff
 1226 0072 01       		.byte	0x1
 1227 0073 04       		.uleb128 .LLSDACSE1454-.LLSDACSB1454
 1228              	.LLSDACSB1454:
 1229 0074 18       		.uleb128 .LEHB14-.LFB1454
 1230 0075 05       		.uleb128 .LEHE14-.LEHB14
 1231 0076 2C       		.uleb128 .L65-.LFB1454
 1232 0077 00       		.uleb128 0
 1233              	.LLSDACSE1454:
 1234              		.text
 1235              		.cfi_endproc
 1236              		.section	.text.unlikely
 1237              		.cfi_startproc
 1238              		.cfi_personality 0x9b,DW.ref.__gxx_personality_v0
 1239              		.cfi_lsda 0x1b,.LLSDAC1454
 1241              	_ZN12_GLOBAL__N_124TestCheckArrayEqualFalseD0Ev.cold:
 1242              	.LFSB1454:
 1243              	.L64:
 1244              		.cfi_def_cfa_offset 32
 1245              		.cfi_offset 6, -24
 1246              		.cfi_offset 12, -16
 1247 0070 4889EF   		movq	%rbp, %rdi
 1248 0073 E8000000 		call	_ZdlPv@PLT
 1248      00
 1249 0078 4C89E7   		movq	%r12, %rdi
 1250              	.LEHB15:
 1251 007b E8000000 		call	_Unwind_Resume@PLT
 1251      00
 1252              	.LEHE15:
 1253              		.cfi_endproc
 1254              	.LFE1454:
 1255              		.section	.gcc_except_table
 1256              	.LLSDAC1454:
 1257 0078 FF       		.byte	0xff
 1258 0079 FF       		.byte	0xff
 1259 007a 01       		.byte	0x1
 1260 007b 04       		.uleb128 .LLSDACSEC1454-.LLSDACSBC1454
 1261              	.LLSDACSBC1454:
 1262 007c 0B       		.uleb128 .LEHB15-.LCOLDB7
 1263 007d 05       		.uleb128 .LEHE15-.LEHB15
 1264 007e 00       		.uleb128 0
 1265 007f 00       		.uleb128 0
 1266              	.LLSDACSEC1454:
 1267              		.section	.text.unlikely
 1268              		.text
 1270              		.section	.text.unlikely
 1272              	.LCOLDE7:
 1273              		.text
 1274              	.LHOTE7:
 1275              		.section	.text.unlikely
 1276              		.align 2
 1277              	.LCOLDB8:
 1278              		.text
 1279              	.LHOTB8:
 1280              		.align 2
 1281 0538 0F1F8400 		.p2align 4
 1281      00000000 
 1283              	_ZN12_GLOBAL__N_123TestCheckArrayEqualTrueD0Ev:
 1284              	.LFB1458:
 1285              		.cfi_startproc
 1286              		.cfi_personality 0x9b,DW.ref.__gxx_personality_v0
 1287              		.cfi_lsda 0x1b,.LLSDA1458
 1288 0540 F30F1EFA 		endbr64
 1289 0544 4154     		pushq	%r12
 1290              		.cfi_def_cfa_offset 16
 1291              		.cfi_offset 12, -16
 1292 0546 488D0500 		leaq	16+_ZTVN12_GLOBAL__N_123TestCheckArrayEqualTrueE(%rip), %rax
 1292      000000
 1293 054d 55       		pushq	%rbp
 1294              		.cfi_def_cfa_offset 24
 1295              		.cfi_offset 6, -24
 1296 054e 4889FD   		movq	%rdi, %rbp
 1297 0551 4883EC08 		subq	$8, %rsp
 1298              		.cfi_def_cfa_offset 32
 1299 0555 488907   		movq	%rax, (%rdi)
 1300              	.LEHB16:
 1301 0558 E8000000 		call	_ZN8UnitTest4TestD2Ev@PLT
 1301      00
 1302              	.LEHE16:
 1303 055d 4883C408 		addq	$8, %rsp
 1304              		.cfi_remember_state
 1305              		.cfi_def_cfa_offset 24
 1306 0561 4889EF   		movq	%rbp, %rdi
 1307 0564 5D       		popq	%rbp
 1308              		.cfi_def_cfa_offset 16
 1309 0565 415C     		popq	%r12
 1310              		.cfi_def_cfa_offset 8
 1311 0567 E9000000 		jmp	_ZdlPv@PLT
 1311      00
 1312              	.L69:
 1313              		.cfi_restore_state
 1314 056c F30F1EFA 		endbr64
 1315 0570 4989C4   		movq	%rax, %r12
 1316 0573 E9000000 		jmp	.L68
 1316      00
 1317              		.section	.gcc_except_table
 1318              	.LLSDA1458:
 1319 0080 FF       		.byte	0xff
 1320 0081 FF       		.byte	0xff
 1321 0082 01       		.byte	0x1
 1322 0083 04       		.uleb128 .LLSDACSE1458-.LLSDACSB1458
 1323              	.LLSDACSB1458:
 1324 0084 18       		.uleb128 .LEHB16-.LFB1458
 1325 0085 05       		.uleb128 .LEHE16-.LEHB16
 1326 0086 2C       		.uleb128 .L69-.LFB1458
 1327 0087 00       		.uleb128 0
 1328              	.LLSDACSE1458:
 1329              		.text
 1330              		.cfi_endproc
 1331              		.section	.text.unlikely
 1332              		.cfi_startproc
 1333              		.cfi_personality 0x9b,DW.ref.__gxx_personality_v0
 1334              		.cfi_lsda 0x1b,.LLSDAC1458
 1336              	_ZN12_GLOBAL__N_123TestCheckArrayEqualTrueD0Ev.cold:
 1337              	.LFSB1458:
 1338              	.L68:
 1339              		.cfi_def_cfa_offset 32
 1340              		.cfi_offset 6, -24
 1341              		.cfi_offset 12, -16
 1342 0080 4889EF   		movq	%rbp, %rdi
 1343 0083 E8000000 		call	_ZdlPv@PLT
 1343      00
 1344 0088 4C89E7   		movq	%r12, %rdi
 1345              	.LEHB17:
 1346 008b E8000000 		call	_Unwind_Resume@PLT
 1346      00
 1347              	.LEHE17:
 1348              		.cfi_endproc
 1349              	.LFE1458:
 1350              		.section	.gcc_except_table
 1351              	.LLSDAC1458:
 1352 0088 FF       		.byte	0xff
 1353 0089 FF       		.byte	0xff
 1354 008a 01       		.byte	0x1
 1355 008b 04       		.uleb128 .LLSDACSEC1458-.LLSDACSBC1458
 1356              	.LLSDACSBC1458:
 1357 008c 0B       		.uleb128 .LEHB17-.LCOLDB8
 1358 008d 05       		.uleb128 .LEHE17-.LEHB17
 1359 008e 00       		.uleb128 0
 1360 008f 00       		.uleb128 0
 1361              	.LLSDACSEC1458:
 1362              		.section	.text.unlikely
 1363              		.text
 1365              		.section	.text.unlikely
 1367              	.LCOLDE8:
 1368              		.text
 1369              	.LHOTE8:
 1370              		.section	.text.unlikely
 1371              		.align 2
 1372              	.LCOLDB9:
 1373              		.text
 1374              	.LHOTB9:
 1375              		.align 2
 1376 0578 0F1F8400 		.p2align 4
 1376      00000000 
 1378              	_ZN12_GLOBAL__N_136TestCheckCloseFailureIncludesDetailsD0Ev:
 1379              	.LFB1462:
 1380              		.cfi_startproc
 1381              		.cfi_personality 0x9b,DW.ref.__gxx_personality_v0
 1382              		.cfi_lsda 0x1b,.LLSDA1462
 1383 0580 F30F1EFA 		endbr64
 1384 0584 4154     		pushq	%r12
 1385              		.cfi_def_cfa_offset 16
 1386              		.cfi_offset 12, -16
 1387 0586 488D0500 		leaq	16+_ZTVN12_GLOBAL__N_136TestCheckCloseFailureIncludesDetailsE(%rip), %rax
 1387      000000
 1388 058d 55       		pushq	%rbp
 1389              		.cfi_def_cfa_offset 24
 1390              		.cfi_offset 6, -24
 1391 058e 4889FD   		movq	%rdi, %rbp
 1392 0591 4883EC08 		subq	$8, %rsp
 1393              		.cfi_def_cfa_offset 32
 1394 0595 488907   		movq	%rax, (%rdi)
 1395              	.LEHB18:
 1396 0598 E8000000 		call	_ZN8UnitTest4TestD2Ev@PLT
 1396      00
 1397              	.LEHE18:
 1398 059d 4883C408 		addq	$8, %rsp
 1399              		.cfi_remember_state
 1400              		.cfi_def_cfa_offset 24
 1401 05a1 4889EF   		movq	%rbp, %rdi
 1402 05a4 5D       		popq	%rbp
 1403              		.cfi_def_cfa_offset 16
 1404 05a5 415C     		popq	%r12
 1405              		.cfi_def_cfa_offset 8
 1406 05a7 E9000000 		jmp	_ZdlPv@PLT
 1406      00
 1407              	.L73:
 1408              		.cfi_restore_state
 1409 05ac F30F1EFA 		endbr64
 1410 05b0 4989C4   		movq	%rax, %r12
 1411 05b3 E9000000 		jmp	.L72
 1411      00
 1412              		.section	.gcc_except_table
 1413              	.LLSDA1462:
 1414 0090 FF       		.byte	0xff
 1415 0091 FF       		.byte	0xff
 1416 0092 01       		.byte	0x1
 1417 0093 04       		.uleb128 .LLSDACSE1462-.LLSDACSB1462
 1418              	.LLSDACSB1462:
 1419 0094 18       		.uleb128 .LEHB18-.LFB1462
 1420 0095 05       		.uleb128 .LEHE18-.LEHB18
 1421 0096 2C       		.uleb128 .L73-.LFB1462
 1422 0097 00       		.uleb128 0
 1423              	.LLSDACSE1462:
 1424              		.text
 1425              		.cfi_endproc
 1426              		.section	.text.unlikely
 1427              		.cfi_startproc
 1428              		.cfi_personality 0x9b,DW.ref.__gxx_personality_v0
 1429              		.cfi_lsda 0x1b,.LLSDAC1462
 1431              	_ZN12_GLOBAL__N_136TestCheckCloseFailureIncludesDetailsD0Ev.cold:
 1432              	.LFSB1462:
 1433              	.L72:
 1434              		.cfi_def_cfa_offset 32
 1435              		.cfi_offset 6, -24
 1436              		.cfi_offset 12, -16
 1437 0090 4889EF   		movq	%rbp, %rdi
 1438 0093 E8000000 		call	_ZdlPv@PLT
 1438      00
 1439 0098 4C89E7   		movq	%r12, %rdi
 1440              	.LEHB19:
 1441 009b E8000000 		call	_Unwind_Resume@PLT
 1441      00
 1442              	.LEHE19:
 1443              		.cfi_endproc
 1444              	.LFE1462:
 1445              		.section	.gcc_except_table
 1446              	.LLSDAC1462:
 1447 0098 FF       		.byte	0xff
 1448 0099 FF       		.byte	0xff
 1449 009a 01       		.byte	0x1
 1450 009b 04       		.uleb128 .LLSDACSEC1462-.LLSDACSBC1462
 1451              	.LLSDACSBC1462:
 1452 009c 0B       		.uleb128 .LEHB19-.LCOLDB9
 1453 009d 05       		.uleb128 .LEHE19-.LEHB19
 1454 009e 00       		.uleb128 0
 1455 009f 00       		.uleb128 0
 1456              	.LLSDACSEC1462:
 1457              		.section	.text.unlikely
 1458              		.text
 1460              		.section	.text.unlikely
 1462              	.LCOLDE9:
 1463              		.text
 1464              	.LHOTE9:
 1465              		.section	.text.unlikely
 1466              		.align 2
 1467              	.LCOLDB10:
 1468              		.text
 1469              	.LHOTB10:
 1470              		.align 2
 1471 05b8 0F1F8400 		.p2align 4
 1471      00000000 
 1473              	_ZN12_GLOBAL__N_138TestCheckCloseFailureIncludesToleranceD0Ev:
 1474              	.LFB1466:
 1475              		.cfi_startproc
 1476              		.cfi_personality 0x9b,DW.ref.__gxx_personality_v0
 1477              		.cfi_lsda 0x1b,.LLSDA1466
 1478 05c0 F30F1EFA 		endbr64
 1479 05c4 4154     		pushq	%r12
 1480              		.cfi_def_cfa_offset 16
 1481              		.cfi_offset 12, -16
 1482 05c6 488D0500 		leaq	16+_ZTVN12_GLOBAL__N_138TestCheckCloseFailureIncludesToleranceE(%rip), %rax
 1482      000000
 1483 05cd 55       		pushq	%rbp
 1484              		.cfi_def_cfa_offset 24
 1485              		.cfi_offset 6, -24
 1486 05ce 4889FD   		movq	%rdi, %rbp
 1487 05d1 4883EC08 		subq	$8, %rsp
 1488              		.cfi_def_cfa_offset 32
 1489 05d5 488907   		movq	%rax, (%rdi)
 1490              	.LEHB20:
 1491 05d8 E8000000 		call	_ZN8UnitTest4TestD2Ev@PLT
 1491      00
 1492              	.LEHE20:
 1493 05dd 4883C408 		addq	$8, %rsp
 1494              		.cfi_remember_state
 1495              		.cfi_def_cfa_offset 24
 1496 05e1 4889EF   		movq	%rbp, %rdi
 1497 05e4 5D       		popq	%rbp
 1498              		.cfi_def_cfa_offset 16
 1499 05e5 415C     		popq	%r12
 1500              		.cfi_def_cfa_offset 8
 1501 05e7 E9000000 		jmp	_ZdlPv@PLT
 1501      00
 1502              	.L77:
 1503              		.cfi_restore_state
 1504 05ec F30F1EFA 		endbr64
 1505 05f0 4989C4   		movq	%rax, %r12
 1506 05f3 E9000000 		jmp	.L76
 1506      00
 1507              		.section	.gcc_except_table
 1508              	.LLSDA1466:
 1509 00a0 FF       		.byte	0xff
 1510 00a1 FF       		.byte	0xff
 1511 00a2 01       		.byte	0x1
 1512 00a3 04       		.uleb128 .LLSDACSE1466-.LLSDACSB1466
 1513              	.LLSDACSB1466:
 1514 00a4 18       		.uleb128 .LEHB20-.LFB1466
 1515 00a5 05       		.uleb128 .LEHE20-.LEHB20
 1516 00a6 2C       		.uleb128 .L77-.LFB1466
 1517 00a7 00       		.uleb128 0
 1518              	.LLSDACSE1466:
 1519              		.text
 1520              		.cfi_endproc
 1521              		.section	.text.unlikely
 1522              		.cfi_startproc
 1523              		.cfi_personality 0x9b,DW.ref.__gxx_personality_v0
 1524              		.cfi_lsda 0x1b,.LLSDAC1466
 1526              	_ZN12_GLOBAL__N_138TestCheckCloseFailureIncludesToleranceD0Ev.cold:
 1527              	.LFSB1466:
 1528              	.L76:
 1529              		.cfi_def_cfa_offset 32
 1530              		.cfi_offset 6, -24
 1531              		.cfi_offset 12, -16
 1532 00a0 4889EF   		movq	%rbp, %rdi
 1533 00a3 E8000000 		call	_ZdlPv@PLT
 1533      00
 1534 00a8 4C89E7   		movq	%r12, %rdi
 1535              	.LEHB21:
 1536 00ab E8000000 		call	_Unwind_Resume@PLT
 1536      00
 1537              	.LEHE21:
 1538              		.cfi_endproc
 1539              	.LFE1466:
 1540              		.section	.gcc_except_table
 1541              	.LLSDAC1466:
 1542 00a8 FF       		.byte	0xff
 1543 00a9 FF       		.byte	0xff
 1544 00aa 01       		.byte	0x1
 1545 00ab 04       		.uleb128 .LLSDACSEC1466-.LLSDACSBC1466
 1546              	.LLSDACSBC1466:
 1547 00ac 0B       		.uleb128 .LEHB21-.LCOLDB10
 1548 00ad 05       		.uleb128 .LEHE21-.LEHB21
 1549 00ae 00       		.uleb128 0
 1550 00af 00       		.uleb128 0
 1551              	.LLSDACSEC1466:
 1552              		.section	.text.unlikely
 1553              		.text
 1555              		.section	.text.unlikely
 1557              	.LCOLDE10:
 1558              		.text
 1559              	.LHOTE10:
 1560              		.section	.text.unlikely
 1561              		.align 2
 1562              	.LCOLDB11:
 1563              		.text
 1564              	.LHOTB11:
 1565              		.align 2
 1566 05f8 0F1F8400 		.p2align 4
 1566      00000000 
 1568              	_ZN12_GLOBAL__N_151TestCheckCloseFailureIncludesCheckExpectedAndActualD0Ev:
 1569              	.LFB1470:
 1570              		.cfi_startproc
 1571              		.cfi_personality 0x9b,DW.ref.__gxx_personality_v0
 1572              		.cfi_lsda 0x1b,.LLSDA1470
 1573 0600 F30F1EFA 		endbr64
 1574 0604 4154     		pushq	%r12
 1575              		.cfi_def_cfa_offset 16
 1576              		.cfi_offset 12, -16
 1577 0606 488D0500 		leaq	16+_ZTVN12_GLOBAL__N_151TestCheckCloseFailureIncludesCheckExpectedAndActualE(%rip), %rax
 1577      000000
 1578 060d 55       		pushq	%rbp
 1579              		.cfi_def_cfa_offset 24
 1580              		.cfi_offset 6, -24
 1581 060e 4889FD   		movq	%rdi, %rbp
 1582 0611 4883EC08 		subq	$8, %rsp
 1583              		.cfi_def_cfa_offset 32
 1584 0615 488907   		movq	%rax, (%rdi)
 1585              	.LEHB22:
 1586 0618 E8000000 		call	_ZN8UnitTest4TestD2Ev@PLT
 1586      00
 1587              	.LEHE22:
 1588 061d 4883C408 		addq	$8, %rsp
 1589              		.cfi_remember_state
 1590              		.cfi_def_cfa_offset 24
 1591 0621 4889EF   		movq	%rbp, %rdi
 1592 0624 5D       		popq	%rbp
 1593              		.cfi_def_cfa_offset 16
 1594 0625 415C     		popq	%r12
 1595              		.cfi_def_cfa_offset 8
 1596 0627 E9000000 		jmp	_ZdlPv@PLT
 1596      00
 1597              	.L81:
 1598              		.cfi_restore_state
 1599 062c F30F1EFA 		endbr64
 1600 0630 4989C4   		movq	%rax, %r12
 1601 0633 E9000000 		jmp	.L80
 1601      00
 1602              		.section	.gcc_except_table
 1603              	.LLSDA1470:
 1604 00b0 FF       		.byte	0xff
 1605 00b1 FF       		.byte	0xff
 1606 00b2 01       		.byte	0x1
 1607 00b3 04       		.uleb128 .LLSDACSE1470-.LLSDACSB1470
 1608              	.LLSDACSB1470:
 1609 00b4 18       		.uleb128 .LEHB22-.LFB1470
 1610 00b5 05       		.uleb128 .LEHE22-.LEHB22
 1611 00b6 2C       		.uleb128 .L81-.LFB1470
 1612 00b7 00       		.uleb128 0
 1613              	.LLSDACSE1470:
 1614              		.text
 1615              		.cfi_endproc
 1616              		.section	.text.unlikely
 1617              		.cfi_startproc
 1618              		.cfi_personality 0x9b,DW.ref.__gxx_personality_v0
 1619              		.cfi_lsda 0x1b,.LLSDAC1470
 1621              	_ZN12_GLOBAL__N_151TestCheckCloseFailureIncludesCheckExpectedAndActualD0Ev.cold:
 1622              	.LFSB1470:
 1623              	.L80:
 1624              		.cfi_def_cfa_offset 32
 1625              		.cfi_offset 6, -24
 1626              		.cfi_offset 12, -16
 1627 00b0 4889EF   		movq	%rbp, %rdi
 1628 00b3 E8000000 		call	_ZdlPv@PLT
 1628      00
 1629 00b8 4C89E7   		movq	%r12, %rdi
 1630              	.LEHB23:
 1631 00bb E8000000 		call	_Unwind_Resume@PLT
 1631      00
 1632              	.LEHE23:
 1633              		.cfi_endproc
 1634              	.LFE1470:
 1635              		.section	.gcc_except_table
 1636              	.LLSDAC1470:
 1637 00b8 FF       		.byte	0xff
 1638 00b9 FF       		.byte	0xff
 1639 00ba 01       		.byte	0x1
 1640 00bb 04       		.uleb128 .LLSDACSEC1470-.LLSDACSBC1470
 1641              	.LLSDACSBC1470:
 1642 00bc 0B       		.uleb128 .LEHB23-.LCOLDB11
 1643 00bd 05       		.uleb128 .LEHE23-.LEHB23
 1644 00be 00       		.uleb128 0
 1645 00bf 00       		.uleb128 0
 1646              	.LLSDACSEC1470:
 1647              		.section	.text.unlikely
 1648              		.text
 1650              		.section	.text.unlikely
 1652              	.LCOLDE11:
 1653              		.text
 1654              	.LHOTE11:
 1655              		.section	.text.unlikely
 1656              		.align 2
 1657              	.LCOLDB12:
 1658              		.text
 1659              	.LHOTB12:
 1660              		.align 2
 1661 0638 0F1F8400 		.p2align 4
 1661      00000000 
 1663              	_ZN12_GLOBAL__N_139TestCheckCloseWithNaNAgainstItselfFailsD0Ev:
 1664              	.LFB1474:
 1665              		.cfi_startproc
 1666              		.cfi_personality 0x9b,DW.ref.__gxx_personality_v0
 1667              		.cfi_lsda 0x1b,.LLSDA1474
 1668 0640 F30F1EFA 		endbr64
 1669 0644 4154     		pushq	%r12
 1670              		.cfi_def_cfa_offset 16
 1671              		.cfi_offset 12, -16
 1672 0646 488D0500 		leaq	16+_ZTVN12_GLOBAL__N_139TestCheckCloseWithNaNAgainstItselfFailsE(%rip), %rax
 1672      000000
 1673 064d 55       		pushq	%rbp
 1674              		.cfi_def_cfa_offset 24
 1675              		.cfi_offset 6, -24
 1676 064e 4889FD   		movq	%rdi, %rbp
 1677 0651 4883EC08 		subq	$8, %rsp
 1678              		.cfi_def_cfa_offset 32
 1679 0655 488907   		movq	%rax, (%rdi)
 1680              	.LEHB24:
 1681 0658 E8000000 		call	_ZN8UnitTest4TestD2Ev@PLT
 1681      00
 1682              	.LEHE24:
 1683 065d 4883C408 		addq	$8, %rsp
 1684              		.cfi_remember_state
 1685              		.cfi_def_cfa_offset 24
 1686 0661 4889EF   		movq	%rbp, %rdi
 1687 0664 5D       		popq	%rbp
 1688              		.cfi_def_cfa_offset 16
 1689 0665 415C     		popq	%r12
 1690              		.cfi_def_cfa_offset 8
 1691 0667 E9000000 		jmp	_ZdlPv@PLT
 1691      00
 1692              	.L85:
 1693              		.cfi_restore_state
 1694 066c F30F1EFA 		endbr64
 1695 0670 4989C4   		movq	%rax, %r12
 1696 0673 E9000000 		jmp	.L84
 1696      00
 1697              		.section	.gcc_except_table
 1698              	.LLSDA1474:
 1699 00c0 FF       		.byte	0xff
 1700 00c1 FF       		.byte	0xff
 1701 00c2 01       		.byte	0x1
 1702 00c3 04       		.uleb128 .LLSDACSE1474-.LLSDACSB1474
 1703              	.LLSDACSB1474:
 1704 00c4 18       		.uleb128 .LEHB24-.LFB1474
 1705 00c5 05       		.uleb128 .LEHE24-.LEHB24
 1706 00c6 2C       		.uleb128 .L85-.LFB1474
 1707 00c7 00       		.uleb128 0
 1708              	.LLSDACSE1474:
 1709              		.text
 1710              		.cfi_endproc
 1711              		.section	.text.unlikely
 1712              		.cfi_startproc
 1713              		.cfi_personality 0x9b,DW.ref.__gxx_personality_v0
 1714              		.cfi_lsda 0x1b,.LLSDAC1474
 1716              	_ZN12_GLOBAL__N_139TestCheckCloseWithNaNAgainstItselfFailsD0Ev.cold:
 1717              	.LFSB1474:
 1718              	.L84:
 1719              		.cfi_def_cfa_offset 32
 1720              		.cfi_offset 6, -24
 1721              		.cfi_offset 12, -16
 1722 00c0 4889EF   		movq	%rbp, %rdi
 1723 00c3 E8000000 		call	_ZdlPv@PLT
 1723      00
 1724 00c8 4C89E7   		movq	%r12, %rdi
 1725              	.LEHB25:
 1726 00cb E8000000 		call	_Unwind_Resume@PLT
 1726      00
 1727              	.LEHE25:
 1728              		.cfi_endproc
 1729              	.LFE1474:
 1730              		.section	.gcc_except_table
 1731              	.LLSDAC1474:
 1732 00c8 FF       		.byte	0xff
 1733 00c9 FF       		.byte	0xff
 1734 00ca 01       		.byte	0x1
 1735 00cb 04       		.uleb128 .LLSDACSEC1474-.LLSDACSBC1474
 1736              	.LLSDACSBC1474:
 1737 00cc 0B       		.uleb128 .LEHB25-.LCOLDB12
 1738 00cd 05       		.uleb128 .LEHE25-.LEHB25
 1739 00ce 00       		.uleb128 0
 1740 00cf 00       		.uleb128 0
 1741              	.LLSDACSEC1474:
 1742              		.section	.text.unlikely
 1743              		.text
 1745              		.section	.text.unlikely
 1747              	.LCOLDE12:
 1748              		.text
 1749              	.LHOTE12:
 1750              		.section	.text.unlikely
 1751              		.align 2
 1752              	.LCOLDB13:
 1753              		.text
 1754              	.LHOTB13:
 1755              		.align 2
 1756 0678 0F1F8400 		.p2align 4
 1756      00000000 
 1758              	_ZN12_GLOBAL__N_126TestCheckCloseWithNaNFailsD0Ev:
 1759              	.LFB1478:
 1760              		.cfi_startproc
 1761              		.cfi_personality 0x9b,DW.ref.__gxx_personality_v0
 1762              		.cfi_lsda 0x1b,.LLSDA1478
 1763 0680 F30F1EFA 		endbr64
 1764 0684 4154     		pushq	%r12
 1765              		.cfi_def_cfa_offset 16
 1766              		.cfi_offset 12, -16
 1767 0686 488D0500 		leaq	16+_ZTVN12_GLOBAL__N_126TestCheckCloseWithNaNFailsE(%rip), %rax
 1767      000000
 1768 068d 55       		pushq	%rbp
 1769              		.cfi_def_cfa_offset 24
 1770              		.cfi_offset 6, -24
 1771 068e 4889FD   		movq	%rdi, %rbp
 1772 0691 4883EC08 		subq	$8, %rsp
 1773              		.cfi_def_cfa_offset 32
 1774 0695 488907   		movq	%rax, (%rdi)
 1775              	.LEHB26:
 1776 0698 E8000000 		call	_ZN8UnitTest4TestD2Ev@PLT
 1776      00
 1777              	.LEHE26:
 1778 069d 4883C408 		addq	$8, %rsp
 1779              		.cfi_remember_state
 1780              		.cfi_def_cfa_offset 24
 1781 06a1 4889EF   		movq	%rbp, %rdi
 1782 06a4 5D       		popq	%rbp
 1783              		.cfi_def_cfa_offset 16
 1784 06a5 415C     		popq	%r12
 1785              		.cfi_def_cfa_offset 8
 1786 06a7 E9000000 		jmp	_ZdlPv@PLT
 1786      00
 1787              	.L89:
 1788              		.cfi_restore_state
 1789 06ac F30F1EFA 		endbr64
 1790 06b0 4989C4   		movq	%rax, %r12
 1791 06b3 E9000000 		jmp	.L88
 1791      00
 1792              		.section	.gcc_except_table
 1793              	.LLSDA1478:
 1794 00d0 FF       		.byte	0xff
 1795 00d1 FF       		.byte	0xff
 1796 00d2 01       		.byte	0x1
 1797 00d3 04       		.uleb128 .LLSDACSE1478-.LLSDACSB1478
 1798              	.LLSDACSB1478:
 1799 00d4 18       		.uleb128 .LEHB26-.LFB1478
 1800 00d5 05       		.uleb128 .LEHE26-.LEHB26
 1801 00d6 2C       		.uleb128 .L89-.LFB1478
 1802 00d7 00       		.uleb128 0
 1803              	.LLSDACSE1478:
 1804              		.text
 1805              		.cfi_endproc
 1806              		.section	.text.unlikely
 1807              		.cfi_startproc
 1808              		.cfi_personality 0x9b,DW.ref.__gxx_personality_v0
 1809              		.cfi_lsda 0x1b,.LLSDAC1478
 1811              	_ZN12_GLOBAL__N_126TestCheckCloseWithNaNFailsD0Ev.cold:
 1812              	.LFSB1478:
 1813              	.L88:
 1814              		.cfi_def_cfa_offset 32
 1815              		.cfi_offset 6, -24
 1816              		.cfi_offset 12, -16
 1817 00d0 4889EF   		movq	%rbp, %rdi
 1818 00d3 E8000000 		call	_ZdlPv@PLT
 1818      00
 1819 00d8 4C89E7   		movq	%r12, %rdi
 1820              	.LEHB27:
 1821 00db E8000000 		call	_Unwind_Resume@PLT
 1821      00
 1822              	.LEHE27:
 1823              		.cfi_endproc
 1824              	.LFE1478:
 1825              		.section	.gcc_except_table
 1826              	.LLSDAC1478:
 1827 00d8 FF       		.byte	0xff
 1828 00d9 FF       		.byte	0xff
 1829 00da 01       		.byte	0x1
 1830 00db 04       		.uleb128 .LLSDACSEC1478-.LLSDACSBC1478
 1831              	.LLSDACSBC1478:
 1832 00dc 0B       		.uleb128 .LEHB27-.LCOLDB13
 1833 00dd 05       		.uleb128 .LEHE27-.LEHB27
 1834 00de 00       		.uleb128 0
 1835 00df 00       		.uleb128 0
 1836              	.LLSDACSEC1478:
 1837              		.section	.text.unlikely
 1838              		.text
 1840              		.section	.text.unlikely
 1842              	.LCOLDE13:
 1843              		.text
 1844              	.LHOTE13:
 1845              		.section	.text.unlikely
 1846              		.align 2
 1847              	.LCOLDB14:
 1848              		.text
 1849              	.LHOTB14:
 1850              		.align 2
 1851 06b8 0F1F8400 		.p2align 4
 1851      00000000 
 1853              	_ZN12_GLOBAL__N_147TestCheckCloseWithZeroEpsilonWorksForSameNumberD0Ev:
 1854              	.LFB1482:
 1855              		.cfi_startproc
 1856              		.cfi_personality 0x9b,DW.ref.__gxx_personality_v0
 1857              		.cfi_lsda 0x1b,.LLSDA1482
 1858 06c0 F30F1EFA 		endbr64
 1859 06c4 4154     		pushq	%r12
 1860              		.cfi_def_cfa_offset 16
 1861              		.cfi_offset 12, -16
 1862 06c6 488D0500 		leaq	16+_ZTVN12_GLOBAL__N_147TestCheckCloseWithZeroEpsilonWorksForSameNumberE(%rip), %rax
 1862      000000
 1863 06cd 55       		pushq	%rbp
 1864              		.cfi_def_cfa_offset 24
 1865              		.cfi_offset 6, -24
 1866 06ce 4889FD   		movq	%rdi, %rbp
 1867 06d1 4883EC08 		subq	$8, %rsp
 1868              		.cfi_def_cfa_offset 32
 1869 06d5 488907   		movq	%rax, (%rdi)
 1870              	.LEHB28:
 1871 06d8 E8000000 		call	_ZN8UnitTest4TestD2Ev@PLT
 1871      00
 1872              	.LEHE28:
 1873 06dd 4883C408 		addq	$8, %rsp
 1874              		.cfi_remember_state
 1875              		.cfi_def_cfa_offset 24
 1876 06e1 4889EF   		movq	%rbp, %rdi
 1877 06e4 5D       		popq	%rbp
 1878              		.cfi_def_cfa_offset 16
 1879 06e5 415C     		popq	%r12
 1880              		.cfi_def_cfa_offset 8
 1881 06e7 E9000000 		jmp	_ZdlPv@PLT
 1881      00
 1882              	.L93:
 1883              		.cfi_restore_state
 1884 06ec F30F1EFA 		endbr64
 1885 06f0 4989C4   		movq	%rax, %r12
 1886 06f3 E9000000 		jmp	.L92
 1886      00
 1887              		.section	.gcc_except_table
 1888              	.LLSDA1482:
 1889 00e0 FF       		.byte	0xff
 1890 00e1 FF       		.byte	0xff
 1891 00e2 01       		.byte	0x1
 1892 00e3 04       		.uleb128 .LLSDACSE1482-.LLSDACSB1482
 1893              	.LLSDACSB1482:
 1894 00e4 18       		.uleb128 .LEHB28-.LFB1482
 1895 00e5 05       		.uleb128 .LEHE28-.LEHB28
 1896 00e6 2C       		.uleb128 .L93-.LFB1482
 1897 00e7 00       		.uleb128 0
 1898              	.LLSDACSE1482:
 1899              		.text
 1900              		.cfi_endproc
 1901              		.section	.text.unlikely
 1902              		.cfi_startproc
 1903              		.cfi_personality 0x9b,DW.ref.__gxx_personality_v0
 1904              		.cfi_lsda 0x1b,.LLSDAC1482
 1906              	_ZN12_GLOBAL__N_147TestCheckCloseWithZeroEpsilonWorksForSameNumberD0Ev.cold:
 1907              	.LFSB1482:
 1908              	.L92:
 1909              		.cfi_def_cfa_offset 32
 1910              		.cfi_offset 6, -24
 1911              		.cfi_offset 12, -16
 1912 00e0 4889EF   		movq	%rbp, %rdi
 1913 00e3 E8000000 		call	_ZdlPv@PLT
 1913      00
 1914 00e8 4C89E7   		movq	%r12, %rdi
 1915              	.LEHB29:
 1916 00eb E8000000 		call	_Unwind_Resume@PLT
 1916      00
 1917              	.LEHE29:
 1918              		.cfi_endproc
 1919              	.LFE1482:
 1920              		.section	.gcc_except_table
 1921              	.LLSDAC1482:
 1922 00e8 FF       		.byte	0xff
 1923 00e9 FF       		.byte	0xff
 1924 00ea 01       		.byte	0x1
 1925 00eb 04       		.uleb128 .LLSDACSEC1482-.LLSDACSBC1482
 1926              	.LLSDACSBC1482:
 1927 00ec 0B       		.uleb128 .LEHB29-.LCOLDB14
 1928 00ed 05       		.uleb128 .LEHE29-.LEHB29
 1929 00ee 00       		.uleb128 0
 1930 00ef 00       		.uleb128 0
 1931              	.LLSDACSEC1482:
 1932              		.section	.text.unlikely
 1933              		.text
 1935              		.section	.text.unlikely
 1937              	.LCOLDE14:
 1938              		.text
 1939              	.LHOTE14:
 1940              		.section	.text.unlikely
 1941              		.align 2
 1942              	.LCOLDB15:
 1943              		.text
 1944              	.LHOTB15:
 1945              		.align 2
 1946 06f8 0F1F8400 		.p2align 4
 1946      00000000 
 1948              	_ZN12_GLOBAL__N_119TestCheckCloseFalseD0Ev:
 1949              	.LFB1486:
 1950              		.cfi_startproc
 1951              		.cfi_personality 0x9b,DW.ref.__gxx_personality_v0
 1952              		.cfi_lsda 0x1b,.LLSDA1486
 1953 0700 F30F1EFA 		endbr64
 1954 0704 4154     		pushq	%r12
 1955              		.cfi_def_cfa_offset 16
 1956              		.cfi_offset 12, -16
 1957 0706 488D0500 		leaq	16+_ZTVN12_GLOBAL__N_119TestCheckCloseFalseE(%rip), %rax
 1957      000000
 1958 070d 55       		pushq	%rbp
 1959              		.cfi_def_cfa_offset 24
 1960              		.cfi_offset 6, -24
 1961 070e 4889FD   		movq	%rdi, %rbp
 1962 0711 4883EC08 		subq	$8, %rsp
 1963              		.cfi_def_cfa_offset 32
 1964 0715 488907   		movq	%rax, (%rdi)
 1965              	.LEHB30:
 1966 0718 E8000000 		call	_ZN8UnitTest4TestD2Ev@PLT
 1966      00
 1967              	.LEHE30:
 1968 071d 4883C408 		addq	$8, %rsp
 1969              		.cfi_remember_state
 1970              		.cfi_def_cfa_offset 24
 1971 0721 4889EF   		movq	%rbp, %rdi
 1972 0724 5D       		popq	%rbp
 1973              		.cfi_def_cfa_offset 16
 1974 0725 415C     		popq	%r12
 1975              		.cfi_def_cfa_offset 8
 1976 0727 E9000000 		jmp	_ZdlPv@PLT
 1976      00
 1977              	.L97:
 1978              		.cfi_restore_state
 1979 072c F30F1EFA 		endbr64
 1980 0730 4989C4   		movq	%rax, %r12
 1981 0733 E9000000 		jmp	.L96
 1981      00
 1982              		.section	.gcc_except_table
 1983              	.LLSDA1486:
 1984 00f0 FF       		.byte	0xff
 1985 00f1 FF       		.byte	0xff
 1986 00f2 01       		.byte	0x1
 1987 00f3 04       		.uleb128 .LLSDACSE1486-.LLSDACSB1486
 1988              	.LLSDACSB1486:
 1989 00f4 18       		.uleb128 .LEHB30-.LFB1486
 1990 00f5 05       		.uleb128 .LEHE30-.LEHB30
 1991 00f6 2C       		.uleb128 .L97-.LFB1486
 1992 00f7 00       		.uleb128 0
 1993              	.LLSDACSE1486:
 1994              		.text
 1995              		.cfi_endproc
 1996              		.section	.text.unlikely
 1997              		.cfi_startproc
 1998              		.cfi_personality 0x9b,DW.ref.__gxx_personality_v0
 1999              		.cfi_lsda 0x1b,.LLSDAC1486
 2001              	_ZN12_GLOBAL__N_119TestCheckCloseFalseD0Ev.cold:
 2002              	.LFSB1486:
 2003              	.L96:
 2004              		.cfi_def_cfa_offset 32
 2005              		.cfi_offset 6, -24
 2006              		.cfi_offset 12, -16
 2007 00f0 4889EF   		movq	%rbp, %rdi
 2008 00f3 E8000000 		call	_ZdlPv@PLT
 2008      00
 2009 00f8 4C89E7   		movq	%r12, %rdi
 2010              	.LEHB31:
 2011 00fb E8000000 		call	_Unwind_Resume@PLT
 2011      00
 2012              	.LEHE31:
 2013              		.cfi_endproc
 2014              	.LFE1486:
 2015              		.section	.gcc_except_table
 2016              	.LLSDAC1486:
 2017 00f8 FF       		.byte	0xff
 2018 00f9 FF       		.byte	0xff
 2019 00fa 01       		.byte	0x1
 2020 00fb 04       		.uleb128 .LLSDACSEC1486-.LLSDACSBC1486
 2021              	.LLSDACSBC1486:
 2022 00fc 0B       		.uleb128 .LEHB31-.LCOLDB15
 2023 00fd 05       		.uleb128 .LEHE31-.LEHB31
 2024 00fe 00       		.uleb128 0
 2025 00ff 00       		.uleb128 0
 2026              	.LLSDACSEC1486:
 2027              		.section	.text.unlikely
 2028              		.text
 2030              		.section	.text.unlikely
 2032              	.LCOLDE15:
 2033              		.text
 2034              	.LHOTE15:
 2035              		.section	.text.unlikely
 2036              		.align 2
 2037              	.LCOLDB16:
 2038              		.text
 2039              	.LHOTB16:
 2040              		.align 2
 2041 0738 0F1F8400 		.p2align 4
 2041      00000000 
 2043              	_ZN12_GLOBAL__N_118TestCheckCloseTrueD0Ev:
 2044              	.LFB1490:
 2045              		.cfi_startproc
 2046              		.cfi_personality 0x9b,DW.ref.__gxx_personality_v0
 2047              		.cfi_lsda 0x1b,.LLSDA1490
 2048 0740 F30F1EFA 		endbr64
 2049 0744 4154     		pushq	%r12
 2050              		.cfi_def_cfa_offset 16
 2051              		.cfi_offset 12, -16
 2052 0746 488D0500 		leaq	16+_ZTVN12_GLOBAL__N_118TestCheckCloseTrueE(%rip), %rax
 2052      000000
 2053 074d 55       		pushq	%rbp
 2054              		.cfi_def_cfa_offset 24
 2055              		.cfi_offset 6, -24
 2056 074e 4889FD   		movq	%rdi, %rbp
 2057 0751 4883EC08 		subq	$8, %rsp
 2058              		.cfi_def_cfa_offset 32
 2059 0755 488907   		movq	%rax, (%rdi)
 2060              	.LEHB32:
 2061 0758 E8000000 		call	_ZN8UnitTest4TestD2Ev@PLT
 2061      00
 2062              	.LEHE32:
 2063 075d 4883C408 		addq	$8, %rsp
 2064              		.cfi_remember_state
 2065              		.cfi_def_cfa_offset 24
 2066 0761 4889EF   		movq	%rbp, %rdi
 2067 0764 5D       		popq	%rbp
 2068              		.cfi_def_cfa_offset 16
 2069 0765 415C     		popq	%r12
 2070              		.cfi_def_cfa_offset 8
 2071 0767 E9000000 		jmp	_ZdlPv@PLT
 2071      00
 2072              	.L101:
 2073              		.cfi_restore_state
 2074 076c F30F1EFA 		endbr64
 2075 0770 4989C4   		movq	%rax, %r12
 2076 0773 E9000000 		jmp	.L100
 2076      00
 2077              		.section	.gcc_except_table
 2078              	.LLSDA1490:
 2079 0100 FF       		.byte	0xff
 2080 0101 FF       		.byte	0xff
 2081 0102 01       		.byte	0x1
 2082 0103 04       		.uleb128 .LLSDACSE1490-.LLSDACSB1490
 2083              	.LLSDACSB1490:
 2084 0104 18       		.uleb128 .LEHB32-.LFB1490
 2085 0105 05       		.uleb128 .LEHE32-.LEHB32
 2086 0106 2C       		.uleb128 .L101-.LFB1490
 2087 0107 00       		.uleb128 0
 2088              	.LLSDACSE1490:
 2089              		.text
 2090              		.cfi_endproc
 2091              		.section	.text.unlikely
 2092              		.cfi_startproc
 2093              		.cfi_personality 0x9b,DW.ref.__gxx_personality_v0
 2094              		.cfi_lsda 0x1b,.LLSDAC1490
 2096              	_ZN12_GLOBAL__N_118TestCheckCloseTrueD0Ev.cold:
 2097              	.LFSB1490:
 2098              	.L100:
 2099              		.cfi_def_cfa_offset 32
 2100              		.cfi_offset 6, -24
 2101              		.cfi_offset 12, -16
 2102 0100 4889EF   		movq	%rbp, %rdi
 2103 0103 E8000000 		call	_ZdlPv@PLT
 2103      00
 2104 0108 4C89E7   		movq	%r12, %rdi
 2105              	.LEHB33:
 2106 010b E8000000 		call	_Unwind_Resume@PLT
 2106      00
 2107              	.LEHE33:
 2108              		.cfi_endproc
 2109              	.LFE1490:
 2110              		.section	.gcc_except_table
 2111              	.LLSDAC1490:
 2112 0108 FF       		.byte	0xff
 2113 0109 FF       		.byte	0xff
 2114 010a 01       		.byte	0x1
 2115 010b 04       		.uleb128 .LLSDACSEC1490-.LLSDACSBC1490
 2116              	.LLSDACSBC1490:
 2117 010c 0B       		.uleb128 .LEHB33-.LCOLDB16
 2118 010d 05       		.uleb128 .LEHE33-.LEHB33
 2119 010e 00       		.uleb128 0
 2120 010f 00       		.uleb128 0
 2121              	.LLSDACSEC1490:
 2122              		.section	.text.unlikely
 2123              		.text
 2125              		.section	.text.unlikely
 2127              	.LCOLDE16:
 2128              		.text
 2129              	.LHOTE16:
 2130              		.section	.text.unlikely
 2131              		.align 2
 2132              	.LCOLDB17:
 2133              		.text
 2134              	.LHOTB17:
 2135              		.align 2
 2136 0778 0F1F8400 		.p2align 4
 2136      00000000 
 2138              	_ZN12_GLOBAL__N_136TestCheckEqualFailureIncludesDetailsD0Ev:
 2139              	.LFB1494:
 2140              		.cfi_startproc
 2141              		.cfi_personality 0x9b,DW.ref.__gxx_personality_v0
 2142              		.cfi_lsda 0x1b,.LLSDA1494
 2143 0780 F30F1EFA 		endbr64
 2144 0784 4154     		pushq	%r12
 2145              		.cfi_def_cfa_offset 16
 2146              		.cfi_offset 12, -16
 2147 0786 488D0500 		leaq	16+_ZTVN12_GLOBAL__N_136TestCheckEqualFailureIncludesDetailsE(%rip), %rax
 2147      000000
 2148 078d 55       		pushq	%rbp
 2149              		.cfi_def_cfa_offset 24
 2150              		.cfi_offset 6, -24
 2151 078e 4889FD   		movq	%rdi, %rbp
 2152 0791 4883EC08 		subq	$8, %rsp
 2153              		.cfi_def_cfa_offset 32
 2154 0795 488907   		movq	%rax, (%rdi)
 2155              	.LEHB34:
 2156 0798 E8000000 		call	_ZN8UnitTest4TestD2Ev@PLT
 2156      00
 2157              	.LEHE34:
 2158 079d 4883C408 		addq	$8, %rsp
 2159              		.cfi_remember_state
 2160              		.cfi_def_cfa_offset 24
 2161 07a1 4889EF   		movq	%rbp, %rdi
 2162 07a4 5D       		popq	%rbp
 2163              		.cfi_def_cfa_offset 16
 2164 07a5 415C     		popq	%r12
 2165              		.cfi_def_cfa_offset 8
 2166 07a7 E9000000 		jmp	_ZdlPv@PLT
 2166      00
 2167              	.L105:
 2168              		.cfi_restore_state
 2169 07ac F30F1EFA 		endbr64
 2170 07b0 4989C4   		movq	%rax, %r12
 2171 07b3 E9000000 		jmp	.L104
 2171      00
 2172              		.section	.gcc_except_table
 2173              	.LLSDA1494:
 2174 0110 FF       		.byte	0xff
 2175 0111 FF       		.byte	0xff
 2176 0112 01       		.byte	0x1
 2177 0113 04       		.uleb128 .LLSDACSE1494-.LLSDACSB1494
 2178              	.LLSDACSB1494:
 2179 0114 18       		.uleb128 .LEHB34-.LFB1494
 2180 0115 05       		.uleb128 .LEHE34-.LEHB34
 2181 0116 2C       		.uleb128 .L105-.LFB1494
 2182 0117 00       		.uleb128 0
 2183              	.LLSDACSE1494:
 2184              		.text
 2185              		.cfi_endproc
 2186              		.section	.text.unlikely
 2187              		.cfi_startproc
 2188              		.cfi_personality 0x9b,DW.ref.__gxx_personality_v0
 2189              		.cfi_lsda 0x1b,.LLSDAC1494
 2191              	_ZN12_GLOBAL__N_136TestCheckEqualFailureIncludesDetailsD0Ev.cold:
 2192              	.LFSB1494:
 2193              	.L104:
 2194              		.cfi_def_cfa_offset 32
 2195              		.cfi_offset 6, -24
 2196              		.cfi_offset 12, -16
 2197 0110 4889EF   		movq	%rbp, %rdi
 2198 0113 E8000000 		call	_ZdlPv@PLT
 2198      00
 2199 0118 4C89E7   		movq	%r12, %rdi
 2200              	.LEHB35:
 2201 011b E8000000 		call	_Unwind_Resume@PLT
 2201      00
 2202              	.LEHE35:
 2203              		.cfi_endproc
 2204              	.LFE1494:
 2205              		.section	.gcc_except_table
 2206              	.LLSDAC1494:
 2207 0118 FF       		.byte	0xff
 2208 0119 FF       		.byte	0xff
 2209 011a 01       		.byte	0x1
 2210 011b 04       		.uleb128 .LLSDACSEC1494-.LLSDACSBC1494
 2211              	.LLSDACSBC1494:
 2212 011c 0B       		.uleb128 .LEHB35-.LCOLDB17
 2213 011d 05       		.uleb128 .LEHE35-.LEHB35
 2214 011e 00       		.uleb128 0
 2215 011f 00       		.uleb128 0
 2216              	.LLSDACSEC1494:
 2217              		.section	.text.unlikely
 2218              		.text
 2220              		.section	.text.unlikely
 2222              	.LCOLDE17:
 2223              		.text
 2224              	.LHOTE17:
 2225              		.section	.text.unlikely
 2226              		.align 2
 2227              	.LCOLDB18:
 2228              		.text
 2229              	.LHOTB18:
 2230              		.align 2
 2231 07b8 0F1F8400 		.p2align 4
 2231      00000000 
 2233              	_ZN12_GLOBAL__N_151TestCheckEqualFailureIncludesCheckExpectedAndActualD0Ev:
 2234              	.LFB1498:
 2235              		.cfi_startproc
 2236              		.cfi_personality 0x9b,DW.ref.__gxx_personality_v0
 2237              		.cfi_lsda 0x1b,.LLSDA1498
 2238 07c0 F30F1EFA 		endbr64
 2239 07c4 4154     		pushq	%r12
 2240              		.cfi_def_cfa_offset 16
 2241              		.cfi_offset 12, -16
 2242 07c6 488D0500 		leaq	16+_ZTVN12_GLOBAL__N_151TestCheckEqualFailureIncludesCheckExpectedAndActualE(%rip), %rax
 2242      000000
 2243 07cd 55       		pushq	%rbp
 2244              		.cfi_def_cfa_offset 24
 2245              		.cfi_offset 6, -24
 2246 07ce 4889FD   		movq	%rdi, %rbp
 2247 07d1 4883EC08 		subq	$8, %rsp
 2248              		.cfi_def_cfa_offset 32
 2249 07d5 488907   		movq	%rax, (%rdi)
 2250              	.LEHB36:
 2251 07d8 E8000000 		call	_ZN8UnitTest4TestD2Ev@PLT
 2251      00
 2252              	.LEHE36:
 2253 07dd 4883C408 		addq	$8, %rsp
 2254              		.cfi_remember_state
 2255              		.cfi_def_cfa_offset 24
 2256 07e1 4889EF   		movq	%rbp, %rdi
 2257 07e4 5D       		popq	%rbp
 2258              		.cfi_def_cfa_offset 16
 2259 07e5 415C     		popq	%r12
 2260              		.cfi_def_cfa_offset 8
 2261 07e7 E9000000 		jmp	_ZdlPv@PLT
 2261      00
 2262              	.L109:
 2263              		.cfi_restore_state
 2264 07ec F30F1EFA 		endbr64
 2265 07f0 4989C4   		movq	%rax, %r12
 2266 07f3 E9000000 		jmp	.L108
 2266      00
 2267              		.section	.gcc_except_table
 2268              	.LLSDA1498:
 2269 0120 FF       		.byte	0xff
 2270 0121 FF       		.byte	0xff
 2271 0122 01       		.byte	0x1
 2272 0123 04       		.uleb128 .LLSDACSE1498-.LLSDACSB1498
 2273              	.LLSDACSB1498:
 2274 0124 18       		.uleb128 .LEHB36-.LFB1498
 2275 0125 05       		.uleb128 .LEHE36-.LEHB36
 2276 0126 2C       		.uleb128 .L109-.LFB1498
 2277 0127 00       		.uleb128 0
 2278              	.LLSDACSE1498:
 2279              		.text
 2280              		.cfi_endproc
 2281              		.section	.text.unlikely
 2282              		.cfi_startproc
 2283              		.cfi_personality 0x9b,DW.ref.__gxx_personality_v0
 2284              		.cfi_lsda 0x1b,.LLSDAC1498
 2286              	_ZN12_GLOBAL__N_151TestCheckEqualFailureIncludesCheckExpectedAndActualD0Ev.cold:
 2287              	.LFSB1498:
 2288              	.L108:
 2289              		.cfi_def_cfa_offset 32
 2290              		.cfi_offset 6, -24
 2291              		.cfi_offset 12, -16
 2292 0120 4889EF   		movq	%rbp, %rdi
 2293 0123 E8000000 		call	_ZdlPv@PLT
 2293      00
 2294 0128 4C89E7   		movq	%r12, %rdi
 2295              	.LEHB37:
 2296 012b E8000000 		call	_Unwind_Resume@PLT
 2296      00
 2297              	.LEHE37:
 2298              		.cfi_endproc
 2299              	.LFE1498:
 2300              		.section	.gcc_except_table
 2301              	.LLSDAC1498:
 2302 0128 FF       		.byte	0xff
 2303 0129 FF       		.byte	0xff
 2304 012a 01       		.byte	0x1
 2305 012b 04       		.uleb128 .LLSDACSEC1498-.LLSDACSBC1498
 2306              	.LLSDACSBC1498:
 2307 012c 0B       		.uleb128 .LEHB37-.LCOLDB18
 2308 012d 05       		.uleb128 .LEHE37-.LEHB37
 2309 012e 00       		.uleb128 0
 2310 012f 00       		.uleb128 0
 2311              	.LLSDACSEC1498:
 2312              		.section	.text.unlikely
 2313              		.text
 2315              		.section	.text.unlikely
 2317              	.LCOLDE18:
 2318              		.text
 2319              	.LHOTE18:
 2320              		.section	.text.unlikely
 2321              		.align 2
 2322              	.LCOLDB19:
 2323              		.text
 2324              	.LHOTB19:
 2325              		.align 2
 2326 07f8 0F1F8400 		.p2align 4
 2326      00000000 
 2328              	_ZN12_GLOBAL__N_153TestCheckEqualsWithStringsWorksOnContentsWithALiteralD0Ev:
 2329              	.LFB1502:
 2330              		.cfi_startproc
 2331              		.cfi_personality 0x9b,DW.ref.__gxx_personality_v0
 2332              		.cfi_lsda 0x1b,.LLSDA1502
 2333 0800 F30F1EFA 		endbr64
 2334 0804 4154     		pushq	%r12
 2335              		.cfi_def_cfa_offset 16
 2336              		.cfi_offset 12, -16
 2337 0806 488D0500 		leaq	16+_ZTVN12_GLOBAL__N_153TestCheckEqualsWithStringsWorksOnContentsWithALiteralE(%rip), %rax
 2337      000000
 2338 080d 55       		pushq	%rbp
 2339              		.cfi_def_cfa_offset 24
 2340              		.cfi_offset 6, -24
 2341 080e 4889FD   		movq	%rdi, %rbp
 2342 0811 4883EC08 		subq	$8, %rsp
 2343              		.cfi_def_cfa_offset 32
 2344 0815 488907   		movq	%rax, (%rdi)
 2345              	.LEHB38:
 2346 0818 E8000000 		call	_ZN8UnitTest4TestD2Ev@PLT
 2346      00
 2347              	.LEHE38:
 2348 081d 4883C408 		addq	$8, %rsp
 2349              		.cfi_remember_state
 2350              		.cfi_def_cfa_offset 24
 2351 0821 4889EF   		movq	%rbp, %rdi
 2352 0824 5D       		popq	%rbp
 2353              		.cfi_def_cfa_offset 16
 2354 0825 415C     		popq	%r12
 2355              		.cfi_def_cfa_offset 8
 2356 0827 E9000000 		jmp	_ZdlPv@PLT
 2356      00
 2357              	.L113:
 2358              		.cfi_restore_state
 2359 082c F30F1EFA 		endbr64
 2360 0830 4989C4   		movq	%rax, %r12
 2361 0833 E9000000 		jmp	.L112
 2361      00
 2362              		.section	.gcc_except_table
 2363              	.LLSDA1502:
 2364 0130 FF       		.byte	0xff
 2365 0131 FF       		.byte	0xff
 2366 0132 01       		.byte	0x1
 2367 0133 04       		.uleb128 .LLSDACSE1502-.LLSDACSB1502
 2368              	.LLSDACSB1502:
 2369 0134 18       		.uleb128 .LEHB38-.LFB1502
 2370 0135 05       		.uleb128 .LEHE38-.LEHB38
 2371 0136 2C       		.uleb128 .L113-.LFB1502
 2372 0137 00       		.uleb128 0
 2373              	.LLSDACSE1502:
 2374              		.text
 2375              		.cfi_endproc
 2376              		.section	.text.unlikely
 2377              		.cfi_startproc
 2378              		.cfi_personality 0x9b,DW.ref.__gxx_personality_v0
 2379              		.cfi_lsda 0x1b,.LLSDAC1502
 2381              	_ZN12_GLOBAL__N_153TestCheckEqualsWithStringsWorksOnContentsWithALiteralD0Ev.cold:
 2382              	.LFSB1502:
 2383              	.L112:
 2384              		.cfi_def_cfa_offset 32
 2385              		.cfi_offset 6, -24
 2386              		.cfi_offset 12, -16
 2387 0130 4889EF   		movq	%rbp, %rdi
 2388 0133 E8000000 		call	_ZdlPv@PLT
 2388      00
 2389 0138 4C89E7   		movq	%r12, %rdi
 2390              	.LEHB39:
 2391 013b E8000000 		call	_Unwind_Resume@PLT
 2391      00
 2392              	.LEHE39:
 2393              		.cfi_endproc
 2394              	.LFE1502:
 2395              		.section	.gcc_except_table
 2396              	.LLSDAC1502:
 2397 0138 FF       		.byte	0xff
 2398 0139 FF       		.byte	0xff
 2399 013a 01       		.byte	0x1
 2400 013b 04       		.uleb128 .LLSDACSEC1502-.LLSDACSBC1502
 2401              	.LLSDACSBC1502:
 2402 013c 0B       		.uleb128 .LEHB39-.LCOLDB19
 2403 013d 05       		.uleb128 .LEHE39-.LEHB39
 2404 013e 00       		.uleb128 0
 2405 013f 00       		.uleb128 0
 2406              	.LLSDACSEC1502:
 2407              		.section	.text.unlikely
 2408              		.text
 2410              		.section	.text.unlikely
 2412              	.LCOLDE19:
 2413              		.text
 2414              	.LHOTE19:
 2415              		.section	.text.unlikely
 2416              		.align 2
 2417              	.LCOLDB20:
 2418              		.text
 2419              	.LHOTB20:
 2420              		.align 2
 2421 0838 0F1F8400 		.p2align 4
 2421      00000000 
 2423              	_ZN12_GLOBAL__N_154TestCheckEqualsWithStringsWorksOnContentsConstNonConstD0Ev:
 2424              	.LFB1506:
 2425              		.cfi_startproc
 2426              		.cfi_personality 0x9b,DW.ref.__gxx_personality_v0
 2427              		.cfi_lsda 0x1b,.LLSDA1506
 2428 0840 F30F1EFA 		endbr64
 2429 0844 4154     		pushq	%r12
 2430              		.cfi_def_cfa_offset 16
 2431              		.cfi_offset 12, -16
 2432 0846 488D0500 		leaq	16+_ZTVN12_GLOBAL__N_154TestCheckEqualsWithStringsWorksOnContentsConstNonConstE(%rip), %rax
 2432      000000
 2433 084d 55       		pushq	%rbp
 2434              		.cfi_def_cfa_offset 24
 2435              		.cfi_offset 6, -24
 2436 084e 4889FD   		movq	%rdi, %rbp
 2437 0851 4883EC08 		subq	$8, %rsp
 2438              		.cfi_def_cfa_offset 32
 2439 0855 488907   		movq	%rax, (%rdi)
 2440              	.LEHB40:
 2441 0858 E8000000 		call	_ZN8UnitTest4TestD2Ev@PLT
 2441      00
 2442              	.LEHE40:
 2443 085d 4883C408 		addq	$8, %rsp
 2444              		.cfi_remember_state
 2445              		.cfi_def_cfa_offset 24
 2446 0861 4889EF   		movq	%rbp, %rdi
 2447 0864 5D       		popq	%rbp
 2448              		.cfi_def_cfa_offset 16
 2449 0865 415C     		popq	%r12
 2450              		.cfi_def_cfa_offset 8
 2451 0867 E9000000 		jmp	_ZdlPv@PLT
 2451      00
 2452              	.L117:
 2453              		.cfi_restore_state
 2454 086c F30F1EFA 		endbr64
 2455 0870 4989C4   		movq	%rax, %r12
 2456 0873 E9000000 		jmp	.L116
 2456      00
 2457              		.section	.gcc_except_table
 2458              	.LLSDA1506:
 2459 0140 FF       		.byte	0xff
 2460 0141 FF       		.byte	0xff
 2461 0142 01       		.byte	0x1
 2462 0143 04       		.uleb128 .LLSDACSE1506-.LLSDACSB1506
 2463              	.LLSDACSB1506:
 2464 0144 18       		.uleb128 .LEHB40-.LFB1506
 2465 0145 05       		.uleb128 .LEHE40-.LEHB40
 2466 0146 2C       		.uleb128 .L117-.LFB1506
 2467 0147 00       		.uleb128 0
 2468              	.LLSDACSE1506:
 2469              		.text
 2470              		.cfi_endproc
 2471              		.section	.text.unlikely
 2472              		.cfi_startproc
 2473              		.cfi_personality 0x9b,DW.ref.__gxx_personality_v0
 2474              		.cfi_lsda 0x1b,.LLSDAC1506
 2476              	_ZN12_GLOBAL__N_154TestCheckEqualsWithStringsWorksOnContentsConstNonConstD0Ev.cold:
 2477              	.LFSB1506:
 2478              	.L116:
 2479              		.cfi_def_cfa_offset 32
 2480              		.cfi_offset 6, -24
 2481              		.cfi_offset 12, -16
 2482 0140 4889EF   		movq	%rbp, %rdi
 2483 0143 E8000000 		call	_ZdlPv@PLT
 2483      00
 2484 0148 4C89E7   		movq	%r12, %rdi
 2485              	.LEHB41:
 2486 014b E8000000 		call	_Unwind_Resume@PLT
 2486      00
 2487              	.LEHE41:
 2488              		.cfi_endproc
 2489              	.LFE1506:
 2490              		.section	.gcc_except_table
 2491              	.LLSDAC1506:
 2492 0148 FF       		.byte	0xff
 2493 0149 FF       		.byte	0xff
 2494 014a 01       		.byte	0x1
 2495 014b 04       		.uleb128 .LLSDACSEC1506-.LLSDACSBC1506
 2496              	.LLSDACSBC1506:
 2497 014c 0B       		.uleb128 .LEHB41-.LCOLDB20
 2498 014d 05       		.uleb128 .LEHE41-.LEHB41
 2499 014e 00       		.uleb128 0
 2500 014f 00       		.uleb128 0
 2501              	.LLSDACSEC1506:
 2502              		.section	.text.unlikely
 2503              		.text
 2505              		.section	.text.unlikely
 2507              	.LCOLDE20:
 2508              		.text
 2509              	.LHOTE20:
 2510              		.section	.text.unlikely
 2511              		.align 2
 2512              	.LCOLDB21:
 2513              		.text
 2514              	.LHOTB21:
 2515              		.align 2
 2516 0878 0F1F8400 		.p2align 4
 2516      00000000 
 2518              	_ZN12_GLOBAL__N_154TestCheckEqualsWithStringsWorksOnContentsNonConstConstD0Ev:
 2519              	.LFB1510:
 2520              		.cfi_startproc
 2521              		.cfi_personality 0x9b,DW.ref.__gxx_personality_v0
 2522              		.cfi_lsda 0x1b,.LLSDA1510
 2523 0880 F30F1EFA 		endbr64
 2524 0884 4154     		pushq	%r12
 2525              		.cfi_def_cfa_offset 16
 2526              		.cfi_offset 12, -16
 2527 0886 488D0500 		leaq	16+_ZTVN12_GLOBAL__N_154TestCheckEqualsWithStringsWorksOnContentsNonConstConstE(%rip), %rax
 2527      000000
 2528 088d 55       		pushq	%rbp
 2529              		.cfi_def_cfa_offset 24
 2530              		.cfi_offset 6, -24
 2531 088e 4889FD   		movq	%rdi, %rbp
 2532 0891 4883EC08 		subq	$8, %rsp
 2533              		.cfi_def_cfa_offset 32
 2534 0895 488907   		movq	%rax, (%rdi)
 2535              	.LEHB42:
 2536 0898 E8000000 		call	_ZN8UnitTest4TestD2Ev@PLT
 2536      00
 2537              	.LEHE42:
 2538 089d 4883C408 		addq	$8, %rsp
 2539              		.cfi_remember_state
 2540              		.cfi_def_cfa_offset 24
 2541 08a1 4889EF   		movq	%rbp, %rdi
 2542 08a4 5D       		popq	%rbp
 2543              		.cfi_def_cfa_offset 16
 2544 08a5 415C     		popq	%r12
 2545              		.cfi_def_cfa_offset 8
 2546 08a7 E9000000 		jmp	_ZdlPv@PLT
 2546      00
 2547              	.L121:
 2548              		.cfi_restore_state
 2549 08ac F30F1EFA 		endbr64
 2550 08b0 4989C4   		movq	%rax, %r12
 2551 08b3 E9000000 		jmp	.L120
 2551      00
 2552              		.section	.gcc_except_table
 2553              	.LLSDA1510:
 2554 0150 FF       		.byte	0xff
 2555 0151 FF       		.byte	0xff
 2556 0152 01       		.byte	0x1
 2557 0153 04       		.uleb128 .LLSDACSE1510-.LLSDACSB1510
 2558              	.LLSDACSB1510:
 2559 0154 18       		.uleb128 .LEHB42-.LFB1510
 2560 0155 05       		.uleb128 .LEHE42-.LEHB42
 2561 0156 2C       		.uleb128 .L121-.LFB1510
 2562 0157 00       		.uleb128 0
 2563              	.LLSDACSE1510:
 2564              		.text
 2565              		.cfi_endproc
 2566              		.section	.text.unlikely
 2567              		.cfi_startproc
 2568              		.cfi_personality 0x9b,DW.ref.__gxx_personality_v0
 2569              		.cfi_lsda 0x1b,.LLSDAC1510
 2571              	_ZN12_GLOBAL__N_154TestCheckEqualsWithStringsWorksOnContentsNonConstConstD0Ev.cold:
 2572              	.LFSB1510:
 2573              	.L120:
 2574              		.cfi_def_cfa_offset 32
 2575              		.cfi_offset 6, -24
 2576              		.cfi_offset 12, -16
 2577 0150 4889EF   		movq	%rbp, %rdi
 2578 0153 E8000000 		call	_ZdlPv@PLT
 2578      00
 2579 0158 4C89E7   		movq	%r12, %rdi
 2580              	.LEHB43:
 2581 015b E8000000 		call	_Unwind_Resume@PLT
 2581      00
 2582              	.LEHE43:
 2583              		.cfi_endproc
 2584              	.LFE1510:
 2585              		.section	.gcc_except_table
 2586              	.LLSDAC1510:
 2587 0158 FF       		.byte	0xff
 2588 0159 FF       		.byte	0xff
 2589 015a 01       		.byte	0x1
 2590 015b 04       		.uleb128 .LLSDACSEC1510-.LLSDACSBC1510
 2591              	.LLSDACSBC1510:
 2592 015c 0B       		.uleb128 .LEHB43-.LCOLDB21
 2593 015d 05       		.uleb128 .LEHE43-.LEHB43
 2594 015e 00       		.uleb128 0
 2595 015f 00       		.uleb128 0
 2596              	.LLSDACSEC1510:
 2597              		.section	.text.unlikely
 2598              		.text
 2600              		.section	.text.unlikely
 2602              	.LCOLDE21:
 2603              		.text
 2604              	.LHOTE21:
 2605              		.section	.text.unlikely
 2606              		.align 2
 2607              	.LCOLDB22:
 2608              		.text
 2609              	.LHOTB22:
 2610              		.align 2
 2611 08b8 0F1F8400 		.p2align 4
 2611      00000000 
 2613              	_ZN12_GLOBAL__N_151TestCheckEqualsWithStringsWorksOnContentsConstConstD0Ev:
 2614              	.LFB1514:
 2615              		.cfi_startproc
 2616              		.cfi_personality 0x9b,DW.ref.__gxx_personality_v0
 2617              		.cfi_lsda 0x1b,.LLSDA1514
 2618 08c0 F30F1EFA 		endbr64
 2619 08c4 4154     		pushq	%r12
 2620              		.cfi_def_cfa_offset 16
 2621              		.cfi_offset 12, -16
 2622 08c6 488D0500 		leaq	16+_ZTVN12_GLOBAL__N_151TestCheckEqualsWithStringsWorksOnContentsConstConstE(%rip), %rax
 2622      000000
 2623 08cd 55       		pushq	%rbp
 2624              		.cfi_def_cfa_offset 24
 2625              		.cfi_offset 6, -24
 2626 08ce 4889FD   		movq	%rdi, %rbp
 2627 08d1 4883EC08 		subq	$8, %rsp
 2628              		.cfi_def_cfa_offset 32
 2629 08d5 488907   		movq	%rax, (%rdi)
 2630              	.LEHB44:
 2631 08d8 E8000000 		call	_ZN8UnitTest4TestD2Ev@PLT
 2631      00
 2632              	.LEHE44:
 2633 08dd 4883C408 		addq	$8, %rsp
 2634              		.cfi_remember_state
 2635              		.cfi_def_cfa_offset 24
 2636 08e1 4889EF   		movq	%rbp, %rdi
 2637 08e4 5D       		popq	%rbp
 2638              		.cfi_def_cfa_offset 16
 2639 08e5 415C     		popq	%r12
 2640              		.cfi_def_cfa_offset 8
 2641 08e7 E9000000 		jmp	_ZdlPv@PLT
 2641      00
 2642              	.L125:
 2643              		.cfi_restore_state
 2644 08ec F30F1EFA 		endbr64
 2645 08f0 4989C4   		movq	%rax, %r12
 2646 08f3 E9000000 		jmp	.L124
 2646      00
 2647              		.section	.gcc_except_table
 2648              	.LLSDA1514:
 2649 0160 FF       		.byte	0xff
 2650 0161 FF       		.byte	0xff
 2651 0162 01       		.byte	0x1
 2652 0163 04       		.uleb128 .LLSDACSE1514-.LLSDACSB1514
 2653              	.LLSDACSB1514:
 2654 0164 18       		.uleb128 .LEHB44-.LFB1514
 2655 0165 05       		.uleb128 .LEHE44-.LEHB44
 2656 0166 2C       		.uleb128 .L125-.LFB1514
 2657 0167 00       		.uleb128 0
 2658              	.LLSDACSE1514:
 2659              		.text
 2660              		.cfi_endproc
 2661              		.section	.text.unlikely
 2662              		.cfi_startproc
 2663              		.cfi_personality 0x9b,DW.ref.__gxx_personality_v0
 2664              		.cfi_lsda 0x1b,.LLSDAC1514
 2666              	_ZN12_GLOBAL__N_151TestCheckEqualsWithStringsWorksOnContentsConstConstD0Ev.cold:
 2667              	.LFSB1514:
 2668              	.L124:
 2669              		.cfi_def_cfa_offset 32
 2670              		.cfi_offset 6, -24
 2671              		.cfi_offset 12, -16
 2672 0160 4889EF   		movq	%rbp, %rdi
 2673 0163 E8000000 		call	_ZdlPv@PLT
 2673      00
 2674 0168 4C89E7   		movq	%r12, %rdi
 2675              	.LEHB45:
 2676 016b E8000000 		call	_Unwind_Resume@PLT
 2676      00
 2677              	.LEHE45:
 2678              		.cfi_endproc
 2679              	.LFE1514:
 2680              		.section	.gcc_except_table
 2681              	.LLSDAC1514:
 2682 0168 FF       		.byte	0xff
 2683 0169 FF       		.byte	0xff
 2684 016a 01       		.byte	0x1
 2685 016b 04       		.uleb128 .LLSDACSEC1514-.LLSDACSBC1514
 2686              	.LLSDACSBC1514:
 2687 016c 0B       		.uleb128 .LEHB45-.LCOLDB22
 2688 016d 05       		.uleb128 .LEHE45-.LEHB45
 2689 016e 00       		.uleb128 0
 2690 016f 00       		.uleb128 0
 2691              	.LLSDACSEC1514:
 2692              		.section	.text.unlikely
 2693              		.text
 2695              		.section	.text.unlikely
 2697              	.LCOLDE22:
 2698              		.text
 2699              	.LHOTE22:
 2700              		.section	.text.unlikely
 2701              		.align 2
 2702              	.LCOLDB23:
 2703              		.text
 2704              	.LHOTB23:
 2705              		.align 2
 2706 08f8 0F1F8400 		.p2align 4
 2706      00000000 
 2708              	_ZN12_GLOBAL__N_157TestCheckEqualsWithStringsWorksOnContentsNonConstNonConstD0Ev:
 2709              	.LFB1518:
 2710              		.cfi_startproc
 2711              		.cfi_personality 0x9b,DW.ref.__gxx_personality_v0
 2712              		.cfi_lsda 0x1b,.LLSDA1518
 2713 0900 F30F1EFA 		endbr64
 2714 0904 4154     		pushq	%r12
 2715              		.cfi_def_cfa_offset 16
 2716              		.cfi_offset 12, -16
 2717 0906 488D0500 		leaq	16+_ZTVN12_GLOBAL__N_157TestCheckEqualsWithStringsWorksOnContentsNonConstNonConstE(%rip), %ra
 2717      000000
 2718 090d 55       		pushq	%rbp
 2719              		.cfi_def_cfa_offset 24
 2720              		.cfi_offset 6, -24
 2721 090e 4889FD   		movq	%rdi, %rbp
 2722 0911 4883EC08 		subq	$8, %rsp
 2723              		.cfi_def_cfa_offset 32
 2724 0915 488907   		movq	%rax, (%rdi)
 2725              	.LEHB46:
 2726 0918 E8000000 		call	_ZN8UnitTest4TestD2Ev@PLT
 2726      00
 2727              	.LEHE46:
 2728 091d 4883C408 		addq	$8, %rsp
 2729              		.cfi_remember_state
 2730              		.cfi_def_cfa_offset 24
 2731 0921 4889EF   		movq	%rbp, %rdi
 2732 0924 5D       		popq	%rbp
 2733              		.cfi_def_cfa_offset 16
 2734 0925 415C     		popq	%r12
 2735              		.cfi_def_cfa_offset 8
 2736 0927 E9000000 		jmp	_ZdlPv@PLT
 2736      00
 2737              	.L129:
 2738              		.cfi_restore_state
 2739 092c F30F1EFA 		endbr64
 2740 0930 4989C4   		movq	%rax, %r12
 2741 0933 E9000000 		jmp	.L128
 2741      00
 2742              		.section	.gcc_except_table
 2743              	.LLSDA1518:
 2744 0170 FF       		.byte	0xff
 2745 0171 FF       		.byte	0xff
 2746 0172 01       		.byte	0x1
 2747 0173 04       		.uleb128 .LLSDACSE1518-.LLSDACSB1518
 2748              	.LLSDACSB1518:
 2749 0174 18       		.uleb128 .LEHB46-.LFB1518
 2750 0175 05       		.uleb128 .LEHE46-.LEHB46
 2751 0176 2C       		.uleb128 .L129-.LFB1518
 2752 0177 00       		.uleb128 0
 2753              	.LLSDACSE1518:
 2754              		.text
 2755              		.cfi_endproc
 2756              		.section	.text.unlikely
 2757              		.cfi_startproc
 2758              		.cfi_personality 0x9b,DW.ref.__gxx_personality_v0
 2759              		.cfi_lsda 0x1b,.LLSDAC1518
 2761              	_ZN12_GLOBAL__N_157TestCheckEqualsWithStringsWorksOnContentsNonConstNonConstD0Ev.cold:
 2762              	.LFSB1518:
 2763              	.L128:
 2764              		.cfi_def_cfa_offset 32
 2765              		.cfi_offset 6, -24
 2766              		.cfi_offset 12, -16
 2767 0170 4889EF   		movq	%rbp, %rdi
 2768 0173 E8000000 		call	_ZdlPv@PLT
 2768      00
 2769 0178 4C89E7   		movq	%r12, %rdi
 2770              	.LEHB47:
 2771 017b E8000000 		call	_Unwind_Resume@PLT
 2771      00
 2772              	.LEHE47:
 2773              		.cfi_endproc
 2774              	.LFE1518:
 2775              		.section	.gcc_except_table
 2776              	.LLSDAC1518:
 2777 0178 FF       		.byte	0xff
 2778 0179 FF       		.byte	0xff
 2779 017a 01       		.byte	0x1
 2780 017b 04       		.uleb128 .LLSDACSEC1518-.LLSDACSBC1518
 2781              	.LLSDACSBC1518:
 2782 017c 0B       		.uleb128 .LEHB47-.LCOLDB23
 2783 017d 05       		.uleb128 .LEHE47-.LEHB47
 2784 017e 00       		.uleb128 0
 2785 017f 00       		.uleb128 0
 2786              	.LLSDACSEC1518:
 2787              		.section	.text.unlikely
 2788              		.text
 2790              		.section	.text.unlikely
 2792              	.LCOLDE23:
 2793              		.text
 2794              	.LHOTE23:
 2795              		.section	.text.unlikely
 2796              		.align 2
 2797              	.LCOLDB24:
 2798              		.text
 2799              	.LHOTB24:
 2800              		.align 2
 2801 0938 0F1F8400 		.p2align 4
 2801      00000000 
 2803              	_ZN12_GLOBAL__N_149TestCheckEqualsWithStringsFailsOnDifferentStringsD0Ev:
 2804              	.LFB1522:
 2805              		.cfi_startproc
 2806              		.cfi_personality 0x9b,DW.ref.__gxx_personality_v0
 2807              		.cfi_lsda 0x1b,.LLSDA1522
 2808 0940 F30F1EFA 		endbr64
 2809 0944 4154     		pushq	%r12
 2810              		.cfi_def_cfa_offset 16
 2811              		.cfi_offset 12, -16
 2812 0946 488D0500 		leaq	16+_ZTVN12_GLOBAL__N_149TestCheckEqualsWithStringsFailsOnDifferentStringsE(%rip), %rax
 2812      000000
 2813 094d 55       		pushq	%rbp
 2814              		.cfi_def_cfa_offset 24
 2815              		.cfi_offset 6, -24
 2816 094e 4889FD   		movq	%rdi, %rbp
 2817 0951 4883EC08 		subq	$8, %rsp
 2818              		.cfi_def_cfa_offset 32
 2819 0955 488907   		movq	%rax, (%rdi)
 2820              	.LEHB48:
 2821 0958 E8000000 		call	_ZN8UnitTest4TestD2Ev@PLT
 2821      00
 2822              	.LEHE48:
 2823 095d 4883C408 		addq	$8, %rsp
 2824              		.cfi_remember_state
 2825              		.cfi_def_cfa_offset 24
 2826 0961 4889EF   		movq	%rbp, %rdi
 2827 0964 5D       		popq	%rbp
 2828              		.cfi_def_cfa_offset 16
 2829 0965 415C     		popq	%r12
 2830              		.cfi_def_cfa_offset 8
 2831 0967 E9000000 		jmp	_ZdlPv@PLT
 2831      00
 2832              	.L133:
 2833              		.cfi_restore_state
 2834 096c F30F1EFA 		endbr64
 2835 0970 4989C4   		movq	%rax, %r12
 2836 0973 E9000000 		jmp	.L132
 2836      00
 2837              		.section	.gcc_except_table
 2838              	.LLSDA1522:
 2839 0180 FF       		.byte	0xff
 2840 0181 FF       		.byte	0xff
 2841 0182 01       		.byte	0x1
 2842 0183 04       		.uleb128 .LLSDACSE1522-.LLSDACSB1522
 2843              	.LLSDACSB1522:
 2844 0184 18       		.uleb128 .LEHB48-.LFB1522
 2845 0185 05       		.uleb128 .LEHE48-.LEHB48
 2846 0186 2C       		.uleb128 .L133-.LFB1522
 2847 0187 00       		.uleb128 0
 2848              	.LLSDACSE1522:
 2849              		.text
 2850              		.cfi_endproc
 2851              		.section	.text.unlikely
 2852              		.cfi_startproc
 2853              		.cfi_personality 0x9b,DW.ref.__gxx_personality_v0
 2854              		.cfi_lsda 0x1b,.LLSDAC1522
 2856              	_ZN12_GLOBAL__N_149TestCheckEqualsWithStringsFailsOnDifferentStringsD0Ev.cold:
 2857              	.LFSB1522:
 2858              	.L132:
 2859              		.cfi_def_cfa_offset 32
 2860              		.cfi_offset 6, -24
 2861              		.cfi_offset 12, -16
 2862 0180 4889EF   		movq	%rbp, %rdi
 2863 0183 E8000000 		call	_ZdlPv@PLT
 2863      00
 2864 0188 4C89E7   		movq	%r12, %rdi
 2865              	.LEHB49:
 2866 018b E8000000 		call	_Unwind_Resume@PLT
 2866      00
 2867              	.LEHE49:
 2868              		.cfi_endproc
 2869              	.LFE1522:
 2870              		.section	.gcc_except_table
 2871              	.LLSDAC1522:
 2872 0188 FF       		.byte	0xff
 2873 0189 FF       		.byte	0xff
 2874 018a 01       		.byte	0x1
 2875 018b 04       		.uleb128 .LLSDACSEC1522-.LLSDACSBC1522
 2876              	.LLSDACSBC1522:
 2877 018c 0B       		.uleb128 .LEHB49-.LCOLDB24
 2878 018d 05       		.uleb128 .LEHE49-.LEHB49
 2879 018e 00       		.uleb128 0
 2880 018f 00       		.uleb128 0
 2881              	.LLSDACSEC1522:
 2882              		.section	.text.unlikely
 2883              		.text
 2885              		.section	.text.unlikely
 2887              	.LCOLDE24:
 2888              		.text
 2889              	.LHOTE24:
 2890              		.section	.text.unlikely
 2891              		.align 2
 2892              	.LCOLDB25:
 2893              		.text
 2894              	.LHOTB25:
 2895              		.align 2
 2896 0978 0F1F8400 		.p2align 4
 2896      00000000 
 2898              	_ZN12_GLOBAL__N_130TestCheckEqualWithUnsignedLongD0Ev:
 2899              	.LFB1526:
 2900              		.cfi_startproc
 2901              		.cfi_personality 0x9b,DW.ref.__gxx_personality_v0
 2902              		.cfi_lsda 0x1b,.LLSDA1526
 2903 0980 F30F1EFA 		endbr64
 2904 0984 4154     		pushq	%r12
 2905              		.cfi_def_cfa_offset 16
 2906              		.cfi_offset 12, -16
 2907 0986 488D0500 		leaq	16+_ZTVN12_GLOBAL__N_130TestCheckEqualWithUnsignedLongE(%rip), %rax
 2907      000000
 2908 098d 55       		pushq	%rbp
 2909              		.cfi_def_cfa_offset 24
 2910              		.cfi_offset 6, -24
 2911 098e 4889FD   		movq	%rdi, %rbp
 2912 0991 4883EC08 		subq	$8, %rsp
 2913              		.cfi_def_cfa_offset 32
 2914 0995 488907   		movq	%rax, (%rdi)
 2915              	.LEHB50:
 2916 0998 E8000000 		call	_ZN8UnitTest4TestD2Ev@PLT
 2916      00
 2917              	.LEHE50:
 2918 099d 4883C408 		addq	$8, %rsp
 2919              		.cfi_remember_state
 2920              		.cfi_def_cfa_offset 24
 2921 09a1 4889EF   		movq	%rbp, %rdi
 2922 09a4 5D       		popq	%rbp
 2923              		.cfi_def_cfa_offset 16
 2924 09a5 415C     		popq	%r12
 2925              		.cfi_def_cfa_offset 8
 2926 09a7 E9000000 		jmp	_ZdlPv@PLT
 2926      00
 2927              	.L137:
 2928              		.cfi_restore_state
 2929 09ac F30F1EFA 		endbr64
 2930 09b0 4989C4   		movq	%rax, %r12
 2931 09b3 E9000000 		jmp	.L136
 2931      00
 2932              		.section	.gcc_except_table
 2933              	.LLSDA1526:
 2934 0190 FF       		.byte	0xff
 2935 0191 FF       		.byte	0xff
 2936 0192 01       		.byte	0x1
 2937 0193 04       		.uleb128 .LLSDACSE1526-.LLSDACSB1526
 2938              	.LLSDACSB1526:
 2939 0194 18       		.uleb128 .LEHB50-.LFB1526
 2940 0195 05       		.uleb128 .LEHE50-.LEHB50
 2941 0196 2C       		.uleb128 .L137-.LFB1526
 2942 0197 00       		.uleb128 0
 2943              	.LLSDACSE1526:
 2944              		.text
 2945              		.cfi_endproc
 2946              		.section	.text.unlikely
 2947              		.cfi_startproc
 2948              		.cfi_personality 0x9b,DW.ref.__gxx_personality_v0
 2949              		.cfi_lsda 0x1b,.LLSDAC1526
 2951              	_ZN12_GLOBAL__N_130TestCheckEqualWithUnsignedLongD0Ev.cold:
 2952              	.LFSB1526:
 2953              	.L136:
 2954              		.cfi_def_cfa_offset 32
 2955              		.cfi_offset 6, -24
 2956              		.cfi_offset 12, -16
 2957 0190 4889EF   		movq	%rbp, %rdi
 2958 0193 E8000000 		call	_ZdlPv@PLT
 2958      00
 2959 0198 4C89E7   		movq	%r12, %rdi
 2960              	.LEHB51:
 2961 019b E8000000 		call	_Unwind_Resume@PLT
 2961      00
 2962              	.LEHE51:
 2963              		.cfi_endproc
 2964              	.LFE1526:
 2965              		.section	.gcc_except_table
 2966              	.LLSDAC1526:
 2967 0198 FF       		.byte	0xff
 2968 0199 FF       		.byte	0xff
 2969 019a 01       		.byte	0x1
 2970 019b 04       		.uleb128 .LLSDACSEC1526-.LLSDACSBC1526
 2971              	.LLSDACSBC1526:
 2972 019c 0B       		.uleb128 .LEHB51-.LCOLDB25
 2973 019d 05       		.uleb128 .LEHE51-.LEHB51
 2974 019e 00       		.uleb128 0
 2975 019f 00       		.uleb128 0
 2976              	.LLSDACSEC1526:
 2977              		.section	.text.unlikely
 2978              		.text
 2980              		.section	.text.unlikely
 2982              	.LCOLDE25:
 2983              		.text
 2984              	.LHOTE25:
 2985              		.section	.text._ZN17RecordingReporterD2Ev,"axG",@progbits,_ZN17RecordingReporterD5Ev,comdat
 2986              		.align 2
 2987              		.p2align 4
 2988              		.weak	_ZN17RecordingReporterD2Ev
 2990              	_ZN17RecordingReporterD2Ev:
 2991              	.LFB1528:
 2992              		.cfi_startproc
 2993 0000 F30F1EFA 		endbr64
 2994 0004 488D0500 		leaq	16+_ZTV17RecordingReporter(%rip), %rax
 2994      000000
 2995 000b 488907   		movq	%rax, (%rdi)
 2996 000e E9000000 		jmp	_ZN8UnitTest12TestReporterD2Ev@PLT
 2996      00
 2997              		.cfi_endproc
 2998              	.LFE1528:
 3000              		.weak	_ZN17RecordingReporterD1Ev
 3001              		.set	_ZN17RecordingReporterD1Ev,_ZN17RecordingReporterD2Ev
 3002              		.section	.text._ZN17RecordingReporterD0Ev,"axG",@progbits,_ZN17RecordingReporterD5Ev,comdat
 3003              		.align 2
 3004              		.p2align 4
 3005              		.weak	_ZN17RecordingReporterD0Ev
 3007              	_ZN17RecordingReporterD0Ev:
 3008              	.LFB1530:
 3009              		.cfi_startproc
 3010              		.cfi_personality 0x9b,DW.ref.__gxx_personality_v0
 3011              		.cfi_lsda 0x1b,.LLSDA1530
 3012 0000 F30F1EFA 		endbr64
 3013 0004 4154     		pushq	%r12
 3014              		.cfi_def_cfa_offset 16
 3015              		.cfi_offset 12, -16
 3016 0006 488D0500 		leaq	16+_ZTV17RecordingReporter(%rip), %rax
 3016      000000
 3017 000d 55       		pushq	%rbp
 3018              		.cfi_def_cfa_offset 24
 3019              		.cfi_offset 6, -24
 3020 000e 4889FD   		movq	%rdi, %rbp
 3021 0011 4883EC08 		subq	$8, %rsp
 3022              		.cfi_def_cfa_offset 32
 3023 0015 488907   		movq	%rax, (%rdi)
 3024              	.LEHB52:
 3025 0018 E8000000 		call	_ZN8UnitTest12TestReporterD2Ev@PLT
 3025      00
 3026              	.LEHE52:
 3027 001d 4883C408 		addq	$8, %rsp
 3028              		.cfi_remember_state
 3029              		.cfi_def_cfa_offset 24
 3030 0021 4889EF   		movq	%rbp, %rdi
 3031 0024 5D       		popq	%rbp
 3032              		.cfi_def_cfa_offset 16
 3033 0025 415C     		popq	%r12
 3034              		.cfi_def_cfa_offset 8
 3035 0027 E9000000 		jmp	_ZdlPv@PLT
 3035      00
 3036              	.L142:
 3037              		.cfi_restore_state
 3038 002c F30F1EFA 		endbr64
 3039 0030 4989C4   		movq	%rax, %r12
 3040              	.L141:
 3041 0033 4889EF   		movq	%rbp, %rdi
 3042 0036 E8000000 		call	_ZdlPv@PLT
 3042      00
 3043 003b 4C89E7   		movq	%r12, %rdi
 3044              	.LEHB53:
 3045 003e E8000000 		call	_Unwind_Resume@PLT
 3045      00
 3046              	.LEHE53:
 3047              		.cfi_endproc
 3048              	.LFE1530:
 3049              		.section	.gcc_except_table
 3050              	.LLSDA1530:
 3051 01a0 FF       		.byte	0xff
 3052 01a1 FF       		.byte	0xff
 3053 01a2 01       		.byte	0x1
 3054 01a3 08       		.uleb128 .LLSDACSE1530-.LLSDACSB1530
 3055              	.LLSDACSB1530:
 3056 01a4 18       		.uleb128 .LEHB52-.LFB1530
 3057 01a5 05       		.uleb128 .LEHE52-.LEHB52
 3058 01a6 2C       		.uleb128 .L142-.LFB1530
 3059 01a7 00       		.uleb128 0
 3060 01a8 3E       		.uleb128 .LEHB53-.LFB1530
 3061 01a9 05       		.uleb128 .LEHE53-.LEHB53
 3062 01aa 00       		.uleb128 0
 3063 01ab 00       		.uleb128 0
 3064              	.LLSDACSE1530:
 3065              		.section	.text._ZN17RecordingReporterD0Ev,"axG",@progbits,_ZN17RecordingReporterD5Ev,comdat
 3067              		.section	.text._ZN8UnitTest15MemoryOutStreamD1Ev,"axG",@progbits,_ZN8UnitTest15MemoryOutStreamD1Ev
 3068              		.align 2
 3069              		.p2align 4
 3070              		.weak	_ZN8UnitTest15MemoryOutStreamD1Ev
 3072              	_ZN8UnitTest15MemoryOutStreamD1Ev:
 3073              	.LFB1352:
 3074              		.cfi_startproc
 3075 0000 F30F1EFA 		endbr64
 3076 0004 55       		pushq	%rbp
 3077              		.cfi_def_cfa_offset 16
 3078              		.cfi_offset 6, -16
 3079 0005 488D0500 		leaq	24+_ZTVN8UnitTest15MemoryOutStreamE(%rip), %rax
 3079      000000
 3080 000c 53       		pushq	%rbx
 3081              		.cfi_def_cfa_offset 24
 3082              		.cfi_offset 3, -24
 3083 000d 4889FB   		movq	%rdi, %rbx
 3084 0010 4883EC08 		subq	$8, %rsp
 3085              		.cfi_def_cfa_offset 32
 3086 0014 488907   		movq	%rax, (%rdi)
 3087 0017 4883C028 		addq	$40, %rax
 3088 001b 48898790 		movq	%rax, 144(%rdi)
 3088      000000
 3089 0022 488B7F70 		movq	112(%rdi), %rdi
 3090 0026 488D8380 		leaq	128(%rbx), %rax
 3090      000000
 3091 002d 4839C7   		cmpq	%rax, %rdi
 3092 0030 7405     		je	.L145
 3093 0032 E8000000 		call	_ZdlPv@PLT
 3093      00
 3094              	.L145:
 3095 0037 488D0500 		leaq	64+_ZTCN8UnitTest15MemoryOutStreamE0_NSt7__cxx1119basic_ostringstreamIcSt11char_traitsIcESaIc
 3095      000000
 3096 003e 488D1500 		leaq	24+_ZTCN8UnitTest15MemoryOutStreamE0_NSt7__cxx1119basic_ostringstreamIcSt11char_traitsIcESaIc
 3096      000000
 3097 0045 488B7B50 		movq	80(%rbx), %rdi
 3098 0049 48898390 		movq	%rax, 144(%rbx)
 3098      000000
 3099 0050 488D0500 		leaq	16+_ZTVNSt7__cxx1115basic_stringbufIcSt11char_traitsIcESaIcEEE(%rip), %rax
 3099      000000
 3100 0057 66480F6E 		movq	%rdx, %xmm0
 3100      C2
 3101 005c 488DAB90 		leaq	144(%rbx), %rbp
 3101      000000
 3102 0063 66480F6E 		movq	%rax, %xmm1
 3102      C8
 3103 0068 488D4360 		leaq	96(%rbx), %rax
 3104 006c 660F6CC1 		punpcklqdq	%xmm1, %xmm0
 3105 0070 0F1103   		movups	%xmm0, (%rbx)
 3106 0073 4839C7   		cmpq	%rax, %rdi
 3107 0076 7405     		je	.L146
 3108 0078 E8000000 		call	_ZdlPv@PLT
 3108      00
 3109              	.L146:
 3110 007d 488D0500 		leaq	16+_ZTVSt15basic_streambufIcSt11char_traitsIcEE(%rip), %rax
 3110      000000
 3111 0084 488D7B40 		leaq	64(%rbx), %rdi
 3112 0088 48894308 		movq	%rax, 8(%rbx)
 3113 008c E8000000 		call	_ZNSt6localeD1Ev@PLT
 3113      00
 3114 0091 488D0500 		leaq	24+_ZTCN8UnitTest15MemoryOutStreamE0_So(%rip), %rax
 3114      000000
 3115 0098 4889EF   		movq	%rbp, %rdi
 3116 009b 488903   		movq	%rax, (%rbx)
 3117 009e 488D0500 		leaq	16+_ZTVSt9basic_iosIcSt11char_traitsIcEE(%rip), %rax
 3117      000000
 3118 00a5 48898390 		movq	%rax, 144(%rbx)
 3118      000000
 3119 00ac 4883C408 		addq	$8, %rsp
 3120              		.cfi_def_cfa_offset 24
 3121 00b0 5B       		popq	%rbx
 3122              		.cfi_def_cfa_offset 16
 3123 00b1 5D       		popq	%rbp
 3124              		.cfi_def_cfa_offset 8
 3125 00b2 E9000000 		jmp	_ZNSt8ios_baseD2Ev@PLT
 3125      00
 3126              		.cfi_endproc
 3127              	.LFE1352:
 3129 00b7 660F1F84 		.p2align 4
 3129      00000000 
 3129      00
 3130              		.weak	_ZTv0_n24_N8UnitTest15MemoryOutStreamD1Ev
 3132              	_ZTv0_n24_N8UnitTest15MemoryOutStreamD1Ev:
 3133              	.LFB1535:
 3134              		.cfi_startproc
 3135 00c0 F30F1EFA 		endbr64
 3136 00c4 55       		pushq	%rbp
 3137              		.cfi_def_cfa_offset 16
 3138              		.cfi_offset 6, -16
 3139 00c5 53       		pushq	%rbx
 3140              		.cfi_def_cfa_offset 24
 3141              		.cfi_offset 3, -24
 3142 00c6 4889FB   		movq	%rdi, %rbx
 3143 00c9 4883EC08 		subq	$8, %rsp
 3144              		.cfi_def_cfa_offset 32
 3145 00cd 488B07   		movq	(%rdi), %rax
 3146 00d0 480358E8 		addq	-24(%rax), %rbx
 3147 00d4 488D0500 		leaq	24+_ZTVN8UnitTest15MemoryOutStreamE(%rip), %rax
 3147      000000
 3148 00db 488903   		movq	%rax, (%rbx)
 3149 00de 488B7B70 		movq	112(%rbx), %rdi
 3150 00e2 4883C028 		addq	$40, %rax
 3151 00e6 48898390 		movq	%rax, 144(%rbx)
 3151      000000
 3152 00ed 488D8380 		leaq	128(%rbx), %rax
 3152      000000
 3153 00f4 4839C7   		cmpq	%rax, %rdi
 3154 00f7 7405     		je	.L149
 3155 00f9 E8000000 		call	_ZdlPv@PLT
 3155      00
 3156              	.L149:
 3157 00fe 488D0500 		leaq	64+_ZTCN8UnitTest15MemoryOutStreamE0_NSt7__cxx1119basic_ostringstreamIcSt11char_traitsIcESaIc
 3157      000000
 3158 0105 488D1500 		leaq	24+_ZTCN8UnitTest15MemoryOutStreamE0_NSt7__cxx1119basic_ostringstreamIcSt11char_traitsIcESaIc
 3158      000000
 3159 010c 488B7B50 		movq	80(%rbx), %rdi
 3160 0110 48898390 		movq	%rax, 144(%rbx)
 3160      000000
 3161 0117 488D0500 		leaq	16+_ZTVNSt7__cxx1115basic_stringbufIcSt11char_traitsIcESaIcEEE(%rip), %rax
 3161      000000
 3162 011e 66480F6E 		movq	%rdx, %xmm0
 3162      C2
 3163 0123 488DAB90 		leaq	144(%rbx), %rbp
 3163      000000
 3164 012a 66480F6E 		movq	%rax, %xmm1
 3164      C8
 3165 012f 488D4360 		leaq	96(%rbx), %rax
 3166 0133 660F6CC1 		punpcklqdq	%xmm1, %xmm0
 3167 0137 0F1103   		movups	%xmm0, (%rbx)
 3168 013a 4839C7   		cmpq	%rax, %rdi
 3169 013d 7405     		je	.L150
 3170 013f E8000000 		call	_ZdlPv@PLT
 3170      00
 3171              	.L150:
 3172 0144 488D0500 		leaq	16+_ZTVSt15basic_streambufIcSt11char_traitsIcEE(%rip), %rax
 3172      000000
 3173 014b 488D7B40 		leaq	64(%rbx), %rdi
 3174 014f 48894308 		movq	%rax, 8(%rbx)
 3175 0153 E8000000 		call	_ZNSt6localeD1Ev@PLT
 3175      00
 3176 0158 488D0500 		leaq	24+_ZTCN8UnitTest15MemoryOutStreamE0_So(%rip), %rax
 3176      000000
 3177 015f 4889EF   		movq	%rbp, %rdi
 3178 0162 488903   		movq	%rax, (%rbx)
 3179 0165 488D0500 		leaq	16+_ZTVSt9basic_iosIcSt11char_traitsIcEE(%rip), %rax
 3179      000000
 3180 016c 48898390 		movq	%rax, 144(%rbx)
 3180      000000
 3181 0173 4883C408 		addq	$8, %rsp
 3182              		.cfi_def_cfa_offset 24
 3183 0177 5B       		popq	%rbx
 3184              		.cfi_def_cfa_offset 16
 3185 0178 5D       		popq	%rbp
 3186              		.cfi_def_cfa_offset 8
 3187 0179 E9000000 		jmp	_ZNSt8ios_baseD2Ev@PLT
 3187      00
 3188              		.cfi_endproc
 3189              	.LFE1535:
 3191              		.section	.text._ZN8UnitTest15MemoryOutStreamD0Ev,"axG",@progbits,_ZN8UnitTest15MemoryOutStreamD0Ev
 3192              		.align 2
 3193              		.p2align 4
 3194              		.weak	_ZN8UnitTest15MemoryOutStreamD0Ev
 3196              	_ZN8UnitTest15MemoryOutStreamD0Ev:
 3197              	.LFB1353:
 3198              		.cfi_startproc
 3199              		.cfi_personality 0x9b,DW.ref.__gxx_personality_v0
 3200              		.cfi_lsda 0x1b,.LLSDA1353
 3201 0000 F30F1EFA 		endbr64
 3202 0004 4154     		pushq	%r12
 3203              		.cfi_def_cfa_offset 16
 3204              		.cfi_offset 12, -16
 3205 0006 488D0500 		leaq	24+_ZTVN8UnitTest15MemoryOutStreamE(%rip), %rax
 3205      000000
 3206 000d 55       		pushq	%rbp
 3207              		.cfi_def_cfa_offset 24
 3208              		.cfi_offset 6, -24
 3209 000e 4889FD   		movq	%rdi, %rbp
 3210 0011 4883EC08 		subq	$8, %rsp
 3211              		.cfi_def_cfa_offset 32
 3212 0015 488907   		movq	%rax, (%rdi)
 3213 0018 4883C028 		addq	$40, %rax
 3214 001c 48898790 		movq	%rax, 144(%rdi)
 3214      000000
 3215 0023 488B7F70 		movq	112(%rdi), %rdi
 3216 0027 488D8580 		leaq	128(%rbp), %rax
 3216      000000
 3217 002e 4839C7   		cmpq	%rax, %rdi
 3218 0031 7405     		je	.L153
 3219 0033 E8000000 		call	_ZdlPv@PLT
 3219      00
 3220              	.L153:
 3221 0038 488D0500 		leaq	64+_ZTCN8UnitTest15MemoryOutStreamE0_NSt7__cxx1119basic_ostringstreamIcSt11char_traitsIcESaIc
 3221      000000
 3222 003f 488D1500 		leaq	24+_ZTCN8UnitTest15MemoryOutStreamE0_NSt7__cxx1119basic_ostringstreamIcSt11char_traitsIcESaIc
 3222      000000
 3223 0046 488B7D50 		movq	80(%rbp), %rdi
 3224 004a 48898590 		movq	%rax, 144(%rbp)
 3224      000000
 3225 0051 488D0500 		leaq	16+_ZTVNSt7__cxx1115basic_stringbufIcSt11char_traitsIcESaIcEEE(%rip), %rax
 3225      000000
 3226 0058 66480F6E 		movq	%rdx, %xmm0
 3226      C2
 3227 005d 4C8DA590 		leaq	144(%rbp), %r12
 3227      000000
 3228 0064 66480F6E 		movq	%rax, %xmm1
 3228      C8
 3229 0069 488D4560 		leaq	96(%rbp), %rax
 3230 006d 660F6CC1 		punpcklqdq	%xmm1, %xmm0
 3231 0071 0F114500 		movups	%xmm0, 0(%rbp)
 3232 0075 4839C7   		cmpq	%rax, %rdi
 3233 0078 7405     		je	.L154
 3234 007a E8000000 		call	_ZdlPv@PLT
 3234      00
 3235              	.L154:
 3236 007f 488D0500 		leaq	16+_ZTVSt15basic_streambufIcSt11char_traitsIcEE(%rip), %rax
 3236      000000
 3237 0086 488D7D40 		leaq	64(%rbp), %rdi
 3238 008a 48894508 		movq	%rax, 8(%rbp)
 3239 008e E8000000 		call	_ZNSt6localeD1Ev@PLT
 3239      00
 3240 0093 488D0500 		leaq	24+_ZTCN8UnitTest15MemoryOutStreamE0_So(%rip), %rax
 3240      000000
 3241 009a 4C89E7   		movq	%r12, %rdi
 3242 009d 48894500 		movq	%rax, 0(%rbp)
 3243 00a1 488D0500 		leaq	16+_ZTVSt9basic_iosIcSt11char_traitsIcEE(%rip), %rax
 3243      000000
 3244 00a8 48898590 		movq	%rax, 144(%rbp)
 3244      000000
 3245              	.LEHB54:
 3246 00af E8000000 		call	_ZNSt8ios_baseD2Ev@PLT
 3246      00
 3247              	.LEHE54:
 3248 00b4 4883C408 		addq	$8, %rsp
 3249              		.cfi_remember_state
 3250              		.cfi_def_cfa_offset 24
 3251 00b8 4889EF   		movq	%rbp, %rdi
 3252 00bb 5D       		popq	%rbp
 3253              		.cfi_def_cfa_offset 16
 3254 00bc 415C     		popq	%r12
 3255              		.cfi_def_cfa_offset 8
 3256 00be E9000000 		jmp	_ZdlPv@PLT
 3256      00
 3257              	.L156:
 3258              		.cfi_restore_state
 3259 00c3 F30F1EFA 		endbr64
 3260 00c7 4989C4   		movq	%rax, %r12
 3261              	.L155:
 3262 00ca 4889EF   		movq	%rbp, %rdi
 3263 00cd E8000000 		call	_ZdlPv@PLT
 3263      00
 3264 00d2 4C89E7   		movq	%r12, %rdi
 3265              	.LEHB55:
 3266 00d5 E8000000 		call	_Unwind_Resume@PLT
 3266      00
 3267              	.LEHE55:
 3268              		.cfi_endproc
 3269              	.LFE1353:
 3270              		.section	.gcc_except_table
 3271              	.LLSDA1353:
 3272 01ac FF       		.byte	0xff
 3273 01ad FF       		.byte	0xff
 3274 01ae 01       		.byte	0x1
 3275 01af 0B       		.uleb128 .LLSDACSE1353-.LLSDACSB1353
 3276              	.LLSDACSB1353:
 3277 01b0 AF01     		.uleb128 .LEHB54-.LFB1353
 3278 01b2 05       		.uleb128 .LEHE54-.LEHB54
 3279 01b3 C301     		.uleb128 .L156-.LFB1353
 3280 01b5 00       		.uleb128 0
 3281 01b6 D501     		.uleb128 .LEHB55-.LFB1353
 3282 01b8 05       		.uleb128 .LEHE55-.LEHB55
 3283 01b9 00       		.uleb128 0
 3284 01ba 00       		.uleb128 0
 3285              	.LLSDACSE1353:
 3286              		.section	.text._ZN8UnitTest15MemoryOutStreamD0Ev,"axG",@progbits,_ZN8UnitTest15MemoryOutStreamD0Ev
 3288 00da 660F1F44 		.p2align 4
 3288      0000
 3289              		.weak	_ZTv0_n24_N8UnitTest15MemoryOutStreamD0Ev
 3291              	_ZTv0_n24_N8UnitTest15MemoryOutStreamD0Ev:
 3292              	.LFB1534:
 3293              		.cfi_startproc
 3294              		.cfi_personality 0x9b,DW.ref.__gxx_personality_v0
 3295              		.cfi_lsda 0x1b,.LLSDA1534
 3296 00e0 F30F1EFA 		endbr64
 3297 00e4 4154     		pushq	%r12
 3298              		.cfi_def_cfa_offset 16
 3299              		.cfi_offset 12, -16
 3300 00e6 55       		pushq	%rbp
 3301              		.cfi_def_cfa_offset 24
 3302              		.cfi_offset 6, -24
 3303 00e7 4889FD   		movq	%rdi, %rbp
 3304 00ea 4883EC08 		subq	$8, %rsp
 3305              		.cfi_def_cfa_offset 32
 3306 00ee 488B07   		movq	(%rdi), %rax
 3307 00f1 480368E8 		addq	-24(%rax), %rbp
 3308 00f5 488D0500 		leaq	24+_ZTVN8UnitTest15MemoryOutStreamE(%rip), %rax
 3308      000000
 3309 00fc 48894500 		movq	%rax, 0(%rbp)
 3310 0100 488B7D70 		movq	112(%rbp), %rdi
 3311 0104 4883C028 		addq	$40, %rax
 3312 0108 48898590 		movq	%rax, 144(%rbp)
 3312      000000
 3313 010f 488D8580 		leaq	128(%rbp), %rax
 3313      000000
 3314 0116 4839C7   		cmpq	%rax, %rdi
 3315 0119 7405     		je	.L159
 3316 011b E8000000 		call	_ZdlPv@PLT
 3316      00
 3317              	.L159:
 3318 0120 488D0500 		leaq	64+_ZTCN8UnitTest15MemoryOutStreamE0_NSt7__cxx1119basic_ostringstreamIcSt11char_traitsIcESaIc
 3318      000000
 3319 0127 488D1500 		leaq	24+_ZTCN8UnitTest15MemoryOutStreamE0_NSt7__cxx1119basic_ostringstreamIcSt11char_traitsIcESaIc
 3319      000000
 3320 012e 488B7D50 		movq	80(%rbp), %rdi
 3321 0132 48898590 		movq	%rax, 144(%rbp)
 3321      000000
 3322 0139 488D0500 		leaq	16+_ZTVNSt7__cxx1115basic_stringbufIcSt11char_traitsIcESaIcEEE(%rip), %rax
 3322      000000
 3323 0140 66480F6E 		movq	%rdx, %xmm0
 3323      C2
 3324 0145 4C8DA590 		leaq	144(%rbp), %r12
 3324      000000
 3325 014c 66480F6E 		movq	%rax, %xmm1
 3325      C8
 3326 0151 488D4560 		leaq	96(%rbp), %rax
 3327 0155 660F6CC1 		punpcklqdq	%xmm1, %xmm0
 3328 0159 0F114500 		movups	%xmm0, 0(%rbp)
 3329 015d 4839C7   		cmpq	%rax, %rdi
 3330 0160 7405     		je	.L160
 3331 0162 E8000000 		call	_ZdlPv@PLT
 3331      00
 3332              	.L160:
 3333 0167 488D0500 		leaq	16+_ZTVSt15basic_streambufIcSt11char_traitsIcEE(%rip), %rax
 3333      000000
 3334 016e 488D7D40 		leaq	64(%rbp), %rdi
 3335 0172 48894508 		movq	%rax, 8(%rbp)
 3336 0176 E8000000 		call	_ZNSt6localeD1Ev@PLT
 3336      00
 3337 017b 488D0500 		leaq	24+_ZTCN8UnitTest15MemoryOutStreamE0_So(%rip), %rax
 3337      000000
 3338 0182 4C89E7   		movq	%r12, %rdi
 3339 0185 48894500 		movq	%rax, 0(%rbp)
 3340 0189 488D0500 		leaq	16+_ZTVSt9basic_iosIcSt11char_traitsIcEE(%rip), %rax
 3340      000000
 3341 0190 48898590 		movq	%rax, 144(%rbp)
 3341      000000
 3342              	.LEHB56:
 3343 0197 E8000000 		call	_ZNSt8ios_baseD2Ev@PLT
 3343      00
 3344              	.LEHE56:
 3345 019c 4883C408 		addq	$8, %rsp
 3346              		.cfi_remember_state
 3347              		.cfi_def_cfa_offset 24
 3348 01a0 4889EF   		movq	%rbp, %rdi
 3349 01a3 5D       		popq	%rbp
 3350              		.cfi_def_cfa_offset 16
 3351 01a4 415C     		popq	%r12
 3352              		.cfi_def_cfa_offset 8
 3353 01a6 E9000000 		jmp	_ZdlPv@PLT
 3353      00
 3354              	.L162:
 3355              		.cfi_restore_state
 3356 01ab F30F1EFA 		endbr64
 3357 01af 4989C4   		movq	%rax, %r12
 3358              	.L161:
 3359 01b2 4889EF   		movq	%rbp, %rdi
 3360 01b5 E8000000 		call	_ZdlPv@PLT
 3360      00
 3361 01ba 4C89E7   		movq	%r12, %rdi
 3362              	.LEHB57:
 3363 01bd E8000000 		call	_Unwind_Resume@PLT
 3363      00
 3364              	.LEHE57:
 3365              		.cfi_endproc
 3366              	.LFE1534:
 3367              		.section	.gcc_except_table
 3368              	.LLSDA1534:
 3369 01bb FF       		.byte	0xff
 3370 01bc FF       		.byte	0xff
 3371 01bd 01       		.byte	0x1
 3372 01be 0B       		.uleb128 .LLSDACSE1534-.LLSDACSB1534
 3373              	.LLSDACSB1534:
 3374 01bf B701     		.uleb128 .LEHB56-.LFB1534
 3375 01c1 05       		.uleb128 .LEHE56-.LEHB56
 3376 01c2 CB01     		.uleb128 .L162-.LFB1534
 3377 01c4 00       		.uleb128 0
 3378 01c5 DD01     		.uleb128 .LEHB57-.LFB1534
 3379 01c7 05       		.uleb128 .LEHE57-.LEHB57
 3380 01c8 00       		.uleb128 0
 3381 01c9 00       		.uleb128 0
 3382              	.LLSDACSE1534:
 3383              		.section	.text._ZN8UnitTest15MemoryOutStreamD0Ev,"axG",@progbits,_ZN8UnitTest15MemoryOutStreamD0Ev
 3385              		.section	.text._ZNSt7__cxx1115basic_stringbufIcSt11char_traitsIcESaIcEED2Ev,"axG",@progbits,_ZNSt7
 3386              		.align 2
 3387              		.p2align 4
 3388              		.weak	_ZNSt7__cxx1115basic_stringbufIcSt11char_traitsIcESaIcEED2Ev
 3390              	_ZNSt7__cxx1115basic_stringbufIcSt11char_traitsIcESaIcEED2Ev:
 3391              	.LFB1331:
 3392              		.cfi_startproc
 3393 0000 F30F1EFA 		endbr64
 3394 0004 488D0500 		leaq	16+_ZTVNSt7__cxx1115basic_stringbufIcSt11char_traitsIcESaIcEEE(%rip), %rax
 3394      000000
 3395 000b 53       		pushq	%rbx
 3396              		.cfi_def_cfa_offset 16
 3397              		.cfi_offset 3, -16
 3398 000c 4889FB   		movq	%rdi, %rbx
 3399 000f 488907   		movq	%rax, (%rdi)
 3400 0012 488B7F48 		movq	72(%rdi), %rdi
 3401 0016 488D4358 		leaq	88(%rbx), %rax
 3402 001a 4839C7   		cmpq	%rax, %rdi
 3403 001d 7405     		je	.L165
 3404 001f E8000000 		call	_ZdlPv@PLT
 3404      00
 3405              	.L165:
 3406 0024 488D0500 		leaq	16+_ZTVSt15basic_streambufIcSt11char_traitsIcEE(%rip), %rax
 3406      000000
 3407 002b 488D7B38 		leaq	56(%rbx), %rdi
 3408 002f 488903   		movq	%rax, (%rbx)
 3409 0032 5B       		popq	%rbx
 3410              		.cfi_def_cfa_offset 8
 3411 0033 E9000000 		jmp	_ZNSt6localeD1Ev@PLT
 3411      00
 3412              		.cfi_endproc
 3413              	.LFE1331:
 3415              		.weak	_ZNSt7__cxx1115basic_stringbufIcSt11char_traitsIcESaIcEED1Ev
 3416              		.set	_ZNSt7__cxx1115basic_stringbufIcSt11char_traitsIcESaIcEED1Ev,_ZNSt7__cxx1115basic_stringbufIc
 3417              		.section	.rodata.str1.1,"aMS",@progbits,1
 3418              	.LC26:
 3419 0000 45787065 		.string	"Expected [ "
 3419      63746564 
 3419      205B2000 
 3420              	.LC27:
 3421 000c 5B2000   		.string	"[ "
 3422              	.LC28:
 3423 000f 2000     		.string	" "
 3424              	.LC29:
 3425 0011 5D2000   		.string	"] "
 3426              	.LC30:
 3427 0014 5D202B2F 		.string	"] +/- "
 3427      2D2000
 3428              	.LC31:
 3429 001b 20627574 		.string	" but was [ "
 3429      20776173 
 3429      205B2000 
 3430              	.LC32:
 3431 0027 5D00     		.string	"]"
 3432              		.section	.text.unlikely
 3433              	.LCOLDB36:
 3434              		.text
 3435              	.LHOTB36:
 3436 09b8 0F1F8400 		.p2align 4
 3436      00000000 
 3438              	_ZN8UnitTest17CheckArray2DCloseIA3_A3_fS2_fEEvRNS_11TestResultsERKT_RKT0_iiRKT1_RKNS_11TestDetailsE
 3439              	.LFB1539:
 3440              		.cfi_startproc
 3441              		.cfi_personality 0x9b,DW.ref.__gxx_personality_v0
 3442              		.cfi_lsda 0x1b,.LLSDA1539
 3443 09c0 4157     		pushq	%r15
 3444              		.cfi_def_cfa_offset 16
 3445              		.cfi_offset 15, -16
 3446 09c2 4156     		pushq	%r14
 3447              		.cfi_def_cfa_offset 24
 3448              		.cfi_offset 14, -24
 3449 09c4 4155     		pushq	%r13
 3450              		.cfi_def_cfa_offset 32
 3451              		.cfi_offset 13, -32
 3452 09c6 4154     		pushq	%r12
 3453              		.cfi_def_cfa_offset 40
 3454              		.cfi_offset 12, -40
 3455 09c8 55       		pushq	%rbp
 3456              		.cfi_def_cfa_offset 48
 3457              		.cfi_offset 6, -48
 3458 09c9 4889F5   		movq	%rsi, %rbp
 3459 09cc 53       		pushq	%rbx
 3460              		.cfi_def_cfa_offset 56
 3461              		.cfi_offset 3, -56
 3462 09cd 4889D3   		movq	%rdx, %rbx
 3463 09d0 4881ECF8 		subq	$504, %rsp
 3463      010000
 3464              		.cfi_def_cfa_offset 560
 3465 09d7 F30F100E 		movss	(%rsi), %xmm1
 3466 09db F30F1001 		movss	(%rcx), %xmm0
 3467 09df 48897C24 		movq	%rdi, 24(%rsp)
 3467      18
 3468 09e4 F30F1012 		movss	(%rdx), %xmm2
 3469 09e8 0F28D9   		movaps	%xmm1, %xmm3
 3470 09eb 48894C24 		movq	%rcx, 32(%rsp)
 3470      20
 3471 09f0 F30F7E25 		movq	.LC33(%rip), %xmm4
 3471      00000000 
 3472 09f8 4C894424 		movq	%r8, 40(%rsp)
 3472      28
 3473 09fd F30F5CD8 		subss	%xmm0, %xmm3
 3474 0a01 0F162500 		movhps	.LC34(%rip), %xmm4
 3474      000000
 3475 0a08 64488B04 		movq	%fs:40, %rax
 3475      25280000 
 3475      00
 3476 0a11 48898424 		movq	%rax, 488(%rsp)
 3476      E8010000 
 3477 0a19 31C0     		xorl	%eax, %eax
 3478 0a1b 31C0     		xorl	%eax, %eax
 3479 0a1d 0F2FD3   		comiss	%xmm3, %xmm2
 3480 0a20 0F292424 		movaps	%xmm4, (%rsp)
 3481 0a24 720A     		jb	.L168
 3482 0a26 F30F58C8 		addss	%xmm0, %xmm1
 3483 0a2a 0F2FCA   		comiss	%xmm2, %xmm1
 3484 0a2d 0F93C0   		setnb	%al
 3485              	.L168:
 3486 0a30 F30F104D 		movss	4(%rbp), %xmm1
 3486      04
 3487 0a35 F30F1053 		movss	4(%rbx), %xmm2
 3487      04
 3488 0a3a 0F28D9   		movaps	%xmm1, %xmm3
 3489 0a3d F30F5CD8 		subss	%xmm0, %xmm3
 3490 0a41 0F2FD3   		comiss	%xmm3, %xmm2
 3491 0a44 0F82C604 		jb	.L237
 3491      0000
 3492 0a4a F30F58C8 		addss	%xmm0, %xmm1
 3493 0a4e 31D2     		xorl	%edx, %edx
 3494 0a50 0F2FCA   		comiss	%xmm2, %xmm1
 3495 0a53 0F42C2   		cmovb	%edx, %eax
 3496              	.L170:
 3497 0a56 F30F104D 		movss	8(%rbp), %xmm1
 3497      08
 3498 0a5b F30F1053 		movss	8(%rbx), %xmm2
 3498      08
 3499 0a60 0F28D9   		movaps	%xmm1, %xmm3
 3500 0a63 F30F5CD8 		subss	%xmm0, %xmm3
 3501 0a67 0F2FD3   		comiss	%xmm3, %xmm2
 3502 0a6a 0F829004 		jb	.L238
 3502      0000
 3503 0a70 F30F58C8 		addss	%xmm0, %xmm1
 3504 0a74 31D2     		xorl	%edx, %edx
 3505 0a76 0F2FCA   		comiss	%xmm2, %xmm1
 3506 0a79 0F42C2   		cmovb	%edx, %eax
 3507              	.L173:
 3508 0a7c F30F104D 		movss	12(%rbp), %xmm1
 3508      0C
 3509 0a81 F30F1053 		movss	12(%rbx), %xmm2
 3509      0C
 3510 0a86 31D2     		xorl	%edx, %edx
 3511 0a88 0F28D9   		movaps	%xmm1, %xmm3
 3512 0a8b F30F5CD8 		subss	%xmm0, %xmm3
 3513 0a8f 0F2FD3   		comiss	%xmm3, %xmm2
 3514 0a92 720A     		jb	.L175
 3515 0a94 F30F58C8 		addss	%xmm0, %xmm1
 3516 0a98 0F2FCA   		comiss	%xmm2, %xmm1
 3517 0a9b 0F93C2   		setnb	%dl
 3518              	.L175:
 3519 0a9e F30F104D 		movss	16(%rbp), %xmm1
 3519      10
 3520 0aa3 F30F1053 		movss	16(%rbx), %xmm2
 3520      10
 3521 0aa8 0F28D9   		movaps	%xmm1, %xmm3
 3522 0aab F30F5CD8 		subss	%xmm0, %xmm3
 3523 0aaf 0F2FD3   		comiss	%xmm3, %xmm2
 3524 0ab2 0F823804 		jb	.L240
 3524      0000
 3525 0ab8 F30F58C8 		addss	%xmm0, %xmm1
 3526 0abc 31C9     		xorl	%ecx, %ecx
 3527 0abe 0F2FCA   		comiss	%xmm2, %xmm1
 3528 0ac1 0F42D1   		cmovb	%ecx, %edx
 3529              	.L177:
 3530 0ac4 F30F104D 		movss	20(%rbp), %xmm1
 3530      14
 3531 0ac9 F30F1053 		movss	20(%rbx), %xmm2
 3531      14
 3532 0ace 0F28D9   		movaps	%xmm1, %xmm3
 3533 0ad1 F30F5CD8 		subss	%xmm0, %xmm3
 3534 0ad5 0F2FD3   		comiss	%xmm3, %xmm2
 3535 0ad8 0F820204 		jb	.L241
 3535      0000
 3536 0ade F30F58C8 		addss	%xmm0, %xmm1
 3537 0ae2 21D0     		andl	%edx, %eax
 3538 0ae4 31D2     		xorl	%edx, %edx
 3539 0ae6 0F2FCA   		comiss	%xmm2, %xmm1
 3540 0ae9 0F42C2   		cmovb	%edx, %eax
 3541              	.L180:
 3542 0aec F30F104D 		movss	24(%rbp), %xmm1
 3542      18
 3543 0af1 F30F1053 		movss	24(%rbx), %xmm2
 3543      18
 3544 0af6 31D2     		xorl	%edx, %edx
 3545 0af8 0F28D9   		movaps	%xmm1, %xmm3
 3546 0afb F30F5CD8 		subss	%xmm0, %xmm3
 3547 0aff 0F2FD3   		comiss	%xmm3, %xmm2
 3548 0b02 720A     		jb	.L183
 3549 0b04 F30F58C8 		addss	%xmm0, %xmm1
 3550 0b08 0F2FCA   		comiss	%xmm2, %xmm1
 3551 0b0b 0F93C2   		setnb	%dl
 3552              	.L183:
 3553 0b0e F30F104D 		movss	28(%rbp), %xmm1
 3553      1C
 3554 0b13 F30F1053 		movss	28(%rbx), %xmm2
 3554      1C
 3555 0b18 0F28D9   		movaps	%xmm1, %xmm3
 3556 0b1b F30F5CD8 		subss	%xmm0, %xmm3
 3557 0b1f 0F2FD3   		comiss	%xmm3, %xmm2
 3558 0b22 0F82B003 		jb	.L243
 3558      0000
 3559 0b28 F30F58C8 		addss	%xmm0, %xmm1
 3560 0b2c 31C9     		xorl	%ecx, %ecx
 3561 0b2e 0F2FCA   		comiss	%xmm2, %xmm1
 3562 0b31 0F42D1   		cmovb	%ecx, %edx
 3563              	.L185:
 3564 0b34 F30F1055 		movss	32(%rbp), %xmm2
 3564      20
 3565 0b39 F30F104B 		movss	32(%rbx), %xmm1
 3565      20
 3566 0b3e 0F28DA   		movaps	%xmm2, %xmm3
 3567 0b41 F30F5CD8 		subss	%xmm0, %xmm3
 3568 0b45 0F2FCB   		comiss	%xmm3, %xmm1
 3569 0b48 0F834203 		jnb	.L247
 3569      0000
 3570              	.L187:
 3571 0b4e 4C8DBC24 		leaq	224(%rsp), %r15
 3571      E0000000 
 3572 0b56 4C89FF   		movq	%r15, %rdi
 3573 0b59 4C897C24 		movq	%r15, 48(%rsp)
 3573      30
 3574 0b5e E8000000 		call	_ZNSt8ios_baseC2Ev@PLT
 3574      00
 3575 0b63 31C0     		xorl	%eax, %eax
 3576 0b65 660FEFC0 		pxor	%xmm0, %xmm0
 3577 0b69 31F6     		xorl	%esi, %esi
 3578 0b6b 66898424 		movw	%ax, 448(%rsp)
 3578      C0010000 
 3579 0b73 488D0500 		leaq	24+_ZTCN8UnitTest15MemoryOutStreamE0_So(%rip), %rax
 3579      000000
 3580 0b7a 4C89FF   		movq	%r15, %rdi
 3581 0b7d 48894424 		movq	%rax, 80(%rsp)
 3581      50
 3582 0b82 4883C028 		addq	$40, %rax
 3583 0b86 48C78424 		movq	$0, 440(%rsp)
 3583      B8010000 
 3583      00000000 
 3584 0b92 48898424 		movq	%rax, 224(%rsp)
 3584      E0000000 
 3585 0b9a 0F118424 		movups	%xmm0, 456(%rsp)
 3585      C8010000 
 3586 0ba2 0F118424 		movups	%xmm0, 472(%rsp)
 3586      D8010000 
 3587              	.LEHB58:
 3588 0baa E8000000 		call	_ZNSt9basic_iosIcSt11char_traitsIcEE4initEPSt15basic_streambufIcS1_E@PLT
 3588      00
 3589              	.LEHE58:
 3590 0baf 488D0500 		leaq	64+_ZTCN8UnitTest15MemoryOutStreamE0_NSt7__cxx1119basic_ostringstreamIcSt11char_traitsIcESaIc
 3590      000000
 3591 0bb6 660F6F2C 		movdqa	(%rsp), %xmm5
 3591      24
 3592 0bbb 660FEFC0 		pxor	%xmm0, %xmm0
 3593 0bbf 4C8D6C24 		leaq	80(%rsp), %r13
 3593      50
 3594 0bc4 48898424 		movq	%rax, 224(%rsp)
 3594      E0000000 
 3595 0bcc 488D8424 		leaq	144(%rsp), %rax
 3595      90000000 
 3596 0bd4 4C8D6424 		leaq	88(%rsp), %r12
 3596      58
 3597 0bd9 4889C7   		movq	%rax, %rdi
 3598 0bdc 48894424 		movq	%rax, 56(%rsp)
 3598      38
 3599 0be1 0F296C24 		movaps	%xmm5, 80(%rsp)
 3599      50
 3600 0be6 0F294424 		movaps	%xmm0, 96(%rsp)
 3600      60
 3601 0beb 0F294424 		movaps	%xmm0, 112(%rsp)
 3601      70
 3602 0bf0 0F298424 		movaps	%xmm0, 128(%rsp)
 3602      80000000 
 3603 0bf8 E8000000 		call	_ZNSt6localeC1Ev@PLT
 3603      00
 3604 0bfd 488D0500 		leaq	16+_ZTVNSt7__cxx1115basic_stringbufIcSt11char_traitsIcESaIcEEE(%rip), %rax
 3604      000000
 3605 0c04 C68424B0 		movb	$0, 176(%rsp)
 3605      00000000 
 3606 0c0c 4C89E6   		movq	%r12, %rsi
 3607 0c0f 48894424 		movq	%rax, 88(%rsp)
 3607      58
 3608 0c14 488D8424 		leaq	176(%rsp), %rax
 3608      B0000000 
 3609 0c1c 48894424 		movq	%rax, 64(%rsp)
 3609      40
 3610 0c21 48898424 		movq	%rax, 160(%rsp)
 3610      A0000000 
 3611 0c29 488B4424 		movq	80(%rsp), %rax
 3611      50
 3612 0c2e 48C78424 		movq	$0, 168(%rsp)
 3612      A8000000 
 3612      00000000 
 3613 0c3a C7842498 		movl	$16, 152(%rsp)
 3613      00000010 
 3613      000000
 3614 0c45 488B78E8 		movq	-24(%rax), %rdi
 3615 0c49 4C01EF   		addq	%r13, %rdi
 3616              	.LEHB59:
 3617 0c4c E8000000 		call	_ZNSt9basic_iosIcSt11char_traitsIcEE4initEPSt15basic_streambufIcS1_E@PLT
 3617      00
 3618              	.LEHE59:
 3619 0c51 488D0500 		leaq	24+_ZTVN8UnitTest15MemoryOutStreamE(%rip), %rax
 3619      000000
 3620 0c58 BA0B0000 		movl	$11, %edx
 3620      00
 3621 0c5d 4C89EF   		movq	%r13, %rdi
 3622 0c60 48C78424 		movq	$0, 200(%rsp)
 3622      C8000000 
 3622      00000000 
 3623 0c6c 48894424 		movq	%rax, 80(%rsp)
 3623      50
 3624 0c71 4883C028 		addq	$40, %rax
 3625 0c75 488D3500 		leaq	.LC26(%rip), %rsi
 3625      000000
 3626 0c7c 48898424 		movq	%rax, 224(%rsp)
 3626      E0000000 
 3627 0c84 488D8424 		leaq	208(%rsp), %rax
 3627      D0000000 
 3628 0c8c 48894424 		movq	%rax, 72(%rsp)
 3628      48
 3629 0c91 48898424 		movq	%rax, 192(%rsp)
 3629      C0000000 
 3630 0c99 C68424D0 		movb	$0, 208(%rsp)
 3630      00000000 
 3631              	.LEHB60:
 3632 0ca1 E8000000 		call	_ZSt16__ostream_insertIcSt11char_traitsIcEERSt13basic_ostreamIT_T0_ES6_PKS3_l@PLT
 3632      00
 3633 0ca6 488D4524 		leaq	36(%rbp), %rax
 3634 0caa 4C8D3500 		leaq	.LC28(%rip), %r14
 3634      000000
 3635 0cb1 48890424 		movq	%rax, (%rsp)
 3636 0cb5 4C8D3D00 		leaq	.LC29(%rip), %r15
 3636      000000
 3637              	.L197:
 3638 0cbc BA020000 		movl	$2, %edx
 3638      00
 3639 0cc1 488D3500 		leaq	.LC27(%rip), %rsi
 3639      000000
 3640 0cc8 4C89EF   		movq	%r13, %rdi
 3641 0ccb E8000000 		call	_ZSt16__ostream_insertIcSt11char_traitsIcEERSt13basic_ostreamIT_T0_ES6_PKS3_l@PLT
 3641      00
 3642 0cd0 4531E4   		xorl	%r12d, %r12d
 3643              	.L196:
 3644 0cd3 660FEFC0 		pxor	%xmm0, %xmm0
 3645 0cd7 4C89EF   		movq	%r13, %rdi
 3646 0cda F3420F5A 		cvtss2sd	0(%rbp,%r12,4), %xmm0
 3646      44A500
 3647 0ce1 E8000000 		call	_ZNSo9_M_insertIdEERSoT_@PLT
 3647      00
 3648 0ce6 4889C7   		movq	%rax, %rdi
 3649 0ce9 BA010000 		movl	$1, %edx
 3649      00
 3650 0cee 4C89F6   		movq	%r14, %rsi
 3651 0cf1 E8000000 		call	_ZSt16__ostream_insertIcSt11char_traitsIcEERSt13basic_ostreamIT_T0_ES6_PKS3_l@PLT
 3651      00
 3652 0cf6 4983C401 		addq	$1, %r12
 3653 0cfa 4983FC03 		cmpq	$3, %r12
 3654 0cfe 75D3     		jne	.L196
 3655 0d00 BA020000 		movl	$2, %edx
 3655      00
 3656 0d05 4C89FE   		movq	%r15, %rsi
 3657 0d08 4C89EF   		movq	%r13, %rdi
 3658 0d0b E8000000 		call	_ZSt16__ostream_insertIcSt11char_traitsIcEERSt13basic_ostreamIT_T0_ES6_PKS3_l@PLT
 3658      00
 3659 0d10 4883C50C 		addq	$12, %rbp
 3660 0d14 483B2C24 		cmpq	(%rsp), %rbp
 3661 0d18 75A2     		jne	.L197
 3662 0d1a BA060000 		movl	$6, %edx
 3662      00
 3663 0d1f 488D3500 		leaq	.LC30(%rip), %rsi
 3663      000000
 3664 0d26 4C89EF   		movq	%r13, %rdi
 3665 0d29 E8000000 		call	_ZSt16__ostream_insertIcSt11char_traitsIcEERSt13basic_ostreamIT_T0_ES6_PKS3_l@PLT
 3665      00
 3666 0d2e 488B4424 		movq	32(%rsp), %rax
 3666      20
 3667 0d33 660FEFC0 		pxor	%xmm0, %xmm0
 3668 0d37 4C89EF   		movq	%r13, %rdi
 3669 0d3a F30F5A00 		cvtss2sd	(%rax), %xmm0
 3670 0d3e E8000000 		call	_ZNSo9_M_insertIdEERSoT_@PLT
 3670      00
 3671 0d43 4889C7   		movq	%rax, %rdi
 3672 0d46 BA0B0000 		movl	$11, %edx
 3672      00
 3673 0d4b 488D3500 		leaq	.LC31(%rip), %rsi
 3673      000000
 3674 0d52 E8000000 		call	_ZSt16__ostream_insertIcSt11char_traitsIcEERSt13basic_ostreamIT_T0_ES6_PKS3_l@PLT
 3674      00
 3675 0d57 4C8D6324 		leaq	36(%rbx), %r12
 3676              	.L199:
 3677 0d5b BA020000 		movl	$2, %edx
 3677      00
 3678 0d60 488D3500 		leaq	.LC27(%rip), %rsi
 3678      000000
 3679 0d67 4C89EF   		movq	%r13, %rdi
 3680 0d6a E8000000 		call	_ZSt16__ostream_insertIcSt11char_traitsIcEERSt13basic_ostreamIT_T0_ES6_PKS3_l@PLT
 3680      00
 3681 0d6f 31ED     		xorl	%ebp, %ebp
 3682              	.L198:
 3683 0d71 660FEFC0 		pxor	%xmm0, %xmm0
 3684 0d75 4C89EF   		movq	%r13, %rdi
 3685 0d78 F30F5A04 		cvtss2sd	(%rbx,%rbp,4), %xmm0
 3685      AB
 3686 0d7d E8000000 		call	_ZNSo9_M_insertIdEERSoT_@PLT
 3686      00
 3687 0d82 4889C7   		movq	%rax, %rdi
 3688 0d85 BA010000 		movl	$1, %edx
 3688      00
 3689 0d8a 4C89F6   		movq	%r14, %rsi
 3690 0d8d E8000000 		call	_ZSt16__ostream_insertIcSt11char_traitsIcEERSt13basic_ostreamIT_T0_ES6_PKS3_l@PLT
 3690      00
 3691 0d92 4883C501 		addq	$1, %rbp
 3692 0d96 4883FD03 		cmpq	$3, %rbp
 3693 0d9a 75D5     		jne	.L198
 3694 0d9c BA020000 		movl	$2, %edx
 3694      00
 3695 0da1 4C89FE   		movq	%r15, %rsi
 3696 0da4 4C89EF   		movq	%r13, %rdi
 3697 0da7 E8000000 		call	_ZSt16__ostream_insertIcSt11char_traitsIcEERSt13basic_ostreamIT_T0_ES6_PKS3_l@PLT
 3697      00
 3698 0dac 4883C30C 		addq	$12, %rbx
 3699 0db0 4939DC   		cmpq	%rbx, %r12
 3700 0db3 75A6     		jne	.L199
 3701 0db5 BA010000 		movl	$1, %edx
 3701      00
 3702 0dba 488D3500 		leaq	.LC32(%rip), %rsi
 3702      000000
 3703 0dc1 4C89EF   		movq	%r13, %rdi
 3704 0dc4 E8000000 		call	_ZSt16__ostream_insertIcSt11char_traitsIcEERSt13basic_ostreamIT_T0_ES6_PKS3_l@PLT
 3704      00
 3705 0dc9 4C89EF   		movq	%r13, %rdi
 3706 0dcc E8000000 		call	_ZNK8UnitTest15MemoryOutStream7GetTextEv@PLT
 3706      00
 3707 0dd1 488B7424 		movq	40(%rsp), %rsi
 3707      28
 3708 0dd6 488B7C24 		movq	24(%rsp), %rdi
 3708      18
 3709 0ddb 4889C2   		movq	%rax, %rdx
 3710 0dde E8000000 		call	_ZN8UnitTest11TestResults13OnTestFailureERKNS_11TestDetailsEPKc@PLT
 3710      00
 3711              	.LEHE60:
 3712 0de3 488D0500 		leaq	24+_ZTVN8UnitTest15MemoryOutStreamE(%rip), %rax
 3712      000000
 3713 0dea 488BBC24 		movq	192(%rsp), %rdi
 3713      C0000000 
 3714 0df2 F30F7E05 		movq	.LC33(%rip), %xmm0
 3714      00000000 
 3715 0dfa 48894424 		movq	%rax, 80(%rsp)
 3715      50
 3716 0dff 4883C028 		addq	$40, %rax
 3717 0e03 48898424 		movq	%rax, 224(%rsp)
 3717      E0000000 
 3718 0e0b 0F160500 		movhps	.LC35(%rip), %xmm0
 3718      000000
 3719 0e12 483B7C24 		cmpq	72(%rsp), %rdi
 3719      48
 3720 0e17 740E     		je	.L200
 3721 0e19 0F290424 		movaps	%xmm0, (%rsp)
 3722 0e1d E8000000 		call	_ZdlPv@PLT
 3722      00
 3723 0e22 660F6F04 		movdqa	(%rsp), %xmm0
 3723      24
 3724              	.L200:
 3725 0e27 488D0500 		leaq	64+_ZTCN8UnitTest15MemoryOutStreamE0_NSt7__cxx1119basic_ostringstreamIcSt11char_traitsIcESaIc
 3725      000000
 3726 0e2e 488BBC24 		movq	160(%rsp), %rdi
 3726      A0000000 
 3727 0e36 0F294424 		movaps	%xmm0, 80(%rsp)
 3727      50
 3728 0e3b 48898424 		movq	%rax, 224(%rsp)
 3728      E0000000 
 3729 0e43 483B7C24 		cmpq	64(%rsp), %rdi
 3729      40
 3730 0e48 7405     		je	.L201
 3731 0e4a E8000000 		call	_ZdlPv@PLT
 3731      00
 3732              	.L201:
 3733 0e4f 488B7C24 		movq	56(%rsp), %rdi
 3733      38
 3734 0e54 488D0500 		leaq	16+_ZTVSt15basic_streambufIcSt11char_traitsIcEE(%rip), %rax
 3734      000000
 3735 0e5b 48894424 		movq	%rax, 88(%rsp)
 3735      58
 3736 0e60 E8000000 		call	_ZNSt6localeD1Ev@PLT
 3736      00
 3737 0e65 488D0500 		leaq	24+_ZTCN8UnitTest15MemoryOutStreamE0_So(%rip), %rax
 3737      000000
 3738 0e6c 488B7C24 		movq	48(%rsp), %rdi
 3738      30
 3739 0e71 48894424 		movq	%rax, 80(%rsp)
 3739      50
 3740 0e76 488D0500 		leaq	16+_ZTVSt9basic_iosIcSt11char_traitsIcEE(%rip), %rax
 3740      000000
 3741 0e7d 48898424 		movq	%rax, 224(%rsp)
 3741      E0000000 
 3742              	.LEHB61:
 3743 0e85 E8000000 		call	_ZNSt8ios_baseD2Ev@PLT
 3743      00
 3744              	.LEHE61:
 3745 0e8a EB21     		jmp	.L167
 3746 0e8c 0F1F4000 		.p2align 4,,10
 3747              		.p2align 3
 3748              	.L247:
 3749 0e90 F30F58C2 		addss	%xmm2, %xmm0
 3750 0e94 0F2FC1   		comiss	%xmm1, %xmm0
 3751 0e97 0F82B1FC 		jb	.L187
 3751      FFFF
 3752 0e9d 84D2     		testb	%dl, %dl
 3753 0e9f 0F84A9FC 		je	.L187
 3753      FFFF
 3754 0ea5 84C0     		testb	%al, %al
 3755 0ea7 0F84A1FC 		je	.L187
 3755      FFFF
 3756              	.L167:
 3757 0ead 488B8424 		movq	488(%rsp), %rax
 3757      E8010000 
 3758 0eb5 64482B04 		subq	%fs:40, %rax
 3758      25280000 
 3758      00
 3759 0ebe 7557     		jne	.L248
 3760 0ec0 4881C4F8 		addq	$504, %rsp
 3760      010000
 3761              		.cfi_remember_state
 3762              		.cfi_def_cfa_offset 56
 3763 0ec7 5B       		popq	%rbx
 3764              		.cfi_def_cfa_offset 48
 3765 0ec8 5D       		popq	%rbp
 3766              		.cfi_def_cfa_offset 40
 3767 0ec9 415C     		popq	%r12
 3768              		.cfi_def_cfa_offset 32
 3769 0ecb 415D     		popq	%r13
 3770              		.cfi_def_cfa_offset 24
 3771 0ecd 415E     		popq	%r14
 3772              		.cfi_def_cfa_offset 16
 3773 0ecf 415F     		popq	%r15
 3774              		.cfi_def_cfa_offset 8
 3775 0ed1 C3       		ret
 3776              		.p2align 4,,10
 3777 0ed2 660F1F44 		.p2align 3
 3777      0000
 3778              	.L243:
 3779              		.cfi_restore_state
 3780 0ed8 31D2     		xorl	%edx, %edx
 3781 0eda E955FCFF 		jmp	.L185
 3781      FF
 3782 0edf 90       		.p2align 4,,10
 3783              		.p2align 3
 3784              	.L241:
 3785 0ee0 31C0     		xorl	%eax, %eax
 3786 0ee2 E905FCFF 		jmp	.L180
 3786      FF
 3787 0ee7 660F1F84 		.p2align 4,,10
 3787      00000000 
 3787      00
 3788              		.p2align 3
 3789              	.L240:
 3790 0ef0 31D2     		xorl	%edx, %edx
 3791 0ef2 E9CDFBFF 		jmp	.L177
 3791      FF
 3792 0ef7 660F1F84 		.p2align 4,,10
 3792      00000000 
 3792      00
 3793              		.p2align 3
 3794              	.L238:
 3795 0f00 31C0     		xorl	%eax, %eax
 3796 0f02 E975FBFF 		jmp	.L173
 3796      FF
 3797 0f07 660F1F84 		.p2align 4,,10
 3797      00000000 
 3797      00
 3798              		.p2align 3
 3799              	.L237:
 3800 0f10 31C0     		xorl	%eax, %eax
 3801 0f12 E93FFBFF 		jmp	.L170
 3801      FF
 3802              	.L248:
 3803 0f17 E8000000 		call	__stack_chk_fail@PLT
 3803      00
 3804              	.L216:
 3805 0f1c F30F1EFA 		endbr64
 3806 0f20 4889C5   		movq	%rax, %rbp
 3807 0f23 E9000000 		jmp	.L194
 3807      00
 3808              	.L215:
 3809 0f28 F30F1EFA 		endbr64
 3810 0f2c 4889C5   		movq	%rax, %rbp
 3811 0f2f E9000000 		jmp	.L202
 3811      00
 3812              	.L217:
 3813 0f34 F30F1EFA 		endbr64
 3814 0f38 4889C5   		movq	%rax, %rbp
 3815 0f3b E9000000 		jmp	.L193
 3815      00
 3816              		.section	.gcc_except_table
 3817              	.LLSDA1539:
 3818 01ca FF       		.byte	0xff
 3819 01cb FF       		.byte	0xff
 3820 01cc 01       		.byte	0x1
 3821 01cd 18       		.uleb128 .LLSDACSE1539-.LLSDACSB1539
 3822              	.LLSDACSB1539:
 3823 01ce EA03     		.uleb128 .LEHB58-.LFB1539
 3824 01d0 05       		.uleb128 .LEHE58-.LEHB58
 3825 01d1 DC0A     		.uleb128 .L216-.LFB1539
 3826 01d3 00       		.uleb128 0
 3827 01d4 8C05     		.uleb128 .LEHB59-.LFB1539
 3828 01d6 05       		.uleb128 .LEHE59-.LEHB59
 3829 01d7 F40A     		.uleb128 .L217-.LFB1539
 3830 01d9 00       		.uleb128 0
 3831 01da E105     		.uleb128 .LEHB60-.LFB1539
 3832 01dc C202     		.uleb128 .LEHE60-.LEHB60
 3833 01de E80A     		.uleb128 .L215-.LFB1539
 3834 01e0 00       		.uleb128 0
 3835 01e1 C509     		.uleb128 .LEHB61-.LFB1539
 3836 01e3 05       		.uleb128 .LEHE61-.LEHB61
 3837 01e4 00       		.uleb128 0
 3838 01e5 00       		.uleb128 0
 3839              	.LLSDACSE1539:
 3840              		.text
 3841              		.cfi_endproc
 3842              		.section	.text.unlikely
 3843              		.cfi_startproc
 3844              		.cfi_personality 0x9b,DW.ref.__gxx_personality_v0
 3845              		.cfi_lsda 0x1b,.LLSDAC1539
 3847              	_ZN8UnitTest17CheckArray2DCloseIA3_A3_fS2_fEEvRNS_11TestResultsERKT_RKT0_iiRKT1_RKNS_11TestDetailsE
 3848              	.LFSB1539:
 3849              	.L193:
 3850              		.cfi_def_cfa_offset 560
 3851              		.cfi_offset 3, -56
 3852              		.cfi_offset 6, -48
 3853              		.cfi_offset 12, -40
 3854              		.cfi_offset 13, -32
 3855              		.cfi_offset 14, -24
 3856              		.cfi_offset 15, -16
 3857 01a0 4C89E7   		movq	%r12, %rdi
 3858 01a3 E8000000 		call	_ZNSt7__cxx1115basic_stringbufIcSt11char_traitsIcESaIcEED1Ev
 3858      00
 3859 01a8 488D0500 		leaq	24+_ZTCN8UnitTest15MemoryOutStreamE0_So(%rip), %rax
 3859      000000
 3860 01af 48894424 		movq	%rax, 80(%rsp)
 3860      50
 3861              	.L194:
 3862 01b4 488B7C24 		movq	48(%rsp), %rdi
 3862      30
 3863 01b9 488D0500 		leaq	16+_ZTVSt9basic_iosIcSt11char_traitsIcEE(%rip), %rax
 3863      000000
 3864 01c0 48898424 		movq	%rax, 224(%rsp)
 3864      E0000000 
 3865 01c8 E8000000 		call	_ZNSt8ios_baseD2Ev@PLT
 3865      00
 3866 01cd 4889EF   		movq	%rbp, %rdi
 3867              	.LEHB62:
 3868 01d0 E8000000 		call	_Unwind_Resume@PLT
 3868      00
 3869              	.LEHE62:
 3870              	.L202:
 3871 01d5 4C89EF   		movq	%r13, %rdi
 3872 01d8 E8000000 		call	_ZN8UnitTest15MemoryOutStreamD1Ev
 3872      00
 3873 01dd 4889EF   		movq	%rbp, %rdi
 3874              	.LEHB63:
 3875 01e0 E8000000 		call	_Unwind_Resume@PLT
 3875      00
 3876              	.LEHE63:
 3877              		.cfi_endproc
 3878              	.LFE1539:
 3879              		.section	.gcc_except_table
 3880              	.LLSDAC1539:
 3881 01e6 FF       		.byte	0xff
 3882 01e7 FF       		.byte	0xff
 3883 01e8 01       		.byte	0x1
 3884 01e9 08       		.uleb128 .LLSDACSEC1539-.LLSDACSBC1539
 3885              	.LLSDACSBC1539:
 3886 01ea 30       		.uleb128 .LEHB62-.LCOLDB36
 3887 01eb 05       		.uleb128 .LEHE62-.LEHB62
 3888 01ec 00       		.uleb128 0
 3889 01ed 00       		.uleb128 0
 3890 01ee 40       		.uleb128 .LEHB63-.LCOLDB36
 3891 01ef 05       		.uleb128 .LEHE63-.LEHB63
 3892 01f0 00       		.uleb128 0
 3893 01f1 00       		.uleb128 0
 3894              	.LLSDACSEC1539:
 3895              		.section	.text.unlikely
 3896              		.text
 3898              		.section	.text.unlikely
 3900              	.LCOLDE36:
 3901              		.text
 3902              	.LHOTE36:
 3903              		.section	.rodata.str1.8,"aMS",@progbits,1
 3904              		.align 8
 3905              	.LC37:
 3906 0000 556E6861 		.string	"Unhandled exception in CHECK_CLOSE(0.5, 0.5)"
 3906      6E646C65 
 3906      64206578 
 3906      63657074 
 3906      696F6E20 
 3907              		.section	.text.unlikely
 3908 01e5 90       		.align 2
 3909              	.LCOLDB38:
 3910              		.text
 3911              	.LHOTB38:
 3912              		.align 2
 3913              		.p2align 4
 3915              	_ZNK12_GLOBAL__N_133TestCheckCloseWithDoublesSucceeds7RunImplEv:
 3916              	.LFB1317:
 3917              		.cfi_startproc
 3918              		.cfi_personality 0x9b,DW.ref.__gxx_personality_v0
 3919              		.cfi_lsda 0x1b,.LLSDA1317
 3920 0f40 F30F1EFA 		endbr64
 3921 0f44 4154     		pushq	%r12
 3922              		.cfi_def_cfa_offset 16
 3923              		.cfi_offset 12, -16
 3924 0f46 55       		pushq	%rbp
 3925              		.cfi_def_cfa_offset 24
 3926              		.cfi_offset 6, -24
 3927 0f47 4883EC38 		subq	$56, %rsp
 3928              		.cfi_def_cfa_offset 80
 3929 0f4b 64488B04 		movq	%fs:40, %rax
 3929      25280000 
 3929      00
 3930 0f54 48894424 		movq	%rax, 40(%rsp)
 3930      28
 3931 0f59 31C0     		xorl	%eax, %eax
 3932              	.LEHB64:
 3933 0f5b E8000000 		call	_ZN8UnitTest11CurrentTest7DetailsEv@PLT
 3933      00
 3934 0f60 488B30   		movq	(%rax), %rsi
 3935 0f63 4889E7   		movq	%rsp, %rdi
 3936 0f66 BA0E0100 		movl	$270, %edx
 3936      00
 3937 0f6b E8000000 		call	_ZN8UnitTest11TestDetailsC1ERKS0_i@PLT
 3937      00
 3938 0f70 E8000000 		call	_ZN8UnitTest11CurrentTest7ResultsEv@PLT
 3938      00
 3939              	.LEHE64:
 3940 0f75 488B4424 		movq	40(%rsp), %rax
 3940      28
 3941 0f7a 64482B04 		subq	%fs:40, %rax
 3941      25280000 
 3941      00
 3942 0f83 7508     		jne	.L258
 3943 0f85 4883C438 		addq	$56, %rsp
 3944              		.cfi_remember_state
 3945              		.cfi_def_cfa_offset 24
 3946 0f89 5D       		popq	%rbp
 3947              		.cfi_def_cfa_offset 16
 3948 0f8a 415C     		popq	%r12
 3949              		.cfi_def_cfa_offset 8
 3950 0f8c C3       		ret
 3951              	.L258:
 3952              		.cfi_restore_state
 3953 0f8d E8000000 		call	__stack_chk_fail@PLT
 3953      00
 3954              	.L254:
 3955 0f92 F30F1EFA 		endbr64
 3956 0f96 4889C7   		movq	%rax, %rdi
 3957 0f99 E9000000 		jmp	.L250
 3957      00
 3958              		.section	.gcc_except_table
 3959 01f2 0000     		.align 4
 3960              	.LLSDA1317:
 3961 01f4 FF       		.byte	0xff
 3962 01f5 9B       		.byte	0x9b
 3963 01f6 0D       		.uleb128 .LLSDATT1317-.LLSDATTD1317
 3964              	.LLSDATTD1317:
 3965 01f7 01       		.byte	0x1
 3966 01f8 04       		.uleb128 .LLSDACSE1317-.LLSDACSB1317
 3967              	.LLSDACSB1317:
 3968 01f9 1B       		.uleb128 .LEHB64-.LFB1317
 3969 01fa 1A       		.uleb128 .LEHE64-.LEHB64
 3970 01fb 52       		.uleb128 .L254-.LFB1317
 3971 01fc 01       		.uleb128 0x1
 3972              	.LLSDACSE1317:
 3973 01fd 01       		.byte	0x1
 3974 01fe 00       		.byte	0
 3975 01ff 00       		.align 4
 3976 0200 00000000 		.long	0
 3977              	
 3978              	.LLSDATT1317:
 3979              		.text
 3980              		.cfi_endproc
 3981              		.section	.text.unlikely
 3982              		.cfi_startproc
 3983              		.cfi_personality 0x9b,DW.ref.__gxx_personality_v0
 3984              		.cfi_lsda 0x1b,.LLSDAC1317
 3986              	_ZNK12_GLOBAL__N_133TestCheckCloseWithDoublesSucceeds7RunImplEv.cold:
 3987              	.LFSB1317:
 3988              	.L250:
 3989              		.cfi_def_cfa_offset 80
 3990              		.cfi_offset 6, -24
 3991              		.cfi_offset 12, -16
 3992 01e6 E8000000 		call	__cxa_begin_catch@PLT
 3992      00
 3993              	.LEHB65:
 3994 01eb E8000000 		call	_ZN8UnitTest11CurrentTest7ResultsEv@PLT
 3994      00
 3995 01f0 4C8B20   		movq	(%rax), %r12
 3996 01f3 E8000000 		call	_ZN8UnitTest11CurrentTest7DetailsEv@PLT
 3996      00
 3997 01f8 4889E5   		movq	%rsp, %rbp
 3998 01fb 488B30   		movq	(%rax), %rsi
 3999 01fe BA0E0100 		movl	$270, %edx
 3999      00
 4000 0203 4889EF   		movq	%rbp, %rdi
 4001 0206 E8000000 		call	_ZN8UnitTest11TestDetailsC1ERKS0_i@PLT
 4001      00
 4002 020b 488D1500 		leaq	.LC37(%rip), %rdx
 4002      000000
 4003 0212 4889EE   		movq	%rbp, %rsi
 4004 0215 4C89E7   		movq	%r12, %rdi
 4005 0218 E8000000 		call	_ZN8UnitTest11TestResults13OnTestFailureERKNS_11TestDetailsEPKc@PLT
 4005      00
 4006              	.LEHE65:
 4007 021d 488B4424 		movq	40(%rsp), %rax
 4007      28
 4008 0222 64482B04 		subq	%fs:40, %rax
 4008      25280000 
 4008      00
 4009 022b 7520     		jne	.L259
 4010 022d 4883C438 		addq	$56, %rsp
 4011              		.cfi_remember_state
 4012              		.cfi_def_cfa_offset 24
 4013 0231 5D       		popq	%rbp
 4014              		.cfi_def_cfa_offset 16
 4015 0232 415C     		popq	%r12
 4016              		.cfi_def_cfa_offset 8
 4017              	.LEHB66:
 4018 0234 E9000000 		jmp	__cxa_end_catch@PLT
 4018      00
 4019              	.LEHE66:
 4020              	.L255:
 4021              		.cfi_restore_state
 4022 0239 F30F1EFA 		endbr64
 4023 023d 4889C5   		movq	%rax, %rbp
 4024 0240 E8000000 		call	__cxa_end_catch@PLT
 4024      00
 4025 0245 4889EF   		movq	%rbp, %rdi
 4026              	.LEHB67:
 4027 0248 E8000000 		call	_Unwind_Resume@PLT
 4027      00
 4028              	.LEHE67:
 4029              	.L259:
 4030 024d E8000000 		call	__stack_chk_fail@PLT
 4030      00
 4031              		.cfi_endproc
 4032              	.LFE1317:
 4033              		.section	.gcc_except_table
 4034              		.align 4
 4035              	.LLSDAC1317:
 4036 0204 FF       		.byte	0xff
 4037 0205 9B       		.byte	0x9b
 4038 0206 15       		.uleb128 .LLSDATTC1317-.LLSDATTDC1317
 4039              	.LLSDATTDC1317:
 4040 0207 01       		.byte	0x1
 4041 0208 0C       		.uleb128 .LLSDACSEC1317-.LLSDACSBC1317
 4042              	.LLSDACSBC1317:
 4043 0209 05       		.uleb128 .LEHB65-.LCOLDB38
 4044 020a 32       		.uleb128 .LEHE65-.LEHB65
 4045 020b 53       		.uleb128 .L255-.LCOLDB38
 4046 020c 00       		.uleb128 0
 4047 020d 4E       		.uleb128 .LEHB66-.LCOLDB38
 4048 020e 05       		.uleb128 .LEHE66-.LEHB66
 4049 020f 00       		.uleb128 0
 4050 0210 00       		.uleb128 0
 4051 0211 62       		.uleb128 .LEHB67-.LCOLDB38
 4052 0212 05       		.uleb128 .LEHE67-.LEHB67
 4053 0213 00       		.uleb128 0
 4054 0214 00       		.uleb128 0
 4055              	.LLSDACSEC1317:
 4056 0215 01       		.byte	0x1
 4057 0216 00       		.byte	0
 4058 0217 00       		.align 4
 4059 0218 00000000 		.long	0
 4060              	
 4061              	.LLSDATTC1317:
 4062              		.section	.text.unlikely
 4063              		.text
 4065              		.section	.text.unlikely
 4067              	.LCOLDE38:
 4068              		.text
 4069              	.LHOTE38:
 4070              		.section	.rodata.str1.8
 4071 002d 000000   		.align 8
 4072              	.LC39:
 4073 0030 556E6861 		.string	"Unhandled exception in CHECK_EQUAL(something, something)"
 4073      6E646C65 
 4073      64206578 
 4073      63657074 
 4073      696F6E20 
 4074              		.section	.text.unlikely
 4075              		.align 2
 4076              	.LCOLDB40:
 4077              		.text
 4078              	.LHOTB40:
 4079              		.align 2
 4080 0f9e 6690     		.p2align 4
 4082              	_ZNK12_GLOBAL__N_130TestCheckEqualWithUnsignedLong7RunImplEv:
 4083              	.LFB1221:
 4084              		.cfi_startproc
 4085              		.cfi_personality 0x9b,DW.ref.__gxx_personality_v0
 4086              		.cfi_lsda 0x1b,.LLSDA1221
 4087 0fa0 F30F1EFA 		endbr64
 4088 0fa4 4154     		pushq	%r12
 4089              		.cfi_def_cfa_offset 16
 4090              		.cfi_offset 12, -16
 4091 0fa6 31F6     		xorl	%esi, %esi
 4092 0fa8 55       		pushq	%rbp
 4093              		.cfi_def_cfa_offset 24
 4094              		.cfi_offset 6, -24
 4095 0fa9 4883EC58 		subq	$88, %rsp
 4096              		.cfi_def_cfa_offset 112
 4097 0fad 64488B04 		movq	%fs:40, %rax
 4097      25280000 
 4097      00
 4098 0fb6 48894424 		movq	%rax, 72(%rsp)
 4098      48
 4099 0fbb 31C0     		xorl	%eax, %eax
 4100 0fbd 4889E7   		movq	%rsp, %rdi
 4101              	.LEHB68:
 4102 0fc0 E8000000 		call	_ZN8UnitTest11TestResultsC1EPNS_12TestReporterE@PLT
 4102      00
 4103              	.LEHE68:
 4104              	.LEHB69:
 4105 0fc5 E8000000 		call	_ZN8UnitTest11CurrentTest7DetailsEv@PLT
 4105      00
 4106 0fca 488B30   		movq	(%rax), %rsi
 4107 0fcd 488D7C24 		leaq	32(%rsp), %rdi
 4107      20
 4108 0fd2 BA0E0000 		movl	$14, %edx
 4108      00
 4109 0fd7 E8000000 		call	_ZN8UnitTest11TestDetailsC1ERKS0_i@PLT
 4109      00
 4110 0fdc E8000000 		call	_ZN8UnitTest11CurrentTest7ResultsEv@PLT
 4110      00
 4111              	.LEHE69:
 4112              	.L260:
 4113 0fe1 488B4424 		movq	72(%rsp), %rax
 4113      48
 4114 0fe6 64482B04 		subq	%fs:40, %rax
 4114      25280000 
 4114      00
 4115 0fef 7508     		jne	.L268
 4116 0ff1 4883C458 		addq	$88, %rsp
 4117              		.cfi_remember_state
 4118              		.cfi_def_cfa_offset 24
 4119 0ff5 5D       		popq	%rbp
 4120              		.cfi_def_cfa_offset 16
 4121 0ff6 415C     		popq	%r12
 4122              		.cfi_def_cfa_offset 8
 4123 0ff8 C3       		ret
 4124              	.L268:
 4125              		.cfi_restore_state
 4126 0ff9 E8000000 		call	__stack_chk_fail@PLT
 4126      00
 4127              	.L265:
 4128 0ffe F30F1EFA 		endbr64
 4129 1002 4889C7   		movq	%rax, %rdi
 4130 1005 E9000000 		jmp	.L261
 4130      00
 4131              		.section	.gcc_except_table
 4132              		.align 4
 4133              	.LLSDA1221:
 4134 021c FF       		.byte	0xff
 4135 021d 9B       		.byte	0x9b
 4136 021e 11       		.uleb128 .LLSDATT1221-.LLSDATTD1221
 4137              	.LLSDATTD1221:
 4138 021f 01       		.byte	0x1
 4139 0220 08       		.uleb128 .LLSDACSE1221-.LLSDACSB1221
 4140              	.LLSDACSB1221:
 4141 0221 20       		.uleb128 .LEHB68-.LFB1221
 4142 0222 05       		.uleb128 .LEHE68-.LEHB68
 4143 0223 00       		.uleb128 0
 4144 0224 00       		.uleb128 0
 4145 0225 25       		.uleb128 .LEHB69-.LFB1221
 4146 0226 1C       		.uleb128 .LEHE69-.LEHB69
 4147 0227 5E       		.uleb128 .L265-.LFB1221
 4148 0228 01       		.uleb128 0x1
 4149              	.LLSDACSE1221:
 4150 0229 01       		.byte	0x1
 4151 022a 00       		.byte	0
 4152 022b 00       		.align 4
 4153 022c 00000000 		.long	0
 4154              	
 4155              	.LLSDATT1221:
 4156              		.text
 4157              		.cfi_endproc
 4158              		.section	.text.unlikely
 4159              		.cfi_startproc
 4160              		.cfi_personality 0x9b,DW.ref.__gxx_personality_v0
 4161              		.cfi_lsda 0x1b,.LLSDAC1221
 4163              	_ZNK12_GLOBAL__N_130TestCheckEqualWithUnsignedLong7RunImplEv.cold:
 4164              	.LFSB1221:
 4165              	.L261:
 4166              		.cfi_def_cfa_offset 112
 4167              		.cfi_offset 6, -24
 4168              		.cfi_offset 12, -16
 4169 0252 E8000000 		call	__cxa_begin_catch@PLT
 4169      00
 4170              	.LEHB70:
 4171 0257 E8000000 		call	_ZN8UnitTest11CurrentTest7ResultsEv@PLT
 4171      00
 4172 025c 4C8B20   		movq	(%rax), %r12
 4173 025f E8000000 		call	_ZN8UnitTest11CurrentTest7DetailsEv@PLT
 4173      00
 4174 0264 488D6C24 		leaq	32(%rsp), %rbp
 4174      20
 4175 0269 488B30   		movq	(%rax), %rsi
 4176 026c BA0E0000 		movl	$14, %edx
 4176      00
 4177 0271 4889EF   		movq	%rbp, %rdi
 4178 0274 E8000000 		call	_ZN8UnitTest11TestDetailsC1ERKS0_i@PLT
 4178      00
 4179 0279 488D1500 		leaq	.LC39(%rip), %rdx
 4179      000000
 4180 0280 4889EE   		movq	%rbp, %rsi
 4181 0283 4C89E7   		movq	%r12, %rdi
 4182 0286 E8000000 		call	_ZN8UnitTest11TestResults13OnTestFailureERKNS_11TestDetailsEPKc@PLT
 4182      00
 4183              	.LEHE70:
 4184              	.LEHB71:
 4185 028b E8000000 		call	__cxa_end_catch@PLT
 4185      00
 4186              	.LEHE71:
 4187 0290 E9000000 		jmp	.L260
 4187      00
 4188              	.L266:
 4189 0295 F30F1EFA 		endbr64
 4190 0299 4889C5   		movq	%rax, %rbp
 4191 029c E8000000 		call	__cxa_end_catch@PLT
 4191      00
 4192 02a1 4889EF   		movq	%rbp, %rdi
 4193              	.LEHB72:
 4194 02a4 E8000000 		call	_Unwind_Resume@PLT
 4194      00
 4195              	.LEHE72:
 4196              		.cfi_endproc
 4197              	.LFE1221:
 4198              		.section	.gcc_except_table
 4199              		.align 4
 4200              	.LLSDAC1221:
 4201 0230 FF       		.byte	0xff
 4202 0231 9B       		.byte	0x9b
 4203 0232 15       		.uleb128 .LLSDATTC1221-.LLSDATTDC1221
 4204              	.LLSDATTDC1221:
 4205 0233 01       		.byte	0x1
 4206 0234 0C       		.uleb128 .LLSDACSEC1221-.LLSDACSBC1221
 4207              	.LLSDACSBC1221:
 4208 0235 05       		.uleb128 .LEHB70-.LCOLDB40
 4209 0236 34       		.uleb128 .LEHE70-.LEHB70
 4210 0237 43       		.uleb128 .L266-.LCOLDB40
 4211 0238 00       		.uleb128 0
 4212 0239 39       		.uleb128 .LEHB71-.LCOLDB40
 4213 023a 05       		.uleb128 .LEHE71-.LEHB71
 4214 023b 00       		.uleb128 0
 4215 023c 00       		.uleb128 0
 4216 023d 52       		.uleb128 .LEHB72-.LCOLDB40
 4217 023e 05       		.uleb128 .LEHE72-.LEHB72
 4218 023f 00       		.uleb128 0
 4219 0240 00       		.uleb128 0
 4220              	.LLSDACSEC1221:
 4221 0241 01       		.byte	0x1
 4222 0242 00       		.byte	0
 4223 0243 00       		.align 4
 4224 0244 00000000 		.long	0
 4225              	
 4226              	.LLSDATTC1221:
 4227              		.section	.text.unlikely
 4228              		.text
 4230              		.section	.text.unlikely
 4232              	.LCOLDE40:
 4233              		.text
 4234              	.LHOTE40:
 4235              		.section	.rodata.str1.1
 4236              	.LC41:
 4237 0029 5D206275 		.string	"] but was [ "
 4237      74207761 
 4237      73205B20 
 4237      00
 4238              		.section	.text.unlikely
 4239              	.LCOLDB42:
 4240              		.text
 4241              	.LHOTB42:
 4242 100a 660F1F44 		.p2align 4
 4242      0000
 4244              	_ZN8UnitTest15CheckArrayEqualIA3_iS1_EEvRNS_11TestResultsERKT_RKT0_iRKNS_11TestDetailsE.constprop.0
 4245              	.LFB1541:
 4246              		.cfi_startproc
 4247              		.cfi_personality 0x9b,DW.ref.__gxx_personality_v0
 4248              		.cfi_lsda 0x1b,.LLSDA1541
 4249 1010 4157     		pushq	%r15
 4250              		.cfi_def_cfa_offset 16
 4251              		.cfi_offset 15, -16
 4252 1012 4989FF   		movq	%rdi, %r15
 4253 1015 4156     		pushq	%r14
 4254              		.cfi_def_cfa_offset 24
 4255              		.cfi_offset 14, -24
 4256 1017 4155     		pushq	%r13
 4257              		.cfi_def_cfa_offset 32
 4258              		.cfi_offset 13, -32
 4259 1019 4154     		pushq	%r12
 4260              		.cfi_def_cfa_offset 40
 4261              		.cfi_offset 12, -40
 4262 101b 55       		pushq	%rbp
 4263              		.cfi_def_cfa_offset 48
 4264              		.cfi_offset 6, -48
 4265 101c 4889F5   		movq	%rsi, %rbp
 4266 101f 53       		pushq	%rbx
 4267              		.cfi_def_cfa_offset 56
 4268              		.cfi_offset 3, -56
 4269 1020 4889D3   		movq	%rdx, %rbx
 4270 1023 4881ECD8 		subq	$472, %rsp
 4270      010000
 4271              		.cfi_def_cfa_offset 528
 4272 102a F30F7E0D 		movq	.LC33(%rip), %xmm1
 4272      00000000 
 4273 1032 48894C24 		movq	%rcx, 16(%rsp)
 4273      10
 4274 1037 0F160D00 		movhps	.LC34(%rip), %xmm1
 4274      000000
 4275 103e 64488B04 		movq	%fs:40, %rax
 4275      25280000 
 4275      00
 4276 1047 48898424 		movq	%rax, 456(%rsp)
 4276      C8010000 
 4277 104f 31C0     		xorl	%eax, %eax
 4278 1051 8B02     		movl	(%rdx), %eax
 4279 1053 3906     		cmpl	%eax, (%rsi)
 4280 1055 0F290C24 		movaps	%xmm1, (%rsp)
 4281 1059 8B4604   		movl	4(%rsi), %eax
 4282 105c 0F94C2   		sete	%dl
 4283 105f 394304   		cmpl	%eax, 4(%rbx)
 4284 1062 0F94C0   		sete	%al
 4285 1065 84C2     		testb	%al, %dl
 4286 1067 7437     		je	.L285
 4287 1069 8B4308   		movl	8(%rbx), %eax
 4288 106c 394608   		cmpl	%eax, 8(%rsi)
 4289 106f 752F     		jne	.L285
 4290              	.L269:
 4291 1071 488B8424 		movq	456(%rsp), %rax
 4291      C8010000 
 4292 1079 64482B04 		subq	%fs:40, %rax
 4292      25280000 
 4292      00
 4293 1082 0F85A702 		jne	.L294
 4293      0000
 4294 1088 4881C4D8 		addq	$472, %rsp
 4294      010000
 4295              		.cfi_remember_state
 4296              		.cfi_def_cfa_offset 56
 4297 108f 5B       		popq	%rbx
 4298              		.cfi_def_cfa_offset 48
 4299 1090 5D       		popq	%rbp
 4300              		.cfi_def_cfa_offset 40
 4301 1091 415C     		popq	%r12
 4302              		.cfi_def_cfa_offset 32
 4303 1093 415D     		popq	%r13
 4304              		.cfi_def_cfa_offset 24
 4305 1095 415E     		popq	%r14
 4306              		.cfi_def_cfa_offset 16
 4307 1097 415F     		popq	%r15
 4308              		.cfi_def_cfa_offset 8
 4309 1099 C3       		ret
 4310 109a 660F1F44 		.p2align 4,,10
 4310      0000
 4311              		.p2align 3
 4312              	.L285:
 4313              		.cfi_restore_state
 4314 10a0 4C8DB424 		leaq	192(%rsp), %r14
 4314      C0000000 
 4315 10a8 4C89F7   		movq	%r14, %rdi
 4316 10ab E8000000 		call	_ZNSt8ios_baseC2Ev@PLT
 4316      00
 4317 10b0 31C0     		xorl	%eax, %eax
 4318 10b2 660FEFC0 		pxor	%xmm0, %xmm0
 4319 10b6 31F6     		xorl	%esi, %esi
 4320 10b8 66898424 		movw	%ax, 416(%rsp)
 4320      A0010000 
 4321 10c0 488D0500 		leaq	24+_ZTCN8UnitTest15MemoryOutStreamE0_So(%rip), %rax
 4321      000000
 4322 10c7 4C89F7   		movq	%r14, %rdi
 4323 10ca 48894424 		movq	%rax, 48(%rsp)
 4323      30
 4324 10cf 4883C028 		addq	$40, %rax
 4325 10d3 48C78424 		movq	$0, 408(%rsp)
 4325      98010000 
 4325      00000000 
 4326 10df 48898424 		movq	%rax, 192(%rsp)
 4326      C0000000 
 4327 10e7 0F118424 		movups	%xmm0, 424(%rsp)
 4327      A8010000 
 4328 10ef 0F118424 		movups	%xmm0, 440(%rsp)
 4328      B8010000 
 4329              	.LEHB73:
 4330 10f7 E8000000 		call	_ZNSt9basic_iosIcSt11char_traitsIcEE4initEPSt15basic_streambufIcS1_E@PLT
 4330      00
 4331              	.LEHE73:
 4332 10fc 488D0500 		leaq	64+_ZTCN8UnitTest15MemoryOutStreamE0_NSt7__cxx1119basic_ostringstreamIcSt11char_traitsIcESaIc
 4332      000000
 4333 1103 660F6F14 		movdqa	(%rsp), %xmm2
 4333      24
 4334 1108 660FEFC0 		pxor	%xmm0, %xmm0
 4335 110c 4C8D6424 		leaq	48(%rsp), %r12
 4335      30
 4336 1111 48898424 		movq	%rax, 192(%rsp)
 4336      C0000000 
 4337 1119 488D4424 		leaq	112(%rsp), %rax
 4337      70
 4338 111e 4C8D6C24 		leaq	56(%rsp), %r13
 4338      38
 4339 1123 4889C7   		movq	%rax, %rdi
 4340 1126 48894424 		movq	%rax, 32(%rsp)
 4340      20
 4341 112b 0F295424 		movaps	%xmm2, 48(%rsp)
 4341      30
 4342 1130 0F294424 		movaps	%xmm0, 64(%rsp)
 4342      40
 4343 1135 0F294424 		movaps	%xmm0, 80(%rsp)
 4343      50
 4344 113a 0F294424 		movaps	%xmm0, 96(%rsp)
 4344      60
 4345 113f E8000000 		call	_ZNSt6localeC1Ev@PLT
 4345      00
 4346 1144 488D0500 		leaq	16+_ZTVNSt7__cxx1115basic_stringbufIcSt11char_traitsIcESaIcEEE(%rip), %rax
 4346      000000
 4347 114b 4C89EE   		movq	%r13, %rsi
 4348 114e 48C78424 		movq	$0, 136(%rsp)
 4348      88000000 
 4348      00000000 
 4349 115a 48894424 		movq	%rax, 56(%rsp)
 4349      38
 4350 115f 488D8424 		leaq	144(%rsp), %rax
 4350      90000000 
 4351 1167 48894424 		movq	%rax, 40(%rsp)
 4351      28
 4352 116c 48898424 		movq	%rax, 128(%rsp)
 4352      80000000 
 4353 1174 488B4424 		movq	48(%rsp), %rax
 4353      30
 4354 1179 C6842490 		movb	$0, 144(%rsp)
 4354      00000000 
 4355 1181 488B78E8 		movq	-24(%rax), %rdi
 4356 1185 C7442478 		movl	$16, 120(%rsp)
 4356      10000000 
 4357 118d 4C01E7   		addq	%r12, %rdi
 4358              	.LEHB74:
 4359 1190 E8000000 		call	_ZNSt9basic_iosIcSt11char_traitsIcEE4initEPSt15basic_streambufIcS1_E@PLT
 4359      00
 4360              	.LEHE74:
 4361 1195 488D0500 		leaq	24+_ZTVN8UnitTest15MemoryOutStreamE(%rip), %rax
 4361      000000
 4362 119c BA0B0000 		movl	$11, %edx
 4362      00
 4363 11a1 4C89E7   		movq	%r12, %rdi
 4364 11a4 48C78424 		movq	$0, 168(%rsp)
 4364      A8000000 
 4364      00000000 
 4365 11b0 48894424 		movq	%rax, 48(%rsp)
 4365      30
 4366 11b5 4883C028 		addq	$40, %rax
 4367 11b9 488D3500 		leaq	.LC26(%rip), %rsi
 4367      000000
 4368 11c0 48898424 		movq	%rax, 192(%rsp)
 4368      C0000000 
 4369 11c8 488D8424 		leaq	176(%rsp), %rax
 4369      B0000000 
 4370 11d0 48894424 		movq	%rax, 24(%rsp)
 4370      18
 4371 11d5 48898424 		movq	%rax, 160(%rsp)
 4371      A0000000 
 4372 11dd C68424B0 		movb	$0, 176(%rsp)
 4372      00000000 
 4373              	.LEHB75:
 4374 11e5 E8000000 		call	_ZSt16__ostream_insertIcSt11char_traitsIcEERSt13basic_ostreamIT_T0_ES6_PKS3_l@PLT
 4374      00
 4375 11ea 488D450C 		leaq	12(%rbp), %rax
 4376 11ee 4C8D2D00 		leaq	.LC28(%rip), %r13
 4376      000000
 4377 11f5 48890424 		movq	%rax, (%rsp)
 4378              	.L276:
 4379 11f9 8B7500   		movl	0(%rbp), %esi
 4380 11fc 4C89E7   		movq	%r12, %rdi
 4381 11ff E8000000 		call	_ZNSolsEi@PLT
 4381      00
 4382 1204 4889C7   		movq	%rax, %rdi
 4383 1207 BA010000 		movl	$1, %edx
 4383      00
 4384 120c 4C89EE   		movq	%r13, %rsi
 4385 120f E8000000 		call	_ZSt16__ostream_insertIcSt11char_traitsIcEERSt13basic_ostreamIT_T0_ES6_PKS3_l@PLT
 4385      00
 4386 1214 4883C504 		addq	$4, %rbp
 4387 1218 48392C24 		cmpq	%rbp, (%rsp)
 4388 121c 75DB     		jne	.L276
 4389 121e BA0C0000 		movl	$12, %edx
 4389      00
 4390 1223 488D3500 		leaq	.LC41(%rip), %rsi
 4390      000000
 4391 122a 4C89E7   		movq	%r12, %rdi
 4392 122d E8000000 		call	_ZSt16__ostream_insertIcSt11char_traitsIcEERSt13basic_ostreamIT_T0_ES6_PKS3_l@PLT
 4392      00
 4393 1232 488D6B0C 		leaq	12(%rbx), %rbp
 4394              	.L277:
 4395 1236 8B33     		movl	(%rbx), %esi
 4396 1238 4C89E7   		movq	%r12, %rdi
 4397 123b E8000000 		call	_ZNSolsEi@PLT
 4397      00
 4398 1240 4889C7   		movq	%rax, %rdi
 4399 1243 BA010000 		movl	$1, %edx
 4399      00
 4400 1248 4C89EE   		movq	%r13, %rsi
 4401 124b E8000000 		call	_ZSt16__ostream_insertIcSt11char_traitsIcEERSt13basic_ostreamIT_T0_ES6_PKS3_l@PLT
 4401      00
 4402 1250 4883C304 		addq	$4, %rbx
 4403 1254 4839DD   		cmpq	%rbx, %rbp
 4404 1257 75DD     		jne	.L277
 4405 1259 BA010000 		movl	$1, %edx
 4405      00
 4406 125e 488D3500 		leaq	.LC32(%rip), %rsi
 4406      000000
 4407 1265 4C89E7   		movq	%r12, %rdi
 4408 1268 E8000000 		call	_ZSt16__ostream_insertIcSt11char_traitsIcEERSt13basic_ostreamIT_T0_ES6_PKS3_l@PLT
 4408      00
 4409 126d 4C89E7   		movq	%r12, %rdi
 4410 1270 E8000000 		call	_ZNK8UnitTest15MemoryOutStream7GetTextEv@PLT
 4410      00
 4411 1275 488B7424 		movq	16(%rsp), %rsi
 4411      10
 4412 127a 4889C2   		movq	%rax, %rdx
 4413 127d 4C89FF   		movq	%r15, %rdi
 4414 1280 E8000000 		call	_ZN8UnitTest11TestResults13OnTestFailureERKNS_11TestDetailsEPKc@PLT
 4414      00
 4415              	.LEHE75:
 4416 1285 488D0500 		leaq	24+_ZTVN8UnitTest15MemoryOutStreamE(%rip), %rax
 4416      000000
 4417 128c 488BBC24 		movq	160(%rsp), %rdi
 4417      A0000000 
 4418 1294 F30F7E05 		movq	.LC33(%rip), %xmm0
 4418      00000000 
 4419 129c 48894424 		movq	%rax, 48(%rsp)
 4419      30
 4420 12a1 4883C028 		addq	$40, %rax
 4421 12a5 48898424 		movq	%rax, 192(%rsp)
 4421      C0000000 
 4422 12ad 0F160500 		movhps	.LC35(%rip), %xmm0
 4422      000000
 4423 12b4 483B7C24 		cmpq	24(%rsp), %rdi
 4423      18
 4424 12b9 740E     		je	.L278
 4425 12bb 0F290424 		movaps	%xmm0, (%rsp)
 4426 12bf E8000000 		call	_ZdlPv@PLT
 4426      00
 4427 12c4 660F6F04 		movdqa	(%rsp), %xmm0
 4427      24
 4428              	.L278:
 4429 12c9 488D0500 		leaq	64+_ZTCN8UnitTest15MemoryOutStreamE0_NSt7__cxx1119basic_ostringstreamIcSt11char_traitsIcESaIc
 4429      000000
 4430 12d0 488BBC24 		movq	128(%rsp), %rdi
 4430      80000000 
 4431 12d8 0F294424 		movaps	%xmm0, 48(%rsp)
 4431      30
 4432 12dd 48898424 		movq	%rax, 192(%rsp)
 4432      C0000000 
 4433 12e5 483B7C24 		cmpq	40(%rsp), %rdi
 4433      28
 4434 12ea 7405     		je	.L279
 4435 12ec E8000000 		call	_ZdlPv@PLT
 4435      00
 4436              	.L279:
 4437 12f1 488B7C24 		movq	32(%rsp), %rdi
 4437      20
 4438 12f6 488D0500 		leaq	16+_ZTVSt15basic_streambufIcSt11char_traitsIcEE(%rip), %rax
 4438      000000
 4439 12fd 48894424 		movq	%rax, 56(%rsp)
 4439      38
 4440 1302 E8000000 		call	_ZNSt6localeD1Ev@PLT
 4440      00
 4441 1307 488D0500 		leaq	24+_ZTCN8UnitTest15MemoryOutStreamE0_So(%rip), %rax
 4441      000000
 4442 130e 4C89F7   		movq	%r14, %rdi
 4443 1311 48894424 		movq	%rax, 48(%rsp)
 4443      30
 4444 1316 488D0500 		leaq	16+_ZTVSt9basic_iosIcSt11char_traitsIcEE(%rip), %rax
 4444      000000
 4445 131d 48898424 		movq	%rax, 192(%rsp)
 4445      C0000000 
 4446              	.LEHB76:
 4447 1325 E8000000 		call	_ZNSt8ios_baseD2Ev@PLT
 4447      00
 4448              	.LEHE76:
 4449 132a E942FDFF 		jmp	.L269
 4449      FF
 4450              	.L294:
 4451 132f E8000000 		call	__stack_chk_fail@PLT
 4451      00
 4452              	.L284:
 4453 1334 F30F1EFA 		endbr64
 4454 1338 4889C5   		movq	%rax, %rbp
 4455 133b E9000000 		jmp	.L273
 4455      00
 4456              	.L282:
 4457 1340 F30F1EFA 		endbr64
 4458 1344 4889C5   		movq	%rax, %rbp
 4459 1347 E9000000 		jmp	.L280
 4459      00
 4460              	.L283:
 4461 134c F30F1EFA 		endbr64
 4462 1350 4889C5   		movq	%rax, %rbp
 4463 1353 E9000000 		jmp	.L274
 4463      00
 4464              		.section	.gcc_except_table
 4465              	.LLSDA1541:
 4466 0248 FF       		.byte	0xff
 4467 0249 FF       		.byte	0xff
 4468 024a 01       		.byte	0x1
 4469 024b 18       		.uleb128 .LLSDACSE1541-.LLSDACSB1541
 4470              	.LLSDACSB1541:
 4471 024c E701     		.uleb128 .LEHB73-.LFB1541
 4472 024e 05       		.uleb128 .LEHE73-.LEHB73
 4473 024f BC06     		.uleb128 .L283-.LFB1541
 4474 0251 00       		.uleb128 0
 4475 0252 8003     		.uleb128 .LEHB74-.LFB1541
 4476 0254 05       		.uleb128 .LEHE74-.LEHB74
 4477 0255 A406     		.uleb128 .L284-.LFB1541
 4478 0257 00       		.uleb128 0
 4479 0258 D503     		.uleb128 .LEHB75-.LFB1541
 4480 025a A001     		.uleb128 .LEHE75-.LEHB75
 4481 025c B006     		.uleb128 .L282-.LFB1541
 4482 025e 00       		.uleb128 0
 4483 025f 9506     		.uleb128 .LEHB76-.LFB1541
 4484 0261 05       		.uleb128 .LEHE76-.LEHB76
 4485 0262 00       		.uleb128 0
 4486 0263 00       		.uleb128 0
 4487              	.LLSDACSE1541:
 4488              		.text
 4489              		.cfi_endproc
 4490              		.section	.text.unlikely
 4491              		.cfi_startproc
 4492              		.cfi_personality 0x9b,DW.ref.__gxx_personality_v0
 4493              		.cfi_lsda 0x1b,.LLSDAC1541
 4495              	_ZN8UnitTest15CheckArrayEqualIA3_iS1_EEvRNS_11TestResultsERKT_RKT0_iRKNS_11TestDetailsE.constprop.0
 4496              	.LFSB1541:
 4497              	.L273:
 4498              		.cfi_def_cfa_offset 528
 4499              		.cfi_offset 3, -56
 4500              		.cfi_offset 6, -48
 4501              		.cfi_offset 12, -40
 4502              		.cfi_offset 13, -32
 4503              		.cfi_offset 14, -24
 4504              		.cfi_offset 15, -16
 4505 02a9 4C89EF   		movq	%r13, %rdi
 4506 02ac E8000000 		call	_ZNSt7__cxx1115basic_stringbufIcSt11char_traitsIcESaIcEED1Ev
 4506      00
 4507 02b1 488D0500 		leaq	24+_ZTCN8UnitTest15MemoryOutStreamE0_So(%rip), %rax
 4507      000000
 4508 02b8 48894424 		movq	%rax, 48(%rsp)
 4508      30
 4509              	.L274:
 4510 02bd 488D0500 		leaq	16+_ZTVSt9basic_iosIcSt11char_traitsIcEE(%rip), %rax
 4510      000000
 4511 02c4 4C89F7   		movq	%r14, %rdi
 4512 02c7 48898424 		movq	%rax, 192(%rsp)
 4512      C0000000 
 4513 02cf E8000000 		call	_ZNSt8ios_baseD2Ev@PLT
 4513      00
 4514 02d4 4889EF   		movq	%rbp, %rdi
 4515              	.LEHB77:
 4516 02d7 E8000000 		call	_Unwind_Resume@PLT
 4516      00
 4517              	.LEHE77:
 4518              	.L280:
 4519 02dc 4C89E7   		movq	%r12, %rdi
 4520 02df E8000000 		call	_ZN8UnitTest15MemoryOutStreamD1Ev
 4520      00
 4521 02e4 4889EF   		movq	%rbp, %rdi
 4522              	.LEHB78:
 4523 02e7 E8000000 		call	_Unwind_Resume@PLT
 4523      00
 4524              	.LEHE78:
 4525              		.cfi_endproc
 4526              	.LFE1541:
 4527              		.section	.gcc_except_table
 4528              	.LLSDAC1541:
 4529 0264 FF       		.byte	0xff
 4530 0265 FF       		.byte	0xff
 4531 0266 01       		.byte	0x1
 4532 0267 08       		.uleb128 .LLSDACSEC1541-.LLSDACSBC1541
 4533              	.LLSDACSBC1541:
 4534 0268 2E       		.uleb128 .LEHB77-.LCOLDB42
 4535 0269 05       		.uleb128 .LEHE77-.LEHB77
 4536 026a 00       		.uleb128 0
 4537 026b 00       		.uleb128 0
 4538 026c 3E       		.uleb128 .LEHB78-.LCOLDB42
 4539 026d 05       		.uleb128 .LEHE78-.LEHB78
 4540 026e 00       		.uleb128 0
 4541 026f 00       		.uleb128 0
 4542              	.LLSDACSEC1541:
 4543              		.section	.text.unlikely
 4544              		.text
 4546              		.section	.text.unlikely
 4548              	.LCOLDE42:
 4549              		.text
 4550              	.LHOTE42:
 4551              		.section	.text.unlikely
 4552              	.LCOLDB43:
 4553              		.text
 4554              	.LHOTB43:
 4555 1358 0F1F8400 		.p2align 4
 4555      00000000 
 4557              	_ZN8UnitTest15CheckArrayCloseIA3_fS1_fEEvRNS_11TestResultsERKT_RKT0_iRKT1_RKNS_11TestDetailsE.const
 4558              	.LFB1542:
 4559              		.cfi_startproc
 4560              		.cfi_personality 0x9b,DW.ref.__gxx_personality_v0
 4561              		.cfi_lsda 0x1b,.LLSDA1542
 4562 1360 4157     		pushq	%r15
 4563              		.cfi_def_cfa_offset 16
 4564              		.cfi_offset 15, -16
 4565 1362 4156     		pushq	%r14
 4566              		.cfi_def_cfa_offset 24
 4567              		.cfi_offset 14, -24
 4568 1364 4155     		pushq	%r13
 4569              		.cfi_def_cfa_offset 32
 4570              		.cfi_offset 13, -32
 4571 1366 4154     		pushq	%r12
 4572              		.cfi_def_cfa_offset 40
 4573              		.cfi_offset 12, -40
 4574 1368 4989CC   		movq	%rcx, %r12
 4575 136b 55       		pushq	%rbp
 4576              		.cfi_def_cfa_offset 48
 4577              		.cfi_offset 6, -48
 4578 136c 4889F5   		movq	%rsi, %rbp
 4579 136f 53       		pushq	%rbx
 4580              		.cfi_def_cfa_offset 56
 4581              		.cfi_offset 3, -56
 4582 1370 4889D3   		movq	%rdx, %rbx
 4583 1373 4881ECE8 		subq	$488, %rsp
 4583      010000
 4584              		.cfi_def_cfa_offset 544
 4585 137a F30F100E 		movss	(%rsi), %xmm1
 4586 137e F30F1001 		movss	(%rcx), %xmm0
 4587 1382 48897C24 		movq	%rdi, 24(%rsp)
 4587      18
 4588 1387 F30F1012 		movss	(%rdx), %xmm2
 4589 138b 0F28D9   		movaps	%xmm1, %xmm3
 4590 138e 4C894424 		movq	%r8, 32(%rsp)
 4590      20
 4591 1393 F30F7E25 		movq	.LC33(%rip), %xmm4
 4591      00000000 
 4592 139b F30F5CD8 		subss	%xmm0, %xmm3
 4593 139f 0F162500 		movhps	.LC34(%rip), %xmm4
 4593      000000
 4594 13a6 64488B04 		movq	%fs:40, %rax
 4594      25280000 
 4594      00
 4595 13af 48898424 		movq	%rax, 472(%rsp)
 4595      D8010000 
 4596 13b7 31C0     		xorl	%eax, %eax
 4597 13b9 31C0     		xorl	%eax, %eax
 4598 13bb 0F292424 		movaps	%xmm4, (%rsp)
 4599 13bf 0F2FD3   		comiss	%xmm3, %xmm2
 4600 13c2 720A     		jb	.L296
 4601 13c4 F30F58C8 		addss	%xmm0, %xmm1
 4602 13c8 0F2FCA   		comiss	%xmm2, %xmm1
 4603 13cb 0F93C0   		setnb	%al
 4604              	.L296:
 4605 13ce F30F104D 		movss	4(%rbp), %xmm1
 4605      04
 4606 13d3 F30F1053 		movss	4(%rbx), %xmm2
 4606      04
 4607 13d8 0F28D9   		movaps	%xmm1, %xmm3
 4608 13db F30F5CD8 		subss	%xmm0, %xmm3
 4609 13df 0F2FD3   		comiss	%xmm3, %xmm2
 4610 13e2 0F823003 		jb	.L328
 4610      0000
 4611 13e8 F30F58C8 		addss	%xmm0, %xmm1
 4612 13ec 31D2     		xorl	%edx, %edx
 4613 13ee 0F2FCA   		comiss	%xmm2, %xmm1
 4614 13f1 0F42C2   		cmovb	%edx, %eax
 4615              	.L298:
 4616 13f4 F30F104D 		movss	8(%rbp), %xmm1
 4616      08
 4617 13f9 F30F1053 		movss	8(%rbx), %xmm2
 4617      08
 4618 13fe 0F28D9   		movaps	%xmm1, %xmm3
 4619 1401 F30F5CD8 		subss	%xmm0, %xmm3
 4620 1405 0F2FD3   		comiss	%xmm3, %xmm2
 4621 1408 0F83CA02 		jnb	.L332
 4621      0000
 4622              	.L301:
 4623 140e 4C8DBC24 		leaq	208(%rsp), %r15
 4623      D0000000 
 4624 1416 4C89FF   		movq	%r15, %rdi
 4625 1419 E8000000 		call	_ZNSt8ios_baseC2Ev@PLT
 4625      00
 4626 141e 31C0     		xorl	%eax, %eax
 4627 1420 660FEFC0 		pxor	%xmm0, %xmm0
 4628 1424 31F6     		xorl	%esi, %esi
 4629 1426 66898424 		movw	%ax, 432(%rsp)
 4629      B0010000 
 4630 142e 488D0500 		leaq	24+_ZTCN8UnitTest15MemoryOutStreamE0_So(%rip), %rax
 4630      000000
 4631 1435 4C89FF   		movq	%r15, %rdi
 4632 1438 48894424 		movq	%rax, 64(%rsp)
 4632      40
 4633 143d 4883C028 		addq	$40, %rax
 4634 1441 48C78424 		movq	$0, 424(%rsp)
 4634      A8010000 
 4634      00000000 
 4635 144d 48898424 		movq	%rax, 208(%rsp)
 4635      D0000000 
 4636 1455 0F118424 		movups	%xmm0, 440(%rsp)
 4636      B8010000 
 4637 145d 0F118424 		movups	%xmm0, 456(%rsp)
 4637      C8010000 
 4638              	.LEHB79:
 4639 1465 E8000000 		call	_ZNSt9basic_iosIcSt11char_traitsIcEE4initEPSt15basic_streambufIcS1_E@PLT
 4639      00
 4640              	.LEHE79:
 4641 146a 488D0500 		leaq	64+_ZTCN8UnitTest15MemoryOutStreamE0_NSt7__cxx1119basic_ostringstreamIcSt11char_traitsIcESaIc
 4641      000000
 4642 1471 660F6F2C 		movdqa	(%rsp), %xmm5
 4642      24
 4643 1476 660FEFC0 		pxor	%xmm0, %xmm0
 4644 147a 4C8D6C24 		leaq	64(%rsp), %r13
 4644      40
 4645 147f 48898424 		movq	%rax, 208(%rsp)
 4645      D0000000 
 4646 1487 488D8424 		leaq	128(%rsp), %rax
 4646      80000000 
 4647 148f 4C8D7424 		leaq	72(%rsp), %r14
 4647      48
 4648 1494 4889C7   		movq	%rax, %rdi
 4649 1497 48894424 		movq	%rax, 48(%rsp)
 4649      30
 4650 149c 0F296C24 		movaps	%xmm5, 64(%rsp)
 4650      40
 4651 14a1 0F294424 		movaps	%xmm0, 80(%rsp)
 4651      50
 4652 14a6 0F294424 		movaps	%xmm0, 96(%rsp)
 4652      60
 4653 14ab 0F294424 		movaps	%xmm0, 112(%rsp)
 4653      70
 4654 14b0 E8000000 		call	_ZNSt6localeC1Ev@PLT
 4654      00
 4655 14b5 488D0500 		leaq	16+_ZTVNSt7__cxx1115basic_stringbufIcSt11char_traitsIcESaIcEEE(%rip), %rax
 4655      000000
 4656 14bc C68424A0 		movb	$0, 160(%rsp)
 4656      00000000 
 4657 14c4 4C89F6   		movq	%r14, %rsi
 4658 14c7 48894424 		movq	%rax, 72(%rsp)
 4658      48
 4659 14cc 488D8424 		leaq	160(%rsp), %rax
 4659      A0000000 
 4660 14d4 48894424 		movq	%rax, 56(%rsp)
 4660      38
 4661 14d9 48898424 		movq	%rax, 144(%rsp)
 4661      90000000 
 4662 14e1 488B4424 		movq	64(%rsp), %rax
 4662      40
 4663 14e6 48C78424 		movq	$0, 152(%rsp)
 4663      98000000 
 4663      00000000 
 4664 14f2 C7842488 		movl	$16, 136(%rsp)
 4664      00000010 
 4664      000000
 4665 14fd 488B78E8 		movq	-24(%rax), %rdi
 4666 1501 4C01EF   		addq	%r13, %rdi
 4667              	.LEHB80:
 4668 1504 E8000000 		call	_ZNSt9basic_iosIcSt11char_traitsIcEE4initEPSt15basic_streambufIcS1_E@PLT
 4668      00
 4669              	.LEHE80:
 4670 1509 488D0500 		leaq	24+_ZTVN8UnitTest15MemoryOutStreamE(%rip), %rax
 4670      000000
 4671 1510 BA0B0000 		movl	$11, %edx
 4671      00
 4672 1515 4C89EF   		movq	%r13, %rdi
 4673 1518 48C78424 		movq	$0, 184(%rsp)
 4673      B8000000 
 4673      00000000 
 4674 1524 48894424 		movq	%rax, 64(%rsp)
 4674      40
 4675 1529 4883C028 		addq	$40, %rax
 4676 152d 488D3500 		leaq	.LC26(%rip), %rsi
 4676      000000
 4677 1534 48898424 		movq	%rax, 208(%rsp)
 4677      D0000000 
 4678 153c 488D8424 		leaq	192(%rsp), %rax
 4678      C0000000 
 4679 1544 48894424 		movq	%rax, 40(%rsp)
 4679      28
 4680 1549 48898424 		movq	%rax, 176(%rsp)
 4680      B0000000 
 4681 1551 C68424C0 		movb	$0, 192(%rsp)
 4681      00000000 
 4682              	.LEHB81:
 4683 1559 E8000000 		call	_ZSt16__ostream_insertIcSt11char_traitsIcEERSt13basic_ostreamIT_T0_ES6_PKS3_l@PLT
 4683      00
 4684 155e 488D450C 		leaq	12(%rbp), %rax
 4685 1562 4C8D3500 		leaq	.LC28(%rip), %r14
 4685      000000
 4686 1569 48890424 		movq	%rax, (%rsp)
 4687              	.L309:
 4688 156d 660FEFC0 		pxor	%xmm0, %xmm0
 4689 1571 4C89EF   		movq	%r13, %rdi
 4690 1574 F30F5A45 		cvtss2sd	0(%rbp), %xmm0
 4690      00
 4691 1579 E8000000 		call	_ZNSo9_M_insertIdEERSoT_@PLT
 4691      00
 4692 157e 4889C7   		movq	%rax, %rdi
 4693 1581 BA010000 		movl	$1, %edx
 4693      00
 4694 1586 4C89F6   		movq	%r14, %rsi
 4695 1589 E8000000 		call	_ZSt16__ostream_insertIcSt11char_traitsIcEERSt13basic_ostreamIT_T0_ES6_PKS3_l@PLT
 4695      00
 4696 158e 4883C504 		addq	$4, %rbp
 4697 1592 48392C24 		cmpq	%rbp, (%rsp)
 4698 1596 75D5     		jne	.L309
 4699 1598 BA060000 		movl	$6, %edx
 4699      00
 4700 159d 488D3500 		leaq	.LC30(%rip), %rsi
 4700      000000
 4701 15a4 4C89EF   		movq	%r13, %rdi
 4702 15a7 E8000000 		call	_ZSt16__ostream_insertIcSt11char_traitsIcEERSt13basic_ostreamIT_T0_ES6_PKS3_l@PLT
 4702      00
 4703 15ac 660FEFC0 		pxor	%xmm0, %xmm0
 4704 15b0 4C89EF   		movq	%r13, %rdi
 4705 15b3 F3410F5A 		cvtss2sd	(%r12), %xmm0
 4705      0424
 4706 15b9 E8000000 		call	_ZNSo9_M_insertIdEERSoT_@PLT
 4706      00
 4707 15be 4889C7   		movq	%rax, %rdi
 4708 15c1 BA0B0000 		movl	$11, %edx
 4708      00
 4709 15c6 488D3500 		leaq	.LC31(%rip), %rsi
 4709      000000
 4710 15cd E8000000 		call	_ZSt16__ostream_insertIcSt11char_traitsIcEERSt13basic_ostreamIT_T0_ES6_PKS3_l@PLT
 4710      00
 4711 15d2 488D6B0C 		leaq	12(%rbx), %rbp
 4712              	.L310:
 4713 15d6 660FEFC0 		pxor	%xmm0, %xmm0
 4714 15da 4C89EF   		movq	%r13, %rdi
 4715 15dd F30F5A03 		cvtss2sd	(%rbx), %xmm0
 4716 15e1 E8000000 		call	_ZNSo9_M_insertIdEERSoT_@PLT
 4716      00
 4717 15e6 4889C7   		movq	%rax, %rdi
 4718 15e9 BA010000 		movl	$1, %edx
 4718      00
 4719 15ee 4C89F6   		movq	%r14, %rsi
 4720 15f1 E8000000 		call	_ZSt16__ostream_insertIcSt11char_traitsIcEERSt13basic_ostreamIT_T0_ES6_PKS3_l@PLT
 4720      00
 4721 15f6 4883C304 		addq	$4, %rbx
 4722 15fa 4839DD   		cmpq	%rbx, %rbp
 4723 15fd 75D7     		jne	.L310
 4724 15ff BA010000 		movl	$1, %edx
 4724      00
 4725 1604 488D3500 		leaq	.LC32(%rip), %rsi
 4725      000000
 4726 160b 4C89EF   		movq	%r13, %rdi
 4727 160e E8000000 		call	_ZSt16__ostream_insertIcSt11char_traitsIcEERSt13basic_ostreamIT_T0_ES6_PKS3_l@PLT
 4727      00
 4728 1613 4C89EF   		movq	%r13, %rdi
 4729 1616 E8000000 		call	_ZNK8UnitTest15MemoryOutStream7GetTextEv@PLT
 4729      00
 4730 161b 488B7424 		movq	32(%rsp), %rsi
 4730      20
 4731 1620 488B7C24 		movq	24(%rsp), %rdi
 4731      18
 4732 1625 4889C2   		movq	%rax, %rdx
 4733 1628 E8000000 		call	_ZN8UnitTest11TestResults13OnTestFailureERKNS_11TestDetailsEPKc@PLT
 4733      00
 4734              	.LEHE81:
 4735 162d 488D0500 		leaq	24+_ZTVN8UnitTest15MemoryOutStreamE(%rip), %rax
 4735      000000
 4736 1634 488BBC24 		movq	176(%rsp), %rdi
 4736      B0000000 
 4737 163c F30F7E05 		movq	.LC33(%rip), %xmm0
 4737      00000000 
 4738 1644 48894424 		movq	%rax, 64(%rsp)
 4738      40
 4739 1649 4883C028 		addq	$40, %rax
 4740 164d 48898424 		movq	%rax, 208(%rsp)
 4740      D0000000 
 4741 1655 0F160500 		movhps	.LC35(%rip), %xmm0
 4741      000000
 4742 165c 483B7C24 		cmpq	40(%rsp), %rdi
 4742      28
 4743 1661 740E     		je	.L311
 4744 1663 0F290424 		movaps	%xmm0, (%rsp)
 4745 1667 E8000000 		call	_ZdlPv@PLT
 4745      00
 4746 166c 660F6F04 		movdqa	(%rsp), %xmm0
 4746      24
 4747              	.L311:
 4748 1671 488D0500 		leaq	64+_ZTCN8UnitTest15MemoryOutStreamE0_NSt7__cxx1119basic_ostringstreamIcSt11char_traitsIcESaIc
 4748      000000
 4749 1678 488BBC24 		movq	144(%rsp), %rdi
 4749      90000000 
 4750 1680 0F294424 		movaps	%xmm0, 64(%rsp)
 4750      40
 4751 1685 48898424 		movq	%rax, 208(%rsp)
 4751      D0000000 
 4752 168d 483B7C24 		cmpq	56(%rsp), %rdi
 4752      38
 4753 1692 7405     		je	.L312
 4754 1694 E8000000 		call	_ZdlPv@PLT
 4754      00
 4755              	.L312:
 4756 1699 488B7C24 		movq	48(%rsp), %rdi
 4756      30
 4757 169e 488D0500 		leaq	16+_ZTVSt15basic_streambufIcSt11char_traitsIcEE(%rip), %rax
 4757      000000
 4758 16a5 48894424 		movq	%rax, 72(%rsp)
 4758      48
 4759 16aa E8000000 		call	_ZNSt6localeD1Ev@PLT
 4759      00
 4760 16af 488D0500 		leaq	24+_ZTCN8UnitTest15MemoryOutStreamE0_So(%rip), %rax
 4760      000000
 4761 16b6 4C89FF   		movq	%r15, %rdi
 4762 16b9 48894424 		movq	%rax, 64(%rsp)
 4762      40
 4763 16be 488D0500 		leaq	16+_ZTVSt9basic_iosIcSt11char_traitsIcEE(%rip), %rax
 4763      000000
 4764 16c5 48898424 		movq	%rax, 208(%rsp)
 4764      D0000000 
 4765              	.LEHB82:
 4766 16cd E8000000 		call	_ZNSt8ios_baseD2Ev@PLT
 4766      00
 4767              	.LEHE82:
 4768 16d2 EB19     		jmp	.L295
 4769              		.p2align 4,,10
 4770 16d4 0F1F4000 		.p2align 3
 4771              	.L332:
 4772 16d8 F30F58C8 		addss	%xmm0, %xmm1
 4773 16dc 0F2FCA   		comiss	%xmm2, %xmm1
 4774 16df 0F8229FD 		jb	.L301
 4774      FFFF
 4775 16e5 84C0     		testb	%al, %al
 4776 16e7 0F8421FD 		je	.L301
 4776      FFFF
 4777              	.L295:
 4778 16ed 488B8424 		movq	472(%rsp), %rax
 4778      D8010000 
 4779 16f5 64482B04 		subq	%fs:40, %rax
 4779      25280000 
 4779      00
 4780 16fe 751F     		jne	.L333
 4781 1700 4881C4E8 		addq	$488, %rsp
 4781      010000
 4782              		.cfi_remember_state
 4783              		.cfi_def_cfa_offset 56
 4784 1707 5B       		popq	%rbx
 4785              		.cfi_def_cfa_offset 48
 4786 1708 5D       		popq	%rbp
 4787              		.cfi_def_cfa_offset 40
 4788 1709 415C     		popq	%r12
 4789              		.cfi_def_cfa_offset 32
 4790 170b 415D     		popq	%r13
 4791              		.cfi_def_cfa_offset 24
 4792 170d 415E     		popq	%r14
 4793              		.cfi_def_cfa_offset 16
 4794 170f 415F     		popq	%r15
 4795              		.cfi_def_cfa_offset 8
 4796 1711 C3       		ret
 4797              		.p2align 4,,10
 4798 1712 660F1F44 		.p2align 3
 4798      0000
 4799              	.L328:
 4800              		.cfi_restore_state
 4801 1718 31C0     		xorl	%eax, %eax
 4802 171a E9D5FCFF 		jmp	.L298
 4802      FF
 4803              	.L333:
 4804 171f E8000000 		call	__stack_chk_fail@PLT
 4804      00
 4805              	.L319:
 4806 1724 F30F1EFA 		endbr64
 4807 1728 4889C5   		movq	%rax, %rbp
 4808 172b E9000000 		jmp	.L307
 4808      00
 4809              	.L318:
 4810 1730 F30F1EFA 		endbr64
 4811 1734 4889C5   		movq	%rax, %rbp
 4812 1737 E9000000 		jmp	.L313
 4812      00
 4813              	.L320:
 4814 173c F30F1EFA 		endbr64
 4815 1740 4889C5   		movq	%rax, %rbp
 4816 1743 E9000000 		jmp	.L306
 4816      00
 4817              		.section	.gcc_except_table
 4818              	.LLSDA1542:
 4819 0270 FF       		.byte	0xff
 4820 0271 FF       		.byte	0xff
 4821 0272 01       		.byte	0x1
 4822 0273 18       		.uleb128 .LLSDACSE1542-.LLSDACSB1542
 4823              	.LLSDACSB1542:
 4824 0274 8502     		.uleb128 .LEHB79-.LFB1542
 4825 0276 05       		.uleb128 .LEHE79-.LEHB79
 4826 0277 C407     		.uleb128 .L319-.LFB1542
 4827 0279 00       		.uleb128 0
 4828 027a A403     		.uleb128 .LEHB80-.LFB1542
 4829 027c 05       		.uleb128 .LEHE80-.LEHB80
 4830 027d DC07     		.uleb128 .L320-.LFB1542
 4831 027f 00       		.uleb128 0
 4832 0280 F903     		.uleb128 .LEHB81-.LFB1542
 4833 0282 D401     		.uleb128 .LEHE81-.LEHB81
 4834 0284 D007     		.uleb128 .L318-.LFB1542
 4835 0286 00       		.uleb128 0
 4836 0287 ED06     		.uleb128 .LEHB82-.LFB1542
 4837 0289 05       		.uleb128 .LEHE82-.LEHB82
 4838 028a 00       		.uleb128 0
 4839 028b 00       		.uleb128 0
 4840              	.LLSDACSE1542:
 4841              		.text
 4842              		.cfi_endproc
 4843              		.section	.text.unlikely
 4844              		.cfi_startproc
 4845              		.cfi_personality 0x9b,DW.ref.__gxx_personality_v0
 4846              		.cfi_lsda 0x1b,.LLSDAC1542
 4848              	_ZN8UnitTest15CheckArrayCloseIA3_fS1_fEEvRNS_11TestResultsERKT_RKT0_iRKT1_RKNS_11TestDetailsE.const
 4849              	.LFSB1542:
 4850              	.L306:
 4851              		.cfi_def_cfa_offset 544
 4852              		.cfi_offset 3, -56
 4853              		.cfi_offset 6, -48
 4854              		.cfi_offset 12, -40
 4855              		.cfi_offset 13, -32
 4856              		.cfi_offset 14, -24
 4857              		.cfi_offset 15, -16
 4858 02ec 4C89F7   		movq	%r14, %rdi
 4859 02ef E8000000 		call	_ZNSt7__cxx1115basic_stringbufIcSt11char_traitsIcESaIcEED1Ev
 4859      00
 4860 02f4 488D0500 		leaq	24+_ZTCN8UnitTest15MemoryOutStreamE0_So(%rip), %rax
 4860      000000
 4861 02fb 48894424 		movq	%rax, 64(%rsp)
 4861      40
 4862              	.L307:
 4863 0300 488D0500 		leaq	16+_ZTVSt9basic_iosIcSt11char_traitsIcEE(%rip), %rax
 4863      000000
 4864 0307 4C89FF   		movq	%r15, %rdi
 4865 030a 48898424 		movq	%rax, 208(%rsp)
 4865      D0000000 
 4866 0312 E8000000 		call	_ZNSt8ios_baseD2Ev@PLT
 4866      00
 4867 0317 4889EF   		movq	%rbp, %rdi
 4868              	.LEHB83:
 4869 031a E8000000 		call	_Unwind_Resume@PLT
 4869      00
 4870              	.LEHE83:
 4871              	.L313:
 4872 031f 4C89EF   		movq	%r13, %rdi
 4873 0322 E8000000 		call	_ZN8UnitTest15MemoryOutStreamD1Ev
 4873      00
 4874 0327 4889EF   		movq	%rbp, %rdi
 4875              	.LEHB84:
 4876 032a E8000000 		call	_Unwind_Resume@PLT
 4876      00
 4877              	.LEHE84:
 4878              		.cfi_endproc
 4879              	.LFE1542:
 4880              		.section	.gcc_except_table
 4881              	.LLSDAC1542:
 4882 028c FF       		.byte	0xff
 4883 028d FF       		.byte	0xff
 4884 028e 01       		.byte	0x1
 4885 028f 08       		.uleb128 .LLSDACSEC1542-.LLSDACSBC1542
 4886              	.LLSDACSBC1542:
 4887 0290 2E       		.uleb128 .LEHB83-.LCOLDB43
 4888 0291 05       		.uleb128 .LEHE83-.LEHB83
 4889 0292 00       		.uleb128 0
 4890 0293 00       		.uleb128 0
 4891 0294 3E       		.uleb128 .LEHB84-.LCOLDB43
 4892 0295 05       		.uleb128 .LEHE84-.LEHB84
 4893 0296 00       		.uleb128 0
 4894 0297 00       		.uleb128 0
 4895              	.LLSDACSEC1542:
 4896              		.section	.text.unlikely
 4897              		.text
 4899              		.section	.text.unlikely
 4901              	.LCOLDE43:
 4902              		.text
 4903              	.LHOTE43:
 4904              		.section	.text._ZNSt7__cxx1115basic_stringbufIcSt11char_traitsIcESaIcEED0Ev,"axG",@progbits,_ZNSt7
 4905              		.align 2
 4906              		.p2align 4
 4907              		.weak	_ZNSt7__cxx1115basic_stringbufIcSt11char_traitsIcESaIcEED0Ev
 4909              	_ZNSt7__cxx1115basic_stringbufIcSt11char_traitsIcESaIcEED0Ev:
 4910              	.LFB1333:
 4911              		.cfi_startproc
 4912 0000 F30F1EFA 		endbr64
 4913 0004 488D0500 		leaq	16+_ZTVNSt7__cxx1115basic_stringbufIcSt11char_traitsIcESaIcEEE(%rip), %rax
 4913      000000
 4914 000b 55       		pushq	%rbp
 4915              		.cfi_def_cfa_offset 16
 4916              		.cfi_offset 6, -16
 4917 000c 4889FD   		movq	%rdi, %rbp
 4918 000f 488907   		movq	%rax, (%rdi)
 4919 0012 488B7F48 		movq	72(%rdi), %rdi
 4920 0016 488D4558 		leaq	88(%rbp), %rax
 4921 001a 4839C7   		cmpq	%rax, %rdi
 4922 001d 7405     		je	.L335
 4923 001f E8000000 		call	_ZdlPv@PLT
 4923      00
 4924              	.L335:
 4925 0024 488D0500 		leaq	16+_ZTVSt15basic_streambufIcSt11char_traitsIcEE(%rip), %rax
 4925      000000
 4926 002b 488D7D38 		leaq	56(%rbp), %rdi
 4927 002f 48894500 		movq	%rax, 0(%rbp)
 4928 0033 E8000000 		call	_ZNSt6localeD1Ev@PLT
 4928      00
 4929 0038 4889EF   		movq	%rbp, %rdi
 4930 003b 5D       		popq	%rbp
 4931              		.cfi_def_cfa_offset 8
 4932 003c E9000000 		jmp	_ZdlPv@PLT
 4932      00
 4933              		.cfi_endproc
 4934              	.LFE1333:
 4936              		.section	.rodata._ZN8UnitTest10CheckEqualIiiEEvRNS_11TestResultsERKT_RKT0_RKNS_11TestDetailsE.str1
 4937              	.LC44:
 4938 0000 45787065 		.string	"Expected "
 4938      63746564 
 4938      2000
 4939              	.LC45:
 4940 000a 20627574 		.string	" but was "
 4940      20776173 
 4940      2000
 4941              		.section	.text._ZN8UnitTest10CheckEqualIiiEEvRNS_11TestResultsERKT_RKT0_RKNS_11TestDetailsE,"axG",
 4942              		.p2align 4
 4943              		.weak	_ZN8UnitTest10CheckEqualIiiEEvRNS_11TestResultsERKT_RKT0_RKNS_11TestDetailsE
 4945              	_ZN8UnitTest10CheckEqualIiiEEvRNS_11TestResultsERKT_RKT0_RKNS_11TestDetailsE:
 4946              	.LFB1354:
 4947              		.cfi_startproc
 4948              		.cfi_personality 0x9b,DW.ref.__gxx_personality_v0
 4949              		.cfi_lsda 0x1b,.LLSDA1354
 4950 0000 F30F1EFA 		endbr64
 4951 0004 4157     		pushq	%r15
 4952              		.cfi_def_cfa_offset 16
 4953              		.cfi_offset 15, -16
 4954 0006 4156     		pushq	%r14
 4955              		.cfi_def_cfa_offset 24
 4956              		.cfi_offset 14, -24
 4957 0008 4155     		pushq	%r13
 4958              		.cfi_def_cfa_offset 32
 4959              		.cfi_offset 13, -32
 4960 000a 4154     		pushq	%r12
 4961              		.cfi_def_cfa_offset 40
 4962              		.cfi_offset 12, -40
 4963 000c 55       		pushq	%rbp
 4964              		.cfi_def_cfa_offset 48
 4965              		.cfi_offset 6, -48
 4966 000d 53       		pushq	%rbx
 4967              		.cfi_def_cfa_offset 56
 4968              		.cfi_offset 3, -56
 4969 000e 4881ECD8 		subq	$472, %rsp
 4969      010000
 4970              		.cfi_def_cfa_offset 528
 4971 0015 F30F7E0D 		movq	.LC33(%rip), %xmm1
 4971      00000000 
 4972 001d 48897C24 		movq	%rdi, 16(%rsp)
 4972      10
 4973 0022 48894C24 		movq	%rcx, 24(%rsp)
 4973      18
 4974 0027 0F160D00 		movhps	.LC34(%rip), %xmm1
 4974      000000
 4975 002e 64488B04 		movq	%fs:40, %rax
 4975      25280000 
 4975      00
 4976 0037 48898424 		movq	%rax, 456(%rsp)
 4976      C8010000 
 4977 003f 31C0     		xorl	%eax, %eax
 4978 0041 8B02     		movl	(%rdx), %eax
 4979 0043 0F290C24 		movaps	%xmm1, (%rsp)
 4980 0047 3906     		cmpl	%eax, (%rsi)
 4981 0049 752D     		jne	.L353
 4982              	.L337:
 4983 004b 488B8424 		movq	456(%rsp), %rax
 4983      C8010000 
 4984 0053 64482B04 		subq	%fs:40, %rax
 4984      25280000 
 4984      00
 4985 005c 0F854B02 		jne	.L354
 4985      0000
 4986 0062 4881C4D8 		addq	$472, %rsp
 4986      010000
 4987              		.cfi_remember_state
 4988              		.cfi_def_cfa_offset 56
 4989 0069 5B       		popq	%rbx
 4990              		.cfi_def_cfa_offset 48
 4991 006a 5D       		popq	%rbp
 4992              		.cfi_def_cfa_offset 40
 4993 006b 415C     		popq	%r12
 4994              		.cfi_def_cfa_offset 32
 4995 006d 415D     		popq	%r13
 4996              		.cfi_def_cfa_offset 24
 4997 006f 415E     		popq	%r14
 4998              		.cfi_def_cfa_offset 16
 4999 0071 415F     		popq	%r15
 5000              		.cfi_def_cfa_offset 8
 5001 0073 C3       		ret
 5002              		.p2align 4,,10
 5003 0074 0F1F4000 		.p2align 3
 5004              	.L353:
 5005              		.cfi_restore_state
 5006 0078 4C8DAC24 		leaq	192(%rsp), %r13
 5006      C0000000 
 5007 0080 4889F5   		movq	%rsi, %rbp
 5008 0083 4889D3   		movq	%rdx, %rbx
 5009 0086 4C89EF   		movq	%r13, %rdi
 5010 0089 E8000000 		call	_ZNSt8ios_baseC2Ev@PLT
 5010      00
 5011 008e 31C0     		xorl	%eax, %eax
 5012 0090 660FEFC0 		pxor	%xmm0, %xmm0
 5013 0094 31F6     		xorl	%esi, %esi
 5014 0096 66898424 		movw	%ax, 416(%rsp)
 5014      A0010000 
 5015 009e 488D0500 		leaq	24+_ZTCN8UnitTest15MemoryOutStreamE0_So(%rip), %rax
 5015      000000
 5016 00a5 4C89EF   		movq	%r13, %rdi
 5017 00a8 48894424 		movq	%rax, 48(%rsp)
 5017      30
 5018 00ad 4883C028 		addq	$40, %rax
 5019 00b1 48C78424 		movq	$0, 408(%rsp)
 5019      98010000 
 5019      00000000 
 5020 00bd 48898424 		movq	%rax, 192(%rsp)
 5020      C0000000 
 5021 00c5 0F118424 		movups	%xmm0, 424(%rsp)
 5021      A8010000 
 5022 00cd 0F118424 		movups	%xmm0, 440(%rsp)
 5022      B8010000 
 5023              	.LEHB85:
 5024 00d5 E8000000 		call	_ZNSt9basic_iosIcSt11char_traitsIcEE4initEPSt15basic_streambufIcS1_E@PLT
 5024      00
 5025              	.LEHE85:
 5026 00da 660F6F0C 		movdqa	(%rsp), %xmm1
 5026      24
 5027 00df 4C8D7424 		leaq	112(%rsp), %r14
 5027      70
 5028 00e4 660FEFC0 		pxor	%xmm0, %xmm0
 5029 00e8 488D0500 		leaq	64+_ZTCN8UnitTest15MemoryOutStreamE0_NSt7__cxx1119basic_ostringstreamIcSt11char_traitsIcESaIc
 5029      000000
 5030 00ef 4C89F7   		movq	%r14, %rdi
 5031 00f2 0F294424 		movaps	%xmm0, 64(%rsp)
 5031      40
 5032 00f7 4C8D6424 		leaq	48(%rsp), %r12
 5032      30
 5033 00fc 4C8D7C24 		leaq	56(%rsp), %r15
 5033      38
 5034 0101 48898424 		movq	%rax, 192(%rsp)
 5034      C0000000 
 5035 0109 0F294C24 		movaps	%xmm1, 48(%rsp)
 5035      30
 5036 010e 0F294424 		movaps	%xmm0, 80(%rsp)
 5036      50
 5037 0113 0F294424 		movaps	%xmm0, 96(%rsp)
 5037      60
 5038 0118 E8000000 		call	_ZNSt6localeC1Ev@PLT
 5038      00
 5039 011d 488D0500 		leaq	16+_ZTVNSt7__cxx1115basic_stringbufIcSt11char_traitsIcESaIcEEE(%rip), %rax
 5039      000000
 5040 0124 4C89FE   		movq	%r15, %rsi
 5041 0127 48C78424 		movq	$0, 136(%rsp)
 5041      88000000 
 5041      00000000 
 5042 0133 48894424 		movq	%rax, 56(%rsp)
 5042      38
 5043 0138 488D8424 		leaq	144(%rsp), %rax
 5043      90000000 
 5044 0140 48894424 		movq	%rax, 32(%rsp)
 5044      20
 5045 0145 48898424 		movq	%rax, 128(%rsp)
 5045      80000000 
 5046 014d 488B4424 		movq	48(%rsp), %rax
 5046      30
 5047 0152 C6842490 		movb	$0, 144(%rsp)
 5047      00000000 
 5048 015a 488B78E8 		movq	-24(%rax), %rdi
 5049 015e C7442478 		movl	$16, 120(%rsp)
 5049      10000000 
 5050 0166 4C01E7   		addq	%r12, %rdi
 5051              	.LEHB86:
 5052 0169 E8000000 		call	_ZNSt9basic_iosIcSt11char_traitsIcEE4initEPSt15basic_streambufIcS1_E@PLT
 5052      00
 5053              	.LEHE86:
 5054 016e 4C8D3D00 		leaq	24+_ZTVN8UnitTest15MemoryOutStreamE(%rip), %r15
 5054      000000
 5055 0175 BA090000 		movl	$9, %edx
 5055      00
 5056 017a 4C89E7   		movq	%r12, %rdi
 5057 017d 48C78424 		movq	$0, 168(%rsp)
 5057      A8000000 
 5057      00000000 
 5058 0189 498D4728 		leaq	40(%r15), %rax
 5059 018d 488D3500 		leaq	.LC44(%rip), %rsi
 5059      000000
 5060 0194 4C897C24 		movq	%r15, 48(%rsp)
 5060      30
 5061 0199 48898424 		movq	%rax, 192(%rsp)
 5061      C0000000 
 5062 01a1 488D8424 		leaq	176(%rsp), %rax
 5062      B0000000 
 5063 01a9 48894424 		movq	%rax, 40(%rsp)
 5063      28
 5064 01ae 48898424 		movq	%rax, 160(%rsp)
 5064      A0000000 
 5065 01b6 C68424B0 		movb	$0, 176(%rsp)
 5065      00000000 
 5066              	.LEHB87:
 5067 01be E8000000 		call	_ZSt16__ostream_insertIcSt11char_traitsIcEERSt13basic_ostreamIT_T0_ES6_PKS3_l@PLT
 5067      00
 5068 01c3 8B7500   		movl	0(%rbp), %esi
 5069 01c6 4C89E7   		movq	%r12, %rdi
 5070 01c9 E8000000 		call	_ZNSolsEi@PLT
 5070      00
 5071 01ce BA090000 		movl	$9, %edx
 5071      00
 5072 01d3 488D3500 		leaq	.LC45(%rip), %rsi
 5072      000000
 5073 01da 4889C7   		movq	%rax, %rdi
 5074 01dd 4889C5   		movq	%rax, %rbp
 5075 01e0 E8000000 		call	_ZSt16__ostream_insertIcSt11char_traitsIcEERSt13basic_ostreamIT_T0_ES6_PKS3_l@PLT
 5075      00
 5076 01e5 8B33     		movl	(%rbx), %esi
 5077 01e7 4889EF   		movq	%rbp, %rdi
 5078 01ea E8000000 		call	_ZNSolsEi@PLT
 5078      00
 5079 01ef 4C89E7   		movq	%r12, %rdi
 5080 01f2 E8000000 		call	_ZNK8UnitTest15MemoryOutStream7GetTextEv@PLT
 5080      00
 5081 01f7 488B7424 		movq	24(%rsp), %rsi
 5081      18
 5082 01fc 488B7C24 		movq	16(%rsp), %rdi
 5082      10
 5083 0201 4889C2   		movq	%rax, %rdx
 5084 0204 F30F7E15 		movq	.LC33(%rip), %xmm2
 5084      00000000 
 5085 020c 0F161500 		movhps	.LC35(%rip), %xmm2
 5085      000000
 5086 0213 0F291424 		movaps	%xmm2, (%rsp)
 5087 0217 E8000000 		call	_ZN8UnitTest11TestResults13OnTestFailureERKNS_11TestDetailsEPKc@PLT
 5087      00
 5088              	.LEHE87:
 5089 021c 488D0500 		leaq	64+_ZTVN8UnitTest15MemoryOutStreamE(%rip), %rax
 5089      000000
 5090 0223 4C897C24 		movq	%r15, 48(%rsp)
 5090      30
 5091 0228 488BBC24 		movq	160(%rsp), %rdi
 5091      A0000000 
 5092 0230 48898424 		movq	%rax, 192(%rsp)
 5092      C0000000 
 5093 0238 483B7C24 		cmpq	40(%rsp), %rdi
 5093      28
 5094 023d 7405     		je	.L343
 5095 023f E8000000 		call	_ZdlPv@PLT
 5095      00
 5096              	.L343:
 5097 0244 660F6F1C 		movdqa	(%rsp), %xmm3
 5097      24
 5098 0249 488D0500 		leaq	64+_ZTCN8UnitTest15MemoryOutStreamE0_NSt7__cxx1119basic_ostringstreamIcSt11char_traitsIcESaIc
 5098      000000
 5099 0250 488BBC24 		movq	128(%rsp), %rdi
 5099      80000000 
 5100 0258 48898424 		movq	%rax, 192(%rsp)
 5100      C0000000 
 5101 0260 0F295C24 		movaps	%xmm3, 48(%rsp)
 5101      30
 5102 0265 483B7C24 		cmpq	32(%rsp), %rdi
 5102      20
 5103 026a 7405     		je	.L344
 5104 026c E8000000 		call	_ZdlPv@PLT
 5104      00
 5105              	.L344:
 5106 0271 488D0500 		leaq	16+_ZTVSt15basic_streambufIcSt11char_traitsIcEE(%rip), %rax
 5106      000000
 5107 0278 4C89F7   		movq	%r14, %rdi
 5108 027b 48894424 		movq	%rax, 56(%rsp)
 5108      38
 5109 0280 E8000000 		call	_ZNSt6localeD1Ev@PLT
 5109      00
 5110 0285 488D0500 		leaq	24+_ZTCN8UnitTest15MemoryOutStreamE0_So(%rip), %rax
 5110      000000
 5111 028c 4C89EF   		movq	%r13, %rdi
 5112 028f 48894424 		movq	%rax, 48(%rsp)
 5112      30
 5113 0294 488D0500 		leaq	16+_ZTVSt9basic_iosIcSt11char_traitsIcEE(%rip), %rax
 5113      000000
 5114 029b 48898424 		movq	%rax, 192(%rsp)
 5114      C0000000 
 5115              	.LEHB88:
 5116 02a3 E8000000 		call	_ZNSt8ios_baseD2Ev@PLT
 5116      00
 5117              	.LEHE88:
 5118 02a8 E99EFDFF 		jmp	.L337
 5118      FF
 5119              	.L354:
 5120 02ad E8000000 		call	__stack_chk_fail@PLT
 5120      00
 5121              	.L348:
 5122 02b2 F30F1EFA 		endbr64
 5123 02b6 4889C5   		movq	%rax, %rbp
 5124 02b9 EB26     		jmp	.L341
 5125              	.L349:
 5126 02bb F30F1EFA 		endbr64
 5127 02bf 4889C5   		movq	%rax, %rbp
 5128 02c2 EB09     		jmp	.L340
 5129              	.L347:
 5130 02c4 F30F1EFA 		endbr64
 5131 02c8 4889C5   		movq	%rax, %rbp
 5132 02cb EB33     		jmp	.L345
 5133              	.L340:
 5134 02cd 4C89FF   		movq	%r15, %rdi
 5135 02d0 E8000000 		call	_ZNSt7__cxx1115basic_stringbufIcSt11char_traitsIcESaIcEED1Ev
 5135      00
 5136 02d5 488D0500 		leaq	24+_ZTCN8UnitTest15MemoryOutStreamE0_So(%rip), %rax
 5136      000000
 5137 02dc 48894424 		movq	%rax, 48(%rsp)
 5137      30
 5138              	.L341:
 5139 02e1 488D0500 		leaq	16+_ZTVSt9basic_iosIcSt11char_traitsIcEE(%rip), %rax
 5139      000000
 5140 02e8 4C89EF   		movq	%r13, %rdi
 5141 02eb 48898424 		movq	%rax, 192(%rsp)
 5141      C0000000 
 5142 02f3 E8000000 		call	_ZNSt8ios_baseD2Ev@PLT
 5142      00
 5143 02f8 4889EF   		movq	%rbp, %rdi
 5144              	.LEHB89:
 5145 02fb E8000000 		call	_Unwind_Resume@PLT
 5145      00
 5146              	.LEHE89:
 5147              	.L345:
 5148 0300 4C89E7   		movq	%r12, %rdi
 5149 0303 E8000000 		call	_ZN8UnitTest15MemoryOutStreamD1Ev
 5149      00
 5150 0308 4889EF   		movq	%rbp, %rdi
 5151              	.LEHB90:
 5152 030b E8000000 		call	_Unwind_Resume@PLT
 5152      00
 5153              	.LEHE90:
 5154              		.cfi_endproc
 5155              	.LFE1354:
 5156              		.section	.gcc_except_table
 5157              	.LLSDA1354:
 5158 0298 FF       		.byte	0xff
 5159 0299 FF       		.byte	0xff
 5160 029a 01       		.byte	0x1
 5161 029b 21       		.uleb128 .LLSDACSE1354-.LLSDACSB1354
 5162              	.LLSDACSB1354:
 5163 029c D501     		.uleb128 .LEHB85-.LFB1354
 5164 029e 05       		.uleb128 .LEHE85-.LEHB85
 5165 029f B205     		.uleb128 .L348-.LFB1354
 5166 02a1 00       		.uleb128 0
 5167 02a2 E902     		.uleb128 .LEHB86-.LFB1354
 5168 02a4 05       		.uleb128 .LEHE86-.LEHB86
 5169 02a5 BB05     		.uleb128 .L349-.LFB1354
 5170 02a7 00       		.uleb128 0
 5171 02a8 BE03     		.uleb128 .LEHB87-.LFB1354
 5172 02aa 5E       		.uleb128 .LEHE87-.LEHB87
 5173 02ab C405     		.uleb128 .L347-.LFB1354
 5174 02ad 00       		.uleb128 0
 5175 02ae A305     		.uleb128 .LEHB88-.LFB1354
 5176 02b0 05       		.uleb128 .LEHE88-.LEHB88
 5177 02b1 00       		.uleb128 0
 5178 02b2 00       		.uleb128 0
 5179 02b3 FB05     		.uleb128 .LEHB89-.LFB1354
 5180 02b5 05       		.uleb128 .LEHE89-.LEHB89
 5181 02b6 00       		.uleb128 0
 5182 02b7 00       		.uleb128 0
 5183 02b8 8B06     		.uleb128 .LEHB90-.LFB1354
 5184 02ba 05       		.uleb128 .LEHE90-.LEHB90
 5185 02bb 00       		.uleb128 0
 5186 02bc 00       		.uleb128 0
 5187              	.LLSDACSE1354:
 5188              		.section	.text._ZN8UnitTest10CheckEqualIiiEEvRNS_11TestResultsERKT_RKT0_RKNS_11TestDetailsE,"axG",
 5190              		.section	.rodata.str1.1
 5191              	.LC47:
 5192 0036 66696C65 		.string	"file"
 5192      00
 5193              	.LC48:
 5194 003b 61727261 		.string	"array2DCloseSuite"
 5194      79324443 
 5194      6C6F7365 
 5194      53756974 
 5194      6500
 5195              	.LC49:
 5196 004d 61727261 		.string	"array2DCloseTest"
 5196      79324443 
 5196      6C6F7365 
 5196      54657374 
 5196      00
 5197              		.section	.rodata.str1.8
 5198 0069 00000000 		.align 8
 5198      000000
 5199              	.LC57:
 5200 0070 556E6861 		.string	"Unhandled exception in CHECK_EQUAL(\"array2DCloseTest\", reporter.lastFailedTest)"
 5200      6E646C65 
 5200      64206578 
 5200      63657074 
 5200      696F6E20 
 5201              		.align 8
 5202              	.LC58:
 5203 00c0 556E6861 		.string	"Unhandled exception in CHECK_EQUAL(\"array2DCloseSuite\", reporter.lastFailedSuite)"
 5203      6E646C65 
 5203      64206578 
 5203      63657074 
 5203      696F6E20 
 5204 0112 00000000 		.align 8
 5204      0000
 5205              	.LC59:
 5206 0118 556E6861 		.string	"Unhandled exception in CHECK_EQUAL(\"file\", reporter.lastFailedFile)"
 5206      6E646C65 
 5206      64206578 
 5206      63657074 
 5206      696F6E20 
 5207 015c 00000000 		.align 8
 5208              	.LC60:
 5209 0160 556E6861 		.string	"Unhandled exception in CHECK_EQUAL(1234, reporter.lastFailedLine)"
 5209      6E646C65 
 5209      64206578 
 5209      63657074 
 5209      696F6E20 
 5210              		.section	.text.unlikely
 5211 032f 90       		.align 2
 5212              	.LCOLDB61:
 5213              		.text
 5214              	.LHOTB61:
 5215              		.align 2
 5216 1748 0F1F8400 		.p2align 4
 5216      00000000 
 5218              	_ZNK12_GLOBAL__N_143TestCheckArray2DCloseFailureIncludesDetails7RunImplEv:
 5219              	.LFB1321:
 5220              		.cfi_startproc
 5221              		.cfi_personality 0x9b,DW.ref.__gxx_personality_v0
 5222              		.cfi_lsda 0x1b,.LLSDA1321
 5223 1750 F30F1EFA 		endbr64
 5224 1754 4157     		pushq	%r15
 5225              		.cfi_def_cfa_offset 16
 5226              		.cfi_offset 15, -16
 5227 1756 4156     		pushq	%r14
 5228              		.cfi_def_cfa_offset 24
 5229              		.cfi_offset 14, -24
 5230 1758 4155     		pushq	%r13
 5231              		.cfi_def_cfa_offset 32
 5232              		.cfi_offset 13, -32
 5233 175a 4154     		pushq	%r12
 5234              		.cfi_def_cfa_offset 40
 5235              		.cfi_offset 12, -40
 5236 175c 55       		pushq	%rbp
 5237              		.cfi_def_cfa_offset 48
 5238              		.cfi_offset 6, -48
 5239 175d 53       		pushq	%rbx
 5240              		.cfi_def_cfa_offset 56
 5241              		.cfi_offset 3, -56
 5242 175e 4881EC18 		subq	$2328, %rsp
 5242      090000
 5243              		.cfi_def_cfa_offset 2384
 5244 1765 64488B04 		movq	%fs:40, %rax
 5244      25280000 
 5244      00
 5245 176e 48898424 		movq	%rax, 2312(%rsp)
 5245      08090000 
 5246 1776 488D0500 		leaq	16+_ZTV17RecordingReporter(%rip), %rax
 5246      000000
 5247 177d 4C8DA424 		leaq	208(%rsp), %r12
 5247      D0000000 
 5248 1785 4C8D7C24 		leaq	16(%rsp), %r15
 5248      10
 5249 178a C78424D8 		movl	$0, 216(%rsp)
 5249      00000000 
 5249      000000
 5250 1795 4C89E6   		movq	%r12, %rsi
 5251 1798 4C89FF   		movq	%r15, %rdi
 5252 179b C78424DC 		movl	$0, 732(%rsp)
 5252      02000000 
 5252      000000
 5253 17a6 C78424E0 		movl	$0, 992(%rsp)
 5253      03000000 
 5253      000000
 5254 17b1 C78424E4 		movl	$0, 1764(%rsp)
 5254      06000000 
 5254      000000
 5255 17bc 48C78424 		movq	$0, 2280(%rsp)
 5255      E8080000 
 5255      00000000 
 5256 17c8 48C78424 		movq	$0, 2288(%rsp)
 5256      F0080000 
 5256      00000000 
 5257 17d4 48898424 		movq	%rax, 208(%rsp)
 5257      D0000000 
 5258 17dc C78424F8 		movl	$0x00000000, 2296(%rsp)
 5258      08000000 
 5258      000000
 5259 17e7 C68424DC 		movb	$0, 220(%rsp)
 5259      00000000 
 5260 17ef C68424DC 		movb	$0, 476(%rsp)
 5260      01000000 
 5261 17f7 C68424E0 		movb	$0, 736(%rsp)
 5261      02000000 
 5262 17ff C68424E4 		movb	$0, 996(%rsp)
 5262      03000000 
 5263 1807 C68424E4 		movb	$0, 1252(%rsp)
 5263      04000000 
 5264 180f C68424E4 		movb	$0, 1508(%rsp)
 5264      05000000 
 5265 1817 C68424E8 		movb	$0, 1768(%rsp)
 5265      06000000 
 5266 181f C68424E8 		movb	$0, 2024(%rsp)
 5266      07000000 
 5267              	.LEHB91:
 5268 1827 E8000000 		call	_ZN8UnitTest11TestResultsC1EPNS_12TestReporterE@PLT
 5268      00
 5269 182c 488D5C24 		leaq	48(%rsp), %rbx
 5269      30
 5270 1831 4C8D2D00 		leaq	.LC48(%rip), %r13
 5270      000000
 5271 1838 41B8D204 		movl	$1234, %r8d
 5271      0000
 5272 183e 4C8D3500 		leaq	.LC49(%rip), %r14
 5272      000000
 5273 1845 488D0D00 		leaq	.LC47(%rip), %rcx
 5273      000000
 5274 184c 4C89EA   		movq	%r13, %rdx
 5275 184f 4889DF   		movq	%rbx, %rdi
 5276 1852 4C89F6   		movq	%r14, %rsi
 5277 1855 E8000000 		call	_ZN8UnitTest11TestDetailsC1EPKcS2_S2_i@PLT
 5277      00
 5278 185a 488D6C24 		leaq	80(%rsp), %rbp
 5278      50
 5279 185f 488D7424 		leaq	112(%rsp), %rsi
 5279      70
 5280 1864 4989D8   		movq	%rbx, %r8
 5281 1867 4C89FF   		movq	%r15, %rdi
 5282 186a 0F280500 		movaps	.LC50(%rip), %xmm0
 5282      000000
 5283 1871 4889E9   		movq	%rbp, %rcx
 5284 1874 488D9424 		leaq	160(%rsp), %rdx
 5284      A0000000 
 5285 187c C7842490 		movl	$0x40800000, 144(%rsp)
 5285      00000000 
 5285      008040
 5286 1887 C78424C0 		movl	$0x408051ec, 192(%rsp)
 5286      000000EC 
 5286      518040
 5287 1892 0F294424 		movaps	%xmm0, 112(%rsp)
 5287      70
 5288 1897 0F280500 		movaps	.LC51(%rip), %xmm0
 5288      000000
 5289 189e C7442450 		movl	$0x3a83126f, 80(%rsp)
 5289      6F12833A 
 5290 18a6 0F298424 		movaps	%xmm0, 128(%rsp)
 5290      80000000 
 5291 18ae 0F280500 		movaps	.LC53(%rip), %xmm0
 5291      000000
 5292 18b5 0F298424 		movaps	%xmm0, 160(%rsp)
 5292      A0000000 
 5293 18bd 0F280500 		movaps	.LC54(%rip), %xmm0
 5293      000000
 5294 18c4 0F298424 		movaps	%xmm0, 176(%rsp)
 5294      B0000000 
 5295 18cc E8EFF0FF 		call	_ZN8UnitTest17CheckArray2DCloseIA3_A3_fS2_fEEvRNS_11TestResultsERKT_RKT0_iiRKT1_RKNS_11TestDe
 5295      FF
 5296              	.LEHE91:
 5297              	.LEHB92:
 5298 18d1 E8000000 		call	_ZN8UnitTest11CurrentTest7DetailsEv@PLT
 5298      00
 5299 18d6 488B30   		movq	(%rax), %rsi
 5300 18d9 BA1F0100 		movl	$287, %edx
 5300      00
 5301 18de 4889EF   		movq	%rbp, %rdi
 5302 18e1 E8000000 		call	_ZN8UnitTest11TestDetailsC1ERKS0_i@PLT
 5302      00
 5303 18e6 E8000000 		call	_ZN8UnitTest11CurrentTest7ResultsEv@PLT
 5303      00
 5304 18eb 488B38   		movq	(%rax), %rdi
 5305 18ee 488D9424 		leaq	1252(%rsp), %rdx
 5305      E4040000 
 5306 18f6 4889E9   		movq	%rbp, %rcx
 5307 18f9 4C89F6   		movq	%r14, %rsi
 5308 18fc E8000000 		call	_ZN8UnitTest10CheckEqualERNS_11TestResultsEPKcPcRKNS_11TestDetailsE@PLT
 5308      00
 5309              	.LEHE92:
 5310              	.L357:
 5311              	.LEHB93:
 5312 1901 E8000000 		call	_ZN8UnitTest11CurrentTest7DetailsEv@PLT
 5312      00
 5313 1906 488B30   		movq	(%rax), %rsi
 5314 1909 BA200100 		movl	$288, %edx
 5314      00
 5315 190e 4889EF   		movq	%rbp, %rdi
 5316 1911 E8000000 		call	_ZN8UnitTest11TestDetailsC1ERKS0_i@PLT
 5316      00
 5317 1916 E8000000 		call	_ZN8UnitTest11CurrentTest7ResultsEv@PLT
 5317      00
 5318 191b 488B38   		movq	(%rax), %rdi
 5319 191e 488D9424 		leaq	996(%rsp), %rdx
 5319      E4030000 
 5320 1926 4889E9   		movq	%rbp, %rcx
 5321 1929 4C89EE   		movq	%r13, %rsi
 5322 192c E8000000 		call	_ZN8UnitTest10CheckEqualERNS_11TestResultsEPKcPcRKNS_11TestDetailsE@PLT
 5322      00
 5323              	.LEHE93:
 5324              	.L361:
 5325              	.LEHB94:
 5326 1931 E8000000 		call	_ZN8UnitTest11CurrentTest7DetailsEv@PLT
 5326      00
 5327 1936 488B30   		movq	(%rax), %rsi
 5328 1939 BA210100 		movl	$289, %edx
 5328      00
 5329 193e 4889EF   		movq	%rbp, %rdi
 5330 1941 E8000000 		call	_ZN8UnitTest11TestDetailsC1ERKS0_i@PLT
 5330      00
 5331 1946 E8000000 		call	_ZN8UnitTest11CurrentTest7ResultsEv@PLT
 5331      00
 5332 194b 488B38   		movq	(%rax), %rdi
 5333 194e 488D9424 		leaq	736(%rsp), %rdx
 5333      E0020000 
 5334 1956 4889E9   		movq	%rbp, %rcx
 5335 1959 488D3500 		leaq	.LC47(%rip), %rsi
 5335      000000
 5336 1960 E8000000 		call	_ZN8UnitTest10CheckEqualERNS_11TestResultsEPKcPcRKNS_11TestDetailsE@PLT
 5336      00
 5337              	.LEHE94:
 5338              	.L364:
 5339              	.LEHB95:
 5340 1965 E8000000 		call	_ZN8UnitTest11CurrentTest7DetailsEv@PLT
 5340      00
 5341 196a 488B30   		movq	(%rax), %rsi
 5342 196d BA220100 		movl	$290, %edx
 5342      00
 5343 1972 4889EF   		movq	%rbp, %rdi
 5344 1975 E8000000 		call	_ZN8UnitTest11TestDetailsC1ERKS0_i@PLT
 5344      00
 5345 197a C744240C 		movl	$1234, 12(%rsp)
 5345      D2040000 
 5346 1982 E8000000 		call	_ZN8UnitTest11CurrentTest7ResultsEv@PLT
 5346      00
 5347 1987 488B38   		movq	(%rax), %rdi
 5348 198a 488D9424 		leaq	992(%rsp), %rdx
 5348      E0030000 
 5349 1992 488D7424 		leaq	12(%rsp), %rsi
 5349      0C
 5350 1997 4889E9   		movq	%rbp, %rcx
 5351 199a E8000000 		call	_ZN8UnitTest10CheckEqualIiiEEvRNS_11TestResultsERKT_RKT0_RKNS_11TestDetailsE
 5351      00
 5352              	.LEHE95:
 5353              	.L367:
 5354 199f 488D0500 		leaq	16+_ZTV17RecordingReporter(%rip), %rax
 5354      000000
 5355 19a6 4C89E7   		movq	%r12, %rdi
 5356 19a9 48898424 		movq	%rax, 208(%rsp)
 5356      D0000000 
 5357              	.LEHB96:
 5358 19b1 E8000000 		call	_ZN8UnitTest12TestReporterD2Ev@PLT
 5358      00
 5359              	.LEHE96:
 5360 19b6 488B8424 		movq	2312(%rsp), %rax
 5360      08090000 
 5361 19be 64482B04 		subq	%fs:40, %rax
 5361      25280000 
 5361      00
 5362 19c7 7512     		jne	.L383
 5363 19c9 4881C418 		addq	$2328, %rsp
 5363      090000
 5364              		.cfi_remember_state
 5365              		.cfi_def_cfa_offset 56
 5366 19d0 5B       		popq	%rbx
 5367              		.cfi_def_cfa_offset 48
 5368 19d1 5D       		popq	%rbp
 5369              		.cfi_def_cfa_offset 40
 5370 19d2 415C     		popq	%r12
 5371              		.cfi_def_cfa_offset 32
 5372 19d4 415D     		popq	%r13
 5373              		.cfi_def_cfa_offset 24
 5374 19d6 415E     		popq	%r14
 5375              		.cfi_def_cfa_offset 16
 5376 19d8 415F     		popq	%r15
 5377              		.cfi_def_cfa_offset 8
 5378 19da C3       		ret
 5379              	.L383:
 5380              		.cfi_restore_state
 5381 19db E8000000 		call	__stack_chk_fail@PLT
 5381      00
 5382              	.L377:
 5383 19e0 F30F1EFA 		endbr64
 5384 19e4 4889C7   		movq	%rax, %rdi
 5385 19e7 E9000000 		jmp	.L366
 5385      00
 5386              	.L375:
 5387 19ec F30F1EFA 		endbr64
 5388 19f0 4889C7   		movq	%rax, %rdi
 5389 19f3 E9000000 		jmp	.L363
 5389      00
 5390              	.L371:
 5391 19f8 F30F1EFA 		endbr64
 5392 19fc 4889C7   		movq	%rax, %rdi
 5393 19ff E9000000 		jmp	.L356
 5393      00
 5394              	.L373:
 5395 1a04 F30F1EFA 		endbr64
 5396 1a08 4889C7   		movq	%rax, %rdi
 5397 1a0b E9000000 		jmp	.L360
 5397      00
 5398              	.L379:
 5399 1a10 F30F1EFA 		endbr64
 5400 1a14 E9000000 		jmp	.L380
 5400      00
 5401              		.section	.gcc_except_table
 5402 02bd 000000   		.align 4
 5403              	.LLSDA1321:
 5404 02c0 FF       		.byte	0xff
 5405 02c1 9B       		.byte	0x9b
 5406 02c2 2D       		.uleb128 .LLSDATT1321-.LLSDATTD1321
 5407              	.LLSDATTD1321:
 5408 02c3 01       		.byte	0x1
 5409 02c4 24       		.uleb128 .LLSDACSE1321-.LLSDACSB1321
 5410              	.LLSDACSB1321:
 5411 02c5 D701     		.uleb128 .LEHB91-.LFB1321
 5412 02c7 AA01     		.uleb128 .LEHE91-.LEHB91
 5413 02c9 C005     		.uleb128 .L379-.LFB1321
 5414 02cb 00       		.uleb128 0
 5415 02cc 8103     		.uleb128 .LEHB92-.LFB1321
 5416 02ce 30       		.uleb128 .LEHE92-.LEHB92
 5417 02cf A805     		.uleb128 .L371-.LFB1321
 5418 02d1 01       		.uleb128 0x1
 5419 02d2 B103     		.uleb128 .LEHB93-.LFB1321
 5420 02d4 30       		.uleb128 .LEHE93-.LEHB93
 5421 02d5 B405     		.uleb128 .L373-.LFB1321
 5422 02d7 01       		.uleb128 0x1
 5423 02d8 E103     		.uleb128 .LEHB94-.LFB1321
 5424 02da 34       		.uleb128 .LEHE94-.LEHB94
 5425 02db 9C05     		.uleb128 .L375-.LFB1321
 5426 02dd 01       		.uleb128 0x1
 5427 02de 9504     		.uleb128 .LEHB95-.LFB1321
 5428 02e0 3A       		.uleb128 .LEHE95-.LEHB95
 5429 02e1 9005     		.uleb128 .L377-.LFB1321
 5430 02e3 01       		.uleb128 0x1
 5431 02e4 E104     		.uleb128 .LEHB96-.LFB1321
 5432 02e6 05       		.uleb128 .LEHE96-.LEHB96
 5433 02e7 00       		.uleb128 0
 5434 02e8 00       		.uleb128 0
 5435              	.LLSDACSE1321:
 5436 02e9 01       		.byte	0x1
 5437 02ea 00       		.byte	0
 5438 02eb 00       		.align 4
 5439 02ec 00000000 		.long	0
 5440              	
 5441              	.LLSDATT1321:
 5442              		.text
 5443              		.cfi_endproc
 5444              		.section	.text.unlikely
 5445              		.cfi_startproc
 5446              		.cfi_personality 0x9b,DW.ref.__gxx_personality_v0
 5447              		.cfi_lsda 0x1b,.LLSDAC1321
 5449              	_ZNK12_GLOBAL__N_143TestCheckArray2DCloseFailureIncludesDetails7RunImplEv.cold:
 5450              	.LFSB1321:
 5451              	.L366:
 5452              		.cfi_def_cfa_offset 2384
 5453              		.cfi_offset 3, -56
 5454              		.cfi_offset 6, -48
 5455              		.cfi_offset 12, -40
 5456              		.cfi_offset 13, -32
 5457              		.cfi_offset 14, -24
 5458              		.cfi_offset 15, -16
 5459 0330 E8000000 		call	__cxa_begin_catch@PLT
 5459      00
 5460              	.LEHB97:
 5461 0335 E8000000 		call	_ZN8UnitTest11CurrentTest7ResultsEv@PLT
 5461      00
 5462 033a 4C8B28   		movq	(%rax), %r13
 5463 033d E8000000 		call	_ZN8UnitTest11CurrentTest7DetailsEv@PLT
 5463      00
 5464 0342 488B30   		movq	(%rax), %rsi
 5465 0345 BA220100 		movl	$290, %edx
 5465      00
 5466 034a 4889EF   		movq	%rbp, %rdi
 5467 034d E8000000 		call	_ZN8UnitTest11TestDetailsC1ERKS0_i@PLT
 5467      00
 5468 0352 488D1500 		leaq	.LC60(%rip), %rdx
 5468      000000
 5469 0359 4889EE   		movq	%rbp, %rsi
 5470 035c 4C89EF   		movq	%r13, %rdi
 5471 035f E8000000 		call	_ZN8UnitTest11TestResults13OnTestFailureERKNS_11TestDetailsEPKc@PLT
 5471      00
 5472              	.LEHE97:
 5473              	.LEHB98:
 5474 0364 E8000000 		call	__cxa_end_catch@PLT
 5474      00
 5475              	.LEHE98:
 5476 0369 E9000000 		jmp	.L367
 5476      00
 5477              	.L363:
 5478 036e E8000000 		call	__cxa_begin_catch@PLT
 5478      00
 5479              	.LEHB99:
 5480 0373 E8000000 		call	_ZN8UnitTest11CurrentTest7ResultsEv@PLT
 5480      00
 5481 0378 4C8B28   		movq	(%rax), %r13
 5482 037b E8000000 		call	_ZN8UnitTest11CurrentTest7DetailsEv@PLT
 5482      00
 5483 0380 488B30   		movq	(%rax), %rsi
 5484 0383 BA210100 		movl	$289, %edx
 5484      00
 5485 0388 4889EF   		movq	%rbp, %rdi
 5486 038b E8000000 		call	_ZN8UnitTest11TestDetailsC1ERKS0_i@PLT
 5486      00
 5487 0390 488D1500 		leaq	.LC59(%rip), %rdx
 5487      000000
 5488 0397 4889EE   		movq	%rbp, %rsi
 5489 039a 4C89EF   		movq	%r13, %rdi
 5490 039d E8000000 		call	_ZN8UnitTest11TestResults13OnTestFailureERKNS_11TestDetailsEPKc@PLT
 5490      00
 5491              	.LEHE99:
 5492              	.LEHB100:
 5493 03a2 E8000000 		call	__cxa_end_catch@PLT
 5493      00
 5494              	.LEHE100:
 5495 03a7 E9000000 		jmp	.L364
 5495      00
 5496              	.L360:
 5497 03ac E8000000 		call	__cxa_begin_catch@PLT
 5497      00
 5498              	.LEHB101:
 5499 03b1 E8000000 		call	_ZN8UnitTest11CurrentTest7ResultsEv@PLT
 5499      00
 5500 03b6 4C8B28   		movq	(%rax), %r13
 5501 03b9 E8000000 		call	_ZN8UnitTest11CurrentTest7DetailsEv@PLT
 5501      00
 5502 03be 488B30   		movq	(%rax), %rsi
 5503 03c1 BA200100 		movl	$288, %edx
 5503      00
 5504 03c6 4889EF   		movq	%rbp, %rdi
 5505 03c9 E8000000 		call	_ZN8UnitTest11TestDetailsC1ERKS0_i@PLT
 5505      00
 5506 03ce 488D1500 		leaq	.LC58(%rip), %rdx
 5506      000000
 5507 03d5 4889EE   		movq	%rbp, %rsi
 5508 03d8 4C89EF   		movq	%r13, %rdi
 5509 03db E8000000 		call	_ZN8UnitTest11TestResults13OnTestFailureERKNS_11TestDetailsEPKc@PLT
 5509      00
 5510              	.LEHE101:
 5511              	.LEHB102:
 5512 03e0 E8000000 		call	__cxa_end_catch@PLT
 5512      00
 5513              	.LEHE102:
 5514 03e5 E9000000 		jmp	.L361
 5514      00
 5515              	.L376:
 5516 03ea F30F1EFA 		endbr64
 5517 03ee 4889C5   		movq	%rax, %rbp
 5518 03f1 E8000000 		call	__cxa_end_catch@PLT
 5518      00
 5519              	.L359:
 5520 03f6 488D0500 		leaq	16+_ZTV17RecordingReporter(%rip), %rax
 5520      000000
 5521 03fd 4C89E7   		movq	%r12, %rdi
 5522 0400 48898424 		movq	%rax, 208(%rsp)
 5522      D0000000 
 5523 0408 E8000000 		call	_ZN8UnitTest12TestReporterD2Ev@PLT
 5523      00
 5524 040d 4889EF   		movq	%rbp, %rdi
 5525              	.LEHB103:
 5526 0410 E8000000 		call	_Unwind_Resume@PLT
 5526      00
 5527              	.LEHE103:
 5528              	.L374:
 5529 0415 F30F1EFA 		endbr64
 5530 0419 4889C5   		movq	%rax, %rbp
 5531 041c E8000000 		call	__cxa_end_catch@PLT
 5531      00
 5532 0421 EBD3     		jmp	.L359
 5533              	.L356:
 5534 0423 E8000000 		call	__cxa_begin_catch@PLT
 5534      00
 5535              	.LEHB104:
 5536 0428 E8000000 		call	_ZN8UnitTest11CurrentTest7ResultsEv@PLT
 5536      00
 5537 042d 4C8B30   		movq	(%rax), %r14
 5538 0430 E8000000 		call	_ZN8UnitTest11CurrentTest7DetailsEv@PLT
 5538      00
 5539 0435 488B30   		movq	(%rax), %rsi
 5540 0438 BA1F0100 		movl	$287, %edx
 5540      00
 5541 043d 4889EF   		movq	%rbp, %rdi
 5542 0440 E8000000 		call	_ZN8UnitTest11TestDetailsC1ERKS0_i@PLT
 5542      00
 5543 0445 488D1500 		leaq	.LC57(%rip), %rdx
 5543      000000
 5544 044c 4889EE   		movq	%rbp, %rsi
 5545 044f 4C89F7   		movq	%r14, %rdi
 5546 0452 E8000000 		call	_ZN8UnitTest11TestResults13OnTestFailureERKNS_11TestDetailsEPKc@PLT
 5546      00
 5547              	.LEHE104:
 5548              	.LEHB105:
 5549 0457 E8000000 		call	__cxa_end_catch@PLT
 5549      00
 5550              	.LEHE105:
 5551 045c E9000000 		jmp	.L357
 5551      00
 5552              	.L370:
 5553 0461 F30F1EFA 		endbr64
 5554              	.L380:
 5555 0465 4889C5   		movq	%rax, %rbp
 5556 0468 EB8C     		jmp	.L359
 5557              	.L372:
 5558 046a F30F1EFA 		endbr64
 5559 046e 4889C5   		movq	%rax, %rbp
 5560 0471 E8000000 		call	__cxa_end_catch@PLT
 5560      00
 5561 0476 E97BFFFF 		jmp	.L359
 5561      FF
 5562              	.L378:
 5563 047b F30F1EFA 		endbr64
 5564 047f 4889C5   		movq	%rax, %rbp
 5565 0482 E8000000 		call	__cxa_end_catch@PLT
 5565      00
 5566 0487 E96AFFFF 		jmp	.L359
 5566      FF
 5567              		.cfi_endproc
 5568              	.LFE1321:
 5569              		.section	.gcc_except_table
 5570              		.align 4
 5571              	.LLSDAC1321:
 5572 02f0 FF       		.byte	0xff
 5573 02f1 9B       		.byte	0x9b
 5574 02f2 39       		.uleb128 .LLSDATTC1321-.LLSDATTDC1321
 5575              	.LLSDATTDC1321:
 5576 02f3 01       		.byte	0x1
 5577 02f4 31       		.uleb128 .LLSDACSEC1321-.LLSDACSBC1321
 5578              	.LLSDACSBC1321:
 5579 02f5 05       		.uleb128 .LEHB97-.LCOLDB61
 5580 02f6 2F       		.uleb128 .LEHE97-.LEHB97
 5581 02f7 CB02     		.uleb128 .L378-.LCOLDB61
 5582 02f9 00       		.uleb128 0
 5583 02fa 34       		.uleb128 .LEHB98-.LCOLDB61
 5584 02fb 05       		.uleb128 .LEHE98-.LEHB98
 5585 02fc B102     		.uleb128 .L370-.LCOLDB61
 5586 02fe 00       		.uleb128 0
 5587 02ff 43       		.uleb128 .LEHB99-.LCOLDB61
 5588 0300 2F       		.uleb128 .LEHE99-.LEHB99
 5589 0301 BA01     		.uleb128 .L376-.LCOLDB61
 5590 0303 00       		.uleb128 0
 5591 0304 72       		.uleb128 .LEHB100-.LCOLDB61
 5592 0305 05       		.uleb128 .LEHE100-.LEHB100
 5593 0306 B102     		.uleb128 .L370-.LCOLDB61
 5594 0308 00       		.uleb128 0
 5595 0309 8101     		.uleb128 .LEHB101-.LCOLDB61
 5596 030b 2F       		.uleb128 .LEHE101-.LEHB101
 5597 030c E501     		.uleb128 .L374-.LCOLDB61
 5598 030e 00       		.uleb128 0
 5599 030f B001     		.uleb128 .LEHB102-.LCOLDB61
 5600 0311 05       		.uleb128 .LEHE102-.LEHB102
 5601 0312 B102     		.uleb128 .L370-.LCOLDB61
 5602 0314 00       		.uleb128 0
 5603 0315 E001     		.uleb128 .LEHB103-.LCOLDB61
 5604 0317 05       		.uleb128 .LEHE103-.LEHB103
 5605 0318 00       		.uleb128 0
 5606 0319 00       		.uleb128 0
 5607 031a F801     		.uleb128 .LEHB104-.LCOLDB61
 5608 031c 2F       		.uleb128 .LEHE104-.LEHB104
 5609 031d BA02     		.uleb128 .L372-.LCOLDB61
 5610 031f 00       		.uleb128 0
 5611 0320 A702     		.uleb128 .LEHB105-.LCOLDB61
 5612 0322 05       		.uleb128 .LEHE105-.LEHB105
 5613 0323 B102     		.uleb128 .L370-.LCOLDB61
 5614 0325 00       		.uleb128 0
 5615              	.LLSDACSEC1321:
 5616 0326 01       		.byte	0x1
 5617 0327 00       		.byte	0
 5618              		.align 4
 5619 0328 00000000 		.long	0
 5620              	
 5621              	.LLSDATTC1321:
 5622              		.section	.text.unlikely
 5623              		.text
 5625              		.section	.text.unlikely
 5627              	.LCOLDE61:
 5628              		.text
 5629              	.LHOTE61:
 5630              		.section	.rodata.str1.1
 5631              	.LC62:
 5632 005e 00       		.string	""
 5633              		.section	.rodata.str1.8
 5634 01a2 00000000 		.align 8
 5634      0000
 5635              	.LC63:
 5636 01a8 556E6861 		.string	"Unhandled exception in CHECK_EQUAL(1, results.GetFailureCount())"
 5636      6E646C65 
 5636      64206578 
 5636      63657074 
 5636      696F6E20 
 5637              		.section	.text.unlikely
 5638              		.align 2
 5639              	.LCOLDB64:
 5640              		.text
 5641              	.LHOTB64:
 5642 1a19 90       		.align 2
 5643 1a1a 660F1F44 		.p2align 4
 5643      0000
 5645              	_ZNK12_GLOBAL__N_126TestCheckArray2DCloseFalse7RunImplEv:
 5646              	.LFB1313:
 5647              		.cfi_startproc
 5648              		.cfi_personality 0x9b,DW.ref.__gxx_personality_v0
 5649              		.cfi_lsda 0x1b,.LLSDA1313
 5650 1a20 F30F1EFA 		endbr64
 5651 1a24 4155     		pushq	%r13
 5652              		.cfi_def_cfa_offset 16
 5653              		.cfi_offset 13, -16
 5654 1a26 31F6     		xorl	%esi, %esi
 5655 1a28 4154     		pushq	%r12
 5656              		.cfi_def_cfa_offset 24
 5657              		.cfi_offset 12, -24
 5658 1a2a 55       		pushq	%rbp
 5659              		.cfi_def_cfa_offset 32
 5660              		.cfi_offset 6, -32
 5661 1a2b 4881ECB0 		subq	$176, %rsp
 5661      000000
 5662              		.cfi_def_cfa_offset 208
 5663 1a32 64488B04 		movq	%fs:40, %rax
 5663      25280000 
 5663      00
 5664 1a3b 48898424 		movq	%rax, 168(%rsp)
 5664      A8000000 
 5665 1a43 31C0     		xorl	%eax, %eax
 5666 1a45 4C8D6424 		leaq	16(%rsp), %r12
 5666      10
 5667 1a4a 488D6C24 		leaq	48(%rsp), %rbp
 5667      30
 5668 1a4f 4C89E7   		movq	%r12, %rdi
 5669 1a52 4C8D6C24 		leaq	12(%rsp), %r13
 5669      0C
 5670              	.LEHB106:
 5671 1a57 E8000000 		call	_ZN8UnitTest11TestResultsC1EPNS_12TestReporterE@PLT
 5671      00
 5672 1a5c 0F280500 		movaps	.LC50(%rip), %xmm0
 5672      000000
 5673 1a63 4531C0   		xorl	%r8d, %r8d
 5674 1a66 4889EF   		movq	%rbp, %rdi
 5675 1a69 488D3500 		leaq	.LC62(%rip), %rsi
 5675      000000
 5676 1a70 C7442470 		movl	$0x40800000, 112(%rsp)
 5676      00008040 
 5677 1a78 0F294424 		movaps	%xmm0, 80(%rsp)
 5677      50
 5678 1a7d 4889F1   		movq	%rsi, %rcx
 5679 1a80 0F280500 		movaps	.LC51(%rip), %xmm0
 5679      000000
 5680 1a87 4889F2   		movq	%rsi, %rdx
 5681 1a8a C78424A0 		movl	$0x408051ec, 160(%rsp)
 5681      000000EC 
 5681      518040
 5682 1a95 0F294424 		movaps	%xmm0, 96(%rsp)
 5682      60
 5683 1a9a 0F280500 		movaps	.LC53(%rip), %xmm0
 5683      000000
 5684 1aa1 0F298424 		movaps	%xmm0, 128(%rsp)
 5684      80000000 
 5685 1aa9 0F280500 		movaps	.LC54(%rip), %xmm0
 5685      000000
 5686 1ab0 0F298424 		movaps	%xmm0, 144(%rsp)
 5686      90000000 
 5687 1ab8 E8000000 		call	_ZN8UnitTest11TestDetailsC1EPKcS2_S2_i@PLT
 5687      00
 5688 1abd 488D7424 		leaq	80(%rsp), %rsi
 5688      50
 5689 1ac2 4989E8   		movq	%rbp, %r8
 5690 1ac5 4C89E9   		movq	%r13, %rcx
 5691 1ac8 488D9424 		leaq	128(%rsp), %rdx
 5691      80000000 
 5692 1ad0 4C89E7   		movq	%r12, %rdi
 5693 1ad3 C744240C 		movl	$0x3a83126f, 12(%rsp)
 5693      6F12833A 
 5694 1adb E8E0EEFF 		call	_ZN8UnitTest17CheckArray2DCloseIA3_A3_fS2_fEEvRNS_11TestResultsERKT_RKT0_iiRKT1_RKNS_11TestDe
 5694      FF
 5695              	.LEHE106:
 5696              	.LEHB107:
 5697 1ae0 E8000000 		call	_ZN8UnitTest11CurrentTest7DetailsEv@PLT
 5697      00
 5698 1ae5 488B30   		movq	(%rax), %rsi
 5699 1ae8 BA090100 		movl	$265, %edx
 5699      00
 5700 1aed 4889EF   		movq	%rbp, %rdi
 5701 1af0 E8000000 		call	_ZN8UnitTest11TestDetailsC1ERKS0_i@PLT
 5701      00
 5702 1af5 4C89E7   		movq	%r12, %rdi
 5703 1af8 E8000000 		call	_ZNK8UnitTest11TestResults15GetFailureCountEv@PLT
 5703      00
 5704 1afd 8944240C 		movl	%eax, 12(%rsp)
 5705 1b01 C7442408 		movl	$1, 8(%rsp)
