   1              		.file	"testI2C.cpp"
   2              		.text
   3              	.Ltext0:
   4              		.file 0 "/home/pong/FPGALink/makestuff/libs/libfx2loader/tests" "testI2C.cpp"
   5              		.section	.rodata
   6              	.LC0:
   7 0000 44656661 		.string	"DefaultSuite"
   7      756C7453 
   7      75697465 
   7      00
   8              		.section	.text._ZN13UnitTestSuite12GetSuiteNameEv,"axG",@progbits,_ZN13UnitTestSuite12GetSuiteName
   9              		.weak	_ZN13UnitTestSuite12GetSuiteNameEv
  11              	_ZN13UnitTestSuite12GetSuiteNameEv:
  12              	.LFB0:
  13              		.file 1 "/home/pong/FPGALink/makestuff/libs/libutpp/TestSuite.h"
   1:/home/pong/FPGALink/makestuff/libs/libutpp/TestSuite.h **** #ifndef UNITTEST_TESTSUITE_H
   2:/home/pong/FPGALink/makestuff/libs/libutpp/TestSuite.h **** #define UNITTEST_TESTSUITE_H
   3:/home/pong/FPGALink/makestuff/libs/libutpp/TestSuite.h **** 
   4:/home/pong/FPGALink/makestuff/libs/libutpp/TestSuite.h **** namespace UnitTestSuite {
   5:/home/pong/FPGALink/makestuff/libs/libutpp/TestSuite.h **** 
   6:/home/pong/FPGALink/makestuff/libs/libutpp/TestSuite.h ****     inline char const* GetSuiteName ()
   7:/home/pong/FPGALink/makestuff/libs/libutpp/TestSuite.h ****     {
  14              		.loc 1 7 5
  15              		.cfi_startproc
  16 0000 F30F1EFA 		endbr64
  17 0004 55       		pushq	%rbp
  18              		.cfi_def_cfa_offset 16
  19              		.cfi_offset 6, -16
  20 0005 4889E5   		movq	%rsp, %rbp
  21              		.cfi_def_cfa_register 6
   8:/home/pong/FPGALink/makestuff/libs/libutpp/TestSuite.h ****         return "DefaultSuite";
  22              		.loc 1 8 16
  23 0008 488D0500 		leaq	.LC0(%rip), %rax
  23      000000
   9:/home/pong/FPGALink/makestuff/libs/libutpp/TestSuite.h ****     }
  24              		.loc 1 9 5
  25 000f 5D       		popq	%rbp
  26              		.cfi_def_cfa 7, 8
  27 0010 C3       		ret
  28              		.cfi_endproc
  29              	.LFE0:
  31              		.section	.text._ZN8UnitTest15MemoryOutStreamC1Ev,"axG",@progbits,_ZN8UnitTest15MemoryOutStreamC1Ev
  32              		.align 2
  33              		.weak	_ZN8UnitTest15MemoryOutStreamC1Ev
  35              	_ZN8UnitTest15MemoryOutStreamC1Ev:
  36              	.LFB1129:
  37              		.file 2 "/home/pong/FPGALink/makestuff/libs/libutpp/MemoryOutStream.h"
   1:/home/pong/FPGALink/makestuff/libs/libutpp/MemoryOutStream.h **** #ifndef UNITTEST_MEMORYOUTSTREAM_H
   2:/home/pong/FPGALink/makestuff/libs/libutpp/MemoryOutStream.h **** #define UNITTEST_MEMORYOUTSTREAM_H
   3:/home/pong/FPGALink/makestuff/libs/libutpp/MemoryOutStream.h **** 
   4:/home/pong/FPGALink/makestuff/libs/libutpp/MemoryOutStream.h **** #include "Config.h"
   5:/home/pong/FPGALink/makestuff/libs/libutpp/MemoryOutStream.h **** 
   6:/home/pong/FPGALink/makestuff/libs/libutpp/MemoryOutStream.h **** #ifndef UNITTEST_USE_CUSTOM_STREAMS
   7:/home/pong/FPGALink/makestuff/libs/libutpp/MemoryOutStream.h **** 
   8:/home/pong/FPGALink/makestuff/libs/libutpp/MemoryOutStream.h **** #include <sstream>
   9:/home/pong/FPGALink/makestuff/libs/libutpp/MemoryOutStream.h **** 
  10:/home/pong/FPGALink/makestuff/libs/libutpp/MemoryOutStream.h **** namespace UnitTest
  11:/home/pong/FPGALink/makestuff/libs/libutpp/MemoryOutStream.h **** {
  12:/home/pong/FPGALink/makestuff/libs/libutpp/MemoryOutStream.h **** 
  13:/home/pong/FPGALink/makestuff/libs/libutpp/MemoryOutStream.h **** class MemoryOutStream : public std::ostringstream
  14:/home/pong/FPGALink/makestuff/libs/libutpp/MemoryOutStream.h **** {
  15:/home/pong/FPGALink/makestuff/libs/libutpp/MemoryOutStream.h **** public:
  16:/home/pong/FPGALink/makestuff/libs/libutpp/MemoryOutStream.h ****     MemoryOutStream() {}
  38              		.loc 2 16 5
  39              		.cfi_startproc
  40              		.cfi_personality 0x9b,DW.ref.__gxx_personality_v0
  41              		.cfi_lsda 0x1b,.LLSDA1129
  42 0000 F30F1EFA 		endbr64
  43 0004 55       		pushq	%rbp
  44              		.cfi_def_cfa_offset 16
  45              		.cfi_offset 6, -16
  46 0005 4889E5   		movq	%rsp, %rbp
  47              		.cfi_def_cfa_register 6
  48 0008 53       		pushq	%rbx
  49 0009 4883EC18 		subq	$24, %rsp
  50              		.cfi_offset 3, -24
  51 000d 48897DE8 		movq	%rdi, -24(%rbp)
  52              	.LBB2:
  53              		.loc 2 16 23
  54 0011 488B45E8 		movq	-24(%rbp), %rax
  55 0015 48059000 		addq	$144, %rax
  55      0000
  56 001b 4889C7   		movq	%rax, %rdi
  57              	.LEHB0:
  58 001e E8000000 		call	_ZNSt9basic_iosIcSt11char_traitsIcEEC2Ev@PLT
  58      00
  59              	.LEHE0:
  60 0023 488B45E8 		movq	-24(%rbp), %rax
  61 0027 488D1500 		leaq	8+_ZTTN8UnitTest15MemoryOutStreamE(%rip), %rdx
  61      000000
  62 002e 4889D6   		movq	%rdx, %rsi
  63 0031 4889C7   		movq	%rax, %rdi
  64              	.LEHB1:
  65 0034 E8000000 		call	_ZNSt7__cxx1119basic_ostringstreamIcSt11char_traitsIcESaIcEEC2Ev@PLT
  65      00
  66              	.LEHE1:
  67              		.loc 2 16 23 is_stmt 0 discriminator 2
  68 0039 488D1500 		leaq	24+_ZTVN8UnitTest15MemoryOutStreamE(%rip), %rdx
  68      000000
  69 0040 488B45E8 		movq	-24(%rbp), %rax
  70 0044 488910   		movq	%rdx, (%rax)
  71 0047 488B45E8 		movq	-24(%rbp), %rax
  72 004b 48059000 		addq	$144, %rax
  72      0000
  73 0051 488D1500 		leaq	64+_ZTVN8UnitTest15MemoryOutStreamE(%rip), %rdx
  73      000000
  74 0058 488910   		movq	%rdx, (%rax)
  75 005b 488B45E8 		movq	-24(%rbp), %rax
  76 005f 4883C070 		addq	$112, %rax
  77 0063 4889C7   		movq	%rax, %rdi
  78              	.LEHB2:
  79 0066 E8000000 		call	_ZNSt7__cxx1112basic_stringIcSt11char_traitsIcESaIcEEC1Ev@PLT
  79      00
  80              	.LEHE2:
  81              	.LBE2:
  82              		.loc 2 16 24 is_stmt 1
  83 006b EB43     		jmp	.L8
  84              	.L7:
  85 006d F30F1EFA 		endbr64
  86              	.LBB3:
  87 0071 4889C3   		movq	%rax, %rbx
  88 0074 488B45E8 		movq	-24(%rbp), %rax
  89 0078 488D1500 		leaq	8+_ZTTN8UnitTest15MemoryOutStreamE(%rip), %rdx
  89      000000
  90 007f 4889D6   		movq	%rdx, %rsi
  91 0082 4889C7   		movq	%rax, %rdi
  92 0085 E8000000 		call	_ZNSt7__cxx1119basic_ostringstreamIcSt11char_traitsIcESaIcEED2Ev@PLT
  92      00
  93 008a EB07     		jmp	.L5
  94              	.L6:
  95 008c F30F1EFA 		endbr64
  96 0090 4889C3   		movq	%rax, %rbx
  97              	.L5:
  98              		.loc 2 16 24 is_stmt 0 discriminator 1
  99 0093 488B45E8 		movq	-24(%rbp), %rax
 100 0097 48059000 		addq	$144, %rax
 100      0000
 101 009d 4889C7   		movq	%rax, %rdi
 102 00a0 E8000000 		call	_ZNSt9basic_iosIcSt11char_traitsIcEED2Ev@PLT
 102      00
 103 00a5 4889D8   		movq	%rbx, %rax
 104 00a8 4889C7   		movq	%rax, %rdi
 105              	.LEHB3:
 106 00ab E8000000 		call	_Unwind_Resume@PLT
 106      00
 107              	.LEHE3:
 108              	.L8:
 109              	.LBE3:
 110              		.loc 2 16 24
 111 00b0 488B5DF8 		movq	-8(%rbp), %rbx
 112 00b4 C9       		leave
 113              		.cfi_def_cfa 7, 8
 114 00b5 C3       		ret
 115              		.cfi_endproc
 116              	.LFE1129:
 117              		.globl	__gxx_personality_v0
 118              		.section	.gcc_except_table._ZN8UnitTest15MemoryOutStreamC1Ev,"aG",@progbits,_ZN8UnitTest15MemoryOu
 119              	.LLSDA1129:
 120 0000 FF       		.byte	0xff
 121 0001 FF       		.byte	0xff
 122 0002 01       		.byte	0x1
 123 0003 12       		.uleb128 .LLSDACSE1129-.LLSDACSB1129
 124              	.LLSDACSB1129:
 125 0004 1E       		.uleb128 .LEHB0-.LFB1129
 126 0005 05       		.uleb128 .LEHE0-.LEHB0
 127 0006 00       		.uleb128 0
 128 0007 00       		.uleb128 0
 129 0008 34       		.uleb128 .LEHB1-.LFB1129
 130 0009 05       		.uleb128 .LEHE1-.LEHB1
 131 000a 8C01     		.uleb128 .L6-.LFB1129
 132 000c 00       		.uleb128 0
 133 000d 66       		.uleb128 .LEHB2-.LFB1129
 134 000e 05       		.uleb128 .LEHE2-.LEHB2
 135 000f 6D       		.uleb128 .L7-.LFB1129
 136 0010 00       		.uleb128 0
 137 0011 AB01     		.uleb128 .LEHB3-.LFB1129
 138 0013 05       		.uleb128 .LEHE3-.LEHB3
 139 0014 00       		.uleb128 0
 140 0015 00       		.uleb128 0
 141              	.LLSDACSE1129:
 142              		.section	.text._ZN8UnitTest15MemoryOutStreamC1Ev,"axG",@progbits,_ZN8UnitTest15MemoryOutStreamC1Ev
 144              		.section	.rodata
 145              	.LC1:
 146 000d 74657374 		.string	"testI2C.cpp"
 146      4932432E 
 146      63707000 
 147              	.LC2:
 148 0019 4932435F 		.string	"I2C_testInitialise"
 148      74657374 
 148      496E6974 
 148      69616C69 
 148      736500
 149              		.section	.text._ZN22TestI2C_testInitialiseC2Ev,"axG",@progbits,_ZN22TestI2C_testInitialiseC5Ev,com
 150              		.align 2
 151              		.weak	_ZN22TestI2C_testInitialiseC2Ev
 153              	_ZN22TestI2C_testInitialiseC2Ev:
 154              	.LFB1146:
 155              		.file 3 "testI2C.cpp"
   1:testI2C.cpp   **** /*
   2:testI2C.cpp   ****  * Copyright (C) 2009-2012 Chris McClelland
   3:testI2C.cpp   ****  *
   4:testI2C.cpp   ****  * This program is free software: you can redistribute it and/or modify
   5:testI2C.cpp   ****  * it under the terms of the GNU Lesser General Public License as published by
   6:testI2C.cpp   ****  * the Free Software Foundation, either version 3 of the License, or
   7:testI2C.cpp   ****  * (at your option) any later version.
   8:testI2C.cpp   ****  *
   9:testI2C.cpp   ****  * This program is distributed in the hope that it will be useful,
  10:testI2C.cpp   ****  * but WITHOUT ANY WARRANTY; without even the implied warranty of
  11:testI2C.cpp   ****  * MERCHANTABILITY or FITNESS FOR A PARTICULAR PURPOSE.  See the
  12:testI2C.cpp   ****  * GNU Lesser General Public License for more details.
  13:testI2C.cpp   ****  *
  14:testI2C.cpp   ****  * You should have received a copy of the GNU Lesser General Public License
  15:testI2C.cpp   ****  * along with this program.  If not, see <http://www.gnu.org/licenses/>.
  16:testI2C.cpp   ****  */
  17:testI2C.cpp   **** #include <string.h>
  18:testI2C.cpp   **** #include <UnitTest++.h>
  19:testI2C.cpp   **** #include <makestuff.h>
  20:testI2C.cpp   **** #include <libbuffer.h>
  21:testI2C.cpp   **** #include "../libfx2loader.h"
  22:testI2C.cpp   **** #include "../libfx2loader.h"
  23:testI2C.cpp   **** 
  24:testI2C.cpp   **** #define VID 0x04b4
  25:testI2C.cpp   **** #define PID 0x8613
  26:testI2C.cpp   **** #define DID 0x0000
  27:testI2C.cpp   **** 
  28:testI2C.cpp   **** #define LSB(x) (x & 0xFF)
  29:testI2C.cpp   **** #define MSB(x) (x >> 8)
  30:testI2C.cpp   **** 
  31:testI2C.cpp   **** TEST(I2C_testInitialise) {
 156              		.loc 3 31 1 is_stmt 1
 157              		.cfi_startproc
 158 0000 F30F1EFA 		endbr64
 159 0004 55       		pushq	%rbp
 160              		.cfi_def_cfa_offset 16
 161              		.cfi_offset 6, -16
 162 0005 4889E5   		movq	%rsp, %rbp
 163              		.cfi_def_cfa_register 6
 164 0008 53       		pushq	%rbx
 165 0009 4883EC18 		subq	$24, %rsp
 166              		.cfi_offset 3, -24
 167 000d 48897DE8 		movq	%rdi, -24(%rbp)
 168              	.LBB4:
 169              		.loc 3 31 1
 170 0011 488B5DE8 		movq	-24(%rbp), %rbx
 171 0015 E8000000 		call	_ZN13UnitTestSuite12GetSuiteNameEv
 171      00
 172 001a 4889C2   		movq	%rax, %rdx
 173 001d 41B81F00 		movl	$31, %r8d
 173      0000
 174 0023 488D0500 		leaq	.LC1(%rip), %rax
 174      000000
 175 002a 4889C1   		movq	%rax, %rcx
 176 002d 488D0500 		leaq	.LC2(%rip), %rax
 176      000000
 177 0034 4889C6   		movq	%rax, %rsi
 178 0037 4889DF   		movq	%rbx, %rdi
 179 003a E8000000 		call	_ZN8UnitTest4TestC2EPKcS2_S2_i@PLT
 179      00
 180 003f 488D1500 		leaq	16+_ZTV22TestI2C_testInitialise(%rip), %rdx
 180      000000
 181 0046 488B45E8 		movq	-24(%rbp), %rax
 182 004a 488910   		movq	%rdx, (%rax)
 183              	.LBE4:
 184 004d 90       		nop
 185 004e 488B5DF8 		movq	-8(%rbp), %rbx
 186 0052 C9       		leave
 187              		.cfi_def_cfa 7, 8
 188 0053 C3       		ret
 189              		.cfi_endproc
 190              	.LFE1146:
 192              		.weak	_ZN22TestI2C_testInitialiseC1Ev
 193              		.set	_ZN22TestI2C_testInitialiseC1Ev,_ZN22TestI2C_testInitialiseC2Ev
 194              		.globl	testI2C_testInitialiseInstance
 195              		.bss
 196              		.align 32
 199              	testI2C_testInitialiseInstance:
 200 0000 00000000 		.zero	56
 200      00000000 
 200      00000000 
 200      00000000 
 200      00000000 
 201              		.globl	adderI2C_testInitialise
 204              	adderI2C_testInitialise:
 205 0038 00       		.zero	1
 206              		.section	.rodata
 207 002c 00000000 		.align 8
 208              	.LC3:
 209 0030 556E6861 		.string	"Unhandled exception in CHECK_EQUAL(BUF_SUCCESS, bStatus)"
 209      6E646C65 
 209      64206578 
 209      63657074 
 209      696F6E20 
 210 0069 00000000 		.align 8
 210      000000
 211              	.LC4:
 212 0070 556E6861 		.string	"Unhandled exception in CHECK_EQUAL(I2C_SUCCESS, iStatus)"
 212      6E646C65 
 212      64206578 
 212      63657074 
 212      696F6E20 
 213 00a9 00000000 		.align 8
 213      000000
 214              	.LC5:
 215 00b0 556E6861 		.string	"Unhandled exception in CHECK_EQUAL(8UL+5UL, i2cBuffer.length)"
 215      6E646C65 
 215      64206578 
 215      63657074 
 215      696F6E20 
 216 00ee 0000     		.align 8
 217              	.LC6:
 218 00f0 556E6861 		.string	"Unhandled exception in CHECK_EQUAL(1024UL, i2cBuffer.capacity)"
 218      6E646C65 
 218      64206578 
 218      63657074 
 218      696F6E20 
 219 012f 00       		.align 8
 220              	.LC7:
 221 0130 556E6861 		.string	"Unhandled exception in CHECK_ARRAY_EQUAL(expected, i2cBuffer.data)"
 221      6E646C65 
 221      64206578 
 221      63657074 
 221      696F6E20 
 222              		.text
 223              		.align 2
 224              		.globl	_ZNK22TestI2C_testInitialise7RunImplEv
 226              	_ZNK22TestI2C_testInitialise7RunImplEv:
 227              	.LFB1148:
 228              		.loc 3 31 26
 229              		.cfi_startproc
 230              		.cfi_personality 0x9b,DW.ref.__gxx_personality_v0
 231              		.cfi_lsda 0x1b,.LLSDA1148
 232 0000 F30F1EFA 		endbr64
 233 0004 55       		pushq	%rbp
 234              		.cfi_def_cfa_offset 16
 235              		.cfi_offset 6, -16
 236 0005 4889E5   		movq	%rsp, %rbp
 237              		.cfi_def_cfa_register 6
 238 0008 53       		pushq	%rbx
 239 0009 4881EC88 		subq	$136, %rsp
 239      000000
 240              		.cfi_offset 3, -24
 241 0010 4889BD78 		movq	%rdi, -136(%rbp)
 241      FFFFFF
 242              		.loc 3 31 26
 243 0017 64488B04 		movq	%fs:40, %rax
 243      25280000 
 243      00
 244 0020 488945E8 		movq	%rax, -24(%rbp)
 245 0024 31C0     		xorl	%eax, %eax
  32:testI2C.cpp   **** 	Buffer i2cBuffer;
  33:testI2C.cpp   **** 	I2CStatus iStatus;
  34:testI2C.cpp   **** 	BufferStatus bStatus;
  35:testI2C.cpp   **** 	const uint8 expected[] = {0xC2, LSB(VID), MSB(VID), LSB(PID), MSB(PID), LSB(DID), MSB(DID), CONFIG
 246              		.loc 3 35 14
 247 0026 48B8C2B4 		movabsq	$72058169882621122, %rax
 247      04138600 
 247      0001
 248 0030 488945DB 		movq	%rax, -37(%rbp)
 249 0034 C745E380 		movl	$15073664, -29(%rbp)
 249      01E600
 250 003b C645E700 		movb	$0, -25(%rbp)
  36:testI2C.cpp   **** 	bStatus = bufInitialise(&i2cBuffer, 1024, 0x00, NULL);
 251              		.loc 3 36 25
 252 003f 488D4590 		leaq	-112(%rbp), %rax
 253 0043 B9000000 		movl	$0, %ecx
 253      00
 254 0048 BA000000 		movl	$0, %edx
 254      00
 255 004d BE000400 		movl	$1024, %esi
 255      00
 256 0052 4889C7   		movq	%rax, %rdi
 257              	.LEHB4:
 258 0055 E8000000 		call	bufInitialise@PLT
 258      00
 259              	.LEHE4:
 260              		.loc 3 36 10
 261 005a 894584   		movl	%eax, -124(%rbp)
 262              	.LEHB5:
  37:testI2C.cpp   **** 	CHECK_EQUAL(BUF_SUCCESS, bStatus);
 263              		.loc 3 37 2
 264 005d E8000000 		call	_ZN8UnitTest11CurrentTest7DetailsEv@PLT
 264      00
 265 0062 488B08   		movq	(%rax), %rcx
 266 0065 488D45B0 		leaq	-80(%rbp), %rax
 267 0069 BA250000 		movl	$37, %edx
 267      00
 268 006e 4889CE   		movq	%rcx, %rsi
 269 0071 4889C7   		movq	%rax, %rdi
 270 0074 E8000000 		call	_ZN8UnitTest11TestDetailsC1ERKS0_i@PLT
 270      00
 271              		.loc 3 37 2 is_stmt 0 discriminator 4
 272 0079 C7458800 		movl	$0, -120(%rbp)
 272      000000
 273 0080 E8000000 		call	_ZN8UnitTest11CurrentTest7ResultsEv@PLT
 273      00
 274 0085 488B00   		movq	(%rax), %rax
 275 0088 488D4DB0 		leaq	-80(%rbp), %rcx
 276 008c 488D5584 		leaq	-124(%rbp), %rdx
 277 0090 488D7588 		leaq	-120(%rbp), %rsi
 278 0094 4889C7   		movq	%rax, %rdi
 279 0097 E8000000 		call	_ZN8UnitTest10CheckEqualI12BufferStatusS1_EEvRNS_11TestResultsERKT_RKT0_RKNS_11TestDetailsE
 279      00
 280              	.LEHE5:
 281              	.L12:
  38:testI2C.cpp   **** 	i2cInitialise(&i2cBuffer, VID, PID, DID, CONFIG_BYTE_400KHZ);
 282              		.loc 3 38 15 is_stmt 1
 283 009c 488D4590 		leaq	-112(%rbp), %rax
 284 00a0 41B80100 		movl	$1, %r8d
 284      0000
 285 00a6 B9000000 		movl	$0, %ecx
 285      00
 286 00ab BA138600 		movl	$34323, %edx
 286      00
 287 00b0 BEB40400 		movl	$1204, %esi
 287      00
 288 00b5 4889C7   		movq	%rax, %rdi
 289              	.LEHB6:
 290 00b8 E8000000 		call	i2cInitialise@PLT
 290      00
  39:testI2C.cpp   **** 	iStatus = i2cFinalise(&i2cBuffer, NULL);
 291              		.loc 3 39 23
 292 00bd 488D4590 		leaq	-112(%rbp), %rax
 293 00c1 BE000000 		movl	$0, %esi
 293      00
 294 00c6 4889C7   		movq	%rax, %rdi
 295 00c9 E8000000 		call	i2cFinalise@PLT
 295      00
 296              	.LEHE6:
 297              		.loc 3 39 10
 298 00ce 894580   		movl	%eax, -128(%rbp)
 299              	.LEHB7:
  40:testI2C.cpp   **** 	CHECK_EQUAL(I2C_SUCCESS, iStatus);
 300              		.loc 3 40 2
 301 00d1 E8000000 		call	_ZN8UnitTest11CurrentTest7DetailsEv@PLT
 301      00
 302 00d6 488B08   		movq	(%rax), %rcx
 303 00d9 488D45B0 		leaq	-80(%rbp), %rax
 304 00dd BA280000 		movl	$40, %edx
 304      00
 305 00e2 4889CE   		movq	%rcx, %rsi
 306 00e5 4889C7   		movq	%rax, %rdi
 307 00e8 E8000000 		call	_ZN8UnitTest11TestDetailsC1ERKS0_i@PLT
 307      00
 308              		.loc 3 40 2 is_stmt 0 discriminator 4
 309 00ed C7458800 		movl	$0, -120(%rbp)
 309      000000
 310 00f4 E8000000 		call	_ZN8UnitTest11CurrentTest7ResultsEv@PLT
 310      00
 311 00f9 488B00   		movq	(%rax), %rax
 312 00fc 488D4DB0 		leaq	-80(%rbp), %rcx
 313 0100 488D5580 		leaq	-128(%rbp), %rdx
 314 0104 488D7588 		leaq	-120(%rbp), %rsi
 315 0108 4889C7   		movq	%rax, %rdi
 316 010b E8000000 		call	_ZN8UnitTest10CheckEqualI9I2CStatusS1_EEvRNS_11TestResultsERKT_RKT0_RKNS_11TestDetailsE
 316      00
 317              	.LEHE7:
 318              	.L15:
 319              	.LEHB8:
  41:testI2C.cpp   **** 	CHECK_EQUAL(8UL+5UL, i2cBuffer.length);
 320              		.loc 3 41 2 is_stmt 1
 321 0110 E8000000 		call	_ZN8UnitTest11CurrentTest7DetailsEv@PLT
 321      00
 322 0115 488B08   		movq	(%rax), %rcx
 323 0118 488D45B0 		leaq	-80(%rbp), %rax
 324 011c BA290000 		movl	$41, %edx
 324      00
 325 0121 4889CE   		movq	%rcx, %rsi
 326 0124 4889C7   		movq	%rax, %rdi
 327 0127 E8000000 		call	_ZN8UnitTest11TestDetailsC1ERKS0_i@PLT
 327      00
 328              		.loc 3 41 2 is_stmt 0 discriminator 4
 329 012c 48C74588 		movq	$13, -120(%rbp)
 329      0D000000 
 330 0134 E8000000 		call	_ZN8UnitTest11CurrentTest7ResultsEv@PLT
 330      00
 331 0139 488B00   		movq	(%rax), %rax
 332 013c 488D55B0 		leaq	-80(%rbp), %rdx
 333 0140 488D4D90 		leaq	-112(%rbp), %rcx
 334 0144 488D7908 		leaq	8(%rcx), %rdi
 335 0148 488D7588 		leaq	-120(%rbp), %rsi
 336 014c 4889D1   		movq	%rdx, %rcx
 337 014f 4889FA   		movq	%rdi, %rdx
 338 0152 4889C7   		movq	%rax, %rdi
 339 0155 E8000000 		call	_ZN8UnitTest10CheckEqualImmEEvRNS_11TestResultsERKT_RKT0_RKNS_11TestDetailsE
 339      00
 340              	.LEHE8:
 341              	.L18:
 342              	.LEHB9:
  42:testI2C.cpp   **** 	CHECK_EQUAL(1024UL, i2cBuffer.capacity);
 343              		.loc 3 42 2 is_stmt 1
 344 015a E8000000 		call	_ZN8UnitTest11CurrentTest7DetailsEv@PLT
 344      00
 345 015f 488B08   		movq	(%rax), %rcx
 346 0162 488D45B0 		leaq	-80(%rbp), %rax
 347 0166 BA2A0000 		movl	$42, %edx
 347      00
 348 016b 4889CE   		movq	%rcx, %rsi
 349 016e 4889C7   		movq	%rax, %rdi
 350 0171 E8000000 		call	_ZN8UnitTest11TestDetailsC1ERKS0_i@PLT
 350      00
 351              		.loc 3 42 2 is_stmt 0 discriminator 4
 352 0176 48C74588 		movq	$1024, -120(%rbp)
 352      00040000 
 353 017e E8000000 		call	_ZN8UnitTest11CurrentTest7ResultsEv@PLT
 353      00
 354 0183 488B00   		movq	(%rax), %rax
 355 0186 488D55B0 		leaq	-80(%rbp), %rdx
 356 018a 488D4D90 		leaq	-112(%rbp), %rcx
 357 018e 488D7910 		leaq	16(%rcx), %rdi
 358 0192 488D7588 		leaq	-120(%rbp), %rsi
 359 0196 4889D1   		movq	%rdx, %rcx
 360 0199 4889FA   		movq	%rdi, %rdx
 361 019c 4889C7   		movq	%rax, %rdi
 362 019f E8000000 		call	_ZN8UnitTest10CheckEqualImmEEvRNS_11TestResultsERKT_RKT0_RKNS_11TestDetailsE
 362      00
 363              	.LEHE9:
 364              	.L21:
 365              	.LEHB10:
  43:testI2C.cpp   **** 	CHECK_ARRAY_EQUAL(expected, i2cBuffer.data, 8+5);
 366              		.loc 3 43 2 is_stmt 1
 367 01a4 E8000000 		call	_ZN8UnitTest11CurrentTest7DetailsEv@PLT
 367      00
 368 01a9 488B08   		movq	(%rax), %rcx
 369 01ac 488D45B0 		leaq	-80(%rbp), %rax
 370 01b0 BA2B0000 		movl	$43, %edx
 370      00
 371 01b5 4889CE   		movq	%rcx, %rsi
 372 01b8 4889C7   		movq	%rax, %rdi
 373 01bb E8000000 		call	_ZN8UnitTest11TestDetailsC1ERKS0_i@PLT
 373      00
 374              		.loc 3 43 2 is_stmt 0 discriminator 4
 375 01c0 E8000000 		call	_ZN8UnitTest11CurrentTest7ResultsEv@PLT
 375      00
 376 01c5 488B00   		movq	(%rax), %rax
 377 01c8 488D4DB0 		leaq	-80(%rbp), %rcx
 378 01cc 488D5590 		leaq	-112(%rbp), %rdx
 379 01d0 488D75DB 		leaq	-37(%rbp), %rsi
 380 01d4 4989C8   		movq	%rcx, %r8
 381 01d7 B90D0000 		movl	$13, %ecx
 381      00
 382 01dc 4889C7   		movq	%rax, %rdi
 383 01df E8000000 		call	_ZN8UnitTest15CheckArrayEqualIA13_hPhEEvRNS_11TestResultsERKT_RKT0_iRKNS_11TestDetailsE
 383      00
 384              	.LEHE10:
 385              	.L24:
  44:testI2C.cpp   **** 	bufDestroy(&i2cBuffer);
 386              		.loc 3 44 12 is_stmt 1
 387 01e4 488D4590 		leaq	-112(%rbp), %rax
 388 01e8 4889C7   		movq	%rax, %rdi
 389              	.LEHB11:
 390 01eb E8000000 		call	bufDestroy@PLT
 390      00
 391              	.LEHE11:
  45:testI2C.cpp   **** }
 392              		.loc 3 45 1
 393 01f0 90       		nop
 394 01f1 488B45E8 		movq	-24(%rbp), %rax
 395 01f5 64482B04 		subq	%fs:40, %rax
 395      25280000 
 395      00
 396 01fe 0F840D02 		je	.L26
 396      0000
 397 0204 E9030200 		jmp	.L37
 397      00
 398              	.L27:
 399 0209 F30F1EFA 		endbr64
  37:testI2C.cpp   **** 	i2cInitialise(&i2cBuffer, VID, PID, DID, CONFIG_BYTE_400KHZ);
 400              		.loc 3 37 2
 401 020d 4889C7   		movq	%rax, %rdi
 402 0210 E8000000 		call	__cxa_begin_catch@PLT
 402      00
 403              	.LEHB12:
 404 0215 E8000000 		call	_ZN8UnitTest11CurrentTest7ResultsEv@PLT
 404      00
  37:testI2C.cpp   **** 	i2cInitialise(&i2cBuffer, VID, PID, DID, CONFIG_BYTE_400KHZ);
 405              		.loc 3 37 2 is_stmt 0 discriminator 3
 406 021a 488B18   		movq	(%rax), %rbx
 407 021d E8000000 		call	_ZN8UnitTest11CurrentTest7DetailsEv@PLT
 407      00
  37:testI2C.cpp   **** 	i2cInitialise(&i2cBuffer, VID, PID, DID, CONFIG_BYTE_400KHZ);
 408              		.loc 3 37 2 discriminator 11
 409 0222 488B08   		movq	(%rax), %rcx
 410 0225 488D45B0 		leaq	-80(%rbp), %rax
 411 0229 BA250000 		movl	$37, %edx
 411      00
 412 022e 4889CE   		movq	%rcx, %rsi
 413 0231 4889C7   		movq	%rax, %rdi
 414 0234 E8000000 		call	_ZN8UnitTest11TestDetailsC1ERKS0_i@PLT
 414      00
  37:testI2C.cpp   **** 	i2cInitialise(&i2cBuffer, VID, PID, DID, CONFIG_BYTE_400KHZ);
 415              		.loc 3 37 2 discriminator 15
 416 0239 488D45B0 		leaq	-80(%rbp), %rax
 417 023d 488D1500 		leaq	.LC3(%rip), %rdx
 417      000000
 418 0244 4889C6   		movq	%rax, %rsi
 419 0247 4889DF   		movq	%rbx, %rdi
 420 024a E8000000 		call	_ZN8UnitTest11TestResults13OnTestFailureERKNS_11TestDetailsEPKc@PLT
 420      00
 421              	.LEHE12:
 422              	.LEHB13:
  37:testI2C.cpp   **** 	i2cInitialise(&i2cBuffer, VID, PID, DID, CONFIG_BYTE_400KHZ);
 423              		.loc 3 37 2 discriminator 17
 424 024f E8000000 		call	__cxa_end_catch@PLT
 424      00
 425              	.LEHE13:
 426 0254 E943FEFF 		jmp	.L12
 426      FF
 427              	.L28:
 428 0259 F30F1EFA 		endbr64
  37:testI2C.cpp   **** 	i2cInitialise(&i2cBuffer, VID, PID, DID, CONFIG_BYTE_400KHZ);
 429              		.loc 3 37 2
 430 025d 4889C3   		movq	%rax, %rbx
 431 0260 E8000000 		call	__cxa_end_catch@PLT
 431      00
 432 0265 4889D8   		movq	%rbx, %rax
 433 0268 4889C7   		movq	%rax, %rdi
 434              	.LEHB14:
 435 026b E8000000 		call	_Unwind_Resume@PLT
 435      00
 436              	.LEHE14:
 437              	.L29:
 438 0270 F30F1EFA 		endbr64
  40:testI2C.cpp   **** 	CHECK_EQUAL(8UL+5UL, i2cBuffer.length);
 439              		.loc 3 40 2 is_stmt 1
 440 0274 4889C7   		movq	%rax, %rdi
 441 0277 E8000000 		call	__cxa_begin_catch@PLT
 441      00
 442              	.LEHB15:
 443 027c E8000000 		call	_ZN8UnitTest11CurrentTest7ResultsEv@PLT
 443      00
  40:testI2C.cpp   **** 	CHECK_EQUAL(8UL+5UL, i2cBuffer.length);
 444              		.loc 3 40 2 is_stmt 0 discriminator 3
 445 0281 488B18   		movq	(%rax), %rbx
 446 0284 E8000000 		call	_ZN8UnitTest11CurrentTest7DetailsEv@PLT
 446      00
  40:testI2C.cpp   **** 	CHECK_EQUAL(8UL+5UL, i2cBuffer.length);
 447              		.loc 3 40 2 discriminator 11
 448 0289 488B08   		movq	(%rax), %rcx
 449 028c 488D45B0 		leaq	-80(%rbp), %rax
 450 0290 BA280000 		movl	$40, %edx
 450      00
 451 0295 4889CE   		movq	%rcx, %rsi
 452 0298 4889C7   		movq	%rax, %rdi
 453 029b E8000000 		call	_ZN8UnitTest11TestDetailsC1ERKS0_i@PLT
 453      00
  40:testI2C.cpp   **** 	CHECK_EQUAL(8UL+5UL, i2cBuffer.length);
 454              		.loc 3 40 2 discriminator 15
 455 02a0 488D45B0 		leaq	-80(%rbp), %rax
 456 02a4 488D1500 		leaq	.LC4(%rip), %rdx
 456      000000
 457 02ab 4889C6   		movq	%rax, %rsi
 458 02ae 4889DF   		movq	%rbx, %rdi
 459 02b1 E8000000 		call	_ZN8UnitTest11TestResults13OnTestFailureERKNS_11TestDetailsEPKc@PLT
 459      00
 460              	.LEHE15:
 461              	.LEHB16:
  40:testI2C.cpp   **** 	CHECK_EQUAL(8UL+5UL, i2cBuffer.length);
 462              		.loc 3 40 2 discriminator 17
 463 02b6 E8000000 		call	__cxa_end_catch@PLT
 463      00
 464              	.LEHE16:
 465 02bb E950FEFF 		jmp	.L15
 465      FF
 466              	.L30:
 467 02c0 F30F1EFA 		endbr64
  40:testI2C.cpp   **** 	CHECK_EQUAL(8UL+5UL, i2cBuffer.length);
 468              		.loc 3 40 2
 469 02c4 4889C3   		movq	%rax, %rbx
 470 02c7 E8000000 		call	__cxa_end_catch@PLT
 470      00
 471 02cc 4889D8   		movq	%rbx, %rax
 472 02cf 4889C7   		movq	%rax, %rdi
 473              	.LEHB17:
 474 02d2 E8000000 		call	_Unwind_Resume@PLT
 474      00
 475              	.LEHE17:
 476              	.L31:
 477 02d7 F30F1EFA 		endbr64
  41:testI2C.cpp   **** 	CHECK_EQUAL(1024UL, i2cBuffer.capacity);
 478              		.loc 3 41 2 is_stmt 1
 479 02db 4889C7   		movq	%rax, %rdi
 480 02de E8000000 		call	__cxa_begin_catch@PLT
 480      00
 481              	.LEHB18:
 482 02e3 E8000000 		call	_ZN8UnitTest11CurrentTest7ResultsEv@PLT
 482      00
  41:testI2C.cpp   **** 	CHECK_EQUAL(1024UL, i2cBuffer.capacity);
 483              		.loc 3 41 2 is_stmt 0 discriminator 3
 484 02e8 488B18   		movq	(%rax), %rbx
 485 02eb E8000000 		call	_ZN8UnitTest11CurrentTest7DetailsEv@PLT
 485      00
  41:testI2C.cpp   **** 	CHECK_EQUAL(1024UL, i2cBuffer.capacity);
 486              		.loc 3 41 2 discriminator 11
 487 02f0 488B08   		movq	(%rax), %rcx
 488 02f3 488D45B0 		leaq	-80(%rbp), %rax
 489 02f7 BA290000 		movl	$41, %edx
 489      00
 490 02fc 4889CE   		movq	%rcx, %rsi
 491 02ff 4889C7   		movq	%rax, %rdi
 492 0302 E8000000 		call	_ZN8UnitTest11TestDetailsC1ERKS0_i@PLT
 492      00
  41:testI2C.cpp   **** 	CHECK_EQUAL(1024UL, i2cBuffer.capacity);
 493              		.loc 3 41 2 discriminator 15
 494 0307 488D45B0 		leaq	-80(%rbp), %rax
 495 030b 488D1500 		leaq	.LC5(%rip), %rdx
 495      000000
 496 0312 4889C6   		movq	%rax, %rsi
 497 0315 4889DF   		movq	%rbx, %rdi
 498 0318 E8000000 		call	_ZN8UnitTest11TestResults13OnTestFailureERKNS_11TestDetailsEPKc@PLT
 498      00
 499              	.LEHE18:
 500              	.LEHB19:
  41:testI2C.cpp   **** 	CHECK_EQUAL(1024UL, i2cBuffer.capacity);
 501              		.loc 3 41 2 discriminator 17
 502 031d E8000000 		call	__cxa_end_catch@PLT
 502      00
 503              	.LEHE19:
 504 0322 E933FEFF 		jmp	.L18
 504      FF
 505              	.L32:
 506 0327 F30F1EFA 		endbr64
  41:testI2C.cpp   **** 	CHECK_EQUAL(1024UL, i2cBuffer.capacity);
 507              		.loc 3 41 2
 508 032b 4889C3   		movq	%rax, %rbx
 509 032e E8000000 		call	__cxa_end_catch@PLT
 509      00
 510 0333 4889D8   		movq	%rbx, %rax
 511 0336 4889C7   		movq	%rax, %rdi
 512              	.LEHB20:
 513 0339 E8000000 		call	_Unwind_Resume@PLT
 513      00
 514              	.LEHE20:
 515              	.L33:
 516 033e F30F1EFA 		endbr64
  42:testI2C.cpp   **** 	CHECK_ARRAY_EQUAL(expected, i2cBuffer.data, 8+5);
 517              		.loc 3 42 2 is_stmt 1
 518 0342 4889C7   		movq	%rax, %rdi
 519 0345 E8000000 		call	__cxa_begin_catch@PLT
 519      00
 520              	.LEHB21:
 521 034a E8000000 		call	_ZN8UnitTest11CurrentTest7ResultsEv@PLT
 521      00
  42:testI2C.cpp   **** 	CHECK_ARRAY_EQUAL(expected, i2cBuffer.data, 8+5);
 522              		.loc 3 42 2 is_stmt 0 discriminator 3
 523 034f 488B18   		movq	(%rax), %rbx
 524 0352 E8000000 		call	_ZN8UnitTest11CurrentTest7DetailsEv@PLT
 524      00
  42:testI2C.cpp   **** 	CHECK_ARRAY_EQUAL(expected, i2cBuffer.data, 8+5);
 525              		.loc 3 42 2 discriminator 11
 526 0357 488B08   		movq	(%rax), %rcx
 527 035a 488D45B0 		leaq	-80(%rbp), %rax
 528 035e BA2A0000 		movl	$42, %edx
 528      00
 529 0363 4889CE   		movq	%rcx, %rsi
 530 0366 4889C7   		movq	%rax, %rdi
 531 0369 E8000000 		call	_ZN8UnitTest11TestDetailsC1ERKS0_i@PLT
 531      00
  42:testI2C.cpp   **** 	CHECK_ARRAY_EQUAL(expected, i2cBuffer.data, 8+5);
 532              		.loc 3 42 2 discriminator 15
 533 036e 488D45B0 		leaq	-80(%rbp), %rax
 534 0372 488D1500 		leaq	.LC6(%rip), %rdx
 534      000000
 535 0379 4889C6   		movq	%rax, %rsi
 536 037c 4889DF   		movq	%rbx, %rdi
 537 037f E8000000 		call	_ZN8UnitTest11TestResults13OnTestFailureERKNS_11TestDetailsEPKc@PLT
 537      00
 538              	.LEHE21:
 539              	.LEHB22:
  42:testI2C.cpp   **** 	CHECK_ARRAY_EQUAL(expected, i2cBuffer.data, 8+5);
 540              		.loc 3 42 2 discriminator 17
 541 0384 E8000000 		call	__cxa_end_catch@PLT
 541      00
 542              	.LEHE22:
 543 0389 E916FEFF 		jmp	.L21
 543      FF
 544              	.L34:
 545 038e F30F1EFA 		endbr64
  42:testI2C.cpp   **** 	CHECK_ARRAY_EQUAL(expected, i2cBuffer.data, 8+5);
 546              		.loc 3 42 2
 547 0392 4889C3   		movq	%rax, %rbx
 548 0395 E8000000 		call	__cxa_end_catch@PLT
 548      00
 549 039a 4889D8   		movq	%rbx, %rax
 550 039d 4889C7   		movq	%rax, %rdi
 551              	.LEHB23:
 552 03a0 E8000000 		call	_Unwind_Resume@PLT
 552      00
 553              	.LEHE23:
 554              	.L35:
 555 03a5 F30F1EFA 		endbr64
  43:testI2C.cpp   **** 	bufDestroy(&i2cBuffer);
 556              		.loc 3 43 2 is_stmt 1
 557 03a9 4889C7   		movq	%rax, %rdi
 558 03ac E8000000 		call	__cxa_begin_catch@PLT
 558      00
 559              	.LEHB24:
 560 03b1 E8000000 		call	_ZN8UnitTest11CurrentTest7ResultsEv@PLT
 560      00
  43:testI2C.cpp   **** 	bufDestroy(&i2cBuffer);
 561              		.loc 3 43 2 is_stmt 0 discriminator 3
 562 03b6 488B18   		movq	(%rax), %rbx
 563 03b9 E8000000 		call	_ZN8UnitTest11CurrentTest7DetailsEv@PLT
 563      00
  43:testI2C.cpp   **** 	bufDestroy(&i2cBuffer);
 564              		.loc 3 43 2 discriminator 11
 565 03be 488B08   		movq	(%rax), %rcx
 566 03c1 488D45B0 		leaq	-80(%rbp), %rax
 567 03c5 BA2B0000 		movl	$43, %edx
 567      00
 568 03ca 4889CE   		movq	%rcx, %rsi
 569 03cd 4889C7   		movq	%rax, %rdi
 570 03d0 E8000000 		call	_ZN8UnitTest11TestDetailsC1ERKS0_i@PLT
 570      00
  43:testI2C.cpp   **** 	bufDestroy(&i2cBuffer);
 571              		.loc 3 43 2 discriminator 15
 572 03d5 488D45B0 		leaq	-80(%rbp), %rax
 573 03d9 488D1500 		leaq	.LC7(%rip), %rdx
 573      000000
 574 03e0 4889C6   		movq	%rax, %rsi
 575 03e3 4889DF   		movq	%rbx, %rdi
 576 03e6 E8000000 		call	_ZN8UnitTest11TestResults13OnTestFailureERKNS_11TestDetailsEPKc@PLT
 576      00
 577              	.LEHE24:
 578              	.LEHB25:
  43:testI2C.cpp   **** 	bufDestroy(&i2cBuffer);
 579              		.loc 3 43 2 discriminator 17
 580 03eb E8000000 		call	__cxa_end_catch@PLT
 580      00
 581              	.LEHE25:
 582 03f0 E9EFFDFF 		jmp	.L24
 582      FF
 583              	.L36:
 584 03f5 F30F1EFA 		endbr64
  43:testI2C.cpp   **** 	bufDestroy(&i2cBuffer);
 585              		.loc 3 43 2
 586 03f9 4889C3   		movq	%rax, %rbx
 587 03fc E8000000 		call	__cxa_end_catch@PLT
 587      00
 588 0401 4889D8   		movq	%rbx, %rax
 589 0404 4889C7   		movq	%rax, %rdi
 590              	.LEHB26:
 591 0407 E8000000 		call	_Unwind_Resume@PLT
 591      00
 592              	.LEHE26:
 593              	.L37:
 594              		.loc 3 45 1 is_stmt 1
 595 040c E8000000 		call	__stack_chk_fail@PLT
 595      00
 596              	.L26:
 597 0411 488B5DF8 		movq	-8(%rbp), %rbx
 598 0415 C9       		leave
 599              		.cfi_def_cfa 7, 8
 600 0416 C3       		ret
 601              		.cfi_endproc
 602              	.LFE1148:
 603              		.section	.gcc_except_table,"a",@progbits
 604              		.align 4
 605              	.LLSDA1148:
 606 0000 FF       		.byte	0xff
 607 0001 9B       		.byte	0x9b
 608 0002 8401     		.uleb128 .LLSDATT1148-.LLSDATTD1148
 609              	.LLSDATTD1148:
 610 0004 01       		.byte	0x1
 611 0005 7B       		.uleb128 .LLSDACSE1148-.LLSDACSB1148
 612              	.LLSDACSB1148:
 613 0006 55       		.uleb128 .LEHB4-.LFB1148
 614 0007 05       		.uleb128 .LEHE4-.LEHB4
 615 0008 00       		.uleb128 0
 616 0009 00       		.uleb128 0
 617 000a 5D       		.uleb128 .LEHB5-.LFB1148
 618 000b 3F       		.uleb128 .LEHE5-.LEHB5
 619 000c 8904     		.uleb128 .L27-.LFB1148
 620 000e 01       		.uleb128 0x1
 621 000f B801     		.uleb128 .LEHB6-.LFB1148
 622 0011 16       		.uleb128 .LEHE6-.LEHB6
 623 0012 00       		.uleb128 0
 624 0013 00       		.uleb128 0
 625 0014 D101     		.uleb128 .LEHB7-.LFB1148
 626 0016 3F       		.uleb128 .LEHE7-.LEHB7
 627 0017 F004     		.uleb128 .L29-.LFB1148
 628 0019 01       		.uleb128 0x1
 629 001a 9002     		.uleb128 .LEHB8-.LFB1148
 630 001c 4A       		.uleb128 .LEHE8-.LEHB8
 631 001d D705     		.uleb128 .L31-.LFB1148
 632 001f 01       		.uleb128 0x1
 633 0020 DA02     		.uleb128 .LEHB9-.LFB1148
 634 0022 4A       		.uleb128 .LEHE9-.LEHB9
 635 0023 BE06     		.uleb128 .L33-.LFB1148
 636 0025 01       		.uleb128 0x1
 637 0026 A403     		.uleb128 .LEHB10-.LFB1148
 638 0028 40       		.uleb128 .LEHE10-.LEHB10
 639 0029 A507     		.uleb128 .L35-.LFB1148
 640 002b 01       		.uleb128 0x1
 641 002c EB03     		.uleb128 .LEHB11-.LFB1148
 642 002e 05       		.uleb128 .LEHE11-.LEHB11
 643 002f 00       		.uleb128 0
 644 0030 00       		.uleb128 0
 645 0031 9504     		.uleb128 .LEHB12-.LFB1148
 646 0033 3A       		.uleb128 .LEHE12-.LEHB12
 647 0034 D904     		.uleb128 .L28-.LFB1148
 648 0036 00       		.uleb128 0
 649 0037 CF04     		.uleb128 .LEHB13-.LFB1148
 650 0039 05       		.uleb128 .LEHE13-.LEHB13
 651 003a 00       		.uleb128 0
 652 003b 00       		.uleb128 0
 653 003c EB04     		.uleb128 .LEHB14-.LFB1148
 654 003e 05       		.uleb128 .LEHE14-.LEHB14
 655 003f 00       		.uleb128 0
 656 0040 00       		.uleb128 0
 657 0041 FC04     		.uleb128 .LEHB15-.LFB1148
 658 0043 3A       		.uleb128 .LEHE15-.LEHB15
 659 0044 C005     		.uleb128 .L30-.LFB1148
 660 0046 00       		.uleb128 0
 661 0047 B605     		.uleb128 .LEHB16-.LFB1148
 662 0049 05       		.uleb128 .LEHE16-.LEHB16
 663 004a 00       		.uleb128 0
 664 004b 00       		.uleb128 0
 665 004c D205     		.uleb128 .LEHB17-.LFB1148
 666 004e 05       		.uleb128 .LEHE17-.LEHB17
 667 004f 00       		.uleb128 0
 668 0050 00       		.uleb128 0
 669 0051 E305     		.uleb128 .LEHB18-.LFB1148
 670 0053 3A       		.uleb128 .LEHE18-.LEHB18
 671 0054 A706     		.uleb128 .L32-.LFB1148
 672 0056 00       		.uleb128 0
 673 0057 9D06     		.uleb128 .LEHB19-.LFB1148
 674 0059 05       		.uleb128 .LEHE19-.LEHB19
 675 005a 00       		.uleb128 0
 676 005b 00       		.uleb128 0
 677 005c B906     		.uleb128 .LEHB20-.LFB1148
 678 005e 05       		.uleb128 .LEHE20-.LEHB20
 679 005f 00       		.uleb128 0
 680 0060 00       		.uleb128 0
 681 0061 CA06     		.uleb128 .LEHB21-.LFB1148
 682 0063 3A       		.uleb128 .LEHE21-.LEHB21
 683 0064 8E07     		.uleb128 .L34-.LFB1148
 684 0066 00       		.uleb128 0
 685 0067 8407     		.uleb128 .LEHB22-.LFB1148
 686 0069 05       		.uleb128 .LEHE22-.LEHB22
 687 006a 00       		.uleb128 0
 688 006b 00       		.uleb128 0
 689 006c A007     		.uleb128 .LEHB23-.LFB1148
 690 006e 05       		.uleb128 .LEHE23-.LEHB23
 691 006f 00       		.uleb128 0
 692 0070 00       		.uleb128 0
 693 0071 B107     		.uleb128 .LEHB24-.LFB1148
 694 0073 3A       		.uleb128 .LEHE24-.LEHB24
 695 0074 F507     		.uleb128 .L36-.LFB1148
 696 0076 00       		.uleb128 0
 697 0077 EB07     		.uleb128 .LEHB25-.LFB1148
 698 0079 05       		.uleb128 .LEHE25-.LEHB25
 699 007a 00       		.uleb128 0
 700 007b 00       		.uleb128 0
 701 007c 8708     		.uleb128 .LEHB26-.LFB1148
 702 007e 05       		.uleb128 .LEHE26-.LEHB26
 703 007f 00       		.uleb128 0
 704 0080 00       		.uleb128 0
 705              	.LLSDACSE1148:
 706 0081 01       		.byte	0x1
 707 0082 00       		.byte	0
 708 0083 00       		.align 4
 709 0084 00000000 		.long	0
 710              	
 711              	.LLSDATT1148:
 712              		.text
 714              		.section	.rodata
 715              	.LC8:
 716 0173 4932435F 		.string	"I2C_testRoundTrip"
 716      74657374 
 716      526F756E 
 716      64547269 
 716      7000
 717              		.section	.text._ZN21TestI2C_testRoundTripC2Ev,"axG",@progbits,_ZN21TestI2C_testRoundTripC5Ev,comda
 718              		.align 2
 719              		.weak	_ZN21TestI2C_testRoundTripC2Ev
 721              	_ZN21TestI2C_testRoundTripC2Ev:
 722              	.LFB1150:
  46:testI2C.cpp   **** 
  47:testI2C.cpp   **** TEST(I2C_testRoundTrip) {
 723              		.loc 3 47 1
 724              		.cfi_startproc
 725 0000 F30F1EFA 		endbr64
 726 0004 55       		pushq	%rbp
 727              		.cfi_def_cfa_offset 16
 728              		.cfi_offset 6, -16
 729 0005 4889E5   		movq	%rsp, %rbp
 730              		.cfi_def_cfa_register 6
 731 0008 53       		pushq	%rbx
 732 0009 4883EC18 		subq	$24, %rsp
 733              		.cfi_offset 3, -24
 734 000d 48897DE8 		movq	%rdi, -24(%rbp)
 735              	.LBB5:
 736              		.loc 3 47 1
 737 0011 488B5DE8 		movq	-24(%rbp), %rbx
 738 0015 E8000000 		call	_ZN13UnitTestSuite12GetSuiteNameEv
 738      00
 739 001a 4889C2   		movq	%rax, %rdx
 740 001d 41B82F00 		movl	$47, %r8d
 740      0000
 741 0023 488D0500 		leaq	.LC1(%rip), %rax
 741      000000
 742 002a 4889C1   		movq	%rax, %rcx
 743 002d 488D0500 		leaq	.LC8(%rip), %rax
 743      000000
 744 0034 4889C6   		movq	%rax, %rsi
 745 0037 4889DF   		movq	%rbx, %rdi
 746 003a E8000000 		call	_ZN8UnitTest4TestC2EPKcS2_S2_i@PLT
 746      00
 747 003f 488D1500 		leaq	16+_ZTV21TestI2C_testRoundTrip(%rip), %rdx
 747      000000
 748 0046 488B45E8 		movq	-24(%rbp), %rax
 749 004a 488910   		movq	%rdx, (%rax)
 750              	.LBE5:
 751 004d 90       		nop
 752 004e 488B5DF8 		movq	-8(%rbp), %rbx
 753 0052 C9       		leave
 754              		.cfi_def_cfa 7, 8
 755 0053 C3       		ret
 756              		.cfi_endproc
 757              	.LFE1150:
 759              		.weak	_ZN21TestI2C_testRoundTripC1Ev
 760              		.set	_ZN21TestI2C_testRoundTripC1Ev,_ZN21TestI2C_testRoundTripC2Ev
 761              		.globl	testI2C_testRoundTripInstance
 762              		.bss
 763 0039 00000000 		.align 32
 763      000000
 766              	testI2C_testRoundTripInstance:
 767 0040 00000000 		.zero	56
 767      00000000 
 767      00000000 
 767      00000000 
 767      00000000 
 768              		.globl	adderI2C_testRoundTrip
 771              	adderI2C_testRoundTrip:
 772 0078 00       		.zero	1
 773              		.section	.rodata
 774 0185 000000   		.align 8
 775              	.LC9:
 776 0188 556E6861 		.string	"Unhandled exception in CHECK_ARRAY_EQUAL(expected, dstData.data)"
 776      6E646C65 
 776      64206578 
 776      63657074 
 776      696F6E20 
 777              		.text
 778 0417 90       		.align 2
 779              		.globl	_ZNK21TestI2C_testRoundTrip7RunImplEv
 781              	_ZNK21TestI2C_testRoundTrip7RunImplEv:
 782              	.LFB1152:
 783              		.loc 3 47 25
 784              		.cfi_startproc
 785              		.cfi_personality 0x9b,DW.ref.__gxx_personality_v0
 786              		.cfi_lsda 0x1b,.LLSDA1152
 787 0418 F30F1EFA 		endbr64
 788 041c 55       		pushq	%rbp
 789              		.cfi_def_cfa_offset 16
 790              		.cfi_offset 6, -16
 791 041d 4889E5   		movq	%rsp, %rbp
 792              		.cfi_def_cfa_register 6
 793 0420 53       		pushq	%rbx
 794 0421 4881EC38 		subq	$312, %rsp
 794      010000
 795              		.cfi_offset 3, -24
 796 0428 4889BDC8 		movq	%rdi, -312(%rbp)
 796      FEFFFF
 797              		.loc 3 47 25
 798 042f 64488B04 		movq	%fs:40, %rax
 798      25280000 
 798      00
 799 0438 488945E8 		movq	%rax, -24(%rbp)
 800 043c 31C0     		xorl	%eax, %eax
  48:testI2C.cpp   **** 	uint32 i, j;
  49:testI2C.cpp   **** 	Buffer i2cBuffer, srcData, srcMask, dstData, dstMask;
  50:testI2C.cpp   **** 	BufferStatus bStatus;
  51:testI2C.cpp   **** 	I2CStatus iStatus;
  52:testI2C.cpp   **** 	const uint8 data[] = {0xE1, 0xE2, 0xE3, 0xE4, 0xE5, 0xE6, 0xE7, 0xE8, 0xE9, 0xEA, 0xEB, 0xEC, 0xED
 801              		.loc 3 52 14
 802 043e 48B8E1E2 		movabsq	$-1664107662228069663, %rax
 802      E3E4E5E6 
 802      E7E8
 803 0448 48BAE9EA 		movabsq	$-1085386279523456279, %rdx
 803      EBECEDEE 
 803      EFF0
 804 0452 488945B0 		movq	%rax, -80(%rbp)
 805 0456 488955B8 		movq	%rdx, -72(%rbp)
  53:testI2C.cpp   **** 	uint8 mask[16];
  54:testI2C.cpp   **** 	uint8 expected[16];
  55:testI2C.cpp   **** 	for ( i = 0; i < 65536; i++ ) {   // all possible 16-bit mask patterns
 806              		.loc 3 55 10
 807 045a C785E8FE 		movl	$0, -280(%rbp)
 807      FFFF0000 
 807      0000
 808              		.loc 3 55 2
 809 0464 E9680500 		jmp	.L40
 809      00
 810              	.L45:
  56:testI2C.cpp   **** 		for ( j = 0; j < 16; j++ ) {
 811              		.loc 3 56 11
 812 0469 C785ECFE 		movl	$0, -276(%rbp)
 812      FFFF0000 
 812      0000
 813              		.loc 3 56 3
 814 0473 EB5A     		jmp	.L41
 815              	.L44:
  57:testI2C.cpp   **** 			if ( i & (1<<j) ) {
 816              		.loc 3 57 15
 817 0475 8B85ECFE 		movl	-276(%rbp), %eax
 817      FFFF
 818 047b BA010000 		movl	$1, %edx
 818      00
 819 0480 89C1     		movl	%eax, %ecx
 820 0482 D3E2     		sall	%cl, %edx
 821 0484 89D0     		movl	%edx, %eax
 822              		.loc 3 57 11
 823 0486 2385E8FE 		andl	-280(%rbp), %eax
 823      FFFF
 824              		.loc 3 57 4
 825 048c 85C0     		testl	%eax, %eax
 826 048e 7422     		je	.L42
  58:testI2C.cpp   **** 				mask[j] = 0x01;
 827              		.loc 3 58 13
 828 0490 8B85ECFE 		movl	-276(%rbp), %eax
 828      FFFF
 829 0496 C64405C0 		movb	$1, -64(%rbp,%rax)
 829      01
  59:testI2C.cpp   **** 				expected[j] = data[j];
 830              		.loc 3 59 25
 831 049b 8B85ECFE 		movl	-276(%rbp), %eax
 831      FFFF
 832 04a1 0FB65405 		movzbl	-80(%rbp,%rax), %edx
 832      B0
 833              		.loc 3 59 17
 834 04a6 8B85ECFE 		movl	-276(%rbp), %eax
 834      FFFF
 835 04ac 885405D0 		movb	%dl, -48(%rbp,%rax)
 836 04b0 EB16     		jmp	.L43
 837              	.L42:
  60:testI2C.cpp   **** 			} else {
  61:testI2C.cpp   **** 				mask[j] = 0x00;
 838              		.loc 3 61 13
 839 04b2 8B85ECFE 		movl	-276(%rbp), %eax
 839      FFFF
 840 04b8 C64405C0 		movb	$0, -64(%rbp,%rax)
 840      00
  62:testI2C.cpp   **** 				expected[j] = 0x00;
 841              		.loc 3 62 17
 842 04bd 8B85ECFE 		movl	-276(%rbp), %eax
 842      FFFF
 843 04c3 C64405D0 		movb	$0, -48(%rbp,%rax)
 843      00
 844              	.L43:
  56:testI2C.cpp   **** 			if ( i & (1<<j) ) {
 845              		.loc 3 56 3 discriminator 2
 846 04c8 8385ECFE 		addl	$1, -276(%rbp)
 846      FFFF01
 847              	.L41:
  56:testI2C.cpp   **** 			if ( i & (1<<j) ) {
 848              		.loc 3 56 18 discriminator 1
 849 04cf 83BDECFE 		cmpl	$15, -276(%rbp)
 849      FFFF0F
 850 04d6 769D     		jbe	.L44
  63:testI2C.cpp   **** 			}
  64:testI2C.cpp   **** 		}
  65:testI2C.cpp   **** 		bStatus = bufInitialise(&i2cBuffer, 1024, 0x00, NULL);
 851              		.loc 3 65 26
 852 04d8 488D85F0 		leaq	-272(%rbp), %rax
 852      FEFFFF
 853 04df B9000000 		movl	$0, %ecx
 853      00
 854 04e4 BA000000 		movl	$0, %edx
 854      00
 855 04e9 BE000400 		movl	$1024, %esi
 855      00
 856 04ee 4889C7   		movq	%rax, %rdi
 857              	.LEHB27:
 858 04f1 E8000000 		call	bufInitialise@PLT
 858      00
 859              	.LEHE27:
 860              		.loc 3 65 11
 861 04f6 8985DCFE 		movl	%eax, -292(%rbp)
 861      FFFF
 862              	.LEHB28:
  66:testI2C.cpp   **** 		CHECK_EQUAL(BUF_SUCCESS, bStatus);
 863              		.loc 3 66 3
 864 04fc E8000000 		call	_ZN8UnitTest11CurrentTest7DetailsEv@PLT
 864      00
 865 0501 488B08   		movq	(%rax), %rcx
 866 0504 488D4590 		leaq	-112(%rbp), %rax
 867 0508 BA420000 		movl	$66, %edx
 867      00
 868 050d 4889CE   		movq	%rcx, %rsi
 869 0510 4889C7   		movq	%rax, %rdi
 870 0513 E8000000 		call	_ZN8UnitTest11TestDetailsC1ERKS0_i@PLT
 870      00
 871              		.loc 3 66 3 is_stmt 0 discriminator 4
 872 0518 C785E4FE 		movl	$0, -284(%rbp)
 872      FFFF0000 
 872      0000
 873 0522 E8000000 		call	_ZN8UnitTest11CurrentTest7ResultsEv@PLT
 873      00
 874 0527 488B00   		movq	(%rax), %rax
 875 052a 488D4D90 		leaq	-112(%rbp), %rcx
 876 052e 488D95DC 		leaq	-292(%rbp), %rdx
 876      FEFFFF
 877 0535 488DB5E4 		leaq	-284(%rbp), %rsi
 877      FEFFFF
 878 053c 4889C7   		movq	%rax, %rdi
 879 053f E8000000 		call	_ZN8UnitTest10CheckEqualI12BufferStatusS1_EEvRNS_11TestResultsERKT_RKT0_RKNS_11TestDetailsE
 879      00
 880              	.LEHE28:
 881              	.L47:
  67:testI2C.cpp   **** 		i2cInitialise(&i2cBuffer, VID, PID, DID, CONFIG_BYTE_400KHZ);
 882              		.loc 3 67 16 is_stmt 1
 883 0544 488D85F0 		leaq	-272(%rbp), %rax
 883      FEFFFF
 884 054b 41B80100 		movl	$1, %r8d
 884      0000
 885 0551 B9000000 		movl	$0, %ecx
 885      00
 886 0556 BA138600 		movl	$34323, %edx
 886      00
 887 055b BEB40400 		movl	$1204, %esi
 887      00
 888 0560 4889C7   		movq	%rax, %rdi
 889              	.LEHB29:
 890 0563 E8000000 		call	i2cInitialise@PLT
 890      00
  68:testI2C.cpp   **** 		bStatus = bufInitialise(&srcData, 16, 0x00, NULL);
 891              		.loc 3 68 26
 892 0568 488D8510 		leaq	-240(%rbp), %rax
 892      FFFFFF
 893 056f B9000000 		movl	$0, %ecx
 893      00
 894 0574 BA000000 		movl	$0, %edx
 894      00
 895 0579 BE100000 		movl	$16, %esi
 895      00
 896 057e 4889C7   		movq	%rax, %rdi
 897 0581 E8000000 		call	bufInitialise@PLT
 897      00
 898              	.LEHE29:
 899              		.loc 3 68 11
 900 0586 8985DCFE 		movl	%eax, -292(%rbp)
 900      FFFF
 901              	.LEHB30:
  69:testI2C.cpp   **** 		CHECK_EQUAL(BUF_SUCCESS, bStatus);
 902              		.loc 3 69 3
 903 058c E8000000 		call	_ZN8UnitTest11CurrentTest7DetailsEv@PLT
 903      00
 904 0591 488B08   		movq	(%rax), %rcx
 905 0594 488D4590 		leaq	-112(%rbp), %rax
 906 0598 BA450000 		movl	$69, %edx
 906      00
 907 059d 4889CE   		movq	%rcx, %rsi
 908 05a0 4889C7   		movq	%rax, %rdi
 909 05a3 E8000000 		call	_ZN8UnitTest11TestDetailsC1ERKS0_i@PLT
 909      00
 910              		.loc 3 69 3 is_stmt 0 discriminator 4
 911 05a8 C785E4FE 		movl	$0, -284(%rbp)
 911      FFFF0000 
 911      0000
 912 05b2 E8000000 		call	_ZN8UnitTest11CurrentTest7ResultsEv@PLT
 912      00
 913 05b7 488B00   		movq	(%rax), %rax
 914 05ba 488D4D90 		leaq	-112(%rbp), %rcx
 915 05be 488D95DC 		leaq	-292(%rbp), %rdx
 915      FEFFFF
 916 05c5 488DB5E4 		leaq	-284(%rbp), %rsi
 916      FEFFFF
 917 05cc 4889C7   		movq	%rax, %rdi
 918 05cf E8000000 		call	_ZN8UnitTest10CheckEqualI12BufferStatusS1_EEvRNS_11TestResultsERKT_RKT0_RKNS_11TestDetailsE
 918      00
 919              	.LEHE30:
 920              	.L50:
  70:testI2C.cpp   **** 		bStatus = bufInitialise(&dstData, 16, 0x00, NULL);
 921              		.loc 3 70 26 is_stmt 1
 922 05d4 488D8550 		leaq	-176(%rbp), %rax
 922      FFFFFF
 923 05db B9000000 		movl	$0, %ecx
 923      00
 924 05e0 BA000000 		movl	$0, %edx
 924      00
 925 05e5 BE100000 		movl	$16, %esi
 925      00
 926 05ea 4889C7   		movq	%rax, %rdi
 927              	.LEHB31:
 928 05ed E8000000 		call	bufInitialise@PLT
 928      00
 929              	.LEHE31:
 930              		.loc 3 70 11
 931 05f2 8985DCFE 		movl	%eax, -292(%rbp)
 931      FFFF
 932              	.LEHB32:
  71:testI2C.cpp   **** 		CHECK_EQUAL(BUF_SUCCESS, bStatus);
 933              		.loc 3 71 3
 934 05f8 E8000000 		call	_ZN8UnitTest11CurrentTest7DetailsEv@PLT
 934      00
 935 05fd 488B08   		movq	(%rax), %rcx
 936 0600 488D4590 		leaq	-112(%rbp), %rax
 937 0604 BA470000 		movl	$71, %edx
 937      00
 938 0609 4889CE   		movq	%rcx, %rsi
 939 060c 4889C7   		movq	%rax, %rdi
 940 060f E8000000 		call	_ZN8UnitTest11TestDetailsC1ERKS0_i@PLT
 940      00
 941              		.loc 3 71 3 is_stmt 0 discriminator 4
 942 0614 C785E4FE 		movl	$0, -284(%rbp)
 942      FFFF0000 
 942      0000
 943 061e E8000000 		call	_ZN8UnitTest11CurrentTest7ResultsEv@PLT
 943      00
 944 0623 488B00   		movq	(%rax), %rax
 945 0626 488D4D90 		leaq	-112(%rbp), %rcx
 946 062a 488D95DC 		leaq	-292(%rbp), %rdx
 946      FEFFFF
 947 0631 488DB5E4 		leaq	-284(%rbp), %rsi
 947      FEFFFF
 948 0638 4889C7   		movq	%rax, %rdi
 949 063b E8000000 		call	_ZN8UnitTest10CheckEqualI12BufferStatusS1_EEvRNS_11TestResultsERKT_RKT0_RKNS_11TestDetailsE
 949      00
 950              	.LEHE32:
 951              	.L53:
  72:testI2C.cpp   **** 		bStatus = bufInitialise(&srcMask, 16, 0x00, NULL);
 952              		.loc 3 72 26 is_stmt 1
 953 0640 488D8530 		leaq	-208(%rbp), %rax
 953      FFFFFF
 954 0647 B9000000 		movl	$0, %ecx
 954      00
 955 064c BA000000 		movl	$0, %edx
 955      00
 956 0651 BE100000 		movl	$16, %esi
 956      00
 957 0656 4889C7   		movq	%rax, %rdi
 958              	.LEHB33:
 959 0659 E8000000 		call	bufInitialise@PLT
 959      00
 960              	.LEHE33:
 961              		.loc 3 72 11
 962 065e 8985DCFE 		movl	%eax, -292(%rbp)
 962      FFFF
 963              	.LEHB34:
  73:testI2C.cpp   **** 		CHECK_EQUAL(BUF_SUCCESS, bStatus);
 964              		.loc 3 73 3
 965 0664 E8000000 		call	_ZN8UnitTest11CurrentTest7DetailsEv@PLT
 965      00
 966 0669 488B08   		movq	(%rax), %rcx
 967 066c 488D4590 		leaq	-112(%rbp), %rax
 968 0670 BA490000 		movl	$73, %edx
 968      00
 969 0675 4889CE   		movq	%rcx, %rsi
 970 0678 4889C7   		movq	%rax, %rdi
 971 067b E8000000 		call	_ZN8UnitTest11TestDetailsC1ERKS0_i@PLT
 971      00
 972              		.loc 3 73 3 is_stmt 0 discriminator 4
 973 0680 C785E4FE 		movl	$0, -284(%rbp)
 973      FFFF0000 
 973      0000
 974 068a E8000000 		call	_ZN8UnitTest11CurrentTest7ResultsEv@PLT
 974      00
 975 068f 488B00   		movq	(%rax), %rax
 976 0692 488D4D90 		leaq	-112(%rbp), %rcx
 977 0696 488D95DC 		leaq	-292(%rbp), %rdx
 977      FEFFFF
 978 069d 488DB5E4 		leaq	-284(%rbp), %rsi
 978      FEFFFF
 979 06a4 4889C7   		movq	%rax, %rdi
 980 06a7 E8000000 		call	_ZN8UnitTest10CheckEqualI12BufferStatusS1_EEvRNS_11TestResultsERKT_RKT0_RKNS_11TestDetailsE
 980      00
 981              	.LEHE34:
 982              	.L56:
  74:testI2C.cpp   **** 		bStatus = bufInitialise(&dstMask, 16, 0x00, NULL);
 983              		.loc 3 74 26 is_stmt 1
 984 06ac 488D8570 		leaq	-144(%rbp), %rax
 984      FFFFFF
 985 06b3 B9000000 		movl	$0, %ecx
 985      00
 986 06b8 BA000000 		movl	$0, %edx
 986      00
 987 06bd BE100000 		movl	$16, %esi
 987      00
 988 06c2 4889C7   		movq	%rax, %rdi
 989              	.LEHB35:
 990 06c5 E8000000 		call	bufInitialise@PLT
 990      00
 991              	.LEHE35:
 992              		.loc 3 74 11
 993 06ca 8985DCFE 		movl	%eax, -292(%rbp)
 993      FFFF
 994              	.LEHB36:
  75:testI2C.cpp   **** 		CHECK_EQUAL(BUF_SUCCESS, bStatus);
 995              		.loc 3 75 3
 996 06d0 E8000000 		call	_ZN8UnitTest11CurrentTest7DetailsEv@PLT
 996      00
 997 06d5 488B08   		movq	(%rax), %rcx
 998 06d8 488D4590 		leaq	-112(%rbp), %rax
 999 06dc BA4B0000 		movl	$75, %edx
 999      00
 1000 06e1 4889CE   		movq	%rcx, %rsi
 1001 06e4 4889C7   		movq	%rax, %rdi
 1002 06e7 E8000000 		call	_ZN8UnitTest11TestDetailsC1ERKS0_i@PLT
 1002      00
 1003              		.loc 3 75 3 is_stmt 0 discriminator 4
 1004 06ec C785E4FE 		movl	$0, -284(%rbp)
 1004      FFFF0000 
 1004      0000
 1005 06f6 E8000000 		call	_ZN8UnitTest11CurrentTest7ResultsEv@PLT
 1005      00
 1006 06fb 488B00   		movq	(%rax), %rax
 1007 06fe 488D4D90 		leaq	-112(%rbp), %rcx
 1008 0702 488D95DC 		leaq	-292(%rbp), %rdx
 1008      FEFFFF
 1009 0709 488DB5E4 		leaq	-284(%rbp), %rsi
 1009      FEFFFF
 1010 0710 4889C7   		movq	%rax, %rdi
 1011 0713 E8000000 		call	_ZN8UnitTest10CheckEqualI12BufferStatusS1_EEvRNS_11TestResultsERKT_RKT0_RKNS_11TestDetailsE
 1011      00
 1012              	.LEHE36:
 1013              	.L59:
  76:testI2C.cpp   **** 		bStatus = bufWriteBlock(&srcData, 0x00000000, expected, 16, NULL);
 1014              		.loc 3 76 26 is_stmt 1
 1015 0718 488D55D0 		leaq	-48(%rbp), %rdx
 1016 071c 488D8510 		leaq	-240(%rbp), %rax
 1016      FFFFFF
 1017 0723 41B80000 		movl	$0, %r8d
 1017      0000
 1018 0729 B9100000 		movl	$16, %ecx
 1018      00
 1019 072e BE000000 		movl	$0, %esi
 1019      00
 1020 0733 4889C7   		movq	%rax, %rdi
 1021              	.LEHB37:
 1022 0736 E8000000 		call	bufWriteBlock@PLT
 1022      00
 1023              	.LEHE37:
 1024              		.loc 3 76 11
 1025 073b 8985DCFE 		movl	%eax, -292(%rbp)
 1025      FFFF
 1026              	.LEHB38:
  77:testI2C.cpp   **** 		CHECK_EQUAL(BUF_SUCCESS, bStatus);
 1027              		.loc 3 77 3
 1028 0741 E8000000 		call	_ZN8UnitTest11CurrentTest7DetailsEv@PLT
 1028      00
 1029 0746 488B08   		movq	(%rax), %rcx
 1030 0749 488D4590 		leaq	-112(%rbp), %rax
 1031 074d BA4D0000 		movl	$77, %edx
 1031      00
 1032 0752 4889CE   		movq	%rcx, %rsi
 1033 0755 4889C7   		movq	%rax, %rdi
 1034 0758 E8000000 		call	_ZN8UnitTest11TestDetailsC1ERKS0_i@PLT
 1034      00
 1035              		.loc 3 77 3 is_stmt 0 discriminator 4
 1036 075d C785E4FE 		movl	$0, -284(%rbp)
 1036      FFFF0000 
 1036      0000
 1037 0767 E8000000 		call	_ZN8UnitTest11CurrentTest7ResultsEv@PLT
 1037      00
 1038 076c 488B00   		movq	(%rax), %rax
 1039 076f 488D4D90 		leaq	-112(%rbp), %rcx
 1040 0773 488D95DC 		leaq	-292(%rbp), %rdx
 1040      FEFFFF
 1041 077a 488DB5E4 		leaq	-284(%rbp), %rsi
 1041      FEFFFF
 1042 0781 4889C7   		movq	%rax, %rdi
 1043 0784 E8000000 		call	_ZN8UnitTest10CheckEqualI12BufferStatusS1_EEvRNS_11TestResultsERKT_RKT0_RKNS_11TestDetailsE
 1043      00
 1044              	.LEHE38:
 1045              	.L62:
  78:testI2C.cpp   **** 		bStatus = bufWriteBlock(&srcMask, 0x00000000, mask, 16, NULL);
 1046              		.loc 3 78 26 is_stmt 1
 1047 0789 488D55C0 		leaq	-64(%rbp), %rdx
 1048 078d 488D8530 		leaq	-208(%rbp), %rax
 1048      FFFFFF
 1049 0794 41B80000 		movl	$0, %r8d
 1049      0000
 1050 079a B9100000 		movl	$16, %ecx
 1050      00
 1051 079f BE000000 		movl	$0, %esi
 1051      00
 1052 07a4 4889C7   		movq	%rax, %rdi
 1053              	.LEHB39:
 1054 07a7 E8000000 		call	bufWriteBlock@PLT
 1054      00
 1055              	.LEHE39:
 1056              		.loc 3 78 11
 1057 07ac 8985DCFE 		movl	%eax, -292(%rbp)
 1057      FFFF
 1058              	.LEHB40:
  79:testI2C.cpp   **** 		CHECK_EQUAL(BUF_SUCCESS, bStatus);
 1059              		.loc 3 79 3
 1060 07b2 E8000000 		call	_ZN8UnitTest11CurrentTest7DetailsEv@PLT
 1060      00
 1061 07b7 488B08   		movq	(%rax), %rcx
 1062 07ba 488D4590 		leaq	-112(%rbp), %rax
 1063 07be BA4F0000 		movl	$79, %edx
 1063      00
 1064 07c3 4889CE   		movq	%rcx, %rsi
 1065 07c6 4889C7   		movq	%rax, %rdi
 1066 07c9 E8000000 		call	_ZN8UnitTest11TestDetailsC1ERKS0_i@PLT
 1066      00
 1067              		.loc 3 79 3 is_stmt 0 discriminator 4
 1068 07ce C785E4FE 		movl	$0, -284(%rbp)
 1068      FFFF0000 
 1068      0000
 1069 07d8 E8000000 		call	_ZN8UnitTest11CurrentTest7ResultsEv@PLT
 1069      00
 1070 07dd 488B00   		movq	(%rax), %rax
 1071 07e0 488D4D90 		leaq	-112(%rbp), %rcx
 1072 07e4 488D95DC 		leaq	-292(%rbp), %rdx
 1072      FEFFFF
 1073 07eb 488DB5E4 		leaq	-284(%rbp), %rsi
 1073      FEFFFF
 1074 07f2 4889C7   		movq	%rax, %rdi
 1075 07f5 E8000000 		call	_ZN8UnitTest10CheckEqualI12BufferStatusS1_EEvRNS_11TestResultsERKT_RKT0_RKNS_11TestDetailsE
 1075      00
 1076              	.LEHE40:
 1077              	.L65:
  80:testI2C.cpp   **** 		iStatus = i2cWritePromRecords(&i2cBuffer, &srcData, &srcMask, NULL);
 1078              		.loc 3 80 32 is_stmt 1
 1079 07fa 488D9530 		leaq	-208(%rbp), %rdx
 1079      FFFFFF
 1080 0801 488DB510 		leaq	-240(%rbp), %rsi
 1080      FFFFFF
 1081 0808 488D85F0 		leaq	-272(%rbp), %rax
 1081      FEFFFF
 1082 080f B9000000 		movl	$0, %ecx
 1082      00
 1083 0814 4889C7   		movq	%rax, %rdi
 1084              	.LEHB41:
 1085 0817 E8000000 		call	i2cWritePromRecords@PLT
 1085      00
 1086              	.LEHE41:
 1087              		.loc 3 80 11
 1088 081c 8985E0FE 		movl	%eax, -288(%rbp)
 1088      FFFF
 1089              	.LEHB42:
  81:testI2C.cpp   **** 		CHECK_EQUAL(I2C_SUCCESS, iStatus);
 1090              		.loc 3 81 3
 1091 0822 E8000000 		call	_ZN8UnitTest11CurrentTest7DetailsEv@PLT
 1091      00
 1092 0827 488B08   		movq	(%rax), %rcx
 1093 082a 488D4590 		leaq	-112(%rbp), %rax
 1094 082e BA510000 		movl	$81, %edx
 1094      00
 1095 0833 4889CE   		movq	%rcx, %rsi
 1096 0836 4889C7   		movq	%rax, %rdi
 1097 0839 E8000000 		call	_ZN8UnitTest11TestDetailsC1ERKS0_i@PLT
 1097      00
 1098              		.loc 3 81 3 is_stmt 0 discriminator 4
 1099 083e C785E4FE 		movl	$0, -284(%rbp)
 1099      FFFF0000 
 1099      0000
 1100 0848 E8000000 		call	_ZN8UnitTest11CurrentTest7ResultsEv@PLT
 1100      00
 1101 084d 488B00   		movq	(%rax), %rax
 1102 0850 488D4D90 		leaq	-112(%rbp), %rcx
 1103 0854 488D95E0 		leaq	-288(%rbp), %rdx
 1103      FEFFFF
 1104 085b 488DB5E4 		leaq	-284(%rbp), %rsi
 1104      FEFFFF
 1105 0862 4889C7   		movq	%rax, %rdi
 1106 0865 E8000000 		call	_ZN8UnitTest10CheckEqualI9I2CStatusS1_EEvRNS_11TestResultsERKT_RKT0_RKNS_11TestDetailsE
 1106      00
 1107              	.LEHE42:
 1108              	.L68:
  82:testI2C.cpp   **** 		iStatus = i2cFinalise(&i2cBuffer, NULL);
 1109              		.loc 3 82 24 is_stmt 1
 1110 086a 488D85F0 		leaq	-272(%rbp), %rax
 1110      FEFFFF
 1111 0871 BE000000 		movl	$0, %esi
 1111      00
 1112 0876 4889C7   		movq	%rax, %rdi
 1113              	.LEHB43:
 1114 0879 E8000000 		call	i2cFinalise@PLT
 1114      00
 1115              	.LEHE43:
 1116              		.loc 3 82 11
 1117 087e 8985E0FE 		movl	%eax, -288(%rbp)
 1117      FFFF
 1118              	.LEHB44:
  83:testI2C.cpp   **** 		CHECK_EQUAL(I2C_SUCCESS, iStatus);
 1119              		.loc 3 83 3
 1120 0884 E8000000 		call	_ZN8UnitTest11CurrentTest7DetailsEv@PLT
 1120      00
 1121 0889 488B08   		movq	(%rax), %rcx
 1122 088c 488D4590 		leaq	-112(%rbp), %rax
 1123 0890 BA530000 		movl	$83, %edx
 1123      00
 1124 0895 4889CE   		movq	%rcx, %rsi
 1125 0898 4889C7   		movq	%rax, %rdi
 1126 089b E8000000 		call	_ZN8UnitTest11TestDetailsC1ERKS0_i@PLT
 1126      00
 1127              		.loc 3 83 3 is_stmt 0 discriminator 4
 1128 08a0 C785E4FE 		movl	$0, -284(%rbp)
 1128      FFFF0000 
 1128      0000
 1129 08aa E8000000 		call	_ZN8UnitTest11CurrentTest7ResultsEv@PLT
 1129      00
 1130 08af 488B00   		movq	(%rax), %rax
 1131 08b2 488D4D90 		leaq	-112(%rbp), %rcx
 1132 08b6 488D95E0 		leaq	-288(%rbp), %rdx
 1132      FEFFFF
 1133 08bd 488DB5E4 		leaq	-284(%rbp), %rsi
 1133      FEFFFF
 1134 08c4 4889C7   		movq	%rax, %rdi
 1135 08c7 E8000000 		call	_ZN8UnitTest10CheckEqualI9I2CStatusS1_EEvRNS_11TestResultsERKT_RKT0_RKNS_11TestDetailsE
 1135      00
 1136              	.LEHE44:
 1137              	.L71:
  84:testI2C.cpp   **** 		iStatus = i2cReadPromRecords(&dstData, &dstMask, &i2cBuffer, NULL);
 1138              		.loc 3 84 31 is_stmt 1
 1139 08cc 488D95F0 		leaq	-272(%rbp), %rdx
 1139      FEFFFF
 1140 08d3 488DB570 		leaq	-144(%rbp), %rsi
 1140      FFFFFF
 1141 08da 488D8550 		leaq	-176(%rbp), %rax
 1141      FFFFFF
 1142 08e1 B9000000 		movl	$0, %ecx
 1142      00
 1143 08e6 4889C7   		movq	%rax, %rdi
 1144              	.LEHB45:
 1145 08e9 E8000000 		call	i2cReadPromRecords@PLT
 1145      00
 1146              	.LEHE45:
 1147              		.loc 3 84 11
 1148 08ee 8985E0FE 		movl	%eax, -288(%rbp)
 1148      FFFF
 1149              	.LEHB46:
  85:testI2C.cpp   **** 		CHECK_EQUAL(I2C_SUCCESS, iStatus);
 1150              		.loc 3 85 3
 1151 08f4 E8000000 		call	_ZN8UnitTest11CurrentTest7DetailsEv@PLT
 1151      00
 1152 08f9 488B08   		movq	(%rax), %rcx
 1153 08fc 488D4590 		leaq	-112(%rbp), %rax
 1154 0900 BA550000 		movl	$85, %edx
 1154      00
 1155 0905 4889CE   		movq	%rcx, %rsi
 1156 0908 4889C7   		movq	%rax, %rdi
 1157 090b E8000000 		call	_ZN8UnitTest11TestDetailsC1ERKS0_i@PLT
 1157      00
 1158              		.loc 3 85 3 is_stmt 0 discriminator 4
 1159 0910 C785E4FE 		movl	$0, -284(%rbp)
 1159      FFFF0000 
 1159      0000
 1160 091a E8000000 		call	_ZN8UnitTest11CurrentTest7ResultsEv@PLT
 1160      00
 1161 091f 488B00   		movq	(%rax), %rax
 1162 0922 488D4D90 		leaq	-112(%rbp), %rcx
 1163 0926 488D95E0 		leaq	-288(%rbp), %rdx
 1163      FEFFFF
 1164 092d 488DB5E4 		leaq	-284(%rbp), %rsi
 1164      FEFFFF
 1165 0934 4889C7   		movq	%rax, %rdi
 1166 0937 E8000000 		call	_ZN8UnitTest10CheckEqualI9I2CStatusS1_EEvRNS_11TestResultsERKT_RKT0_RKNS_11TestDetailsE
 1166      00
 1167              	.LEHE46:
 1168              	.L74:
 1169              	.LEHB47:
  86:testI2C.cpp   **** 		CHECK_ARRAY_EQUAL(expected, dstData.data, 16);
 1170              		.loc 3 86 3 is_stmt 1
 1171 093c E8000000 		call	_ZN8UnitTest11CurrentTest7DetailsEv@PLT
 1171      00
 1172 0941 488B08   		movq	(%rax), %rcx
 1173 0944 488D4590 		leaq	-112(%rbp), %rax
 1174 0948 BA560000 		movl	$86, %edx
 1174      00
 1175 094d 4889CE   		movq	%rcx, %rsi
 1176 0950 4889C7   		movq	%rax, %rdi
 1177 0953 E8000000 		call	_ZN8UnitTest11TestDetailsC1ERKS0_i@PLT
 1177      00
 1178              		.loc 3 86 3 is_stmt 0 discriminator 4
 1179 0958 E8000000 		call	_ZN8UnitTest11CurrentTest7ResultsEv@PLT
 1179      00
 1180 095d 488B00   		movq	(%rax), %rax
 1181 0960 488D4D90 		leaq	-112(%rbp), %rcx
 1182 0964 488D9550 		leaq	-176(%rbp), %rdx
 1182      FFFFFF
 1183 096b 488D75D0 		leaq	-48(%rbp), %rsi
 1184 096f 4989C8   		movq	%rcx, %r8
 1185 0972 B9100000 		movl	$16, %ecx
 1185      00
 1186 0977 4889C7   		movq	%rax, %rdi
 1187 097a E8000000 		call	_ZN8UnitTest15CheckArrayEqualIA16_hPhEEvRNS_11TestResultsERKT_RKT0_iRKNS_11TestDetailsE
 1187      00
 1188              	.LEHE47:
 1189              	.L77:
  87:testI2C.cpp   **** 		bufDestroy(&dstMask);
 1190              		.loc 3 87 13 is_stmt 1
 1191 097f 488D8570 		leaq	-144(%rbp), %rax
 1191      FFFFFF
 1192 0986 4889C7   		movq	%rax, %rdi
 1193              	.LEHB48:
 1194 0989 E8000000 		call	bufDestroy@PLT
 1194      00
  88:testI2C.cpp   **** 		bufDestroy(&srcMask);
 1195              		.loc 3 88 13
 1196 098e 488D8530 		leaq	-208(%rbp), %rax
 1196      FFFFFF
 1197 0995 4889C7   		movq	%rax, %rdi
 1198 0998 E8000000 		call	bufDestroy@PLT
 1198      00
  89:testI2C.cpp   **** 		bufDestroy(&dstData);
 1199              		.loc 3 89 13
 1200 099d 488D8550 		leaq	-176(%rbp), %rax
 1200      FFFFFF
 1201 09a4 4889C7   		movq	%rax, %rdi
 1202 09a7 E8000000 		call	bufDestroy@PLT
 1202      00
  90:testI2C.cpp   **** 		bufDestroy(&srcData);
 1203              		.loc 3 90 13
 1204 09ac 488D8510 		leaq	-240(%rbp), %rax
 1204      FFFFFF
 1205 09b3 4889C7   		movq	%rax, %rdi
 1206 09b6 E8000000 		call	bufDestroy@PLT
 1206      00
  91:testI2C.cpp   **** 		bufDestroy(&i2cBuffer);
 1207              		.loc 3 91 13
 1208 09bb 488D85F0 		leaq	-272(%rbp), %rax
 1208      FEFFFF
 1209 09c2 4889C7   		movq	%rax, %rdi
 1210 09c5 E8000000 		call	bufDestroy@PLT
 1210      00
 1211              	.LEHE48:
  55:testI2C.cpp   **** 		for ( j = 0; j < 16; j++ ) {
 1212              		.loc 3 55 2
 1213 09ca 8385E8FE 		addl	$1, -280(%rbp)
 1213      FFFF01
 1214              	.L40:
  55:testI2C.cpp   **** 		for ( j = 0; j < 16; j++ ) {
 1215              		.loc 3 55 17 discriminator 1
 1216 09d1 81BDE8FE 		cmpl	$65535, -280(%rbp)
 1216      FFFFFFFF 
 1216      0000
 1217 09db 0F8688FA 		jbe	.L45
 1217      FFFF
  92:testI2C.cpp   **** 	}
  93:testI2C.cpp   **** }
 1218              		.loc 3 93 1
 1219 09e1 E96D0400 		jmp	.L102
 1219      00
 1220              	.L80:
 1221 09e6 F30F1EFA 		endbr64
  66:testI2C.cpp   **** 		i2cInitialise(&i2cBuffer, VID, PID, DID, CONFIG_BYTE_400KHZ);
 1222              		.loc 3 66 3
 1223 09ea 4889C7   		movq	%rax, %rdi
 1224 09ed E8000000 		call	__cxa_begin_catch@PLT
 1224      00
 1225              	.LEHB49:
 1226 09f2 E8000000 		call	_ZN8UnitTest11CurrentTest7ResultsEv@PLT
 1226      00
  66:testI2C.cpp   **** 		i2cInitialise(&i2cBuffer, VID, PID, DID, CONFIG_BYTE_400KHZ);
 1227              		.loc 3 66 3 is_stmt 0 discriminator 3
 1228 09f7 488B18   		movq	(%rax), %rbx
 1229 09fa E8000000 		call	_ZN8UnitTest11CurrentTest7DetailsEv@PLT
 1229      00
  66:testI2C.cpp   **** 		i2cInitialise(&i2cBuffer, VID, PID, DID, CONFIG_BYTE_400KHZ);
 1230              		.loc 3 66 3 discriminator 11
 1231 09ff 488B08   		movq	(%rax), %rcx
 1232 0a02 488D4590 		leaq	-112(%rbp), %rax
 1233 0a06 BA420000 		movl	$66, %edx
 1233      00
 1234 0a0b 4889CE   		movq	%rcx, %rsi
 1235 0a0e 4889C7   		movq	%rax, %rdi
 1236 0a11 E8000000 		call	_ZN8UnitTest11TestDetailsC1ERKS0_i@PLT
 1236      00
  66:testI2C.cpp   **** 		i2cInitialise(&i2cBuffer, VID, PID, DID, CONFIG_BYTE_400KHZ);
 1237              		.loc 3 66 3 discriminator 15
 1238 0a16 488D4590 		leaq	-112(%rbp), %rax
 1239 0a1a 488D1500 		leaq	.LC3(%rip), %rdx
 1239      000000
 1240 0a21 4889C6   		movq	%rax, %rsi
 1241 0a24 4889DF   		movq	%rbx, %rdi
 1242 0a27 E8000000 		call	_ZN8UnitTest11TestResults13OnTestFailureERKNS_11TestDetailsEPKc@PLT
 1242      00
 1243              	.LEHE49:
 1244              	.LEHB50:
  66:testI2C.cpp   **** 		i2cInitialise(&i2cBuffer, VID, PID, DID, CONFIG_BYTE_400KHZ);
 1245              		.loc 3 66 3 discriminator 17
 1246 0a2c E8000000 		call	__cxa_end_catch@PLT
 1246      00
 1247              	.LEHE50:
 1248 0a31 E90EFBFF 		jmp	.L47
 1248      FF
 1249              	.L81:
 1250 0a36 F30F1EFA 		endbr64
  66:testI2C.cpp   **** 		i2cInitialise(&i2cBuffer, VID, PID, DID, CONFIG_BYTE_400KHZ);
 1251              		.loc 3 66 3
 1252 0a3a 4889C3   		movq	%rax, %rbx
 1253 0a3d E8000000 		call	__cxa_end_catch@PLT
 1253      00
 1254 0a42 4889D8   		movq	%rbx, %rax
 1255 0a45 4889C7   		movq	%rax, %rdi
 1256              	.LEHB51:
 1257 0a48 E8000000 		call	_Unwind_Resume@PLT
 1257      00
 1258              	.LEHE51:
 1259              	.L82:
 1260 0a4d F30F1EFA 		endbr64
  69:testI2C.cpp   **** 		bStatus = bufInitialise(&dstData, 16, 0x00, NULL);
 1261              		.loc 3 69 3 is_stmt 1
 1262 0a51 4889C7   		movq	%rax, %rdi
 1263 0a54 E8000000 		call	__cxa_begin_catch@PLT
 1263      00
 1264              	.LEHB52:
 1265 0a59 E8000000 		call	_ZN8UnitTest11CurrentTest7ResultsEv@PLT
 1265      00
  69:testI2C.cpp   **** 		bStatus = bufInitialise(&dstData, 16, 0x00, NULL);
 1266              		.loc 3 69 3 is_stmt 0 discriminator 3
 1267 0a5e 488B18   		movq	(%rax), %rbx
 1268 0a61 E8000000 		call	_ZN8UnitTest11CurrentTest7DetailsEv@PLT
 1268      00
  69:testI2C.cpp   **** 		bStatus = bufInitialise(&dstData, 16, 0x00, NULL);
 1269              		.loc 3 69 3 discriminator 11
 1270 0a66 488B08   		movq	(%rax), %rcx
 1271 0a69 488D4590 		leaq	-112(%rbp), %rax
 1272 0a6d BA450000 		movl	$69, %edx
 1272      00
 1273 0a72 4889CE   		movq	%rcx, %rsi
 1274 0a75 4889C7   		movq	%rax, %rdi
 1275 0a78 E8000000 		call	_ZN8UnitTest11TestDetailsC1ERKS0_i@PLT
 1275      00
  69:testI2C.cpp   **** 		bStatus = bufInitialise(&dstData, 16, 0x00, NULL);
 1276              		.loc 3 69 3 discriminator 15
 1277 0a7d 488D4590 		leaq	-112(%rbp), %rax
 1278 0a81 488D1500 		leaq	.LC3(%rip), %rdx
 1278      000000
 1279 0a88 4889C6   		movq	%rax, %rsi
 1280 0a8b 4889DF   		movq	%rbx, %rdi
 1281 0a8e E8000000 		call	_ZN8UnitTest11TestResults13OnTestFailureERKNS_11TestDetailsEPKc@PLT
 1281      00
 1282              	.LEHE52:
 1283              	.LEHB53:
  69:testI2C.cpp   **** 		bStatus = bufInitialise(&dstData, 16, 0x00, NULL);
 1284              		.loc 3 69 3 discriminator 17
 1285 0a93 E8000000 		call	__cxa_end_catch@PLT
 1285      00
 1286              	.LEHE53:
 1287 0a98 E937FBFF 		jmp	.L50
 1287      FF
 1288              	.L83:
 1289 0a9d F30F1EFA 		endbr64
  69:testI2C.cpp   **** 		bStatus = bufInitialise(&dstData, 16, 0x00, NULL);
 1290              		.loc 3 69 3
 1291 0aa1 4889C3   		movq	%rax, %rbx
 1292 0aa4 E8000000 		call	__cxa_end_catch@PLT
 1292      00
 1293 0aa9 4889D8   		movq	%rbx, %rax
 1294 0aac 4889C7   		movq	%rax, %rdi
 1295              	.LEHB54:
 1296 0aaf E8000000 		call	_Unwind_Resume@PLT
 1296      00
 1297              	.LEHE54:
 1298              	.L84:
 1299 0ab4 F30F1EFA 		endbr64
  71:testI2C.cpp   **** 		bStatus = bufInitialise(&srcMask, 16, 0x00, NULL);
 1300              		.loc 3 71 3 is_stmt 1
 1301 0ab8 4889C7   		movq	%rax, %rdi
 1302 0abb E8000000 		call	__cxa_begin_catch@PLT
 1302      00
 1303              	.LEHB55:
 1304 0ac0 E8000000 		call	_ZN8UnitTest11CurrentTest7ResultsEv@PLT
 1304      00
  71:testI2C.cpp   **** 		bStatus = bufInitialise(&srcMask, 16, 0x00, NULL);
 1305              		.loc 3 71 3 is_stmt 0 discriminator 3
 1306 0ac5 488B18   		movq	(%rax), %rbx
 1307 0ac8 E8000000 		call	_ZN8UnitTest11CurrentTest7DetailsEv@PLT
 1307      00
  71:testI2C.cpp   **** 		bStatus = bufInitialise(&srcMask, 16, 0x00, NULL);
 1308              		.loc 3 71 3 discriminator 11
 1309 0acd 488B08   		movq	(%rax), %rcx
 1310 0ad0 488D4590 		leaq	-112(%rbp), %rax
 1311 0ad4 BA470000 		movl	$71, %edx
 1311      00
 1312 0ad9 4889CE   		movq	%rcx, %rsi
 1313 0adc 4889C7   		movq	%rax, %rdi
 1314 0adf E8000000 		call	_ZN8UnitTest11TestDetailsC1ERKS0_i@PLT
 1314      00
  71:testI2C.cpp   **** 		bStatus = bufInitialise(&srcMask, 16, 0x00, NULL);
 1315              		.loc 3 71 3 discriminator 15
 1316 0ae4 488D4590 		leaq	-112(%rbp), %rax
 1317 0ae8 488D1500 		leaq	.LC3(%rip), %rdx
 1317      000000
 1318 0aef 4889C6   		movq	%rax, %rsi
 1319 0af2 4889DF   		movq	%rbx, %rdi
 1320 0af5 E8000000 		call	_ZN8UnitTest11TestResults13OnTestFailureERKNS_11TestDetailsEPKc@PLT
 1320      00
 1321              	.LEHE55:
 1322              	.LEHB56:
  71:testI2C.cpp   **** 		bStatus = bufInitialise(&srcMask, 16, 0x00, NULL);
 1323              		.loc 3 71 3 discriminator 17
 1324 0afa E8000000 		call	__cxa_end_catch@PLT
 1324      00
 1325              	.LEHE56:
 1326 0aff E93CFBFF 		jmp	.L53
 1326      FF
 1327              	.L85:
 1328 0b04 F30F1EFA 		endbr64
  71:testI2C.cpp   **** 		bStatus = bufInitialise(&srcMask, 16, 0x00, NULL);
 1329              		.loc 3 71 3
 1330 0b08 4889C3   		movq	%rax, %rbx
 1331 0b0b E8000000 		call	__cxa_end_catch@PLT
 1331      00
 1332 0b10 4889D8   		movq	%rbx, %rax
 1333 0b13 4889C7   		movq	%rax, %rdi
 1334              	.LEHB57:
 1335 0b16 E8000000 		call	_Unwind_Resume@PLT
 1335      00
 1336              	.LEHE57:
 1337              	.L86:
 1338 0b1b F30F1EFA 		endbr64
  73:testI2C.cpp   **** 		bStatus = bufInitialise(&dstMask, 16, 0x00, NULL);
 1339              		.loc 3 73 3 is_stmt 1
 1340 0b1f 4889C7   		movq	%rax, %rdi
 1341 0b22 E8000000 		call	__cxa_begin_catch@PLT
 1341      00
 1342              	.LEHB58:
 1343 0b27 E8000000 		call	_ZN8UnitTest11CurrentTest7ResultsEv@PLT
 1343      00
  73:testI2C.cpp   **** 		bStatus = bufInitialise(&dstMask, 16, 0x00, NULL);
 1344              		.loc 3 73 3 is_stmt 0 discriminator 3
 1345 0b2c 488B18   		movq	(%rax), %rbx
 1346 0b2f E8000000 		call	_ZN8UnitTest11CurrentTest7DetailsEv@PLT
 1346      00
  73:testI2C.cpp   **** 		bStatus = bufInitialise(&dstMask, 16, 0x00, NULL);
 1347              		.loc 3 73 3 discriminator 11
 1348 0b34 488B08   		movq	(%rax), %rcx
 1349 0b37 488D4590 		leaq	-112(%rbp), %rax
 1350 0b3b BA490000 		movl	$73, %edx
 1350      00
 1351 0b40 4889CE   		movq	%rcx, %rsi
 1352 0b43 4889C7   		movq	%rax, %rdi
 1353 0b46 E8000000 		call	_ZN8UnitTest11TestDetailsC1ERKS0_i@PLT
 1353      00
  73:testI2C.cpp   **** 		bStatus = bufInitialise(&dstMask, 16, 0x00, NULL);
 1354              		.loc 3 73 3 discriminator 15
 1355 0b4b 488D4590 		leaq	-112(%rbp), %rax
 1356 0b4f 488D1500 		leaq	.LC3(%rip), %rdx
 1356      000000
 1357 0b56 4889C6   		movq	%rax, %rsi
 1358 0b59 4889DF   		movq	%rbx, %rdi
 1359 0b5c E8000000 		call	_ZN8UnitTest11TestResults13OnTestFailureERKNS_11TestDetailsEPKc@PLT
 1359      00
 1360              	.LEHE58:
 1361              	.LEHB59:
  73:testI2C.cpp   **** 		bStatus = bufInitialise(&dstMask, 16, 0x00, NULL);
 1362              		.loc 3 73 3 discriminator 17
 1363 0b61 E8000000 		call	__cxa_end_catch@PLT
 1363      00
 1364              	.LEHE59:
 1365 0b66 E941FBFF 		jmp	.L56
 1365      FF
 1366              	.L87:
 1367 0b6b F30F1EFA 		endbr64
  73:testI2C.cpp   **** 		bStatus = bufInitialise(&dstMask, 16, 0x00, NULL);
 1368              		.loc 3 73 3
 1369 0b6f 4889C3   		movq	%rax, %rbx
 1370 0b72 E8000000 		call	__cxa_end_catch@PLT
 1370      00
 1371 0b77 4889D8   		movq	%rbx, %rax
 1372 0b7a 4889C7   		movq	%rax, %rdi
 1373              	.LEHB60:
 1374 0b7d E8000000 		call	_Unwind_Resume@PLT
 1374      00
 1375              	.LEHE60:
 1376              	.L88:
 1377 0b82 F30F1EFA 		endbr64
  75:testI2C.cpp   **** 		bStatus = bufWriteBlock(&srcData, 0x00000000, expected, 16, NULL);
 1378              		.loc 3 75 3 is_stmt 1
 1379 0b86 4889C7   		movq	%rax, %rdi
 1380 0b89 E8000000 		call	__cxa_begin_catch@PLT
 1380      00
 1381              	.LEHB61:
 1382 0b8e E8000000 		call	_ZN8UnitTest11CurrentTest7ResultsEv@PLT
 1382      00
  75:testI2C.cpp   **** 		bStatus = bufWriteBlock(&srcData, 0x00000000, expected, 16, NULL);
 1383              		.loc 3 75 3 is_stmt 0 discriminator 3
 1384 0b93 488B18   		movq	(%rax), %rbx
 1385 0b96 E8000000 		call	_ZN8UnitTest11CurrentTest7DetailsEv@PLT
 1385      00
  75:testI2C.cpp   **** 		bStatus = bufWriteBlock(&srcData, 0x00000000, expected, 16, NULL);
 1386              		.loc 3 75 3 discriminator 11
 1387 0b9b 488B08   		movq	(%rax), %rcx
 1388 0b9e 488D4590 		leaq	-112(%rbp), %rax
 1389 0ba2 BA4B0000 		movl	$75, %edx
 1389      00
 1390 0ba7 4889CE   		movq	%rcx, %rsi
 1391 0baa 4889C7   		movq	%rax, %rdi
 1392 0bad E8000000 		call	_ZN8UnitTest11TestDetailsC1ERKS0_i@PLT
 1392      00
  75:testI2C.cpp   **** 		bStatus = bufWriteBlock(&srcData, 0x00000000, expected, 16, NULL);
 1393              		.loc 3 75 3 discriminator 15
 1394 0bb2 488D4590 		leaq	-112(%rbp), %rax
 1395 0bb6 488D1500 		leaq	.LC3(%rip), %rdx
 1395      000000
 1396 0bbd 4889C6   		movq	%rax, %rsi
 1397 0bc0 4889DF   		movq	%rbx, %rdi
 1398 0bc3 E8000000 		call	_ZN8UnitTest11TestResults13OnTestFailureERKNS_11TestDetailsEPKc@PLT
 1398      00
 1399              	.LEHE61:
 1400              	.LEHB62:
  75:testI2C.cpp   **** 		bStatus = bufWriteBlock(&srcData, 0x00000000, expected, 16, NULL);
 1401              		.loc 3 75 3 discriminator 17
 1402 0bc8 E8000000 		call	__cxa_end_catch@PLT
 1402      00
 1403              	.LEHE62:
 1404 0bcd E946FBFF 		jmp	.L59
 1404      FF
 1405              	.L89:
 1406 0bd2 F30F1EFA 		endbr64
  75:testI2C.cpp   **** 		bStatus = bufWriteBlock(&srcData, 0x00000000, expected, 16, NULL);
 1407              		.loc 3 75 3
 1408 0bd6 4889C3   		movq	%rax, %rbx
 1409 0bd9 E8000000 		call	__cxa_end_catch@PLT
 1409      00
 1410 0bde 4889D8   		movq	%rbx, %rax
 1411 0be1 4889C7   		movq	%rax, %rdi
 1412              	.LEHB63:
 1413 0be4 E8000000 		call	_Unwind_Resume@PLT
 1413      00
 1414              	.LEHE63:
 1415              	.L90:
 1416 0be9 F30F1EFA 		endbr64
  77:testI2C.cpp   **** 		bStatus = bufWriteBlock(&srcMask, 0x00000000, mask, 16, NULL);
 1417              		.loc 3 77 3 is_stmt 1
 1418 0bed 4889C7   		movq	%rax, %rdi
 1419 0bf0 E8000000 		call	__cxa_begin_catch@PLT
 1419      00
 1420              	.LEHB64:
 1421 0bf5 E8000000 		call	_ZN8UnitTest11CurrentTest7ResultsEv@PLT
 1421      00
  77:testI2C.cpp   **** 		bStatus = bufWriteBlock(&srcMask, 0x00000000, mask, 16, NULL);
 1422              		.loc 3 77 3 is_stmt 0 discriminator 3
 1423 0bfa 488B18   		movq	(%rax), %rbx
 1424 0bfd E8000000 		call	_ZN8UnitTest11CurrentTest7DetailsEv@PLT
 1424      00
  77:testI2C.cpp   **** 		bStatus = bufWriteBlock(&srcMask, 0x00000000, mask, 16, NULL);
 1425              		.loc 3 77 3 discriminator 11
 1426 0c02 488B08   		movq	(%rax), %rcx
 1427 0c05 488D4590 		leaq	-112(%rbp), %rax
 1428 0c09 BA4D0000 		movl	$77, %edx
 1428      00
 1429 0c0e 4889CE   		movq	%rcx, %rsi
 1430 0c11 4889C7   		movq	%rax, %rdi
 1431 0c14 E8000000 		call	_ZN8UnitTest11TestDetailsC1ERKS0_i@PLT
 1431      00
  77:testI2C.cpp   **** 		bStatus = bufWriteBlock(&srcMask, 0x00000000, mask, 16, NULL);
 1432              		.loc 3 77 3 discriminator 15
 1433 0c19 488D4590 		leaq	-112(%rbp), %rax
 1434 0c1d 488D1500 		leaq	.LC3(%rip), %rdx
 1434      000000
 1435 0c24 4889C6   		movq	%rax, %rsi
 1436 0c27 4889DF   		movq	%rbx, %rdi
 1437 0c2a E8000000 		call	_ZN8UnitTest11TestResults13OnTestFailureERKNS_11TestDetailsEPKc@PLT
 1437      00
 1438              	.LEHE64:
 1439              	.LEHB65:
  77:testI2C.cpp   **** 		bStatus = bufWriteBlock(&srcMask, 0x00000000, mask, 16, NULL);
 1440              		.loc 3 77 3 discriminator 17
 1441 0c2f E8000000 		call	__cxa_end_catch@PLT
 1441      00
 1442              	.LEHE65:
 1443 0c34 E950FBFF 		jmp	.L62
 1443      FF
 1444              	.L91:
 1445 0c39 F30F1EFA 		endbr64
  77:testI2C.cpp   **** 		bStatus = bufWriteBlock(&srcMask, 0x00000000, mask, 16, NULL);
 1446              		.loc 3 77 3
 1447 0c3d 4889C3   		movq	%rax, %rbx
 1448 0c40 E8000000 		call	__cxa_end_catch@PLT
 1448      00
 1449 0c45 4889D8   		movq	%rbx, %rax
 1450 0c48 4889C7   		movq	%rax, %rdi
 1451              	.LEHB66:
 1452 0c4b E8000000 		call	_Unwind_Resume@PLT
 1452      00
 1453              	.LEHE66:
 1454              	.L92:
 1455 0c50 F30F1EFA 		endbr64
  79:testI2C.cpp   **** 		iStatus = i2cWritePromRecords(&i2cBuffer, &srcData, &srcMask, NULL);
 1456              		.loc 3 79 3 is_stmt 1
 1457 0c54 4889C7   		movq	%rax, %rdi
 1458 0c57 E8000000 		call	__cxa_begin_catch@PLT
 1458      00
 1459              	.LEHB67:
 1460 0c5c E8000000 		call	_ZN8UnitTest11CurrentTest7ResultsEv@PLT
 1460      00
  79:testI2C.cpp   **** 		iStatus = i2cWritePromRecords(&i2cBuffer, &srcData, &srcMask, NULL);
 1461              		.loc 3 79 3 is_stmt 0 discriminator 3
 1462 0c61 488B18   		movq	(%rax), %rbx
 1463 0c64 E8000000 		call	_ZN8UnitTest11CurrentTest7DetailsEv@PLT
 1463      00
  79:testI2C.cpp   **** 		iStatus = i2cWritePromRecords(&i2cBuffer, &srcData, &srcMask, NULL);
 1464              		.loc 3 79 3 discriminator 11
 1465 0c69 488B08   		movq	(%rax), %rcx
 1466 0c6c 488D4590 		leaq	-112(%rbp), %rax
 1467 0c70 BA4F0000 		movl	$79, %edx
 1467      00
 1468 0c75 4889CE   		movq	%rcx, %rsi
 1469 0c78 4889C7   		movq	%rax, %rdi
 1470 0c7b E8000000 		call	_ZN8UnitTest11TestDetailsC1ERKS0_i@PLT
 1470      00
  79:testI2C.cpp   **** 		iStatus = i2cWritePromRecords(&i2cBuffer, &srcData, &srcMask, NULL);
 1471              		.loc 3 79 3 discriminator 15
 1472 0c80 488D4590 		leaq	-112(%rbp), %rax
 1473 0c84 488D1500 		leaq	.LC3(%rip), %rdx
 1473      000000
 1474 0c8b 4889C6   		movq	%rax, %rsi
 1475 0c8e 4889DF   		movq	%rbx, %rdi
 1476 0c91 E8000000 		call	_ZN8UnitTest11TestResults13OnTestFailureERKNS_11TestDetailsEPKc@PLT
 1476      00
 1477              	.LEHE67:
 1478              	.LEHB68:
  79:testI2C.cpp   **** 		iStatus = i2cWritePromRecords(&i2cBuffer, &srcData, &srcMask, NULL);
 1479              		.loc 3 79 3 discriminator 17
 1480 0c96 E8000000 		call	__cxa_end_catch@PLT
 1480      00
 1481              	.LEHE68:
 1482 0c9b E95AFBFF 		jmp	.L65
 1482      FF
 1483              	.L93:
 1484 0ca0 F30F1EFA 		endbr64
  79:testI2C.cpp   **** 		iStatus = i2cWritePromRecords(&i2cBuffer, &srcData, &srcMask, NULL);
 1485              		.loc 3 79 3
 1486 0ca4 4889C3   		movq	%rax, %rbx
 1487 0ca7 E8000000 		call	__cxa_end_catch@PLT
 1487      00
 1488 0cac 4889D8   		movq	%rbx, %rax
 1489 0caf 4889C7   		movq	%rax, %rdi
 1490              	.LEHB69:
 1491 0cb2 E8000000 		call	_Unwind_Resume@PLT
 1491      00
 1492              	.LEHE69:
 1493              	.L94:
 1494 0cb7 F30F1EFA 		endbr64
  81:testI2C.cpp   **** 		iStatus = i2cFinalise(&i2cBuffer, NULL);
 1495              		.loc 3 81 3 is_stmt 1
 1496 0cbb 4889C7   		movq	%rax, %rdi
 1497 0cbe E8000000 		call	__cxa_begin_catch@PLT
 1497      00
 1498              	.LEHB70:
 1499 0cc3 E8000000 		call	_ZN8UnitTest11CurrentTest7ResultsEv@PLT
 1499      00
  81:testI2C.cpp   **** 		iStatus = i2cFinalise(&i2cBuffer, NULL);
 1500              		.loc 3 81 3 is_stmt 0 discriminator 3
 1501 0cc8 488B18   		movq	(%rax), %rbx
 1502 0ccb E8000000 		call	_ZN8UnitTest11CurrentTest7DetailsEv@PLT
 1502      00
  81:testI2C.cpp   **** 		iStatus = i2cFinalise(&i2cBuffer, NULL);
 1503              		.loc 3 81 3 discriminator 11
 1504 0cd0 488B08   		movq	(%rax), %rcx
 1505 0cd3 488D4590 		leaq	-112(%rbp), %rax
 1506 0cd7 BA510000 		movl	$81, %edx
 1506      00
 1507 0cdc 4889CE   		movq	%rcx, %rsi
 1508 0cdf 4889C7   		movq	%rax, %rdi
 1509 0ce2 E8000000 		call	_ZN8UnitTest11TestDetailsC1ERKS0_i@PLT
 1509      00
  81:testI2C.cpp   **** 		iStatus = i2cFinalise(&i2cBuffer, NULL);
 1510              		.loc 3 81 3 discriminator 15
 1511 0ce7 488D4590 		leaq	-112(%rbp), %rax
 1512 0ceb 488D1500 		leaq	.LC4(%rip), %rdx
 1512      000000
 1513 0cf2 4889C6   		movq	%rax, %rsi
 1514 0cf5 4889DF   		movq	%rbx, %rdi
 1515 0cf8 E8000000 		call	_ZN8UnitTest11TestResults13OnTestFailureERKNS_11TestDetailsEPKc@PLT
 1515      00
 1516              	.LEHE70:
 1517              	.LEHB71:
  81:testI2C.cpp   **** 		iStatus = i2cFinalise(&i2cBuffer, NULL);
 1518              		.loc 3 81 3 discriminator 17
 1519 0cfd E8000000 		call	__cxa_end_catch@PLT
 1519      00
 1520              	.LEHE71:
 1521 0d02 E963FBFF 		jmp	.L68
 1521      FF
 1522              	.L95:
 1523 0d07 F30F1EFA 		endbr64
  81:testI2C.cpp   **** 		iStatus = i2cFinalise(&i2cBuffer, NULL);
 1524              		.loc 3 81 3
 1525 0d0b 4889C3   		movq	%rax, %rbx
 1526 0d0e E8000000 		call	__cxa_end_catch@PLT
 1526      00
 1527 0d13 4889D8   		movq	%rbx, %rax
 1528 0d16 4889C7   		movq	%rax, %rdi
 1529              	.LEHB72:
 1530 0d19 E8000000 		call	_Unwind_Resume@PLT
 1530      00
 1531              	.LEHE72:
 1532              	.L96:
 1533 0d1e F30F1EFA 		endbr64
  83:testI2C.cpp   **** 		iStatus = i2cReadPromRecords(&dstData, &dstMask, &i2cBuffer, NULL);
 1534              		.loc 3 83 3 is_stmt 1
 1535 0d22 4889C7   		movq	%rax, %rdi
 1536 0d25 E8000000 		call	__cxa_begin_catch@PLT
 1536      00
 1537              	.LEHB73:
 1538 0d2a E8000000 		call	_ZN8UnitTest11CurrentTest7ResultsEv@PLT
 1538      00
  83:testI2C.cpp   **** 		iStatus = i2cReadPromRecords(&dstData, &dstMask, &i2cBuffer, NULL);
 1539              		.loc 3 83 3 is_stmt 0 discriminator 3
 1540 0d2f 488B18   		movq	(%rax), %rbx
 1541 0d32 E8000000 		call	_ZN8UnitTest11CurrentTest7DetailsEv@PLT
 1541      00
  83:testI2C.cpp   **** 		iStatus = i2cReadPromRecords(&dstData, &dstMask, &i2cBuffer, NULL);
 1542              		.loc 3 83 3 discriminator 11
 1543 0d37 488B08   		movq	(%rax), %rcx
 1544 0d3a 488D4590 		leaq	-112(%rbp), %rax
 1545 0d3e BA530000 		movl	$83, %edx
 1545      00
 1546 0d43 4889CE   		movq	%rcx, %rsi
 1547 0d46 4889C7   		movq	%rax, %rdi
 1548 0d49 E8000000 		call	_ZN8UnitTest11TestDetailsC1ERKS0_i@PLT
 1548      00
  83:testI2C.cpp   **** 		iStatus = i2cReadPromRecords(&dstData, &dstMask, &i2cBuffer, NULL);
 1549              		.loc 3 83 3 discriminator 15
 1550 0d4e 488D4590 		leaq	-112(%rbp), %rax
 1551 0d52 488D1500 		leaq	.LC4(%rip), %rdx
 1551      000000
 1552 0d59 4889C6   		movq	%rax, %rsi
 1553 0d5c 4889DF   		movq	%rbx, %rdi
 1554 0d5f E8000000 		call	_ZN8UnitTest11TestResults13OnTestFailureERKNS_11TestDetailsEPKc@PLT
 1554      00
 1555              	.LEHE73:
 1556              	.LEHB74:
  83:testI2C.cpp   **** 		iStatus = i2cReadPromRecords(&dstData, &dstMask, &i2cBuffer, NULL);
 1557              		.loc 3 83 3 discriminator 17
 1558 0d64 E8000000 		call	__cxa_end_catch@PLT
 1558      00
 1559              	.LEHE74:
 1560 0d69 E95EFBFF 		jmp	.L71
 1560      FF
 1561              	.L97:
 1562 0d6e F30F1EFA 		endbr64
  83:testI2C.cpp   **** 		iStatus = i2cReadPromRecords(&dstData, &dstMask, &i2cBuffer, NULL);
 1563              		.loc 3 83 3
 1564 0d72 4889C3   		movq	%rax, %rbx
 1565 0d75 E8000000 		call	__cxa_end_catch@PLT
 1565      00
 1566 0d7a 4889D8   		movq	%rbx, %rax
 1567 0d7d 4889C7   		movq	%rax, %rdi
 1568              	.LEHB75:
 1569 0d80 E8000000 		call	_Unwind_Resume@PLT
 1569      00
 1570              	.LEHE75:
 1571              	.L98:
 1572 0d85 F30F1EFA 		endbr64
  85:testI2C.cpp   **** 		CHECK_ARRAY_EQUAL(expected, dstData.data, 16);
 1573              		.loc 3 85 3 is_stmt 1
 1574 0d89 4889C7   		movq	%rax, %rdi
 1575 0d8c E8000000 		call	__cxa_begin_catch@PLT
 1575      00
 1576              	.LEHB76:
 1577 0d91 E8000000 		call	_ZN8UnitTest11CurrentTest7ResultsEv@PLT
 1577      00
  85:testI2C.cpp   **** 		CHECK_ARRAY_EQUAL(expected, dstData.data, 16);
 1578              		.loc 3 85 3 is_stmt 0 discriminator 3
 1579 0d96 488B18   		movq	(%rax), %rbx
 1580 0d99 E8000000 		call	_ZN8UnitTest11CurrentTest7DetailsEv@PLT
 1580      00
  85:testI2C.cpp   **** 		CHECK_ARRAY_EQUAL(expected, dstData.data, 16);
 1581              		.loc 3 85 3 discriminator 11
 1582 0d9e 488B08   		movq	(%rax), %rcx
 1583 0da1 488D4590 		leaq	-112(%rbp), %rax
 1584 0da5 BA550000 		movl	$85, %edx
 1584      00
 1585 0daa 4889CE   		movq	%rcx, %rsi
 1586 0dad 4889C7   		movq	%rax, %rdi
 1587 0db0 E8000000 		call	_ZN8UnitTest11TestDetailsC1ERKS0_i@PLT
 1587      00
  85:testI2C.cpp   **** 		CHECK_ARRAY_EQUAL(expected, dstData.data, 16);
 1588              		.loc 3 85 3 discriminator 15
 1589 0db5 488D4590 		leaq	-112(%rbp), %rax
 1590 0db9 488D1500 		leaq	.LC4(%rip), %rdx
 1590      000000
 1591 0dc0 4889C6   		movq	%rax, %rsi
 1592 0dc3 4889DF   		movq	%rbx, %rdi
 1593 0dc6 E8000000 		call	_ZN8UnitTest11TestResults13OnTestFailureERKNS_11TestDetailsEPKc@PLT
 1593      00
 1594              	.LEHE76:
 1595              	.LEHB77:
  85:testI2C.cpp   **** 		CHECK_ARRAY_EQUAL(expected, dstData.data, 16);
 1596              		.loc 3 85 3 discriminator 17
 1597 0dcb E8000000 		call	__cxa_end_catch@PLT
 1597      00
 1598              	.LEHE77:
 1599 0dd0 E967FBFF 		jmp	.L74
 1599      FF
 1600              	.L99:
 1601 0dd5 F30F1EFA 		endbr64
  85:testI2C.cpp   **** 		CHECK_ARRAY_EQUAL(expected, dstData.data, 16);
 1602              		.loc 3 85 3
 1603 0dd9 4889C3   		movq	%rax, %rbx
 1604 0ddc E8000000 		call	__cxa_end_catch@PLT
 1604      00
 1605 0de1 4889D8   		movq	%rbx, %rax
 1606 0de4 4889C7   		movq	%rax, %rdi
 1607              	.LEHB78:
 1608 0de7 E8000000 		call	_Unwind_Resume@PLT
 1608      00
 1609              	.LEHE78:
 1610              	.L100:
 1611 0dec F30F1EFA 		endbr64
  86:testI2C.cpp   **** 		bufDestroy(&dstMask);
 1612              		.loc 3 86 3 is_stmt 1
 1613 0df0 4889C7   		movq	%rax, %rdi
 1614 0df3 E8000000 		call	__cxa_begin_catch@PLT
 1614      00
 1615              	.LEHB79:
 1616 0df8 E8000000 		call	_ZN8UnitTest11CurrentTest7ResultsEv@PLT
 1616      00
  86:testI2C.cpp   **** 		bufDestroy(&dstMask);
 1617              		.loc 3 86 3 is_stmt 0 discriminator 3
 1618 0dfd 488B18   		movq	(%rax), %rbx
 1619 0e00 E8000000 		call	_ZN8UnitTest11CurrentTest7DetailsEv@PLT
 1619      00
  86:testI2C.cpp   **** 		bufDestroy(&dstMask);
 1620              		.loc 3 86 3 discriminator 11
 1621 0e05 488B08   		movq	(%rax), %rcx
 1622 0e08 488D4590 		leaq	-112(%rbp), %rax
 1623 0e0c BA560000 		movl	$86, %edx
 1623      00
 1624 0e11 4889CE   		movq	%rcx, %rsi
 1625 0e14 4889C7   		movq	%rax, %rdi
 1626 0e17 E8000000 		call	_ZN8UnitTest11TestDetailsC1ERKS0_i@PLT
 1626      00
  86:testI2C.cpp   **** 		bufDestroy(&dstMask);
 1627              		.loc 3 86 3 discriminator 15
 1628 0e1c 488D4590 		leaq	-112(%rbp), %rax
 1629 0e20 488D1500 		leaq	.LC9(%rip), %rdx
 1629      000000
 1630 0e27 4889C6   		movq	%rax, %rsi
 1631 0e2a 4889DF   		movq	%rbx, %rdi
 1632 0e2d E8000000 		call	_ZN8UnitTest11TestResults13OnTestFailureERKNS_11TestDetailsEPKc@PLT
 1632      00
 1633              	.LEHE79:
 1634              	.LEHB80:
  86:testI2C.cpp   **** 		bufDestroy(&dstMask);
 1635              		.loc 3 86 3 discriminator 17
 1636 0e32 E8000000 		call	__cxa_end_catch@PLT
 1636      00
 1637              	.LEHE80:
 1638 0e37 E943FBFF 		jmp	.L77
 1638      FF
 1639              	.L101:
 1640 0e3c F30F1EFA 		endbr64
  86:testI2C.cpp   **** 		bufDestroy(&dstMask);
 1641              		.loc 3 86 3
 1642 0e40 4889C3   		movq	%rax, %rbx
 1643 0e43 E8000000 		call	__cxa_end_catch@PLT
 1643      00
 1644 0e48 4889D8   		movq	%rbx, %rax
 1645 0e4b 4889C7   		movq	%rax, %rdi
 1646              	.LEHB81:
 1647 0e4e E8000000 		call	_Unwind_Resume@PLT
 1647      00
 1648              	.LEHE81:
 1649              	.L102:
 1650              		.loc 3 93 1 is_stmt 1
 1651 0e53 488B45E8 		movq	-24(%rbp), %rax
 1652 0e57 64482B04 		subq	%fs:40, %rax
 1652      25280000 
 1652      00
 1653 0e60 7405     		je	.L79
 1654 0e62 E8000000 		call	__stack_chk_fail@PLT
 1654      00
 1655              	.L79:
 1656 0e67 488B5DF8 		movq	-8(%rbp), %rbx
 1657 0e6b C9       		leave
 1658              		.cfi_def_cfa 7, 8
 1659 0e6c C3       		ret
 1660              		.cfi_endproc
 1661              	.LFE1152:
 1662              		.section	.gcc_except_table
 1663              		.align 4
 1664              	.LLSDA1152:
 1665 0088 FF       		.byte	0xff
 1666 0089 9B       		.byte	0x9b
 1667 008a B402     		.uleb128 .LLSDATT1152-.LLSDATTD1152
 1668              	.LLSDATTD1152:
 1669 008c 01       		.byte	0x1
 1670 008d A902     		.uleb128 .LLSDACSE1152-.LLSDACSB1152
 1671              	.LLSDACSB1152:
 1672 008f D901     		.uleb128 .LEHB27-.LFB1152
 1673 0091 05       		.uleb128 .LEHE27-.LEHB27
 1674 0092 00       		.uleb128 0
 1675 0093 00       		.uleb128 0
 1676 0094 E401     		.uleb128 .LEHB28-.LFB1152
 1677 0096 48       		.uleb128 .LEHE28-.LEHB28
 1678 0097 CE0B     		.uleb128 .L80-.LFB1152
 1679 0099 01       		.uleb128 0x1
 1680 009a CB02     		.uleb128 .LEHB29-.LFB1152
 1681 009c 23       		.uleb128 .LEHE29-.LEHB29
 1682 009d 00       		.uleb128 0
 1683 009e 00       		.uleb128 0
 1684 009f F402     		.uleb128 .LEHB30-.LFB1152
 1685 00a1 48       		.uleb128 .LEHE30-.LEHB30
 1686 00a2 B50C     		.uleb128 .L82-.LFB1152
 1687 00a4 01       		.uleb128 0x1
 1688 00a5 D503     		.uleb128 .LEHB31-.LFB1152
 1689 00a7 05       		.uleb128 .LEHE31-.LEHB31
 1690 00a8 00       		.uleb128 0
 1691 00a9 00       		.uleb128 0
 1692 00aa E003     		.uleb128 .LEHB32-.LFB1152
 1693 00ac 48       		.uleb128 .LEHE32-.LEHB32
 1694 00ad 9C0D     		.uleb128 .L84-.LFB1152
 1695 00af 01       		.uleb128 0x1
 1696 00b0 C104     		.uleb128 .LEHB33-.LFB1152
 1697 00b2 05       		.uleb128 .LEHE33-.LEHB33
 1698 00b3 00       		.uleb128 0
 1699 00b4 00       		.uleb128 0
 1700 00b5 CC04     		.uleb128 .LEHB34-.LFB1152
 1701 00b7 48       		.uleb128 .LEHE34-.LEHB34
 1702 00b8 830E     		.uleb128 .L86-.LFB1152
 1703 00ba 01       		.uleb128 0x1
 1704 00bb AD05     		.uleb128 .LEHB35-.LFB1152
 1705 00bd 05       		.uleb128 .LEHE35-.LEHB35
 1706 00be 00       		.uleb128 0
 1707 00bf 00       		.uleb128 0
 1708 00c0 B805     		.uleb128 .LEHB36-.LFB1152
 1709 00c2 48       		.uleb128 .LEHE36-.LEHB36
 1710 00c3 EA0E     		.uleb128 .L88-.LFB1152
 1711 00c5 01       		.uleb128 0x1
 1712 00c6 9E06     		.uleb128 .LEHB37-.LFB1152
 1713 00c8 05       		.uleb128 .LEHE37-.LEHB37
 1714 00c9 00       		.uleb128 0
 1715 00ca 00       		.uleb128 0
 1716 00cb A906     		.uleb128 .LEHB38-.LFB1152
 1717 00cd 48       		.uleb128 .LEHE38-.LEHB38
 1718 00ce D10F     		.uleb128 .L90-.LFB1152
 1719 00d0 01       		.uleb128 0x1
 1720 00d1 8F07     		.uleb128 .LEHB39-.LFB1152
 1721 00d3 05       		.uleb128 .LEHE39-.LEHB39
 1722 00d4 00       		.uleb128 0
 1723 00d5 00       		.uleb128 0
 1724 00d6 9A07     		.uleb128 .LEHB40-.LFB1152
 1725 00d8 48       		.uleb128 .LEHE40-.LEHB40
 1726 00d9 B810     		.uleb128 .L92-.LFB1152
 1727 00db 01       		.uleb128 0x1
 1728 00dc FF07     		.uleb128 .LEHB41-.LFB1152
 1729 00de 05       		.uleb128 .LEHE41-.LEHB41
 1730 00df 00       		.uleb128 0
 1731 00e0 00       		.uleb128 0
 1732 00e1 8A08     		.uleb128 .LEHB42-.LFB1152
 1733 00e3 48       		.uleb128 .LEHE42-.LEHB42
 1734 00e4 9F11     		.uleb128 .L94-.LFB1152
 1735 00e6 01       		.uleb128 0x1
 1736 00e7 E108     		.uleb128 .LEHB43-.LFB1152
 1737 00e9 05       		.uleb128 .LEHE43-.LEHB43
 1738 00ea 00       		.uleb128 0
 1739 00eb 00       		.uleb128 0
 1740 00ec EC08     		.uleb128 .LEHB44-.LFB1152
 1741 00ee 48       		.uleb128 .LEHE44-.LEHB44
 1742 00ef 8612     		.uleb128 .L96-.LFB1152
 1743 00f1 01       		.uleb128 0x1
 1744 00f2 D109     		.uleb128 .LEHB45-.LFB1152
 1745 00f4 05       		.uleb128 .LEHE45-.LEHB45
 1746 00f5 00       		.uleb128 0
 1747 00f6 00       		.uleb128 0
 1748 00f7 DC09     		.uleb128 .LEHB46-.LFB1152
 1749 00f9 48       		.uleb128 .LEHE46-.LEHB46
 1750 00fa ED12     		.uleb128 .L98-.LFB1152
 1751 00fc 01       		.uleb128 0x1
 1752 00fd A40A     		.uleb128 .LEHB47-.LFB1152
 1753 00ff 43       		.uleb128 .LEHE47-.LEHB47
 1754 0100 D413     		.uleb128 .L100-.LFB1152
 1755 0102 01       		.uleb128 0x1
 1756 0103 F10A     		.uleb128 .LEHB48-.LFB1152
 1757 0105 41       		.uleb128 .LEHE48-.LEHB48
 1758 0106 00       		.uleb128 0
 1759 0107 00       		.uleb128 0
 1760 0108 DA0B     		.uleb128 .LEHB49-.LFB1152
 1761 010a 3A       		.uleb128 .LEHE49-.LEHB49
 1762 010b 9E0C     		.uleb128 .L81-.LFB1152
 1763 010d 00       		.uleb128 0
 1764 010e 940C     		.uleb128 .LEHB50-.LFB1152
 1765 0110 05       		.uleb128 .LEHE50-.LEHB50
 1766 0111 00       		.uleb128 0
 1767 0112 00       		.uleb128 0
 1768 0113 B00C     		.uleb128 .LEHB51-.LFB1152
 1769 0115 05       		.uleb128 .LEHE51-.LEHB51
 1770 0116 00       		.uleb128 0
 1771 0117 00       		.uleb128 0
 1772 0118 C10C     		.uleb128 .LEHB52-.LFB1152
 1773 011a 3A       		.uleb128 .LEHE52-.LEHB52
 1774 011b 850D     		.uleb128 .L83-.LFB1152
 1775 011d 00       		.uleb128 0
 1776 011e FB0C     		.uleb128 .LEHB53-.LFB1152
 1777 0120 05       		.uleb128 .LEHE53-.LEHB53
 1778 0121 00       		.uleb128 0
 1779 0122 00       		.uleb128 0
 1780 0123 970D     		.uleb128 .LEHB54-.LFB1152
 1781 0125 05       		.uleb128 .LEHE54-.LEHB54
 1782 0126 00       		.uleb128 0
 1783 0127 00       		.uleb128 0
 1784 0128 A80D     		.uleb128 .LEHB55-.LFB1152
 1785 012a 3A       		.uleb128 .LEHE55-.LEHB55
 1786 012b EC0D     		.uleb128 .L85-.LFB1152
 1787 012d 00       		.uleb128 0
 1788 012e E20D     		.uleb128 .LEHB56-.LFB1152
 1789 0130 05       		.uleb128 .LEHE56-.LEHB56
 1790 0131 00       		.uleb128 0
 1791 0132 00       		.uleb128 0
 1792 0133 FE0D     		.uleb128 .LEHB57-.LFB1152
 1793 0135 05       		.uleb128 .LEHE57-.LEHB57
 1794 0136 00       		.uleb128 0
 1795 0137 00       		.uleb128 0
 1796 0138 8F0E     		.uleb128 .LEHB58-.LFB1152
 1797 013a 3A       		.uleb128 .LEHE58-.LEHB58
 1798 013b D30E     		.uleb128 .L87-.LFB1152
 1799 013d 00       		.uleb128 0
 1800 013e C90E     		.uleb128 .LEHB59-.LFB1152
 1801 0140 05       		.uleb128 .LEHE59-.LEHB59
 1802 0141 00       		.uleb128 0
 1803 0142 00       		.uleb128 0
 1804 0143 E50E     		.uleb128 .LEHB60-.LFB1152
 1805 0145 05       		.uleb128 .LEHE60-.LEHB60
 1806 0146 00       		.uleb128 0
 1807 0147 00       		.uleb128 0
 1808 0148 F60E     		.uleb128 .LEHB61-.LFB1152
 1809 014a 3A       		.uleb128 .LEHE61-.LEHB61
 1810 014b BA0F     		.uleb128 .L89-.LFB1152
 1811 014d 00       		.uleb128 0
 1812 014e B00F     		.uleb128 .LEHB62-.LFB1152
 1813 0150 05       		.uleb128 .LEHE62-.LEHB62
 1814 0151 00       		.uleb128 0
 1815 0152 00       		.uleb128 0
 1816 0153 CC0F     		.uleb128 .LEHB63-.LFB1152
 1817 0155 05       		.uleb128 .LEHE63-.LEHB63
 1818 0156 00       		.uleb128 0
 1819 0157 00       		.uleb128 0
 1820 0158 DD0F     		.uleb128 .LEHB64-.LFB1152
 1821 015a 3A       		.uleb128 .LEHE64-.LEHB64
 1822 015b A110     		.uleb128 .L91-.LFB1152
 1823 015d 00       		.uleb128 0
 1824 015e 9710     		.uleb128 .LEHB65-.LFB1152
 1825 0160 05       		.uleb128 .LEHE65-.LEHB65
 1826 0161 00       		.uleb128 0
 1827 0162 00       		.uleb128 0
 1828 0163 B310     		.uleb128 .LEHB66-.LFB1152
 1829 0165 05       		.uleb128 .LEHE66-.LEHB66
 1830 0166 00       		.uleb128 0
 1831 0167 00       		.uleb128 0
 1832 0168 C410     		.uleb128 .LEHB67-.LFB1152
 1833 016a 3A       		.uleb128 .LEHE67-.LEHB67
 1834 016b 8811     		.uleb128 .L93-.LFB1152
 1835 016d 00       		.uleb128 0
 1836 016e FE10     		.uleb128 .LEHB68-.LFB1152
 1837 0170 05       		.uleb128 .LEHE68-.LEHB68
 1838 0171 00       		.uleb128 0
 1839 0172 00       		.uleb128 0
 1840 0173 9A11     		.uleb128 .LEHB69-.LFB1152
 1841 0175 05       		.uleb128 .LEHE69-.LEHB69
 1842 0176 00       		.uleb128 0
 1843 0177 00       		.uleb128 0
 1844 0178 AB11     		.uleb128 .LEHB70-.LFB1152
 1845 017a 3A       		.uleb128 .LEHE70-.LEHB70
 1846 017b EF11     		.uleb128 .L95-.LFB1152
 1847 017d 00       		.uleb128 0
 1848 017e E511     		.uleb128 .LEHB71-.LFB1152
 1849 0180 05       		.uleb128 .LEHE71-.LEHB71
 1850 0181 00       		.uleb128 0
 1851 0182 00       		.uleb128 0
 1852 0183 8112     		.uleb128 .LEHB72-.LFB1152
 1853 0185 05       		.uleb128 .LEHE72-.LEHB72
 1854 0186 00       		.uleb128 0
 1855 0187 00       		.uleb128 0
 1856 0188 9212     		.uleb128 .LEHB73-.LFB1152
 1857 018a 3A       		.uleb128 .LEHE73-.LEHB73
 1858 018b D612     		.uleb128 .L97-.LFB1152
 1859 018d 00       		.uleb128 0
 1860 018e CC12     		.uleb128 .LEHB74-.LFB1152
 1861 0190 05       		.uleb128 .LEHE74-.LEHB74
 1862 0191 00       		.uleb128 0
 1863 0192 00       		.uleb128 0
 1864 0193 E812     		.uleb128 .LEHB75-.LFB1152
 1865 0195 05       		.uleb128 .LEHE75-.LEHB75
 1866 0196 00       		.uleb128 0
 1867 0197 00       		.uleb128 0
 1868 0198 F912     		.uleb128 .LEHB76-.LFB1152
 1869 019a 3A       		.uleb128 .LEHE76-.LEHB76
 1870 019b BD13     		.uleb128 .L99-.LFB1152
 1871 019d 00       		.uleb128 0
 1872 019e B313     		.uleb128 .LEHB77-.LFB1152
 1873 01a0 05       		.uleb128 .LEHE77-.LEHB77
 1874 01a1 00       		.uleb128 0
 1875 01a2 00       		.uleb128 0
 1876 01a3 CF13     		.uleb128 .LEHB78-.LFB1152
 1877 01a5 05       		.uleb128 .LEHE78-.LEHB78
 1878 01a6 00       		.uleb128 0
 1879 01a7 00       		.uleb128 0
 1880 01a8 E013     		.uleb128 .LEHB79-.LFB1152
 1881 01aa 3A       		.uleb128 .LEHE79-.LEHB79
 1882 01ab A414     		.uleb128 .L101-.LFB1152
 1883 01ad 00       		.uleb128 0
 1884 01ae 9A14     		.uleb128 .LEHB80-.LFB1152
 1885 01b0 05       		.uleb128 .LEHE80-.LEHB80
 1886 01b1 00       		.uleb128 0
 1887 01b2 00       		.uleb128 0
 1888 01b3 B614     		.uleb128 .LEHB81-.LFB1152
 1889 01b5 05       		.uleb128 .LEHE81-.LEHB81
 1890 01b6 00       		.uleb128 0
 1891 01b7 00       		.uleb128 0
 1892              	.LLSDACSE1152:
 1893 01b8 01       		.byte	0x1
 1894 01b9 00       		.byte	0
 1895 01ba 0000     		.align 4
 1896 01bc 00000000 		.long	0
 1897              	
 1898              	.LLSDATT1152:
 1899              		.text
 1901              		.section	.rodata
 1902              	.LC10:
 1903 01c9 4932435F 		.string	"I2C_testWPRNoInit"
 1903      74657374 
 1903      5750524E 
 1903      6F496E69 
 1903      7400
 1904              		.section	.text._ZN21TestI2C_testWPRNoInitC2Ev,"axG",@progbits,_ZN21TestI2C_testWPRNoInitC5Ev,comda
 1905              		.align 2
 1906              		.weak	_ZN21TestI2C_testWPRNoInitC2Ev
 1908              	_ZN21TestI2C_testWPRNoInitC2Ev:
 1909              	.LFB1154:
  94:testI2C.cpp   **** 
  95:testI2C.cpp   **** TEST(I2C_testWPRNoInit) {
 1910              		.loc 3 95 1
 1911              		.cfi_startproc
 1912 0000 F30F1EFA 		endbr64
 1913 0004 55       		pushq	%rbp
 1914              		.cfi_def_cfa_offset 16
 1915              		.cfi_offset 6, -16
 1916 0005 4889E5   		movq	%rsp, %rbp
 1917              		.cfi_def_cfa_register 6
 1918 0008 53       		pushq	%rbx
 1919 0009 4883EC18 		subq	$24, %rsp
 1920              		.cfi_offset 3, -24
 1921 000d 48897DE8 		movq	%rdi, -24(%rbp)
 1922              	.LBB6:
 1923              		.loc 3 95 1
 1924 0011 488B5DE8 		movq	-24(%rbp), %rbx
 1925 0015 E8000000 		call	_ZN13UnitTestSuite12GetSuiteNameEv
 1925      00
 1926 001a 4889C2   		movq	%rax, %rdx
 1927 001d 41B85F00 		movl	$95, %r8d
 1927      0000
 1928 0023 488D0500 		leaq	.LC1(%rip), %rax
 1928      000000
 1929 002a 4889C1   		movq	%rax, %rcx
 1930 002d 488D0500 		leaq	.LC10(%rip), %rax
 1930      000000
 1931 0034 4889C6   		movq	%rax, %rsi
 1932 0037 4889DF   		movq	%rbx, %rdi
 1933 003a E8000000 		call	_ZN8UnitTest4TestC2EPKcS2_S2_i@PLT
 1933      00
 1934 003f 488D1500 		leaq	16+_ZTV21TestI2C_testWPRNoInit(%rip), %rdx
 1934      000000
 1935 0046 488B45E8 		movq	-24(%rbp), %rax
 1936 004a 488910   		movq	%rdx, (%rax)
 1937              	.LBE6:
 1938 004d 90       		nop
 1939 004e 488B5DF8 		movq	-8(%rbp), %rbx
 1940 0052 C9       		leave
 1941              		.cfi_def_cfa 7, 8
 1942 0053 C3       		ret
 1943              		.cfi_endproc
 1944              	.LFE1154:
 1946              		.weak	_ZN21TestI2C_testWPRNoInitC1Ev
 1947              		.set	_ZN21TestI2C_testWPRNoInitC1Ev,_ZN21TestI2C_testWPRNoInitC2Ev
 1948              		.globl	testI2C_testWPRNoInitInstance
 1949              		.bss
 1950 0079 00000000 		.align 32
 1950      000000
 1953              	testI2C_testWPRNoInitInstance:
 1954 0080 00000000 		.zero	56
 1954      00000000 
 1954      00000000 
 1954      00000000 
 1954      00000000 
 1955              		.globl	adderI2C_testWPRNoInit
 1958              	adderI2C_testWPRNoInit:
 1959 00b8 00       		.zero	1
 1960              		.section	.rodata
 1961 01db 00000000 		.align 8
 1961      00
 1962              	.LC11:
 1963 01e0 556E6861 		.string	"Unhandled exception in CHECK_EQUAL(I2C_NOT_INITIALISED, iStatus)"
 1963      6E646C65 
 1963      64206578 
 1963      63657074 
 1963      696F6E20 
 1964              		.text
 1965 0e6d 90       		.align 2
 1966              		.globl	_ZNK21TestI2C_testWPRNoInit7RunImplEv
 1968              	_ZNK21TestI2C_testWPRNoInit7RunImplEv:
 1969              	.LFB1156:
 1970              		.loc 3 95 25
 1971              		.cfi_startproc
 1972              		.cfi_personality 0x9b,DW.ref.__gxx_personality_v0
 1973              		.cfi_lsda 0x1b,.LLSDA1156
 1974 0e6e F30F1EFA 		endbr64
 1975 0e72 55       		pushq	%rbp
 1976              		.cfi_def_cfa_offset 16
 1977              		.cfi_offset 6, -16
 1978 0e73 4889E5   		movq	%rsp, %rbp
 1979              		.cfi_def_cfa_register 6
 1980 0e76 53       		pushq	%rbx
 1981 0e77 4883EC78 		subq	$120, %rsp
 1982              		.cfi_offset 3, -24
 1983 0e7b 48897D88 		movq	%rdi, -120(%rbp)
 1984              		.loc 3 95 25
 1985 0e7f 64488B04 		movq	%fs:40, %rax
 1985      25280000 
 1985      00
 1986 0e88 488945E8 		movq	%rax, -24(%rbp)
 1987 0e8c 31C0     		xorl	%eax, %eax
  96:testI2C.cpp   **** 	Buffer i2cBuffer;
  97:testI2C.cpp   **** 	I2CStatus iStatus;
  98:testI2C.cpp   **** 	BufferStatus bStatus;
  99:testI2C.cpp   **** 	bStatus = bufInitialise(&i2cBuffer, 8, 0x00, NULL);
 1988              		.loc 3 99 25
 1989 0e8e 488D45A0 		leaq	-96(%rbp), %rax
 1990 0e92 B9000000 		movl	$0, %ecx
 1990      00
 1991 0e97 BA000000 		movl	$0, %edx
 1991      00
 1992 0e9c BE080000 		movl	$8, %esi
 1992      00
 1993 0ea1 4889C7   		movq	%rax, %rdi
 1994              	.LEHB82:
 1995 0ea4 E8000000 		call	bufInitialise@PLT
 1995      00
 1996              	.LEHE82:
 1997              		.loc 3 99 10
 1998 0ea9 894598   		movl	%eax, -104(%rbp)
 1999              	.LEHB83:
 100:testI2C.cpp   **** 	CHECK_EQUAL(BUF_SUCCESS, bStatus);
 2000              		.loc 3 100 2
 2001 0eac E8000000 		call	_ZN8UnitTest11CurrentTest7DetailsEv@PLT
 2001      00
 2002 0eb1 488B08   		movq	(%rax), %rcx
 2003 0eb4 488D45C0 		leaq	-64(%rbp), %rax
 2004 0eb8 BA640000 		movl	$100, %edx
 2004      00
 2005 0ebd 4889CE   		movq	%rcx, %rsi
 2006 0ec0 4889C7   		movq	%rax, %rdi
 2007 0ec3 E8000000 		call	_ZN8UnitTest11TestDetailsC1ERKS0_i@PLT
 2007      00
 2008              		.loc 3 100 2 is_stmt 0 discriminator 4
 2009 0ec8 C7459C00 		movl	$0, -100(%rbp)
 2009      000000
 2010 0ecf E8000000 		call	_ZN8UnitTest11CurrentTest7ResultsEv@PLT
 2010      00
 2011 0ed4 488B00   		movq	(%rax), %rax
 2012 0ed7 488D4DC0 		leaq	-64(%rbp), %rcx
 2013 0edb 488D5598 		leaq	-104(%rbp), %rdx
 2014 0edf 488D759C 		leaq	-100(%rbp), %rsi
 2015 0ee3 4889C7   		movq	%rax, %rdi
 2016 0ee6 E8000000 		call	_ZN8UnitTest10CheckEqualI12BufferStatusS1_EEvRNS_11TestResultsERKT_RKT0_RKNS_11TestDetailsE
 2016      00
 2017              	.LEHE83:
 2018              	.L106:
 101:testI2C.cpp   **** 	iStatus = i2cWritePromRecords(&i2cBuffer, NULL, NULL, NULL);
 2019              		.loc 3 101 31 is_stmt 1
 2020 0eeb 488D45A0 		leaq	-96(%rbp), %rax
 2021 0eef B9000000 		movl	$0, %ecx
 2021      00
 2022 0ef4 BA000000 		movl	$0, %edx
 2022      00
 2023 0ef9 BE000000 		movl	$0, %esi
 2023      00
 2024 0efe 4889C7   		movq	%rax, %rdi
 2025              	.LEHB84:
 2026 0f01 E8000000 		call	i2cWritePromRecords@PLT
 2026      00
 2027              	.LEHE84:
 2028              		.loc 3 101 10
 2029 0f06 894594   		movl	%eax, -108(%rbp)
 2030              	.LEHB85:
 102:testI2C.cpp   **** 	CHECK_EQUAL(I2C_NOT_INITIALISED, iStatus);
 2031              		.loc 3 102 2
 2032 0f09 E8000000 		call	_ZN8UnitTest11CurrentTest7DetailsEv@PLT
 2032      00
 2033 0f0e 488B08   		movq	(%rax), %rcx
 2034 0f11 488D45C0 		leaq	-64(%rbp), %rax
 2035 0f15 BA660000 		movl	$102, %edx
 2035      00
 2036 0f1a 4889CE   		movq	%rcx, %rsi
 2037 0f1d 4889C7   		movq	%rax, %rdi
 2038 0f20 E8000000 		call	_ZN8UnitTest11TestDetailsC1ERKS0_i@PLT
 2038      00
 2039              		.loc 3 102 2 is_stmt 0 discriminator 4
 2040 0f25 C7459C02 		movl	$2, -100(%rbp)
 2040      000000
 2041 0f2c E8000000 		call	_ZN8UnitTest11CurrentTest7ResultsEv@PLT
 2041      00
 2042 0f31 488B00   		movq	(%rax), %rax
 2043 0f34 488D4DC0 		leaq	-64(%rbp), %rcx
 2044 0f38 488D5594 		leaq	-108(%rbp), %rdx
 2045 0f3c 488D759C 		leaq	-100(%rbp), %rsi
 2046 0f40 4889C7   		movq	%rax, %rdi
 2047 0f43 E8000000 		call	_ZN8UnitTest10CheckEqualI9I2CStatusS1_EEvRNS_11TestResultsERKT_RKT0_RKNS_11TestDetailsE
 2047      00
 2048              	.LEHE85:
 2049              	.L109:
 103:testI2C.cpp   **** 	bufDestroy(&i2cBuffer);
 2050              		.loc 3 103 12 is_stmt 1
 2051 0f48 488D45A0 		leaq	-96(%rbp), %rax
 2052 0f4c 4889C7   		movq	%rax, %rdi
 2053              	.LEHB86:
 2054 0f4f E8000000 		call	bufDestroy@PLT
 2054      00
 2055              	.LEHE86:
 104:testI2C.cpp   **** }
 2056              		.loc 3 104 1
 2057 0f54 90       		nop
 2058 0f55 488B45E8 		movq	-24(%rbp), %rax
 2059 0f59 64482B04 		subq	%fs:40, %rax
 2059      25280000 
 2059      00
 2060 0f62 0F84D800 		je	.L111
 2060      0000
 2061 0f68 E9CE0000 		jmp	.L116
 2061      00
 2062              	.L112:
 2063 0f6d F30F1EFA 		endbr64
 100:testI2C.cpp   **** 	iStatus = i2cWritePromRecords(&i2cBuffer, NULL, NULL, NULL);
 2064              		.loc 3 100 2
 2065 0f71 4889C7   		movq	%rax, %rdi
 2066 0f74 E8000000 		call	__cxa_begin_catch@PLT
 2066      00
 2067              	.LEHB87:
 2068 0f79 E8000000 		call	_ZN8UnitTest11CurrentTest7ResultsEv@PLT
 2068      00
 100:testI2C.cpp   **** 	iStatus = i2cWritePromRecords(&i2cBuffer, NULL, NULL, NULL);
 2069              		.loc 3 100 2 is_stmt 0 discriminator 3
 2070 0f7e 488B18   		movq	(%rax), %rbx
 2071 0f81 E8000000 		call	_ZN8UnitTest11CurrentTest7DetailsEv@PLT
 2071      00
 100:testI2C.cpp   **** 	iStatus = i2cWritePromRecords(&i2cBuffer, NULL, NULL, NULL);
 2072              		.loc 3 100 2 discriminator 11
 2073 0f86 488B08   		movq	(%rax), %rcx
 2074 0f89 488D45C0 		leaq	-64(%rbp), %rax
 2075 0f8d BA640000 		movl	$100, %edx
 2075      00
 2076 0f92 4889CE   		movq	%rcx, %rsi
 2077 0f95 4889C7   		movq	%rax, %rdi
 2078 0f98 E8000000 		call	_ZN8UnitTest11TestDetailsC1ERKS0_i@PLT
 2078      00
 100:testI2C.cpp   **** 	iStatus = i2cWritePromRecords(&i2cBuffer, NULL, NULL, NULL);
 2079              		.loc 3 100 2 discriminator 15
 2080 0f9d 488D45C0 		leaq	-64(%rbp), %rax
 2081 0fa1 488D1500 		leaq	.LC3(%rip), %rdx
 2081      000000
 2082 0fa8 4889C6   		movq	%rax, %rsi
 2083 0fab 4889DF   		movq	%rbx, %rdi
 2084 0fae E8000000 		call	_ZN8UnitTest11TestResults13OnTestFailureERKNS_11TestDetailsEPKc@PLT
 2084      00
 2085              	.LEHE87:
 2086              	.LEHB88:
 100:testI2C.cpp   **** 	iStatus = i2cWritePromRecords(&i2cBuffer, NULL, NULL, NULL);
 2087              		.loc 3 100 2 discriminator 17
 2088 0fb3 E8000000 		call	__cxa_end_catch@PLT
 2088      00
 2089              	.LEHE88:
 2090 0fb8 E92EFFFF 		jmp	.L106
 2090      FF
 2091              	.L113:
 2092 0fbd F30F1EFA 		endbr64
 100:testI2C.cpp   **** 	iStatus = i2cWritePromRecords(&i2cBuffer, NULL, NULL, NULL);
 2093              		.loc 3 100 2
 2094 0fc1 4889C3   		movq	%rax, %rbx
 2095 0fc4 E8000000 		call	__cxa_end_catch@PLT
 2095      00
 2096 0fc9 4889D8   		movq	%rbx, %rax
 2097 0fcc 4889C7   		movq	%rax, %rdi
 2098              	.LEHB89:
 2099 0fcf E8000000 		call	_Unwind_Resume@PLT
 2099      00
 2100              	.LEHE89:
 2101              	.L114:
 2102 0fd4 F30F1EFA 		endbr64
 102:testI2C.cpp   **** 	bufDestroy(&i2cBuffer);
 2103              		.loc 3 102 2 is_stmt 1
 2104 0fd8 4889C7   		movq	%rax, %rdi
 2105 0fdb E8000000 		call	__cxa_begin_catch@PLT
 2105      00
 2106              	.LEHB90:
 2107 0fe0 E8000000 		call	_ZN8UnitTest11CurrentTest7ResultsEv@PLT
 2107      00
 102:testI2C.cpp   **** 	bufDestroy(&i2cBuffer);
 2108              		.loc 3 102 2 is_stmt 0 discriminator 3
 2109 0fe5 488B18   		movq	(%rax), %rbx
 2110 0fe8 E8000000 		call	_ZN8UnitTest11CurrentTest7DetailsEv@PLT
 2110      00
 102:testI2C.cpp   **** 	bufDestroy(&i2cBuffer);
 2111              		.loc 3 102 2 discriminator 11
 2112 0fed 488B08   		movq	(%rax), %rcx
 2113 0ff0 488D45C0 		leaq	-64(%rbp), %rax
 2114 0ff4 BA660000 		movl	$102, %edx
 2114      00
 2115 0ff9 4889CE   		movq	%rcx, %rsi
 2116 0ffc 4889C7   		movq	%rax, %rdi
 2117 0fff E8000000 		call	_ZN8UnitTest11TestDetailsC1ERKS0_i@PLT
 2117      00
 102:testI2C.cpp   **** 	bufDestroy(&i2cBuffer);
 2118              		.loc 3 102 2 discriminator 15
 2119 1004 488D45C0 		leaq	-64(%rbp), %rax
 2120 1008 488D1500 		leaq	.LC11(%rip), %rdx
 2120      000000
 2121 100f 4889C6   		movq	%rax, %rsi
 2122 1012 4889DF   		movq	%rbx, %rdi
 2123 1015 E8000000 		call	_ZN8UnitTest11TestResults13OnTestFailureERKNS_11TestDetailsEPKc@PLT
 2123      00
 2124              	.LEHE90:
 2125              	.LEHB91:
 102:testI2C.cpp   **** 	bufDestroy(&i2cBuffer);
 2126              		.loc 3 102 2 discriminator 17
 2127 101a E8000000 		call	__cxa_end_catch@PLT
 2127      00
 2128              	.LEHE91:
 2129 101f E924FFFF 		jmp	.L109
 2129      FF
 2130              	.L115:
 2131 1024 F30F1EFA 		endbr64
 102:testI2C.cpp   **** 	bufDestroy(&i2cBuffer);
 2132              		.loc 3 102 2
 2133 1028 4889C3   		movq	%rax, %rbx
 2134 102b E8000000 		call	__cxa_end_catch@PLT
 2134      00
 2135 1030 4889D8   		movq	%rbx, %rax
 2136 1033 4889C7   		movq	%rax, %rdi
 2137              	.LEHB92:
 2138 1036 E8000000 		call	_Unwind_Resume@PLT
 2138      00
 2139              	.LEHE92:
 2140              	.L116:
 2141              		.loc 3 104 1 is_stmt 1
 2142 103b E8000000 		call	__stack_chk_fail@PLT
 2142      00
 2143              	.L111:
 2144 1040 488B5DF8 		movq	-8(%rbp), %rbx
 2145 1044 C9       		leave
 2146              		.cfi_def_cfa 7, 8
 2147 1045 C3       		ret
 2148              		.cfi_endproc
 2149              	.LFE1156:
 2150              		.section	.gcc_except_table
 2151              		.align 4
 2152              	.LLSDA1156:
 2153 01c0 FF       		.byte	0xff
 2154 01c1 9B       		.byte	0x9b
 2155 01c2 41       		.uleb128 .LLSDATT1156-.LLSDATTD1156
 2156              	.LLSDATTD1156:
 2157 01c3 01       		.byte	0x1
 2158 01c4 39       		.uleb128 .LLSDACSE1156-.LLSDACSB1156
 2159              	.LLSDACSB1156:
 2160 01c5 36       		.uleb128 .LEHB82-.LFB1156
 2161 01c6 05       		.uleb128 .LEHE82-.LEHB82
 2162 01c7 00       		.uleb128 0
 2163 01c8 00       		.uleb128 0
 2164 01c9 3E       		.uleb128 .LEHB83-.LFB1156
 2165 01ca 3F       		.uleb128 .LEHE83-.LEHB83
 2166 01cb FF01     		.uleb128 .L112-.LFB1156
 2167 01cd 01       		.uleb128 0x1
 2168 01ce 9301     		.uleb128 .LEHB84-.LFB1156
 2169 01d0 05       		.uleb128 .LEHE84-.LEHB84
 2170 01d1 00       		.uleb128 0
 2171 01d2 00       		.uleb128 0
 2172 01d3 9B01     		.uleb128 .LEHB85-.LFB1156
 2173 01d5 3F       		.uleb128 .LEHE85-.LEHB85
 2174 01d6 E602     		.uleb128 .L114-.LFB1156
 2175 01d8 01       		.uleb128 0x1
 2176 01d9 E101     		.uleb128 .LEHB86-.LFB1156
 2177 01db 05       		.uleb128 .LEHE86-.LEHB86
 2178 01dc 00       		.uleb128 0
 2179 01dd 00       		.uleb128 0
 2180 01de 8B02     		.uleb128 .LEHB87-.LFB1156
 2181 01e0 3A       		.uleb128 .LEHE87-.LEHB87
 2182 01e1 CF02     		.uleb128 .L113-.LFB1156
 2183 01e3 00       		.uleb128 0
 2184 01e4 C502     		.uleb128 .LEHB88-.LFB1156
 2185 01e6 05       		.uleb128 .LEHE88-.LEHB88
 2186 01e7 00       		.uleb128 0
 2187 01e8 00       		.uleb128 0
 2188 01e9 E102     		.uleb128 .LEHB89-.LFB1156
 2189 01eb 05       		.uleb128 .LEHE89-.LEHB89
 2190 01ec 00       		.uleb128 0
 2191 01ed 00       		.uleb128 0
 2192 01ee F202     		.uleb128 .LEHB90-.LFB1156
 2193 01f0 3A       		.uleb128 .LEHE90-.LEHB90
 2194 01f1 B603     		.uleb128 .L115-.LFB1156
 2195 01f3 00       		.uleb128 0
 2196 01f4 AC03     		.uleb128 .LEHB91-.LFB1156
 2197 01f6 05       		.uleb128 .LEHE91-.LEHB91
 2198 01f7 00       		.uleb128 0
 2199 01f8 00       		.uleb128 0
 2200 01f9 C803     		.uleb128 .LEHB92-.LFB1156
 2201 01fb 05       		.uleb128 .LEHE92-.LEHB92
 2202 01fc 00       		.uleb128 0
 2203 01fd 00       		.uleb128 0
 2204              	.LLSDACSE1156:
 2205 01fe 01       		.byte	0x1
 2206 01ff 00       		.byte	0
 2207              		.align 4
 2208 0200 00000000 		.long	0
 2209              	
 2210              	.LLSDATT1156:
 2211              		.text
 2213              		.section	.rodata
 2214              	.LC12:
 2215 0221 4932435F 		.string	"I2C_testFinaliseNoInit"
 2215      74657374 
 2215      46696E61 
 2215      6C697365 
 2215      4E6F496E 
 2216              		.section	.text._ZN26TestI2C_testFinaliseNoInitC2Ev,"axG",@progbits,_ZN26TestI2C_testFinaliseNoInit
 2217              		.align 2
 2218              		.weak	_ZN26TestI2C_testFinaliseNoInitC2Ev
 2220              	_ZN26TestI2C_testFinaliseNoInitC2Ev:
 2221              	.LFB1158:
 105:testI2C.cpp   **** 
 106:testI2C.cpp   **** TEST(I2C_testFinaliseNoInit) {
 2222              		.loc 3 106 1
 2223              		.cfi_startproc
 2224 0000 F30F1EFA 		endbr64
 2225 0004 55       		pushq	%rbp
 2226              		.cfi_def_cfa_offset 16
 2227              		.cfi_offset 6, -16
 2228 0005 4889E5   		movq	%rsp, %rbp
 2229              		.cfi_def_cfa_register 6
 2230 0008 53       		pushq	%rbx
 2231 0009 4883EC18 		subq	$24, %rsp
 2232              		.cfi_offset 3, -24
 2233 000d 48897DE8 		movq	%rdi, -24(%rbp)
 2234              	.LBB7:
 2235              		.loc 3 106 1
 2236 0011 488B5DE8 		movq	-24(%rbp), %rbx
 2237 0015 E8000000 		call	_ZN13UnitTestSuite12GetSuiteNameEv
 2237      00
 2238 001a 4889C2   		movq	%rax, %rdx
 2239 001d 41B86A00 		movl	$106, %r8d
 2239      0000
 2240 0023 488D0500 		leaq	.LC1(%rip), %rax
 2240      000000
 2241 002a 4889C1   		movq	%rax, %rcx
 2242 002d 488D0500 		leaq	.LC12(%rip), %rax
 2242      000000
 2243 0034 4889C6   		movq	%rax, %rsi
 2244 0037 4889DF   		movq	%rbx, %rdi
 2245 003a E8000000 		call	_ZN8UnitTest4TestC2EPKcS2_S2_i@PLT
 2245      00
 2246 003f 488D1500 		leaq	16+_ZTV26TestI2C_testFinaliseNoInit(%rip), %rdx
 2246      000000
 2247 0046 488B45E8 		movq	-24(%rbp), %rax
 2248 004a 488910   		movq	%rdx, (%rax)
 2249              	.LBE7:
 2250 004d 90       		nop
 2251 004e 488B5DF8 		movq	-8(%rbp), %rbx
 2252 0052 C9       		leave
 2253              		.cfi_def_cfa 7, 8
 2254 0053 C3       		ret
 2255              		.cfi_endproc
 2256              	.LFE1158:
 2258              		.weak	_ZN26TestI2C_testFinaliseNoInitC1Ev
 2259              		.set	_ZN26TestI2C_testFinaliseNoInitC1Ev,_ZN26TestI2C_testFinaliseNoInitC2Ev
 2260              		.globl	testI2C_testFinaliseNoInitInstance
 2261              		.bss
 2262 00b9 00000000 		.align 32
 2262      000000
 2265              	testI2C_testFinaliseNoInitInstance:
 2266 00c0 00000000 		.zero	56
 2266      00000000 
 2266      00000000 
 2266      00000000 
 2266      00000000 
 2267              		.globl	adderI2C_testFinaliseNoInit
 2270              	adderI2C_testFinaliseNoInit:
 2271 00f8 00       		.zero	1
 2272              		.text
 2273              		.align 2
 2274              		.globl	_ZNK26TestI2C_testFinaliseNoInit7RunImplEv
 2276              	_ZNK26TestI2C_testFinaliseNoInit7RunImplEv:
 2277              	.LFB1160:
 2278              		.loc 3 106 30
 2279              		.cfi_startproc
 2280              		.cfi_personality 0x9b,DW.ref.__gxx_personality_v0
 2281              		.cfi_lsda 0x1b,.LLSDA1160
 2282 1046 F30F1EFA 		endbr64
 2283 104a 55       		pushq	%rbp
 2284              		.cfi_def_cfa_offset 16
 2285              		.cfi_offset 6, -16
 2286 104b 4889E5   		movq	%rsp, %rbp
 2287              		.cfi_def_cfa_register 6
 2288 104e 53       		pushq	%rbx
 2289 104f 4883EC78 		subq	$120, %rsp
 2290              		.cfi_offset 3, -24
 2291 1053 48897D88 		movq	%rdi, -120(%rbp)
 2292              		.loc 3 106 30
 2293 1057 64488B04 		movq	%fs:40, %rax
 2293      25280000 
 2293      00
 2294 1060 488945E8 		movq	%rax, -24(%rbp)
 2295 1064 31C0     		xorl	%eax, %eax
 107:testI2C.cpp   **** 	Buffer buf;
 108:testI2C.cpp   **** 	I2CStatus iStatus;
 109:testI2C.cpp   **** 	BufferStatus bStatus;
 110:testI2C.cpp   **** 	bStatus = bufInitialise(&buf, 8, 0x00, NULL);
 2296              		.loc 3 110 25
 2297 1066 488D45A0 		leaq	-96(%rbp), %rax
 2298 106a B9000000 		movl	$0, %ecx
 2298      00
 2299 106f BA000000 		movl	$0, %edx
 2299      00
 2300 1074 BE080000 		movl	$8, %esi
 2300      00
 2301 1079 4889C7   		movq	%rax, %rdi
 2302              	.LEHB93:
 2303 107c E8000000 		call	bufInitialise@PLT
 2303      00
 2304              	.LEHE93:
 2305              		.loc 3 110 10
 2306 1081 894598   		movl	%eax, -104(%rbp)
 2307              	.LEHB94:
 111:testI2C.cpp   **** 	CHECK_EQUAL(BUF_SUCCESS, bStatus);
 2308              		.loc 3 111 2
 2309 1084 E8000000 		call	_ZN8UnitTest11CurrentTest7DetailsEv@PLT
 2309      00
 2310 1089 488B08   		movq	(%rax), %rcx
 2311 108c 488D45C0 		leaq	-64(%rbp), %rax
 2312 1090 BA6F0000 		movl	$111, %edx
 2312      00
 2313 1095 4889CE   		movq	%rcx, %rsi
 2314 1098 4889C7   		movq	%rax, %rdi
 2315 109b E8000000 		call	_ZN8UnitTest11TestDetailsC1ERKS0_i@PLT
 2315      00
 2316              		.loc 3 111 2 is_stmt 0 discriminator 4
 2317 10a0 C7459C00 		movl	$0, -100(%rbp)
 2317      000000
 2318 10a7 E8000000 		call	_ZN8UnitTest11CurrentTest7ResultsEv@PLT
 2318      00
 2319 10ac 488B00   		movq	(%rax), %rax
 2320 10af 488D4DC0 		leaq	-64(%rbp), %rcx
 2321 10b3 488D5598 		leaq	-104(%rbp), %rdx
 2322 10b7 488D759C 		leaq	-100(%rbp), %rsi
 2323 10bb 4889C7   		movq	%rax, %rdi
 2324 10be E8000000 		call	_ZN8UnitTest10CheckEqualI12BufferStatusS1_EEvRNS_11TestResultsERKT_RKT0_RKNS_11TestDetailsE
 2324      00
 2325              	.LEHE94:
 2326              	.L120:
 112:testI2C.cpp   **** 	iStatus = i2cFinalise(&buf, NULL);
 2327              		.loc 3 112 23 is_stmt 1
 2328 10c3 488D45A0 		leaq	-96(%rbp), %rax
 2329 10c7 BE000000 		movl	$0, %esi
 2329      00
 2330 10cc 4889C7   		movq	%rax, %rdi
 2331              	.LEHB95:
 2332 10cf E8000000 		call	i2cFinalise@PLT
 2332      00
 2333              	.LEHE95:
 2334              		.loc 3 112 10
 2335 10d4 894594   		movl	%eax, -108(%rbp)
 2336              	.LEHB96:
 113:testI2C.cpp   **** 	CHECK_EQUAL(I2C_NOT_INITIALISED, iStatus);
 2337              		.loc 3 113 2
 2338 10d7 E8000000 		call	_ZN8UnitTest11CurrentTest7DetailsEv@PLT
 2338      00
 2339 10dc 488B08   		movq	(%rax), %rcx
 2340 10df 488D45C0 		leaq	-64(%rbp), %rax
 2341 10e3 BA710000 		movl	$113, %edx
 2341      00
 2342 10e8 4889CE   		movq	%rcx, %rsi
 2343 10eb 4889C7   		movq	%rax, %rdi
 2344 10ee E8000000 		call	_ZN8UnitTest11TestDetailsC1ERKS0_i@PLT
 2344      00
 2345              		.loc 3 113 2 is_stmt 0 discriminator 4
 2346 10f3 C7459C02 		movl	$2, -100(%rbp)
 2346      000000
 2347 10fa E8000000 		call	_ZN8UnitTest11CurrentTest7ResultsEv@PLT
 2347      00
 2348 10ff 488B00   		movq	(%rax), %rax
 2349 1102 488D4DC0 		leaq	-64(%rbp), %rcx
 2350 1106 488D5594 		leaq	-108(%rbp), %rdx
 2351 110a 488D759C 		leaq	-100(%rbp), %rsi
 2352 110e 4889C7   		movq	%rax, %rdi
 2353 1111 E8000000 		call	_ZN8UnitTest10CheckEqualI9I2CStatusS1_EEvRNS_11TestResultsERKT_RKT0_RKNS_11TestDetailsE
 2353      00
 2354              	.LEHE96:
 2355              	.L123:
 114:testI2C.cpp   **** 	bufDestroy(&buf);
 2356              		.loc 3 114 12 is_stmt 1
 2357 1116 488D45A0 		leaq	-96(%rbp), %rax
 2358 111a 4889C7   		movq	%rax, %rdi
 2359              	.LEHB97:
 2360 111d E8000000 		call	bufDestroy@PLT
 2360      00
 2361              	.LEHE97:
 115:testI2C.cpp   **** }
 2362              		.loc 3 115 1
 2363 1122 90       		nop
 2364 1123 488B45E8 		movq	-24(%rbp), %rax
 2365 1127 64482B04 		subq	%fs:40, %rax
 2365      25280000 
 2365      00
 2366 1130 0F84D800 		je	.L125
 2366      0000
 2367 1136 E9CE0000 		jmp	.L130
 2367      00
 2368              	.L126:
 2369 113b F30F1EFA 		endbr64
 111:testI2C.cpp   **** 	iStatus = i2cFinalise(&buf, NULL);
 2370              		.loc 3 111 2
 2371 113f 4889C7   		movq	%rax, %rdi
 2372 1142 E8000000 		call	__cxa_begin_catch@PLT
 2372      00
 2373              	.LEHB98:
 2374 1147 E8000000 		call	_ZN8UnitTest11CurrentTest7ResultsEv@PLT
 2374      00
 111:testI2C.cpp   **** 	iStatus = i2cFinalise(&buf, NULL);
 2375              		.loc 3 111 2 is_stmt 0 discriminator 3
 2376 114c 488B18   		movq	(%rax), %rbx
 2377 114f E8000000 		call	_ZN8UnitTest11CurrentTest7DetailsEv@PLT
 2377      00
 111:testI2C.cpp   **** 	iStatus = i2cFinalise(&buf, NULL);
 2378              		.loc 3 111 2 discriminator 11
 2379 1154 488B08   		movq	(%rax), %rcx
 2380 1157 488D45C0 		leaq	-64(%rbp), %rax
 2381 115b BA6F0000 		movl	$111, %edx
 2381      00
 2382 1160 4889CE   		movq	%rcx, %rsi
 2383 1163 4889C7   		movq	%rax, %rdi
 2384 1166 E8000000 		call	_ZN8UnitTest11TestDetailsC1ERKS0_i@PLT
 2384      00
 111:testI2C.cpp   **** 	iStatus = i2cFinalise(&buf, NULL);
 2385              		.loc 3 111 2 discriminator 15
 2386 116b 488D45C0 		leaq	-64(%rbp), %rax
 2387 116f 488D1500 		leaq	.LC3(%rip), %rdx
 2387      000000
 2388 1176 4889C6   		movq	%rax, %rsi
 2389 1179 4889DF   		movq	%rbx, %rdi
 2390 117c E8000000 		call	_ZN8UnitTest11TestResults13OnTestFailureERKNS_11TestDetailsEPKc@PLT
 2390      00
 2391              	.LEHE98:
 2392              	.LEHB99:
 111:testI2C.cpp   **** 	iStatus = i2cFinalise(&buf, NULL);
 2393              		.loc 3 111 2 discriminator 17
 2394 1181 E8000000 		call	__cxa_end_catch@PLT
 2394      00
 2395              	.LEHE99:
 2396 1186 E938FFFF 		jmp	.L120
 2396      FF
 2397              	.L127:
 2398 118b F30F1EFA 		endbr64
 111:testI2C.cpp   **** 	iStatus = i2cFinalise(&buf, NULL);
 2399              		.loc 3 111 2
 2400 118f 4889C3   		movq	%rax, %rbx
 2401 1192 E8000000 		call	__cxa_end_catch@PLT
 2401      00
 2402 1197 4889D8   		movq	%rbx, %rax
 2403 119a 4889C7   		movq	%rax, %rdi
 2404              	.LEHB100:
 2405 119d E8000000 		call	_Unwind_Resume@PLT
 2405      00
 2406              	.LEHE100:
 2407              	.L128:
 2408 11a2 F30F1EFA 		endbr64
 113:testI2C.cpp   **** 	bufDestroy(&buf);
 2409              		.loc 3 113 2 is_stmt 1
 2410 11a6 4889C7   		movq	%rax, %rdi
 2411 11a9 E8000000 		call	__cxa_begin_catch@PLT
 2411      00
 2412              	.LEHB101:
 2413 11ae E8000000 		call	_ZN8UnitTest11CurrentTest7ResultsEv@PLT
 2413      00
 113:testI2C.cpp   **** 	bufDestroy(&buf);
 2414              		.loc 3 113 2 is_stmt 0 discriminator 3
 2415 11b3 488B18   		movq	(%rax), %rbx
 2416 11b6 E8000000 		call	_ZN8UnitTest11CurrentTest7DetailsEv@PLT
 2416      00
 113:testI2C.cpp   **** 	bufDestroy(&buf);
 2417              		.loc 3 113 2 discriminator 11
 2418 11bb 488B08   		movq	(%rax), %rcx
 2419 11be 488D45C0 		leaq	-64(%rbp), %rax
 2420 11c2 BA710000 		movl	$113, %edx
 2420      00
 2421 11c7 4889CE   		movq	%rcx, %rsi
 2422 11ca 4889C7   		movq	%rax, %rdi
 2423 11cd E8000000 		call	_ZN8UnitTest11TestDetailsC1ERKS0_i@PLT
 2423      00
 113:testI2C.cpp   **** 	bufDestroy(&buf);
 2424              		.loc 3 113 2 discriminator 15
 2425 11d2 488D45C0 		leaq	-64(%rbp), %rax
 2426 11d6 488D1500 		leaq	.LC11(%rip), %rdx
 2426      000000
 2427 11dd 4889C6   		movq	%rax, %rsi
 2428 11e0 4889DF   		movq	%rbx, %rdi
 2429 11e3 E8000000 		call	_ZN8UnitTest11TestResults13OnTestFailureERKNS_11TestDetailsEPKc@PLT
 2429      00
 2430              	.LEHE101:
 2431              	.LEHB102:
 113:testI2C.cpp   **** 	bufDestroy(&buf);
 2432              		.loc 3 113 2 discriminator 17
 2433 11e8 E8000000 		call	__cxa_end_catch@PLT
 2433      00
 2434              	.LEHE102:
 2435 11ed E924FFFF 		jmp	.L123
 2435      FF
 2436              	.L129:
 2437 11f2 F30F1EFA 		endbr64
 113:testI2C.cpp   **** 	bufDestroy(&buf);
 2438              		.loc 3 113 2
 2439 11f6 4889C3   		movq	%rax, %rbx
 2440 11f9 E8000000 		call	__cxa_end_catch@PLT
 2440      00
 2441 11fe 4889D8   		movq	%rbx, %rax
 2442 1201 4889C7   		movq	%rax, %rdi
 2443              	.LEHB103:
 2444 1204 E8000000 		call	_Unwind_Resume@PLT
 2444      00
 2445              	.LEHE103:
 2446              	.L130:
 2447              		.loc 3 115 1 is_stmt 1
 2448 1209 E8000000 		call	__stack_chk_fail@PLT
 2448      00
 2449              	.L125:
 2450 120e 488B5DF8 		movq	-8(%rbp), %rbx
 2451 1212 C9       		leave
 2452              		.cfi_def_cfa 7, 8
 2453 1213 C3       		ret
 2454              		.cfi_endproc
 2455              	.LFE1160:
 2456              		.section	.gcc_except_table
 2457              		.align 4
 2458              	.LLSDA1160:
 2459 0204 FF       		.byte	0xff
 2460 0205 9B       		.byte	0x9b
 2461 0206 41       		.uleb128 .LLSDATT1160-.LLSDATTD1160
 2462              	.LLSDATTD1160:
 2463 0207 01       		.byte	0x1
 2464 0208 39       		.uleb128 .LLSDACSE1160-.LLSDACSB1160
 2465              	.LLSDACSB1160:
 2466 0209 36       		.uleb128 .LEHB93-.LFB1160
 2467 020a 05       		.uleb128 .LEHE93-.LEHB93
 2468 020b 00       		.uleb128 0
 2469 020c 00       		.uleb128 0
 2470 020d 3E       		.uleb128 .LEHB94-.LFB1160
 2471 020e 3F       		.uleb128 .LEHE94-.LEHB94
 2472 020f F501     		.uleb128 .L126-.LFB1160
 2473 0211 01       		.uleb128 0x1
 2474 0212 8901     		.uleb128 .LEHB95-.LFB1160
 2475 0214 05       		.uleb128 .LEHE95-.LEHB95
 2476 0215 00       		.uleb128 0
 2477 0216 00       		.uleb128 0
 2478 0217 9101     		.uleb128 .LEHB96-.LFB1160
 2479 0219 3F       		.uleb128 .LEHE96-.LEHB96
 2480 021a DC02     		.uleb128 .L128-.LFB1160
 2481 021c 01       		.uleb128 0x1
 2482 021d D701     		.uleb128 .LEHB97-.LFB1160
 2483 021f 05       		.uleb128 .LEHE97-.LEHB97
 2484 0220 00       		.uleb128 0
 2485 0221 00       		.uleb128 0
 2486 0222 8102     		.uleb128 .LEHB98-.LFB1160
 2487 0224 3A       		.uleb128 .LEHE98-.LEHB98
 2488 0225 C502     		.uleb128 .L127-.LFB1160
 2489 0227 00       		.uleb128 0
 2490 0228 BB02     		.uleb128 .LEHB99-.LFB1160
 2491 022a 05       		.uleb128 .LEHE99-.LEHB99
 2492 022b 00       		.uleb128 0
 2493 022c 00       		.uleb128 0
 2494 022d D702     		.uleb128 .LEHB100-.LFB1160
 2495 022f 05       		.uleb128 .LEHE100-.LEHB100
 2496 0230 00       		.uleb128 0
 2497 0231 00       		.uleb128 0
 2498 0232 E802     		.uleb128 .LEHB101-.LFB1160
 2499 0234 3A       		.uleb128 .LEHE101-.LEHB101
 2500 0235 AC03     		.uleb128 .L129-.LFB1160
 2501 0237 00       		.uleb128 0
 2502 0238 A203     		.uleb128 .LEHB102-.LFB1160
 2503 023a 05       		.uleb128 .LEHE102-.LEHB102
 2504 023b 00       		.uleb128 0
 2505 023c 00       		.uleb128 0
 2506 023d BE03     		.uleb128 .LEHB103-.LFB1160
 2507 023f 05       		.uleb128 .LEHE103-.LEHB103
 2508 0240 00       		.uleb128 0
 2509 0241 00       		.uleb128 0
 2510              	.LLSDACSE1160:
 2511 0242 01       		.byte	0x1
 2512 0243 00       		.byte	0
 2513              		.align 4
 2514 0244 00000000 		.long	0
 2515              	
 2516              	.LLSDATT1160:
 2517              		.text
 2519              		.section	.text._ZN8UnitTest15MemoryOutStreamD1Ev,"axG",@progbits,_ZN8UnitTest15MemoryOutStreamD1Ev
 2520              		.align 2
 2521              		.weak	_ZN8UnitTest15MemoryOutStreamD1Ev
 2523              	_ZN8UnitTest15MemoryOutStreamD1Ev:
 2524              	.LFB1191:
  13:/home/pong/FPGALink/makestuff/libs/libutpp/MemoryOutStream.h **** {
 2525              		.loc 2 13 7
 2526              		.cfi_startproc
 2527              		.cfi_personality 0x9b,DW.ref.__gxx_personality_v0
 2528              		.cfi_lsda 0x1b,.LLSDA1191
 2529 0000 F30F1EFA 		endbr64
 2530 0004 55       		pushq	%rbp
 2531              		.cfi_def_cfa_offset 16
 2532              		.cfi_offset 6, -16
 2533 0005 4889E5   		movq	%rsp, %rbp
 2534              		.cfi_def_cfa_register 6
 2535 0008 53       		pushq	%rbx
 2536 0009 4883EC18 		subq	$24, %rsp
 2537              		.cfi_offset 3, -24
 2538 000d 48897DE8 		movq	%rdi, -24(%rbp)
 2539              	.LBB8:
  13:/home/pong/FPGALink/makestuff/libs/libutpp/MemoryOutStream.h **** {
 2540              		.loc 2 13 7
 2541 0011 488D1500 		leaq	24+_ZTVN8UnitTest15MemoryOutStreamE(%rip), %rdx
 2541      000000
 2542 0018 488B45E8 		movq	-24(%rbp), %rax
 2543 001c 488910   		movq	%rdx, (%rax)
 2544 001f 488B45E8 		movq	-24(%rbp), %rax
 2545 0023 48059000 		addq	$144, %rax
 2545      0000
 2546 0029 488D1500 		leaq	64+_ZTVN8UnitTest15MemoryOutStreamE(%rip), %rdx
 2546      000000
 2547 0030 488910   		movq	%rdx, (%rax)
 2548 0033 488B45E8 		movq	-24(%rbp), %rax
 2549 0037 4883C070 		addq	$112, %rax
 2550 003b 4889C7   		movq	%rax, %rdi
 2551              	.LEHB104:
 2552 003e E8000000 		call	_ZNSt7__cxx1112basic_stringIcSt11char_traitsIcESaIcEED1Ev@PLT
 2552      00
 2553              	.LEHE104:
  13:/home/pong/FPGALink/makestuff/libs/libutpp/MemoryOutStream.h **** {
 2554              		.loc 2 13 7 is_stmt 0 discriminator 2
 2555 0043 488B45E8 		movq	-24(%rbp), %rax
 2556 0047 488D1500 		leaq	8+_ZTTN8UnitTest15MemoryOutStreamE(%rip), %rdx
 2556      000000
 2557 004e 4889D6   		movq	%rdx, %rsi
 2558 0051 4889C7   		movq	%rax, %rdi
 2559              	.LEHB105:
 2560 0054 E8000000 		call	_ZNSt7__cxx1119basic_ostringstreamIcSt11char_traitsIcESaIcEED2Ev@PLT
 2560      00
 2561              	.LEHE105:
  13:/home/pong/FPGALink/makestuff/libs/libutpp/MemoryOutStream.h **** {
 2562              		.loc 2 13 7 discriminator 4
 2563 0059 488B45E8 		movq	-24(%rbp), %rax
 2564 005d 48059000 		addq	$144, %rax
 2564      0000
 2565 0063 4889C7   		movq	%rax, %rdi
 2566              	.LEHB106:
 2567 0066 E8000000 		call	_ZNSt9basic_iosIcSt11char_traitsIcEED2Ev@PLT
 2567      00
 2568              	.LEHE106:
 2569              	.LBE8:
 2570 006b EB43     		jmp	.L136
 2571              	.L134:
 2572 006d F30F1EFA 		endbr64
 2573              	.LBB9:
  13:/home/pong/FPGALink/makestuff/libs/libutpp/MemoryOutStream.h **** {
 2574              		.loc 2 13 7
 2575 0071 4889C3   		movq	%rax, %rbx
 2576 0074 488B45E8 		movq	-24(%rbp), %rax
 2577 0078 488D1500 		leaq	8+_ZTTN8UnitTest15MemoryOutStreamE(%rip), %rdx
 2577      000000
 2578 007f 4889D6   		movq	%rdx, %rsi
 2579 0082 4889C7   		movq	%rax, %rdi
 2580 0085 E8000000 		call	_ZNSt7__cxx1119basic_ostringstreamIcSt11char_traitsIcESaIcEED2Ev@PLT
 2580      00
 2581 008a EB07     		jmp	.L133
 2582              	.L135:
 2583 008c F30F1EFA 		endbr64
 2584 0090 4889C3   		movq	%rax, %rbx
 2585              	.L133:
  13:/home/pong/FPGALink/makestuff/libs/libutpp/MemoryOutStream.h **** {
 2586              		.loc 2 13 7 discriminator 3
 2587 0093 488B45E8 		movq	-24(%rbp), %rax
 2588 0097 48059000 		addq	$144, %rax
 2588      0000
 2589 009d 4889C7   		movq	%rax, %rdi
 2590 00a0 E8000000 		call	_ZNSt9basic_iosIcSt11char_traitsIcEED2Ev@PLT
 2590      00
 2591 00a5 4889D8   		movq	%rbx, %rax
 2592 00a8 4889C7   		movq	%rax, %rdi
 2593              	.LEHB107:
 2594 00ab E8000000 		call	_Unwind_Resume@PLT
 2594      00
 2595              	.LEHE107:
 2596              	.L136:
 2597              	.LBE9:
  13:/home/pong/FPGALink/makestuff/libs/libutpp/MemoryOutStream.h **** {
 2598              		.loc 2 13 7
 2599 00b0 488B5DF8 		movq	-8(%rbp), %rbx
 2600 00b4 C9       		leave
 2601              		.cfi_def_cfa 7, 8
 2602 00b5 C3       		ret
 2603              		.cfi_endproc
 2604              	.LFE1191:
 2605              		.section	.gcc_except_table
 2606              	.LLSDA1191:
 2607 0248 FF       		.byte	0xff
 2608 0249 FF       		.byte	0xff
 2609 024a 01       		.byte	0x1
 2610 024b 12       		.uleb128 .LLSDACSE1191-.LLSDACSB1191
 2611              	.LLSDACSB1191:
 2612 024c 3E       		.uleb128 .LEHB104-.LFB1191
 2613 024d 05       		.uleb128 .LEHE104-.LEHB104
 2614 024e 6D       		.uleb128 .L134-.LFB1191
 2615 024f 00       		.uleb128 0
 2616 0250 54       		.uleb128 .LEHB105-.LFB1191
 2617 0251 05       		.uleb128 .LEHE105-.LEHB105
 2618 0252 8C01     		.uleb128 .L135-.LFB1191
 2619 0254 00       		.uleb128 0
 2620 0255 66       		.uleb128 .LEHB106-.LFB1191
 2621 0256 05       		.uleb128 .LEHE106-.LEHB106
 2622 0257 00       		.uleb128 0
 2623 0258 00       		.uleb128 0
 2624 0259 AB01     		.uleb128 .LEHB107-.LFB1191
 2625 025b 05       		.uleb128 .LEHE107-.LEHB107
 2626 025c 00       		.uleb128 0
 2627 025d 00       		.uleb128 0
 2628              	.LLSDACSE1191:
 2629              		.section	.text._ZN8UnitTest15MemoryOutStreamD1Ev,"axG",@progbits,_ZN8UnitTest15MemoryOutStreamD1Ev
 2631              		.set	.LTHUNK0,_ZN8UnitTest15MemoryOutStreamD1Ev
 2632              		.weak	_ZTv0_n24_N8UnitTest15MemoryOutStreamD1Ev
 2634              	_ZTv0_n24_N8UnitTest15MemoryOutStreamD1Ev:
 2635              	.LFB1270:
  13:/home/pong/FPGALink/makestuff/libs/libutpp/MemoryOutStream.h **** {
 2636              		.loc 2 13 7 is_stmt 1
 2637              		.cfi_startproc
 2638 00b6 F30F1EFA 		endbr64
 2639 00ba 4C8B17   		movq	(%rdi), %r10
 2640 00bd 49037AE8 		addq	-24(%r10), %rdi
 2641 00c1 E93AFFFF 		jmp	.LTHUNK0
 2641      FF
 2642              		.cfi_endproc
 2643              	.LFE1270:
 2645              		.section	.text._ZN8UnitTest15MemoryOutStreamD0Ev,"axG",@progbits,_ZN8UnitTest15MemoryOutStreamD0Ev
 2646              		.align 2
 2647              		.weak	_ZN8UnitTest15MemoryOutStreamD0Ev
 2649              	_ZN8UnitTest15MemoryOutStreamD0Ev:
 2650              	.LFB1192:
  13:/home/pong/FPGALink/makestuff/libs/libutpp/MemoryOutStream.h **** {
 2651              		.loc 2 13 7
 2652              		.cfi_startproc
 2653              		.cfi_personality 0x9b,DW.ref.__gxx_personality_v0
 2654              		.cfi_lsda 0x1b,.LLSDA1192
 2655 0000 F30F1EFA 		endbr64
 2656 0004 55       		pushq	%rbp
 2657              		.cfi_def_cfa_offset 16
 2658              		.cfi_offset 6, -16
 2659 0005 4889E5   		movq	%rsp, %rbp
 2660              		.cfi_def_cfa_register 6
 2661 0008 53       		pushq	%rbx
 2662 0009 4883EC18 		subq	$24, %rsp
 2663              		.cfi_offset 3, -24
 2664 000d 48897DE8 		movq	%rdi, -24(%rbp)
  13:/home/pong/FPGALink/makestuff/libs/libutpp/MemoryOutStream.h **** {
 2665              		.loc 2 13 7
 2666 0011 488B45E8 		movq	-24(%rbp), %rax
 2667 0015 4889C7   		movq	%rax, %rdi
 2668              	.LEHB108:
 2669 0018 E8000000 		call	_ZN8UnitTest15MemoryOutStreamD1Ev
 2669      00
 2670              	.LEHE108:
  13:/home/pong/FPGALink/makestuff/libs/libutpp/MemoryOutStream.h **** {
 2671              		.loc 2 13 7 is_stmt 0 discriminator 2
 2672 001d 488B45E8 		movq	-24(%rbp), %rax
 2673 0021 4889C7   		movq	%rax, %rdi
 2674 0024 E8000000 		call	_ZdlPv@PLT
 2674      00
 2675 0029 EB1E     		jmp	.L140
 2676              	.L139:
 2677 002b F30F1EFA 		endbr64
  13:/home/pong/FPGALink/makestuff/libs/libutpp/MemoryOutStream.h **** {
 2678              		.loc 2 13 7
 2679 002f 4889C3   		movq	%rax, %rbx
 2680 0032 488B45E8 		movq	-24(%rbp), %rax
 2681 0036 4889C7   		movq	%rax, %rdi
 2682 0039 E8000000 		call	_ZdlPv@PLT
 2682      00
 2683 003e 4889D8   		movq	%rbx, %rax
 2684 0041 4889C7   		movq	%rax, %rdi
 2685              	.LEHB109:
 2686 0044 E8000000 		call	_Unwind_Resume@PLT
 2686      00
 2687              	.LEHE109:
 2688              	.L140:
 2689 0049 488B5DF8 		movq	-8(%rbp), %rbx
 2690 004d C9       		leave
 2691              		.cfi_def_cfa 7, 8
 2692 004e C3       		ret
 2693              		.cfi_endproc
 2694              	.LFE1192:
 2695              		.section	.gcc_except_table
 2696              	.LLSDA1192:
 2697 025e FF       		.byte	0xff
 2698 025f FF       		.byte	0xff
 2699 0260 01       		.byte	0x1
 2700 0261 08       		.uleb128 .LLSDACSE1192-.LLSDACSB1192
 2701              	.LLSDACSB1192:
 2702 0262 18       		.uleb128 .LEHB108-.LFB1192
 2703 0263 05       		.uleb128 .LEHE108-.LEHB108
 2704 0264 2B       		.uleb128 .L139-.LFB1192
 2705 0265 00       		.uleb128 0
 2706 0266 44       		.uleb128 .LEHB109-.LFB1192
 2707 0267 05       		.uleb128 .LEHE109-.LEHB109
 2708 0268 00       		.uleb128 0
 2709 0269 00       		.uleb128 0
 2710              	.LLSDACSE1192:
 2711              		.section	.text._ZN8UnitTest15MemoryOutStreamD0Ev,"axG",@progbits,_ZN8UnitTest15MemoryOutStreamD0Ev
 2713              		.set	.LTHUNK1,_ZN8UnitTest15MemoryOutStreamD0Ev
 2714              		.weak	_ZTv0_n24_N8UnitTest15MemoryOutStreamD0Ev
 2716              	_ZTv0_n24_N8UnitTest15MemoryOutStreamD0Ev:
 2717              	.LFB1271:
  13:/home/pong/FPGALink/makestuff/libs/libutpp/MemoryOutStream.h **** {
 2718              		.loc 2 13 7 is_stmt 1
 2719              		.cfi_startproc
 2720 004f F30F1EFA 		endbr64
 2721 0053 4C8B17   		movq	(%rdi), %r10
 2722 0056 49037AE8 		addq	-24(%r10), %rdi
 2723 005a EBA4     		jmp	.LTHUNK1
 2724              		.cfi_endproc
 2725              	.LFE1271:
 2727              		.section	.rodata
 2728              	.LC13:
 2729 0238 45787065 		.string	"Expected "
 2729      63746564 
 2729      2000
 2730              	.LC14:
 2731 0242 20627574 		.string	" but was "
 2731      20776173 
 2731      2000
 2732              		.section	.text._ZN8UnitTest10CheckEqualI12BufferStatusS1_EEvRNS_11TestResultsERKT_RKT0_RKNS_11Test
 2733              		.weak	_ZN8UnitTest10CheckEqualI12BufferStatusS1_EEvRNS_11TestResultsERKT_RKT0_RKNS_11TestDetailsE
 2735              	_ZN8UnitTest10CheckEqualI12BufferStatusS1_EEvRNS_11TestResultsERKT_RKT0_RKNS_11TestDetailsE:
 2736              	.LFB1188:
 2737              		.file 4 "/home/pong/FPGALink/makestuff/libs/libutpp/Checks.h"
   1:/home/pong/FPGALink/makestuff/libs/libutpp/Checks.h **** #ifndef UNITTEST_CHECKS_H
   2:/home/pong/FPGALink/makestuff/libs/libutpp/Checks.h **** #define UNITTEST_CHECKS_H
   3:/home/pong/FPGALink/makestuff/libs/libutpp/Checks.h **** 
   4:/home/pong/FPGALink/makestuff/libs/libutpp/Checks.h **** #include "Config.h"
   5:/home/pong/FPGALink/makestuff/libs/libutpp/Checks.h **** #include "TestResults.h"
   6:/home/pong/FPGALink/makestuff/libs/libutpp/Checks.h **** #include "MemoryOutStream.h"
   7:/home/pong/FPGALink/makestuff/libs/libutpp/Checks.h **** 
   8:/home/pong/FPGALink/makestuff/libs/libutpp/Checks.h **** namespace UnitTest {
   9:/home/pong/FPGALink/makestuff/libs/libutpp/Checks.h **** 
  10:/home/pong/FPGALink/makestuff/libs/libutpp/Checks.h **** 
  11:/home/pong/FPGALink/makestuff/libs/libutpp/Checks.h **** template< typename Value >
  12:/home/pong/FPGALink/makestuff/libs/libutpp/Checks.h **** bool Check(Value const value)
  13:/home/pong/FPGALink/makestuff/libs/libutpp/Checks.h **** {
  14:/home/pong/FPGALink/makestuff/libs/libutpp/Checks.h ****     return !!value; // doing double negative to avoid silly VS warnings
  15:/home/pong/FPGALink/makestuff/libs/libutpp/Checks.h **** }
  16:/home/pong/FPGALink/makestuff/libs/libutpp/Checks.h **** 
  17:/home/pong/FPGALink/makestuff/libs/libutpp/Checks.h **** 
  18:/home/pong/FPGALink/makestuff/libs/libutpp/Checks.h **** template< typename Expected, typename Actual >
  19:/home/pong/FPGALink/makestuff/libs/libutpp/Checks.h **** void CheckEqual(TestResults& results, Expected const& expected, Actual const& actual, TestDetails c
 2738              		.loc 4 19 6
 2739              		.cfi_startproc
 2740              		.cfi_personality 0x9b,DW.ref.__gxx_personality_v0
 2741              		.cfi_lsda 0x1b,.LLSDA1188
 2742 0000 F30F1EFA 		endbr64
 2743 0004 55       		pushq	%rbp
 2744              		.cfi_def_cfa_offset 16
 2745              		.cfi_offset 6, -16
 2746 0005 4889E5   		movq	%rsp, %rbp
 2747              		.cfi_def_cfa_register 6
 2748 0008 53       		pushq	%rbx
 2749 0009 4881ECC8 		subq	$456, %rsp
 2749      010000
 2750              		.cfi_offset 3, -24
 2751 0010 4889BD48 		movq	%rdi, -440(%rbp)
 2751      FEFFFF
 2752 0017 4889B540 		movq	%rsi, -448(%rbp)
 2752      FEFFFF
 2753 001e 48899538 		movq	%rdx, -456(%rbp)
 2753      FEFFFF
 2754 0025 48898D30 		movq	%rcx, -464(%rbp)
 2754      FEFFFF
 2755              		.loc 4 19 6
 2756 002c 64488B04 		movq	%fs:40, %rax
 2756      25280000 
 2756      00
 2757 0035 488945E8 		movq	%rax, -24(%rbp)
 2758 0039 31C0     		xorl	%eax, %eax
 2759              	.LBB10:
  20:/home/pong/FPGALink/makestuff/libs/libutpp/Checks.h **** {
  21:/home/pong/FPGALink/makestuff/libs/libutpp/Checks.h ****     if (!(expected == actual))
 2760              		.loc 4 21 20
 2761 003b 488B8540 		movq	-448(%rbp), %rax
 2761      FEFFFF
 2762 0042 8B10     		movl	(%rax), %edx
 2763 0044 488B8538 		movq	-456(%rbp), %rax
 2763      FEFFFF
 2764 004b 8B00     		movl	(%rax), %eax
 2765              		.loc 4 21 5
 2766 004d 39C2     		cmpl	%eax, %edx
 2767 004f 0F84C600 		je	.L146
 2767      0000
 2768              	.LBB11:
  22:/home/pong/FPGALink/makestuff/libs/libutpp/Checks.h ****     {
  23:/home/pong/FPGALink/makestuff/libs/libutpp/Checks.h ****         UnitTest::MemoryOutStream stream;
 2769              		.loc 4 23 35
 2770 0055 488D8550 		leaq	-432(%rbp), %rax
 2770      FEFFFF
 2771 005c 4889C7   		movq	%rax, %rdi
 2772              	.LEHB110:
 2773 005f E8000000 		call	_ZN8UnitTest15MemoryOutStreamC1Ev
 2773      00
 2774              	.LEHE110:
  24:/home/pong/FPGALink/makestuff/libs/libutpp/Checks.h ****         stream << "Expected " << expected << " but was " << actual;
 2775              		.loc 4 24 16
 2776 0064 488D8550 		leaq	-432(%rbp), %rax
 2776      FEFFFF
 2777 006b 488D1500 		leaq	.LC13(%rip), %rdx
 2777      000000
 2778 0072 4889D6   		movq	%rdx, %rsi
 2779 0075 4889C7   		movq	%rax, %rdi
 2780              	.LEHB111:
 2781 0078 E8000000 		call	_ZStlsISt11char_traitsIcEERSt13basic_ostreamIcT_ES5_PKc@PLT
 2781      00
 2782 007d 4889C2   		movq	%rax, %rdx
 2783              		.loc 4 24 43
 2784 0080 488B8540 		movq	-448(%rbp), %rax
 2784      FEFFFF
 2785 0087 8B00     		movl	(%rax), %eax
 2786 0089 89C6     		movl	%eax, %esi
 2787 008b 4889D7   		movq	%rdx, %rdi
 2788 008e E8000000 		call	_ZNSolsEi@PLT
 2788      00
 2789              		.loc 4 24 43 is_stmt 0 discriminator 1
 2790 0093 4889C2   		movq	%rax, %rdx
 2791 0096 488D0500 		leaq	.LC14(%rip), %rax
 2791      000000
 2792 009d 4889C6   		movq	%rax, %rsi
 2793 00a0 4889D7   		movq	%rdx, %rdi
 2794 00a3 E8000000 		call	_ZStlsISt11char_traitsIcEERSt13basic_ostreamIcT_ES5_PKc@PLT
 2794      00
 2795              		.loc 4 24 43 discriminator 2
 2796 00a8 4889C2   		movq	%rax, %rdx
 2797              		.loc 4 24 58 is_stmt 1 discriminator 2
 2798 00ab 488B8538 		movq	-456(%rbp), %rax
 2798      FEFFFF
 2799 00b2 8B00     		movl	(%rax), %eax
 2800 00b4 89C6     		movl	%eax, %esi
 2801 00b6 4889D7   		movq	%rdx, %rdi
 2802 00b9 E8000000 		call	_ZNSolsEi@PLT
 2802      00
  25:/home/pong/FPGALink/makestuff/libs/libutpp/Checks.h **** 
  26:/home/pong/FPGALink/makestuff/libs/libutpp/Checks.h ****         results.OnTestFailure(details, stream.GetText());
 2803              		.loc 4 26 30
 2804 00be 488D8550 		leaq	-432(%rbp), %rax
 2804      FEFFFF
 2805 00c5 4889C7   		movq	%rax, %rdi
 2806 00c8 E8000000 		call	_ZNK8UnitTest15MemoryOutStream7GetTextEv@PLT
 2806      00
 2807 00cd 4889C2   		movq	%rax, %rdx
 2808 00d0 488B8D30 		movq	-464(%rbp), %rcx
 2808      FEFFFF
 2809 00d7 488B8548 		movq	-440(%rbp), %rax
 2809      FEFFFF
 2810 00de 4889CE   		movq	%rcx, %rsi
 2811 00e1 4889C7   		movq	%rax, %rdi
 2812 00e4 E8000000 		call	_ZN8UnitTest11TestResults13OnTestFailureERKNS_11TestDetailsEPKc@PLT
 2812      00
 2813              	.LEHE111:
  27:/home/pong/FPGALink/makestuff/libs/libutpp/Checks.h ****     }
 2814              		.loc 4 27 5
 2815 00e9 488D8550 		leaq	-432(%rbp), %rax
 2815      FEFFFF
 2816 00f0 4889C7   		movq	%rax, %rdi
 2817              	.LEHB112:
 2818 00f3 E8000000 		call	_ZN8UnitTest15MemoryOutStreamD1Ev
 2818      00
 2819              	.LEHE112:
 2820              	.LBE11:
 2821              	.LBE10:
  28:/home/pong/FPGALink/makestuff/libs/libutpp/Checks.h **** }
 2822              		.loc 4 28 1
 2823 00f8 EB21     		jmp	.L146
 2824              	.L145:
 2825 00fa F30F1EFA 		endbr64
 2826              	.LBB13:
 2827              	.LBB12:
  27:/home/pong/FPGALink/makestuff/libs/libutpp/Checks.h ****     }
 2828              		.loc 4 27 5
 2829 00fe 4889C3   		movq	%rax, %rbx
 2830 0101 488D8550 		leaq	-432(%rbp), %rax
 2830      FEFFFF
 2831 0108 4889C7   		movq	%rax, %rdi
 2832 010b E8000000 		call	_ZN8UnitTest15MemoryOutStreamD1Ev
 2832      00
 2833 0110 4889D8   		movq	%rbx, %rax
 2834 0113 4889C7   		movq	%rax, %rdi
 2835              	.LEHB113:
 2836 0116 E8000000 		call	_Unwind_Resume@PLT
 2836      00
 2837              	.LEHE113:
 2838              	.L146:
 2839              	.LBE12:
 2840              	.LBE13:
 2841              		.loc 4 28 1
 2842 011b 90       		nop
 2843 011c 488B45E8 		movq	-24(%rbp), %rax
 2844 0120 64482B04 		subq	%fs:40, %rax
 2844      25280000 
 2844      00
 2845 0129 7405     		je	.L144
 2846 012b E8000000 		call	__stack_chk_fail@PLT
 2846      00
 2847              	.L144:
 2848 0130 488B5DF8 		movq	-8(%rbp), %rbx
 2849 0134 C9       		leave
 2850              		.cfi_def_cfa 7, 8
 2851 0135 C3       		ret
 2852              		.cfi_endproc
 2853              	.LFE1188:
 2854              		.section	.gcc_except_table
 2855              	.LLSDA1188:
 2856 026a FF       		.byte	0xff
 2857 026b FF       		.byte	0xff
 2858 026c 01       		.byte	0x1
 2859 026d 13       		.uleb128 .LLSDACSE1188-.LLSDACSB1188
 2860              	.LLSDACSB1188:
 2861 026e 5F       		.uleb128 .LEHB110-.LFB1188
 2862 026f 05       		.uleb128 .LEHE110-.LEHB110
 2863 0270 00       		.uleb128 0
 2864 0271 00       		.uleb128 0
 2865 0272 78       		.uleb128 .LEHB111-.LFB1188
 2866 0273 71       		.uleb128 .LEHE111-.LEHB111
 2867 0274 FA01     		.uleb128 .L145-.LFB1188
 2868 0276 00       		.uleb128 0
 2869 0277 F301     		.uleb128 .LEHB112-.LFB1188
 2870 0279 05       		.uleb128 .LEHE112-.LEHB112
 2871 027a 00       		.uleb128 0
 2872 027b 00       		.uleb128 0
 2873 027c 9602     		.uleb128 .LEHB113-.LFB1188
 2874 027e 05       		.uleb128 .LEHE113-.LEHB113
 2875 027f 00       		.uleb128 0
 2876 0280 00       		.uleb128 0
 2877              	.LLSDACSE1188:
 2878              		.section	.text._ZN8UnitTest10CheckEqualI12BufferStatusS1_EEvRNS_11TestResultsERKT_RKT0_RKNS_11Test
 2880              		.section	.text._ZN8UnitTest10CheckEqualI9I2CStatusS1_EEvRNS_11TestResultsERKT_RKT0_RKNS_11TestDeta
 2881              		.weak	_ZN8UnitTest10CheckEqualI9I2CStatusS1_EEvRNS_11TestResultsERKT_RKT0_RKNS_11TestDetailsE
 2883              	_ZN8UnitTest10CheckEqualI9I2CStatusS1_EEvRNS_11TestResultsERKT_RKT0_RKNS_11TestDetailsE:
 2884              	.LFB1193:
  19:/home/pong/FPGALink/makestuff/libs/libutpp/Checks.h **** {
 2885              		.loc 4 19 6
 2886              		.cfi_startproc
 2887              		.cfi_personality 0x9b,DW.ref.__gxx_personality_v0
 2888              		.cfi_lsda 0x1b,.LLSDA1193
 2889 0000 F30F1EFA 		endbr64
 2890 0004 55       		pushq	%rbp
 2891              		.cfi_def_cfa_offset 16
 2892              		.cfi_offset 6, -16
 2893 0005 4889E5   		movq	%rsp, %rbp
 2894              		.cfi_def_cfa_register 6
 2895 0008 53       		pushq	%rbx
 2896 0009 4881ECC8 		subq	$456, %rsp
 2896      010000
 2897              		.cfi_offset 3, -24
 2898 0010 4889BD48 		movq	%rdi, -440(%rbp)
 2898      FEFFFF
 2899 0017 4889B540 		movq	%rsi, -448(%rbp)
 2899      FEFFFF
 2900 001e 48899538 		movq	%rdx, -456(%rbp)
 2900      FEFFFF
 2901 0025 48898D30 		movq	%rcx, -464(%rbp)
 2901      FEFFFF
  19:/home/pong/FPGALink/makestuff/libs/libutpp/Checks.h **** {
 2902              		.loc 4 19 6
 2903 002c 64488B04 		movq	%fs:40, %rax
 2903      25280000 
 2903      00
 2904 0035 488945E8 		movq	%rax, -24(%rbp)
 2905 0039 31C0     		xorl	%eax, %eax
 2906              	.LBB14:
  21:/home/pong/FPGALink/makestuff/libs/libutpp/Checks.h ****     {
 2907              		.loc 4 21 20
 2908 003b 488B8540 		movq	-448(%rbp), %rax
 2908      FEFFFF
 2909 0042 8B10     		movl	(%rax), %edx
 2910 0044 488B8538 		movq	-456(%rbp), %rax
 2910      FEFFFF
 2911 004b 8B00     		movl	(%rax), %eax
  21:/home/pong/FPGALink/makestuff/libs/libutpp/Checks.h ****     {
 2912              		.loc 4 21 5
 2913 004d 39C2     		cmpl	%eax, %edx
 2914 004f 0F84C600 		je	.L152
 2914      0000
 2915              	.LBB15:
  23:/home/pong/FPGALink/makestuff/libs/libutpp/Checks.h ****         stream << "Expected " << expected << " but was " << actual;
 2916              		.loc 4 23 35
 2917 0055 488D8550 		leaq	-432(%rbp), %rax
 2917      FEFFFF
 2918 005c 4889C7   		movq	%rax, %rdi
 2919              	.LEHB114:
 2920 005f E8000000 		call	_ZN8UnitTest15MemoryOutStreamC1Ev
 2920      00
 2921              	.LEHE114:
  24:/home/pong/FPGALink/makestuff/libs/libutpp/Checks.h **** 
 2922              		.loc 4 24 16
 2923 0064 488D8550 		leaq	-432(%rbp), %rax
 2923      FEFFFF
 2924 006b 488D1500 		leaq	.LC13(%rip), %rdx
 2924      000000
 2925 0072 4889D6   		movq	%rdx, %rsi
 2926 0075 4889C7   		movq	%rax, %rdi
 2927              	.LEHB115:
 2928 0078 E8000000 		call	_ZStlsISt11char_traitsIcEERSt13basic_ostreamIcT_ES5_PKc@PLT
 2928      00
 2929 007d 4889C2   		movq	%rax, %rdx
  24:/home/pong/FPGALink/makestuff/libs/libutpp/Checks.h **** 
 2930              		.loc 4 24 43
 2931 0080 488B8540 		movq	-448(%rbp), %rax
 2931      FEFFFF
 2932 0087 8B00     		movl	(%rax), %eax
 2933 0089 89C6     		movl	%eax, %esi
 2934 008b 4889D7   		movq	%rdx, %rdi
 2935 008e E8000000 		call	_ZNSolsEi@PLT
 2935      00
  24:/home/pong/FPGALink/makestuff/libs/libutpp/Checks.h **** 
 2936              		.loc 4 24 43 is_stmt 0 discriminator 1
 2937 0093 4889C2   		movq	%rax, %rdx
 2938 0096 488D0500 		leaq	.LC14(%rip), %rax
 2938      000000
 2939 009d 4889C6   		movq	%rax, %rsi
 2940 00a0 4889D7   		movq	%rdx, %rdi
 2941 00a3 E8000000 		call	_ZStlsISt11char_traitsIcEERSt13basic_ostreamIcT_ES5_PKc@PLT
 2941      00
  24:/home/pong/FPGALink/makestuff/libs/libutpp/Checks.h **** 
 2942              		.loc 4 24 43 discriminator 2
 2943 00a8 4889C2   		movq	%rax, %rdx
  24:/home/pong/FPGALink/makestuff/libs/libutpp/Checks.h **** 
 2944              		.loc 4 24 58 is_stmt 1 discriminator 2
 2945 00ab 488B8538 		movq	-456(%rbp), %rax
 2945      FEFFFF
 2946 00b2 8B00     		movl	(%rax), %eax
 2947 00b4 89C6     		movl	%eax, %esi
 2948 00b6 4889D7   		movq	%rdx, %rdi
 2949 00b9 E8000000 		call	_ZNSolsEi@PLT
 2949      00
  26:/home/pong/FPGALink/makestuff/libs/libutpp/Checks.h ****     }
 2950              		.loc 4 26 30
 2951 00be 488D8550 		leaq	-432(%rbp), %rax
 2951      FEFFFF
 2952 00c5 4889C7   		movq	%rax, %rdi
 2953 00c8 E8000000 		call	_ZNK8UnitTest15MemoryOutStream7GetTextEv@PLT
 2953      00
 2954 00cd 4889C2   		movq	%rax, %rdx
 2955 00d0 488B8D30 		movq	-464(%rbp), %rcx
 2955      FEFFFF
 2956 00d7 488B8548 		movq	-440(%rbp), %rax
 2956      FEFFFF
 2957 00de 4889CE   		movq	%rcx, %rsi
 2958 00e1 4889C7   		movq	%rax, %rdi
 2959 00e4 E8000000 		call	_ZN8UnitTest11TestResults13OnTestFailureERKNS_11TestDetailsEPKc@PLT
 2959      00
 2960              	.LEHE115:
  27:/home/pong/FPGALink/makestuff/libs/libutpp/Checks.h **** }
 2961              		.loc 4 27 5
 2962 00e9 488D8550 		leaq	-432(%rbp), %rax
 2962      FEFFFF
 2963 00f0 4889C7   		movq	%rax, %rdi
 2964              	.LEHB116:
 2965 00f3 E8000000 		call	_ZN8UnitTest15MemoryOutStreamD1Ev
 2965      00
 2966              	.LEHE116:
 2967              	.LBE15:
 2968              	.LBE14:
 2969              		.loc 4 28 1
 2970 00f8 EB21     		jmp	.L152
 2971              	.L151:
 2972 00fa F30F1EFA 		endbr64
 2973              	.LBB17:
 2974              	.LBB16:
  27:/home/pong/FPGALink/makestuff/libs/libutpp/Checks.h **** }
 2975              		.loc 4 27 5
 2976 00fe 4889C3   		movq	%rax, %rbx
 2977 0101 488D8550 		leaq	-432(%rbp), %rax
 2977      FEFFFF
 2978 0108 4889C7   		movq	%rax, %rdi
 2979 010b E8000000 		call	_ZN8UnitTest15MemoryOutStreamD1Ev
 2979      00
 2980 0110 4889D8   		movq	%rbx, %rax
 2981 0113 4889C7   		movq	%rax, %rdi
 2982              	.LEHB117:
 2983 0116 E8000000 		call	_Unwind_Resume@PLT
 2983      00
 2984              	.LEHE117:
 2985              	.L152:
 2986              	.LBE16:
 2987              	.LBE17:
 2988              		.loc 4 28 1
 2989 011b 90       		nop
 2990 011c 488B45E8 		movq	-24(%rbp), %rax
 2991 0120 64482B04 		subq	%fs:40, %rax
 2991      25280000 
 2991      00
 2992 0129 7405     		je	.L150
 2993 012b E8000000 		call	__stack_chk_fail@PLT
 2993      00
 2994              	.L150:
 2995 0130 488B5DF8 		movq	-8(%rbp), %rbx
 2996 0134 C9       		leave
 2997              		.cfi_def_cfa 7, 8
 2998 0135 C3       		ret
 2999              		.cfi_endproc
 3000              	.LFE1193:
 3001              		.section	.gcc_except_table
 3002              	.LLSDA1193:
 3003 0281 FF       		.byte	0xff
 3004 0282 FF       		.byte	0xff
 3005 0283 01       		.byte	0x1
 3006 0284 13       		.uleb128 .LLSDACSE1193-.LLSDACSB1193
 3007              	.LLSDACSB1193:
 3008 0285 5F       		.uleb128 .LEHB114-.LFB1193
 3009 0286 05       		.uleb128 .LEHE114-.LEHB114
 3010 0287 00       		.uleb128 0
 3011 0288 00       		.uleb128 0
 3012 0289 78       		.uleb128 .LEHB115-.LFB1193
 3013 028a 71       		.uleb128 .LEHE115-.LEHB115
 3014 028b FA01     		.uleb128 .L151-.LFB1193
 3015 028d 00       		.uleb128 0
 3016 028e F301     		.uleb128 .LEHB116-.LFB1193
 3017 0290 05       		.uleb128 .LEHE116-.LEHB116
 3018 0291 00       		.uleb128 0
 3019 0292 00       		.uleb128 0
 3020 0293 9602     		.uleb128 .LEHB117-.LFB1193
 3021 0295 05       		.uleb128 .LEHE117-.LEHB117
 3022 0296 00       		.uleb128 0
 3023 0297 00       		.uleb128 0
 3024              	.LLSDACSE1193:
 3025              		.section	.text._ZN8UnitTest10CheckEqualI9I2CStatusS1_EEvRNS_11TestResultsERKT_RKT0_RKNS_11TestDeta
 3027              		.section	.text._ZN8UnitTest10CheckEqualImmEEvRNS_11TestResultsERKT_RKT0_RKNS_11TestDetailsE,"axG",
 3028              		.weak	_ZN8UnitTest10CheckEqualImmEEvRNS_11TestResultsERKT_RKT0_RKNS_11TestDetailsE
 3030              	_ZN8UnitTest10CheckEqualImmEEvRNS_11TestResultsERKT_RKT0_RKNS_11TestDetailsE:
 3031              	.LFB1194:
  19:/home/pong/FPGALink/makestuff/libs/libutpp/Checks.h **** {
 3032              		.loc 4 19 6
 3033              		.cfi_startproc
 3034              		.cfi_personality 0x9b,DW.ref.__gxx_personality_v0
 3035              		.cfi_lsda 0x1b,.LLSDA1194
 3036 0000 F30F1EFA 		endbr64
 3037 0004 55       		pushq	%rbp
 3038              		.cfi_def_cfa_offset 16
 3039              		.cfi_offset 6, -16
 3040 0005 4889E5   		movq	%rsp, %rbp
 3041              		.cfi_def_cfa_register 6
 3042 0008 53       		pushq	%rbx
 3043 0009 4881ECC8 		subq	$456, %rsp
 3043      010000
 3044              		.cfi_offset 3, -24
 3045 0010 4889BD48 		movq	%rdi, -440(%rbp)
 3045      FEFFFF
 3046 0017 4889B540 		movq	%rsi, -448(%rbp)
 3046      FEFFFF
 3047 001e 48899538 		movq	%rdx, -456(%rbp)
 3047      FEFFFF
 3048 0025 48898D30 		movq	%rcx, -464(%rbp)
 3048      FEFFFF
  19:/home/pong/FPGALink/makestuff/libs/libutpp/Checks.h **** {
 3049              		.loc 4 19 6
 3050 002c 64488B04 		movq	%fs:40, %rax
 3050      25280000 
 3050      00
 3051 0035 488945E8 		movq	%rax, -24(%rbp)
 3052 0039 31C0     		xorl	%eax, %eax
 3053              	.LBB18:
  21:/home/pong/FPGALink/makestuff/libs/libutpp/Checks.h ****     {
 3054              		.loc 4 21 20
 3055 003b 488B8540 		movq	-448(%rbp), %rax
 3055      FEFFFF
 3056 0042 488B10   		movq	(%rax), %rdx
 3057 0045 488B8538 		movq	-456(%rbp), %rax
 3057      FEFFFF
 3058 004c 488B00   		movq	(%rax), %rax
  21:/home/pong/FPGALink/makestuff/libs/libutpp/Checks.h ****     {
 3059              		.loc 4 21 5
 3060 004f 4839C2   		cmpq	%rax, %rdx
 3061 0052 0F84CA00 		je	.L158
 3061      0000
 3062              	.LBB19:
  23:/home/pong/FPGALink/makestuff/libs/libutpp/Checks.h ****         stream << "Expected " << expected << " but was " << actual;
 3063              		.loc 4 23 35
 3064 0058 488D8550 		leaq	-432(%rbp), %rax
 3064      FEFFFF
 3065 005f 4889C7   		movq	%rax, %rdi
 3066              	.LEHB118:
 3067 0062 E8000000 		call	_ZN8UnitTest15MemoryOutStreamC1Ev
 3067      00
 3068              	.LEHE118:
  24:/home/pong/FPGALink/makestuff/libs/libutpp/Checks.h **** 
 3069              		.loc 4 24 16
 3070 0067 488D8550 		leaq	-432(%rbp), %rax
 3070      FEFFFF
 3071 006e 488D1500 		leaq	.LC13(%rip), %rdx
 3071      000000
 3072 0075 4889D6   		movq	%rdx, %rsi
 3073 0078 4889C7   		movq	%rax, %rdi
 3074              	.LEHB119:
 3075 007b E8000000 		call	_ZStlsISt11char_traitsIcEERSt13basic_ostreamIcT_ES5_PKc@PLT
 3075      00
 3076 0080 4889C2   		movq	%rax, %rdx
  24:/home/pong/FPGALink/makestuff/libs/libutpp/Checks.h **** 
 3077              		.loc 4 24 31
 3078 0083 488B8540 		movq	-448(%rbp), %rax
 3078      FEFFFF
 3079 008a 488B00   		movq	(%rax), %rax
 3080 008d 4889C6   		movq	%rax, %rsi
 3081 0090 4889D7   		movq	%rdx, %rdi
 3082 0093 E8000000 		call	_ZNSolsEm@PLT
 3082      00
  24:/home/pong/FPGALink/makestuff/libs/libutpp/Checks.h **** 
 3083              		.loc 4 24 31 is_stmt 0 discriminator 1
 3084 0098 4889C2   		movq	%rax, %rdx
  24:/home/pong/FPGALink/makestuff/libs/libutpp/Checks.h **** 
 3085              		.loc 4 24 43 is_stmt 1 discriminator 1
 3086 009b 488D0500 		leaq	.LC14(%rip), %rax
 3086      000000
 3087 00a2 4889C6   		movq	%rax, %rsi
 3088 00a5 4889D7   		movq	%rdx, %rdi
 3089 00a8 E8000000 		call	_ZStlsISt11char_traitsIcEERSt13basic_ostreamIcT_ES5_PKc@PLT
 3089      00
  24:/home/pong/FPGALink/makestuff/libs/libutpp/Checks.h **** 
 3090              		.loc 4 24 43 is_stmt 0 discriminator 2
 3091 00ad 4889C2   		movq	%rax, %rdx
  24:/home/pong/FPGALink/makestuff/libs/libutpp/Checks.h **** 
 3092              		.loc 4 24 58 is_stmt 1 discriminator 2
 3093 00b0 488B8538 		movq	-456(%rbp), %rax
 3093      FEFFFF
 3094 00b7 488B00   		movq	(%rax), %rax
 3095 00ba 4889C6   		movq	%rax, %rsi
 3096 00bd 4889D7   		movq	%rdx, %rdi
 3097 00c0 E8000000 		call	_ZNSolsEm@PLT
 3097      00
  26:/home/pong/FPGALink/makestuff/libs/libutpp/Checks.h ****     }
 3098              		.loc 4 26 30
 3099 00c5 488D8550 		leaq	-432(%rbp), %rax
 3099      FEFFFF
 3100 00cc 4889C7   		movq	%rax, %rdi
 3101 00cf E8000000 		call	_ZNK8UnitTest15MemoryOutStream7GetTextEv@PLT
 3101      00
 3102 00d4 4889C2   		movq	%rax, %rdx
 3103 00d7 488B8D30 		movq	-464(%rbp), %rcx
 3103      FEFFFF
 3104 00de 488B8548 		movq	-440(%rbp), %rax
 3104      FEFFFF
 3105 00e5 4889CE   		movq	%rcx, %rsi
 3106 00e8 4889C7   		movq	%rax, %rdi
 3107 00eb E8000000 		call	_ZN8UnitTest11TestResults13OnTestFailureERKNS_11TestDetailsEPKc@PLT
 3107      00
 3108              	.LEHE119:
  27:/home/pong/FPGALink/makestuff/libs/libutpp/Checks.h **** }
 3109              		.loc 4 27 5
 3110 00f0 488D8550 		leaq	-432(%rbp), %rax
 3110      FEFFFF
 3111 00f7 4889C7   		movq	%rax, %rdi
 3112              	.LEHB120:
 3113 00fa E8000000 		call	_ZN8UnitTest15MemoryOutStreamD1Ev
 3113      00
 3114              	.LEHE120:
 3115              	.LBE19:
 3116              	.LBE18:
 3117              		.loc 4 28 1
 3118 00ff EB21     		jmp	.L158
 3119              	.L157:
 3120 0101 F30F1EFA 		endbr64
 3121              	.LBB21:
 3122              	.LBB20:
  27:/home/pong/FPGALink/makestuff/libs/libutpp/Checks.h **** }
 3123              		.loc 4 27 5
 3124 0105 4889C3   		movq	%rax, %rbx
 3125 0108 488D8550 		leaq	-432(%rbp), %rax
 3125      FEFFFF
 3126 010f 4889C7   		movq	%rax, %rdi
 3127 0112 E8000000 		call	_ZN8UnitTest15MemoryOutStreamD1Ev
 3127      00
 3128 0117 4889D8   		movq	%rbx, %rax
 3129 011a 4889C7   		movq	%rax, %rdi
 3130              	.LEHB121:
 3131 011d E8000000 		call	_Unwind_Resume@PLT
 3131      00
 3132              	.LEHE121:
 3133              	.L158:
 3134              	.LBE20:
 3135              	.LBE21:
 3136              		.loc 4 28 1
 3137 0122 90       		nop
 3138 0123 488B45E8 		movq	-24(%rbp), %rax
 3139 0127 64482B04 		subq	%fs:40, %rax
 3139      25280000 
 3139      00
 3140 0130 7405     		je	.L156
 3141 0132 E8000000 		call	__stack_chk_fail@PLT
 3141      00
 3142              	.L156:
 3143 0137 488B5DF8 		movq	-8(%rbp), %rbx
 3144 013b C9       		leave
 3145              		.cfi_def_cfa 7, 8
 3146 013c C3       		ret
 3147              		.cfi_endproc
 3148              	.LFE1194:
 3149              		.section	.gcc_except_table
 3150              	.LLSDA1194:
 3151 0298 FF       		.byte	0xff
 3152 0299 FF       		.byte	0xff
 3153 029a 01       		.byte	0x1
 3154 029b 13       		.uleb128 .LLSDACSE1194-.LLSDACSB1194
 3155              	.LLSDACSB1194:
 3156 029c 62       		.uleb128 .LEHB118-.LFB1194
 3157 029d 05       		.uleb128 .LEHE118-.LEHB118
 3158 029e 00       		.uleb128 0
 3159 029f 00       		.uleb128 0
 3160 02a0 7B       		.uleb128 .LEHB119-.LFB1194
 3161 02a1 75       		.uleb128 .LEHE119-.LEHB119
 3162 02a2 8102     		.uleb128 .L157-.LFB1194
 3163 02a4 00       		.uleb128 0
 3164 02a5 FA01     		.uleb128 .LEHB120-.LFB1194
 3165 02a7 05       		.uleb128 .LEHE120-.LEHB120
 3166 02a8 00       		.uleb128 0
 3167 02a9 00       		.uleb128 0
 3168 02aa 9D02     		.uleb128 .LEHB121-.LFB1194
 3169 02ac 05       		.uleb128 .LEHE121-.LEHB121
 3170 02ad 00       		.uleb128 0
 3171 02ae 00       		.uleb128 0
 3172              	.LLSDACSE1194:
 3173              		.section	.text._ZN8UnitTest10CheckEqualImmEEvRNS_11TestResultsERKT_RKT0_RKNS_11TestDetailsE,"axG",
 3175              		.section	.rodata
 3176              	.LC15:
 3177 024c 45787065 		.string	"Expected [ "
 3177      63746564 
 3177      205B2000 
 3178              	.LC16:
 3179 0258 2000     		.string	" "
 3180              	.LC17:
 3181 025a 5D206275 		.string	"] but was [ "
 3181      74207761 
 3181      73205B20 
 3181      00
 3182              	.LC18:
 3183 0267 5D00     		.string	"]"
 3184              		.section	.text._ZN8UnitTest15CheckArrayEqualIA13_hPhEEvRNS_11TestResultsERKT_RKT0_iRKNS_11TestDeta
 3185              		.weak	_ZN8UnitTest15CheckArrayEqualIA13_hPhEEvRNS_11TestResultsERKT_RKT0_iRKNS_11TestDetailsE
 3187              	_ZN8UnitTest15CheckArrayEqualIA13_hPhEEvRNS_11TestResultsERKT_RKT0_iRKNS_11TestDetailsE:
 3188              	.LFB1195:
  29:/home/pong/FPGALink/makestuff/libs/libutpp/Checks.h **** 
  30:/home/pong/FPGALink/makestuff/libs/libutpp/Checks.h **** void CheckEqual(TestResults& results, char const* expected, char const* actual, TestDetails const& 
  31:/home/pong/FPGALink/makestuff/libs/libutpp/Checks.h **** 
  32:/home/pong/FPGALink/makestuff/libs/libutpp/Checks.h **** void CheckEqual(TestResults& results, char* expected, char* actual, TestDetails const& details);
  33:/home/pong/FPGALink/makestuff/libs/libutpp/Checks.h **** 
  34:/home/pong/FPGALink/makestuff/libs/libutpp/Checks.h **** void CheckEqual(TestResults& results, char* expected, char const* actual, TestDetails const& detail
  35:/home/pong/FPGALink/makestuff/libs/libutpp/Checks.h **** 
  36:/home/pong/FPGALink/makestuff/libs/libutpp/Checks.h **** void CheckEqual(TestResults& results, char const* expected, char* actual, TestDetails const& detail
  37:/home/pong/FPGALink/makestuff/libs/libutpp/Checks.h **** 
  38:/home/pong/FPGALink/makestuff/libs/libutpp/Checks.h **** template< typename Expected, typename Actual, typename Tolerance >
  39:/home/pong/FPGALink/makestuff/libs/libutpp/Checks.h **** bool AreClose(Expected const& expected, Actual const& actual, Tolerance const& tolerance)
  40:/home/pong/FPGALink/makestuff/libs/libutpp/Checks.h **** {
  41:/home/pong/FPGALink/makestuff/libs/libutpp/Checks.h ****     return (actual >= (expected - tolerance)) && (actual <= (expected + tolerance));
  42:/home/pong/FPGALink/makestuff/libs/libutpp/Checks.h **** }
  43:/home/pong/FPGALink/makestuff/libs/libutpp/Checks.h **** 
  44:/home/pong/FPGALink/makestuff/libs/libutpp/Checks.h **** template< typename Expected, typename Actual, typename Tolerance >
  45:/home/pong/FPGALink/makestuff/libs/libutpp/Checks.h **** void CheckClose(TestResults& results, Expected const& expected, Actual const& actual, Tolerance con
  46:/home/pong/FPGALink/makestuff/libs/libutpp/Checks.h ****                 TestDetails const& details)
  47:/home/pong/FPGALink/makestuff/libs/libutpp/Checks.h **** {
  48:/home/pong/FPGALink/makestuff/libs/libutpp/Checks.h ****     if (!AreClose(expected, actual, tolerance))
  49:/home/pong/FPGALink/makestuff/libs/libutpp/Checks.h ****     { 
  50:/home/pong/FPGALink/makestuff/libs/libutpp/Checks.h ****         UnitTest::MemoryOutStream stream;
  51:/home/pong/FPGALink/makestuff/libs/libutpp/Checks.h ****         stream << "Expected " << expected << " +/- " << tolerance << " but was " << actual;
  52:/home/pong/FPGALink/makestuff/libs/libutpp/Checks.h **** 
  53:/home/pong/FPGALink/makestuff/libs/libutpp/Checks.h ****         results.OnTestFailure(details, stream.GetText());
  54:/home/pong/FPGALink/makestuff/libs/libutpp/Checks.h ****     }
  55:/home/pong/FPGALink/makestuff/libs/libutpp/Checks.h **** }
  56:/home/pong/FPGALink/makestuff/libs/libutpp/Checks.h **** 
  57:/home/pong/FPGALink/makestuff/libs/libutpp/Checks.h **** 
  58:/home/pong/FPGALink/makestuff/libs/libutpp/Checks.h **** template< typename Expected, typename Actual >
  59:/home/pong/FPGALink/makestuff/libs/libutpp/Checks.h **** void CheckArrayEqual(TestResults& results, Expected const& expected, Actual const& actual,
 3189              		.loc 4 59 6
 3190              		.cfi_startproc
 3191              		.cfi_personality 0x9b,DW.ref.__gxx_personality_v0
 3192              		.cfi_lsda 0x1b,.LLSDA1195
 3193 0000 F30F1EFA 		endbr64
 3194 0004 55       		pushq	%rbp
 3195              		.cfi_def_cfa_offset 16
 3196              		.cfi_offset 6, -16
 3197 0005 4889E5   		movq	%rsp, %rbp
 3198              		.cfi_def_cfa_register 6
 3199 0008 53       		pushq	%rbx
 3200 0009 4881ECE8 		subq	$488, %rsp
 3200      010000
 3201              		.cfi_offset 3, -24
 3202 0010 4889BD38 		movq	%rdi, -456(%rbp)
 3202      FEFFFF
 3203 0017 4889B530 		movq	%rsi, -464(%rbp)
 3203      FEFFFF
 3204 001e 48899528 		movq	%rdx, -472(%rbp)
 3204      FEFFFF
 3205 0025 898D24FE 		movl	%ecx, -476(%rbp)
 3205      FFFF
 3206 002b 4C898518 		movq	%r8, -488(%rbp)
 3206      FEFFFF
 3207              		.loc 4 59 6
 3208 0032 64488B04 		movq	%fs:40, %rax
 3208      25280000 
 3208      00
 3209 003b 488945E8 		movq	%rax, -24(%rbp)
 3210 003f 31C0     		xorl	%eax, %eax
  60:/home/pong/FPGALink/makestuff/libs/libutpp/Checks.h ****                 int const count, TestDetails const& details)
  61:/home/pong/FPGALink/makestuff/libs/libutpp/Checks.h **** {
  62:/home/pong/FPGALink/makestuff/libs/libutpp/Checks.h ****     bool equal = true;
 3211              		.loc 4 62 10
 3212 0041 C68543FE 		movb	$1, -445(%rbp)
 3212      FFFF01
 3213              	.LBB22:
  63:/home/pong/FPGALink/makestuff/libs/libutpp/Checks.h ****     for (int i = 0; i < count; ++i)
 3214              		.loc 4 63 14
 3215 0048 C78544FE 		movl	$0, -444(%rbp)
 3215      FFFF0000 
 3215      0000
 3216              		.loc 4 63 5
 3217 0052 EB4E     		jmp	.L160
 3218              	.L161:
  64:/home/pong/FPGALink/makestuff/libs/libutpp/Checks.h ****         equal &= (expected[i] == actual[i]);
 3219              		.loc 4 64 15 discriminator 3
 3220 0054 0FB68D43 		movzbl	-445(%rbp), %ecx
 3220      FEFFFF
 3221              		.loc 4 64 27 discriminator 3
 3222 005b 488B9530 		movq	-464(%rbp), %rdx
 3222      FEFFFF
 3223 0062 8B8544FE 		movl	-444(%rbp), %eax
 3223      FFFF
 3224 0068 4898     		cltq
 3225 006a 0FB61402 		movzbl	(%rdx,%rax), %edx
 3226              		.loc 4 64 40 discriminator 3
 3227 006e 488B8528 		movq	-472(%rbp), %rax
 3227      FEFFFF
 3228 0075 488B30   		movq	(%rax), %rsi
 3229              		.loc 4 64 41 discriminator 3
 3230 0078 8B8544FE 		movl	-444(%rbp), %eax
 3230      FFFF
 3231 007e 4898     		cltq
 3232              		.loc 4 64 40 discriminator 3
 3233 0080 4801F0   		addq	%rsi, %rax
 3234              		.loc 4 64 31 discriminator 3
 3235 0083 0FB600   		movzbl	(%rax), %eax
 3236 0086 38C2     		cmpb	%al, %dl
 3237 0088 0F94C0   		sete	%al
 3238 008b 0FB6C0   		movzbl	%al, %eax
 3239              		.loc 4 64 15 discriminator 3
 3240 008e 21C8     		andl	%ecx, %eax
 3241 0090 85C0     		testl	%eax, %eax
 3242 0092 0F95C0   		setne	%al
 3243 0095 888543FE 		movb	%al, -445(%rbp)
 3243      FFFF
  63:/home/pong/FPGALink/makestuff/libs/libutpp/Checks.h ****     for (int i = 0; i < count; ++i)
 3244              		.loc 4 63 5 discriminator 3
 3245 009b 838544FE 		addl	$1, -444(%rbp)
 3245      FFFF01
 3246              	.L160:
  63:/home/pong/FPGALink/makestuff/libs/libutpp/Checks.h ****     for (int i = 0; i < count; ++i)
 3247              		.loc 4 63 23 discriminator 1
 3248 00a2 8B8544FE 		movl	-444(%rbp), %eax
 3248      FFFF
 3249 00a8 3B8524FE 		cmpl	-476(%rbp), %eax
 3249      FFFF
 3250 00ae 7CA4     		jl	.L161
 3251              	.LBE22:
 3252              	.LBB23:
  65:/home/pong/FPGALink/makestuff/libs/libutpp/Checks.h **** 
  66:/home/pong/FPGALink/makestuff/libs/libutpp/Checks.h ****     if (!equal)
 3253              		.loc 4 66 10
 3254 00b0 0FB68543 		movzbl	-445(%rbp), %eax
 3254      FEFFFF
 3255 00b7 83F001   		xorl	$1, %eax
 3256              		.loc 4 66 5
 3257 00ba 84C0     		testb	%al, %al
 3258 00bc 0F847601 		je	.L170
 3258      0000
 3259              	.LBB24:
  67:/home/pong/FPGALink/makestuff/libs/libutpp/Checks.h ****     {
  68:/home/pong/FPGALink/makestuff/libs/libutpp/Checks.h ****         UnitTest::MemoryOutStream stream;
 3260              		.loc 4 68 35
 3261 00c2 488D8550 		leaq	-432(%rbp), %rax
 3261      FEFFFF
 3262 00c9 4889C7   		movq	%rax, %rdi
 3263              	.LEHB122:
 3264 00cc E8000000 		call	_ZN8UnitTest15MemoryOutStreamC1Ev
 3264      00
 3265              	.LEHE122:
  69:/home/pong/FPGALink/makestuff/libs/libutpp/Checks.h **** 
  70:/home/pong/FPGALink/makestuff/libs/libutpp/Checks.h **** 		stream << "Expected [ ";
 3266              		.loc 4 70 10
 3267 00d1 488D8550 		leaq	-432(%rbp), %rax
 3267      FEFFFF
 3268 00d8 488D1500 		leaq	.LC15(%rip), %rdx
 3268      000000
 3269 00df 4889D6   		movq	%rdx, %rsi
 3270 00e2 4889C7   		movq	%rax, %rdi
 3271              	.LEHB123:
 3272 00e5 E8000000 		call	_ZStlsISt11char_traitsIcEERSt13basic_ostreamIcT_ES5_PKc@PLT
 3272      00
 3273              	.LBB25:
  71:/home/pong/FPGALink/makestuff/libs/libutpp/Checks.h **** 
  72:/home/pong/FPGALink/makestuff/libs/libutpp/Checks.h **** 		for (int expectedIndex = 0; expectedIndex < count; ++expectedIndex)
 3274              		.loc 4 72 12
 3275 00ea C78548FE 		movl	$0, -440(%rbp)
 3275      FFFF0000 
 3275      0000
 3276              		.loc 4 72 3
 3277 00f4 EB43     		jmp	.L163
 3278              	.L164:
  73:/home/pong/FPGALink/makestuff/libs/libutpp/Checks.h ****             stream << expected[expectedIndex] << " ";
 3279              		.loc 4 73 31
 3280 00f6 488B9530 		movq	-464(%rbp), %rdx
 3280      FEFFFF
 3281 00fd 8B8548FE 		movl	-440(%rbp), %eax
 3281      FFFF
 3282 0103 4898     		cltq
 3283 0105 0FB60402 		movzbl	(%rdx,%rax), %eax
 3284              		.loc 4 73 47
 3285 0109 0FB6D0   		movzbl	%al, %edx
 3286 010c 488D8550 		leaq	-432(%rbp), %rax
 3286      FEFFFF
 3287 0113 89D6     		movl	%edx, %esi
 3288 0115 4889C7   		movq	%rax, %rdi
 3289 0118 E8000000 		call	_ZStlsISt11char_traitsIcEERSt13basic_ostreamIcT_ES5_h@PLT
 3289      00
 3290 011d 4889C2   		movq	%rax, %rdx
 3291 0120 488D0500 		leaq	.LC16(%rip), %rax
 3291      000000
 3292 0127 4889C6   		movq	%rax, %rsi
 3293 012a 4889D7   		movq	%rdx, %rdi
 3294 012d E8000000 		call	_ZStlsISt11char_traitsIcEERSt13basic_ostreamIcT_ES5_PKc@PLT
 3294      00
  72:/home/pong/FPGALink/makestuff/libs/libutpp/Checks.h ****             stream << expected[expectedIndex] << " ";
 3295              		.loc 4 72 3 discriminator 2
 3296 0132 838548FE 		addl	$1, -440(%rbp)
 3296      FFFF01
 3297              	.L163:
  72:/home/pong/FPGALink/makestuff/libs/libutpp/Checks.h ****             stream << expected[expectedIndex] << " ";
 3298              		.loc 4 72 45 discriminator 1
 3299 0139 8B8548FE 		movl	-440(%rbp), %eax
 3299      FFFF
 3300 013f 3B8524FE 		cmpl	-476(%rbp), %eax
 3300      FFFF
 3301 0145 7CAF     		jl	.L164
 3302              	.LBE25:
  74:/home/pong/FPGALink/makestuff/libs/libutpp/Checks.h **** 
  75:/home/pong/FPGALink/makestuff/libs/libutpp/Checks.h **** 		stream << "] but was [ ";
 3303              		.loc 4 75 10
 3304 0147 488D8550 		leaq	-432(%rbp), %rax
 3304      FEFFFF
 3305 014e 488D1500 		leaq	.LC17(%rip), %rdx
 3305      000000
 3306 0155 4889D6   		movq	%rdx, %rsi
 3307 0158 4889C7   		movq	%rax, %rdi
 3308 015b E8000000 		call	_ZStlsISt11char_traitsIcEERSt13basic_ostreamIcT_ES5_PKc@PLT
 3308      00
 3309              	.LBB26:
  76:/home/pong/FPGALink/makestuff/libs/libutpp/Checks.h **** 
  77:/home/pong/FPGALink/makestuff/libs/libutpp/Checks.h **** 		for (int actualIndex = 0; actualIndex < count; ++actualIndex)
 3310              		.loc 4 77 12
 3311 0160 C7854CFE 		movl	$0, -436(%rbp)
 3311      FFFF0000 
 3311      0000
 3312              		.loc 4 77 3
 3313 016a EB48     		jmp	.L165
 3314              	.L166:
  78:/home/pong/FPGALink/makestuff/libs/libutpp/Checks.h ****             stream << actual[actualIndex] << " ";
 3315              		.loc 4 78 29
 3316 016c 488B8528 		movq	-472(%rbp), %rax
 3316      FEFFFF
 3317 0173 488B10   		movq	(%rax), %rdx
 3318              		.loc 4 78 30
 3319 0176 8B854CFE 		movl	-436(%rbp), %eax
 3319      FFFF
 3320 017c 4898     		cltq
 3321              		.loc 4 78 29
 3322 017e 4801D0   		addq	%rdx, %rax
 3323 0181 0FB600   		movzbl	(%rax), %eax
 3324              		.loc 4 78 43
 3325 0184 0FB6D0   		movzbl	%al, %edx
 3326 0187 488D8550 		leaq	-432(%rbp), %rax
 3326      FEFFFF
 3327 018e 89D6     		movl	%edx, %esi
 3328 0190 4889C7   		movq	%rax, %rdi
 3329 0193 E8000000 		call	_ZStlsISt11char_traitsIcEERSt13basic_ostreamIcT_ES5_h@PLT
 3329      00
 3330 0198 4889C2   		movq	%rax, %rdx
 3331 019b 488D0500 		leaq	.LC16(%rip), %rax
 3331      000000
 3332 01a2 4889C6   		movq	%rax, %rsi
 3333 01a5 4889D7   		movq	%rdx, %rdi
 3334 01a8 E8000000 		call	_ZStlsISt11char_traitsIcEERSt13basic_ostreamIcT_ES5_PKc@PLT
 3334      00
  77:/home/pong/FPGALink/makestuff/libs/libutpp/Checks.h ****             stream << actual[actualIndex] << " ";
 3335              		.loc 4 77 3 discriminator 2
 3336 01ad 83854CFE 		addl	$1, -436(%rbp)
 3336      FFFF01
 3337              	.L165:
  77:/home/pong/FPGALink/makestuff/libs/libutpp/Checks.h ****             stream << actual[actualIndex] << " ";
 3338              		.loc 4 77 41 discriminator 1
 3339 01b4 8B854CFE 		movl	-436(%rbp), %eax
 3339      FFFF
 3340 01ba 3B8524FE 		cmpl	-476(%rbp), %eax
 3340      FFFF
 3341 01c0 7CAA     		jl	.L166
 3342              	.LBE26:
  79:/home/pong/FPGALink/makestuff/libs/libutpp/Checks.h **** 
  80:/home/pong/FPGALink/makestuff/libs/libutpp/Checks.h **** 		stream << "]";
 3343              		.loc 4 80 10
 3344 01c2 488D8550 		leaq	-432(%rbp), %rax
 3344      FEFFFF
 3345 01c9 488D1500 		leaq	.LC18(%rip), %rdx
 3345      000000
 3346 01d0 4889D6   		movq	%rdx, %rsi
 3347 01d3 4889C7   		movq	%rax, %rdi
 3348 01d6 E8000000 		call	_ZStlsISt11char_traitsIcEERSt13basic_ostreamIcT_ES5_PKc@PLT
 3348      00
  81:/home/pong/FPGALink/makestuff/libs/libutpp/Checks.h **** 
  82:/home/pong/FPGALink/makestuff/libs/libutpp/Checks.h ****         results.OnTestFailure(details, stream.GetText());
 3349              		.loc 4 82 30
 3350 01db 488D8550 		leaq	-432(%rbp), %rax
 3350      FEFFFF
 3351 01e2 4889C7   		movq	%rax, %rdi
 3352 01e5 E8000000 		call	_ZNK8UnitTest15MemoryOutStream7GetTextEv@PLT
 3352      00
 3353 01ea 4889C2   		movq	%rax, %rdx
 3354 01ed 488B8D18 		movq	-488(%rbp), %rcx
 3354      FEFFFF
 3355 01f4 488B8538 		movq	-456(%rbp), %rax
 3355      FEFFFF
 3356 01fb 4889CE   		movq	%rcx, %rsi
 3357 01fe 4889C7   		movq	%rax, %rdi
 3358 0201 E8000000 		call	_ZN8UnitTest11TestResults13OnTestFailureERKNS_11TestDetailsEPKc@PLT
 3358      00
 3359              	.LEHE123:
  83:/home/pong/FPGALink/makestuff/libs/libutpp/Checks.h ****     }
 3360              		.loc 4 83 5
 3361 0206 488D8550 		leaq	-432(%rbp), %rax
 3361      FEFFFF
 3362 020d 4889C7   		movq	%rax, %rdi
 3363              	.LEHB124:
 3364 0210 E8000000 		call	_ZN8UnitTest15MemoryOutStreamD1Ev
 3364      00
 3365              	.LEHE124:
 3366              	.LBE24:
 3367              	.LBE23:
  84:/home/pong/FPGALink/makestuff/libs/libutpp/Checks.h **** }
 3368              		.loc 4 84 1
 3369 0215 EB21     		jmp	.L170
 3370              	.L169:
 3371 0217 F30F1EFA 		endbr64
 3372              	.LBB28:
 3373              	.LBB27:
  83:/home/pong/FPGALink/makestuff/libs/libutpp/Checks.h ****     }
 3374              		.loc 4 83 5
 3375 021b 4889C3   		movq	%rax, %rbx
 3376 021e 488D8550 		leaq	-432(%rbp), %rax
 3376      FEFFFF
 3377 0225 4889C7   		movq	%rax, %rdi
 3378 0228 E8000000 		call	_ZN8UnitTest15MemoryOutStreamD1Ev
 3378      00
 3379 022d 4889D8   		movq	%rbx, %rax
 3380 0230 4889C7   		movq	%rax, %rdi
 3381              	.LEHB125:
 3382 0233 E8000000 		call	_Unwind_Resume@PLT
 3382      00
 3383              	.LEHE125:
 3384              	.L170:
 3385              	.LBE27:
 3386              	.LBE28:
 3387              		.loc 4 84 1
 3388 0238 90       		nop
 3389 0239 488B45E8 		movq	-24(%rbp), %rax
 3390 023d 64482B04 		subq	%fs:40, %rax
 3390      25280000 
 3390      00
 3391 0246 7405     		je	.L168
 3392 0248 E8000000 		call	__stack_chk_fail@PLT
 3392      00
 3393              	.L168:
 3394 024d 488B5DF8 		movq	-8(%rbp), %rbx
 3395 0251 C9       		leave
 3396              		.cfi_def_cfa 7, 8
 3397 0252 C3       		ret
 3398              		.cfi_endproc
 3399              	.LFE1195:
 3400              		.section	.gcc_except_table
 3401              	.LLSDA1195:
 3402 02af FF       		.byte	0xff
 3403 02b0 FF       		.byte	0xff
 3404 02b1 01       		.byte	0x1
 3405 02b2 16       		.uleb128 .LLSDACSE1195-.LLSDACSB1195
 3406              	.LLSDACSB1195:
 3407 02b3 CC01     		.uleb128 .LEHB122-.LFB1195
 3408 02b5 05       		.uleb128 .LEHE122-.LEHB122
 3409 02b6 00       		.uleb128 0
 3410 02b7 00       		.uleb128 0
 3411 02b8 E501     		.uleb128 .LEHB123-.LFB1195
 3412 02ba A102     		.uleb128 .LEHE123-.LEHB123
 3413 02bc 9704     		.uleb128 .L169-.LFB1195
 3414 02be 00       		.uleb128 0
 3415 02bf 9004     		.uleb128 .LEHB124-.LFB1195
 3416 02c1 05       		.uleb128 .LEHE124-.LEHB124
 3417 02c2 00       		.uleb128 0
 3418 02c3 00       		.uleb128 0
 3419 02c4 B304     		.uleb128 .LEHB125-.LFB1195
 3420 02c6 05       		.uleb128 .LEHE125-.LEHB125
 3421 02c7 00       		.uleb128 0
 3422 02c8 00       		.uleb128 0
 3423              	.LLSDACSE1195:
 3424              		.section	.text._ZN8UnitTest15CheckArrayEqualIA13_hPhEEvRNS_11TestResultsERKT_RKT0_iRKNS_11TestDeta
 3426              		.section	.text._ZN8UnitTest15CheckArrayEqualIA16_hPhEEvRNS_11TestResultsERKT_RKT0_iRKNS_11TestDeta
 3427              		.weak	_ZN8UnitTest15CheckArrayEqualIA16_hPhEEvRNS_11TestResultsERKT_RKT0_iRKNS_11TestDetailsE
 3429              	_ZN8UnitTest15CheckArrayEqualIA16_hPhEEvRNS_11TestResultsERKT_RKT0_iRKNS_11TestDetailsE:
 3430              	.LFB1196:
  59:/home/pong/FPGALink/makestuff/libs/libutpp/Checks.h ****                 int const count, TestDetails const& details)
 3431              		.loc 4 59 6
 3432              		.cfi_startproc
 3433              		.cfi_personality 0x9b,DW.ref.__gxx_personality_v0
 3434              		.cfi_lsda 0x1b,.LLSDA1196
 3435 0000 F30F1EFA 		endbr64
 3436 0004 55       		pushq	%rbp
 3437              		.cfi_def_cfa_offset 16
 3438              		.cfi_offset 6, -16
 3439 0005 4889E5   		movq	%rsp, %rbp
 3440              		.cfi_def_cfa_register 6
 3441 0008 53       		pushq	%rbx
 3442 0009 4881ECE8 		subq	$488, %rsp
 3442      010000
 3443              		.cfi_offset 3, -24
 3444 0010 4889BD38 		movq	%rdi, -456(%rbp)
 3444      FEFFFF
 3445 0017 4889B530 		movq	%rsi, -464(%rbp)
 3445      FEFFFF
 3446 001e 48899528 		movq	%rdx, -472(%rbp)
 3446      FEFFFF
 3447 0025 898D24FE 		movl	%ecx, -476(%rbp)
 3447      FFFF
 3448 002b 4C898518 		movq	%r8, -488(%rbp)
 3448      FEFFFF
  59:/home/pong/FPGALink/makestuff/libs/libutpp/Checks.h ****                 int const count, TestDetails const& details)
 3449              		.loc 4 59 6
 3450 0032 64488B04 		movq	%fs:40, %rax
 3450      25280000 
 3450      00
 3451 003b 488945E8 		movq	%rax, -24(%rbp)
 3452 003f 31C0     		xorl	%eax, %eax
  62:/home/pong/FPGALink/makestuff/libs/libutpp/Checks.h ****     for (int i = 0; i < count; ++i)
 3453              		.loc 4 62 10
 3454 0041 C68543FE 		movb	$1, -445(%rbp)
 3454      FFFF01
 3455              	.LBB29:
  63:/home/pong/FPGALink/makestuff/libs/libutpp/Checks.h ****         equal &= (expected[i] == actual[i]);
 3456              		.loc 4 63 14
 3457 0048 C78544FE 		movl	$0, -444(%rbp)
 3457      FFFF0000 
 3457      0000
  63:/home/pong/FPGALink/makestuff/libs/libutpp/Checks.h ****         equal &= (expected[i] == actual[i]);
 3458              		.loc 4 63 5
 3459 0052 EB4E     		jmp	.L172
 3460              	.L173:
  64:/home/pong/FPGALink/makestuff/libs/libutpp/Checks.h **** 
 3461              		.loc 4 64 15 discriminator 3
 3462 0054 0FB68D43 		movzbl	-445(%rbp), %ecx
 3462      FEFFFF
  64:/home/pong/FPGALink/makestuff/libs/libutpp/Checks.h **** 
 3463              		.loc 4 64 27 discriminator 3
 3464 005b 488B9530 		movq	-464(%rbp), %rdx
 3464      FEFFFF
 3465 0062 8B8544FE 		movl	-444(%rbp), %eax
 3465      FFFF
 3466 0068 4898     		cltq
 3467 006a 0FB61402 		movzbl	(%rdx,%rax), %edx
  64:/home/pong/FPGALink/makestuff/libs/libutpp/Checks.h **** 
 3468              		.loc 4 64 40 discriminator 3
 3469 006e 488B8528 		movq	-472(%rbp), %rax
 3469      FEFFFF
 3470 0075 488B30   		movq	(%rax), %rsi
  64:/home/pong/FPGALink/makestuff/libs/libutpp/Checks.h **** 
 3471              		.loc 4 64 41 discriminator 3
 3472 0078 8B8544FE 		movl	-444(%rbp), %eax
 3472      FFFF
 3473 007e 4898     		cltq
  64:/home/pong/FPGALink/makestuff/libs/libutpp/Checks.h **** 
 3474              		.loc 4 64 40 discriminator 3
 3475 0080 4801F0   		addq	%rsi, %rax
  64:/home/pong/FPGALink/makestuff/libs/libutpp/Checks.h **** 
 3476              		.loc 4 64 31 discriminator 3
 3477 0083 0FB600   		movzbl	(%rax), %eax
 3478 0086 38C2     		cmpb	%al, %dl
 3479 0088 0F94C0   		sete	%al
 3480 008b 0FB6C0   		movzbl	%al, %eax
  64:/home/pong/FPGALink/makestuff/libs/libutpp/Checks.h **** 
 3481              		.loc 4 64 15 discriminator 3
 3482 008e 21C8     		andl	%ecx, %eax
 3483 0090 85C0     		testl	%eax, %eax
 3484 0092 0F95C0   		setne	%al
 3485 0095 888543FE 		movb	%al, -445(%rbp)
 3485      FFFF
  63:/home/pong/FPGALink/makestuff/libs/libutpp/Checks.h ****         equal &= (expected[i] == actual[i]);
 3486              		.loc 4 63 5 discriminator 3
 3487 009b 838544FE 		addl	$1, -444(%rbp)
 3487      FFFF01
 3488              	.L172:
  63:/home/pong/FPGALink/makestuff/libs/libutpp/Checks.h ****         equal &= (expected[i] == actual[i]);
 3489              		.loc 4 63 23 discriminator 1
 3490 00a2 8B8544FE 		movl	-444(%rbp), %eax
 3490      FFFF
 3491 00a8 3B8524FE 		cmpl	-476(%rbp), %eax
 3491      FFFF
 3492 00ae 7CA4     		jl	.L173
 3493              	.LBE29:
 3494              	.LBB30:
  66:/home/pong/FPGALink/makestuff/libs/libutpp/Checks.h ****     {
 3495              		.loc 4 66 10
 3496 00b0 0FB68543 		movzbl	-445(%rbp), %eax
 3496      FEFFFF
 3497 00b7 83F001   		xorl	$1, %eax
  66:/home/pong/FPGALink/makestuff/libs/libutpp/Checks.h ****     {
 3498              		.loc 4 66 5
 3499 00ba 84C0     		testb	%al, %al
 3500 00bc 0F847601 		je	.L182
 3500      0000
 3501              	.LBB31:
  68:/home/pong/FPGALink/makestuff/libs/libutpp/Checks.h **** 
 3502              		.loc 4 68 35
 3503 00c2 488D8550 		leaq	-432(%rbp), %rax
 3503      FEFFFF
 3504 00c9 4889C7   		movq	%rax, %rdi
 3505              	.LEHB126:
 3506 00cc E8000000 		call	_ZN8UnitTest15MemoryOutStreamC1Ev
 3506      00
 3507              	.LEHE126:
  70:/home/pong/FPGALink/makestuff/libs/libutpp/Checks.h **** 
 3508              		.loc 4 70 10
 3509 00d1 488D8550 		leaq	-432(%rbp), %rax
 3509      FEFFFF
 3510 00d8 488D1500 		leaq	.LC15(%rip), %rdx
 3510      000000
 3511 00df 4889D6   		movq	%rdx, %rsi
 3512 00e2 4889C7   		movq	%rax, %rdi
 3513              	.LEHB127:
 3514 00e5 E8000000 		call	_ZStlsISt11char_traitsIcEERSt13basic_ostreamIcT_ES5_PKc@PLT
 3514      00
 3515              	.LBB32:
  72:/home/pong/FPGALink/makestuff/libs/libutpp/Checks.h ****             stream << expected[expectedIndex] << " ";
 3516              		.loc 4 72 12
 3517 00ea C78548FE 		movl	$0, -440(%rbp)
 3517      FFFF0000 
 3517      0000
  72:/home/pong/FPGALink/makestuff/libs/libutpp/Checks.h ****             stream << expected[expectedIndex] << " ";
 3518              		.loc 4 72 3
 3519 00f4 EB43     		jmp	.L175
 3520              	.L176:
  73:/home/pong/FPGALink/makestuff/libs/libutpp/Checks.h **** 
 3521              		.loc 4 73 31
 3522 00f6 488B9530 		movq	-464(%rbp), %rdx
 3522      FEFFFF
 3523 00fd 8B8548FE 		movl	-440(%rbp), %eax
 3523      FFFF
 3524 0103 4898     		cltq
 3525 0105 0FB60402 		movzbl	(%rdx,%rax), %eax
  73:/home/pong/FPGALink/makestuff/libs/libutpp/Checks.h **** 
 3526              		.loc 4 73 47
 3527 0109 0FB6D0   		movzbl	%al, %edx
 3528 010c 488D8550 		leaq	-432(%rbp), %rax
 3528      FEFFFF
 3529 0113 89D6     		movl	%edx, %esi
 3530 0115 4889C7   		movq	%rax, %rdi
 3531 0118 E8000000 		call	_ZStlsISt11char_traitsIcEERSt13basic_ostreamIcT_ES5_h@PLT
 3531      00
 3532 011d 4889C2   		movq	%rax, %rdx
 3533 0120 488D0500 		leaq	.LC16(%rip), %rax
 3533      000000
 3534 0127 4889C6   		movq	%rax, %rsi
 3535 012a 4889D7   		movq	%rdx, %rdi
 3536 012d E8000000 		call	_ZStlsISt11char_traitsIcEERSt13basic_ostreamIcT_ES5_PKc@PLT
 3536      00
  72:/home/pong/FPGALink/makestuff/libs/libutpp/Checks.h ****             stream << expected[expectedIndex] << " ";
 3537              		.loc 4 72 3 discriminator 2
 3538 0132 838548FE 		addl	$1, -440(%rbp)
 3538      FFFF01
 3539              	.L175:
  72:/home/pong/FPGALink/makestuff/libs/libutpp/Checks.h ****             stream << expected[expectedIndex] << " ";
 3540              		.loc 4 72 45 discriminator 1
 3541 0139 8B8548FE 		movl	-440(%rbp), %eax
 3541      FFFF
 3542 013f 3B8524FE 		cmpl	-476(%rbp), %eax
 3542      FFFF
 3543 0145 7CAF     		jl	.L176
 3544              	.LBE32:
  75:/home/pong/FPGALink/makestuff/libs/libutpp/Checks.h **** 
 3545              		.loc 4 75 10
 3546 0147 488D8550 		leaq	-432(%rbp), %rax
 3546      FEFFFF
 3547 014e 488D1500 		leaq	.LC17(%rip), %rdx
 3547      000000
 3548 0155 4889D6   		movq	%rdx, %rsi
 3549 0158 4889C7   		movq	%rax, %rdi
 3550 015b E8000000 		call	_ZStlsISt11char_traitsIcEERSt13basic_ostreamIcT_ES5_PKc@PLT
 3550      00
 3551              	.LBB33:
  77:/home/pong/FPGALink/makestuff/libs/libutpp/Checks.h ****             stream << actual[actualIndex] << " ";
 3552              		.loc 4 77 12
 3553 0160 C7854CFE 		movl	$0, -436(%rbp)
 3553      FFFF0000 
 3553      0000
  77:/home/pong/FPGALink/makestuff/libs/libutpp/Checks.h ****             stream << actual[actualIndex] << " ";
 3554              		.loc 4 77 3
 3555 016a EB48     		jmp	.L177
 3556              	.L178:
  78:/home/pong/FPGALink/makestuff/libs/libutpp/Checks.h **** 
 3557              		.loc 4 78 29
 3558 016c 488B8528 		movq	-472(%rbp), %rax
 3558      FEFFFF
 3559 0173 488B10   		movq	(%rax), %rdx
  78:/home/pong/FPGALink/makestuff/libs/libutpp/Checks.h **** 
 3560              		.loc 4 78 30
 3561 0176 8B854CFE 		movl	-436(%rbp), %eax
 3561      FFFF
 3562 017c 4898     		cltq
  78:/home/pong/FPGALink/makestuff/libs/libutpp/Checks.h **** 
 3563              		.loc 4 78 29
 3564 017e 4801D0   		addq	%rdx, %rax
 3565 0181 0FB600   		movzbl	(%rax), %eax
  78:/home/pong/FPGALink/makestuff/libs/libutpp/Checks.h **** 
 3566              		.loc 4 78 43
 3567 0184 0FB6D0   		movzbl	%al, %edx
 3568 0187 488D8550 		leaq	-432(%rbp), %rax
 3568      FEFFFF
 3569 018e 89D6     		movl	%edx, %esi
 3570 0190 4889C7   		movq	%rax, %rdi
 3571 0193 E8000000 		call	_ZStlsISt11char_traitsIcEERSt13basic_ostreamIcT_ES5_h@PLT
 3571      00
 3572 0198 4889C2   		movq	%rax, %rdx
 3573 019b 488D0500 		leaq	.LC16(%rip), %rax
 3573      000000
 3574 01a2 4889C6   		movq	%rax, %rsi
 3575 01a5 4889D7   		movq	%rdx, %rdi
 3576 01a8 E8000000 		call	_ZStlsISt11char_traitsIcEERSt13basic_ostreamIcT_ES5_PKc@PLT
 3576      00
  77:/home/pong/FPGALink/makestuff/libs/libutpp/Checks.h ****             stream << actual[actualIndex] << " ";
 3577              		.loc 4 77 3 discriminator 2
 3578 01ad 83854CFE 		addl	$1, -436(%rbp)
 3578      FFFF01
 3579              	.L177:
  77:/home/pong/FPGALink/makestuff/libs/libutpp/Checks.h ****             stream << actual[actualIndex] << " ";
 3580              		.loc 4 77 41 discriminator 1
 3581 01b4 8B854CFE 		movl	-436(%rbp), %eax
 3581      FFFF
 3582 01ba 3B8524FE 		cmpl	-476(%rbp), %eax
 3582      FFFF
 3583 01c0 7CAA     		jl	.L178
 3584              	.LBE33:
  80:/home/pong/FPGALink/makestuff/libs/libutpp/Checks.h **** 
 3585              		.loc 4 80 10
 3586 01c2 488D8550 		leaq	-432(%rbp), %rax
 3586      FEFFFF
 3587 01c9 488D1500 		leaq	.LC18(%rip), %rdx
 3587      000000
 3588 01d0 4889D6   		movq	%rdx, %rsi
 3589 01d3 4889C7   		movq	%rax, %rdi
 3590 01d6 E8000000 		call	_ZStlsISt11char_traitsIcEERSt13basic_ostreamIcT_ES5_PKc@PLT
 3590      00
  82:/home/pong/FPGALink/makestuff/libs/libutpp/Checks.h ****     }
 3591              		.loc 4 82 30
 3592 01db 488D8550 		leaq	-432(%rbp), %rax
 3592      FEFFFF
 3593 01e2 4889C7   		movq	%rax, %rdi
 3594 01e5 E8000000 		call	_ZNK8UnitTest15MemoryOutStream7GetTextEv@PLT
 3594      00
 3595 01ea 4889C2   		movq	%rax, %rdx
 3596 01ed 488B8D18 		movq	-488(%rbp), %rcx
 3596      FEFFFF
 3597 01f4 488B8538 		movq	-456(%rbp), %rax
 3597      FEFFFF
 3598 01fb 4889CE   		movq	%rcx, %rsi
 3599 01fe 4889C7   		movq	%rax, %rdi
 3600 0201 E8000000 		call	_ZN8UnitTest11TestResults13OnTestFailureERKNS_11TestDetailsEPKc@PLT
 3600      00
 3601              	.LEHE127:
  83:/home/pong/FPGALink/makestuff/libs/libutpp/Checks.h **** }
 3602              		.loc 4 83 5
 3603 0206 488D8550 		leaq	-432(%rbp), %rax
 3603      FEFFFF
 3604 020d 4889C7   		movq	%rax, %rdi
 3605              	.LEHB128:
 3606 0210 E8000000 		call	_ZN8UnitTest15MemoryOutStreamD1Ev
 3606      00
 3607              	.LEHE128:
 3608              	.LBE31:
 3609              	.LBE30:
 3610              		.loc 4 84 1
 3611 0215 EB21     		jmp	.L182
 3612              	.L181:
 3613 0217 F30F1EFA 		endbr64
 3614              	.LBB35:
 3615              	.LBB34:
  83:/home/pong/FPGALink/makestuff/libs/libutpp/Checks.h **** }
 3616              		.loc 4 83 5
 3617 021b 4889C3   		movq	%rax, %rbx
 3618 021e 488D8550 		leaq	-432(%rbp), %rax
 3618      FEFFFF
 3619 0225 4889C7   		movq	%rax, %rdi
 3620 0228 E8000000 		call	_ZN8UnitTest15MemoryOutStreamD1Ev
 3620      00
 3621 022d 4889D8   		movq	%rbx, %rax
 3622 0230 4889C7   		movq	%rax, %rdi
 3623              	.LEHB129:
 3624 0233 E8000000 		call	_Unwind_Resume@PLT
 3624      00
 3625              	.LEHE129:
 3626              	.L182:
 3627              	.LBE34:
 3628              	.LBE35:
 3629              		.loc 4 84 1
 3630 0238 90       		nop
 3631 0239 488B45E8 		movq	-24(%rbp), %rax
 3632 023d 64482B04 		subq	%fs:40, %rax
 3632      25280000 
 3632      00
 3633 0246 7405     		je	.L180
 3634 0248 E8000000 		call	__stack_chk_fail@PLT
 3634      00
 3635              	.L180:
 3636 024d 488B5DF8 		movq	-8(%rbp), %rbx
 3637 0251 C9       		leave
 3638              		.cfi_def_cfa 7, 8
 3639 0252 C3       		ret
 3640              		.cfi_endproc
 3641              	.LFE1196:
 3642              		.section	.gcc_except_table
 3643              	.LLSDA1196:
 3644 02c9 FF       		.byte	0xff
 3645 02ca FF       		.byte	0xff
 3646 02cb 01       		.byte	0x1
 3647 02cc 16       		.uleb128 .LLSDACSE1196-.LLSDACSB1196
 3648              	.LLSDACSB1196:
 3649 02cd CC01     		.uleb128 .LEHB126-.LFB1196
 3650 02cf 05       		.uleb128 .LEHE126-.LEHB126
 3651 02d0 00       		.uleb128 0
 3652 02d1 00       		.uleb128 0
 3653 02d2 E501     		.uleb128 .LEHB127-.LFB1196
 3654 02d4 A102     		.uleb128 .LEHE127-.LEHB127
 3655 02d6 9704     		.uleb128 .L181-.LFB1196
 3656 02d8 00       		.uleb128 0
 3657 02d9 9004     		.uleb128 .LEHB128-.LFB1196
 3658 02db 05       		.uleb128 .LEHE128-.LEHB128
 3659 02dc 00       		.uleb128 0
 3660 02dd 00       		.uleb128 0
 3661 02de B304     		.uleb128 .LEHB129-.LFB1196
 3662 02e0 05       		.uleb128 .LEHE129-.LEHB129
 3663 02e1 00       		.uleb128 0
 3664 02e2 00       		.uleb128 0
 3665              	.LLSDACSE1196:
 3666              		.section	.text._ZN8UnitTest15CheckArrayEqualIA16_hPhEEvRNS_11TestResultsERKT_RKT0_iRKNS_11TestDeta
 3668              		.weak	_ZTV26TestI2C_testFinaliseNoInit
 3669              		.section	.data.rel.ro.local._ZTV26TestI2C_testFinaliseNoInit,"awG",@progbits,_ZTV26TestI2C_testFin
 3670              		.align 8
 3673              	_ZTV26TestI2C_testFinaliseNoInit:
 3674 0000 00000000 		.quad	0
 3674      00000000 
 3675 0008 00000000 		.quad	_ZTI26TestI2C_testFinaliseNoInit
 3675      00000000 
 3676 0010 00000000 		.quad	_ZN26TestI2C_testFinaliseNoInitD1Ev
 3676      00000000 
 3677 0018 00000000 		.quad	_ZN26TestI2C_testFinaliseNoInitD0Ev
 3677      00000000 
 3678 0020 00000000 		.quad	_ZNK26TestI2C_testFinaliseNoInit7RunImplEv
 3678      00000000 
 3679              		.section	.text._ZN26TestI2C_testFinaliseNoInitD2Ev,"axG",@progbits,_ZN26TestI2C_testFinaliseNoInit
 3680              		.align 2
 3681              		.weak	_ZN26TestI2C_testFinaliseNoInitD2Ev
 3683              	_ZN26TestI2C_testFinaliseNoInitD2Ev:
 3684              	.LFB1253:
 106:testI2C.cpp   **** 	Buffer buf;
 3685              		.loc 3 106 1
 3686              		.cfi_startproc
 3687 0000 F30F1EFA 		endbr64
 3688 0004 55       		pushq	%rbp
 3689              		.cfi_def_cfa_offset 16
 3690              		.cfi_offset 6, -16
 3691 0005 4889E5   		movq	%rsp, %rbp
 3692              		.cfi_def_cfa_register 6
 3693 0008 4883EC10 		subq	$16, %rsp
 3694 000c 48897DF8 		movq	%rdi, -8(%rbp)
 3695              	.LBB36:
 106:testI2C.cpp   **** 	Buffer buf;
 3696              		.loc 3 106 1
 3697 0010 488D1500 		leaq	16+_ZTV26TestI2C_testFinaliseNoInit(%rip), %rdx
 3697      000000
 3698 0017 488B45F8 		movq	-8(%rbp), %rax
 3699 001b 488910   		movq	%rdx, (%rax)
 3700 001e 488B45F8 		movq	-8(%rbp), %rax
 3701 0022 4889C7   		movq	%rax, %rdi
 3702 0025 E8000000 		call	_ZN8UnitTest4TestD2Ev@PLT
 3702      00
 3703              	.LBE36:
 3704 002a 90       		nop
 3705 002b C9       		leave
 3706              		.cfi_def_cfa 7, 8
 3707 002c C3       		ret
 3708              		.cfi_endproc
 3709              	.LFE1253:
 3711              		.weak	_ZN26TestI2C_testFinaliseNoInitD1Ev
 3712              		.set	_ZN26TestI2C_testFinaliseNoInitD1Ev,_ZN26TestI2C_testFinaliseNoInitD2Ev
 3713              		.section	.text._ZN26TestI2C_testFinaliseNoInitD0Ev,"axG",@progbits,_ZN26TestI2C_testFinaliseNoInit
 3714              		.align 2
 3715              		.weak	_ZN26TestI2C_testFinaliseNoInitD0Ev
 3717              	_ZN26TestI2C_testFinaliseNoInitD0Ev:
 3718              	.LFB1255:
 106:testI2C.cpp   **** 	Buffer buf;
 3719              		.loc 3 106 1
 3720              		.cfi_startproc
 3721              		.cfi_personality 0x9b,DW.ref.__gxx_personality_v0
 3722              		.cfi_lsda 0x1b,.LLSDA1255
 3723 0000 F30F1EFA 		endbr64
 3724 0004 55       		pushq	%rbp
 3725              		.cfi_def_cfa_offset 16
 3726              		.cfi_offset 6, -16
 3727 0005 4889E5   		movq	%rsp, %rbp
 3728              		.cfi_def_cfa_register 6
 3729 0008 53       		pushq	%rbx
 3730 0009 4883EC18 		subq	$24, %rsp
 3731              		.cfi_offset 3, -24
 3732 000d 48897DE8 		movq	%rdi, -24(%rbp)
 106:testI2C.cpp   **** 	Buffer buf;
 3733              		.loc 3 106 1
 3734 0011 488B45E8 		movq	-24(%rbp), %rax
 3735 0015 4889C7   		movq	%rax, %rdi
 3736              	.LEHB130:
 3737 0018 E8000000 		call	_ZN26TestI2C_testFinaliseNoInitD1Ev
 3737      00
 3738              	.LEHE130:
 106:testI2C.cpp   **** 	Buffer buf;
 3739              		.loc 3 106 1 is_stmt 0 discriminator 2
 3740 001d 488B45E8 		movq	-24(%rbp), %rax
 3741 0021 4889C7   		movq	%rax, %rdi
 3742 0024 E8000000 		call	_ZdlPv@PLT
 3742      00
 3743 0029 EB1E     		jmp	.L187
 3744              	.L186:
 3745 002b F30F1EFA 		endbr64
 106:testI2C.cpp   **** 	Buffer buf;
 3746              		.loc 3 106 1
 3747 002f 4889C3   		movq	%rax, %rbx
 3748 0032 488B45E8 		movq	-24(%rbp), %rax
 3749 0036 4889C7   		movq	%rax, %rdi
 3750 0039 E8000000 		call	_ZdlPv@PLT
 3750      00
 3751 003e 4889D8   		movq	%rbx, %rax
 3752 0041 4889C7   		movq	%rax, %rdi
 3753              	.LEHB131:
 3754 0044 E8000000 		call	_Unwind_Resume@PLT
 3754      00
 3755              	.LEHE131:
 3756              	.L187:
 3757 0049 488B5DF8 		movq	-8(%rbp), %rbx
 3758 004d C9       		leave
 3759              		.cfi_def_cfa 7, 8
 3760 004e C3       		ret
 3761              		.cfi_endproc
 3762              	.LFE1255:
 3763              		.section	.gcc_except_table
 3764              	.LLSDA1255:
 3765 02e3 FF       		.byte	0xff
 3766 02e4 FF       		.byte	0xff
 3767 02e5 01       		.byte	0x1
 3768 02e6 08       		.uleb128 .LLSDACSE1255-.LLSDACSB1255
 3769              	.LLSDACSB1255:
 3770 02e7 18       		.uleb128 .LEHB130-.LFB1255
 3771 02e8 05       		.uleb128 .LEHE130-.LEHB130
 3772 02e9 2B       		.uleb128 .L186-.LFB1255
 3773 02ea 00       		.uleb128 0
 3774 02eb 44       		.uleb128 .LEHB131-.LFB1255
 3775 02ec 05       		.uleb128 .LEHE131-.LEHB131
 3776 02ed 00       		.uleb128 0
 3777 02ee 00       		.uleb128 0
 3778              	.LLSDACSE1255:
 3779              		.section	.text._ZN26TestI2C_testFinaliseNoInitD0Ev,"axG",@progbits,_ZN26TestI2C_testFinaliseNoInit
 3781              		.weak	_ZTV21TestI2C_testWPRNoInit
 3782              		.section	.data.rel.ro.local._ZTV21TestI2C_testWPRNoInit,"awG",@progbits,_ZTV21TestI2C_testWPRNoIni
 3783              		.align 8
 3786              	_ZTV21TestI2C_testWPRNoInit:
 3787 0000 00000000 		.quad	0
 3787      00000000 
 3788 0008 00000000 		.quad	_ZTI21TestI2C_testWPRNoInit
 3788      00000000 
 3789 0010 00000000 		.quad	_ZN21TestI2C_testWPRNoInitD1Ev
 3789      00000000 
 3790 0018 00000000 		.quad	_ZN21TestI2C_testWPRNoInitD0Ev
 3790      00000000 
 3791 0020 00000000 		.quad	_ZNK21TestI2C_testWPRNoInit7RunImplEv
 3791      00000000 
 3792              		.section	.text._ZN21TestI2C_testWPRNoInitD2Ev,"axG",@progbits,_ZN21TestI2C_testWPRNoInitD5Ev,comda
 3793              		.align 2
 3794              		.weak	_ZN21TestI2C_testWPRNoInitD2Ev
 3796              	_ZN21TestI2C_testWPRNoInitD2Ev:
 3797              	.LFB1257:
  95:testI2C.cpp   **** 	Buffer i2cBuffer;
 3798              		.loc 3 95 1 is_stmt 1
 3799              		.cfi_startproc
 3800 0000 F30F1EFA 		endbr64
 3801 0004 55       		pushq	%rbp
 3802              		.cfi_def_cfa_offset 16
 3803              		.cfi_offset 6, -16
 3804 0005 4889E5   		movq	%rsp, %rbp
 3805              		.cfi_def_cfa_register 6
 3806 0008 4883EC10 		subq	$16, %rsp
 3807 000c 48897DF8 		movq	%rdi, -8(%rbp)
 3808              	.LBB37:
  95:testI2C.cpp   **** 	Buffer i2cBuffer;
 3809              		.loc 3 95 1
 3810 0010 488D1500 		leaq	16+_ZTV21TestI2C_testWPRNoInit(%rip), %rdx
 3810      000000
 3811 0017 488B45F8 		movq	-8(%rbp), %rax
 3812 001b 488910   		movq	%rdx, (%rax)
 3813 001e 488B45F8 		movq	-8(%rbp), %rax
 3814 0022 4889C7   		movq	%rax, %rdi
 3815 0025 E8000000 		call	_ZN8UnitTest4TestD2Ev@PLT
 3815      00
 3816              	.LBE37:
 3817 002a 90       		nop
 3818 002b C9       		leave
 3819              		.cfi_def_cfa 7, 8
 3820 002c C3       		ret
 3821              		.cfi_endproc
 3822              	.LFE1257:
 3824              		.weak	_ZN21TestI2C_testWPRNoInitD1Ev
 3825              		.set	_ZN21TestI2C_testWPRNoInitD1Ev,_ZN21TestI2C_testWPRNoInitD2Ev
 3826              		.section	.text._ZN21TestI2C_testWPRNoInitD0Ev,"axG",@progbits,_ZN21TestI2C_testWPRNoInitD5Ev,comda
 3827              		.align 2
 3828              		.weak	_ZN21TestI2C_testWPRNoInitD0Ev
 3830              	_ZN21TestI2C_testWPRNoInitD0Ev:
 3831              	.LFB1259:
  95:testI2C.cpp   **** 	Buffer i2cBuffer;
 3832              		.loc 3 95 1
 3833              		.cfi_startproc
 3834              		.cfi_personality 0x9b,DW.ref.__gxx_personality_v0
 3835              		.cfi_lsda 0x1b,.LLSDA1259
 3836 0000 F30F1EFA 		endbr64
 3837 0004 55       		pushq	%rbp
 3838              		.cfi_def_cfa_offset 16
 3839              		.cfi_offset 6, -16
 3840 0005 4889E5   		movq	%rsp, %rbp
 3841              		.cfi_def_cfa_register 6
 3842 0008 53       		pushq	%rbx
 3843 0009 4883EC18 		subq	$24, %rsp
 3844              		.cfi_offset 3, -24
 3845 000d 48897DE8 		movq	%rdi, -24(%rbp)
  95:testI2C.cpp   **** 	Buffer i2cBuffer;
 3846              		.loc 3 95 1
 3847 0011 488B45E8 		movq	-24(%rbp), %rax
 3848 0015 4889C7   		movq	%rax, %rdi
 3849              	.LEHB132:
 3850 0018 E8000000 		call	_ZN21TestI2C_testWPRNoInitD1Ev
 3850      00
 3851              	.LEHE132:
  95:testI2C.cpp   **** 	Buffer i2cBuffer;
 3852              		.loc 3 95 1 is_stmt 0 discriminator 2
 3853 001d 488B45E8 		movq	-24(%rbp), %rax
 3854 0021 4889C7   		movq	%rax, %rdi
 3855 0024 E8000000 		call	_ZdlPv@PLT
 3855      00
 3856 0029 EB1E     		jmp	.L192
 3857              	.L191:
 3858 002b F30F1EFA 		endbr64
  95:testI2C.cpp   **** 	Buffer i2cBuffer;
 3859              		.loc 3 95 1
 3860 002f 4889C3   		movq	%rax, %rbx
 3861 0032 488B45E8 		movq	-24(%rbp), %rax
 3862 0036 4889C7   		movq	%rax, %rdi
 3863 0039 E8000000 		call	_ZdlPv@PLT
 3863      00
 3864 003e 4889D8   		movq	%rbx, %rax
 3865 0041 4889C7   		movq	%rax, %rdi
 3866              	.LEHB133:
 3867 0044 E8000000 		call	_Unwind_Resume@PLT
 3867      00
 3868              	.LEHE133:
 3869              	.L192:
 3870 0049 488B5DF8 		movq	-8(%rbp), %rbx
 3871 004d C9       		leave
 3872              		.cfi_def_cfa 7, 8
 3873 004e C3       		ret
 3874              		.cfi_endproc
 3875              	.LFE1259:
 3876              		.section	.gcc_except_table
 3877              	.LLSDA1259:
 3878 02ef FF       		.byte	0xff
 3879 02f0 FF       		.byte	0xff
 3880 02f1 01       		.byte	0x1
 3881 02f2 08       		.uleb128 .LLSDACSE1259-.LLSDACSB1259
 3882              	.LLSDACSB1259:
 3883 02f3 18       		.uleb128 .LEHB132-.LFB1259
 3884 02f4 05       		.uleb128 .LEHE132-.LEHB132
 3885 02f5 2B       		.uleb128 .L191-.LFB1259
 3886 02f6 00       		.uleb128 0
 3887 02f7 44       		.uleb128 .LEHB133-.LFB1259
 3888 02f8 05       		.uleb128 .LEHE133-.LEHB133
 3889 02f9 00       		.uleb128 0
 3890 02fa 00       		.uleb128 0
 3891              	.LLSDACSE1259:
 3892              		.section	.text._ZN21TestI2C_testWPRNoInitD0Ev,"axG",@progbits,_ZN21TestI2C_testWPRNoInitD5Ev,comda
 3894              		.weak	_ZTV21TestI2C_testRoundTrip
 3895              		.section	.data.rel.ro.local._ZTV21TestI2C_testRoundTrip,"awG",@progbits,_ZTV21TestI2C_testRoundTri
 3896              		.align 8
 3899              	_ZTV21TestI2C_testRoundTrip:
 3900 0000 00000000 		.quad	0
 3900      00000000 
 3901 0008 00000000 		.quad	_ZTI21TestI2C_testRoundTrip
 3901      00000000 
 3902 0010 00000000 		.quad	_ZN21TestI2C_testRoundTripD1Ev
 3902      00000000 
 3903 0018 00000000 		.quad	_ZN21TestI2C_testRoundTripD0Ev
 3903      00000000 
 3904 0020 00000000 		.quad	_ZNK21TestI2C_testRoundTrip7RunImplEv
 3904      00000000 
 3905              		.section	.text._ZN21TestI2C_testRoundTripD2Ev,"axG",@progbits,_ZN21TestI2C_testRoundTripD5Ev,comda
 3906              		.align 2
 3907              		.weak	_ZN21TestI2C_testRoundTripD2Ev
 3909              	_ZN21TestI2C_testRoundTripD2Ev:
 3910              	.LFB1261:
  47:testI2C.cpp   **** 	uint32 i, j;
 3911              		.loc 3 47 1 is_stmt 1
 3912              		.cfi_startproc
 3913 0000 F30F1EFA 		endbr64
 3914 0004 55       		pushq	%rbp
 3915              		.cfi_def_cfa_offset 16
 3916              		.cfi_offset 6, -16
 3917 0005 4889E5   		movq	%rsp, %rbp
 3918              		.cfi_def_cfa_register 6
 3919 0008 4883EC10 		subq	$16, %rsp
 3920 000c 48897DF8 		movq	%rdi, -8(%rbp)
 3921              	.LBB38:
  47:testI2C.cpp   **** 	uint32 i, j;
 3922              		.loc 3 47 1
 3923 0010 488D1500 		leaq	16+_ZTV21TestI2C_testRoundTrip(%rip), %rdx
 3923      000000
 3924 0017 488B45F8 		movq	-8(%rbp), %rax
 3925 001b 488910   		movq	%rdx, (%rax)
 3926 001e 488B45F8 		movq	-8(%rbp), %rax
 3927 0022 4889C7   		movq	%rax, %rdi
 3928 0025 E8000000 		call	_ZN8UnitTest4TestD2Ev@PLT
 3928      00
 3929              	.LBE38:
 3930 002a 90       		nop
 3931 002b C9       		leave
 3932              		.cfi_def_cfa 7, 8
 3933 002c C3       		ret
 3934              		.cfi_endproc
 3935              	.LFE1261:
 3937              		.weak	_ZN21TestI2C_testRoundTripD1Ev
 3938              		.set	_ZN21TestI2C_testRoundTripD1Ev,_ZN21TestI2C_testRoundTripD2Ev
 3939              		.section	.text._ZN21TestI2C_testRoundTripD0Ev,"axG",@progbits,_ZN21TestI2C_testRoundTripD5Ev,comda
 3940              		.align 2
 3941              		.weak	_ZN21TestI2C_testRoundTripD0Ev
 3943              	_ZN21TestI2C_testRoundTripD0Ev:
 3944              	.LFB1263:
  47:testI2C.cpp   **** 	uint32 i, j;
 3945              		.loc 3 47 1
 3946              		.cfi_startproc
 3947              		.cfi_personality 0x9b,DW.ref.__gxx_personality_v0
 3948              		.cfi_lsda 0x1b,.LLSDA1263
 3949 0000 F30F1EFA 		endbr64
 3950 0004 55       		pushq	%rbp
 3951              		.cfi_def_cfa_offset 16
 3952              		.cfi_offset 6, -16
 3953 0005 4889E5   		movq	%rsp, %rbp
 3954              		.cfi_def_cfa_register 6
 3955 0008 53       		pushq	%rbx
 3956 0009 4883EC18 		subq	$24, %rsp
 3957              		.cfi_offset 3, -24
 3958 000d 48897DE8 		movq	%rdi, -24(%rbp)
  47:testI2C.cpp   **** 	uint32 i, j;
 3959              		.loc 3 47 1
 3960 0011 488B45E8 		movq	-24(%rbp), %rax
 3961 0015 4889C7   		movq	%rax, %rdi
 3962              	.LEHB134:
 3963 0018 E8000000 		call	_ZN21TestI2C_testRoundTripD1Ev
 3963      00
 3964              	.LEHE134:
  47:testI2C.cpp   **** 	uint32 i, j;
 3965              		.loc 3 47 1 is_stmt 0 discriminator 2
 3966 001d 488B45E8 		movq	-24(%rbp), %rax
 3967 0021 4889C7   		movq	%rax, %rdi
 3968 0024 E8000000 		call	_ZdlPv@PLT
 3968      00
 3969 0029 EB1E     		jmp	.L197
 3970              	.L196:
 3971 002b F30F1EFA 		endbr64
  47:testI2C.cpp   **** 	uint32 i, j;
 3972              		.loc 3 47 1
 3973 002f 4889C3   		movq	%rax, %rbx
 3974 0032 488B45E8 		movq	-24(%rbp), %rax
 3975 0036 4889C7   		movq	%rax, %rdi
 3976 0039 E8000000 		call	_ZdlPv@PLT
 3976      00
 3977 003e 4889D8   		movq	%rbx, %rax
 3978 0041 4889C7   		movq	%rax, %rdi
 3979              	.LEHB135:
 3980 0044 E8000000 		call	_Unwind_Resume@PLT
 3980      00
 3981              	.LEHE135:
 3982              	.L197:
 3983 0049 488B5DF8 		movq	-8(%rbp), %rbx
 3984 004d C9       		leave
 3985              		.cfi_def_cfa 7, 8
 3986 004e C3       		ret
 3987              		.cfi_endproc
 3988              	.LFE1263:
 3989              		.section	.gcc_except_table
 3990              	.LLSDA1263:
 3991 02fb FF       		.byte	0xff
 3992 02fc FF       		.byte	0xff
 3993 02fd 01       		.byte	0x1
 3994 02fe 08       		.uleb128 .LLSDACSE1263-.LLSDACSB1263
 3995              	.LLSDACSB1263:
 3996 02ff 18       		.uleb128 .LEHB134-.LFB1263
 3997 0300 05       		.uleb128 .LEHE134-.LEHB134
 3998 0301 2B       		.uleb128 .L196-.LFB1263
 3999 0302 00       		.uleb128 0
 4000 0303 44       		.uleb128 .LEHB135-.LFB1263
 4001 0304 05       		.uleb128 .LEHE135-.LEHB135
 4002 0305 00       		.uleb128 0
 4003 0306 00       		.uleb128 0
 4004              	.LLSDACSE1263:
 4005              		.section	.text._ZN21TestI2C_testRoundTripD0Ev,"axG",@progbits,_ZN21TestI2C_testRoundTripD5Ev,comda
 4007              		.weak	_ZTV22TestI2C_testInitialise
 4008              		.section	.data.rel.ro.local._ZTV22TestI2C_testInitialise,"awG",@progbits,_ZTV22TestI2C_testInitial
 4009              		.align 8
 4012              	_ZTV22TestI2C_testInitialise:
 4013 0000 00000000 		.quad	0
 4013      00000000 
 4014 0008 00000000 		.quad	_ZTI22TestI2C_testInitialise
 4014      00000000 
 4015 0010 00000000 		.quad	_ZN22TestI2C_testInitialiseD1Ev
 4015      00000000 
 4016 0018 00000000 		.quad	_ZN22TestI2C_testInitialiseD0Ev
 4016      00000000 
 4017 0020 00000000 		.quad	_ZNK22TestI2C_testInitialise7RunImplEv
 4017      00000000 
 4018              		.section	.text._ZN22TestI2C_testInitialiseD2Ev,"axG",@progbits,_ZN22TestI2C_testInitialiseD5Ev,com
 4019              		.align 2
 4020              		.weak	_ZN22TestI2C_testInitialiseD2Ev
 4022              	_ZN22TestI2C_testInitialiseD2Ev:
 4023              	.LFB1265:
  31:testI2C.cpp   **** 	Buffer i2cBuffer;
 4024              		.loc 3 31 1 is_stmt 1
 4025              		.cfi_startproc
 4026 0000 F30F1EFA 		endbr64
 4027 0004 55       		pushq	%rbp
 4028              		.cfi_def_cfa_offset 16
 4029              		.cfi_offset 6, -16
 4030 0005 4889E5   		movq	%rsp, %rbp
 4031              		.cfi_def_cfa_register 6
 4032 0008 4883EC10 		subq	$16, %rsp
 4033 000c 48897DF8 		movq	%rdi, -8(%rbp)
 4034              	.LBB39:
  31:testI2C.cpp   **** 	Buffer i2cBuffer;
 4035              		.loc 3 31 1
 4036 0010 488D1500 		leaq	16+_ZTV22TestI2C_testInitialise(%rip), %rdx
 4036      000000
 4037 0017 488B45F8 		movq	-8(%rbp), %rax
 4038 001b 488910   		movq	%rdx, (%rax)
 4039 001e 488B45F8 		movq	-8(%rbp), %rax
 4040 0022 4889C7   		movq	%rax, %rdi
 4041 0025 E8000000 		call	_ZN8UnitTest4TestD2Ev@PLT
 4041      00
 4042              	.LBE39:
 4043 002a 90       		nop
 4044 002b C9       		leave
 4045              		.cfi_def_cfa 7, 8
 4046 002c C3       		ret
 4047              		.cfi_endproc
 4048              	.LFE1265:
 4050              		.weak	_ZN22TestI2C_testInitialiseD1Ev
 4051              		.set	_ZN22TestI2C_testInitialiseD1Ev,_ZN22TestI2C_testInitialiseD2Ev
 4052              		.section	.text._ZN22TestI2C_testInitialiseD0Ev,"axG",@progbits,_ZN22TestI2C_testInitialiseD5Ev,com
 4053              		.align 2
 4054              		.weak	_ZN22TestI2C_testInitialiseD0Ev
 4056              	_ZN22TestI2C_testInitialiseD0Ev:
 4057              	.LFB1267:
  31:testI2C.cpp   **** 	Buffer i2cBuffer;
 4058              		.loc 3 31 1
 4059              		.cfi_startproc
 4060              		.cfi_personality 0x9b,DW.ref.__gxx_personality_v0
 4061              		.cfi_lsda 0x1b,.LLSDA1267
 4062 0000 F30F1EFA 		endbr64
 4063 0004 55       		pushq	%rbp
 4064              		.cfi_def_cfa_offset 16
 4065              		.cfi_offset 6, -16
 4066 0005 4889E5   		movq	%rsp, %rbp
 4067              		.cfi_def_cfa_register 6
 4068 0008 53       		pushq	%rbx
 4069 0009 4883EC18 		subq	$24, %rsp
 4070              		.cfi_offset 3, -24
 4071 000d 48897DE8 		movq	%rdi, -24(%rbp)
  31:testI2C.cpp   **** 	Buffer i2cBuffer;
 4072              		.loc 3 31 1
 4073 0011 488B45E8 		movq	-24(%rbp), %rax
 4074 0015 4889C7   		movq	%rax, %rdi
 4075              	.LEHB136:
 4076 0018 E8000000 		call	_ZN22TestI2C_testInitialiseD1Ev
 4076      00
 4077              	.LEHE136:
  31:testI2C.cpp   **** 	Buffer i2cBuffer;
 4078              		.loc 3 31 1 is_stmt 0 discriminator 2
 4079 001d 488B45E8 		movq	-24(%rbp), %rax
 4080 0021 4889C7   		movq	%rax, %rdi
 4081 0024 E8000000 		call	_ZdlPv@PLT
 4081      00
 4082 0029 EB1E     		jmp	.L202
 4083              	.L201:
 4084 002b F30F1EFA 		endbr64
  31:testI2C.cpp   **** 	Buffer i2cBuffer;
 4085              		.loc 3 31 1
 4086 002f 4889C3   		movq	%rax, %rbx
 4087 0032 488B45E8 		movq	-24(%rbp), %rax
 4088 0036 4889C7   		movq	%rax, %rdi
 4089 0039 E8000000 		call	_ZdlPv@PLT
 4089      00
 4090 003e 4889D8   		movq	%rbx, %rax
 4091 0041 4889C7   		movq	%rax, %rdi
 4092              	.LEHB137:
 4093 0044 E8000000 		call	_Unwind_Resume@PLT
 4093      00
 4094              	.LEHE137:
 4095              	.L202:
 4096 0049 488B5DF8 		movq	-8(%rbp), %rbx
 4097 004d C9       		leave
 4098              		.cfi_def_cfa 7, 8
 4099 004e C3       		ret
 4100              		.cfi_endproc
 4101              	.LFE1267:
 4102              		.section	.gcc_except_table
 4103              	.LLSDA1267:
 4104 0307 FF       		.byte	0xff
 4105 0308 FF       		.byte	0xff
 4106 0309 01       		.byte	0x1
 4107 030a 08       		.uleb128 .LLSDACSE1267-.LLSDACSB1267
 4108              	.LLSDACSB1267:
 4109 030b 18       		.uleb128 .LEHB136-.LFB1267
 4110 030c 05       		.uleb128 .LEHE136-.LEHB136
 4111 030d 2B       		.uleb128 .L201-.LFB1267
 4112 030e 00       		.uleb128 0
 4113 030f 44       		.uleb128 .LEHB137-.LFB1267
 4114 0310 05       		.uleb128 .LEHE137-.LEHB137
 4115 0311 00       		.uleb128 0
 4116 0312 00       		.uleb128 0
 4117              	.LLSDACSE1267:
 4118              		.section	.text._ZN22TestI2C_testInitialiseD0Ev,"axG",@progbits,_ZN22TestI2C_testInitialiseD5Ev,com
 4120              		.weak	_ZTVN8UnitTest15MemoryOutStreamE
 4121              		.section	.data.rel.ro.local._ZTVN8UnitTest15MemoryOutStreamE,"awG",@progbits,_ZTVN8UnitTest15Memor
 4122              		.align 8
 4125              	_ZTVN8UnitTest15MemoryOutStreamE:
 4126 0000 90000000 		.quad	144
 4126      00000000 
 4127 0008 00000000 		.quad	0
 4127      00000000 
 4128 0010 00000000 		.quad	_ZTIN8UnitTest15MemoryOutStreamE
 4128      00000000 
 4129 0018 00000000 		.quad	_ZN8UnitTest15MemoryOutStreamD1Ev
 4129      00000000 
 4130 0020 00000000 		.quad	_ZN8UnitTest15MemoryOutStreamD0Ev
 4130      00000000 
 4131 0028 70FFFFFF 		.quad	-144
 4131      FFFFFFFF 
 4132 0030 70FFFFFF 		.quad	-144
 4132      FFFFFFFF 
 4133 0038 00000000 		.quad	_ZTIN8UnitTest15MemoryOutStreamE
 4133      00000000 
 4134 0040 00000000 		.quad	_ZTv0_n24_N8UnitTest15MemoryOutStreamD1Ev
 4134      00000000 
 4135 0048 00000000 		.quad	_ZTv0_n24_N8UnitTest15MemoryOutStreamD0Ev
 4135      00000000 
 4136              		.weak	_ZTTN8UnitTest15MemoryOutStreamE
 4137              		.section	.data.rel.ro.local._ZTTN8UnitTest15MemoryOutStreamE,"awG",@progbits,_ZTVN8UnitTest15Memor
 4138              		.align 8
 4141              	_ZTTN8UnitTest15MemoryOutStreamE:
 4142 0000 00000000 		.quad	_ZTVN8UnitTest15MemoryOutStreamE+24
 4142      00000000 
 4143 0008 00000000 		.quad	_ZTCN8UnitTest15MemoryOutStreamE0_NSt7__cxx1119basic_ostringstreamIcSt11char_traitsIcESaIcEE
 4143      00000000 
 4144 0010 00000000 		.quad	_ZTCN8UnitTest15MemoryOutStreamE0_So+24
 4144      00000000 
 4145 0018 00000000 		.quad	_ZTCN8UnitTest15MemoryOutStreamE0_So+64
 4145      00000000 
 4146 0020 00000000 		.quad	_ZTCN8UnitTest15MemoryOutStreamE0_NSt7__cxx1119basic_ostringstreamIcSt11char_traitsIcESaIcEE
 4146      00000000 
 4147 0028 00000000 		.quad	_ZTVN8UnitTest15MemoryOutStreamE+64
 4147      00000000 
 4148              		.hidden	_ZTCN8UnitTest15MemoryOutStreamE0_NSt7__cxx1119basic_ostringstreamIcSt11char_traitsIcESaIc
 4149              		.weak	_ZTCN8UnitTest15MemoryOutStreamE0_NSt7__cxx1119basic_ostringstreamIcSt11char_traitsIcESaIcEE
 4150              		.section	.data.rel.ro._ZTCN8UnitTest15MemoryOutStreamE0_NSt7__cxx1119basic_ostringstreamIcSt11char
 4151              		.align 8
 4154              	_ZTCN8UnitTest15MemoryOutStreamE0_NSt7__cxx1119basic_ostringstreamIcSt11char_traitsIcESaIcEEE:
 4155 0000 90000000 		.quad	144
 4155      00000000 
 4156 0008 00000000 		.quad	0
 4156      00000000 
 4157 0010 00000000 		.quad	_ZTINSt7__cxx1119basic_ostringstreamIcSt11char_traitsIcESaIcEEE
 4157      00000000 
 4158 0018 00000000 		.quad	0
 4158      00000000 
 4159 0020 00000000 		.quad	0
 4159      00000000 
 4160 0028 70FFFFFF 		.quad	-144
 4160      FFFFFFFF 
 4161 0030 70FFFFFF 		.quad	-144
 4161      FFFFFFFF 
 4162 0038 00000000 		.quad	_ZTINSt7__cxx1119basic_ostringstreamIcSt11char_traitsIcESaIcEEE
 4162      00000000 
 4163 0040 00000000 		.quad	0
 4163      00000000 
 4164 0048 00000000 		.quad	0
 4164      00000000 
 4165              		.hidden	_ZTCN8UnitTest15MemoryOutStreamE0_So
 4166              		.weak	_ZTCN8UnitTest15MemoryOutStreamE0_So
 4167              		.section	.data.rel.ro._ZTCN8UnitTest15MemoryOutStreamE0_So,"awG",@progbits,_ZTVN8UnitTest15MemoryO
 4168              		.align 8
 4171              	_ZTCN8UnitTest15MemoryOutStreamE0_So:
 4172 0000 90000000 		.quad	144
 4172      00000000 
 4173 0008 00000000 		.quad	0
 4173      00000000 
 4174 0010 00000000 		.quad	_ZTISo
 4174      00000000 
 4175 0018 00000000 		.quad	0
 4175      00000000 
 4176 0020 00000000 		.quad	0
 4176      00000000 
 4177 0028 70FFFFFF 		.quad	-144
 4177      FFFFFFFF 
 4178 0030 70FFFFFF 		.quad	-144
 4178      FFFFFFFF 
 4179 0038 00000000 		.quad	_ZTISo
 4179      00000000 
 4180 0040 00000000 		.quad	0
 4180      00000000 
 4181 0048 00000000 		.quad	0
 4181      00000000 
 4182              		.weak	_ZTI26TestI2C_testFinaliseNoInit
 4183              		.section	.data.rel.ro._ZTI26TestI2C_testFinaliseNoInit,"awG",@progbits,_ZTI26TestI2C_testFinaliseN
 4184              		.align 8
 4187              	_ZTI26TestI2C_testFinaliseNoInit:
 4188 0000 00000000 		.quad	_ZTVN10__cxxabiv120__si_class_type_infoE+16
 4188      00000000 
 4189 0008 00000000 		.quad	_ZTS26TestI2C_testFinaliseNoInit
 4189      00000000 
 4190 0010 00000000 		.quad	_ZTIN8UnitTest4TestE
 4190      00000000 
 4191              		.weak	_ZTS26TestI2C_testFinaliseNoInit
 4192              		.section	.rodata._ZTS26TestI2C_testFinaliseNoInit,"aG",@progbits,_ZTS26TestI2C_testFinaliseNoInit,
 4193              		.align 16
 4196              	_ZTS26TestI2C_testFinaliseNoInit:
 4197 0000 32365465 		.string	"26TestI2C_testFinaliseNoInit"
 4197      73744932 
 4197      435F7465 
 4197      73744669 
 4197      6E616C69 
 4198              		.weak	_ZTI21TestI2C_testWPRNoInit
 4199              		.section	.data.rel.ro._ZTI21TestI2C_testWPRNoInit,"awG",@progbits,_ZTI21TestI2C_testWPRNoInit,comd
 4200              		.align 8
 4203              	_ZTI21TestI2C_testWPRNoInit:
 4204 0000 00000000 		.quad	_ZTVN10__cxxabiv120__si_class_type_infoE+16
 4204      00000000 
 4205 0008 00000000 		.quad	_ZTS21TestI2C_testWPRNoInit
 4205      00000000 
 4206 0010 00000000 		.quad	_ZTIN8UnitTest4TestE
 4206      00000000 
 4207              		.weak	_ZTS21TestI2C_testWPRNoInit
 4208              		.section	.rodata._ZTS21TestI2C_testWPRNoInit,"aG",@progbits,_ZTS21TestI2C_testWPRNoInit,comdat
 4209              		.align 16
 4212              	_ZTS21TestI2C_testWPRNoInit:
 4213 0000 32315465 		.string	"21TestI2C_testWPRNoInit"
 4213      73744932 
 4213      435F7465 
 4213      73745750 
 4213      524E6F49 
 4214              		.weak	_ZTI21TestI2C_testRoundTrip
 4215              		.section	.data.rel.ro._ZTI21TestI2C_testRoundTrip,"awG",@progbits,_ZTI21TestI2C_testRoundTrip,comd
 4216              		.align 8
 4219              	_ZTI21TestI2C_testRoundTrip:
 4220 0000 00000000 		.quad	_ZTVN10__cxxabiv120__si_class_type_infoE+16
 4220      00000000 
 4221 0008 00000000 		.quad	_ZTS21TestI2C_testRoundTrip
 4221      00000000 
 4222 0010 00000000 		.quad	_ZTIN8UnitTest4TestE
 4222      00000000 
 4223              		.weak	_ZTS21TestI2C_testRoundTrip
 4224              		.section	.rodata._ZTS21TestI2C_testRoundTrip,"aG",@progbits,_ZTS21TestI2C_testRoundTrip,comdat
 4225              		.align 16
 4228              	_ZTS21TestI2C_testRoundTrip:
 4229 0000 32315465 		.string	"21TestI2C_testRoundTrip"
 4229      73744932 
 4229      435F7465 
 4229      7374526F 
 4229      756E6454 
 4230              		.weak	_ZTI22TestI2C_testInitialise
 4231              		.section	.data.rel.ro._ZTI22TestI2C_testInitialise,"awG",@progbits,_ZTI22TestI2C_testInitialise,co
 4232              		.align 8
 4235              	_ZTI22TestI2C_testInitialise:
 4236 0000 00000000 		.quad	_ZTVN10__cxxabiv120__si_class_type_infoE+16
 4236      00000000 
 4237 0008 00000000 		.quad	_ZTS22TestI2C_testInitialise
 4237      00000000 
 4238 0010 00000000 		.quad	_ZTIN8UnitTest4TestE
 4238      00000000 
 4239              		.weak	_ZTS22TestI2C_testInitialise
 4240              		.section	.rodata._ZTS22TestI2C_testInitialise,"aG",@progbits,_ZTS22TestI2C_testInitialise,comdat
 4241              		.align 16
 4244              	_ZTS22TestI2C_testInitialise:
 4245 0000 32325465 		.string	"22TestI2C_testInitialise"
 4245      73744932 
 4245      435F7465 
 4245      7374496E 
 4245      69746961 
 4246              		.weak	_ZTIN8UnitTest15MemoryOutStreamE
 4247              		.section	.data.rel.ro._ZTIN8UnitTest15MemoryOutStreamE,"awG",@progbits,_ZTIN8UnitTest15MemoryOutSt
 4248              		.align 8
 4251              	_ZTIN8UnitTest15MemoryOutStreamE:
 4252 0000 00000000 		.quad	_ZTVN10__cxxabiv120__si_class_type_infoE+16
 4252      00000000 
 4253 0008 00000000 		.quad	_ZTSN8UnitTest15MemoryOutStreamE
 4253      00000000 
 4254 0010 00000000 		.quad	_ZTINSt7__cxx1119basic_ostringstreamIcSt11char_traitsIcESaIcEEE
 4254      00000000 
 4255              		.weak	_ZTSN8UnitTest15MemoryOutStreamE
 4256              		.section	.rodata._ZTSN8UnitTest15MemoryOutStreamE,"aG",@progbits,_ZTSN8UnitTest15MemoryOutStreamE,
 4257              		.align 16
 4260              	_ZTSN8UnitTest15MemoryOutStreamE:
 4261 0000 4E38556E 		.string	"N8UnitTest15MemoryOutStreamE"
 4261      69745465 
 4261      73743135 
 4261      4D656D6F 
 4261      72794F75 
 4262              		.text
 4264              	_Z41__static_initialization_and_destruction_0ii:
 4265              	.LFB1268:
 4266              		.loc 3 115 1 is_stmt 1
 4267              		.cfi_startproc
 4268 1214 F30F1EFA 		endbr64
 4269 1218 55       		pushq	%rbp
 4270              		.cfi_def_cfa_offset 16
 4271              		.cfi_offset 6, -16
 4272 1219 4889E5   		movq	%rsp, %rbp
 4273              		.cfi_def_cfa_register 6
 4274 121c 4883EC10 		subq	$16, %rsp
 4275 1220 897DFC   		movl	%edi, -4(%rbp)
 4276 1223 8975F8   		movl	%esi, -8(%rbp)
 4277              		.loc 3 115 1
 4278 1226 837DFC01 		cmpl	$1, -4(%rbp)
 4279 122a 0F856501 		jne	.L205
 4279      0000
 4280              		.loc 3 115 1 is_stmt 0 discriminator 1
 4281 1230 817DF8FF 		cmpl	$65535, -8(%rbp)
 4281      FF0000
 4282 1237 0F855801 		jne	.L205
 4282      0000
  31:testI2C.cpp   **** 	Buffer i2cBuffer;
 4283              		.loc 3 31 1 is_stmt 1
 4284 123d 488D0500 		leaq	testI2C_testInitialiseInstance(%rip), %rax
 4284      000000
 4285 1244 4889C7   		movq	%rax, %rdi
 4286 1247 E8000000 		call	_ZN22TestI2C_testInitialiseC1Ev
 4286      00
 4287 124c 488D0500 		leaq	__dso_handle(%rip), %rax
 4287      000000
 4288 1253 4889C2   		movq	%rax, %rdx
 4289 1256 488D0500 		leaq	testI2C_testInitialiseInstance(%rip), %rax
 4289      000000
 4290 125d 4889C6   		movq	%rax, %rsi
 4291 1260 488D0500 		leaq	_ZN22TestI2C_testInitialiseD1Ev(%rip), %rax
 4291      000000
 4292 1267 4889C7   		movq	%rax, %rdi
 4293 126a E8000000 		call	__cxa_atexit@PLT
 4293      00
 4294 126f E8000000 		call	_ZN8UnitTest4Test11GetTestListEv@PLT
 4294      00
 4295 1274 4889C1   		movq	%rax, %rcx
 4296 1277 488D0500 		leaq	testI2C_testInitialiseInstance(%rip), %rax
 4296      000000
 4297 127e 4889C2   		movq	%rax, %rdx
 4298 1281 4889CE   		movq	%rcx, %rsi
 4299 1284 488D0500 		leaq	adderI2C_testInitialise(%rip), %rax
 4299      000000
 4300 128b 4889C7   		movq	%rax, %rdi
 4301 128e E8000000 		call	_ZN8UnitTest9ListAdderC1ERNS_8TestListEPNS_4TestE@PLT
 4301      00
  47:testI2C.cpp   **** 	uint32 i, j;
 4302              		.loc 3 47 1
 4303 1293 488D0500 		leaq	testI2C_testRoundTripInstance(%rip), %rax
 4303      000000
 4304 129a 4889C7   		movq	%rax, %rdi
 4305 129d E8000000 		call	_ZN21TestI2C_testRoundTripC1Ev
 4305      00
 4306 12a2 488D0500 		leaq	__dso_handle(%rip), %rax
 4306      000000
 4307 12a9 4889C2   		movq	%rax, %rdx
 4308 12ac 488D0500 		leaq	testI2C_testRoundTripInstance(%rip), %rax
 4308      000000
 4309 12b3 4889C6   		movq	%rax, %rsi
 4310 12b6 488D0500 		leaq	_ZN21TestI2C_testRoundTripD1Ev(%rip), %rax
 4310      000000
 4311 12bd 4889C7   		movq	%rax, %rdi
 4312 12c0 E8000000 		call	__cxa_atexit@PLT
 4312      00
 4313 12c5 E8000000 		call	_ZN8UnitTest4Test11GetTestListEv@PLT
 4313      00
 4314 12ca 4889C1   		movq	%rax, %rcx
 4315 12cd 488D0500 		leaq	testI2C_testRoundTripInstance(%rip), %rax
 4315      000000
 4316 12d4 4889C2   		movq	%rax, %rdx
 4317 12d7 4889CE   		movq	%rcx, %rsi
 4318 12da 488D0500 		leaq	adderI2C_testRoundTrip(%rip), %rax
 4318      000000
 4319 12e1 4889C7   		movq	%rax, %rdi
 4320 12e4 E8000000 		call	_ZN8UnitTest9ListAdderC1ERNS_8TestListEPNS_4TestE@PLT
 4320      00
  95:testI2C.cpp   **** 	Buffer i2cBuffer;
 4321              		.loc 3 95 1
 4322 12e9 488D0500 		leaq	testI2C_testWPRNoInitInstance(%rip), %rax
 4322      000000
 4323 12f0 4889C7   		movq	%rax, %rdi
 4324 12f3 E8000000 		call	_ZN21TestI2C_testWPRNoInitC1Ev
 4324      00
 4325 12f8 488D0500 		leaq	__dso_handle(%rip), %rax
 4325      000000
 4326 12ff 4889C2   		movq	%rax, %rdx
 4327 1302 488D0500 		leaq	testI2C_testWPRNoInitInstance(%rip), %rax
 4327      000000
 4328 1309 4889C6   		movq	%rax, %rsi
 4329 130c 488D0500 		leaq	_ZN21TestI2C_testWPRNoInitD1Ev(%rip), %rax
 4329      000000
 4330 1313 4889C7   		movq	%rax, %rdi
 4331 1316 E8000000 		call	__cxa_atexit@PLT
 4331      00
 4332 131b E8000000 		call	_ZN8UnitTest4Test11GetTestListEv@PLT
 4332      00
 4333 1320 4889C1   		movq	%rax, %rcx
 4334 1323 488D0500 		leaq	testI2C_testWPRNoInitInstance(%rip), %rax
 4334      000000
 4335 132a 4889C2   		movq	%rax, %rdx
 4336 132d 4889CE   		movq	%rcx, %rsi
 4337 1330 488D0500 		leaq	adderI2C_testWPRNoInit(%rip), %rax
 4337      000000
 4338 1337 4889C7   		movq	%rax, %rdi
 4339 133a E8000000 		call	_ZN8UnitTest9ListAdderC1ERNS_8TestListEPNS_4TestE@PLT
 4339      00
 106:testI2C.cpp   **** 	Buffer buf;
 4340              		.loc 3 106 1
 4341 133f 488D0500 		leaq	testI2C_testFinaliseNoInitInstance(%rip), %rax
 4341      000000
 4342 1346 4889C7   		movq	%rax, %rdi
 4343 1349 E8000000 		call	_ZN26TestI2C_testFinaliseNoInitC1Ev
 4343      00
 4344 134e 488D0500 		leaq	__dso_handle(%rip), %rax
 4344      000000
 4345 1355 4889C2   		movq	%rax, %rdx
 4346 1358 488D0500 		leaq	testI2C_testFinaliseNoInitInstance(%rip), %rax
 4346      000000
 4347 135f 4889C6   		movq	%rax, %rsi
 4348 1362 488D0500 		leaq	_ZN26TestI2C_testFinaliseNoInitD1Ev(%rip), %rax
 4348      000000
 4349 1369 4889C7   		movq	%rax, %rdi
 4350 136c E8000000 		call	__cxa_atexit@PLT
 4350      00
 4351 1371 E8000000 		call	_ZN8UnitTest4Test11GetTestListEv@PLT
 4351      00
 4352 1376 4889C1   		movq	%rax, %rcx
 4353 1379 488D0500 		leaq	testI2C_testFinaliseNoInitInstance(%rip), %rax
 4353      000000
 4354 1380 4889C2   		movq	%rax, %rdx
 4355 1383 4889CE   		movq	%rcx, %rsi
 4356 1386 488D0500 		leaq	adderI2C_testFinaliseNoInit(%rip), %rax
 4356      000000
 4357 138d 4889C7   		movq	%rax, %rdi
 4358 1390 E8000000 		call	_ZN8UnitTest9ListAdderC1ERNS_8TestListEPNS_4TestE@PLT
 4358      00
 4359              	.L205:
 4360              		.loc 3 115 1
 4361 1395 90       		nop
 4362 1396 C9       		leave
 4363              		.cfi_def_cfa 7, 8
 4364 1397 C3       		ret
 4365              		.cfi_endproc
 4366              	.LFE1268:
 4369              	_GLOBAL__sub_I_testI2C_testInitialiseInstance:
 4370              	.LFB1269:
 4371              		.loc 3 115 1
 4372              		.cfi_startproc
 4373 1398 F30F1EFA 		endbr64
 4374 139c 55       		pushq	%rbp
 4375              		.cfi_def_cfa_offset 16
 4376              		.cfi_offset 6, -16
 4377 139d 4889E5   		movq	%rsp, %rbp
 4378              		.cfi_def_cfa_register 6
 4379              		.loc 3 115 1
 4380 13a0 BEFFFF00 		movl	$65535, %esi
 4380      00
 4381 13a5 BF010000 		movl	$1, %edi
 4381      00
 4382 13aa E865FEFF 		call	_Z41__static_initialization_and_destruction_0ii
 4382      FF
 4383 13af 5D       		popq	%rbp
 4384              		.cfi_def_cfa 7, 8
 4385 13b0 C3       		ret
 4386              		.cfi_endproc
 4387              	.LFE1269:
 4389              		.section	.init_array,"aw"
 4390              		.align 8
 4391 0000 00000000 		.quad	_GLOBAL__sub_I_testI2C_testInitialiseInstance
 4391      00000000 
 4392              		.text
 4393              	.Letext0:
 4394              		.file 5 "/home/pong/FPGALink/makestuff/libs/libutpp/TestDetails.h"
 4395              		.file 6 "/home/pong/FPGALink/makestuff/libs/libutpp/TestList.h"
 4396              		.file 7 "/home/pong/FPGALink/makestuff/libs/libutpp/Test.h"
 4397              		.file 8 "/home/pong/FPGALink/makestuff/libs/libutpp/TestResults.h"
 4398              		.file 9 "/home/pong/FPGALink/makestuff/libs/libutpp/CurrentTest.h"
 4399              		.file 10 "<built-in>"
 4400              		.file 11 "/usr/lib/gcc/x86_64-linux-gnu/11/include/stddef.h"
 4401              		.file 12 "/usr/include/x86_64-linux-gnu/bits/types/wint_t.h"
 4402              		.file 13 "/usr/include/x86_64-linux-gnu/bits/types/__mbstate_t.h"
 4403              		.file 14 "/usr/include/x86_64-linux-gnu/bits/types/mbstate_t.h"
 4404              		.file 15 "/usr/include/x86_64-linux-gnu/bits/types/__FILE.h"
 4405              		.file 16 "/usr/include/c++/11/cwchar"
 4406              		.file 17 "/usr/include/c++/11/bits/char_traits.h"
 4407              		.file 18 "/usr/include/x86_64-linux-gnu/c++/11/bits/c++config.h"
 4408              		.file 19 "/usr/include/c++/11/clocale"
 4409              		.file 20 "/usr/include/c++/11/bits/allocator.h"
 4410              		.file 21 "/usr/include/c++/11/bits/basic_string.h"
 4411              		.file 22 "/usr/include/c++/11/bits/basic_string.tcc"
 4412              		.file 23 "/usr/include/c++/11/sstream"
 4413              		.file 24 "/usr/include/c++/11/bits/stringfwd.h"
 4414              		.file 25 "/usr/include/c++/11/cwctype"
 4415              		.file 26 "/usr/include/c++/11/bits/ostream.tcc"
 4416              		.file 27 "/usr/include/c++/11/ostream"
 4417              		.file 28 "/usr/include/c++/11/bits/basic_ios.h"
 4418              		.file 29 "/usr/include/wchar.h"
 4419              		.file 30 "/usr/include/x86_64-linux-gnu/bits/types/struct_tm.h"
 4420              		.file 31 "/usr/include/c++/11/debug/debug.h"
 4421              		.file 32 "/usr/include/c++/11/bits/predefined_ops.h"
 4422              		.file 33 "/usr/include/c++/11/ext/new_allocator.h"
 4423              		.file 34 "/usr/include/c++/11/ext/alloc_traits.h"
 4424              		.file 35 "/usr/include/locale.h"
 4425              		.file 36 "/usr/include/x86_64-linux-gnu/bits/types.h"
 4426              		.file 37 "/usr/include/x86_64-linux-gnu/bits/wctype-wchar.h"
 4427              		.file 38 "/usr/include/wctype.h"
 4428              		.file 39 "/home/pong/FPGALink/makestuff/common/makestuff.h"
 4429              		.file 40 "/home/pong/FPGALink/makestuff/libs/libbuffer/libbuffer.h"
 4430              		.file 41 "../libfx2loader.h"
 4431              		.file 42 "/usr/include/c++/11/new"
 15944              		.align 8
 15947              	DW.ref.__gxx_personality_v0:
 15948 0000 00000000 		.quad	__gxx_personality_v0
 15948      00000000 
 15949              		.hidden	__dso_handle
 15950              		.ident	"GCC: (Ubuntu 11.3.0-1ubuntu1~22.04) 11.3.0"
 15951              		.section	.note.GNU-stack,"",@progbits
 15952              		.section	.note.gnu.property,"a"
 15953              		.align 8
 15954 0000 04000000 		.long	1f - 0f
 15955 0004 10000000 		.long	4f - 1f
 15956 0008 05000000 		.long	5
 15957              	0:
 15958 000c 474E5500 		.string	"GNU"
 15959              	1:
 15960              		.align 8
 15961 0010 020000C0 		.long	0xc0000002
 15962 0014 04000000 		.long	3f - 2f
 15963              	2:
 15964 0018 03000000 		.long	0x3
 15965              	3:
 15966 001c 00000000 		.align 8
 15967              	4: