   1              		.file	"testHexIO.cpp"
   2              		.text
   3              		.section	.text._ZN28TestHexIO_testDeriveWriteMapD2Ev,"axG",@progbits,_ZN28TestHexIO_testDeriveWrit
   4              		.align 2
   5              		.p2align 4
   6              		.weak	_ZN28TestHexIO_testDeriveWriteMapD2Ev
   8              	_ZN28TestHexIO_testDeriveWriteMapD2Ev:
   9              	.LFB1494:
  10              		.cfi_startproc
  11 0000 F30F1EFA 		endbr64
  12 0004 488D0500 		leaq	16+_ZTV28TestHexIO_testDeriveWriteMap(%rip), %rax
  12      000000
  13 000b 488907   		movq	%rax, (%rdi)
  14 000e E9000000 		jmp	_ZN8UnitTest4TestD2Ev@PLT
  14      00
  15              		.cfi_endproc
  16              	.LFE1494:
  18              		.weak	_ZN28TestHexIO_testDeriveWriteMapD1Ev
  19              		.set	_ZN28TestHexIO_testDeriveWriteMapD1Ev,_ZN28TestHexIO_testDeriveWriteMapD2Ev
  20              		.section	.text._ZN28TestHexIO_testDeriveWriteMapD0Ev,"axG",@progbits,_ZN28TestHexIO_testDeriveWrit
  21              		.align 2
  22              		.p2align 4
  23              		.weak	_ZN28TestHexIO_testDeriveWriteMapD0Ev
  25              	_ZN28TestHexIO_testDeriveWriteMapD0Ev:
  26              	.LFB1496:
  27              		.cfi_startproc
  28              		.cfi_personality 0x9b,DW.ref.__gxx_personality_v0
  29              		.cfi_lsda 0x1b,.LLSDA1496
  30 0000 F30F1EFA 		endbr64
  31 0004 4154     		pushq	%r12
  32              		.cfi_def_cfa_offset 16
  33              		.cfi_offset 12, -16
  34 0006 488D0500 		leaq	16+_ZTV28TestHexIO_testDeriveWriteMap(%rip), %rax
  34      000000
  35 000d 55       		pushq	%rbp
  36              		.cfi_def_cfa_offset 24
  37              		.cfi_offset 6, -24
  38 000e 4889FD   		movq	%rdi, %rbp
  39 0011 4883EC08 		subq	$8, %rsp
  40              		.cfi_def_cfa_offset 32
  41 0015 488907   		movq	%rax, (%rdi)
  42              	.LEHB0:
  43 0018 E8000000 		call	_ZN8UnitTest4TestD2Ev@PLT
  43      00
  44              	.LEHE0:
  45 001d 4883C408 		addq	$8, %rsp
  46              		.cfi_remember_state
  47              		.cfi_def_cfa_offset 24
  48 0021 4889EF   		movq	%rbp, %rdi
  49 0024 5D       		popq	%rbp
  50              		.cfi_def_cfa_offset 16
  51 0025 415C     		popq	%r12
  52              		.cfi_def_cfa_offset 8
  53 0027 E9000000 		jmp	_ZdlPv@PLT
  53      00
  54              	.L5:
  55              		.cfi_restore_state
  56 002c F30F1EFA 		endbr64
  57 0030 4989C4   		movq	%rax, %r12
  58              	.L4:
  59 0033 4889EF   		movq	%rbp, %rdi
  60 0036 E8000000 		call	_ZdlPv@PLT
  60      00
  61 003b 4C89E7   		movq	%r12, %rdi
  62              	.LEHB1:
  63 003e E8000000 		call	_Unwind_Resume@PLT
  63      00
  64              	.LEHE1:
  65              		.cfi_endproc
  66              	.LFE1496:
  67              		.globl	__gxx_personality_v0
  68              		.section	.gcc_except_table._ZN28TestHexIO_testDeriveWriteMapD0Ev,"aG",@progbits,_ZN28TestHexIO_tes
  69              	.LLSDA1496:
  70 0000 FF       		.byte	0xff
  71 0001 FF       		.byte	0xff
  72 0002 01       		.byte	0x1
  73 0003 08       		.uleb128 .LLSDACSE1496-.LLSDACSB1496
  74              	.LLSDACSB1496:
  75 0004 18       		.uleb128 .LEHB0-.LFB1496
  76 0005 05       		.uleb128 .LEHE0-.LEHB0
  77 0006 2C       		.uleb128 .L5-.LFB1496
  78 0007 00       		.uleb128 0
  79 0008 3E       		.uleb128 .LEHB1-.LFB1496
  80 0009 05       		.uleb128 .LEHE1-.LEHB1
  81 000a 00       		.uleb128 0
  82 000b 00       		.uleb128 0
  83              	.LLSDACSE1496:
  84              		.section	.text._ZN28TestHexIO_testDeriveWriteMapD0Ev,"axG",@progbits,_ZN28TestHexIO_testDeriveWrit
  86              		.section	.text._ZN23TestHexIO_testRoundTripD2Ev,"axG",@progbits,_ZN23TestHexIO_testRoundTripD5Ev,c
  87              		.align 2
  88              		.p2align 4
  89              		.weak	_ZN23TestHexIO_testRoundTripD2Ev
  91              	_ZN23TestHexIO_testRoundTripD2Ev:
  92              	.LFB1498:
  93              		.cfi_startproc
  94 0000 F30F1EFA 		endbr64
  95 0004 488D0500 		leaq	16+_ZTV23TestHexIO_testRoundTrip(%rip), %rax
  95      000000
  96 000b 488907   		movq	%rax, (%rdi)
  97 000e E9000000 		jmp	_ZN8UnitTest4TestD2Ev@PLT
  97      00
  98              		.cfi_endproc
  99              	.LFE1498:
 101              		.weak	_ZN23TestHexIO_testRoundTripD1Ev
 102              		.set	_ZN23TestHexIO_testRoundTripD1Ev,_ZN23TestHexIO_testRoundTripD2Ev
 103              		.section	.text._ZN23TestHexIO_testRoundTripD0Ev,"axG",@progbits,_ZN23TestHexIO_testRoundTripD5Ev,c
 104              		.align 2
 105              		.p2align 4
 106              		.weak	_ZN23TestHexIO_testRoundTripD0Ev
 108              	_ZN23TestHexIO_testRoundTripD0Ev:
 109              	.LFB1500:
 110              		.cfi_startproc
 111              		.cfi_personality 0x9b,DW.ref.__gxx_personality_v0
 112              		.cfi_lsda 0x1b,.LLSDA1500
 113 0000 F30F1EFA 		endbr64
 114 0004 4154     		pushq	%r12
 115              		.cfi_def_cfa_offset 16
 116              		.cfi_offset 12, -16
 117 0006 488D0500 		leaq	16+_ZTV23TestHexIO_testRoundTrip(%rip), %rax
 117      000000
 118 000d 55       		pushq	%rbp
 119              		.cfi_def_cfa_offset 24
 120              		.cfi_offset 6, -24
 121 000e 4889FD   		movq	%rdi, %rbp
 122 0011 4883EC08 		subq	$8, %rsp
 123              		.cfi_def_cfa_offset 32
 124 0015 488907   		movq	%rax, (%rdi)
 125              	.LEHB2:
 126 0018 E8000000 		call	_ZN8UnitTest4TestD2Ev@PLT
 126      00
 127              	.LEHE2:
 128 001d 4883C408 		addq	$8, %rsp
 129              		.cfi_remember_state
 130              		.cfi_def_cfa_offset 24
 131 0021 4889EF   		movq	%rbp, %rdi
 132 0024 5D       		popq	%rbp
 133              		.cfi_def_cfa_offset 16
 134 0025 415C     		popq	%r12
 135              		.cfi_def_cfa_offset 8
 136 0027 E9000000 		jmp	_ZdlPv@PLT
 136      00
 137              	.L10:
 138              		.cfi_restore_state
 139 002c F30F1EFA 		endbr64
 140 0030 4989C4   		movq	%rax, %r12
 141              	.L9:
 142 0033 4889EF   		movq	%rbp, %rdi
 143 0036 E8000000 		call	_ZdlPv@PLT
 143      00
 144 003b 4C89E7   		movq	%r12, %rdi
 145              	.LEHB3:
 146 003e E8000000 		call	_Unwind_Resume@PLT
 146      00
 147              	.LEHE3:
 148              		.cfi_endproc
 149              	.LFE1500:
 150              		.section	.gcc_except_table._ZN23TestHexIO_testRoundTripD0Ev,"aG",@progbits,_ZN23TestHexIO_testRoun
 151              	.LLSDA1500:
 152 0000 FF       		.byte	0xff
 153 0001 FF       		.byte	0xff
 154 0002 01       		.byte	0x1
 155 0003 08       		.uleb128 .LLSDACSE1500-.LLSDACSB1500
 156              	.LLSDACSB1500:
 157 0004 18       		.uleb128 .LEHB2-.LFB1500
 158 0005 05       		.uleb128 .LEHE2-.LEHB2
 159 0006 2C       		.uleb128 .L10-.LFB1500
 160 0007 00       		.uleb128 0
 161 0008 3E       		.uleb128 .LEHB3-.LFB1500
 162 0009 05       		.uleb128 .LEHE3-.LEHB3
 163 000a 00       		.uleb128 0
 164 000b 00       		.uleb128 0
 165              	.LLSDACSE1500:
 166              		.section	.text._ZN23TestHexIO_testRoundTripD0Ev,"axG",@progbits,_ZN23TestHexIO_testRoundTripD5Ev,c
 168              		.section	.text._ZN25TestHexIO_testCorruptLineD2Ev,"axG",@progbits,_ZN25TestHexIO_testCorruptLineD5
 169              		.align 2
 170              		.p2align 4
 171              		.weak	_ZN25TestHexIO_testCorruptLineD2Ev
 173              	_ZN25TestHexIO_testCorruptLineD2Ev:
 174              	.LFB1502:
 175              		.cfi_startproc
 176 0000 F30F1EFA 		endbr64
 177 0004 488D0500 		leaq	16+_ZTV25TestHexIO_testCorruptLine(%rip), %rax
 177      000000
 178 000b 488907   		movq	%rax, (%rdi)
 179 000e E9000000 		jmp	_ZN8UnitTest4TestD2Ev@PLT
 179      00
 180              		.cfi_endproc
 181              	.LFE1502:
 183              		.weak	_ZN25TestHexIO_testCorruptLineD1Ev
 184              		.set	_ZN25TestHexIO_testCorruptLineD1Ev,_ZN25TestHexIO_testCorruptLineD2Ev
 185              		.section	.text._ZN25TestHexIO_testCorruptLineD0Ev,"axG",@progbits,_ZN25TestHexIO_testCorruptLineD5
 186              		.align 2
 187              		.p2align 4
 188              		.weak	_ZN25TestHexIO_testCorruptLineD0Ev
 190              	_ZN25TestHexIO_testCorruptLineD0Ev:
 191              	.LFB1504:
 192              		.cfi_startproc
 193              		.cfi_personality 0x9b,DW.ref.__gxx_personality_v0
 194              		.cfi_lsda 0x1b,.LLSDA1504
 195 0000 F30F1EFA 		endbr64
 196 0004 4154     		pushq	%r12
 197              		.cfi_def_cfa_offset 16
 198              		.cfi_offset 12, -16
 199 0006 488D0500 		leaq	16+_ZTV25TestHexIO_testCorruptLine(%rip), %rax
 199      000000
 200 000d 55       		pushq	%rbp
 201              		.cfi_def_cfa_offset 24
 202              		.cfi_offset 6, -24
 203 000e 4889FD   		movq	%rdi, %rbp
 204 0011 4883EC08 		subq	$8, %rsp
 205              		.cfi_def_cfa_offset 32
 206 0015 488907   		movq	%rax, (%rdi)
 207              	.LEHB4:
 208 0018 E8000000 		call	_ZN8UnitTest4TestD2Ev@PLT
 208      00
 209              	.LEHE4:
 210 001d 4883C408 		addq	$8, %rsp
 211              		.cfi_remember_state
 212              		.cfi_def_cfa_offset 24
 213 0021 4889EF   		movq	%rbp, %rdi
 214 0024 5D       		popq	%rbp
 215              		.cfi_def_cfa_offset 16
 216 0025 415C     		popq	%r12
 217              		.cfi_def_cfa_offset 8
 218 0027 E9000000 		jmp	_ZdlPv@PLT
 218      00
 219              	.L15:
 220              		.cfi_restore_state
 221 002c F30F1EFA 		endbr64
 222 0030 4989C4   		movq	%rax, %r12
 223              	.L14:
 224 0033 4889EF   		movq	%rbp, %rdi
 225 0036 E8000000 		call	_ZdlPv@PLT
 225      00
 226 003b 4C89E7   		movq	%r12, %rdi
 227              	.LEHB5:
 228 003e E8000000 		call	_Unwind_Resume@PLT
 228      00
 229              	.LEHE5:
 230              		.cfi_endproc
 231              	.LFE1504:
 232              		.section	.gcc_except_table._ZN25TestHexIO_testCorruptLineD0Ev,"aG",@progbits,_ZN25TestHexIO_testCo
 233              	.LLSDA1504:
 234 0000 FF       		.byte	0xff
 235 0001 FF       		.byte	0xff
 236 0002 01       		.byte	0x1
 237 0003 08       		.uleb128 .LLSDACSE1504-.LLSDACSB1504
 238              	.LLSDACSB1504:
 239 0004 18       		.uleb128 .LEHB4-.LFB1504
 240 0005 05       		.uleb128 .LEHE4-.LEHB4
 241 0006 2C       		.uleb128 .L15-.LFB1504
 242 0007 00       		.uleb128 0
 243 0008 3E       		.uleb128 .LEHB5-.LFB1504
 244 0009 05       		.uleb128 .LEHE5-.LEHB5
 245 000a 00       		.uleb128 0
 246 000b 00       		.uleb128 0
 247              	.LLSDACSE1504:
 248              		.section	.text._ZN25TestHexIO_testCorruptLineD0Ev,"axG",@progbits,_ZN25TestHexIO_testCorruptLineD5
 250              		.section	.text._ZN25TestHexIO_testBadChecksumD2Ev,"axG",@progbits,_ZN25TestHexIO_testBadChecksumD5
 251              		.align 2
 252              		.p2align 4
 253              		.weak	_ZN25TestHexIO_testBadChecksumD2Ev
 255              	_ZN25TestHexIO_testBadChecksumD2Ev:
 256              	.LFB1506:
 257              		.cfi_startproc
 258 0000 F30F1EFA 		endbr64
 259 0004 488D0500 		leaq	16+_ZTV25TestHexIO_testBadChecksum(%rip), %rax
 259      000000
 260 000b 488907   		movq	%rax, (%rdi)
 261 000e E9000000 		jmp	_ZN8UnitTest4TestD2Ev@PLT
 261      00
 262              		.cfi_endproc
 263              	.LFE1506:
 265              		.weak	_ZN25TestHexIO_testBadChecksumD1Ev
 266              		.set	_ZN25TestHexIO_testBadChecksumD1Ev,_ZN25TestHexIO_testBadChecksumD2Ev
 267              		.section	.text._ZN25TestHexIO_testBadChecksumD0Ev,"axG",@progbits,_ZN25TestHexIO_testBadChecksumD5
 268              		.align 2
 269              		.p2align 4
 270              		.weak	_ZN25TestHexIO_testBadChecksumD0Ev
 272              	_ZN25TestHexIO_testBadChecksumD0Ev:
 273              	.LFB1508:
 274              		.cfi_startproc
 275              		.cfi_personality 0x9b,DW.ref.__gxx_personality_v0
 276              		.cfi_lsda 0x1b,.LLSDA1508
 277 0000 F30F1EFA 		endbr64
 278 0004 4154     		pushq	%r12
 279              		.cfi_def_cfa_offset 16
 280              		.cfi_offset 12, -16
 281 0006 488D0500 		leaq	16+_ZTV25TestHexIO_testBadChecksum(%rip), %rax
 281      000000
 282 000d 55       		pushq	%rbp
 283              		.cfi_def_cfa_offset 24
 284              		.cfi_offset 6, -24
 285 000e 4889FD   		movq	%rdi, %rbp
 286 0011 4883EC08 		subq	$8, %rsp
 287              		.cfi_def_cfa_offset 32
 288 0015 488907   		movq	%rax, (%rdi)
 289              	.LEHB6:
 290 0018 E8000000 		call	_ZN8UnitTest4TestD2Ev@PLT
 290      00
 291              	.LEHE6:
 292 001d 4883C408 		addq	$8, %rsp
 293              		.cfi_remember_state
 294              		.cfi_def_cfa_offset 24
 295 0021 4889EF   		movq	%rbp, %rdi
 296 0024 5D       		popq	%rbp
 297              		.cfi_def_cfa_offset 16
 298 0025 415C     		popq	%r12
 299              		.cfi_def_cfa_offset 8
 300 0027 E9000000 		jmp	_ZdlPv@PLT
 300      00
 301              	.L20:
 302              		.cfi_restore_state
 303 002c F30F1EFA 		endbr64
 304 0030 4989C4   		movq	%rax, %r12
 305              	.L19:
 306 0033 4889EF   		movq	%rbp, %rdi
 307 0036 E8000000 		call	_ZdlPv@PLT
 307      00
 308 003b 4C89E7   		movq	%r12, %rdi
 309              	.LEHB7:
 310 003e E8000000 		call	_Unwind_Resume@PLT
 310      00
 311              	.LEHE7:
 312              		.cfi_endproc
 313              	.LFE1508:
 314              		.section	.gcc_except_table._ZN25TestHexIO_testBadChecksumD0Ev,"aG",@progbits,_ZN25TestHexIO_testBa
 315              	.LLSDA1508:
 316 0000 FF       		.byte	0xff
 317 0001 FF       		.byte	0xff
 318 0002 01       		.byte	0x1
 319 0003 08       		.uleb128 .LLSDACSE1508-.LLSDACSB1508
 320              	.LLSDACSB1508:
 321 0004 18       		.uleb128 .LEHB6-.LFB1508
 322 0005 05       		.uleb128 .LEHE6-.LEHB6
 323 0006 2C       		.uleb128 .L20-.LFB1508
 324 0007 00       		.uleb128 0
 325 0008 3E       		.uleb128 .LEHB7-.LFB1508
 326 0009 05       		.uleb128 .LEHE7-.LEHB7
 327 000a 00       		.uleb128 0
 328 000b 00       		.uleb128 0
 329              	.LLSDACSE1508:
 330              		.section	.text._ZN25TestHexIO_testBadChecksumD0Ev,"axG",@progbits,_ZN25TestHexIO_testBadChecksumD5
 332              		.section	.text._ZN26TestHexIO_testJunkChecksumD2Ev,"axG",@progbits,_ZN26TestHexIO_testJunkChecksum
 333              		.align 2
 334              		.p2align 4
 335              		.weak	_ZN26TestHexIO_testJunkChecksumD2Ev
 337              	_ZN26TestHexIO_testJunkChecksumD2Ev:
 338              	.LFB1510:
 339              		.cfi_startproc
 340 0000 F30F1EFA 		endbr64
 341 0004 488D0500 		leaq	16+_ZTV26TestHexIO_testJunkChecksum(%rip), %rax
 341      000000
 342 000b 488907   		movq	%rax, (%rdi)
 343 000e E9000000 		jmp	_ZN8UnitTest4TestD2Ev@PLT
 343      00
 344              		.cfi_endproc
 345              	.LFE1510:
 347              		.weak	_ZN26TestHexIO_testJunkChecksumD1Ev
 348              		.set	_ZN26TestHexIO_testJunkChecksumD1Ev,_ZN26TestHexIO_testJunkChecksumD2Ev
 349              		.section	.text._ZN26TestHexIO_testJunkChecksumD0Ev,"axG",@progbits,_ZN26TestHexIO_testJunkChecksum
 350              		.align 2
 351              		.p2align 4
 352              		.weak	_ZN26TestHexIO_testJunkChecksumD0Ev
 354              	_ZN26TestHexIO_testJunkChecksumD0Ev:
 355              	.LFB1512:
 356              		.cfi_startproc
 357              		.cfi_personality 0x9b,DW.ref.__gxx_personality_v0
 358              		.cfi_lsda 0x1b,.LLSDA1512
 359 0000 F30F1EFA 		endbr64
 360 0004 4154     		pushq	%r12
 361              		.cfi_def_cfa_offset 16
 362              		.cfi_offset 12, -16
 363 0006 488D0500 		leaq	16+_ZTV26TestHexIO_testJunkChecksum(%rip), %rax
 363      000000
 364 000d 55       		pushq	%rbp
 365              		.cfi_def_cfa_offset 24
 366              		.cfi_offset 6, -24
 367 000e 4889FD   		movq	%rdi, %rbp
 368 0011 4883EC08 		subq	$8, %rsp
 369              		.cfi_def_cfa_offset 32
 370 0015 488907   		movq	%rax, (%rdi)
 371              	.LEHB8:
 372 0018 E8000000 		call	_ZN8UnitTest4TestD2Ev@PLT
 372      00
 373              	.LEHE8:
 374 001d 4883C408 		addq	$8, %rsp
 375              		.cfi_remember_state
 376              		.cfi_def_cfa_offset 24
 377 0021 4889EF   		movq	%rbp, %rdi
 378 0024 5D       		popq	%rbp
 379              		.cfi_def_cfa_offset 16
 380 0025 415C     		popq	%r12
 381              		.cfi_def_cfa_offset 8
 382 0027 E9000000 		jmp	_ZdlPv@PLT
 382      00
 383              	.L25:
 384              		.cfi_restore_state
 385 002c F30F1EFA 		endbr64
 386 0030 4989C4   		movq	%rax, %r12
 387              	.L24:
 388 0033 4889EF   		movq	%rbp, %rdi
 389 0036 E8000000 		call	_ZdlPv@PLT
 389      00
 390 003b 4C89E7   		movq	%r12, %rdi
 391              	.LEHB9:
 392 003e E8000000 		call	_Unwind_Resume@PLT
 392      00
 393              	.LEHE9:
 394              		.cfi_endproc
 395              	.LFE1512:
 396              		.section	.gcc_except_table._ZN26TestHexIO_testJunkChecksumD0Ev,"aG",@progbits,_ZN26TestHexIO_testJ
 397              	.LLSDA1512:
 398 0000 FF       		.byte	0xff
 399 0001 FF       		.byte	0xff
 400 0002 01       		.byte	0x1
 401 0003 08       		.uleb128 .LLSDACSE1512-.LLSDACSB1512
 402              	.LLSDACSB1512:
 403 0004 18       		.uleb128 .LEHB8-.LFB1512
 404 0005 05       		.uleb128 .LEHE8-.LEHB8
 405 0006 2C       		.uleb128 .L25-.LFB1512
 406 0007 00       		.uleb128 0
 407 0008 3E       		.uleb128 .LEHB9-.LFB1512
 408 0009 05       		.uleb128 .LEHE9-.LEHB9
 409 000a 00       		.uleb128 0
 410 000b 00       		.uleb128 0
 411              	.LLSDACSE1512:
 412              		.section	.text._ZN26TestHexIO_testJunkChecksumD0Ev,"axG",@progbits,_ZN26TestHexIO_testJunkChecksum
 414              		.section	.text._ZN26TestHexIO_testJunkDataByteD2Ev,"axG",@progbits,_ZN26TestHexIO_testJunkDataByte
 415              		.align 2
 416              		.p2align 4
 417              		.weak	_ZN26TestHexIO_testJunkDataByteD2Ev
 419              	_ZN26TestHexIO_testJunkDataByteD2Ev:
 420              	.LFB1514:
 421              		.cfi_startproc
 422 0000 F30F1EFA 		endbr64
 423 0004 488D0500 		leaq	16+_ZTV26TestHexIO_testJunkDataByte(%rip), %rax
 423      000000
 424 000b 488907   		movq	%rax, (%rdi)
 425 000e E9000000 		jmp	_ZN8UnitTest4TestD2Ev@PLT
 425      00
 426              		.cfi_endproc
 427              	.LFE1514:
 429              		.weak	_ZN26TestHexIO_testJunkDataByteD1Ev
 430              		.set	_ZN26TestHexIO_testJunkDataByteD1Ev,_ZN26TestHexIO_testJunkDataByteD2Ev
 431              		.section	.text._ZN26TestHexIO_testJunkDataByteD0Ev,"axG",@progbits,_ZN26TestHexIO_testJunkDataByte
 432              		.align 2
 433              		.p2align 4
 434              		.weak	_ZN26TestHexIO_testJunkDataByteD0Ev
 436              	_ZN26TestHexIO_testJunkDataByteD0Ev:
 437              	.LFB1516:
 438              		.cfi_startproc
 439              		.cfi_personality 0x9b,DW.ref.__gxx_personality_v0
 440              		.cfi_lsda 0x1b,.LLSDA1516
 441 0000 F30F1EFA 		endbr64
 442 0004 4154     		pushq	%r12
 443              		.cfi_def_cfa_offset 16
 444              		.cfi_offset 12, -16
 445 0006 488D0500 		leaq	16+_ZTV26TestHexIO_testJunkDataByte(%rip), %rax
 445      000000
 446 000d 55       		pushq	%rbp
 447              		.cfi_def_cfa_offset 24
 448              		.cfi_offset 6, -24
 449 000e 4889FD   		movq	%rdi, %rbp
 450 0011 4883EC08 		subq	$8, %rsp
 451              		.cfi_def_cfa_offset 32
 452 0015 488907   		movq	%rax, (%rdi)
 453              	.LEHB10:
 454 0018 E8000000 		call	_ZN8UnitTest4TestD2Ev@PLT
 454      00
 455              	.LEHE10:
 456 001d 4883C408 		addq	$8, %rsp
 457              		.cfi_remember_state
 458              		.cfi_def_cfa_offset 24
 459 0021 4889EF   		movq	%rbp, %rdi
 460 0024 5D       		popq	%rbp
 461              		.cfi_def_cfa_offset 16
 462 0025 415C     		popq	%r12
 463              		.cfi_def_cfa_offset 8
 464 0027 E9000000 		jmp	_ZdlPv@PLT
 464      00
 465              	.L30:
 466              		.cfi_restore_state
 467 002c F30F1EFA 		endbr64
 468 0030 4989C4   		movq	%rax, %r12
 469              	.L29:
 470 0033 4889EF   		movq	%rbp, %rdi
 471 0036 E8000000 		call	_ZdlPv@PLT
 471      00
 472 003b 4C89E7   		movq	%r12, %rdi
 473              	.LEHB11:
 474 003e E8000000 		call	_Unwind_Resume@PLT
 474      00
 475              	.LEHE11:
 476              		.cfi_endproc
 477              	.LFE1516:
 478              		.section	.gcc_except_table._ZN26TestHexIO_testJunkDataByteD0Ev,"aG",@progbits,_ZN26TestHexIO_testJ
 479              	.LLSDA1516:
 480 0000 FF       		.byte	0xff
 481 0001 FF       		.byte	0xff
 482 0002 01       		.byte	0x1
 483 0003 08       		.uleb128 .LLSDACSE1516-.LLSDACSB1516
 484              	.LLSDACSB1516:
 485 0004 18       		.uleb128 .LEHB10-.LFB1516
 486 0005 05       		.uleb128 .LEHE10-.LEHB10
 487 0006 2C       		.uleb128 .L30-.LFB1516
 488 0007 00       		.uleb128 0
 489 0008 3E       		.uleb128 .LEHB11-.LFB1516
 490 0009 05       		.uleb128 .LEHE11-.LEHB11
 491 000a 00       		.uleb128 0
 492 000b 00       		.uleb128 0
 493              	.LLSDACSE1516:
 494              		.section	.text._ZN26TestHexIO_testJunkDataByteD0Ev,"axG",@progbits,_ZN26TestHexIO_testJunkDataByte
 496              		.section	.text._ZN25TestHexIO_testJunkRecTypeD2Ev,"axG",@progbits,_ZN25TestHexIO_testJunkRecTypeD5
 497              		.align 2
 498              		.p2align 4
 499              		.weak	_ZN25TestHexIO_testJunkRecTypeD2Ev
 501              	_ZN25TestHexIO_testJunkRecTypeD2Ev:
 502              	.LFB1518:
 503              		.cfi_startproc
 504 0000 F30F1EFA 		endbr64
 505 0004 488D0500 		leaq	16+_ZTV25TestHexIO_testJunkRecType(%rip), %rax
 505      000000
 506 000b 488907   		movq	%rax, (%rdi)
 507 000e E9000000 		jmp	_ZN8UnitTest4TestD2Ev@PLT
 507      00
 508              		.cfi_endproc
 509              	.LFE1518:
 511              		.weak	_ZN25TestHexIO_testJunkRecTypeD1Ev
 512              		.set	_ZN25TestHexIO_testJunkRecTypeD1Ev,_ZN25TestHexIO_testJunkRecTypeD2Ev
 513              		.section	.text._ZN25TestHexIO_testJunkRecTypeD0Ev,"axG",@progbits,_ZN25TestHexIO_testJunkRecTypeD5
 514              		.align 2
 515              		.p2align 4
 516              		.weak	_ZN25TestHexIO_testJunkRecTypeD0Ev
 518              	_ZN25TestHexIO_testJunkRecTypeD0Ev:
 519              	.LFB1520:
 520              		.cfi_startproc
 521              		.cfi_personality 0x9b,DW.ref.__gxx_personality_v0
 522              		.cfi_lsda 0x1b,.LLSDA1520
 523 0000 F30F1EFA 		endbr64
 524 0004 4154     		pushq	%r12
 525              		.cfi_def_cfa_offset 16
 526              		.cfi_offset 12, -16
 527 0006 488D0500 		leaq	16+_ZTV25TestHexIO_testJunkRecType(%rip), %rax
 527      000000
 528 000d 55       		pushq	%rbp
 529              		.cfi_def_cfa_offset 24
 530              		.cfi_offset 6, -24
 531 000e 4889FD   		movq	%rdi, %rbp
 532 0011 4883EC08 		subq	$8, %rsp
 533              		.cfi_def_cfa_offset 32
 534 0015 488907   		movq	%rax, (%rdi)
 535              	.LEHB12:
 536 0018 E8000000 		call	_ZN8UnitTest4TestD2Ev@PLT
 536      00
 537              	.LEHE12:
 538 001d 4883C408 		addq	$8, %rsp
 539              		.cfi_remember_state
 540              		.cfi_def_cfa_offset 24
 541 0021 4889EF   		movq	%rbp, %rdi
 542 0024 5D       		popq	%rbp
 543              		.cfi_def_cfa_offset 16
 544 0025 415C     		popq	%r12
 545              		.cfi_def_cfa_offset 8
 546 0027 E9000000 		jmp	_ZdlPv@PLT
 546      00
 547              	.L35:
 548              		.cfi_restore_state
 549 002c F30F1EFA 		endbr64
 550 0030 4989C4   		movq	%rax, %r12
 551              	.L34:
 552 0033 4889EF   		movq	%rbp, %rdi
 553 0036 E8000000 		call	_ZdlPv@PLT
 553      00
 554 003b 4C89E7   		movq	%r12, %rdi
 555              	.LEHB13:
 556 003e E8000000 		call	_Unwind_Resume@PLT
 556      00
 557              	.LEHE13:
 558              		.cfi_endproc
 559              	.LFE1520:
 560              		.section	.gcc_except_table._ZN25TestHexIO_testJunkRecTypeD0Ev,"aG",@progbits,_ZN25TestHexIO_testJu
 561              	.LLSDA1520:
 562 0000 FF       		.byte	0xff
 563 0001 FF       		.byte	0xff
 564 0002 01       		.byte	0x1
 565 0003 08       		.uleb128 .LLSDACSE1520-.LLSDACSB1520
 566              	.LLSDACSB1520:
 567 0004 18       		.uleb128 .LEHB12-.LFB1520
 568 0005 05       		.uleb128 .LEHE12-.LEHB12
 569 0006 2C       		.uleb128 .L35-.LFB1520
 570 0007 00       		.uleb128 0
 571 0008 3E       		.uleb128 .LEHB13-.LFB1520
 572 0009 05       		.uleb128 .LEHE13-.LEHB13
 573 000a 00       		.uleb128 0
 574 000b 00       		.uleb128 0
 575              	.LLSDACSE1520:
 576              		.section	.text._ZN25TestHexIO_testJunkRecTypeD0Ev,"axG",@progbits,_ZN25TestHexIO_testJunkRecTypeD5
 578              		.section	.text._ZN25TestHexIO_testJunkAddrLsbD2Ev,"axG",@progbits,_ZN25TestHexIO_testJunkAddrLsbD5
 579              		.align 2
 580              		.p2align 4
 581              		.weak	_ZN25TestHexIO_testJunkAddrLsbD2Ev
 583              	_ZN25TestHexIO_testJunkAddrLsbD2Ev:
 584              	.LFB1522:
 585              		.cfi_startproc
 586 0000 F30F1EFA 		endbr64
 587 0004 488D0500 		leaq	16+_ZTV25TestHexIO_testJunkAddrLsb(%rip), %rax
 587      000000
 588 000b 488907   		movq	%rax, (%rdi)
 589 000e E9000000 		jmp	_ZN8UnitTest4TestD2Ev@PLT
 589      00
 590              		.cfi_endproc
 591              	.LFE1522:
 593              		.weak	_ZN25TestHexIO_testJunkAddrLsbD1Ev
 594              		.set	_ZN25TestHexIO_testJunkAddrLsbD1Ev,_ZN25TestHexIO_testJunkAddrLsbD2Ev
 595              		.section	.text._ZN25TestHexIO_testJunkAddrLsbD0Ev,"axG",@progbits,_ZN25TestHexIO_testJunkAddrLsbD5
 596              		.align 2
 597              		.p2align 4
 598              		.weak	_ZN25TestHexIO_testJunkAddrLsbD0Ev
 600              	_ZN25TestHexIO_testJunkAddrLsbD0Ev:
 601              	.LFB1524:
 602              		.cfi_startproc
 603              		.cfi_personality 0x9b,DW.ref.__gxx_personality_v0
 604              		.cfi_lsda 0x1b,.LLSDA1524
 605 0000 F30F1EFA 		endbr64
 606 0004 4154     		pushq	%r12
 607              		.cfi_def_cfa_offset 16
 608              		.cfi_offset 12, -16
 609 0006 488D0500 		leaq	16+_ZTV25TestHexIO_testJunkAddrLsb(%rip), %rax
 609      000000
 610 000d 55       		pushq	%rbp
 611              		.cfi_def_cfa_offset 24
 612              		.cfi_offset 6, -24
 613 000e 4889FD   		movq	%rdi, %rbp
 614 0011 4883EC08 		subq	$8, %rsp
 615              		.cfi_def_cfa_offset 32
 616 0015 488907   		movq	%rax, (%rdi)
 617              	.LEHB14:
 618 0018 E8000000 		call	_ZN8UnitTest4TestD2Ev@PLT
 618      00
 619              	.LEHE14:
 620 001d 4883C408 		addq	$8, %rsp
 621              		.cfi_remember_state
 622              		.cfi_def_cfa_offset 24
 623 0021 4889EF   		movq	%rbp, %rdi
 624 0024 5D       		popq	%rbp
 625              		.cfi_def_cfa_offset 16
 626 0025 415C     		popq	%r12
 627              		.cfi_def_cfa_offset 8
 628 0027 E9000000 		jmp	_ZdlPv@PLT
 628      00
 629              	.L40:
 630              		.cfi_restore_state
 631 002c F30F1EFA 		endbr64
 632 0030 4989C4   		movq	%rax, %r12
 633              	.L39:
 634 0033 4889EF   		movq	%rbp, %rdi
 635 0036 E8000000 		call	_ZdlPv@PLT
 635      00
 636 003b 4C89E7   		movq	%r12, %rdi
 637              	.LEHB15:
 638 003e E8000000 		call	_Unwind_Resume@PLT
 638      00
 639              	.LEHE15:
 640              		.cfi_endproc
 641              	.LFE1524:
 642              		.section	.gcc_except_table._ZN25TestHexIO_testJunkAddrLsbD0Ev,"aG",@progbits,_ZN25TestHexIO_testJu
 643              	.LLSDA1524:
 644 0000 FF       		.byte	0xff
 645 0001 FF       		.byte	0xff
 646 0002 01       		.byte	0x1
 647 0003 08       		.uleb128 .LLSDACSE1524-.LLSDACSB1524
 648              	.LLSDACSB1524:
 649 0004 18       		.uleb128 .LEHB14-.LFB1524
 650 0005 05       		.uleb128 .LEHE14-.LEHB14
 651 0006 2C       		.uleb128 .L40-.LFB1524
 652 0007 00       		.uleb128 0
 653 0008 3E       		.uleb128 .LEHB15-.LFB1524
 654 0009 05       		.uleb128 .LEHE15-.LEHB15
 655 000a 00       		.uleb128 0
 656 000b 00       		.uleb128 0
 657              	.LLSDACSE1524:
 658              		.section	.text._ZN25TestHexIO_testJunkAddrLsbD0Ev,"axG",@progbits,_ZN25TestHexIO_testJunkAddrLsbD5
 660              		.section	.text._ZN25TestHexIO_testJunkAddrMsbD2Ev,"axG",@progbits,_ZN25TestHexIO_testJunkAddrMsbD5
 661              		.align 2
 662              		.p2align 4
 663              		.weak	_ZN25TestHexIO_testJunkAddrMsbD2Ev
 665              	_ZN25TestHexIO_testJunkAddrMsbD2Ev:
 666              	.LFB1526:
 667              		.cfi_startproc
 668 0000 F30F1EFA 		endbr64
 669 0004 488D0500 		leaq	16+_ZTV25TestHexIO_testJunkAddrMsb(%rip), %rax
 669      000000
 670 000b 488907   		movq	%rax, (%rdi)
 671 000e E9000000 		jmp	_ZN8UnitTest4TestD2Ev@PLT
 671      00
 672              		.cfi_endproc
 673              	.LFE1526:
 675              		.weak	_ZN25TestHexIO_testJunkAddrMsbD1Ev
 676              		.set	_ZN25TestHexIO_testJunkAddrMsbD1Ev,_ZN25TestHexIO_testJunkAddrMsbD2Ev
 677              		.section	.text._ZN25TestHexIO_testJunkAddrMsbD0Ev,"axG",@progbits,_ZN25TestHexIO_testJunkAddrMsbD5
 678              		.align 2
 679              		.p2align 4
 680              		.weak	_ZN25TestHexIO_testJunkAddrMsbD0Ev
 682              	_ZN25TestHexIO_testJunkAddrMsbD0Ev:
 683              	.LFB1528:
 684              		.cfi_startproc
 685              		.cfi_personality 0x9b,DW.ref.__gxx_personality_v0
 686              		.cfi_lsda 0x1b,.LLSDA1528
 687 0000 F30F1EFA 		endbr64
 688 0004 4154     		pushq	%r12
 689              		.cfi_def_cfa_offset 16
 690              		.cfi_offset 12, -16
 691 0006 488D0500 		leaq	16+_ZTV25TestHexIO_testJunkAddrMsb(%rip), %rax
 691      000000
 692 000d 55       		pushq	%rbp
 693              		.cfi_def_cfa_offset 24
 694              		.cfi_offset 6, -24
 695 000e 4889FD   		movq	%rdi, %rbp
 696 0011 4883EC08 		subq	$8, %rsp
 697              		.cfi_def_cfa_offset 32
 698 0015 488907   		movq	%rax, (%rdi)
 699              	.LEHB16:
 700 0018 E8000000 		call	_ZN8UnitTest4TestD2Ev@PLT
 700      00
 701              	.LEHE16:
 702 001d 4883C408 		addq	$8, %rsp
 703              		.cfi_remember_state
 704              		.cfi_def_cfa_offset 24
 705 0021 4889EF   		movq	%rbp, %rdi
 706 0024 5D       		popq	%rbp
 707              		.cfi_def_cfa_offset 16
 708 0025 415C     		popq	%r12
 709              		.cfi_def_cfa_offset 8
 710 0027 E9000000 		jmp	_ZdlPv@PLT
 710      00
 711              	.L45:
 712              		.cfi_restore_state
 713 002c F30F1EFA 		endbr64
 714 0030 4989C4   		movq	%rax, %r12
 715              	.L44:
 716 0033 4889EF   		movq	%rbp, %rdi
 717 0036 E8000000 		call	_ZdlPv@PLT
 717      00
 718 003b 4C89E7   		movq	%r12, %rdi
 719              	.LEHB17:
 720 003e E8000000 		call	_Unwind_Resume@PLT
 720      00
 721              	.LEHE17:
 722              		.cfi_endproc
 723              	.LFE1528:
 724              		.section	.gcc_except_table._ZN25TestHexIO_testJunkAddrMsbD0Ev,"aG",@progbits,_ZN25TestHexIO_testJu
 725              	.LLSDA1528:
 726 0000 FF       		.byte	0xff
 727 0001 FF       		.byte	0xff
 728 0002 01       		.byte	0x1
 729 0003 08       		.uleb128 .LLSDACSE1528-.LLSDACSB1528
 730              	.LLSDACSB1528:
 731 0004 18       		.uleb128 .LEHB16-.LFB1528
 732 0005 05       		.uleb128 .LEHE16-.LEHB16
 733 0006 2C       		.uleb128 .L45-.LFB1528
 734 0007 00       		.uleb128 0
 735 0008 3E       		.uleb128 .LEHB17-.LFB1528
 736 0009 05       		.uleb128 .LEHE17-.LEHB17
 737 000a 00       		.uleb128 0
 738 000b 00       		.uleb128 0
 739              	.LLSDACSE1528:
 740              		.section	.text._ZN25TestHexIO_testJunkAddrMsbD0Ev,"axG",@progbits,_ZN25TestHexIO_testJunkAddrMsbD5
 742              		.section	.text._ZN27TestHexIO_testJunkByteCountD2Ev,"axG",@progbits,_ZN27TestHexIO_testJunkByteCou
 743              		.align 2
 744              		.p2align 4
 745              		.weak	_ZN27TestHexIO_testJunkByteCountD2Ev
 747              	_ZN27TestHexIO_testJunkByteCountD2Ev:
 748              	.LFB1530:
 749              		.cfi_startproc
 750 0000 F30F1EFA 		endbr64
 751 0004 488D0500 		leaq	16+_ZTV27TestHexIO_testJunkByteCount(%rip), %rax
 751      000000
 752 000b 488907   		movq	%rax, (%rdi)
 753 000e E9000000 		jmp	_ZN8UnitTest4TestD2Ev@PLT
 753      00
 754              		.cfi_endproc
 755              	.LFE1530:
 757              		.weak	_ZN27TestHexIO_testJunkByteCountD1Ev
 758              		.set	_ZN27TestHexIO_testJunkByteCountD1Ev,_ZN27TestHexIO_testJunkByteCountD2Ev
 759              		.section	.text._ZN27TestHexIO_testJunkByteCountD0Ev,"axG",@progbits,_ZN27TestHexIO_testJunkByteCou
 760              		.align 2
 761              		.p2align 4
 762              		.weak	_ZN27TestHexIO_testJunkByteCountD0Ev
 764              	_ZN27TestHexIO_testJunkByteCountD0Ev:
 765              	.LFB1532:
 766              		.cfi_startproc
 767              		.cfi_personality 0x9b,DW.ref.__gxx_personality_v0
 768              		.cfi_lsda 0x1b,.LLSDA1532
 769 0000 F30F1EFA 		endbr64
 770 0004 4154     		pushq	%r12
 771              		.cfi_def_cfa_offset 16
 772              		.cfi_offset 12, -16
 773 0006 488D0500 		leaq	16+_ZTV27TestHexIO_testJunkByteCount(%rip), %rax
 773      000000
 774 000d 55       		pushq	%rbp
 775              		.cfi_def_cfa_offset 24
 776              		.cfi_offset 6, -24
 777 000e 4889FD   		movq	%rdi, %rbp
 778 0011 4883EC08 		subq	$8, %rsp
 779              		.cfi_def_cfa_offset 32
 780 0015 488907   		movq	%rax, (%rdi)
 781              	.LEHB18:
 782 0018 E8000000 		call	_ZN8UnitTest4TestD2Ev@PLT
 782      00
 783              	.LEHE18:
 784 001d 4883C408 		addq	$8, %rsp
 785              		.cfi_remember_state
 786              		.cfi_def_cfa_offset 24
 787 0021 4889EF   		movq	%rbp, %rdi
 788 0024 5D       		popq	%rbp
 789              		.cfi_def_cfa_offset 16
 790 0025 415C     		popq	%r12
 791              		.cfi_def_cfa_offset 8
 792 0027 E9000000 		jmp	_ZdlPv@PLT
 792      00
 793              	.L50:
 794              		.cfi_restore_state
 795 002c F30F1EFA 		endbr64
 796 0030 4989C4   		movq	%rax, %r12
 797              	.L49:
 798 0033 4889EF   		movq	%rbp, %rdi
 799 0036 E8000000 		call	_ZdlPv@PLT
 799      00
 800 003b 4C89E7   		movq	%r12, %rdi
 801              	.LEHB19:
 802 003e E8000000 		call	_Unwind_Resume@PLT
 802      00
 803              	.LEHE19:
 804              		.cfi_endproc
 805              	.LFE1532:
 806              		.section	.gcc_except_table._ZN27TestHexIO_testJunkByteCountD0Ev,"aG",@progbits,_ZN27TestHexIO_test
 807              	.LLSDA1532:
 808 0000 FF       		.byte	0xff
 809 0001 FF       		.byte	0xff
 810 0002 01       		.byte	0x1
 811 0003 08       		.uleb128 .LLSDACSE1532-.LLSDACSB1532
 812              	.LLSDACSB1532:
 813 0004 18       		.uleb128 .LEHB18-.LFB1532
 814 0005 05       		.uleb128 .LEHE18-.LEHB18
 815 0006 2C       		.uleb128 .L50-.LFB1532
 816 0007 00       		.uleb128 0
 817 0008 3E       		.uleb128 .LEHB19-.LFB1532
 818 0009 05       		.uleb128 .LEHE19-.LEHB19
 819 000a 00       		.uleb128 0
 820 000b 00       		.uleb128 0
 821              	.LLSDACSE1532:
 822              		.section	.text._ZN27TestHexIO_testJunkByteCountD0Ev,"axG",@progbits,_ZN27TestHexIO_testJunkByteCou
 824              		.section	.text._ZN27TestHexIO_testJunkStartCodeD2Ev,"axG",@progbits,_ZN27TestHexIO_testJunkStartCo
 825              		.align 2
 826              		.p2align 4
 827              		.weak	_ZN27TestHexIO_testJunkStartCodeD2Ev
 829              	_ZN27TestHexIO_testJunkStartCodeD2Ev:
 830              	.LFB1534:
 831              		.cfi_startproc
 832 0000 F30F1EFA 		endbr64
 833 0004 488D0500 		leaq	16+_ZTV27TestHexIO_testJunkStartCode(%rip), %rax
 833      000000
 834 000b 488907   		movq	%rax, (%rdi)
 835 000e E9000000 		jmp	_ZN8UnitTest4TestD2Ev@PLT
 835      00
 836              		.cfi_endproc
 837              	.LFE1534:
 839              		.weak	_ZN27TestHexIO_testJunkStartCodeD1Ev
 840              		.set	_ZN27TestHexIO_testJunkStartCodeD1Ev,_ZN27TestHexIO_testJunkStartCodeD2Ev
 841              		.section	.text._ZN27TestHexIO_testJunkStartCodeD0Ev,"axG",@progbits,_ZN27TestHexIO_testJunkStartCo
 842              		.align 2
 843              		.p2align 4
 844              		.weak	_ZN27TestHexIO_testJunkStartCodeD0Ev
 846              	_ZN27TestHexIO_testJunkStartCodeD0Ev:
 847              	.LFB1536:
 848              		.cfi_startproc
 849              		.cfi_personality 0x9b,DW.ref.__gxx_personality_v0
 850              		.cfi_lsda 0x1b,.LLSDA1536
 851 0000 F30F1EFA 		endbr64
 852 0004 4154     		pushq	%r12
 853              		.cfi_def_cfa_offset 16
 854              		.cfi_offset 12, -16
 855 0006 488D0500 		leaq	16+_ZTV27TestHexIO_testJunkStartCode(%rip), %rax
 855      000000
 856 000d 55       		pushq	%rbp
 857              		.cfi_def_cfa_offset 24
 858              		.cfi_offset 6, -24
 859 000e 4889FD   		movq	%rdi, %rbp
 860 0011 4883EC08 		subq	$8, %rsp
 861              		.cfi_def_cfa_offset 32
 862 0015 488907   		movq	%rax, (%rdi)
 863              	.LEHB20:
 864 0018 E8000000 		call	_ZN8UnitTest4TestD2Ev@PLT
 864      00
 865              	.LEHE20:
 866 001d 4883C408 		addq	$8, %rsp
 867              		.cfi_remember_state
 868              		.cfi_def_cfa_offset 24
 869 0021 4889EF   		movq	%rbp, %rdi
 870 0024 5D       		popq	%rbp
 871              		.cfi_def_cfa_offset 16
 872 0025 415C     		popq	%r12
 873              		.cfi_def_cfa_offset 8
 874 0027 E9000000 		jmp	_ZdlPv@PLT
 874      00
 875              	.L55:
 876              		.cfi_restore_state
 877 002c F30F1EFA 		endbr64
 878 0030 4989C4   		movq	%rax, %r12
 879              	.L54:
 880 0033 4889EF   		movq	%rbp, %rdi
 881 0036 E8000000 		call	_ZdlPv@PLT
 881      00
 882 003b 4C89E7   		movq	%r12, %rdi
 883              	.LEHB21:
 884 003e E8000000 		call	_Unwind_Resume@PLT
 884      00
 885              	.LEHE21:
 886              		.cfi_endproc
 887              	.LFE1536:
 888              		.section	.gcc_except_table._ZN27TestHexIO_testJunkStartCodeD0Ev,"aG",@progbits,_ZN27TestHexIO_test
 889              	.LLSDA1536:
 890 0000 FF       		.byte	0xff
 891 0001 FF       		.byte	0xff
 892 0002 01       		.byte	0x1
 893 0003 08       		.uleb128 .LLSDACSE1536-.LLSDACSB1536
 894              	.LLSDACSB1536:
 895 0004 18       		.uleb128 .LEHB20-.LFB1536
 896 0005 05       		.uleb128 .LEHE20-.LEHB20
 897 0006 2C       		.uleb128 .L55-.LFB1536
 898 0007 00       		.uleb128 0
 899 0008 3E       		.uleb128 .LEHB21-.LFB1536
 900 0009 05       		.uleb128 .LEHE21-.LEHB21
 901 000a 00       		.uleb128 0
 902 000b 00       		.uleb128 0
 903              	.LLSDACSE1536:
 904              		.section	.text._ZN27TestHexIO_testJunkStartCodeD0Ev,"axG",@progbits,_ZN27TestHexIO_testJunkStartCo
 906              		.section	.text._ZN22TestHexIO_testValidEOFD2Ev,"axG",@progbits,_ZN22TestHexIO_testValidEOFD5Ev,com
 907              		.align 2
 908              		.p2align 4
 909              		.weak	_ZN22TestHexIO_testValidEOFD2Ev
 911              	_ZN22TestHexIO_testValidEOFD2Ev:
 912              	.LFB1538:
 913              		.cfi_startproc
 914 0000 F30F1EFA 		endbr64
 915 0004 488D0500 		leaq	16+_ZTV22TestHexIO_testValidEOF(%rip), %rax
 915      000000
 916 000b 488907   		movq	%rax, (%rdi)
 917 000e E9000000 		jmp	_ZN8UnitTest4TestD2Ev@PLT
 917      00
 918              		.cfi_endproc
 919              	.LFE1538:
 921              		.weak	_ZN22TestHexIO_testValidEOFD1Ev
 922              		.set	_ZN22TestHexIO_testValidEOFD1Ev,_ZN22TestHexIO_testValidEOFD2Ev
 923              		.section	.text._ZN22TestHexIO_testValidEOFD0Ev,"axG",@progbits,_ZN22TestHexIO_testValidEOFD5Ev,com
 924              		.align 2
 925              		.p2align 4
 926              		.weak	_ZN22TestHexIO_testValidEOFD0Ev
 928              	_ZN22TestHexIO_testValidEOFD0Ev:
 929              	.LFB1540:
 930              		.cfi_startproc
 931              		.cfi_personality 0x9b,DW.ref.__gxx_personality_v0
 932              		.cfi_lsda 0x1b,.LLSDA1540
 933 0000 F30F1EFA 		endbr64
 934 0004 4154     		pushq	%r12
 935              		.cfi_def_cfa_offset 16
 936              		.cfi_offset 12, -16
 937 0006 488D0500 		leaq	16+_ZTV22TestHexIO_testValidEOF(%rip), %rax
 937      000000
 938 000d 55       		pushq	%rbp
 939              		.cfi_def_cfa_offset 24
 940              		.cfi_offset 6, -24
 941 000e 4889FD   		movq	%rdi, %rbp
 942 0011 4883EC08 		subq	$8, %rsp
 943              		.cfi_def_cfa_offset 32
 944 0015 488907   		movq	%rax, (%rdi)
 945              	.LEHB22:
 946 0018 E8000000 		call	_ZN8UnitTest4TestD2Ev@PLT
 946      00
 947              	.LEHE22:
 948 001d 4883C408 		addq	$8, %rsp
 949              		.cfi_remember_state
 950              		.cfi_def_cfa_offset 24
 951 0021 4889EF   		movq	%rbp, %rdi
 952 0024 5D       		popq	%rbp
 953              		.cfi_def_cfa_offset 16
 954 0025 415C     		popq	%r12
 955              		.cfi_def_cfa_offset 8
 956 0027 E9000000 		jmp	_ZdlPv@PLT
 956      00
 957              	.L60:
 958              		.cfi_restore_state
 959 002c F30F1EFA 		endbr64
 960 0030 4989C4   		movq	%rax, %r12
 961              	.L59:
 962 0033 4889EF   		movq	%rbp, %rdi
 963 0036 E8000000 		call	_ZdlPv@PLT
 963      00
 964 003b 4C89E7   		movq	%r12, %rdi
 965              	.LEHB23:
 966 003e E8000000 		call	_Unwind_Resume@PLT
 966      00
 967              	.LEHE23:
 968              		.cfi_endproc
 969              	.LFE1540:
 970              		.section	.gcc_except_table._ZN22TestHexIO_testValidEOFD0Ev,"aG",@progbits,_ZN22TestHexIO_testValid
 971              	.LLSDA1540:
 972 0000 FF       		.byte	0xff
 973 0001 FF       		.byte	0xff
 974 0002 01       		.byte	0x1
 975 0003 08       		.uleb128 .LLSDACSE1540-.LLSDACSB1540
 976              	.LLSDACSB1540:
 977 0004 18       		.uleb128 .LEHB22-.LFB1540
 978 0005 05       		.uleb128 .LEHE22-.LEHB22
 979 0006 2C       		.uleb128 .L60-.LFB1540
 980 0007 00       		.uleb128 0
 981 0008 3E       		.uleb128 .LEHB23-.LFB1540
 982 0009 05       		.uleb128 .LEHE23-.LEHB23
 983 000a 00       		.uleb128 0
 984 000b 00       		.uleb128 0
 985              	.LLSDACSE1540:
 986              		.section	.text._ZN22TestHexIO_testValidEOFD0Ev,"axG",@progbits,_ZN22TestHexIO_testValidEOFD5Ev,com
 988              		.section	.text._ZN27TestHexIO_testValidDataLineD2Ev,"axG",@progbits,_ZN27TestHexIO_testValidDataLi
 989              		.align 2
 990              		.p2align 4
 991              		.weak	_ZN27TestHexIO_testValidDataLineD2Ev
 993              	_ZN27TestHexIO_testValidDataLineD2Ev:
 994              	.LFB1542:
 995              		.cfi_startproc
 996 0000 F30F1EFA 		endbr64
 997 0004 488D0500 		leaq	16+_ZTV27TestHexIO_testValidDataLine(%rip), %rax
 997      000000
 998 000b 488907   		movq	%rax, (%rdi)
 999 000e E9000000 		jmp	_ZN8UnitTest4TestD2Ev@PLT
 999      00
 1000              		.cfi_endproc
 1001              	.LFE1542:
 1003              		.weak	_ZN27TestHexIO_testValidDataLineD1Ev
 1004              		.set	_ZN27TestHexIO_testValidDataLineD1Ev,_ZN27TestHexIO_testValidDataLineD2Ev
 1005              		.section	.text._ZN27TestHexIO_testValidDataLineD0Ev,"axG",@progbits,_ZN27TestHexIO_testValidDataLi
 1006              		.align 2
 1007              		.p2align 4
 1008              		.weak	_ZN27TestHexIO_testValidDataLineD0Ev
 1010              	_ZN27TestHexIO_testValidDataLineD0Ev:
 1011              	.LFB1544:
 1012              		.cfi_startproc
 1013              		.cfi_personality 0x9b,DW.ref.__gxx_personality_v0
 1014              		.cfi_lsda 0x1b,.LLSDA1544
 1015 0000 F30F1EFA 		endbr64
 1016 0004 4154     		pushq	%r12
 1017              		.cfi_def_cfa_offset 16
 1018              		.cfi_offset 12, -16
 1019 0006 488D0500 		leaq	16+_ZTV27TestHexIO_testValidDataLine(%rip), %rax
 1019      000000
 1020 000d 55       		pushq	%rbp
 1021              		.cfi_def_cfa_offset 24
 1022              		.cfi_offset 6, -24
 1023 000e 4889FD   		movq	%rdi, %rbp
 1024 0011 4883EC08 		subq	$8, %rsp
 1025              		.cfi_def_cfa_offset 32
 1026 0015 488907   		movq	%rax, (%rdi)
 1027              	.LEHB24:
 1028 0018 E8000000 		call	_ZN8UnitTest4TestD2Ev@PLT
 1028      00
 1029              	.LEHE24:
 1030 001d 4883C408 		addq	$8, %rsp
 1031              		.cfi_remember_state
 1032              		.cfi_def_cfa_offset 24
 1033 0021 4889EF   		movq	%rbp, %rdi
 1034 0024 5D       		popq	%rbp
 1035              		.cfi_def_cfa_offset 16
 1036 0025 415C     		popq	%r12
 1037              		.cfi_def_cfa_offset 8
 1038 0027 E9000000 		jmp	_ZdlPv@PLT
 1038      00
 1039              	.L65:
 1040              		.cfi_restore_state
 1041 002c F30F1EFA 		endbr64
 1042 0030 4989C4   		movq	%rax, %r12
 1043              	.L64:
 1044 0033 4889EF   		movq	%rbp, %rdi
 1045 0036 E8000000 		call	_ZdlPv@PLT
 1045      00
 1046 003b 4C89E7   		movq	%r12, %rdi
 1047              	.LEHB25:
 1048 003e E8000000 		call	_Unwind_Resume@PLT
 1048      00
 1049              	.LEHE25:
 1050              		.cfi_endproc
 1051              	.LFE1544:
 1052              		.section	.gcc_except_table._ZN27TestHexIO_testValidDataLineD0Ev,"aG",@progbits,_ZN27TestHexIO_test
 1053              	.LLSDA1544:
 1054 0000 FF       		.byte	0xff
 1055 0001 FF       		.byte	0xff
 1056 0002 01       		.byte	0x1
 1057 0003 08       		.uleb128 .LLSDACSE1544-.LLSDACSB1544
 1058              	.LLSDACSB1544:
 1059 0004 18       		.uleb128 .LEHB24-.LFB1544
 1060 0005 05       		.uleb128 .LEHE24-.LEHB24
 1061 0006 2C       		.uleb128 .L65-.LFB1544
 1062 0007 00       		.uleb128 0
 1063 0008 3E       		.uleb128 .LEHB25-.LFB1544
 1064 0009 05       		.uleb128 .LEHE25-.LEHB25
 1065 000a 00       		.uleb128 0
 1066 000b 00       		.uleb128 0
 1067              	.LLSDACSE1544:
 1068              		.section	.text._ZN27TestHexIO_testValidDataLineD0Ev,"axG",@progbits,_ZN27TestHexIO_testValidDataLi
 1070              		.section	.text._ZN8UnitTest15MemoryOutStreamD1Ev,"axG",@progbits,_ZN8UnitTest15MemoryOutStreamD1Ev
 1071              		.align 2
 1072              		.p2align 4
 1073              		.weak	_ZN8UnitTest15MemoryOutStreamD1Ev
 1075              	_ZN8UnitTest15MemoryOutStreamD1Ev:
 1076              	.LFB1391:
 1077              		.cfi_startproc
 1078 0000 F30F1EFA 		endbr64
 1079 0004 55       		pushq	%rbp
 1080              		.cfi_def_cfa_offset 16
 1081              		.cfi_offset 6, -16
 1082 0005 488D0500 		leaq	24+_ZTVN8UnitTest15MemoryOutStreamE(%rip), %rax
 1082      000000
 1083 000c 53       		pushq	%rbx
 1084              		.cfi_def_cfa_offset 24
 1085              		.cfi_offset 3, -24
 1086 000d 4889FB   		movq	%rdi, %rbx
 1087 0010 4883EC08 		subq	$8, %rsp
 1088              		.cfi_def_cfa_offset 32
 1089 0014 488907   		movq	%rax, (%rdi)
 1090 0017 4883C028 		addq	$40, %rax
 1091 001b 48898790 		movq	%rax, 144(%rdi)
 1091      000000
 1092 0022 488B7F70 		movq	112(%rdi), %rdi
 1093 0026 488D8380 		leaq	128(%rbx), %rax
 1093      000000
 1094 002d 4839C7   		cmpq	%rax, %rdi
 1095 0030 7405     		je	.L68
 1096 0032 E8000000 		call	_ZdlPv@PLT
 1096      00
 1097              	.L68:
 1098 0037 488D0500 		leaq	64+_ZTCN8UnitTest15MemoryOutStreamE0_NSt7__cxx1119basic_ostringstreamIcSt11char_traitsIcESaIc
 1098      000000
 1099 003e 488D1500 		leaq	24+_ZTCN8UnitTest15MemoryOutStreamE0_NSt7__cxx1119basic_ostringstreamIcSt11char_traitsIcESaIc
 1099      000000
 1100 0045 488B7B50 		movq	80(%rbx), %rdi
 1101 0049 48898390 		movq	%rax, 144(%rbx)
 1101      000000
 1102 0050 488D0500 		leaq	16+_ZTVNSt7__cxx1115basic_stringbufIcSt11char_traitsIcESaIcEEE(%rip), %rax
 1102      000000
 1103 0057 66480F6E 		movq	%rdx, %xmm0
 1103      C2
 1104 005c 488DAB90 		leaq	144(%rbx), %rbp
 1104      000000
 1105 0063 66480F6E 		movq	%rax, %xmm1
 1105      C8
 1106 0068 488D4360 		leaq	96(%rbx), %rax
 1107 006c 660F6CC1 		punpcklqdq	%xmm1, %xmm0
 1108 0070 0F1103   		movups	%xmm0, (%rbx)
 1109 0073 4839C7   		cmpq	%rax, %rdi
 1110 0076 7405     		je	.L69
 1111 0078 E8000000 		call	_ZdlPv@PLT
 1111      00
 1112              	.L69:
 1113 007d 488D0500 		leaq	16+_ZTVSt15basic_streambufIcSt11char_traitsIcEE(%rip), %rax
 1113      000000
 1114 0084 488D7B40 		leaq	64(%rbx), %rdi
 1115 0088 48894308 		movq	%rax, 8(%rbx)
 1116 008c E8000000 		call	_ZNSt6localeD1Ev@PLT
 1116      00
 1117 0091 488D0500 		leaq	24+_ZTCN8UnitTest15MemoryOutStreamE0_So(%rip), %rax
 1117      000000
 1118 0098 4889EF   		movq	%rbp, %rdi
 1119 009b 488903   		movq	%rax, (%rbx)
 1120 009e 488D0500 		leaq	16+_ZTVSt9basic_iosIcSt11char_traitsIcEE(%rip), %rax
 1120      000000
 1121 00a5 48898390 		movq	%rax, 144(%rbx)
 1121      000000
 1122 00ac 4883C408 		addq	$8, %rsp
 1123              		.cfi_def_cfa_offset 24
 1124 00b0 5B       		popq	%rbx
 1125              		.cfi_def_cfa_offset 16
 1126 00b1 5D       		popq	%rbp
 1127              		.cfi_def_cfa_offset 8
 1128 00b2 E9000000 		jmp	_ZNSt8ios_baseD2Ev@PLT
 1128      00
 1129              		.cfi_endproc
 1130              	.LFE1391:
 1132 00b7 660F1F84 		.p2align 4
 1132      00000000 
 1132      00
 1133              		.weak	_ZTv0_n24_N8UnitTest15MemoryOutStreamD1Ev
 1135              	_ZTv0_n24_N8UnitTest15MemoryOutStreamD1Ev:
 1136              	.LFB1551:
 1137              		.cfi_startproc
 1138 00c0 F30F1EFA 		endbr64
 1139 00c4 55       		pushq	%rbp
 1140              		.cfi_def_cfa_offset 16
 1141              		.cfi_offset 6, -16
 1142 00c5 53       		pushq	%rbx
 1143              		.cfi_def_cfa_offset 24
 1144              		.cfi_offset 3, -24
 1145 00c6 4889FB   		movq	%rdi, %rbx
 1146 00c9 4883EC08 		subq	$8, %rsp
 1147              		.cfi_def_cfa_offset 32
 1148 00cd 488B07   		movq	(%rdi), %rax
 1149 00d0 480358E8 		addq	-24(%rax), %rbx
 1150 00d4 488D0500 		leaq	24+_ZTVN8UnitTest15MemoryOutStreamE(%rip), %rax
 1150      000000
 1151 00db 488903   		movq	%rax, (%rbx)
 1152 00de 488B7B70 		movq	112(%rbx), %rdi
 1153 00e2 4883C028 		addq	$40, %rax
 1154 00e6 48898390 		movq	%rax, 144(%rbx)
 1154      000000
 1155 00ed 488D8380 		leaq	128(%rbx), %rax
 1155      000000
 1156 00f4 4839C7   		cmpq	%rax, %rdi
 1157 00f7 7405     		je	.L72
 1158 00f9 E8000000 		call	_ZdlPv@PLT
 1158      00
 1159              	.L72:
 1160 00fe 488D0500 		leaq	64+_ZTCN8UnitTest15MemoryOutStreamE0_NSt7__cxx1119basic_ostringstreamIcSt11char_traitsIcESaIc
 1160      000000
 1161 0105 488D1500 		leaq	24+_ZTCN8UnitTest15MemoryOutStreamE0_NSt7__cxx1119basic_ostringstreamIcSt11char_traitsIcESaIc
 1161      000000
 1162 010c 488B7B50 		movq	80(%rbx), %rdi
 1163 0110 48898390 		movq	%rax, 144(%rbx)
 1163      000000
 1164 0117 488D0500 		leaq	16+_ZTVNSt7__cxx1115basic_stringbufIcSt11char_traitsIcESaIcEEE(%rip), %rax
 1164      000000
 1165 011e 66480F6E 		movq	%rdx, %xmm0
 1165      C2
 1166 0123 488DAB90 		leaq	144(%rbx), %rbp
 1166      000000
 1167 012a 66480F6E 		movq	%rax, %xmm1
 1167      C8
 1168 012f 488D4360 		leaq	96(%rbx), %rax
 1169 0133 660F6CC1 		punpcklqdq	%xmm1, %xmm0
 1170 0137 0F1103   		movups	%xmm0, (%rbx)
 1171 013a 4839C7   		cmpq	%rax, %rdi
 1172 013d 7405     		je	.L73
 1173 013f E8000000 		call	_ZdlPv@PLT
 1173      00
 1174              	.L73:
 1175 0144 488D0500 		leaq	16+_ZTVSt15basic_streambufIcSt11char_traitsIcEE(%rip), %rax
 1175      000000
 1176 014b 488D7B40 		leaq	64(%rbx), %rdi
 1177 014f 48894308 		movq	%rax, 8(%rbx)
 1178 0153 E8000000 		call	_ZNSt6localeD1Ev@PLT
 1178      00
 1179 0158 488D0500 		leaq	24+_ZTCN8UnitTest15MemoryOutStreamE0_So(%rip), %rax
 1179      000000
 1180 015f 4889EF   		movq	%rbp, %rdi
 1181 0162 488903   		movq	%rax, (%rbx)
 1182 0165 488D0500 		leaq	16+_ZTVSt9basic_iosIcSt11char_traitsIcEE(%rip), %rax
 1182      000000
 1183 016c 48898390 		movq	%rax, 144(%rbx)
 1183      000000
 1184 0173 4883C408 		addq	$8, %rsp
 1185              		.cfi_def_cfa_offset 24
 1186 0177 5B       		popq	%rbx
 1187              		.cfi_def_cfa_offset 16
 1188 0178 5D       		popq	%rbp
 1189              		.cfi_def_cfa_offset 8
 1190 0179 E9000000 		jmp	_ZNSt8ios_baseD2Ev@PLT
 1190      00
 1191              		.cfi_endproc
 1192              	.LFE1551:
 1194              		.section	.text._ZN8UnitTest15MemoryOutStreamD0Ev,"axG",@progbits,_ZN8UnitTest15MemoryOutStreamD0Ev
 1195              		.align 2
 1196              		.p2align 4
 1197              		.weak	_ZN8UnitTest15MemoryOutStreamD0Ev
 1199              	_ZN8UnitTest15MemoryOutStreamD0Ev:
 1200              	.LFB1392:
 1201              		.cfi_startproc
 1202              		.cfi_personality 0x9b,DW.ref.__gxx_personality_v0
 1203              		.cfi_lsda 0x1b,.LLSDA1392
 1204 0000 F30F1EFA 		endbr64
 1205 0004 4154     		pushq	%r12
 1206              		.cfi_def_cfa_offset 16
 1207              		.cfi_offset 12, -16
 1208 0006 488D0500 		leaq	24+_ZTVN8UnitTest15MemoryOutStreamE(%rip), %rax
 1208      000000
 1209 000d 55       		pushq	%rbp
 1210              		.cfi_def_cfa_offset 24
 1211              		.cfi_offset 6, -24
 1212 000e 4889FD   		movq	%rdi, %rbp
 1213 0011 4883EC08 		subq	$8, %rsp
 1214              		.cfi_def_cfa_offset 32
 1215 0015 488907   		movq	%rax, (%rdi)
 1216 0018 4883C028 		addq	$40, %rax
 1217 001c 48898790 		movq	%rax, 144(%rdi)
 1217      000000
 1218 0023 488B7F70 		movq	112(%rdi), %rdi
 1219 0027 488D8580 		leaq	128(%rbp), %rax
 1219      000000
 1220 002e 4839C7   		cmpq	%rax, %rdi
 1221 0031 7405     		je	.L76
 1222 0033 E8000000 		call	_ZdlPv@PLT
 1222      00
 1223              	.L76:
 1224 0038 488D0500 		leaq	64+_ZTCN8UnitTest15MemoryOutStreamE0_NSt7__cxx1119basic_ostringstreamIcSt11char_traitsIcESaIc
 1224      000000
 1225 003f 488D1500 		leaq	24+_ZTCN8UnitTest15MemoryOutStreamE0_NSt7__cxx1119basic_ostringstreamIcSt11char_traitsIcESaIc
 1225      000000
 1226 0046 488B7D50 		movq	80(%rbp), %rdi
 1227 004a 48898590 		movq	%rax, 144(%rbp)
 1227      000000
 1228 0051 488D0500 		leaq	16+_ZTVNSt7__cxx1115basic_stringbufIcSt11char_traitsIcESaIcEEE(%rip), %rax
 1228      000000
 1229 0058 66480F6E 		movq	%rdx, %xmm0
 1229      C2
 1230 005d 4C8DA590 		leaq	144(%rbp), %r12
 1230      000000
 1231 0064 66480F6E 		movq	%rax, %xmm1
 1231      C8
 1232 0069 488D4560 		leaq	96(%rbp), %rax
 1233 006d 660F6CC1 		punpcklqdq	%xmm1, %xmm0
 1234 0071 0F114500 		movups	%xmm0, 0(%rbp)
 1235 0075 4839C7   		cmpq	%rax, %rdi
 1236 0078 7405     		je	.L77
 1237 007a E8000000 		call	_ZdlPv@PLT
 1237      00
 1238              	.L77:
 1239 007f 488D0500 		leaq	16+_ZTVSt15basic_streambufIcSt11char_traitsIcEE(%rip), %rax
 1239      000000
 1240 0086 488D7D40 		leaq	64(%rbp), %rdi
 1241 008a 48894508 		movq	%rax, 8(%rbp)
 1242 008e E8000000 		call	_ZNSt6localeD1Ev@PLT
 1242      00
 1243 0093 488D0500 		leaq	24+_ZTCN8UnitTest15MemoryOutStreamE0_So(%rip), %rax
 1243      000000
 1244 009a 4C89E7   		movq	%r12, %rdi
 1245 009d 48894500 		movq	%rax, 0(%rbp)
 1246 00a1 488D0500 		leaq	16+_ZTVSt9basic_iosIcSt11char_traitsIcEE(%rip), %rax
 1246      000000
 1247 00a8 48898590 		movq	%rax, 144(%rbp)
 1247      000000
 1248              	.LEHB26:
 1249 00af E8000000 		call	_ZNSt8ios_baseD2Ev@PLT
 1249      00
 1250              	.LEHE26:
 1251 00b4 4883C408 		addq	$8, %rsp
 1252              		.cfi_remember_state
 1253              		.cfi_def_cfa_offset 24
 1254 00b8 4889EF   		movq	%rbp, %rdi
 1255 00bb 5D       		popq	%rbp
 1256              		.cfi_def_cfa_offset 16
 1257 00bc 415C     		popq	%r12
 1258              		.cfi_def_cfa_offset 8
 1259 00be E9000000 		jmp	_ZdlPv@PLT
 1259      00
 1260              	.L79:
 1261              		.cfi_restore_state
 1262 00c3 F30F1EFA 		endbr64
 1263 00c7 4989C4   		movq	%rax, %r12
 1264              	.L78:
 1265 00ca 4889EF   		movq	%rbp, %rdi
 1266 00cd E8000000 		call	_ZdlPv@PLT
 1266      00
 1267 00d2 4C89E7   		movq	%r12, %rdi
 1268              	.LEHB27:
 1269 00d5 E8000000 		call	_Unwind_Resume@PLT
 1269      00
 1270              	.LEHE27:
 1271              		.cfi_endproc
 1272              	.LFE1392:
 1273              		.section	.gcc_except_table._ZN8UnitTest15MemoryOutStreamD0Ev,"aG",@progbits,_ZN8UnitTest15MemoryOu
 1274              	.LLSDA1392:
 1275 0000 FF       		.byte	0xff
 1276 0001 FF       		.byte	0xff
 1277 0002 01       		.byte	0x1
 1278 0003 0B       		.uleb128 .LLSDACSE1392-.LLSDACSB1392
 1279              	.LLSDACSB1392:
 1280 0004 AF01     		.uleb128 .LEHB26-.LFB1392
 1281 0006 05       		.uleb128 .LEHE26-.LEHB26
 1282 0007 C301     		.uleb128 .L79-.LFB1392
 1283 0009 00       		.uleb128 0
 1284 000a D501     		.uleb128 .LEHB27-.LFB1392
 1285 000c 05       		.uleb128 .LEHE27-.LEHB27
 1286 000d 00       		.uleb128 0
 1287 000e 00       		.uleb128 0
 1288              	.LLSDACSE1392:
 1289              		.section	.text._ZN8UnitTest15MemoryOutStreamD0Ev,"axG",@progbits,_ZN8UnitTest15MemoryOutStreamD0Ev
 1291 00da 660F1F44 		.p2align 4
 1291      0000
 1292              		.weak	_ZTv0_n24_N8UnitTest15MemoryOutStreamD0Ev
 1294              	_ZTv0_n24_N8UnitTest15MemoryOutStreamD0Ev:
 1295              	.LFB1550:
 1296              		.cfi_startproc
 1297              		.cfi_personality 0x9b,DW.ref.__gxx_personality_v0
 1298              		.cfi_lsda 0x1b,.LLSDA1550
 1299 00e0 F30F1EFA 		endbr64
 1300 00e4 4154     		pushq	%r12
 1301              		.cfi_def_cfa_offset 16
 1302              		.cfi_offset 12, -16
 1303 00e6 55       		pushq	%rbp
 1304              		.cfi_def_cfa_offset 24
 1305              		.cfi_offset 6, -24
 1306 00e7 4889FD   		movq	%rdi, %rbp
 1307 00ea 4883EC08 		subq	$8, %rsp
 1308              		.cfi_def_cfa_offset 32
 1309 00ee 488B07   		movq	(%rdi), %rax
 1310 00f1 480368E8 		addq	-24(%rax), %rbp
 1311 00f5 488D0500 		leaq	24+_ZTVN8UnitTest15MemoryOutStreamE(%rip), %rax
 1311      000000
 1312 00fc 48894500 		movq	%rax, 0(%rbp)
 1313 0100 488B7D70 		movq	112(%rbp), %rdi
 1314 0104 4883C028 		addq	$40, %rax
 1315 0108 48898590 		movq	%rax, 144(%rbp)
 1315      000000
 1316 010f 488D8580 		leaq	128(%rbp), %rax
 1316      000000
 1317 0116 4839C7   		cmpq	%rax, %rdi
 1318 0119 7405     		je	.L82
 1319 011b E8000000 		call	_ZdlPv@PLT
 1319      00
 1320              	.L82:
 1321 0120 488D0500 		leaq	64+_ZTCN8UnitTest15MemoryOutStreamE0_NSt7__cxx1119basic_ostringstreamIcSt11char_traitsIcESaIc
 1321      000000
 1322 0127 488D1500 		leaq	24+_ZTCN8UnitTest15MemoryOutStreamE0_NSt7__cxx1119basic_ostringstreamIcSt11char_traitsIcESaIc
 1322      000000
 1323 012e 488B7D50 		movq	80(%rbp), %rdi
 1324 0132 48898590 		movq	%rax, 144(%rbp)
 1324      000000
 1325 0139 488D0500 		leaq	16+_ZTVNSt7__cxx1115basic_stringbufIcSt11char_traitsIcESaIcEEE(%rip), %rax
 1325      000000
 1326 0140 66480F6E 		movq	%rdx, %xmm0
 1326      C2
 1327 0145 4C8DA590 		leaq	144(%rbp), %r12
 1327      000000
 1328 014c 66480F6E 		movq	%rax, %xmm1
 1328      C8
 1329 0151 488D4560 		leaq	96(%rbp), %rax
 1330 0155 660F6CC1 		punpcklqdq	%xmm1, %xmm0
 1331 0159 0F114500 		movups	%xmm0, 0(%rbp)
 1332 015d 4839C7   		cmpq	%rax, %rdi
 1333 0160 7405     		je	.L83
 1334 0162 E8000000 		call	_ZdlPv@PLT
 1334      00
 1335              	.L83:
 1336 0167 488D0500 		leaq	16+_ZTVSt15basic_streambufIcSt11char_traitsIcEE(%rip), %rax
 1336      000000
 1337 016e 488D7D40 		leaq	64(%rbp), %rdi
 1338 0172 48894508 		movq	%rax, 8(%rbp)
 1339 0176 E8000000 		call	_ZNSt6localeD1Ev@PLT
 1339      00
 1340 017b 488D0500 		leaq	24+_ZTCN8UnitTest15MemoryOutStreamE0_So(%rip), %rax
 1340      000000
 1341 0182 4C89E7   		movq	%r12, %rdi
 1342 0185 48894500 		movq	%rax, 0(%rbp)
 1343 0189 488D0500 		leaq	16+_ZTVSt9basic_iosIcSt11char_traitsIcEE(%rip), %rax
 1343      000000
 1344 0190 48898590 		movq	%rax, 144(%rbp)
 1344      000000
 1345              	.LEHB28:
 1346 0197 E8000000 		call	_ZNSt8ios_baseD2Ev@PLT
 1346      00
 1347              	.LEHE28:
 1348 019c 4883C408 		addq	$8, %rsp
 1349              		.cfi_remember_state
 1350              		.cfi_def_cfa_offset 24
 1351 01a0 4889EF   		movq	%rbp, %rdi
 1352 01a3 5D       		popq	%rbp
 1353              		.cfi_def_cfa_offset 16
 1354 01a4 415C     		popq	%r12
 1355              		.cfi_def_cfa_offset 8
 1356 01a6 E9000000 		jmp	_ZdlPv@PLT
 1356      00
 1357              	.L85:
 1358              		.cfi_restore_state
 1359 01ab F30F1EFA 		endbr64
 1360 01af 4989C4   		movq	%rax, %r12
 1361              	.L84:
 1362 01b2 4889EF   		movq	%rbp, %rdi
 1363 01b5 E8000000 		call	_ZdlPv@PLT
 1363      00
 1364 01ba 4C89E7   		movq	%r12, %rdi
 1365              	.LEHB29:
 1366 01bd E8000000 		call	_Unwind_Resume@PLT
 1366      00
 1367              	.LEHE29:
 1368              		.cfi_endproc
 1369              	.LFE1550:
 1370              		.section	.gcc_except_table._ZTv0_n24_N8UnitTest15MemoryOutStreamD0Ev,"aG",@progbits,_ZN8UnitTest15
 1371              	.LLSDA1550:
 1372 0000 FF       		.byte	0xff
 1373 0001 FF       		.byte	0xff
 1374 0002 01       		.byte	0x1
 1375 0003 0B       		.uleb128 .LLSDACSE1550-.LLSDACSB1550
 1376              	.LLSDACSB1550:
 1377 0004 B701     		.uleb128 .LEHB28-.LFB1550
 1378 0006 05       		.uleb128 .LEHE28-.LEHB28
 1379 0007 CB01     		.uleb128 .L85-.LFB1550
 1380 0009 00       		.uleb128 0
 1381 000a DD01     		.uleb128 .LEHB29-.LFB1550
 1382 000c 05       		.uleb128 .LEHE29-.LEHB29
 1383 000d 00       		.uleb128 0
 1384 000e 00       		.uleb128 0
 1385              	.LLSDACSE1550:
 1386              		.section	.text._ZN8UnitTest15MemoryOutStreamD0Ev,"axG",@progbits,_ZN8UnitTest15MemoryOutStreamD0Ev
 1388              		.section	.text._ZNSt7__cxx1115basic_stringbufIcSt11char_traitsIcESaIcEED2Ev,"axG",@progbits,_ZNSt7
 1389              		.align 2
 1390              		.p2align 4
 1391              		.weak	_ZNSt7__cxx1115basic_stringbufIcSt11char_traitsIcESaIcEED2Ev
 1393              	_ZNSt7__cxx1115basic_stringbufIcSt11char_traitsIcESaIcEED2Ev:
 1394              	.LFB1370:
 1395              		.cfi_startproc
 1396 0000 F30F1EFA 		endbr64
 1397 0004 488D0500 		leaq	16+_ZTVNSt7__cxx1115basic_stringbufIcSt11char_traitsIcESaIcEEE(%rip), %rax
 1397      000000
 1398 000b 53       		pushq	%rbx
 1399              		.cfi_def_cfa_offset 16
 1400              		.cfi_offset 3, -16
 1401 000c 4889FB   		movq	%rdi, %rbx
 1402 000f 488907   		movq	%rax, (%rdi)
 1403 0012 488B7F48 		movq	72(%rdi), %rdi
 1404 0016 488D4358 		leaq	88(%rbx), %rax
 1405 001a 4839C7   		cmpq	%rax, %rdi
 1406 001d 7405     		je	.L88
 1407 001f E8000000 		call	_ZdlPv@PLT
 1407      00
 1408              	.L88:
 1409 0024 488D0500 		leaq	16+_ZTVSt15basic_streambufIcSt11char_traitsIcEE(%rip), %rax
 1409      000000
 1410 002b 488D7B38 		leaq	56(%rbx), %rdi
 1411 002f 488903   		movq	%rax, (%rbx)
 1412 0032 5B       		popq	%rbx
 1413              		.cfi_def_cfa_offset 8
 1414 0033 E9000000 		jmp	_ZNSt6localeD1Ev@PLT
 1414      00
 1415              		.cfi_endproc
 1416              	.LFE1370:
 1418              		.weak	_ZNSt7__cxx1115basic_stringbufIcSt11char_traitsIcESaIcEED1Ev
 1419              		.set	_ZNSt7__cxx1115basic_stringbufIcSt11char_traitsIcESaIcEED1Ev,_ZNSt7__cxx1115basic_stringbufIc
 1420              		.section	.text._ZNSt7__cxx1115basic_stringbufIcSt11char_traitsIcESaIcEED0Ev,"axG",@progbits,_ZNSt7
 1421              		.align 2
 1422              		.p2align 4
 1423              		.weak	_ZNSt7__cxx1115basic_stringbufIcSt11char_traitsIcESaIcEED0Ev
 1425              	_ZNSt7__cxx1115basic_stringbufIcSt11char_traitsIcESaIcEED0Ev:
 1426              	.LFB1372:
 1427              		.cfi_startproc
 1428 0000 F30F1EFA 		endbr64
 1429 0004 488D0500 		leaq	16+_ZTVNSt7__cxx1115basic_stringbufIcSt11char_traitsIcESaIcEEE(%rip), %rax
 1429      000000
 1430 000b 55       		pushq	%rbp
 1431              		.cfi_def_cfa_offset 16
 1432              		.cfi_offset 6, -16
 1433 000c 4889FD   		movq	%rdi, %rbp
 1434 000f 488907   		movq	%rax, (%rdi)
 1435 0012 488B7F48 		movq	72(%rdi), %rdi
 1436 0016 488D4558 		leaq	88(%rbp), %rax
 1437 001a 4839C7   		cmpq	%rax, %rdi
 1438 001d 7405     		je	.L91
 1439 001f E8000000 		call	_ZdlPv@PLT
 1439      00
 1440              	.L91:
 1441 0024 488D0500 		leaq	16+_ZTVSt15basic_streambufIcSt11char_traitsIcEE(%rip), %rax
 1441      000000
 1442 002b 488D7D38 		leaq	56(%rbp), %rdi
 1443 002f 48894500 		movq	%rax, 0(%rbp)
 1444 0033 E8000000 		call	_ZNSt6localeD1Ev@PLT
 1444      00
 1445 0038 4889EF   		movq	%rbp, %rdi
 1446 003b 5D       		popq	%rbp
 1447              		.cfi_def_cfa_offset 8
 1448 003c E9000000 		jmp	_ZdlPv@PLT
 1448      00
 1449              		.cfi_endproc
 1450              	.LFE1372:
 1452              		.section	.rodata._ZN8UnitTest10CheckEqualI12BufferStatusS1_EEvRNS_11TestResultsERKT_RKT0_RKNS_11Te
 1453              	.LC0:
 1454 0000 45787065 		.string	"Expected "
 1454      63746564 
 1454      2000
 1455              	.LC1:
 1456 000a 20627574 		.string	" but was "
 1456      20776173 
 1456      2000
 1457              		.section	.text._ZN8UnitTest10CheckEqualI12BufferStatusS1_EEvRNS_11TestResultsERKT_RKT0_RKNS_11Test
 1458              		.p2align 4
 1459              		.weak	_ZN8UnitTest10CheckEqualI12BufferStatusS1_EEvRNS_11TestResultsERKT_RKT0_RKNS_11TestDetailsE
 1461              	_ZN8UnitTest10CheckEqualI12BufferStatusS1_EEvRNS_11TestResultsERKT_RKT0_RKNS_11TestDetailsE:
 1462              	.LFB1388:
 1463              		.cfi_startproc
 1464              		.cfi_personality 0x9b,DW.ref.__gxx_personality_v0
 1465              		.cfi_lsda 0x1b,.LLSDA1388
 1466 0000 F30F1EFA 		endbr64
 1467 0004 4157     		pushq	%r15
 1468              		.cfi_def_cfa_offset 16
 1469              		.cfi_offset 15, -16
 1470 0006 4156     		pushq	%r14
 1471              		.cfi_def_cfa_offset 24
 1472              		.cfi_offset 14, -24
 1473 0008 4155     		pushq	%r13
 1474              		.cfi_def_cfa_offset 32
 1475              		.cfi_offset 13, -32
 1476 000a 4154     		pushq	%r12
 1477              		.cfi_def_cfa_offset 40
 1478              		.cfi_offset 12, -40
 1479 000c 55       		pushq	%rbp
 1480              		.cfi_def_cfa_offset 48
 1481              		.cfi_offset 6, -48
 1482 000d 53       		pushq	%rbx
 1483              		.cfi_def_cfa_offset 56
 1484              		.cfi_offset 3, -56
 1485 000e 4881ECD8 		subq	$472, %rsp
 1485      010000
 1486              		.cfi_def_cfa_offset 528
 1487 0015 F30F7E0D 		movq	.LC2(%rip), %xmm1
 1487      00000000 
 1488 001d 48897C24 		movq	%rdi, 16(%rsp)
 1488      10
 1489 0022 48894C24 		movq	%rcx, 24(%rsp)
 1489      18
 1490 0027 0F160D00 		movhps	.LC3(%rip), %xmm1
 1490      000000
 1491 002e 64488B04 		movq	%fs:40, %rax
 1491      25280000 
 1491      00
 1492 0037 48898424 		movq	%rax, 456(%rsp)
 1492      C8010000 
 1493 003f 31C0     		xorl	%eax, %eax
 1494 0041 8B02     		movl	(%rdx), %eax
 1495 0043 0F290C24 		movaps	%xmm1, (%rsp)
 1496 0047 3906     		cmpl	%eax, (%rsi)
 1497 0049 752D     		jne	.L109
 1498              	.L93:
 1499 004b 488B8424 		movq	456(%rsp), %rax
 1499      C8010000 
 1500 0053 64482B04 		subq	%fs:40, %rax
 1500      25280000 
 1500      00
 1501 005c 0F854B02 		jne	.L110
 1501      0000
 1502 0062 4881C4D8 		addq	$472, %rsp
 1502      010000
 1503              		.cfi_remember_state
 1504              		.cfi_def_cfa_offset 56
 1505 0069 5B       		popq	%rbx
 1506              		.cfi_def_cfa_offset 48
 1507 006a 5D       		popq	%rbp
 1508              		.cfi_def_cfa_offset 40
 1509 006b 415C     		popq	%r12
 1510              		.cfi_def_cfa_offset 32
 1511 006d 415D     		popq	%r13
 1512              		.cfi_def_cfa_offset 24
 1513 006f 415E     		popq	%r14
 1514              		.cfi_def_cfa_offset 16
 1515 0071 415F     		popq	%r15
 1516              		.cfi_def_cfa_offset 8
 1517 0073 C3       		ret
 1518              		.p2align 4,,10
 1519 0074 0F1F4000 		.p2align 3
 1520              	.L109:
 1521              		.cfi_restore_state
 1522 0078 4C8DAC24 		leaq	192(%rsp), %r13
 1522      C0000000 
 1523 0080 4889F5   		movq	%rsi, %rbp
 1524 0083 4889D3   		movq	%rdx, %rbx
 1525 0086 4C89EF   		movq	%r13, %rdi
 1526 0089 E8000000 		call	_ZNSt8ios_baseC2Ev@PLT
 1526      00
 1527 008e 31C0     		xorl	%eax, %eax
 1528 0090 660FEFC0 		pxor	%xmm0, %xmm0
 1529 0094 31F6     		xorl	%esi, %esi
 1530 0096 66898424 		movw	%ax, 416(%rsp)
 1530      A0010000 
 1531 009e 488D0500 		leaq	24+_ZTCN8UnitTest15MemoryOutStreamE0_So(%rip), %rax
 1531      000000
 1532 00a5 4C89EF   		movq	%r13, %rdi
 1533 00a8 48894424 		movq	%rax, 48(%rsp)
 1533      30
 1534 00ad 4883C028 		addq	$40, %rax
 1535 00b1 48C78424 		movq	$0, 408(%rsp)
 1535      98010000 
 1535      00000000 
 1536 00bd 48898424 		movq	%rax, 192(%rsp)
 1536      C0000000 
 1537 00c5 0F118424 		movups	%xmm0, 424(%rsp)
 1537      A8010000 
 1538 00cd 0F118424 		movups	%xmm0, 440(%rsp)
 1538      B8010000 
 1539              	.LEHB30:
 1540 00d5 E8000000 		call	_ZNSt9basic_iosIcSt11char_traitsIcEE4initEPSt15basic_streambufIcS1_E@PLT
 1540      00
 1541              	.LEHE30:
 1542 00da 660F6F0C 		movdqa	(%rsp), %xmm1
 1542      24
 1543 00df 4C8D7424 		leaq	112(%rsp), %r14
 1543      70
 1544 00e4 660FEFC0 		pxor	%xmm0, %xmm0
 1545 00e8 488D0500 		leaq	64+_ZTCN8UnitTest15MemoryOutStreamE0_NSt7__cxx1119basic_ostringstreamIcSt11char_traitsIcESaIc
 1545      000000
 1546 00ef 4C89F7   		movq	%r14, %rdi
 1547 00f2 0F294424 		movaps	%xmm0, 64(%rsp)
 1547      40
 1548 00f7 4C8D6424 		leaq	48(%rsp), %r12
 1548      30
 1549 00fc 4C8D7C24 		leaq	56(%rsp), %r15
 1549      38
 1550 0101 48898424 		movq	%rax, 192(%rsp)
 1550      C0000000 
 1551 0109 0F294C24 		movaps	%xmm1, 48(%rsp)
 1551      30
 1552 010e 0F294424 		movaps	%xmm0, 80(%rsp)
 1552      50
 1553 0113 0F294424 		movaps	%xmm0, 96(%rsp)
 1553      60
 1554 0118 E8000000 		call	_ZNSt6localeC1Ev@PLT
 1554      00
 1555 011d 488D0500 		leaq	16+_ZTVNSt7__cxx1115basic_stringbufIcSt11char_traitsIcESaIcEEE(%rip), %rax
 1555      000000
 1556 0124 4C89FE   		movq	%r15, %rsi
 1557 0127 48C78424 		movq	$0, 136(%rsp)
 1557      88000000 
 1557      00000000 
 1558 0133 48894424 		movq	%rax, 56(%rsp)
 1558      38
 1559 0138 488D8424 		leaq	144(%rsp), %rax
 1559      90000000 
 1560 0140 48894424 		movq	%rax, 32(%rsp)
 1560      20
 1561 0145 48898424 		movq	%rax, 128(%rsp)
 1561      80000000 
 1562 014d 488B4424 		movq	48(%rsp), %rax
 1562      30
 1563 0152 C6842490 		movb	$0, 144(%rsp)
 1563      00000000 
 1564 015a 488B78E8 		movq	-24(%rax), %rdi
 1565 015e C7442478 		movl	$16, 120(%rsp)
 1565      10000000 
 1566 0166 4C01E7   		addq	%r12, %rdi
 1567              	.LEHB31:
 1568 0169 E8000000 		call	_ZNSt9basic_iosIcSt11char_traitsIcEE4initEPSt15basic_streambufIcS1_E@PLT
 1568      00
 1569              	.LEHE31:
 1570 016e 4C8D3D00 		leaq	24+_ZTVN8UnitTest15MemoryOutStreamE(%rip), %r15
 1570      000000
 1571 0175 BA090000 		movl	$9, %edx
 1571      00
 1572 017a 4C89E7   		movq	%r12, %rdi
 1573 017d 48C78424 		movq	$0, 168(%rsp)
 1573      A8000000 
 1573      00000000 
 1574 0189 498D4728 		leaq	40(%r15), %rax
 1575 018d 488D3500 		leaq	.LC0(%rip), %rsi
 1575      000000
 1576 0194 4C897C24 		movq	%r15, 48(%rsp)
 1576      30
 1577 0199 48898424 		movq	%rax, 192(%rsp)
 1577      C0000000 
 1578 01a1 488D8424 		leaq	176(%rsp), %rax
 1578      B0000000 
 1579 01a9 48894424 		movq	%rax, 40(%rsp)
 1579      28
 1580 01ae 48898424 		movq	%rax, 160(%rsp)
 1580      A0000000 
 1581 01b6 C68424B0 		movb	$0, 176(%rsp)
 1581      00000000 
 1582              	.LEHB32:
 1583 01be E8000000 		call	_ZSt16__ostream_insertIcSt11char_traitsIcEERSt13basic_ostreamIT_T0_ES6_PKS3_l@PLT
 1583      00
 1584 01c3 8B7500   		movl	0(%rbp), %esi
 1585 01c6 4C89E7   		movq	%r12, %rdi
 1586 01c9 E8000000 		call	_ZNSolsEi@PLT
 1586      00
 1587 01ce BA090000 		movl	$9, %edx
 1587      00
 1588 01d3 488D3500 		leaq	.LC1(%rip), %rsi
 1588      000000
 1589 01da 4889C7   		movq	%rax, %rdi
 1590 01dd 4889C5   		movq	%rax, %rbp
 1591 01e0 E8000000 		call	_ZSt16__ostream_insertIcSt11char_traitsIcEERSt13basic_ostreamIT_T0_ES6_PKS3_l@PLT
 1591      00
 1592 01e5 8B33     		movl	(%rbx), %esi
 1593 01e7 4889EF   		movq	%rbp, %rdi
 1594 01ea E8000000 		call	_ZNSolsEi@PLT
 1594      00
 1595 01ef 4C89E7   		movq	%r12, %rdi
 1596 01f2 E8000000 		call	_ZNK8UnitTest15MemoryOutStream7GetTextEv@PLT
 1596      00
 1597 01f7 488B7424 		movq	24(%rsp), %rsi
 1597      18
 1598 01fc 488B7C24 		movq	16(%rsp), %rdi
 1598      10
 1599 0201 4889C2   		movq	%rax, %rdx
 1600 0204 F30F7E15 		movq	.LC2(%rip), %xmm2
 1600      00000000 
 1601 020c 0F161500 		movhps	.LC4(%rip), %xmm2
 1601      000000
 1602 0213 0F291424 		movaps	%xmm2, (%rsp)
 1603 0217 E8000000 		call	_ZN8UnitTest11TestResults13OnTestFailureERKNS_11TestDetailsEPKc@PLT
 1603      00
 1604              	.LEHE32:
 1605 021c 488D0500 		leaq	64+_ZTVN8UnitTest15MemoryOutStreamE(%rip), %rax
 1605      000000
 1606 0223 4C897C24 		movq	%r15, 48(%rsp)
 1606      30
 1607 0228 488BBC24 		movq	160(%rsp), %rdi
 1607      A0000000 
 1608 0230 48898424 		movq	%rax, 192(%rsp)
 1608      C0000000 
 1609 0238 483B7C24 		cmpq	40(%rsp), %rdi
 1609      28
 1610 023d 7405     		je	.L99
 1611 023f E8000000 		call	_ZdlPv@PLT
 1611      00
 1612              	.L99:
 1613 0244 660F6F1C 		movdqa	(%rsp), %xmm3
 1613      24
 1614 0249 488D0500 		leaq	64+_ZTCN8UnitTest15MemoryOutStreamE0_NSt7__cxx1119basic_ostringstreamIcSt11char_traitsIcESaIc
 1614      000000
 1615 0250 488BBC24 		movq	128(%rsp), %rdi
 1615      80000000 
 1616 0258 48898424 		movq	%rax, 192(%rsp)
 1616      C0000000 
 1617 0260 0F295C24 		movaps	%xmm3, 48(%rsp)
 1617      30
 1618 0265 483B7C24 		cmpq	32(%rsp), %rdi
 1618      20
 1619 026a 7405     		je	.L100
 1620 026c E8000000 		call	_ZdlPv@PLT
 1620      00
 1621              	.L100:
 1622 0271 488D0500 		leaq	16+_ZTVSt15basic_streambufIcSt11char_traitsIcEE(%rip), %rax
 1622      000000
 1623 0278 4C89F7   		movq	%r14, %rdi
 1624 027b 48894424 		movq	%rax, 56(%rsp)
 1624      38
 1625 0280 E8000000 		call	_ZNSt6localeD1Ev@PLT
 1625      00
 1626 0285 488D0500 		leaq	24+_ZTCN8UnitTest15MemoryOutStreamE0_So(%rip), %rax
 1626      000000
 1627 028c 4C89EF   		movq	%r13, %rdi
 1628 028f 48894424 		movq	%rax, 48(%rsp)
 1628      30
 1629 0294 488D0500 		leaq	16+_ZTVSt9basic_iosIcSt11char_traitsIcEE(%rip), %rax
 1629      000000
 1630 029b 48898424 		movq	%rax, 192(%rsp)
 1630      C0000000 
 1631              	.LEHB33:
 1632 02a3 E8000000 		call	_ZNSt8ios_baseD2Ev@PLT
 1632      00
 1633              	.LEHE33:
 1634 02a8 E99EFDFF 		jmp	.L93
 1634      FF
 1635              	.L110:
 1636 02ad E8000000 		call	__stack_chk_fail@PLT
 1636      00
 1637              	.L104:
 1638 02b2 F30F1EFA 		endbr64
 1639 02b6 4889C5   		movq	%rax, %rbp
 1640 02b9 EB26     		jmp	.L97
 1641              	.L105:
 1642 02bb F30F1EFA 		endbr64
 1643 02bf 4889C5   		movq	%rax, %rbp
 1644 02c2 EB09     		jmp	.L96
 1645              	.L103:
 1646 02c4 F30F1EFA 		endbr64
 1647 02c8 4889C5   		movq	%rax, %rbp
 1648 02cb EB33     		jmp	.L101
 1649              	.L96:
 1650 02cd 4C89FF   		movq	%r15, %rdi
 1651 02d0 E8000000 		call	_ZNSt7__cxx1115basic_stringbufIcSt11char_traitsIcESaIcEED1Ev
 1651      00
 1652 02d5 488D0500 		leaq	24+_ZTCN8UnitTest15MemoryOutStreamE0_So(%rip), %rax
 1652      000000
 1653 02dc 48894424 		movq	%rax, 48(%rsp)
 1653      30
 1654              	.L97:
 1655 02e1 488D0500 		leaq	16+_ZTVSt9basic_iosIcSt11char_traitsIcEE(%rip), %rax
 1655      000000
 1656 02e8 4C89EF   		movq	%r13, %rdi
 1657 02eb 48898424 		movq	%rax, 192(%rsp)
 1657      C0000000 
 1658 02f3 E8000000 		call	_ZNSt8ios_baseD2Ev@PLT
 1658      00
 1659 02f8 4889EF   		movq	%rbp, %rdi
 1660              	.LEHB34:
 1661 02fb E8000000 		call	_Unwind_Resume@PLT
 1661      00
 1662              	.LEHE34:
 1663              	.L101:
 1664 0300 4C89E7   		movq	%r12, %rdi
 1665 0303 E8000000 		call	_ZN8UnitTest15MemoryOutStreamD1Ev
 1665      00
 1666 0308 4889EF   		movq	%rbp, %rdi
 1667              	.LEHB35:
 1668 030b E8000000 		call	_Unwind_Resume@PLT
 1668      00
 1669              	.LEHE35:
 1670              		.cfi_endproc
 1671              	.LFE1388:
 1672              		.section	.gcc_except_table._ZN8UnitTest10CheckEqualI12BufferStatusS1_EEvRNS_11TestResultsERKT_RKT0
 1673              	.LLSDA1388:
 1674 0000 FF       		.byte	0xff
 1675 0001 FF       		.byte	0xff
 1676 0002 01       		.byte	0x1
 1677 0003 21       		.uleb128 .LLSDACSE1388-.LLSDACSB1388
 1678              	.LLSDACSB1388:
 1679 0004 D501     		.uleb128 .LEHB30-.LFB1388
 1680 0006 05       		.uleb128 .LEHE30-.LEHB30
 1681 0007 B205     		.uleb128 .L104-.LFB1388
 1682 0009 00       		.uleb128 0
 1683 000a E902     		.uleb128 .LEHB31-.LFB1388
 1684 000c 05       		.uleb128 .LEHE31-.LEHB31
 1685 000d BB05     		.uleb128 .L105-.LFB1388
 1686 000f 00       		.uleb128 0
 1687 0010 BE03     		.uleb128 .LEHB32-.LFB1388
 1688 0012 5E       		.uleb128 .LEHE32-.LEHB32
 1689 0013 C405     		.uleb128 .L103-.LFB1388
 1690 0015 00       		.uleb128 0
 1691 0016 A305     		.uleb128 .LEHB33-.LFB1388
 1692 0018 05       		.uleb128 .LEHE33-.LEHB33
 1693 0019 00       		.uleb128 0
 1694 001a 00       		.uleb128 0
 1695 001b FB05     		.uleb128 .LEHB34-.LFB1388
 1696 001d 05       		.uleb128 .LEHE34-.LEHB34
 1697 001e 00       		.uleb128 0
 1698 001f 00       		.uleb128 0
 1699 0020 8B06     		.uleb128 .LEHB35-.LFB1388
 1700 0022 05       		.uleb128 .LEHE35-.LEHB35
 1701 0023 00       		.uleb128 0
 1702 0024 00       		.uleb128 0
 1703              	.LLSDACSE1388:
 1704              		.section	.text._ZN8UnitTest10CheckEqualI12BufferStatusS1_EEvRNS_11TestResultsERKT_RKT0_RKNS_11Test
 1706              		.section	.rodata.str1.1,"aMS",@progbits,1
 1707              	.LC5:
 1708 0000 2E303430 		.string	".040BE10075820022F7\n"
 1708      42453130 
 1708      30373538 
 1708      32303032 
 1708      3246370A 
 1709              		.section	.rodata.str1.8,"aMS",@progbits,1
 1710              		.align 8
 1711              	.LC6:
 1712 0000 556E6861 		.string	"Unhandled exception in CHECK_EQUAL(BUF_SUCCESS, status)"
 1712      6E646C65 
 1712      64206578 
 1712      63657074 
 1712      696F6E20 
 1713              		.align 8
 1714              	.LC7:
 1715 0038 556E6861 		.string	"Unhandled exception in CHECK_EQUAL(HEX_JUNK_START_CODE, status)"
 1715      6E646C65 
 1715      64206578 
 1715      63657074 
 1715      696F6E20 
 1716              		.section	.text.unlikely,"ax",@progbits
 1717              		.align 2
 1718              	.LCOLDB8:
 1719              		.text
 1720              	.LHOTB8:
 1721              		.align 2
 1722              		.p2align 4
 1723              		.globl	_ZNK27TestHexIO_testJunkStartCode7RunImplEv
 1725              	_ZNK27TestHexIO_testJunkStartCode7RunImplEv:
 1726              	.LFB1318:
 1727              		.cfi_startproc
 1728              		.cfi_personality 0x9b,DW.ref.__gxx_personality_v0
 1729              		.cfi_lsda 0x1b,.LLSDA1318
 1730 0000 F30F1EFA 		endbr64
 1731 0004 4155     		pushq	%r13
 1732              		.cfi_def_cfa_offset 16
 1733              		.cfi_offset 13, -16
 1734 0006 31C9     		xorl	%ecx, %ecx
 1735 0008 31D2     		xorl	%edx, %edx
 1736 000a BE000400 		movl	$1024, %esi
 1736      00
 1737 000f 4154     		pushq	%r12
 1738              		.cfi_def_cfa_offset 24
 1739              		.cfi_offset 12, -24
 1740 0011 55       		pushq	%rbp
 1741              		.cfi_def_cfa_offset 32
 1742              		.cfi_offset 6, -32
 1743 0012 4883EC60 		subq	$96, %rsp
 1744              		.cfi_def_cfa_offset 128
 1745 0016 64488B04 		movq	%fs:40, %rax
 1745      25280000 
 1745      00
 1746 001f 48894424 		movq	%rax, 88(%rsp)
 1746      58
 1747 0024 31C0     		xorl	%eax, %eax
 1748 0026 4C8D6424 		leaq	16(%rsp), %r12
 1748      10
 1749 002b C7442408 		movl	$0, 8(%rsp)
 1749      00000000 
 1750 0033 4C89E7   		movq	%r12, %rdi
 1751              	.LEHB36:
 1752 0036 E8000000 		call	bufInitialise@PLT
 1752      00
 1753              	.LEHE36:
 1754 003b 89442404 		movl	%eax, 4(%rsp)
 1755              	.LEHB37:
 1756 003f E8000000 		call	_ZN8UnitTest11CurrentTest7DetailsEv@PLT
 1756      00
 1757 0044 488D6C24 		leaq	48(%rsp), %rbp
 1757      30
 1758 0049 488B30   		movq	(%rax), %rsi
 1759 004c BA4C0000 		movl	$76, %edx
 1759      00
 1760 0051 4889EF   		movq	%rbp, %rdi
 1761 0054 E8000000 		call	_ZN8UnitTest11TestDetailsC1ERKS0_i@PLT
 1761      00
 1762 0059 C744240C 		movl	$0, 12(%rsp)
 1762      00000000 
 1763 0061 E8000000 		call	_ZN8UnitTest11CurrentTest7ResultsEv@PLT
 1763      00
 1764 0066 488B38   		movq	(%rax), %rdi
 1765 0069 488D5424 		leaq	4(%rsp), %rdx
 1765      04
 1766 006e 488D7424 		leaq	12(%rsp), %rsi
 1766      0C
 1767 0073 4889E9   		movq	%rbp, %rcx
 1768 0076 E8000000 		call	_ZN8UnitTest10CheckEqualI12BufferStatusS1_EEvRNS_11TestResultsERKT_RKT0_RKNS_11TestDetailsE
 1768      00
 1769              	.LEHE37:
 1770              	.L113:
 1771 007b 4883EC08 		subq	$8, %rsp
 1772              		.cfi_def_cfa_offset 136
 1773 007f 4C89E2   		movq	%r12, %rdx
 1774 0082 31C9     		xorl	%ecx, %ecx
 1775 0084 31F6     		xorl	%esi, %esi
 1776 0086 6A00     		pushq	$0
 1777              		.cfi_def_cfa_offset 144
 1778 0088 488D3D00 		leaq	.LC5(%rip), %rdi
 1778      000000
 1779 008f 4C8D4C24 		leaq	19(%rsp), %r9
 1779      13
 1780 0094 4C8D4424 		leaq	24(%rsp), %r8
 1780      18
 1781              	.LEHB38:
 1782 0099 E8000000 		call	bufProcessLine@PLT
 1782      00
 1783              	.LEHE38:
 1784 009e 89442414 		movl	%eax, 20(%rsp)
 1785 00a2 58       		popq	%rax
 1786              		.cfi_def_cfa_offset 136
 1787 00a3 5A       		popq	%rdx
 1788              		.cfi_def_cfa_offset 128
 1789              	.LEHB39:
 1790 00a4 E8000000 		call	_ZN8UnitTest11CurrentTest7DetailsEv@PLT
 1790      00
 1791 00a9 488B30   		movq	(%rax), %rsi
 1792 00ac BA4E0000 		movl	$78, %edx
 1792      00
 1793 00b1 4889EF   		movq	%rbp, %rdi
 1794 00b4 E8000000 		call	_ZN8UnitTest11TestDetailsC1ERKS0_i@PLT
 1794      00
 1795 00b9 C744240C 		movl	$8, 12(%rsp)
 1795      08000000 
 1796 00c1 E8000000 		call	_ZN8UnitTest11CurrentTest7ResultsEv@PLT
 1796      00
 1797 00c6 488B38   		movq	(%rax), %rdi
 1798 00c9 488D5424 		leaq	4(%rsp), %rdx
 1798      04
 1799 00ce 488D7424 		leaq	12(%rsp), %rsi
 1799      0C
 1800 00d3 4889E9   		movq	%rbp, %rcx
 1801 00d6 E8000000 		call	_ZN8UnitTest10CheckEqualI12BufferStatusS1_EEvRNS_11TestResultsERKT_RKT0_RKNS_11TestDetailsE
 1801      00
 1802              	.LEHE39:
 1803              	.L116:
 1804 00db 4C89E7   		movq	%r12, %rdi
 1805              	.LEHB40:
 1806 00de E8000000 		call	bufDestroy@PLT
 1806      00
 1807              	.LEHE40:
 1808 00e3 488B4424 		movq	88(%rsp), %rax
 1808      58
 1809 00e8 64482B04 		subq	%fs:40, %rax
 1809      25280000 
 1809      00
 1810 00f1 750A     		jne	.L125
 1811 00f3 4883C460 		addq	$96, %rsp
 1812              		.cfi_remember_state
 1813              		.cfi_def_cfa_offset 32
 1814 00f7 5D       		popq	%rbp
 1815              		.cfi_def_cfa_offset 24
 1816 00f8 415C     		popq	%r12
 1817              		.cfi_def_cfa_offset 16
 1818 00fa 415D     		popq	%r13
 1819              		.cfi_def_cfa_offset 8
 1820 00fc C3       		ret
 1821              	.L125:
 1822              		.cfi_restore_state
 1823 00fd E8000000 		call	__stack_chk_fail@PLT
 1823      00
 1824              	.L121:
 1825 0102 F30F1EFA 		endbr64
 1826 0106 4889C7   		movq	%rax, %rdi
 1827 0109 E9000000 		jmp	.L115
 1827      00
 1828              	.L119:
 1829 010e F30F1EFA 		endbr64
 1830 0112 4889C7   		movq	%rax, %rdi
 1831 0115 E9000000 		jmp	.L112
 1831      00
 1832              		.section	.gcc_except_table,"a",@progbits
 1833              		.align 4
 1834              	.LLSDA1318:
 1835 0000 FF       		.byte	0xff
 1836 0001 9B       		.byte	0x9b
 1837 0002 21       		.uleb128 .LLSDATT1318-.LLSDATTD1318
 1838              	.LLSDATTD1318:
 1839 0003 01       		.byte	0x1
 1840 0004 19       		.uleb128 .LLSDACSE1318-.LLSDACSB1318
 1841              	.LLSDACSB1318:
 1842 0005 36       		.uleb128 .LEHB36-.LFB1318
 1843 0006 05       		.uleb128 .LEHE36-.LEHB36
 1844 0007 00       		.uleb128 0
 1845 0008 00       		.uleb128 0
 1846 0009 3F       		.uleb128 .LEHB37-.LFB1318
 1847 000a 3C       		.uleb128 .LEHE37-.LEHB37
 1848 000b 8E02     		.uleb128 .L119-.LFB1318
 1849 000d 01       		.uleb128 0x1
 1850 000e 9901     		.uleb128 .LEHB38-.LFB1318
 1851 0010 05       		.uleb128 .LEHE38-.LEHB38
 1852 0011 00       		.uleb128 0
 1853 0012 00       		.uleb128 0
 1854 0013 A401     		.uleb128 .LEHB39-.LFB1318
 1855 0015 37       		.uleb128 .LEHE39-.LEHB39
 1856 0016 8202     		.uleb128 .L121-.LFB1318
 1857 0018 01       		.uleb128 0x1
 1858 0019 DE01     		.uleb128 .LEHB40-.LFB1318
 1859 001b 05       		.uleb128 .LEHE40-.LEHB40
 1860 001c 00       		.uleb128 0
 1861 001d 00       		.uleb128 0
 1862              	.LLSDACSE1318:
 1863 001e 01       		.byte	0x1
 1864 001f 00       		.byte	0
 1865              		.align 4
 1866 0020 00000000 		.long	0
 1867              	
 1868              	.LLSDATT1318:
 1869              		.text
 1870              		.cfi_endproc
 1871              		.section	.text.unlikely
 1872              		.cfi_startproc
 1873              		.cfi_personality 0x9b,DW.ref.__gxx_personality_v0
 1874              		.cfi_lsda 0x1b,.LLSDAC1318
 1876              	_ZNK27TestHexIO_testJunkStartCode7RunImplEv.cold:
 1877              	.LFSB1318:
 1878              	.L115:
 1879              		.cfi_def_cfa_offset 128
 1880              		.cfi_offset 6, -32
 1881              		.cfi_offset 12, -24
 1882              		.cfi_offset 13, -16
 1883 0000 E8000000 		call	__cxa_begin_catch@PLT
 1883      00
 1884              	.LEHB41:
 1885 0005 E8000000 		call	_ZN8UnitTest11CurrentTest7ResultsEv@PLT
 1885      00
 1886 000a 4C8B28   		movq	(%rax), %r13
 1887 000d E8000000 		call	_ZN8UnitTest11CurrentTest7DetailsEv@PLT
 1887      00
 1888 0012 488B30   		movq	(%rax), %rsi
 1889 0015 BA4E0000 		movl	$78, %edx
 1889      00
 1890 001a 4889EF   		movq	%rbp, %rdi
 1891 001d E8000000 		call	_ZN8UnitTest11TestDetailsC1ERKS0_i@PLT
 1891      00
 1892 0022 488D1500 		leaq	.LC7(%rip), %rdx
 1892      000000
 1893 0029 4889EE   		movq	%rbp, %rsi
 1894 002c 4C89EF   		movq	%r13, %rdi
 1895 002f E8000000 		call	_ZN8UnitTest11TestResults13OnTestFailureERKNS_11TestDetailsEPKc@PLT
 1895      00
 1896              	.LEHE41:
 1897              	.LEHB42:
 1898 0034 E8000000 		call	__cxa_end_catch@PLT
 1898      00
 1899              	.LEHE42:
 1900 0039 E9000000 		jmp	.L116
 1900      00
 1901              	.L112:
 1902 003e E8000000 		call	__cxa_begin_catch@PLT
 1902      00
 1903              	.LEHB43:
 1904 0043 E8000000 		call	_ZN8UnitTest11CurrentTest7ResultsEv@PLT
 1904      00
 1905 0048 4C8B28   		movq	(%rax), %r13
 1906 004b E8000000 		call	_ZN8UnitTest11CurrentTest7DetailsEv@PLT
 1906      00
 1907 0050 488D6C24 		leaq	48(%rsp), %rbp
 1907      30
 1908 0055 488B30   		movq	(%rax), %rsi
 1909 0058 BA4C0000 		movl	$76, %edx
 1909      00
 1910 005d 4889EF   		movq	%rbp, %rdi
 1911 0060 E8000000 		call	_ZN8UnitTest11TestDetailsC1ERKS0_i@PLT
 1911      00
 1912 0065 488D1500 		leaq	.LC6(%rip), %rdx
 1912      000000
 1913 006c 4889EE   		movq	%rbp, %rsi
 1914 006f 4C89EF   		movq	%r13, %rdi
 1915 0072 E8000000 		call	_ZN8UnitTest11TestResults13OnTestFailureERKNS_11TestDetailsEPKc@PLT
 1915      00
 1916              	.LEHE43:
 1917              	.LEHB44:
 1918 0077 E8000000 		call	__cxa_end_catch@PLT
 1918      00
 1919              	.LEHE44:
 1920 007c E9000000 		jmp	.L113
 1920      00
 1921              	.L122:
 1922 0081 F30F1EFA 		endbr64
 1923 0085 4889C5   		movq	%rax, %rbp
 1924 0088 E8000000 		call	__cxa_end_catch@PLT
 1924      00
 1925 008d 4889EF   		movq	%rbp, %rdi
 1926              	.LEHB45:
 1927 0090 E8000000 		call	_Unwind_Resume@PLT
 1927      00
 1928              	.LEHE45:
 1929              	.L120:
 1930 0095 F30F1EFA 		endbr64
 1931 0099 4889C5   		movq	%rax, %rbp
 1932 009c E8000000 		call	__cxa_end_catch@PLT
 1932      00
 1933 00a1 4889EF   		movq	%rbp, %rdi
 1934              	.LEHB46:
 1935 00a4 E8000000 		call	_Unwind_Resume@PLT
 1935      00
 1936              	.LEHE46:
 1937              		.cfi_endproc
 1938              	.LFE1318:
 1939              		.section	.gcc_except_table
 1940              		.align 4
 1941              	.LLSDAC1318:
 1942 0024 FF       		.byte	0xff
 1943 0025 9B       		.byte	0x9b
 1944 0026 25       		.uleb128 .LLSDATTC1318-.LLSDATTDC1318
 1945              	.LLSDATTDC1318:
 1946 0027 01       		.byte	0x1
 1947 0028 1C       		.uleb128 .LLSDACSEC1318-.LLSDACSBC1318
 1948              	.LLSDACSBC1318:
 1949 0029 05       		.uleb128 .LEHB41-.LCOLDB8
 1950 002a 2F       		.uleb128 .LEHE41-.LEHB41
 1951 002b 8101     		.uleb128 .L122-.LCOLDB8
 1952 002d 00       		.uleb128 0
 1953 002e 34       		.uleb128 .LEHB42-.LCOLDB8
 1954 002f 05       		.uleb128 .LEHE42-.LEHB42
 1955 0030 00       		.uleb128 0
 1956 0031 00       		.uleb128 0
 1957 0032 43       		.uleb128 .LEHB43-.LCOLDB8
 1958 0033 34       		.uleb128 .LEHE43-.LEHB43
 1959 0034 9501     		.uleb128 .L120-.LCOLDB8
 1960 0036 00       		.uleb128 0
 1961 0037 77       		.uleb128 .LEHB44-.LCOLDB8
 1962 0038 05       		.uleb128 .LEHE44-.LEHB44
 1963 0039 00       		.uleb128 0
 1964 003a 00       		.uleb128 0
 1965 003b 9001     		.uleb128 .LEHB45-.LCOLDB8
 1966 003d 05       		.uleb128 .LEHE45-.LEHB45
 1967 003e 00       		.uleb128 0
 1968 003f 00       		.uleb128 0
 1969 0040 A401     		.uleb128 .LEHB46-.LCOLDB8
 1970 0042 05       		.uleb128 .LEHE46-.LEHB46
 1971 0043 00       		.uleb128 0
 1972 0044 00       		.uleb128 0
 1973              	.LLSDACSEC1318:
 1974 0045 01       		.byte	0x1
 1975 0046 00       		.byte	0
 1976 0047 00       		.align 4
 1977 0048 00000000 		.long	0
 1978              	
 1979              	.LLSDATTC1318:
 1980              		.section	.text.unlikely
 1981              		.text
 1983              		.section	.text.unlikely
 1985              	.LCOLDE8:
 1986              		.text
 1987              	.LHOTE8:
 1988              		.section	.rodata.str1.1
 1989              	.LC9:
 1990 0015 3A2E2E30 		.string	":..0BE10075820022F7\n"
 1990      42453130 
 1990      30373538 
 1990      32303032 
 1990      3246370A 
 1991              		.section	.rodata.str1.8
 1992              		.align 8
 1993              	.LC10:
 1994 0078 556E6861 		.string	"Unhandled exception in CHECK_EQUAL(HEX_JUNK_BYTE_COUNT, status)"
 1994      6E646C65 
 1994      64206578 
 1994      63657074 
 1994      696F6E20 
 1995              		.section	.text.unlikely
 1996 00a9 90       		.align 2
 1997              	.LCOLDB11:
 1998              		.text
 1999              	.LHOTB11:
 2000              		.align 2
 2001 011a 660F1F44 		.p2align 4
 2001      0000
 2002              		.globl	_ZNK27TestHexIO_testJunkByteCount7RunImplEv
 2004              	_ZNK27TestHexIO_testJunkByteCount7RunImplEv:
 2005              	.LFB1322:
 2006              		.cfi_startproc
 2007              		.cfi_personality 0x9b,DW.ref.__gxx_personality_v0
 2008              		.cfi_lsda 0x1b,.LLSDA1322
 2009 0120 F30F1EFA 		endbr64
 2010 0124 4155     		pushq	%r13
 2011              		.cfi_def_cfa_offset 16
 2012              		.cfi_offset 13, -16
 2013 0126 31C9     		xorl	%ecx, %ecx
 2014 0128 31D2     		xorl	%edx, %edx
 2015 012a BE000400 		movl	$1024, %esi
 2015      00
 2016 012f 4154     		pushq	%r12
 2017              		.cfi_def_cfa_offset 24
 2018              		.cfi_offset 12, -24
 2019 0131 55       		pushq	%rbp
 2020              		.cfi_def_cfa_offset 32
 2021              		.cfi_offset 6, -32
 2022 0132 4883EC60 		subq	$96, %rsp
 2023              		.cfi_def_cfa_offset 128
 2024 0136 64488B04 		movq	%fs:40, %rax
 2024      25280000 
 2024      00
 2025 013f 48894424 		movq	%rax, 88(%rsp)
 2025      58
 2026 0144 31C0     		xorl	%eax, %eax
 2027 0146 4C8D6424 		leaq	16(%rsp), %r12
 2027      10
 2028 014b C7442408 		movl	$0, 8(%rsp)
 2028      00000000 
 2029 0153 4C89E7   		movq	%r12, %rdi
 2030              	.LEHB47:
 2031 0156 E8000000 		call	bufInitialise@PLT
 2031      00
 2032              	.LEHE47:
 2033 015b 89442404 		movl	%eax, 4(%rsp)
 2034              	.LEHB48:
 2035 015f E8000000 		call	_ZN8UnitTest11CurrentTest7DetailsEv@PLT
 2035      00
 2036 0164 488D6C24 		leaq	48(%rsp), %rbp
 2036      30
 2037 0169 488B30   		movq	(%rax), %rsi
 2038 016c BA590000 		movl	$89, %edx
 2038      00
 2039 0171 4889EF   		movq	%rbp, %rdi
 2040 0174 E8000000 		call	_ZN8UnitTest11TestDetailsC1ERKS0_i@PLT
 2040      00
 2041 0179 C744240C 		movl	$0, 12(%rsp)
 2041      00000000 
 2042 0181 E8000000 		call	_ZN8UnitTest11CurrentTest7ResultsEv@PLT
 2042      00
 2043 0186 488B38   		movq	(%rax), %rdi
 2044 0189 488D5424 		leaq	4(%rsp), %rdx
 2044      04
 2045 018e 488D7424 		leaq	12(%rsp), %rsi
 2045      0C
 2046 0193 4889E9   		movq	%rbp, %rcx
 2047 0196 E8000000 		call	_ZN8UnitTest10CheckEqualI12BufferStatusS1_EEvRNS_11TestResultsERKT_RKT0_RKNS_11TestDetailsE
 2047      00
 2048              	.LEHE48:
 2049              	.L128:
 2050 019b 4883EC08 		subq	$8, %rsp
 2051              		.cfi_def_cfa_offset 136
 2052 019f 4C89E2   		movq	%r12, %rdx
 2053 01a2 31C9     		xorl	%ecx, %ecx
 2054 01a4 31F6     		xorl	%esi, %esi
 2055 01a6 6A00     		pushq	$0
 2056              		.cfi_def_cfa_offset 144
 2057 01a8 488D3D00 		leaq	.LC9(%rip), %rdi
 2057      000000
 2058 01af 4C8D4C24 		leaq	19(%rsp), %r9
 2058      13
 2059 01b4 4C8D4424 		leaq	24(%rsp), %r8
 2059      18
 2060              	.LEHB49:
 2061 01b9 E8000000 		call	bufProcessLine@PLT
 2061      00
 2062              	.LEHE49:
 2063 01be 89442414 		movl	%eax, 20(%rsp)
 2064 01c2 58       		popq	%rax
 2065              		.cfi_def_cfa_offset 136
 2066 01c3 5A       		popq	%rdx
 2067              		.cfi_def_cfa_offset 128
 2068              	.LEHB50:
 2069 01c4 E8000000 		call	_ZN8UnitTest11CurrentTest7DetailsEv@PLT
 2069      00
 2070 01c9 488B30   		movq	(%rax), %rsi
 2071 01cc BA5B0000 		movl	$91, %edx
 2071      00
 2072 01d1 4889EF   		movq	%rbp, %rdi
 2073 01d4 E8000000 		call	_ZN8UnitTest11TestDetailsC1ERKS0_i@PLT
 2073      00
 2074 01d9 C744240C 		movl	$9, 12(%rsp)
 2074      09000000 
 2075 01e1 E8000000 		call	_ZN8UnitTest11CurrentTest7ResultsEv@PLT
 2075      00
 2076 01e6 488B38   		movq	(%rax), %rdi
 2077 01e9 488D5424 		leaq	4(%rsp), %rdx
 2077      04
 2078 01ee 488D7424 		leaq	12(%rsp), %rsi
 2078      0C
 2079 01f3 4889E9   		movq	%rbp, %rcx
 2080 01f6 E8000000 		call	_ZN8UnitTest10CheckEqualI12BufferStatusS1_EEvRNS_11TestResultsERKT_RKT0_RKNS_11TestDetailsE
 2080      00
 2081              	.LEHE50:
 2082              	.L131:
 2083 01fb 4C89E7   		movq	%r12, %rdi
 2084              	.LEHB51:
 2085 01fe E8000000 		call	bufDestroy@PLT
 2085      00
 2086              	.LEHE51:
 2087 0203 488B4424 		movq	88(%rsp), %rax
 2087      58
 2088 0208 64482B04 		subq	%fs:40, %rax
 2088      25280000 
 2088      00
 2089 0211 750A     		jne	.L140
 2090 0213 4883C460 		addq	$96, %rsp
 2091              		.cfi_remember_state
 2092              		.cfi_def_cfa_offset 32
 2093 0217 5D       		popq	%rbp
 2094              		.cfi_def_cfa_offset 24
 2095 0218 415C     		popq	%r12
 2096              		.cfi_def_cfa_offset 16
 2097 021a 415D     		popq	%r13
 2098              		.cfi_def_cfa_offset 8
 2099 021c C3       		ret
 2100              	.L140:
 2101              		.cfi_restore_state
 2102 021d E8000000 		call	__stack_chk_fail@PLT
 2102      00
 2103              	.L136:
 2104 0222 F30F1EFA 		endbr64
 2105 0226 4889C7   		movq	%rax, %rdi
 2106 0229 E9000000 		jmp	.L130
 2106      00
 2107              	.L134:
 2108 022e F30F1EFA 		endbr64
 2109 0232 4889C7   		movq	%rax, %rdi
 2110 0235 E9000000 		jmp	.L127
 2110      00
 2111              		.section	.gcc_except_table
 2112              		.align 4
 2113              	.LLSDA1322:
 2114 004c FF       		.byte	0xff
 2115 004d 9B       		.byte	0x9b
 2116 004e 21       		.uleb128 .LLSDATT1322-.LLSDATTD1322
 2117              	.LLSDATTD1322:
 2118 004f 01       		.byte	0x1
 2119 0050 19       		.uleb128 .LLSDACSE1322-.LLSDACSB1322
 2120              	.LLSDACSB1322:
 2121 0051 36       		.uleb128 .LEHB47-.LFB1322
 2122 0052 05       		.uleb128 .LEHE47-.LEHB47
 2123 0053 00       		.uleb128 0
 2124 0054 00       		.uleb128 0
 2125 0055 3F       		.uleb128 .LEHB48-.LFB1322
 2126 0056 3C       		.uleb128 .LEHE48-.LEHB48
 2127 0057 8E02     		.uleb128 .L134-.LFB1322
 2128 0059 01       		.uleb128 0x1
 2129 005a 9901     		.uleb128 .LEHB49-.LFB1322
 2130 005c 05       		.uleb128 .LEHE49-.LEHB49
 2131 005d 00       		.uleb128 0
 2132 005e 00       		.uleb128 0
 2133 005f A401     		.uleb128 .LEHB50-.LFB1322
 2134 0061 37       		.uleb128 .LEHE50-.LEHB50
 2135 0062 8202     		.uleb128 .L136-.LFB1322
 2136 0064 01       		.uleb128 0x1
 2137 0065 DE01     		.uleb128 .LEHB51-.LFB1322
 2138 0067 05       		.uleb128 .LEHE51-.LEHB51
 2139 0068 00       		.uleb128 0
 2140 0069 00       		.uleb128 0
 2141              	.LLSDACSE1322:
 2142 006a 01       		.byte	0x1
 2143 006b 00       		.byte	0
 2144              		.align 4
 2145 006c 00000000 		.long	0
 2146              	
 2147              	.LLSDATT1322:
 2148              		.text
 2149              		.cfi_endproc
 2150              		.section	.text.unlikely
 2151              		.cfi_startproc
 2152              		.cfi_personality 0x9b,DW.ref.__gxx_personality_v0
 2153              		.cfi_lsda 0x1b,.LLSDAC1322
 2155              	_ZNK27TestHexIO_testJunkByteCount7RunImplEv.cold:
 2156              	.LFSB1322:
 2157              	.L130:
 2158              		.cfi_def_cfa_offset 128
 2159              		.cfi_offset 6, -32
 2160              		.cfi_offset 12, -24
 2161              		.cfi_offset 13, -16
 2162 00aa E8000000 		call	__cxa_begin_catch@PLT
 2162      00
 2163              	.LEHB52:
 2164 00af E8000000 		call	_ZN8UnitTest11CurrentTest7ResultsEv@PLT
 2164      00
 2165 00b4 4C8B28   		movq	(%rax), %r13
 2166 00b7 E8000000 		call	_ZN8UnitTest11CurrentTest7DetailsEv@PLT
 2166      00
 2167 00bc 488B30   		movq	(%rax), %rsi
 2168 00bf BA5B0000 		movl	$91, %edx
 2168      00
 2169 00c4 4889EF   		movq	%rbp, %rdi
 2170 00c7 E8000000 		call	_ZN8UnitTest11TestDetailsC1ERKS0_i@PLT
 2170      00
 2171 00cc 488D1500 		leaq	.LC10(%rip), %rdx
 2171      000000
 2172 00d3 4889EE   		movq	%rbp, %rsi
 2173 00d6 4C89EF   		movq	%r13, %rdi
 2174 00d9 E8000000 		call	_ZN8UnitTest11TestResults13OnTestFailureERKNS_11TestDetailsEPKc@PLT
 2174      00
 2175              	.LEHE52:
 2176              	.LEHB53:
 2177 00de E8000000 		call	__cxa_end_catch@PLT
 2177      00
 2178              	.LEHE53:
 2179 00e3 E9000000 		jmp	.L131
 2179      00
 2180              	.L127:
 2181 00e8 E8000000 		call	__cxa_begin_catch@PLT
 2181      00
 2182              	.LEHB54:
 2183 00ed E8000000 		call	_ZN8UnitTest11CurrentTest7ResultsEv@PLT
 2183      00
 2184 00f2 4C8B28   		movq	(%rax), %r13
 2185 00f5 E8000000 		call	_ZN8UnitTest11CurrentTest7DetailsEv@PLT
 2185      00
 2186 00fa 488D6C24 		leaq	48(%rsp), %rbp
 2186      30
 2187 00ff 488B30   		movq	(%rax), %rsi
 2188 0102 BA590000 		movl	$89, %edx
 2188      00
 2189 0107 4889EF   		movq	%rbp, %rdi
 2190 010a E8000000 		call	_ZN8UnitTest11TestDetailsC1ERKS0_i@PLT
 2190      00
 2191 010f 488D1500 		leaq	.LC6(%rip), %rdx
 2191      000000
 2192 0116 4889EE   		movq	%rbp, %rsi
 2193 0119 4C89EF   		movq	%r13, %rdi
 2194 011c E8000000 		call	_ZN8UnitTest11TestResults13OnTestFailureERKNS_11TestDetailsEPKc@PLT
 2194      00
 2195              	.LEHE54:
 2196              	.LEHB55:
 2197 0121 E8000000 		call	__cxa_end_catch@PLT
 2197      00
 2198              	.LEHE55:
 2199 0126 E9000000 		jmp	.L128
 2199      00
 2200              	.L137:
 2201 012b F30F1EFA 		endbr64
 2202 012f 4889C5   		movq	%rax, %rbp
 2203 0132 E8000000 		call	__cxa_end_catch@PLT
 2203      00
 2204 0137 4889EF   		movq	%rbp, %rdi
 2205              	.LEHB56:
 2206 013a E8000000 		call	_Unwind_Resume@PLT
 2206      00
 2207              	.LEHE56:
 2208              	.L135:
 2209 013f F30F1EFA 		endbr64
 2210 0143 4889C5   		movq	%rax, %rbp
 2211 0146 E8000000 		call	__cxa_end_catch@PLT
 2211      00
 2212 014b 4889EF   		movq	%rbp, %rdi
 2213              	.LEHB57:
 2214 014e E8000000 		call	_Unwind_Resume@PLT
 2214      00
 2215              	.LEHE57:
 2216              		.cfi_endproc
 2217              	.LFE1322:
 2218              		.section	.gcc_except_table
 2219              		.align 4
 2220              	.LLSDAC1322:
 2221 0070 FF       		.byte	0xff
 2222 0071 9B       		.byte	0x9b
 2223 0072 25       		.uleb128 .LLSDATTC1322-.LLSDATTDC1322
 2224              	.LLSDATTDC1322:
 2225 0073 01       		.byte	0x1
 2226 0074 1C       		.uleb128 .LLSDACSEC1322-.LLSDACSBC1322
 2227              	.LLSDACSBC1322:
 2228 0075 05       		.uleb128 .LEHB52-.LCOLDB11
 2229 0076 2F       		.uleb128 .LEHE52-.LEHB52
 2230 0077 8101     		.uleb128 .L137-.LCOLDB11
 2231 0079 00       		.uleb128 0
 2232 007a 34       		.uleb128 .LEHB53-.LCOLDB11
 2233 007b 05       		.uleb128 .LEHE53-.LEHB53
 2234 007c 00       		.uleb128 0
 2235 007d 00       		.uleb128 0
 2236 007e 43       		.uleb128 .LEHB54-.LCOLDB11
 2237 007f 34       		.uleb128 .LEHE54-.LEHB54
 2238 0080 9501     		.uleb128 .L135-.LCOLDB11
 2239 0082 00       		.uleb128 0
 2240 0083 77       		.uleb128 .LEHB55-.LCOLDB11
 2241 0084 05       		.uleb128 .LEHE55-.LEHB55
 2242 0085 00       		.uleb128 0
 2243 0086 00       		.uleb128 0
 2244 0087 9001     		.uleb128 .LEHB56-.LCOLDB11
 2245 0089 05       		.uleb128 .LEHE56-.LEHB56
 2246 008a 00       		.uleb128 0
 2247 008b 00       		.uleb128 0
 2248 008c A401     		.uleb128 .LEHB57-.LCOLDB11
 2249 008e 05       		.uleb128 .LEHE57-.LEHB57
 2250 008f 00       		.uleb128 0
 2251 0090 00       		.uleb128 0
 2252              	.LLSDACSEC1322:
 2253 0091 01       		.byte	0x1
 2254 0092 00       		.byte	0
 2255 0093 00       		.align 4
 2256 0094 00000000 		.long	0
 2257              	
 2258              	.LLSDATTC1322:
 2259              		.section	.text.unlikely
 2260              		.text
 2262              		.section	.text.unlikely
 2264              	.LCOLDE11:
 2265              		.text
 2266              	.LHOTE11:
 2267              		.section	.rodata.str1.1
 2268              	.LC12:
 2269 002a 3A30342E 		.string	":04..E10075820022F7\n"
 2269      2E453130 
 2269      30373538 
 2269      32303032 
 2269      3246370A 
 2270              		.section	.rodata.str1.8
 2271              		.align 8
 2272              	.LC13:
 2273 00b8 556E6861 		.string	"Unhandled exception in CHECK_EQUAL(HEX_JUNK_ADDR_MSB, status)"
 2273      6E646C65 
 2273      64206578 
 2273      63657074 
 2273      696F6E20 
 2274              		.section	.text.unlikely
 2275 0153 90       		.align 2
 2276              	.LCOLDB14:
 2277              		.text
 2278              	.LHOTB14:
 2279              		.align 2
 2280 023a 660F1F44 		.p2align 4
 2280      0000
 2281              		.globl	_ZNK25TestHexIO_testJunkAddrMsb7RunImplEv
 2283              	_ZNK25TestHexIO_testJunkAddrMsb7RunImplEv:
 2284              	.LFB1326:
 2285              		.cfi_startproc
 2286              		.cfi_personality 0x9b,DW.ref.__gxx_personality_v0
 2287              		.cfi_lsda 0x1b,.LLSDA1326
 2288 0240 F30F1EFA 		endbr64
 2289 0244 4155     		pushq	%r13
 2290              		.cfi_def_cfa_offset 16
 2291              		.cfi_offset 13, -16
 2292 0246 31C9     		xorl	%ecx, %ecx
 2293 0248 31D2     		xorl	%edx, %edx
 2294 024a BE000400 		movl	$1024, %esi
 2294      00
 2295 024f 4154     		pushq	%r12
 2296              		.cfi_def_cfa_offset 24
 2297              		.cfi_offset 12, -24
 2298 0251 55       		pushq	%rbp
 2299              		.cfi_def_cfa_offset 32
 2300              		.cfi_offset 6, -32
 2301 0252 4883EC60 		subq	$96, %rsp
 2302              		.cfi_def_cfa_offset 128
 2303 0256 64488B04 		movq	%fs:40, %rax
 2303      25280000 
 2303      00
 2304 025f 48894424 		movq	%rax, 88(%rsp)
 2304      58
 2305 0264 31C0     		xorl	%eax, %eax
 2306 0266 4C8D6424 		leaq	16(%rsp), %r12
 2306      10
 2307 026b C7442408 		movl	$0, 8(%rsp)
 2307      00000000 
 2308 0273 4C89E7   		movq	%r12, %rdi
 2309              	.LEHB58:
 2310 0276 E8000000 		call	bufInitialise@PLT
 2310      00
 2311              	.LEHE58:
 2312 027b 89442404 		movl	%eax, 4(%rsp)
 2313              	.LEHB59:
 2314 027f E8000000 		call	_ZN8UnitTest11CurrentTest7DetailsEv@PLT
 2314      00
 2315 0284 488D6C24 		leaq	48(%rsp), %rbp
 2315      30
 2316 0289 488B30   		movq	(%rax), %rsi
 2317 028c BA660000 		movl	$102, %edx
 2317      00
 2318 0291 4889EF   		movq	%rbp, %rdi
 2319 0294 E8000000 		call	_ZN8UnitTest11TestDetailsC1ERKS0_i@PLT
 2319      00
 2320 0299 C744240C 		movl	$0, 12(%rsp)
 2320      00000000 
 2321 02a1 E8000000 		call	_ZN8UnitTest11CurrentTest7ResultsEv@PLT
 2321      00
 2322 02a6 488B38   		movq	(%rax), %rdi
 2323 02a9 488D5424 		leaq	4(%rsp), %rdx
 2323      04
 2324 02ae 488D7424 		leaq	12(%rsp), %rsi
 2324      0C
 2325 02b3 4889E9   		movq	%rbp, %rcx
 2326 02b6 E8000000 		call	_ZN8UnitTest10CheckEqualI12BufferStatusS1_EEvRNS_11TestResultsERKT_RKT0_RKNS_11TestDetailsE
 2326      00
 2327              	.LEHE59:
 2328              	.L143:
 2329 02bb 4883EC08 		subq	$8, %rsp
 2330              		.cfi_def_cfa_offset 136
 2331 02bf 4C89E2   		movq	%r12, %rdx
 2332 02c2 31C9     		xorl	%ecx, %ecx
 2333 02c4 31F6     		xorl	%esi, %esi
 2334 02c6 6A00     		pushq	$0
 2335              		.cfi_def_cfa_offset 144
 2336 02c8 488D3D00 		leaq	.LC12(%rip), %rdi
 2336      000000
 2337 02cf 4C8D4C24 		leaq	19(%rsp), %r9
 2337      13
 2338 02d4 4C8D4424 		leaq	24(%rsp), %r8
 2338      18
 2339              	.LEHB60:
 2340 02d9 E8000000 		call	bufProcessLine@PLT
 2340      00
 2341              	.LEHE60:
 2342 02de 89442414 		movl	%eax, 20(%rsp)
 2343 02e2 58       		popq	%rax
 2344              		.cfi_def_cfa_offset 136
 2345 02e3 5A       		popq	%rdx
 2346              		.cfi_def_cfa_offset 128
 2347              	.LEHB61:
 2348 02e4 E8000000 		call	_ZN8UnitTest11CurrentTest7DetailsEv@PLT
 2348      00
 2349 02e9 488B30   		movq	(%rax), %rsi
 2350 02ec BA680000 		movl	$104, %edx
 2350      00
 2351 02f1 4889EF   		movq	%rbp, %rdi
 2352 02f4 E8000000 		call	_ZN8UnitTest11TestDetailsC1ERKS0_i@PLT
 2352      00
 2353 02f9 C744240C 		movl	$10, 12(%rsp)
 2353      0A000000 
 2354 0301 E8000000 		call	_ZN8UnitTest11CurrentTest7ResultsEv@PLT
 2354      00
 2355 0306 488B38   		movq	(%rax), %rdi
 2356 0309 488D5424 		leaq	4(%rsp), %rdx
 2356      04
 2357 030e 488D7424 		leaq	12(%rsp), %rsi
 2357      0C
 2358 0313 4889E9   		movq	%rbp, %rcx
 2359 0316 E8000000 		call	_ZN8UnitTest10CheckEqualI12BufferStatusS1_EEvRNS_11TestResultsERKT_RKT0_RKNS_11TestDetailsE
 2359      00
 2360              	.LEHE61:
 2361              	.L146:
 2362 031b 4C89E7   		movq	%r12, %rdi
 2363              	.LEHB62:
 2364 031e E8000000 		call	bufDestroy@PLT
 2364      00
 2365              	.LEHE62:
 2366 0323 488B4424 		movq	88(%rsp), %rax
 2366      58
 2367 0328 64482B04 		subq	%fs:40, %rax
 2367      25280000 
 2367      00
 2368 0331 750A     		jne	.L155
 2369 0333 4883C460 		addq	$96, %rsp
 2370              		.cfi_remember_state
 2371              		.cfi_def_cfa_offset 32
 2372 0337 5D       		popq	%rbp
 2373              		.cfi_def_cfa_offset 24
 2374 0338 415C     		popq	%r12
 2375              		.cfi_def_cfa_offset 16
 2376 033a 415D     		popq	%r13
 2377              		.cfi_def_cfa_offset 8
 2378 033c C3       		ret
 2379              	.L155:
 2380              		.cfi_restore_state
 2381 033d E8000000 		call	__stack_chk_fail@PLT
 2381      00
 2382              	.L151:
 2383 0342 F30F1EFA 		endbr64
 2384 0346 4889C7   		movq	%rax, %rdi
 2385 0349 E9000000 		jmp	.L145
 2385      00
 2386              	.L149:
 2387 034e F30F1EFA 		endbr64
 2388 0352 4889C7   		movq	%rax, %rdi
 2389 0355 E9000000 		jmp	.L142
 2389      00
 2390              		.section	.gcc_except_table
 2391              		.align 4
 2392              	.LLSDA1326:
 2393 0098 FF       		.byte	0xff
 2394 0099 9B       		.byte	0x9b
 2395 009a 21       		.uleb128 .LLSDATT1326-.LLSDATTD1326
 2396              	.LLSDATTD1326:
 2397 009b 01       		.byte	0x1
 2398 009c 19       		.uleb128 .LLSDACSE1326-.LLSDACSB1326
 2399              	.LLSDACSB1326:
 2400 009d 36       		.uleb128 .LEHB58-.LFB1326
 2401 009e 05       		.uleb128 .LEHE58-.LEHB58
 2402 009f 00       		.uleb128 0
 2403 00a0 00       		.uleb128 0
 2404 00a1 3F       		.uleb128 .LEHB59-.LFB1326
 2405 00a2 3C       		.uleb128 .LEHE59-.LEHB59
 2406 00a3 8E02     		.uleb128 .L149-.LFB1326
 2407 00a5 01       		.uleb128 0x1
 2408 00a6 9901     		.uleb128 .LEHB60-.LFB1326
 2409 00a8 05       		.uleb128 .LEHE60-.LEHB60
 2410 00a9 00       		.uleb128 0
 2411 00aa 00       		.uleb128 0
 2412 00ab A401     		.uleb128 .LEHB61-.LFB1326
 2413 00ad 37       		.uleb128 .LEHE61-.LEHB61
 2414 00ae 8202     		.uleb128 .L151-.LFB1326
 2415 00b0 01       		.uleb128 0x1
 2416 00b1 DE01     		.uleb128 .LEHB62-.LFB1326
 2417 00b3 05       		.uleb128 .LEHE62-.LEHB62
 2418 00b4 00       		.uleb128 0
 2419 00b5 00       		.uleb128 0
 2420              	.LLSDACSE1326:
 2421 00b6 01       		.byte	0x1
 2422 00b7 00       		.byte	0
 2423              		.align 4
 2424 00b8 00000000 		.long	0
 2425              	
 2426              	.LLSDATT1326:
 2427              		.text
 2428              		.cfi_endproc
 2429              		.section	.text.unlikely
 2430              		.cfi_startproc
 2431              		.cfi_personality 0x9b,DW.ref.__gxx_personality_v0
 2432              		.cfi_lsda 0x1b,.LLSDAC1326
 2434              	_ZNK25TestHexIO_testJunkAddrMsb7RunImplEv.cold:
 2435              	.LFSB1326:
 2436              	.L145:
 2437              		.cfi_def_cfa_offset 128
 2438              		.cfi_offset 6, -32
 2439              		.cfi_offset 12, -24
 2440              		.cfi_offset 13, -16
 2441 0154 E8000000 		call	__cxa_begin_catch@PLT
 2441      00
 2442              	.LEHB63:
 2443 0159 E8000000 		call	_ZN8UnitTest11CurrentTest7ResultsEv@PLT
 2443      00
 2444 015e 4C8B28   		movq	(%rax), %r13
 2445 0161 E8000000 		call	_ZN8UnitTest11CurrentTest7DetailsEv@PLT
 2445      00
 2446 0166 488B30   		movq	(%rax), %rsi
 2447 0169 BA680000 		movl	$104, %edx
 2447      00
 2448 016e 4889EF   		movq	%rbp, %rdi
 2449 0171 E8000000 		call	_ZN8UnitTest11TestDetailsC1ERKS0_i@PLT
 2449      00
 2450 0176 488D1500 		leaq	.LC13(%rip), %rdx
 2450      000000
 2451 017d 4889EE   		movq	%rbp, %rsi
 2452 0180 4C89EF   		movq	%r13, %rdi
 2453 0183 E8000000 		call	_ZN8UnitTest11TestResults13OnTestFailureERKNS_11TestDetailsEPKc@PLT
 2453      00
 2454              	.LEHE63:
 2455              	.LEHB64:
 2456 0188 E8000000 		call	__cxa_end_catch@PLT
 2456      00
 2457              	.LEHE64:
 2458 018d E9000000 		jmp	.L146
 2458      00
 2459              	.L142:
 2460 0192 E8000000 		call	__cxa_begin_catch@PLT
 2460      00
 2461              	.LEHB65:
 2462 0197 E8000000 		call	_ZN8UnitTest11CurrentTest7ResultsEv@PLT
 2462      00
 2463 019c 4C8B28   		movq	(%rax), %r13
 2464 019f E8000000 		call	_ZN8UnitTest11CurrentTest7DetailsEv@PLT
 2464      00
 2465 01a4 488D6C24 		leaq	48(%rsp), %rbp
 2465      30
 2466 01a9 488B30   		movq	(%rax), %rsi
 2467 01ac BA660000 		movl	$102, %edx
 2467      00
 2468 01b1 4889EF   		movq	%rbp, %rdi
 2469 01b4 E8000000 		call	_ZN8UnitTest11TestDetailsC1ERKS0_i@PLT
 2469      00
 2470 01b9 488D1500 		leaq	.LC6(%rip), %rdx
 2470      000000
 2471 01c0 4889EE   		movq	%rbp, %rsi
 2472 01c3 4C89EF   		movq	%r13, %rdi
 2473 01c6 E8000000 		call	_ZN8UnitTest11TestResults13OnTestFailureERKNS_11TestDetailsEPKc@PLT
 2473      00
 2474              	.LEHE65:
 2475              	.LEHB66:
 2476 01cb E8000000 		call	__cxa_end_catch@PLT
 2476      00
 2477              	.LEHE66:
 2478 01d0 E9000000 		jmp	.L143
 2478      00
 2479              	.L152:
 2480 01d5 F30F1EFA 		endbr64
 2481 01d9 4889C5   		movq	%rax, %rbp
 2482 01dc E8000000 		call	__cxa_end_catch@PLT
 2482      00
 2483 01e1 4889EF   		movq	%rbp, %rdi
 2484              	.LEHB67:
 2485 01e4 E8000000 		call	_Unwind_Resume@PLT
 2485      00
 2486              	.LEHE67:
 2487              	.L150:
 2488 01e9 F30F1EFA 		endbr64
 2489 01ed 4889C5   		movq	%rax, %rbp
 2490 01f0 E8000000 		call	__cxa_end_catch@PLT
 2490      00
 2491 01f5 4889EF   		movq	%rbp, %rdi
 2492              	.LEHB68:
 2493 01f8 E8000000 		call	_Unwind_Resume@PLT
 2493      00
 2494              	.LEHE68:
 2495              		.cfi_endproc
 2496              	.LFE1326:
 2497              		.section	.gcc_except_table
 2498              		.align 4
 2499              	.LLSDAC1326:
 2500 00bc FF       		.byte	0xff
 2501 00bd 9B       		.byte	0x9b
 2502 00be 25       		.uleb128 .LLSDATTC1326-.LLSDATTDC1326
 2503              	.LLSDATTDC1326:
 2504 00bf 01       		.byte	0x1
 2505 00c0 1C       		.uleb128 .LLSDACSEC1326-.LLSDACSBC1326
 2506              	.LLSDACSBC1326:
 2507 00c1 05       		.uleb128 .LEHB63-.LCOLDB14
 2508 00c2 2F       		.uleb128 .LEHE63-.LEHB63
 2509 00c3 8101     		.uleb128 .L152-.LCOLDB14
 2510 00c5 00       		.uleb128 0
 2511 00c6 34       		.uleb128 .LEHB64-.LCOLDB14
 2512 00c7 05       		.uleb128 .LEHE64-.LEHB64
 2513 00c8 00       		.uleb128 0
 2514 00c9 00       		.uleb128 0
 2515 00ca 43       		.uleb128 .LEHB65-.LCOLDB14
 2516 00cb 34       		.uleb128 .LEHE65-.LEHB65
 2517 00cc 9501     		.uleb128 .L150-.LCOLDB14
 2518 00ce 00       		.uleb128 0
 2519 00cf 77       		.uleb128 .LEHB66-.LCOLDB14
 2520 00d0 05       		.uleb128 .LEHE66-.LEHB66
 2521 00d1 00       		.uleb128 0
 2522 00d2 00       		.uleb128 0
 2523 00d3 9001     		.uleb128 .LEHB67-.LCOLDB14
 2524 00d5 05       		.uleb128 .LEHE67-.LEHB67
 2525 00d6 00       		.uleb128 0
 2526 00d7 00       		.uleb128 0
 2527 00d8 A401     		.uleb128 .LEHB68-.LCOLDB14
 2528 00da 05       		.uleb128 .LEHE68-.LEHB68
 2529 00db 00       		.uleb128 0
 2530 00dc 00       		.uleb128 0
 2531              	.LLSDACSEC1326:
 2532 00dd 01       		.byte	0x1
 2533 00de 00       		.byte	0
 2534 00df 00       		.align 4
 2535 00e0 00000000 		.long	0
 2536              	
 2537              	.LLSDATTC1326:
 2538              		.section	.text.unlikely
 2539              		.text
 2541              		.section	.text.unlikely
 2543              	.LCOLDE14:
 2544              		.text
 2545              	.LHOTE14:
 2546              		.section	.rodata.str1.1
 2547              	.LC15:
 2548 003f 3A303430 		.string	":040B..0075820022F7\n"
 2548      422E2E30 
 2548      30373538 
 2548      32303032 
 2548      3246370A 
 2549              		.section	.rodata.str1.8
 2550 00f6 0000     		.align 8
 2551              	.LC16:
 2552 00f8 556E6861 		.string	"Unhandled exception in CHECK_EQUAL(HEX_JUNK_ADDR_LSB, status)"
 2552      6E646C65 
 2552      64206578 
 2552      63657074 
 2552      696F6E20 
 2553              		.section	.text.unlikely
 2554 01fd 90       		.align 2
 2555              	.LCOLDB17:
 2556              		.text
 2557              	.LHOTB17:
 2558              		.align 2
 2559 035a 660F1F44 		.p2align 4
 2559      0000
 2560              		.globl	_ZNK25TestHexIO_testJunkAddrLsb7RunImplEv
 2562              	_ZNK25TestHexIO_testJunkAddrLsb7RunImplEv:
 2563              	.LFB1330:
 2564              		.cfi_startproc
 2565              		.cfi_personality 0x9b,DW.ref.__gxx_personality_v0
 2566              		.cfi_lsda 0x1b,.LLSDA1330
 2567 0360 F30F1EFA 		endbr64
 2568 0364 4155     		pushq	%r13
 2569              		.cfi_def_cfa_offset 16
 2570              		.cfi_offset 13, -16
 2571 0366 31C9     		xorl	%ecx, %ecx
 2572 0368 31D2     		xorl	%edx, %edx
 2573 036a BE000400 		movl	$1024, %esi
 2573      00
 2574 036f 4154     		pushq	%r12
 2575              		.cfi_def_cfa_offset 24
 2576              		.cfi_offset 12, -24
 2577 0371 55       		pushq	%rbp
 2578              		.cfi_def_cfa_offset 32
 2579              		.cfi_offset 6, -32
 2580 0372 4883EC60 		subq	$96, %rsp
 2581              		.cfi_def_cfa_offset 128
 2582 0376 64488B04 		movq	%fs:40, %rax
 2582      25280000 
 2582      00
 2583 037f 48894424 		movq	%rax, 88(%rsp)
 2583      58
 2584 0384 31C0     		xorl	%eax, %eax
 2585 0386 4C8D6424 		leaq	16(%rsp), %r12
 2585      10
 2586 038b C7442408 		movl	$0, 8(%rsp)
 2586      00000000 
 2587 0393 4C89E7   		movq	%r12, %rdi
 2588              	.LEHB69:
 2589 0396 E8000000 		call	bufInitialise@PLT
 2589      00
 2590              	.LEHE69:
 2591 039b 89442404 		movl	%eax, 4(%rsp)
 2592              	.LEHB70:
 2593 039f E8000000 		call	_ZN8UnitTest11CurrentTest7DetailsEv@PLT
 2593      00
 2594 03a4 488D6C24 		leaq	48(%rsp), %rbp
 2594      30
 2595 03a9 488B30   		movq	(%rax), %rsi
 2596 03ac BA730000 		movl	$115, %edx
 2596      00
 2597 03b1 4889EF   		movq	%rbp, %rdi
 2598 03b4 E8000000 		call	_ZN8UnitTest11TestDetailsC1ERKS0_i@PLT
 2598      00
 2599 03b9 C744240C 		movl	$0, 12(%rsp)
 2599      00000000 
 2600 03c1 E8000000 		call	_ZN8UnitTest11CurrentTest7ResultsEv@PLT
 2600      00
 2601 03c6 488B38   		movq	(%rax), %rdi
 2602 03c9 488D5424 		leaq	4(%rsp), %rdx
 2602      04
 2603 03ce 488D7424 		leaq	12(%rsp), %rsi
 2603      0C
 2604 03d3 4889E9   		movq	%rbp, %rcx
 2605 03d6 E8000000 		call	_ZN8UnitTest10CheckEqualI12BufferStatusS1_EEvRNS_11TestResultsERKT_RKT0_RKNS_11TestDetailsE
 2605      00
 2606              	.LEHE70:
 2607              	.L158:
 2608 03db 4883EC08 		subq	$8, %rsp
 2609              		.cfi_def_cfa_offset 136
 2610 03df 4C89E2   		movq	%r12, %rdx
 2611 03e2 31C9     		xorl	%ecx, %ecx
 2612 03e4 31F6     		xorl	%esi, %esi
 2613 03e6 6A00     		pushq	$0
 2614              		.cfi_def_cfa_offset 144
 2615 03e8 488D3D00 		leaq	.LC15(%rip), %rdi
 2615      000000
 2616 03ef 4C8D4C24 		leaq	19(%rsp), %r9
 2616      13
 2617 03f4 4C8D4424 		leaq	24(%rsp), %r8
 2617      18
 2618              	.LEHB71:
 2619 03f9 E8000000 		call	bufProcessLine@PLT
 2619      00
 2620              	.LEHE71:
 2621 03fe 89442414 		movl	%eax, 20(%rsp)
 2622 0402 58       		popq	%rax
 2623              		.cfi_def_cfa_offset 136
 2624 0403 5A       		popq	%rdx
 2625              		.cfi_def_cfa_offset 128
 2626              	.LEHB72:
 2627 0404 E8000000 		call	_ZN8UnitTest11CurrentTest7DetailsEv@PLT
 2627      00
 2628 0409 488B30   		movq	(%rax), %rsi
 2629 040c BA750000 		movl	$117, %edx
 2629      00
 2630 0411 4889EF   		movq	%rbp, %rdi
 2631 0414 E8000000 		call	_ZN8UnitTest11TestDetailsC1ERKS0_i@PLT
 2631      00
 2632 0419 C744240C 		movl	$11, 12(%rsp)
 2632      0B000000 
 2633 0421 E8000000 		call	_ZN8UnitTest11CurrentTest7ResultsEv@PLT
 2633      00
 2634 0426 488B38   		movq	(%rax), %rdi
 2635 0429 488D5424 		leaq	4(%rsp), %rdx
 2635      04
 2636 042e 488D7424 		leaq	12(%rsp), %rsi
 2636      0C
 2637 0433 4889E9   		movq	%rbp, %rcx
 2638 0436 E8000000 		call	_ZN8UnitTest10CheckEqualI12BufferStatusS1_EEvRNS_11TestResultsERKT_RKT0_RKNS_11TestDetailsE
 2638      00
 2639              	.LEHE72:
 2640              	.L161:
 2641 043b 4C89E7   		movq	%r12, %rdi
 2642              	.LEHB73:
 2643 043e E8000000 		call	bufDestroy@PLT
 2643      00
 2644              	.LEHE73:
 2645 0443 488B4424 		movq	88(%rsp), %rax
 2645      58
 2646 0448 64482B04 		subq	%fs:40, %rax
 2646      25280000 
 2646      00
 2647 0451 750A     		jne	.L170
 2648 0453 4883C460 		addq	$96, %rsp
 2649              		.cfi_remember_state
 2650              		.cfi_def_cfa_offset 32
 2651 0457 5D       		popq	%rbp
 2652              		.cfi_def_cfa_offset 24
 2653 0458 415C     		popq	%r12
 2654              		.cfi_def_cfa_offset 16
 2655 045a 415D     		popq	%r13
 2656              		.cfi_def_cfa_offset 8
 2657 045c C3       		ret
 2658              	.L170:
 2659              		.cfi_restore_state
 2660 045d E8000000 		call	__stack_chk_fail@PLT
 2660      00
 2661              	.L166:
 2662 0462 F30F1EFA 		endbr64
 2663 0466 4889C7   		movq	%rax, %rdi
 2664 0469 E9000000 		jmp	.L160
 2664      00
 2665              	.L164:
 2666 046e F30F1EFA 		endbr64
 2667 0472 4889C7   		movq	%rax, %rdi
 2668 0475 E9000000 		jmp	.L157
 2668      00
 2669              		.section	.gcc_except_table
 2670              		.align 4
 2671              	.LLSDA1330:
 2672 00e4 FF       		.byte	0xff
 2673 00e5 9B       		.byte	0x9b
 2674 00e6 21       		.uleb128 .LLSDATT1330-.LLSDATTD1330
 2675              	.LLSDATTD1330:
 2676 00e7 01       		.byte	0x1
 2677 00e8 19       		.uleb128 .LLSDACSE1330-.LLSDACSB1330
 2678              	.LLSDACSB1330:
 2679 00e9 36       		.uleb128 .LEHB69-.LFB1330
 2680 00ea 05       		.uleb128 .LEHE69-.LEHB69
 2681 00eb 00       		.uleb128 0
 2682 00ec 00       		.uleb128 0
 2683 00ed 3F       		.uleb128 .LEHB70-.LFB1330
 2684 00ee 3C       		.uleb128 .LEHE70-.LEHB70
 2685 00ef 8E02     		.uleb128 .L164-.LFB1330
 2686 00f1 01       		.uleb128 0x1
 2687 00f2 9901     		.uleb128 .LEHB71-.LFB1330
 2688 00f4 05       		.uleb128 .LEHE71-.LEHB71
 2689 00f5 00       		.uleb128 0
 2690 00f6 00       		.uleb128 0
 2691 00f7 A401     		.uleb128 .LEHB72-.LFB1330
 2692 00f9 37       		.uleb128 .LEHE72-.LEHB72
 2693 00fa 8202     		.uleb128 .L166-.LFB1330
 2694 00fc 01       		.uleb128 0x1
 2695 00fd DE01     		.uleb128 .LEHB73-.LFB1330
 2696 00ff 05       		.uleb128 .LEHE73-.LEHB73
 2697 0100 00       		.uleb128 0
 2698 0101 00       		.uleb128 0
 2699              	.LLSDACSE1330:
 2700 0102 01       		.byte	0x1
 2701 0103 00       		.byte	0
 2702              		.align 4
 2703 0104 00000000 		.long	0
 2704              	
 2705              	.LLSDATT1330:
 2706              		.text
 2707              		.cfi_endproc
 2708              		.section	.text.unlikely
 2709              		.cfi_startproc
 2710              		.cfi_personality 0x9b,DW.ref.__gxx_personality_v0
 2711              		.cfi_lsda 0x1b,.LLSDAC1330
 2713              	_ZNK25TestHexIO_testJunkAddrLsb7RunImplEv.cold:
 2714              	.LFSB1330:
 2715              	.L160:
 2716              		.cfi_def_cfa_offset 128
 2717              		.cfi_offset 6, -32
 2718              		.cfi_offset 12, -24
 2719              		.cfi_offset 13, -16
 2720 01fe E8000000 		call	__cxa_begin_catch@PLT
 2720      00
 2721              	.LEHB74:
 2722 0203 E8000000 		call	_ZN8UnitTest11CurrentTest7ResultsEv@PLT
 2722      00
 2723 0208 4C8B28   		movq	(%rax), %r13
 2724 020b E8000000 		call	_ZN8UnitTest11CurrentTest7DetailsEv@PLT
 2724      00
 2725 0210 488B30   		movq	(%rax), %rsi
 2726 0213 BA750000 		movl	$117, %edx
 2726      00
 2727 0218 4889EF   		movq	%rbp, %rdi
 2728 021b E8000000 		call	_ZN8UnitTest11TestDetailsC1ERKS0_i@PLT
 2728      00
 2729 0220 488D1500 		leaq	.LC16(%rip), %rdx
 2729      000000
 2730 0227 4889EE   		movq	%rbp, %rsi
 2731 022a 4C89EF   		movq	%r13, %rdi
 2732 022d E8000000 		call	_ZN8UnitTest11TestResults13OnTestFailureERKNS_11TestDetailsEPKc@PLT
 2732      00
 2733              	.LEHE74:
 2734              	.LEHB75:
 2735 0232 E8000000 		call	__cxa_end_catch@PLT
 2735      00
 2736              	.LEHE75:
 2737 0237 E9000000 		jmp	.L161
 2737      00
 2738              	.L157:
 2739 023c E8000000 		call	__cxa_begin_catch@PLT
 2739      00
 2740              	.LEHB76:
 2741 0241 E8000000 		call	_ZN8UnitTest11CurrentTest7ResultsEv@PLT
 2741      00
 2742 0246 4C8B28   		movq	(%rax), %r13
 2743 0249 E8000000 		call	_ZN8UnitTest11CurrentTest7DetailsEv@PLT
 2743      00
 2744 024e 488D6C24 		leaq	48(%rsp), %rbp
 2744      30
 2745 0253 488B30   		movq	(%rax), %rsi
 2746 0256 BA730000 		movl	$115, %edx
 2746      00
 2747 025b 4889EF   		movq	%rbp, %rdi
 2748 025e E8000000 		call	_ZN8UnitTest11TestDetailsC1ERKS0_i@PLT
 2748      00
 2749 0263 488D1500 		leaq	.LC6(%rip), %rdx
 2749      000000
 2750 026a 4889EE   		movq	%rbp, %rsi
 2751 026d 4C89EF   		movq	%r13, %rdi
 2752 0270 E8000000 		call	_ZN8UnitTest11TestResults13OnTestFailureERKNS_11TestDetailsEPKc@PLT
 2752      00
 2753              	.LEHE76:
 2754              	.LEHB77:
 2755 0275 E8000000 		call	__cxa_end_catch@PLT
 2755      00
 2756              	.LEHE77:
 2757 027a E9000000 		jmp	.L158
 2757      00
 2758              	.L167:
 2759 027f F30F1EFA 		endbr64
 2760 0283 4889C5   		movq	%rax, %rbp
 2761 0286 E8000000 		call	__cxa_end_catch@PLT
 2761      00
 2762 028b 4889EF   		movq	%rbp, %rdi
 2763              	.LEHB78:
 2764 028e E8000000 		call	_Unwind_Resume@PLT
 2764      00
 2765              	.LEHE78:
 2766              	.L165:
 2767 0293 F30F1EFA 		endbr64
 2768 0297 4889C5   		movq	%rax, %rbp
 2769 029a E8000000 		call	__cxa_end_catch@PLT
 2769      00
 2770 029f 4889EF   		movq	%rbp, %rdi
 2771              	.LEHB79:
 2772 02a2 E8000000 		call	_Unwind_Resume@PLT
 2772      00
 2773              	.LEHE79:
 2774              		.cfi_endproc
 2775              	.LFE1330:
 2776              		.section	.gcc_except_table
 2777              		.align 4
 2778              	.LLSDAC1330:
 2779 0108 FF       		.byte	0xff
 2780 0109 9B       		.byte	0x9b
 2781 010a 25       		.uleb128 .LLSDATTC1330-.LLSDATTDC1330
 2782              	.LLSDATTDC1330:
 2783 010b 01       		.byte	0x1
 2784 010c 1C       		.uleb128 .LLSDACSEC1330-.LLSDACSBC1330
 2785              	.LLSDACSBC1330:
 2786 010d 05       		.uleb128 .LEHB74-.LCOLDB17
 2787 010e 2F       		.uleb128 .LEHE74-.LEHB74
 2788 010f 8101     		.uleb128 .L167-.LCOLDB17
 2789 0111 00       		.uleb128 0
 2790 0112 34       		.uleb128 .LEHB75-.LCOLDB17
 2791 0113 05       		.uleb128 .LEHE75-.LEHB75
 2792 0114 00       		.uleb128 0
 2793 0115 00       		.uleb128 0
 2794 0116 43       		.uleb128 .LEHB76-.LCOLDB17
 2795 0117 34       		.uleb128 .LEHE76-.LEHB76
 2796 0118 9501     		.uleb128 .L165-.LCOLDB17
 2797 011a 00       		.uleb128 0
 2798 011b 77       		.uleb128 .LEHB77-.LCOLDB17
 2799 011c 05       		.uleb128 .LEHE77-.LEHB77
 2800 011d 00       		.uleb128 0
 2801 011e 00       		.uleb128 0
 2802 011f 9001     		.uleb128 .LEHB78-.LCOLDB17
 2803 0121 05       		.uleb128 .LEHE78-.LEHB78
 2804 0122 00       		.uleb128 0
 2805 0123 00       		.uleb128 0
 2806 0124 A401     		.uleb128 .LEHB79-.LCOLDB17
 2807 0126 05       		.uleb128 .LEHE79-.LEHB79
 2808 0127 00       		.uleb128 0
 2809 0128 00       		.uleb128 0
 2810              	.LLSDACSEC1330:
 2811 0129 01       		.byte	0x1
 2812 012a 00       		.byte	0
 2813 012b 00       		.align 4
 2814 012c 00000000 		.long	0
 2815              	
 2816              	.LLSDATTC1330:
 2817              		.section	.text.unlikely
 2818              		.text
 2820              		.section	.text.unlikely
 2822              	.LCOLDE17:
 2823              		.text
 2824              	.LHOTE17:
 2825              		.section	.rodata.str1.1
 2826              	.LC18:
 2827 0054 3A303430 		.string	":040BE1..75820022F7\n"
 2827      4245312E 
 2827      2E373538 
 2827      32303032 
 2827      3246370A 
 2828              		.section	.rodata.str1.8
 2829 0136 0000     		.align 8
 2830              	.LC19:
 2831 0138 556E6861 		.string	"Unhandled exception in CHECK_EQUAL(HEX_JUNK_REC_TYPE, status)"
 2831      6E646C65 
 2831      64206578 
 2831      63657074 
 2831      696F6E20 
 2832              		.section	.text.unlikely
 2833 02a7 90       		.align 2
 2834              	.LCOLDB20:
 2835              		.text
 2836              	.LHOTB20:
 2837              		.align 2
 2838 047a 660F1F44 		.p2align 4
 2838      0000
 2839              		.globl	_ZNK25TestHexIO_testJunkRecType7RunImplEv
 2841              	_ZNK25TestHexIO_testJunkRecType7RunImplEv:
 2842              	.LFB1334:
 2843              		.cfi_startproc
 2844              		.cfi_personality 0x9b,DW.ref.__gxx_personality_v0
 2845              		.cfi_lsda 0x1b,.LLSDA1334
 2846 0480 F30F1EFA 		endbr64
 2847 0484 4155     		pushq	%r13
 2848              		.cfi_def_cfa_offset 16
 2849              		.cfi_offset 13, -16
 2850 0486 31C9     		xorl	%ecx, %ecx
 2851 0488 31D2     		xorl	%edx, %edx
 2852 048a BE000400 		movl	$1024, %esi
 2852      00
 2853 048f 4154     		pushq	%r12
 2854              		.cfi_def_cfa_offset 24
 2855              		.cfi_offset 12, -24
 2856 0491 55       		pushq	%rbp
 2857              		.cfi_def_cfa_offset 32
 2858              		.cfi_offset 6, -32
 2859 0492 4883EC60 		subq	$96, %rsp
 2860              		.cfi_def_cfa_offset 128
 2861 0496 64488B04 		movq	%fs:40, %rax
 2861      25280000 
 2861      00
 2862 049f 48894424 		movq	%rax, 88(%rsp)
 2862      58
 2863 04a4 31C0     		xorl	%eax, %eax
 2864 04a6 4C8D6424 		leaq	16(%rsp), %r12
 2864      10
 2865 04ab C7442408 		movl	$0, 8(%rsp)
 2865      00000000 
 2866 04b3 4C89E7   		movq	%r12, %rdi
 2867              	.LEHB80:
 2868 04b6 E8000000 		call	bufInitialise@PLT
 2868      00
 2869              	.LEHE80:
 2870 04bb 89442404 		movl	%eax, 4(%rsp)
 2871              	.LEHB81:
 2872 04bf E8000000 		call	_ZN8UnitTest11CurrentTest7DetailsEv@PLT
 2872      00
 2873 04c4 488D6C24 		leaq	48(%rsp), %rbp
 2873      30
 2874 04c9 488B30   		movq	(%rax), %rsi
 2875 04cc BA800000 		movl	$128, %edx
 2875      00
 2876 04d1 4889EF   		movq	%rbp, %rdi
 2877 04d4 E8000000 		call	_ZN8UnitTest11TestDetailsC1ERKS0_i@PLT
 2877      00
 2878 04d9 C744240C 		movl	$0, 12(%rsp)
 2878      00000000 
 2879 04e1 E8000000 		call	_ZN8UnitTest11CurrentTest7ResultsEv@PLT
 2879      00
 2880 04e6 488B38   		movq	(%rax), %rdi
 2881 04e9 488D5424 		leaq	4(%rsp), %rdx
 2881      04
 2882 04ee 488D7424 		leaq	12(%rsp), %rsi
 2882      0C
 2883 04f3 4889E9   		movq	%rbp, %rcx
 2884 04f6 E8000000 		call	_ZN8UnitTest10CheckEqualI12BufferStatusS1_EEvRNS_11TestResultsERKT_RKT0_RKNS_11TestDetailsE
 2884      00
 2885              	.LEHE81:
 2886              	.L173:
 2887 04fb 4883EC08 		subq	$8, %rsp
 2888              		.cfi_def_cfa_offset 136
 2889 04ff 4C89E2   		movq	%r12, %rdx
 2890 0502 31C9     		xorl	%ecx, %ecx
 2891 0504 31F6     		xorl	%esi, %esi
 2892 0506 6A00     		pushq	$0
 2893              		.cfi_def_cfa_offset 144
 2894 0508 488D3D00 		leaq	.LC18(%rip), %rdi
 2894      000000
 2895 050f 4C8D4C24 		leaq	19(%rsp), %r9
 2895      13
 2896 0514 4C8D4424 		leaq	24(%rsp), %r8
 2896      18
 2897              	.LEHB82:
 2898 0519 E8000000 		call	bufProcessLine@PLT
 2898      00
 2899              	.LEHE82:
 2900 051e 89442414 		movl	%eax, 20(%rsp)
 2901 0522 58       		popq	%rax
 2902              		.cfi_def_cfa_offset 136
 2903 0523 5A       		popq	%rdx
 2904              		.cfi_def_cfa_offset 128
 2905              	.LEHB83:
 2906 0524 E8000000 		call	_ZN8UnitTest11CurrentTest7DetailsEv@PLT
 2906      00
 2907 0529 488B30   		movq	(%rax), %rsi
 2908 052c BA820000 		movl	$130, %edx
 2908      00
 2909 0531 4889EF   		movq	%rbp, %rdi
 2910 0534 E8000000 		call	_ZN8UnitTest11TestDetailsC1ERKS0_i@PLT
 2910      00
 2911 0539 C744240C 		movl	$12, 12(%rsp)
 2911      0C000000 
 2912 0541 E8000000 		call	_ZN8UnitTest11CurrentTest7ResultsEv@PLT
 2912      00
 2913 0546 488B38   		movq	(%rax), %rdi
 2914 0549 488D5424 		leaq	4(%rsp), %rdx
 2914      04
 2915 054e 488D7424 		leaq	12(%rsp), %rsi
 2915      0C
 2916 0553 4889E9   		movq	%rbp, %rcx
 2917 0556 E8000000 		call	_ZN8UnitTest10CheckEqualI12BufferStatusS1_EEvRNS_11TestResultsERKT_RKT0_RKNS_11TestDetailsE
 2917      00
 2918              	.LEHE83:
 2919              	.L176:
 2920 055b 4C89E7   		movq	%r12, %rdi
 2921              	.LEHB84:
 2922 055e E8000000 		call	bufDestroy@PLT
 2922      00
 2923              	.LEHE84:
 2924 0563 488B4424 		movq	88(%rsp), %rax
 2924      58
 2925 0568 64482B04 		subq	%fs:40, %rax
 2925      25280000 
 2925      00
 2926 0571 750A     		jne	.L185
 2927 0573 4883C460 		addq	$96, %rsp
 2928              		.cfi_remember_state
 2929              		.cfi_def_cfa_offset 32
 2930 0577 5D       		popq	%rbp
 2931              		.cfi_def_cfa_offset 24
 2932 0578 415C     		popq	%r12
 2933              		.cfi_def_cfa_offset 16
 2934 057a 415D     		popq	%r13
 2935              		.cfi_def_cfa_offset 8
 2936 057c C3       		ret
 2937              	.L185:
 2938              		.cfi_restore_state
 2939 057d E8000000 		call	__stack_chk_fail@PLT
 2939      00
 2940              	.L181:
 2941 0582 F30F1EFA 		endbr64
 2942 0586 4889C7   		movq	%rax, %rdi
 2943 0589 E9000000 		jmp	.L175
 2943      00
 2944              	.L179:
 2945 058e F30F1EFA 		endbr64
 2946 0592 4889C7   		movq	%rax, %rdi
 2947 0595 E9000000 		jmp	.L172
 2947      00
 2948              		.section	.gcc_except_table
 2949              		.align 4
 2950              	.LLSDA1334:
 2951 0130 FF       		.byte	0xff
 2952 0131 9B       		.byte	0x9b
 2953 0132 21       		.uleb128 .LLSDATT1334-.LLSDATTD1334
 2954              	.LLSDATTD1334:
 2955 0133 01       		.byte	0x1
 2956 0134 19       		.uleb128 .LLSDACSE1334-.LLSDACSB1334
 2957              	.LLSDACSB1334:
 2958 0135 36       		.uleb128 .LEHB80-.LFB1334
 2959 0136 05       		.uleb128 .LEHE80-.LEHB80
 2960 0137 00       		.uleb128 0
 2961 0138 00       		.uleb128 0
 2962 0139 3F       		.uleb128 .LEHB81-.LFB1334
 2963 013a 3C       		.uleb128 .LEHE81-.LEHB81
 2964 013b 8E02     		.uleb128 .L179-.LFB1334
 2965 013d 01       		.uleb128 0x1
 2966 013e 9901     		.uleb128 .LEHB82-.LFB1334
 2967 0140 05       		.uleb128 .LEHE82-.LEHB82
 2968 0141 00       		.uleb128 0
 2969 0142 00       		.uleb128 0
 2970 0143 A401     		.uleb128 .LEHB83-.LFB1334
 2971 0145 37       		.uleb128 .LEHE83-.LEHB83
 2972 0146 8202     		.uleb128 .L181-.LFB1334
 2973 0148 01       		.uleb128 0x1
 2974 0149 DE01     		.uleb128 .LEHB84-.LFB1334
 2975 014b 05       		.uleb128 .LEHE84-.LEHB84
 2976 014c 00       		.uleb128 0
 2977 014d 00       		.uleb128 0
 2978              	.LLSDACSE1334:
 2979 014e 01       		.byte	0x1
 2980 014f 00       		.byte	0
 2981              		.align 4
 2982 0150 00000000 		.long	0
 2983              	
 2984              	.LLSDATT1334:
 2985              		.text
 2986              		.cfi_endproc
 2987              		.section	.text.unlikely
 2988              		.cfi_startproc
 2989              		.cfi_personality 0x9b,DW.ref.__gxx_personality_v0
 2990              		.cfi_lsda 0x1b,.LLSDAC1334
 2992              	_ZNK25TestHexIO_testJunkRecType7RunImplEv.cold:
 2993              	.LFSB1334:
 2994              	.L175:
 2995              		.cfi_def_cfa_offset 128
 2996              		.cfi_offset 6, -32
 2997              		.cfi_offset 12, -24
 2998              		.cfi_offset 13, -16
 2999 02a8 E8000000 		call	__cxa_begin_catch@PLT
 2999      00
 3000              	.LEHB85:
 3001 02ad E8000000 		call	_ZN8UnitTest11CurrentTest7ResultsEv@PLT
 3001      00
 3002 02b2 4C8B28   		movq	(%rax), %r13
 3003 02b5 E8000000 		call	_ZN8UnitTest11CurrentTest7DetailsEv@PLT
 3003      00
 3004 02ba 488B30   		movq	(%rax), %rsi
 3005 02bd BA820000 		movl	$130, %edx
 3005      00
 3006 02c2 4889EF   		movq	%rbp, %rdi
 3007 02c5 E8000000 		call	_ZN8UnitTest11TestDetailsC1ERKS0_i@PLT
 3007      00
 3008 02ca 488D1500 		leaq	.LC19(%rip), %rdx
 3008      000000
 3009 02d1 4889EE   		movq	%rbp, %rsi
 3010 02d4 4C89EF   		movq	%r13, %rdi
 3011 02d7 E8000000 		call	_ZN8UnitTest11TestResults13OnTestFailureERKNS_11TestDetailsEPKc@PLT
 3011      00
 3012              	.LEHE85:
 3013              	.LEHB86:
 3014 02dc E8000000 		call	__cxa_end_catch@PLT
 3014      00
 3015              	.LEHE86:
 3016 02e1 E9000000 		jmp	.L176
 3016      00
 3017              	.L172:
 3018 02e6 E8000000 		call	__cxa_begin_catch@PLT
 3018      00
 3019              	.LEHB87:
 3020 02eb E8000000 		call	_ZN8UnitTest11CurrentTest7ResultsEv@PLT
 3020      00
 3021 02f0 4C8B28   		movq	(%rax), %r13
 3022 02f3 E8000000 		call	_ZN8UnitTest11CurrentTest7DetailsEv@PLT
 3022      00
 3023 02f8 488D6C24 		leaq	48(%rsp), %rbp
 3023      30
 3024 02fd 488B30   		movq	(%rax), %rsi
 3025 0300 BA800000 		movl	$128, %edx
 3025      00
 3026 0305 4889EF   		movq	%rbp, %rdi
 3027 0308 E8000000 		call	_ZN8UnitTest11TestDetailsC1ERKS0_i@PLT
 3027      00
 3028 030d 488D1500 		leaq	.LC6(%rip), %rdx
 3028      000000
 3029 0314 4889EE   		movq	%rbp, %rsi
 3030 0317 4C89EF   		movq	%r13, %rdi
 3031 031a E8000000 		call	_ZN8UnitTest11TestResults13OnTestFailureERKNS_11TestDetailsEPKc@PLT
 3031      00
 3032              	.LEHE87:
 3033              	.LEHB88:
 3034 031f E8000000 		call	__cxa_end_catch@PLT
 3034      00
 3035              	.LEHE88:
 3036 0324 E9000000 		jmp	.L173
 3036      00
 3037              	.L182:
 3038 0329 F30F1EFA 		endbr64
 3039 032d 4889C5   		movq	%rax, %rbp
 3040 0330 E8000000 		call	__cxa_end_catch@PLT
 3040      00
 3041 0335 4889EF   		movq	%rbp, %rdi
 3042              	.LEHB89:
 3043 0338 E8000000 		call	_Unwind_Resume@PLT
 3043      00
 3044              	.LEHE89:
 3045              	.L180:
 3046 033d F30F1EFA 		endbr64
 3047 0341 4889C5   		movq	%rax, %rbp
 3048 0344 E8000000 		call	__cxa_end_catch@PLT
 3048      00
 3049 0349 4889EF   		movq	%rbp, %rdi
 3050              	.LEHB90:
 3051 034c E8000000 		call	_Unwind_Resume@PLT
 3051      00
 3052              	.LEHE90:
 3053              		.cfi_endproc
 3054              	.LFE1334:
 3055              		.section	.gcc_except_table
 3056              		.align 4
 3057              	.LLSDAC1334:
 3058 0154 FF       		.byte	0xff
 3059 0155 9B       		.byte	0x9b
 3060 0156 25       		.uleb128 .LLSDATTC1334-.LLSDATTDC1334
 3061              	.LLSDATTDC1334:
 3062 0157 01       		.byte	0x1
 3063 0158 1C       		.uleb128 .LLSDACSEC1334-.LLSDACSBC1334
 3064              	.LLSDACSBC1334:
 3065 0159 05       		.uleb128 .LEHB85-.LCOLDB20
 3066 015a 2F       		.uleb128 .LEHE85-.LEHB85
 3067 015b 8101     		.uleb128 .L182-.LCOLDB20
 3068 015d 00       		.uleb128 0
 3069 015e 34       		.uleb128 .LEHB86-.LCOLDB20
 3070 015f 05       		.uleb128 .LEHE86-.LEHB86
 3071 0160 00       		.uleb128 0
 3072 0161 00       		.uleb128 0
 3073 0162 43       		.uleb128 .LEHB87-.LCOLDB20
 3074 0163 34       		.uleb128 .LEHE87-.LEHB87
 3075 0164 9501     		.uleb128 .L180-.LCOLDB20
 3076 0166 00       		.uleb128 0
 3077 0167 77       		.uleb128 .LEHB88-.LCOLDB20
 3078 0168 05       		.uleb128 .LEHE88-.LEHB88
 3079 0169 00       		.uleb128 0
 3080 016a 00       		.uleb128 0
 3081 016b 9001     		.uleb128 .LEHB89-.LCOLDB20
 3082 016d 05       		.uleb128 .LEHE89-.LEHB89
 3083 016e 00       		.uleb128 0
 3084 016f 00       		.uleb128 0
 3085 0170 A401     		.uleb128 .LEHB90-.LCOLDB20
 3086 0172 05       		.uleb128 .LEHE90-.LEHB90
 3087 0173 00       		.uleb128 0
 3088 0174 00       		.uleb128 0
 3089              	.LLSDACSEC1334:
 3090 0175 01       		.byte	0x1
 3091 0176 00       		.byte	0
 3092 0177 00       		.align 4
 3093 0178 00000000 		.long	0
 3094              	
 3095              	.LLSDATTC1334:
 3096              		.section	.text.unlikely
 3097              		.text
 3099              		.section	.text.unlikely
 3101              	.LCOLDE20:
 3102              		.text
 3103              	.LHOTE20:
 3104              		.section	.rodata.str1.1
 3105              	.LC21:
 3106 0069 3A303430 		.string	":040BE100..820022F7\n"
 3106      42453130 
 3106      302E2E38 
 3106      32303032 
 3106      3246370A 
 3107              		.section	.rodata.str1.8
 3108 0176 0000     		.align 8
 3109              	.LC22:
 3110 0178 556E6861 		.string	"Unhandled exception in CHECK_EQUAL(HEX_JUNK_DATA_BYTE, status)"
 3110      6E646C65 
 3110      64206578 
 3110      63657074 
 3110      696F6E20 
 3111              		.section	.text.unlikely
 3112 0351 90       		.align 2
 3113              	.LCOLDB23:
 3114              		.text
 3115              	.LHOTB23:
 3116              		.align 2
 3117 059a 660F1F44 		.p2align 4
 3117      0000
 3118              		.globl	_ZNK26TestHexIO_testJunkDataByte7RunImplEv
 3120              	_ZNK26TestHexIO_testJunkDataByte7RunImplEv:
 3121              	.LFB1338:
 3122              		.cfi_startproc
 3123              		.cfi_personality 0x9b,DW.ref.__gxx_personality_v0
 3124              		.cfi_lsda 0x1b,.LLSDA1338
 3125 05a0 F30F1EFA 		endbr64
 3126 05a4 4155     		pushq	%r13
 3127              		.cfi_def_cfa_offset 16
 3128              		.cfi_offset 13, -16
 3129 05a6 31C9     		xorl	%ecx, %ecx
 3130 05a8 31D2     		xorl	%edx, %edx
 3131 05aa BE000400 		movl	$1024, %esi
 3131      00
 3132 05af 4154     		pushq	%r12
 3133              		.cfi_def_cfa_offset 24
 3134              		.cfi_offset 12, -24
 3135 05b1 55       		pushq	%rbp
 3136              		.cfi_def_cfa_offset 32
 3137              		.cfi_offset 6, -32
 3138 05b2 4883EC60 		subq	$96, %rsp
 3139              		.cfi_def_cfa_offset 128
 3140 05b6 64488B04 		movq	%fs:40, %rax
 3140      25280000 
 3140      00
 3141 05bf 48894424 		movq	%rax, 88(%rsp)
 3141      58
 3142 05c4 31C0     		xorl	%eax, %eax
 3143 05c6 4C8D6424 		leaq	16(%rsp), %r12
 3143      10
 3144 05cb C7442408 		movl	$0, 8(%rsp)
 3144      00000000 
 3145 05d3 4C89E7   		movq	%r12, %rdi
 3146              	.LEHB91:
 3147 05d6 E8000000 		call	bufInitialise@PLT
 3147      00
 3148              	.LEHE91:
 3149 05db 89442404 		movl	%eax, 4(%rsp)
 3150              	.LEHB92:
 3151 05df E8000000 		call	_ZN8UnitTest11CurrentTest7DetailsEv@PLT
 3151      00
 3152 05e4 488D6C24 		leaq	48(%rsp), %rbp
 3152      30
 3153 05e9 488B30   		movq	(%rax), %rsi
 3154 05ec BA8D0000 		movl	$141, %edx
 3154      00
 3155 05f1 4889EF   		movq	%rbp, %rdi
 3156 05f4 E8000000 		call	_ZN8UnitTest11TestDetailsC1ERKS0_i@PLT
 3156      00
 3157 05f9 C744240C 		movl	$0, 12(%rsp)
 3157      00000000 
 3158 0601 E8000000 		call	_ZN8UnitTest11CurrentTest7ResultsEv@PLT
 3158      00
 3159 0606 488B38   		movq	(%rax), %rdi
 3160 0609 488D5424 		leaq	4(%rsp), %rdx
 3160      04
 3161 060e 488D7424 		leaq	12(%rsp), %rsi
 3161      0C
 3162 0613 4889E9   		movq	%rbp, %rcx
 3163 0616 E8000000 		call	_ZN8UnitTest10CheckEqualI12BufferStatusS1_EEvRNS_11TestResultsERKT_RKT0_RKNS_11TestDetailsE
 3163      00
 3164              	.LEHE92:
 3165              	.L188:
 3166 061b 4883EC08 		subq	$8, %rsp
 3167              		.cfi_def_cfa_offset 136
 3168 061f 4C89E2   		movq	%r12, %rdx
 3169 0622 31C9     		xorl	%ecx, %ecx
 3170 0624 31F6     		xorl	%esi, %esi
 3171 0626 6A00     		pushq	$0
 3172              		.cfi_def_cfa_offset 144
 3173 0628 488D3D00 		leaq	.LC21(%rip), %rdi
 3173      000000
 3174 062f 4C8D4C24 		leaq	19(%rsp), %r9
 3174      13
 3175 0634 4C8D4424 		leaq	24(%rsp), %r8
 3175      18
 3176              	.LEHB93:
 3177 0639 E8000000 		call	bufProcessLine@PLT
 3177      00
 3178              	.LEHE93:
 3179 063e 89442414 		movl	%eax, 20(%rsp)
 3180 0642 58       		popq	%rax
 3181              		.cfi_def_cfa_offset 136
 3182 0643 5A       		popq	%rdx
 3183              		.cfi_def_cfa_offset 128
 3184              	.LEHB94:
 3185 0644 E8000000 		call	_ZN8UnitTest11CurrentTest7DetailsEv@PLT
 3185      00
 3186 0649 488B30   		movq	(%rax), %rsi
 3187 064c BA8F0000 		movl	$143, %edx
 3187      00
 3188 0651 4889EF   		movq	%rbp, %rdi
 3189 0654 E8000000 		call	_ZN8UnitTest11TestDetailsC1ERKS0_i@PLT
 3189      00
 3190 0659 C744240C 		movl	$14, 12(%rsp)
 3190      0E000000 
 3191 0661 E8000000 		call	_ZN8UnitTest11CurrentTest7ResultsEv@PLT
 3191      00
 3192 0666 488B38   		movq	(%rax), %rdi
 3193 0669 488D5424 		leaq	4(%rsp), %rdx
 3193      04
 3194 066e 488D7424 		leaq	12(%rsp), %rsi
 3194      0C
 3195 0673 4889E9   		movq	%rbp, %rcx
 3196 0676 E8000000 		call	_ZN8UnitTest10CheckEqualI12BufferStatusS1_EEvRNS_11TestResultsERKT_RKT0_RKNS_11TestDetailsE
 3196      00
 3197              	.LEHE94:
 3198              	.L191:
 3199 067b 4C89E7   		movq	%r12, %rdi
 3200              	.LEHB95:
 3201 067e E8000000 		call	bufDestroy@PLT
 3201      00
 3202              	.LEHE95:
 3203 0683 488B4424 		movq	88(%rsp), %rax
 3203      58
 3204 0688 64482B04 		subq	%fs:40, %rax
 3204      25280000 
 3204      00
 3205 0691 750A     		jne	.L200
 3206 0693 4883C460 		addq	$96, %rsp
 3207              		.cfi_remember_state
 3208              		.cfi_def_cfa_offset 32
 3209 0697 5D       		popq	%rbp
 3210              		.cfi_def_cfa_offset 24
 3211 0698 415C     		popq	%r12
 3212              		.cfi_def_cfa_offset 16
 3213 069a 415D     		popq	%r13
 3214              		.cfi_def_cfa_offset 8
 3215 069c C3       		ret
 3216              	.L200:
 3217              		.cfi_restore_state
 3218 069d E8000000 		call	__stack_chk_fail@PLT
 3218      00
 3219              	.L196:
 3220 06a2 F30F1EFA 		endbr64
 3221 06a6 4889C7   		movq	%rax, %rdi
 3222 06a9 E9000000 		jmp	.L190
 3222      00
 3223              	.L194:
 3224 06ae F30F1EFA 		endbr64
 3225 06b2 4889C7   		movq	%rax, %rdi
 3226 06b5 E9000000 		jmp	.L187
 3226      00
 3227              		.section	.gcc_except_table
 3228              		.align 4
 3229              	.LLSDA1338:
 3230 017c FF       		.byte	0xff
 3231 017d 9B       		.byte	0x9b
 3232 017e 21       		.uleb128 .LLSDATT1338-.LLSDATTD1338
 3233              	.LLSDATTD1338:
 3234 017f 01       		.byte	0x1
 3235 0180 19       		.uleb128 .LLSDACSE1338-.LLSDACSB1338
 3236              	.LLSDACSB1338:
 3237 0181 36       		.uleb128 .LEHB91-.LFB1338
 3238 0182 05       		.uleb128 .LEHE91-.LEHB91
 3239 0183 00       		.uleb128 0
 3240 0184 00       		.uleb128 0
 3241 0185 3F       		.uleb128 .LEHB92-.LFB1338
 3242 0186 3C       		.uleb128 .LEHE92-.LEHB92
 3243 0187 8E02     		.uleb128 .L194-.LFB1338
 3244 0189 01       		.uleb128 0x1
 3245 018a 9901     		.uleb128 .LEHB93-.LFB1338
 3246 018c 05       		.uleb128 .LEHE93-.LEHB93
 3247 018d 00       		.uleb128 0
 3248 018e 00       		.uleb128 0
 3249 018f A401     		.uleb128 .LEHB94-.LFB1338
 3250 0191 37       		.uleb128 .LEHE94-.LEHB94
 3251 0192 8202     		.uleb128 .L196-.LFB1338
 3252 0194 01       		.uleb128 0x1
 3253 0195 DE01     		.uleb128 .LEHB95-.LFB1338
 3254 0197 05       		.uleb128 .LEHE95-.LEHB95
 3255 0198 00       		.uleb128 0
 3256 0199 00       		.uleb128 0
 3257              	.LLSDACSE1338:
 3258 019a 01       		.byte	0x1
 3259 019b 00       		.byte	0
 3260              		.align 4
 3261 019c 00000000 		.long	0
 3262              	
 3263              	.LLSDATT1338:
 3264              		.text
 3265              		.cfi_endproc
 3266              		.section	.text.unlikely
 3267              		.cfi_startproc
 3268              		.cfi_personality 0x9b,DW.ref.__gxx_personality_v0
 3269              		.cfi_lsda 0x1b,.LLSDAC1338
 3271              	_ZNK26TestHexIO_testJunkDataByte7RunImplEv.cold:
 3272              	.LFSB1338:
 3273              	.L190:
 3274              		.cfi_def_cfa_offset 128
 3275              		.cfi_offset 6, -32
 3276              		.cfi_offset 12, -24
 3277              		.cfi_offset 13, -16
 3278 0352 E8000000 		call	__cxa_begin_catch@PLT
 3278      00
 3279              	.LEHB96:
 3280 0357 E8000000 		call	_ZN8UnitTest11CurrentTest7ResultsEv@PLT
 3280      00
 3281 035c 4C8B28   		movq	(%rax), %r13
 3282 035f E8000000 		call	_ZN8UnitTest11CurrentTest7DetailsEv@PLT
 3282      00
 3283 0364 488B30   		movq	(%rax), %rsi
 3284 0367 BA8F0000 		movl	$143, %edx
 3284      00
 3285 036c 4889EF   		movq	%rbp, %rdi
 3286 036f E8000000 		call	_ZN8UnitTest11TestDetailsC1ERKS0_i@PLT
 3286      00
 3287 0374 488D1500 		leaq	.LC22(%rip), %rdx
 3287      000000
 3288 037b 4889EE   		movq	%rbp, %rsi
 3289 037e 4C89EF   		movq	%r13, %rdi
 3290 0381 E8000000 		call	_ZN8UnitTest11TestResults13OnTestFailureERKNS_11TestDetailsEPKc@PLT
 3290      00
 3291              	.LEHE96:
 3292              	.LEHB97:
 3293 0386 E8000000 		call	__cxa_end_catch@PLT
 3293      00
 3294              	.LEHE97:
 3295 038b E9000000 		jmp	.L191
 3295      00
 3296              	.L187:
 3297 0390 E8000000 		call	__cxa_begin_catch@PLT
 3297      00
 3298              	.LEHB98:
 3299 0395 E8000000 		call	_ZN8UnitTest11CurrentTest7ResultsEv@PLT
 3299      00
 3300 039a 4C8B28   		movq	(%rax), %r13
 3301 039d E8000000 		call	_ZN8UnitTest11CurrentTest7DetailsEv@PLT
 3301      00
 3302 03a2 488D6C24 		leaq	48(%rsp), %rbp
 3302      30
 3303 03a7 488B30   		movq	(%rax), %rsi
 3304 03aa BA8D0000 		movl	$141, %edx
 3304      00
 3305 03af 4889EF   		movq	%rbp, %rdi
 3306 03b2 E8000000 		call	_ZN8UnitTest11TestDetailsC1ERKS0_i@PLT
 3306      00
 3307 03b7 488D1500 		leaq	.LC6(%rip), %rdx
 3307      000000
 3308 03be 4889EE   		movq	%rbp, %rsi
 3309 03c1 4C89EF   		movq	%r13, %rdi
 3310 03c4 E8000000 		call	_ZN8UnitTest11TestResults13OnTestFailureERKNS_11TestDetailsEPKc@PLT
 3310      00
 3311              	.LEHE98:
 3312              	.LEHB99:
 3313 03c9 E8000000 		call	__cxa_end_catch@PLT
 3313      00
 3314              	.LEHE99:
 3315 03ce E9000000 		jmp	.L188
 3315      00
 3316              	.L197:
 3317 03d3 F30F1EFA 		endbr64
 3318 03d7 4889C5   		movq	%rax, %rbp
 3319 03da E8000000 		call	__cxa_end_catch@PLT
 3319      00
 3320 03df 4889EF   		movq	%rbp, %rdi
 3321              	.LEHB100:
 3322 03e2 E8000000 		call	_Unwind_Resume@PLT
 3322      00
 3323              	.LEHE100:
 3324              	.L195:
 3325 03e7 F30F1EFA 		endbr64
 3326 03eb 4889C5   		movq	%rax, %rbp
 3327 03ee E8000000 		call	__cxa_end_catch@PLT
 3327      00
 3328 03f3 4889EF   		movq	%rbp, %rdi
 3329              	.LEHB101:
 3330 03f6 E8000000 		call	_Unwind_Resume@PLT
 3330      00
 3331              	.LEHE101:
 3332              		.cfi_endproc
 3333              	.LFE1338:
 3334              		.section	.gcc_except_table
 3335              		.align 4
 3336              	.LLSDAC1338:
 3337 01a0 FF       		.byte	0xff
 3338 01a1 9B       		.byte	0x9b
 3339 01a2 25       		.uleb128 .LLSDATTC1338-.LLSDATTDC1338
 3340              	.LLSDATTDC1338:
 3341 01a3 01       		.byte	0x1
 3342 01a4 1C       		.uleb128 .LLSDACSEC1338-.LLSDACSBC1338
 3343              	.LLSDACSBC1338:
 3344 01a5 05       		.uleb128 .LEHB96-.LCOLDB23
 3345 01a6 2F       		.uleb128 .LEHE96-.LEHB96
 3346 01a7 8101     		.uleb128 .L197-.LCOLDB23
 3347 01a9 00       		.uleb128 0
 3348 01aa 34       		.uleb128 .LEHB97-.LCOLDB23
 3349 01ab 05       		.uleb128 .LEHE97-.LEHB97
 3350 01ac 00       		.uleb128 0
 3351 01ad 00       		.uleb128 0
 3352 01ae 43       		.uleb128 .LEHB98-.LCOLDB23
 3353 01af 34       		.uleb128 .LEHE98-.LEHB98
 3354 01b0 9501     		.uleb128 .L195-.LCOLDB23
 3355 01b2 00       		.uleb128 0
 3356 01b3 77       		.uleb128 .LEHB99-.LCOLDB23
 3357 01b4 05       		.uleb128 .LEHE99-.LEHB99
 3358 01b5 00       		.uleb128 0
 3359 01b6 00       		.uleb128 0
 3360 01b7 9001     		.uleb128 .LEHB100-.LCOLDB23
 3361 01b9 05       		.uleb128 .LEHE100-.LEHB100
 3362 01ba 00       		.uleb128 0
 3363 01bb 00       		.uleb128 0
 3364 01bc A401     		.uleb128 .LEHB101-.LCOLDB23
 3365 01be 05       		.uleb128 .LEHE101-.LEHB101
 3366 01bf 00       		.uleb128 0
 3367 01c0 00       		.uleb128 0
 3368              	.LLSDACSEC1338:
 3369 01c1 01       		.byte	0x1
 3370 01c2 00       		.byte	0
 3371 01c3 00       		.align 4
 3372 01c4 00000000 		.long	0
 3373              	
 3374              	.LLSDATTC1338:
 3375              		.section	.text.unlikely
 3376              		.text
 3378              		.section	.text.unlikely
 3380              	.LCOLDE23:
 3381              		.text
 3382              	.LHOTE23:
 3383              		.section	.rodata.str1.1
 3384              	.LC24:
 3385 007e 3A303430 		.string	":040BE10075820022..\n"
 3385      42453130 
 3385      30373538 
 3385      32303032 
 3385      322E2E0A 
 3386              		.section	.rodata.str1.8
 3387 01b7 00       		.align 8
 3388              	.LC25:
 3389 01b8 556E6861 		.string	"Unhandled exception in CHECK_EQUAL(HEX_JUNK_CHECKSUM, status)"
 3389      6E646C65 
 3389      64206578 
 3389      63657074 
 3389      696F6E20 
 3390              		.section	.text.unlikely
 3391 03fb 90       		.align 2
 3392              	.LCOLDB26:
 3393              		.text
 3394              	.LHOTB26:
 3395              		.align 2
 3396 06ba 660F1F44 		.p2align 4
 3396      0000
 3397              		.globl	_ZNK26TestHexIO_testJunkChecksum7RunImplEv
 3399              	_ZNK26TestHexIO_testJunkChecksum7RunImplEv:
 3400              	.LFB1342:
 3401              		.cfi_startproc
 3402              		.cfi_personality 0x9b,DW.ref.__gxx_personality_v0
 3403              		.cfi_lsda 0x1b,.LLSDA1342
 3404 06c0 F30F1EFA 		endbr64
 3405 06c4 4155     		pushq	%r13
 3406              		.cfi_def_cfa_offset 16
 3407              		.cfi_offset 13, -16
 3408 06c6 31C9     		xorl	%ecx, %ecx
 3409 06c8 31D2     		xorl	%edx, %edx
 3410 06ca BE000400 		movl	$1024, %esi
 3410      00
 3411 06cf 4154     		pushq	%r12
 3412              		.cfi_def_cfa_offset 24
 3413              		.cfi_offset 12, -24
 3414 06d1 55       		pushq	%rbp
 3415              		.cfi_def_cfa_offset 32
 3416              		.cfi_offset 6, -32
 3417 06d2 4883EC60 		subq	$96, %rsp
 3418              		.cfi_def_cfa_offset 128
 3419 06d6 64488B04 		movq	%fs:40, %rax
 3419      25280000 
 3419      00
 3420 06df 48894424 		movq	%rax, 88(%rsp)
 3420      58
 3421 06e4 31C0     		xorl	%eax, %eax
 3422 06e6 4C8D6424 		leaq	16(%rsp), %r12
 3422      10
 3423 06eb C7442408 		movl	$0, 8(%rsp)
 3423      00000000 
 3424 06f3 4C89E7   		movq	%r12, %rdi
 3425              	.LEHB102:
 3426 06f6 E8000000 		call	bufInitialise@PLT
 3426      00
 3427              	.LEHE102:
 3428 06fb 89442404 		movl	%eax, 4(%rsp)
 3429              	.LEHB103:
 3430 06ff E8000000 		call	_ZN8UnitTest11CurrentTest7DetailsEv@PLT
 3430      00
 3431 0704 488D6C24 		leaq	48(%rsp), %rbp
 3431      30
 3432 0709 488B30   		movq	(%rax), %rsi
 3433 070c BA9A0000 		movl	$154, %edx
 3433      00
 3434 0711 4889EF   		movq	%rbp, %rdi
 3435 0714 E8000000 		call	_ZN8UnitTest11TestDetailsC1ERKS0_i@PLT
 3435      00
 3436 0719 C744240C 		movl	$0, 12(%rsp)
 3436      00000000 
 3437 0721 E8000000 		call	_ZN8UnitTest11CurrentTest7ResultsEv@PLT
 3437      00
 3438 0726 488B38   		movq	(%rax), %rdi
 3439 0729 488D5424 		leaq	4(%rsp), %rdx
 3439      04
 3440 072e 488D7424 		leaq	12(%rsp), %rsi
 3440      0C
 3441 0733 4889E9   		movq	%rbp, %rcx
 3442 0736 E8000000 		call	_ZN8UnitTest10CheckEqualI12BufferStatusS1_EEvRNS_11TestResultsERKT_RKT0_RKNS_11TestDetailsE
 3442      00
 3443              	.LEHE103:
 3444              	.L203:
 3445 073b 4883EC08 		subq	$8, %rsp
 3446              		.cfi_def_cfa_offset 136
 3447 073f 4C89E2   		movq	%r12, %rdx
 3448 0742 31C9     		xorl	%ecx, %ecx
 3449 0744 31F6     		xorl	%esi, %esi
 3450 0746 6A00     		pushq	$0
 3451              		.cfi_def_cfa_offset 144
 3452 0748 488D3D00 		leaq	.LC24(%rip), %rdi
 3452      000000
 3453 074f 4C8D4C24 		leaq	19(%rsp), %r9
 3453      13
 3454 0754 4C8D4424 		leaq	24(%rsp), %r8
 3454      18
 3455              	.LEHB104:
 3456 0759 E8000000 		call	bufProcessLine@PLT
 3456      00
 3457              	.LEHE104:
 3458 075e 89442414 		movl	%eax, 20(%rsp)
 3459 0762 58       		popq	%rax
 3460              		.cfi_def_cfa_offset 136
 3461 0763 5A       		popq	%rdx
 3462              		.cfi_def_cfa_offset 128
 3463              	.LEHB105:
 3464 0764 E8000000 		call	_ZN8UnitTest11CurrentTest7DetailsEv@PLT
 3464      00
 3465 0769 488B30   		movq	(%rax), %rsi
 3466 076c BA9C0000 		movl	$156, %edx
 3466      00
 3467 0771 4889EF   		movq	%rbp, %rdi
 3468 0774 E8000000 		call	_ZN8UnitTest11TestDetailsC1ERKS0_i@PLT
 3468      00
 3469 0779 C744240C 		movl	$15, 12(%rsp)
 3469      0F000000 
 3470 0781 E8000000 		call	_ZN8UnitTest11CurrentTest7ResultsEv@PLT
 3470      00
 3471 0786 488B38   		movq	(%rax), %rdi
 3472 0789 488D5424 		leaq	4(%rsp), %rdx
 3472      04
 3473 078e 488D7424 		leaq	12(%rsp), %rsi
 3473      0C
 3474 0793 4889E9   		movq	%rbp, %rcx
 3475 0796 E8000000 		call	_ZN8UnitTest10CheckEqualI12BufferStatusS1_EEvRNS_11TestResultsERKT_RKT0_RKNS_11TestDetailsE
 3475      00
 3476              	.LEHE105:
 3477              	.L206:
 3478 079b 4C89E7   		movq	%r12, %rdi
 3479              	.LEHB106:
 3480 079e E8000000 		call	bufDestroy@PLT
 3480      00
 3481              	.LEHE106:
 3482 07a3 488B4424 		movq	88(%rsp), %rax
 3482      58
 3483 07a8 64482B04 		subq	%fs:40, %rax
 3483      25280000 
 3483      00
 3484 07b1 750A     		jne	.L215
 3485 07b3 4883C460 		addq	$96, %rsp
 3486              		.cfi_remember_state
 3487              		.cfi_def_cfa_offset 32
 3488 07b7 5D       		popq	%rbp
 3489              		.cfi_def_cfa_offset 24
 3490 07b8 415C     		popq	%r12
 3491              		.cfi_def_cfa_offset 16
 3492 07ba 415D     		popq	%r13
 3493              		.cfi_def_cfa_offset 8
 3494 07bc C3       		ret
 3495              	.L215:
 3496              		.cfi_restore_state
 3497 07bd E8000000 		call	__stack_chk_fail@PLT
 3497      00
 3498              	.L211:
 3499 07c2 F30F1EFA 		endbr64
 3500 07c6 4889C7   		movq	%rax, %rdi
 3501 07c9 E9000000 		jmp	.L205
 3501      00
 3502              	.L209:
 3503 07ce F30F1EFA 		endbr64
 3504 07d2 4889C7   		movq	%rax, %rdi
 3505 07d5 E9000000 		jmp	.L202
 3505      00
 3506              		.section	.gcc_except_table
 3507              		.align 4
 3508              	.LLSDA1342:
 3509 01c8 FF       		.byte	0xff
 3510 01c9 9B       		.byte	0x9b
 3511 01ca 21       		.uleb128 .LLSDATT1342-.LLSDATTD1342
 3512              	.LLSDATTD1342:
 3513 01cb 01       		.byte	0x1
 3514 01cc 19       		.uleb128 .LLSDACSE1342-.LLSDACSB1342
 3515              	.LLSDACSB1342:
 3516 01cd 36       		.uleb128 .LEHB102-.LFB1342
 3517 01ce 05       		.uleb128 .LEHE102-.LEHB102
 3518 01cf 00       		.uleb128 0
 3519 01d0 00       		.uleb128 0
 3520 01d1 3F       		.uleb128 .LEHB103-.LFB1342
 3521 01d2 3C       		.uleb128 .LEHE103-.LEHB103
 3522 01d3 8E02     		.uleb128 .L209-.LFB1342
 3523 01d5 01       		.uleb128 0x1
 3524 01d6 9901     		.uleb128 .LEHB104-.LFB1342
 3525 01d8 05       		.uleb128 .LEHE104-.LEHB104
 3526 01d9 00       		.uleb128 0
 3527 01da 00       		.uleb128 0
 3528 01db A401     		.uleb128 .LEHB105-.LFB1342
 3529 01dd 37       		.uleb128 .LEHE105-.LEHB105
 3530 01de 8202     		.uleb128 .L211-.LFB1342
 3531 01e0 01       		.uleb128 0x1
 3532 01e1 DE01     		.uleb128 .LEHB106-.LFB1342
 3533 01e3 05       		.uleb128 .LEHE106-.LEHB106
 3534 01e4 00       		.uleb128 0
 3535 01e5 00       		.uleb128 0
 3536              	.LLSDACSE1342:
 3537 01e6 01       		.byte	0x1
 3538 01e7 00       		.byte	0
 3539              		.align 4
 3540 01e8 00000000 		.long	0
 3541              	
 3542              	.LLSDATT1342:
 3543              		.text
 3544              		.cfi_endproc
 3545              		.section	.text.unlikely
 3546              		.cfi_startproc
 3547              		.cfi_personality 0x9b,DW.ref.__gxx_personality_v0
 3548              		.cfi_lsda 0x1b,.LLSDAC1342
 3550              	_ZNK26TestHexIO_testJunkChecksum7RunImplEv.cold:
 3551              	.LFSB1342:
 3552              	.L205:
 3553              		.cfi_def_cfa_offset 128
 3554              		.cfi_offset 6, -32
 3555              		.cfi_offset 12, -24
 3556              		.cfi_offset 13, -16
 3557 03fc E8000000 		call	__cxa_begin_catch@PLT
 3557      00
 3558              	.LEHB107:
 3559 0401 E8000000 		call	_ZN8UnitTest11CurrentTest7ResultsEv@PLT
 3559      00
 3560 0406 4C8B28   		movq	(%rax), %r13
 3561 0409 E8000000 		call	_ZN8UnitTest11CurrentTest7DetailsEv@PLT
 3561      00
 3562 040e 488B30   		movq	(%rax), %rsi
 3563 0411 BA9C0000 		movl	$156, %edx
 3563      00
 3564 0416 4889EF   		movq	%rbp, %rdi
 3565 0419 E8000000 		call	_ZN8UnitTest11TestDetailsC1ERKS0_i@PLT
 3565      00
 3566 041e 488D1500 		leaq	.LC25(%rip), %rdx
 3566      000000
 3567 0425 4889EE   		movq	%rbp, %rsi
 3568 0428 4C89EF   		movq	%r13, %rdi
 3569 042b E8000000 		call	_ZN8UnitTest11TestResults13OnTestFailureERKNS_11TestDetailsEPKc@PLT
 3569      00
 3570              	.LEHE107:
 3571              	.LEHB108:
 3572 0430 E8000000 		call	__cxa_end_catch@PLT
 3572      00
 3573              	.LEHE108:
 3574 0435 E9000000 		jmp	.L206
 3574      00
 3575              	.L202:
 3576 043a E8000000 		call	__cxa_begin_catch@PLT
 3576      00
 3577              	.LEHB109:
 3578 043f E8000000 		call	_ZN8UnitTest11CurrentTest7ResultsEv@PLT
 3578      00
 3579 0444 4C8B28   		movq	(%rax), %r13
 3580 0447 E8000000 		call	_ZN8UnitTest11CurrentTest7DetailsEv@PLT
 3580      00
 3581 044c 488D6C24 		leaq	48(%rsp), %rbp
 3581      30
 3582 0451 488B30   		movq	(%rax), %rsi
 3583 0454 BA9A0000 		movl	$154, %edx
 3583      00
 3584 0459 4889EF   		movq	%rbp, %rdi
 3585 045c E8000000 		call	_ZN8UnitTest11TestDetailsC1ERKS0_i@PLT
 3585      00
 3586 0461 488D1500 		leaq	.LC6(%rip), %rdx
 3586      000000
 3587 0468 4889EE   		movq	%rbp, %rsi
 3588 046b 4C89EF   		movq	%r13, %rdi
 3589 046e E8000000 		call	_ZN8UnitTest11TestResults13OnTestFailureERKNS_11TestDetailsEPKc@PLT
 3589      00
 3590              	.LEHE109:
 3591              	.LEHB110:
 3592 0473 E8000000 		call	__cxa_end_catch@PLT
 3592      00
 3593              	.LEHE110:
 3594 0478 E9000000 		jmp	.L203
 3594      00
 3595              	.L212:
 3596 047d F30F1EFA 		endbr64
 3597 0481 4889C5   		movq	%rax, %rbp
 3598 0484 E8000000 		call	__cxa_end_catch@PLT
 3598      00
 3599 0489 4889EF   		movq	%rbp, %rdi
 3600              	.LEHB111:
 3601 048c E8000000 		call	_Unwind_Resume@PLT
 3601      00
 3602              	.LEHE111:
 3603              	.L210:
 3604 0491 F30F1EFA 		endbr64
 3605 0495 4889C5   		movq	%rax, %rbp
 3606 0498 E8000000 		call	__cxa_end_catch@PLT
 3606      00
 3607 049d 4889EF   		movq	%rbp, %rdi
 3608              	.LEHB112:
 3609 04a0 E8000000 		call	_Unwind_Resume@PLT
 3609      00
 3610              	.LEHE112:
 3611              		.cfi_endproc
 3612              	.LFE1342:
 3613              		.section	.gcc_except_table
 3614              		.align 4
 3615              	.LLSDAC1342:
 3616 01ec FF       		.byte	0xff
 3617 01ed 9B       		.byte	0x9b
 3618 01ee 25       		.uleb128 .LLSDATTC1342-.LLSDATTDC1342
 3619              	.LLSDATTDC1342:
 3620 01ef 01       		.byte	0x1
 3621 01f0 1C       		.uleb128 .LLSDACSEC1342-.LLSDACSBC1342
 3622              	.LLSDACSBC1342:
 3623 01f1 05       		.uleb128 .LEHB107-.LCOLDB26
 3624 01f2 2F       		.uleb128 .LEHE107-.LEHB107
 3625 01f3 8101     		.uleb128 .L212-.LCOLDB26
 3626 01f5 00       		.uleb128 0
 3627 01f6 34       		.uleb128 .LEHB108-.LCOLDB26
 3628 01f7 05       		.uleb128 .LEHE108-.LEHB108
 3629 01f8 00       		.uleb128 0
 3630 01f9 00       		.uleb128 0
 3631 01fa 43       		.uleb128 .LEHB109-.LCOLDB26
 3632 01fb 34       		.uleb128 .LEHE109-.LEHB109
 3633 01fc 9501     		.uleb128 .L210-.LCOLDB26
 3634 01fe 00       		.uleb128 0
 3635 01ff 77       		.uleb128 .LEHB110-.LCOLDB26
 3636 0200 05       		.uleb128 .LEHE110-.LEHB110
 3637 0201 00       		.uleb128 0
 3638 0202 00       		.uleb128 0
 3639 0203 9001     		.uleb128 .LEHB111-.LCOLDB26
 3640 0205 05       		.uleb128 .LEHE111-.LEHB111
 3641 0206 00       		.uleb128 0
 3642 0207 00       		.uleb128 0
 3643 0208 A401     		.uleb128 .LEHB112-.LCOLDB26
 3644 020a 05       		.uleb128 .LEHE112-.LEHB112
 3645 020b 00       		.uleb128 0
 3646 020c 00       		.uleb128 0
 3647              	.LLSDACSEC1342:
 3648 020d 01       		.byte	0x1
 3649 020e 00       		.byte	0
 3650 020f 00       		.align 4
 3651 0210 00000000 		.long	0
 3652              	
 3653              	.LLSDATTC1342:
 3654              		.section	.text.unlikely
 3655              		.text
 3657              		.section	.text.unlikely
 3659              	.LCOLDE26:
 3660              		.text
 3661              	.LHOTE26:
 3662              		.section	.rodata.str1.1
 3663              	.LC27:
 3664 0093 3A303430 		.string	":040BE10075820022F8\n"
 3664      42453130 
 3664      30373538 
 3664      32303032 
 3664      3246380A 
 3665              		.section	.rodata.str1.8
 3666 01f6 0000     		.align 8
 3667              	.LC28:
 3668 01f8 556E6861 		.string	"Unhandled exception in CHECK_EQUAL(HEX_BAD_CHECKSUM, status)"
 3668      6E646C65 
 3668      64206578 
 3668      63657074 
 3668      696F6E20 
 3669              		.section	.text.unlikely
 3670 04a5 90       		.align 2
 3671              	.LCOLDB29:
 3672              		.text
 3673              	.LHOTB29:
 3674              		.align 2
 3675 07da 660F1F44 		.p2align 4
 3675      0000
 3676              		.globl	_ZNK25TestHexIO_testBadChecksum7RunImplEv
 3678              	_ZNK25TestHexIO_testBadChecksum7RunImplEv:
 3679              	.LFB1346:
 3680              		.cfi_startproc
 3681              		.cfi_personality 0x9b,DW.ref.__gxx_personality_v0
 3682              		.cfi_lsda 0x1b,.LLSDA1346
 3683 07e0 F30F1EFA 		endbr64
 3684 07e4 4155     		pushq	%r13
 3685              		.cfi_def_cfa_offset 16
 3686              		.cfi_offset 13, -16
 3687 07e6 31C9     		xorl	%ecx, %ecx
 3688 07e8 31D2     		xorl	%edx, %edx
 3689 07ea BE000400 		movl	$1024, %esi
 3689      00
 3690 07ef 4154     		pushq	%r12
 3691              		.cfi_def_cfa_offset 24
 3692              		.cfi_offset 12, -24
 3693 07f1 55       		pushq	%rbp
 3694              		.cfi_def_cfa_offset 32
 3695              		.cfi_offset 6, -32
 3696 07f2 4883EC60 		subq	$96, %rsp
 3697              		.cfi_def_cfa_offset 128
 3698 07f6 64488B04 		movq	%fs:40, %rax
 3698      25280000 
 3698      00
 3699 07ff 48894424 		movq	%rax, 88(%rsp)
 3699      58
 3700 0804 31C0     		xorl	%eax, %eax
 3701 0806 4C8D6424 		leaq	16(%rsp), %r12
 3701      10
 3702 080b C7442408 		movl	$0, 8(%rsp)
 3702      00000000 
 3703 0813 4C89E7   		movq	%r12, %rdi
 3704              	.LEHB113:
 3705 0816 E8000000 		call	bufInitialise@PLT
 3705      00
 3706              	.LEHE113:
 3707 081b 89442404 		movl	%eax, 4(%rsp)
 3708              	.LEHB114:
 3709 081f E8000000 		call	_ZN8UnitTest11CurrentTest7DetailsEv@PLT
 3709      00
 3710 0824 488D6C24 		leaq	48(%rsp), %rbp
 3710      30
 3711 0829 488B30   		movq	(%rax), %rsi
 3712 082c BAA70000 		movl	$167, %edx
 3712      00
 3713 0831 4889EF   		movq	%rbp, %rdi
 3714 0834 E8000000 		call	_ZN8UnitTest11TestDetailsC1ERKS0_i@PLT
 3714      00
 3715 0839 C744240C 		movl	$0, 12(%rsp)
 3715      00000000 
 3716 0841 E8000000 		call	_ZN8UnitTest11CurrentTest7ResultsEv@PLT
 3716      00
 3717 0846 488B38   		movq	(%rax), %rdi
 3718 0849 488D5424 		leaq	4(%rsp), %rdx
 3718      04
 3719 084e 488D7424 		leaq	12(%rsp), %rsi
 3719      0C
 3720 0853 4889E9   		movq	%rbp, %rcx
 3721 0856 E8000000 		call	_ZN8UnitTest10CheckEqualI12BufferStatusS1_EEvRNS_11TestResultsERKT_RKT0_RKNS_11TestDetailsE
 3721      00
 3722              	.LEHE114:
 3723              	.L218:
 3724 085b 4883EC08 		subq	$8, %rsp
 3725              		.cfi_def_cfa_offset 136
 3726 085f 4C89E2   		movq	%r12, %rdx
 3727 0862 31C9     		xorl	%ecx, %ecx
 3728 0864 31F6     		xorl	%esi, %esi
 3729 0866 6A00     		pushq	$0
 3730              		.cfi_def_cfa_offset 144
 3731 0868 488D3D00 		leaq	.LC27(%rip), %rdi
 3731      000000
 3732 086f 4C8D4C24 		leaq	19(%rsp), %r9
 3732      13
 3733 0874 4C8D4424 		leaq	24(%rsp), %r8
 3733      18
 3734              	.LEHB115:
 3735 0879 E8000000 		call	bufProcessLine@PLT
 3735      00
 3736              	.LEHE115:
 3737 087e 89442414 		movl	%eax, 20(%rsp)
 3738 0882 58       		popq	%rax
 3739              		.cfi_def_cfa_offset 136
 3740 0883 5A       		popq	%rdx
 3741              		.cfi_def_cfa_offset 128
 3742              	.LEHB116:
 3743 0884 E8000000 		call	_ZN8UnitTest11CurrentTest7DetailsEv@PLT
 3743      00
 3744 0889 488B30   		movq	(%rax), %rsi
 3745 088c BAA90000 		movl	$169, %edx
 3745      00
 3746 0891 4889EF   		movq	%rbp, %rdi
 3747 0894 E8000000 		call	_ZN8UnitTest11TestDetailsC1ERKS0_i@PLT
 3747      00
 3748 0899 C744240C 		movl	$16, 12(%rsp)
 3748      10000000 
 3749 08a1 E8000000 		call	_ZN8UnitTest11CurrentTest7ResultsEv@PLT
 3749      00
 3750 08a6 488B38   		movq	(%rax), %rdi
 3751 08a9 488D5424 		leaq	4(%rsp), %rdx
 3751      04
 3752 08ae 488D7424 		leaq	12(%rsp), %rsi
 3752      0C
 3753 08b3 4889E9   		movq	%rbp, %rcx
 3754 08b6 E8000000 		call	_ZN8UnitTest10CheckEqualI12BufferStatusS1_EEvRNS_11TestResultsERKT_RKT0_RKNS_11TestDetailsE
 3754      00
 3755              	.LEHE116:
 3756              	.L221:
 3757 08bb 4C89E7   		movq	%r12, %rdi
 3758              	.LEHB117:
 3759 08be E8000000 		call	bufDestroy@PLT
 3759      00
 3760              	.LEHE117:
 3761 08c3 488B4424 		movq	88(%rsp), %rax
 3761      58
 3762 08c8 64482B04 		subq	%fs:40, %rax
 3762      25280000 
 3762      00
 3763 08d1 750A     		jne	.L230
 3764 08d3 4883C460 		addq	$96, %rsp
 3765              		.cfi_remember_state
 3766              		.cfi_def_cfa_offset 32
 3767 08d7 5D       		popq	%rbp
 3768              		.cfi_def_cfa_offset 24
 3769 08d8 415C     		popq	%r12
 3770              		.cfi_def_cfa_offset 16
 3771 08da 415D     		popq	%r13
 3772              		.cfi_def_cfa_offset 8
 3773 08dc C3       		ret
 3774              	.L230:
 3775              		.cfi_restore_state
 3776 08dd E8000000 		call	__stack_chk_fail@PLT
 3776      00
 3777              	.L226:
 3778 08e2 F30F1EFA 		endbr64
 3779 08e6 4889C7   		movq	%rax, %rdi
 3780 08e9 E9000000 		jmp	.L220
 3780      00
 3781              	.L224:
 3782 08ee F30F1EFA 		endbr64
 3783 08f2 4889C7   		movq	%rax, %rdi
 3784 08f5 E9000000 		jmp	.L217
 3784      00
 3785              		.section	.gcc_except_table
 3786              		.align 4
 3787              	.LLSDA1346:
 3788 0214 FF       		.byte	0xff
 3789 0215 9B       		.byte	0x9b
 3790 0216 21       		.uleb128 .LLSDATT1346-.LLSDATTD1346
 3791              	.LLSDATTD1346:
 3792 0217 01       		.byte	0x1
 3793 0218 19       		.uleb128 .LLSDACSE1346-.LLSDACSB1346
 3794              	.LLSDACSB1346:
 3795 0219 36       		.uleb128 .LEHB113-.LFB1346
 3796 021a 05       		.uleb128 .LEHE113-.LEHB113
 3797 021b 00       		.uleb128 0
 3798 021c 00       		.uleb128 0
 3799 021d 3F       		.uleb128 .LEHB114-.LFB1346
 3800 021e 3C       		.uleb128 .LEHE114-.LEHB114
 3801 021f 8E02     		.uleb128 .L224-.LFB1346
 3802 0221 01       		.uleb128 0x1
 3803 0222 9901     		.uleb128 .LEHB115-.LFB1346
 3804 0224 05       		.uleb128 .LEHE115-.LEHB115
 3805 0225 00       		.uleb128 0
 3806 0226 00       		.uleb128 0
 3807 0227 A401     		.uleb128 .LEHB116-.LFB1346
 3808 0229 37       		.uleb128 .LEHE116-.LEHB116
 3809 022a 8202     		.uleb128 .L226-.LFB1346
 3810 022c 01       		.uleb128 0x1
 3811 022d DE01     		.uleb128 .LEHB117-.LFB1346
 3812 022f 05       		.uleb128 .LEHE117-.LEHB117
 3813 0230 00       		.uleb128 0
 3814 0231 00       		.uleb128 0
 3815              	.LLSDACSE1346:
 3816 0232 01       		.byte	0x1
 3817 0233 00       		.byte	0
 3818              		.align 4
 3819 0234 00000000 		.long	0
 3820              	
 3821              	.LLSDATT1346:
 3822              		.text
 3823              		.cfi_endproc
 3824              		.section	.text.unlikely
 3825              		.cfi_startproc
 3826              		.cfi_personality 0x9b,DW.ref.__gxx_personality_v0
 3827              		.cfi_lsda 0x1b,.LLSDAC1346
 3829              	_ZNK25TestHexIO_testBadChecksum7RunImplEv.cold:
 3830              	.LFSB1346:
 3831              	.L220:
 3832              		.cfi_def_cfa_offset 128
 3833              		.cfi_offset 6, -32
 3834              		.cfi_offset 12, -24
 3835              		.cfi_offset 13, -16
 3836 04a6 E8000000 		call	__cxa_begin_catch@PLT
 3836      00
 3837              	.LEHB118:
 3838 04ab E8000000 		call	_ZN8UnitTest11CurrentTest7ResultsEv@PLT
 3838      00
 3839 04b0 4C8B28   		movq	(%rax), %r13
 3840 04b3 E8000000 		call	_ZN8UnitTest11CurrentTest7DetailsEv@PLT
 3840      00
 3841 04b8 488B30   		movq	(%rax), %rsi
 3842 04bb BAA90000 		movl	$169, %edx
 3842      00
 3843 04c0 4889EF   		movq	%rbp, %rdi
 3844 04c3 E8000000 		call	_ZN8UnitTest11TestDetailsC1ERKS0_i@PLT
 3844      00
 3845 04c8 488D1500 		leaq	.LC28(%rip), %rdx
 3845      000000
 3846 04cf 4889EE   		movq	%rbp, %rsi
 3847 04d2 4C89EF   		movq	%r13, %rdi
 3848 04d5 E8000000 		call	_ZN8UnitTest11TestResults13OnTestFailureERKNS_11TestDetailsEPKc@PLT
 3848      00
 3849              	.LEHE118:
 3850              	.LEHB119:
 3851 04da E8000000 		call	__cxa_end_catch@PLT
 3851      00
 3852              	.LEHE119:
 3853 04df E9000000 		jmp	.L221
 3853      00
 3854              	.L217:
 3855 04e4 E8000000 		call	__cxa_begin_catch@PLT
 3855      00
 3856              	.LEHB120:
 3857 04e9 E8000000 		call	_ZN8UnitTest11CurrentTest7ResultsEv@PLT
 3857      00
 3858 04ee 4C8B28   		movq	(%rax), %r13
 3859 04f1 E8000000 		call	_ZN8UnitTest11CurrentTest7DetailsEv@PLT
 3859      00
 3860 04f6 488D6C24 		leaq	48(%rsp), %rbp
 3860      30
 3861 04fb 488B30   		movq	(%rax), %rsi
 3862 04fe BAA70000 		movl	$167, %edx
 3862      00
 3863 0503 4889EF   		movq	%rbp, %rdi
 3864 0506 E8000000 		call	_ZN8UnitTest11TestDetailsC1ERKS0_i@PLT
 3864      00
 3865 050b 488D1500 		leaq	.LC6(%rip), %rdx
 3865      000000
 3866 0512 4889EE   		movq	%rbp, %rsi
 3867 0515 4C89EF   		movq	%r13, %rdi
 3868 0518 E8000000 		call	_ZN8UnitTest11TestResults13OnTestFailureERKNS_11TestDetailsEPKc@PLT
 3868      00
 3869              	.LEHE120:
 3870              	.LEHB121:
 3871 051d E8000000 		call	__cxa_end_catch@PLT
 3871      00
 3872              	.LEHE121:
 3873 0522 E9000000 		jmp	.L218
 3873      00
 3874              	.L227:
 3875 0527 F30F1EFA 		endbr64
 3876 052b 4889C5   		movq	%rax, %rbp
 3877 052e E8000000 		call	__cxa_end_catch@PLT
 3877      00
 3878 0533 4889EF   		movq	%rbp, %rdi
 3879              	.LEHB122:
 3880 0536 E8000000 		call	_Unwind_Resume@PLT
 3880      00
 3881              	.LEHE122:
 3882              	.L225:
 3883 053b F30F1EFA 		endbr64
 3884 053f 4889C5   		movq	%rax, %rbp
 3885 0542 E8000000 		call	__cxa_end_catch@PLT
 3885      00
 3886 0547 4889EF   		movq	%rbp, %rdi
 3887              	.LEHB123:
 3888 054a E8000000 		call	_Unwind_Resume@PLT
 3888      00
 3889              	.LEHE123:
 3890              		.cfi_endproc
 3891              	.LFE1346:
 3892              		.section	.gcc_except_table
 3893              		.align 4
 3894              	.LLSDAC1346:
 3895 0238 FF       		.byte	0xff
 3896 0239 9B       		.byte	0x9b
 3897 023a 25       		.uleb128 .LLSDATTC1346-.LLSDATTDC1346
 3898              	.LLSDATTDC1346:
 3899 023b 01       		.byte	0x1
 3900 023c 1C       		.uleb128 .LLSDACSEC1346-.LLSDACSBC1346
 3901              	.LLSDACSBC1346:
 3902 023d 05       		.uleb128 .LEHB118-.LCOLDB29
 3903 023e 2F       		.uleb128 .LEHE118-.LEHB118
 3904 023f 8101     		.uleb128 .L227-.LCOLDB29
 3905 0241 00       		.uleb128 0
 3906 0242 34       		.uleb128 .LEHB119-.LCOLDB29
 3907 0243 05       		.uleb128 .LEHE119-.LEHB119
 3908 0244 00       		.uleb128 0
 3909 0245 00       		.uleb128 0
 3910 0246 43       		.uleb128 .LEHB120-.LCOLDB29
 3911 0247 34       		.uleb128 .LEHE120-.LEHB120
 3912 0248 9501     		.uleb128 .L225-.LCOLDB29
 3913 024a 00       		.uleb128 0
 3914 024b 77       		.uleb128 .LEHB121-.LCOLDB29
 3915 024c 05       		.uleb128 .LEHE121-.LEHB121
 3916 024d 00       		.uleb128 0
 3917 024e 00       		.uleb128 0
 3918 024f 9001     		.uleb128 .LEHB122-.LCOLDB29
 3919 0251 05       		.uleb128 .LEHE122-.LEHB122
 3920 0252 00       		.uleb128 0
 3921 0253 00       		.uleb128 0
 3922 0254 A401     		.uleb128 .LEHB123-.LCOLDB29
 3923 0256 05       		.uleb128 .LEHE123-.LEHB123
 3924 0257 00       		.uleb128 0
 3925 0258 00       		.uleb128 0
 3926              	.LLSDACSEC1346:
 3927 0259 01       		.byte	0x1
 3928 025a 00       		.byte	0
 3929 025b 00       		.align 4
 3930 025c 00000000 		.long	0
 3931              	
 3932              	.LLSDATTC1346:
 3933              		.section	.text.unlikely
 3934              		.text
 3936              		.section	.text.unlikely
 3938              	.LCOLDE29:
 3939              		.text
 3940              	.LHOTE29:
 3941              		.section	.rodata.str1.1
 3942              	.LC30:
 3943 00a8 3A303430 		.string	":040BE10075820022F7 \n"
 3943      42453130 
 3943      30373538 
 3943      32303032 
 3943      32463720 
 3944              		.section	.rodata.str1.8
 3945 0235 000000   		.align 8
 3946              	.LC31:
 3947 0238 556E6861 		.string	"Unhandled exception in CHECK_EQUAL(HEX_CORRUPT_LINE, status)"
 3947      6E646C65 
 3947      64206578 
 3947      63657074 
 3947      696F6E20 
 3948              		.section	.text.unlikely
 3949 054f 90       		.align 2
 3950              	.LCOLDB32:
 3951              		.text
 3952              	.LHOTB32:
 3953              		.align 2
 3954 08fa 660F1F44 		.p2align 4
 3954      0000
 3955              		.globl	_ZNK25TestHexIO_testCorruptLine7RunImplEv
 3957              	_ZNK25TestHexIO_testCorruptLine7RunImplEv:
 3958              	.LFB1350:
 3959              		.cfi_startproc
 3960              		.cfi_personality 0x9b,DW.ref.__gxx_personality_v0
 3961              		.cfi_lsda 0x1b,.LLSDA1350
 3962 0900 F30F1EFA 		endbr64
 3963 0904 4155     		pushq	%r13
 3964              		.cfi_def_cfa_offset 16
 3965              		.cfi_offset 13, -16
 3966 0906 31C9     		xorl	%ecx, %ecx
 3967 0908 31D2     		xorl	%edx, %edx
 3968 090a BE000400 		movl	$1024, %esi
 3968      00
 3969 090f 4154     		pushq	%r12
 3970              		.cfi_def_cfa_offset 24
 3971              		.cfi_offset 12, -24
 3972 0911 55       		pushq	%rbp
 3973              		.cfi_def_cfa_offset 32
 3974              		.cfi_offset 6, -32
 3975 0912 4883EC60 		subq	$96, %rsp
 3976              		.cfi_def_cfa_offset 128
 3977 0916 64488B04 		movq	%fs:40, %rax
 3977      25280000 
 3977      00
 3978 091f 48894424 		movq	%rax, 88(%rsp)
 3978      58
 3979 0924 31C0     		xorl	%eax, %eax
 3980 0926 4C8D6424 		leaq	16(%rsp), %r12
 3980      10
 3981 092b C7442408 		movl	$0, 8(%rsp)
 3981      00000000 
 3982 0933 4C89E7   		movq	%r12, %rdi
 3983              	.LEHB124:
 3984 0936 E8000000 		call	bufInitialise@PLT
 3984      00
 3985              	.LEHE124:
 3986 093b 89442404 		movl	%eax, 4(%rsp)
 3987              	.LEHB125:
 3988 093f E8000000 		call	_ZN8UnitTest11CurrentTest7DetailsEv@PLT
 3988      00
 3989 0944 488D6C24 		leaq	48(%rsp), %rbp
 3989      30
 3990 0949 488B30   		movq	(%rax), %rsi
 3991 094c BAB40000 		movl	$180, %edx
 3991      00
 3992 0951 4889EF   		movq	%rbp, %rdi
 3993 0954 E8000000 		call	_ZN8UnitTest11TestDetailsC1ERKS0_i@PLT
 3993      00
 3994 0959 C744240C 		movl	$0, 12(%rsp)
 3994      00000000 
 3995 0961 E8000000 		call	_ZN8UnitTest11CurrentTest7ResultsEv@PLT
 3995      00
 3996 0966 488B38   		movq	(%rax), %rdi
 3997 0969 488D5424 		leaq	4(%rsp), %rdx
 3997      04
 3998 096e 488D7424 		leaq	12(%rsp), %rsi
 3998      0C
 3999 0973 4889E9   		movq	%rbp, %rcx
 4000 0976 E8000000 		call	_ZN8UnitTest10CheckEqualI12BufferStatusS1_EEvRNS_11TestResultsERKT_RKT0_RKNS_11TestDetailsE
 4000      00
 4001              	.LEHE125:
 4002              	.L233:
 4003 097b 4883EC08 		subq	$8, %rsp
 4004              		.cfi_def_cfa_offset 136
 4005 097f 4C89E2   		movq	%r12, %rdx
 4006 0982 31C9     		xorl	%ecx, %ecx
 4007 0984 31F6     		xorl	%esi, %esi
 4008 0986 6A00     		pushq	$0
 4009              		.cfi_def_cfa_offset 144
 4010 0988 488D3D00 		leaq	.LC30(%rip), %rdi
 4010      000000
 4011 098f 4C8D4C24 		leaq	19(%rsp), %r9
 4011      13
 4012 0994 4C8D4424 		leaq	24(%rsp), %r8
 4012      18
 4013              	.LEHB126:
 4014 0999 E8000000 		call	bufProcessLine@PLT
 4014      00
 4015              	.LEHE126:
 4016 099e 89442414 		movl	%eax, 20(%rsp)
 4017 09a2 58       		popq	%rax
 4018              		.cfi_def_cfa_offset 136
 4019 09a3 5A       		popq	%rdx
 4020              		.cfi_def_cfa_offset 128
 4021              	.LEHB127:
 4022 09a4 E8000000 		call	_ZN8UnitTest11CurrentTest7DetailsEv@PLT
 4022      00
 4023 09a9 488B30   		movq	(%rax), %rsi
 4024 09ac BAB60000 		movl	$182, %edx
 4024      00
 4025 09b1 4889EF   		movq	%rbp, %rdi
 4026 09b4 E8000000 		call	_ZN8UnitTest11TestDetailsC1ERKS0_i@PLT
 4026      00
 4027 09b9 C744240C 		movl	$17, 12(%rsp)
 4027      11000000 
 4028 09c1 E8000000 		call	_ZN8UnitTest11CurrentTest7ResultsEv@PLT
 4028      00
 4029 09c6 488B38   		movq	(%rax), %rdi
 4030 09c9 488D5424 		leaq	4(%rsp), %rdx
 4030      04
 4031 09ce 488D7424 		leaq	12(%rsp), %rsi
 4031      0C
 4032 09d3 4889E9   		movq	%rbp, %rcx
 4033 09d6 E8000000 		call	_ZN8UnitTest10CheckEqualI12BufferStatusS1_EEvRNS_11TestResultsERKT_RKT0_RKNS_11TestDetailsE
 4033      00
 4034              	.LEHE127:
 4035              	.L236:
 4036 09db 4C89E7   		movq	%r12, %rdi
 4037              	.LEHB128:
 4038 09de E8000000 		call	bufDestroy@PLT
 4038      00
 4039              	.LEHE128:
 4040 09e3 488B4424 		movq	88(%rsp), %rax
 4040      58
 4041 09e8 64482B04 		subq	%fs:40, %rax
 4041      25280000 
 4041      00
 4042 09f1 750A     		jne	.L245
 4043 09f3 4883C460 		addq	$96, %rsp
 4044              		.cfi_remember_state
 4045              		.cfi_def_cfa_offset 32
 4046 09f7 5D       		popq	%rbp
 4047              		.cfi_def_cfa_offset 24
 4048 09f8 415C     		popq	%r12
 4049              		.cfi_def_cfa_offset 16
 4050 09fa 415D     		popq	%r13
 4051              		.cfi_def_cfa_offset 8
 4052 09fc C3       		ret
 4053              	.L245:
 4054              		.cfi_restore_state
 4055 09fd E8000000 		call	__stack_chk_fail@PLT
 4055      00
 4056              	.L241:
 4057 0a02 F30F1EFA 		endbr64
 4058 0a06 4889C7   		movq	%rax, %rdi
 4059 0a09 E9000000 		jmp	.L235
 4059      00
 4060              	.L239:
 4061 0a0e F30F1EFA 		endbr64
 4062 0a12 4889C7   		movq	%rax, %rdi
 4063 0a15 E9000000 		jmp	.L232
 4063      00
 4064              		.section	.gcc_except_table
 4065              		.align 4
 4066              	.LLSDA1350:
 4067 0260 FF       		.byte	0xff
 4068 0261 9B       		.byte	0x9b
 4069 0262 21       		.uleb128 .LLSDATT1350-.LLSDATTD1350
 4070              	.LLSDATTD1350:
 4071 0263 01       		.byte	0x1
 4072 0264 19       		.uleb128 .LLSDACSE1350-.LLSDACSB1350
 4073              	.LLSDACSB1350:
 4074 0265 36       		.uleb128 .LEHB124-.LFB1350
 4075 0266 05       		.uleb128 .LEHE124-.LEHB124
 4076 0267 00       		.uleb128 0
 4077 0268 00       		.uleb128 0
 4078 0269 3F       		.uleb128 .LEHB125-.LFB1350
 4079 026a 3C       		.uleb128 .LEHE125-.LEHB125
 4080 026b 8E02     		.uleb128 .L239-.LFB1350
 4081 026d 01       		.uleb128 0x1
 4082 026e 9901     		.uleb128 .LEHB126-.LFB1350
 4083 0270 05       		.uleb128 .LEHE126-.LEHB126
 4084 0271 00       		.uleb128 0
 4085 0272 00       		.uleb128 0
 4086 0273 A401     		.uleb128 .LEHB127-.LFB1350
 4087 0275 37       		.uleb128 .LEHE127-.LEHB127
 4088 0276 8202     		.uleb128 .L241-.LFB1350
 4089 0278 01       		.uleb128 0x1
 4090 0279 DE01     		.uleb128 .LEHB128-.LFB1350
 4091 027b 05       		.uleb128 .LEHE128-.LEHB128
 4092 027c 00       		.uleb128 0
 4093 027d 00       		.uleb128 0
 4094              	.LLSDACSE1350:
 4095 027e 01       		.byte	0x1
 4096 027f 00       		.byte	0
 4097              		.align 4
 4098 0280 00000000 		.long	0
 4099              	
 4100              	.LLSDATT1350:
 4101              		.text
 4102              		.cfi_endproc
 4103              		.section	.text.unlikely
 4104              		.cfi_startproc
 4105              		.cfi_personality 0x9b,DW.ref.__gxx_personality_v0
 4106              		.cfi_lsda 0x1b,.LLSDAC1350
 4108              	_ZNK25TestHexIO_testCorruptLine7RunImplEv.cold:
 4109              	.LFSB1350:
 4110              	.L235:
 4111              		.cfi_def_cfa_offset 128
 4112              		.cfi_offset 6, -32
 4113              		.cfi_offset 12, -24
 4114              		.cfi_offset 13, -16
 4115 0550 E8000000 		call	__cxa_begin_catch@PLT
 4115      00
 4116              	.LEHB129:
 4117 0555 E8000000 		call	_ZN8UnitTest11CurrentTest7ResultsEv@PLT
 4117      00
 4118 055a 4C8B28   		movq	(%rax), %r13
 4119 055d E8000000 		call	_ZN8UnitTest11CurrentTest7DetailsEv@PLT
 4119      00
 4120 0562 488B30   		movq	(%rax), %rsi
 4121 0565 BAB60000 		movl	$182, %edx
 4121      00
 4122 056a 4889EF   		movq	%rbp, %rdi
 4123 056d E8000000 		call	_ZN8UnitTest11TestDetailsC1ERKS0_i@PLT
 4123      00
 4124 0572 488D1500 		leaq	.LC31(%rip), %rdx
 4124      000000
 4125 0579 4889EE   		movq	%rbp, %rsi
 4126 057c 4C89EF   		movq	%r13, %rdi
 4127 057f E8000000 		call	_ZN8UnitTest11TestResults13OnTestFailureERKNS_11TestDetailsEPKc@PLT
 4127      00
 4128              	.LEHE129:
 4129              	.LEHB130:
 4130 0584 E8000000 		call	__cxa_end_catch@PLT
 4130      00
 4131              	.LEHE130:
 4132 0589 E9000000 		jmp	.L236
 4132      00
 4133              	.L232:
 4134 058e E8000000 		call	__cxa_begin_catch@PLT
 4134      00
 4135              	.LEHB131:
 4136 0593 E8000000 		call	_ZN8UnitTest11CurrentTest7ResultsEv@PLT
 4136      00
 4137 0598 4C8B28   		movq	(%rax), %r13
 4138 059b E8000000 		call	_ZN8UnitTest11CurrentTest7DetailsEv@PLT
 4138      00
 4139 05a0 488D6C24 		leaq	48(%rsp), %rbp
 4139      30
 4140 05a5 488B30   		movq	(%rax), %rsi
 4141 05a8 BAB40000 		movl	$180, %edx
 4141      00
 4142 05ad 4889EF   		movq	%rbp, %rdi
 4143 05b0 E8000000 		call	_ZN8UnitTest11TestDetailsC1ERKS0_i@PLT
 4143      00
 4144 05b5 488D1500 		leaq	.LC6(%rip), %rdx
 4144      000000
 4145 05bc 4889EE   		movq	%rbp, %rsi
 4146 05bf 4C89EF   		movq	%r13, %rdi
 4147 05c2 E8000000 		call	_ZN8UnitTest11TestResults13OnTestFailureERKNS_11TestDetailsEPKc@PLT
 4147      00
 4148              	.LEHE131:
 4149              	.LEHB132:
 4150 05c7 E8000000 		call	__cxa_end_catch@PLT
 4150      00
 4151              	.LEHE132:
 4152 05cc E9000000 		jmp	.L233
 4152      00
 4153              	.L242:
 4154 05d1 F30F1EFA 		endbr64
 4155 05d5 4889C5   		movq	%rax, %rbp
 4156 05d8 E8000000 		call	__cxa_end_catch@PLT
 4156      00
 4157 05dd 4889EF   		movq	%rbp, %rdi
 4158              	.LEHB133:
 4159 05e0 E8000000 		call	_Unwind_Resume@PLT
 4159      00
 4160              	.LEHE133:
 4161              	.L240:
 4162 05e5 F30F1EFA 		endbr64
 4163 05e9 4889C5   		movq	%rax, %rbp
 4164 05ec E8000000 		call	__cxa_end_catch@PLT
 4164      00
 4165 05f1 4889EF   		movq	%rbp, %rdi
 4166              	.LEHB134:
 4167 05f4 E8000000 		call	_Unwind_Resume@PLT
 4167      00
 4168              	.LEHE134:
 4169              		.cfi_endproc
 4170              	.LFE1350:
 4171              		.section	.gcc_except_table
 4172              		.align 4
 4173              	.LLSDAC1350:
 4174 0284 FF       		.byte	0xff
 4175 0285 9B       		.byte	0x9b
 4176 0286 25       		.uleb128 .LLSDATTC1350-.LLSDATTDC1350
 4177              	.LLSDATTDC1350:
 4178 0287 01       		.byte	0x1
 4179 0288 1C       		.uleb128 .LLSDACSEC1350-.LLSDACSBC1350
 4180              	.LLSDACSBC1350:
 4181 0289 05       		.uleb128 .LEHB129-.LCOLDB32
 4182 028a 2F       		.uleb128 .LEHE129-.LEHB129
 4183 028b 8101     		.uleb128 .L242-.LCOLDB32
 4184 028d 00       		.uleb128 0
 4185 028e 34       		.uleb128 .LEHB130-.LCOLDB32
 4186 028f 05       		.uleb128 .LEHE130-.LEHB130
 4187 0290 00       		.uleb128 0
 4188 0291 00       		.uleb128 0
 4189 0292 43       		.uleb128 .LEHB131-.LCOLDB32
 4190 0293 34       		.uleb128 .LEHE131-.LEHB131
 4191 0294 9501     		.uleb128 .L240-.LCOLDB32
 4192 0296 00       		.uleb128 0
 4193 0297 77       		.uleb128 .LEHB132-.LCOLDB32
 4194 0298 05       		.uleb128 .LEHE132-.LEHB132
 4195 0299 00       		.uleb128 0
 4196 029a 00       		.uleb128 0
 4197 029b 9001     		.uleb128 .LEHB133-.LCOLDB32
 4198 029d 05       		.uleb128 .LEHE133-.LEHB133
 4199 029e 00       		.uleb128 0
 4200 029f 00       		.uleb128 0
 4201 02a0 A401     		.uleb128 .LEHB134-.LCOLDB32
 4202 02a2 05       		.uleb128 .LEHE134-.LEHB134
 4203 02a3 00       		.uleb128 0
 4204 02a4 00       		.uleb128 0
 4205              	.LLSDACSEC1350:
 4206 02a5 01       		.byte	0x1
 4207 02a6 00       		.byte	0
 4208 02a7 00       		.align 4
 4209 02a8 00000000 		.long	0
 4210              	
 4211              	.LLSDATTC1350:
 4212              		.section	.text.unlikely
 4213              		.text
 4215              		.section	.text.unlikely
 4217              	.LCOLDE32:
 4218              		.text
 4219              	.LHOTE32:
 4220              		.section	.text._ZN8UnitTest10CheckEqualIihEEvRNS_11TestResultsERKT_RKT0_RKNS_11TestDetailsE,"axG",
 4221              		.p2align 4
 4222              		.weak	_ZN8UnitTest10CheckEqualIihEEvRNS_11TestResultsERKT_RKT0_RKNS_11TestDetailsE
 4224              	_ZN8UnitTest10CheckEqualIihEEvRNS_11TestResultsERKT_RKT0_RKNS_11TestDetailsE:
 4225              	.LFB1393:
 4226              		.cfi_startproc
 4227              		.cfi_personality 0x9b,DW.ref.__gxx_personality_v0
 4228              		.cfi_lsda 0x1b,.LLSDA1393
 4229 0000 F30F1EFA 		endbr64
 4230 0004 4157     		pushq	%r15
 4231              		.cfi_def_cfa_offset 16
 4232              		.cfi_offset 15, -16
 4233 0006 4156     		pushq	%r14
 4234              		.cfi_def_cfa_offset 24
 4235              		.cfi_offset 14, -24
 4236 0008 4155     		pushq	%r13
 4237              		.cfi_def_cfa_offset 32
 4238              		.cfi_offset 13, -32
 4239 000a 4154     		pushq	%r12
 4240              		.cfi_def_cfa_offset 40
 4241              		.cfi_offset 12, -40
 4242 000c 55       		pushq	%rbp
 4243              		.cfi_def_cfa_offset 48
 4244              		.cfi_offset 6, -48
 4245 000d 53       		pushq	%rbx
 4246              		.cfi_def_cfa_offset 56
 4247              		.cfi_offset 3, -56
 4248 000e 4881ECE8 		subq	$488, %rsp
 4248      010000
 4249              		.cfi_def_cfa_offset 544
 4250 0015 F30F7E0D 		movq	.LC2(%rip), %xmm1
 4250      00000000 
 4251 001d 48897C24 		movq	%rdi, 16(%rsp)
 4251      10
 4252 0022 48894C24 		movq	%rcx, 24(%rsp)
 4252      18
 4253 0027 0F160D00 		movhps	.LC3(%rip), %xmm1
 4253      000000
 4254 002e 64488B04 		movq	%fs:40, %rax
 4254      25280000 
 4254      00
 4255 0037 48898424 		movq	%rax, 472(%rsp)
 4255      D8010000 
 4256 003f 31C0     		xorl	%eax, %eax
 4257 0041 0FB602   		movzbl	(%rdx), %eax
 4258 0044 0F290C24 		movaps	%xmm1, (%rsp)
 4259 0048 3906     		cmpl	%eax, (%rsi)
 4260 004a 752C     		jne	.L262
 4261              	.L246:
 4262 004c 488B8424 		movq	472(%rsp), %rax
 4262      D8010000 
 4263 0054 64482B04 		subq	%fs:40, %rax
 4263      25280000 
 4263      00
 4264 005d 0F855F02 		jne	.L263
 4264      0000
 4265 0063 4881C4E8 		addq	$488, %rsp
 4265      010000
 4266              		.cfi_remember_state
 4267              		.cfi_def_cfa_offset 56
 4268 006a 5B       		popq	%rbx
 4269              		.cfi_def_cfa_offset 48
 4270 006b 5D       		popq	%rbp
 4271              		.cfi_def_cfa_offset 40
 4272 006c 415C     		popq	%r12
 4273              		.cfi_def_cfa_offset 32
 4274 006e 415D     		popq	%r13
 4275              		.cfi_def_cfa_offset 24
 4276 0070 415E     		popq	%r14
 4277              		.cfi_def_cfa_offset 16
 4278 0072 415F     		popq	%r15
 4279              		.cfi_def_cfa_offset 8
 4280 0074 C3       		ret
 4281              		.p2align 4,,10
 4282 0075 0F1F00   		.p2align 3
 4283              	.L262:
 4284              		.cfi_restore_state
 4285 0078 4C8DAC24 		leaq	208(%rsp), %r13
 4285      D0000000 
 4286 0080 4889F5   		movq	%rsi, %rbp
 4287 0083 4889D3   		movq	%rdx, %rbx
 4288 0086 4C89EF   		movq	%r13, %rdi
 4289 0089 E8000000 		call	_ZNSt8ios_baseC2Ev@PLT
 4289      00
 4290 008e 31C0     		xorl	%eax, %eax
 4291 0090 660FEFC0 		pxor	%xmm0, %xmm0
 4292 0094 31F6     		xorl	%esi, %esi
 4293 0096 66898424 		movw	%ax, 432(%rsp)
 4293      B0010000 
 4294 009e 488D0500 		leaq	24+_ZTCN8UnitTest15MemoryOutStreamE0_So(%rip), %rax
 4294      000000
 4295 00a5 4C89EF   		movq	%r13, %rdi
 4296 00a8 48894424 		movq	%rax, 64(%rsp)
 4296      40
 4297 00ad 4883C028 		addq	$40, %rax
 4298 00b1 48C78424 		movq	$0, 424(%rsp)
 4298      A8010000 
 4298      00000000 
 4299 00bd 48898424 		movq	%rax, 208(%rsp)
 4299      D0000000 
 4300 00c5 0F118424 		movups	%xmm0, 440(%rsp)
 4300      B8010000 
 4301 00cd 0F118424 		movups	%xmm0, 456(%rsp)
 4301      C8010000 
 4302              	.LEHB135:
 4303 00d5 E8000000 		call	_ZNSt9basic_iosIcSt11char_traitsIcEE4initEPSt15basic_streambufIcS1_E@PLT
 4303      00
 4304              	.LEHE135:
 4305 00da 660F6F0C 		movdqa	(%rsp), %xmm1
 4305      24
 4306 00df 660FEFC0 		pxor	%xmm0, %xmm0
 4307 00e3 4C8DB424 		leaq	128(%rsp), %r14
 4307      80000000 
 4308 00eb 488D0500 		leaq	64+_ZTCN8UnitTest15MemoryOutStreamE0_NSt7__cxx1119basic_ostringstreamIcSt11char_traitsIcESaIc
 4308      000000
 4309 00f2 4C89F7   		movq	%r14, %rdi
 4310 00f5 0F294424 		movaps	%xmm0, 80(%rsp)
 4310      50
 4311 00fa 4C8D6424 		leaq	64(%rsp), %r12
 4311      40
 4312 00ff 4C8D7C24 		leaq	72(%rsp), %r15
 4312      48
 4313 0104 48898424 		movq	%rax, 208(%rsp)
 4313      D0000000 
 4314 010c 0F294C24 		movaps	%xmm1, 64(%rsp)
 4314      40
 4315 0111 0F294424 		movaps	%xmm0, 96(%rsp)
 4315      60
 4316 0116 0F294424 		movaps	%xmm0, 112(%rsp)
 4316      70
 4317 011b E8000000 		call	_ZNSt6localeC1Ev@PLT
 4317      00
 4318 0120 488D0500 		leaq	16+_ZTVNSt7__cxx1115basic_stringbufIcSt11char_traitsIcESaIcEEE(%rip), %rax
 4318      000000
 4319 0127 C68424A0 		movb	$0, 160(%rsp)
 4319      00000000 
 4320 012f 4C89FE   		movq	%r15, %rsi
 4321 0132 48894424 		movq	%rax, 72(%rsp)
 4321      48
 4322 0137 488D8424 		leaq	160(%rsp), %rax
 4322      A0000000 
 4323 013f 48894424 		movq	%rax, 32(%rsp)
 4323      20
 4324 0144 48898424 		movq	%rax, 144(%rsp)
 4324      90000000 
 4325 014c 488B4424 		movq	64(%rsp), %rax
 4325      40
 4326 0151 48C78424 		movq	$0, 152(%rsp)
 4326      98000000 
 4326      00000000 
 4327 015d C7842488 		movl	$16, 136(%rsp)
 4327      00000010 
 4327      000000
 4328 0168 488B78E8 		movq	-24(%rax), %rdi
 4329 016c 4C01E7   		addq	%r12, %rdi
 4330              	.LEHB136:
 4331 016f E8000000 		call	_ZNSt9basic_iosIcSt11char_traitsIcEE4initEPSt15basic_streambufIcS1_E@PLT
 4331      00
 4332              	.LEHE136:
 4333 0174 4C8D3D00 		leaq	24+_ZTVN8UnitTest15MemoryOutStreamE(%rip), %r15
 4333      000000
 4334 017b BA090000 		movl	$9, %edx
 4334      00
 4335 0180 4C89E7   		movq	%r12, %rdi
 4336 0183 48C78424 		movq	$0, 184(%rsp)
 4336      B8000000 
 4336      00000000 
 4337 018f 498D4728 		leaq	40(%r15), %rax
 4338 0193 488D3500 		leaq	.LC0(%rip), %rsi
 4338      000000
 4339 019a 4C897C24 		movq	%r15, 64(%rsp)
 4339      40
 4340 019f 48898424 		movq	%rax, 208(%rsp)
 4340      D0000000 
 4341 01a7 488D8424 		leaq	192(%rsp), %rax
 4341      C0000000 
 4342 01af 48894424 		movq	%rax, 40(%rsp)
 4342      28
 4343 01b4 48898424 		movq	%rax, 176(%rsp)
 4343      B0000000 
 4344 01bc C68424C0 		movb	$0, 192(%rsp)
 4344      00000000 
 4345              	.LEHB137:
 4346 01c4 E8000000 		call	_ZSt16__ostream_insertIcSt11char_traitsIcEERSt13basic_ostreamIT_T0_ES6_PKS3_l@PLT
 4346      00
 4347 01c9 8B7500   		movl	0(%rbp), %esi
 4348 01cc 4C89E7   		movq	%r12, %rdi
 4349 01cf E8000000 		call	_ZNSolsEi@PLT
 4349      00
 4350 01d4 BA090000 		movl	$9, %edx
 4350      00
 4351 01d9 488D3500 		leaq	.LC1(%rip), %rsi
 4351      000000
 4352 01e0 4889C7   		movq	%rax, %rdi
 4353 01e3 4889C5   		movq	%rax, %rbp
 4354 01e6 E8000000 		call	_ZSt16__ostream_insertIcSt11char_traitsIcEERSt13basic_ostreamIT_T0_ES6_PKS3_l@PLT
 4354      00
 4355 01eb 0FB603   		movzbl	(%rbx), %eax
 4356 01ee 488D7424 		leaq	63(%rsp), %rsi
 4356      3F
 4357 01f3 BA010000 		movl	$1, %edx
 4357      00
 4358 01f8 4889EF   		movq	%rbp, %rdi
 4359 01fb 8844243F 		movb	%al, 63(%rsp)
 4360 01ff E8000000 		call	_ZSt16__ostream_insertIcSt11char_traitsIcEERSt13basic_ostreamIT_T0_ES6_PKS3_l@PLT
 4360      00
 4361 0204 4C89E7   		movq	%r12, %rdi
 4362 0207 E8000000 		call	_ZNK8UnitTest15MemoryOutStream7GetTextEv@PLT
 4362      00
 4363 020c 488B7424 		movq	24(%rsp), %rsi
 4363      18
 4364 0211 488B7C24 		movq	16(%rsp), %rdi
 4364      10
 4365 0216 4889C2   		movq	%rax, %rdx
 4366 0219 F30F7E15 		movq	.LC2(%rip), %xmm2
 4366      00000000 
 4367 0221 0F161500 		movhps	.LC4(%rip), %xmm2
 4367      000000
 4368 0228 0F291424 		movaps	%xmm2, (%rsp)
 4369 022c E8000000 		call	_ZN8UnitTest11TestResults13OnTestFailureERKNS_11TestDetailsEPKc@PLT
 4369      00
 4370              	.LEHE137:
 4371 0231 488D0500 		leaq	64+_ZTVN8UnitTest15MemoryOutStreamE(%rip), %rax
 4371      000000
 4372 0238 4C897C24 		movq	%r15, 64(%rsp)
 4372      40
 4373 023d 488BBC24 		movq	176(%rsp), %rdi
 4373      B0000000 
 4374 0245 48898424 		movq	%rax, 208(%rsp)
 4374      D0000000 
 4375 024d 483B7C24 		cmpq	40(%rsp), %rdi
 4375      28
 4376 0252 7405     		je	.L252
 4377 0254 E8000000 		call	_ZdlPv@PLT
 4377      00
 4378              	.L252:
 4379 0259 660F6F1C 		movdqa	(%rsp), %xmm3
 4379      24
 4380 025e 488D0500 		leaq	64+_ZTCN8UnitTest15MemoryOutStreamE0_NSt7__cxx1119basic_ostringstreamIcSt11char_traitsIcESaIc
 4380      000000
 4381 0265 488BBC24 		movq	144(%rsp), %rdi
 4381      90000000 
 4382 026d 48898424 		movq	%rax, 208(%rsp)
 4382      D0000000 
 4383 0275 0F295C24 		movaps	%xmm3, 64(%rsp)
 4383      40
 4384 027a 483B7C24 		cmpq	32(%rsp), %rdi
 4384      20
 4385 027f 7405     		je	.L253
 4386 0281 E8000000 		call	_ZdlPv@PLT
 4386      00
 4387              	.L253:
 4388 0286 488D0500 		leaq	16+_ZTVSt15basic_streambufIcSt11char_traitsIcEE(%rip), %rax
 4388      000000
 4389 028d 4C89F7   		movq	%r14, %rdi
 4390 0290 48894424 		movq	%rax, 72(%rsp)
 4390      48
 4391 0295 E8000000 		call	_ZNSt6localeD1Ev@PLT
 4391      00
 4392 029a 488D0500 		leaq	24+_ZTCN8UnitTest15MemoryOutStreamE0_So(%rip), %rax
 4392      000000
 4393 02a1 4C89EF   		movq	%r13, %rdi
 4394 02a4 48894424 		movq	%rax, 64(%rsp)
 4394      40
 4395 02a9 488D0500 		leaq	16+_ZTVSt9basic_iosIcSt11char_traitsIcEE(%rip), %rax
 4395      000000
 4396 02b0 48898424 		movq	%rax, 208(%rsp)
 4396      D0000000 
 4397              	.LEHB138:
 4398 02b8 E8000000 		call	_ZNSt8ios_baseD2Ev@PLT
 4398      00
 4399              	.LEHE138:
 4400 02bd E98AFDFF 		jmp	.L246
 4400      FF
 4401              	.L263:
 4402 02c2 E8000000 		call	__stack_chk_fail@PLT
 4402      00
 4403              	.L257:
 4404 02c7 F30F1EFA 		endbr64
 4405 02cb 4889C5   		movq	%rax, %rbp
 4406 02ce EB26     		jmp	.L250
 4407              	.L258:
 4408 02d0 F30F1EFA 		endbr64
 4409 02d4 4889C5   		movq	%rax, %rbp
 4410 02d7 EB09     		jmp	.L249
 4411              	.L256:
 4412 02d9 F30F1EFA 		endbr64
 4413 02dd 4889C5   		movq	%rax, %rbp
 4414 02e0 EB33     		jmp	.L254
 4415              	.L249:
 4416 02e2 4C89FF   		movq	%r15, %rdi
 4417 02e5 E8000000 		call	_ZNSt7__cxx1115basic_stringbufIcSt11char_traitsIcESaIcEED1Ev
 4417      00
 4418 02ea 488D0500 		leaq	24+_ZTCN8UnitTest15MemoryOutStreamE0_So(%rip), %rax
 4418      000000
 4419 02f1 48894424 		movq	%rax, 64(%rsp)
 4419      40
 4420              	.L250:
 4421 02f6 488D0500 		leaq	16+_ZTVSt9basic_iosIcSt11char_traitsIcEE(%rip), %rax
 4421      000000
 4422 02fd 4C89EF   		movq	%r13, %rdi
 4423 0300 48898424 		movq	%rax, 208(%rsp)
 4423      D0000000 
 4424 0308 E8000000 		call	_ZNSt8ios_baseD2Ev@PLT
 4424      00
 4425 030d 4889EF   		movq	%rbp, %rdi
 4426              	.LEHB139:
 4427 0310 E8000000 		call	_Unwind_Resume@PLT
 4427      00
 4428              	.LEHE139:
 4429              	.L254:
 4430 0315 4C89E7   		movq	%r12, %rdi
 4431 0318 E8000000 		call	_ZN8UnitTest15MemoryOutStreamD1Ev
 4431      00
 4432 031d 4889EF   		movq	%rbp, %rdi
 4433              	.LEHB140:
 4434 0320 E8000000 		call	_Unwind_Resume@PLT
 4434      00
 4435              	.LEHE140:
 4436              		.cfi_endproc
 4437              	.LFE1393:
 4438              		.section	.gcc_except_table
 4439              	.LLSDA1393:
 4440 02ac FF       		.byte	0xff
 4441 02ad FF       		.byte	0xff
 4442 02ae 01       		.byte	0x1
 4443 02af 21       		.uleb128 .LLSDACSE1393-.LLSDACSB1393
 4444              	.LLSDACSB1393:
 4445 02b0 D501     		.uleb128 .LEHB135-.LFB1393
 4446 02b2 05       		.uleb128 .LEHE135-.LEHB135
 4447 02b3 C705     		.uleb128 .L257-.LFB1393
 4448 02b5 00       		.uleb128 0
 4449 02b6 EF02     		.uleb128 .LEHB136-.LFB1393
 4450 02b8 05       		.uleb128 .LEHE136-.LEHB136
 4451 02b9 D005     		.uleb128 .L258-.LFB1393
 4452 02bb 00       		.uleb128 0
 4453 02bc C403     		.uleb128 .LEHB137-.LFB1393
 4454 02be 6D       		.uleb128 .LEHE137-.LEHB137
 4455 02bf D905     		.uleb128 .L256-.LFB1393
 4456 02c1 00       		.uleb128 0
 4457 02c2 B805     		.uleb128 .LEHB138-.LFB1393
 4458 02c4 05       		.uleb128 .LEHE138-.LEHB138
 4459 02c5 00       		.uleb128 0
 4460 02c6 00       		.uleb128 0
 4461 02c7 9006     		.uleb128 .LEHB139-.LFB1393
 4462 02c9 05       		.uleb128 .LEHE139-.LEHB139
 4463 02ca 00       		.uleb128 0
 4464 02cb 00       		.uleb128 0
 4465 02cc A006     		.uleb128 .LEHB140-.LFB1393
 4466 02ce 05       		.uleb128 .LEHE140-.LEHB140
 4467 02cf 00       		.uleb128 0
 4468 02d0 00       		.uleb128 0
 4469              	.LLSDACSE1393:
 4470              		.section	.text._ZN8UnitTest10CheckEqualIihEEvRNS_11TestResultsERKT_RKT0_RKNS_11TestDetailsE,"axG",
 4472              		.section	.text._ZN8UnitTest10CheckEqualImmEEvRNS_11TestResultsERKT_RKT0_RKNS_11TestDetailsE,"axG",
 4473              		.p2align 4
 4474              		.weak	_ZN8UnitTest10CheckEqualImmEEvRNS_11TestResultsERKT_RKT0_RKNS_11TestDetailsE
 4476              	_ZN8UnitTest10CheckEqualImmEEvRNS_11TestResultsERKT_RKT0_RKNS_11TestDetailsE:
 4477              	.LFB1394:
 4478              		.cfi_startproc
 4479              		.cfi_personality 0x9b,DW.ref.__gxx_personality_v0
 4480              		.cfi_lsda 0x1b,.LLSDA1394
 4481 0000 F30F1EFA 		endbr64
 4482 0004 4157     		pushq	%r15
 4483              		.cfi_def_cfa_offset 16
 4484              		.cfi_offset 15, -16
 4485 0006 4156     		pushq	%r14
 4486              		.cfi_def_cfa_offset 24
 4487              		.cfi_offset 14, -24
 4488 0008 4155     		pushq	%r13
 4489              		.cfi_def_cfa_offset 32
 4490              		.cfi_offset 13, -32
 4491 000a 4154     		pushq	%r12
 4492              		.cfi_def_cfa_offset 40
 4493              		.cfi_offset 12, -40
 4494 000c 55       		pushq	%rbp
 4495              		.cfi_def_cfa_offset 48
 4496              		.cfi_offset 6, -48
 4497 000d 53       		pushq	%rbx
 4498              		.cfi_def_cfa_offset 56
 4499              		.cfi_offset 3, -56
 4500 000e 4881ECD8 		subq	$472, %rsp
 4500      010000
 4501              		.cfi_def_cfa_offset 528
 4502 0015 F30F7E0D 		movq	.LC2(%rip), %xmm1
 4502      00000000 
 4503 001d 48897C24 		movq	%rdi, 16(%rsp)
 4503      10
 4504 0022 48894C24 		movq	%rcx, 24(%rsp)
 4504      18
 4505 0027 0F160D00 		movhps	.LC3(%rip), %xmm1
 4505      000000
 4506 002e 64488B04 		movq	%fs:40, %rax
 4506      25280000 
 4506      00
 4507 0037 48898424 		movq	%rax, 456(%rsp)
 4507      C8010000 
 4508 003f 31C0     		xorl	%eax, %eax
 4509 0041 488B02   		movq	(%rdx), %rax
 4510 0044 0F290C24 		movaps	%xmm1, (%rsp)
 4511 0048 483906   		cmpq	%rax, (%rsi)
 4512 004b 7533     		jne	.L280
 4513              	.L264:
 4514 004d 488B8424 		movq	456(%rsp), %rax
 4514      C8010000 
 4515 0055 64482B04 		subq	%fs:40, %rax
 4515      25280000 
 4515      00
 4516 005e 0F855302 		jne	.L281
 4516      0000
 4517 0064 4881C4D8 		addq	$472, %rsp
 4517      010000
 4518              		.cfi_remember_state
 4519              		.cfi_def_cfa_offset 56
 4520 006b 5B       		popq	%rbx
 4521              		.cfi_def_cfa_offset 48
 4522 006c 5D       		popq	%rbp
 4523              		.cfi_def_cfa_offset 40
 4524 006d 415C     		popq	%r12
 4525              		.cfi_def_cfa_offset 32
 4526 006f 415D     		popq	%r13
 4527              		.cfi_def_cfa_offset 24
 4528 0071 415E     		popq	%r14
 4529              		.cfi_def_cfa_offset 16
 4530 0073 415F     		popq	%r15
 4531              		.cfi_def_cfa_offset 8
 4532 0075 C3       		ret
 4533 0076 662E0F1F 		.p2align 4,,10
 4533      84000000 
 4533      0000
 4534              		.p2align 3
 4535              	.L280:
 4536              		.cfi_restore_state
 4537 0080 4C8DAC24 		leaq	192(%rsp), %r13
 4537      C0000000 
 4538 0088 4889F5   		movq	%rsi, %rbp
 4539 008b 4889D3   		movq	%rdx, %rbx
 4540 008e 4C89EF   		movq	%r13, %rdi
 4541 0091 E8000000 		call	_ZNSt8ios_baseC2Ev@PLT
 4541      00
 4542 0096 31C0     		xorl	%eax, %eax
 4543 0098 660FEFC0 		pxor	%xmm0, %xmm0
 4544 009c 31F6     		xorl	%esi, %esi
 4545 009e 66898424 		movw	%ax, 416(%rsp)
 4545      A0010000 
 4546 00a6 488D0500 		leaq	24+_ZTCN8UnitTest15MemoryOutStreamE0_So(%rip), %rax
 4546      000000
 4547 00ad 4C89EF   		movq	%r13, %rdi
 4548 00b0 48894424 		movq	%rax, 48(%rsp)
 4548      30
 4549 00b5 4883C028 		addq	$40, %rax
 4550 00b9 48C78424 		movq	$0, 408(%rsp)
 4550      98010000 
 4550      00000000 
 4551 00c5 48898424 		movq	%rax, 192(%rsp)
 4551      C0000000 
 4552 00cd 0F118424 		movups	%xmm0, 424(%rsp)
 4552      A8010000 
 4553 00d5 0F118424 		movups	%xmm0, 440(%rsp)
 4553      B8010000 
 4554              	.LEHB141:
 4555 00dd E8000000 		call	_ZNSt9basic_iosIcSt11char_traitsIcEE4initEPSt15basic_streambufIcS1_E@PLT
 4555      00
 4556              	.LEHE141:
 4557 00e2 660F6F0C 		movdqa	(%rsp), %xmm1
 4557      24
 4558 00e7 4C8D7424 		leaq	112(%rsp), %r14
 4558      70
 4559 00ec 660FEFC0 		pxor	%xmm0, %xmm0
 4560 00f0 488D0500 		leaq	64+_ZTCN8UnitTest15MemoryOutStreamE0_NSt7__cxx1119basic_ostringstreamIcSt11char_traitsIcESaIc
 4560      000000
 4561 00f7 4C89F7   		movq	%r14, %rdi
 4562 00fa 0F294424 		movaps	%xmm0, 64(%rsp)
 4562      40
 4563 00ff 4C8D6424 		leaq	48(%rsp), %r12
 4563      30
 4564 0104 4C8D7C24 		leaq	56(%rsp), %r15
 4564      38
 4565 0109 48898424 		movq	%rax, 192(%rsp)
 4565      C0000000 
 4566 0111 0F294C24 		movaps	%xmm1, 48(%rsp)
 4566      30
 4567 0116 0F294424 		movaps	%xmm0, 80(%rsp)
 4567      50
 4568 011b 0F294424 		movaps	%xmm0, 96(%rsp)
 4568      60
 4569 0120 E8000000 		call	_ZNSt6localeC1Ev@PLT
 4569      00
 4570 0125 488D0500 		leaq	16+_ZTVNSt7__cxx1115basic_stringbufIcSt11char_traitsIcESaIcEEE(%rip), %rax
 4570      000000
 4571 012c 4C89FE   		movq	%r15, %rsi
 4572 012f 48C78424 		movq	$0, 136(%rsp)
 4572      88000000 
 4572      00000000 
 4573 013b 48894424 		movq	%rax, 56(%rsp)
 4573      38
 4574 0140 488D8424 		leaq	144(%rsp), %rax
 4574      90000000 
 4575 0148 48894424 		movq	%rax, 32(%rsp)
 4575      20
 4576 014d 48898424 		movq	%rax, 128(%rsp)
 4576      80000000 
 4577 0155 488B4424 		movq	48(%rsp), %rax
 4577      30
 4578 015a C6842490 		movb	$0, 144(%rsp)
 4578      00000000 
 4579 0162 488B78E8 		movq	-24(%rax), %rdi
 4580 0166 C7442478 		movl	$16, 120(%rsp)
 4580      10000000 
 4581 016e 4C01E7   		addq	%r12, %rdi
 4582              	.LEHB142:
 4583 0171 E8000000 		call	_ZNSt9basic_iosIcSt11char_traitsIcEE4initEPSt15basic_streambufIcS1_E@PLT
 4583      00
 4584              	.LEHE142:
 4585 0176 4C8D3D00 		leaq	24+_ZTVN8UnitTest15MemoryOutStreamE(%rip), %r15
 4585      000000
 4586 017d BA090000 		movl	$9, %edx
 4586      00
 4587 0182 4C89E7   		movq	%r12, %rdi
 4588 0185 48C78424 		movq	$0, 168(%rsp)
 4588      A8000000 
 4588      00000000 
 4589 0191 498D4728 		leaq	40(%r15), %rax
 4590 0195 488D3500 		leaq	.LC0(%rip), %rsi
 4590      000000
 4591 019c 4C897C24 		movq	%r15, 48(%rsp)
 4591      30
 4592 01a1 48898424 		movq	%rax, 192(%rsp)
 4592      C0000000 
 4593 01a9 488D8424 		leaq	176(%rsp), %rax
 4593      B0000000 
 4594 01b1 48894424 		movq	%rax, 40(%rsp)
 4594      28
 4595 01b6 48898424 		movq	%rax, 160(%rsp)
 4595      A0000000 
 4596 01be C68424B0 		movb	$0, 176(%rsp)
 4596      00000000 
 4597              	.LEHB143:
 4598 01c6 E8000000 		call	_ZSt16__ostream_insertIcSt11char_traitsIcEERSt13basic_ostreamIT_T0_ES6_PKS3_l@PLT
 4598      00
 4599 01cb 488B7500 		movq	0(%rbp), %rsi
 4600 01cf 4C89E7   		movq	%r12, %rdi
 4601 01d2 E8000000 		call	_ZNSo9_M_insertImEERSoT_@PLT
 4601      00
 4602 01d7 BA090000 		movl	$9, %edx
 4602      00
 4603 01dc 488D3500 		leaq	.LC1(%rip), %rsi
 4603      000000
 4604 01e3 4889C7   		movq	%rax, %rdi
 4605 01e6 4889C5   		movq	%rax, %rbp
 4606 01e9 E8000000 		call	_ZSt16__ostream_insertIcSt11char_traitsIcEERSt13basic_ostreamIT_T0_ES6_PKS3_l@PLT
 4606      00
 4607 01ee 488B33   		movq	(%rbx), %rsi
 4608 01f1 4889EF   		movq	%rbp, %rdi
 4609 01f4 E8000000 		call	_ZNSo9_M_insertImEERSoT_@PLT
 4609      00
 4610 01f9 4C89E7   		movq	%r12, %rdi
 4611 01fc E8000000 		call	_ZNK8UnitTest15MemoryOutStream7GetTextEv@PLT
 4611      00
 4612 0201 488B7424 		movq	24(%rsp), %rsi
 4612      18
 4613 0206 488B7C24 		movq	16(%rsp), %rdi
 4613      10
 4614 020b 4889C2   		movq	%rax, %rdx
 4615 020e F30F7E15 		movq	.LC2(%rip), %xmm2
 4615      00000000 
 4616 0216 0F161500 		movhps	.LC4(%rip), %xmm2
 4616      000000
 4617 021d 0F291424 		movaps	%xmm2, (%rsp)
 4618 0221 E8000000 		call	_ZN8UnitTest11TestResults13OnTestFailureERKNS_11TestDetailsEPKc@PLT
 4618      00
 4619              	.LEHE143:
 4620 0226 488D0500 		leaq	64+_ZTVN8UnitTest15MemoryOutStreamE(%rip), %rax
 4620      000000
 4621 022d 4C897C24 		movq	%r15, 48(%rsp)
 4621      30
 4622 0232 488BBC24 		movq	160(%rsp), %rdi
 4622      A0000000 
 4623 023a 48898424 		movq	%rax, 192(%rsp)
 4623      C0000000 
 4624 0242 483B7C24 		cmpq	40(%rsp), %rdi
 4624      28
 4625 0247 7405     		je	.L270
 4626 0249 E8000000 		call	_ZdlPv@PLT
 4626      00
 4627              	.L270:
 4628 024e 660F6F1C 		movdqa	(%rsp), %xmm3
 4628      24
 4629 0253 488D0500 		leaq	64+_ZTCN8UnitTest15MemoryOutStreamE0_NSt7__cxx1119basic_ostringstreamIcSt11char_traitsIcESaIc
 4629      000000
 4630 025a 488BBC24 		movq	128(%rsp), %rdi
 4630      80000000 
 4631 0262 48898424 		movq	%rax, 192(%rsp)
 4631      C0000000 
 4632 026a 0F295C24 		movaps	%xmm3, 48(%rsp)
 4632      30
 4633 026f 483B7C24 		cmpq	32(%rsp), %rdi
 4633      20
 4634 0274 7405     		je	.L271
 4635 0276 E8000000 		call	_ZdlPv@PLT
 4635      00
 4636              	.L271:
 4637 027b 488D0500 		leaq	16+_ZTVSt15basic_streambufIcSt11char_traitsIcEE(%rip), %rax
 4637      000000
 4638 0282 4C89F7   		movq	%r14, %rdi
 4639 0285 48894424 		movq	%rax, 56(%rsp)
 4639      38
 4640 028a E8000000 		call	_ZNSt6localeD1Ev@PLT
 4640      00
 4641 028f 488D0500 		leaq	24+_ZTCN8UnitTest15MemoryOutStreamE0_So(%rip), %rax
 4641      000000
 4642 0296 4C89EF   		movq	%r13, %rdi
 4643 0299 48894424 		movq	%rax, 48(%rsp)
 4643      30
 4644 029e 488D0500 		leaq	16+_ZTVSt9basic_iosIcSt11char_traitsIcEE(%rip), %rax
 4644      000000
 4645 02a5 48898424 		movq	%rax, 192(%rsp)
 4645      C0000000 
 4646              	.LEHB144:
 4647 02ad E8000000 		call	_ZNSt8ios_baseD2Ev@PLT
 4647      00
 4648              	.LEHE144:
 4649 02b2 E996FDFF 		jmp	.L264
 4649      FF
 4650              	.L281:
 4651 02b7 E8000000 		call	__stack_chk_fail@PLT
 4651      00
 4652              	.L275:
 4653 02bc F30F1EFA 		endbr64
 4654 02c0 4889C5   		movq	%rax, %rbp
 4655 02c3 EB26     		jmp	.L268
 4656              	.L276:
 4657 02c5 F30F1EFA 		endbr64
 4658 02c9 4889C5   		movq	%rax, %rbp
 4659 02cc EB09     		jmp	.L267
 4660              	.L274:
 4661 02ce F30F1EFA 		endbr64
 4662 02d2 4889C5   		movq	%rax, %rbp
 4663 02d5 EB33     		jmp	.L272
 4664              	.L267:
 4665 02d7 4C89FF   		movq	%r15, %rdi
 4666 02da E8000000 		call	_ZNSt7__cxx1115basic_stringbufIcSt11char_traitsIcESaIcEED1Ev
 4666      00
 4667 02df 488D0500 		leaq	24+_ZTCN8UnitTest15MemoryOutStreamE0_So(%rip), %rax
 4667      000000
 4668 02e6 48894424 		movq	%rax, 48(%rsp)
 4668      30
 4669              	.L268:
 4670 02eb 488D0500 		leaq	16+_ZTVSt9basic_iosIcSt11char_traitsIcEE(%rip), %rax
 4670      000000
 4671 02f2 4C89EF   		movq	%r13, %rdi
 4672 02f5 48898424 		movq	%rax, 192(%rsp)
 4672      C0000000 
 4673 02fd E8000000 		call	_ZNSt8ios_baseD2Ev@PLT
 4673      00
 4674 0302 4889EF   		movq	%rbp, %rdi
 4675              	.LEHB145:
 4676 0305 E8000000 		call	_Unwind_Resume@PLT
 4676      00
 4677              	.LEHE145:
 4678              	.L272:
 4679 030a 4C89E7   		movq	%r12, %rdi
 4680 030d E8000000 		call	_ZN8UnitTest15MemoryOutStreamD1Ev
 4680      00
 4681 0312 4889EF   		movq	%rbp, %rdi
 4682              	.LEHB146:
 4683 0315 E8000000 		call	_Unwind_Resume@PLT
 4683      00
 4684              	.LEHE146:
 4685              		.cfi_endproc
 4686              	.LFE1394:
 4687              		.section	.gcc_except_table
 4688              	.LLSDA1394:
 4689 02d1 FF       		.byte	0xff
 4690 02d2 FF       		.byte	0xff
 4691 02d3 01       		.byte	0x1
 4692 02d4 21       		.uleb128 .LLSDACSE1394-.LLSDACSB1394
 4693              	.LLSDACSB1394:
 4694 02d5 DD01     		.uleb128 .LEHB141-.LFB1394
 4695 02d7 05       		.uleb128 .LEHE141-.LEHB141
 4696 02d8 BC05     		.uleb128 .L275-.LFB1394
 4697 02da 00       		.uleb128 0
 4698 02db F102     		.uleb128 .LEHB142-.LFB1394
 4699 02dd 05       		.uleb128 .LEHE142-.LEHB142
 4700 02de C505     		.uleb128 .L276-.LFB1394
 4701 02e0 00       		.uleb128 0
 4702 02e1 C603     		.uleb128 .LEHB143-.LFB1394
 4703 02e3 60       		.uleb128 .LEHE143-.LEHB143
 4704 02e4 CE05     		.uleb128 .L274-.LFB1394
 4705 02e6 00       		.uleb128 0
 4706 02e7 AD05     		.uleb128 .LEHB144-.LFB1394
 4707 02e9 05       		.uleb128 .LEHE144-.LEHB144
 4708 02ea 00       		.uleb128 0
 4709 02eb 00       		.uleb128 0
 4710 02ec 8506     		.uleb128 .LEHB145-.LFB1394
 4711 02ee 05       		.uleb128 .LEHE145-.LEHB145
 4712 02ef 00       		.uleb128 0
 4713 02f0 00       		.uleb128 0
 4714 02f1 9506     		.uleb128 .LEHB146-.LFB1394
 4715 02f3 05       		.uleb128 .LEHE146-.LEHB146
 4716 02f4 00       		.uleb128 0
 4717 02f5 00       		.uleb128 0
 4718              	.LLSDACSE1394:
 4719              		.section	.text._ZN8UnitTest10CheckEqualImmEEvRNS_11TestResultsERKT_RKT0_RKNS_11TestDetailsE,"axG",
 4721              		.section	.rodata.str1.1
 4722              	.LC33:
 4723 00be 3A303030 		.string	":00000001FF\n"
 4723      30303030 
 4723      3146460A 
 4723      00
 4724              		.section	.rodata.str1.8
 4725 0275 000000   		.align 8
 4726              	.LC34:
 4727 0278 556E6861 		.string	"Unhandled exception in CHECK_EQUAL(0x01, recordType)"
 4727      6E646C65 
 4727      64206578 
 4727      63657074 
 4727      696F6E20 
 4728 02ad 000000   		.align 8
 4729              	.LC35:
 4730 02b0 556E6861 		.string	"Unhandled exception in CHECK_EQUAL(0UL, data.length)"
 4730      6E646C65 
 4730      64206578 
 4730      63657074 
 4730      696F6E20 
 4731 02e5 000000   		.align 8
 4732              	.LC36:
 4733 02e8 556E6861 		.string	"Unhandled exception in CHECK_EQUAL(0UL, mask.length)"
 4733      6E646C65 
 4733      64206578 
 4733      63657074 
 4733      696F6E20 
 4734              		.section	.text.unlikely
 4735 05f9 90       		.align 2
 4736              	.LCOLDB37:
 4737              		.text
 4738              	.LHOTB37:
 4739              		.align 2
 4740 0a1a 660F1F44 		.p2align 4
 4740      0000
 4741              		.globl	_ZNK22TestHexIO_testValidEOF7RunImplEv
 4743              	_ZNK22TestHexIO_testValidEOF7RunImplEv:
 4744              	.LFB1314:
 4745              		.cfi_startproc
 4746              		.cfi_personality 0x9b,DW.ref.__gxx_personality_v0
 4747              		.cfi_lsda 0x1b,.LLSDA1314
 4748 0a20 F30F1EFA 		endbr64
 4749 0a24 4157     		pushq	%r15
 4750              		.cfi_def_cfa_offset 16
 4751              		.cfi_offset 15, -16
 4752 0a26 31C9     		xorl	%ecx, %ecx
 4753 0a28 31D2     		xorl	%edx, %edx
 4754 0a2a BE000400 		movl	$1024, %esi
 4754      00
 4755 0a2f 4156     		pushq	%r14
 4756              		.cfi_def_cfa_offset 24
 4757              		.cfi_offset 14, -24
 4758 0a31 4155     		pushq	%r13
 4759              		.cfi_def_cfa_offset 32
 4760              		.cfi_offset 13, -32
 4761 0a33 4154     		pushq	%r12
 4762              		.cfi_def_cfa_offset 40
 4763              		.cfi_offset 12, -40
 4764 0a35 55       		pushq	%rbp
 4765              		.cfi_def_cfa_offset 48
 4766              		.cfi_offset 6, -48
 4767 0a36 4881EC90 		subq	$144, %rsp
 4767      000000
 4768              		.cfi_def_cfa_offset 192
 4769 0a3d 64488B04 		movq	%fs:40, %rax
 4769      25280000 
 4769      00
 4770 0a46 48898424 		movq	%rax, 136(%rsp)
 4770      88000000 
 4771 0a4e 31C0     		xorl	%eax, %eax
 4772 0a50 4C8D6C24 		leaq	32(%rsp), %r13
 4772      20
 4773 0a55 C7442414 		movl	$0, 20(%rsp)
 4773      00000000 
 4774 0a5d 4C89EF   		movq	%r13, %rdi
 4775              	.LEHB147:
 4776 0a60 E8000000 		call	bufInitialise@PLT
 4776      00
 4777              	.LEHE147:
 4778 0a65 89442410 		movl	%eax, 16(%rsp)
 4779              	.LEHB148:
 4780 0a69 E8000000 		call	_ZN8UnitTest11CurrentTest7DetailsEv@PLT
 4780      00
 4781 0a6e 488D6C24 		leaq	96(%rsp), %rbp
 4781      60
 4782 0a73 488B30   		movq	(%rax), %rsi
 4783 0a76 BA390000 		movl	$57, %edx
 4783      00
 4784 0a7b 4889EF   		movq	%rbp, %rdi
 4785 0a7e E8000000 		call	_ZN8UnitTest11TestDetailsC1ERKS0_i@PLT
 4785      00
 4786 0a83 C7442440 		movl	$0, 64(%rsp)
 4786      00000000 
 4787 0a8b E8000000 		call	_ZN8UnitTest11CurrentTest7ResultsEv@PLT
 4787      00
 4788 0a90 4C8D6424 		leaq	64(%rsp), %r12
 4788      40
 4789 0a95 488B38   		movq	(%rax), %rdi
 4790 0a98 488D5424 		leaq	16(%rsp), %rdx
 4790      10
 4791 0a9d 4889E9   		movq	%rbp, %rcx
 4792 0aa0 4C89E6   		movq	%r12, %rsi
 4793 0aa3 E8000000 		call	_ZN8UnitTest10CheckEqualI12BufferStatusS1_EEvRNS_11TestResultsERKT_RKT0_RKNS_11TestDetailsE
 4793      00
 4794              	.LEHE148:
 4795              	.L284:
 4796 0aa8 31C9     		xorl	%ecx, %ecx
 4797 0aaa 31D2     		xorl	%edx, %edx
 4798 0aac BE000400 		movl	$1024, %esi
 4798      00
 4799 0ab1 4C89E7   		movq	%r12, %rdi
 4800              	.LEHB149:
 4801 0ab4 E8000000 		call	bufInitialise@PLT
 4801      00
 4802              	.LEHE149:
 4803 0ab9 89442410 		movl	%eax, 16(%rsp)
 4804              	.LEHB150:
 4805 0abd E8000000 		call	_ZN8UnitTest11CurrentTest7DetailsEv@PLT
 4805      00
 4806 0ac2 488B30   		movq	(%rax), %rsi
 4807 0ac5 BA3B0000 		movl	$59, %edx
 4807      00
 4808 0aca 4889EF   		movq	%rbp, %rdi
 4809 0acd E8000000 		call	_ZN8UnitTest11TestDetailsC1ERKS0_i@PLT
 4809      00
 4810 0ad2 C7442418 		movl	$0, 24(%rsp)
 4810      00000000 
 4811 0ada E8000000 		call	_ZN8UnitTest11CurrentTest7ResultsEv@PLT
 4811      00
 4812 0adf 488B38   		movq	(%rax), %rdi
 4813 0ae2 488D5424 		leaq	16(%rsp), %rdx
 4813      10
 4814 0ae7 488D7424 		leaq	24(%rsp), %rsi
 4814      18
 4815 0aec 4889E9   		movq	%rbp, %rcx
 4816 0aef E8000000 		call	_ZN8UnitTest10CheckEqualI12BufferStatusS1_EEvRNS_11TestResultsERKT_RKT0_RKNS_11TestDetailsE
 4816      00
 4817              	.LEHE150:
 4818              	.L287:
 4819 0af4 4C8D7424 		leaq	15(%rsp), %r14
 4819      0F
 4820 0af9 4883EC08 		subq	$8, %rsp
 4821              		.cfi_def_cfa_offset 200
 4822 0afd 4C89EA   		movq	%r13, %rdx
 4823 0b00 4C89E1   		movq	%r12, %rcx
 4824 0b03 6A00     		pushq	$0
 4825              		.cfi_def_cfa_offset 208
 4826 0b05 4D89F1   		movq	%r14, %r9
 4827 0b08 31F6     		xorl	%esi, %esi
 4828 0b0a 488D3D00 		leaq	.LC33(%rip), %rdi
 4828      000000
 4829 0b11 4C8D4424 		leaq	36(%rsp), %r8
 4829      24
 4830              	.LEHB151:
 4831 0b16 E8000000 		call	bufProcessLine@PLT
 4831      00
 4832              	.LEHE151:
 4833 0b1b 89442420 		movl	%eax, 32(%rsp)
 4834 0b1f 58       		popq	%rax
 4835              		.cfi_def_cfa_offset 200
 4836 0b20 5A       		popq	%rdx
 4837              		.cfi_def_cfa_offset 192
 4838              	.LEHB152:
 4839 0b21 E8000000 		call	_ZN8UnitTest11CurrentTest7DetailsEv@PLT
 4839      00
 4840 0b26 488B30   		movq	(%rax), %rsi
 4841 0b29 BA3D0000 		movl	$61, %edx
 4841      00
 4842 0b2e 4889EF   		movq	%rbp, %rdi
 4843 0b31 E8000000 		call	_ZN8UnitTest11TestDetailsC1ERKS0_i@PLT
 4843      00
 4844 0b36 C7442418 		movl	$0, 24(%rsp)
 4844      00000000 
 4845 0b3e E8000000 		call	_ZN8UnitTest11CurrentTest7ResultsEv@PLT
 4845      00
 4846 0b43 488B38   		movq	(%rax), %rdi
 4847 0b46 488D5424 		leaq	16(%rsp), %rdx
 4847      10
 4848 0b4b 488D7424 		leaq	24(%rsp), %rsi
 4848      18
 4849 0b50 4889E9   		movq	%rbp, %rcx
 4850 0b53 E8000000 		call	_ZN8UnitTest10CheckEqualI12BufferStatusS1_EEvRNS_11TestResultsERKT_RKT0_RKNS_11TestDetailsE
 4850      00
 4851              	.LEHE152:
 4852              	.L290:
 4853              	.LEHB153:
 4854 0b58 E8000000 		call	_ZN8UnitTest11CurrentTest7DetailsEv@PLT
 4854      00
 4855 0b5d 488B30   		movq	(%rax), %rsi
 4856 0b60 BA3E0000 		movl	$62, %edx
 4856      00
 4857 0b65 4889EF   		movq	%rbp, %rdi
 4858 0b68 E8000000 		call	_ZN8UnitTest11TestDetailsC1ERKS0_i@PLT
 4858      00
 4859 0b6d C7442418 		movl	$1, 24(%rsp)
 4859      01000000 
 4860 0b75 E8000000 		call	_ZN8UnitTest11CurrentTest7ResultsEv@PLT
 4860      00
 4861 0b7a 488B38   		movq	(%rax), %rdi
 4862 0b7d 488D7424 		leaq	24(%rsp), %rsi
 4862      18
 4863 0b82 4889E9   		movq	%rbp, %rcx
 4864 0b85 4C89F2   		movq	%r14, %rdx
 4865 0b88 E8000000 		call	_ZN8UnitTest10CheckEqualIihEEvRNS_11TestResultsERKT_RKT0_RKNS_11TestDetailsE
 4865      00
 4866              	.LEHE153:
 4867              	.L293:
 4868              	.LEHB154:
 4869 0b8d E8000000 		call	_ZN8UnitTest11CurrentTest7DetailsEv@PLT
 4869      00
 4870 0b92 488B30   		movq	(%rax), %rsi
 4871 0b95 BA3F0000 		movl	$63, %edx
 4871      00
 4872 0b9a 4889EF   		movq	%rbp, %rdi
 4873 0b9d E8000000 		call	_ZN8UnitTest11TestDetailsC1ERKS0_i@PLT
 4873      00
 4874 0ba2 48C74424 		movq	$0, 24(%rsp)
 4874      18000000 
 4874      00
 4875 0bab E8000000 		call	_ZN8UnitTest11CurrentTest7ResultsEv@PLT
 4875      00
 4876 0bb0 488B38   		movq	(%rax), %rdi
 4877 0bb3 488D5424 		leaq	40(%rsp), %rdx
 4877      28
 4878 0bb8 488D7424 		leaq	24(%rsp), %rsi
 4878      18
 4879 0bbd 4889E9   		movq	%rbp, %rcx
 4880 0bc0 E8000000 		call	_ZN8UnitTest10CheckEqualImmEEvRNS_11TestResultsERKT_RKT0_RKNS_11TestDetailsE
 4880      00
 4881              	.LEHE154:
 4882              	.L296:
 4883              	.LEHB155:
 4884 0bc5 E8000000 		call	_ZN8UnitTest11CurrentTest7DetailsEv@PLT
 4884      00
 4885 0bca 488B30   		movq	(%rax), %rsi
 4886 0bcd BA400000 		movl	$64, %edx
 4886      00
 4887 0bd2 4889EF   		movq	%rbp, %rdi
 4888 0bd5 E8000000 		call	_ZN8UnitTest11TestDetailsC1ERKS0_i@PLT
 4888      00
 4889 0bda 48C74424 		movq	$0, 24(%rsp)
 4889      18000000 
 4889      00
 4890 0be3 E8000000 		call	_ZN8UnitTest11CurrentTest7ResultsEv@PLT
 4890      00
 4891 0be8 488B38   		movq	(%rax), %rdi
 4892 0beb 488D5424 		leaq	72(%rsp), %rdx
 4892      48
 4893 0bf0 488D7424 		leaq	24(%rsp), %rsi
 4893      18
 4894 0bf5 4889E9   		movq	%rbp, %rcx
 4895 0bf8 E8000000 		call	_ZN8UnitTest10CheckEqualImmEEvRNS_11TestResultsERKT_RKT0_RKNS_11TestDetailsE
 4895      00
 4896              	.LEHE155:
 4897              	.L299:
 4898 0bfd 4C89E7   		movq	%r12, %rdi
 4899              	.LEHB156:
 4900 0c00 E8000000 		call	bufDestroy@PLT
 4900      00
 4901 0c05 4C89EF   		movq	%r13, %rdi
 4902 0c08 E8000000 		call	bufDestroy@PLT
 4902      00
 4903              	.LEHE156:
 4904 0c0d 488B8424 		movq	136(%rsp), %rax
 4904      88000000 
 4905 0c15 64482B04 		subq	%fs:40, %rax
 4905      25280000 
 4905      00
 4906 0c1e 7511     		jne	.L316
 4907 0c20 4881C490 		addq	$144, %rsp
 4907      000000
 4908              		.cfi_remember_state
 4909              		.cfi_def_cfa_offset 48
 4910 0c27 5D       		popq	%rbp
 4911              		.cfi_def_cfa_offset 40
 4912 0c28 415C     		popq	%r12
 4913              		.cfi_def_cfa_offset 32
 4914 0c2a 415D     		popq	%r13
 4915              		.cfi_def_cfa_offset 24
 4916 0c2c 415E     		popq	%r14
 4917              		.cfi_def_cfa_offset 16
 4918 0c2e 415F     		popq	%r15
 4919              		.cfi_def_cfa_offset 8
 4920 0c30 C3       		ret
 4921              	.L316:
 4922              		.cfi_restore_state
 4923 0c31 E8000000 		call	__stack_chk_fail@PLT
 4923      00
 4924              	.L312:
 4925 0c36 F30F1EFA 		endbr64
 4926 0c3a 4889C7   		movq	%rax, %rdi
 4927 0c3d E9000000 		jmp	.L298
 4927      00
 4928              	.L310:
 4929 0c42 F30F1EFA 		endbr64
 4930 0c46 4889C7   		movq	%rax, %rdi
 4931 0c49 E9000000 		jmp	.L295
 4931      00
 4932              	.L308:
 4933 0c4e F30F1EFA 		endbr64
 4934 0c52 4889C7   		movq	%rax, %rdi
 4935 0c55 E9000000 		jmp	.L292
 4935      00
 4936              	.L306:
 4937 0c5a F30F1EFA 		endbr64
 4938 0c5e 4889C7   		movq	%rax, %rdi
 4939 0c61 E9000000 		jmp	.L289
 4939      00
 4940              	.L304:
 4941 0c66 F30F1EFA 		endbr64
 4942 0c6a 4889C7   		movq	%rax, %rdi
 4943 0c6d E9000000 		jmp	.L286
 4943      00
 4944              	.L302:
 4945 0c72 F30F1EFA 		endbr64
 4946 0c76 4889C7   		movq	%rax, %rdi
 4947 0c79 E9000000 		jmp	.L283
 4947      00
 4948              		.section	.gcc_except_table
 4949 02f6 0000     		.align 4
 4950              	.LLSDA1314:
 4951 02f8 FF       		.byte	0xff
 4952 02f9 9B       		.byte	0x9b
 4953 02fa 41       		.uleb128 .LLSDATT1314-.LLSDATTD1314
 4954              	.LLSDATTD1314:
 4955 02fb 01       		.byte	0x1
 4956 02fc 36       		.uleb128 .LLSDACSE1314-.LLSDACSB1314
 4957              	.LLSDACSB1314:
 4958 02fd 40       		.uleb128 .LEHB147-.LFB1314
 4959 02fe 05       		.uleb128 .LEHE147-.LEHB147
 4960 02ff 00       		.uleb128 0
 4961 0300 00       		.uleb128 0
 4962 0301 49       		.uleb128 .LEHB148-.LFB1314
 4963 0302 3F       		.uleb128 .LEHE148-.LEHB148
 4964 0303 D204     		.uleb128 .L302-.LFB1314
 4965 0305 01       		.uleb128 0x1
 4966 0306 9401     		.uleb128 .LEHB149-.LFB1314
 4967 0308 05       		.uleb128 .LEHE149-.LEHB149
 4968 0309 00       		.uleb128 0
 4969 030a 00       		.uleb128 0
 4970 030b 9D01     		.uleb128 .LEHB150-.LFB1314
 4971 030d 37       		.uleb128 .LEHE150-.LEHB150
 4972 030e C604     		.uleb128 .L304-.LFB1314
 4973 0310 01       		.uleb128 0x1
 4974 0311 F601     		.uleb128 .LEHB151-.LFB1314
 4975 0313 05       		.uleb128 .LEHE151-.LEHB151
 4976 0314 00       		.uleb128 0
 4977 0315 00       		.uleb128 0
 4978 0316 8102     		.uleb128 .LEHB152-.LFB1314
 4979 0318 37       		.uleb128 .LEHE152-.LEHB152
 4980 0319 BA04     		.uleb128 .L306-.LFB1314
 4981 031b 01       		.uleb128 0x1
 4982 031c B802     		.uleb128 .LEHB153-.LFB1314
 4983 031e 35       		.uleb128 .LEHE153-.LEHB153
 4984 031f AE04     		.uleb128 .L308-.LFB1314
 4985 0321 01       		.uleb128 0x1
 4986 0322 ED02     		.uleb128 .LEHB154-.LFB1314
 4987 0324 38       		.uleb128 .LEHE154-.LEHB154
 4988 0325 A204     		.uleb128 .L310-.LFB1314
 4989 0327 01       		.uleb128 0x1
 4990 0328 A503     		.uleb128 .LEHB155-.LFB1314
 4991 032a 38       		.uleb128 .LEHE155-.LEHB155
 4992 032b 9604     		.uleb128 .L312-.LFB1314
 4993 032d 01       		.uleb128 0x1
 4994 032e E003     		.uleb128 .LEHB156-.LFB1314
 4995 0330 0D       		.uleb128 .LEHE156-.LEHB156
 4996 0331 00       		.uleb128 0
 4997 0332 00       		.uleb128 0
 4998              	.LLSDACSE1314:
 4999 0333 01       		.byte	0x1
 5000 0334 00       		.byte	0
 5001 0335 000000   		.align 4
 5002 0338 00000000 		.long	0
 5003              	
 5004              	.LLSDATT1314:
 5005              		.text
 5006              		.cfi_endproc
 5007              		.section	.text.unlikely
 5008              		.cfi_startproc
 5009              		.cfi_personality 0x9b,DW.ref.__gxx_personality_v0
 5010              		.cfi_lsda 0x1b,.LLSDAC1314
 5012              	_ZNK22TestHexIO_testValidEOF7RunImplEv.cold:
 5013              	.LFSB1314:
 5014              	.L298:
 5015              		.cfi_def_cfa_offset 192
 5016              		.cfi_offset 6, -48
 5017              		.cfi_offset 12, -40
 5018              		.cfi_offset 13, -32
 5019              		.cfi_offset 14, -24
 5020              		.cfi_offset 15, -16
 5021 05fa E8000000 		call	__cxa_begin_catch@PLT
 5021      00
 5022              	.LEHB157:
 5023 05ff E8000000 		call	_ZN8UnitTest11CurrentTest7ResultsEv@PLT
 5023      00
 5024 0604 4C8B30   		movq	(%rax), %r14
 5025 0607 E8000000 		call	_ZN8UnitTest11CurrentTest7DetailsEv@PLT
 5025      00
 5026 060c 488B30   		movq	(%rax), %rsi
 5027 060f BA400000 		movl	$64, %edx
 5027      00
 5028 0614 4889EF   		movq	%rbp, %rdi
 5029 0617 E8000000 		call	_ZN8UnitTest11TestDetailsC1ERKS0_i@PLT
 5029      00
 5030 061c 488D1500 		leaq	.LC36(%rip), %rdx
 5030      000000
 5031 0623 4889EE   		movq	%rbp, %rsi
 5032 0626 4C89F7   		movq	%r14, %rdi
 5033 0629 E8000000 		call	_ZN8UnitTest11TestResults13OnTestFailureERKNS_11TestDetailsEPKc@PLT
 5033      00
 5034              	.LEHE157:
 5035              	.LEHB158:
 5036 062e E8000000 		call	__cxa_end_catch@PLT
 5036      00
 5037              	.LEHE158:
 5038 0633 E9000000 		jmp	.L299
 5038      00
 5039              	.L295:
 5040 0638 E8000000 		call	__cxa_begin_catch@PLT
 5040      00
 5041              	.LEHB159:
 5042 063d E8000000 		call	_ZN8UnitTest11CurrentTest7ResultsEv@PLT
 5042      00
 5043 0642 4C8B30   		movq	(%rax), %r14
 5044 0645 E8000000 		call	_ZN8UnitTest11CurrentTest7DetailsEv@PLT
 5044      00
 5045 064a 488B30   		movq	(%rax), %rsi
 5046 064d BA3F0000 		movl	$63, %edx
 5046      00
 5047 0652 4889EF   		movq	%rbp, %rdi
 5048 0655 E8000000 		call	_ZN8UnitTest11TestDetailsC1ERKS0_i@PLT
 5048      00
 5049 065a 488D1500 		leaq	.LC35(%rip), %rdx
 5049      000000
 5050 0661 4889EE   		movq	%rbp, %rsi
 5051 0664 4C89F7   		movq	%r14, %rdi
 5052 0667 E8000000 		call	_ZN8UnitTest11TestResults13OnTestFailureERKNS_11TestDetailsEPKc@PLT
 5052      00
 5053              	.LEHE159:
 5054              	.LEHB160:
 5055 066c E8000000 		call	__cxa_end_catch@PLT
 5055      00
 5056              	.LEHE160:
 5057 0671 E9000000 		jmp	.L296
 5057      00
 5058              	.L313:
 5059 0676 F30F1EFA 		endbr64
 5060 067a 4889C5   		movq	%rax, %rbp
 5061 067d E8000000 		call	__cxa_end_catch@PLT
 5061      00
 5062 0682 4889EF   		movq	%rbp, %rdi
 5063              	.LEHB161:
 5064 0685 E8000000 		call	_Unwind_Resume@PLT
 5064      00
 5065              	.LEHE161:
 5066              	.L311:
 5067 068a F30F1EFA 		endbr64
 5068 068e 4889C5   		movq	%rax, %rbp
 5069 0691 E8000000 		call	__cxa_end_catch@PLT
 5069      00
 5070 0696 4889EF   		movq	%rbp, %rdi
 5071              	.LEHB162:
 5072 0699 E8000000 		call	_Unwind_Resume@PLT
 5072      00
 5073              	.LEHE162:
 5074              	.L292:
 5075 069e E8000000 		call	__cxa_begin_catch@PLT
 5075      00
 5076              	.LEHB163:
 5077 06a3 E8000000 		call	_ZN8UnitTest11CurrentTest7ResultsEv@PLT
 5077      00
 5078 06a8 4C8B30   		movq	(%rax), %r14
 5079 06ab E8000000 		call	_ZN8UnitTest11CurrentTest7DetailsEv@PLT
 5079      00
 5080 06b0 488B30   		movq	(%rax), %rsi
 5081 06b3 BA3E0000 		movl	$62, %edx
 5081      00
 5082 06b8 4889EF   		movq	%rbp, %rdi
 5083 06bb E8000000 		call	_ZN8UnitTest11TestDetailsC1ERKS0_i@PLT
 5083      00
 5084 06c0 488D1500 		leaq	.LC34(%rip), %rdx
 5084      000000
 5085 06c7 4889EE   		movq	%rbp, %rsi
 5086 06ca 4C89F7   		movq	%r14, %rdi
 5087 06cd E8000000 		call	_ZN8UnitTest11TestResults13OnTestFailureERKNS_11TestDetailsEPKc@PLT
 5087      00
 5088              	.LEHE163:
 5089              	.LEHB164:
 5090 06d2 E8000000 		call	__cxa_end_catch@PLT
 5090      00
 5091              	.LEHE164:
 5092 06d7 E9000000 		jmp	.L293
 5092      00
 5093              	.L289:
 5094 06dc E8000000 		call	__cxa_begin_catch@PLT
 5094      00
 5095              	.LEHB165:
 5096 06e1 E8000000 		call	_ZN8UnitTest11CurrentTest7ResultsEv@PLT
 5096      00
 5097 06e6 4C8B38   		movq	(%rax), %r15
 5098 06e9 E8000000 		call	_ZN8UnitTest11CurrentTest7DetailsEv@PLT
 5098      00
 5099 06ee 488B30   		movq	(%rax), %rsi
 5100 06f1 BA3D0000 		movl	$61, %edx
 5100      00
 5101 06f6 4889EF   		movq	%rbp, %rdi
 5102 06f9 E8000000 		call	_ZN8UnitTest11TestDetailsC1ERKS0_i@PLT
 5102      00
 5103 06fe 488D1500 		leaq	.LC6(%rip), %rdx
 5103      000000
 5104 0705 4889EE   		movq	%rbp, %rsi
 5105 0708 4C89FF   		movq	%r15, %rdi
 5106 070b E8000000 		call	_ZN8UnitTest11TestResults13OnTestFailureERKNS_11TestDetailsEPKc@PLT
 5106      00
 5107              	.LEHE165:
 5108              	.LEHB166:
 5109 0710 E8000000 		call	__cxa_end_catch@PLT
 5109      00
 5110              	.LEHE166:
 5111 0715 E9000000 		jmp	.L290
 5111      00
 5112              	.L309:
 5113 071a F30F1EFA 		endbr64
 5114 071e 4889C5   		movq	%rax, %rbp
 5115 0721 E8000000 		call	__cxa_end_catch@PLT
 5115      00
 5116 0726 4889EF   		movq	%rbp, %rdi
 5117              	.LEHB167:
 5118 0729 E8000000 		call	_Unwind_Resume@PLT
 5118      00
 5119              	.LEHE167:
 5120              	.L307:
 5121 072e F30F1EFA 		endbr64
 5122 0732 4889C5   		movq	%rax, %rbp
 5123 0735 E8000000 		call	__cxa_end_catch@PLT
 5123      00
 5124 073a 4889EF   		movq	%rbp, %rdi
 5125              	.LEHB168:
 5126 073d E8000000 		call	_Unwind_Resume@PLT
 5126      00
 5127              	.LEHE168:
 5128              	.L286:
 5129 0742 E8000000 		call	__cxa_begin_catch@PLT
 5129      00
 5130              	.LEHB169:
 5131 0747 E8000000 		call	_ZN8UnitTest11CurrentTest7ResultsEv@PLT
 5131      00
 5132 074c 4C8B30   		movq	(%rax), %r14
 5133 074f E8000000 		call	_ZN8UnitTest11CurrentTest7DetailsEv@PLT
 5133      00
 5134 0754 488B30   		movq	(%rax), %rsi
 5135 0757 BA3B0000 		movl	$59, %edx
 5135      00
 5136 075c 4889EF   		movq	%rbp, %rdi
 5137 075f E8000000 		call	_ZN8UnitTest11TestDetailsC1ERKS0_i@PLT
 5137      00
 5138 0764 488D1500 		leaq	.LC6(%rip), %rdx
 5138      000000
 5139 076b 4889EE   		movq	%rbp, %rsi
 5140 076e 4C89F7   		movq	%r14, %rdi
 5141 0771 E8000000 		call	_ZN8UnitTest11TestResults13OnTestFailureERKNS_11TestDetailsEPKc@PLT
 5141      00
 5142              	.LEHE169:
 5143              	.LEHB170:
 5144 0776 E8000000 		call	__cxa_end_catch@PLT
 5144      00
 5145              	.LEHE170:
 5146 077b E9000000 		jmp	.L287
 5146      00
 5147              	.L283:
 5148 0780 E8000000 		call	__cxa_begin_catch@PLT
 5148      00
 5149              	.LEHB171:
 5150 0785 E8000000 		call	_ZN8UnitTest11CurrentTest7ResultsEv@PLT
 5150      00
 5151 078a 4C8B20   		movq	(%rax), %r12
 5152 078d E8000000 		call	_ZN8UnitTest11CurrentTest7DetailsEv@PLT
 5152      00
 5153 0792 488D6C24 		leaq	96(%rsp), %rbp
 5153      60
 5154 0797 488B30   		movq	(%rax), %rsi
 5155 079a BA390000 		movl	$57, %edx
 5155      00
 5156 079f 4889EF   		movq	%rbp, %rdi
 5157 07a2 E8000000 		call	_ZN8UnitTest11TestDetailsC1ERKS0_i@PLT
 5157      00
 5158 07a7 488D1500 		leaq	.LC6(%rip), %rdx
 5158      000000
 5159 07ae 4889EE   		movq	%rbp, %rsi
 5160 07b1 4C89E7   		movq	%r12, %rdi
 5161 07b4 E8000000 		call	_ZN8UnitTest11TestResults13OnTestFailureERKNS_11TestDetailsEPKc@PLT
 5161      00
 5162              	.LEHE171:
 5163              	.LEHB172:
 5164 07b9 E8000000 		call	__cxa_end_catch@PLT
 5164      00
 5165              	.LEHE172:
 5166 07be 4C8D6424 		leaq	64(%rsp), %r12
 5166      40
 5167 07c3 E9000000 		jmp	.L284
 5167      00
 5168              	.L305:
 5169 07c8 F30F1EFA 		endbr64
 5170 07cc 4889C5   		movq	%rax, %rbp
 5171 07cf E8000000 		call	__cxa_end_catch@PLT
 5171      00
 5172 07d4 4889EF   		movq	%rbp, %rdi
 5173              	.LEHB173:
 5174 07d7 E8000000 		call	_Unwind_Resume@PLT
 5174      00
 5175              	.LEHE173:
 5176              	.L303:
 5177 07dc F30F1EFA 		endbr64
 5178 07e0 4889C5   		movq	%rax, %rbp
 5179 07e3 E8000000 		call	__cxa_end_catch@PLT
 5179      00
 5180 07e8 4889EF   		movq	%rbp, %rdi
 5181              	.LEHB174:
 5182 07eb E8000000 		call	_Unwind_Resume@PLT
 5182      00
 5183              	.LEHE174:
 5184              		.cfi_endproc
 5185              	.LFE1314:
 5186              		.section	.gcc_except_table
 5187              		.align 4
 5188              	.LLSDAC1314:
 5189 033c FF       		.byte	0xff
 5190 033d 9B       		.byte	0x9b
 5191 033e 65       		.uleb128 .LLSDATTC1314-.LLSDATTDC1314
 5192              	.LLSDATTDC1314:
 5193 033f 01       		.byte	0x1
 5194 0340 5B       		.uleb128 .LLSDACSEC1314-.LLSDACSBC1314
 5195              	.LLSDACSBC1314:
 5196 0341 05       		.uleb128 .LEHB157-.LCOLDB37
 5197 0342 2F       		.uleb128 .LEHE157-.LEHB157
 5198 0343 7C       		.uleb128 .L313-.LCOLDB37
 5199 0344 00       		.uleb128 0
 5200 0345 34       		.uleb128 .LEHB158-.LCOLDB37
 5201 0346 05       		.uleb128 .LEHE158-.LEHB158
 5202 0347 00       		.uleb128 0
 5203 0348 00       		.uleb128 0
 5204 0349 43       		.uleb128 .LEHB159-.LCOLDB37
 5205 034a 2F       		.uleb128 .LEHE159-.LEHB159
 5206 034b 9001     		.uleb128 .L311-.LCOLDB37
 5207 034d 00       		.uleb128 0
 5208 034e 72       		.uleb128 .LEHB160-.LCOLDB37
 5209 034f 05       		.uleb128 .LEHE160-.LEHB160
 5210 0350 00       		.uleb128 0
 5211 0351 00       		.uleb128 0
 5212 0352 8B01     		.uleb128 .LEHB161-.LCOLDB37
 5213 0354 05       		.uleb128 .LEHE161-.LEHB161
 5214 0355 00       		.uleb128 0
 5215 0356 00       		.uleb128 0
 5216 0357 9F01     		.uleb128 .LEHB162-.LCOLDB37
 5217 0359 05       		.uleb128 .LEHE162-.LEHB162
 5218 035a 00       		.uleb128 0
 5219 035b 00       		.uleb128 0
 5220 035c A901     		.uleb128 .LEHB163-.LCOLDB37
 5221 035e 2F       		.uleb128 .LEHE163-.LEHB163
 5222 035f A002     		.uleb128 .L309-.LCOLDB37
 5223 0361 00       		.uleb128 0
 5224 0362 D801     		.uleb128 .LEHB164-.LCOLDB37
 5225 0364 05       		.uleb128 .LEHE164-.LEHB164
 5226 0365 00       		.uleb128 0
 5227 0366 00       		.uleb128 0
 5228 0367 E701     		.uleb128 .LEHB165-.LCOLDB37
 5229 0369 2F       		.uleb128 .LEHE165-.LEHB165
 5230 036a B402     		.uleb128 .L307-.LCOLDB37
 5231 036c 00       		.uleb128 0
 5232 036d 9602     		.uleb128 .LEHB166-.LCOLDB37
 5233 036f 05       		.uleb128 .LEHE166-.LEHB166
 5234 0370 00       		.uleb128 0
 5235 0371 00       		.uleb128 0
 5236 0372 AF02     		.uleb128 .LEHB167-.LCOLDB37
 5237 0374 05       		.uleb128 .LEHE167-.LEHB167
 5238 0375 00       		.uleb128 0
 5239 0376 00       		.uleb128 0
 5240 0377 C302     		.uleb128 .LEHB168-.LCOLDB37
 5241 0379 05       		.uleb128 .LEHE168-.LEHB168
 5242 037a 00       		.uleb128 0
 5243 037b 00       		.uleb128 0
 5244 037c CD02     		.uleb128 .LEHB169-.LCOLDB37
 5245 037e 2F       		.uleb128 .LEHE169-.LEHB169
 5246 037f CE03     		.uleb128 .L305-.LCOLDB37
 5247 0381 00       		.uleb128 0
 5248 0382 FC02     		.uleb128 .LEHB170-.LCOLDB37
 5249 0384 05       		.uleb128 .LEHE170-.LEHB170
 5250 0385 00       		.uleb128 0
 5251 0386 00       		.uleb128 0
 5252 0387 8B03     		.uleb128 .LEHB171-.LCOLDB37
 5253 0389 34       		.uleb128 .LEHE171-.LEHB171
 5254 038a E203     		.uleb128 .L303-.LCOLDB37
 5255 038c 00       		.uleb128 0
 5256 038d BF03     		.uleb128 .LEHB172-.LCOLDB37
 5257 038f 05       		.uleb128 .LEHE172-.LEHB172
 5258 0390 00       		.uleb128 0
 5259 0391 00       		.uleb128 0
 5260 0392 DD03     		.uleb128 .LEHB173-.LCOLDB37
 5261 0394 05       		.uleb128 .LEHE173-.LEHB173
 5262 0395 00       		.uleb128 0
 5263 0396 00       		.uleb128 0
 5264 0397 F103     		.uleb128 .LEHB174-.LCOLDB37
 5265 0399 05       		.uleb128 .LEHE174-.LEHB174
 5266 039a 00       		.uleb128 0
 5267 039b 00       		.uleb128 0
 5268              	.LLSDACSEC1314:
 5269 039c 01       		.byte	0x1
 5270 039d 00       		.byte	0
 5271 039e 0000     		.align 4
 5272 03a0 00000000 		.long	0
 5273              	
 5274              	.LLSDATTC1314:
 5275              		.section	.text.unlikely
 5276              		.text
 5278              		.section	.text.unlikely
 5280              	.LCOLDE37:
 5281              		.text
 5282              	.LHOTE37:
 5283              		.section	.rodata.str1.1
 5284              	.LC38:
 5285 00cb 3A303430 		.string	":040BE10075820022F7\n"
 5285      42453130 
 5285      30373538 
 5285      32303032 
 5285      3246370A 
 5286              	.LC39:
 5287 00e0 45787065 		.string	"Expected [ "
 5287      63746564 
 5287      205B2000 
 5288              	.LC40:
 5289 00ec 2000     		.string	" "
 5290              	.LC41:
 5291 00ee 5D206275 		.string	"] but was [ "
 5291      74207761 
 5291      73205B20 
 5291      00
 5292              	.LC42:
 5293 00fb 5D00     		.string	"]"
 5294              		.section	.rodata.str1.8
 5295 031d 000000   		.align 8
 5296              	.LC43:
 5297 0320 556E6861 		.string	"Unhandled exception in CHECK_EQUAL(0x00, recordType)"
 5297      6E646C65 
 5297      64206578 
 5297      63657074 
 5297      696F6E20 
 5298 0355 000000   		.align 8
 5299              	.LC44:
 5300 0358 556E6861 		.string	"Unhandled exception in CHECK_EQUAL(0x0BE1+4UL, data.length)"
 5300      6E646C65 
 5300      64206578 
 5300      63657074 
 5300      696F6E20 
 5301 0394 00000000 		.align 8
 5302              	.LC45:
 5303 0398 556E6861 		.string	"Unhandled exception in CHECK_EQUAL(0x0BE1+4UL, mask.length)"
 5303      6E646C65 
 5303      64206578 
 5303      63657074 
 5303      696F6E20 
 5304 03d4 00000000 		.align 8
 5305              	.LC46:
 5306 03d8 556E6861 		.string	"Unhandled exception in CHECK_EQUAL(4096UL, data.capacity)"
 5306      6E646C65 
 5306      64206578 
 5306      63657074 
 5306      696F6E20 
 5307 0412 00000000 		.align 8
 5307      0000
 5308              	.LC47:
 5309 0418 556E6861 		.string	"Unhandled exception in CHECK_EQUAL(4096UL, mask.capacity)"
 5309      6E646C65 
 5309      64206578 
 5309      63657074 
 5309      696F6E20 
 5310 0452 00000000 		.align 8
 5310      0000
 5311              	.LC48:
 5312 0458 556E6861 		.string	"Unhandled exception in CHECK_ARRAY_EQUAL(expected, data.data + 0x0BE1)"
 5312      6E646C65 
 5312      64206578 
 5312      63657074 
 5312      696F6E20 
 5313              		.section	.text.unlikely
 5314              		.align 2
 5315              	.LCOLDB49:
 5316              		.text
 5317              	.LHOTB49:
 5318              		.align 2
 5319 0c7e 6690     		.p2align 4
 5320              		.globl	_ZNK27TestHexIO_testValidDataLine7RunImplEv
 5322              	_ZNK27TestHexIO_testValidDataLine7RunImplEv:
 5323              	.LFB1310:
 5324              		.cfi_startproc
 5325              		.cfi_personality 0x9b,DW.ref.__gxx_personality_v0
 5326              		.cfi_lsda 0x1b,.LLSDA1310
 5327 0c80 F30F1EFA 		endbr64
 5328 0c84 4157     		pushq	%r15
 5329              		.cfi_def_cfa_offset 16
 5330              		.cfi_offset 15, -16
 5331 0c86 31C9     		xorl	%ecx, %ecx
 5332 0c88 31D2     		xorl	%edx, %edx
 5333 0c8a BE000400 		movl	$1024, %esi
 5333      00
 5334 0c8f 4156     		pushq	%r14
 5335              		.cfi_def_cfa_offset 24
 5336              		.cfi_offset 14, -24
 5337 0c91 4155     		pushq	%r13
 5338              		.cfi_def_cfa_offset 32
 5339              		.cfi_offset 13, -32
 5340 0c93 4154     		pushq	%r12
 5341              		.cfi_def_cfa_offset 40
 5342              		.cfi_offset 12, -40
 5343 0c95 55       		pushq	%rbp
 5344              		.cfi_def_cfa_offset 48
 5345              		.cfi_offset 6, -48
 5346 0c96 53       		pushq	%rbx
 5347              		.cfi_def_cfa_offset 56
 5348              		.cfi_offset 3, -56
 5349 0c97 4881EC88 		subq	$648, %rsp
 5349      020000
 5350              		.cfi_def_cfa_offset 704
 5351 0c9e 64488B04 		movq	%fs:40, %rax
 5351      25280000 
 5351      00
 5352 0ca7 48898424 		movq	%rax, 632(%rsp)
 5352      78020000 
 5353 0caf 31C0     		xorl	%eax, %eax
 5354 0cb1 488D4424 		leaq	112(%rsp), %rax
 5354      70
 5355 0cb6 C7442464 		movl	$0, 100(%rsp)
 5355      00000000 
 5356 0cbe 4889C7   		movq	%rax, %rdi
 5357 0cc1 48894424 		movq	%rax, 16(%rsp)
 5357      10
 5358 0cc6 C7842474 		movl	$570458741, 628(%rsp)
 5358      02000075 
 5358      820022
 5359              	.LEHB175:
 5360 0cd1 E8000000 		call	bufInitialise@PLT
 5360      00
 5361              	.LEHE175:
 5362 0cd6 89442460 		movl	%eax, 96(%rsp)
 5363              	.LEHB176:
 5364 0cda E8000000 		call	_ZN8UnitTest11CurrentTest7DetailsEv@PLT
 5364      00
 5365 0cdf 488DAC24 		leaq	176(%rsp), %rbp
 5365      B0000000 
 5366 0ce7 488B30   		movq	(%rax), %rsi
 5367 0cea BA230000 		movl	$35, %edx
 5367      00
 5368 0cef 4889EF   		movq	%rbp, %rdi
 5369 0cf2 E8000000 		call	_ZN8UnitTest11TestDetailsC1ERKS0_i@PLT
 5369      00
 5370 0cf7 C7842490 		movl	$0, 144(%rsp)
 5370      00000000 
 5370      000000
 5371 0d02 E8000000 		call	_ZN8UnitTest11CurrentTest7ResultsEv@PLT
 5371      00
 5372 0d07 4C8DBC24 		leaq	144(%rsp), %r15
 5372      90000000 
 5373 0d0f 488B38   		movq	(%rax), %rdi
 5374 0d12 488D5424 		leaq	96(%rsp), %rdx
 5374      60
 5375 0d17 4889E9   		movq	%rbp, %rcx
 5376 0d1a 4C89FE   		movq	%r15, %rsi
 5377 0d1d E8000000 		call	_ZN8UnitTest10CheckEqualI12BufferStatusS1_EEvRNS_11TestResultsERKT_RKT0_RKNS_11TestDetailsE
 5377      00
 5378              	.LEHE176:
 5379              	.L332:
 5380 0d22 31C9     		xorl	%ecx, %ecx
 5381 0d24 31D2     		xorl	%edx, %edx
 5382 0d26 BE000400 		movl	$1024, %esi
 5382      00
 5383 0d2b 4C89FF   		movq	%r15, %rdi
 5384              	.LEHB177:
 5385 0d2e E8000000 		call	bufInitialise@PLT
 5385      00
 5386              	.LEHE177:
 5387 0d33 89442460 		movl	%eax, 96(%rsp)
 5388              	.LEHB178:
 5389 0d37 E8000000 		call	_ZN8UnitTest11CurrentTest7DetailsEv@PLT
 5389      00
 5390 0d3c 488B30   		movq	(%rax), %rsi
 5391 0d3f BA250000 		movl	$37, %edx
 5391      00
 5392 0d44 4889EF   		movq	%rbp, %rdi
 5393 0d47 E8000000 		call	_ZN8UnitTest11TestDetailsC1ERKS0_i@PLT
 5393      00
 5394 0d4c C7442468 		movl	$0, 104(%rsp)
 5394      00000000 
 5395 0d54 E8000000 		call	_ZN8UnitTest11CurrentTest7ResultsEv@PLT
 5395      00
 5396 0d59 4C8D6424 		leaq	104(%rsp), %r12
 5396      68
 5397 0d5e 488B38   		movq	(%rax), %rdi
 5398 0d61 488D5424 		leaq	96(%rsp), %rdx
 5398      60
 5399 0d66 4889E9   		movq	%rbp, %rcx
 5400 0d69 4C89E6   		movq	%r12, %rsi
 5401 0d6c E8000000 		call	_ZN8UnitTest10CheckEqualI12BufferStatusS1_EEvRNS_11TestResultsERKT_RKT0_RKNS_11TestDetailsE
 5401      00
 5402              	.LEHE178:
 5403              	.L335:
 5404 0d71 4C8D6C24 		leaq	94(%rsp), %r13
 5404      5E
 5405 0d76 4883EC08 		subq	$8, %rsp
 5406              		.cfi_def_cfa_offset 712
 5407 0d7a 4C89F9   		movq	%r15, %rcx
 5408 0d7d 31F6     		xorl	%esi, %esi
 5409 0d7f 6A00     		pushq	$0
 5410              		.cfi_def_cfa_offset 720
 5411 0d81 488B5424 		movq	32(%rsp), %rdx
 5411      20
 5412 0d86 4D89E9   		movq	%r13, %r9
 5413 0d89 488D3D00 		leaq	.LC38(%rip), %rdi
 5413      000000
 5414 0d90 4C8D4424 		leaq	116(%rsp), %r8
 5414      74
 5415              	.LEHB179:
 5416 0d95 E8000000 		call	bufProcessLine@PLT
 5416      00
 5417              	.LEHE179:
 5418 0d9a 89442470 		movl	%eax, 112(%rsp)
 5419 0d9e 5A       		popq	%rdx
 5420              		.cfi_def_cfa_offset 712
 5421 0d9f 59       		popq	%rcx
 5422              		.cfi_def_cfa_offset 704
 5423              	.LEHB180:
 5424 0da0 E8000000 		call	_ZN8UnitTest11CurrentTest7DetailsEv@PLT
 5424      00
 5425 0da5 488B30   		movq	(%rax), %rsi
 5426 0da8 BA270000 		movl	$39, %edx
 5426      00
 5427 0dad 4889EF   		movq	%rbp, %rdi
 5428 0db0 E8000000 		call	_ZN8UnitTest11TestDetailsC1ERKS0_i@PLT
 5428      00
 5429 0db5 C7442468 		movl	$0, 104(%rsp)
 5429      00000000 
 5430 0dbd E8000000 		call	_ZN8UnitTest11CurrentTest7ResultsEv@PLT
 5430      00
 5431 0dc2 4C8D6424 		leaq	104(%rsp), %r12
 5431      68
 5432 0dc7 488B38   		movq	(%rax), %rdi
 5433 0dca 488D5424 		leaq	96(%rsp), %rdx
 5433      60
 5434 0dcf 4889E9   		movq	%rbp, %rcx
 5435 0dd2 4C89E6   		movq	%r12, %rsi
 5436 0dd5 E8000000 		call	_ZN8UnitTest10CheckEqualI12BufferStatusS1_EEvRNS_11TestResultsERKT_RKT0_RKNS_11TestDetailsE
 5436      00
 5437              	.LEHE180:
 5438              	.L338:
 5439              	.LEHB181:
 5440 0dda E8000000 		call	_ZN8UnitTest11CurrentTest7DetailsEv@PLT
 5440      00
 5441 0ddf 488B30   		movq	(%rax), %rsi
 5442 0de2 BA280000 		movl	$40, %edx
 5442      00
 5443 0de7 4889EF   		movq	%rbp, %rdi
 5444 0dea E8000000 		call	_ZN8UnitTest11TestDetailsC1ERKS0_i@PLT
 5444      00
 5445 0def C7442468 		movl	$0, 104(%rsp)
 5445      00000000 
 5446 0df7 E8000000 		call	_ZN8UnitTest11CurrentTest7ResultsEv@PLT
 5446      00
 5447 0dfc 4C8D6424 		leaq	104(%rsp), %r12
 5447      68
 5448 0e01 488B38   		movq	(%rax), %rdi
 5449 0e04 4889E9   		movq	%rbp, %rcx
 5450 0e07 4C89EA   		movq	%r13, %rdx
 5451 0e0a 4C89E6   		movq	%r12, %rsi
 5452 0e0d E8000000 		call	_ZN8UnitTest10CheckEqualIihEEvRNS_11TestResultsERKT_RKT0_RKNS_11TestDetailsE
 5452      00
 5453              	.LEHE181:
 5454              	.L341:
 5455              	.LEHB182:
 5456 0e12 E8000000 		call	_ZN8UnitTest11CurrentTest7DetailsEv@PLT
 5456      00
 5457 0e17 488B30   		movq	(%rax), %rsi
 5458 0e1a BA290000 		movl	$41, %edx
 5458      00
 5459 0e1f 4889EF   		movq	%rbp, %rdi
 5460 0e22 E8000000 		call	_ZN8UnitTest11TestDetailsC1ERKS0_i@PLT
 5460      00
 5461 0e27 48C74424 		movq	$3045, 104(%rsp)
 5461      68E50B00 
 5461      00
 5462 0e30 E8000000 		call	_ZN8UnitTest11CurrentTest7ResultsEv@PLT
 5462      00
 5463 0e35 4C8D6424 		leaq	104(%rsp), %r12
 5463      68
 5464 0e3a 488B38   		movq	(%rax), %rdi
 5465 0e3d 488D5424 		leaq	120(%rsp), %rdx
 5465      78
 5466 0e42 4889E9   		movq	%rbp, %rcx
 5467 0e45 4C89E6   		movq	%r12, %rsi
 5468 0e48 E8000000 		call	_ZN8UnitTest10CheckEqualImmEEvRNS_11TestResultsERKT_RKT0_RKNS_11TestDetailsE
 5468      00
 5469              	.LEHE182:
 5470              	.L344:
 5471              	.LEHB183:
 5472 0e4d E8000000 		call	_ZN8UnitTest11CurrentTest7DetailsEv@PLT
 5472      00
 5473 0e52 488B30   		movq	(%rax), %rsi
 5474 0e55 BA2A0000 		movl	$42, %edx
 5474      00
 5475 0e5a 4889EF   		movq	%rbp, %rdi
 5476 0e5d E8000000 		call	_ZN8UnitTest11TestDetailsC1ERKS0_i@PLT
 5476      00
 5477 0e62 48C74424 		movq	$3045, 104(%rsp)
 5477      68E50B00 
 5477      00
 5478 0e6b E8000000 		call	_ZN8UnitTest11CurrentTest7ResultsEv@PLT
 5478      00
 5479 0e70 4C8D6424 		leaq	104(%rsp), %r12
 5479      68
 5480 0e75 488B38   		movq	(%rax), %rdi
 5481 0e78 488D9424 		leaq	152(%rsp), %rdx
 5481      98000000 
 5482 0e80 4889E9   		movq	%rbp, %rcx
 5483 0e83 4C89E6   		movq	%r12, %rsi
 5484 0e86 E8000000 		call	_ZN8UnitTest10CheckEqualImmEEvRNS_11TestResultsERKT_RKT0_RKNS_11TestDetailsE
 5484      00
 5485              	.LEHE183:
 5486              	.L347:
 5487              	.LEHB184:
 5488 0e8b E8000000 		call	_ZN8UnitTest11CurrentTest7DetailsEv@PLT
 5488      00
 5489 0e90 488B30   		movq	(%rax), %rsi
 5490 0e93 BA2B0000 		movl	$43, %edx
 5490      00
 5491 0e98 4889EF   		movq	%rbp, %rdi
 5492 0e9b E8000000 		call	_ZN8UnitTest11TestDetailsC1ERKS0_i@PLT
 5492      00
 5493 0ea0 48C74424 		movq	$4096, 104(%rsp)
 5493      68001000 
 5493      00
 5494 0ea9 E8000000 		call	_ZN8UnitTest11CurrentTest7ResultsEv@PLT
 5494      00
 5495 0eae 4C8D6424 		leaq	104(%rsp), %r12
 5495      68
 5496 0eb3 488B38   		movq	(%rax), %rdi
 5497 0eb6 488D9424 		leaq	128(%rsp), %rdx
 5497      80000000 
 5498 0ebe 4889E9   		movq	%rbp, %rcx
 5499 0ec1 4C89E6   		movq	%r12, %rsi
 5500 0ec4 E8000000 		call	_ZN8UnitTest10CheckEqualImmEEvRNS_11TestResultsERKT_RKT0_RKNS_11TestDetailsE
 5500      00
 5501              	.LEHE184:
 5502              	.L350:
 5503              	.LEHB185:
 5504 0ec9 E8000000 		call	_ZN8UnitTest11CurrentTest7DetailsEv@PLT
 5504      00
 5505 0ece 488B30   		movq	(%rax), %rsi
 5506 0ed1 BA2C0000 		movl	$44, %edx
 5506      00
 5507 0ed6 4889EF   		movq	%rbp, %rdi
 5508 0ed9 E8000000 		call	_ZN8UnitTest11TestDetailsC1ERKS0_i@PLT
 5508      00
 5509 0ede 48C74424 		movq	$4096, 104(%rsp)
 5509      68001000 
 5509      00
 5510 0ee7 E8000000 		call	_ZN8UnitTest11CurrentTest7ResultsEv@PLT
 5510      00
 5511 0eec 4C8D6424 		leaq	104(%rsp), %r12
 5511      68
 5512 0ef1 488B38   		movq	(%rax), %rdi
 5513 0ef4 488D9424 		leaq	160(%rsp), %rdx
 5513      A0000000 
 5514 0efc 4889E9   		movq	%rbp, %rcx
 5515 0eff 4C89E6   		movq	%r12, %rsi
 5516 0f02 E8000000 		call	_ZN8UnitTest10CheckEqualImmEEvRNS_11TestResultsERKT_RKT0_RKNS_11TestDetailsE
 5516      00
 5517              	.LEHE185:
 5518              	.L353:
 5519              	.LEHB186:
 5520 0f07 E8000000 		call	_ZN8UnitTest11CurrentTest7DetailsEv@PLT
 5520      00
 5521 0f0c 488B30   		movq	(%rax), %rsi
 5522 0f0f BA2D0000 		movl	$45, %edx
 5522      00
 5523 0f14 4889EF   		movq	%rbp, %rdi
 5524 0f17 E8000000 		call	_ZN8UnitTest11TestDetailsC1ERKS0_i@PLT
 5524      00
 5525 0f1c 4C8B6424 		movq	112(%rsp), %r12
 5525      70
 5526 0f21 498D8424 		leaq	3041(%r12), %rax
 5526      E10B0000 
 5527 0f29 48894424 		movq	%rax, 32(%rsp)
 5527      20
 5528 0f2e E8000000 		call	_ZN8UnitTest11CurrentTest7ResultsEv@PLT
 5528      00
 5529              	.LEHE186:
 5530 0f33 4180BC24 		cmpb	$-126, 3042(%r12)
 5530      E20B0000 
 5530      82
 5531 0f3c 488B00   		movq	(%rax), %rax
 5532 0f3f F30F7E0D 		movq	.LC2(%rip), %xmm1
 5532      00000000 
 5533 0f47 48894424 		movq	%rax, 40(%rsp)
 5533      28
 5534 0f4c 0F94C0   		sete	%al
 5535 0f4f 4180BC24 		cmpb	$0, 3043(%r12)
 5535      E30B0000 
 5535      00
 5536 0f58 0F94C2   		sete	%dl
 5537 0f5b 0F160D00 		movhps	.LC3(%rip), %xmm1
 5537      000000
 5538 0f62 21D0     		andl	%edx, %eax
 5539 0f64 0F290C24 		movaps	%xmm1, (%rsp)
 5540 0f68 4180BC24 		cmpb	$117, 3041(%r12)
 5540      E10B0000 
 5540      75
 5541 0f71 0F94C2   		sete	%dl
 5542 0f74 84D0     		testb	%dl, %al
 5543 0f76 7448     		je	.L378
 5544 0f78 4180BC24 		cmpb	$34, 3044(%r12)
 5544      E40B0000 
 5544      22
 5545 0f81 753D     		jne	.L378
 5546              	.L329:
 5547 0f83 4C89FF   		movq	%r15, %rdi
 5548              	.LEHB187:
 5549 0f86 E8000000 		call	bufDestroy@PLT
 5549      00
 5550 0f8b 488B7C24 		movq	16(%rsp), %rdi
 5550      10
 5551 0f90 E8000000 		call	bufDestroy@PLT
 5551      00
 5552              	.LEHE187:
 5553 0f95 488B8424 		movq	632(%rsp), %rax
 5553      78020000 
 5554 0f9d 64482B04 		subq	%fs:40, %rax
 5554      25280000 
 5554      00
 5555 0fa6 0F852103 		jne	.L388
 5555      0000
 5556 0fac 4881C488 		addq	$648, %rsp
 5556      020000
 5557              		.cfi_remember_state
 5558              		.cfi_def_cfa_offset 56
 5559 0fb3 5B       		popq	%rbx
 5560              		.cfi_def_cfa_offset 48
 5561 0fb4 5D       		popq	%rbp
 5562              		.cfi_def_cfa_offset 40
 5563 0fb5 415C     		popq	%r12
 5564              		.cfi_def_cfa_offset 32
 5565 0fb7 415D     		popq	%r13
 5566              		.cfi_def_cfa_offset 24
 5567 0fb9 415E     		popq	%r14
 5568              		.cfi_def_cfa_offset 16
 5569 0fbb 415F     		popq	%r15
 5570              		.cfi_def_cfa_offset 8
 5571 0fbd C3       		ret
 5572 0fbe 6690     		.p2align 4,,10
 5573              		.p2align 3
 5574              	.L378:
 5575              		.cfi_restore_state
 5576 0fc0 488D9C24 		leaq	352(%rsp), %rbx
 5576      60010000 
 5577 0fc8 4889DF   		movq	%rbx, %rdi
 5578 0fcb 48895C24 		movq	%rbx, 48(%rsp)
 5578      30
 5579 0fd0 E8000000 		call	_ZNSt8ios_baseC2Ev@PLT
 5579      00
 5580 0fd5 31C0     		xorl	%eax, %eax
 5581 0fd7 660FEFC0 		pxor	%xmm0, %xmm0
 5582 0fdb 31F6     		xorl	%esi, %esi
 5583 0fdd 66898424 		movw	%ax, 576(%rsp)
 5583      40020000 
 5584 0fe5 488D0500 		leaq	24+_ZTCN8UnitTest15MemoryOutStreamE0_So(%rip), %rax
 5584      000000
 5585 0fec 4889DF   		movq	%rbx, %rdi
 5586 0fef 48898424 		movq	%rax, 208(%rsp)
 5586      D0000000 
 5587 0ff7 4883C028 		addq	$40, %rax
 5588 0ffb 48C78424 		movq	$0, 568(%rsp)
 5588      38020000 
 5588      00000000 
 5589 1007 48898424 		movq	%rax, 352(%rsp)
 5589      60010000 
 5590 100f 0F118424 		movups	%xmm0, 584(%rsp)
 5590      48020000 
 5591 1017 0F118424 		movups	%xmm0, 600(%rsp)
 5591      58020000 
 5592              	.LEHB188:
 5593 101f E8000000 		call	_ZNSt9basic_iosIcSt11char_traitsIcEE4initEPSt15basic_streambufIcS1_E@PLT
 5593      00
 5594              	.LEHE188:
 5595 1024 488D0500 		leaq	64+_ZTCN8UnitTest15MemoryOutStreamE0_NSt7__cxx1119basic_ostringstreamIcSt11char_traitsIcESaIc
 5595      000000
 5596 102b 660F6F14 		movdqa	(%rsp), %xmm2
 5596      24
 5597 1030 660FEFC0 		pxor	%xmm0, %xmm0
 5598 1034 4C8DAC24 		leaq	208(%rsp), %r13
 5598      D0000000 
 5599 103c 48898424 		movq	%rax, 352(%rsp)
 5599      60010000 
 5600 1044 488D8424 		leaq	272(%rsp), %rax
 5600      10010000 
 5601 104c 4C8DB424 		leaq	216(%rsp), %r14
 5601      D8000000 
 5602 1054 4889C7   		movq	%rax, %rdi
 5603 1057 48894424 		movq	%rax, 56(%rsp)
 5603      38
 5604 105c 0F299424 		movaps	%xmm2, 208(%rsp)
 5604      D0000000 
 5605 1064 0F298424 		movaps	%xmm0, 224(%rsp)
 5605      E0000000 
 5606 106c 0F298424 		movaps	%xmm0, 240(%rsp)
 5606      F0000000 
 5607 1074 0F298424 		movaps	%xmm0, 256(%rsp)
 5607      00010000 
 5608 107c E8000000 		call	_ZNSt6localeC1Ev@PLT
 5608      00
 5609 1081 488D0500 		leaq	16+_ZTVNSt7__cxx1115basic_stringbufIcSt11char_traitsIcESaIcEEE(%rip), %rax
 5609      000000
 5610 1088 C6842430 		movb	$0, 304(%rsp)
 5610      01000000 
 5611 1090 4C89F6   		movq	%r14, %rsi
 5612 1093 48898424 		movq	%rax, 216(%rsp)
 5612      D8000000 
 5613 109b 488D8424 		leaq	304(%rsp), %rax
 5613      30010000 
 5614 10a3 48894424 		movq	%rax, 64(%rsp)
 5614      40
 5615 10a8 48898424 		movq	%rax, 288(%rsp)
 5615      20010000 
 5616 10b0 488B8424 		movq	208(%rsp), %rax
 5616      D0000000 
 5617 10b8 48C78424 		movq	$0, 296(%rsp)
 5617      28010000 
 5617      00000000 
 5618 10c4 C7842418 		movl	$16, 280(%rsp)
 5618      01000010 
 5618      000000
 5619 10cf 488B78E8 		movq	-24(%rax), %rdi
 5620 10d3 4C01EF   		addq	%r13, %rdi
 5621              	.LEHB189:
 5622 10d6 E8000000 		call	_ZNSt9basic_iosIcSt11char_traitsIcEE4initEPSt15basic_streambufIcS1_E@PLT
 5622      00
 5623              	.LEHE189:
 5624 10db 488D0500 		leaq	24+_ZTVN8UnitTest15MemoryOutStreamE(%rip), %rax
 5624      000000
 5625 10e2 BA0B0000 		movl	$11, %edx
 5625      00
 5626 10e7 4C89EF   		movq	%r13, %rdi
 5627 10ea 48C78424 		movq	$0, 328(%rsp)
 5627      48010000 
 5627      00000000 
 5628 10f6 48898424 		movq	%rax, 208(%rsp)
 5628      D0000000 
 5629 10fe 4883C028 		addq	$40, %rax
 5630 1102 488D3500 		leaq	.LC39(%rip), %rsi
 5630      000000
 5631 1109 48898424 		movq	%rax, 352(%rsp)
 5631      60010000 
 5632 1111 488D8424 		leaq	336(%rsp), %rax
 5632      50010000 
 5633 1119 48894424 		movq	%rax, 72(%rsp)
 5633      48
 5634 111e 48898424 		movq	%rax, 320(%rsp)
 5634      40010000 
 5635 1126 C6842450 		movb	$0, 336(%rsp)
 5635      01000000 
 5636              	.LEHB190:
 5637 112e E8000000 		call	_ZSt16__ostream_insertIcSt11char_traitsIcEERSt13basic_ostreamIT_T0_ES6_PKS3_l@PLT
 5637      00
 5638 1133 488D8424 		leaq	632(%rsp), %rax
 5638      78020000 
 5639 113b 488D9C24 		leaq	628(%rsp), %rbx
 5639      74020000 
 5640 1143 48890424 		movq	%rax, (%rsp)
 5641 1147 488D4424 		leaq	95(%rsp), %rax
 5641      5F
 5642 114c 4C8D3500 		leaq	.LC40(%rip), %r14
 5642      000000
 5643 1153 48894424 		movq	%rax, 24(%rsp)
 5643      18
 5644              	.L325:
 5645 1158 0FB603   		movzbl	(%rbx), %eax
 5646 115b 488B7424 		movq	24(%rsp), %rsi
 5646      18
 5647 1160 BA010000 		movl	$1, %edx
 5647      00
 5648 1165 4C89EF   		movq	%r13, %rdi
 5649 1168 8844245F 		movb	%al, 95(%rsp)
 5650 116c E8000000 		call	_ZSt16__ostream_insertIcSt11char_traitsIcEERSt13basic_ostreamIT_T0_ES6_PKS3_l@PLT
 5650      00
 5651 1171 4889C7   		movq	%rax, %rdi
 5652 1174 BA010000 		movl	$1, %edx
 5652      00
 5653 1179 4C89F6   		movq	%r14, %rsi
 5654 117c E8000000 		call	_ZSt16__ostream_insertIcSt11char_traitsIcEERSt13basic_ostreamIT_T0_ES6_PKS3_l@PLT
 5654      00
 5655 1181 4883C301 		addq	$1, %rbx
 5656 1185 48391C24 		cmpq	%rbx, (%rsp)
 5657 1189 75CD     		jne	.L325
 5658 118b BA0C0000 		movl	$12, %edx
 5658      00
 5659 1190 488D3500 		leaq	.LC41(%rip), %rsi
 5659      000000
 5660 1197 4C89EF   		movq	%r13, %rdi
 5661 119a E8000000 		call	_ZSt16__ostream_insertIcSt11char_traitsIcEERSt13basic_ostreamIT_T0_ES6_PKS3_l@PLT
 5661      00
 5662 119f 498D8424 		leaq	3045(%r12), %rax
 5662      E50B0000 
 5663 11a7 488B5C24 		movq	32(%rsp), %rbx
 5663      20
 5664 11ac 4C8D6424 		leaq	104(%rsp), %r12
 5664      68
 5665 11b1 48890424 		movq	%rax, (%rsp)
 5666              		.p2align 4,,10
 5667 11b5 0F1F00   		.p2align 3
 5668              	.L326:
 5669 11b8 0FB603   		movzbl	(%rbx), %eax
 5670 11bb BA010000 		movl	$1, %edx
 5670      00
 5671 11c0 4C89E6   		movq	%r12, %rsi
 5672 11c3 4C89EF   		movq	%r13, %rdi
 5673 11c6 88442468 		movb	%al, 104(%rsp)
 5674 11ca E8000000 		call	_ZSt16__ostream_insertIcSt11char_traitsIcEERSt13basic_ostreamIT_T0_ES6_PKS3_l@PLT
 5674      00
 5675 11cf 4889C7   		movq	%rax, %rdi
 5676 11d2 BA010000 		movl	$1, %edx
 5676      00
 5677 11d7 4C89F6   		movq	%r14, %rsi
 5678 11da E8000000 		call	_ZSt16__ostream_insertIcSt11char_traitsIcEERSt13basic_ostreamIT_T0_ES6_PKS3_l@PLT
 5678      00
 5679 11df 4883C301 		addq	$1, %rbx
 5680 11e3 48391C24 		cmpq	%rbx, (%rsp)
 5681 11e7 75CF     		jne	.L326
 5682 11e9 BA010000 		movl	$1, %edx
 5682      00
 5683 11ee 488D3500 		leaq	.LC42(%rip), %rsi
 5683      000000
 5684 11f5 4C89EF   		movq	%r13, %rdi
 5685 11f8 E8000000 		call	_ZSt16__ostream_insertIcSt11char_traitsIcEERSt13basic_ostreamIT_T0_ES6_PKS3_l@PLT
 5685      00
 5686 11fd 4C89EF   		movq	%r13, %rdi
 5687 1200 E8000000 		call	_ZNK8UnitTest15MemoryOutStream7GetTextEv@PLT
 5687      00
 5688 1205 488B7C24 		movq	40(%rsp), %rdi
 5688      28
 5689 120a 4889C2   		movq	%rax, %rdx
 5690 120d 4889EE   		movq	%rbp, %rsi
 5691 1210 E8000000 		call	_ZN8UnitTest11TestResults13OnTestFailureERKNS_11TestDetailsEPKc@PLT
 5691      00
 5692              	.LEHE190:
 5693 1215 488D0500 		leaq	24+_ZTVN8UnitTest15MemoryOutStreamE(%rip), %rax
 5693      000000
 5694 121c 488BBC24 		movq	320(%rsp), %rdi
 5694      40010000 
 5695 1224 F30F7E05 		movq	.LC2(%rip), %xmm0
 5695      00000000 
 5696 122c 48898424 		movq	%rax, 208(%rsp)
 5696      D0000000 
 5697 1234 4883C028 		addq	$40, %rax
 5698 1238 48898424 		movq	%rax, 352(%rsp)
 5698      60010000 
 5699 1240 0F160500 		movhps	.LC4(%rip), %xmm0
 5699      000000
 5700 1247 483B7C24 		cmpq	72(%rsp), %rdi
 5700      48
 5701 124c 740E     		je	.L327
 5702 124e 0F290424 		movaps	%xmm0, (%rsp)
 5703 1252 E8000000 		call	_ZdlPv@PLT
 5703      00
 5704 1257 660F6F04 		movdqa	(%rsp), %xmm0
 5704      24
 5705              	.L327:
 5706 125c 488D0500 		leaq	64+_ZTCN8UnitTest15MemoryOutStreamE0_NSt7__cxx1119basic_ostringstreamIcSt11char_traitsIcESaIc
 5706      000000
 5707 1263 488BBC24 		movq	288(%rsp), %rdi
 5707      20010000 
 5708 126b 0F298424 		movaps	%xmm0, 208(%rsp)
 5708      D0000000 
 5709 1273 48898424 		movq	%rax, 352(%rsp)
 5709      60010000 
 5710 127b 483B7C24 		cmpq	64(%rsp), %rdi
 5710      40
 5711 1280 7405     		je	.L328
 5712 1282 E8000000 		call	_ZdlPv@PLT
 5712      00
 5713              	.L328:
 5714 1287 488B7C24 		movq	56(%rsp), %rdi
 5714      38
 5715 128c 488D0500 		leaq	16+_ZTVSt15basic_streambufIcSt11char_traitsIcEE(%rip), %rax
 5715      000000
 5716 1293 48898424 		movq	%rax, 216(%rsp)
 5716      D8000000 
 5717 129b E8000000 		call	_ZNSt6localeD1Ev@PLT
 5717      00
 5718 12a0 488D0500 		leaq	24+_ZTCN8UnitTest15MemoryOutStreamE0_So(%rip), %rax
 5718      000000
 5719 12a7 488B7C24 		movq	48(%rsp), %rdi
 5719      30
 5720 12ac 48898424 		movq	%rax, 208(%rsp)
 5720      D0000000 
 5721 12b4 488D0500 		leaq	16+_ZTVSt9basic_iosIcSt11char_traitsIcEE(%rip), %rax
 5721      000000
 5722 12bb 48898424 		movq	%rax, 352(%rsp)
 5722      60010000 
 5723              	.LEHB191:
 5724 12c3 E8000000 		call	_ZNSt8ios_baseD2Ev@PLT
 5724      00
 5725              	.LEHE191:
 5726 12c8 E9B6FCFF 		jmp	.L329
 5726      FF
 5727              	.L388:
 5728 12cd E8000000 		call	__stack_chk_fail@PLT
 5728      00
 5729              	.L361:
 5730 12d2 F30F1EFA 		endbr64
 5731 12d6 4889C7   		movq	%rax, %rdi
 5732 12d9 E9000000 		jmp	.L337
 5732      00
 5733              	.L359:
 5734 12de F30F1EFA 		endbr64
 5735 12e2 4889C7   		movq	%rax, %rdi
 5736 12e5 E9000000 		jmp	.L334
 5736      00
 5737              	.L369:
 5738 12ea F30F1EFA 		endbr64
 5739 12ee 4889C7   		movq	%rax, %rdi
 5740 12f1 E9000000 		jmp	.L349
 5740      00
 5741              	.L367:
 5742 12f6 F30F1EFA 		endbr64
 5743 12fa 4889C7   		movq	%rax, %rdi
 5744 12fd E9000000 		jmp	.L346
 5744      00
 5745              	.L373:
 5746 1302 F30F1EFA 		endbr64
 5747 1306 4889C7   		movq	%rax, %rdi
 5748 1309 E9000000 		jmp	.L324
 5748      00
 5749              	.L371:
 5750 130e F30F1EFA 		endbr64
 5751 1312 4889C7   		movq	%rax, %rdi
 5752 1315 E9000000 		jmp	.L352
 5752      00
 5753              	.L357:
 5754 131a F30F1EFA 		endbr64
 5755 131e 4889C7   		movq	%rax, %rdi
 5756 1321 E9000000 		jmp	.L331
 5756      00
 5757              	.L375:
 5758 1326 F30F1EFA 		endbr64
 5759 132a 4889C3   		movq	%rax, %rbx
 5760 132d E9000000 		jmp	.L330
 5760      00
 5761              	.L365:
 5762 1332 F30F1EFA 		endbr64
 5763 1336 4889C7   		movq	%rax, %rdi
 5764 1339 E9000000 		jmp	.L343
 5764      00
 5765              	.L363:
 5766 133e F30F1EFA 		endbr64
 5767 1342 4889C7   		movq	%rax, %rdi
 5768 1345 E9000000 		jmp	.L340
 5768      00
 5769              	.L376:
 5770 134a F30F1EFA 		endbr64
 5771 134e 4889C3   		movq	%rax, %rbx
 5772 1351 E9000000 		jmp	.L322
 5772      00
 5773              	.L377:
 5774 1356 F30F1EFA 		endbr64
 5775 135a 4889C3   		movq	%rax, %rbx
 5776 135d E9000000 		jmp	.L321
 5776      00
 5777              		.section	.gcc_except_table
 5778              		.align 4
 5779              	.LLSDA1310:
 5780 03a4 FF       		.byte	0xff
 5781 03a5 9B       		.byte	0x9b
 5782 03a6 6D       		.uleb128 .LLSDATT1310-.LLSDATTD1310
 5783              	.LLSDATTD1310:
 5784 03a7 01       		.byte	0x1
 5785 03a8 61       		.uleb128 .LLSDACSE1310-.LLSDACSB1310
 5786              	.LLSDACSB1310:
 5787 03a9 51       		.uleb128 .LEHB175-.LFB1310
 5788 03aa 05       		.uleb128 .LEHE175-.LEHB175
 5789 03ab 00       		.uleb128 0
 5790 03ac 00       		.uleb128 0
 5791 03ad 5A       		.uleb128 .LEHB176-.LFB1310
 5792 03ae 48       		.uleb128 .LEHE176-.LEHB176
 5793 03af 9A0D     		.uleb128 .L357-.LFB1310
 5794 03b1 01       		.uleb128 0x1
 5795 03b2 AE01     		.uleb128 .LEHB177-.LFB1310
 5796 03b4 05       		.uleb128 .LEHE177-.LEHB177
 5797 03b5 00       		.uleb128 0
 5798 03b6 00       		.uleb128 0
 5799 03b7 B701     		.uleb128 .LEHB178-.LFB1310
 5800 03b9 3A       		.uleb128 .LEHE178-.LEHB178
 5801 03ba DE0C     		.uleb128 .L359-.LFB1310
 5802 03bc 01       		.uleb128 0x1
 5803 03bd 9502     		.uleb128 .LEHB179-.LFB1310
 5804 03bf 05       		.uleb128 .LEHE179-.LEHB179
 5805 03c0 00       		.uleb128 0
 5806 03c1 00       		.uleb128 0
 5807 03c2 A002     		.uleb128 .LEHB180-.LFB1310
 5808 03c4 3A       		.uleb128 .LEHE180-.LEHB180
 5809 03c5 D20C     		.uleb128 .L361-.LFB1310
 5810 03c7 01       		.uleb128 0x1
 5811 03c8 DA02     		.uleb128 .LEHB181-.LFB1310
 5812 03ca 38       		.uleb128 .LEHE181-.LEHB181
 5813 03cb BE0D     		.uleb128 .L363-.LFB1310
 5814 03cd 01       		.uleb128 0x1
 5815 03ce 9203     		.uleb128 .LEHB182-.LFB1310
 5816 03d0 3B       		.uleb128 .LEHE182-.LEHB182
 5817 03d1 B20D     		.uleb128 .L365-.LFB1310
 5818 03d3 01       		.uleb128 0x1
 5819 03d4 CD03     		.uleb128 .LEHB183-.LFB1310
 5820 03d6 3E       		.uleb128 .LEHE183-.LEHB183
 5821 03d7 F60C     		.uleb128 .L367-.LFB1310
 5822 03d9 01       		.uleb128 0x1
 5823 03da 8B04     		.uleb128 .LEHB184-.LFB1310
 5824 03dc 3E       		.uleb128 .LEHE184-.LEHB184
 5825 03dd EA0C     		.uleb128 .L369-.LFB1310
 5826 03df 01       		.uleb128 0x1
 5827 03e0 C904     		.uleb128 .LEHB185-.LFB1310
 5828 03e2 3E       		.uleb128 .LEHE185-.LEHB185
 5829 03e3 8E0D     		.uleb128 .L371-.LFB1310
 5830 03e5 01       		.uleb128 0x1
 5831 03e6 8705     		.uleb128 .LEHB186-.LFB1310
 5832 03e8 2C       		.uleb128 .LEHE186-.LEHB186
 5833 03e9 820D     		.uleb128 .L373-.LFB1310
 5834 03eb 01       		.uleb128 0x1
 5835 03ec 8606     		.uleb128 .LEHB187-.LFB1310
 5836 03ee 0F       		.uleb128 .LEHE187-.LEHB187
 5837 03ef 00       		.uleb128 0
 5838 03f0 00       		.uleb128 0
 5839 03f1 9F07     		.uleb128 .LEHB188-.LFB1310
 5840 03f3 05       		.uleb128 .LEHE188-.LEHB188
 5841 03f4 CA0D     		.uleb128 .L376-.LFB1310
 5842 03f6 03       		.uleb128 0x3
 5843 03f7 D608     		.uleb128 .LEHB189-.LFB1310
 5844 03f9 05       		.uleb128 .LEHE189-.LEHB189
 5845 03fa D60D     		.uleb128 .L377-.LFB1310
 5846 03fc 03       		.uleb128 0x3
 5847 03fd AE09     		.uleb128 .LEHB190-.LFB1310
 5848 03ff E701     		.uleb128 .LEHE190-.LEHB190
 5849 0401 A60D     		.uleb128 .L375-.LFB1310
 5850 0403 03       		.uleb128 0x3
 5851 0404 C30C     		.uleb128 .LEHB191-.LFB1310
 5852 0406 05       		.uleb128 .LEHE191-.LEHB191
 5853 0407 820D     		.uleb128 .L373-.LFB1310
 5854 0409 01       		.uleb128 0x1
 5855              	.LLSDACSE1310:
 5856 040a 01       		.byte	0x1
 5857 040b 00       		.byte	0
 5858 040c 00       		.byte	0
 5859 040d 7D       		.byte	0x7d
 5860 040e 0000     		.align 4
 5861 0410 00000000 		.long	0
 5862              	
 5863              	.LLSDATT1310:
 5864              		.text
 5865              		.cfi_endproc
 5866              		.section	.text.unlikely
 5867              		.cfi_startproc
 5868              		.cfi_personality 0x9b,DW.ref.__gxx_personality_v0
 5869              		.cfi_lsda 0x1b,.LLSDAC1310
 5871              	_ZNK27TestHexIO_testValidDataLine7RunImplEv.cold:
 5872              	.LFSB1310:
 5873              	.L337:
 5874              		.cfi_def_cfa_offset 704
 5875              		.cfi_offset 3, -56
 5876              		.cfi_offset 6, -48
 5877              		.cfi_offset 12, -40
 5878              		.cfi_offset 13, -32
 5879              		.cfi_offset 14, -24
 5880              		.cfi_offset 15, -16
 5881 07f0 E8000000 		call	__cxa_begin_catch@PLT
 5881      00
 5882              	.LEHB192:
 5883 07f5 E8000000 		call	_ZN8UnitTest11CurrentTest7ResultsEv@PLT
 5883      00
 5884 07fa 4C8B20   		movq	(%rax), %r12
 5885 07fd E8000000 		call	_ZN8UnitTest11CurrentTest7DetailsEv@PLT
 5885      00
 5886 0802 488B30   		movq	(%rax), %rsi
 5887 0805 BA270000 		movl	$39, %edx
 5887      00
 5888 080a 4889EF   		movq	%rbp, %rdi
 5889 080d E8000000 		call	_ZN8UnitTest11TestDetailsC1ERKS0_i@PLT
 5889      00
 5890 0812 488D1500 		leaq	.LC6(%rip), %rdx
 5890      000000
 5891 0819 4889EE   		movq	%rbp, %rsi
 5892 081c 4C89E7   		movq	%r12, %rdi
 5893 081f E8000000 		call	_ZN8UnitTest11TestResults13OnTestFailureERKNS_11TestDetailsEPKc@PLT
 5893      00
 5894              	.LEHE192:
 5895              	.LEHB193:
 5896 0824 E8000000 		call	__cxa_end_catch@PLT
 5896      00
 5897              	.LEHE193:
 5898 0829 E9000000 		jmp	.L338
 5898      00
 5899              	.L334:
 5900 082e E8000000 		call	__cxa_begin_catch@PLT
 5900      00
 5901              	.LEHB194:
 5902 0833 E8000000 		call	_ZN8UnitTest11CurrentTest7ResultsEv@PLT
 5902      00
 5903 0838 4C8B20   		movq	(%rax), %r12
 5904 083b E8000000 		call	_ZN8UnitTest11CurrentTest7DetailsEv@PLT
 5904      00
 5905 0840 488B30   		movq	(%rax), %rsi
 5906 0843 BA250000 		movl	$37, %edx
 5906      00
 5907 0848 4889EF   		movq	%rbp, %rdi
 5908 084b E8000000 		call	_ZN8UnitTest11TestDetailsC1ERKS0_i@PLT
 5908      00
 5909 0850 488D1500 		leaq	.LC6(%rip), %rdx
 5909      000000
 5910 0857 4889EE   		movq	%rbp, %rsi
 5911 085a 4C89E7   		movq	%r12, %rdi
 5912 085d E8000000 		call	_ZN8UnitTest11TestResults13OnTestFailureERKNS_11TestDetailsEPKc@PLT
 5912      00
 5913              	.LEHE194:
 5914              	.LEHB195:
 5915 0862 E8000000 		call	__cxa_end_catch@PLT
 5915      00
 5916              	.LEHE195:
 5917 0867 E9000000 		jmp	.L335
 5917      00
 5918              	.L362:
 5919 086c F30F1EFA 		endbr64
 5920 0870 4889C5   		movq	%rax, %rbp
 5921 0873 E8000000 		call	__cxa_end_catch@PLT
 5921      00
 5922 0878 4889EF   		movq	%rbp, %rdi
 5923              	.LEHB196:
 5924 087b E8000000 		call	_Unwind_Resume@PLT
 5924      00
 5925              	.LEHE196:
 5926              	.L360:
 5927 0880 F30F1EFA 		endbr64
 5928 0884 4889C5   		movq	%rax, %rbp
 5929 0887 E8000000 		call	__cxa_end_catch@PLT
 5929      00
 5930 088c 4889EF   		movq	%rbp, %rdi
 5931              	.LEHB197:
 5932 088f E8000000 		call	_Unwind_Resume@PLT
 5932      00
 5933              	.LEHE197:
 5934              	.L349:
 5935 0894 E8000000 		call	__cxa_begin_catch@PLT
 5935      00
 5936              	.LEHB198:
 5937 0899 E8000000 		call	_ZN8UnitTest11CurrentTest7ResultsEv@PLT
 5937      00
 5938 089e 4C8B20   		movq	(%rax), %r12
 5939 08a1 E8000000 		call	_ZN8UnitTest11CurrentTest7DetailsEv@PLT
 5939      00
 5940 08a6 488B30   		movq	(%rax), %rsi
 5941 08a9 BA2B0000 		movl	$43, %edx
 5941      00
 5942 08ae 4889EF   		movq	%rbp, %rdi
 5943 08b1 E8000000 		call	_ZN8UnitTest11TestDetailsC1ERKS0_i@PLT
 5943      00
 5944 08b6 488D1500 		leaq	.LC46(%rip), %rdx
 5944      000000
 5945 08bd 4889EE   		movq	%rbp, %rsi
 5946 08c0 4C89E7   		movq	%r12, %rdi
 5947 08c3 E8000000 		call	_ZN8UnitTest11TestResults13OnTestFailureERKNS_11TestDetailsEPKc@PLT
 5947      00
 5948              	.LEHE198:
 5949              	.LEHB199:
 5950 08c8 E8000000 		call	__cxa_end_catch@PLT
 5950      00
 5951              	.LEHE199:
 5952 08cd E9000000 		jmp	.L350
 5952      00
 5953              	.L346:
 5954 08d2 E8000000 		call	__cxa_begin_catch@PLT
 5954      00
 5955              	.LEHB200:
 5956 08d7 E8000000 		call	_ZN8UnitTest11CurrentTest7ResultsEv@PLT
 5956      00
 5957 08dc 4C8B20   		movq	(%rax), %r12
 5958 08df E8000000 		call	_ZN8UnitTest11CurrentTest7DetailsEv@PLT
 5958      00
 5959 08e4 488B30   		movq	(%rax), %rsi
 5960 08e7 BA2A0000 		movl	$42, %edx
 5960      00
 5961 08ec 4889EF   		movq	%rbp, %rdi
 5962 08ef E8000000 		call	_ZN8UnitTest11TestDetailsC1ERKS0_i@PLT
 5962      00
 5963 08f4 488D1500 		leaq	.LC45(%rip), %rdx
 5963      000000
 5964 08fb 4889EE   		movq	%rbp, %rsi
 5965 08fe 4C89E7   		movq	%r12, %rdi
 5966 0901 E8000000 		call	_ZN8UnitTest11TestResults13OnTestFailureERKNS_11TestDetailsEPKc@PLT
 5966      00
 5967              	.LEHE200:
 5968              	.LEHB201:
 5969 0906 E8000000 		call	__cxa_end_catch@PLT
 5969      00
 5970              	.LEHE201:
 5971 090b E9000000 		jmp	.L347
 5971      00
 5972              	.L370:
 5973 0910 F30F1EFA 		endbr64
 5974 0914 4889C5   		movq	%rax, %rbp
 5975 0917 E8000000 		call	__cxa_end_catch@PLT
 5975      00
 5976 091c 4889EF   		movq	%rbp, %rdi
 5977              	.LEHB202:
 5978 091f E8000000 		call	_Unwind_Resume@PLT
 5978      00
 5979              	.LEHE202:
 5980              	.L368:
 5981 0924 F30F1EFA 		endbr64
 5982 0928 4889C5   		movq	%rax, %rbp
 5983 092b E8000000 		call	__cxa_end_catch@PLT
 5983      00
 5984 0930 4889EF   		movq	%rbp, %rdi
 5985              	.LEHB203:
 5986 0933 E8000000 		call	_Unwind_Resume@PLT
 5986      00
 5987              	.LEHE203:
 5988              	.L321:
 5989 0938 4C89F7   		movq	%r14, %rdi
 5990 093b E8000000 		call	_ZNSt7__cxx1115basic_stringbufIcSt11char_traitsIcESaIcEED1Ev
 5990      00
 5991 0940 488D0500 		leaq	24+_ZTCN8UnitTest15MemoryOutStreamE0_So(%rip), %rax
 5991      000000
 5992 0947 48898424 		movq	%rax, 208(%rsp)
 5992      D0000000 
 5993              	.L322:
 5994 094f 488B7C24 		movq	48(%rsp), %rdi
 5994      30
 5995 0954 488D0500 		leaq	16+_ZTVSt9basic_iosIcSt11char_traitsIcEE(%rip), %rax
 5995      000000
 5996 095b 48898424 		movq	%rax, 352(%rsp)
 5996      60010000 
 5997 0963 E8000000 		call	_ZNSt8ios_baseD2Ev@PLT
 5997      00
 5998 0968 4889DF   		movq	%rbx, %rdi
 5999              	.L324:
 6000 096b E8000000 		call	__cxa_begin_catch@PLT
 6000      00
 6001              	.LEHB204:
 6002 0970 E8000000 		call	_ZN8UnitTest11CurrentTest7ResultsEv@PLT
 6002      00
 6003 0975 4C8B20   		movq	(%rax), %r12
 6004 0978 E8000000 		call	_ZN8UnitTest11CurrentTest7DetailsEv@PLT
 6004      00
 6005 097d 488B30   		movq	(%rax), %rsi
 6006 0980 BA2D0000 		movl	$45, %edx
 6006      00
 6007 0985 4889EF   		movq	%rbp, %rdi
 6008 0988 E8000000 		call	_ZN8UnitTest11TestDetailsC1ERKS0_i@PLT
 6008      00
 6009 098d 488D1500 		leaq	.LC48(%rip), %rdx
 6009      000000
 6010 0994 4889EE   		movq	%rbp, %rsi
 6011 0997 4C89E7   		movq	%r12, %rdi
 6012 099a E8000000 		call	_ZN8UnitTest11TestResults13OnTestFailureERKNS_11TestDetailsEPKc@PLT
 6012      00
 6013              	.LEHE204:
 6014              	.LEHB205:
 6015 099f E8000000 		call	__cxa_end_catch@PLT
 6015      00
 6016              	.LEHE205:
 6017 09a4 E9000000 		jmp	.L329
 6017      00
 6018              	.L352:
 6019 09a9 E8000000 		call	__cxa_begin_catch@PLT
 6019      00
 6020              	.LEHB206:
 6021 09ae E8000000 		call	_ZN8UnitTest11CurrentTest7ResultsEv@PLT
 6021      00
 6022 09b3 4C8B20   		movq	(%rax), %r12
 6023 09b6 E8000000 		call	_ZN8UnitTest11CurrentTest7DetailsEv@PLT
 6023      00
 6024 09bb 488B30   		movq	(%rax), %rsi
 6025 09be BA2C0000 		movl	$44, %edx
 6025      00
 6026 09c3 4889EF   		movq	%rbp, %rdi
 6027 09c6 E8000000 		call	_ZN8UnitTest11TestDetailsC1ERKS0_i@PLT
 6027      00
 6028 09cb 488D1500 		leaq	.LC47(%rip), %rdx
 6028      000000
 6029 09d2 4889EE   		movq	%rbp, %rsi
 6030 09d5 4C89E7   		movq	%r12, %rdi
 6031 09d8 E8000000 		call	_ZN8UnitTest11TestResults13OnTestFailureERKNS_11TestDetailsEPKc@PLT
 6031      00
 6032              	.LEHE206:
 6033              	.LEHB207:
 6034 09dd E8000000 		call	__cxa_end_catch@PLT
 6034      00
 6035              	.LEHE207:
 6036 09e2 E9000000 		jmp	.L353
 6036      00
 6037              	.L374:
 6038 09e7 F30F1EFA 		endbr64
 6039 09eb 4889C5   		movq	%rax, %rbp
 6040 09ee E8000000 		call	__cxa_end_catch@PLT
 6040      00
 6041 09f3 4889EF   		movq	%rbp, %rdi
 6042              	.LEHB208:
 6043 09f6 E8000000 		call	_Unwind_Resume@PLT
 6043      00
 6044              	.LEHE208:
 6045              	.L372:
 6046 09fb F30F1EFA 		endbr64
 6047 09ff 4889C5   		movq	%rax, %rbp
 6048 0a02 E8000000 		call	__cxa_end_catch@PLT
 6048      00
 6049 0a07 4889EF   		movq	%rbp, %rdi
 6050              	.LEHB209:
 6051 0a0a E8000000 		call	_Unwind_Resume@PLT
 6051      00
 6052              	.LEHE209:
 6053              	.L331:
 6054 0a0f E8000000 		call	__cxa_begin_catch@PLT
 6054      00
 6055              	.LEHB210:
 6056 0a14 E8000000 		call	_ZN8UnitTest11CurrentTest7ResultsEv@PLT
 6056      00
 6057 0a19 4C8B20   		movq	(%rax), %r12
 6058 0a1c E8000000 		call	_ZN8UnitTest11CurrentTest7DetailsEv@PLT
 6058      00
 6059 0a21 488DAC24 		leaq	176(%rsp), %rbp
 6059      B0000000 
 6060 0a29 488B30   		movq	(%rax), %rsi
 6061 0a2c BA230000 		movl	$35, %edx
 6061      00
 6062 0a31 4889EF   		movq	%rbp, %rdi
 6063 0a34 E8000000 		call	_ZN8UnitTest11TestDetailsC1ERKS0_i@PLT
 6063      00
 6064 0a39 488D1500 		leaq	.LC6(%rip), %rdx
 6064      000000
 6065 0a40 4889EE   		movq	%rbp, %rsi
 6066 0a43 4C89E7   		movq	%r12, %rdi
 6067 0a46 E8000000 		call	_ZN8UnitTest11TestResults13OnTestFailureERKNS_11TestDetailsEPKc@PLT
 6067      00
 6068              	.LEHE210:
 6069              	.LEHB211:
 6070 0a4b E8000000 		call	__cxa_end_catch@PLT
 6070      00
 6071              	.LEHE211:
 6072 0a50 4C8DBC24 		leaq	144(%rsp), %r15
 6072      90000000 
 6073 0a58 E9000000 		jmp	.L332
 6073      00
 6074              	.L330:
 6075 0a5d 4C89EF   		movq	%r13, %rdi
 6076 0a60 E8000000 		call	_ZN8UnitTest15MemoryOutStreamD1Ev
 6076      00
 6077 0a65 4889DF   		movq	%rbx, %rdi
 6078 0a68 E9FEFEFF 		jmp	.L324
 6078      FF
 6079              	.L358:
 6080 0a6d F30F1EFA 		endbr64
 6081 0a71 4889C5   		movq	%rax, %rbp
 6082 0a74 E8000000 		call	__cxa_end_catch@PLT
 6082      00
 6083 0a79 4889EF   		movq	%rbp, %rdi
 6084              	.LEHB212:
 6085 0a7c E8000000 		call	_Unwind_Resume@PLT
 6085      00
 6086              	.LEHE212:
 6087              	.L343:
 6088 0a81 E8000000 		call	__cxa_begin_catch@PLT
 6088      00
 6089              	.LEHB213:
 6090 0a86 E8000000 		call	_ZN8UnitTest11CurrentTest7ResultsEv@PLT
 6090      00
 6091 0a8b 4C8B20   		movq	(%rax), %r12
 6092 0a8e E8000000 		call	_ZN8UnitTest11CurrentTest7DetailsEv@PLT
 6092      00
 6093 0a93 488B30   		movq	(%rax), %rsi
 6094 0a96 BA290000 		movl	$41, %edx
 6094      00
 6095 0a9b 4889EF   		movq	%rbp, %rdi
 6096 0a9e E8000000 		call	_ZN8UnitTest11TestDetailsC1ERKS0_i@PLT
 6096      00
 6097 0aa3 488D1500 		leaq	.LC44(%rip), %rdx
 6097      000000
 6098 0aaa 4889EE   		movq	%rbp, %rsi
 6099 0aad 4C89E7   		movq	%r12, %rdi
 6100 0ab0 E8000000 		call	_ZN8UnitTest11TestResults13OnTestFailureERKNS_11TestDetailsEPKc@PLT
 6100      00
 6101              	.LEHE213:
 6102              	.LEHB214:
 6103 0ab5 E8000000 		call	__cxa_end_catch@PLT
 6103      00
 6104              	.LEHE214:
 6105 0aba E9000000 		jmp	.L344
 6105      00
 6106              	.L340:
 6107 0abf E8000000 		call	__cxa_begin_catch@PLT
 6107      00
 6108              	.LEHB215:
 6109 0ac4 E8000000 		call	_ZN8UnitTest11CurrentTest7ResultsEv@PLT
 6109      00
 6110 0ac9 4C8B20   		movq	(%rax), %r12
 6111 0acc E8000000 		call	_ZN8UnitTest11CurrentTest7DetailsEv@PLT
 6111      00
 6112 0ad1 488B30   		movq	(%rax), %rsi
 6113 0ad4 BA280000 		movl	$40, %edx
 6113      00
 6114 0ad9 4889EF   		movq	%rbp, %rdi
 6115 0adc E8000000 		call	_ZN8UnitTest11TestDetailsC1ERKS0_i@PLT
 6115      00
 6116 0ae1 488D1500 		leaq	.LC43(%rip), %rdx
 6116      000000
 6117 0ae8 4889EE   		movq	%rbp, %rsi
 6118 0aeb 4C89E7   		movq	%r12, %rdi
 6119 0aee E8000000 		call	_ZN8UnitTest11TestResults13OnTestFailureERKNS_11TestDetailsEPKc@PLT
 6119      00
 6120              	.LEHE215:
 6121              	.LEHB216:
 6122 0af3 E8000000 		call	__cxa_end_catch@PLT
 6122      00
 6123              	.LEHE216:
 6124 0af8 E9000000 		jmp	.L341
 6124      00
 6125              	.L366:
 6126 0afd F30F1EFA 		endbr64
 6127 0b01 4889C5   		movq	%rax, %rbp
 6128 0b04 E8000000 		call	__cxa_end_catch@PLT
 6128      00
 6129 0b09 4889EF   		movq	%rbp, %rdi
 6130              	.LEHB217:
 6131 0b0c E8000000 		call	_Unwind_Resume@PLT
 6131      00
 6132              	.LEHE217:
 6133              	.L364:
 6134 0b11 F30F1EFA 		endbr64
 6135 0b15 4889C5   		movq	%rax, %rbp
 6136 0b18 E8000000 		call	__cxa_end_catch@PLT
 6136      00
 6137 0b1d 4889EF   		movq	%rbp, %rdi
 6138              	.LEHB218:
 6139 0b20 E8000000 		call	_Unwind_Resume@PLT
 6139      00
 6140              	.LEHE218:
 6141              		.cfi_endproc
 6142              	.LFE1310:
 6143              		.section	.gcc_except_table
 6144              		.align 4
 6145              	.LLSDAC1310:
 6146 0414 FF       		.byte	0xff
 6147 0415 9B       		.byte	0x9b
 6148 0416 9801     		.uleb128 .LLSDATTC1310-.LLSDATTDC1310
 6149              	.LLSDATTDC1310:
 6150 0418 01       		.byte	0x1
 6151 0419 8B01     		.uleb128 .LLSDACSEC1310-.LLSDACSBC1310
 6152              	.LLSDACSBC1310:
 6153 041b 05       		.uleb128 .LEHB192-.LCOLDB49
 6154 041c 2F       		.uleb128 .LEHE192-.LEHB192
 6155 041d 7C       		.uleb128 .L362-.LCOLDB49
 6156 041e 00       		.uleb128 0
 6157 041f 34       		.uleb128 .LEHB193-.LCOLDB49
 6158 0420 05       		.uleb128 .LEHE193-.LEHB193
 6159 0421 00       		.uleb128 0
 6160 0422 00       		.uleb128 0
 6161 0423 43       		.uleb128 .LEHB194-.LCOLDB49
 6162 0424 2F       		.uleb128 .LEHE194-.LEHB194
 6163 0425 9001     		.uleb128 .L360-.LCOLDB49
 6164 0427 00       		.uleb128 0
 6165 0428 72       		.uleb128 .LEHB195-.LCOLDB49
 6166 0429 05       		.uleb128 .LEHE195-.LEHB195
 6167 042a 00       		.uleb128 0
 6168 042b 00       		.uleb128 0
 6169 042c 8B01     		.uleb128 .LEHB196-.LCOLDB49
 6170 042e 05       		.uleb128 .LEHE196-.LEHB196
 6171 042f 00       		.uleb128 0
 6172 0430 00       		.uleb128 0
 6173 0431 9F01     		.uleb128 .LEHB197-.LCOLDB49
 6174 0433 05       		.uleb128 .LEHE197-.LEHB197
 6175 0434 00       		.uleb128 0
 6176 0435 00       		.uleb128 0
 6177 0436 A901     		.uleb128 .LEHB198-.LCOLDB49
 6178 0438 2F       		.uleb128 .LEHE198-.LEHB198
 6179 0439 A002     		.uleb128 .L370-.LCOLDB49
 6180 043b 00       		.uleb128 0
 6181 043c D801     		.uleb128 .LEHB199-.LCOLDB49
 6182 043e 05       		.uleb128 .LEHE199-.LEHB199
 6183 043f 00       		.uleb128 0
 6184 0440 00       		.uleb128 0
 6185 0441 E701     		.uleb128 .LEHB200-.LCOLDB49
 6186 0443 2F       		.uleb128 .LEHE200-.LEHB200
 6187 0444 B402     		.uleb128 .L368-.LCOLDB49
 6188 0446 00       		.uleb128 0
 6189 0447 9602     		.uleb128 .LEHB201-.LCOLDB49
 6190 0449 05       		.uleb128 .LEHE201-.LEHB201
 6191 044a 00       		.uleb128 0
 6192 044b 00       		.uleb128 0
 6193 044c AF02     		.uleb128 .LEHB202-.LCOLDB49
 6194 044e 05       		.uleb128 .LEHE202-.LEHB202
 6195 044f 00       		.uleb128 0
 6196 0450 00       		.uleb128 0
 6197 0451 C302     		.uleb128 .LEHB203-.LCOLDB49
 6198 0453 05       		.uleb128 .LEHE203-.LEHB203
 6199 0454 00       		.uleb128 0
 6200 0455 00       		.uleb128 0
 6201 0456 8003     		.uleb128 .LEHB204-.LCOLDB49
 6202 0458 2F       		.uleb128 .LEHE204-.LEHB204
 6203 0459 F703     		.uleb128 .L374-.LCOLDB49
 6204 045b 00       		.uleb128 0
 6205 045c AF03     		.uleb128 .LEHB205-.LCOLDB49
 6206 045e 05       		.uleb128 .LEHE205-.LEHB205
 6207 045f 00       		.uleb128 0
 6208 0460 00       		.uleb128 0
 6209 0461 BE03     		.uleb128 .LEHB206-.LCOLDB49
 6210 0463 2F       		.uleb128 .LEHE206-.LEHB206
 6211 0464 8B04     		.uleb128 .L372-.LCOLDB49
 6212 0466 00       		.uleb128 0
 6213 0467 ED03     		.uleb128 .LEHB207-.LCOLDB49
 6214 0469 05       		.uleb128 .LEHE207-.LEHB207
 6215 046a 00       		.uleb128 0
 6216 046b 00       		.uleb128 0
 6217 046c 8604     		.uleb128 .LEHB208-.LCOLDB49
 6218 046e 05       		.uleb128 .LEHE208-.LEHB208
 6219 046f 00       		.uleb128 0
 6220 0470 00       		.uleb128 0
 6221 0471 9A04     		.uleb128 .LEHB209-.LCOLDB49
 6222 0473 05       		.uleb128 .LEHE209-.LEHB209
 6223 0474 00       		.uleb128 0
 6224 0475 00       		.uleb128 0
 6225 0476 A404     		.uleb128 .LEHB210-.LCOLDB49
 6226 0478 37       		.uleb128 .LEHE210-.LEHB210
 6227 0479 FD04     		.uleb128 .L358-.LCOLDB49
 6228 047b 00       		.uleb128 0
 6229 047c DB04     		.uleb128 .LEHB211-.LCOLDB49
 6230 047e 05       		.uleb128 .LEHE211-.LEHB211
 6231 047f 00       		.uleb128 0
 6232 0480 00       		.uleb128 0
 6233 0481 8C05     		.uleb128 .LEHB212-.LCOLDB49
 6234 0483 05       		.uleb128 .LEHE212-.LEHB212
 6235 0484 00       		.uleb128 0
 6236 0485 00       		.uleb128 0
 6237 0486 9605     		.uleb128 .LEHB213-.LCOLDB49
 6238 0488 2F       		.uleb128 .LEHE213-.LEHB213
 6239 0489 8D06     		.uleb128 .L366-.LCOLDB49
 6240 048b 00       		.uleb128 0
 6241 048c C505     		.uleb128 .LEHB214-.LCOLDB49
 6242 048e 05       		.uleb128 .LEHE214-.LEHB214
 6243 048f 00       		.uleb128 0
 6244 0490 00       		.uleb128 0
 6245 0491 D405     		.uleb128 .LEHB215-.LCOLDB49
 6246 0493 2F       		.uleb128 .LEHE215-.LEHB215
 6247 0494 A106     		.uleb128 .L364-.LCOLDB49
 6248 0496 00       		.uleb128 0
 6249 0497 8306     		.uleb128 .LEHB216-.LCOLDB49
 6250 0499 05       		.uleb128 .LEHE216-.LEHB216
 6251 049a 00       		.uleb128 0
 6252 049b 00       		.uleb128 0
 6253 049c 9C06     		.uleb128 .LEHB217-.LCOLDB49
 6254 049e 05       		.uleb128 .LEHE217-.LEHB217
 6255 049f 00       		.uleb128 0
 6256 04a0 00       		.uleb128 0
 6257 04a1 B006     		.uleb128 .LEHB218-.LCOLDB49
 6258 04a3 05       		.uleb128 .LEHE218-.LEHB218
 6259 04a4 00       		.uleb128 0
 6260 04a5 00       		.uleb128 0
 6261              	.LLSDACSEC1310:
 6262 04a6 01       		.byte	0x1
 6263 04a7 00       		.byte	0
 6264 04a8 00       		.byte	0
 6265 04a9 7D       		.byte	0x7d
 6266 04aa 0000     		.align 4
 6267 04ac 00000000 		.long	0
 6268              	
 6269              	.LLSDATTC1310:
 6270              		.section	.text.unlikely
 6271              		.text
 6273              		.section	.text.unlikely
 6275              	.LCOLDE49:
 6276              		.text
 6277              	.LHOTE49:
 6278              		.section	.text._ZN8UnitTest15CheckArrayEqualIPKcS2_EEvRNS_11TestResultsERKT_RKT0_iRKNS_11TestDetai
 6279              		.p2align 4
 6280              		.weak	_ZN8UnitTest15CheckArrayEqualIPKcS2_EEvRNS_11TestResultsERKT_RKT0_iRKNS_11TestDetailsE
 6282              	_ZN8UnitTest15CheckArrayEqualIPKcS2_EEvRNS_11TestResultsERKT_RKT0_iRKNS_11TestDetailsE:
 6283              	.LFB1413:
 6284              		.cfi_startproc
 6285              		.cfi_personality 0x9b,DW.ref.__gxx_personality_v0
 6286              		.cfi_lsda 0x1b,.LLSDA1413
 6287 0000 F30F1EFA 		endbr64
 6288 0004 4157     		pushq	%r15
 6289              		.cfi_def_cfa_offset 16
 6290              		.cfi_offset 15, -16
 6291 0006 4156     		pushq	%r14
 6292              		.cfi_def_cfa_offset 24
 6293              		.cfi_offset 14, -24
 6294 0008 4155     		pushq	%r13
 6295              		.cfi_def_cfa_offset 32
 6296              		.cfi_offset 13, -32
 6297 000a 4154     		pushq	%r12
 6298              		.cfi_def_cfa_offset 40
 6299              		.cfi_offset 12, -40
 6300 000c 55       		pushq	%rbp
 6301              		.cfi_def_cfa_offset 48
 6302              		.cfi_offset 6, -48
 6303 000d 53       		pushq	%rbx
 6304              		.cfi_def_cfa_offset 56
 6305              		.cfi_offset 3, -56
 6306 000e 4881ECF8 		subq	$504, %rsp
 6306      010000
 6307              		.cfi_def_cfa_offset 560
 6308 0015 F30F7E0D 		movq	.LC2(%rip), %xmm1
 6308      00000000 
 6309 001d 48897C24 		movq	%rdi, 16(%rsp)
 6309      10
 6310 0022 4C894424 		movq	%r8, 24(%rsp)
 6310      18
 6311 0027 0F160D00 		movhps	.LC3(%rip), %xmm1
 6311      000000
 6312 002e 64488B04 		movq	%fs:40, %rax
 6312      25280000 
 6312      00
 6313 0037 48898424 		movq	%rax, 488(%rsp)
 6313      E8010000 
 6314 003f 31C0     		xorl	%eax, %eax
 6315 0041 0F290C24 		movaps	%xmm1, (%rsp)
 6316 0045 85C9     		testl	%ecx, %ecx
 6317 0047 7E30     		jle	.L389
 6318 0049 488B3E   		movq	(%rsi), %rdi
 6319 004c 4989F5   		movq	%rsi, %r13
 6320 004f 4989D7   		movq	%rdx, %r15
 6321 0052 488B32   		movq	(%rdx), %rsi
 6322 0055 4863D9   		movslq	%ecx, %rbx
 6323 0058 BA010000 		movl	$1, %edx
 6323      00
 6324 005d 0F1F00   		.p2align 4,,10
 6325              		.p2align 3
 6326              	.L391:
 6327 0060 0FB60C06 		movzbl	(%rsi,%rax), %ecx
 6328 0064 380C07   		cmpb	%cl, (%rdi,%rax)
 6329 0067 0F94C1   		sete	%cl
 6330 006a 4883C001 		addq	$1, %rax
 6331 006e 21CA     		andl	%ecx, %edx
 6332 0070 4839C3   		cmpq	%rax, %rbx
 6333 0073 75EB     		jne	.L391
 6334 0075 84D2     		testb	%dl, %dl
 6335 0077 742F     		je	.L411
 6336              	.L389:
 6337 0079 488B8424 		movq	488(%rsp), %rax
 6337      E8010000 
 6338 0081 64482B04 		subq	%fs:40, %rax
 6338      25280000 
 6338      00
 6339 008a 0F85EE02 		jne	.L412
 6339      0000
 6340 0090 4881C4F8 		addq	$504, %rsp
 6340      010000
 6341              		.cfi_remember_state
 6342              		.cfi_def_cfa_offset 56
 6343 0097 5B       		popq	%rbx
 6344              		.cfi_def_cfa_offset 48
 6345 0098 5D       		popq	%rbp
 6346              		.cfi_def_cfa_offset 40
 6347 0099 415C     		popq	%r12
 6348              		.cfi_def_cfa_offset 32
 6349 009b 415D     		popq	%r13
 6350              		.cfi_def_cfa_offset 24
 6351 009d 415E     		popq	%r14
 6352              		.cfi_def_cfa_offset 16
 6353 009f 415F     		popq	%r15
 6354              		.cfi_def_cfa_offset 8
 6355 00a1 C3       		ret
 6356              		.p2align 4,,10
 6357 00a2 660F1F44 		.p2align 3
 6357      0000
 6358              	.L411:
 6359              		.cfi_restore_state
 6360 00a8 4C8DB424 		leaq	224(%rsp), %r14
 6360      E0000000 
 6361 00b0 4C89F7   		movq	%r14, %rdi
 6362 00b3 4C897424 		movq	%r14, 32(%rsp)
 6362      20
 6363 00b8 E8000000 		call	_ZNSt8ios_baseC2Ev@PLT
 6363      00
 6364 00bd 31C0     		xorl	%eax, %eax
 6365 00bf 660FEFC0 		pxor	%xmm0, %xmm0
 6366 00c3 31F6     		xorl	%esi, %esi
 6367 00c5 66898424 		movw	%ax, 448(%rsp)
 6367      C0010000 
 6368 00cd 488D0500 		leaq	24+_ZTCN8UnitTest15MemoryOutStreamE0_So(%rip), %rax
 6368      000000
 6369 00d4 4C89F7   		movq	%r14, %rdi
 6370 00d7 48894424 		movq	%rax, 80(%rsp)
 6370      50
 6371 00dc 4883C028 		addq	$40, %rax
 6372 00e0 48C78424 		movq	$0, 440(%rsp)
 6372      B8010000 
 6372      00000000 
 6373 00ec 48898424 		movq	%rax, 224(%rsp)
 6373      E0000000 
 6374 00f4 0F118424 		movups	%xmm0, 456(%rsp)
 6374      C8010000 
 6375 00fc 0F118424 		movups	%xmm0, 472(%rsp)
 6375      D8010000 
 6376              	.LEHB219:
 6377 0104 E8000000 		call	_ZNSt9basic_iosIcSt11char_traitsIcEE4initEPSt15basic_streambufIcS1_E@PLT
 6377      00
 6378              	.LEHE219:
 6379 0109 488D0500 		leaq	64+_ZTCN8UnitTest15MemoryOutStreamE0_NSt7__cxx1119basic_ostringstreamIcSt11char_traitsIcESaIc
 6379      000000
 6380 0110 660F6F1C 		movdqa	(%rsp), %xmm3
 6380      24
 6381 0115 660FEFC0 		pxor	%xmm0, %xmm0
 6382 0119 4C8D6424 		leaq	80(%rsp), %r12
 6382      50
 6383 011e 48898424 		movq	%rax, 224(%rsp)
 6383      E0000000 
 6384 0126 488D8424 		leaq	144(%rsp), %rax
 6384      90000000 
 6385 012e 488D6C24 		leaq	88(%rsp), %rbp
 6385      58
 6386 0133 4889C7   		movq	%rax, %rdi
 6387 0136 48894424 		movq	%rax, 56(%rsp)
 6387      38
 6388 013b 0F295C24 		movaps	%xmm3, 80(%rsp)
 6388      50
 6389 0140 0F294424 		movaps	%xmm0, 96(%rsp)
 6389      60
 6390 0145 0F294424 		movaps	%xmm0, 112(%rsp)
 6390      70
 6391 014a 0F298424 		movaps	%xmm0, 128(%rsp)
 6391      80000000 
 6392 0152 E8000000 		call	_ZNSt6localeC1Ev@PLT
 6392      00
 6393 0157 488D0500 		leaq	16+_ZTVNSt7__cxx1115basic_stringbufIcSt11char_traitsIcESaIcEEE(%rip), %rax
 6393      000000
 6394 015e C68424B0 		movb	$0, 176(%rsp)
 6394      00000000 
 6395 0166 4889EE   		movq	%rbp, %rsi
 6396 0169 48894424 		movq	%rax, 88(%rsp)
 6396      58
 6397 016e 488D8424 		leaq	176(%rsp), %rax
 6397      B0000000 
 6398 0176 48894424 		movq	%rax, 40(%rsp)
 6398      28
 6399 017b 48898424 		movq	%rax, 160(%rsp)
 6399      A0000000 
 6400 0183 488B4424 		movq	80(%rsp), %rax
 6400      50
 6401 0188 48C78424 		movq	$0, 168(%rsp)
 6401      A8000000 
 6401      00000000 
 6402 0194 C7842498 		movl	$16, 152(%rsp)
 6402      00000010 
 6402      000000
 6403 019f 488B78E8 		movq	-24(%rax), %rdi
 6404 01a3 4C01E7   		addq	%r12, %rdi
 6405              	.LEHB220:
 6406 01a6 E8000000 		call	_ZNSt9basic_iosIcSt11char_traitsIcEE4initEPSt15basic_streambufIcS1_E@PLT
 6406      00
 6407              	.LEHE220:
 6408 01ab 488D0500 		leaq	24+_ZTVN8UnitTest15MemoryOutStreamE(%rip), %rax
 6408      000000
 6409 01b2 BA0B0000 		movl	$11, %edx
 6409      00
 6410 01b7 4C89E7   		movq	%r12, %rdi
 6411 01ba 48C78424 		movq	$0, 200(%rsp)
 6411      C8000000 
 6411      00000000 
 6412 01c6 48894424 		movq	%rax, 80(%rsp)
 6412      50
 6413 01cb 4883C028 		addq	$40, %rax
 6414 01cf 488D3500 		leaq	.LC39(%rip), %rsi
 6414      000000
 6415 01d6 48898424 		movq	%rax, 224(%rsp)
 6415      E0000000 
 6416 01de 488D8424 		leaq	208(%rsp), %rax
 6416      D0000000 
 6417 01e6 48894424 		movq	%rax, 48(%rsp)
 6417      30
 6418 01eb 48898424 		movq	%rax, 192(%rsp)
 6418      C0000000 
 6419 01f3 C68424D0 		movb	$0, 208(%rsp)
 6419      00000000 
 6420              	.LEHB221:
 6421 01fb E8000000 		call	_ZSt16__ostream_insertIcSt11char_traitsIcEERSt13basic_ostreamIT_T0_ES6_PKS3_l@PLT
 6421      00
 6422 0200 488D4424 		leaq	78(%rsp), %rax
 6422      4E
 6423 0205 31ED     		xorl	%ebp, %ebp
 6424 0207 4C8D3500 		leaq	.LC40(%rip), %r14
 6424      000000
 6425 020e 48890424 		movq	%rax, (%rsp)
 6426              		.p2align 4,,10
 6427 0212 660F1F44 		.p2align 3
 6427      0000
 6428              	.L395:
 6429 0218 498B4500 		movq	0(%r13), %rax
 6430 021c 488B3424 		movq	(%rsp), %rsi
 6431 0220 BA010000 		movl	$1, %edx
 6431      00
 6432 0225 4C89E7   		movq	%r12, %rdi
 6433 0228 0FB60428 		movzbl	(%rax,%rbp), %eax
 6434 022c 8844244E 		movb	%al, 78(%rsp)
 6435 0230 E8000000 		call	_ZSt16__ostream_insertIcSt11char_traitsIcEERSt13basic_ostreamIT_T0_ES6_PKS3_l@PLT
 6435      00
 6436 0235 4889C7   		movq	%rax, %rdi
 6437 0238 BA010000 		movl	$1, %edx
 6437      00
 6438 023d 4C89F6   		movq	%r14, %rsi
 6439 0240 E8000000 		call	_ZSt16__ostream_insertIcSt11char_traitsIcEERSt13basic_ostreamIT_T0_ES6_PKS3_l@PLT
 6439      00
 6440 0245 4883C501 		addq	$1, %rbp
 6441 0249 4839EB   		cmpq	%rbp, %rbx
 6442 024c 75CA     		jne	.L395
 6443 024e BA0C0000 		movl	$12, %edx
 6443      00
 6444 0253 488D3500 		leaq	.LC41(%rip), %rsi
 6444      000000
 6445 025a 4C89E7   		movq	%r12, %rdi
 6446 025d E8000000 		call	_ZSt16__ostream_insertIcSt11char_traitsIcEERSt13basic_ostreamIT_T0_ES6_PKS3_l@PLT
 6446      00
 6447 0262 31ED     		xorl	%ebp, %ebp
 6448 0264 4C8D6C24 		leaq	79(%rsp), %r13
 6448      4F
 6449 0269 0F1F8000 		.p2align 4,,10
 6449      000000
 6450              		.p2align 3
 6451              	.L396:
 6452 0270 498B07   		movq	(%r15), %rax
 6453 0273 BA010000 		movl	$1, %edx
 6453      00
 6454 0278 4C89EE   		movq	%r13, %rsi
 6455 027b 4C89E7   		movq	%r12, %rdi
 6456 027e 0FB60428 		movzbl	(%rax,%rbp), %eax
 6457 0282 8844244F 		movb	%al, 79(%rsp)
 6458 0286 E8000000 		call	_ZSt16__ostream_insertIcSt11char_traitsIcEERSt13basic_ostreamIT_T0_ES6_PKS3_l@PLT
 6458      00
 6459 028b 4889C7   		movq	%rax, %rdi
 6460 028e BA010000 		movl	$1, %edx
 6460      00
 6461 0293 4C89F6   		movq	%r14, %rsi
 6462 0296 E8000000 		call	_ZSt16__ostream_insertIcSt11char_traitsIcEERSt13basic_ostreamIT_T0_ES6_PKS3_l@PLT
 6462      00
 6463 029b 4883C501 		addq	$1, %rbp
 6464 029f 4839EB   		cmpq	%rbp, %rbx
 6465 02a2 75CC     		jne	.L396
 6466 02a4 BA010000 		movl	$1, %edx
 6466      00
 6467 02a9 488D3500 		leaq	.LC42(%rip), %rsi
 6467      000000
 6468 02b0 4C89E7   		movq	%r12, %rdi
 6469 02b3 E8000000 		call	_ZSt16__ostream_insertIcSt11char_traitsIcEERSt13basic_ostreamIT_T0_ES6_PKS3_l@PLT
 6469      00
 6470 02b8 4C89E7   		movq	%r12, %rdi
 6471 02bb E8000000 		call	_ZNK8UnitTest15MemoryOutStream7GetTextEv@PLT
 6471      00
 6472 02c0 488B7424 		movq	24(%rsp), %rsi
 6472      18
 6473 02c5 488B7C24 		movq	16(%rsp), %rdi
 6473      10
 6474 02ca 4889C2   		movq	%rax, %rdx
 6475 02cd F30F7E15 		movq	.LC2(%rip), %xmm2
 6475      00000000 
 6476 02d5 0F161500 		movhps	.LC4(%rip), %xmm2
 6476      000000
 6477 02dc 0F291424 		movaps	%xmm2, (%rsp)
 6478 02e0 E8000000 		call	_ZN8UnitTest11TestResults13OnTestFailureERKNS_11TestDetailsEPKc@PLT
 6478      00
 6479              	.LEHE221:
 6480 02e5 488D0500 		leaq	24+_ZTVN8UnitTest15MemoryOutStreamE(%rip), %rax
 6480      000000
 6481 02ec 488BBC24 		movq	192(%rsp), %rdi
 6481      C0000000 
 6482 02f4 48894424 		movq	%rax, 80(%rsp)
 6482      50
 6483 02f9 4883C028 		addq	$40, %rax
 6484 02fd 48898424 		movq	%rax, 224(%rsp)
 6484      E0000000 
 6485 0305 483B7C24 		cmpq	48(%rsp), %rdi
 6485      30
 6486 030a 7405     		je	.L397
 6487 030c E8000000 		call	_ZdlPv@PLT
 6487      00
 6488              	.L397:
 6489 0311 660F6F24 		movdqa	(%rsp), %xmm4
 6489      24
 6490 0316 488D0500 		leaq	64+_ZTCN8UnitTest15MemoryOutStreamE0_NSt7__cxx1119basic_ostringstreamIcSt11char_traitsIcESaIc
 6490      000000
 6491 031d 488BBC24 		movq	160(%rsp), %rdi
 6491      A0000000 
 6492 0325 48898424 		movq	%rax, 224(%rsp)
 6492      E0000000 
 6493 032d 0F296424 		movaps	%xmm4, 80(%rsp)
 6493      50
 6494 0332 483B7C24 		cmpq	40(%rsp), %rdi
 6494      28
 6495 0337 7405     		je	.L398
 6496 0339 E8000000 		call	_ZdlPv@PLT
 6496      00
 6497              	.L398:
 6498 033e 488B7C24 		movq	56(%rsp), %rdi
 6498      38
 6499 0343 488D0500 		leaq	16+_ZTVSt15basic_streambufIcSt11char_traitsIcEE(%rip), %rax
 6499      000000
 6500 034a 48894424 		movq	%rax, 88(%rsp)
 6500      58
 6501 034f E8000000 		call	_ZNSt6localeD1Ev@PLT
 6501      00
 6502 0354 488D0500 		leaq	24+_ZTCN8UnitTest15MemoryOutStreamE0_So(%rip), %rax
 6502      000000
 6503 035b 488B7C24 		movq	32(%rsp), %rdi
 6503      20
 6504 0360 48894424 		movq	%rax, 80(%rsp)
 6504      50
 6505 0365 488D0500 		leaq	16+_ZTVSt9basic_iosIcSt11char_traitsIcEE(%rip), %rax
 6505      000000
 6506 036c 48898424 		movq	%rax, 224(%rsp)
 6506      E0000000 
 6507              	.LEHB222:
 6508 0374 E8000000 		call	_ZNSt8ios_baseD2Ev@PLT
 6508      00
 6509              	.LEHE222:
 6510 0379 E9FBFCFF 		jmp	.L389
 6510      FF
 6511              	.L412:
 6512 037e E8000000 		call	__stack_chk_fail@PLT
 6512      00
 6513              	.L404:
 6514 0383 F30F1EFA 		endbr64
 6515 0387 4889C3   		movq	%rax, %rbx
 6516 038a EB12     		jmp	.L393
 6517              	.L402:
 6518 038c F30F1EFA 		endbr64
 6519 0390 4889C5   		movq	%rax, %rbp
 6520 0393 EB41     		jmp	.L399
 6521              	.L403:
 6522 0395 F30F1EFA 		endbr64
 6523 0399 4889C5   		movq	%rax, %rbp
 6524 039c EB17     		jmp	.L394
 6525              	.L393:
 6526 039e 4889EF   		movq	%rbp, %rdi
 6527 03a1 4889DD   		movq	%rbx, %rbp
 6528 03a4 E8000000 		call	_ZNSt7__cxx1115basic_stringbufIcSt11char_traitsIcESaIcEED1Ev
 6528      00
 6529 03a9 488D0500 		leaq	24+_ZTCN8UnitTest15MemoryOutStreamE0_So(%rip), %rax
 6529      000000
 6530 03b0 48894424 		movq	%rax, 80(%rsp)
 6530      50
 6531              	.L394:
 6532 03b5 488B7C24 		movq	32(%rsp), %rdi
 6532      20
 6533 03ba 488D0500 		leaq	16+_ZTVSt9basic_iosIcSt11char_traitsIcEE(%rip), %rax
 6533      000000
 6534 03c1 48898424 		movq	%rax, 224(%rsp)
 6534      E0000000 
 6535 03c9 E8000000 		call	_ZNSt8ios_baseD2Ev@PLT
 6535      00
 6536 03ce 4889EF   		movq	%rbp, %rdi
 6537              	.LEHB223:
 6538 03d1 E8000000 		call	_Unwind_Resume@PLT
 6538      00
 6539              	.LEHE223:
 6540              	.L399:
 6541 03d6 4C89E7   		movq	%r12, %rdi
 6542 03d9 E8000000 		call	_ZN8UnitTest15MemoryOutStreamD1Ev
 6542      00
 6543 03de 4889EF   		movq	%rbp, %rdi
 6544              	.LEHB224:
 6545 03e1 E8000000 		call	_Unwind_Resume@PLT
 6545      00
 6546              	.LEHE224:
 6547              		.cfi_endproc
 6548              	.LFE1413:
 6549              		.section	.gcc_except_table
 6550              	.LLSDA1413:
 6551 04b0 FF       		.byte	0xff
 6552 04b1 FF       		.byte	0xff
 6553 04b2 01       		.byte	0x1
 6554 04b3 22       		.uleb128 .LLSDACSE1413-.LLSDACSB1413
 6555              	.LLSDACSB1413:
 6556 04b4 8402     		.uleb128 .LEHB219-.LFB1413
 6557 04b6 05       		.uleb128 .LEHE219-.LEHB219
 6558 04b7 9507     		.uleb128 .L403-.LFB1413
 6559 04b9 00       		.uleb128 0
 6560 04ba A603     		.uleb128 .LEHB220-.LFB1413
 6561 04bc 05       		.uleb128 .LEHE220-.LEHB220
 6562 04bd 8307     		.uleb128 .L404-.LFB1413
 6563 04bf 00       		.uleb128 0
 6564 04c0 FB03     		.uleb128 .LEHB221-.LFB1413
 6565 04c2 EA01     		.uleb128 .LEHE221-.LEHB221
 6566 04c4 8C07     		.uleb128 .L402-.LFB1413
 6567 04c6 00       		.uleb128 0
 6568 04c7 F406     		.uleb128 .LEHB222-.LFB1413
 6569 04c9 05       		.uleb128 .LEHE222-.LEHB222
 6570 04ca 00       		.uleb128 0
 6571 04cb 00       		.uleb128 0
 6572 04cc D107     		.uleb128 .LEHB223-.LFB1413
 6573 04ce 05       		.uleb128 .LEHE223-.LEHB223
 6574 04cf 00       		.uleb128 0
 6575 04d0 00       		.uleb128 0
 6576 04d1 E107     		.uleb128 .LEHB224-.LFB1413
 6577 04d3 05       		.uleb128 .LEHE224-.LEHB224
 6578 04d4 00       		.uleb128 0
 6579 04d5 00       		.uleb128 0
 6580              	.LLSDACSE1413:
 6581              		.section	.text._ZN8UnitTest15CheckArrayEqualIPKcS2_EEvRNS_11TestResultsERKT_RKT0_iRKNS_11TestDetai
 6583              		.section	.text._ZN8UnitTest15CheckArrayEqualIPhS1_EEvRNS_11TestResultsERKT_RKT0_iRKNS_11TestDetail
 6584              		.p2align 4
 6585              		.weak	_ZN8UnitTest15CheckArrayEqualIPhS1_EEvRNS_11TestResultsERKT_RKT0_iRKNS_11TestDetailsE
 6587              	_ZN8UnitTest15CheckArrayEqualIPhS1_EEvRNS_11TestResultsERKT_RKT0_iRKNS_11TestDetailsE:
 6588              	.LFB1414:
 6589              		.cfi_startproc
 6590              		.cfi_personality 0x9b,DW.ref.__gxx_personality_v0
 6591              		.cfi_lsda 0x1b,.LLSDA1414
 6592 0000 F30F1EFA 		endbr64
 6593 0004 4157     		pushq	%r15
 6594              		.cfi_def_cfa_offset 16
 6595              		.cfi_offset 15, -16
 6596 0006 4156     		pushq	%r14
 6597              		.cfi_def_cfa_offset 24
 6598              		.cfi_offset 14, -24
 6599 0008 4155     		pushq	%r13
 6600              		.cfi_def_cfa_offset 32
 6601              		.cfi_offset 13, -32
 6602 000a 4154     		pushq	%r12
 6603              		.cfi_def_cfa_offset 40
 6604              		.cfi_offset 12, -40
 6605 000c 55       		pushq	%rbp
 6606              		.cfi_def_cfa_offset 48
 6607              		.cfi_offset 6, -48
 6608 000d 53       		pushq	%rbx
 6609              		.cfi_def_cfa_offset 56
 6610              		.cfi_offset 3, -56
 6611 000e 4881ECF8 		subq	$504, %rsp
 6611      010000
 6612              		.cfi_def_cfa_offset 560
 6613 0015 F30F7E0D 		movq	.LC2(%rip), %xmm1
 6613      00000000 
 6614 001d 48897C24 		movq	%rdi, 16(%rsp)
 6614      10
 6615 0022 4C894424 		movq	%r8, 24(%rsp)
 6615      18
 6616 0027 0F160D00 		movhps	.LC3(%rip), %xmm1
 6616      000000
 6617 002e 64488B04 		movq	%fs:40, %rax
 6617      25280000 
 6617      00
 6618 0037 48898424 		movq	%rax, 488(%rsp)
 6618      E8010000 
 6619 003f 31C0     		xorl	%eax, %eax
 6620 0041 0F290C24 		movaps	%xmm1, (%rsp)
 6621 0045 85C9     		testl	%ecx, %ecx
 6622 0047 7E30     		jle	.L413
 6623 0049 488B3E   		movq	(%rsi), %rdi
 6624 004c 4989F5   		movq	%rsi, %r13
 6625 004f 4989D7   		movq	%rdx, %r15
 6626 0052 488B32   		movq	(%rdx), %rsi
 6627 0055 4863D9   		movslq	%ecx, %rbx
 6628 0058 BA010000 		movl	$1, %edx
 6628      00
 6629 005d 0F1F00   		.p2align 4,,10
 6630              		.p2align 3
 6631              	.L415:
 6632 0060 0FB60C06 		movzbl	(%rsi,%rax), %ecx
 6633 0064 380C07   		cmpb	%cl, (%rdi,%rax)
 6634 0067 0F94C1   		sete	%cl
 6635 006a 4883C001 		addq	$1, %rax
 6636 006e 21CA     		andl	%ecx, %edx
 6637 0070 4839C3   		cmpq	%rax, %rbx
 6638 0073 75EB     		jne	.L415
 6639 0075 84D2     		testb	%dl, %dl
 6640 0077 742F     		je	.L435
 6641              	.L413:
 6642 0079 488B8424 		movq	488(%rsp), %rax
 6642      E8010000 
 6643 0081 64482B04 		subq	%fs:40, %rax
 6643      25280000 
 6643      00
 6644 008a 0F85EE02 		jne	.L436
 6644      0000
 6645 0090 4881C4F8 		addq	$504, %rsp
 6645      010000
 6646              		.cfi_remember_state
 6647              		.cfi_def_cfa_offset 56
 6648 0097 5B       		popq	%rbx
 6649              		.cfi_def_cfa_offset 48
 6650 0098 5D       		popq	%rbp
 6651              		.cfi_def_cfa_offset 40
 6652 0099 415C     		popq	%r12
 6653              		.cfi_def_cfa_offset 32
 6654 009b 415D     		popq	%r13
 6655              		.cfi_def_cfa_offset 24
 6656 009d 415E     		popq	%r14
 6657              		.cfi_def_cfa_offset 16
 6658 009f 415F     		popq	%r15
 6659              		.cfi_def_cfa_offset 8
 6660 00a1 C3       		ret
 6661              		.p2align 4,,10
 6662 00a2 660F1F44 		.p2align 3
 6662      0000
 6663              	.L435:
 6664              		.cfi_restore_state
 6665 00a8 4C8DB424 		leaq	224(%rsp), %r14
 6665      E0000000 
 6666 00b0 4C89F7   		movq	%r14, %rdi
 6667 00b3 4C897424 		movq	%r14, 32(%rsp)
 6667      20
 6668 00b8 E8000000 		call	_ZNSt8ios_baseC2Ev@PLT
 6668      00
 6669 00bd 31C0     		xorl	%eax, %eax
 6670 00bf 660FEFC0 		pxor	%xmm0, %xmm0
 6671 00c3 31F6     		xorl	%esi, %esi
 6672 00c5 66898424 		movw	%ax, 448(%rsp)
 6672      C0010000 
 6673 00cd 488D0500 		leaq	24+_ZTCN8UnitTest15MemoryOutStreamE0_So(%rip), %rax
 6673      000000
 6674 00d4 4C89F7   		movq	%r14, %rdi
 6675 00d7 48894424 		movq	%rax, 80(%rsp)
 6675      50
 6676 00dc 4883C028 		addq	$40, %rax
 6677 00e0 48C78424 		movq	$0, 440(%rsp)
 6677      B8010000 
 6677      00000000 
 6678 00ec 48898424 		movq	%rax, 224(%rsp)
 6678      E0000000 
 6679 00f4 0F118424 		movups	%xmm0, 456(%rsp)
 6679      C8010000 
 6680 00fc 0F118424 		movups	%xmm0, 472(%rsp)
 6680      D8010000 
 6681              	.LEHB225:
 6682 0104 E8000000 		call	_ZNSt9basic_iosIcSt11char_traitsIcEE4initEPSt15basic_streambufIcS1_E@PLT
 6682      00
 6683              	.LEHE225:
 6684 0109 488D0500 		leaq	64+_ZTCN8UnitTest15MemoryOutStreamE0_NSt7__cxx1119basic_ostringstreamIcSt11char_traitsIcESaIc
 6684      000000
 6685 0110 660F6F1C 		movdqa	(%rsp), %xmm3
 6685      24
 6686 0115 660FEFC0 		pxor	%xmm0, %xmm0
 6687 0119 4C8D6424 		leaq	80(%rsp), %r12
 6687      50
 6688 011e 48898424 		movq	%rax, 224(%rsp)
 6688      E0000000 
 6689 0126 488D8424 		leaq	144(%rsp), %rax
 6689      90000000 
 6690 012e 488D6C24 		leaq	88(%rsp), %rbp
 6690      58
 6691 0133 4889C7   		movq	%rax, %rdi
 6692 0136 48894424 		movq	%rax, 56(%rsp)
 6692      38
 6693 013b 0F295C24 		movaps	%xmm3, 80(%rsp)
 6693      50
 6694 0140 0F294424 		movaps	%xmm0, 96(%rsp)
 6694      60
 6695 0145 0F294424 		movaps	%xmm0, 112(%rsp)
 6695      70
 6696 014a 0F298424 		movaps	%xmm0, 128(%rsp)
 6696      80000000 
 6697 0152 E8000000 		call	_ZNSt6localeC1Ev@PLT
 6697      00
 6698 0157 488D0500 		leaq	16+_ZTVNSt7__cxx1115basic_stringbufIcSt11char_traitsIcESaIcEEE(%rip), %rax
 6698      000000
 6699 015e C68424B0 		movb	$0, 176(%rsp)
 6699      00000000 
 6700 0166 4889EE   		movq	%rbp, %rsi
 6701 0169 48894424 		movq	%rax, 88(%rsp)
 6701      58
 6702 016e 488D8424 		leaq	176(%rsp), %rax
 6702      B0000000 
 6703 0176 48894424 		movq	%rax, 40(%rsp)
 6703      28
 6704 017b 48898424 		movq	%rax, 160(%rsp)
 6704      A0000000 
 6705 0183 488B4424 		movq	80(%rsp), %rax
 6705      50
 6706 0188 48C78424 		movq	$0, 168(%rsp)
 6706      A8000000 
 6706      00000000 
 6707 0194 C7842498 		movl	$16, 152(%rsp)
 6707      00000010 
 6707      000000
 6708 019f 488B78E8 		movq	-24(%rax), %rdi
 6709 01a3 4C01E7   		addq	%r12, %rdi
 6710              	.LEHB226:
 6711 01a6 E8000000 		call	_ZNSt9basic_iosIcSt11char_traitsIcEE4initEPSt15basic_streambufIcS1_E@PLT
 6711      00
 6712              	.LEHE226:
 6713 01ab 488D0500 		leaq	24+_ZTVN8UnitTest15MemoryOutStreamE(%rip), %rax
 6713      000000
 6714 01b2 BA0B0000 		movl	$11, %edx
 6714      00
 6715 01b7 4C89E7   		movq	%r12, %rdi
 6716 01ba 48C78424 		movq	$0, 200(%rsp)
 6716      C8000000 
 6716      00000000 
 6717 01c6 48894424 		movq	%rax, 80(%rsp)
 6717      50
 6718 01cb 4883C028 		addq	$40, %rax
 6719 01cf 488D3500 		leaq	.LC39(%rip), %rsi
 6719      000000
 6720 01d6 48898424 		movq	%rax, 224(%rsp)
 6720      E0000000 
 6721 01de 488D8424 		leaq	208(%rsp), %rax
 6721      D0000000 
 6722 01e6 48894424 		movq	%rax, 48(%rsp)
 6722      30
 6723 01eb 48898424 		movq	%rax, 192(%rsp)
 6723      C0000000 
 6724 01f3 C68424D0 		movb	$0, 208(%rsp)
 6724      00000000 
 6725              	.LEHB227:
 6726 01fb E8000000 		call	_ZSt16__ostream_insertIcSt11char_traitsIcEERSt13basic_ostreamIT_T0_ES6_PKS3_l@PLT
 6726      00
 6727 0200 488D4424 		leaq	78(%rsp), %rax
 6727      4E
 6728 0205 31ED     		xorl	%ebp, %ebp
 6729 0207 4C8D3500 		leaq	.LC40(%rip), %r14
 6729      000000
 6730 020e 48890424 		movq	%rax, (%rsp)
 6731              		.p2align 4,,10
 6732 0212 660F1F44 		.p2align 3
 6732      0000
 6733              	.L419:
 6734 0218 498B4500 		movq	0(%r13), %rax
 6735 021c 488B3424 		movq	(%rsp), %rsi
 6736 0220 BA010000 		movl	$1, %edx
 6736      00
 6737 0225 4C89E7   		movq	%r12, %rdi
 6738 0228 0FB60428 		movzbl	(%rax,%rbp), %eax
 6739 022c 8844244E 		movb	%al, 78(%rsp)
 6740 0230 E8000000 		call	_ZSt16__ostream_insertIcSt11char_traitsIcEERSt13basic_ostreamIT_T0_ES6_PKS3_l@PLT
 6740      00
 6741 0235 4889C7   		movq	%rax, %rdi
 6742 0238 BA010000 		movl	$1, %edx
 6742      00
 6743 023d 4C89F6   		movq	%r14, %rsi
 6744 0240 E8000000 		call	_ZSt16__ostream_insertIcSt11char_traitsIcEERSt13basic_ostreamIT_T0_ES6_PKS3_l@PLT
 6744      00
 6745 0245 4883C501 		addq	$1, %rbp
 6746 0249 4839EB   		cmpq	%rbp, %rbx
 6747 024c 75CA     		jne	.L419
 6748 024e BA0C0000 		movl	$12, %edx
 6748      00
 6749 0253 488D3500 		leaq	.LC41(%rip), %rsi
 6749      000000
 6750 025a 4C89E7   		movq	%r12, %rdi
 6751 025d E8000000 		call	_ZSt16__ostream_insertIcSt11char_traitsIcEERSt13basic_ostreamIT_T0_ES6_PKS3_l@PLT
 6751      00
 6752 0262 31ED     		xorl	%ebp, %ebp
 6753 0264 4C8D6C24 		leaq	79(%rsp), %r13
 6753      4F
 6754 0269 0F1F8000 		.p2align 4,,10
 6754      000000
 6755              		.p2align 3
 6756              	.L420:
 6757 0270 498B07   		movq	(%r15), %rax
 6758 0273 BA010000 		movl	$1, %edx
 6758      00
 6759 0278 4C89EE   		movq	%r13, %rsi
 6760 027b 4C89E7   		movq	%r12, %rdi
 6761 027e 0FB60428 		movzbl	(%rax,%rbp), %eax
 6762 0282 8844244F 		movb	%al, 79(%rsp)
 6763 0286 E8000000 		call	_ZSt16__ostream_insertIcSt11char_traitsIcEERSt13basic_ostreamIT_T0_ES6_PKS3_l@PLT
 6763      00
 6764 028b 4889C7   		movq	%rax, %rdi
 6765 028e BA010000 		movl	$1, %edx
 6765      00
 6766 0293 4C89F6   		movq	%r14, %rsi
 6767 0296 E8000000 		call	_ZSt16__ostream_insertIcSt11char_traitsIcEERSt13basic_ostreamIT_T0_ES6_PKS3_l@PLT
 6767      00
 6768 029b 4883C501 		addq	$1, %rbp
 6769 029f 4839EB   		cmpq	%rbp, %rbx
 6770 02a2 75CC     		jne	.L420
 6771 02a4 BA010000 		movl	$1, %edx
 6771      00
 6772 02a9 488D3500 		leaq	.LC42(%rip), %rsi
 6772      000000
 6773 02b0 4C89E7   		movq	%r12, %rdi
 6774 02b3 E8000000 		call	_ZSt16__ostream_insertIcSt11char_traitsIcEERSt13basic_ostreamIT_T0_ES6_PKS3_l@PLT
 6774      00
 6775 02b8 4C89E7   		movq	%r12, %rdi
 6776 02bb E8000000 		call	_ZNK8UnitTest15MemoryOutStream7GetTextEv@PLT
 6776      00
 6777 02c0 488B7424 		movq	24(%rsp), %rsi
 6777      18
 6778 02c5 488B7C24 		movq	16(%rsp), %rdi
 6778      10
 6779 02ca 4889C2   		movq	%rax, %rdx
 6780 02cd F30F7E15 		movq	.LC2(%rip), %xmm2
 6780      00000000 
 6781 02d5 0F161500 		movhps	.LC4(%rip), %xmm2
 6781      000000
 6782 02dc 0F291424 		movaps	%xmm2, (%rsp)
 6783 02e0 E8000000 		call	_ZN8UnitTest11TestResults13OnTestFailureERKNS_11TestDetailsEPKc@PLT
 6783      00
 6784              	.LEHE227:
 6785 02e5 488D0500 		leaq	24+_ZTVN8UnitTest15MemoryOutStreamE(%rip), %rax
 6785      000000
 6786 02ec 488BBC24 		movq	192(%rsp), %rdi
 6786      C0000000 
 6787 02f4 48894424 		movq	%rax, 80(%rsp)
 6787      50
 6788 02f9 4883C028 		addq	$40, %rax
 6789 02fd 48898424 		movq	%rax, 224(%rsp)
 6789      E0000000 
 6790 0305 483B7C24 		cmpq	48(%rsp), %rdi
 6790      30
 6791 030a 7405     		je	.L421
 6792 030c E8000000 		call	_ZdlPv@PLT
 6792      00
 6793              	.L421:
 6794 0311 660F6F24 		movdqa	(%rsp), %xmm4
 6794      24
 6795 0316 488D0500 		leaq	64+_ZTCN8UnitTest15MemoryOutStreamE0_NSt7__cxx1119basic_ostringstreamIcSt11char_traitsIcESaIc
 6795      000000
 6796 031d 488BBC24 		movq	160(%rsp), %rdi
 6796      A0000000 
 6797 0325 48898424 		movq	%rax, 224(%rsp)
 6797      E0000000 
 6798 032d 0F296424 		movaps	%xmm4, 80(%rsp)
 6798      50
 6799 0332 483B7C24 		cmpq	40(%rsp), %rdi
 6799      28
 6800 0337 7405     		je	.L422
 6801 0339 E8000000 		call	_ZdlPv@PLT
 6801      00
 6802              	.L422:
 6803 033e 488B7C24 		movq	56(%rsp), %rdi
 6803      38
 6804 0343 488D0500 		leaq	16+_ZTVSt15basic_streambufIcSt11char_traitsIcEE(%rip), %rax
 6804      000000
 6805 034a 48894424 		movq	%rax, 88(%rsp)
 6805      58
 6806 034f E8000000 		call	_ZNSt6localeD1Ev@PLT
 6806      00
 6807 0354 488D0500 		leaq	24+_ZTCN8UnitTest15MemoryOutStreamE0_So(%rip), %rax
 6807      000000
 6808 035b 488B7C24 		movq	32(%rsp), %rdi
 6808      20
 6809 0360 48894424 		movq	%rax, 80(%rsp)
 6809      50
 6810 0365 488D0500 		leaq	16+_ZTVSt9basic_iosIcSt11char_traitsIcEE(%rip), %rax
 6810      000000
 6811 036c 48898424 		movq	%rax, 224(%rsp)
 6811      E0000000 
 6812              	.LEHB228:
 6813 0374 E8000000 		call	_ZNSt8ios_baseD2Ev@PLT
 6813      00
 6814              	.LEHE228:
 6815 0379 E9FBFCFF 		jmp	.L413
 6815      FF
 6816              	.L436:
 6817 037e E8000000 		call	__stack_chk_fail@PLT
 6817      00
 6818              	.L428:
 6819 0383 F30F1EFA 		endbr64
 6820 0387 4889C3   		movq	%rax, %rbx
 6821 038a EB12     		jmp	.L417
 6822              	.L426:
 6823 038c F30F1EFA 		endbr64
 6824 0390 4889C5   		movq	%rax, %rbp
 6825 0393 EB41     		jmp	.L423
 6826              	.L427:
 6827 0395 F30F1EFA 		endbr64
 6828 0399 4889C5   		movq	%rax, %rbp
 6829 039c EB17     		jmp	.L418
 6830              	.L417:
 6831 039e 4889EF   		movq	%rbp, %rdi
 6832 03a1 4889DD   		movq	%rbx, %rbp
 6833 03a4 E8000000 		call	_ZNSt7__cxx1115basic_stringbufIcSt11char_traitsIcESaIcEED1Ev
 6833      00
 6834 03a9 488D0500 		leaq	24+_ZTCN8UnitTest15MemoryOutStreamE0_So(%rip), %rax
 6834      000000
 6835 03b0 48894424 		movq	%rax, 80(%rsp)
 6835      50
 6836              	.L418:
 6837 03b5 488B7C24 		movq	32(%rsp), %rdi
 6837      20
 6838 03ba 488D0500 		leaq	16+_ZTVSt9basic_iosIcSt11char_traitsIcEE(%rip), %rax
 6838      000000
 6839 03c1 48898424 		movq	%rax, 224(%rsp)
 6839      E0000000 
 6840 03c9 E8000000 		call	_ZNSt8ios_baseD2Ev@PLT
 6840      00
 6841 03ce 4889EF   		movq	%rbp, %rdi
 6842              	.LEHB229:
 6843 03d1 E8000000 		call	_Unwind_Resume@PLT
 6843      00
 6844              	.LEHE229:
 6845              	.L423:
 6846 03d6 4C89E7   		movq	%r12, %rdi
 6847 03d9 E8000000 		call	_ZN8UnitTest15MemoryOutStreamD1Ev
 6847      00
 6848 03de 4889EF   		movq	%rbp, %rdi
 6849              	.LEHB230:
 6850 03e1 E8000000 		call	_Unwind_Resume@PLT
 6850      00
 6851              	.LEHE230:
 6852              		.cfi_endproc
 6853              	.LFE1414:
 6854              		.section	.gcc_except_table
 6855              	.LLSDA1414:
 6856 04d6 FF       		.byte	0xff
 6857 04d7 FF       		.byte	0xff
 6858 04d8 01       		.byte	0x1
 6859 04d9 22       		.uleb128 .LLSDACSE1414-.LLSDACSB1414
 6860              	.LLSDACSB1414:
 6861 04da 8402     		.uleb128 .LEHB225-.LFB1414
 6862 04dc 05       		.uleb128 .LEHE225-.LEHB225
 6863 04dd 9507     		.uleb128 .L427-.LFB1414
 6864 04df 00       		.uleb128 0
 6865 04e0 A603     		.uleb128 .LEHB226-.LFB1414
 6866 04e2 05       		.uleb128 .LEHE226-.LEHB226
 6867 04e3 8307     		.uleb128 .L428-.LFB1414
 6868 04e5 00       		.uleb128 0
 6869 04e6 FB03     		.uleb128 .LEHB227-.LFB1414
 6870 04e8 EA01     		.uleb128 .LEHE227-.LEHB227
 6871 04ea 8C07     		.uleb128 .L426-.LFB1414
 6872 04ec 00       		.uleb128 0
 6873 04ed F406     		.uleb128 .LEHB228-.LFB1414
 6874 04ef 05       		.uleb128 .LEHE228-.LEHB228
 6875 04f0 00       		.uleb128 0
 6876 04f1 00       		.uleb128 0
 6877 04f2 D107     		.uleb128 .LEHB229-.LFB1414
 6878 04f4 05       		.uleb128 .LEHE229-.LEHB229
 6879 04f5 00       		.uleb128 0
 6880 04f6 00       		.uleb128 0
 6881 04f7 E107     		.uleb128 .LEHB230-.LFB1414
 6882 04f9 05       		.uleb128 .LEHE230-.LEHB230
 6883 04fa 00       		.uleb128 0
 6884 04fb 00       		.uleb128 0
 6885              	.LLSDACSE1414:
 6886              		.section	.text._ZN8UnitTest15CheckArrayEqualIPhS1_EEvRNS_11TestResultsERKT_RKT0_iRKNS_11TestDetail
 6888              		.section	.text._ZN8UnitTest15CheckArrayEqualIPKcPhEEvRNS_11TestResultsERKT_RKT0_iRKNS_11TestDetail
 6889              		.p2align 4
 6890              		.weak	_ZN8UnitTest15CheckArrayEqualIPKcPhEEvRNS_11TestResultsERKT_RKT0_iRKNS_11TestDetailsE
 6892              	_ZN8UnitTest15CheckArrayEqualIPKcPhEEvRNS_11TestResultsERKT_RKT0_iRKNS_11TestDetailsE:
 6893              	.LFB1415:
 6894              		.cfi_startproc
 6895              		.cfi_personality 0x9b,DW.ref.__gxx_personality_v0
 6896              		.cfi_lsda 0x1b,.LLSDA1415
 6897 0000 F30F1EFA 		endbr64
 6898 0004 4157     		pushq	%r15
 6899              		.cfi_def_cfa_offset 16
 6900              		.cfi_offset 15, -16
 6901 0006 4156     		pushq	%r14
 6902              		.cfi_def_cfa_offset 24
 6903              		.cfi_offset 14, -24
 6904 0008 4155     		pushq	%r13
 6905              		.cfi_def_cfa_offset 32
 6906              		.cfi_offset 13, -32
 6907 000a 4154     		pushq	%r12
 6908              		.cfi_def_cfa_offset 40
 6909              		.cfi_offset 12, -40
 6910 000c 55       		pushq	%rbp
 6911              		.cfi_def_cfa_offset 48
 6912              		.cfi_offset 6, -48
 6913 000d 53       		pushq	%rbx
 6914              		.cfi_def_cfa_offset 56
 6915              		.cfi_offset 3, -56
 6916 000e 4881ECF8 		subq	$504, %rsp
 6916      010000
 6917              		.cfi_def_cfa_offset 560
 6918 0015 F30F7E0D 		movq	.LC2(%rip), %xmm1
 6918      00000000 
 6919 001d 48897C24 		movq	%rdi, 16(%rsp)
 6919      10
 6920 0022 4C894424 		movq	%r8, 24(%rsp)
 6920      18
 6921 0027 0F160D00 		movhps	.LC3(%rip), %xmm1
 6921      000000
 6922 002e 64488B04 		movq	%fs:40, %rax
 6922      25280000 
 6922      00
 6923 0037 48898424 		movq	%rax, 488(%rsp)
 6923      E8010000 
 6924 003f 31C0     		xorl	%eax, %eax
 6925 0041 0F290C24 		movaps	%xmm1, (%rsp)
 6926 0045 85C9     		testl	%ecx, %ecx
 6927 0047 7E34     		jle	.L437
 6928 0049 4C8B06   		movq	(%rsi), %r8
 6929 004c 488B3A   		movq	(%rdx), %rdi
 6930 004f 4989D7   		movq	%rdx, %r15
 6931 0052 4989F5   		movq	%rsi, %r13
 6932 0055 4863D9   		movslq	%ecx, %rbx
 6933 0058 BA010000 		movl	$1, %edx
 6933      00
 6934 005d 0F1F00   		.p2align 4,,10
 6935              		.p2align 3
 6936              	.L439:
 6937 0060 0FB60C07 		movzbl	(%rdi,%rax), %ecx
 6938 0064 410FBE34 		movsbl	(%r8,%rax), %esi
 6938      00
 6939 0069 39CE     		cmpl	%ecx, %esi
 6940 006b 0F94C1   		sete	%cl
 6941 006e 4883C001 		addq	$1, %rax
 6942 0072 21CA     		andl	%ecx, %edx
 6943 0074 4839C3   		cmpq	%rax, %rbx
 6944 0077 75E7     		jne	.L439
 6945 0079 84D2     		testb	%dl, %dl
 6946 007b 7433     		je	.L459
 6947              	.L437:
 6948 007d 488B8424 		movq	488(%rsp), %rax
 6948      E8010000 
 6949 0085 64482B04 		subq	%fs:40, %rax
 6949      25280000 
 6949      00
 6950 008e 0F85F202 		jne	.L460
 6950      0000
 6951 0094 4881C4F8 		addq	$504, %rsp
 6951      010000
 6952              		.cfi_remember_state
 6953              		.cfi_def_cfa_offset 56
 6954 009b 5B       		popq	%rbx
 6955              		.cfi_def_cfa_offset 48
 6956 009c 5D       		popq	%rbp
 6957              		.cfi_def_cfa_offset 40
 6958 009d 415C     		popq	%r12
 6959              		.cfi_def_cfa_offset 32
 6960 009f 415D     		popq	%r13
 6961              		.cfi_def_cfa_offset 24
 6962 00a1 415E     		popq	%r14
 6963              		.cfi_def_cfa_offset 16
 6964 00a3 415F     		popq	%r15
 6965              		.cfi_def_cfa_offset 8
 6966 00a5 C3       		ret
 6967 00a6 662E0F1F 		.p2align 4,,10
 6967      84000000 
 6967      0000
 6968              		.p2align 3
 6969              	.L459:
 6970              		.cfi_restore_state
 6971 00b0 4C8DB424 		leaq	224(%rsp), %r14
 6971      E0000000 
 6972 00b8 4C89F7   		movq	%r14, %rdi
 6973 00bb 4C897424 		movq	%r14, 32(%rsp)
 6973      20
 6974 00c0 E8000000 		call	_ZNSt8ios_baseC2Ev@PLT
 6974      00
 6975 00c5 31C0     		xorl	%eax, %eax
 6976 00c7 660FEFC0 		pxor	%xmm0, %xmm0
 6977 00cb 31F6     		xorl	%esi, %esi
 6978 00cd 66898424 		movw	%ax, 448(%rsp)
 6978      C0010000 
 6979 00d5 488D0500 		leaq	24+_ZTCN8UnitTest15MemoryOutStreamE0_So(%rip), %rax
 6979      000000
 6980 00dc 4C89F7   		movq	%r14, %rdi
 6981 00df 48894424 		movq	%rax, 80(%rsp)
 6981      50
 6982 00e4 4883C028 		addq	$40, %rax
 6983 00e8 48C78424 		movq	$0, 440(%rsp)
 6983      B8010000 
 6983      00000000 
 6984 00f4 48898424 		movq	%rax, 224(%rsp)
 6984      E0000000 
 6985 00fc 0F118424 		movups	%xmm0, 456(%rsp)
 6985      C8010000 
 6986 0104 0F118424 		movups	%xmm0, 472(%rsp)
 6986      D8010000 
 6987              	.LEHB231:
 6988 010c E8000000 		call	_ZNSt9basic_iosIcSt11char_traitsIcEE4initEPSt15basic_streambufIcS1_E@PLT
 6988      00
 6989              	.LEHE231:
 6990 0111 488D0500 		leaq	64+_ZTCN8UnitTest15MemoryOutStreamE0_NSt7__cxx1119basic_ostringstreamIcSt11char_traitsIcESaIc
 6990      000000
 6991 0118 660F6F1C 		movdqa	(%rsp), %xmm3
 6991      24
 6992 011d 660FEFC0 		pxor	%xmm0, %xmm0
 6993 0121 4C8D6424 		leaq	80(%rsp), %r12
 6993      50
 6994 0126 48898424 		movq	%rax, 224(%rsp)
 6994      E0000000 
 6995 012e 488D8424 		leaq	144(%rsp), %rax
 6995      90000000 
 6996 0136 488D6C24 		leaq	88(%rsp), %rbp
 6996      58
 6997 013b 4889C7   		movq	%rax, %rdi
 6998 013e 48894424 		movq	%rax, 56(%rsp)
 6998      38
 6999 0143 0F295C24 		movaps	%xmm3, 80(%rsp)
 6999      50
 7000 0148 0F294424 		movaps	%xmm0, 96(%rsp)
 7000      60
 7001 014d 0F294424 		movaps	%xmm0, 112(%rsp)
 7001      70
 7002 0152 0F298424 		movaps	%xmm0, 128(%rsp)
 7002      80000000 
 7003 015a E8000000 		call	_ZNSt6localeC1Ev@PLT
 7003      00
 7004 015f 488D0500 		leaq	16+_ZTVNSt7__cxx1115basic_stringbufIcSt11char_traitsIcESaIcEEE(%rip), %rax
 7004      000000
 7005 0166 C68424B0 		movb	$0, 176(%rsp)
 7005      00000000 
 7006 016e 4889EE   		movq	%rbp, %rsi
 7007 0171 48894424 		movq	%rax, 88(%rsp)
 7007      58
 7008 0176 488D8424 		leaq	176(%rsp), %rax
 7008      B0000000 
 7009 017e 48894424 		movq	%rax, 40(%rsp)
 7009      28
 7010 0183 48898424 		movq	%rax, 160(%rsp)
 7010      A0000000 
 7011 018b 488B4424 		movq	80(%rsp), %rax
 7011      50
 7012 0190 48C78424 		movq	$0, 168(%rsp)
 7012      A8000000 
 7012      00000000 
 7013 019c C7842498 		movl	$16, 152(%rsp)
 7013      00000010 
 7013      000000
 7014 01a7 488B78E8 		movq	-24(%rax), %rdi
 7015 01ab 4C01E7   		addq	%r12, %rdi
 7016              	.LEHB232:
 7017 01ae E8000000 		call	_ZNSt9basic_iosIcSt11char_traitsIcEE4initEPSt15basic_streambufIcS1_E@PLT
 7017      00
 7018              	.LEHE232:
 7019 01b3 488D0500 		leaq	24+_ZTVN8UnitTest15MemoryOutStreamE(%rip), %rax
 7019      000000
 7020 01ba BA0B0000 		movl	$11, %edx
 7020      00
 7021 01bf 4C89E7   		movq	%r12, %rdi
 7022 01c2 48C78424 		movq	$0, 200(%rsp)
 7022      C8000000 
 7022      00000000 
 7023 01ce 48894424 		movq	%rax, 80(%rsp)
 7023      50
 7024 01d3 4883C028 		addq	$40, %rax
 7025 01d7 488D3500 		leaq	.LC39(%rip), %rsi
 7025      000000
 7026 01de 48898424 		movq	%rax, 224(%rsp)
 7026      E0000000 
 7027 01e6 488D8424 		leaq	208(%rsp), %rax
 7027      D0000000 
 7028 01ee 48894424 		movq	%rax, 48(%rsp)
 7028      30
 7029 01f3 48898424 		movq	%rax, 192(%rsp)
 7029      C0000000 
 7030 01fb C68424D0 		movb	$0, 208(%rsp)
 7030      00000000 
 7031              	.LEHB233:
 7032 0203 E8000000 		call	_ZSt16__ostream_insertIcSt11char_traitsIcEERSt13basic_ostreamIT_T0_ES6_PKS3_l@PLT
 7032      00
 7033 0208 488D4424 		leaq	78(%rsp), %rax
 7033      4E
 7034 020d 31ED     		xorl	%ebp, %ebp
 7035 020f 4C8D3500 		leaq	.LC40(%rip), %r14
 7035      000000
 7036 0216 48890424 		movq	%rax, (%rsp)
 7037 021a 660F1F44 		.p2align 4,,10
 7037      0000
 7038              		.p2align 3
 7039              	.L443:
 7040 0220 498B4500 		movq	0(%r13), %rax
 7041 0224 488B3424 		movq	(%rsp), %rsi
 7042 0228 BA010000 		movl	$1, %edx
 7042      00
 7043 022d 4C89E7   		movq	%r12, %rdi
 7044 0230 0FB60428 		movzbl	(%rax,%rbp), %eax
 7045 0234 8844244E 		movb	%al, 78(%rsp)
 7046 0238 E8000000 		call	_ZSt16__ostream_insertIcSt11char_traitsIcEERSt13basic_ostreamIT_T0_ES6_PKS3_l@PLT
 7046      00
 7047 023d 4889C7   		movq	%rax, %rdi
 7048 0240 BA010000 		movl	$1, %edx
 7048      00
 7049 0245 4C89F6   		movq	%r14, %rsi
 7050 0248 E8000000 		call	_ZSt16__ostream_insertIcSt11char_traitsIcEERSt13basic_ostreamIT_T0_ES6_PKS3_l@PLT
 7050      00
 7051 024d 4883C501 		addq	$1, %rbp
 7052 0251 4839EB   		cmpq	%rbp, %rbx
 7053 0254 75CA     		jne	.L443
 7054 0256 BA0C0000 		movl	$12, %edx
 7054      00
 7055 025b 488D3500 		leaq	.LC41(%rip), %rsi
 7055      000000
 7056 0262 4C89E7   		movq	%r12, %rdi
 7057 0265 E8000000 		call	_ZSt16__ostream_insertIcSt11char_traitsIcEERSt13basic_ostreamIT_T0_ES6_PKS3_l@PLT
 7057      00
 7058 026a 31ED     		xorl	%ebp, %ebp
 7059 026c 4C8D6C24 		leaq	79(%rsp), %r13
 7059      4F
 7060              		.p2align 4,,10
 7061 0271 0F1F8000 		.p2align 3
 7061      000000
 7062              	.L444:
 7063 0278 498B07   		movq	(%r15), %rax
 7064 027b BA010000 		movl	$1, %edx
 7064      00
 7065 0280 4C89EE   		movq	%r13, %rsi
 7066 0283 4C89E7   		movq	%r12, %rdi
 7067 0286 0FB60428 		movzbl	(%rax,%rbp), %eax
 7068 028a 8844244F 		movb	%al, 79(%rsp)
 7069 028e E8000000 		call	_ZSt16__ostream_insertIcSt11char_traitsIcEERSt13basic_ostreamIT_T0_ES6_PKS3_l@PLT
 7069      00
 7070 0293 4889C7   		movq	%rax, %rdi
 7071 0296 BA010000 		movl	$1, %edx
 7071      00
 7072 029b 4C89F6   		movq	%r14, %rsi
 7073 029e E8000000 		call	_ZSt16__ostream_insertIcSt11char_traitsIcEERSt13basic_ostreamIT_T0_ES6_PKS3_l@PLT
 7073      00
 7074 02a3 4883C501 		addq	$1, %rbp
 7075 02a7 4839EB   		cmpq	%rbp, %rbx
 7076 02aa 75CC     		jne	.L444
 7077 02ac BA010000 		movl	$1, %edx
 7077      00
 7078 02b1 488D3500 		leaq	.LC42(%rip), %rsi
 7078      000000
 7079 02b8 4C89E7   		movq	%r12, %rdi
 7080 02bb E8000000 		call	_ZSt16__ostream_insertIcSt11char_traitsIcEERSt13basic_ostreamIT_T0_ES6_PKS3_l@PLT
 7080      00
 7081 02c0 4C89E7   		movq	%r12, %rdi
 7082 02c3 E8000000 		call	_ZNK8UnitTest15MemoryOutStream7GetTextEv@PLT
 7082      00
 7083 02c8 488B7424 		movq	24(%rsp), %rsi
 7083      18
 7084 02cd 488B7C24 		movq	16(%rsp), %rdi
 7084      10
 7085 02d2 4889C2   		movq	%rax, %rdx
 7086 02d5 F30F7E15 		movq	.LC2(%rip), %xmm2
 7086      00000000 
 7087 02dd 0F161500 		movhps	.LC4(%rip), %xmm2
 7087      000000
 7088 02e4 0F291424 		movaps	%xmm2, (%rsp)
 7089 02e8 E8000000 		call	_ZN8UnitTest11TestResults13OnTestFailureERKNS_11TestDetailsEPKc@PLT
 7089      00
 7090              	.LEHE233:
 7091 02ed 488D0500 		leaq	24+_ZTVN8UnitTest15MemoryOutStreamE(%rip), %rax
 7091      000000
 7092 02f4 488BBC24 		movq	192(%rsp), %rdi
 7092      C0000000 
 7093 02fc 48894424 		movq	%rax, 80(%rsp)
 7093      50
 7094 0301 4883C028 		addq	$40, %rax
 7095 0305 48898424 		movq	%rax, 224(%rsp)
 7095      E0000000 
 7096 030d 483B7C24 		cmpq	48(%rsp), %rdi
 7096      30
 7097 0312 7405     		je	.L445
 7098 0314 E8000000 		call	_ZdlPv@PLT
 7098      00
 7099              	.L445:
 7100 0319 660F6F24 		movdqa	(%rsp), %xmm4
 7100      24
 7101 031e 488D0500 		leaq	64+_ZTCN8UnitTest15MemoryOutStreamE0_NSt7__cxx1119basic_ostringstreamIcSt11char_traitsIcESaIc
 7101      000000
 7102 0325 488BBC24 		movq	160(%rsp), %rdi
 7102      A0000000 
 7103 032d 48898424 		movq	%rax, 224(%rsp)
 7103      E0000000 
 7104 0335 0F296424 		movaps	%xmm4, 80(%rsp)
 7104      50
 7105 033a 483B7C24 		cmpq	40(%rsp), %rdi
 7105      28
 7106 033f 7405     		je	.L446
 7107 0341 E8000000 		call	_ZdlPv@PLT
 7107      00
 7108              	.L446:
 7109 0346 488B7C24 		movq	56(%rsp), %rdi
 7109      38
 7110 034b 488D0500 		leaq	16+_ZTVSt15basic_streambufIcSt11char_traitsIcEE(%rip), %rax
 7110      000000
 7111 0352 48894424 		movq	%rax, 88(%rsp)
 7111      58
 7112 0357 E8000000 		call	_ZNSt6localeD1Ev@PLT
 7112      00
 7113 035c 488D0500 		leaq	24+_ZTCN8UnitTest15MemoryOutStreamE0_So(%rip), %rax
 7113      000000
 7114 0363 488B7C24 		movq	32(%rsp), %rdi
 7114      20
 7115 0368 48894424 		movq	%rax, 80(%rsp)
 7115      50
 7116 036d 488D0500 		leaq	16+_ZTVSt9basic_iosIcSt11char_traitsIcEE(%rip), %rax
 7116      000000
 7117 0374 48898424 		movq	%rax, 224(%rsp)
 7117      E0000000 
 7118              	.LEHB234:
 7119 037c E8000000 		call	_ZNSt8ios_baseD2Ev@PLT
 7119      00
 7120              	.LEHE234:
 7121 0381 E9F7FCFF 		jmp	.L437
 7121      FF
 7122              	.L460:
 7123 0386 E8000000 		call	__stack_chk_fail@PLT
 7123      00
 7124              	.L452:
 7125 038b F30F1EFA 		endbr64
 7126 038f 4889C3   		movq	%rax, %rbx
 7127 0392 EB12     		jmp	.L441
 7128              	.L450:
 7129 0394 F30F1EFA 		endbr64
 7130 0398 4889C5   		movq	%rax, %rbp
 7131 039b EB41     		jmp	.L447
 7132              	.L451:
 7133 039d F30F1EFA 		endbr64
 7134 03a1 4889C5   		movq	%rax, %rbp
 7135 03a4 EB17     		jmp	.L442
 7136              	.L441:
 7137 03a6 4889EF   		movq	%rbp, %rdi
 7138 03a9 4889DD   		movq	%rbx, %rbp
 7139 03ac E8000000 		call	_ZNSt7__cxx1115basic_stringbufIcSt11char_traitsIcESaIcEED1Ev
 7139      00
 7140 03b1 488D0500 		leaq	24+_ZTCN8UnitTest15MemoryOutStreamE0_So(%rip), %rax
 7140      000000
 7141 03b8 48894424 		movq	%rax, 80(%rsp)
 7141      50
 7142              	.L442:
 7143 03bd 488B7C24 		movq	32(%rsp), %rdi
 7143      20
 7144 03c2 488D0500 		leaq	16+_ZTVSt9basic_iosIcSt11char_traitsIcEE(%rip), %rax
 7144      000000
 7145 03c9 48898424 		movq	%rax, 224(%rsp)
 7145      E0000000 
 7146 03d1 E8000000 		call	_ZNSt8ios_baseD2Ev@PLT
 7146      00
 7147 03d6 4889EF   		movq	%rbp, %rdi
 7148              	.LEHB235:
 7149 03d9 E8000000 		call	_Unwind_Resume@PLT
 7149      00
 7150              	.LEHE235:
 7151              	.L447:
 7152 03de 4C89E7   		movq	%r12, %rdi
 7153 03e1 E8000000 		call	_ZN8UnitTest15MemoryOutStreamD1Ev
 7153      00
 7154 03e6 4889EF   		movq	%rbp, %rdi
 7155              	.LEHB236:
 7156 03e9 E8000000 		call	_Unwind_Resume@PLT
 7156      00
 7157              	.LEHE236:
 7158              		.cfi_endproc
 7159              	.LFE1415:
 7160              		.section	.gcc_except_table
 7161              	.LLSDA1415:
 7162 04fc FF       		.byte	0xff
 7163 04fd FF       		.byte	0xff
 7164 04fe 01       		.byte	0x1
 7165 04ff 22       		.uleb128 .LLSDACSE1415-.LLSDACSB1415
 7166              	.LLSDACSB1415:
 7167 0500 8C02     		.uleb128 .LEHB231-.LFB1415
 7168 0502 05       		.uleb128 .LEHE231-.LEHB231
 7169 0503 9D07     		.uleb128 .L451-.LFB1415
 7170 0505 00       		.uleb128 0
 7171 0506 AE03     		.uleb128 .LEHB232-.LFB1415
 7172 0508 05       		.uleb128 .LEHE232-.LEHB232
 7173 0509 8B07     		.uleb128 .L452-.LFB1415
 7174 050b 00       		.uleb128 0
 7175 050c 8304     		.uleb128 .LEHB233-.LFB1415
 7176 050e EA01     		.uleb128 .LEHE233-.LEHB233
 7177 0510 9407     		.uleb128 .L450-.LFB1415
 7178 0512 00       		.uleb128 0
 7179 0513 FC06     		.uleb128 .LEHB234-.LFB1415
 7180 0515 05       		.uleb128 .LEHE234-.LEHB234
 7181 0516 00       		.uleb128 0
 7182 0517 00       		.uleb128 0
 7183 0518 D907     		.uleb128 .LEHB235-.LFB1415
 7184 051a 05       		.uleb128 .LEHE235-.LEHB235
 7185 051b 00       		.uleb128 0
 7186 051c 00       		.uleb128 0
 7187 051d E907     		.uleb128 .LEHB236-.LFB1415
 7188 051f 05       		.uleb128 .LEHE236-.LEHB236
 7189 0520 00       		.uleb128 0
 7190 0521 00       		.uleb128 0
 7191              	.LLSDACSE1415:
 7192              		.section	.text._ZN8UnitTest15CheckArrayEqualIPKcPhEEvRNS_11TestResultsERKT_RKT0_iRKNS_11TestDetail
 7194              		.section	.rodata.str1.8
 7195 049f 00       		.align 8
 7196              	.LC50:
 7197 04a0 556E6861 		.string	"Unhandled exception in CHECK_EQUAL(data.length, mask.length)"
 7197      6E646C65 
 7197      64206578 
 7197      63657074 
 7197      696F6E20 
 7198 04dd 000000   		.align 8
 7199              	.LC51:
 7200 04e0 556E6861 		.string	"Unhandled exception in CHECK_ARRAY_EQUAL(expectedWriteMap, mask.data)"
 7200      6E646C65 
 7200      64206578 
 7200      63657074 
 7200      696F6E20 
 7201              		.section	.text.unlikely
 7202              	.LCOLDB52:
 7203              		.text
 7204              	.LHOTB52:
 7205 1362 66662E0F 		.p2align 4
 7205      1F840000 
 7205      0000000F 
 7205      1F00
 7206              		.globl	_Z18testDeriveWriteMapPKcS0_
 7208              	_Z18testDeriveWriteMapPKcS0_:
 7209              	.LFB1356:
 7210              		.cfi_startproc
 7211              		.cfi_personality 0x9b,DW.ref.__gxx_personality_v0
 7212              		.cfi_lsda 0x1b,.LLSDA1356
 7213 1370 F30F1EFA 		endbr64
 7214 1374 4157     		pushq	%r15
 7215              		.cfi_def_cfa_offset 16
 7216              		.cfi_offset 15, -16
 7217 1376 31C9     		xorl	%ecx, %ecx
 7218 1378 BA2E0000 		movl	$46, %edx
 7218      00
 7219 137d 4156     		pushq	%r14
 7220              		.cfi_def_cfa_offset 24
 7221              		.cfi_offset 14, -24
 7222 137f 4989FE   		movq	%rdi, %r14
 7223 1382 4155     		pushq	%r13
 7224              		.cfi_def_cfa_offset 32
 7225              		.cfi_offset 13, -32
 7226 1384 4154     		pushq	%r12
 7227              		.cfi_def_cfa_offset 40
 7228              		.cfi_offset 12, -40
 7229 1386 55       		pushq	%rbp
 7230              		.cfi_def_cfa_offset 48
 7231              		.cfi_offset 6, -48
 7232 1387 4881EC90 		subq	$144, %rsp
 7232      000000
 7233              		.cfi_def_cfa_offset 192
 7234 138e 48897424 		movq	%rsi, 8(%rsp)
 7234      08
 7235 1393 4C8D6C24 		leaq	32(%rsp), %r13
 7235      20
 7236 1398 BE000400 		movl	$1024, %esi
 7236      00
 7237 139d 4C89EF   		movq	%r13, %rdi
 7238 13a0 64488B04 		movq	%fs:40, %rax
 7238      25280000 
 7238      00
 7239 13a9 48898424 		movq	%rax, 136(%rsp)
 7239      88000000 
 7240 13b1 31C0     		xorl	%eax, %eax
 7241              	.LEHB237:
 7242 13b3 E8000000 		call	bufInitialise@PLT
 7242      00
 7243              	.LEHE237:
 7244 13b8 89442418 		movl	%eax, 24(%rsp)
 7245              	.LEHB238:
 7246 13bc E8000000 		call	_ZN8UnitTest11CurrentTest7DetailsEv@PLT
 7246      00
 7247 13c1 488D6C24 		leaq	96(%rsp), %rbp
 7247      60
 7248 13c6 488B30   		movq	(%rax), %rsi
 7249 13c9 BA1B0100 		movl	$283, %edx
 7249      00
 7250 13ce 4889EF   		movq	%rbp, %rdi
 7251 13d1 E8000000 		call	_ZN8UnitTest11TestDetailsC1ERKS0_i@PLT
 7251      00
 7252 13d6 C7442440 		movl	$0, 64(%rsp)
 7252      00000000 
 7253 13de E8000000 		call	_ZN8UnitTest11CurrentTest7ResultsEv@PLT
 7253      00
 7254 13e3 4C8D6424 		leaq	64(%rsp), %r12
 7254      40
 7255 13e8 488B38   		movq	(%rax), %rdi
 7256 13eb 488D5424 		leaq	24(%rsp), %rdx
 7256      18
 7257 13f0 4889E9   		movq	%rbp, %rcx
 7258 13f3 4C89E6   		movq	%r12, %rsi
 7259 13f6 E8000000 		call	_ZN8UnitTest10CheckEqualI12BufferStatusS1_EEvRNS_11TestResultsERKT_RKT0_RKNS_11TestDetailsE
 7259      00
 7260              	.LEHE238:
 7261              	.L467:
 7262 13fb 31C9     		xorl	%ecx, %ecx
 7263 13fd 31D2     		xorl	%edx, %edx
 7264 13ff BE000400 		movl	$1024, %esi
 7264      00
 7265 1404 4C89E7   		movq	%r12, %rdi
 7266              	.LEHB239:
 7267 1407 E8000000 		call	bufInitialise@PLT
 7267      00
 7268              	.LEHE239:
 7269 140c 89442418 		movl	%eax, 24(%rsp)
 7270              	.LEHB240:
 7271 1410 E8000000 		call	_ZN8UnitTest11CurrentTest7DetailsEv@PLT
 7271      00
 7272 1415 488B30   		movq	(%rax), %rsi
 7273 1418 BA1D0100 		movl	$285, %edx
 7273      00
 7274 141d 4889EF   		movq	%rbp, %rdi
 7275 1420 E8000000 		call	_ZN8UnitTest11TestDetailsC1ERKS0_i@PLT
 7275      00
 7276 1425 C744241C 		movl	$0, 28(%rsp)
 7276      00000000 
 7277 142d E8000000 		call	_ZN8UnitTest11CurrentTest7ResultsEv@PLT
 7277      00
 7278 1432 488B38   		movq	(%rax), %rdi
 7279 1435 488D5424 		leaq	24(%rsp), %rdx
 7279      18
 7280 143a 488D7424 		leaq	28(%rsp), %rsi
 7280      1C
 7281 143f 4889E9   		movq	%rbp, %rcx
 7282 1442 E8000000 		call	_ZN8UnitTest10CheckEqualI12BufferStatusS1_EEvRNS_11TestResultsERKT_RKT0_RKNS_11TestDetailsE
 7282      00
 7283              	.LEHE240:
 7284              	.L470:
 7285 1447 4C89F7   		movq	%r14, %rdi
 7286 144a E8000000 		call	strlen@PLT
 7286      00
 7287 144f 4531C0   		xorl	%r8d, %r8d
 7288 1452 4C89F2   		movq	%r14, %rdx
 7289 1455 31F6     		xorl	%esi, %esi
 7290 1457 4889C1   		movq	%rax, %rcx
 7291 145a 4C89EF   		movq	%r13, %rdi
 7292              	.LEHB241:
 7293 145d E8000000 		call	bufWriteBlock@PLT
 7293      00
 7294              	.LEHE241:
 7295 1462 89442418 		movl	%eax, 24(%rsp)
 7296              	.LEHB242:
 7297 1466 E8000000 		call	_ZN8UnitTest11CurrentTest7DetailsEv@PLT
 7297      00
 7298 146b 488B30   		movq	(%rax), %rsi
 7299 146e BA1F0100 		movl	$287, %edx
 7299      00
 7300 1473 4889EF   		movq	%rbp, %rdi
 7301 1476 E8000000 		call	_ZN8UnitTest11TestDetailsC1ERKS0_i@PLT
 7301      00
 7302 147b C744241C 		movl	$0, 28(%rsp)
 7302      00000000 
 7303 1483 E8000000 		call	_ZN8UnitTest11CurrentTest7ResultsEv@PLT
 7303      00
 7304 1488 488B38   		movq	(%rax), %rdi
 7305 148b 488D5424 		leaq	24(%rsp), %rdx
 7305      18
 7306 1490 488D7424 		leaq	28(%rsp), %rsi
 7306      1C
 7307 1495 4889E9   		movq	%rbp, %rcx
 7308 1498 E8000000 		call	_ZN8UnitTest10CheckEqualI12BufferStatusS1_EEvRNS_11TestResultsERKT_RKT0_RKNS_11TestDetailsE
 7308      00
 7309              	.LEHE242:
 7310              	.L473:
 7311 149d 31D2     		xorl	%edx, %edx
 7312 149f 4C89E6   		movq	%r12, %rsi
 7313 14a2 4C89EF   		movq	%r13, %rdi
 7314              	.LEHB243:
 7315 14a5 E8000000 		call	bufDeriveMask@PLT
 7315      00
 7316              	.LEHE243:
 7317 14aa 89442418 		movl	%eax, 24(%rsp)
 7318              	.LEHB244:
 7319 14ae E8000000 		call	_ZN8UnitTest11CurrentTest7DetailsEv@PLT
 7319      00
 7320 14b3 488B30   		movq	(%rax), %rsi
 7321 14b6 BA210100 		movl	$289, %edx
 7321      00
 7322 14bb 4889EF   		movq	%rbp, %rdi
 7323 14be E8000000 		call	_ZN8UnitTest11TestDetailsC1ERKS0_i@PLT
 7323      00
 7324 14c3 C744241C 		movl	$0, 28(%rsp)
 7324      00000000 
 7325 14cb E8000000 		call	_ZN8UnitTest11CurrentTest7ResultsEv@PLT
 7325      00
 7326 14d0 488B38   		movq	(%rax), %rdi
 7327 14d3 488D5424 		leaq	24(%rsp), %rdx
 7327      18
 7328 14d8 488D7424 		leaq	28(%rsp), %rsi
 7328      1C
 7329 14dd 4889E9   		movq	%rbp, %rcx
 7330 14e0 E8000000 		call	_ZN8UnitTest10CheckEqualI12BufferStatusS1_EEvRNS_11TestResultsERKT_RKT0_RKNS_11TestDetailsE
 7330      00
 7331              	.LEHE244:
 7332              	.L476:
 7333              	.LEHB245:
 7334 14e5 E8000000 		call	_ZN8UnitTest11CurrentTest7DetailsEv@PLT
 7334      00
 7335 14ea 488B30   		movq	(%rax), %rsi
 7336 14ed BA220100 		movl	$290, %edx
 7336      00
 7337 14f2 4889EF   		movq	%rbp, %rdi
 7338 14f5 E8000000 		call	_ZN8UnitTest11TestDetailsC1ERKS0_i@PLT
 7338      00
 7339 14fa E8000000 		call	_ZN8UnitTest11CurrentTest7ResultsEv@PLT
 7339      00
 7340 14ff 488B38   		movq	(%rax), %rdi
 7341 1502 488D5424 		leaq	72(%rsp), %rdx
 7341      48
 7342 1507 488D7424 		leaq	40(%rsp), %rsi
 7342      28
 7343 150c 4889E9   		movq	%rbp, %rcx
 7344 150f E8000000 		call	_ZN8UnitTest10CheckEqualImmEEvRNS_11TestResultsERKT_RKT0_RKNS_11TestDetailsE
 7344      00
 7345              	.LEHE245:
 7346              	.L479:
 7347 1514 48837C24 		cmpq	$0, 72(%rsp)
 7347      4800
 7348 151a 741F     		je	.L462
 7349 151c 31C0     		xorl	%eax, %eax
 7350 151e 6690     		.p2align 4,,10
 7351              		.p2align 3
 7352              	.L465:
 7353 1520 488B5424 		movq	64(%rsp), %rdx
 7353      40
 7354 1525 4801C2   		addq	%rax, %rdx
 7355 1528 803A00   		cmpb	$0, (%rdx)
 7356 152b 747B     		je	.L463
 7357 152d C6022A   		movb	$42, (%rdx)
 7358 1530 4883C001 		addq	$1, %rax
 7359 1534 48394424 		cmpq	%rax, 72(%rsp)
 7359      48
 7360 1539 77E5     		ja	.L465
 7361              	.L462:
 7362              	.LEHB246:
 7363 153b E8000000 		call	_ZN8UnitTest11CurrentTest7DetailsEv@PLT
 7363      00
 7364 1540 488B30   		movq	(%rax), %rsi
 7365 1543 BA2A0100 		movl	$298, %edx
 7365      00
 7366 1548 4889EF   		movq	%rbp, %rdi
 7367 154b E8000000 		call	_ZN8UnitTest11TestDetailsC1ERKS0_i@PLT
 7367      00
 7368 1550 448B7424 		movl	72(%rsp), %r14d
 7368      48
 7369 1555 E8000000 		call	_ZN8UnitTest11CurrentTest7ResultsEv@PLT
 7369      00
 7370 155a 488B38   		movq	(%rax), %rdi
 7371 155d 488D7424 		leaq	8(%rsp), %rsi
 7371      08
 7372 1562 4989E8   		movq	%rbp, %r8
 7373 1565 4489F1   		movl	%r14d, %ecx
 7374 1568 4C89E2   		movq	%r12, %rdx
 7375 156b E8000000 		call	_ZN8UnitTest15CheckArrayEqualIPKcPhEEvRNS_11TestResultsERKT_RKT0_iRKNS_11TestDetailsE
 7375      00
 7376              	.LEHE246:
 7377              	.L482:
 7378 1570 4C89EF   		movq	%r13, %rdi
 7379              	.LEHB247:
 7380 1573 E8000000 		call	bufDestroy@PLT
 7380      00
 7381 1578 4C89E7   		movq	%r12, %rdi
 7382 157b E8000000 		call	bufDestroy@PLT
 7382      00
 7383              	.LEHE247:
 7384 1580 488B8424 		movq	136(%rsp), %rax
 7384      88000000 
 7385 1588 64482B04 		subq	%fs:40, %rax
 7385      25280000 
 7385      00
 7386 1591 752C     		jne	.L499
 7387 1593 4881C490 		addq	$144, %rsp
 7387      000000
 7388              		.cfi_remember_state
 7389              		.cfi_def_cfa_offset 48
 7390 159a 5D       		popq	%rbp
 7391              		.cfi_def_cfa_offset 40
 7392 159b 415C     		popq	%r12
 7393              		.cfi_def_cfa_offset 32
 7394 159d 415D     		popq	%r13
 7395              		.cfi_def_cfa_offset 24
 7396 159f 415E     		popq	%r14
 7397              		.cfi_def_cfa_offset 16
 7398 15a1 415F     		popq	%r15
 7399              		.cfi_def_cfa_offset 8
 7400 15a3 C3       		ret
 7401              		.p2align 4,,10
 7402 15a4 0F1F4000 		.p2align 3
 7403              	.L463:
 7404              		.cfi_restore_state
 7405 15a8 C6022E   		movb	$46, (%rdx)
 7406 15ab 4883C001 		addq	$1, %rax
 7407 15af 483B4424 		cmpq	72(%rsp), %rax
 7407      48
 7408 15b4 0F8266FF 		jb	.L465
 7408      FFFF
 7409 15ba E97CFFFF 		jmp	.L462
 7409      FF
 7410              	.L499:
 7411 15bf E8000000 		call	__stack_chk_fail@PLT
 7411      00
 7412              	.L495:
 7413 15c4 F30F1EFA 		endbr64
 7414 15c8 4889C7   		movq	%rax, %rdi
 7415 15cb E9000000 		jmp	.L481
 7415      00
 7416              	.L493:
 7417 15d0 F30F1EFA 		endbr64
 7418 15d4 4889C7   		movq	%rax, %rdi
 7419 15d7 E9000000 		jmp	.L478
 7419      00
 7420              	.L491:
 7421 15dc F30F1EFA 		endbr64
 7422 15e0 4889C7   		movq	%rax, %rdi
 7423 15e3 E9000000 		jmp	.L475
 7423      00
 7424              	.L489:
 7425 15e8 F30F1EFA 		endbr64
 7426 15ec 4889C7   		movq	%rax, %rdi
 7427 15ef E9000000 		jmp	.L472
 7427      00
 7428              	.L487:
 7429 15f4 F30F1EFA 		endbr64
 7430 15f8 4889C7   		movq	%rax, %rdi
 7431 15fb E9000000 		jmp	.L469
 7431      00
 7432              	.L485:
 7433 1600 F30F1EFA 		endbr64
 7434 1604 4889C7   		movq	%rax, %rdi
 7435 1607 E9000000 		jmp	.L466
 7435      00
 7436              		.section	.gcc_except_table
 7437 0522 0000     		.align 4
 7438              	.LLSDA1356:
 7439 0524 FF       		.byte	0xff
 7440 0525 9B       		.byte	0x9b
 7441 0526 45       		.uleb128 .LLSDATT1356-.LLSDATTD1356
 7442              	.LLSDATTD1356:
 7443 0527 01       		.byte	0x1
 7444 0528 3B       		.uleb128 .LLSDACSE1356-.LLSDACSB1356
 7445              	.LLSDACSB1356:
 7446 0529 43       		.uleb128 .LEHB237-.LFB1356
 7447 052a 05       		.uleb128 .LEHE237-.LEHB237
 7448 052b 00       		.uleb128 0
 7449 052c 00       		.uleb128 0
 7450 052d 4C       		.uleb128 .LEHB238-.LFB1356
 7451 052e 3F       		.uleb128 .LEHE238-.LEHB238
 7452 052f 9005     		.uleb128 .L485-.LFB1356
 7453 0531 01       		.uleb128 0x1
 7454 0532 9701     		.uleb128 .LEHB239-.LFB1356
 7455 0534 05       		.uleb128 .LEHE239-.LEHB239
 7456 0535 00       		.uleb128 0
 7457 0536 00       		.uleb128 0
 7458 0537 A001     		.uleb128 .LEHB240-.LFB1356
 7459 0539 37       		.uleb128 .LEHE240-.LEHB240
 7460 053a 8405     		.uleb128 .L487-.LFB1356
 7461 053c 01       		.uleb128 0x1
 7462 053d ED01     		.uleb128 .LEHB241-.LFB1356
 7463 053f 05       		.uleb128 .LEHE241-.LEHB241
 7464 0540 00       		.uleb128 0
 7465 0541 00       		.uleb128 0
 7466 0542 F601     		.uleb128 .LEHB242-.LFB1356
 7467 0544 37       		.uleb128 .LEHE242-.LEHB242
 7468 0545 F804     		.uleb128 .L489-.LFB1356
 7469 0547 01       		.uleb128 0x1
 7470 0548 B502     		.uleb128 .LEHB243-.LFB1356
 7471 054a 05       		.uleb128 .LEHE243-.LEHB243
 7472 054b 00       		.uleb128 0
 7473 054c 00       		.uleb128 0
 7474 054d BE02     		.uleb128 .LEHB244-.LFB1356
 7475 054f 37       		.uleb128 .LEHE244-.LEHB244
 7476 0550 EC04     		.uleb128 .L491-.LFB1356
 7477 0552 01       		.uleb128 0x1
 7478 0553 F502     		.uleb128 .LEHB245-.LFB1356
 7479 0555 2F       		.uleb128 .LEHE245-.LEHB245
 7480 0556 E004     		.uleb128 .L493-.LFB1356
 7481 0558 01       		.uleb128 0x1
 7482 0559 CB03     		.uleb128 .LEHB246-.LFB1356
 7483 055b 35       		.uleb128 .LEHE246-.LEHB246
 7484 055c D404     		.uleb128 .L495-.LFB1356
 7485 055e 01       		.uleb128 0x1
 7486 055f 8304     		.uleb128 .LEHB247-.LFB1356
 7487 0561 0D       		.uleb128 .LEHE247-.LEHB247
 7488 0562 00       		.uleb128 0
 7489 0563 00       		.uleb128 0
 7490              	.LLSDACSE1356:
 7491 0564 01       		.byte	0x1
 7492 0565 00       		.byte	0
 7493 0566 0000     		.align 4
 7494 0568 00000000 		.long	0
 7495              	
 7496              	.LLSDATT1356:
 7497              		.text
 7498              		.cfi_endproc
 7499              		.section	.text.unlikely
 7500              		.cfi_startproc
 7501              		.cfi_personality 0x9b,DW.ref.__gxx_personality_v0
 7502              		.cfi_lsda 0x1b,.LLSDAC1356
 7504              	_Z18testDeriveWriteMapPKcS0_.cold:
 7505              	.LFSB1356:
 7506              	.L481:
 7507              		.cfi_def_cfa_offset 192
 7508              		.cfi_offset 6, -48
 7509              		.cfi_offset 12, -40
 7510              		.cfi_offset 13, -32
 7511              		.cfi_offset 14, -24
 7512              		.cfi_offset 15, -16
 7513 0b25 E8000000 		call	__cxa_begin_catch@PLT
 7513      00
 7514              	.LEHB248:
 7515 0b2a E8000000 		call	_ZN8UnitTest11CurrentTest7ResultsEv@PLT
 7515      00
 7516 0b2f 4C8B30   		movq	(%rax), %r14
 7517 0b32 E8000000 		call	_ZN8UnitTest11CurrentTest7DetailsEv@PLT
 7517      00
 7518 0b37 488B30   		movq	(%rax), %rsi
 7519 0b3a BA2A0100 		movl	$298, %edx
 7519      00
 7520 0b3f 4889EF   		movq	%rbp, %rdi
 7521 0b42 E8000000 		call	_ZN8UnitTest11TestDetailsC1ERKS0_i@PLT
 7521      00
 7522 0b47 488D1500 		leaq	.LC51(%rip), %rdx
 7522      000000
 7523 0b4e 4889EE   		movq	%rbp, %rsi
 7524 0b51 4C89F7   		movq	%r14, %rdi
 7525 0b54 E8000000 		call	_ZN8UnitTest11TestResults13OnTestFailureERKNS_11TestDetailsEPKc@PLT
 7525      00
 7526              	.LEHE248:
 7527              	.LEHB249:
 7528 0b59 E8000000 		call	__cxa_end_catch@PLT
 7528      00
 7529              	.LEHE249:
 7530 0b5e E9000000 		jmp	.L482
 7530      00
 7531              	.L478:
 7532 0b63 E8000000 		call	__cxa_begin_catch@PLT
 7532      00
 7533              	.LEHB250:
 7534 0b68 E8000000 		call	_ZN8UnitTest11CurrentTest7ResultsEv@PLT
 7534      00
 7535 0b6d 4C8B30   		movq	(%rax), %r14
 7536 0b70 E8000000 		call	_ZN8UnitTest11CurrentTest7DetailsEv@PLT
 7536      00
 7537 0b75 488B30   		movq	(%rax), %rsi
 7538 0b78 BA220100 		movl	$290, %edx
 7538      00
 7539 0b7d 4889EF   		movq	%rbp, %rdi
 7540 0b80 E8000000 		call	_ZN8UnitTest11TestDetailsC1ERKS0_i@PLT
 7540      00
 7541 0b85 488D1500 		leaq	.LC50(%rip), %rdx
 7541      000000
 7542 0b8c 4889EE   		movq	%rbp, %rsi
 7543 0b8f 4C89F7   		movq	%r14, %rdi
 7544 0b92 E8000000 		call	_ZN8UnitTest11TestResults13OnTestFailureERKNS_11TestDetailsEPKc@PLT
 7544      00
 7545              	.LEHE250:
 7546              	.LEHB251:
 7547 0b97 E8000000 		call	__cxa_end_catch@PLT
 7547      00
 7548              	.LEHE251:
 7549 0b9c E9000000 		jmp	.L479
 7549      00
 7550              	.L496:
 7551 0ba1 F30F1EFA 		endbr64
 7552 0ba5 4889C5   		movq	%rax, %rbp
 7553 0ba8 E8000000 		call	__cxa_end_catch@PLT
 7553      00
 7554 0bad 4889EF   		movq	%rbp, %rdi
 7555              	.LEHB252:
 7556 0bb0 E8000000 		call	_Unwind_Resume@PLT
 7556      00
 7557              	.LEHE252:
 7558              	.L494:
 7559 0bb5 F30F1EFA 		endbr64
 7560 0bb9 4889C5   		movq	%rax, %rbp
 7561 0bbc E8000000 		call	__cxa_end_catch@PLT
 7561      00
 7562 0bc1 4889EF   		movq	%rbp, %rdi
 7563              	.LEHB253:
 7564 0bc4 E8000000 		call	_Unwind_Resume@PLT
 7564      00
 7565              	.LEHE253:
 7566              	.L475:
 7567 0bc9 E8000000 		call	__cxa_begin_catch@PLT
 7567      00
 7568              	.LEHB254:
 7569 0bce E8000000 		call	_ZN8UnitTest11CurrentTest7ResultsEv@PLT
 7569      00
 7570 0bd3 4C8B30   		movq	(%rax), %r14
 7571 0bd6 E8000000 		call	_ZN8UnitTest11CurrentTest7DetailsEv@PLT
 7571      00
 7572 0bdb 488B30   		movq	(%rax), %rsi
 7573 0bde BA210100 		movl	$289, %edx
 7573      00
 7574 0be3 4889EF   		movq	%rbp, %rdi
 7575 0be6 E8000000 		call	_ZN8UnitTest11TestDetailsC1ERKS0_i@PLT
 7575      00
 7576 0beb 488D1500 		leaq	.LC6(%rip), %rdx
 7576      000000
 7577 0bf2 4889EE   		movq	%rbp, %rsi
 7578 0bf5 4C89F7   		movq	%r14, %rdi
 7579 0bf8 E8000000 		call	_ZN8UnitTest11TestResults13OnTestFailureERKNS_11TestDetailsEPKc@PLT
 7579      00
 7580              	.LEHE254:
 7581              	.LEHB255:
 7582 0bfd E8000000 		call	__cxa_end_catch@PLT
 7582      00
 7583              	.LEHE255:
 7584 0c02 E9000000 		jmp	.L476
 7584      00
 7585              	.L472:
 7586 0c07 E8000000 		call	__cxa_begin_catch@PLT
 7586      00
 7587              	.LEHB256:
 7588 0c0c E8000000 		call	_ZN8UnitTest11CurrentTest7ResultsEv@PLT
 7588      00
 7589 0c11 4C8B30   		movq	(%rax), %r14
 7590 0c14 E8000000 		call	_ZN8UnitTest11CurrentTest7DetailsEv@PLT
 7590      00
 7591 0c19 488B30   		movq	(%rax), %rsi
 7592 0c1c BA1F0100 		movl	$287, %edx
 7592      00
 7593 0c21 4889EF   		movq	%rbp, %rdi
 7594 0c24 E8000000 		call	_ZN8UnitTest11TestDetailsC1ERKS0_i@PLT
 7594      00
 7595 0c29 488D1500 		leaq	.LC6(%rip), %rdx
 7595      000000
 7596 0c30 4889EE   		movq	%rbp, %rsi
 7597 0c33 4C89F7   		movq	%r14, %rdi
 7598 0c36 E8000000 		call	_ZN8UnitTest11TestResults13OnTestFailureERKNS_11TestDetailsEPKc@PLT
 7598      00
 7599              	.LEHE256:
 7600              	.LEHB257:
 7601 0c3b E8000000 		call	__cxa_end_catch@PLT
 7601      00
 7602              	.LEHE257:
 7603 0c40 E9000000 		jmp	.L473
 7603      00
 7604              	.L492:
 7605 0c45 F30F1EFA 		endbr64
 7606 0c49 4889C5   		movq	%rax, %rbp
 7607 0c4c E8000000 		call	__cxa_end_catch@PLT
 7607      00
 7608 0c51 4889EF   		movq	%rbp, %rdi
 7609              	.LEHB258:
 7610 0c54 E8000000 		call	_Unwind_Resume@PLT
 7610      00
 7611              	.LEHE258:
 7612              	.L490:
 7613 0c59 F30F1EFA 		endbr64
 7614 0c5d 4889C5   		movq	%rax, %rbp
 7615 0c60 E8000000 		call	__cxa_end_catch@PLT
 7615      00
 7616 0c65 4889EF   		movq	%rbp, %rdi
 7617              	.LEHB259:
 7618 0c68 E8000000 		call	_Unwind_Resume@PLT
 7618      00
 7619              	.LEHE259:
 7620              	.L469:
 7621 0c6d E8000000 		call	__cxa_begin_catch@PLT
 7621      00
 7622              	.LEHB260:
 7623 0c72 E8000000 		call	_ZN8UnitTest11CurrentTest7ResultsEv@PLT
 7623      00
 7624 0c77 4C8B38   		movq	(%rax), %r15
 7625 0c7a E8000000 		call	_ZN8UnitTest11CurrentTest7DetailsEv@PLT
 7625      00
 7626 0c7f 488B30   		movq	(%rax), %rsi
 7627 0c82 BA1D0100 		movl	$285, %edx
 7627      00
 7628 0c87 4889EF   		movq	%rbp, %rdi
 7629 0c8a E8000000 		call	_ZN8UnitTest11TestDetailsC1ERKS0_i@PLT
 7629      00
 7630 0c8f 488D1500 		leaq	.LC6(%rip), %rdx
 7630      000000
 7631 0c96 4889EE   		movq	%rbp, %rsi
 7632 0c99 4C89FF   		movq	%r15, %rdi
 7633 0c9c E8000000 		call	_ZN8UnitTest11TestResults13OnTestFailureERKNS_11TestDetailsEPKc@PLT
 7633      00
 7634              	.LEHE260:
 7635              	.LEHB261:
 7636 0ca1 E8000000 		call	__cxa_end_catch@PLT
 7636      00
 7637              	.LEHE261:
 7638 0ca6 E9000000 		jmp	.L470
 7638      00
 7639              	.L466:
 7640 0cab E8000000 		call	__cxa_begin_catch@PLT
 7640      00
 7641              	.LEHB262:
 7642 0cb0 E8000000 		call	_ZN8UnitTest11CurrentTest7ResultsEv@PLT
 7642      00
 7643 0cb5 4C8B20   		movq	(%rax), %r12
 7644 0cb8 E8000000 		call	_ZN8UnitTest11CurrentTest7DetailsEv@PLT
 7644      00
 7645 0cbd 488D6C24 		leaq	96(%rsp), %rbp
 7645      60
 7646 0cc2 488B30   		movq	(%rax), %rsi
 7647 0cc5 BA1B0100 		movl	$283, %edx
 7647      00
 7648 0cca 4889EF   		movq	%rbp, %rdi
 7649 0ccd E8000000 		call	_ZN8UnitTest11TestDetailsC1ERKS0_i@PLT
 7649      00
 7650 0cd2 488D1500 		leaq	.LC6(%rip), %rdx
 7650      000000
 7651 0cd9 4889EE   		movq	%rbp, %rsi
 7652 0cdc 4C89E7   		movq	%r12, %rdi
 7653 0cdf E8000000 		call	_ZN8UnitTest11TestResults13OnTestFailureERKNS_11TestDetailsEPKc@PLT
 7653      00
 7654              	.LEHE262:
 7655              	.LEHB263:
 7656 0ce4 E8000000 		call	__cxa_end_catch@PLT
 7656      00
 7657              	.LEHE263:
 7658 0ce9 4C8D6424 		leaq	64(%rsp), %r12
 7658      40
 7659 0cee E9000000 		jmp	.L467
 7659      00
 7660              	.L488:
 7661 0cf3 F30F1EFA 		endbr64
 7662 0cf7 4889C5   		movq	%rax, %rbp
 7663 0cfa E8000000 		call	__cxa_end_catch@PLT
 7663      00
 7664 0cff 4889EF   		movq	%rbp, %rdi
 7665              	.LEHB264:
 7666 0d02 E8000000 		call	_Unwind_Resume@PLT
 7666      00
 7667              	.LEHE264:
 7668              	.L486:
 7669 0d07 F30F1EFA 		endbr64
 7670 0d0b 4889C5   		movq	%rax, %rbp
 7671 0d0e E8000000 		call	__cxa_end_catch@PLT
 7671      00
 7672 0d13 4889EF   		movq	%rbp, %rdi
 7673              	.LEHB265:
 7674 0d16 E8000000 		call	_Unwind_Resume@PLT
 7674      00
 7675              	.LEHE265:
 7676              		.cfi_endproc
 7677              	.LFE1356:
 7678              		.section	.gcc_except_table
 7679              		.align 4
 7680              	.LLSDAC1356:
 7681 056c FF       		.byte	0xff
 7682 056d 9B       		.byte	0x9b
 7683 056e 65       		.uleb128 .LLSDATTC1356-.LLSDATTDC1356
 7684              	.LLSDATTDC1356:
 7685 056f 01       		.byte	0x1
 7686 0570 5B       		.uleb128 .LLSDACSEC1356-.LLSDACSBC1356
 7687              	.LLSDACSBC1356:
 7688 0571 05       		.uleb128 .LEHB248-.LCOLDB52
 7689 0572 2F       		.uleb128 .LEHE248-.LEHB248
 7690 0573 7C       		.uleb128 .L496-.LCOLDB52
 7691 0574 00       		.uleb128 0
 7692 0575 34       		.uleb128 .LEHB249-.LCOLDB52
 7693 0576 05       		.uleb128 .LEHE249-.LEHB249
 7694 0577 00       		.uleb128 0
 7695 0578 00       		.uleb128 0
 7696 0579 43       		.uleb128 .LEHB250-.LCOLDB52
 7697 057a 2F       		.uleb128 .LEHE250-.LEHB250
 7698 057b 9001     		.uleb128 .L494-.LCOLDB52
 7699 057d 00       		.uleb128 0
 7700 057e 72       		.uleb128 .LEHB251-.LCOLDB52
 7701 057f 05       		.uleb128 .LEHE251-.LEHB251
 7702 0580 00       		.uleb128 0
 7703 0581 00       		.uleb128 0
 7704 0582 8B01     		.uleb128 .LEHB252-.LCOLDB52
 7705 0584 05       		.uleb128 .LEHE252-.LEHB252
 7706 0585 00       		.uleb128 0
 7707 0586 00       		.uleb128 0
 7708 0587 9F01     		.uleb128 .LEHB253-.LCOLDB52
 7709 0589 05       		.uleb128 .LEHE253-.LEHB253
 7710 058a 00       		.uleb128 0
 7711 058b 00       		.uleb128 0
 7712 058c A901     		.uleb128 .LEHB254-.LCOLDB52
 7713 058e 2F       		.uleb128 .LEHE254-.LEHB254
 7714 058f A002     		.uleb128 .L492-.LCOLDB52
 7715 0591 00       		.uleb128 0
 7716 0592 D801     		.uleb128 .LEHB255-.LCOLDB52
 7717 0594 05       		.uleb128 .LEHE255-.LEHB255
 7718 0595 00       		.uleb128 0
 7719 0596 00       		.uleb128 0
 7720 0597 E701     		.uleb128 .LEHB256-.LCOLDB52
 7721 0599 2F       		.uleb128 .LEHE256-.LEHB256
 7722 059a B402     		.uleb128 .L490-.LCOLDB52
 7723 059c 00       		.uleb128 0
 7724 059d 9602     		.uleb128 .LEHB257-.LCOLDB52
 7725 059f 05       		.uleb128 .LEHE257-.LEHB257
 7726 05a0 00       		.uleb128 0
 7727 05a1 00       		.uleb128 0
 7728 05a2 AF02     		.uleb128 .LEHB258-.LCOLDB52
 7729 05a4 05       		.uleb128 .LEHE258-.LEHB258
 7730 05a5 00       		.uleb128 0
 7731 05a6 00       		.uleb128 0
 7732 05a7 C302     		.uleb128 .LEHB259-.LCOLDB52
 7733 05a9 05       		.uleb128 .LEHE259-.LEHB259
 7734 05aa 00       		.uleb128 0
 7735 05ab 00       		.uleb128 0
 7736 05ac CD02     		.uleb128 .LEHB260-.LCOLDB52
 7737 05ae 2F       		.uleb128 .LEHE260-.LEHB260
 7738 05af CE03     		.uleb128 .L488-.LCOLDB52
 7739 05b1 00       		.uleb128 0
 7740 05b2 FC02     		.uleb128 .LEHB261-.LCOLDB52
 7741 05b4 05       		.uleb128 .LEHE261-.LEHB261
 7742 05b5 00       		.uleb128 0
 7743 05b6 00       		.uleb128 0
 7744 05b7 8B03     		.uleb128 .LEHB262-.LCOLDB52
 7745 05b9 34       		.uleb128 .LEHE262-.LEHB262
 7746 05ba E203     		.uleb128 .L486-.LCOLDB52
 7747 05bc 00       		.uleb128 0
 7748 05bd BF03     		.uleb128 .LEHB263-.LCOLDB52
 7749 05bf 05       		.uleb128 .LEHE263-.LEHB263
 7750 05c0 00       		.uleb128 0
 7751 05c1 00       		.uleb128 0
 7752 05c2 DD03     		.uleb128 .LEHB264-.LCOLDB52
 7753 05c4 05       		.uleb128 .LEHE264-.LEHB264
 7754 05c5 00       		.uleb128 0
 7755 05c6 00       		.uleb128 0
 7756 05c7 F103     		.uleb128 .LEHB265-.LCOLDB52
 7757 05c9 05       		.uleb128 .LEHE265-.LEHB265
 7758 05ca 00       		.uleb128 0
 7759 05cb 00       		.uleb128 0
 7760              	.LLSDACSEC1356:
 7761 05cc 01       		.byte	0x1
 7762 05cd 00       		.byte	0
 7763 05ce 0000     		.align 4
 7764 05d0 00000000 		.long	0
 7765              	
 7766              	.LLSDATTC1356:
 7767              		.section	.text.unlikely
 7768              		.text
 7770              		.section	.text.unlikely
 7772              	.LCOLDE52:
 7773              		.text
 7774              	.LHOTE52:
 7775              		.section	.rodata.str1.1
 7776              	.LC53:
 7777 00fd 2A2A2A2A 		.string	"*****........*****"
 7777      2A2E2E2E 
 7777      2E2E2E2E 
 7777      2E2A2A2A 
 7777      2A2A00
 7778              	.LC54:
 7779 0110 48656C6C 		.string	"Hello........World"
 7779      6F2E2E2E 
 7779      2E2E2E2E 
 7779      2E576F72 
 7779      6C6400
 7780              	.LC55:
 7781 0123 2A2A2A2A 		.string	"*****************"
 7781      2A2A2A2A 
 7781      2A2A2A2A 
 7781      2A2A2A2A 
 7781      2A00
 7782              	.LC56:
 7783 0135 48656C6C 		.string	"Hello.......World"
 7783      6F2E2E2E 
 7783      2E2E2E2E 
 7783      576F726C 
 7783      6400
 7784              		.text
 7785              		.align 2
 7786 160c 0F1F4000 		.p2align 4
 7787              		.globl	_ZNK28TestHexIO_testDeriveWriteMap7RunImplEv
 7789              	_ZNK28TestHexIO_testDeriveWriteMap7RunImplEv:
 7790              	.LFB1360:
 7791              		.cfi_startproc
 7792 1610 F30F1EFA 		endbr64
 7793 1614 4883EC08 		subq	$8, %rsp
 7794              		.cfi_def_cfa_offset 16
 7795 1618 488D3500 		leaq	.LC53(%rip), %rsi
 7795      000000
 7796 161f 488D3D00 		leaq	.LC54(%rip), %rdi
 7796      000000
 7797 1626 E8000000 		call	_Z18testDeriveWriteMapPKcS0_
 7797      00
 7798 162b 488D3500 		leaq	.LC55(%rip), %rsi
 7798      000000
 7799 1632 488D3D00 		leaq	.LC56(%rip), %rdi
 7799      000000
 7800 1639 4883C408 		addq	$8, %rsp
 7801              		.cfi_def_cfa_offset 8
 7802 163d E92EFDFF 		jmp	_Z18testDeriveWriteMapPKcS0_
 7802      FF
 7803              		.cfi_endproc
 7804              	.LFE1360:
 7806              		.section	.rodata.str1.1
 7807              	.LC57:
 7808 0147 62617369 		.string	"basic_string::append"
 7808      635F7374 
 7808      72696E67 
 7808      3A3A6170 
 7808      70656E64 
 7809              	.LC58:
 7810 015c 746D7046 		.string	"tmpFile.hex"
 7810      696C652E 
 7810      68657800 
 7811              	.LC59:
 7812 0168 66696C65 		.string	"file.is_open()"
 7812      2E69735F 
 7812      6F70656E 
 7812      282900
 7813              		.section	.rodata.str1.8
 7814 0526 0000     		.align 8
 7815              	.LC60:
 7816 0528 556E6861 		.string	"Unhandled exception in CHECK(file.is_open())"
 7816      6E646C65 
 7816      64206578 
 7816      63657074 
 7816      696F6E20 
 7817 0555 000000   		.align 8
 7818              	.LC61:
 7819 0558 556E6861 		.string	"Unhandled exception in CHECK_EQUAL(expected.size(), (unsigned int)length)"
 7819      6E646C65 
 7819      64206578 
 7819      63657074 
 7819      696F6E20 
 7820 05a2 00000000 		.align 8
 7820      0000
 7821              	.LC62:
 7822 05a8 556E6861 		.string	"Unhandled exception in CHECK_ARRAY_EQUAL(expected.c_str(), (const char *)fileData)"
 7822      6E646C65 
 7822      64206578 
 7822      63657074 
 7822      696F6E20 
 7823 05fb 00000000 		.align 8
 7823      00
 7824              	.LC63:
 7825 0600 556E6861 		.string	"Unhandled exception in CHECK_EQUAL(data.length, readbackData.length)"
 7825      6E646C65 
 7825      64206578 
 7825      63657074 
 7825      696F6E20 
 7826 0645 000000   		.align 8
 7827              	.LC64:
 7828 0648 556E6861 		.string	"Unhandled exception in CHECK_ARRAY_EQUAL(data.data, readbackData.data)"
 7828      6E646C65 
 7828      64206578 
 7828      63657074 
 7828      696F6E20 
 7829 068f 00       		.align 8
 7830              	.LC65:
 7831 0690 556E6861 		.string	"Unhandled exception in CHECK_EQUAL(mask.length, readbackMask.length)"
 7831      6E646C65 
 7831      64206578 
 7831      63657074 
 7831      696F6E20 
 7832 06d5 000000   		.align 8
 7833              	.LC66:
 7834 06d8 556E6861 		.string	"Unhandled exception in CHECK_ARRAY_EQUAL(mask.data, readbackMask.data)"
 7834      6E646C65 
 7834      64206578 
 7834      63657074 
 7834      696F6E20 
 7835              		.section	.text.unlikely
 7836              	.LCOLDB67:
 7837              		.text
 7838              	.LHOTB67:
 7839 1642 66662E0F 		.p2align 4
 7839      1F840000 
 7839      0000000F 
 7839      1F00
 7840              		.globl	_Z13testRoundTripPKcz
 7842              	_Z13testRoundTripPKcz:
 7843              	.LFB1351:
 7844              		.cfi_startproc
 7845              		.cfi_personality 0x9b,DW.ref.__gxx_personality_v0
 7846              		.cfi_lsda 0x1b,.LLSDA1351
 7847 1650 F30F1EFA 		endbr64
 7848 1654 55       		pushq	%rbp
 7849              		.cfi_def_cfa_offset 16
 7850              		.cfi_offset 6, -16
 7851 1655 4889E5   		movq	%rsp, %rbp
 7852              		.cfi_def_cfa_register 6
 7853 1658 4157     		pushq	%r15
 7854 165a 4156     		pushq	%r14
 7855 165c 4155     		pushq	%r13
 7856 165e 4154     		pushq	%r12
 7857 1660 53       		pushq	%rbx
 7858              		.cfi_offset 15, -24
 7859              		.cfi_offset 14, -32
 7860              		.cfi_offset 13, -40
 7861              		.cfi_offset 12, -48
 7862              		.cfi_offset 3, -56
 7863 1661 4889FB   		movq	%rdi, %rbx
 7864 1664 4881EC48 		subq	$1352, %rsp
 7864      050000
 7865 166b 488975A8 		movq	%rsi, -88(%rbp)
 7866 166f BE000400 		movl	$1024, %esi
 7866      00
 7867 1674 488955B0 		movq	%rdx, -80(%rbp)
 7868 1678 31D2     		xorl	%edx, %edx
 7869 167a 48894DB8 		movq	%rcx, -72(%rbp)
 7870 167e 31C9     		xorl	%ecx, %ecx
 7871 1680 4C8945C0 		movq	%r8, -64(%rbp)
 7872 1684 4C894DC8 		movq	%r9, -56(%rbp)
 7873 1688 64488B04 		movq	%fs:40, %rax
 7873      25280000 
 7873      00
 7874 1691 48894598 		movq	%rax, -104(%rbp)
 7875 1695 31C0     		xorl	%eax, %eax
 7876 1697 488D85E0 		leaq	-1056(%rbp), %rax
 7876      FBFFFF
 7877 169e C685E0FB 		movb	$0, -1056(%rbp)
 7877      FFFF00
 7878 16a5 488985E0 		movq	%rax, -1312(%rbp)
 7878      FAFFFF
 7879 16ac 488985D0 		movq	%rax, -1072(%rbp)
 7879      FBFFFF
 7880 16b3 488D8510 		leaq	-1264(%rbp), %rax
 7880      FBFFFF
 7881 16ba 4889C7   		movq	%rax, %rdi
 7882 16bd 488985F0 		movq	%rax, -1296(%rbp)
 7882      FAFFFF
 7883 16c4 48C785D8 		movq	$0, -1064(%rbp)
 7883      FBFFFF00 
 7883      000000
 7884 16cf C78508FB 		movl	$0, -1272(%rbp)
 7884      FFFF0000 
 7884      0000
 7885              	.LEHB266:
 7886 16d9 E8000000 		call	bufInitialise@PLT
 7886      00
 7887              	.LEHE266:
 7888 16de 898504FB 		movl	%eax, -1276(%rbp)
 7888      FFFF
 7889              	.LEHB267:
 7890 16e4 E8000000 		call	_ZN8UnitTest11CurrentTest7DetailsEv@PLT
 7890      00
 7891 16e9 4C8DB590 		leaq	-1136(%rbp), %r14
 7891      FBFFFF
 7892 16f0 488B30   		movq	(%rax), %rsi
 7893 16f3 BAC40000 		movl	$196, %edx
 7893      00
 7894 16f8 4C89F7   		movq	%r14, %rdi
 7895 16fb E8000000 		call	_ZN8UnitTest11TestDetailsC1ERKS0_i@PLT
 7895      00
 7896 1700 C78570FB 		movl	$0, -1168(%rbp)
 7896      FFFF0000 
 7896      0000
 7897 170a E8000000 		call	_ZN8UnitTest11CurrentTest7ResultsEv@PLT
 7897      00
 7898 170f 4C8DA570 		leaq	-1168(%rbp), %r12
 7898      FBFFFF
 7899 1716 488B38   		movq	(%rax), %rdi
 7900 1719 488D9504 		leaq	-1276(%rbp), %rdx
 7900      FBFFFF
 7901 1720 4C89F1   		movq	%r14, %rcx
 7902 1723 4C89E6   		movq	%r12, %rsi
 7903 1726 E8000000 		call	_ZN8UnitTest10CheckEqualI12BufferStatusS1_EEvRNS_11TestResultsERKT_RKT0_RKNS_11TestDetailsE
 7903      00
 7904              	.LEHE267:
 7905              	.L538:
 7906 172b 488D8530 		leaq	-1232(%rbp), %rax
 7906      FBFFFF
 7907 1732 31C9     		xorl	%ecx, %ecx
 7908 1734 31D2     		xorl	%edx, %edx
 7909 1736 BE000400 		movl	$1024, %esi
 7909      00
 7910 173b 4889C7   		movq	%rax, %rdi
 7911 173e 488985E8 		movq	%rax, -1304(%rbp)
 7911      FAFFFF
 7912              	.LEHB268:
 7913 1745 E8000000 		call	bufInitialise@PLT
 7913      00
 7914              	.LEHE268:
 7915 174a 898504FB 		movl	%eax, -1276(%rbp)
 7915      FFFF
 7916              	.LEHB269:
 7917 1750 E8000000 		call	_ZN8UnitTest11CurrentTest7DetailsEv@PLT
 7917      00
 7918 1755 488B30   		movq	(%rax), %rsi
 7919 1758 BAC60000 		movl	$198, %edx
 7919      00
 7920 175d 4C89F7   		movq	%r14, %rdi
 7921 1760 E8000000 		call	_ZN8UnitTest11TestDetailsC1ERKS0_i@PLT
 7921      00
 7922 1765 C78570FB 		movl	$0, -1168(%rbp)
 7922      FFFF0000 
 7922      0000
 7923 176f E8000000 		call	_ZN8UnitTest11CurrentTest7ResultsEv@PLT
 7923      00
 7924 1774 4C8DA570 		leaq	-1168(%rbp), %r12
 7924      FBFFFF
 7925 177b 488B38   		movq	(%rax), %rdi
 7926 177e 488D9504 		leaq	-1276(%rbp), %rdx
 7926      FBFFFF
 7927 1785 4C89F1   		movq	%r14, %rcx
 7928 1788 4C89E6   		movq	%r12, %rsi
 7929 178b E8000000 		call	_ZN8UnitTest10CheckEqualI12BufferStatusS1_EEvRNS_11TestResultsERKT_RKT0_RKNS_11TestDetailsE
 7929      00
 7930              	.LEHE269:
 7931              	.L541:
 7932 1790 488D4510 		leaq	16(%rbp), %rax
 7933 1794 4C8DAD08 		leaq	-1272(%rbp), %r13
 7933      FBFFFF
 7934 179b C785B8FB 		movl	$8, -1096(%rbp)
 7934      FFFF0800 
 7934      0000
 7935 17a5 488985C0 		movq	%rax, -1088(%rbp)
 7935      FBFFFF
 7936 17ac 488D45A0 		leaq	-96(%rbp), %rax
 7937 17b0 4C8DBD70 		leaq	-1168(%rbp), %r15
 7937      FBFFFF
 7938 17b7 488985C8 		movq	%rax, -1080(%rbp)
 7938      FBFFFF
 7939 17be 488D8503 		leaq	-1277(%rbp), %rax
 7939      FBFFFF
 7940 17c5 488985D8 		movq	%rax, -1320(%rbp)
 7940      FAFFFF
 7941 17cc 488D8504 		leaq	-1276(%rbp), %rax
 7941      FBFFFF
 7942 17d3 488985D0 		movq	%rax, -1328(%rbp)
 7942      FAFFFF
 7943 17da 660F1F44 		.p2align 4,,10
 7943      0000
 7944              		.p2align 3
 7945              	.L509:
 7946 17e0 4883EC08 		subq	$8, %rsp
 7947 17e4 4C8B8DD8 		movq	-1320(%rbp), %r9
 7947      FAFFFF
 7948 17eb 4D89E8   		movq	%r13, %r8
 7949 17ee 31F6     		xorl	%esi, %esi
 7950 17f0 6A00     		pushq	$0
 7951 17f2 488B8DE8 		movq	-1304(%rbp), %rcx
 7951      FAFFFF
 7952 17f9 4889DF   		movq	%rbx, %rdi
 7953 17fc 488B95F0 		movq	-1296(%rbp), %rdx
 7953      FAFFFF
 7954              	.LEHB270:
 7955              		.cfi_escape 0x2e,0x10
 7956 1803 E8000000 		call	bufProcessLine@PLT
 7956      00
 7957              	.LEHE270:
 7958 1808 59       		popq	%rcx
 7959 1809 5E       		popq	%rsi
 7960 180a 898504FB 		movl	%eax, -1276(%rbp)
 7960      FFFF
 7961              	.LEHB271:
 7962              		.cfi_escape 0x2e,0
 7963 1810 E8000000 		call	_ZN8UnitTest11CurrentTest7DetailsEv@PLT
 7963      00
 7964 1815 488B30   		movq	(%rax), %rsi
 7965 1818 BACB0000 		movl	$203, %edx
 7965      00
 7966 181d 4C89F7   		movq	%r14, %rdi
 7967 1820 E8000000 		call	_ZN8UnitTest11TestDetailsC1ERKS0_i@PLT
 7967      00
 7968 1825 C78570FB 		movl	$0, -1168(%rbp)
 7968      FFFF0000 
 7968      0000
 7969 182f E8000000 		call	_ZN8UnitTest11CurrentTest7ResultsEv@PLT
 7969      00
 7970 1834 488B95D0 		movq	-1328(%rbp), %rdx
 7970      FAFFFF
 7971 183b 488B38   		movq	(%rax), %rdi
 7972 183e 4C89F1   		movq	%r14, %rcx
 7973 1841 4C89FE   		movq	%r15, %rsi
 7974 1844 E8000000 		call	_ZN8UnitTest10CheckEqualI12BufferStatusS1_EEvRNS_11TestResultsERKT_RKT0_RKNS_11TestDetailsE
 7974      00
 7975              	.LEHE271:
 7976              	.L544:
 7977 1849 4889DF   		movq	%rbx, %rdi
 7978 184c E8000000 		call	strlen@PLT
 7978      00
 7979 1851 4889C2   		movq	%rax, %rdx
 7980 1854 48B8FFFF 		movabsq	$4611686018427387903, %rax
 7980      FFFFFFFF 
 7980      FF3F
 7981 185e 482B85D8 		subq	-1064(%rbp), %rax
 7981      FBFFFF
 7982 1865 4839C2   		cmpq	%rax, %rdx
 7983 1868 0F876009 		ja	.L634
 7983      0000
 7984 186e 4C8DA5D0 		leaq	-1072(%rbp), %r12
 7984      FBFFFF
 7985 1875 4889DE   		movq	%rbx, %rsi
 7986 1878 4C89E7   		movq	%r12, %rdi
 7987              	.LEHB272:
 7988 187b E8000000 		call	_ZNSt7__cxx1112basic_stringIcSt11char_traitsIcESaIcEE9_M_appendEPKcm@PLT
 7988      00
 7989 1880 488B9DD8 		movq	-1064(%rbp), %rbx
 7989      FBFFFF
 7990 1887 488B95D0 		movq	-1072(%rbp), %rdx
 7990      FBFFFF
 7991 188e B80F0000 		movl	$15, %eax
 7991      00
 7992 1893 483B95E0 		cmpq	-1312(%rbp), %rdx
 7992      FAFFFF
 7993 189a 480F4585 		cmovne	-1056(%rbp), %rax
 7993      E0FBFFFF 
 7994 18a2 488D4B01 		leaq	1(%rbx), %rcx
 7995 18a6 48898DF8 		movq	%rcx, -1288(%rbp)
 7995      FAFFFF
 7996 18ad 4839C1   		cmpq	%rax, %rcx
 7997 18b0 0F870A06 		ja	.L635
 7997      0000
 7998              	.L505:
 7999 18b6 488B85F8 		movq	-1288(%rbp), %rax
 7999      FAFFFF
 8000 18bd C6041A0A 		movb	$10, (%rdx,%rbx)
 8001 18c1 488985D8 		movq	%rax, -1064(%rbp)
 8001      FBFFFF
 8002 18c8 488B85D0 		movq	-1072(%rbp), %rax
 8002      FBFFFF
 8003 18cf C6441801 		movb	$0, 1(%rax,%rbx)
 8003      00
 8004 18d4 8B85B8FB 		movl	-1096(%rbp), %eax
 8004      FFFF
 8005 18da 83F82F   		cmpl	$47, %eax
 8006 18dd 0F87AD05 		ja	.L506
 8006      0000
 8007 18e3 89C2     		movl	%eax, %edx
 8008 18e5 83C008   		addl	$8, %eax
 8009 18e8 480395C8 		addq	-1080(%rbp), %rdx
 8009      FBFFFF
 8010 18ef 8985B8FB 		movl	%eax, -1096(%rbp)
 8010      FFFF
 8011 18f5 488B02   		movq	(%rdx), %rax
 8012 18f8 4889C3   		movq	%rax, %rbx
 8013 18fb 4885C0   		testq	%rax, %rax
 8014 18fe 0F85DCFE 		jne	.L509
 8014      FFFF
 8015              	.L508:
 8016 1904 48B8FFFF 		movabsq	$4611686018427387903, %rax
 8016      FFFFFFFF 
 8016      FF3F
 8017 190e 482B85D8 		subq	-1064(%rbp), %rax
 8017      FBFFFF
 8018 1915 4883F80B 		cmpq	$11, %rax
 8019 1919 0F86C008 		jbe	.L636
 8019      0000
 8020 191f BA0C0000 		movl	$12, %edx
 8020      00
 8021 1924 488D3500 		leaq	.LC33(%rip), %rsi
 8021      000000
 8022 192b 4C89E7   		movq	%r12, %rdi
 8023 192e E8000000 		call	_ZNSt7__cxx1112basic_stringIcSt11char_traitsIcESaIcEE9_M_appendEPKcm@PLT
 8023      00
 8024 1933 488BB5E8 		movq	-1304(%rbp), %rsi
 8024      FAFFFF
 8025 193a 488BBDF0 		movq	-1296(%rbp), %rdi
 8025      FAFFFF
 8026 1941 4531C9   		xorl	%r9d, %r9d
 8027 1944 4531C0   		xorl	%r8d, %r8d
 8028 1947 B9100000 		movl	$16, %ecx
 8028      00
 8029 194c 488D1500 		leaq	.LC58(%rip), %rdx
 8029      000000
 8030 1953 E8000000 		call	bufWriteToIntelHexFile@PLT
 8030      00
 8031              	.LEHE272:
 8032 1958 898504FB 		movl	%eax, -1276(%rbp)
 8032      FFFF
 8033              	.LEHB273:
 8034 195e E8000000 		call	_ZN8UnitTest11CurrentTest7DetailsEv@PLT
 8034      00
 8035 1963 488B30   		movq	(%rax), %rsi
 8036 1966 BAD30000 		movl	$211, %edx
 8036      00
 8037 196b 4C89F7   		movq	%r14, %rdi
 8038 196e E8000000 		call	_ZN8UnitTest11TestDetailsC1ERKS0_i@PLT
 8038      00
 8039 1973 C78570FB 		movl	$0, -1168(%rbp)
 8039      FFFF0000 
 8039      0000
 8040 197d E8000000 		call	_ZN8UnitTest11CurrentTest7ResultsEv@PLT
 8040      00
 8041 1982 4C8DA570 		leaq	-1168(%rbp), %r12
 8041      FBFFFF
 8042 1989 488B38   		movq	(%rax), %rdi
 8043 198c 488D9504 		leaq	-1276(%rbp), %rdx
 8043      FBFFFF
 8044 1993 4C89F1   		movq	%r14, %rcx
 8045 1996 4C89E6   		movq	%r12, %rsi
 8046 1999 E8000000 		call	_ZN8UnitTest10CheckEqualI12BufferStatusS1_EEvRNS_11TestResultsERKT_RKT0_RKNS_11TestDetailsE
 8046      00
 8047              	.LEHE273:
 8048              	.L547:
 8049 199e 4C8DAD90 		leaq	-368(%rbp), %r13
 8049      FEFFFF
 8050 19a5 4C8DBD90 		leaq	-624(%rbp), %r15
 8050      FDFFFF
 8051 19ac 4C89EF   		movq	%r13, %rdi
 8052 19af 4C89ADD8 		movq	%r13, -1320(%rbp)
 8052      FAFFFF
 8053 19b6 E8000000 		call	_ZNSt8ios_baseC2Ev@PLT
 8053      00
 8054 19bb 488D0500 		leaq	16+_ZTVSt9basic_iosIcSt11char_traitsIcEE(%rip), %rax
 8054      000000
 8055 19c2 31D2     		xorl	%edx, %edx
 8056 19c4 31F6     		xorl	%esi, %esi
 8057 19c6 48898590 		movq	%rax, -368(%rbp)
 8057      FEFFFF
 8058 19cd 488B0500 		movq	8+_ZTTSt14basic_ifstreamIcSt11char_traitsIcEE(%rip), %rax
 8058      000000
 8059 19d4 660FEFC0 		pxor	%xmm0, %xmm0
 8060 19d8 66899570 		movw	%dx, -144(%rbp)
 8060      FFFFFF
 8061 19df 488B1D00 		movq	16+_ZTTSt14basic_ifstreamIcSt11char_traitsIcEE(%rip), %rbx
 8061      000000
 8062 19e6 0F118578 		movups	%xmm0, -136(%rbp)
 8062      FFFFFF
 8063 19ed 0F114588 		movups	%xmm0, -120(%rbp)
 8064 19f1 48898590 		movq	%rax, -624(%rbp)
 8064      FDFFFF
 8065 19f8 488B40E8 		movq	-24(%rax), %rax
 8066 19fc 48C78568 		movq	$0, -152(%rbp)
 8066      FFFFFF00 
 8066      000000
 8067 1a07 48899C05 		movq	%rbx, -624(%rbp,%rax)
 8067      90FDFFFF 
 8068 1a0f 488B0500 		movq	8+_ZTTSt14basic_ifstreamIcSt11char_traitsIcEE(%rip), %rax
 8068      000000
 8069 1a16 48C78598 		movq	$0, -616(%rbp)
 8069      FDFFFF00 
 8069      000000
 8070 1a21 488B78E8 		movq	-24(%rax), %rdi
 8071 1a25 4C01FF   		addq	%r15, %rdi
 8072              	.LEHB274:
 8073 1a28 E8000000 		call	_ZNSt9basic_iosIcSt11char_traitsIcEE4initEPSt15basic_streambufIcS1_E@PLT
 8073      00
 8074              	.LEHE274:
 8075 1a2d 488D0500 		leaq	24+_ZTVSt14basic_ifstreamIcSt11char_traitsIcEE(%rip), %rax
 8075      000000
 8076 1a34 488D9DA0 		leaq	-608(%rbp), %rbx
 8076      FDFFFF
 8077 1a3b 48898590 		movq	%rax, -624(%rbp)
 8077      FDFFFF
 8078 1a42 4889DF   		movq	%rbx, %rdi
 8079 1a45 4883C028 		addq	$40, %rax
 8080 1a49 48898590 		movq	%rax, -368(%rbp)
 8080      FEFFFF
 8081              	.LEHB275:
 8082 1a50 E8000000 		call	_ZNSt13basic_filebufIcSt11char_traitsIcEEC1Ev@PLT
 8082      00
 8083              	.LEHE275:
 8084 1a55 4889DE   		movq	%rbx, %rsi
 8085 1a58 4C89EF   		movq	%r13, %rdi
 8086              	.LEHB276:
 8087 1a5b E8000000 		call	_ZNSt9basic_iosIcSt11char_traitsIcEE4initEPSt15basic_streambufIcS1_E@PLT
 8087      00
 8088              	.LEHE276:
 8089 1a60 BA0A0000 		movl	$10, %edx
 8089      00
 8090 1a65 488D3500 		leaq	.LC58(%rip), %rsi
 8090      000000
 8091 1a6c 4889DF   		movq	%rbx, %rdi
 8092              	.LEHB277:
 8093 1a6f E8000000 		call	_ZNSt13basic_filebufIcSt11char_traitsIcEE4openEPKcSt13_Ios_Openmode@PLT
 8093      00
 8094 1a74 488B9590 		movq	-624(%rbp), %rdx
 8094      FDFFFF
 8095 1a7b 488B7AE8 		movq	-24(%rdx), %rdi
 8096 1a7f 4C01FF   		addq	%r15, %rdi
 8097 1a82 4885C0   		testq	%rax, %rax
 8098 1a85 0F841507 		je	.L637
 8098      0000
 8099 1a8b 31F6     		xorl	%esi, %esi
 8100 1a8d E8000000 		call	_ZNSt9basic_iosIcSt11char_traitsIcEE5clearESt12_Ios_Iostate@PLT
 8100      00
 8101              	.L517:
 8102 1a92 488D8508 		leaq	-504(%rbp), %rax
 8102      FEFFFF
 8103 1a99 4889C7   		movq	%rax, %rdi
 8104 1a9c 488985D0 		movq	%rax, -1328(%rbp)
 8104      FAFFFF
 8105 1aa3 E8000000 		call	_ZNKSt12__basic_fileIcE7is_openEv@PLT
 8105      00
 8106 1aa8 84C0     		testb	%al, %al
 8107 1aaa 0F843804 		je	.L638
 8107      0000
 8108              	.L519:
 8109 1ab0 4C89FF   		movq	%r15, %rdi
 8110 1ab3 E8000000 		call	_ZNSi5tellgEv@PLT
 8110      00
 8111              	.LEHE277:
 8112 1ab8 4989C5   		movq	%rax, %r13
 8113              	.LEHB278:
 8114 1abb E8000000 		call	_ZN8UnitTest11CurrentTest7DetailsEv@PLT
 8114      00
 8115 1ac0 488B30   		movq	(%rax), %rsi
 8116 1ac3 BADA0000 		movl	$218, %edx
 8116      00
 8117 1ac8 4C89F7   		movq	%r14, %rdi
 8118 1acb E8000000 		call	_ZN8UnitTest11TestDetailsC1ERKS0_i@PLT
 8118      00
 8119 1ad0 4C8BA5D8 		movq	-1064(%rbp), %r12
 8119      FBFFFF
 8120 1ad7 4C89A5B8 		movq	%r12, -1352(%rbp)
 8120      FAFFFF
 8121 1ade E8000000 		call	_ZN8UnitTest11CurrentTest7ResultsEv@PLT
 8121      00
 8122              	.LEHE278:
 8123 1ae3 F30F7E0D 		movq	.LC2(%rip), %xmm1
 8123      00000000 
 8124 1aeb 488B00   		movq	(%rax), %rax
 8125 1aee 0F160D00 		movhps	.LC3(%rip), %xmm1
 8125      000000
 8126 1af5 488985C0 		movq	%rax, -1344(%rbp)
 8126      FAFFFF
 8127 1afc 4489E8   		movl	%r13d, %eax
 8128 1aff 488985F8 		movq	%rax, -1288(%rbp)
 8128      FAFFFF
 8129 1b06 0F298DA0 		movaps	%xmm1, -1376(%rbp)
 8129      FAFFFF
 8130 1b0d 4939C4   		cmpq	%rax, %r12
 8131 1b10 0F850A04 		jne	.L639
 8131      0000
 8132              	.L528:
 8133 1b16 488BBDF8 		movq	-1288(%rbp), %rdi
 8133      FAFFFF
 8134              	.LEHB279:
 8135 1b1d E8000000 		call	_Znam@PLT
 8135      00
 8136 1b22 31D2     		xorl	%edx, %edx
 8137 1b24 31F6     		xorl	%esi, %esi
 8138 1b26 4C89FF   		movq	%r15, %rdi
 8139 1b29 4989C4   		movq	%rax, %r12
 8140 1b2c E8000000 		call	_ZNSi5seekgElSt12_Ios_Seekdir@PLT
 8140      00
 8141 1b31 4C89EA   		movq	%r13, %rdx
 8142 1b34 4C89E6   		movq	%r12, %rsi
 8143 1b37 4C89FF   		movq	%r15, %rdi
 8144 1b3a E8000000 		call	_ZNSi4readEPcl@PLT
 8144      00
 8145 1b3f 4889DF   		movq	%rbx, %rdi
 8146 1b42 E8000000 		call	_ZNSt13basic_filebufIcSt11char_traitsIcEE5closeEv@PLT
 8146      00
 8147              	.LEHE279:
 8148 1b47 4885C0   		testq	%rax, %rax
 8149 1b4a 0F846006 		je	.L640
 8149      0000
 8150              	.L530:
 8151              	.LEHB280:
 8152 1b50 E8000000 		call	_ZN8UnitTest11CurrentTest7DetailsEv@PLT
 8152      00
 8153 1b55 488B30   		movq	(%rax), %rsi
 8154 1b58 BADF0000 		movl	$223, %edx
 8154      00
 8155 1b5d 4C89F7   		movq	%r14, %rdi
 8156 1b60 E8000000 		call	_ZN8UnitTest11TestDetailsC1ERKS0_i@PLT
 8156      00
 8157 1b65 488B85D0 		movq	-1072(%rbp), %rax
 8157      FBFFFF
 8158 1b6c 4C89A570 		movq	%r12, -1168(%rbp)
 8158      FBFFFF
 8159 1b73 48898550 		movq	%rax, -1200(%rbp)
 8159      FBFFFF
 8160 1b7a E8000000 		call	_ZN8UnitTest11CurrentTest7ResultsEv@PLT
 8160      00
 8161 1b7f 4C8DA570 		leaq	-1168(%rbp), %r12
 8161      FBFFFF
 8162 1b86 488B38   		movq	(%rax), %rdi
 8163 1b89 4D89F0   		movq	%r14, %r8
 8164 1b8c 4489E9   		movl	%r13d, %ecx
 8165 1b8f 488DB550 		leaq	-1200(%rbp), %rsi
 8165      FBFFFF
 8166 1b96 4C89E2   		movq	%r12, %rdx
 8167 1b99 4889B5F8 		movq	%rsi, -1288(%rbp)
 8167      FAFFFF
 8168 1ba0 E8000000 		call	_ZN8UnitTest15CheckArrayEqualIPKcS2_EEvRNS_11TestResultsERKT_RKT0_iRKNS_11TestDetailsE
 8168      00
 8169              	.LEHE280:
 8170              	.L556:
 8171 1ba5 488BBDF8 		movq	-1288(%rbp), %rdi
 8171      FAFFFF
 8172 1bac 31C9     		xorl	%ecx, %ecx
 8173 1bae 31D2     		xorl	%edx, %edx
 8174 1bb0 BE000400 		movl	$1024, %esi
 8174      00
 8175              	.LEHB281:
 8176 1bb5 E8000000 		call	bufInitialise@PLT
 8176      00
 8177              	.LEHE281:
 8178 1bba 898504FB 		movl	%eax, -1276(%rbp)
 8178      FFFF
 8179              	.LEHB282:
 8180 1bc0 E8000000 		call	_ZN8UnitTest11CurrentTest7DetailsEv@PLT
 8180      00
 8181 1bc5 488B30   		movq	(%rax), %rsi
 8182 1bc8 BAE20000 		movl	$226, %edx
 8182      00
 8183 1bcd 4C89F7   		movq	%r14, %rdi
 8184 1bd0 E8000000 		call	_ZN8UnitTest11TestDetailsC1ERKS0_i@PLT
 8184      00
 8185 1bd5 C78570FB 		movl	$0, -1168(%rbp)
 8185      FFFF0000 
 8185      0000
 8186 1bdf E8000000 		call	_ZN8UnitTest11CurrentTest7ResultsEv@PLT
 8186      00
 8187 1be4 4C8DA570 		leaq	-1168(%rbp), %r12
 8187      FBFFFF
 8188 1beb 488B38   		movq	(%rax), %rdi
 8189 1bee 488D9504 		leaq	-1276(%rbp), %rdx
 8189      FBFFFF
 8190 1bf5 4C89F1   		movq	%r14, %rcx
 8191 1bf8 4C89E6   		movq	%r12, %rsi
 8192 1bfb E8000000 		call	_ZN8UnitTest10CheckEqualI12BufferStatusS1_EEvRNS_11TestResultsERKT_RKT0_RKNS_11TestDetailsE
 8192      00
 8193              	.LEHE282:
 8194              	.L559:
 8195 1c00 31C9     		xorl	%ecx, %ecx
 8196 1c02 31D2     		xorl	%edx, %edx
 8197 1c04 BE000400 		movl	$1024, %esi
 8197      00
 8198 1c09 4C89E7   		movq	%r12, %rdi
 8199              	.LEHB283:
 8200 1c0c E8000000 		call	bufInitialise@PLT
 8200      00
 8201              	.LEHE283:
 8202 1c11 898504FB 		movl	%eax, -1276(%rbp)
 8202      FFFF
 8203              	.LEHB284:
 8204 1c17 E8000000 		call	_ZN8UnitTest11CurrentTest7DetailsEv@PLT
 8204      00
 8205 1c1c 488B30   		movq	(%rax), %rsi
 8206 1c1f BAE40000 		movl	$228, %edx
 8206      00
 8207 1c24 4C89F7   		movq	%r14, %rdi
 8208 1c27 E8000000 		call	_ZN8UnitTest11TestDetailsC1ERKS0_i@PLT
 8208      00
 8209 1c2c C7850CFB 		movl	$0, -1268(%rbp)
 8209      FFFF0000 
 8209      0000
 8210 1c36 E8000000 		call	_ZN8UnitTest11CurrentTest7ResultsEv@PLT
 8210      00
 8211 1c3b 488B38   		movq	(%rax), %rdi
 8212 1c3e 488D9504 		leaq	-1276(%rbp), %rdx
 8212      FBFFFF
 8213 1c45 488DB50C 		leaq	-1268(%rbp), %rsi
 8213      FBFFFF
 8214 1c4c 4C89F1   		movq	%r14, %rcx
 8215 1c4f E8000000 		call	_ZN8UnitTest10CheckEqualI12BufferStatusS1_EEvRNS_11TestResultsERKT_RKT0_RKNS_11TestDetailsE
 8215      00
 8216              	.LEHE284:
 8217              	.L562:
 8218 1c54 488BBDF8 		movq	-1288(%rbp), %rdi
 8218      FAFFFF
 8219 1c5b 31C9     		xorl	%ecx, %ecx
 8220 1c5d 488D1500 		leaq	.LC58(%rip), %rdx
 8220      000000
 8221 1c64 4C89E6   		movq	%r12, %rsi
 8222              	.LEHB285:
 8223 1c67 E8000000 		call	bufReadFromIntelHexFile@PLT
 8223      00
 8224              	.LEHE285:
 8225 1c6c 898504FB 		movl	%eax, -1276(%rbp)
 8225      FFFF
 8226              	.LEHB286:
 8227 1c72 E8000000 		call	_ZN8UnitTest11CurrentTest7DetailsEv@PLT
 8227      00
 8228 1c77 488B30   		movq	(%rax), %rsi
 8229 1c7a BAE60000 		movl	$230, %edx
 8229      00
 8230 1c7f 4C89F7   		movq	%r14, %rdi
 8231 1c82 E8000000 		call	_ZN8UnitTest11TestDetailsC1ERKS0_i@PLT
 8231      00
 8232 1c87 C7850CFB 		movl	$0, -1268(%rbp)
 8232      FFFF0000 
 8232      0000
 8233 1c91 E8000000 		call	_ZN8UnitTest11CurrentTest7ResultsEv@PLT
 8233      00
 8234 1c96 488B38   		movq	(%rax), %rdi
 8235 1c99 488D9504 		leaq	-1276(%rbp), %rdx
 8235      FBFFFF
 8236 1ca0 488DB50C 		leaq	-1268(%rbp), %rsi
 8236      FBFFFF
 8237 1ca7 4C89F1   		movq	%r14, %rcx
 8238 1caa E8000000 		call	_ZN8UnitTest10CheckEqualI12BufferStatusS1_EEvRNS_11TestResultsERKT_RKT0_RKNS_11TestDetailsE
 8238      00
 8239              	.LEHE286:
 8240              	.L565:
 8241              	.LEHB287:
 8242 1caf E8000000 		call	_ZN8UnitTest11CurrentTest7DetailsEv@PLT
 8242      00
 8243 1cb4 488B30   		movq	(%rax), %rsi
 8244 1cb7 BAE70000 		movl	$231, %edx
 8244      00
 8245 1cbc 4C89F7   		movq	%r14, %rdi
 8246 1cbf E8000000 		call	_ZN8UnitTest11TestDetailsC1ERKS0_i@PLT
 8246      00
 8247 1cc4 E8000000 		call	_ZN8UnitTest11CurrentTest7ResultsEv@PLT
 8247      00
 8248 1cc9 488B38   		movq	(%rax), %rdi
 8249 1ccc 488D9558 		leaq	-1192(%rbp), %rdx
 8249      FBFFFF
 8250 1cd3 488DB518 		leaq	-1256(%rbp), %rsi
 8250      FBFFFF
 8251 1cda 4C89F1   		movq	%r14, %rcx
 8252 1cdd E8000000 		call	_ZN8UnitTest10CheckEqualImmEEvRNS_11TestResultsERKT_RKT0_RKNS_11TestDetailsE
 8252      00
 8253              	.LEHE287:
 8254              	.L568:
 8255              	.LEHB288:
 8256 1ce2 E8000000 		call	_ZN8UnitTest11CurrentTest7DetailsEv@PLT
 8256      00
 8257 1ce7 488B30   		movq	(%rax), %rsi
 8258 1cea BAE80000 		movl	$232, %edx
 8258      00
 8259 1cef 4C89F7   		movq	%r14, %rdi
 8260 1cf2 E8000000 		call	_ZN8UnitTest11TestDetailsC1ERKS0_i@PLT
 8260      00
 8261 1cf7 448BAD18 		movl	-1256(%rbp), %r13d
 8261      FBFFFF
 8262 1cfe E8000000 		call	_ZN8UnitTest11CurrentTest7ResultsEv@PLT
 8262      00
 8263 1d03 488B95F8 		movq	-1288(%rbp), %rdx
 8263      FAFFFF
 8264 1d0a 488B38   		movq	(%rax), %rdi
 8265 1d0d 4D89F0   		movq	%r14, %r8
 8266 1d10 4489E9   		movl	%r13d, %ecx
 8267 1d13 488BB5F0 		movq	-1296(%rbp), %rsi
 8267      FAFFFF
 8268 1d1a E8000000 		call	_ZN8UnitTest15CheckArrayEqualIPhS1_EEvRNS_11TestResultsERKT_RKT0_iRKNS_11TestDetailsE
 8268      00
 8269              	.LEHE288:
 8270              	.L571:
 8271              	.LEHB289:
 8272 1d1f E8000000 		call	_ZN8UnitTest11CurrentTest7DetailsEv@PLT
 8272      00
 8273 1d24 488B30   		movq	(%rax), %rsi
 8274 1d27 BAE90000 		movl	$233, %edx
 8274      00
 8275 1d2c 4C89F7   		movq	%r14, %rdi
 8276 1d2f E8000000 		call	_ZN8UnitTest11TestDetailsC1ERKS0_i@PLT
 8276      00
 8277 1d34 E8000000 		call	_ZN8UnitTest11CurrentTest7ResultsEv@PLT
 8277      00
 8278 1d39 488B38   		movq	(%rax), %rdi
 8279 1d3c 488D9578 		leaq	-1160(%rbp), %rdx
 8279      FBFFFF
 8280 1d43 488DB538 		leaq	-1224(%rbp), %rsi
 8280      FBFFFF
 8281 1d4a 4C89F1   		movq	%r14, %rcx
 8282 1d4d E8000000 		call	_ZN8UnitTest10CheckEqualImmEEvRNS_11TestResultsERKT_RKT0_RKNS_11TestDetailsE
 8282      00
 8283              	.LEHE289:
 8284              	.L574:
 8285              	.LEHB290:
 8286 1d52 E8000000 		call	_ZN8UnitTest11CurrentTest7DetailsEv@PLT
 8286      00
 8287 1d57 488B30   		movq	(%rax), %rsi
 8288 1d5a BAEA0000 		movl	$234, %edx
 8288      00
 8289 1d5f 4C89F7   		movq	%r14, %rdi
 8290 1d62 E8000000 		call	_ZN8UnitTest11TestDetailsC1ERKS0_i@PLT
 8290      00
 8291 1d67 448BAD38 		movl	-1224(%rbp), %r13d
 8291      FBFFFF
 8292 1d6e E8000000 		call	_ZN8UnitTest11CurrentTest7ResultsEv@PLT
 8292      00
 8293 1d73 488BB5E8 		movq	-1304(%rbp), %rsi
 8293      FAFFFF
 8294 1d7a 488B38   		movq	(%rax), %rdi
 8295 1d7d 4D89F0   		movq	%r14, %r8
 8296 1d80 4489E9   		movl	%r13d, %ecx
 8297 1d83 4C89E2   		movq	%r12, %rdx
 8298 1d86 E8000000 		call	_ZN8UnitTest15CheckArrayEqualIPhS1_EEvRNS_11TestResultsERKT_RKT0_iRKNS_11TestDetailsE
 8298      00
 8299              	.LEHE290:
 8300              	.L577:
 8301 1d8b 4C89E7   		movq	%r12, %rdi
 8302              	.LEHB291:
 8303 1d8e E8000000 		call	bufDestroy@PLT
 8303      00
 8304 1d93 488BBDF8 		movq	-1288(%rbp), %rdi
 8304      FAFFFF
 8305 1d9a E8000000 		call	bufDestroy@PLT
 8305      00
 8306 1d9f 488BBDE8 		movq	-1304(%rbp), %rdi
 8306      FAFFFF
 8307 1da6 E8000000 		call	bufDestroy@PLT
 8307      00
 8308 1dab 488BBDF0 		movq	-1296(%rbp), %rdi
 8308      FAFFFF
 8309 1db2 E8000000 		call	bufDestroy@PLT
 8309      00
 8310              	.LEHE291:
 8311 1db7 488D0500 		leaq	24+_ZTVSt14basic_ifstreamIcSt11char_traitsIcEE(%rip), %rax
 8311      000000
 8312 1dbe 4889DF   		movq	%rbx, %rdi
 8313 1dc1 48898590 		movq	%rax, -624(%rbp)
 8313      FDFFFF
 8314 1dc8 4883C028 		addq	$40, %rax
 8315 1dcc 48898590 		movq	%rax, -368(%rbp)
 8315      FEFFFF
 8316 1dd3 488D0500 		leaq	16+_ZTVSt13basic_filebufIcSt11char_traitsIcEE(%rip), %rax
 8316      000000
 8317 1dda 488985A0 		movq	%rax, -608(%rbp)
 8317      FDFFFF
 8318              	.LEHB292:
 8319 1de1 E8000000 		call	_ZNSt13basic_filebufIcSt11char_traitsIcEE5closeEv@PLT
 8319      00
 8320              	.LEHE292:
 8321              	.L533:
 8322 1de6 488BBDD0 		movq	-1328(%rbp), %rdi
 8322      FAFFFF
 8323              	.LEHB293:
 8324 1ded E8000000 		call	_ZNSt12__basic_fileIcED1Ev@PLT
 8324      00
 8325              	.LEHE293:
 8326 1df2 488D0500 		leaq	16+_ZTVSt15basic_streambufIcSt11char_traitsIcEE(%rip), %rax
 8326      000000
 8327 1df9 488DBDD8 		leaq	-552(%rbp), %rdi
 8327      FDFFFF
 8328 1e00 488985A0 		movq	%rax, -608(%rbp)
 8328      FDFFFF
 8329 1e07 E8000000 		call	_ZNSt6localeD1Ev@PLT
 8329      00
 8330 1e0c 488B0500 		movq	8+_ZTTSt14basic_ifstreamIcSt11char_traitsIcEE(%rip), %rax
 8330      000000
 8331 1e13 488B1D00 		movq	16+_ZTTSt14basic_ifstreamIcSt11char_traitsIcEE(%rip), %rbx
 8331      000000
 8332 1e1a 488BBDD8 		movq	-1320(%rbp), %rdi
 8332      FAFFFF
 8333 1e21 48898590 		movq	%rax, -624(%rbp)
 8333      FDFFFF
 8334 1e28 488B40E8 		movq	-24(%rax), %rax
 8335 1e2c 48899C05 		movq	%rbx, -624(%rbp,%rax)
 8335      90FDFFFF 
 8336 1e34 488D0500 		leaq	16+_ZTVSt9basic_iosIcSt11char_traitsIcEE(%rip), %rax
 8336      000000
 8337 1e3b 48C78598 		movq	$0, -616(%rbp)
 8337      FDFFFF00 
 8337      000000
 8338 1e46 48898590 		movq	%rax, -368(%rbp)
 8338      FEFFFF
 8339              	.LEHB294:
 8340 1e4d E8000000 		call	_ZNSt8ios_baseD2Ev@PLT
 8340      00
 8341 1e52 488BBDD0 		movq	-1072(%rbp), %rdi
 8341      FBFFFF
 8342 1e59 483BBDE0 		cmpq	-1312(%rbp), %rdi
 8342      FAFFFF
 8343 1e60 7405     		je	.L502
 8344 1e62 E8000000 		call	_ZdlPv@PLT
 8344      00
 8345              	.L502:
 8346 1e67 488B4598 		movq	-104(%rbp), %rax
 8347 1e6b 64482B04 		subq	%fs:40, %rax
 8347      25280000 
 8347      00
 8348 1e74 0F856003 		jne	.L641
 8348      0000
 8349 1e7a 488D65D8 		leaq	-40(%rbp), %rsp
 8350 1e7e 5B       		popq	%rbx
 8351 1e7f 415C     		popq	%r12
 8352 1e81 415D     		popq	%r13
 8353 1e83 415E     		popq	%r14
 8354 1e85 415F     		popq	%r15
 8355 1e87 5D       		popq	%rbp
 8356              		.cfi_remember_state
 8357              		.cfi_def_cfa 7, 8
 8358 1e88 C3       		ret
 8359 1e89 0F1F8000 		.p2align 4,,10
 8359      000000
 8360              		.p2align 3
 8361              	.L506:
 8362              		.cfi_restore_state
 8363 1e90 488B85C0 		movq	-1088(%rbp), %rax
 8363      FBFFFF
 8364 1e97 488D5008 		leaq	8(%rax), %rdx
 8365 1e9b 488B00   		movq	(%rax), %rax
 8366 1e9e 488995C0 		movq	%rdx, -1088(%rbp)
 8366      FBFFFF
 8367 1ea5 4889C3   		movq	%rax, %rbx
 8368 1ea8 4885C0   		testq	%rax, %rax
 8369 1eab 0F852FF9 		jne	.L509
 8369      FFFF
 8370 1eb1 E94EFAFF 		jmp	.L508
 8370      FF
 8371 1eb6 662E0F1F 		.p2align 4,,10
 8371      84000000 
 8371      0000
 8372              		.p2align 3
 8373              	.L635:
 8374 1ec0 41B80100 		movl	$1, %r8d
 8374      0000
 8375 1ec6 31C9     		xorl	%ecx, %ecx
 8376 1ec8 31D2     		xorl	%edx, %edx
 8377 1eca 4889DE   		movq	%rbx, %rsi
 8378 1ecd 4C89E7   		movq	%r12, %rdi
 8379 1ed0 E8000000 		call	_ZNSt7__cxx1112basic_stringIcSt11char_traitsIcESaIcEE9_M_mutateEmmPKcm@PLT
 8379      00
 8380              	.LEHE294:
 8381 1ed5 488B95D0 		movq	-1072(%rbp), %rdx
 8381      FBFFFF
 8382 1edc E9D5F9FF 		jmp	.L505
 8382      FF
 8383              		.p2align 4,,10
 8384 1ee1 0F1F8000 		.p2align 3
 8384      000000
 8385              	.L638:
 8386              	.LEHB295:
 8387 1ee8 E8000000 		call	_ZN8UnitTest11CurrentTest7ResultsEv@PLT
 8387      00
 8388 1eed 4C8B28   		movq	(%rax), %r13
 8389 1ef0 E8000000 		call	_ZN8UnitTest11CurrentTest7DetailsEv@PLT
 8389      00
 8390 1ef5 488B30   		movq	(%rax), %rsi
 8391 1ef8 BAD80000 		movl	$216, %edx
 8391      00
 8392 1efd 4C89F7   		movq	%r14, %rdi
 8393 1f00 E8000000 		call	_ZN8UnitTest11TestDetailsC1ERKS0_i@PLT
 8393      00
 8394 1f05 488D1500 		leaq	.LC59(%rip), %rdx
 8394      000000
 8395 1f0c 4C89F6   		movq	%r14, %rsi
 8396 1f0f 4C89EF   		movq	%r13, %rdi
 8397 1f12 E8000000 		call	_ZN8UnitTest11TestResults13OnTestFailureERKNS_11TestDetailsEPKc@PLT
 8397      00
 8398              	.LEHE295:
 8399 1f17 E994FBFF 		jmp	.L519
 8399      FF
 8400 1f1c 0F1F4000 		.p2align 4,,10
 8401              		.p2align 3
 8402              	.L639:
 8403 1f20 4C8DA580 		leaq	-896(%rbp), %r12
 8403      FCFFFF
 8404 1f27 4C89E7   		movq	%r12, %rdi
 8405 1f2a 4C89A5B0 		movq	%r12, -1360(%rbp)
 8405      FAFFFF
 8406 1f31 E8000000 		call	_ZNSt8ios_baseC2Ev@PLT
 8406      00
 8407 1f36 31C0     		xorl	%eax, %eax
 8408 1f38 660FEFC0 		pxor	%xmm0, %xmm0
 8409 1f3c 31F6     		xorl	%esi, %esi
 8410 1f3e 66898560 		movw	%ax, -672(%rbp)
 8410      FDFFFF
 8411 1f45 488D0500 		leaq	24+_ZTCN8UnitTest15MemoryOutStreamE0_So(%rip), %rax
 8411      000000
 8412 1f4c 4C89E7   		movq	%r12, %rdi
 8413 1f4f 488985F0 		movq	%rax, -1040(%rbp)
 8413      FBFFFF
 8414 1f56 4883C028 		addq	$40, %rax
 8415 1f5a 48C78558 		movq	$0, -680(%rbp)
 8415      FDFFFF00 
 8415      000000
 8416 1f65 48898580 		movq	%rax, -896(%rbp)
 8416      FCFFFF
 8417 1f6c 0F118568 		movups	%xmm0, -664(%rbp)
 8417      FDFFFF
 8418 1f73 0F118578 		movups	%xmm0, -648(%rbp)
 8418      FDFFFF
 8419              	.LEHB296:
 8420 1f7a E8000000 		call	_ZNSt9basic_iosIcSt11char_traitsIcEE4initEPSt15basic_streambufIcS1_E@PLT
 8420      00
 8421              	.LEHE296:
 8422 1f7f 488D0500 		leaq	64+_ZTCN8UnitTest15MemoryOutStreamE0_NSt7__cxx1119basic_ostringstreamIcSt11char_traitsIcESaIc
 8422      000000
 8423 1f86 660F6F8D 		movdqa	-1376(%rbp), %xmm1
 8423      A0FAFFFF 
 8424 1f8e 660FEFC0 		pxor	%xmm0, %xmm0
 8425 1f92 4C8DA5F0 		leaq	-1040(%rbp), %r12
 8425      FBFFFF
 8426 1f99 48898580 		movq	%rax, -896(%rbp)
 8426      FCFFFF
 8427 1fa0 488D8530 		leaq	-976(%rbp), %rax
 8427      FCFFFF
 8428 1fa7 4889C7   		movq	%rax, %rdi
 8429 1faa 488985A0 		movq	%rax, -1376(%rbp)
 8429      FAFFFF
 8430 1fb1 0F298DF0 		movaps	%xmm1, -1040(%rbp)
 8430      FBFFFF
 8431 1fb8 0F298500 		movaps	%xmm0, -1024(%rbp)
 8431      FCFFFF
 8432 1fbf 0F298510 		movaps	%xmm0, -1008(%rbp)
 8432      FCFFFF
 8433 1fc6 0F298520 		movaps	%xmm0, -992(%rbp)
 8433      FCFFFF
 8434 1fcd E8000000 		call	_ZNSt6localeC1Ev@PLT
 8434      00
 8435 1fd2 488D0500 		leaq	16+_ZTVNSt7__cxx1115basic_stringbufIcSt11char_traitsIcESaIcEEE(%rip), %rax
 8435      000000
 8436 1fd9 48C78548 		movq	$0, -952(%rbp)
 8436      FCFFFF00 
 8436      000000
 8437 1fe4 488DB5F8 		leaq	-1032(%rbp), %rsi
 8437      FBFFFF
 8438 1feb 488985F8 		movq	%rax, -1032(%rbp)
 8438      FBFFFF
 8439 1ff2 488D8550 		leaq	-944(%rbp), %rax
 8439      FCFFFF
 8440 1ff9 48898598 		movq	%rax, -1384(%rbp)
 8440      FAFFFF
 8441 2000 48898540 		movq	%rax, -960(%rbp)
 8441      FCFFFF
 8442 2007 488B85F0 		movq	-1040(%rbp), %rax
 8442      FBFFFF
 8443 200e C68550FC 		movb	$0, -944(%rbp)
 8443      FFFF00
 8444 2015 488B78E8 		movq	-24(%rax), %rdi
 8445 2019 4889B590 		movq	%rsi, -1392(%rbp)
 8445      FAFFFF
 8446 2020 C78538FC 		movl	$16, -968(%rbp)
 8446      FFFF1000 
 8446      0000
 8447 202a 4C01E7   		addq	%r12, %rdi
 8448              	.LEHB297:
 8449 202d E8000000 		call	_ZNSt9basic_iosIcSt11char_traitsIcEE4initEPSt15basic_streambufIcS1_E@PLT
 8449      00
 8450              	.LEHE297:
 8451 2032 488D0500 		leaq	24+_ZTVN8UnitTest15MemoryOutStreamE(%rip), %rax
 8451      000000
 8452 2039 BA090000 		movl	$9, %edx
 8452      00
 8453 203e 4C89E7   		movq	%r12, %rdi
 8454 2041 48C78568 		movq	$0, -920(%rbp)
 8454      FCFFFF00 
 8454      000000
 8455 204c 488985F0 		movq	%rax, -1040(%rbp)
 8455      FBFFFF
 8456 2053 4883C028 		addq	$40, %rax
 8457 2057 488D3500 		leaq	.LC0(%rip), %rsi
 8457      000000
 8458 205e 48898580 		movq	%rax, -896(%rbp)
 8458      FCFFFF
 8459 2065 488D8570 		leaq	-912(%rbp), %rax
 8459      FCFFFF
 8460 206c 48898590 		movq	%rax, -1392(%rbp)
 8460      FAFFFF
 8461 2073 48898560 		movq	%rax, -928(%rbp)
 8461      FCFFFF
 8462 207a C68570FC 		movb	$0, -912(%rbp)
 8462      FFFF00
 8463              	.LEHB298:
 8464 2081 E8000000 		call	_ZSt16__ostream_insertIcSt11char_traitsIcEERSt13basic_ostreamIT_T0_ES6_PKS3_l@PLT
 8464      00
 8465 2086 488BB5B8 		movq	-1352(%rbp), %rsi
 8465      FAFFFF
 8466 208d 4C89E7   		movq	%r12, %rdi
 8467 2090 E8000000 		call	_ZNSo9_M_insertImEERSoT_@PLT
 8467      00
 8468 2095 BA090000 		movl	$9, %edx
 8468      00
 8469 209a 488D3500 		leaq	.LC1(%rip), %rsi
 8469      000000
 8470 20a1 4889C7   		movq	%rax, %rdi
 8471 20a4 488985B8 		movq	%rax, -1352(%rbp)
 8471      FAFFFF
 8472 20ab E8000000 		call	_ZSt16__ostream_insertIcSt11char_traitsIcEERSt13basic_ostreamIT_T0_ES6_PKS3_l@PLT
 8472      00
 8473 20b0 488BB5F8 		movq	-1288(%rbp), %rsi
 8473      FAFFFF
 8474 20b7 488BBDB8 		movq	-1352(%rbp), %rdi
 8474      FAFFFF
 8475 20be E8000000 		call	_ZNSo9_M_insertImEERSoT_@PLT
 8475      00
 8476 20c3 4C89E7   		movq	%r12, %rdi
 8477 20c6 E8000000 		call	_ZNK8UnitTest15MemoryOutStream7GetTextEv@PLT
 8477      00
 8478 20cb 488BBDC0 		movq	-1344(%rbp), %rdi
 8478      FAFFFF
 8479 20d2 4889C2   		movq	%rax, %rdx
 8480 20d5 4C89F6   		movq	%r14, %rsi
 8481 20d8 E8000000 		call	_ZN8UnitTest11TestResults13OnTestFailureERKNS_11TestDetailsEPKc@PLT
 8481      00
 8482              	.LEHE298:
 8483 20dd 488D0500 		leaq	24+_ZTVN8UnitTest15MemoryOutStreamE(%rip), %rax
 8483      000000
 8484 20e4 488BBD60 		movq	-928(%rbp), %rdi
 8484      FCFFFF
 8485 20eb F30F7E05 		movq	.LC2(%rip), %xmm0
 8485      00000000 
 8486 20f3 488985F0 		movq	%rax, -1040(%rbp)
 8486      FBFFFF
 8487 20fa 4883C028 		addq	$40, %rax
 8488 20fe 48898580 		movq	%rax, -896(%rbp)
 8488      FCFFFF
 8489 2105 0F160500 		movhps	.LC4(%rip), %xmm0
 8489      000000
 8490 210c 483BBD90 		cmpq	-1392(%rbp), %rdi
 8490      FAFFFF
 8491 2113 7414     		je	.L526
 8492 2115 0F2985C0 		movaps	%xmm0, -1344(%rbp)
 8492      FAFFFF
 8493 211c E8000000 		call	_ZdlPv@PLT
 8493      00
 8494 2121 660F6F85 		movdqa	-1344(%rbp), %xmm0
 8494      C0FAFFFF 
 8495              	.L526:
 8496 2129 488D0500 		leaq	64+_ZTCN8UnitTest15MemoryOutStreamE0_NSt7__cxx1119basic_ostringstreamIcSt11char_traitsIcESaIc
 8496      000000
 8497 2130 488BBD40 		movq	-960(%rbp), %rdi
 8497      FCFFFF
 8498 2137 0F2985F0 		movaps	%xmm0, -1040(%rbp)
 8498      FBFFFF
 8499 213e 48898580 		movq	%rax, -896(%rbp)
 8499      FCFFFF
 8500 2145 483BBD98 		cmpq	-1384(%rbp), %rdi
 8500      FAFFFF
 8501 214c 7405     		je	.L527
 8502 214e E8000000 		call	_ZdlPv@PLT
 8502      00
 8503              	.L527:
 8504 2153 488BBDA0 		movq	-1376(%rbp), %rdi
 8504      FAFFFF
 8505 215a 488D0500 		leaq	16+_ZTVSt15basic_streambufIcSt11char_traitsIcEE(%rip), %rax
 8505      000000
 8506 2161 488985F8 		movq	%rax, -1032(%rbp)
 8506      FBFFFF
 8507 2168 E8000000 		call	_ZNSt6localeD1Ev@PLT
 8507      00
 8508 216d 488D0500 		leaq	24+_ZTCN8UnitTest15MemoryOutStreamE0_So(%rip), %rax
 8508      000000
 8509 2174 488BBDB0 		movq	-1360(%rbp), %rdi
 8509      FAFFFF
 8510 217b 488985F0 		movq	%rax, -1040(%rbp)
 8510      FBFFFF
 8511 2182 488D0500 		leaq	16+_ZTVSt9basic_iosIcSt11char_traitsIcEE(%rip), %rax
 8511      000000
 8512 2189 48898580 		movq	%rax, -896(%rbp)
 8512      FCFFFF
 8513              	.LEHB299:
 8514 2190 E8000000 		call	_ZNSt8ios_baseD2Ev@PLT
 8514      00
 8515              	.LEHE299:
 8516 2195 E97CF9FF 		jmp	.L528
 8516      FF
 8517 219a 660F1F44 		.p2align 4,,10
 8517      0000
 8518              		.p2align 3
 8519              	.L637:
 8520 21a0 8B7720   		movl	32(%rdi), %esi
 8521 21a3 83CE04   		orl	$4, %esi
 8522              	.LEHB300:
 8523 21a6 E8000000 		call	_ZNSt9basic_iosIcSt11char_traitsIcEE5clearESt12_Ios_Iostate@PLT
 8523      00
 8524 21ab E9E2F8FF 		jmp	.L517
 8524      FF
 8525              		.p2align 4,,10
 8526              		.p2align 3
 8527              	.L640:
 8528 21b0 488B8590 		movq	-624(%rbp), %rax
 8528      FDFFFF
 8529 21b7 488B78E8 		movq	-24(%rax), %rdi
 8530 21bb 4C01FF   		addq	%r15, %rdi
 8531 21be 8B7720   		movl	32(%rdi), %esi
 8532 21c1 83CE04   		orl	$4, %esi
 8533 21c4 E8000000 		call	_ZNSt9basic_iosIcSt11char_traitsIcEE5clearESt12_Ios_Iostate@PLT
 8533      00
 8534              	.LEHE300:
 8535 21c9 E982F9FF 		jmp	.L530
 8535      FF
 8536              	.L634:
 8537 21ce 488D3D00 		leaq	.LC57(%rip), %rdi
 8537      000000
 8538              	.LEHB301:
 8539 21d5 E8000000 		call	_ZSt20__throw_length_errorPKc@PLT
 8539      00
 8540              	.L641:
 8541 21da E8000000 		call	__stack_chk_fail@PLT
 8541      00
 8542              	.L636:
 8543 21df 488D3D00 		leaq	.LC57(%rip), %rdi
 8543      000000
 8544 21e6 E8000000 		call	_ZSt20__throw_length_errorPKc@PLT
 8544      00
 8545              	.LEHE301:
 8546              	.L624:
 8547 21eb F30F1EFA 		endbr64
 8548 21ef E9000000 		jmp	.L625
 8548      00
 8549              	.L620:
 8550 21f4 F30F1EFA 		endbr64
 8551 21f8 4889C7   		movq	%rax, %rdi
 8552 21fb E9000000 		jmp	.L532
 8552      00
 8553              	.L610:
 8554 2200 F30F1EFA 		endbr64
 8555 2204 4889C7   		movq	%rax, %rdi
 8556 2207 E9000000 		jmp	.L576
 8556      00
 8557              	.L608:
 8558 220c F30F1EFA 		endbr64
 8559 2210 4889C7   		movq	%rax, %rdi
 8560 2213 E9000000 		jmp	.L573
 8560      00
 8561              	.L606:
 8562 2218 F30F1EFA 		endbr64
 8563 221c 4889C7   		movq	%rax, %rdi
 8564 221f E9000000 		jmp	.L570
 8564      00
 8565              	.L594:
 8566 2224 F30F1EFA 		endbr64
 8567 2228 4889C7   		movq	%rax, %rdi
 8568 222b E9000000 		jmp	.L525
 8568      00
 8569              	.L602:
 8570 2230 F30F1EFA 		endbr64
 8571 2234 4889C7   		movq	%rax, %rdi
 8572 2237 E9000000 		jmp	.L564
 8572      00
 8573              	.L600:
 8574 223c F30F1EFA 		endbr64
 8575 2240 4889C7   		movq	%rax, %rdi
 8576 2243 E9000000 		jmp	.L561
 8576      00
 8577              	.L618:
 8578 2248 F30F1EFA 		endbr64
 8579 224c 4889C3   		movq	%rax, %rbx
 8580 224f E9000000 		jmp	.L535
 8580      00
 8581              	.L583:
 8582 2254 F30F1EFA 		endbr64
 8583 2258 4889C7   		movq	%rax, %rdi
 8584 225b E9000000 		jmp	.L537
 8584      00
 8585              	.L589:
 8586 2260 F30F1EFA 		endbr64
 8587 2264 4889C7   		movq	%rax, %rdi
 8588 2267 E9000000 		jmp	.L546
 8588      00
 8589              	.L592:
 8590 226c F30F1EFA 		endbr64
 8591 2270 4889C7   		movq	%rax, %rdi
 8592 2273 E9000000 		jmp	.L549
 8592      00
 8593              	.L585:
 8594 2278 F30F1EFA 		endbr64
 8595 227c 4889C7   		movq	%rax, %rdi
 8596 227f E9000000 		jmp	.L540
 8596      00
 8597              	.L614:
 8598 2284 F30F1EFA 		endbr64
 8599 2288 4989C7   		movq	%rax, %r15
 8600 228b E9000000 		jmp	.L512
 8600      00
 8601              	.L613:
 8602 2290 F30F1EFA 		endbr64
 8603 2294 4889C3   		movq	%rax, %rbx
 8604 2297 E9000000 		jmp	.L513
 8604      00
 8605              	.L612:
 8606 229c F30F1EFA 		endbr64
 8607 22a0 4889C3   		movq	%rax, %rbx
 8608 22a3 E9000000 		jmp	.L514
 8608      00
 8609              	.L598:
 8610 22a8 F30F1EFA 		endbr64
 8611 22ac 4889C7   		movq	%rax, %rdi
 8612 22af E9000000 		jmp	.L558
 8612      00
 8613              	.L596:
 8614 22b4 F30F1EFA 		endbr64
 8615 22b8 4889C7   		movq	%rax, %rdi
 8616 22bb E9000000 		jmp	.L555
 8616      00
 8617              	.L616:
 8618 22c0 F30F1EFA 		endbr64
 8619 22c4 4989C4   		movq	%rax, %r12
 8620 22c7 E9000000 		jmp	.L523
 8620      00
 8621              	.L617:
 8622 22cc F30F1EFA 		endbr64
 8623 22d0 4989C4   		movq	%rax, %r12
 8624 22d3 E9000000 		jmp	.L522
 8624      00
 8625              	.L604:
 8626 22d8 F30F1EFA 		endbr64
 8627 22dc 4889C7   		movq	%rax, %rdi
 8628 22df E9000000 		jmp	.L567
 8628      00
 8629              	.L615:
 8630 22e4 F30F1EFA 		endbr64
 8631 22e8 488985F8 		movq	%rax, -1288(%rbp)
 8631      FAFFFF
 8632 22ef E9000000 		jmp	.L529
 8632      00
 8633              	.L626:
 8634 22f4 F30F1EFA 		endbr64
 8635 22f8 E9000000 		jmp	.L627
 8635      00
 8636              	.L587:
 8637 22fd F30F1EFA 		endbr64
 8638 2301 4889C7   		movq	%rax, %rdi
 8639 2304 E9000000 		jmp	.L543
 8639      00
 8640              		.section	.gcc_except_table
 8641              		.align 4
 8642              	.LLSDA1351:
 8643 05d4 FF       		.byte	0xff
 8644 05d5 9B       		.byte	0x9b
 8645 05d6 E401     		.uleb128 .LLSDATT1351-.LLSDATTD1351
 8646              	.LLSDATTD1351:
 8647 05d8 01       		.byte	0x1
 8648 05d9 DA01     		.uleb128 .LLSDACSE1351-.LLSDACSB1351
 8649              	.LLSDACSB1351:
 8650 05db 8901     		.uleb128 .LEHB266-.LFB1351
 8651 05dd 05       		.uleb128 .LEHE266-.LEHB266
 8652 05de 9B17     		.uleb128 .L624-.LFB1351
 8653 05e0 00       		.uleb128 0
 8654 05e1 9401     		.uleb128 .LEHB267-.LFB1351
 8655 05e3 47       		.uleb128 .LEHE267-.LEHB267
 8656 05e4 8418     		.uleb128 .L583-.LFB1351
 8657 05e6 01       		.uleb128 0x1
 8658 05e7 F501     		.uleb128 .LEHB268-.LFB1351
 8659 05e9 05       		.uleb128 .LEHE268-.LEHB268
 8660 05ea 9B17     		.uleb128 .L624-.LFB1351
 8661 05ec 00       		.uleb128 0
 8662 05ed 8002     		.uleb128 .LEHB269-.LFB1351
 8663 05ef 40       		.uleb128 .LEHE269-.LEHB269
 8664 05f0 A818     		.uleb128 .L585-.LFB1351
 8665 05f2 01       		.uleb128 0x1
 8666 05f3 B303     		.uleb128 .LEHB270-.LFB1351
 8667 05f5 05       		.uleb128 .LEHE270-.LEHB270
 8668 05f6 9B17     		.uleb128 .L624-.LFB1351
 8669 05f8 00       		.uleb128 0
 8670 05f9 C003     		.uleb128 .LEHB271-.LFB1351
 8671 05fb 39       		.uleb128 .LEHE271-.LEHB271
 8672 05fc AD19     		.uleb128 .L587-.LFB1351
 8673 05fe 01       		.uleb128 0x1
 8674 05ff AB04     		.uleb128 .LEHB272-.LFB1351
 8675 0601 DD01     		.uleb128 .LEHE272-.LEHB272
 8676 0603 9B17     		.uleb128 .L624-.LFB1351
 8677 0605 00       		.uleb128 0
 8678 0606 8E06     		.uleb128 .LEHB273-.LFB1351
 8679 0608 40       		.uleb128 .LEHE273-.LEHB273
 8680 0609 9018     		.uleb128 .L589-.LFB1351
 8681 060b 01       		.uleb128 0x1
 8682 060c D807     		.uleb128 .LEHB274-.LFB1351
 8683 060e 05       		.uleb128 .LEHE274-.LEHB274
 8684 060f CC18     		.uleb128 .L612-.LFB1351
 8685 0611 00       		.uleb128 0
 8686 0612 8008     		.uleb128 .LEHB275-.LFB1351
 8687 0614 05       		.uleb128 .LEHE275-.LEHB275
 8688 0615 C018     		.uleb128 .L613-.LFB1351
 8689 0617 00       		.uleb128 0
 8690 0618 8B08     		.uleb128 .LEHB276-.LFB1351
 8691 061a 05       		.uleb128 .LEHE276-.LEHB276
 8692 061b B418     		.uleb128 .L614-.LFB1351
 8693 061d 00       		.uleb128 0
 8694 061e 9F08     		.uleb128 .LEHB277-.LFB1351
 8695 0620 49       		.uleb128 .LEHE277-.LEHB277
 8696 0621 A419     		.uleb128 .L626-.LFB1351
 8697 0623 00       		.uleb128 0
 8698 0624 EB08     		.uleb128 .LEHB278-.LFB1351
 8699 0626 28       		.uleb128 .LEHE278-.LEHB278
 8700 0627 D417     		.uleb128 .L594-.LFB1351
 8701 0629 01       		.uleb128 0x1
 8702 062a CD09     		.uleb128 .LEHB279-.LFB1351
 8703 062c 2A       		.uleb128 .LEHE279-.LEHB279
 8704 062d A419     		.uleb128 .L626-.LFB1351
 8705 062f 00       		.uleb128 0
 8706 0630 800A     		.uleb128 .LEHB280-.LFB1351
 8707 0632 55       		.uleb128 .LEHE280-.LEHB280
 8708 0633 E418     		.uleb128 .L596-.LFB1351
 8709 0635 01       		.uleb128 0x1
 8710 0636 E50A     		.uleb128 .LEHB281-.LFB1351
 8711 0638 05       		.uleb128 .LEHE281-.LEHB281
 8712 0639 A419     		.uleb128 .L626-.LFB1351
 8713 063b 00       		.uleb128 0
 8714 063c F00A     		.uleb128 .LEHB282-.LFB1351
 8715 063e 40       		.uleb128 .LEHE282-.LEHB282
 8716 063f D818     		.uleb128 .L598-.LFB1351
 8717 0641 01       		.uleb128 0x1
 8718 0642 BC0B     		.uleb128 .LEHB283-.LFB1351
 8719 0644 05       		.uleb128 .LEHE283-.LEHB283
 8720 0645 A419     		.uleb128 .L626-.LFB1351
 8721 0647 00       		.uleb128 0
 8722 0648 C70B     		.uleb128 .LEHB284-.LFB1351
 8723 064a 3D       		.uleb128 .LEHE284-.LEHB284
 8724 064b EC17     		.uleb128 .L600-.LFB1351
 8725 064d 01       		.uleb128 0x1
 8726 064e 970C     		.uleb128 .LEHB285-.LFB1351
 8727 0650 05       		.uleb128 .LEHE285-.LEHB285
 8728 0651 A419     		.uleb128 .L626-.LFB1351
 8729 0653 00       		.uleb128 0
 8730 0654 A20C     		.uleb128 .LEHB286-.LFB1351
 8731 0656 3D       		.uleb128 .LEHE286-.LEHB286
 8732 0657 E017     		.uleb128 .L602-.LFB1351
 8733 0659 01       		.uleb128 0x1
 8734 065a DF0C     		.uleb128 .LEHB287-.LFB1351
 8735 065c 33       		.uleb128 .LEHE287-.LEHB287
 8736 065d 8819     		.uleb128 .L604-.LFB1351
 8737 065f 01       		.uleb128 0x1
 8738 0660 920D     		.uleb128 .LEHB288-.LFB1351
 8739 0662 3D       		.uleb128 .LEHE288-.LEHB288
 8740 0663 C817     		.uleb128 .L606-.LFB1351
 8741 0665 01       		.uleb128 0x1
 8742 0666 CF0D     		.uleb128 .LEHB289-.LFB1351
 8743 0668 33       		.uleb128 .LEHE289-.LEHB289
 8744 0669 BC17     		.uleb128 .L608-.LFB1351
 8745 066b 01       		.uleb128 0x1
 8746 066c 820E     		.uleb128 .LEHB290-.LFB1351
 8747 066e 39       		.uleb128 .LEHE290-.LEHB290
 8748 066f B017     		.uleb128 .L610-.LFB1351
 8749 0671 01       		.uleb128 0x1
 8750 0672 BE0E     		.uleb128 .LEHB291-.LFB1351
 8751 0674 29       		.uleb128 .LEHE291-.LEHB291
 8752 0675 A419     		.uleb128 .L626-.LFB1351
 8753 0677 00       		.uleb128 0
 8754 0678 910F     		.uleb128 .LEHB292-.LFB1351
 8755 067a 05       		.uleb128 .LEHE292-.LEHB292
 8756 067b A417     		.uleb128 .L620-.LFB1351
 8757 067d 01       		.uleb128 0x1
 8758 067e 9D0F     		.uleb128 .LEHB293-.LFB1351
 8759 0680 05       		.uleb128 .LEHE293-.LEHB293
 8760 0681 F817     		.uleb128 .L618-.LFB1351
 8761 0683 00       		.uleb128 0
 8762 0684 FD0F     		.uleb128 .LEHB294-.LFB1351
 8763 0686 8801     		.uleb128 .LEHE294-.LEHB294
 8764 0688 9B17     		.uleb128 .L624-.LFB1351
 8765 068a 00       		.uleb128 0
 8766 068b 9811     		.uleb128 .LEHB295-.LFB1351
 8767 068d 2F       		.uleb128 .LEHE295-.LEHB295
 8768 068e 9C18     		.uleb128 .L592-.LFB1351
 8769 0690 01       		.uleb128 0x1
 8770 0691 AA12     		.uleb128 .LEHB296-.LFB1351
 8771 0693 05       		.uleb128 .LEHE296-.LEHB296
 8772 0694 F018     		.uleb128 .L616-.LFB1351
 8773 0696 01       		.uleb128 0x1
 8774 0697 DD13     		.uleb128 .LEHB297-.LFB1351
 8775 0699 05       		.uleb128 .LEHE297-.LEHB297
 8776 069a FC18     		.uleb128 .L617-.LFB1351
 8777 069c 01       		.uleb128 0x1
 8778 069d B114     		.uleb128 .LEHB298-.LFB1351
 8779 069f 5C       		.uleb128 .LEHE298-.LEHB298
 8780 06a0 9419     		.uleb128 .L615-.LFB1351
 8781 06a2 01       		.uleb128 0x1
 8782 06a3 C016     		.uleb128 .LEHB299-.LFB1351
 8783 06a5 05       		.uleb128 .LEHE299-.LEHB299
 8784 06a6 D417     		.uleb128 .L594-.LFB1351
 8785 06a8 01       		.uleb128 0x1
 8786 06a9 D616     		.uleb128 .LEHB300-.LFB1351
 8787 06ab 23       		.uleb128 .LEHE300-.LEHB300
 8788 06ac A419     		.uleb128 .L626-.LFB1351
 8789 06ae 00       		.uleb128 0
 8790 06af 8517     		.uleb128 .LEHB301-.LFB1351
 8791 06b1 16       		.uleb128 .LEHE301-.LEHB301
 8792 06b2 9B17     		.uleb128 .L624-.LFB1351
 8793 06b4 00       		.uleb128 0
 8794              	.LLSDACSE1351:
 8795 06b5 01       		.byte	0x1
 8796 06b6 00       		.byte	0
 8797 06b7 00       		.align 4
 8798 06b8 00000000 		.long	0
 8799              	
 8800              	.LLSDATT1351:
 8801              		.text
 8802              		.cfi_endproc
 8803              		.section	.text.unlikely
 8804              		.cfi_startproc
 8805              		.cfi_personality 0x9b,DW.ref.__gxx_personality_v0
 8806              		.cfi_lsda 0x1b,.LLSDAC1351
 8808              	_Z13testRoundTripPKcz.cold:
 8809              	.LFSB1351:
 8810 0d1b 90       		nop
 8811              	.L582:
 8812              		.cfi_def_cfa 6, 16
 8813              		.cfi_offset 3, -56
 8814              		.cfi_offset 6, -16
 8815              		.cfi_offset 12, -48
 8816              		.cfi_offset 13, -40
 8817              		.cfi_offset 14, -32
 8818              		.cfi_offset 15, -24
 8819 0d1c F30F1EFA 		endbr64
 8820              	.L625:
 8821 0d20 4889C3   		movq	%rax, %rbx
 8822              	.L515:
 8823 0d23 488BBDD0 		movq	-1072(%rbp), %rdi
 8823      FBFFFF
 8824 0d2a 483BBDE0 		cmpq	-1312(%rbp), %rdi
 8824      FAFFFF
 8825 0d31 7405     		je	.L579
 8826 0d33 E8000000 		call	_ZdlPv@PLT
 8826      00
 8827              	.L579:
 8828 0d38 4889DF   		movq	%rbx, %rdi
 8829              	.LEHB302:
 8830 0d3b E8000000 		call	_Unwind_Resume@PLT
 8830      00
 8831              	.LEHE302:
 8832              	.L532:
 8833 0d40 E8000000 		call	__cxa_begin_catch@PLT
 8833      00
 8834              	.LEHB303:
 8835 0d45 E8000000 		call	__cxa_end_catch@PLT
 8835      00
 8836              	.LEHE303:
 8837 0d4a E9000000 		jmp	.L533
 8837      00
 8838              	.L619:
 8839 0d4f F30F1EFA 		endbr64
 8840 0d53 488BBDD0 		movq	-1328(%rbp), %rdi
 8840      FAFFFF
 8841 0d5a 4889C3   		movq	%rax, %rbx
 8842 0d5d E8000000 		call	_ZNSt12__basic_fileIcED1Ev@PLT
 8842      00
 8843              	.L535:
 8844 0d62 488D0500 		leaq	16+_ZTVSt15basic_streambufIcSt11char_traitsIcEE(%rip), %rax
 8844      000000
 8845 0d69 488DBDD8 		leaq	-552(%rbp), %rdi
 8845      FDFFFF
 8846 0d70 488985A0 		movq	%rax, -608(%rbp)
 8846      FDFFFF
 8847 0d77 E8000000 		call	_ZNSt6localeD1Ev@PLT
 8847      00
 8848 0d7c 488B0500 		movq	8+_ZTTSt14basic_ifstreamIcSt11char_traitsIcEE(%rip), %rax
 8848      000000
 8849 0d83 488B3500 		movq	16+_ZTTSt14basic_ifstreamIcSt11char_traitsIcEE(%rip), %rsi
 8849      000000
 8850 0d8a 488BBDD8 		movq	-1320(%rbp), %rdi
 8850      FAFFFF
 8851 0d91 48898590 		movq	%rax, -624(%rbp)
 8851      FDFFFF
 8852 0d98 488B40E8 		movq	-24(%rax), %rax
 8853 0d9c 4889B405 		movq	%rsi, -624(%rbp,%rax)
 8853      90FDFFFF 
 8854 0da4 488D0500 		leaq	16+_ZTVSt9basic_iosIcSt11char_traitsIcEE(%rip), %rax
 8854      000000
 8855 0dab 48C78598 		movq	$0, -616(%rbp)
 8855      FDFFFF00 
 8855      000000
 8856 0db6 48898590 		movq	%rax, -368(%rbp)
 8856      FEFFFF
 8857 0dbd E8000000 		call	_ZNSt8ios_baseD2Ev@PLT
 8857      00
 8858 0dc2 E95CFFFF 		jmp	.L515
 8858      FF
 8859              	.L576:
 8860 0dc7 E8000000 		call	__cxa_begin_catch@PLT
 8860      00
 8861              	.LEHB304:
 8862 0dcc E8000000 		call	_ZN8UnitTest11CurrentTest7ResultsEv@PLT
 8862      00
 8863 0dd1 4C8B28   		movq	(%rax), %r13
 8864 0dd4 E8000000 		call	_ZN8UnitTest11CurrentTest7DetailsEv@PLT
 8864      00
 8865 0dd9 488B30   		movq	(%rax), %rsi
 8866 0ddc BAEA0000 		movl	$234, %edx
 8866      00
 8867 0de1 4C89F7   		movq	%r14, %rdi
 8868 0de4 E8000000 		call	_ZN8UnitTest11TestDetailsC1ERKS0_i@PLT
 8868      00
 8869 0de9 488D1500 		leaq	.LC66(%rip), %rdx
 8869      000000
 8870 0df0 4C89F6   		movq	%r14, %rsi
 8871 0df3 4C89EF   		movq	%r13, %rdi
 8872 0df6 E8000000 		call	_ZN8UnitTest11TestResults13OnTestFailureERKNS_11TestDetailsEPKc@PLT
 8872      00
 8873              	.LEHE304:
 8874              	.LEHB305:
 8875 0dfb E8000000 		call	__cxa_end_catch@PLT
 8875      00
 8876              	.LEHE305:
 8877 0e00 E9000000 		jmp	.L577
 8877      00
 8878              	.L573:
 8879 0e05 E8000000 		call	__cxa_begin_catch@PLT
 8879      00
 8880              	.LEHB306:
 8881 0e0a E8000000 		call	_ZN8UnitTest11CurrentTest7ResultsEv@PLT
 8881      00
 8882 0e0f 4C8B28   		movq	(%rax), %r13
 8883 0e12 E8000000 		call	_ZN8UnitTest11CurrentTest7DetailsEv@PLT
 8883      00
 8884 0e17 488B30   		movq	(%rax), %rsi
 8885 0e1a BAE90000 		movl	$233, %edx
 8885      00
 8886 0e1f 4C89F7   		movq	%r14, %rdi
 8887 0e22 E8000000 		call	_ZN8UnitTest11TestDetailsC1ERKS0_i@PLT
 8887      00
 8888 0e27 488D1500 		leaq	.LC65(%rip), %rdx
 8888      000000
 8889 0e2e 4C89F6   		movq	%r14, %rsi
 8890 0e31 4C89EF   		movq	%r13, %rdi
 8891 0e34 E8000000 		call	_ZN8UnitTest11TestResults13OnTestFailureERKNS_11TestDetailsEPKc@PLT
 8891      00
 8892              	.LEHE306:
 8893              	.LEHB307:
 8894 0e39 E8000000 		call	__cxa_end_catch@PLT
 8894      00
 8895              	.LEHE307:
 8896 0e3e E9000000 		jmp	.L574
 8896      00
 8897              	.L591:
 8898 0e43 F30F1EFA 		endbr64
 8899              	.L627:
 8900 0e47 4889C3   		movq	%rax, %rbx
 8901 0e4a EB0C     		jmp	.L552
 8902              	.L611:
 8903 0e4c F30F1EFA 		endbr64
 8904 0e50 4889C3   		movq	%rax, %rbx
 8905 0e53 E8000000 		call	__cxa_end_catch@PLT
 8905      00
 8906              	.L552:
 8907 0e58 4C89FF   		movq	%r15, %rdi
 8908 0e5b E8000000 		call	_ZNSt14basic_ifstreamIcSt11char_traitsIcEED1Ev@PLT
 8908      00
 8909 0e60 E9BEFEFF 		jmp	.L515
 8909      FF
 8910              	.L609:
 8911 0e65 F30F1EFA 		endbr64
 8912 0e69 4889C3   		movq	%rax, %rbx
 8913 0e6c E8000000 		call	__cxa_end_catch@PLT
 8913      00
 8914 0e71 EBE5     		jmp	.L552
 8915              	.L570:
 8916 0e73 E8000000 		call	__cxa_begin_catch@PLT
 8916      00
 8917              	.LEHB308:
 8918 0e78 E8000000 		call	_ZN8UnitTest11CurrentTest7ResultsEv@PLT
 8918      00
 8919 0e7d 4C8B28   		movq	(%rax), %r13
 8920 0e80 E8000000 		call	_ZN8UnitTest11CurrentTest7DetailsEv@PLT
 8920      00
 8921 0e85 488B30   		movq	(%rax), %rsi
 8922 0e88 BAE80000 		movl	$232, %edx
 8922      00
 8923 0e8d 4C89F7   		movq	%r14, %rdi
 8924 0e90 E8000000 		call	_ZN8UnitTest11TestDetailsC1ERKS0_i@PLT
 8924      00
 8925 0e95 488D1500 		leaq	.LC64(%rip), %rdx
 8925      000000
 8926 0e9c 4C89F6   		movq	%r14, %rsi
 8927 0e9f 4C89EF   		movq	%r13, %rdi
 8928 0ea2 E8000000 		call	_ZN8UnitTest11TestResults13OnTestFailureERKNS_11TestDetailsEPKc@PLT
 8928      00
 8929              	.LEHE308:
 8930              	.LEHB309:
 8931 0ea7 E8000000 		call	__cxa_end_catch@PLT
 8931      00
 8932              	.LEHE309:
 8933 0eac E9000000 		jmp	.L571
 8933      00
 8934              	.L522:
 8935 0eb1 488BBD90 		movq	-1392(%rbp), %rdi
 8935      FAFFFF
 8936 0eb8 E8000000 		call	_ZNSt7__cxx1115basic_stringbufIcSt11char_traitsIcESaIcEED1Ev
 8936      00
 8937 0ebd 488D0500 		leaq	24+_ZTCN8UnitTest15MemoryOutStreamE0_So(%rip), %rax
 8937      000000
 8938 0ec4 488985F0 		movq	%rax, -1040(%rbp)
 8938      FBFFFF
 8939              	.L523:
 8940 0ecb 488BBDB0 		movq	-1360(%rbp), %rdi
 8940      FAFFFF
 8941 0ed2 488D0500 		leaq	16+_ZTVSt9basic_iosIcSt11char_traitsIcEE(%rip), %rax
 8941      000000
 8942 0ed9 48898580 		movq	%rax, -896(%rbp)
 8942      FCFFFF
 8943 0ee0 E8000000 		call	_ZNSt8ios_baseD2Ev@PLT
 8943      00
 8944 0ee5 4C89E7   		movq	%r12, %rdi
 8945              	.L525:
 8946 0ee8 E8000000 		call	__cxa_begin_catch@PLT
 8946      00
 8947              	.LEHB310:
 8948 0eed E8000000 		call	_ZN8UnitTest11CurrentTest7ResultsEv@PLT
 8948      00
 8949 0ef2 4C8B20   		movq	(%rax), %r12
 8950 0ef5 E8000000 		call	_ZN8UnitTest11CurrentTest7DetailsEv@PLT
 8950      00
 8951 0efa 488B30   		movq	(%rax), %rsi
 8952 0efd BADA0000 		movl	$218, %edx
 8952      00
 8953 0f02 4C89F7   		movq	%r14, %rdi
 8954 0f05 E8000000 		call	_ZN8UnitTest11TestDetailsC1ERKS0_i@PLT
 8954      00
 8955 0f0a 488D1500 		leaq	.LC61(%rip), %rdx
 8955      000000
 8956 0f11 4C89F6   		movq	%r14, %rsi
 8957 0f14 4C89E7   		movq	%r12, %rdi
 8958 0f17 E8000000 		call	_ZN8UnitTest11TestResults13OnTestFailureERKNS_11TestDetailsEPKc@PLT
 8958      00
 8959              	.LEHE310:
 8960              	.LEHB311:
 8961 0f1c E8000000 		call	__cxa_end_catch@PLT
 8961      00
 8962              	.LEHE311:
 8963 0f21 4489E8   		movl	%r13d, %eax
 8964 0f24 488985F8 		movq	%rax, -1288(%rbp)
 8964      FAFFFF
 8965 0f2b E9000000 		jmp	.L528
 8965      00
 8966              	.L607:
 8967 0f30 F30F1EFA 		endbr64
 8968 0f34 4889C3   		movq	%rax, %rbx
 8969 0f37 E8000000 		call	__cxa_end_catch@PLT
 8969      00
 8970 0f3c E917FFFF 		jmp	.L552
 8970      FF
 8971              	.L595:
 8972 0f41 F30F1EFA 		endbr64
 8973 0f45 4889C3   		movq	%rax, %rbx
 8974 0f48 E8000000 		call	__cxa_end_catch@PLT
 8974      00
 8975 0f4d E906FFFF 		jmp	.L552
 8975      FF
 8976              	.L564:
 8977 0f52 E8000000 		call	__cxa_begin_catch@PLT
 8977      00
 8978              	.LEHB312:
 8979 0f57 E8000000 		call	_ZN8UnitTest11CurrentTest7ResultsEv@PLT
 8979      00
 8980 0f5c 4C8B28   		movq	(%rax), %r13
 8981 0f5f E8000000 		call	_ZN8UnitTest11CurrentTest7DetailsEv@PLT
 8981      00
 8982 0f64 488B30   		movq	(%rax), %rsi
 8983 0f67 BAE60000 		movl	$230, %edx
 8983      00
 8984 0f6c 4C89F7   		movq	%r14, %rdi
 8985 0f6f E8000000 		call	_ZN8UnitTest11TestDetailsC1ERKS0_i@PLT
 8985      00
 8986 0f74 488D1500 		leaq	.LC6(%rip), %rdx
 8986      000000
 8987 0f7b 4C89F6   		movq	%r14, %rsi
 8988 0f7e 4C89EF   		movq	%r13, %rdi
 8989 0f81 E8000000 		call	_ZN8UnitTest11TestResults13OnTestFailureERKNS_11TestDetailsEPKc@PLT
 8989      00
 8990              	.LEHE312:
 8991              	.LEHB313:
 8992 0f86 E8000000 		call	__cxa_end_catch@PLT
 8992      00
 8993              	.LEHE313:
 8994 0f8b E9000000 		jmp	.L565
 8994      00
 8995              	.L561:
 8996 0f90 E8000000 		call	__cxa_begin_catch@PLT
 8996      00
 8997              	.LEHB314:
 8998 0f95 E8000000 		call	_ZN8UnitTest11CurrentTest7ResultsEv@PLT
 8998      00
 8999 0f9a 4C8B28   		movq	(%rax), %r13
 9000 0f9d E8000000 		call	_ZN8UnitTest11CurrentTest7DetailsEv@PLT
 9000      00
 9001 0fa2 488B30   		movq	(%rax), %rsi
 9002 0fa5 BAE40000 		movl	$228, %edx
 9002      00
 9003 0faa 4C89F7   		movq	%r14, %rdi
 9004 0fad E8000000 		call	_ZN8UnitTest11TestDetailsC1ERKS0_i@PLT
 9004      00
 9005 0fb2 488D1500 		leaq	.LC6(%rip), %rdx
 9005      000000
 9006 0fb9 4C89F6   		movq	%r14, %rsi
 9007 0fbc 4C89EF   		movq	%r13, %rdi
 9008 0fbf E8000000 		call	_ZN8UnitTest11TestResults13OnTestFailureERKNS_11TestDetailsEPKc@PLT
 9008      00
 9009              	.LEHE314:
 9010              	.LEHB315:
 9011 0fc4 E8000000 		call	__cxa_end_catch@PLT
 9011      00
 9012              	.LEHE315:
 9013 0fc9 E9000000 		jmp	.L562
 9013      00
 9014              	.L603:
 9015 0fce F30F1EFA 		endbr64
 9016 0fd2 4889C3   		movq	%rax, %rbx
 9017 0fd5 E8000000 		call	__cxa_end_catch@PLT
 9017      00
 9018 0fda E979FEFF 		jmp	.L552
 9018      FF
 9019              	.L601:
 9020 0fdf F30F1EFA 		endbr64
 9021 0fe3 4889C3   		movq	%rax, %rbx
 9022 0fe6 E8000000 		call	__cxa_end_catch@PLT
 9022      00
 9023 0feb E968FEFF 		jmp	.L552
 9023      FF
 9024              	.L537:
 9025 0ff0 E8000000 		call	__cxa_begin_catch@PLT
 9025      00
 9026              	.LEHB316:
 9027 0ff5 E8000000 		call	_ZN8UnitTest11CurrentTest7ResultsEv@PLT
 9027      00
 9028 0ffa 4C8B20   		movq	(%rax), %r12
 9029 0ffd E8000000 		call	_ZN8UnitTest11CurrentTest7DetailsEv@PLT
 9029      00
 9030 1002 4C8DB590 		leaq	-1136(%rbp), %r14
 9030      FBFFFF
 9031 1009 488B30   		movq	(%rax), %rsi
 9032 100c BAC40000 		movl	$196, %edx
 9032      00
 9033 1011 4C89F7   		movq	%r14, %rdi
 9034 1014 E8000000 		call	_ZN8UnitTest11TestDetailsC1ERKS0_i@PLT
 9034      00
 9035 1019 488D1500 		leaq	.LC6(%rip), %rdx
 9035      000000
 9036 1020 4C89F6   		movq	%r14, %rsi
 9037 1023 4C89E7   		movq	%r12, %rdi
 9038 1026 E8000000 		call	_ZN8UnitTest11TestResults13OnTestFailureERKNS_11TestDetailsEPKc@PLT
 9038      00
 9039              	.LEHE316:
 9040              	.LEHB317:
 9041 102b E8000000 		call	__cxa_end_catch@PLT
 9041      00
 9042              	.LEHE317:
 9043 1030 E9000000 		jmp	.L538
 9043      00
 9044              	.L546:
 9045 1035 E8000000 		call	__cxa_begin_catch@PLT
 9045      00
 9046              	.LEHB318:
 9047 103a E8000000 		call	_ZN8UnitTest11CurrentTest7ResultsEv@PLT
 9047      00
 9048 103f 488B18   		movq	(%rax), %rbx
 9049 1042 E8000000 		call	_ZN8UnitTest11CurrentTest7DetailsEv@PLT
 9049      00
 9050 1047 488B30   		movq	(%rax), %rsi
 9051 104a BAD30000 		movl	$211, %edx
 9051      00
 9052 104f 4C89F7   		movq	%r14, %rdi
 9053 1052 E8000000 		call	_ZN8UnitTest11TestDetailsC1ERKS0_i@PLT
 9053      00
 9054 1057 488D1500 		leaq	.LC6(%rip), %rdx
 9054      000000
 9055 105e 4C89F6   		movq	%r14, %rsi
 9056 1061 4889DF   		movq	%rbx, %rdi
 9057 1064 E8000000 		call	_ZN8UnitTest11TestResults13OnTestFailureERKNS_11TestDetailsEPKc@PLT
 9057      00
 9058              	.LEHE318:
 9059              	.LEHB319:
 9060 1069 E8000000 		call	__cxa_end_catch@PLT
 9060      00
 9061              	.LEHE319:
 9062 106e E9000000 		jmp	.L547
 9062      00
 9063              	.L549:
 9064 1073 E8000000 		call	__cxa_begin_catch@PLT
 9064      00
 9065              	.LEHB320:
 9066 1078 E8000000 		call	_ZN8UnitTest11CurrentTest7ResultsEv@PLT
 9066      00
 9067 107d 4C8B28   		movq	(%rax), %r13
 9068 1080 E8000000 		call	_ZN8UnitTest11CurrentTest7DetailsEv@PLT
 9068      00
 9069 1085 488B30   		movq	(%rax), %rsi
 9070 1088 BAD80000 		movl	$216, %edx
 9070      00
 9071 108d 4C89F7   		movq	%r14, %rdi
 9072 1090 E8000000 		call	_ZN8UnitTest11TestDetailsC1ERKS0_i@PLT
 9072      00
 9073 1095 488D1500 		leaq	.LC60(%rip), %rdx
 9073      000000
 9074 109c 4C89F6   		movq	%r14, %rsi
 9075 109f 4C89EF   		movq	%r13, %rdi
 9076 10a2 E8000000 		call	_ZN8UnitTest11TestResults13OnTestFailureERKNS_11TestDetailsEPKc@PLT
 9076      00
 9077              	.LEHE320:
 9078              	.LEHB321:
 9079 10a7 E8000000 		call	__cxa_end_catch@PLT
 9079      00
 9080              	.LEHE321:
 9081 10ac E9000000 		jmp	.L519
 9081      00
 9082              	.L590:
 9083 10b1 F30F1EFA 		endbr64
 9084 10b5 4889C3   		movq	%rax, %rbx
 9085 10b8 E8000000 		call	__cxa_end_catch@PLT
 9085      00
 9086 10bd E961FCFF 		jmp	.L515
 9086      FF
 9087              	.L593:
 9088 10c2 F30F1EFA 		endbr64
 9089 10c6 4889C3   		movq	%rax, %rbx
 9090 10c9 E8000000 		call	__cxa_end_catch@PLT
 9090      00
 9091 10ce E985FDFF 		jmp	.L552
 9091      FF
 9092              	.L584:
 9093 10d3 F30F1EFA 		endbr64
 9094 10d7 4889C3   		movq	%rax, %rbx
 9095 10da E8000000 		call	__cxa_end_catch@PLT
 9095      00
 9096 10df E93FFCFF 		jmp	.L515
 9096      FF
 9097              	.L540:
 9098 10e4 E8000000 		call	__cxa_begin_catch@PLT
 9098      00
 9099              	.LEHB322:
 9100 10e9 E8000000 		call	_ZN8UnitTest11CurrentTest7ResultsEv@PLT
 9100      00
 9101 10ee 4C8B20   		movq	(%rax), %r12
 9102 10f1 E8000000 		call	_ZN8UnitTest11CurrentTest7DetailsEv@PLT
 9102      00
 9103 10f6 488B30   		movq	(%rax), %rsi
 9104 10f9 BAC60000 		movl	$198, %edx
 9104      00
 9105 10fe 4C89F7   		movq	%r14, %rdi
 9106 1101 E8000000 		call	_ZN8UnitTest11TestDetailsC1ERKS0_i@PLT
 9106      00
 9107 1106 488D1500 		leaq	.LC6(%rip), %rdx
 9107      000000
 9108 110d 4C89F6   		movq	%r14, %rsi
 9109 1110 4C89E7   		movq	%r12, %rdi
 9110 1113 E8000000 		call	_ZN8UnitTest11TestResults13OnTestFailureERKNS_11TestDetailsEPKc@PLT
 9110      00
 9111              	.LEHE322:
 9112              	.LEHB323:
 9113 1118 E8000000 		call	__cxa_end_catch@PLT
 9113      00
 9114              	.LEHE323:
 9115 111d E9000000 		jmp	.L541
 9115      00
 9116              	.L512:
 9117 1122 4889DF   		movq	%rbx, %rdi
 9118 1125 4C89FB   		movq	%r15, %rbx
 9119 1128 E8000000 		call	_ZNSt13basic_filebufIcSt11char_traitsIcEED1Ev@PLT
 9119      00
 9120              	.L513:
 9121 112d 488B0500 		movq	8+_ZTTSt14basic_ifstreamIcSt11char_traitsIcEE(%rip), %rax
 9121      000000
 9122 1134 488B3500 		movq	16+_ZTTSt14basic_ifstreamIcSt11char_traitsIcEE(%rip), %rsi
 9122      000000
 9123 113b 48898590 		movq	%rax, -624(%rbp)
 9123      FDFFFF
 9124 1142 488B40E8 		movq	-24(%rax), %rax
 9125 1146 4889B405 		movq	%rsi, -624(%rbp,%rax)
 9125      90FDFFFF 
 9126 114e 48C78598 		movq	$0, -616(%rbp)
 9126      FDFFFF00 
 9126      000000
 9127              	.L514:
 9128 1159 488BBDD8 		movq	-1320(%rbp), %rdi
 9128      FAFFFF
 9129 1160 488D0500 		leaq	16+_ZTVSt9basic_iosIcSt11char_traitsIcEE(%rip), %rax
 9129      000000
 9130 1167 48898590 		movq	%rax, -368(%rbp)
 9130      FEFFFF
 9131 116e E8000000 		call	_ZNSt8ios_baseD2Ev@PLT
 9131      00
 9132 1173 E9ABFBFF 		jmp	.L515
 9132      FF
 9133              	.L586:
 9134 1178 F30F1EFA 		endbr64
 9135 117c 4889C3   		movq	%rax, %rbx
 9136 117f E8000000 		call	__cxa_end_catch@PLT
 9136      00
 9137 1184 E99AFBFF 		jmp	.L515
 9137      FF
 9138              	.L558:
 9139 1189 E8000000 		call	__cxa_begin_catch@PLT
 9139      00
 9140              	.LEHB324:
 9141 118e E8000000 		call	_ZN8UnitTest11CurrentTest7ResultsEv@PLT
 9141      00
 9142 1193 4C8B20   		movq	(%rax), %r12
 9143 1196 E8000000 		call	_ZN8UnitTest11CurrentTest7DetailsEv@PLT
 9143      00
 9144 119b 488B30   		movq	(%rax), %rsi
 9145 119e BAE20000 		movl	$226, %edx
 9145      00
 9146 11a3 4C89F7   		movq	%r14, %rdi
 9147 11a6 E8000000 		call	_ZN8UnitTest11TestDetailsC1ERKS0_i@PLT
 9147      00
 9148 11ab 488D1500 		leaq	.LC6(%rip), %rdx
 9148      000000
 9149 11b2 4C89F6   		movq	%r14, %rsi
 9150 11b5 4C89E7   		movq	%r12, %rdi
 9151 11b8 E8000000 		call	_ZN8UnitTest11TestResults13OnTestFailureERKNS_11TestDetailsEPKc@PLT
 9151      00
 9152              	.LEHE324:
 9153              	.LEHB325:
 9154 11bd E8000000 		call	__cxa_end_catch@PLT
 9154      00
 9155              	.LEHE325:
 9156 11c2 4C8DA570 		leaq	-1168(%rbp), %r12
 9156      FBFFFF
 9157 11c9 E9000000 		jmp	.L559
 9157      00
 9158              	.L555:
 9159 11ce E8000000 		call	__cxa_begin_catch@PLT
 9159      00
 9160              	.LEHB326:
 9161 11d3 E8000000 		call	_ZN8UnitTest11CurrentTest7ResultsEv@PLT
 9161      00
 9162 11d8 4C8B28   		movq	(%rax), %r13
 9163 11db E8000000 		call	_ZN8UnitTest11CurrentTest7DetailsEv@PLT
 9163      00
 9164 11e0 488B30   		movq	(%rax), %rsi
 9165 11e3 BADF0000 		movl	$223, %edx
 9165      00
 9166 11e8 4C89F7   		movq	%r14, %rdi
 9167 11eb E8000000 		call	_ZN8UnitTest11TestDetailsC1ERKS0_i@PLT
 9167      00
 9168 11f0 488D1500 		leaq	.LC62(%rip), %rdx
 9168      000000
 9169 11f7 4C89F6   		movq	%r14, %rsi
 9170 11fa 4C89EF   		movq	%r13, %rdi
 9171 11fd E8000000 		call	_ZN8UnitTest11TestResults13OnTestFailureERKNS_11TestDetailsEPKc@PLT
 9171      00
 9172              	.LEHE326:
 9173              	.LEHB327:
 9174 1202 E8000000 		call	__cxa_end_catch@PLT
 9174      00
 9175              	.LEHE327:
 9176 1207 488D8550 		leaq	-1200(%rbp), %rax
 9176      FBFFFF
 9177 120e 488985F8 		movq	%rax, -1288(%rbp)
 9177      FAFFFF
 9178 1215 E9000000 		jmp	.L556
 9178      00
 9179              	.L599:
 9180 121a F30F1EFA 		endbr64
 9181 121e 4889C3   		movq	%rax, %rbx
 9182 1221 E8000000 		call	__cxa_end_catch@PLT
 9182      00
 9183 1226 E92DFCFF 		jmp	.L552
 9183      FF
 9184              	.L597:
 9185 122b F30F1EFA 		endbr64
 9186 122f 4889C3   		movq	%rax, %rbx
 9187 1232 E8000000 		call	__cxa_end_catch@PLT
 9187      00
 9188 1237 E91CFCFF 		jmp	.L552
 9188      FF
 9189              	.L567:
 9190 123c E8000000 		call	__cxa_begin_catch@PLT
 9190      00
 9191              	.LEHB328:
 9192 1241 E8000000 		call	_ZN8UnitTest11CurrentTest7ResultsEv@PLT
 9192      00
 9193 1246 4C8B28   		movq	(%rax), %r13
 9194 1249 E8000000 		call	_ZN8UnitTest11CurrentTest7DetailsEv@PLT
 9194      00
 9195 124e 488B30   		movq	(%rax), %rsi
 9196 1251 BAE70000 		movl	$231, %edx
 9196      00
 9197 1256 4C89F7   		movq	%r14, %rdi
 9198 1259 E8000000 		call	_ZN8UnitTest11TestDetailsC1ERKS0_i@PLT
 9198      00
 9199 125e 488D1500 		leaq	.LC63(%rip), %rdx
 9199      000000
 9200 1265 4C89F6   		movq	%r14, %rsi
 9201 1268 4C89EF   		movq	%r13, %rdi
 9202 126b E8000000 		call	_ZN8UnitTest11TestResults13OnTestFailureERKNS_11TestDetailsEPKc@PLT
 9202      00
 9203              	.LEHE328:
 9204              	.LEHB329:
 9205 1270 E8000000 		call	__cxa_end_catch@PLT
 9205      00
 9206              	.LEHE329:
 9207 1275 E9000000 		jmp	.L568
 9207      00
 9208              	.L529:
 9209 127a 4C89E7   		movq	%r12, %rdi
 9210 127d E8000000 		call	_ZN8UnitTest15MemoryOutStreamD1Ev
 9210      00
 9211 1282 488BBDF8 		movq	-1288(%rbp), %rdi
 9211      FAFFFF
 9212 1289 E95AFCFF 		jmp	.L525
 9212      FF
 9213              	.L605:
 9214 128e F30F1EFA 		endbr64
 9215 1292 4889C3   		movq	%rax, %rbx
 9216 1295 E8000000 		call	__cxa_end_catch@PLT
 9216      00
 9217 129a E9B9FBFF 		jmp	.L552
 9217      FF
 9218              	.L543:
 9219 129f E8000000 		call	__cxa_begin_catch@PLT
 9219      00
 9220              	.LEHB330:
 9221 12a4 E8000000 		call	_ZN8UnitTest11CurrentTest7ResultsEv@PLT
 9221      00
 9222 12a9 4C8B20   		movq	(%rax), %r12
 9223 12ac E8000000 		call	_ZN8UnitTest11CurrentTest7DetailsEv@PLT
 9223      00
 9224 12b1 488B30   		movq	(%rax), %rsi
 9225 12b4 BACB0000 		movl	$203, %edx
 9225      00
 9226 12b9 4C89F7   		movq	%r14, %rdi
 9227 12bc E8000000 		call	_ZN8UnitTest11TestDetailsC1ERKS0_i@PLT
 9227      00
 9228 12c1 488D1500 		leaq	.LC6(%rip), %rdx
 9228      000000
 9229 12c8 4C89F6   		movq	%r14, %rsi
 9230 12cb 4C89E7   		movq	%r12, %rdi
 9231 12ce E8000000 		call	_ZN8UnitTest11TestResults13OnTestFailureERKNS_11TestDetailsEPKc@PLT
 9231      00
 9232              	.LEHE330:
 9233              	.LEHB331:
 9234 12d3 E8000000 		call	__cxa_end_catch@PLT
 9234      00
 9235              	.LEHE331:
 9236 12d8 E9000000 		jmp	.L544
 9236      00
 9237              	.L588:
 9238 12dd F30F1EFA 		endbr64
 9239 12e1 4889C3   		movq	%rax, %rbx
 9240 12e4 E8000000 		call	__cxa_end_catch@PLT
 9240      00
 9241 12e9 E935FAFF 		jmp	.L515
 9241      FF
 9242              		.cfi_endproc
 9243              	.LFE1351:
 9244              		.section	.gcc_except_table
 9245              		.align 4
 9246              	.LLSDAC1351:
 9247 06bc FF       		.byte	0xff
 9248 06bd 9B       		.byte	0x9b
 9249 06be B801     		.uleb128 .LLSDATTC1351-.LLSDATTDC1351
 9250              	.LLSDATTDC1351:
 9251 06c0 01       		.byte	0x1
 9252 06c1 AC01     		.uleb128 .LLSDACSEC1351-.LLSDACSBC1351
 9253              	.LLSDACSBC1351:
 9254 06c3 20       		.uleb128 .LEHB302-.LCOLDB67
 9255 06c4 05       		.uleb128 .LEHE302-.LEHB302
 9256 06c5 00       		.uleb128 0
 9257 06c6 00       		.uleb128 0
 9258 06c7 2A       		.uleb128 .LEHB303-.LCOLDB67
 9259 06c8 05       		.uleb128 .LEHE303-.LEHB303
 9260 06c9 34       		.uleb128 .L619-.LCOLDB67
 9261 06ca 00       		.uleb128 0
 9262 06cb B101     		.uleb128 .LEHB304-.LCOLDB67
 9263 06cd 2F       		.uleb128 .LEHE304-.LEHB304
 9264 06ce B102     		.uleb128 .L611-.LCOLDB67
 9265 06d0 00       		.uleb128 0
 9266 06d1 E001     		.uleb128 .LEHB305-.LCOLDB67
 9267 06d3 05       		.uleb128 .LEHE305-.LEHB305
 9268 06d4 A802     		.uleb128 .L591-.LCOLDB67
 9269 06d6 00       		.uleb128 0
 9270 06d7 EF01     		.uleb128 .LEHB306-.LCOLDB67
 9271 06d9 2F       		.uleb128 .LEHE306-.LEHB306
 9272 06da CA02     		.uleb128 .L609-.LCOLDB67
 9273 06dc 00       		.uleb128 0
 9274 06dd 9E02     		.uleb128 .LEHB307-.LCOLDB67
 9275 06df 05       		.uleb128 .LEHE307-.LEHB307
 9276 06e0 A802     		.uleb128 .L591-.LCOLDB67
 9277 06e2 00       		.uleb128 0
 9278 06e3 DD02     		.uleb128 .LEHB308-.LCOLDB67
 9279 06e5 2F       		.uleb128 .LEHE308-.LEHB308
 9280 06e6 9504     		.uleb128 .L607-.LCOLDB67
 9281 06e8 00       		.uleb128 0
 9282 06e9 8C03     		.uleb128 .LEHB309-.LCOLDB67
 9283 06eb 05       		.uleb128 .LEHE309-.LEHB309
 9284 06ec A802     		.uleb128 .L591-.LCOLDB67
 9285 06ee 00       		.uleb128 0
 9286 06ef D203     		.uleb128 .LEHB310-.LCOLDB67
 9287 06f1 2F       		.uleb128 .LEHE310-.LEHB310
 9288 06f2 A604     		.uleb128 .L595-.LCOLDB67
 9289 06f4 00       		.uleb128 0
 9290 06f5 8104     		.uleb128 .LEHB311-.LCOLDB67
 9291 06f7 05       		.uleb128 .LEHE311-.LEHB311
 9292 06f8 A802     		.uleb128 .L591-.LCOLDB67
 9293 06fa 00       		.uleb128 0
 9294 06fb BC04     		.uleb128 .LEHB312-.LCOLDB67
 9295 06fd 2F       		.uleb128 .LEHE312-.LEHB312
 9296 06fe B305     		.uleb128 .L603-.LCOLDB67
 9297 0700 00       		.uleb128 0
 9298 0701 EB04     		.uleb128 .LEHB313-.LCOLDB67
 9299 0703 05       		.uleb128 .LEHE313-.LEHB313
 9300 0704 A802     		.uleb128 .L591-.LCOLDB67
 9301 0706 00       		.uleb128 0
 9302 0707 FA04     		.uleb128 .LEHB314-.LCOLDB67
 9303 0709 2F       		.uleb128 .LEHE314-.LEHB314
 9304 070a C405     		.uleb128 .L601-.LCOLDB67
 9305 070c 00       		.uleb128 0
 9306 070d A905     		.uleb128 .LEHB315-.LCOLDB67
 9307 070f 05       		.uleb128 .LEHE315-.LEHB315
 9308 0710 A802     		.uleb128 .L591-.LCOLDB67
 9309 0712 00       		.uleb128 0
 9310 0713 DA05     		.uleb128 .LEHB316-.LCOLDB67
 9311 0715 36       		.uleb128 .LEHE316-.LEHB316
 9312 0716 B807     		.uleb128 .L584-.LCOLDB67
 9313 0718 00       		.uleb128 0
 9314 0719 9006     		.uleb128 .LEHB317-.LCOLDB67
 9315 071b 05       		.uleb128 .LEHE317-.LEHB317
 9316 071c 01       		.uleb128 .L582-.LCOLDB67
 9317 071d 00       		.uleb128 0
 9318 071e 9F06     		.uleb128 .LEHB318-.LCOLDB67
 9319 0720 2F       		.uleb128 .LEHE318-.LEHB318
 9320 0721 9607     		.uleb128 .L590-.LCOLDB67
 9321 0723 00       		.uleb128 0
 9322 0724 CE06     		.uleb128 .LEHB319-.LCOLDB67
 9323 0726 05       		.uleb128 .LEHE319-.LEHB319
 9324 0727 01       		.uleb128 .L582-.LCOLDB67
 9325 0728 00       		.uleb128 0
 9326 0729 DD06     		.uleb128 .LEHB320-.LCOLDB67
 9327 072b 2F       		.uleb128 .LEHE320-.LEHB320
 9328 072c A707     		.uleb128 .L593-.LCOLDB67
 9329 072e 00       		.uleb128 0
 9330 072f 8C07     		.uleb128 .LEHB321-.LCOLDB67
 9331 0731 05       		.uleb128 .LEHE321-.LEHB321
 9332 0732 A802     		.uleb128 .L591-.LCOLDB67
 9333 0734 00       		.uleb128 0
 9334 0735 CE07     		.uleb128 .LEHB322-.LCOLDB67
 9335 0737 2F       		.uleb128 .LEHE322-.LEHB322
 9336 0738 DD08     		.uleb128 .L586-.LCOLDB67
 9337 073a 00       		.uleb128 0
 9338 073b FD07     		.uleb128 .LEHB323-.LCOLDB67
 9339 073d 05       		.uleb128 .LEHE323-.LEHB323
 9340 073e 01       		.uleb128 .L582-.LCOLDB67
 9341 073f 00       		.uleb128 0
 9342 0740 F308     		.uleb128 .LEHB324-.LCOLDB67
 9343 0742 2F       		.uleb128 .LEHE324-.LEHB324
 9344 0743 FF09     		.uleb128 .L599-.LCOLDB67
 9345 0745 00       		.uleb128 0
 9346 0746 A209     		.uleb128 .LEHB325-.LCOLDB67
 9347 0748 05       		.uleb128 .LEHE325-.LEHB325
 9348 0749 A802     		.uleb128 .L591-.LCOLDB67
 9349 074b 00       		.uleb128 0
 9350 074c B809     		.uleb128 .LEHB326-.LCOLDB67
 9351 074e 2F       		.uleb128 .LEHE326-.LEHB326
 9352 074f 900A     		.uleb128 .L597-.LCOLDB67
 9353 0751 00       		.uleb128 0
 9354 0752 E709     		.uleb128 .LEHB327-.LCOLDB67
 9355 0754 05       		.uleb128 .LEHE327-.LEHB327
 9356 0755 A802     		.uleb128 .L591-.LCOLDB67
 9357 0757 00       		.uleb128 0
 9358 0758 A60A     		.uleb128 .LEHB328-.LCOLDB67
 9359 075a 2F       		.uleb128 .LEHE328-.LEHB328
 9360 075b F30A     		.uleb128 .L605-.LCOLDB67
 9361 075d 00       		.uleb128 0
 9362 075e D50A     		.uleb128 .LEHB329-.LCOLDB67
 9363 0760 05       		.uleb128 .LEHE329-.LEHB329
 9364 0761 A802     		.uleb128 .L591-.LCOLDB67
 9365 0763 00       		.uleb128 0
 9366 0764 890B     		.uleb128 .LEHB330-.LCOLDB67
 9367 0766 2F       		.uleb128 .LEHE330-.LEHB330
 9368 0767 C20B     		.uleb128 .L588-.LCOLDB67
 9369 0769 00       		.uleb128 0
 9370 076a B80B     		.uleb128 .LEHB331-.LCOLDB67
 9371 076c 05       		.uleb128 .LEHE331-.LEHB331
 9372 076d 01       		.uleb128 .L582-.LCOLDB67
 9373 076e 00       		.uleb128 0
 9374              	.LLSDACSEC1351:
 9375 076f 01       		.byte	0x1
 9376 0770 00       		.byte	0
 9377 0771 000000   		.align 4
 9378 0774 00000000 		.long	0
 9379              	
 9380              	.LLSDATTC1351:
 9381              		.section	.text.unlikely
 9382              		.text
 9384              		.section	.text.unlikely
 9386              	.LCOLDE67:
 9387              		.text
 9388              	.LHOTE67:
 9389              		.section	.rodata.str1.1
 9390              	.LC68:
 9391 0177 3A303631 		.string	":061270000895F894FFCF81"
 9391      32373030 
 9391      30303839 
 9391      35463839 
 9391      34464643 
 9392              		.section	.rodata.str1.8
 9393 071f 00       		.align 8
 9394              	.LC69:
 9395 0720 3A313031 		.string	":10126000E80083FF01C03DDC17701093E9001F9177"
 9395      32363030 
 9395      30453830 
 9395      30383346 
 9395      46303143 
 9396 074c 00000000 		.align 8
 9397              	.LC70:
 9398 0750 3A313031 		.string	":101250000801882361F01091E9001092E900809163"
 9398      32353030 
 9398      30303830 
 9398      31383832 
 9398      33363146 
 9399 077c 00000000 		.align 8
 9400              	.LC71:
 9401 0780 3A313031 		.string	":10121000E10082FF0AC08091E20082FF06C0809157"
 9401      32313030 
 9401      30453130 
 9401      30383246 
 9401      46304143 
 9402 07ac 00000000 		.align 8
 9403              	.LC72:
 9404 07b0 3A313031 		.string	":10120000E200A5DD80E060E042E18EDD71DF8091EB"
 9404      32303030 
 9404      30453230 
 9404      30413544 
 9404      44383045 
 9405 07dc 00000000 		.align 8
 9406              	.LC73:
 9407 07e0 3A313031 		.string	":1011F000E2008E7F8093E2008091E2008061809324"
 9407      31463030 
 9407      30453230 
 9407      30384537 
 9407      46383039 
 9408              		.section	.rodata.str1.1
 9409              	.LC74:
 9410 018f 3A303631 		.string	":061220000895F894FFCFD1"
 9410      32323030 
 9410      30303839 
 9410      35463839 
 9410      34464643 
 9411              	.LC75:
 9412 01a7 3A303130 		.string	":0100CF00CF61"
 9412      30434630 
 9412      30434636 
 9412      3100
 9413              		.section	.rodata.str1.8
 9414 080c 00000000 		.align 8
 9415              	.LC76:
 9416 0810 3A304530 		.string	":0E00C00085BF889585B78F7D85BFF8CFF894F2"
 9416      30433030 
 9416      30383542 
 9416      46383839 
 9416      35383542 
 9417              		.align 8
 9418              	.LC77:
 9419 0838 3A313030 		.string	":1000B0009BBD8ABD89B7806489BF789485B780620B"
 9419      30423030 
 9419      30394242 
 9419      44384142 
 9419      44383942 
 9420 0864 00000000 		.align 8
 9421              	.LC78:
 9422 0868 3A313030 		.string	":1000A00018958FEF8ABB1FBC8DE08EBD89E09DE364"
 9422      30413030 
 9422      30313839 
 9422      35384645 
 9422      46384142 
 9423 0894 00000000 		.align 8
 9424              	.LC79:
 9425 0898 3A313030 		.string	":1000B0009BBD8ABD89B7FFFFFFFFFF9485B78062B4"
 9425      30423030 
 9425      30394242 
 9425      44384142 
 9425      44383942 
 9426 08c4 00000000 		.align 8
 9427              	.LC80:
 9428 08c8 3A313030 		.string	":10001000BEBAFECA6E3B8209D926430DADDEADDE07"
 9428      30313030 
 9428      30424542 
 9428      41464543 
 9428      41364533 
 9429 08f4 00000000 		.align 8
 9430              	.LC81:
 9431 08f8 3A313030 		.string	":10000000BEBAFECA6E3B8209D926430DADDEADDE17"
 9431      30303030 
 9431      30424542 
 9431      41464543 
 9431      41364533 
 9432              		.section	.rodata.str1.1
 9433              	.LC82:
 9434 01b5 3A303230 		.string	":020000021000EC"
 9434      30303030 
 9434      32313030 
 9434      30454300 
 9435              		.section	.rodata.str1.8
 9436 0924 00000000 		.align 8
 9437              	.LC83:
 9438 0928 3A313046 		.string	":10FFF000BEBAFECA6E3B8209D926430DADDEADDE28"
 9438      46463030 
 9438      30424542 
 9438      41464543 
 9438      41364533 
 9439 0954 00000000 		.align 8
 9440              	.LC84:
 9441 0958 3A313046 		.string	":10FFE000BEBAFECA6E3B8209D926430DADDEADDE38"
 9441      46453030 
 9441      30424542 
 9441      41464543 
 9441      41364533 
 9442              		.text
 9443 2309 90       		.align 2
 9444 230a 660F1F44 		.p2align 4
 9444      0000
 9445              		.globl	_ZNK23TestHexIO_testRoundTrip7RunImplEv
 9447              	_ZNK23TestHexIO_testRoundTrip7RunImplEv:
 9448              	.LFB1355:
 9449              		.cfi_startproc
 9450 2310 F30F1EFA 		endbr64
 9451 2314 4155     		pushq	%r13
 9452              		.cfi_def_cfa_offset 16
 9453              		.cfi_offset 13, -16
 9454 2316 4C8D2D00 		leaq	.LC71(%rip), %r13
 9454      000000
 9455 231d 4C8D0D00 		leaq	.LC68(%rip), %r9
 9455      000000
 9456 2324 31C0     		xorl	%eax, %eax
 9457 2326 4154     		pushq	%r12
 9458              		.cfi_def_cfa_offset 24
 9459              		.cfi_offset 12, -24
 9460 2328 4C8D2500 		leaq	.LC72(%rip), %r12
 9460      000000
 9461 232f 4C89EA   		movq	%r13, %rdx
 9462 2332 4C8D0500 		leaq	.LC69(%rip), %r8
 9462      000000
 9463 2339 55       		pushq	%rbp
 9464              		.cfi_def_cfa_offset 32
 9465              		.cfi_offset 6, -32
 9466 233a 488D2D00 		leaq	.LC73(%rip), %rbp
 9466      000000
 9467 2341 4C89E6   		movq	%r12, %rsi
 9468 2344 53       		pushq	%rbx
 9469              		.cfi_def_cfa_offset 40
 9470              		.cfi_offset 3, -40
 9471 2345 488D1D00 		leaq	.LC70(%rip), %rbx
 9471      000000
 9472 234c 4889EF   		movq	%rbp, %rdi
 9473 234f 4889D9   		movq	%rbx, %rcx
 9474 2352 4883EC10 		subq	$16, %rsp
 9475              		.cfi_def_cfa_offset 56
 9476 2356 6A00     		pushq	$0
 9477              		.cfi_def_cfa_offset 64
 9478 2358 E8000000 		call	_Z13testRoundTripPKcz
 9478      00
 9479 235d 58       		popq	%rax
 9480              		.cfi_def_cfa_offset 56
 9481 235e 488D0500 		leaq	.LC68(%rip), %rax
 9481      000000
 9482 2365 5A       		popq	%rdx
 9483              		.cfi_def_cfa_offset 48
 9484 2366 6A00     		pushq	$0
 9485              		.cfi_def_cfa_offset 56
 9486 2368 4C8D0D00 		leaq	.LC69(%rip), %r9
 9486      000000
 9487 236f 4989D8   		movq	%rbx, %r8
 9488 2372 4C89EA   		movq	%r13, %rdx
 9489 2375 50       		pushq	%rax
 9490              		.cfi_def_cfa_offset 64
 9491 2376 4C89E6   		movq	%r12, %rsi
 9492 2379 4889EF   		movq	%rbp, %rdi
 9493 237c 488D0D00 		leaq	.LC74(%rip), %rcx
 9493      000000
 9494 2383 31C0     		xorl	%eax, %eax
 9495 2385 E8000000 		call	_Z13testRoundTripPKcz
 9495      00
 9496 238a 59       		popq	%rcx
 9497              		.cfi_def_cfa_offset 56
 9498 238b 4531C0   		xorl	%r8d, %r8d
 9499 238e 5E       		popq	%rsi
 9500              		.cfi_def_cfa_offset 48
 9501 238f 488D0D00 		leaq	.LC75(%rip), %rcx
 9501      000000
 9502 2396 488D1500 		leaq	.LC76(%rip), %rdx
 9502      000000
 9503 239d 31C0     		xorl	%eax, %eax
 9504 239f 488D3500 		leaq	.LC77(%rip), %rsi
 9504      000000
 9505 23a6 488D3D00 		leaq	.LC78(%rip), %rdi
 9505      000000
 9506 23ad E8000000 		call	_Z13testRoundTripPKcz
 9506      00
 9507 23b2 31F6     		xorl	%esi, %esi
 9508 23b4 488D3D00 		leaq	.LC79(%rip), %rdi
 9508      000000
 9509 23bb 31C0     		xorl	%eax, %eax
 9510 23bd E8000000 		call	_Z13testRoundTripPKcz
 9510      00
 9511 23c2 4883C408 		addq	$8, %rsp
 9512              		.cfi_def_cfa_offset 40
 9513 23c6 4531C9   		xorl	%r9d, %r9d
 9514 23c9 31C0     		xorl	%eax, %eax
 9515 23cb 5B       		popq	%rbx
 9516              		.cfi_def_cfa_offset 32
 9517 23cc 4C8D0500 		leaq	.LC80(%rip), %r8
 9517      000000
 9518 23d3 5D       		popq	%rbp
 9519              		.cfi_def_cfa_offset 24
 9520 23d4 488D0D00 		leaq	.LC81(%rip), %rcx
 9520      000000
 9521 23db 415C     		popq	%r12
 9522              		.cfi_def_cfa_offset 16
 9523 23dd 415D     		popq	%r13
 9524              		.cfi_def_cfa_offset 8
 9525 23df 488D1500 		leaq	.LC82(%rip), %rdx
 9525      000000
 9526 23e6 488D3500 		leaq	.LC83(%rip), %rsi
 9526      000000
 9527 23ed 488D3D00 		leaq	.LC84(%rip), %rdi
 9527      000000
 9528 23f4 E957F2FF 		jmp	_Z13testRoundTripPKcz
 9528      FF
 9529              		.cfi_endproc
 9530              	.LFE1355:
 9532              		.section	.rodata.str1.1
 9533              	.LC85:
 9534 01c5 74657374 		.string	"testHexIO.cpp"
 9534      48657849 
 9534      4F2E6370 
 9534      7000
 9535              	.LC86:
 9536 01d3 44656661 		.string	"DefaultSuite"
 9536      756C7453 
 9536      75697465 
 9536      00
 9537              	.LC87:
 9538 01e0 48657849 		.string	"HexIO_testValidDataLine"
 9538      4F5F7465 
 9538      73745661 
 9538      6C696444 
 9538      6174614C 
 9539              	.LC88:
 9540 01f8 48657849 		.string	"HexIO_testValidEOF"
 9540      4F5F7465 
 9540      73745661 
 9540      6C696445 
 9540      4F4600
 9541              	.LC89:
 9542 020b 48657849 		.string	"HexIO_testJunkStartCode"
 9542      4F5F7465 
 9542      73744A75 
 9542      6E6B5374 
 9542      61727443 
 9543              	.LC90:
 9544 0223 48657849 		.string	"HexIO_testJunkByteCount"
 9544      4F5F7465 
 9544      73744A75 
 9544      6E6B4279 
 9544      7465436F 
 9545              	.LC91:
 9546 023b 48657849 		.string	"HexIO_testJunkAddrMsb"
 9546      4F5F7465 
 9546      73744A75 
 9546      6E6B4164 
 9546      64724D73 
 9547              	.LC92:
 9548 0251 48657849 		.string	"HexIO_testJunkAddrLsb"
 9548      4F5F7465 
 9548      73744A75 
 9548      6E6B4164 
 9548      64724C73 
 9549              	.LC93:
 9550 0267 48657849 		.string	"HexIO_testJunkRecType"
 9550      4F5F7465 
 9550      73744A75 
 9550      6E6B5265 
 9550      63547970 
 9551              	.LC94:
 9552 027d 48657849 		.string	"HexIO_testJunkDataByte"
 9552      4F5F7465 
 9552      73744A75 
 9552      6E6B4461 
 9552      74614279 
 9553              	.LC95:
 9554 0294 48657849 		.string	"HexIO_testJunkChecksum"
 9554      4F5F7465 
 9554      73744A75 
 9554      6E6B4368 
 9554      65636B73 
 9555              	.LC96:
 9556 02ab 48657849 		.string	"HexIO_testBadChecksum"
 9556      4F5F7465 
 9556      73744261 
 9556      64436865 
 9556      636B7375 
 9557              	.LC97:
 9558 02c1 48657849 		.string	"HexIO_testCorruptLine"
 9558      4F5F7465 
 9558      7374436F 
 9558      72727570 
 9558      744C696E 
 9559              	.LC98:
 9560 02d7 48657849 		.string	"HexIO_testRoundTrip"
 9560      4F5F7465 
 9560      7374526F 
 9560      756E6454 
 9560      72697000 
 9561              	.LC99:
 9562 02eb 48657849 		.string	"HexIO_testDeriveWriteMap"
 9562      4F5F7465 
 9562      73744465 
 9562      72697665 
 9562      57726974 
 9563              		.section	.text.startup,"ax",@progbits
 9564              		.p2align 4
 9566              	_GLOBAL__sub_I_testHexIO_testValidDataLineInstance:
 9567              	.LFB1546:
 9568              		.cfi_startproc
 9569 0000 F30F1EFA 		endbr64
 9570 0004 4157     		pushq	%r15
 9571              		.cfi_def_cfa_offset 16
 9572              		.cfi_offset 15, -16
 9573 0006 4C8D3D00 		leaq	testHexIO_testValidDataLineInstance(%rip), %r15
 9573      000000
 9574 000d 41B81B00 		movl	$27, %r8d
 9574      0000
 9575 0013 488D3500 		leaq	.LC87(%rip), %rsi
 9575      000000
 9576 001a 4156     		pushq	%r14
 9577              		.cfi_def_cfa_offset 24
 9578              		.cfi_offset 14, -24
 9579 001c 4C8D3500 		leaq	.LC85(%rip), %r14
 9579      000000
 9580 0023 4C89FF   		movq	%r15, %rdi
 9581 0026 4155     		pushq	%r13
 9582              		.cfi_def_cfa_offset 32
 9583              		.cfi_offset 13, -32
 9584 0028 4C8D2D00 		leaq	.LC86(%rip), %r13
 9584      000000
 9585 002f 4C89F1   		movq	%r14, %rcx
 9586 0032 4154     		pushq	%r12
 9587              		.cfi_def_cfa_offset 40
 9588              		.cfi_offset 12, -40
 9589 0034 4C89EA   		movq	%r13, %rdx
 9590 0037 4C8D2500 		leaq	__dso_handle(%rip), %r12
 9590      000000
 9591 003e 4883EC08 		subq	$8, %rsp
 9592              		.cfi_def_cfa_offset 48
 9593 0042 E8000000 		call	_ZN8UnitTest4TestC2EPKcS2_S2_i@PLT
 9593      00
 9594 0047 4C89E2   		movq	%r12, %rdx
 9595 004a 4C89FE   		movq	%r15, %rsi
 9596 004d 488D3D00 		leaq	_ZN27TestHexIO_testValidDataLineD1Ev(%rip), %rdi
 9596      000000
 9597 0054 488D0500 		leaq	16+_ZTV27TestHexIO_testValidDataLine(%rip), %rax
 9597      000000
 9598 005b 48890500 		movq	%rax, testHexIO_testValidDataLineInstance(%rip)
 9598      000000
 9599 0062 E8000000 		call	__cxa_atexit@PLT
 9599      00
 9600 0067 E8000000 		call	_ZN8UnitTest4Test11GetTestListEv@PLT
 9600      00
 9601 006c 4C89FA   		movq	%r15, %rdx
 9602 006f 488D3D00 		leaq	adderHexIO_testValidDataLine(%rip), %rdi
 9602      000000
 9603 0076 4C8D3D00 		leaq	testHexIO_testValidEOFInstance(%rip), %r15
 9603      000000
 9604 007d 4889C6   		movq	%rax, %rsi
 9605 0080 E8000000 		call	_ZN8UnitTest9ListAdderC1ERNS_8TestListEPNS_4TestE@PLT
 9605      00
 9606 0085 4C89F1   		movq	%r14, %rcx
 9607 0088 4C89EA   		movq	%r13, %rdx
 9608 008b 4C89FF   		movq	%r15, %rdi
 9609 008e 41B83200 		movl	$50, %r8d
 9609      0000
 9610 0094 488D3500 		leaq	.LC88(%rip), %rsi
 9610      000000
 9611 009b E8000000 		call	_ZN8UnitTest4TestC2EPKcS2_S2_i@PLT
 9611      00
 9612 00a0 4C89E2   		movq	%r12, %rdx
 9613 00a3 4C89FE   		movq	%r15, %rsi
 9614 00a6 488D3D00 		leaq	_ZN22TestHexIO_testValidEOFD1Ev(%rip), %rdi
 9614      000000
 9615 00ad 488D0500 		leaq	16+_ZTV22TestHexIO_testValidEOF(%rip), %rax
 9615      000000
 9616 00b4 48890500 		movq	%rax, testHexIO_testValidEOFInstance(%rip)
 9616      000000
 9617 00bb E8000000 		call	__cxa_atexit@PLT
 9617      00
 9618 00c0 E8000000 		call	_ZN8UnitTest4Test11GetTestListEv@PLT
 9618      00
 9619 00c5 4C89FA   		movq	%r15, %rdx
 9620 00c8 488D3D00 		leaq	adderHexIO_testValidEOF(%rip), %rdi
 9620      000000
 9621 00cf 4C8D3D00 		leaq	testHexIO_testJunkStartCodeInstance(%rip), %r15
 9621      000000
 9622 00d6 4889C6   		movq	%rax, %rsi
 9623 00d9 E8000000 		call	_ZN8UnitTest9ListAdderC1ERNS_8TestListEPNS_4TestE@PLT
 9623      00
 9624 00de 4C89F1   		movq	%r14, %rcx
 9625 00e1 4C89EA   		movq	%r13, %rdx
 9626 00e4 4C89FF   		movq	%r15, %rdi
 9627 00e7 41B84500 		movl	$69, %r8d
 9627      0000
 9628 00ed 488D3500 		leaq	.LC89(%rip), %rsi
 9628      000000
 9629 00f4 E8000000 		call	_ZN8UnitTest4TestC2EPKcS2_S2_i@PLT
 9629      00
 9630 00f9 4C89E2   		movq	%r12, %rdx
 9631 00fc 4C89FE   		movq	%r15, %rsi
 9632 00ff 488D3D00 		leaq	_ZN27TestHexIO_testJunkStartCodeD1Ev(%rip), %rdi
 9632      000000
 9633 0106 488D0500 		leaq	16+_ZTV27TestHexIO_testJunkStartCode(%rip), %rax
 9633      000000
 9634 010d 48890500 		movq	%rax, testHexIO_testJunkStartCodeInstance(%rip)
 9634      000000
 9635 0114 E8000000 		call	__cxa_atexit@PLT
 9635      00
 9636 0119 E8000000 		call	_ZN8UnitTest4Test11GetTestListEv@PLT
 9636      00
 9637 011e 4C89FA   		movq	%r15, %rdx
 9638 0121 488D3D00 		leaq	adderHexIO_testJunkStartCode(%rip), %rdi
 9638      000000
 9639 0128 4C8D3D00 		leaq	testHexIO_testJunkByteCountInstance(%rip), %r15
 9639      000000
 9640 012f 4889C6   		movq	%rax, %rsi
 9641 0132 E8000000 		call	_ZN8UnitTest9ListAdderC1ERNS_8TestListEPNS_4TestE@PLT
 9641      00
 9642 0137 4C89F1   		movq	%r14, %rcx
 9643 013a 4C89EA   		movq	%r13, %rdx
 9644 013d 4C89FF   		movq	%r15, %rdi
 9645 0140 41B85200 		movl	$82, %r8d
 9645      0000
 9646 0146 488D3500 		leaq	.LC90(%rip), %rsi
 9646      000000
 9647 014d E8000000 		call	_ZN8UnitTest4TestC2EPKcS2_S2_i@PLT
 9647      00
 9648 0152 4C89E2   		movq	%r12, %rdx
 9649 0155 4C89FE   		movq	%r15, %rsi
 9650 0158 488D3D00 		leaq	_ZN27TestHexIO_testJunkByteCountD1Ev(%rip), %rdi
 9650      000000
 9651 015f 488D0500 		leaq	16+_ZTV27TestHexIO_testJunkByteCount(%rip), %rax
 9651      000000
 9652 0166 48890500 		movq	%rax, testHexIO_testJunkByteCountInstance(%rip)
 9652      000000
 9653 016d E8000000 		call	__cxa_atexit@PLT
 9653      00
 9654 0172 E8000000 		call	_ZN8UnitTest4Test11GetTestListEv@PLT
 9654      00
 9655 0177 4C89FA   		movq	%r15, %rdx
 9656 017a 488D3D00 		leaq	adderHexIO_testJunkByteCount(%rip), %rdi
 9656      000000
 9657 0181 4C8D3D00 		leaq	testHexIO_testJunkAddrMsbInstance(%rip), %r15
 9657      000000
 9658 0188 4889C6   		movq	%rax, %rsi
 9659 018b E8000000 		call	_ZN8UnitTest9ListAdderC1ERNS_8TestListEPNS_4TestE@PLT
 9659      00
 9660 0190 4C89F1   		movq	%r14, %rcx
 9661 0193 4C89EA   		movq	%r13, %rdx
 9662 0196 4C89FF   		movq	%r15, %rdi
 9663 0199 41B85F00 		movl	$95, %r8d
 9663      0000
 9664 019f 488D3500 		leaq	.LC91(%rip), %rsi
 9664      000000
 9665 01a6 E8000000 		call	_ZN8UnitTest4TestC2EPKcS2_S2_i@PLT
 9665      00
 9666 01ab 4C89E2   		movq	%r12, %rdx
 9667 01ae 4C89FE   		movq	%r15, %rsi
 9668 01b1 488D3D00 		leaq	_ZN25TestHexIO_testJunkAddrMsbD1Ev(%rip), %rdi
 9668      000000
 9669 01b8 488D0500 		leaq	16+_ZTV25TestHexIO_testJunkAddrMsb(%rip), %rax
 9669      000000
 9670 01bf 48890500 		movq	%rax, testHexIO_testJunkAddrMsbInstance(%rip)
 9670      000000
 9671 01c6 E8000000 		call	__cxa_atexit@PLT
 9671      00
 9672 01cb E8000000 		call	_ZN8UnitTest4Test11GetTestListEv@PLT
 9672      00
 9673 01d0 4C89FA   		movq	%r15, %rdx
 9674 01d3 488D3D00 		leaq	adderHexIO_testJunkAddrMsb(%rip), %rdi
 9674      000000
 9675 01da 4C8D3D00 		leaq	testHexIO_testJunkAddrLsbInstance(%rip), %r15
 9675      000000
 9676 01e1 4889C6   		movq	%rax, %rsi
 9677 01e4 E8000000 		call	_ZN8UnitTest9ListAdderC1ERNS_8TestListEPNS_4TestE@PLT
 9677      00
 9678 01e9 4C89F1   		movq	%r14, %rcx
 9679 01ec 4C89EA   		movq	%r13, %rdx
 9680 01ef 4C89FF   		movq	%r15, %rdi
 9681 01f2 41B86C00 		movl	$108, %r8d
 9681      0000
 9682 01f8 488D3500 		leaq	.LC92(%rip), %rsi
 9682      000000
 9683 01ff E8000000 		call	_ZN8UnitTest4TestC2EPKcS2_S2_i@PLT
 9683      00
 9684 0204 4C89E2   		movq	%r12, %rdx
 9685 0207 4C89FE   		movq	%r15, %rsi
 9686 020a 488D3D00 		leaq	_ZN25TestHexIO_testJunkAddrLsbD1Ev(%rip), %rdi
 9686      000000
 9687 0211 488D0500 		leaq	16+_ZTV25TestHexIO_testJunkAddrLsb(%rip), %rax
 9687      000000
 9688 0218 48890500 		movq	%rax, testHexIO_testJunkAddrLsbInstance(%rip)
 9688      000000
 9689 021f E8000000 		call	__cxa_atexit@PLT
 9689      00
 9690 0224 E8000000 		call	_ZN8UnitTest4Test11GetTestListEv@PLT
 9690      00
 9691 0229 4C89FA   		movq	%r15, %rdx
 9692 022c 488D3D00 		leaq	adderHexIO_testJunkAddrLsb(%rip), %rdi
 9692      000000
 9693 0233 4C8D3D00 		leaq	testHexIO_testJunkRecTypeInstance(%rip), %r15
 9693      000000
 9694 023a 4889C6   		movq	%rax, %rsi
 9695 023d E8000000 		call	_ZN8UnitTest9ListAdderC1ERNS_8TestListEPNS_4TestE@PLT
 9695      00
 9696 0242 4C89F1   		movq	%r14, %rcx
 9697 0245 4C89EA   		movq	%r13, %rdx
 9698 0248 4C89FF   		movq	%r15, %rdi
 9699 024b 41B87900 		movl	$121, %r8d
 9699      0000
 9700 0251 488D3500 		leaq	.LC93(%rip), %rsi
 9700      000000
 9701 0258 E8000000 		call	_ZN8UnitTest4TestC2EPKcS2_S2_i@PLT
 9701      00
 9702 025d 4C89E2   		movq	%r12, %rdx
 9703 0260 4C89FE   		movq	%r15, %rsi
 9704 0263 488D3D00 		leaq	_ZN25TestHexIO_testJunkRecTypeD1Ev(%rip), %rdi
 9704      000000
 9705 026a 488D0500 		leaq	16+_ZTV25TestHexIO_testJunkRecType(%rip), %rax
 9705      000000
 9706 0271 48890500 		movq	%rax, testHexIO_testJunkRecTypeInstance(%rip)
 9706      000000
 9707 0278 E8000000 		call	__cxa_atexit@PLT
 9707      00
 9708 027d E8000000 		call	_ZN8UnitTest4Test11GetTestListEv@PLT
 9708      00
 9709 0282 4C89FA   		movq	%r15, %rdx
 9710 0285 488D3D00 		leaq	adderHexIO_testJunkRecType(%rip), %rdi
 9710      000000
 9711 028c 4C8D3D00 		leaq	testHexIO_testJunkDataByteInstance(%rip), %r15
 9711      000000
 9712 0293 4889C6   		movq	%rax, %rsi
 9713 0296 E8000000 		call	_ZN8UnitTest9ListAdderC1ERNS_8TestListEPNS_4TestE@PLT
 9713      00
 9714 029b 4C89F1   		movq	%r14, %rcx
 9715 029e 4C89EA   		movq	%r13, %rdx
 9716 02a1 4C89FF   		movq	%r15, %rdi
 9717 02a4 41B88600 		movl	$134, %r8d
 9717      0000
 9718 02aa 488D3500 		leaq	.LC94(%rip), %rsi
 9718      000000
 9719 02b1 E8000000 		call	_ZN8UnitTest4TestC2EPKcS2_S2_i@PLT
 9719      00
 9720 02b6 4C89E2   		movq	%r12, %rdx
 9721 02b9 4C89FE   		movq	%r15, %rsi
 9722 02bc 488D3D00 		leaq	_ZN26TestHexIO_testJunkDataByteD1Ev(%rip), %rdi
 9722      000000
 9723 02c3 488D0500 		leaq	16+_ZTV26TestHexIO_testJunkDataByte(%rip), %rax
 9723      000000
 9724 02ca 48890500 		movq	%rax, testHexIO_testJunkDataByteInstance(%rip)
 9724      000000
 9725 02d1 E8000000 		call	__cxa_atexit@PLT
 9725      00
 9726 02d6 E8000000 		call	_ZN8UnitTest4Test11GetTestListEv@PLT
 9726      00
 9727 02db 4C89FA   		movq	%r15, %rdx
 9728 02de 488D3D00 		leaq	adderHexIO_testJunkDataByte(%rip), %rdi
 9728      000000
 9729 02e5 4C8D3D00 		leaq	testHexIO_testJunkChecksumInstance(%rip), %r15
 9729      000000
 9730 02ec 4889C6   		movq	%rax, %rsi
 9731 02ef E8000000 		call	_ZN8UnitTest9ListAdderC1ERNS_8TestListEPNS_4TestE@PLT
 9731      00
 9732 02f4 4C89F1   		movq	%r14, %rcx
 9733 02f7 4C89EA   		movq	%r13, %rdx
 9734 02fa 4C89FF   		movq	%r15, %rdi
 9735 02fd 41B89300 		movl	$147, %r8d
 9735      0000
 9736 0303 488D3500 		leaq	.LC95(%rip), %rsi
 9736      000000
 9737 030a E8000000 		call	_ZN8UnitTest4TestC2EPKcS2_S2_i@PLT
 9737      00
 9738 030f 4C89E2   		movq	%r12, %rdx
 9739 0312 4C89FE   		movq	%r15, %rsi
 9740 0315 488D3D00 		leaq	_ZN26TestHexIO_testJunkChecksumD1Ev(%rip), %rdi
 9740      000000
 9741 031c 488D0500 		leaq	16+_ZTV26TestHexIO_testJunkChecksum(%rip), %rax
 9741      000000
 9742 0323 48890500 		movq	%rax, testHexIO_testJunkChecksumInstance(%rip)
 9742      000000
 9743 032a E8000000 		call	__cxa_atexit@PLT
 9743      00
 9744 032f E8000000 		call	_ZN8UnitTest4Test11GetTestListEv@PLT
 9744      00
 9745 0334 4C89FA   		movq	%r15, %rdx
 9746 0337 488D3D00 		leaq	adderHexIO_testJunkChecksum(%rip), %rdi
 9746      000000
 9747 033e 4C8D3D00 		leaq	testHexIO_testBadChecksumInstance(%rip), %r15
 9747      000000
 9748 0345 4889C6   		movq	%rax, %rsi
 9749 0348 E8000000 		call	_ZN8UnitTest9ListAdderC1ERNS_8TestListEPNS_4TestE@PLT
 9749      00
 9750 034d 4C89F1   		movq	%r14, %rcx
 9751 0350 4C89EA   		movq	%r13, %rdx
 9752 0353 4C89FF   		movq	%r15, %rdi
 9753 0356 41B8A000 		movl	$160, %r8d
 9753      0000
 9754 035c 488D3500 		leaq	.LC96(%rip), %rsi
 9754      000000
 9755 0363 E8000000 		call	_ZN8UnitTest4TestC2EPKcS2_S2_i@PLT
 9755      00
 9756 0368 4C89E2   		movq	%r12, %rdx
 9757 036b 4C89FE   		movq	%r15, %rsi
 9758 036e 488D3D00 		leaq	_ZN25TestHexIO_testBadChecksumD1Ev(%rip), %rdi
 9758      000000
 9759 0375 488D0500 		leaq	16+_ZTV25TestHexIO_testBadChecksum(%rip), %rax
 9759      000000
 9760 037c 48890500 		movq	%rax, testHexIO_testBadChecksumInstance(%rip)
 9760      000000
 9761 0383 E8000000 		call	__cxa_atexit@PLT
 9761      00
 9762 0388 E8000000 		call	_ZN8UnitTest4Test11GetTestListEv@PLT
 9762      00
 9763 038d 4C89FA   		movq	%r15, %rdx
 9764 0390 488D3D00 		leaq	adderHexIO_testBadChecksum(%rip), %rdi
 9764      000000
 9765 0397 4C8D3D00 		leaq	testHexIO_testCorruptLineInstance(%rip), %r15
 9765      000000
 9766 039e 4889C6   		movq	%rax, %rsi
 9767 03a1 E8000000 		call	_ZN8UnitTest9ListAdderC1ERNS_8TestListEPNS_4TestE@PLT
 9767      00
 9768 03a6 4C89F1   		movq	%r14, %rcx
 9769 03a9 4C89EA   		movq	%r13, %rdx
 9770 03ac 4C89FF   		movq	%r15, %rdi
 9771 03af 41B8AD00 		movl	$173, %r8d
 9771      0000
 9772 03b5 488D3500 		leaq	.LC97(%rip), %rsi
 9772      000000
 9773 03bc E8000000 		call	_ZN8UnitTest4TestC2EPKcS2_S2_i@PLT
 9773      00
 9774 03c1 4C89E2   		movq	%r12, %rdx
 9775 03c4 4C89FE   		movq	%r15, %rsi
 9776 03c7 488D3D00 		leaq	_ZN25TestHexIO_testCorruptLineD1Ev(%rip), %rdi
 9776      000000
 9777 03ce 488D0500 		leaq	16+_ZTV25TestHexIO_testCorruptLine(%rip), %rax
 9777      000000
 9778 03d5 48890500 		movq	%rax, testHexIO_testCorruptLineInstance(%rip)
 9778      000000
 9779 03dc E8000000 		call	__cxa_atexit@PLT
 9779      00
 9780 03e1 E8000000 		call	_ZN8UnitTest4Test11GetTestListEv@PLT
 9780      00
 9781 03e6 4C89FA   		movq	%r15, %rdx
 9782 03e9 488D3D00 		leaq	adderHexIO_testCorruptLine(%rip), %rdi
 9782      000000
 9783 03f0 4C8D3D00 		leaq	testHexIO_testRoundTripInstance(%rip), %r15
 9783      000000
 9784 03f7 4889C6   		movq	%rax, %rsi
 9785 03fa E8000000 		call	_ZN8UnitTest9ListAdderC1ERNS_8TestListEPNS_4TestE@PLT
 9785      00
 9786 03ff 4C89F1   		movq	%r14, %rcx
 9787 0402 4C89EA   		movq	%r13, %rdx
 9788 0405 4C89FF   		movq	%r15, %rdi
 9789 0408 41B8F200 		movl	$242, %r8d
 9789      0000
 9790 040e 488D3500 		leaq	.LC98(%rip), %rsi
 9790      000000
 9791 0415 E8000000 		call	_ZN8UnitTest4TestC2EPKcS2_S2_i@PLT
 9791      00
 9792 041a 4C89E2   		movq	%r12, %rdx
 9793 041d 4C89FE   		movq	%r15, %rsi
 9794 0420 488D3D00 		leaq	_ZN23TestHexIO_testRoundTripD1Ev(%rip), %rdi
 9794      000000
 9795 0427 488D0500 		leaq	16+_ZTV23TestHexIO_testRoundTrip(%rip), %rax
 9795      000000
 9796 042e 48890500 		movq	%rax, testHexIO_testRoundTripInstance(%rip)
 9796      000000
 9797 0435 E8000000 		call	__cxa_atexit@PLT
 9797      00
 9798 043a E8000000 		call	_ZN8UnitTest4Test11GetTestListEv@PLT
 9798      00
 9799 043f 4C89FA   		movq	%r15, %rdx
 9800 0442 488D3D00 		leaq	adderHexIO_testRoundTrip(%rip), %rdi
 9800      000000
 9801 0449 4889C6   		movq	%rax, %rsi
 9802 044c E8000000 		call	_ZN8UnitTest9ListAdderC1ERNS_8TestListEPNS_4TestE@PLT
 9802      00
 9803 0451 4C89EA   		movq	%r13, %rdx
 9804 0454 4C89F1   		movq	%r14, %rcx
 9805 0457 4C8D2D00 		leaq	testHexIO_testDeriveWriteMapInstance(%rip), %r13
 9805      000000
 9806 045e 41B82F01 		movl	$303, %r8d
 9806      0000
 9807 0464 4C89EF   		movq	%r13, %rdi
 9808 0467 488D3500 		leaq	.LC99(%rip), %rsi
 9808      000000
 9809 046e E8000000 		call	_ZN8UnitTest4TestC2EPKcS2_S2_i@PLT
 9809      00
 9810 0473 4C89E2   		movq	%r12, %rdx
 9811 0476 4C89EE   		movq	%r13, %rsi
 9812 0479 488D3D00 		leaq	_ZN28TestHexIO_testDeriveWriteMapD1Ev(%rip), %rdi
 9812      000000
 9813 0480 488D0500 		leaq	16+_ZTV28TestHexIO_testDeriveWriteMap(%rip), %rax
 9813      000000
 9814 0487 48890500 		movq	%rax, testHexIO_testDeriveWriteMapInstance(%rip)
 9814      000000
 9815 048e E8000000 		call	__cxa_atexit@PLT
 9815      00
 9816 0493 E8000000 		call	_ZN8UnitTest4Test11GetTestListEv@PLT
 9816      00
 9817 0498 4883C408 		addq	$8, %rsp
 9818              		.cfi_def_cfa_offset 40
 9819 049c 4C89EA   		movq	%r13, %rdx
 9820 049f 488D3D00 		leaq	adderHexIO_testDeriveWriteMap(%rip), %rdi
 9820      000000
 9821 04a6 415C     		popq	%r12
 9822              		.cfi_def_cfa_offset 32
 9823 04a8 4889C6   		movq	%rax, %rsi
 9824 04ab 415D     		popq	%r13
 9825              		.cfi_def_cfa_offset 24
 9826 04ad 415E     		popq	%r14
 9827              		.cfi_def_cfa_offset 16
 9828 04af 415F     		popq	%r15
 9829              		.cfi_def_cfa_offset 8
 9830 04b1 E9000000 		jmp	_ZN8UnitTest9ListAdderC1ERNS_8TestListEPNS_4TestE@PLT
 9830      00
 9831              		.cfi_endproc
 9832              	.LFE1546:
 9834              		.section	.init_array,"aw"
 9835              		.align 8
 9836 0000 00000000 		.quad	_GLOBAL__sub_I_testHexIO_testValidDataLineInstance
 9836      00000000 
 9837              		.weak	_ZTSN8UnitTest15MemoryOutStreamE
 9838              		.section	.rodata._ZTSN8UnitTest15MemoryOutStreamE,"aG",@progbits,_ZTSN8UnitTest15MemoryOutStreamE,
 9839              		.align 16
 9842              	_ZTSN8UnitTest15MemoryOutStreamE:
 9843 0000 4E38556E 		.string	"N8UnitTest15MemoryOutStreamE"
 9843      69745465 
 9843      73743135 
 9843      4D656D6F 
 9843      72794F75 
 9844              		.weak	_ZTIN8UnitTest15MemoryOutStreamE
 9845              		.section	.data.rel.ro._ZTIN8UnitTest15MemoryOutStreamE,"awG",@progbits,_ZTIN8UnitTest15MemoryOutSt
 9846              		.align 8
 9849              	_ZTIN8UnitTest15MemoryOutStreamE:
 9850 0000 00000000 		.quad	_ZTVN10__cxxabiv120__si_class_type_infoE+16
 9850      00000000 
 9851 0008 00000000 		.quad	_ZTSN8UnitTest15MemoryOutStreamE
 9851      00000000 
 9852 0010 00000000 		.quad	_ZTINSt7__cxx1119basic_ostringstreamIcSt11char_traitsIcESaIcEEE
 9852      00000000 
 9853              		.weak	_ZTS27TestHexIO_testValidDataLine
 9854              		.section	.rodata._ZTS27TestHexIO_testValidDataLine,"aG",@progbits,_ZTS27TestHexIO_testValidDataLin
 9855              		.align 16
 9858              	_ZTS27TestHexIO_testValidDataLine:
 9859 0000 32375465 		.string	"27TestHexIO_testValidDataLine"
 9859      73744865 
 9859      78494F5F 
 9859      74657374 
 9859      56616C69 
 9860              		.weak	_ZTI27TestHexIO_testValidDataLine
 9861              		.section	.data.rel.ro._ZTI27TestHexIO_testValidDataLine,"awG",@progbits,_ZTI27TestHexIO_testValidD
 9862              		.align 8
 9865              	_ZTI27TestHexIO_testValidDataLine:
 9866 0000 00000000 		.quad	_ZTVN10__cxxabiv120__si_class_type_infoE+16
 9866      00000000 
 9867 0008 00000000 		.quad	_ZTS27TestHexIO_testValidDataLine
 9867      00000000 
 9868 0010 00000000 		.quad	_ZTIN8UnitTest4TestE
 9868      00000000 
 9869              		.weak	_ZTS22TestHexIO_testValidEOF
 9870              		.section	.rodata._ZTS22TestHexIO_testValidEOF,"aG",@progbits,_ZTS22TestHexIO_testValidEOF,comdat
 9871              		.align 16
 9874              	_ZTS22TestHexIO_testValidEOF:
 9875 0000 32325465 		.string	"22TestHexIO_testValidEOF"
 9875      73744865 
 9875      78494F5F 
 9875      74657374 
 9875      56616C69 
 9876              		.weak	_ZTI22TestHexIO_testValidEOF
 9877              		.section	.data.rel.ro._ZTI22TestHexIO_testValidEOF,"awG",@progbits,_ZTI22TestHexIO_testValidEOF,co
 9878              		.align 8
 9881              	_ZTI22TestHexIO_testValidEOF:
 9882 0000 00000000 		.quad	_ZTVN10__cxxabiv120__si_class_type_infoE+16
 9882      00000000 
 9883 0008 00000000 		.quad	_ZTS22TestHexIO_testValidEOF
 9883      00000000 
 9884 0010 00000000 		.quad	_ZTIN8UnitTest4TestE
 9884      00000000 
 9885              		.weak	_ZTS27TestHexIO_testJunkStartCode
 9886              		.section	.rodata._ZTS27TestHexIO_testJunkStartCode,"aG",@progbits,_ZTS27TestHexIO_testJunkStartCod
 9887              		.align 16
 9890              	_ZTS27TestHexIO_testJunkStartCode:
 9891 0000 32375465 		.string	"27TestHexIO_testJunkStartCode"
 9891      73744865 
 9891      78494F5F 
 9891      74657374 
 9891      4A756E6B 
 9892              		.weak	_ZTI27TestHexIO_testJunkStartCode
 9893              		.section	.data.rel.ro._ZTI27TestHexIO_testJunkStartCode,"awG",@progbits,_ZTI27TestHexIO_testJunkSt
 9894              		.align 8
 9897              	_ZTI27TestHexIO_testJunkStartCode:
 9898 0000 00000000 		.quad	_ZTVN10__cxxabiv120__si_class_type_infoE+16
 9898      00000000 
 9899 0008 00000000 		.quad	_ZTS27TestHexIO_testJunkStartCode
 9899      00000000 
 9900 0010 00000000 		.quad	_ZTIN8UnitTest4TestE
 9900      00000000 
 9901              		.weak	_ZTS27TestHexIO_testJunkByteCount
 9902              		.section	.rodata._ZTS27TestHexIO_testJunkByteCount,"aG",@progbits,_ZTS27TestHexIO_testJunkByteCoun
 9903              		.align 16
 9906              	_ZTS27TestHexIO_testJunkByteCount:
 9907 0000 32375465 		.string	"27TestHexIO_testJunkByteCount"
 9907      73744865 
 9907      78494F5F 
 9907      74657374 
 9907      4A756E6B 
 9908              		.weak	_ZTI27TestHexIO_testJunkByteCount
 9909              		.section	.data.rel.ro._ZTI27TestHexIO_testJunkByteCount,"awG",@progbits,_ZTI27TestHexIO_testJunkBy
 9910              		.align 8
 9913              	_ZTI27TestHexIO_testJunkByteCount:
 9914 0000 00000000 		.quad	_ZTVN10__cxxabiv120__si_class_type_infoE+16
 9914      00000000 
 9915 0008 00000000 		.quad	_ZTS27TestHexIO_testJunkByteCount
 9915      00000000 
 9916 0010 00000000 		.quad	_ZTIN8UnitTest4TestE
 9916      00000000 
 9917              		.weak	_ZTS25TestHexIO_testJunkAddrMsb
 9918              		.section	.rodata._ZTS25TestHexIO_testJunkAddrMsb,"aG",@progbits,_ZTS25TestHexIO_testJunkAddrMsb,co
 9919              		.align 16
 9922              	_ZTS25TestHexIO_testJunkAddrMsb:
 9923 0000 32355465 		.string	"25TestHexIO_testJunkAddrMsb"
 9923      73744865 
 9923      78494F5F 
 9923      74657374 
 9923      4A756E6B 
 9924              		.weak	_ZTI25TestHexIO_testJunkAddrMsb
 9925              		.section	.data.rel.ro._ZTI25TestHexIO_testJunkAddrMsb,"awG",@progbits,_ZTI25TestHexIO_testJunkAddr
 9926              		.align 8
 9929              	_ZTI25TestHexIO_testJunkAddrMsb:
 9930 0000 00000000 		.quad	_ZTVN10__cxxabiv120__si_class_type_infoE+16
 9930      00000000 
 9931 0008 00000000 		.quad	_ZTS25TestHexIO_testJunkAddrMsb
 9931      00000000 
 9932 0010 00000000 		.quad	_ZTIN8UnitTest4TestE
 9932      00000000 
 9933              		.weak	_ZTS25TestHexIO_testJunkAddrLsb
 9934              		.section	.rodata._ZTS25TestHexIO_testJunkAddrLsb,"aG",@progbits,_ZTS25TestHexIO_testJunkAddrLsb,co
 9935              		.align 16
 9938              	_ZTS25TestHexIO_testJunkAddrLsb:
 9939 0000 32355465 		.string	"25TestHexIO_testJunkAddrLsb"
 9939      73744865 
 9939      78494F5F 
 9939      74657374 
 9939      4A756E6B 
 9940              		.weak	_ZTI25TestHexIO_testJunkAddrLsb
 9941              		.section	.data.rel.ro._ZTI25TestHexIO_testJunkAddrLsb,"awG",@progbits,_ZTI25TestHexIO_testJunkAddr
 9942              		.align 8
 9945              	_ZTI25TestHexIO_testJunkAddrLsb:
 9946 0000 00000000 		.quad	_ZTVN10__cxxabiv120__si_class_type_infoE+16
 9946      00000000 
 9947 0008 00000000 		.quad	_ZTS25TestHexIO_testJunkAddrLsb
 9947      00000000 
 9948 0010 00000000 		.quad	_ZTIN8UnitTest4TestE
 9948      00000000 
 9949              		.weak	_ZTS25TestHexIO_testJunkRecType
 9950              		.section	.rodata._ZTS25TestHexIO_testJunkRecType,"aG",@progbits,_ZTS25TestHexIO_testJunkRecType,co
 9951              		.align 16
 9954              	_ZTS25TestHexIO_testJunkRecType:
 9955 0000 32355465 		.string	"25TestHexIO_testJunkRecType"
 9955      73744865 
 9955      78494F5F 
 9955      74657374 
 9955      4A756E6B 
 9956              		.weak	_ZTI25TestHexIO_testJunkRecType
 9957              		.section	.data.rel.ro._ZTI25TestHexIO_testJunkRecType,"awG",@progbits,_ZTI25TestHexIO_testJunkRecT
 9958              		.align 8
 9961              	_ZTI25TestHexIO_testJunkRecType:
 9962 0000 00000000 		.quad	_ZTVN10__cxxabiv120__si_class_type_infoE+16
 9962      00000000 
 9963 0008 00000000 		.quad	_ZTS25TestHexIO_testJunkRecType
 9963      00000000 
 9964 0010 00000000 		.quad	_ZTIN8UnitTest4TestE
 9964      00000000 
 9965              		.weak	_ZTS26TestHexIO_testJunkDataByte
 9966              		.section	.rodata._ZTS26TestHexIO_testJunkDataByte,"aG",@progbits,_ZTS26TestHexIO_testJunkDataByte,
 9967              		.align 16
 9970              	_ZTS26TestHexIO_testJunkDataByte:
 9971 0000 32365465 		.string	"26TestHexIO_testJunkDataByte"
 9971      73744865 
 9971      78494F5F 
 9971      74657374 
 9971      4A756E6B 
 9972              		.weak	_ZTI26TestHexIO_testJunkDataByte
 9973              		.section	.data.rel.ro._ZTI26TestHexIO_testJunkDataByte,"awG",@progbits,_ZTI26TestHexIO_testJunkDat
 9974              		.align 8
 9977              	_ZTI26TestHexIO_testJunkDataByte:
 9978 0000 00000000 		.quad	_ZTVN10__cxxabiv120__si_class_type_infoE+16
 9978      00000000 
 9979 0008 00000000 		.quad	_ZTS26TestHexIO_testJunkDataByte
 9979      00000000 
 9980 0010 00000000 		.quad	_ZTIN8UnitTest4TestE
 9980      00000000 
 9981              		.weak	_ZTS26TestHexIO_testJunkChecksum
 9982              		.section	.rodata._ZTS26TestHexIO_testJunkChecksum,"aG",@progbits,_ZTS26TestHexIO_testJunkChecksum,
 9983              		.align 16
 9986              	_ZTS26TestHexIO_testJunkChecksum:
 9987 0000 32365465 		.string	"26TestHexIO_testJunkChecksum"
 9987      73744865 
 9987      78494F5F 
 9987      74657374 
 9987      4A756E6B 
 9988              		.weak	_ZTI26TestHexIO_testJunkChecksum
 9989              		.section	.data.rel.ro._ZTI26TestHexIO_testJunkChecksum,"awG",@progbits,_ZTI26TestHexIO_testJunkChe
 9990              		.align 8
 9993              	_ZTI26TestHexIO_testJunkChecksum:
 9994 0000 00000000 		.quad	_ZTVN10__cxxabiv120__si_class_type_infoE+16
 9994      00000000 
 9995 0008 00000000 		.quad	_ZTS26TestHexIO_testJunkChecksum
 9995      00000000 
 9996 0010 00000000 		.quad	_ZTIN8UnitTest4TestE
 9996      00000000 
 9997              		.weak	_ZTS25TestHexIO_testBadChecksum
 9998              		.section	.rodata._ZTS25TestHexIO_testBadChecksum,"aG",@progbits,_ZTS25TestHexIO_testBadChecksum,co
 9999              		.align 16
 10002              	_ZTS25TestHexIO_testBadChecksum:
 10003 0000 32355465 		.string	"25TestHexIO_testBadChecksum"
 10003      73744865 
 10003      78494F5F 
 10003      74657374 
 10003      42616443 
 10004              		.weak	_ZTI25TestHexIO_testBadChecksum
 10005              		.section	.data.rel.ro._ZTI25TestHexIO_testBadChecksum,"awG",@progbits,_ZTI25TestHexIO_testBadCheck
 10006              		.align 8
 10009              	_ZTI25TestHexIO_testBadChecksum:
 10010 0000 00000000 		.quad	_ZTVN10__cxxabiv120__si_class_type_infoE+16
 10010      00000000 
 10011 0008 00000000 		.quad	_ZTS25TestHexIO_testBadChecksum
 10011      00000000 
 10012 0010 00000000 		.quad	_ZTIN8UnitTest4TestE
 10012      00000000 
 10013              		.weak	_ZTS25TestHexIO_testCorruptLine
 10014              		.section	.rodata._ZTS25TestHexIO_testCorruptLine,"aG",@progbits,_ZTS25TestHexIO_testCorruptLine,co
 10015              		.align 16
 10018              	_ZTS25TestHexIO_testCorruptLine:
 10019 0000 32355465 		.string	"25TestHexIO_testCorruptLine"
 10019      73744865 
 10019      78494F5F 
 10019      74657374 
 10019      436F7272 
 10020              		.weak	_ZTI25TestHexIO_testCorruptLine
 10021              		.section	.data.rel.ro._ZTI25TestHexIO_testCorruptLine,"awG",@progbits,_ZTI25TestHexIO_testCorruptL
 10022              		.align 8
 10025              	_ZTI25TestHexIO_testCorruptLine:
 10026 0000 00000000 		.quad	_ZTVN10__cxxabiv120__si_class_type_infoE+16
 10026      00000000 
 10027 0008 00000000 		.quad	_ZTS25TestHexIO_testCorruptLine
 10027      00000000 
 10028 0010 00000000 		.quad	_ZTIN8UnitTest4TestE
 10028      00000000 
 10029              		.weak	_ZTS23TestHexIO_testRoundTrip
 10030              		.section	.rodata._ZTS23TestHexIO_testRoundTrip,"aG",@progbits,_ZTS23TestHexIO_testRoundTrip,comdat
 10031              		.align 16
 10034              	_ZTS23TestHexIO_testRoundTrip:
 10035 0000 32335465 		.string	"23TestHexIO_testRoundTrip"
 10035      73744865 
 10035      78494F5F 
 10035      74657374 
 10035      526F756E 
 10036              		.weak	_ZTI23TestHexIO_testRoundTrip
 10037              		.section	.data.rel.ro._ZTI23TestHexIO_testRoundTrip,"awG",@progbits,_ZTI23TestHexIO_testRoundTrip,
 10038              		.align 8
 10041              	_ZTI23TestHexIO_testRoundTrip:
 10042 0000 00000000 		.quad	_ZTVN10__cxxabiv120__si_class_type_infoE+16
 10042      00000000 
 10043 0008 00000000 		.quad	_ZTS23TestHexIO_testRoundTrip
 10043      00000000 
 10044 0010 00000000 		.quad	_ZTIN8UnitTest4TestE
 10044      00000000 
 10045              		.weak	_ZTS28TestHexIO_testDeriveWriteMap
 10046              		.section	.rodata._ZTS28TestHexIO_testDeriveWriteMap,"aG",@progbits,_ZTS28TestHexIO_testDeriveWrite
 10047              		.align 16
 10050              	_ZTS28TestHexIO_testDeriveWriteMap:
 10051 0000 32385465 		.string	"28TestHexIO_testDeriveWriteMap"
 10051      73744865 
 10051      78494F5F 
 10051      74657374 
 10051      44657269 
 10052              		.weak	_ZTI28TestHexIO_testDeriveWriteMap
 10053              		.section	.data.rel.ro._ZTI28TestHexIO_testDeriveWriteMap,"awG",@progbits,_ZTI28TestHexIO_testDeriv
 10054              		.align 8
 10057              	_ZTI28TestHexIO_testDeriveWriteMap:
 10058 0000 00000000 		.quad	_ZTVN10__cxxabiv120__si_class_type_infoE+16
 10058      00000000 
 10059 0008 00000000 		.quad	_ZTS28TestHexIO_testDeriveWriteMap
 10059      00000000 
 10060 0010 00000000 		.quad	_ZTIN8UnitTest4TestE
 10060      00000000 
 10061              		.hidden	_ZTCN8UnitTest15MemoryOutStreamE0_So
 10062              		.weak	_ZTCN8UnitTest15MemoryOutStreamE0_So
 10063              		.section	.data.rel.ro._ZTCN8UnitTest15MemoryOutStreamE0_So,"awG",@progbits,_ZTVN8UnitTest15MemoryO
 10064              		.align 8
 10067              	_ZTCN8UnitTest15MemoryOutStreamE0_So:
 10068 0000 90000000 		.quad	144
 10068      00000000 
 10069 0008 00000000 		.quad	0
 10069      00000000 
 10070 0010 00000000 		.quad	_ZTISo
 10070      00000000 
 10071 0018 00000000 		.quad	0
 10071      00000000 
 10072 0020 00000000 		.quad	0
 10072      00000000 
 10073 0028 70FFFFFF 		.quad	-144
 10073      FFFFFFFF 
 10074 0030 70FFFFFF 		.quad	-144
 10074      FFFFFFFF 
 10075 0038 00000000 		.quad	_ZTISo
 10075      00000000 
 10076 0040 00000000 		.quad	0
 10076      00000000 
 10077 0048 00000000 		.quad	0
 10077      00000000 
 10078              		.hidden	_ZTCN8UnitTest15MemoryOutStreamE0_NSt7__cxx1119basic_ostringstreamIcSt11char_traitsIcESaIc
 10079              		.weak	_ZTCN8UnitTest15MemoryOutStreamE0_NSt7__cxx1119basic_ostringstreamIcSt11char_traitsIcESaIcEE
 10080              		.section	.data.rel.ro._ZTCN8UnitTest15MemoryOutStreamE0_NSt7__cxx1119basic_ostringstreamIcSt11char
 10081              		.align 8
 10084              	_ZTCN8UnitTest15MemoryOutStreamE0_NSt7__cxx1119basic_ostringstreamIcSt11char_traitsIcESaIcEEE:
 10085 0000 90000000 		.quad	144
 10085      00000000 
 10086 0008 00000000 		.quad	0
 10086      00000000 
 10087 0010 00000000 		.quad	_ZTINSt7__cxx1119basic_ostringstreamIcSt11char_traitsIcESaIcEEE
 10087      00000000 
 10088 0018 00000000 		.quad	0
 10088      00000000 
 10089 0020 00000000 		.quad	0
 10089      00000000 
 10090 0028 70FFFFFF 		.quad	-144
 10090      FFFFFFFF 
 10091 0030 70FFFFFF 		.quad	-144
 10091      FFFFFFFF 
 10092 0038 00000000 		.quad	_ZTINSt7__cxx1119basic_ostringstreamIcSt11char_traitsIcESaIcEEE
 10092      00000000 
 10093 0040 00000000 		.quad	0
 10093      00000000 
 10094 0048 00000000 		.quad	0
 10094      00000000 
 10095              		.weak	_ZTTN8UnitTest15MemoryOutStreamE
 10096              		.section	.data.rel.ro.local._ZTTN8UnitTest15MemoryOutStreamE,"awG",@progbits,_ZTVN8UnitTest15Memor
 10097              		.align 8
 10100              	_ZTTN8UnitTest15MemoryOutStreamE:
 10101 0000 00000000 		.quad	_ZTVN8UnitTest15MemoryOutStreamE+24
 10101      00000000 
 10102 0008 00000000 		.quad	_ZTCN8UnitTest15MemoryOutStreamE0_NSt7__cxx1119basic_ostringstreamIcSt11char_traitsIcESaIcEE
 10102      00000000 
 10103 0010 00000000 		.quad	_ZTCN8UnitTest15MemoryOutStreamE0_So+24
 10103      00000000 
 10104 0018 00000000 		.quad	_ZTCN8UnitTest15MemoryOutStreamE0_So+64
 10104      00000000 
 10105 0020 00000000 		.quad	_ZTCN8UnitTest15MemoryOutStreamE0_NSt7__cxx1119basic_ostringstreamIcSt11char_traitsIcESaIcEE
 10105      00000000 
 10106 0028 00000000 		.quad	_ZTVN8UnitTest15MemoryOutStreamE+64
 10106      00000000 
 10107              		.weak	_ZTVN8UnitTest15MemoryOutStreamE
 10108              		.section	.data.rel.ro.local._ZTVN8UnitTest15MemoryOutStreamE,"awG",@progbits,_ZTVN8UnitTest15Memor
 10109              		.align 8
 10112              	_ZTVN8UnitTest15MemoryOutStreamE:
 10113 0000 90000000 		.quad	144
 10113      00000000 
 10114 0008 00000000 		.quad	0
 10114      00000000 
 10115 0010 00000000 		.quad	_ZTIN8UnitTest15MemoryOutStreamE
 10115      00000000 
 10116 0018 00000000 		.quad	_ZN8UnitTest15MemoryOutStreamD1Ev
 10116      00000000 
 10117 0020 00000000 		.quad	_ZN8UnitTest15MemoryOutStreamD0Ev
 10117      00000000 
 10118 0028 70FFFFFF 		.quad	-144
 10118      FFFFFFFF 
 10119 0030 70FFFFFF 		.quad	-144
 10119      FFFFFFFF 
 10120 0038 00000000 		.quad	_ZTIN8UnitTest15MemoryOutStreamE
 10120      00000000 
 10121 0040 00000000 		.quad	_ZTv0_n24_N8UnitTest15MemoryOutStreamD1Ev
 10121      00000000 
 10122 0048 00000000 		.quad	_ZTv0_n24_N8UnitTest15MemoryOutStreamD0Ev
 10122      00000000 
 10123              		.weak	_ZTV27TestHexIO_testValidDataLine
 10124              		.section	.data.rel.ro.local._ZTV27TestHexIO_testValidDataLine,"awG",@progbits,_ZTV27TestHexIO_test
 10125              		.align 8
 10128              	_ZTV27TestHexIO_testValidDataLine:
 10129 0000 00000000 		.quad	0
 10129      00000000 
 10130 0008 00000000 		.quad	_ZTI27TestHexIO_testValidDataLine
 10130      00000000 
 10131 0010 00000000 		.quad	_ZN27TestHexIO_testValidDataLineD1Ev
 10131      00000000 
 10132 0018 00000000 		.quad	_ZN27TestHexIO_testValidDataLineD0Ev
 10132      00000000 
 10133 0020 00000000 		.quad	_ZNK27TestHexIO_testValidDataLine7RunImplEv
 10133      00000000 
 10134              		.weak	_ZTV22TestHexIO_testValidEOF
 10135              		.section	.data.rel.ro.local._ZTV22TestHexIO_testValidEOF,"awG",@progbits,_ZTV22TestHexIO_testValid
 10136              		.align 8
 10139              	_ZTV22TestHexIO_testValidEOF:
 10140 0000 00000000 		.quad	0
 10140      00000000 
 10141 0008 00000000 		.quad	_ZTI22TestHexIO_testValidEOF
 10141      00000000 
 10142 0010 00000000 		.quad	_ZN22TestHexIO_testValidEOFD1Ev
 10142      00000000 
 10143 0018 00000000 		.quad	_ZN22TestHexIO_testValidEOFD0Ev
 10143      00000000 
 10144 0020 00000000 		.quad	_ZNK22TestHexIO_testValidEOF7RunImplEv
 10144      00000000 
 10145              		.weak	_ZTV27TestHexIO_testJunkStartCode
 10146              		.section	.data.rel.ro.local._ZTV27TestHexIO_testJunkStartCode,"awG",@progbits,_ZTV27TestHexIO_test
 10147              		.align 8
 10150              	_ZTV27TestHexIO_testJunkStartCode:
 10151 0000 00000000 		.quad	0
 10151      00000000 
 10152 0008 00000000 		.quad	_ZTI27TestHexIO_testJunkStartCode
 10152      00000000 
 10153 0010 00000000 		.quad	_ZN27TestHexIO_testJunkStartCodeD1Ev
 10153      00000000 
 10154 0018 00000000 		.quad	_ZN27TestHexIO_testJunkStartCodeD0Ev
 10154      00000000 
 10155 0020 00000000 		.quad	_ZNK27TestHexIO_testJunkStartCode7RunImplEv
 10155      00000000 
 10156              		.weak	_ZTV27TestHexIO_testJunkByteCount
 10157              		.section	.data.rel.ro.local._ZTV27TestHexIO_testJunkByteCount,"awG",@progbits,_ZTV27TestHexIO_test
 10158              		.align 8
 10161              	_ZTV27TestHexIO_testJunkByteCount:
 10162 0000 00000000 		.quad	0
 10162      00000000 
 10163 0008 00000000 		.quad	_ZTI27TestHexIO_testJunkByteCount
 10163      00000000 
 10164 0010 00000000 		.quad	_ZN27TestHexIO_testJunkByteCountD1Ev
 10164      00000000 
 10165 0018 00000000 		.quad	_ZN27TestHexIO_testJunkByteCountD0Ev
 10165      00000000 
 10166 0020 00000000 		.quad	_ZNK27TestHexIO_testJunkByteCount7RunImplEv
 10166      00000000 
 10167              		.weak	_ZTV25TestHexIO_testJunkAddrMsb
 10168              		.section	.data.rel.ro.local._ZTV25TestHexIO_testJunkAddrMsb,"awG",@progbits,_ZTV25TestHexIO_testJu
 10169              		.align 8
 10172              	_ZTV25TestHexIO_testJunkAddrMsb:
 10173 0000 00000000 		.quad	0
 10173      00000000 
 10174 0008 00000000 		.quad	_ZTI25TestHexIO_testJunkAddrMsb
 10174      00000000 
 10175 0010 00000000 		.quad	_ZN25TestHexIO_testJunkAddrMsbD1Ev
 10175      00000000 
 10176 0018 00000000 		.quad	_ZN25TestHexIO_testJunkAddrMsbD0Ev
 10176      00000000 
 10177 0020 00000000 		.quad	_ZNK25TestHexIO_testJunkAddrMsb7RunImplEv
 10177      00000000 
 10178              		.weak	_ZTV25TestHexIO_testJunkAddrLsb
 10179              		.section	.data.rel.ro.local._ZTV25TestHexIO_testJunkAddrLsb,"awG",@progbits,_ZTV25TestHexIO_testJu
 10180              		.align 8
 10183              	_ZTV25TestHexIO_testJunkAddrLsb:
 10184 0000 00000000 		.quad	0
 10184      00000000 
 10185 0008 00000000 		.quad	_ZTI25TestHexIO_testJunkAddrLsb
 10185      00000000 
 10186 0010 00000000 		.quad	_ZN25TestHexIO_testJunkAddrLsbD1Ev
 10186      00000000 
 10187 0018 00000000 		.quad	_ZN25TestHexIO_testJunkAddrLsbD0Ev
 10187      00000000 
 10188 0020 00000000 		.quad	_ZNK25TestHexIO_testJunkAddrLsb7RunImplEv
 10188      00000000 
 10189              		.weak	_ZTV25TestHexIO_testJunkRecType
 10190              		.section	.data.rel.ro.local._ZTV25TestHexIO_testJunkRecType,"awG",@progbits,_ZTV25TestHexIO_testJu
 10191              		.align 8
 10194              	_ZTV25TestHexIO_testJunkRecType:
 10195 0000 00000000 		.quad	0
 10195      00000000 
 10196 0008 00000000 		.quad	_ZTI25TestHexIO_testJunkRecType
 10196      00000000 
 10197 0010 00000000 		.quad	_ZN25TestHexIO_testJunkRecTypeD1Ev
 10197      00000000 
 10198 0018 00000000 		.quad	_ZN25TestHexIO_testJunkRecTypeD0Ev
 10198      00000000 
 10199 0020 00000000 		.quad	_ZNK25TestHexIO_testJunkRecType7RunImplEv
 10199      00000000 
 10200              		.weak	_ZTV26TestHexIO_testJunkDataByte
 10201              		.section	.data.rel.ro.local._ZTV26TestHexIO_testJunkDataByte,"awG",@progbits,_ZTV26TestHexIO_testJ
 10202              		.align 8
 10205              	_ZTV26TestHexIO_testJunkDataByte:
 10206 0000 00000000 		.quad	0
 10206      00000000 
 10207 0008 00000000 		.quad	_ZTI26TestHexIO_testJunkDataByte
 10207      00000000 
 10208 0010 00000000 		.quad	_ZN26TestHexIO_testJunkDataByteD1Ev
 10208      00000000 
 10209 0018 00000000 		.quad	_ZN26TestHexIO_testJunkDataByteD0Ev
 10209      00000000 
 10210 0020 00000000 		.quad	_ZNK26TestHexIO_testJunkDataByte7RunImplEv
 10210      00000000 
 10211              		.weak	_ZTV26TestHexIO_testJunkChecksum
 10212              		.section	.data.rel.ro.local._ZTV26TestHexIO_testJunkChecksum,"awG",@progbits,_ZTV26TestHexIO_testJ
 10213              		.align 8
 10216              	_ZTV26TestHexIO_testJunkChecksum:
 10217 0000 00000000 		.quad	0
 10217      00000000 
 10218 0008 00000000 		.quad	_ZTI26TestHexIO_testJunkChecksum
 10218      00000000 
 10219 0010 00000000 		.quad	_ZN26TestHexIO_testJunkChecksumD1Ev
 10219      00000000 
 10220 0018 00000000 		.quad	_ZN26TestHexIO_testJunkChecksumD0Ev
 10220      00000000 
 10221 0020 00000000 		.quad	_ZNK26TestHexIO_testJunkChecksum7RunImplEv
 10221      00000000 
 10222              		.weak	_ZTV25TestHexIO_testBadChecksum
 10223              		.section	.data.rel.ro.local._ZTV25TestHexIO_testBadChecksum,"awG",@progbits,_ZTV25TestHexIO_testBa
 10224              		.align 8
 10227              	_ZTV25TestHexIO_testBadChecksum:
 10228 0000 00000000 		.quad	0
 10228      00000000 
 10229 0008 00000000 		.quad	_ZTI25TestHexIO_testBadChecksum
 10229      00000000 
 10230 0010 00000000 		.quad	_ZN25TestHexIO_testBadChecksumD1Ev
 10230      00000000 
 10231 0018 00000000 		.quad	_ZN25TestHexIO_testBadChecksumD0Ev
 10231      00000000 
 10232 0020 00000000 		.quad	_ZNK25TestHexIO_testBadChecksum7RunImplEv
 10232      00000000 
 10233              		.weak	_ZTV25TestHexIO_testCorruptLine
 10234              		.section	.data.rel.ro.local._ZTV25TestHexIO_testCorruptLine,"awG",@progbits,_ZTV25TestHexIO_testCo
 10235              		.align 8
 10238              	_ZTV25TestHexIO_testCorruptLine:
 10239 0000 00000000 		.quad	0
 10239      00000000 
 10240 0008 00000000 		.quad	_ZTI25TestHexIO_testCorruptLine
 10240      00000000 
 10241 0010 00000000 		.quad	_ZN25TestHexIO_testCorruptLineD1Ev
 10241      00000000 
 10242 0018 00000000 		.quad	_ZN25TestHexIO_testCorruptLineD0Ev
 10242      00000000 
 10243 0020 00000000 		.quad	_ZNK25TestHexIO_testCorruptLine7RunImplEv
 10243      00000000 
 10244              		.weak	_ZTV23TestHexIO_testRoundTrip
 10245              		.section	.data.rel.ro.local._ZTV23TestHexIO_testRoundTrip,"awG",@progbits,_ZTV23TestHexIO_testRoun
 10246              		.align 8
 10249              	_ZTV23TestHexIO_testRoundTrip:
 10250 0000 00000000 		.quad	0
 10250      00000000 
 10251 0008 00000000 		.quad	_ZTI23TestHexIO_testRoundTrip
 10251      00000000 
 10252 0010 00000000 		.quad	_ZN23TestHexIO_testRoundTripD1Ev
 10252      00000000 
 10253 0018 00000000 		.quad	_ZN23TestHexIO_testRoundTripD0Ev
 10253      00000000 
 10254 0020 00000000 		.quad	_ZNK23TestHexIO_testRoundTrip7RunImplEv
 10254      00000000 
 10255              		.weak	_ZTV28TestHexIO_testDeriveWriteMap
 10256              		.section	.data.rel.ro.local._ZTV28TestHexIO_testDeriveWriteMap,"awG",@progbits,_ZTV28TestHexIO_tes
 10257              		.align 8
 10260              	_ZTV28TestHexIO_testDeriveWriteMap:
 10261 0000 00000000 		.quad	0
 10261      00000000 
 10262 0008 00000000 		.quad	_ZTI28TestHexIO_testDeriveWriteMap
 10262      00000000 
 10263 0010 00000000 		.quad	_ZN28TestHexIO_testDeriveWriteMapD1Ev
 10263      00000000 
 10264 0018 00000000 		.quad	_ZN28TestHexIO_testDeriveWriteMapD0Ev
 10264      00000000 
 10265 0020 00000000 		.quad	_ZNK28TestHexIO_testDeriveWriteMap7RunImplEv
 10265      00000000 
 10266              		.globl	adderHexIO_testDeriveWriteMap
 10267              		.bss
 10270              	adderHexIO_testDeriveWriteMap:
 10271 0000 00       		.zero	1
 10272              		.globl	testHexIO_testDeriveWriteMapInstance
 10273 0001 00000000 		.align 32
 10273      00000000 
 10273      00000000 
 10273      00000000 
 10273      00000000 
 10276              	testHexIO_testDeriveWriteMapInstance:
 10277 0020 00000000 		.zero	56
 10277      00000000 
 10277      00000000 
 10277      00000000 
 10277      00000000 
 10278              		.globl	adderHexIO_testRoundTrip
 10281              	adderHexIO_testRoundTrip:
 10282 0058 00       		.zero	1
 10283              		.globl	testHexIO_testRoundTripInstance
 10284 0059 00000000 		.align 32
 10284      000000
 10287              	testHexIO_testRoundTripInstance:
 10288 0060 00000000 		.zero	56
 10288      00000000 
 10288      00000000 
 10288      00000000 
 10288      00000000 
 10289              		.globl	adderHexIO_testCorruptLine
 10292              	adderHexIO_testCorruptLine:
 10293 0098 00       		.zero	1
 10294              		.globl	testHexIO_testCorruptLineInstance
 10295 0099 00000000 		.align 32
 10295      000000
 10298              	testHexIO_testCorruptLineInstance:
 10299 00a0 00000000 		.zero	56
 10299      00000000 
 10299      00000000 
 10299      00000000 
 10299      00000000 
 10300              		.globl	adderHexIO_testBadChecksum
 10303              	adderHexIO_testBadChecksum:
 10304 00d8 00       		.zero	1
 10305              		.globl	testHexIO_testBadChecksumInstance
 10306 00d9 00000000 		.align 32
 10306      000000
 10309              	testHexIO_testBadChecksumInstance:
 10310 00e0 00000000 		.zero	56
 10310      00000000 
 10310      00000000 
 10310      00000000 
 10310      00000000 
 10311              		.globl	adderHexIO_testJunkChecksum
 10314              	adderHexIO_testJunkChecksum:
 10315 0118 00       		.zero	1
 10316              		.globl	testHexIO_testJunkChecksumInstance
 10317 0119 00000000 		.align 32
 10317      000000
 10320              	testHexIO_testJunkChecksumInstance:
 10321 0120 00000000 		.zero	56
 10321      00000000 
 10321      00000000 
 10321      00000000 
 10321      00000000 
 10322              		.globl	adderHexIO_testJunkDataByte
 10325              	adderHexIO_testJunkDataByte:
 10326 0158 00       		.zero	1
 10327              		.globl	testHexIO_testJunkDataByteInstance
 10328 0159 00000000 		.align 32
 10328      000000
 10331              	testHexIO_testJunkDataByteInstance:
 10332 0160 00000000 		.zero	56
 10332      00000000 
 10332      00000000 
 10332      00000000 
 10332      00000000 
 10333              		.globl	adderHexIO_testJunkRecType
 10336              	adderHexIO_testJunkRecType:
 10337 0198 00       		.zero	1
 10338              		.globl	testHexIO_testJunkRecTypeInstance
 10339 0199 00000000 		.align 32
 10339      000000
 10342              	testHexIO_testJunkRecTypeInstance:
 10343 01a0 00000000 		.zero	56
 10343      00000000 
 10343      00000000 
 10343      00000000 
 10343      00000000 
 10344              		.globl	adderHexIO_testJunkAddrLsb
 10347              	adderHexIO_testJunkAddrLsb:
 10348 01d8 00       		.zero	1
 10349              		.globl	testHexIO_testJunkAddrLsbInstance
 10350 01d9 00000000 		.align 32
 10350      000000
 10353              	testHexIO_testJunkAddrLsbInstance:
 10354 01e0 00000000 		.zero	56
 10354      00000000 
 10354      00000000 
 10354      00000000 
 10354      00000000 
 10355              		.globl	adderHexIO_testJunkAddrMsb
 10358              	adderHexIO_testJunkAddrMsb:
 10359 0218 00       		.zero	1
 10360              		.globl	testHexIO_testJunkAddrMsbInstance
 10361 0219 00000000 		.align 32
 10361      000000
 10364              	testHexIO_testJunkAddrMsbInstance:
 10365 0220 00000000 		.zero	56
 10365      00000000 
 10365      00000000 
 10365      00000000 
 10365      00000000 
 10366              		.globl	adderHexIO_testJunkByteCount
 10369              	adderHexIO_testJunkByteCount:
 10370 0258 00       		.zero	1
 10371              		.globl	testHexIO_testJunkByteCountInstance
 10372 0259 00000000 		.align 32
 10372      000000
 10375              	testHexIO_testJunkByteCountInstance:
 10376 0260 00000000 		.zero	56
 10376      00000000 
 10376      00000000 
 10376      00000000 
 10376      00000000 
 10377              		.globl	adderHexIO_testJunkStartCode
 10380              	adderHexIO_testJunkStartCode:
 10381 0298 00       		.zero	1
 10382              		.globl	testHexIO_testJunkStartCodeInstance
 10383 0299 00000000 		.align 32
 10383      000000
 10386              	testHexIO_testJunkStartCodeInstance:
 10387 02a0 00000000 		.zero	56
 10387      00000000 
 10387      00000000 
 10387      00000000 
 10387      00000000 
 10388              		.globl	adderHexIO_testValidEOF
 10391              	adderHexIO_testValidEOF:
 10392 02d8 00       		.zero	1
 10393              		.globl	testHexIO_testValidEOFInstance
 10394 02d9 00000000 		.align 32
 10394      000000
 10397              	testHexIO_testValidEOFInstance:
 10398 02e0 00000000 		.zero	56
 10398      00000000 
 10398      00000000 
 10398      00000000 
 10398      00000000 
 10399              		.globl	adderHexIO_testValidDataLine
 10402              	adderHexIO_testValidDataLine:
 10403 0318 00       		.zero	1
 10404              		.globl	testHexIO_testValidDataLineInstance
 10405 0319 00000000 		.align 32
 10405      000000
 10408              	testHexIO_testValidDataLineInstance:
 10409 0320 00000000 		.zero	56
 10409      00000000 
 10409      00000000 
 10409      00000000 
 10409      00000000 
 10410              		.section	.data.rel.ro.local,"aw"
 10411              		.align 8
 10412              	.LC2:
 10413 0000 00000000 		.quad	_ZTCN8UnitTest15MemoryOutStreamE0_NSt7__cxx1119basic_ostringstreamIcSt11char_traitsIcESaIcEE
 10413      00000000 
 10414              		.section	.data.rel.ro,"aw"
 10415              		.align 8
 10416              	.LC3:
 10417 0000 00000000 		.quad	_ZTVSt15basic_streambufIcSt11char_traitsIcEE+16
 10417      00000000 
 10418              		.align 8
 10419              	.LC4:
 10420 0008 00000000 		.quad	_ZTVNSt7__cxx1115basic_stringbufIcSt11char_traitsIcESaIcEEE+16
 10420      00000000 
 10421              		.hidden	DW.ref.__gxx_personality_v0
 10422              		.weak	DW.ref.__gxx_personality_v0
 10423              		.section	.data.rel.local.DW.ref.__gxx_personality_v0,"awG",@progbits,DW.ref.__gxx_personality_v0,c
 10424              		.align 8
 10427              	DW.ref.__gxx_personality_v0:
 10428 0000 00000000 		.quad	__gxx_personality_v0
 10428      00000000 
 10429              		.hidden	__dso_handle
 10430              		.ident	"GCC: (Ubuntu 11.3.0-1ubuntu1~22.04) 11.3.0"
 10431              		.section	.note.GNU-stack,"",@progbits
 10432              		.section	.note.gnu.property,"a"
 10433              		.align 8
 10434 0000 04000000 		.long	1f - 0f
 10435 0004 10000000 		.long	4f - 1f
 10436 0008 05000000 		.long	5
 10437              	0:
 10438 000c 474E5500 		.string	"GNU"
 10439              	1:
 10440              		.align 8
 10441 0010 020000C0 		.long	0xc0000002
 10442 0014 04000000 		.long	3f - 2f
 10443              	2:
 10444 0018 03000000 		.long	0x3
 10445              	3:
 10446 001c 00000000 		.align 8
 10447              	4:
DEFINED SYMBOLS
                            *ABS*:0000000000000000 testHexIO.cpp
     /tmp/ccQY0zWt.s:8      .text._ZN28TestHexIO_testDeriveWriteMapD2Ev:0000000000000000 _ZN28TestHexIO_testDeriveWriteMapD2Ev
     /tmp/ccQY0zWt.s:10260  .data.rel.ro.local._ZTV28TestHexIO_testDeriveWriteMap:0000000000000000 _ZTV28TestHexIO_testDeriveWriteMap
     /tmp/ccQY0zWt.s:8      .text._ZN28TestHexIO_testDeriveWriteMapD2Ev:0000000000000000 _ZN28TestHexIO_testDeriveWriteMapD1Ev
     /tmp/ccQY0zWt.s:25     .text._ZN28TestHexIO_testDeriveWriteMapD0Ev:0000000000000000 _ZN28TestHexIO_testDeriveWriteMapD0Ev
     /tmp/ccQY0zWt.s:10427  .data.rel.local.DW.ref.__gxx_personality_v0:0000000000000000 DW.ref.__gxx_personality_v0
     /tmp/ccQY0zWt.s:91     .text._ZN23TestHexIO_testRoundTripD2Ev:0000000000000000 _ZN23TestHexIO_testRoundTripD2Ev
     /tmp/ccQY0zWt.s:10249  .data.rel.ro.local._ZTV23TestHexIO_testRoundTrip:0000000000000000 _ZTV23TestHexIO_testRoundTrip
     /tmp/ccQY0zWt.s:91     .text._ZN23TestHexIO_testRoundTripD2Ev:0000000000000000 _ZN23TestHexIO_testRoundTripD1Ev
     /tmp/ccQY0zWt.s:108    .text._ZN23TestHexIO_testRoundTripD0Ev:0000000000000000 _ZN23TestHexIO_testRoundTripD0Ev
     /tmp/ccQY0zWt.s:173    .text._ZN25TestHexIO_testCorruptLineD2Ev:0000000000000000 _ZN25TestHexIO_testCorruptLineD2Ev
     /tmp/ccQY0zWt.s:10238  .data.rel.ro.local._ZTV25TestHexIO_testCorruptLine:0000000000000000 _ZTV25TestHexIO_testCorruptLine
     /tmp/ccQY0zWt.s:173    .text._ZN25TestHexIO_testCorruptLineD2Ev:0000000000000000 _ZN25TestHexIO_testCorruptLineD1Ev
     /tmp/ccQY0zWt.s:190    .text._ZN25TestHexIO_testCorruptLineD0Ev:0000000000000000 _ZN25TestHexIO_testCorruptLineD0Ev
     /tmp/ccQY0zWt.s:255    .text._ZN25TestHexIO_testBadChecksumD2Ev:0000000000000000 _ZN25TestHexIO_testBadChecksumD2Ev
     /tmp/ccQY0zWt.s:10227  .data.rel.ro.local._ZTV25TestHexIO_testBadChecksum:0000000000000000 _ZTV25TestHexIO_testBadChecksum
     /tmp/ccQY0zWt.s:255    .text._ZN25TestHexIO_testBadChecksumD2Ev:0000000000000000 _ZN25TestHexIO_testBadChecksumD1Ev
     /tmp/ccQY0zWt.s:272    .text._ZN25TestHexIO_testBadChecksumD0Ev:0000000000000000 _ZN25TestHexIO_testBadChecksumD0Ev
     /tmp/ccQY0zWt.s:337    .text._ZN26TestHexIO_testJunkChecksumD2Ev:0000000000000000 _ZN26TestHexIO_testJunkChecksumD2Ev
     /tmp/ccQY0zWt.s:10216  .data.rel.ro.local._ZTV26TestHexIO_testJunkChecksum:0000000000000000 _ZTV26TestHexIO_testJunkChecksum
     /tmp/ccQY0zWt.s:337    .text._ZN26TestHexIO_testJunkChecksumD2Ev:0000000000000000 _ZN26TestHexIO_testJunkChecksumD1Ev
     /tmp/ccQY0zWt.s:354    .text._ZN26TestHexIO_testJunkChecksumD0Ev:0000000000000000 _ZN26TestHexIO_testJunkChecksumD0Ev
     /tmp/ccQY0zWt.s:419    .text._ZN26TestHexIO_testJunkDataByteD2Ev:0000000000000000 _ZN26TestHexIO_testJunkDataByteD2Ev
     /tmp/ccQY0zWt.s:10205  .data.rel.ro.local._ZTV26TestHexIO_testJunkDataByte:0000000000000000 _ZTV26TestHexIO_testJunkDataByte
     /tmp/ccQY0zWt.s:419    .text._ZN26TestHexIO_testJunkDataByteD2Ev:0000000000000000 _ZN26TestHexIO_testJunkDataByteD1Ev
     /tmp/ccQY0zWt.s:436    .text._ZN26TestHexIO_testJunkDataByteD0Ev:0000000000000000 _ZN26TestHexIO_testJunkDataByteD0Ev
     /tmp/ccQY0zWt.s:501    .text._ZN25TestHexIO_testJunkRecTypeD2Ev:0000000000000000 _ZN25TestHexIO_testJunkRecTypeD2Ev
     /tmp/ccQY0zWt.s:10194  .data.rel.ro.local._ZTV25TestHexIO_testJunkRecType:0000000000000000 _ZTV25TestHexIO_testJunkRecType
     /tmp/ccQY0zWt.s:501    .text._ZN25TestHexIO_testJunkRecTypeD2Ev:0000000000000000 _ZN25TestHexIO_testJunkRecTypeD1Ev
     /tmp/ccQY0zWt.s:518    .text._ZN25TestHexIO_testJunkRecTypeD0Ev:0000000000000000 _ZN25TestHexIO_testJunkRecTypeD0Ev
     /tmp/ccQY0zWt.s:583    .text._ZN25TestHexIO_testJunkAddrLsbD2Ev:0000000000000000 _ZN25TestHexIO_testJunkAddrLsbD2Ev
     /tmp/ccQY0zWt.s:10183  .data.rel.ro.local._ZTV25TestHexIO_testJunkAddrLsb:0000000000000000 _ZTV25TestHexIO_testJunkAddrLsb
     /tmp/ccQY0zWt.s:583    .text._ZN25TestHexIO_testJunkAddrLsbD2Ev:0000000000000000 _ZN25TestHexIO_testJunkAddrLsbD1Ev
     /tmp/ccQY0zWt.s:600    .text._ZN25TestHexIO_testJunkAddrLsbD0Ev:0000000000000000 _ZN25TestHexIO_testJunkAddrLsbD0Ev
     /tmp/ccQY0zWt.s:665    .text._ZN25TestHexIO_testJunkAddrMsbD2Ev:0000000000000000 _ZN25TestHexIO_testJunkAddrMsbD2Ev
     /tmp/ccQY0zWt.s:10172  .data.rel.ro.local._ZTV25TestHexIO_testJunkAddrMsb:0000000000000000 _ZTV25TestHexIO_testJunkAddrMsb
     /tmp/ccQY0zWt.s:665    .text._ZN25TestHexIO_testJunkAddrMsbD2Ev:0000000000000000 _ZN25TestHexIO_testJunkAddrMsbD1Ev
     /tmp/ccQY0zWt.s:682    .text._ZN25TestHexIO_testJunkAddrMsbD0Ev:0000000000000000 _ZN25TestHexIO_testJunkAddrMsbD0Ev
     /tmp/ccQY0zWt.s:747    .text._ZN27TestHexIO_testJunkByteCountD2Ev:0000000000000000 _ZN27TestHexIO_testJunkByteCountD2Ev
     /tmp/ccQY0zWt.s:10161  .data.rel.ro.local._ZTV27TestHexIO_testJunkByteCount:0000000000000000 _ZTV27TestHexIO_testJunkByteCount
     /tmp/ccQY0zWt.s:747    .text._ZN27TestHexIO_testJunkByteCountD2Ev:0000000000000000 _ZN27TestHexIO_testJunkByteCountD1Ev
     /tmp/ccQY0zWt.s:764    .text._ZN27TestHexIO_testJunkByteCountD0Ev:0000000000000000 _ZN27TestHexIO_testJunkByteCountD0Ev
     /tmp/ccQY0zWt.s:829    .text._ZN27TestHexIO_testJunkStartCodeD2Ev:0000000000000000 _ZN27TestHexIO_testJunkStartCodeD2Ev
     /tmp/ccQY0zWt.s:10150  .data.rel.ro.local._ZTV27TestHexIO_testJunkStartCode:0000000000000000 _ZTV27TestHexIO_testJunkStartCode
     /tmp/ccQY0zWt.s:829    .text._ZN27TestHexIO_testJunkStartCodeD2Ev:0000000000000000 _ZN27TestHexIO_testJunkStartCodeD1Ev
     /tmp/ccQY0zWt.s:846    .text._ZN27TestHexIO_testJunkStartCodeD0Ev:0000000000000000 _ZN27TestHexIO_testJunkStartCodeD0Ev
     /tmp/ccQY0zWt.s:911    .text._ZN22TestHexIO_testValidEOFD2Ev:0000000000000000 _ZN22TestHexIO_testValidEOFD2Ev
     /tmp/ccQY0zWt.s:10139  .data.rel.ro.local._ZTV22TestHexIO_testValidEOF:0000000000000000 _ZTV22TestHexIO_testValidEOF
     /tmp/ccQY0zWt.s:911    .text._ZN22TestHexIO_testValidEOFD2Ev:0000000000000000 _ZN22TestHexIO_testValidEOFD1Ev
     /tmp/ccQY0zWt.s:928    .text._ZN22TestHexIO_testValidEOFD0Ev:0000000000000000 _ZN22TestHexIO_testValidEOFD0Ev
     /tmp/ccQY0zWt.s:993    .text._ZN27TestHexIO_testValidDataLineD2Ev:0000000000000000 _ZN27TestHexIO_testValidDataLineD2Ev
     /tmp/ccQY0zWt.s:10128  .data.rel.ro.local._ZTV27TestHexIO_testValidDataLine:0000000000000000 _ZTV27TestHexIO_testValidDataLine
     /tmp/ccQY0zWt.s:993    .text._ZN27TestHexIO_testValidDataLineD2Ev:0000000000000000 _ZN27TestHexIO_testValidDataLineD1Ev
     /tmp/ccQY0zWt.s:1010   .text._ZN27TestHexIO_testValidDataLineD0Ev:0000000000000000 _ZN27TestHexIO_testValidDataLineD0Ev
     /tmp/ccQY0zWt.s:1075   .text._ZN8UnitTest15MemoryOutStreamD1Ev:0000000000000000 _ZN8UnitTest15MemoryOutStreamD1Ev
     /tmp/ccQY0zWt.s:10112  .data.rel.ro.local._ZTVN8UnitTest15MemoryOutStreamE:0000000000000000 _ZTVN8UnitTest15MemoryOutStreamE
     /tmp/ccQY0zWt.s:10084  .data.rel.ro._ZTCN8UnitTest15MemoryOutStreamE0_NSt7__cxx1119basic_ostringstreamIcSt11char_traitsIcESaIcEEE:0000000000000000 _ZTCN8UnitTest15MemoryOutStreamE0_NSt7__cxx1119basic_ostringstreamIcSt11char_traitsIcESaIcEEE
     /tmp/ccQY0zWt.s:10067  .data.rel.ro._ZTCN8UnitTest15MemoryOutStreamE0_So:0000000000000000 _ZTCN8UnitTest15MemoryOutStreamE0_So
     /tmp/ccQY0zWt.s:1135   .text._ZN8UnitTest15MemoryOutStreamD1Ev:00000000000000c0 _ZTv0_n24_N8UnitTest15MemoryOutStreamD1Ev
     /tmp/ccQY0zWt.s:1199   .text._ZN8UnitTest15MemoryOutStreamD0Ev:0000000000000000 _ZN8UnitTest15MemoryOutStreamD0Ev
     /tmp/ccQY0zWt.s:1294   .text._ZN8UnitTest15MemoryOutStreamD0Ev:00000000000000e0 _ZTv0_n24_N8UnitTest15MemoryOutStreamD0Ev
     /tmp/ccQY0zWt.s:1393   .text._ZNSt7__cxx1115basic_stringbufIcSt11char_traitsIcESaIcEED2Ev:0000000000000000 _ZNSt7__cxx1115basic_stringbufIcSt11char_traitsIcESaIcEED2Ev
     /tmp/ccQY0zWt.s:1393   .text._ZNSt7__cxx1115basic_stringbufIcSt11char_traitsIcESaIcEED2Ev:0000000000000000 _ZNSt7__cxx1115basic_stringbufIcSt11char_traitsIcESaIcEED1Ev
     /tmp/ccQY0zWt.s:1425   .text._ZNSt7__cxx1115basic_stringbufIcSt11char_traitsIcESaIcEED0Ev:0000000000000000 _ZNSt7__cxx1115basic_stringbufIcSt11char_traitsIcESaIcEED0Ev
     /tmp/ccQY0zWt.s:1461   .text._ZN8UnitTest10CheckEqualI12BufferStatusS1_EEvRNS_11TestResultsERKT_RKT0_RKNS_11TestDetailsE:0000000000000000 _ZN8UnitTest10CheckEqualI12BufferStatusS1_EEvRNS_11TestResultsERKT_RKT0_RKNS_11TestDetailsE
     /tmp/ccQY0zWt.s:1725   .text:0000000000000000 _ZNK27TestHexIO_testJunkStartCode7RunImplEv
     /tmp/ccQY0zWt.s:1876   .text.unlikely:0000000000000000 _ZNK27TestHexIO_testJunkStartCode7RunImplEv.cold
     /tmp/ccQY0zWt.s:2004   .text:0000000000000120 _ZNK27TestHexIO_testJunkByteCount7RunImplEv
     /tmp/ccQY0zWt.s:2155   .text.unlikely:00000000000000aa _ZNK27TestHexIO_testJunkByteCount7RunImplEv.cold
     /tmp/ccQY0zWt.s:2283   .text:0000000000000240 _ZNK25TestHexIO_testJunkAddrMsb7RunImplEv
     /tmp/ccQY0zWt.s:2434   .text.unlikely:0000000000000154 _ZNK25TestHexIO_testJunkAddrMsb7RunImplEv.cold
     /tmp/ccQY0zWt.s:2562   .text:0000000000000360 _ZNK25TestHexIO_testJunkAddrLsb7RunImplEv
     /tmp/ccQY0zWt.s:2713   .text.unlikely:00000000000001fe _ZNK25TestHexIO_testJunkAddrLsb7RunImplEv.cold
     /tmp/ccQY0zWt.s:2841   .text:0000000000000480 _ZNK25TestHexIO_testJunkRecType7RunImplEv
     /tmp/ccQY0zWt.s:2992   .text.unlikely:00000000000002a8 _ZNK25TestHexIO_testJunkRecType7RunImplEv.cold
     /tmp/ccQY0zWt.s:3120   .text:00000000000005a0 _ZNK26TestHexIO_testJunkDataByte7RunImplEv
     /tmp/ccQY0zWt.s:3271   .text.unlikely:0000000000000352 _ZNK26TestHexIO_testJunkDataByte7RunImplEv.cold
     /tmp/ccQY0zWt.s:3399   .text:00000000000006c0 _ZNK26TestHexIO_testJunkChecksum7RunImplEv
     /tmp/ccQY0zWt.s:3550   .text.unlikely:00000000000003fc _ZNK26TestHexIO_testJunkChecksum7RunImplEv.cold
     /tmp/ccQY0zWt.s:3678   .text:00000000000007e0 _ZNK25TestHexIO_testBadChecksum7RunImplEv
     /tmp/ccQY0zWt.s:3829   .text.unlikely:00000000000004a6 _ZNK25TestHexIO_testBadChecksum7RunImplEv.cold
     /tmp/ccQY0zWt.s:3957   .text:0000000000000900 _ZNK25TestHexIO_testCorruptLine7RunImplEv
     /tmp/ccQY0zWt.s:4108   .text.unlikely:0000000000000550 _ZNK25TestHexIO_testCorruptLine7RunImplEv.cold
     /tmp/ccQY0zWt.s:4224   .text._ZN8UnitTest10CheckEqualIihEEvRNS_11TestResultsERKT_RKT0_RKNS_11TestDetailsE:0000000000000000 _ZN8UnitTest10CheckEqualIihEEvRNS_11TestResultsERKT_RKT0_RKNS_11TestDetailsE
     /tmp/ccQY0zWt.s:4476   .text._ZN8UnitTest10CheckEqualImmEEvRNS_11TestResultsERKT_RKT0_RKNS_11TestDetailsE:0000000000000000 _ZN8UnitTest10CheckEqualImmEEvRNS_11TestResultsERKT_RKT0_RKNS_11TestDetailsE
     /tmp/ccQY0zWt.s:4743   .text:0000000000000a20 _ZNK22TestHexIO_testValidEOF7RunImplEv
     /tmp/ccQY0zWt.s:5012   .text.unlikely:00000000000005fa _ZNK22TestHexIO_testValidEOF7RunImplEv.cold
     /tmp/ccQY0zWt.s:5322   .text:0000000000000c80 _ZNK27TestHexIO_testValidDataLine7RunImplEv
     /tmp/ccQY0zWt.s:5871   .text.unlikely:00000000000007f0 _ZNK27TestHexIO_testValidDataLine7RunImplEv.cold
     /tmp/ccQY0zWt.s:6282   .text._ZN8UnitTest15CheckArrayEqualIPKcS2_EEvRNS_11TestResultsERKT_RKT0_iRKNS_11TestDetailsE:0000000000000000 _ZN8UnitTest15CheckArrayEqualIPKcS2_EEvRNS_11TestResultsERKT_RKT0_iRKNS_11TestDetailsE
     /tmp/ccQY0zWt.s:6587   .text._ZN8UnitTest15CheckArrayEqualIPhS1_EEvRNS_11TestResultsERKT_RKT0_iRKNS_11TestDetailsE:0000000000000000 _ZN8UnitTest15CheckArrayEqualIPhS1_EEvRNS_11TestResultsERKT_RKT0_iRKNS_11TestDetailsE
     /tmp/ccQY0zWt.s:6892   .text._ZN8UnitTest15CheckArrayEqualIPKcPhEEvRNS_11TestResultsERKT_RKT0_iRKNS_11TestDetailsE:0000000000000000 _ZN8UnitTest15CheckArrayEqualIPKcPhEEvRNS_11TestResultsERKT_RKT0_iRKNS_11TestDetailsE
     /tmp/ccQY0zWt.s:7208   .text:0000000000001370 _Z18testDeriveWriteMapPKcS0_
     /tmp/ccQY0zWt.s:7504   .text.unlikely:0000000000000b25 _Z18testDeriveWriteMapPKcS0_.cold
     /tmp/ccQY0zWt.s:7789   .text:0000000000001610 _ZNK28TestHexIO_testDeriveWriteMap7RunImplEv
     /tmp/ccQY0zWt.s:7842   .text:0000000000001650 _Z13testRoundTripPKcz
     /tmp/ccQY0zWt.s:8808   .text.unlikely:0000000000000d1b _Z13testRoundTripPKcz.cold
     /tmp/ccQY0zWt.s:9447   .text:0000000000002310 _ZNK23TestHexIO_testRoundTrip7RunImplEv
     /tmp/ccQY0zWt.s:9566   .text.startup:0000000000000000 _GLOBAL__sub_I_testHexIO_testValidDataLineInstance
     /tmp/ccQY0zWt.s:10408  .bss:0000000000000320 testHexIO_testValidDataLineInstance
     /tmp/ccQY0zWt.s:10402  .bss:0000000000000318 adderHexIO_testValidDataLine
     /tmp/ccQY0zWt.s:10397  .bss:00000000000002e0 testHexIO_testValidEOFInstance
     /tmp/ccQY0zWt.s:10391  .bss:00000000000002d8 adderHexIO_testValidEOF
     /tmp/ccQY0zWt.s:10386  .bss:00000000000002a0 testHexIO_testJunkStartCodeInstance
     /tmp/ccQY0zWt.s:10380  .bss:0000000000000298 adderHexIO_testJunkStartCode
     /tmp/ccQY0zWt.s:10375  .bss:0000000000000260 testHexIO_testJunkByteCountInstance
     /tmp/ccQY0zWt.s:10369  .bss:0000000000000258 adderHexIO_testJunkByteCount
     /tmp/ccQY0zWt.s:10364  .bss:0000000000000220 testHexIO_testJunkAddrMsbInstance
     /tmp/ccQY0zWt.s:10358  .bss:0000000000000218 adderHexIO_testJunkAddrMsb
     /tmp/ccQY0zWt.s:10353  .bss:00000000000001e0 testHexIO_testJunkAddrLsbInstance
     /tmp/ccQY0zWt.s:10347  .bss:00000000000001d8 adderHexIO_testJunkAddrLsb
     /tmp/ccQY0zWt.s:10342  .bss:00000000000001a0 testHexIO_testJunkRecTypeInstance
     /tmp/ccQY0zWt.s:10336  .bss:0000000000000198 adderHexIO_testJunkRecType
     /tmp/ccQY0zWt.s:10331  .bss:0000000000000160 testHexIO_testJunkDataByteInstance
     /tmp/ccQY0zWt.s:10325  .bss:0000000000000158 adderHexIO_testJunkDataByte
     /tmp/ccQY0zWt.s:10320  .bss:0000000000000120 testHexIO_testJunkChecksumInstance
     /tmp/ccQY0zWt.s:10314  .bss:0000000000000118 adderHexIO_testJunkChecksum
     /tmp/ccQY0zWt.s:10309  .bss:00000000000000e0 testHexIO_testBadChecksumInstance
     /tmp/ccQY0zWt.s:10303  .bss:00000000000000d8 adderHexIO_testBadChecksum
     /tmp/ccQY0zWt.s:10298  .bss:00000000000000a0 testHexIO_testCorruptLineInstance
     /tmp/ccQY0zWt.s:10292  .bss:0000000000000098 adderHexIO_testCorruptLine
     /tmp/ccQY0zWt.s:10287  .bss:0000000000000060 testHexIO_testRoundTripInstance
     /tmp/ccQY0zWt.s:10281  .bss:0000000000000058 adderHexIO_testRoundTrip
     /tmp/ccQY0zWt.s:10276  .bss:0000000000000020 testHexIO_testDeriveWriteMapInstance
     /tmp/ccQY0zWt.s:10270  .bss:0000000000000000 adderHexIO_testDeriveWriteMap
     /tmp/ccQY0zWt.s:9842   .rodata._ZTSN8UnitTest15MemoryOutStreamE:0000000000000000 _ZTSN8UnitTest15MemoryOutStreamE
     /tmp/ccQY0zWt.s:9849   .data.rel.ro._ZTIN8UnitTest15MemoryOutStreamE:0000000000000000 _ZTIN8UnitTest15MemoryOutStreamE
     /tmp/ccQY0zWt.s:9858   .rodata._ZTS27TestHexIO_testValidDataLine:0000000000000000 _ZTS27TestHexIO_testValidDataLine
     /tmp/ccQY0zWt.s:9865   .data.rel.ro._ZTI27TestHexIO_testValidDataLine:0000000000000000 _ZTI27TestHexIO_testValidDataLine
     /tmp/ccQY0zWt.s:9874   .rodata._ZTS22TestHexIO_testValidEOF:0000000000000000 _ZTS22TestHexIO_testValidEOF
     /tmp/ccQY0zWt.s:9881   .data.rel.ro._ZTI22TestHexIO_testValidEOF:0000000000000000 _ZTI22TestHexIO_testValidEOF
     /tmp/ccQY0zWt.s:9890   .rodata._ZTS27TestHexIO_testJunkStartCode:0000000000000000 _ZTS27TestHexIO_testJunkStartCode
     /tmp/ccQY0zWt.s:9897   .data.rel.ro._ZTI27TestHexIO_testJunkStartCode:0000000000000000 _ZTI27TestHexIO_testJunkStartCode
     /tmp/ccQY0zWt.s:9906   .rodata._ZTS27TestHexIO_testJunkByteCount:0000000000000000 _ZTS27TestHexIO_testJunkByteCount
     /tmp/ccQY0zWt.s:9913   .data.rel.ro._ZTI27TestHexIO_testJunkByteCount:0000000000000000 _ZTI27TestHexIO_testJunkByteCount
     /tmp/ccQY0zWt.s:9922   .rodata._ZTS25TestHexIO_testJunkAddrMsb:0000000000000000 _ZTS25TestHexIO_testJunkAddrMsb
     /tmp/ccQY0zWt.s:9929   .data.rel.ro._ZTI25TestHexIO_testJunkAddrMsb:0000000000000000 _ZTI25TestHexIO_testJunkAddrMsb
     /tmp/ccQY0zWt.s:9938   .rodata._ZTS25TestHexIO_testJunkAddrLsb:0000000000000000 _ZTS25TestHexIO_testJunkAddrLsb
     /tmp/ccQY0zWt.s:9945   .data.rel.ro._ZTI25TestHexIO_testJunkAddrLsb:0000000000000000 _ZTI25TestHexIO_testJunkAddrLsb
     /tmp/ccQY0zWt.s:9954   .rodata._ZTS25TestHexIO_testJunkRecType:0000000000000000 _ZTS25TestHexIO_testJunkRecType
     /tmp/ccQY0zWt.s:9961   .data.rel.ro._ZTI25TestHexIO_testJunkRecType:0000000000000000 _ZTI25TestHexIO_testJunkRecType
     /tmp/ccQY0zWt.s:9970   .rodata._ZTS26TestHexIO_testJunkDataByte:0000000000000000 _ZTS26TestHexIO_testJunkDataByte
     /tmp/ccQY0zWt.s:9977   .data.rel.ro._ZTI26TestHexIO_testJunkDataByte:0000000000000000 _ZTI26TestHexIO_testJunkDataByte
     /tmp/ccQY0zWt.s:9986   .rodata._ZTS26TestHexIO_testJunkChecksum:0000000000000000 _ZTS26TestHexIO_testJunkChecksum
     /tmp/ccQY0zWt.s:9993   .data.rel.ro._ZTI26TestHexIO_testJunkChecksum:0000000000000000 _ZTI26TestHexIO_testJunkChecksum
     /tmp/ccQY0zWt.s:10002  .rodata._ZTS25TestHexIO_testBadChecksum:0000000000000000 _ZTS25TestHexIO_testBadChecksum
     /tmp/ccQY0zWt.s:10009  .data.rel.ro._ZTI25TestHexIO_testBadChecksum:0000000000000000 _ZTI25TestHexIO_testBadChecksum
     /tmp/ccQY0zWt.s:10018  .rodata._ZTS25TestHexIO_testCorruptLine:0000000000000000 _ZTS25TestHexIO_testCorruptLine
     /tmp/ccQY0zWt.s:10025  .data.rel.ro._ZTI25TestHexIO_testCorruptLine:0000000000000000 _ZTI25TestHexIO_testCorruptLine
     /tmp/ccQY0zWt.s:10034  .rodata._ZTS23TestHexIO_testRoundTrip:0000000000000000 _ZTS23TestHexIO_testRoundTrip
     /tmp/ccQY0zWt.s:10041  .data.rel.ro._ZTI23TestHexIO_testRoundTrip:0000000000000000 _ZTI23TestHexIO_testRoundTrip
     /tmp/ccQY0zWt.s:10050  .rodata._ZTS28TestHexIO_testDeriveWriteMap:0000000000000000 _ZTS28TestHexIO_testDeriveWriteMap
     /tmp/ccQY0zWt.s:10057  .data.rel.ro._ZTI28TestHexIO_testDeriveWriteMap:0000000000000000 _ZTI28TestHexIO_testDeriveWriteMap
     /tmp/ccQY0zWt.s:10100  .data.rel.ro.local._ZTTN8UnitTest15MemoryOutStreamE:0000000000000000 _ZTTN8UnitTest15MemoryOutStreamE
     /tmp/ccQY0zWt.s:1707   .rodata.str1.1:0000000000000000 .LC5
     /tmp/ccQY0zWt.s:1989   .rodata.str1.1:0000000000000015 .LC9
     /tmp/ccQY0zWt.s:2268   .rodata.str1.1:000000000000002a .LC12
     /tmp/ccQY0zWt.s:2547   .rodata.str1.1:000000000000003f .LC15
     /tmp/ccQY0zWt.s:2826   .rodata.str1.1:0000000000000054 .LC18
     /tmp/ccQY0zWt.s:3105   .rodata.str1.1:0000000000000069 .LC21
     /tmp/ccQY0zWt.s:3384   .rodata.str1.1:000000000000007e .LC24
     /tmp/ccQY0zWt.s:3663   .rodata.str1.1:0000000000000093 .LC27
     /tmp/ccQY0zWt.s:3942   .rodata.str1.1:00000000000000a8 .LC30
     /tmp/ccQY0zWt.s:4722   .rodata.str1.1:00000000000000be .LC33
     /tmp/ccQY0zWt.s:5284   .rodata.str1.1:00000000000000cb .LC38
     /tmp/ccQY0zWt.s:5286   .rodata.str1.1:00000000000000e0 .LC39
     /tmp/ccQY0zWt.s:5288   .rodata.str1.1:00000000000000ec .LC40
     /tmp/ccQY0zWt.s:5290   .rodata.str1.1:00000000000000ee .LC41
     /tmp/ccQY0zWt.s:5292   .rodata.str1.1:00000000000000fb .LC42
     /tmp/ccQY0zWt.s:7776   .rodata.str1.1:00000000000000fd .LC53
     /tmp/ccQY0zWt.s:7778   .rodata.str1.1:0000000000000110 .LC54
     /tmp/ccQY0zWt.s:7780   .rodata.str1.1:0000000000000123 .LC55
     /tmp/ccQY0zWt.s:7782   .rodata.str1.1:0000000000000135 .LC56
     /tmp/ccQY0zWt.s:7809   .rodata.str1.1:000000000000015c .LC58
     /tmp/ccQY0zWt.s:7811   .rodata.str1.1:0000000000000168 .LC59
     /tmp/ccQY0zWt.s:1453   .rodata._ZN8UnitTest10CheckEqualI12BufferStatusS1_EEvRNS_11TestResultsERKT_RKT0_RKNS_11TestDetailsE.str1.1:0000000000000000 .LC0
     /tmp/ccQY0zWt.s:1455   .rodata._ZN8UnitTest10CheckEqualI12BufferStatusS1_EEvRNS_11TestResultsERKT_RKT0_RKNS_11TestDetailsE.str1.1:000000000000000a .LC1
     /tmp/ccQY0zWt.s:7807   .rodata.str1.1:0000000000000147 .LC57
     /tmp/ccQY0zWt.s:9400   .rodata.str1.8:0000000000000780 .LC71
     /tmp/ccQY0zWt.s:9390   .rodata.str1.1:0000000000000177 .LC68
     /tmp/ccQY0zWt.s:9403   .rodata.str1.8:00000000000007b0 .LC72
     /tmp/ccQY0zWt.s:9394   .rodata.str1.8:0000000000000720 .LC69
     /tmp/ccQY0zWt.s:9406   .rodata.str1.8:00000000000007e0 .LC73
     /tmp/ccQY0zWt.s:9397   .rodata.str1.8:0000000000000750 .LC70
     /tmp/ccQY0zWt.s:9409   .rodata.str1.1:000000000000018f .LC74
     /tmp/ccQY0zWt.s:9411   .rodata.str1.1:00000000000001a7 .LC75
     /tmp/ccQY0zWt.s:9415   .rodata.str1.8:0000000000000810 .LC76
     /tmp/ccQY0zWt.s:9418   .rodata.str1.8:0000000000000838 .LC77
     /tmp/ccQY0zWt.s:9421   .rodata.str1.8:0000000000000868 .LC78
     /tmp/ccQY0zWt.s:9424   .rodata.str1.8:0000000000000898 .LC79
     /tmp/ccQY0zWt.s:9427   .rodata.str1.8:00000000000008c8 .LC80
     /tmp/ccQY0zWt.s:9430   .rodata.str1.8:00000000000008f8 .LC81
     /tmp/ccQY0zWt.s:9433   .rodata.str1.1:00000000000001b5 .LC82
     /tmp/ccQY0zWt.s:9437   .rodata.str1.8:0000000000000928 .LC83
     /tmp/ccQY0zWt.s:9440   .rodata.str1.8:0000000000000958 .LC84
     /tmp/ccQY0zWt.s:1714   .rodata.str1.8:0000000000000038 .LC7
     /tmp/ccQY0zWt.s:1711   .rodata.str1.8:0000000000000000 .LC6
     /tmp/ccQY0zWt.s:1993   .rodata.str1.8:0000000000000078 .LC10
     /tmp/ccQY0zWt.s:2272   .rodata.str1.8:00000000000000b8 .LC13
     /tmp/ccQY0zWt.s:2551   .rodata.str1.8:00000000000000f8 .LC16
     /tmp/ccQY0zWt.s:2830   .rodata.str1.8:0000000000000138 .LC19
     /tmp/ccQY0zWt.s:3109   .rodata.str1.8:0000000000000178 .LC22
     /tmp/ccQY0zWt.s:3388   .rodata.str1.8:00000000000001b8 .LC25
     /tmp/ccQY0zWt.s:3667   .rodata.str1.8:00000000000001f8 .LC28
     /tmp/ccQY0zWt.s:3946   .rodata.str1.8:0000000000000238 .LC31
     /tmp/ccQY0zWt.s:4732   .rodata.str1.8:00000000000002e8 .LC36
     /tmp/ccQY0zWt.s:4729   .rodata.str1.8:00000000000002b0 .LC35
     /tmp/ccQY0zWt.s:4726   .rodata.str1.8:0000000000000278 .LC34
     /tmp/ccQY0zWt.s:5305   .rodata.str1.8:00000000000003d8 .LC46
     /tmp/ccQY0zWt.s:5302   .rodata.str1.8:0000000000000398 .LC45
     /tmp/ccQY0zWt.s:5311   .rodata.str1.8:0000000000000458 .LC48
     /tmp/ccQY0zWt.s:5308   .rodata.str1.8:0000000000000418 .LC47
     /tmp/ccQY0zWt.s:5299   .rodata.str1.8:0000000000000358 .LC44
     /tmp/ccQY0zWt.s:5296   .rodata.str1.8:0000000000000320 .LC43
     /tmp/ccQY0zWt.s:7199   .rodata.str1.8:00000000000004e0 .LC51
     /tmp/ccQY0zWt.s:7196   .rodata.str1.8:00000000000004a0 .LC50
     /tmp/ccQY0zWt.s:7833   .rodata.str1.8:00000000000006d8 .LC66
     /tmp/ccQY0zWt.s:7830   .rodata.str1.8:0000000000000690 .LC65
     /tmp/ccQY0zWt.s:7827   .rodata.str1.8:0000000000000648 .LC64
     /tmp/ccQY0zWt.s:7818   .rodata.str1.8:0000000000000558 .LC61
     /tmp/ccQY0zWt.s:7815   .rodata.str1.8:0000000000000528 .LC60
     /tmp/ccQY0zWt.s:7821   .rodata.str1.8:00000000000005a8 .LC62
     /tmp/ccQY0zWt.s:7824   .rodata.str1.8:0000000000000600 .LC63
     /tmp/ccQY0zWt.s:9537   .rodata.str1.1:00000000000001e0 .LC87
     /tmp/ccQY0zWt.s:9533   .rodata.str1.1:00000000000001c5 .LC85
     /tmp/ccQY0zWt.s:9535   .rodata.str1.1:00000000000001d3 .LC86
     /tmp/ccQY0zWt.s:9539   .rodata.str1.1:00000000000001f8 .LC88
     /tmp/ccQY0zWt.s:9541   .rodata.str1.1:000000000000020b .LC89
     /tmp/ccQY0zWt.s:9543   .rodata.str1.1:0000000000000223 .LC90
     /tmp/ccQY0zWt.s:9545   .rodata.str1.1:000000000000023b .LC91
     /tmp/ccQY0zWt.s:9547   .rodata.str1.1:0000000000000251 .LC92
     /tmp/ccQY0zWt.s:9549   .rodata.str1.1:0000000000000267 .LC93
     /tmp/ccQY0zWt.s:9551   .rodata.str1.1:000000000000027d .LC94
     /tmp/ccQY0zWt.s:9553   .rodata.str1.1:0000000000000294 .LC95
     /tmp/ccQY0zWt.s:9555   .rodata.str1.1:00000000000002ab .LC96
     /tmp/ccQY0zWt.s:9557   .rodata.str1.1:00000000000002c1 .LC97
     /tmp/ccQY0zWt.s:9559   .rodata.str1.1:00000000000002d7 .LC98
     /tmp/ccQY0zWt.s:9561   .rodata.str1.1:00000000000002eb .LC99
                           .group:0000000000000000 _ZN28TestHexIO_testDeriveWriteMapD5Ev
                           .group:0000000000000000 _ZN23TestHexIO_testRoundTripD5Ev
                           .group:0000000000000000 _ZN25TestHexIO_testCorruptLineD5Ev
                           .group:0000000000000000 _ZN25TestHexIO_testBadChecksumD5Ev
                           .group:0000000000000000 _ZN26TestHexIO_testJunkChecksumD5Ev
                           .group:0000000000000000 _ZN26TestHexIO_testJunkDataByteD5Ev
                           .group:0000000000000000 _ZN25TestHexIO_testJunkRecTypeD5Ev
                           .group:0000000000000000 _ZN25TestHexIO_testJunkAddrLsbD5Ev
                           .group:0000000000000000 _ZN25TestHexIO_testJunkAddrMsbD5Ev
                           .group:0000000000000000 _ZN27TestHexIO_testJunkByteCountD5Ev
                           .group:0000000000000000 _ZN27TestHexIO_testJunkStartCodeD5Ev
                           .group:0000000000000000 _ZN22TestHexIO_testValidEOFD5Ev
                           .group:0000000000000000 _ZN27TestHexIO_testValidDataLineD5Ev
                           .group:0000000000000000 _ZNSt7__cxx1115basic_stringbufIcSt11char_traitsIcESaIcEED5Ev

UNDEFINED SYMBOLS
_ZN8UnitTest4TestD2Ev
_ZdlPv
_Unwind_Resume
__gxx_personality_v0
_ZTVNSt7__cxx1115basic_stringbufIcSt11char_traitsIcESaIcEEE
_ZTVSt15basic_streambufIcSt11char_traitsIcEE
_ZNSt6localeD1Ev
_ZTVSt9basic_iosIcSt11char_traitsIcEE
_ZNSt8ios_baseD2Ev
_ZNSt8ios_baseC2Ev
_ZNSt9basic_iosIcSt11char_traitsIcEE4initEPSt15basic_streambufIcS1_E
_ZNSt6localeC1Ev
_ZSt16__ostream_insertIcSt11char_traitsIcEERSt13basic_ostreamIT_T0_ES6_PKS3_l
_ZNSolsEi
_ZNK8UnitTest15MemoryOutStream7GetTextEv
_ZN8UnitTest11TestResults13OnTestFailureERKNS_11TestDetailsEPKc
__stack_chk_fail
bufInitialise
_ZN8UnitTest11CurrentTest7DetailsEv
_ZN8UnitTest11TestDetailsC1ERKS0_i
_ZN8UnitTest11CurrentTest7ResultsEv
bufProcessLine
bufDestroy
__cxa_begin_catch
__cxa_end_catch
_ZNSo9_M_insertImEERSoT_
strlen
bufWriteBlock
bufDeriveMask
_ZNSt7__cxx1112basic_stringIcSt11char_traitsIcESaIcEE9_M_appendEPKcm
bufWriteToIntelHexFile
_ZTTSt14basic_ifstreamIcSt11char_traitsIcEE
_ZTVSt14basic_ifstreamIcSt11char_traitsIcEE
_ZNSt13basic_filebufIcSt11char_traitsIcEEC1Ev
_ZNSt13basic_filebufIcSt11char_traitsIcEE4openEPKcSt13_Ios_Openmode
_ZNSt9basic_iosIcSt11char_traitsIcEE5clearESt12_Ios_Iostate
_ZNKSt12__basic_fileIcE7is_openEv
_ZNSi5tellgEv
_Znam
_ZNSi5seekgElSt12_Ios_Seekdir
_ZNSi4readEPcl
_ZNSt13basic_filebufIcSt11char_traitsIcEE5closeEv
bufReadFromIntelHexFile
_ZTVSt13basic_filebufIcSt11char_traitsIcEE
_ZNSt12__basic_fileIcED1Ev
_ZNSt7__cxx1112basic_stringIcSt11char_traitsIcESaIcEE9_M_mutateEmmPKcm
_ZSt20__throw_length_errorPKc
_ZNSt14basic_ifstreamIcSt11char_traitsIcEED1Ev
_ZNSt13basic_filebufIcSt11char_traitsIcEED1Ev
__dso_handle
_ZN8UnitTest4TestC2EPKcS2_S2_i
__cxa_atexit
_ZN8UnitTest4Test11GetTestListEv
_ZN8UnitTest9ListAdderC1ERNS_8TestListEPNS_4TestE
_ZTVN10__cxxabiv120__si_class_type_infoE
_ZTINSt7__cxx1119basic_ostringstreamIcSt11char_traitsIcESaIcEEE
_ZTIN8UnitTest4TestE
_ZTISo
