   1              		.file	"testHexIO.cpp"
   2              		.text
   3              		.section	.text._ZN28TestHexIO_testDeriveWriteMapD2Ev,"axG",@progbits,_ZN28TestHexIO_testDeriveWrit
   4              		.align 2
   5              		.p2align 4
   6              		.weak	_ZN28TestHexIO_testDeriveWriteMapD2Ev
   8              	_ZN28TestHexIO_testDeriveWriteMapD2Ev:
   9              	.LFB1494:
  10              		.cfi_startproc
  11 0000 F30F1EFA 		endbr64
  12 0004 488D0500 		leaq	16+_ZTV28TestHexIO_testDeriveWriteMap(%rip), %rax
  12      000000
  13 000b 488907   		movq	%rax, (%rdi)
  14 000e E9000000 		jmp	_ZN8UnitTest4TestD2Ev@PLT
  14      00
  15              		.cfi_endproc
  16              	.LFE1494:
  18              		.weak	_ZN28TestHexIO_testDeriveWriteMapD1Ev
  19              		.set	_ZN28TestHexIO_testDeriveWriteMapD1Ev,_ZN28TestHexIO_testDeriveWriteMapD2Ev
  20              		.section	.text._ZN28TestHexIO_testDeriveWriteMapD0Ev,"axG",@progbits,_ZN28TestHexIO_testDeriveWrit
  21              		.align 2
  22              		.p2align 4
  23              		.weak	_ZN28TestHexIO_testDeriveWriteMapD0Ev
  25              	_ZN28TestHexIO_testDeriveWriteMapD0Ev:
  26              	.LFB1496:
  27              		.cfi_startproc
  28              		.cfi_personality 0x9b,DW.ref.__gxx_personality_v0
  29              		.cfi_lsda 0x1b,.LLSDA1496
  30 0000 F30F1EFA 		endbr64
  31 0004 4154     		pushq	%r12
  32              		.cfi_def_cfa_offset 16
  33              		.cfi_offset 12, -16
  34 0006 488D0500 		leaq	16+_ZTV28TestHexIO_testDeriveWriteMap(%rip), %rax
  34      000000
  35 000d 55       		pushq	%rbp
  36              		.cfi_def_cfa_offset 24
  37              		.cfi_offset 6, -24
  38 000e 4889FD   		movq	%rdi, %rbp
  39 0011 4883EC08 		subq	$8, %rsp
  40              		.cfi_def_cfa_offset 32
  41 0015 488907   		movq	%rax, (%rdi)
  42              	.LEHB0:
  43 0018 E8000000 		call	_ZN8UnitTest4TestD2Ev@PLT
  43      00
  44              	.LEHE0:
  45 001d 4883C408 		addq	$8, %rsp
  46              		.cfi_remember_state
  47              		.cfi_def_cfa_offset 24
  48 0021 4889EF   		movq	%rbp, %rdi
  49 0024 5D       		popq	%rbp
  50              		.cfi_def_cfa_offset 16
  51 0025 415C     		popq	%r12
  52              		.cfi_def_cfa_offset 8
  53 0027 E9000000 		jmp	_ZdlPv@PLT
  53      00
  54              	.L5:
  55              		.cfi_restore_state
  56 002c F30F1EFA 		endbr64
  57 0030 4989C4   		movq	%rax, %r12
  58              	.L4:
  59 0033 4889EF   		movq	%rbp, %rdi
  60 0036 E8000000 		call	_ZdlPv@PLT
  60      00
  61 003b 4C89E7   		movq	%r12, %rdi
  62              	.LEHB1:
  63 003e E8000000 		call	_Unwind_Resume@PLT
  63      00
  64              	.LEHE1:
  65              		.cfi_endproc
  66              	.LFE1496:
  67              		.globl	__gxx_personality_v0
  68              		.section	.gcc_except_table._ZN28TestHexIO_testDeriveWriteMapD0Ev,"aG",@progbits,_ZN28TestHexIO_tes
  69              	.LLSDA1496:
  70 0000 FF       		.byte	0xff
  71 0001 FF       		.byte	0xff
  72 0002 01       		.byte	0x1
  73 0003 08       		.uleb128 .LLSDACSE1496-.LLSDACSB1496
  74              	.LLSDACSB1496:
  75 0004 18       		.uleb128 .LEHB0-.LFB1496
  76 0005 05       		.uleb128 .LEHE0-.LEHB0
  77 0006 2C       		.uleb128 .L5-.LFB1496
  78 0007 00       		.uleb128 0
  79 0008 3E       		.uleb128 .LEHB1-.LFB1496
  80 0009 05       		.uleb128 .LEHE1-.LEHB1
  81 000a 00       		.uleb128 0
  82 000b 00       		.uleb128 0
  83              	.LLSDACSE1496:
  84              		.section	.text._ZN28TestHexIO_testDeriveWriteMapD0Ev,"axG",@progbits,_ZN28TestHexIO_testDeriveWrit
  86              		.section	.text._ZN23TestHexIO_testRoundTripD2Ev,"axG",@progbits,_ZN23TestHexIO_testRoundTripD5Ev,c
  87              		.align 2
  88              		.p2align 4
  89              		.weak	_ZN23TestHexIO_testRoundTripD2Ev
  91              	_ZN23TestHexIO_testRoundTripD2Ev:
  92              	.LFB1498:
  93              		.cfi_startproc
  94 0000 F30F1EFA 		endbr64
  95 0004 488D0500 		leaq	16+_ZTV23TestHexIO_testRoundTrip(%rip), %rax
  95      000000
  96 000b 488907   		movq	%rax, (%rdi)
  97 000e E9000000 		jmp	_ZN8UnitTest4TestD2Ev@PLT
  97      00
  98              		.cfi_endproc
  99              	.LFE1498:
 101              		.weak	_ZN23TestHexIO_testRoundTripD1Ev
 102              		.set	_ZN23TestHexIO_testRoundTripD1Ev,_ZN23TestHexIO_testRoundTripD2Ev
 103              		.section	.text._ZN23TestHexIO_testRoundTripD0Ev,"axG",@progbits,_ZN23TestHexIO_testRoundTripD5Ev,c
 104              		.align 2
 105              		.p2align 4
 106              		.weak	_ZN23TestHexIO_testRoundTripD0Ev
 108              	_ZN23TestHexIO_testRoundTripD0Ev:
 109              	.LFB1500:
 110              		.cfi_startproc
 111              		.cfi_personality 0x9b,DW.ref.__gxx_personality_v0
 112              		.cfi_lsda 0x1b,.LLSDA1500
 113 0000 F30F1EFA 		endbr64
 114 0004 4154     		pushq	%r12
 115              		.cfi_def_cfa_offset 16
 116              		.cfi_offset 12, -16
 117 0006 488D0500 		leaq	16+_ZTV23TestHexIO_testRoundTrip(%rip), %rax
 117      000000
 118 000d 55       		pushq	%rbp
 119              		.cfi_def_cfa_offset 24
 120              		.cfi_offset 6, -24
 121 000e 4889FD   		movq	%rdi, %rbp
 122 0011 4883EC08 		subq	$8, %rsp
 123              		.cfi_def_cfa_offset 32
 124 0015 488907   		movq	%rax, (%rdi)
 125              	.LEHB2:
 126 0018 E8000000 		call	_ZN8UnitTest4TestD2Ev@PLT
 126      00
 127              	.LEHE2:
 128 001d 4883C408 		addq	$8, %rsp
 129              		.cfi_remember_state
 130              		.cfi_def_cfa_offset 24
 131 0021 4889EF   		movq	%rbp, %rdi
 132 0024 5D       		popq	%rbp
 133              		.cfi_def_cfa_offset 16
 134 0025 415C     		popq	%r12
 135              		.cfi_def_cfa_offset 8
 136 0027 E9000000 		jmp	_ZdlPv@PLT
 136      00
 137              	.L10:
 138              		.cfi_restore_state
 139 002c F30F1EFA 		endbr64
 140 0030 4989C4   		movq	%rax, %r12
 141              	.L9:
 142 0033 4889EF   		movq	%rbp, %rdi
 143 0036 E8000000 		call	_ZdlPv@PLT
 143      00
 144 003b 4C89E7   		movq	%r12, %rdi
 145              	.LEHB3:
 146 003e E8000000 		call	_Unwind_Resume@PLT
 146      00
 147              	.LEHE3:
 148              		.cfi_endproc
 149              	.LFE1500:
 150              		.section	.gcc_except_table._ZN23TestHexIO_testRoundTripD0Ev,"aG",@progbits,_ZN23TestHexIO_testRoun
 151              	.LLSDA1500:
 152 0000 FF       		.byte	0xff
 153 0001 FF       		.byte	0xff
 154 0002 01       		.byte	0x1
 155 0003 08       		.uleb128 .LLSDACSE1500-.LLSDACSB1500
 156              	.LLSDACSB1500:
 157 0004 18       		.uleb128 .LEHB2-.LFB1500
 158 0005 05       		.uleb128 .LEHE2-.LEHB2
 159 0006 2C       		.uleb128 .L10-.LFB1500
 160 0007 00       		.uleb128 0
 161 0008 3E       		.uleb128 .LEHB3-.LFB1500
 162 0009 05       		.uleb128 .LEHE3-.LEHB3
 163 000a 00       		.uleb128 0
 164 000b 00       		.uleb128 0
 165              	.LLSDACSE1500:
 166              		.section	.text._ZN23TestHexIO_testRoundTripD0Ev,"axG",@progbits,_ZN23TestHexIO_testRoundTripD5Ev,c
 168              		.section	.text._ZN25TestHexIO_testCorruptLineD2Ev,"axG",@progbits,_ZN25TestHexIO_testCorruptLineD5
 169              		.align 2
 170              		.p2align 4
 171              		.weak	_ZN25TestHexIO_testCorruptLineD2Ev
 173              	_ZN25TestHexIO_testCorruptLineD2Ev:
 174              	.LFB1502:
 175              		.cfi_startproc
 176 0000 F30F1EFA 		endbr64
 177 0004 488D0500 		leaq	16+_ZTV25TestHexIO_testCorruptLine(%rip), %rax
 177      000000
 178 000b 488907   		movq	%rax, (%rdi)
 179 000e E9000000 		jmp	_ZN8UnitTest4TestD2Ev@PLT
 179      00
 180              		.cfi_endproc
 181              	.LFE1502:
 183              		.weak	_ZN25TestHexIO_testCorruptLineD1Ev
 184              		.set	_ZN25TestHexIO_testCorruptLineD1Ev,_ZN25TestHexIO_testCorruptLineD2Ev
 185              		.section	.text._ZN25TestHexIO_testCorruptLineD0Ev,"axG",@progbits,_ZN25TestHexIO_testCorruptLineD5
 186              		.align 2
 187              		.p2align 4
 188              		.weak	_ZN25TestHexIO_testCorruptLineD0Ev
 190              	_ZN25TestHexIO_testCorruptLineD0Ev:
 191              	.LFB1504:
 192              		.cfi_startproc
 193              		.cfi_personality 0x9b,DW.ref.__gxx_personality_v0
 194              		.cfi_lsda 0x1b,.LLSDA1504
 195 0000 F30F1EFA 		endbr64
 196 0004 4154     		pushq	%r12
 197              		.cfi_def_cfa_offset 16
 198              		.cfi_offset 12, -16
 199 0006 488D0500 		leaq	16+_ZTV25TestHexIO_testCorruptLine(%rip), %rax
 199      000000
 200 000d 55       		pushq	%rbp
 201              		.cfi_def_cfa_offset 24
 202              		.cfi_offset 6, -24
 203 000e 4889FD   		movq	%rdi, %rbp
 204 0011 4883EC08 		subq	$8, %rsp
 205              		.cfi_def_cfa_offset 32
 206 0015 488907   		movq	%rax, (%rdi)
 207              	.LEHB4:
 208 0018 E8000000 		call	_ZN8UnitTest4TestD2Ev@PLT
 208      00
 209              	.LEHE4:
 210 001d 4883C408 		addq	$8, %rsp
 211              		.cfi_remember_state
 212              		.cfi_def_cfa_offset 24
 213 0021 4889EF   		movq	%rbp, %rdi
 214 0024 5D       		popq	%rbp
 215              		.cfi_def_cfa_offset 16
 216 0025 415C     		popq	%r12
 217              		.cfi_def_cfa_offset 8
 218 0027 E9000000 		jmp	_ZdlPv@PLT
 218      00
 219              	.L15:
 220              		.cfi_restore_state
 221 002c F30F1EFA 		endbr64
 222 0030 4989C4   		movq	%rax, %r12
 223              	.L14:
 224 0033 4889EF   		movq	%rbp, %rdi
 225 0036 E8000000 		call	_ZdlPv@PLT
 225      00
 226 003b 4C89E7   		movq	%r12, %rdi
 227              	.LEHB5:
 228 003e E8000000 		call	_Unwind_Resume@PLT
 228      00
 229              	.LEHE5:
 230              		.cfi_endproc
 231              	.LFE1504:
 232              		.section	.gcc_except_table._ZN25TestHexIO_testCorruptLineD0Ev,"aG",@progbits,_ZN25TestHexIO_testCo
 233              	.LLSDA1504:
 234 0000 FF       		.byte	0xff
 235 0001 FF       		.byte	0xff
 236 0002 01       		.byte	0x1
 237 0003 08       		.uleb128 .LLSDACSE1504-.LLSDACSB1504
 238              	.LLSDACSB1504:
 239 0004 18       		.uleb128 .LEHB4-.LFB1504
 240 0005 05       		.uleb128 .LEHE4-.LEHB4
 241 0006 2C       		.uleb128 .L15-.LFB1504
 242 0007 00       		.uleb128 0
 243 0008 3E       		.uleb128 .LEHB5-.LFB1504
 244 0009 05       		.uleb128 .LEHE5-.LEHB5
 245 000a 00       		.uleb128 0
 246 000b 00       		.uleb128 0
 247              	.LLSDACSE1504:
 248              		.section	.text._ZN25TestHexIO_testCorruptLineD0Ev,"axG",@progbits,_ZN25TestHexIO_testCorruptLineD5
 250              		.section	.text._ZN25TestHexIO_testBadChecksumD2Ev,"axG",@progbits,_ZN25TestHexIO_testBadChecksumD5
 251              		.align 2
 252              		.p2align 4
 253              		.weak	_ZN25TestHexIO_testBadChecksumD2Ev
 255              	_ZN25TestHexIO_testBadChecksumD2Ev:
 256              	.LFB1506:
 257              		.cfi_startproc
 258 0000 F30F1EFA 		endbr64
 259 0004 488D0500 		leaq	16+_ZTV25TestHexIO_testBadChecksum(%rip), %rax
 259      000000
 260 000b 488907   		movq	%rax, (%rdi)
 261 000e E9000000 		jmp	_ZN8UnitTest4TestD2Ev@PLT
 261      00
 262              		.cfi_endproc
 263              	.LFE1506:
 265              		.weak	_ZN25TestHexIO_testBadChecksumD1Ev
 266              		.set	_ZN25TestHexIO_testBadChecksumD1Ev,_ZN25TestHexIO_testBadChecksumD2Ev
 267              		.section	.text._ZN25TestHexIO_testBadChecksumD0Ev,"axG",@progbits,_ZN25TestHexIO_testBadChecksumD5
 268              		.align 2
 269              		.p2align 4
 270              		.weak	_ZN25TestHexIO_testBadChecksumD0Ev
 272              	_ZN25TestHexIO_testBadChecksumD0Ev:
 273              	.LFB1508:
 274              		.cfi_startproc
 275              		.cfi_personality 0x9b,DW.ref.__gxx_personality_v0
 276              		.cfi_lsda 0x1b,.LLSDA1508
 277 0000 F30F1EFA 		endbr64
 278 0004 4154     		pushq	%r12
 279              		.cfi_def_cfa_offset 16
 280              		.cfi_offset 12, -16
 281 0006 488D0500 		leaq	16+_ZTV25TestHexIO_testBadChecksum(%rip), %rax
 281      000000
 282 000d 55       		pushq	%rbp
 283              		.cfi_def_cfa_offset 24
 284              		.cfi_offset 6, -24
 285 000e 4889FD   		movq	%rdi, %rbp
 286 0011 4883EC08 		subq	$8, %rsp
 287              		.cfi_def_cfa_offset 32
 288 0015 488907   		movq	%rax, (%rdi)
 289              	.LEHB6:
 290 0018 E8000000 		call	_ZN8UnitTest4TestD2Ev@PLT
 290      00
 291              	.LEHE6:
 292 001d 4883C408 		addq	$8, %rsp
 293              		.cfi_remember_state
 294              		.cfi_def_cfa_offset 24
 295 0021 4889EF   		movq	%rbp, %rdi
 296 0024 5D       		popq	%rbp
 297              		.cfi_def_cfa_offset 16
 298 0025 415C     		popq	%r12
 299              		.cfi_def_cfa_offset 8
 300 0027 E9000000 		jmp	_ZdlPv@PLT
 300      00
 301              	.L20:
 302              		.cfi_restore_state
 303 002c F30F1EFA 		endbr64
 304 0030 4989C4   		movq	%rax, %r12
 305              	.L19:
 306 0033 4889EF   		movq	%rbp, %rdi
 307 0036 E8000000 		call	_ZdlPv@PLT
 307      00
 308 003b 4C89E7   		movq	%r12, %rdi
 309              	.LEHB7:
 310 003e E8000000 		call	_Unwind_Resume@PLT
 310      00
 311              	.LEHE7:
 312              		.cfi_endproc
 313              	.LFE1508:
 314              		.section	.gcc_except_table._ZN25TestHexIO_testBadChecksumD0Ev,"aG",@progbits,_ZN25TestHexIO_testBa
 315              	.LLSDA1508:
 316 0000 FF       		.byte	0xff
 317 0001 FF       		.byte	0xff
 318 0002 01       		.byte	0x1
 319 0003 08       		.uleb128 .LLSDACSE1508-.LLSDACSB1508
 320              	.LLSDACSB1508:
 321 0004 18       		.uleb128 .LEHB6-.LFB1508
 322 0005 05       		.uleb128 .LEHE6-.LEHB6
 323 0006 2C       		.uleb128 .L20-.LFB1508
 324 0007 00       		.uleb128 0
 325 0008 3E       		.uleb128 .LEHB7-.LFB1508
 326 0009 05       		.uleb128 .LEHE7-.LEHB7
 327 000a 00       		.uleb128 0
 328 000b 00       		.uleb128 0
 329              	.LLSDACSE1508:
 330              		.section	.text._ZN25TestHexIO_testBadChecksumD0Ev,"axG",@progbits,_ZN25TestHexIO_testBadChecksumD5
 332              		.section	.text._ZN26TestHexIO_testJunkChecksumD2Ev,"axG",@progbits,_ZN26TestHexIO_testJunkChecksum
 333              		.align 2
 334              		.p2align 4
 335              		.weak	_ZN26TestHexIO_testJunkChecksumD2Ev
 337              	_ZN26TestHexIO_testJunkChecksumD2Ev:
 338              	.LFB1510:
 339              		.cfi_startproc
 340 0000 F30F1EFA 		endbr64
 341 0004 488D0500 		leaq	16+_ZTV26TestHexIO_testJunkChecksum(%rip), %rax
 341      000000
 342 000b 488907   		movq	%rax, (%rdi)
 343 000e E9000000 		jmp	_ZN8UnitTest4TestD2Ev@PLT
 343      00
 344              		.cfi_endproc
 345              	.LFE1510:
 347              		.weak	_ZN26TestHexIO_testJunkChecksumD1Ev
 348              		.set	_ZN26TestHexIO_testJunkChecksumD1Ev,_ZN26TestHexIO_testJunkChecksumD2Ev
 349              		.section	.text._ZN26TestHexIO_testJunkChecksumD0Ev,"axG",@progbits,_ZN26TestHexIO_testJunkChecksum
 350              		.align 2
 351              		.p2align 4
 352              		.weak	_ZN26TestHexIO_testJunkChecksumD0Ev
 354              	_ZN26TestHexIO_testJunkChecksumD0Ev:
 355              	.LFB1512:
 356              		.cfi_startproc
 357              		.cfi_personality 0x9b,DW.ref.__gxx_personality_v0
 358              		.cfi_lsda 0x1b,.LLSDA1512
 359 0000 F30F1EFA 		endbr64
 360 0004 4154     		pushq	%r12
 361              		.cfi_def_cfa_offset 16
 362              		.cfi_offset 12, -16
 363 0006 488D0500 		leaq	16+_ZTV26TestHexIO_testJunkChecksum(%rip), %rax
 363      000000
 364 000d 55       		pushq	%rbp
 365              		.cfi_def_cfa_offset 24
 366              		.cfi_offset 6, -24
 367 000e 4889FD   		movq	%rdi, %rbp
 368 0011 4883EC08 		subq	$8, %rsp
 369              		.cfi_def_cfa_offset 32
 370 0015 488907   		movq	%rax, (%rdi)
 371              	.LEHB8:
 372 0018 E8000000 		call	_ZN8UnitTest4TestD2Ev@PLT
 372      00
 373              	.LEHE8:
 374 001d 4883C408 		addq	$8, %rsp
 375              		.cfi_remember_state
 376              		.cfi_def_cfa_offset 24
 377 0021 4889EF   		movq	%rbp, %rdi
 378 0024 5D       		popq	%rbp
 379              		.cfi_def_cfa_offset 16
 380 0025 415C     		popq	%r12
 381              		.cfi_def_cfa_offset 8
 382 0027 E9000000 		jmp	_ZdlPv@PLT
 382      00
 383              	.L25:
 384              		.cfi_restore_state
 385 002c F30F1EFA 		endbr64
 386 0030 4989C4   		movq	%rax, %r12
 387              	.L24:
 388 0033 4889EF   		movq	%rbp, %rdi
 389 0036 E8000000 		call	_ZdlPv@PLT
 389      00
 390 003b 4C89E7   		movq	%r12, %rdi
 391              	.LEHB9:
 392 003e E8000000 		call	_Unwind_Resume@PLT
 392      00
 393              	.LEHE9:
 394              		.cfi_endproc
 395              	.LFE1512:
 396              		.section	.gcc_except_table._ZN26TestHexIO_testJunkChecksumD0Ev,"aG",@progbits,_ZN26TestHexIO_testJ
 397              	.LLSDA1512:
 398 0000 FF       		.byte	0xff
 399 0001 FF       		.byte	0xff
 400 0002 01       		.byte	0x1
 401 0003 08       		.uleb128 .LLSDACSE1512-.LLSDACSB1512
 402              	.LLSDACSB1512:
 403 0004 18       		.uleb128 .LEHB8-.LFB1512
 404 0005 05       		.uleb128 .LEHE8-.LEHB8
 405 0006 2C       		.uleb128 .L25-.LFB1512
 406 0007 00       		.uleb128 0
 407 0008 3E       		.uleb128 .LEHB9-.LFB1512
 408 0009 05       		.uleb128 .LEHE9-.LEHB9
 409 000a 00       		.uleb128 0
 410 000b 00       		.uleb128 0
 411              	.LLSDACSE1512:
 412              		.section	.text._ZN26TestHexIO_testJunkChecksumD0Ev,"axG",@progbits,_ZN26TestHexIO_testJunkChecksum
 414              		.section	.text._ZN26TestHexIO_testJunkDataByteD2Ev,"axG",@progbits,_ZN26TestHexIO_testJunkDataByte
 415              		.align 2
 416              		.p2align 4
 417              		.weak	_ZN26TestHexIO_testJunkDataByteD2Ev
 419              	_ZN26TestHexIO_testJunkDataByteD2Ev:
 420              	.LFB1514:
 421              		.cfi_startproc
 422 0000 F30F1EFA 		endbr64
 423 0004 488D0500 		leaq	16+_ZTV26TestHexIO_testJunkDataByte(%rip), %rax
 423      000000
 424 000b 488907   		movq	%rax, (%rdi)
 425 000e E9000000 		jmp	_ZN8UnitTest4TestD2Ev@PLT
 425      00
 426              		.cfi_endproc
 427              	.LFE1514:
 429              		.weak	_ZN26TestHexIO_testJunkDataByteD1Ev
 430              		.set	_ZN26TestHexIO_testJunkDataByteD1Ev,_ZN26TestHexIO_testJunkDataByteD2Ev
 431              		.section	.text._ZN26TestHexIO_testJunkDataByteD0Ev,"axG",@progbits,_ZN26TestHexIO_testJunkDataByte
 432              		.align 2
 433              		.p2align 4
 434              		.weak	_ZN26TestHexIO_testJunkDataByteD0Ev
 436              	_ZN26TestHexIO_testJunkDataByteD0Ev:
 437              	.LFB1516:
 438              		.cfi_startproc
 439              		.cfi_personality 0x9b,DW.ref.__gxx_personality_v0
 440              		.cfi_lsda 0x1b,.LLSDA1516
 441 0000 F30F1EFA 		endbr64
 442 0004 4154     		pushq	%r12
 443              		.cfi_def_cfa_offset 16
 444              		.cfi_offset 12, -16
 445 0006 488D0500 		leaq	16+_ZTV26TestHexIO_testJunkDataByte(%rip), %rax
 445      000000
 446 000d 55       		pushq	%rbp
 447              		.cfi_def_cfa_offset 24
 448              		.cfi_offset 6, -24
 449 000e 4889FD   		movq	%rdi, %rbp
 450 0011 4883EC08 		subq	$8, %rsp
 451              		.cfi_def_cfa_offset 32
 452 0015 488907   		movq	%rax, (%rdi)
 453              	.LEHB10:
 454 0018 E8000000 		call	_ZN8UnitTest4TestD2Ev@PLT
 454      00
 455              	.LEHE10:
 456 001d 4883C408 		addq	$8, %rsp
 457              		.cfi_remember_state
 458              		.cfi_def_cfa_offset 24
 459 0021 4889EF   		movq	%rbp, %rdi
 460 0024 5D       		popq	%rbp
 461              		.cfi_def_cfa_offset 16
 462 0025 415C     		popq	%r12
 463              		.cfi_def_cfa_offset 8
 464 0027 E9000000 		jmp	_ZdlPv@PLT
 464      00
 465              	.L30:
 466              		.cfi_restore_state
 467 002c F30F1EFA 		endbr64
 468 0030 4989C4   		movq	%rax, %r12
 469              	.L29:
 470 0033 4889EF   		movq	%rbp, %rdi
 471 0036 E8000000 		call	_ZdlPv@PLT
 471      00
 472 003b 4C89E7   		movq	%r12, %rdi
 473              	.LEHB11:
 474 003e E8000000 		call	_Unwind_Resume@PLT
 474      00
 475              	.LEHE11:
 476              		.cfi_endproc
 477              	.LFE1516:
 478              		.section	.gcc_except_table._ZN26TestHexIO_testJunkDataByteD0Ev,"aG",@progbits,_ZN26TestHexIO_testJ
 479              	.LLSDA1516:
 480 0000 FF       		.byte	0xff
 481 0001 FF       		.byte	0xff
 482 0002 01       		.byte	0x1
 483 0003 08       		.uleb128 .LLSDACSE1516-.LLSDACSB1516
 484              	.LLSDACSB1516:
 485 0004 18       		.uleb128 .LEHB10-.LFB1516
 486 0005 05       		.uleb128 .LEHE10-.LEHB10
 487 0006 2C       		.uleb128 .L30-.LFB1516
 488 0007 00       		.uleb128 0
 489 0008 3E       		.uleb128 .LEHB11-.LFB1516
 490 0009 05       		.uleb128 .LEHE11-.LEHB11
 491 000a 00       		.uleb128 0
 492 000b 00       		.uleb128 0
 493              	.LLSDACSE1516:
 494              		.section	.text._ZN26TestHexIO_testJunkDataByteD0Ev,"axG",@progbits,_ZN26TestHexIO_testJunkDataByte
 496              		.section	.text._ZN25TestHexIO_testJunkRecTypeD2Ev,"axG",@progbits,_ZN25TestHexIO_testJunkRecTypeD5
 497              		.align 2
 498              		.p2align 4
 499              		.weak	_ZN25TestHexIO_testJunkRecTypeD2Ev
 501              	_ZN25TestHexIO_testJunkRecTypeD2Ev:
 502              	.LFB1518:
 503              		.cfi_startproc
 504 0000 F30F1EFA 		endbr64
 505 0004 488D0500 		leaq	16+_ZTV25TestHexIO_testJunkRecType(%rip), %rax
 505      000000
 506 000b 488907   		movq	%rax, (%rdi)
 507 000e E9000000 		jmp	_ZN8UnitTest4TestD2Ev@PLT
 507      00
 508              		.cfi_endproc
 509              	.LFE1518:
 511              		.weak	_ZN25TestHexIO_testJunkRecTypeD1Ev
 512              		.set	_ZN25TestHexIO_testJunkRecTypeD1Ev,_ZN25TestHexIO_testJunkRecTypeD2Ev
 513              		.section	.text._ZN25TestHexIO_testJunkRecTypeD0Ev,"axG",@progbits,_ZN25TestHexIO_testJunkRecTypeD5
 514              		.align 2
 515              		.p2align 4
 516              		.weak	_ZN25TestHexIO_testJunkRecTypeD0Ev
 518              	_ZN25TestHexIO_testJunkRecTypeD0Ev:
 519              	.LFB1520:
 520              		.cfi_startproc
 521              		.cfi_personality 0x9b,DW.ref.__gxx_personality_v0
 522              		.cfi_lsda 0x1b,.LLSDA1520
 523 0000 F30F1EFA 		endbr64
 524 0004 4154     		pushq	%r12
 525              		.cfi_def_cfa_offset 16
 526              		.cfi_offset 12, -16
 527 0006 488D0500 		leaq	16+_ZTV25TestHexIO_testJunkRecType(%rip), %rax
 527      000000
 528 000d 55       		pushq	%rbp
 529              		.cfi_def_cfa_offset 24
 530              		.cfi_offset 6, -24
 531 000e 4889FD   		movq	%rdi, %rbp
 532 0011 4883EC08 		subq	$8, %rsp
 533              		.cfi_def_cfa_offset 32
 534 0015 488907   		movq	%rax, (%rdi)
 535              	.LEHB12:
 536 0018 E8000000 		call	_ZN8UnitTest4TestD2Ev@PLT
 536      00
 537              	.LEHE12:
 538 001d 4883C408 		addq	$8, %rsp
 539              		.cfi_remember_state
 540              		.cfi_def_cfa_offset 24
 541 0021 4889EF   		movq	%rbp, %rdi
 542 0024 5D       		popq	%rbp
 543              		.cfi_def_cfa_offset 16
 544 0025 415C     		popq	%r12
 545              		.cfi_def_cfa_offset 8
 546 0027 E9000000 		jmp	_ZdlPv@PLT
 546      00
 547              	.L35:
 548              		.cfi_restore_state
 549 002c F30F1EFA 		endbr64
 550 0030 4989C4   		movq	%rax, %r12
 551              	.L34:
 552 0033 4889EF   		movq	%rbp, %rdi
 553 0036 E8000000 		call	_ZdlPv@PLT
 553      00
 554 003b 4C89E7   		movq	%r12, %rdi
 555              	.LEHB13:
 556 003e E8000000 		call	_Unwind_Resume@PLT
 556      00
 557              	.LEHE13:
 558              		.cfi_endproc
 559              	.LFE1520:
 560              		.section	.gcc_except_table._ZN25TestHexIO_testJunkRecTypeD0Ev,"aG",@progbits,_ZN25TestHexIO_testJu
 561              	.LLSDA1520:
 562 0000 FF       		.byte	0xff
 563 0001 FF       		.byte	0xff
 564 0002 01       		.byte	0x1
 565 0003 08       		.uleb128 .LLSDACSE1520-.LLSDACSB1520
 566              	.LLSDACSB1520:
 567 0004 18       		.uleb128 .LEHB12-.LFB1520
 568 0005 05       		.uleb128 .LEHE12-.LEHB12
 569 0006 2C       		.uleb128 .L35-.LFB1520
 570 0007 00       		.uleb128 0
 571 0008 3E       		.uleb128 .LEHB13-.LFB1520
 572 0009 05       		.uleb128 .LEHE13-.LEHB13
 573 000a 00       		.uleb128 0
 574 000b 00       		.uleb128 0
 575              	.LLSDACSE1520:
 576              		.section	.text._ZN25TestHexIO_testJunkRecTypeD0Ev,"axG",@progbits,_ZN25TestHexIO_testJunkRecTypeD5
 578              		.section	.text._ZN25TestHexIO_testJunkAddrLsbD2Ev,"axG",@progbits,_ZN25TestHexIO_testJunkAddrLsbD5
 579              		.align 2
 580              		.p2align 4
 581              		.weak	_ZN25TestHexIO_testJunkAddrLsbD2Ev
 583              	_ZN25TestHexIO_testJunkAddrLsbD2Ev:
 584              	.LFB1522:
 585              		.cfi_startproc
 586 0000 F30F1EFA 		endbr64
 587 0004 488D0500 		leaq	16+_ZTV25TestHexIO_testJunkAddrLsb(%rip), %rax
 587      000000
 588 000b 488907   		movq	%rax, (%rdi)
 589 000e E9000000 		jmp	_ZN8UnitTest4TestD2Ev@PLT
 589      00
 590              		.cfi_endproc
 591              	.LFE1522:
 593              		.weak	_ZN25TestHexIO_testJunkAddrLsbD1Ev
 594              		.set	_ZN25TestHexIO_testJunkAddrLsbD1Ev,_ZN25TestHexIO_testJunkAddrLsbD2Ev
 595              		.section	.text._ZN25TestHexIO_testJunkAddrLsbD0Ev,"axG",@progbits,_ZN25TestHexIO_testJunkAddrLsbD5
 596              		.align 2
 597              		.p2align 4
 598              		.weak	_ZN25TestHexIO_testJunkAddrLsbD0Ev
 600              	_ZN25TestHexIO_testJunkAddrLsbD0Ev:
 601              	.LFB1524:
 602              		.cfi_startproc
 603              		.cfi_personality 0x9b,DW.ref.__gxx_personality_v0
 604              		.cfi_lsda 0x1b,.LLSDA1524
 605 0000 F30F1EFA 		endbr64
 606 0004 4154     		pushq	%r12
 607              		.cfi_def_cfa_offset 16
 608              		.cfi_offset 12, -16
 609 0006 488D0500 		leaq	16+_ZTV25TestHexIO_testJunkAddrLsb(%rip), %rax
 609      000000
 610 000d 55       		pushq	%rbp
 611              		.cfi_def_cfa_offset 24
 612              		.cfi_offset 6, -24
 613 000e 4889FD   		movq	%rdi, %rbp
 614 0011 4883EC08 		subq	$8, %rsp
 615              		.cfi_def_cfa_offset 32
 616 0015 488907   		movq	%rax, (%rdi)
 617              	.LEHB14:
 618 0018 E8000000 		call	_ZN8UnitTest4TestD2Ev@PLT
 618      00
 619              	.LEHE14:
 620 001d 4883C408 		addq	$8, %rsp
 621              		.cfi_remember_state
 622              		.cfi_def_cfa_offset 24
 623 0021 4889EF   		movq	%rbp, %rdi
 624 0024 5D       		popq	%rbp
 625              		.cfi_def_cfa_offset 16
 626 0025 415C     		popq	%r12
 627              		.cfi_def_cfa_offset 8
 628 0027 E9000000 		jmp	_ZdlPv@PLT
 628      00
 629              	.L40:
 630              		.cfi_restore_state
 631 002c F30F1EFA 		endbr64
 632 0030 4989C4   		movq	%rax, %r12
 633              	.L39:
 634 0033 4889EF   		movq	%rbp, %rdi
 635 0036 E8000000 		call	_ZdlPv@PLT
 635      00
 636 003b 4C89E7   		movq	%r12, %rdi
 637              	.LEHB15:
 638 003e E8000000 		call	_Unwind_Resume@PLT
 638      00
 639              	.LEHE15:
 640              		.cfi_endproc
 641              	.LFE1524:
 642              		.section	.gcc_except_table._ZN25TestHexIO_testJunkAddrLsbD0Ev,"aG",@progbits,_ZN25TestHexIO_testJu
 643              	.LLSDA1524:
 644 0000 FF       		.byte	0xff
 645 0001 FF       		.byte	0xff
 646 0002 01       		.byte	0x1
 647 0003 08       		.uleb128 .LLSDACSE1524-.LLSDACSB1524
 648              	.LLSDACSB1524:
 649 0004 18       		.uleb128 .LEHB14-.LFB1524
 650 0005 05       		.uleb128 .LEHE14-.LEHB14
 651 0006 2C       		.uleb128 .L40-.LFB1524
 652 0007 00       		.uleb128 0
 653 0008 3E       		.uleb128 .LEHB15-.LFB1524
 654 0009 05       		.uleb128 .LEHE15-.LEHB15
 655 000a 00       		.uleb128 0
 656 000b 00       		.uleb128 0
 657              	.LLSDACSE1524:
 658              		.section	.text._ZN25TestHexIO_testJunkAddrLsbD0Ev,"axG",@progbits,_ZN25TestHexIO_testJunkAddrLsbD5
 660              		.section	.text._ZN25TestHexIO_testJunkAddrMsbD2Ev,"axG",@progbits,_ZN25TestHexIO_testJunkAddrMsbD5
 661              		.align 2
 662              		.p2align 4
 663              		.weak	_ZN25TestHexIO_testJunkAddrMsbD2Ev
 665              	_ZN25TestHexIO_testJunkAddrMsbD2Ev:
 666              	.LFB1526:
 667              		.cfi_startproc
 668 0000 F30F1EFA 		endbr64
 669 0004 488D0500 		leaq	16+_ZTV25TestHexIO_testJunkAddrMsb(%rip), %rax
 669      000000
 670 000b 488907   		movq	%rax, (%rdi)
 671 000e E9000000 		jmp	_ZN8UnitTest4TestD2Ev@PLT
 671      00
 672              		.cfi_endproc
 673              	.LFE1526:
 675              		.weak	_ZN25TestHexIO_testJunkAddrMsbD1Ev
 676              		.set	_ZN25TestHexIO_testJunkAddrMsbD1Ev,_ZN25TestHexIO_testJunkAddrMsbD2Ev
 677              		.section	.text._ZN25TestHexIO_testJunkAddrMsbD0Ev,"axG",@progbits,_ZN25TestHexIO_testJunkAddrMsbD5
 678              		.align 2
 679              		.p2align 4
 680              		.weak	_ZN25TestHexIO_testJunkAddrMsbD0Ev
 682              	_ZN25TestHexIO_testJunkAddrMsbD0Ev:
 683              	.LFB1528:
 684              		.cfi_startproc
 685              		.cfi_personality 0x9b,DW.ref.__gxx_personality_v0
 686              		.cfi_lsda 0x1b,.LLSDA1528
 687 0000 F30F1EFA 		endbr64
 688 0004 4154     		pushq	%r12
 689              		.cfi_def_cfa_offset 16
 690              		.cfi_offset 12, -16
 691 0006 488D0500 		leaq	16+_ZTV25TestHexIO_testJunkAddrMsb(%rip), %rax
 691      000000
 692 000d 55       		pushq	%rbp
 693              		.cfi_def_cfa_offset 24
 694              		.cfi_offset 6, -24
 695 000e 4889FD   		movq	%rdi, %rbp
 696 0011 4883EC08 		subq	$8, %rsp
 697              		.cfi_def_cfa_offset 32
 698 0015 488907   		movq	%rax, (%rdi)
 699              	.LEHB16:
 700 0018 E8000000 		call	_ZN8UnitTest4TestD2Ev@PLT
 700      00
 701              	.LEHE16:
 702 001d 4883C408 		addq	$8, %rsp
 703              		.cfi_remember_state
 704              		.cfi_def_cfa_offset 24
 705 0021 4889EF   		movq	%rbp, %rdi
 706 0024 5D       		popq	%rbp
 707              		.cfi_def_cfa_offset 16
 708 0025 415C     		popq	%r12
 709              		.cfi_def_cfa_offset 8
 710 0027 E9000000 		jmp	_ZdlPv@PLT
 710      00
 711              	.L45:
 712              		.cfi_restore_state
 713 002c F30F1EFA 		endbr64
 714 0030 4989C4   		movq	%rax, %r12
 715              	.L44:
 716 0033 4889EF   		movq	%rbp, %rdi
 717 0036 E8000000 		call	_ZdlPv@PLT
 717      00
 718 003b 4C89E7   		movq	%r12, %rdi
 719              	.LEHB17:
 720 003e E8000000 		call	_Unwind_Resume@PLT
 720      00
 721              	.LEHE17:
 722              		.cfi_endproc
 723              	.LFE1528:
 724              		.section	.gcc_except_table._ZN25TestHexIO_testJunkAddrMsbD0Ev,"aG",@progbits,_ZN25TestHexIO_testJu
 725              	.LLSDA1528:
 726 0000 FF       		.byte	0xff
 727 0001 FF       		.byte	0xff
 728 0002 01       		.byte	0x1
 729 0003 08       		.uleb128 .LLSDACSE1528-.LLSDACSB1528
 730              	.LLSDACSB1528:
 731 0004 18       		.uleb128 .LEHB16-.LFB1528
 732 0005 05       		.uleb128 .LEHE16-.LEHB16
 733 0006 2C       		.uleb128 .L45-.LFB1528
 734 0007 00       		.uleb128 0
 735 0008 3E       		.uleb128 .LEHB17-.LFB1528
 736 0009 05       		.uleb128 .LEHE17-.LEHB17
 737 000a 00       		.uleb128 0
 738 000b 00       		.uleb128 0
 739              	.LLSDACSE1528:
 740              		.section	.text._ZN25TestHexIO_testJunkAddrMsbD0Ev,"axG",@progbits,_ZN25TestHexIO_testJunkAddrMsbD5
 742              		.section	.text._ZN27TestHexIO_testJunkByteCountD2Ev,"axG",@progbits,_ZN27TestHexIO_testJunkByteCou
 743              		.align 2
 744              		.p2align 4
 745              		.weak	_ZN27TestHexIO_testJunkByteCountD2Ev
 747              	_ZN27TestHexIO_testJunkByteCountD2Ev:
 748              	.LFB1530:
 749              		.cfi_startproc
 750 0000 F30F1EFA 		endbr64
 751 0004 488D0500 		leaq	16+_ZTV27TestHexIO_testJunkByteCount(%rip), %rax
 751      000000
 752 000b 488907   		movq	%rax, (%rdi)
 753 000e E9000000 		jmp	_ZN8UnitTest4TestD2Ev@PLT
 753      00
 754              		.cfi_endproc
 755              	.LFE1530:
 757              		.weak	_ZN27TestHexIO_testJunkByteCountD1Ev
 758              		.set	_ZN27TestHexIO_testJunkByteCountD1Ev,_ZN27TestHexIO_testJunkByteCountD2Ev
 759              		.section	.text._ZN27TestHexIO_testJunkByteCountD0Ev,"axG",@progbits,_ZN27TestHexIO_testJunkByteCou
 760              		.align 2
 761              		.p2align 4
 762              		.weak	_ZN27TestHexIO_testJunkByteCountD0Ev
 764              	_ZN27TestHexIO_testJunkByteCountD0Ev:
 765              	.LFB1532:
 766              		.cfi_startproc
 767              		.cfi_personality 0x9b,DW.ref.__gxx_personality_v0
 768              		.cfi_lsda 0x1b,.LLSDA1532
 769 0000 F30F1EFA 		endbr64
 770 0004 4154     		pushq	%r12
 771              		.cfi_def_cfa_offset 16
 772              		.cfi_offset 12, -16
 773 0006 488D0500 		leaq	16+_ZTV27TestHexIO_testJunkByteCount(%rip), %rax
 773      000000
 774 000d 55       		pushq	%rbp
 775              		.cfi_def_cfa_offset 24
 776              		.cfi_offset 6, -24
 777 000e 4889FD   		movq	%rdi, %rbp
 778 0011 4883EC08 		subq	$8, %rsp
 779              		.cfi_def_cfa_offset 32
 780 0015 488907   		movq	%rax, (%rdi)
 781              	.LEHB18:
 782 0018 E8000000 		call	_ZN8UnitTest4TestD2Ev@PLT
 782      00
 783              	.LEHE18:
 784 001d 4883C408 		addq	$8, %rsp
 785              		.cfi_remember_state
 786              		.cfi_def_cfa_offset 24
 787 0021 4889EF   		movq	%rbp, %rdi
 788 0024 5D       		popq	%rbp
 789              		.cfi_def_cfa_offset 16
 790 0025 415C     		popq	%r12
 791              		.cfi_def_cfa_offset 8
 792 0027 E9000000 		jmp	_ZdlPv@PLT
 792      00
 793              	.L50:
 794              		.cfi_restore_state
 795 002c F30F1EFA 		endbr64
 796 0030 4989C4   		movq	%rax, %r12
 797              	.L49:
 798 0033 4889EF   		movq	%rbp, %rdi
 799 0036 E8000000 		call	_ZdlPv@PLT
 799      00
 800 003b 4C89E7   		movq	%r12, %rdi
 801              	.LEHB19:
 802 003e E8000000 		call	_Unwind_Resume@PLT
 802      00
 803              	.LEHE19:
 804              		.cfi_endproc
 805              	.LFE1532:
 806              		.section	.gcc_except_table._ZN27TestHexIO_testJunkByteCountD0Ev,"aG",@progbits,_ZN27TestHexIO_test
 807              	.LLSDA1532:
 808 0000 FF       		.byte	0xff
 809 0001 FF       		.byte	0xff
 810 0002 01       		.byte	0x1
 811 0003 08       		.uleb128 .LLSDACSE1532-.LLSDACSB1532
 812              	.LLSDACSB1532:
 813 0004 18       		.uleb128 .LEHB18-.LFB1532
 814 0005 05       		.uleb128 .LEHE18-.LEHB18
 815 0006 2C       		.uleb128 .L50-.LFB1532
 816 0007 00       		.uleb128 0
 817 0008 3E       		.uleb128 .LEHB19-.LFB1532
 818 0009 05       		.uleb128 .LEHE19-.LEHB19
 819 000a 00       		.uleb128 0
 820 000b 00       		.uleb128 0
 821              	.LLSDACSE1532:
 822              		.section	.text._ZN27TestHexIO_testJunkByteCountD0Ev,"axG",@progbits,_ZN27TestHexIO_testJunkByteCou
 824              		.section	.text._ZN27TestHexIO_testJunkStartCodeD2Ev,"axG",@progbits,_ZN27TestHexIO_testJunkStartCo
 825              		.align 2
 826              		.p2align 4
 827              		.weak	_ZN27TestHexIO_testJunkStartCodeD2Ev
 829              	_ZN27TestHexIO_testJunkStartCodeD2Ev:
 830              	.LFB1534:
 831              		.cfi_startproc
 832 0000 F30F1EFA 		endbr64
 833 0004 488D0500 		leaq	16+_ZTV27TestHexIO_testJunkStartCode(%rip), %rax
 833      000000
 834 000b 488907   		movq	%rax, (%rdi)
 835 000e E9000000 		jmp	_ZN8UnitTest4TestD2Ev@PLT
 835      00
 836              		.cfi_endproc
 837              	.LFE1534:
 839              		.weak	_ZN27TestHexIO_testJunkStartCodeD1Ev
 840              		.set	_ZN27TestHexIO_testJunkStartCodeD1Ev,_ZN27TestHexIO_testJunkStartCodeD2Ev
 841              		.section	.text._ZN27TestHexIO_testJunkStartCodeD0Ev,"axG",@progbits,_ZN27TestHexIO_testJunkStartCo
 842              		.align 2
 843              		.p2align 4
 844              		.weak	_ZN27TestHexIO_testJunkStartCodeD0Ev
 846              	_ZN27TestHexIO_testJunkStartCodeD0Ev:
 847              	.LFB1536:
 848              		.cfi_startproc
 849              		.cfi_personality 0x9b,DW.ref.__gxx_personality_v0
 850              		.cfi_lsda 0x1b,.LLSDA1536
 851 0000 F30F1EFA 		endbr64
 852 0004 4154     		pushq	%r12
 853              		.cfi_def_cfa_offset 16
 854              		.cfi_offset 12, -16
 855 0006 488D0500 		leaq	16+_ZTV27TestHexIO_testJunkStartCode(%rip), %rax
 855      000000
 856 000d 55       		pushq	%rbp
 857              		.cfi_def_cfa_offset 24
 858              		.cfi_offset 6, -24
 859 000e 4889FD   		movq	%rdi, %rbp
 860 0011 4883EC08 		subq	$8, %rsp
 861              		.cfi_def_cfa_offset 32
 862 0015 488907   		movq	%rax, (%rdi)
 863              	.LEHB20:
 864 0018 E8000000 		call	_ZN8UnitTest4TestD2Ev@PLT
 864      00
 865              	.LEHE20:
 866 001d 4883C408 		addq	$8, %rsp
 867              		.cfi_remember_state
 868              		.cfi_def_cfa_offset 24
 869 0021 4889EF   		movq	%rbp, %rdi
 870 0024 5D       		popq	%rbp
 871              		.cfi_def_cfa_offset 16
 872 0025 415C     		popq	%r12
 873              		.cfi_def_cfa_offset 8
 874 0027 E9000000 		jmp	_ZdlPv@PLT
 874      00
 875              	.L55:
 876              		.cfi_restore_state
 877 002c F30F1EFA 		endbr64
 878 0030 4989C4   		movq	%rax, %r12
 879              	.L54:
 880 0033 4889EF   		movq	%rbp, %rdi
 881 0036 E8000000 		call	_ZdlPv@PLT
 881      00
 882 003b 4C89E7   		movq	%r12, %rdi
 883              	.LEHB21:
 884 003e E8000000 		call	_Unwind_Resume@PLT
 884      00
 885              	.LEHE21:
 886              		.cfi_endproc
 887              	.LFE1536:
 888              		.section	.gcc_except_table._ZN27TestHexIO_testJunkStartCodeD0Ev,"aG",@progbits,_ZN27TestHexIO_test
 889              	.LLSDA1536:
 890 0000 FF       		.byte	0xff
 891 0001 FF       		.byte	0xff
 892 0002 01       		.byte	0x1
 893 0003 08       		.uleb128 .LLSDACSE1536-.LLSDACSB1536
 894              	.LLSDACSB1536:
 895 0004 18       		.uleb128 .LEHB20-.LFB1536
 896 0005 05       		.uleb128 .LEHE20-.LEHB20
 897 0006 2C       		.uleb128 .L55-.LFB1536
 898 0007 00       		.uleb128 0
 899 0008 3E       		.uleb128 .LEHB21-.LFB1536
 900 0009 05       		.uleb128 .LEHE21-.LEHB21
 901 000a 00       		.uleb128 0
 902 000b 00       		.uleb128 0
 903              	.LLSDACSE1536:
 904              		.section	.text._ZN27TestHexIO_testJunkStartCodeD0Ev,"axG",@progbits,_ZN27TestHexIO_testJunkStartCo
 906              		.section	.text._ZN22TestHexIO_testValidEOFD2Ev,"axG",@progbits,_ZN22TestHexIO_testValidEOFD5Ev,com
 907              		.align 2
 908              		.p2align 4
 909              		.weak	_ZN22TestHexIO_testValidEOFD2Ev
 911              	_ZN22TestHexIO_testValidEOFD2Ev:
 912              	.LFB1538:
 913              		.cfi_startproc
 914 0000 F30F1EFA 		endbr64
 915 0004 488D0500 		leaq	16+_ZTV22TestHexIO_testValidEOF(%rip), %rax
 915      000000
 916 000b 488907   		movq	%rax, (%rdi)
 917 000e E9000000 		jmp	_ZN8UnitTest4TestD2Ev@PLT
 917      00
 918              		.cfi_endproc
 919              	.LFE1538:
 921              		.weak	_ZN22TestHexIO_testValidEOFD1Ev
 922              		.set	_ZN22TestHexIO_testValidEOFD1Ev,_ZN22TestHexIO_testValidEOFD2Ev
 923              		.section	.text._ZN22TestHexIO_testValidEOFD0Ev,"axG",@progbits,_ZN22TestHexIO_testValidEOFD5Ev,com
 924              		.align 2
 925              		.p2align 4
 926              		.weak	_ZN22TestHexIO_testValidEOFD0Ev
 928              	_ZN22TestHexIO_testValidEOFD0Ev:
 929              	.LFB1540:
 930              		.cfi_startproc
 931              		.cfi_personality 0x9b,DW.ref.__gxx_personality_v0
 932              		.cfi_lsda 0x1b,.LLSDA1540
 933 0000 F30F1EFA 		endbr64
 934 0004 4154     		pushq	%r12
 935              		.cfi_def_cfa_offset 16
 936              		.cfi_offset 12, -16
 937 0006 488D0500 		leaq	16+_ZTV22TestHexIO_testValidEOF(%rip), %rax
 937      000000
 938 000d 55       		pushq	%rbp
 939              		.cfi_def_cfa_offset 24
 940              		.cfi_offset 6, -24
 941 000e 4889FD   		movq	%rdi, %rbp
 942 0011 4883EC08 		subq	$8, %rsp
 943              		.cfi_def_cfa_offset 32
 944 0015 488907   		movq	%rax, (%rdi)
 945              	.LEHB22:
 946 0018 E8000000 		call	_ZN8UnitTest4TestD2Ev@PLT
 946      00
 947              	.LEHE22:
 948 001d 4883C408 		addq	$8, %rsp
 949              		.cfi_remember_state
 950              		.cfi_def_cfa_offset 24
 951 0021 4889EF   		movq	%rbp, %rdi
 952 0024 5D       		popq	%rbp
 953              		.cfi_def_cfa_offset 16
 954 0025 415C     		popq	%r12
 955              		.cfi_def_cfa_offset 8
 956 0027 E9000000 		jmp	_ZdlPv@PLT
 956      00
 957              	.L60:
 958              		.cfi_restore_state
 959 002c F30F1EFA 		endbr64
 960 0030 4989C4   		movq	%rax, %r12
 961              	.L59:
 962 0033 4889EF   		movq	%rbp, %rdi
 963 0036 E8000000 		call	_ZdlPv@PLT
 963      00
 964 003b 4C89E7   		movq	%r12, %rdi
 965              	.LEHB23:
 966 003e E8000000 		call	_Unwind_Resume@PLT
 966      00
 967              	.LEHE23:
 968              		.cfi_endproc
 969              	.LFE1540:
 970              		.section	.gcc_except_table._ZN22TestHexIO_testValidEOFD0Ev,"aG",@progbits,_ZN22TestHexIO_testValid
 971              	.LLSDA1540:
 972 0000 FF       		.byte	0xff
 973 0001 FF       		.byte	0xff
 974 0002 01       		.byte	0x1
 975 0003 08       		.uleb128 .LLSDACSE1540-.LLSDACSB1540
 976              	.LLSDACSB1540:
 977 0004 18       		.uleb128 .LEHB22-.LFB1540
 978 0005 05       		.uleb128 .LEHE22-.LEHB22
 979 0006 2C       		.uleb128 .L60-.LFB1540
 980 0007 00       		.uleb128 0
 981 0008 3E       		.uleb128 .LEHB23-.LFB1540
 982 0009 05       		.uleb128 .LEHE23-.LEHB23
 983 000a 00       		.uleb128 0
 984 000b 00       		.uleb128 0
 985              	.LLSDACSE1540:
 986              		.section	.text._ZN22TestHexIO_testValidEOFD0Ev,"axG",@progbits,_ZN22TestHexIO_testValidEOFD5Ev,com
 988              		.section	.text._ZN27TestHexIO_testValidDataLineD2Ev,"axG",@progbits,_ZN27TestHexIO_testValidDataLi
 989              		.align 2
 990              		.p2align 4
 991              		.weak	_ZN27TestHexIO_testValidDataLineD2Ev
 993              	_ZN27TestHexIO_testValidDataLineD2Ev:
 994              	.LFB1542:
 995              		.cfi_startproc
 996 0000 F30F1EFA 		endbr64
 997 0004 488D0500 		leaq	16+_ZTV27TestHexIO_testValidDataLine(%rip), %rax
 997      000000
 998 000b 488907   		movq	%rax, (%rdi)
 999 000e E9000000 		jmp	_ZN8UnitTest4TestD2Ev@PLT
 999      00
 1000              		.cfi_endproc
 1001              	.LFE1542:
 1003              		.weak	_ZN27TestHexIO_testValidDataLineD1Ev
 1004              		.set	_ZN27TestHexIO_testValidDataLineD1Ev,_ZN27TestHexIO_testValidDataLineD2Ev
 1005              		.section	.text._ZN27TestHexIO_testValidDataLineD0Ev,"axG",@progbits,_ZN27TestHexIO_testValidDataLi
 1006              		.align 2
 1007              		.p2align 4
 1008              		.weak	_ZN27TestHexIO_testValidDataLineD0Ev
 1010              	_ZN27TestHexIO_testValidDataLineD0Ev:
 1011              	.LFB1544:
 1012              		.cfi_startproc
 1013              		.cfi_personality 0x9b,DW.ref.__gxx_personality_v0
 1014              		.cfi_lsda 0x1b,.LLSDA1544
 1015 0000 F30F1EFA 		endbr64
 1016 0004 4154     		pushq	%r12
 1017              		.cfi_def_cfa_offset 16
 1018              		.cfi_offset 12, -16
 1019 0006 488D0500 		leaq	16+_ZTV27TestHexIO_testValidDataLine(%rip), %rax
 1019      000000
 1020 000d 55       		pushq	%rbp
 1021              		.cfi_def_cfa_offset 24
 1022              		.cfi_offset 6, -24
 1023 000e 4889FD   		movq	%rdi, %rbp
 1024 0011 4883EC08 		subq	$8, %rsp
 1025              		.cfi_def_cfa_offset 32
 1026 0015 488907   		movq	%rax, (%rdi)
 1027              	.LEHB24:
 1028 0018 E8000000 		call	_ZN8UnitTest4TestD2Ev@PLT
 1028      00
 1029              	.LEHE24:
 1030 001d 4883C408 		addq	$8, %rsp
 1031              		.cfi_remember_state
 1032              		.cfi_def_cfa_offset 24
 1033 0021 4889EF   		movq	%rbp, %rdi
 1034 0024 5D       		popq	%rbp
 1035              		.cfi_def_cfa_offset 16
 1036 0025 415C     		popq	%r12
 1037              		.cfi_def_cfa_offset 8
 1038 0027 E9000000 		jmp	_ZdlPv@PLT
 1038      00
 1039              	.L65:
 1040              		.cfi_restore_state
 1041 002c F30F1EFA 		endbr64
 1042 0030 4989C4   		movq	%rax, %r12
 1043              	.L64:
 1044 0033 4889EF   		movq	%rbp, %rdi
 1045 0036 E8000000 		call	_ZdlPv@PLT
 1045      00
 1046 003b 4C89E7   		movq	%r12, %rdi
 1047              	.LEHB25:
 1048 003e E8000000 		call	_Unwind_Resume@PLT
 1048      00
 1049              	.LEHE25:
 1050              		.cfi_endproc
 1051              	.LFE1544:
 1052              		.section	.gcc_except_table._ZN27TestHexIO_testValidDataLineD0Ev,"aG",@progbits,_ZN27TestHexIO_test
 1053              	.LLSDA1544:
 1054 0000 FF       		.byte	0xff
 1055 0001 FF       		.byte	0xff
 1056 0002 01       		.byte	0x1
 1057 0003 08       		.uleb128 .LLSDACSE1544-.LLSDACSB1544
 1058              	.LLSDACSB1544:
 1059 0004 18       		.uleb128 .LEHB24-.LFB1544
 1060 0005 05       		.uleb128 .LEHE24-.LEHB24
 1061 0006 2C       		.uleb128 .L65-.LFB1544
 1062 0007 00       		.uleb128 0
 1063 0008 3E       		.uleb128 .LEHB25-.LFB1544
 1064 0009 05       		.uleb128 .LEHE25-.LEHB25
 1065 000a 00       		.uleb128 0
 1066 000b 00       		.uleb128 0
 1067              	.LLSDACSE1544:
 1068              		.section	.text._ZN27TestHexIO_testValidDataLineD0Ev,"axG",@progbits,_ZN27TestHexIO_testValidDataLi
 1070              		.section	.text._ZN8UnitTest15MemoryOutStreamD1Ev,"axG",@progbits,_ZN8UnitTest15MemoryOutStreamD1Ev
 1071              		.align 2
 1072              		.p2align 4
 1073              		.weak	_ZN8UnitTest15MemoryOutStreamD1Ev
 1075              	_ZN8UnitTest15MemoryOutStreamD1Ev:
 1076              	.LFB1391:
 1077              		.cfi_startproc
 1078 0000 F30F1EFA 		endbr64
 1079 0004 55       		pushq	%rbp
 1080              		.cfi_def_cfa_offset 16
 1081              		.cfi_offset 6, -16
 1082 0005 488D0500 		leaq	24+_ZTVN8UnitTest15MemoryOutStreamE(%rip), %rax
 1082      000000
 1083 000c 53       		pushq	%rbx
 1084              		.cfi_def_cfa_offset 24
 1085              		.cfi_offset 3, -24
 1086 000d 4889FB   		movq	%rdi, %rbx
 1087 0010 4883EC08 		subq	$8, %rsp
 1088              		.cfi_def_cfa_offset 32
 1089 0014 488907   		movq	%rax, (%rdi)
 1090 0017 4883C028 		addq	$40, %rax
 1091 001b 48898790 		movq	%rax, 144(%rdi)
 1091      000000
 1092 0022 488B7F70 		movq	112(%rdi), %rdi
 1093 0026 488D8380 		leaq	128(%rbx), %rax
 1093      000000
 1094 002d 4839C7   		cmpq	%rax, %rdi
 1095 0030 7405     		je	.L68
 1096 0032 E8000000 		call	_ZdlPv@PLT
 1096      00
 1097              	.L68:
 1098 0037 488D0500 		leaq	64+_ZTCN8UnitTest15MemoryOutStreamE0_NSt7__cxx1119basic_ostringstreamIcSt11char_traitsIcESaIc
 1098      000000
 1099 003e 488D1500 		leaq	24+_ZTCN8UnitTest15MemoryOutStreamE0_NSt7__cxx1119basic_ostringstreamIcSt11char_traitsIcESaIc
 1099      000000
 1100 0045 488B7B50 		movq	80(%rbx), %rdi
 1101 0049 48898390 		movq	%rax, 144(%rbx)
 1101      000000
 1102 0050 488D0500 		leaq	16+_ZTVNSt7__cxx1115basic_stringbufIcSt11char_traitsIcESaIcEEE(%rip), %rax
 1102      000000
 1103 0057 66480F6E 		movq	%rdx, %xmm0
 1103      C2
 1104 005c 488DAB90 		leaq	144(%rbx), %rbp
 1104      000000
 1105 0063 66480F6E 		movq	%rax, %xmm1
 1105      C8
 1106 0068 488D4360 		leaq	96(%rbx), %rax
 1107 006c 660F6CC1 		punpcklqdq	%xmm1, %xmm0
 1108 0070 0F1103   		movups	%xmm0, (%rbx)
 1109 0073 4839C7   		cmpq	%rax, %rdi
 1110 0076 7405     		je	.L69
 1111 0078 E8000000 		call	_ZdlPv@PLT
 1111      00
 1112              	.L69:
 1113 007d 488D0500 		leaq	16+_ZTVSt15basic_streambufIcSt11char_traitsIcEE(%rip), %rax
 1113      000000
 1114 0084 488D7B40 		leaq	64(%rbx), %rdi
 1115 0088 48894308 		movq	%rax, 8(%rbx)
 1116 008c E8000000 		call	_ZNSt6localeD1Ev@PLT
 1116      00
 1117 0091 488D0500 		leaq	24+_ZTCN8UnitTest15MemoryOutStreamE0_So(%rip), %rax
 1117      000000
 1118 0098 4889EF   		movq	%rbp, %rdi
 1119 009b 488903   		movq	%rax, (%rbx)
 1120 009e 488D0500 		leaq	16+_ZTVSt9basic_iosIcSt11char_traitsIcEE(%rip), %rax
 1120      000000
 1121 00a5 48898390 		movq	%rax, 144(%rbx)
 1121      000000
 1122 00ac 4883C408 		addq	$8, %rsp
 1123              		.cfi_def_cfa_offset 24
 1124 00b0 5B       		popq	%rbx
 1125              		.cfi_def_cfa_offset 16
 1126 00b1 5D       		popq	%rbp
 1127              		.cfi_def_cfa_offset 8
 1128 00b2 E9000000 		jmp	_ZNSt8ios_baseD2Ev@PLT
 1128      00
 1129              		.cfi_endproc
 1130              	.LFE1391:
 1132 00b7 660F1F84 		.p2align 4
 1132      00000000 
 1132      00
 1133              		.weak	_ZTv0_n24_N8UnitTest15MemoryOutStreamD1Ev
 1135              	_ZTv0_n24_N8UnitTest15MemoryOutStreamD1Ev:
 1136              	.LFB1551:
 1137              		.cfi_startproc
 1138 00c0 F30F1EFA 		endbr64
 1139 00c4 55       		pushq	%rbp
 1140              		.cfi_def_cfa_offset 16
 1141              		.cfi_offset 6, -16
 1142 00c5 53       		pushq	%rbx
 1143              		.cfi_def_cfa_offset 24
 1144              		.cfi_offset 3, -24
 1145 00c6 4889FB   		movq	%rdi, %rbx
 1146 00c9 4883EC08 		subq	$8, %rsp
 1147              		.cfi_def_cfa_offset 32
 1148 00cd 488B07   		movq	(%rdi), %rax
 1149 00d0 480358E8 		addq	-24(%rax), %rbx
 1150 00d4 488D0500 		leaq	24+_ZTVN8UnitTest15MemoryOutStreamE(%rip), %rax
 1150      000000
 1151 00db 488903   		movq	%rax, (%rbx)
 1152 00de 488B7B70 		movq	112(%rbx), %rdi
 1153 00e2 4883C028 		addq	$40, %rax
 1154 00e6 48898390 		movq	%rax, 144(%rbx)
 1154      000000
 1155 00ed 488D8380 		leaq	128(%rbx), %rax
 1155      000000
 1156 00f4 4839C7   		cmpq	%rax, %rdi
 1157 00f7 7405     		je	.L72
 1158 00f9 E8000000 		call	_ZdlPv@PLT
 1158      00
 1159              	.L72:
 1160 00fe 488D0500 		leaq	64+_ZTCN8UnitTest15MemoryOutStreamE0_NSt7__cxx1119basic_ostringstreamIcSt11char_traitsIcESaIc
 1160      000000
 1161 0105 488D1500 		leaq	24+_ZTCN8UnitTest15MemoryOutStreamE0_NSt7__cxx1119basic_ostringstreamIcSt11char_traitsIcESaIc
 1161      000000
 1162 010c 488B7B50 		movq	80(%rbx), %rdi
 1163 0110 48898390 		movq	%rax, 144(%rbx)
 1163      000000
 1164 0117 488D0500 		leaq	16+_ZTVNSt7__cxx1115basic_stringbufIcSt11char_traitsIcESaIcEEE(%rip), %rax
 1164      000000
 1165 011e 66480F6E 		movq	%rdx, %xmm0
 1165      C2
 1166 0123 488DAB90 		leaq	144(%rbx), %rbp
 1166      000000
 1167 012a 66480F6E 		movq	%rax, %xmm1
 1167      C8
 1168 012f 488D4360 		leaq	96(%rbx), %rax
 1169 0133 660F6CC1 		punpcklqdq	%xmm1, %xmm0
 1170 0137 0F1103   		movups	%xmm0, (%rbx)
 1171 013a 4839C7   		cmpq	%rax, %rdi
 1172 013d 7405     		je	.L73
 1173 013f E8000000 		call	_ZdlPv@PLT
 1173      00
 1174              	.L73:
 1175 0144 488D0500 		leaq	16+_ZTVSt15basic_streambufIcSt11char_traitsIcEE(%rip), %rax
 1175      000000
 1176 014b 488D7B40 		leaq	64(%rbx), %rdi
 1177 014f 48894308 		movq	%rax, 8(%rbx)
 1178 0153 E8000000 		call	_ZNSt6localeD1Ev@PLT
 1178      00
 1179 0158 488D0500 		leaq	24+_ZTCN8UnitTest15MemoryOutStreamE0_So(%rip), %rax
 1179      000000
 1180 015f 4889EF   		movq	%rbp, %rdi
 1181 0162 488903   		movq	%rax, (%rbx)
 1182 0165 488D0500 		leaq	16+_ZTVSt9basic_iosIcSt11char_traitsIcEE(%rip), %rax
 1182      000000
 1183 016c 48898390 		movq	%rax, 144(%rbx)
 1183      000000
 1184 0173 4883C408 		addq	$8, %rsp
 1185              		.cfi_def_cfa_offset 24
 1186 0177 5B       		popq	%rbx
 1187              		.cfi_def_cfa_offset 16
 1188 0178 5D       		popq	%rbp
 1189              		.cfi_def_cfa_offset 8
 1190 0179 E9000000 		jmp	_ZNSt8ios_baseD2Ev@PLT
 1190      00
 1191              		.cfi_endproc
 1192              	.LFE1551:
 1194              		.section	.text._ZN8UnitTest15MemoryOutStreamD0Ev,"axG",@progbits,_ZN8UnitTest15MemoryOutStreamD0Ev
 1195              		.align 2
 1196              		.p2align 4
 1197              		.weak	_ZN8UnitTest15MemoryOutStreamD0Ev
 1199              	_ZN8UnitTest15MemoryOutStreamD0Ev:
 1200              	.LFB1392:
 1201              		.cfi_startproc
 1202              		.cfi_personality 0x9b,DW.ref.__gxx_personality_v0
 1203              		.cfi_lsda 0x1b,.LLSDA1392
 1204 0000 F30F1EFA 		endbr64
 1205 0004 4154     		pushq	%r12
 1206              		.cfi_def_cfa_offset 16
 1207              		.cfi_offset 12, -16
 1208 0006 488D0500 		leaq	24+_ZTVN8UnitTest15MemoryOutStreamE(%rip), %rax
 1208      000000
 1209 000d 55       		pushq	%rbp
 1210              		.cfi_def_cfa_offset 24
 1211              		.cfi_offset 6, -24
 1212 000e 4889FD   		movq	%rdi, %rbp
 1213 0011 4883EC08 		subq	$8, %rsp
 1214              		.cfi_def_cfa_offset 32
 1215 0015 488907   		movq	%rax, (%rdi)
 1216 0018 4883C028 		addq	$40, %rax
 1217 001c 48898790 		movq	%rax, 144(%rdi)
 1217      000000
 1218 0023 488B7F70 		movq	112(%rdi), %rdi
 1219 0027 488D8580 		leaq	128(%rbp), %rax
 1219      000000
 1220 002e 4839C7   		cmpq	%rax, %rdi
 1221 0031 7405     		je	.L76
 1222 0033 E8000000 		call	_ZdlPv@PLT
 1222      00
 1223              	.L76:
 1224 0038 488D0500 		leaq	64+_ZTCN8UnitTest15MemoryOutStreamE0_NSt7__cxx1119basic_ostringstreamIcSt11char_traitsIcESaIc
 1224      000000
 1225 003f 488D1500 		leaq	24+_ZTCN8UnitTest15MemoryOutStreamE0_NSt7__cxx1119basic_ostringstreamIcSt11char_traitsIcESaIc
 1225      000000
 1226 0046 488B7D50 		movq	80(%rbp), %rdi
 1227 004a 48898590 		movq	%rax, 144(%rbp)
 1227      000000
 1228 0051 488D0500 		leaq	16+_ZTVNSt7__cxx1115basic_stringbufIcSt11char_traitsIcESaIcEEE(%rip), %rax
 1228      000000
 1229 0058 66480F6E 		movq	%rdx, %xmm0
 1229      C2
 1230 005d 4C8DA590 		leaq	144(%rbp), %r12
 1230      000000
 1231 0064 66480F6E 		movq	%rax, %xmm1
 1231      C8
 1232 0069 488D4560 		leaq	96(%rbp), %rax
 1233 006d 660F6CC1 		punpcklqdq	%xmm1, %xmm0
 1234 0071 0F114500 		movups	%xmm0, 0(%rbp)
 1235 0075 4839C7   		cmpq	%rax, %rdi
 1236 0078 7405     		je	.L77
 1237 007a E8000000 		call	_ZdlPv@PLT
 1237      00
 1238              	.L77:
 1239 007f 488D0500 		leaq	16+_ZTVSt15basic_streambufIcSt11char_traitsIcEE(%rip), %rax
 1239      000000
 1240 0086 488D7D40 		leaq	64(%rbp), %rdi
 1241 008a 48894508 		movq	%rax, 8(%rbp)
 1242 008e E8000000 		call	_ZNSt6localeD1Ev@PLT
 1242      00
 1243 0093 488D0500 		leaq	24+_ZTCN8UnitTest15MemoryOutStreamE0_So(%rip), %rax
 1243      000000
 1244 009a 4C89E7   		movq	%r12, %rdi
 1245 009d 48894500 		movq	%rax, 0(%rbp)
 1246 00a1 488D0500 		leaq	16+_ZTVSt9basic_iosIcSt11char_traitsIcEE(%rip), %rax
 1246      000000
 1247 00a8 48898590 		movq	%rax, 144(%rbp)
 1247      000000
 1248              	.LEHB26:
 1249 00af E8000000 		call	_ZNSt8ios_baseD2Ev@PLT
 1249      00
 1250              	.LEHE26:
 1251 00b4 4883C408 		addq	$8, %rsp
 1252              		.cfi_remember_state
 1253              		.cfi_def_cfa_offset 24
 1254 00b8 4889EF   		movq	%rbp, %rdi
 1255 00bb 5D       		popq	%rbp
 1256              		.cfi_def_cfa_offset 16
 1257 00bc 415C     		popq	%r12
 1258              		.cfi_def_cfa_offset 8
 1259 00be E9000000 		jmp	_ZdlPv@PLT
 1259      00
 1260              	.L79:
 1261              		.cfi_restore_state
 1262 00c3 F30F1EFA 		endbr64
 1263 00c7 4989C4   		movq	%rax, %r12
 1264              	.L78:
 1265 00ca 4889EF   		movq	%rbp, %rdi
 1266 00cd E8000000 		call	_ZdlPv@PLT
 1266      00
 1267 00d2 4C89E7   		movq	%r12, %rdi
 1268              	.LEHB27:
 1269 00d5 E8000000 		call	_Unwind_Resume@PLT
 1269      00
 1270              	.LEHE27:
 1271              		.cfi_endproc
 1272              	.LFE1392:
 1273              		.section	.gcc_except_table._ZN8UnitTest15MemoryOutStreamD0Ev,"aG",@progbits,_ZN8UnitTest15MemoryOu
 1274              	.LLSDA1392:
 1275 0000 FF       		.byte	0xff
 1276 0001 FF       		.byte	0xff
 1277 0002 01       		.byte	0x1
 1278 0003 0B       		.uleb128 .LLSDACSE1392-.LLSDACSB1392
 1279              	.LLSDACSB1392:
 1280 0004 AF01     		.uleb128 .LEHB26-.LFB1392
 1281 0006 05       		.uleb128 .LEHE26-.LEHB26
 1282 0007 C301     		.uleb128 .L79-.LFB1392
 1283 0009 00       		.uleb128 0
 1284 000a D501     		.uleb128 .LEHB27-.LFB1392
 1285 000c 05       		.uleb128 .LEHE27-.LEHB27
 1286 000d 00       		.uleb128 0
 1287 000e 00       		.uleb128 0
 1288              	.LLSDACSE1392:
 1289              		.section	.text._ZN8UnitTest15MemoryOutStreamD0Ev,"axG",@progbits,_ZN8UnitTest15MemoryOutStreamD0Ev
 1291 00da 660F1F44 		.p2align 4
 1291      0000
 1292              		.weak	_ZTv0_n24_N8UnitTest15MemoryOutStreamD0Ev
 1294              	_ZTv0_n24_N8UnitTest15MemoryOutStreamD0Ev:
 1295              	.LFB1550:
 1296              		.cfi_startproc
 1297              		.cfi_personality 0x9b,DW.ref.__gxx_personality_v0
 1298              		.cfi_lsda 0x1b,.LLSDA1550
 1299 00e0 F30F1EFA 		endbr64
 1300 00e4 4154     		pushq	%r12
 1301              		.cfi_def_cfa_offset 16
 1302              		.cfi_offset 12, -16
 1303 00e6 55       		pushq	%rbp
 1304              		.cfi_def_cfa_offset 24
 1305              		.cfi_offset 6, -24
 1306 00e7 4889FD   		movq	%rdi, %rbp
 1307 00ea 4883EC08 		subq	$8, %rsp
 1308              		.cfi_def_cfa_offset 32
 1309 00ee 488B07   		movq	(%rdi), %rax
 1310 00f1 480368E8 		addq	-24(%rax), %rbp
 1311 00f5 488D0500 		leaq	24+_ZTVN8UnitTest15MemoryOutStreamE(%rip), %rax
 1311      000000
 1312 00fc 48894500 		movq	%rax, 0(%rbp)
 1313 0100 488B7D70 		movq	112(%rbp), %rdi
 1314 0104 4883C028 		addq	$40, %rax
 1315 0108 48898590 		movq	%rax, 144(%rbp)
 1315      000000
 1316 010f 488D8580 		leaq	128(%rbp), %rax
 1316      000000
 1317 0116 4839C7   		cmpq	%rax, %rdi
 1318 0119 7405     		je	.L82
 1319 011b E8000000 		call	_ZdlPv@PLT
 1319      00
 1320              	.L82:
 1321 0120 488D0500 		leaq	64+_ZTCN8UnitTest15MemoryOutStreamE0_NSt7__cxx1119basic_ostringstreamIcSt11char_traitsIcESaIc
 1321      000000
 1322 0127 488D1500 		leaq	24+_ZTCN8UnitTest15MemoryOutStreamE0_NSt7__cxx1119basic_ostringstreamIcSt11char_traitsIcESaIc
 1322      000000
 1323 012e 488B7D50 		movq	80(%rbp), %rdi
 1324 0132 48898590 		movq	%rax, 144(%rbp)
 1324      000000
 1325 0139 488D0500 		leaq	16+_ZTVNSt7__cxx1115basic_stringbufIcSt11char_traitsIcESaIcEEE(%rip), %rax
 1325      000000
 1326 0140 66480F6E 		movq	%rdx, %xmm0
 1326      C2
 1327 0145 4C8DA590 		leaq	144(%rbp), %r12
 1327      000000
 1328 014c 66480F6E 		movq	%rax, %xmm1
 1328      C8
 1329 0151 488D4560 		leaq	96(%rbp), %rax
 1330 0155 660F6CC1 		punpcklqdq	%xmm1, %xmm0
 1331 0159 0F114500 		movups	%xmm0, 0(%rbp)
 1332 015d 4839C7   		cmpq	%rax, %rdi
 1333 0160 7405     		je	.L83
 1334 0162 E8000000 		call	_ZdlPv@PLT
 1334      00
 1335              	.L83:
 1336 0167 488D0500 		leaq	16+_ZTVSt15basic_streambufIcSt11char_traitsIcEE(%rip), %rax
 1336      000000
 1337 016e 488D7D40 		leaq	64(%rbp), %rdi
 1338 0172 48894508 		movq	%rax, 8(%rbp)
 1339 0176 E8000000 		call	_ZNSt6localeD1Ev@PLT
 1339      00
 1340 017b 488D0500 		leaq	24+_ZTCN8UnitTest15MemoryOutStreamE0_So(%rip), %rax
 1340      000000
 1341 0182 4C89E7   		movq	%r12, %rdi
 1342 0185 48894500 		movq	%rax, 0(%rbp)
 1343 0189 488D0500 		leaq	16+_ZTVSt9basic_iosIcSt11char_traitsIcEE(%rip), %rax
 1343      000000
 1344 0190 48898590 		movq	%rax, 144(%rbp)
 1344      000000
 1345              	.LEHB28:
 1346 0197 E8000000 		call	_ZNSt8ios_baseD2Ev@PLT
 1346      00
 1347              	.LEHE28:
 1348 019c 4883C408 		addq	$8, %rsp
 1349              		.cfi_remember_state
 1350              		.cfi_def_cfa_offset 24
 1351 01a0 4889EF   		movq	%rbp, %rdi
 1352 01a3 5D       		popq	%rbp
 1353              		.cfi_def_cfa_offset 16
 1354 01a4 415C     		popq	%r12
 1355              		.cfi_def_cfa_offset 8
 1356 01a6 E9000000 		jmp	_ZdlPv@PLT
 1356      00
 1357              	.L85:
 1358              		.cfi_restore_state
 1359 01ab F30F1EFA 		endbr64
 1360 01af 4989C4   		movq	%rax, %r12
 1361              	.L84:
 1362 01b2 4889EF   		movq	%rbp, %rdi
 1363 01b5 E8000000 		call	_ZdlPv@PLT
 1363      00
 1364 01ba 4C89E7   		movq	%r12, %rdi
 1365              	.LEHB29:
 1366 01bd E8000000 		call	_Unwind_Resume@PLT
 1366      00
 1367              	.LEHE29:
 1368              		.cfi_endproc
 1369              	.LFE1550:
 1370              		.section	.gcc_except_table._ZTv0_n24_N8UnitTest15MemoryOutStreamD0Ev,"aG",@progbits,_ZN8UnitTest15
 1371              	.LLSDA1550:
 1372 0000 FF       		.byte	0xff
 1373 0001 FF       		.byte	0xff
 1374 0002 01       		.byte	0x1
 1375 0003 0B       		.uleb128 .LLSDACSE1550-.LLSDACSB1550
 1376              	.LLSDACSB1550:
 1377 0004 B701     		.uleb128 .LEHB28-.LFB1550
 1378 0006 05       		.uleb128 .LEHE28-.LEHB28
 1379 0007 CB01     		.uleb128 .L85-.LFB1550
 1380 0009 00       		.uleb128 0
 1381 000a DD01     		.uleb128 .LEHB29-.LFB1550
 1382 000c 05       		.uleb128 .LEHE29-.LEHB29
 1383 000d 00       		.uleb128 0
 1384 000e 00       		.uleb128 0
 1385              	.LLSDACSE1550:
 1386              		.section	.text._ZN8UnitTest15MemoryOutStreamD0Ev,"axG",@progbits,_ZN8UnitTest15MemoryOutStreamD0Ev
 1388              		.section	.text._ZNSt7__cxx1115basic_stringbufIcSt11char_traitsIcESaIcEED2Ev,"axG",@progbits,_ZNSt7
 1389              		.align 2
 1390              		.p2align 4
 1391              		.weak	_ZNSt7__cxx1115basic_stringbufIcSt11char_traitsIcESaIcEED2Ev
 1393              	_ZNSt7__cxx1115basic_stringbufIcSt11char_traitsIcESaIcEED2Ev:
 1394              	.LFB1370:
 1395              		.cfi_startproc
 1396 0000 F30F1EFA 		endbr64
 1397 0004 488D0500 		leaq	16+_ZTVNSt7__cxx1115basic_stringbufIcSt11char_traitsIcESaIcEEE(%rip), %rax
 1397      000000
 1398 000b 53       		pushq	%rbx
 1399              		.cfi_def_cfa_offset 16
 1400              		.cfi_offset 3, -16
 1401 000c 4889FB   		movq	%rdi, %rbx
 1402 000f 488907   		movq	%rax, (%rdi)
 1403 0012 488B7F48 		movq	72(%rdi), %rdi
 1404 0016 488D4358 		leaq	88(%rbx), %rax
 1405 001a 4839C7   		cmpq	%rax, %rdi
 1406 001d 7405     		je	.L88
 1407 001f E8000000 		call	_ZdlPv@PLT
 1407      00
 1408              	.L88:
 1409 0024 488D0500 		leaq	16+_ZTVSt15basic_streambufIcSt11char_traitsIcEE(%rip), %rax
 1409      000000
 1410 002b 488D7B38 		leaq	56(%rbx), %rdi
 1411 002f 488903   		movq	%rax, (%rbx)
 1412 0032 5B       		popq	%rbx
 1413              		.cfi_def_cfa_offset 8
 1414 0033 E9000000 		jmp	_ZNSt6localeD1Ev@PLT
 1414      00
 1415              		.cfi_endproc
 1416              	.LFE1370:
 1418              		.weak	_ZNSt7__cxx1115basic_stringbufIcSt11char_traitsIcESaIcEED1Ev
 1419              		.set	_ZNSt7__cxx1115basic_stringbufIcSt11char_traitsIcESaIcEED1Ev,_ZNSt7__cxx1115basic_stringbufIc
 1420              		.section	.text._ZNSt7__cxx1115basic_stringbufIcSt11char_traitsIcESaIcEED0Ev,"axG",@progbits,_ZNSt7
 1421              		.align 2
 1422              		.p2align 4
 1423              		.weak	_ZNSt7__cxx1115basic_stringbufIcSt11char_traitsIcESaIcEED0Ev
 1425              	_ZNSt7__cxx1115basic_stringbufIcSt11char_traitsIcESaIcEED0Ev:
 1426              	.LFB1372:
 1427              		.cfi_startproc
 1428 0000 F30F1EFA 		endbr64
 1429 0004 488D0500 		leaq	16+_ZTVNSt7__cxx1115basic_stringbufIcSt11char_traitsIcESaIcEEE(%rip), %rax
 1429      000000
 1430 000b 55       		pushq	%rbp
 1431              		.cfi_def_cfa_offset 16
 1432              		.cfi_offset 6, -16
 1433 000c 4889FD   		movq	%rdi, %rbp
 1434 000f 488907   		movq	%rax, (%rdi)
 1435 0012 488B7F48 		movq	72(%rdi), %rdi
 1436 0016 488D4558 		leaq	88(%rbp), %rax
 1437 001a 4839C7   		cmpq	%rax, %rdi
 1438 001d 7405     		je	.L91
 1439 001f E8000000 		call	_ZdlPv@PLT
 1439      00
 1440              	.L91:
 1441 0024 488D0500 		leaq	16+_ZTVSt15basic_streambufIcSt11char_traitsIcEE(%rip), %rax
 1441      000000
 1442 002b 488D7D38 		leaq	56(%rbp), %rdi
 1443 002f 48894500 		movq	%rax, 0(%rbp)
 1444 0033 E8000000 		call	_ZNSt6localeD1Ev@PLT
 1444      00
 1445 0038 4889EF   		movq	%rbp, %rdi
 1446 003b 5D       		popq	%rbp
 1447              		.cfi_def_cfa_offset 8
 1448 003c E9000000 		jmp	_ZdlPv@PLT
 1448      00
 1449              		.cfi_endproc
 1450              	.LFE1372:
 1452              		.section	.rodata._ZN8UnitTest10CheckEqualI12BufferStatusS1_EEvRNS_11TestResultsERKT_RKT0_RKNS_11Te
 1453              	.LC0:
 1454 0000 45787065 		.string	"Expected "
 1454      63746564 
 1454      2000
 1455              	.LC1:
 1456 000a 20627574 		.string	" but was "
 1456      20776173 
 1456      2000
 1457              		.section	.text._ZN8UnitTest10CheckEqualI12BufferStatusS1_EEvRNS_11TestResultsERKT_RKT0_RKNS_11Test
 1458              		.p2align 4
 1459              		.weak	_ZN8UnitTest10CheckEqualI12BufferStatusS1_EEvRNS_11TestResultsERKT_RKT0_RKNS_11TestDetailsE
 1461              	_ZN8UnitTest10CheckEqualI12BufferStatusS1_EEvRNS_11TestResultsERKT_RKT0_RKNS_11TestDetailsE:
 1462              	.LFB1388:
 1463              		.cfi_startproc
 1464              		.cfi_personality 0x9b,DW.ref.__gxx_personality_v0
 1465              		.cfi_lsda 0x1b,.LLSDA1388
 1466 0000 F30F1EFA 		endbr64
 1467 0004 4157     		pushq	%r15
 1468              		.cfi_def_cfa_offset 16
 1469              		.cfi_offset 15, -16
 1470 0006 4156     		pushq	%r14
 1471              		.cfi_def_cfa_offset 24
 1472              		.cfi_offset 14, -24
 1473 0008 4155     		pushq	%r13
 1474              		.cfi_def_cfa_offset 32
 1475              		.cfi_offset 13, -32
 1476 000a 4154     		pushq	%r12
 1477              		.cfi_def_cfa_offset 40
 1478              		.cfi_offset 12, -40
 1479 000c 55       		pushq	%rbp
 1480              		.cfi_def_cfa_offset 48
 1481              		.cfi_offset 6, -48
 1482 000d 53       		pushq	%rbx
 1483              		.cfi_def_cfa_offset 56
 1484              		.cfi_offset 3, -56
 1485 000e 4881ECD8 		subq	$472, %rsp
 1485      010000
 1486              		.cfi_def_cfa_offset 528
 1487 0015 F30F7E0D 		movq	.LC2(%rip), %xmm1
 1487      00000000 
 1488 001d 48897C24 		movq	%rdi, 16(%rsp)
 1488      10
 1489 0022 48894C24 		movq	%rcx, 24(%rsp)
 1489      18
 1490 0027 0F160D00 		movhps	.LC3(%rip), %xmm1
 1490      000000
 1491 002e 64488B04 		movq	%fs:40, %rax
 1491      25280000 
 1491      00
 1492 0037 48898424 		movq	%rax, 456(%rsp)
 1492      C8010000 
 1493 003f 31C0     		xorl	%eax, %eax
 1494 0041 8B02     		movl	(%rdx), %eax
 1495 0043 0F290C24 		movaps	%xmm1, (%rsp)
 1496 0047 3906     		cmpl	%eax, (%rsi)
 1497 0049 752D     		jne	.L109
 1498              	.L93:
 1499 004b 488B8424 		movq	456(%rsp), %rax
 1499      C8010000 
 1500 0053 64482B04 		subq	%fs:40, %rax
 1500      25280000 
 1500      00
 1501 005c 0F854B02 		jne	.L110
 1501      0000
 1502 0062 4881C4D8 		addq	$472, %rsp
 1502      010000
 1503              		.cfi_remember_state
 1504              		.cfi_def_cfa_offset 56
 1505 0069 5B       		popq	%rbx
 1506              		.cfi_def_cfa_offset 48
 1507 006a 5D       		popq	%rbp
 1508              		.cfi_def_cfa_offset 40
 1509 006b 415C     		popq	%r12
 1510              		.cfi_def_cfa_offset 32
 1511 006d 415D     		popq	%r13
 1512              		.cfi_def_cfa_offset 24
 1513 006f 415E     		popq	%r14
 1514              		.cfi_def_cfa_offset 16
 1515 0071 415F     		popq	%r15
 1516              		.cfi_def_cfa_offset 8
 1517 0073 C3       		ret
 1518              		.p2align 4,,10
 1519 0074 0F1F4000 		.p2align 3
 1520              	.L109:
 1521              		.cfi_restore_state
 1522 0078 4C8DAC24 		leaq	192(%rsp), %r13
 1522      C0000000 
 1523 0080 4889F5   		movq	%rsi, %rbp
 1524 0083 4889D3   		movq	%rdx, %rbx
 1525 0086 4C89EF   		movq	%r13, %rdi
 1526 0089 E8000000 		call	_ZNSt8ios_baseC2Ev@PLT
 1526      00
 1527 008e 31C0     		xorl	%eax, %eax
 1528 0090 660FEFC0 		pxor	%xmm0, %xmm0
 1529 0094 31F6     		xorl	%esi, %esi
 1530 0096 66898424 		movw	%ax, 416(%rsp)
 1530      A0010000 
 1531 009e 488D0500 		leaq	24+_ZTCN8UnitTest15MemoryOutStreamE0_So(%rip), %rax
 1531      000000
 1532 00a5 4C89EF   		movq	%r13, %rdi
 1533 00a8 48894424 		movq	%rax, 48(%rsp)
 1533      30
 1534 00ad 4883C028 		addq	$40, %rax
 1535 00b1 48C78424 		movq	$0, 408(%rsp)
 1535      98010000 
 1535      00000000 
 1536 00bd 48898424 		movq	%rax, 192(%rsp)
 1536      C0000000 
 1537 00c5 0F118424 		movups	%xmm0, 424(%rsp)
 1537      A8010000 
 1538 00cd 0F118424 		movups	%xmm0, 440(%rsp)
 1538      B8010000 
 1539              	.LEHB30:
 1540 00d5 E8000000 		call	_ZNSt9basic_iosIcSt11char_traitsIcEE4initEPSt15basic_streambufIcS1_E@PLT
 1540      00
 1541              	.LEHE30:
 1542 00da 660F6F0C 		movdqa	(%rsp), %xmm1
 1542      24
 1543 00df 4C8D7424 		leaq	112(%rsp), %r14
 1543      70
 1544 00e4 660FEFC0 		pxor	%xmm0, %xmm0
 1545 00e8 488D0500 		leaq	64+_ZTCN8UnitTest15MemoryOutStreamE0_NSt7__cxx1119basic_ostringstreamIcSt11char_traitsIcESaIc
 1545      000000
 1546 00ef 4C89F7   		movq	%r14, %rdi
 1547 00f2 0F294424 		movaps	%xmm0, 64(%rsp)
 1547      40
 1548 00f7 4C8D6424 		leaq	48(%rsp), %r12
 1548      30
 1549 00fc 4C8D7C24 		leaq	56(%rsp), %r15
 1549      38
 1550 0101 48898424 		movq	%rax, 192(%rsp)
 1550      C0000000 
 1551 0109 0F294C24 		movaps	%xmm1, 48(%rsp)
 1551      30
 1552 010e 0F294424 		movaps	%xmm0, 80(%rsp)
 1552      50
 1553 0113 0F294424 		movaps	%xmm0, 96(%rsp)
 1553      60
 1554 0118 E8000000 		call	_ZNSt6localeC1Ev@PLT
 1554      00
 1555 011d 488D0500 		leaq	16+_ZTVNSt7__cxx1115basic_stringbufIcSt11char_traitsIcESaIcEEE(%rip), %rax
 1555      000000
 1556 0124 4C89FE   		movq	%r15, %rsi
 1557 0127 48C78424 		movq	$0, 136(%rsp)
 1557      88000000 
 1557      00000000 
 1558 0133 48894424 		movq	%rax, 56(%rsp)
 1558      38
 1559 0138 488D8424 		leaq	144(%rsp), %rax
 1559      90000000 
 1560 0140 48894424 		movq	%rax, 32(%rsp)
 1560      20
 1561 0145 48898424 		movq	%rax, 128(%rsp)
 1561      80000000 
 1562 014d 488B4424 		movq	48(%rsp), %rax
 1562      30
 1563 0152 C6842490 		movb	$0, 144(%rsp)
 1563      00000000 
 1564 015a 488B78E8 		movq	-24(%rax), %rdi
 1565 015e C7442478 		movl	$16, 120(%rsp)
 1565      10000000 
 1566 0166 4C01E7   		addq	%r12, %rdi
 1567              	.LEHB31:
 1568 0169 E8000000 		call	_ZNSt9basic_iosIcSt11char_traitsIcEE4initEPSt15basic_streambufIcS1_E@PLT
 1568      00
 1569              	.LEHE31:
 1570 016e 4C8D3D00 		leaq	24+_ZTVN8UnitTest15MemoryOutStreamE(%rip), %r15
 1570      000000
 1571 0175 BA090000 		movl	$9, %edx
 1571      00
 1572 017a 4C89E7   		movq	%r12, %rdi
 1573 017d 48C78424 		movq	$0, 168(%rsp)
 1573      A8000000 
 1573      00000000 
 1574 0189 498D4728 		leaq	40(%r15), %rax
 1575 018d 488D3500 		leaq	.LC0(%rip), %rsi
 1575      000000
 1576 0194 4C897C24 		movq	%r15, 48(%rsp)
 1576      30
 1577 0199 48898424 		movq	%rax, 192(%rsp)
 1577      C0000000 
 1578 01a1 488D8424 		leaq	176(%rsp), %rax
 1578      B0000000 
 1579 01a9 48894424 		movq	%rax, 40(%rsp)
 1579      28
 1580 01ae 48898424 		movq	%rax, 160(%rsp)
 1580      A0000000 
 1581 01b6 C68424B0 		movb	$0, 176(%rsp)
 1581      00000000 
 1582              	.LEHB32:
 1583 01be E8000000 		call	_ZSt16__ostream_insertIcSt11char_traitsIcEERSt13basic_ostreamIT_T0_ES6_PKS3_l@PLT
 1583      00
 1584 01c3 8B7500   		movl	0(%rbp), %esi
 1585 01c6 4C89E7   		movq	%r12, %rdi
 1586 01c9 E8000000 		call	_ZNSolsEi@PLT
 1586      00
 1587 01ce BA090000 		movl	$9, %edx
 1587      00
 1588 01d3 488D3500 		leaq	.LC1(%rip), %rsi
 1588      000000
 1589 01da 4889C7   		movq	%rax, %rdi
 1590 01dd 4889C5   		movq	%rax, %rbp
 1591 01e0 E8000000 		call	_ZSt16__ostream_insertIcSt11char_traitsIcEERSt13basic_ostreamIT_T0_ES6_PKS3_l@PLT
 1591      00
 1592 01e5 8B33     		movl	(%rbx), %esi
 1593 01e7 4889EF   		movq	%rbp, %rdi
 1594 01ea E8000000 		call	_ZNSolsEi@PLT
 1594      00
 1595 01ef 4C89E7   		movq	%r12, %rdi
 1596 01f2 E8000000 		call	_ZNK8UnitTest15MemoryOutStream7GetTextEv@PLT
 1596      00
 1597 01f7 488B7424 		movq	24(%rsp), %rsi
 1597      18
 1598 01fc 488B7C24 		movq	16(%rsp), %rdi
 1598      10
 1599 0201 4889C2   		movq	%rax, %rdx
 1600 0204 F30F7E15 		movq	.LC2(%rip), %xmm2
 1600      00000000 
 1601 020c 0F161500 		movhps	.LC4(%rip), %xmm2
 1601      000000
 1602 0213 0F291424 		movaps	%xmm2, (%rsp)
 1603 0217 E8000000 		call	_ZN8UnitTest11TestResults13OnTestFailureERKNS_11TestDetailsEPKc@PLT
 1603      00
 1604              	.LEHE32:
 1605 021c 488D0500 		leaq	64+_ZTVN8UnitTest15MemoryOutStreamE(%rip), %rax
 1605      000000
 1606 0223 4C897C24 		movq	%r15, 48(%rsp)
 1606      30
 1607 0228 488BBC24 		movq	160(%rsp), %rdi
 1607      A0000000 
 1608 0230 48898424 		movq	%rax, 192(%rsp)
 1608      C0000000 
 1609 0238 483B7C24 		cmpq	40(%rsp), %rdi
 1609      28
 1610 023d 7405     		je	.L99
 1611 023f E8000000 		call	_ZdlPv@PLT
 1611      00
 1612              	.L99:
 1613 0244 660F6F1C 		movdqa	(%rsp), %xmm3
 1613      24
 1614 0249 488D0500 		leaq	64+_ZTCN8UnitTest15MemoryOutStreamE0_NSt7__cxx1119basic_ostringstreamIcSt11char_traitsIcESaIc
 1614      000000
 1615 0250 488BBC24 		movq	128(%rsp), %rdi
 1615      80000000 
 1616 0258 48898424 		movq	%rax, 192(%rsp)
 1616      C0000000 
 1617 0260 0F295C24 		movaps	%xmm3, 48(%rsp)
 1617      30
 1618 0265 483B7C24 		cmpq	32(%rsp), %rdi
 1618      20
 1619 026a 7405     		je	.L100
 1620 026c E8000000 		call	_ZdlPv@PLT
 1620      00
 1621              	.L100:
 1622 0271 488D0500 		leaq	16+_ZTVSt15basic_streambufIcSt11char_traitsIcEE(%rip), %rax
 1622      000000
 1623 0278 4C89F7   		movq	%r14, %rdi
 1624 027b 48894424 		movq	%rax, 56(%rsp)
 1624      38
 1625 0280 E8000000 		call	_ZNSt6localeD1Ev@PLT
 1625      00
 1626 0285 488D0500 		leaq	24+_ZTCN8UnitTest15MemoryOutStreamE0_So(%rip), %rax
 1626      000000
 1627 028c 4C89EF   		movq	%r13, %rdi
 1628 028f 48894424 		movq	%rax, 48(%rsp)
 1628      30
 1629 0294 488D0500 		leaq	16+_ZTVSt9basic_iosIcSt11char_traitsIcEE(%rip), %rax
 1629      000000
 1630 029b 48898424 		movq	%rax, 192(%rsp)
 1630      C0000000 
 1631              	.LEHB33:
 1632 02a3 E8000000 		call	_ZNSt8ios_baseD2Ev@PLT
 1632      00
 1633              	.LEHE33:
 1634 02a8 E99EFDFF 		jmp	.L93
 1634      FF
 1635              	.L110:
 1636 02ad E8000000 		call	__stack_chk_fail@PLT
 1636      00
 1637              	.L104:
 1638 02b2 F30F1EFA 		endbr64
 1639 02b6 4889C5   		movq	%rax, %rbp
 1640 02b9 EB26     		jmp	.L97
 1641              	.L105:
 1642 02bb F30F1EFA 		endbr64
 1643 02bf 4889C5   		movq	%rax, %rbp
 1644 02c2 EB09     		jmp	.L96
 1645              	.L103:
 1646 02c4 F30F1EFA 		endbr64
 1647 02c8 4889C5   		movq	%rax, %rbp
 1648 02cb EB33     		jmp	.L101
 1649              	.L96:
 1650 02cd 4C89FF   		movq	%r15, %rdi
 1651 02d0 E8000000 		call	_ZNSt7__cxx1115basic_stringbufIcSt11char_traitsIcESaIcEED1Ev
 1651      00
 1652 02d5 488D0500 		leaq	24+_ZTCN8UnitTest15MemoryOutStreamE0_So(%rip), %rax
 1652      000000
 1653 02dc 48894424 		movq	%rax, 48(%rsp)
 1653      30
 1654              	.L97:
 1655 02e1 488D0500 		leaq	16+_ZTVSt9basic_iosIcSt11char_traitsIcEE(%rip), %rax
 1655      000000
 1656 02e8 4C89EF   		movq	%r13, %rdi
 1657 02eb 48898424 		movq	%rax, 192(%rsp)
 1657      C0000000 
 1658 02f3 E8000000 		call	_ZNSt8ios_baseD2Ev@PLT
 1658      00
 1659 02f8 4889EF   		movq	%rbp, %rdi
 1660              	.LEHB34:
 1661 02fb E8000000 		call	_Unwind_Resume@PLT
 1661      00
 1662              	.LEHE34:
 1663              	.L101:
 1664 0300 4C89E7   		movq	%r12, %rdi
 1665 0303 E8000000 		call	_ZN8UnitTest15MemoryOutStreamD1Ev
 1665      00
 1666 0308 4889EF   		movq	%rbp, %rdi
 1667              	.LEHB35:
 1668 030b E8000000 		call	_Unwind_Resume@PLT
 1668      00
 1669              	.LEHE35:
 1670              		.cfi_endproc
 1671              	.LFE1388:
 1672              		.section	.gcc_except_table._ZN8UnitTest10CheckEqualI12BufferStatusS1_EEvRNS_11TestResultsERKT_RKT0
 1673              	.LLSDA1388:
 1674 0000 FF       		.byte	0xff
 1675 0001 FF       		.byte	0xff
 1676 0002 01       		.byte	0x1
 1677 0003 21       		.uleb128 .LLSDACSE1388-.LLSDACSB1388
 1678              	.LLSDACSB1388:
 1679 0004 D501     		.uleb128 .LEHB30-.LFB1388
 1680 0006 05       		.uleb128 .LEHE30-.LEHB30
 1681 0007 B205     		.uleb128 .L104-.LFB1388
 1682 0009 00       		.uleb128 0
 1683 000a E902     		.uleb128 .LEHB31-.LFB1388
 1684 000c 05       		.uleb128 .LEHE31-.LEHB31
 1685 000d BB05     		.uleb128 .L105-.LFB1388
 1686 000f 00       		.uleb128 0
 1687 0010 BE03     		.uleb128 .LEHB32-.LFB1388
 1688 0012 5E       		.uleb128 .LEHE32-.LEHB32
 1689 0013 C405     		.uleb128 .L103-.LFB1388
 1690 0015 00       		.uleb128 0
 1691 0016 A305     		.uleb128 .LEHB33-.LFB1388
 1692 0018 05       		.uleb128 .LEHE33-.LEHB33
 1693 0019 00       		.uleb128 0
 1694 001a 00       		.uleb128 0
 1695 001b FB05     		.uleb128 .LEHB34-.LFB1388
 1696 001d 05       		.uleb128 .LEHE34-.LEHB34
 1697 001e 00       		.uleb128 0
 1698 001f 00       		.uleb128 0
 1699 0020 8B06     		.uleb128 .LEHB35-.LFB1388
 1700 0022 05       		.uleb128 .LEHE35-.LEHB35
 1701 0023 00       		.uleb128 0
 1702 0024 00       		.uleb128 0
 1703              	.LLSDACSE1388:
 1704              		.section	.text._ZN8UnitTest10CheckEqualI12BufferStatusS1_EEvRNS_11TestResultsERKT_RKT0_RKNS_11Test
 1706              		.section	.rodata.str1.1,"aMS",@progbits,1
 1707              	.LC5:
 1708 0000 2E303430 		.string	".040BE10075820022F7\n"
 1708      42453130 
 1708      30373538 
 1708      32303032 
 1708      3246370A 
 1709              		.section	.rodata.str1.8,"aMS",@progbits,1
 1710              		.align 8
 1711              	.LC6:
 1712 0000 556E6861 		.string	"Unhandled exception in CHECK_EQUAL(BUF_SUCCESS, status)"
 1712      6E646C65 
 1712      64206578 
 1712      63657074 
 1712      696F6E20 
 1713              		.align 8
 1714              	.LC7:
 1715 0038 556E6861 		.string	"Unhandled exception in CHECK_EQUAL(HEX_JUNK_START_CODE, status)"
 1715      6E646C65 
 1715      64206578 
 1715      63657074 
 1715      696F6E20 
 1716              		.section	.text.unlikely,"ax",@progbits
 1717              		.align 2
 1718              	.LCOLDB8:
 1719              		.text
 1720              	.LHOTB8:
 1721              		.align 2
 1722              		.p2align 4
 1723              		.globl	_ZNK27TestHexIO_testJunkStartCode7RunImplEv
 1725              	_ZNK27TestHexIO_testJunkStartCode7RunImplEv:
 1726              	.LFB1318:
 1727              		.cfi_startproc
 1728              		.cfi_personality 0x9b,DW.ref.__gxx_personality_v0
 1729              		.cfi_lsda 0x1b,.LLSDA1318
 1730 0000 F30F1EFA 		endbr64
 1731 0004 4155     		pushq	%r13
 1732              		.cfi_def_cfa_offset 16
 1733              		.cfi_offset 13, -16
 1734 0006 31C9     		xorl	%ecx, %ecx
 1735 0008 31D2     		xorl	%edx, %edx
 1736 000a BE000400 		movl	$1024, %esi
 1736      00
 1737 000f 4154     		pushq	%r12
 1738              		.cfi_def_cfa_offset 24
 1739              		.cfi_offset 12, -24
 1740 0011 55       		pushq	%rbp
 1741              		.cfi_def_cfa_offset 32
 1742              		.cfi_offset 6, -32
 1743 0012 4883EC60 		subq	$96, %rsp
 1744              		.cfi_def_cfa_offset 128
 1745 0016 64488B04 		movq	%fs:40, %rax
 1745      25280000 
 1745      00
 1746 001f 48894424 		movq	%rax, 88(%rsp)
 1746      58
 1747 0024 31C0     		xorl	%eax, %eax
 1748 0026 4C8D6424 		leaq	16(%rsp), %r12
 1748      10
 1749 002b C7442408 		movl	$0, 8(%rsp)
 1749      00000000 
 1750 0033 4C89E7   		movq	%r12, %rdi
 1751              	.LEHB36:
 1752 0036 E8000000 		call	bufInitialise@PLT
 1752      00
 1753              	.LEHE36:
 1754 003b 89442404 		movl	%eax, 4(%rsp)
 1755              	.LEHB37:
 1756 003f E8000000 		call	_ZN8UnitTest11CurrentTest7DetailsEv@PLT
 1756      00
 1757 0044 488D6C24 		leaq	48(%rsp), %rbp
 1757      30
 1758 0049 488B30   		movq	(%rax), %rsi
 1759 004c BA4C0000 		movl	$76, %edx
 1759      00
 1760 0051 4889EF   		movq	%rbp, %rdi
 1761 0054 E8000000 		call	_ZN8UnitTest11TestDetailsC1ERKS0_i@PLT
 1761      00
 1762 0059 C744240C 		movl	$0, 12(%rsp)
 1762      00000000 
 1763 0061 E8000000 		call	_ZN8UnitTest11CurrentTest7ResultsEv@PLT
 1763      00
 1764 0066 488B38   		movq	(%rax), %rdi
 1765 0069 488D5424 		leaq	4(%rsp), %rdx
 1765      04
 1766 006e 488D7424 		leaq	12(%rsp), %rsi
 1766      0C
 1767 0073 4889E9   		movq	%rbp, %rcx
 1768 0076 E8000000 		call	_ZN8UnitTest10CheckEqualI12BufferStatusS1_EEvRNS_11TestResultsERKT_RKT0_RKNS_11TestDetailsE
 1768      00
 1769              	.LEHE37:
 1770              	.L113:
 1771 007b 4883EC08 		subq	$8, %rsp
 1772              		.cfi_def_cfa_offset 136
 1773 007f 4C89E2   		movq	%r12, %rdx
 1774 0082 31C9     		xorl	%ecx, %ecx
 1775 0084 31F6     		xorl	%esi, %esi
 1776 0086 6A00     		pushq	$0
 1777              		.cfi_def_cfa_offset 144
 1778 0088 488D3D00 		leaq	.LC5(%rip), %rdi
 1778      000000
 1779 008f 4C8D4C24 		leaq	19(%rsp), %r9
 1779      13
 1780 0094 4C8D4424 		leaq	24(%rsp), %r8
 1780      18
 1781              	.LEHB38:
 1782 0099 E8000000 		call	bufProcessLine@PLT
 1782      00
 1783              	.LEHE38:
 1784 009e 89442414 		movl	%eax, 20(%rsp)
 1785 00a2 58       		popq	%rax
 1786              		.cfi_def_cfa_offset 136
 1787 00a3 5A       		popq	%rdx
 1788              		.cfi_def_cfa_offset 128
 1789              	.LEHB39:
 1790 00a4 E8000000 		call	_ZN8UnitTest11CurrentTest7DetailsEv@PLT
 1790      00
 1791 00a9 488B30   		movq	(%rax), %rsi
 1792 00ac BA4E0000 		movl	$78, %edx
 1792      00
 1793 00b1 4889EF   		movq	%rbp, %rdi
 1794 00b4 E8000000 		call	_ZN8UnitTest11TestDetailsC1ERKS0_i@PLT
 1794      00
 1795 00b9 C744240C 		movl	$8, 12(%rsp)
 1795      08000000 
 1796 00c1 E8000000 		call	_ZN8UnitTest11CurrentTest7ResultsEv@PLT
 1796      00
 1797 00c6 488B38   		movq	(%rax), %rdi
 1798 00c9 488D5424 		leaq	4(%rsp), %rdx
 1798      04
 1799 00ce 488D7424 		leaq	12(%rsp), %rsi
 1799      0C
 1800 00d3 4889E9   		movq	%rbp, %rcx
 1801 00d6 E8000000 		call	_ZN8UnitTest10CheckEqualI12BufferStatusS1_EEvRNS_11TestResultsERKT_RKT0_RKNS_11TestDetailsE
 1801      00
 1802              	.LEHE39:
 1803              	.L116:
 1804 00db 4C89E7   		movq	%r12, %rdi
 1805              	.LEHB40:
 1806 00de E8000000 		call	bufDestroy@PLT
 1806      00
 1807              	.LEHE40:
 1808 00e3 488B4424 		movq	88(%rsp), %rax
 1808      58
 1809 00e8 64482B04 		subq	%fs:40, %rax
 1809      25280000 
 1809      00
 1810 00f1 750A     		jne	.L125
 1811 00f3 4883C460 		addq	$96, %rsp
 1812              		.cfi_remember_state
 1813              		.cfi_def_cfa_offset 32
 1814 00f7 5D       		popq	%rbp
 1815              		.cfi_def_cfa_offset 24
 1816 00f8 415C     		popq	%r12
 1817              		.cfi_def_cfa_offset 16
 1818 00fa 415D     		popq	%r13
 1819              		.cfi_def_cfa_offset 8
 1820 00fc C3       		ret
 1821              	.L125:
 1822              		.cfi_restore_state
 1823 00fd E8000000 		call	__stack_chk_fail@PLT
 1823      00
 1824              	.L121:
 1825 0102 F30F1EFA 		endbr64
 1826 0106 4889C7   		movq	%rax, %rdi
 1827 0109 E9000000 		jmp	.L115
 1827      00
 1828              	.L119:
 1829 010e F30F1EFA 		endbr64
 1830 0112 4889C7   		movq	%rax, %rdi
 1831 0115 E9000000 		jmp	.L112
 1831      00
 1832              		.section	.gcc_except_table,"a",@progbits
 1833              		.align 4
 1834              	.LLSDA1318:
 1835 0000 FF       		.byte	0xff
 1836 0001 9B       		.byte	0x9b
 1837 0002 21       		.uleb128 .LLSDATT1318-.LLSDATTD1318
 1838              	.LLSDATTD1318:
 1839 0003 01       		.byte	0x1
 1840 0004 19       		.uleb128 .LLSDACSE1318-.LLSDACSB1318
 1841              	.LLSDACSB1318:
 1842 0005 36       		.uleb128 .LEHB36-.LFB1318
 1843 0006 05       		.uleb128 .LEHE36-.LEHB36
 1844 0007 00       		.uleb128 0
 1845 0008 00       		.uleb128 0
 1846 0009 3F       		.uleb128 .LEHB37-.LFB1318
 1847 000a 3C       		.uleb128 .LEHE37-.LEHB37
 1848 000b 8E02     		.uleb128 .L119-.LFB1318
 1849 000d 01       		.uleb128 0x1
 1850 000e 9901     		.uleb128 .LEHB38-.LFB1318
 1851 0010 05       		.uleb128 .LEHE38-.LEHB38
 1852 0011 00       		.uleb128 0
 1853 0012 00       		.uleb128 0
 1854 0013 A401     		.uleb128 .LEHB39-.LFB1318
 1855 0015 37       		.uleb128 .LEHE39-.LEHB39
 1856 0016 8202     		.uleb128 .L121-.LFB1318
 1857 0018 01       		.uleb128 0x1
 1858 0019 DE01     		.uleb128 .LEHB40-.LFB1318
 1859 001b 05       		.uleb128 .LEHE40-.LEHB40
 1860 001c 00       		.uleb128 0
 1861 001d 00       		.uleb128 0
 1862              	.LLSDACSE1318:
 1863 001e 01       		.byte	0x1
 1864 001f 00       		.byte	0
 1865              		.align 4
 1866 0020 00000000 		.long	0
 1867              	
 1868              	.LLSDATT1318:
 1869              		.text
 1870              		.cfi_endproc
 1871              		.section	.text.unlikely
 1872              		.cfi_startproc
 1873              		.cfi_personality 0x9b,DW.ref.__gxx_personality_v0
 1874              		.cfi_lsda 0x1b,.LLSDAC1318
 1876              	_ZNK27TestHexIO_testJunkStartCode7RunImplEv.cold:
 1877              	.LFSB1318:
 1878              	.L115:
 1879              		.cfi_def_cfa_offset 128
 1880              		.cfi_offset 6, -32
 1881              		.cfi_offset 12, -24
 1882              		.cfi_offset 13, -16
 1883 0000 E8000000 		call	__cxa_begin_catch@PLT
 1883      00
 1884              	.LEHB41:
 1885 0005 E8000000 		call	_ZN8UnitTest11CurrentTest7ResultsEv@PLT
 1885      00
 1886 000a 4C8B28   		movq	(%rax), %r13
 1887 000d E8000000 		call	_ZN8UnitTest11CurrentTest7DetailsEv@PLT
 1887      00
 1888 0012 488B30   		movq	(%rax), %rsi
 1889 0015 BA4E0000 		movl	$78, %edx
 1889      00
 1890 001a 4889EF   		movq	%rbp, %rdi
 1891 001d E8000000 		call	_ZN8UnitTest11TestDetailsC1ERKS0_i@PLT
 1891      00
 1892 0022 488D1500 		leaq	.LC7(%rip), %rdx
 1892      000000
 1893 0029 4889EE   		movq	%rbp, %rsi
 1894 002c 4C89EF   		movq	%r13, %rdi
 1895 002f E8000000 		call	_ZN8UnitTest11TestResults13OnTestFailureERKNS_11TestDetailsEPKc@PLT
 1895      00
 1896              	.LEHE41:
 1897              	.LEHB42:
 1898 0034 E8000000 		call	__cxa_end_catch@PLT
 1898      00
 1899              	.LEHE42:
 1900 0039 E9000000 		jmp	.L116
 1900      00
 1901              	.L112:
 1902 003e E8000000 		call	__cxa_begin_catch@PLT
 1902      00
 1903              	.LEHB43:
 1904 0043 E8000000 		call	_ZN8UnitTest11CurrentTest7ResultsEv@PLT
 1904      00
 1905 0048 4C8B28   		movq	(%rax), %r13
 1906 004b E8000000 		call	_ZN8UnitTest11CurrentTest7DetailsEv@PLT
 1906      00
 1907 0050 488D6C24 		leaq	48(%rsp), %rbp
 1907      30
 1908 0055 488B30   		movq	(%rax), %rsi
 1909 0058 BA4C0000 		movl	$76, %edx
 1909      00
 1910 005d 4889EF   		movq	%rbp, %rdi
 1911 0060 E8000000 		call	_ZN8UnitTest11TestDetailsC1ERKS0_i@PLT
 1911      00
 1912 0065 488D1500 		leaq	.LC6(%rip), %rdx
 1912      000000
 1913 006c 4889EE   		movq	%rbp, %rsi
 1914 006f 4C89EF   		movq	%r13, %rdi
 1915 0072 E8000000 		call	_ZN8UnitTest11TestResults13OnTestFailureERKNS_11TestDetailsEPKc@PLT
 1915      00
 1916              	.LEHE43:
 1917              	.LEHB44:
 1918 0077 E8000000 		call	__cxa_end_catch@PLT
 1918      00
 1919              	.LEHE44:
 1920 007c E9000000 		jmp	.L113
 1920      00
 1921              	.L122:
 1922 0081 F30F1EFA 		endbr64
 1923 0085 4889C5   		movq	%rax, %rbp
 1924 0088 E8000000 		call	__cxa_end_catch@PLT
 1924      00
 1925 008d 4889EF   		movq	%rbp, %rdi
 1926              	.LEHB45:
 1927 0090 E8000000 		call	_Unwind_Resume@PLT
 1927      00
 1928              	.LEHE45:
 1929              	.L120:
 1930 0095 F30F1EFA 		endbr64
 1931 0099 4889C5   		movq	%rax, %rbp
 1932 009c E8000000 		call	__cxa_end_catch@PLT
 1932      00
 1933 00a1 4889EF   		movq	%rbp, %rdi
 1934              	.LEHB46:
 1935 00a4 E8000000 		call	_Unwind_Resume@PLT
 1935      00
 1936              	.LEHE46:
 1937              		.cfi_endproc
 1938              	.LFE1318:
 1939              		.section	.gcc_except_table
 1940              		.align 4
 1941              	.LLSDAC1318:
 1942 0024 FF       		.byte	0xff
 1943 0025 9B       		.byte	0x9b
 1944 0026 25       		.uleb128 .LLSDATTC1318-.LLSDATTDC1318
 1945              	.LLSDATTDC1318:
 1946 0027 01       		.byte	0x1
 1947 0028 1C       		.uleb128 .LLSDACSEC1318-.LLSDACSBC1318
 1948              	.LLSDACSBC1318:
 1949 0029 05       		.uleb128 .LEHB41-.LCOLDB8
 1950 002a 2F       		.uleb128 .LEHE41-.LEHB41
 1951 002b 8101     		.uleb128 .L122-.LCOLDB8
 1952 002d 00       		.uleb128 0
 1953 002e 34       		.uleb128 .LEHB42-.LCOLDB8
 1954 002f 05       		.uleb128 .LEHE42-.LEHB42
 1955 0030 00       		.uleb128 0
 1956 0031 00       		.uleb128 0
 1957 0032 43       		.uleb128 .LEHB43-.LCOLDB8
 1958 0033 34       		.uleb128 .LEHE43-.LEHB43
 1959 0034 9501     		.uleb128 .L120-.LCOLDB8
 1960 0036 00       		.uleb128 0
 1961 0037 77       		.uleb128 .LEHB44-.LCOLDB8
 1962 0038 05       		.uleb128 .LEHE44-.LEHB44
 1963 0039 00       		.uleb128 0
 1964 003a 00       		.uleb128 0
 1965 003b 9001     		.uleb128 .LEHB45-.LCOLDB8
 1966 003d 05       		.uleb128 .LEHE45-.LEHB45
 1967 003e 00       		.uleb128 0
 1968 003f 00       		.uleb128 0
 1969 0040 A401     		.uleb128 .LEHB46-.LCOLDB8
 1970 0042 05       		.uleb128 .LEHE46-.LEHB46
 1971 0043 00       		.uleb128 0
 1972 0044 00       		.uleb128 0
 1973              	.LLSDACSEC1318:
 1974 0045 01       		.byte	0x1
 1975 0046 00       		.byte	0
 1976 0047 00       		.align 4
 1977 0048 00000000 		.long	0
 1978              	
 1979              	.LLSDATTC1318:
 1980              		.section	.text.unlikely
 1981              		.text
 1983              		.section	.text.unlikely
 1985              	.LCOLDE8:
 1986              		.text
 1987              	.LHOTE8:
 1988              		.section	.rodata.str1.1
 1989              	.LC9:
 1990 0015 3A2E2E30 		.string	":..0BE10075820022F7\n"
 1990      42453130 
 1990      30373538 
 1990      32303032 
 1990      3246370A 
 1991              		.section	.rodata.str1.8
 1992              		.align 8
 1993              	.LC10:
 1994 0078 556E6861 		.string	"Unhandled exception in CHECK_EQUAL(HEX_JUNK_BYTE_COUNT, status)"
 1994      6E646C65 
 1994      64206578 
 1994      63657074 
 1994      696F6E20 
 1995              		.section	.text.unlikely
 1996 00a9 90       		.align 2
 1997              	.LCOLDB11:
 1998              		.text
 1999              	.LHOTB11:
 2000              		.align 2
 2001 011a 660F1F44 		.p2align 4
 2001      0000
 2002              		.globl	_ZNK27TestHexIO_testJunkByteCount7RunImplEv
 2004              	_ZNK27TestHexIO_testJunkByteCount7RunImplEv:
 2005              	.LFB1322:
 2006              		.cfi_startproc
 2007              		.cfi_personality 0x9b,DW.ref.__gxx_personality_v0
 2008              		.cfi_lsda 0x1b,.LLSDA1322
 2009 0120 F30F1EFA 		endbr64
 2010 0124 4155     		pushq	%r13
 2011              		.cfi_def_cfa_offset 16
 2012              		.cfi_offset 13, -16
 2013 0126 31C9     		xorl	%ecx, %ecx
 2014 0128 31D2     		xorl	%edx, %edx
 2015 012a BE000400 		movl	$1024, %esi
 2015      00
 2016 012f 4154     		pushq	%r12
 2017              		.cfi_def_cfa_offset 24
 2018              		.cfi_offset 12, -24
 2019 0131 55       		pushq	%rbp
 2020              		.cfi_def_cfa_offset 32
 2021              		.cfi_offset 6, -32
 2022 0132 4883EC60 		subq	$96, %rsp
 2023              		.cfi_def_cfa_offset 128
 2024 0136 64488B04 		movq	%fs:40, %rax
 2024      25280000 
 2024      00
 2025 013f 48894424 		movq	%rax, 88(%rsp)
 2025      58
 2026 0144 31C0     		xorl	%eax, %eax
 2027 0146 4C8D6424 		leaq	16(%rsp), %r12
 2027      10
 2028 014b C7442408 		movl	$0, 8(%rsp)
 2028      00000000 
 2029 0153 4C89E7   		movq	%r12, %rdi
 2030              	.LEHB47:
 2031 0156 E8000000 		call	bufInitialise@PLT
 2031      00
 2032              	.LEHE47:
 2033 015b 89442404 		movl	%eax, 4(%rsp)
 2034              	.LEHB48:
 2035 015f E8000000 		call	_ZN8UnitTest11CurrentTest7DetailsEv@PLT
 2035      00
 2036 0164 488D6C24 		leaq	48(%rsp), %rbp
 2036      30
 2037 0169 488B30   		movq	(%rax), %rsi
 2038 016c BA590000 		movl	$89, %edx
 2038      00
 2039 0171 4889EF   		movq	%rbp, %rdi
 2040 0174 E8000000 		call	_ZN8UnitTest11TestDetailsC1ERKS0_i@PLT
 2040      00
 2041 0179 C744240C 		movl	$0, 12(%rsp)
 2041      00000000 
 2042 0181 E8000000 		call	_ZN8UnitTest11CurrentTest7ResultsEv@PLT
 2042      00
 2043 0186 488B38   		movq	(%rax), %rdi
 2044 0189 488D5424 		leaq	4(%rsp), %rdx
 2044      04
 2045 018e 488D7424 		leaq	12(%rsp), %rsi
 2045      0C
 2046 0193 4889E9   		movq	%rbp, %rcx
 2047 0196 E8000000 		call	_ZN8UnitTest10CheckEqualI12BufferStatusS1_EEvRNS_11TestResultsERKT_RKT0_RKNS_11TestDetailsE
 2047      00
 2048              	.LEHE48:
 2049              	.L128:
 2050 019b 4883EC08 		subq	$8, %rsp
 2051              		.cfi_def_cfa_offset 136
 2052 019f 4C89E2   		movq	%r12, %rdx
 2053 01a2 31C9     		xorl	%ecx, %ecx
 2054 01a4 31F6     		xorl	%esi, %esi
 2055 01a6 6A00     		pushq	$0
 2056              		.cfi_def_cfa_offset 144
 2057 01a8 488D3D00 		leaq	.LC9(%rip), %rdi
 2057      000000
 2058 01af 4C8D4C24 		leaq	19(%rsp), %r9
 2058      13
 2059 01b4 4C8D4424 		leaq	24(%rsp), %r8
 2059      18
 2060              	.LEHB49:
 2061 01b9 E8000000 		call	bufProcessLine@PLT
 2061      00
 2062              	.LEHE49:
 2063 01be 89442414 		movl	%eax, 20(%rsp)
 2064 01c2 58       		popq	%rax
 2065              		.cfi_def_cfa_offset 136
 2066 01c3 5A       		popq	%rdx
 2067              		.cfi_def_cfa_offset 128
 2068              	.LEHB50:
 2069 01c4 E8000000 		call	_ZN8UnitTest11CurrentTest7DetailsEv@PLT
 2069      00
 2070 01c9 488B30   		movq	(%rax), %rsi
 2071 01cc BA5B0000 		movl	$91, %edx
 2071      00
 2072 01d1 4889EF   		movq	%rbp, %rdi
 2073 01d4 E8000000 		call	_ZN8UnitTest11TestDetailsC1ERKS0_i@PLT
 2073      00
 2074 01d9 C744240C 		movl	$9, 12(%rsp)
 2074      09000000 
 2075 01e1 E8000000 		call	_ZN8UnitTest11CurrentTest7ResultsEv@PLT
 2075      00
 2076 01e6 488B38   		movq	(%rax), %rdi
 2077 01e9 488D5424 		leaq	4(%rsp), %rdx
 2077      04
 2078 01ee 488D7424 		leaq	12(%rsp), %rsi
 2078      0C
 2079 01f3 4889E9   		movq	%rbp, %rcx
 2080 01f6 E8000000 		call	_ZN8UnitTest10CheckEqualI12BufferStatusS1_EEvRNS_11TestResultsERKT_RKT0_RKNS_11TestDetailsE
 2080      00
 2081              	.LEHE50:
 2082              	.L131:
 2083 01fb 4C89E7   		movq	%r12, %rdi
 2084              	.LEHB51:
 2085 01fe E8000000 		call	bufDestroy@PLT
 2085      00
 2086              	.LEHE51:
 2087 0203 488B4424 		movq	88(%rsp), %rax
 2087      58
 2088 0208 64482B04 		subq	%fs:40, %rax
 2088      25280000 
 2088      00
 2089 0211 750A     		jne	.L140
 2090 0213 4883C460 		addq	$96, %rsp
 2091              		.cfi_remember_state
 2092              		.cfi_def_cfa_offset 32
 2093 0217 5D       		popq	%rbp
 2094              		.cfi_def_cfa_offset 24
 2095 0218 415C     		popq	%r12
 2096              		.cfi_def_cfa_offset 16
 2097 021a 415D     		popq	%r13
 2098              		.cfi_def_cfa_offset 8
 2099 021c C3       		ret
 2100              	.L140:
 2101              		.cfi_restore_state
 2102 021d E8000000 		call	__stack_chk_fail@PLT
 2102      00
 2103              	.L136:
 2104 0222 F30F1EFA 		endbr64
 2105 0226 4889C7   		movq	%rax, %rdi
 2106 0229 E9000000 		jmp	.L130
 2106      00
 2107              	.L134:
 2108 022e F30F1EFA 		endbr64
 2109 0232 4889C7   		movq	%rax, %rdi
 2110 0235 E9000000 		jmp	.L127
 2110      00
 2111              		.section	.gcc_except_table
 2112              		.align 4
 2113              	.LLSDA1322:
 2114 004c FF       		.byte	0xff
 2115 004d 9B       		.byte	0x9b
 2116 004e 21       		.uleb128 .LLSDATT1322-.LLSDATTD1322
 2117              	.LLSDATTD1322:
 2118 004f 01       		.byte	0x1
 2119 0050 19       		.uleb128 .LLSDACSE1322-.LLSDACSB1322
 2120              	.LLSDACSB1322:
 2121 0051 36       		.uleb128 .LEHB47-.LFB1322
 2122 0052 05       		.uleb128 .LEHE47-.LEHB47
 2123 0053 00       		.uleb128 0
 2124 0054 00       		.uleb128 0
 2125 0055 3F       		.uleb128 .LEHB48-.LFB1322
 2126 0056 3C       		.uleb128 .LEHE48-.LEHB48
 2127 0057 8E02     		.uleb128 .L134-.LFB1322
 2128 0059 01       		.uleb128 0x1
 2129 005a 9901     		.uleb128 .LEHB49-.LFB1322
 2130 005c 05       		.uleb128 .LEHE49-.LEHB49
 2131 005d 00       		.uleb128 0
 2132 005e 00       		.uleb128 0
 2133 005f A401     		.uleb128 .LEHB50-.LFB1322
 2134 0061 37       		.uleb128 .LEHE50-.LEHB50
 2135 0062 8202     		.uleb128 .L136-.LFB1322
 2136 0064 01       		.uleb128 0x1
 2137 0065 DE01     		.uleb128 .LEHB51-.LFB1322
 2138 0067 05       		.uleb128 .LEHE51-.LEHB51
 2139 0068 00       		.uleb128 0
 2140 0069 00       		.uleb128 0
 2141              	.LLSDACSE1322:
 2142 006a 01       		.byte	0x1
 2143 006b 00       		.byte	0
 2144              		.align 4
 2145 006c 00000000 		.long	0
 2146              	
 2147              	.LLSDATT1322:
 2148              		.text
 2149              		.cfi_endproc
 2150              		.section	.text.unlikely
 2151              		.cfi_startproc
 2152              		.cfi_personality 0x9b,DW.ref.__gxx_personality_v0
 2153              		.cfi_lsda 0x1b,.LLSDAC1322
 2155              	_ZNK27TestHexIO_testJunkByteCount7RunImplEv.cold:
 2156              	.LFSB1322:
 2157              	.L130:
 2158              		.cfi_def_cfa_offset 128
 2159              		.cfi_offset 6, -32
 2160              		.cfi_offset 12, -24
 2161              		.cfi_offset 13, -16
 2162 00aa E8000000 		call	__cxa_begin_catch@PLT
 2162      00
 2163              	.LEHB52:
 2164 00af E8000000 		call	_ZN8UnitTest11CurrentTest7ResultsEv@PLT
 2164      00
 2165 00b4 4C8B28   		movq	(%rax), %r13
 2166 00b7 E8000000 		call	_ZN8UnitTest11CurrentTest7DetailsEv@PLT
 2166      00
 2167 00bc 488B30   		movq	(%rax), %rsi
 2168 00bf BA5B0000 		movl	$91, %edx
 2168      00
 2169 00c4 4889EF   		movq	%rbp, %rdi
 2170 00c7 E8000000 		call	_ZN8UnitTest11TestDetailsC1ERKS0_i@PLT
 2170      00
 2171 00cc 488D1500 		leaq	.LC10(%rip), %rdx
 2171      000000
 2172 00d3 4889EE   		movq	%rbp, %rsi
 2173 00d6 4C89EF   		movq	%r13, %rdi
 2174 00d9 E8000000 		call	_ZN8UnitTest11TestResults13OnTestFailureERKNS_11TestDetailsEPKc@PLT
 2174      00
 2175              	.LEHE52:
 2176              	.LEHB53:
 2177 00de E8000000 		call	__cxa_end_catch@PLT
 2177      00
 2178              	.LEHE53:
 2179 00e3 E9000000 		jmp	.L131
 2179      00
 2180              	.L127:
 2181 00e8 E8000000 		call	__cxa_begin_catch@PLT
 2181      00
 2182              	.LEHB54:
 2183 00ed E8000000 		call	_ZN8UnitTest11CurrentTest7ResultsEv@PLT
 2183      00
 2184 00f2 4C8B28   		movq	(%rax), %r13
 2185 00f5 E8000000 		call	_ZN8UnitTest11CurrentTest7DetailsEv@PLT
 2185      00
 2186 00fa 488D6C24 		leaq	48(%rsp), %rbp
 2186      30
 2187 00ff 488B30   		movq	(%rax), %rsi
 2188 0102 BA590000 		movl	$89, %edx
 2188      00
 2189 0107 4889EF   		movq	%rbp, %rdi
 2190 010a E8000000 		call	_ZN8UnitTest11TestDetailsC1ERKS0_i@PLT
 2190      00
 2191 010f 488D1500 		leaq	.LC6(%rip), %rdx
 2191      000000
 2192 0116 4889EE   		movq	%rbp, %rsi
 2193 0119 4C89EF   		movq	%r13, %rdi
 2194 011c E8000000 		call	_ZN8UnitTest11TestResults13OnTestFailureERKNS_11TestDetailsEPKc@PLT
 2194      00
 2195              	.LEHE54:
 2196              	.LEHB55:
 2197 0121 E8000000 		call	__cxa_end_catch@PLT
 2197      00
 2198              	.LEHE55:
 2199 0126 E9000000 		jmp	.L128
 2199      00
 2200              	.L137:
 2201 012b F30F1EFA 		endbr64
 2202 012f 4889C5   		movq	%rax, %rbp
 2203 0132 E8000000 		call	__cxa_end_catch@PLT
 2203      00
 2204 0137 4889EF   		movq	%rbp, %rdi
 2205              	.LEHB56:
 2206 013a E8000000 		call	_Unwind_Resume@PLT
 2206      00
 2207              	.LEHE56:
 2208              	.L135:
 2209 013f F30F1EFA 		endbr64
 2210 0143 4889C5   		movq	%rax, %rbp
 2211 0146 E8000000 		call	__cxa_end_catch@PLT
 2211      00
 2212 014b 4889EF   		movq	%rbp, %rdi
 2213              	.LEHB57:
 2214 014e E8000000 		call	_Unwind_Resume@PLT
 2214      00
 2215              	.LEHE57:
 2216              		.cfi_endproc
 2217              	.LFE1322:
 2218              		.section	.gcc_except_table
 2219              		.align 4
 2220              	.LLSDAC1322:
 2221 0070 FF       		.byte	0xff
 2222 0071 9B       		.byte	0x9b
 2223 0072 25       		.uleb128 .LLSDATTC1322-.LLSDATTDC1322
 2224              	.LLSDATTDC1322:
 2225 0073 01       		.byte	0x1
 2226 0074 1C       		.uleb128 .LLSDACSEC1322-.LLSDACSBC1322
 2227              	.LLSDACSBC1322:
 2228 0075 05       		.uleb128 .LEHB52-.LCOLDB11
 2229 0076 2F       		.uleb128 .LEHE52-.LEHB52
 2230 0077 8101     		.uleb128 .L137-.LCOLDB11
 2231 0079 00       		.uleb128 0
 2232 007a 34       		.uleb128 .LEHB53-.LCOLDB11
 2233 007b 05       		.uleb128 .LEHE53-.LEHB53
 2234 007c 00       		.uleb128 0
 2235 007d 00       		.uleb128 0
 2236 007e 43       		.uleb128 .LEHB54-.LCOLDB11
 2237 007f 34       		.uleb128 .LEHE54-.LEHB54
 2238 0080 9501     		.uleb128 .L135-.LCOLDB11
 2239 0082 00       		.uleb128 0
 2240 0083 77       		.uleb128 .LEHB55-.LCOLDB11
 2241 0084 05       		.uleb128 .LEHE55-.LEHB55
 2242 0085 00       		.uleb128 0
 2243 0086 00       		.uleb128 0
 2244 0087 9001     		.uleb128 .LEHB56-.LCOLDB11
 2245 0089 05       		.uleb128 .LEHE56-.LEHB56
 2246 008a 00       		.uleb128 0
 2247 008b 00       		.uleb128 0
 2248 008c A401     		.uleb128 .LEHB57-.LCOLDB11
 2249 008e 05       		.uleb128 .LEHE57-.LEHB57
 2250 008f 00       		.uleb128 0
 2251 0090 00       		.uleb128 0
 2252              	.LLSDACSEC1322:
 2253 0091 01       		.byte	0x1
 2254 0092 00       		.byte	0
 2255 0093 00       		.align 4
 2256 0094 00000000 		.long	0
 2257              	
 2258              	.LLSDATTC1322:
 2259              		.section	.text.unlikely
 2260              		.text
 2262              		.section	.text.unlikely
 2264              	.LCOLDE11:
 2265              		.text
 2266              	.LHOTE11:
 2267              		.section	.rodata.str1.1
 2268              	.LC12:
 2269 002a 3A30342E 		.string	":04..E10075820022F7\n"
 2269      2E453130 
 2269      30373538 
 2269      32303032 
 2269      3246370A 
 2270              		.section	.rodata.str1.8
 2271              		.align 8
 2272              	.LC13:
 2273 00b8 556E6861 		.string	"Unhandled exception in CHECK_EQUAL(HEX_JUNK_ADDR_MSB, status)"
 2273      6E646C65 
 2273      64206578 
 2273      63657074 
 2273      696F6E20 
 2274              		.section	.text.unlikely
 2275 0153 90       		.align 2
 2276              	.LCOLDB14:
 2277              		.text
 2278              	.LHOTB14:
 2279              		.align 2
 2280 023a 660F1F44 		.p2align 4
 2280      0000
 2281              		.globl	_ZNK25TestHexIO_testJunkAddrMsb7RunImplEv
 2283              	_ZNK25TestHexIO_testJunkAddrMsb7RunImplEv:
 2284              	.LFB1326:
 2285              		.cfi_startproc
 2286              		.cfi_personality 0x9b,DW.ref.__gxx_personality_v0
 2287              		.cfi_lsda 0x1b,.LLSDA1326
 2288 0240 F30F1EFA 		endbr64
 2289 0244 4155     		pushq	%r13
 2290              		.cfi_def_cfa_offset 16
 2291              		.cfi_offset 13, -16
 2292 0246 31C9     		xorl	%ecx, %ecx
 2293 0248 31D2     		xorl	%edx, %edx
 2294 024a BE000400 		movl	$1024, %esi
 2294      00
 2295 024f 4154     		pushq	%r12
 2296              		.cfi_def_cfa_offset 24
 2297              		.cfi_offset 12, -24
 2298 0251 55       		pushq	%rbp
 2299              		.cfi_def_cfa_offset 32
 2300              		.cfi_offset 6, -32
 2301 0252 4883EC60 		subq	$96, %rsp
 2302              		.cfi_def_cfa_offset 128
 2303 0256 64488B04 		movq	%fs:40, %rax
 2303      25280000 
 2303      00
 2304 025f 48894424 		movq	%rax, 88(%rsp)
 2304      58
 2305 0264 31C0     		xorl	%eax, %eax
 2306 0266 4C8D6424 		leaq	16(%rsp), %r12
 2306      10
 2307 026b C7442408 		movl	$0, 8(%rsp)
 2307      00000000 
 2308 0273 4C89E7   		movq	%r12, %rdi
 2309              	.LEHB58:
 2310 0276 E8000000 		call	bufInitialise@PLT
 2310      00
 2311              	.LEHE58:
 2312 027b 89442404 		movl	%eax, 4(%rsp)
 2313              	.LEHB59:
 2314 027f E8000000 		call	_ZN8UnitTest11CurrentTest7DetailsEv@PLT
 2314      00
 2315 0284 488D6C24 		leaq	48(%rsp), %rbp
 2315      30
 2316 0289 488B30   		movq	(%rax), %rsi
 2317 028c BA660000 		movl	$102, %edx
 2317      00
 2318 0291 4889EF   		movq	%rbp, %rdi
 2319 0294 E8000000 		call	_ZN8UnitTest11TestDetailsC1ERKS0_i@PLT
 2319      00
 2320 0299 C744240C 		movl	$0, 12(%rsp)
 2320      00000000 
 2321 02a1 E8000000 		call	_ZN8UnitTest11CurrentTest7ResultsEv@PLT
 2321      00
 2322 02a6 488B38   		movq	(%rax), %rdi
 2323 02a9 488D5424 		leaq	4(%rsp), %rdx
 2323      04
 2324 02ae 488D7424 		leaq	12(%rsp), %rsi
 2324      0C
 2325 02b3 4889E9   		movq	%rbp, %rcx
 2326 02b6 E8000000 		call	_ZN8UnitTest10CheckEqualI12BufferStatusS1_EEvRNS_11TestResultsERKT_RKT0_RKNS_11TestDetailsE
 2326      00
 2327              	.LEHE59:
 2328              	.L143:
 2329 02bb 4883EC08 		subq	$8, %rsp
 2330              		.cfi_def_cfa_offset 136
 2331 02bf 4C89E2   		movq	%r12, %rdx
 2332 02c2 31C9     		xorl	%ecx, %ecx
 2333 02c4 31F6     		xorl	%esi, %esi
 2334 02c6 6A00     		pushq	$0
 2335              		.cfi_def_cfa_offset 144
 2336 02c8 488D3D00 		leaq	.LC12(%rip), %rdi
 2336      000000
 2337 02cf 4C8D4C24 		leaq	19(%rsp), %r9
 2337      13
 2338 02d4 4C8D4424 		leaq	24(%rsp), %r8
 2338      18
 2339              	.LEHB60:
 2340 02d9 E8000000 		call	bufProcessLine@PLT
 2340      00
 2341              	.LEHE60:
 2342 02de 89442414 		movl	%eax, 20(%rsp)
 2343 02e2 58       		popq	%rax
 2344              		.cfi_def_cfa_offset 136
 2345 02e3 5A       		popq	%rdx
 2346              		.cfi_def_cfa_offset 128
 2347              	.LEHB61:
 2348 02e4 E8000000 		call	_ZN8UnitTest11CurrentTest7DetailsEv@PLT
 2348      00
 2349 02e9 488B30   		movq	(%rax), %rsi
 2350 02ec BA680000 		movl	$104, %edx
 2350      00
 2351 02f1 4889EF   		movq	%rbp, %rdi
 2352 02f4 E8000000 		call	_ZN8UnitTest11TestDetailsC1ERKS0_i@PLT
 2352      00
 2353 02f9 C744240C 		movl	$10, 12(%rsp)
 2353      0A000000 
 2354 0301 E8000000 		call	_ZN8UnitTest11CurrentTest7ResultsEv@PLT
 2354      00
 2355 0306 488B38   		movq	(%rax), %rdi
 2356 0309 488D5424 		leaq	4(%rsp), %rdx
 2356      04
 2357 030e 488D7424 		leaq	12(%rsp), %rsi
 2357      0C
 2358 0313 4889E9   		movq	%rbp, %rcx
 2359 0316 E8000000 		call	_ZN8UnitTest10CheckEqualI12BufferStatusS1_EEvRNS_11TestResultsERKT_RKT0_RKNS_11TestDetailsE
 2359      00
 2360              	.LEHE61:
 2361              	.L146:
 2362 031b 4C89E7   		movq	%r12, %rdi
 2363              	.LEHB62:
 2364 031e E8000000 		call	bufDestroy@PLT
 2364      00
 2365              	.LEHE62:
 2366 0323 488B4424 		movq	88(%rsp), %rax
 2366      58
 2367 0328 64482B04 		subq	%fs:40, %rax
 2367      25280000 
 2367      00
 2368 0331 750A     		jne	.L155
 2369 0333 4883C460 		addq	$96, %rsp
 2370              		.cfi_remember_state
 2371              		.cfi_def_cfa_offset 32
 2372 0337 5D       		popq	%rbp
 2373              		.cfi_def_cfa_offset 24
 2374 0338 415C     		popq	%r12
 2375              		.cfi_def_cfa_offset 16
 2376 033a 415D     		popq	%r13
 2377              		.cfi_def_cfa_offset 8
 2378 033c C3       		ret
 2379              	.L155:
 2380              		.cfi_restore_state
 2381 033d E8000000 		call	__stack_chk_fail@PLT
 2381      00
 2382              	.L151:
 2383 0342 F30F1EFA 		endbr64
 2384 0346 4889C7   		movq	%rax, %rdi
 2385 0349 E9000000 		jmp	.L145
 2385      00
 2386              	.L149:
 2387 034e F30F1EFA 		endbr64
 2388 0352 4889C7   		movq	%rax, %rdi
 2389 0355 E9000000 		jmp	.L142
 2389      00
 2390              		.section	.gcc_except_table
 2391              		.align 4
 2392              	.LLSDA1326:
 2393 0098 FF       		.byte	0xff
 2394 0099 9B       		.byte	0x9b
 2395 009a 21       		.uleb128 .LLSDATT1326-.LLSDATTD1326
 2396              	.LLSDATTD1326:
 2397 009b 01       		.byte	0x1
 2398 009c 19       		.uleb128 .LLSDACSE1326-.LLSDACSB1326
 2399              	.LLSDACSB1326:
 2400 009d 36       		.uleb128 .LEHB58-.LFB1326
 2401 009e 05       		.uleb128 .LEHE58-.LEHB58
 2402 009f 00       		.uleb128 0
 2403 00a0 00       		.uleb128 0
 2404 00a1 3F       		.uleb128 .LEHB59-.LFB1326
 2405 00a2 3C       		.uleb128 .LEHE59-.LEHB59
 2406 00a3 8E02     		.uleb128 .L149-.LFB1326
 2407 00a5 01       		.uleb128 0x1
 2408 00a6 9901     		.uleb128 .LEHB60-.LFB1326
 2409 00a8 05       		.uleb128 .LEHE60-.LEHB60
 2410 00a9 00       		.uleb128 0
 2411 00aa 00       		.uleb128 0
 2412 00ab A401     		.uleb128 .LEHB61-.LFB1326
 2413 00ad 37       		.uleb128 .LEHE61-.LEHB61
 2414 00ae 8202     		.uleb128 .L151-.LFB1326
 2415 00b0 01       		.uleb128 0x1
 2416 00b1 DE01     		.uleb128 .LEHB62-.LFB1326
 2417 00b3 05       		.uleb128 .LEHE62-.LEHB62
 2418 00b4 00       		.uleb128 0
 2419 00b5 00       		.uleb128 0
 2420              	.LLSDACSE1326:
 2421 00b6 01       		.byte	0x1
 2422 00b7 00       		.byte	0
 2423              		.align 4
 2424 00b8 00000000 		.long	0
 2425              	
 2426              	.LLSDATT1326:
 2427              		.text
 2428              		.cfi_endproc
 2429              		.section	.text.unlikely
 2430              		.cfi_startproc
 2431              		.cfi_personality 0x9b,DW.ref.__gxx_personality_v0
 2432              		.cfi_lsda 0x1b,.LLSDAC1326
 2434              	_ZNK25TestHexIO_testJunkAddrMsb7RunImplEv.cold:
 2435              	.LFSB1326:
 2436              	.L145:
 2437              		.cfi_def_cfa_offset 128
 2438              		.cfi_offset 6, -32
 2439              		.cfi_offset 12, -24
 2440              		.cfi_offset 13, -16
 2441 0154 E8000000 		call	__cxa_begin_catch@PLT
 2441      00
 2442              	.LEHB63:
 2443 0159 E8000000 		call	_ZN8UnitTest11CurrentTest7ResultsEv@PLT
 2443      00
 2444 015e 4C8B28   		movq	(%rax), %r13
 2445 0161 E8000000 		call	_ZN8UnitTest11CurrentTest7DetailsEv@PLT
 2445      00
 2446 0166 488B30   		movq	(%rax), %rsi
 2447 0169 BA680000 		movl	$104, %edx
 2447      00
 2448 016e 4889EF   		movq	%rbp, %rdi
 2449 0171 E8000000 		call	_ZN8UnitTest11TestDetailsC1ERKS0_i@PLT
 2449      00
 2450 0176 488D1500 		leaq	.LC13(%rip), %rdx
 2450      000000
 2451 017d 4889EE   		movq	%rbp, %rsi
 2452 0180 4C89EF   		movq	%r13, %rdi
 2453 0183 E8000000 		call	_ZN8UnitTest11TestResults13OnTestFailureERKNS_11TestDetailsEPKc@PLT
 2453      00
 2454              	.LEHE63:
 2455              	.LEHB64:
 2456 0188 E8000000 		call	__cxa_end_catch@PLT
 2456      00
 2457              	.LEHE64:
 2458 018d E9000000 		jmp	.L146
 2458      00
 2459              	.L142:
 2460 0192 E8000000 		call	__cxa_begin_catch@PLT
 2460      00
 2461              	.LEHB65:
 2462 0197 E8000000 		call	_ZN8UnitTest11CurrentTest7ResultsEv@PLT
 2462      00
 2463 019c 4C8B28   		movq	(%rax), %r13
 2464 019f E8000000 		call	_ZN8UnitTest11CurrentTest7DetailsEv@PLT
 2464      00
 2465 01a4 488D6C24 		leaq	48(%rsp), %rbp
 2465      30
 2466 01a9 488B30   		movq	(%rax), %rsi
 2467 01ac BA660000 		movl	$102, %edx
 2467      00
 2468 01b1 4889EF   		movq	%rbp, %rdi
 2469 01b4 E8000000 		call	_ZN8UnitTest11TestDetailsC1ERKS0_i@PLT
 2469      00
 2470 01b9 488D1500 		leaq	.LC6(%rip), %rdx
 2470      000000
 2471 01c0 4889EE   		movq	%rbp, %rsi
 2472 01c3 4C89EF   		movq	%r13, %rdi
 2473 01c6 E8000000 		call	_ZN8UnitTest11TestResults13OnTestFailureERKNS_11TestDetailsEPKc@PLT
 2473      00
 2474              	.LEHE65:
 2475              	.LEHB66:
 2476 01cb E8000000 		call	__cxa_end_catch@PLT
 2476      00
 2477              	.LEHE66:
 2478 01d0 E9000000 		jmp	.L143
 2478      00
 2479              	.L152:
 2480 01d5 F30F1EFA 		endbr64
 2481 01d9 4889C5   		movq	%rax, %rbp
 2482 01dc E8000000 		call	__cxa_end_catch@PLT
 2482      00
 2483 01e1 4889EF   		movq	%rbp, %rdi
 2484              	.LEHB67:
 2485 01e4 E8000000 		call	_Unwind_Resume@PLT
 2485      00
 2486              	.LEHE67:
 2487              	.L150:
 2488 01e9 F30F1EFA 		endbr64
 2489 01ed 4889C5   		movq	%rax, %rbp
 2490 01f0 E8000000 		call	__cxa_end_catch@PLT
 2490      00
 2491 01f5 4889EF   		movq	%rbp, %rdi
 2492              	.LEHB68:
 2493 01f8 E8000000 		call	_Unwind_Resume@PLT
 2493      00
 2494              	.LEHE68:
 2495              		.cfi_endproc
 2496              	.LFE1326:
 2497              		.section	.gcc_except_table
 2498              		.align 4
 2499              	.LLSDAC1326:
 2500 00bc FF       		.byte	0xff
 2501 00bd 9B       		.byte	0x9b
 2502 00be 25       		.uleb128 .LLSDATTC1326-.LLSDATTDC1326
 2503              	.LLSDATTDC1326:
 2504 00bf 01       		.byte	0x1
 2505 00c0 1C       		.uleb128 .LLSDACSEC1326-.LLSDACSBC1326
 2506              	.LLSDACSBC1326:
 2507 00c1 05       		.uleb128 .LEHB63-.LCOLDB14
 2508 00c2 2F       		.uleb128 .LEHE63-.LEHB63
 2509 00c3 8101     		.uleb128 .L152-.LCOLDB14
 2510 00c5 00       		.uleb128 0
 2511 00c6 34       		.uleb128 .LEHB64-.LCOLDB14
 2512 00c7 05       		.uleb128 .LEHE64-.LEHB64
 2513 00c8 00       		.uleb128 0
 2514 00c9 00       		.uleb128 0
 2515 00ca 43       		.uleb128 .LEHB65-.LCOLDB14
 2516 00cb 34       		.uleb128 .LEHE65-.LEHB65
 2517 00cc 9501     		.uleb128 .L150-.LCOLDB14
 2518 00ce 00       		.uleb128 0
 2519 00cf 77       		.uleb128 .LEHB66-.LCOLDB14
 2520 00d0 05       		.uleb128 .LEHE66-.LEHB66
 2521 00d1 00       		.uleb128 0
 2522 00d2 00       		.uleb128 0
 2523 00d3 9001     		.uleb128 .LEHB67-.LCOLDB14
 2524 00d5 05       		.uleb128 .LEHE67-.LEHB67
 2525 00d6 00       		.uleb128 0
 2526 00d7 00       		.uleb128 0
 2527 00d8 A401     		.uleb128 .LEHB68-.LCOLDB14
 2528 00da 05       		.uleb128 .LEHE68-.LEHB68
 2529 00db 00       		.uleb128 0
 2530 00dc 00       		.uleb128 0
 2531              	.LLSDACSEC1326:
 2532 00dd 01       		.byte	0x1
 2533 00de 00       		.byte	0
 2534 00df 00       		.align 4
 2535 00e0 00000000 		.long	0
 2536              	
 2537              	.LLSDATTC1326:
 2538              		.section	.text.unlikely
 2539              		.text
 2541              		.section	.text.unlikely
 2543              	.LCOLDE14:
 2544              		.text
 2545              	.LHOTE14:
 2546              		.section	.rodata.str1.1
 2547              	.LC15:
 2548 003f 3A303430 		.string	":040B..0075820022F7\n"
 2548      422E2E30 
 2548      30373538 
 2548      32303032 
 2548      3246370A 
 2549              		.section	.rodata.str1.8
 2550 00f6 0000     		.align 8
 2551              	.LC16:
 2552 00f8 556E6861 		.string	"Unhandled exception in CHECK_EQUAL(HEX_JUNK_ADDR_LSB, status)"
 2552      6E646C65 
 2552      64206578 
 2552      63657074 
 2552      696F6E20 
 2553              		.section	.text.unlikely
 2554 01fd 90       		.align 2
 2555              	.LCOLDB17:
 2556              		.text
 2557              	.LHOTB17:
 2558              		.align 2
 2559 035a 660F1F44 		.p2align 4
 2559      0000
 2560              		.globl	_ZNK25TestHexIO_testJunkAddrLsb7RunImplEv
 2562              	_ZNK25TestHexIO_testJunkAddrLsb7RunImplEv:
 2563              	.LFB1330:
 2564              		.cfi_startproc
 2565              		.cfi_personality 0x9b,DW.ref.__gxx_personality_v0
 2566              		.cfi_lsda 0x1b,.LLSDA1330
 2567 0360 F30F1EFA 		endbr64
 2568 0364 4155     		pushq	%r13
 2569              		.cfi_def_cfa_offset 16
 2570              		.cfi_offset 13, -16
 2571 0366 31C9     		xorl	%ecx, %ecx
 2572 0368 31D2     		xorl	%edx, %edx
 2573 036a BE000400 		movl	$1024, %esi
 2573      00
 2574 036f 4154     		pushq	%r12
 2575              		.cfi_def_cfa_offset 24
 2576              		.cfi_offset 12, -24
 2577 0371 55       		pushq	%rbp
 2578              		.cfi_def_cfa_offset 32
 2579              		.cfi_offset 6, -32
 2580 0372 4883EC60 		subq	$96, %rsp
 2581              		.cfi_def_cfa_offset 128
 2582 0376 64488B04 		movq	%fs:40, %rax
 2582      25280000 
 2582      00
 2583 037f 48894424 		movq	%rax, 88(%rsp)
 2583      58
 2584 0384 31C0     		xorl	%eax, %eax
 2585 0386 4C8D6424 		leaq	16(%rsp), %r12
 2585      10
 2586 038b C7442408 		movl	$0, 8(%rsp)
 2586      00000000 
 2587 0393 4C89E7   		movq	%r12, %rdi
 2588              	.LEHB69:
 2589 0396 E8000000 		call	bufInitialise@PLT
 2589      00
 2590              	.LEHE69:
 2591 039b 89442404 		movl	%eax, 4(%rsp)
 2592              	.LEHB70:
 2593 039f E8000000 		call	_ZN8UnitTest11CurrentTest7DetailsEv@PLT
 2593      00
 2594 03a4 488D6C24 		leaq	48(%rsp), %rbp
 2594      30
 2595 03a9 488B30   		movq	(%rax), %rsi
 2596 03ac BA730000 		movl	$115, %edx
 2596      00
 2597 03b1 4889EF   		movq	%rbp, %rdi
 2598 03b4 E8000000 		call	_ZN8UnitTest11TestDetailsC1ERKS0_i@PLT
 2598      00
 2599 03b9 C744240C 		movl	$0, 12(%rsp)
 2599      00000000 
 2600 03c1 E8000000 		call	_ZN8UnitTest11CurrentTest7ResultsEv@PLT
 2600      00
 2601 03c6 488B38   		movq	(%rax), %rdi
 2602 03c9 488D5424 		leaq	4(%rsp), %rdx
 2602      04
 2603 03ce 488D7424 		leaq	12(%rsp), %rsi
 2603      0C
 2604 03d3 4889E9   		movq	%rbp, %rcx
 2605 03d6 E8000000 		call	_ZN8UnitTest10CheckEqualI12BufferStatusS1_EEvRNS_11TestResultsERKT_RKT0_RKNS_11TestDetailsE
 2605      00
 2606              	.LEHE70:
 2607              	.L158:
 2608 03db 4883EC08 		subq	$8, %rsp
 2609              		.cfi_def_cfa_offset 136
 2610 03df 4C89E2   		movq	%r12, %rdx
 2611 03e2 31C9     		xorl	%ecx, %ecx
 2612 03e4 31F6     		xorl	%esi, %esi
 2613 03e6 6A00     		pushq	$0
 2614              		.cfi_def_cfa_offset 144
 2615 03e8 488D3D00 		leaq	.LC15(%rip), %rdi
 2615      000000
 2616 03ef 4C8D4C24 		leaq	19(%rsp), %r9
 2616      13
 2617 03f4 4C8D4424 		leaq	24(%rsp), %r8
 2617      18
 2618              	.LEHB71:
 2619 03f9 E8000000 		call	bufProcessLine@PLT
 2619      00
 2620              	.LEHE71:
 2621 03fe 89442414 		movl	%eax, 20(%rsp)
 2622 0402 58       		popq	%rax
 2623              		.cfi_def_cfa_offset 136
 2624 0403 5A       		popq	%rdx
 2625              		.cfi_def_cfa_offset 128
 2626              	.LEHB72:
 2627 0404 E8000000 		call	_ZN8UnitTest11CurrentTest7DetailsEv@PLT
 2627      00
 2628 0409 488B30   		movq	(%rax), %rsi
 2629 040c BA750000 		movl	$117, %edx
 2629      00
 2630 0411 4889EF   		movq	%rbp, %rdi
 2631 0414 E8000000 		call	_ZN8UnitTest11TestDetailsC1ERKS0_i@PLT
 2631      00
 2632 0419 C744240C 		movl	$11, 12(%rsp)
 2632      0B000000 
 2633 0421 E8000000 		call	_ZN8UnitTest11CurrentTest7ResultsEv@PLT
 2633      00
 2634 0426 488B38   		movq	(%rax), %rdi
 2635 0429 488D5424 		leaq	4(%rsp), %rdx
 2635      04
 2636 042e 488D7424 		leaq	12(%rsp), %rsi
 2636      0C
 2637 0433 4889E9   		movq	%rbp, %rcx
 2638 0436 E8000000 		call	_ZN8UnitTest10CheckEqualI12BufferStatusS1_EEvRNS_11TestResultsERKT_RKT0_RKNS_11TestDetailsE
 2638      00
 2639              	.LEHE72:
 2640              	.L161:
 2641 043b 4C89E7   		movq	%r12, %rdi
 2642              	.LEHB73:
 2643 043e E8000000 		call	bufDestroy@PLT
 2643      00
 2644              	.LEHE73:
 2645 0443 488B4424 		movq	88(%rsp), %rax
 2645      58
 2646 0448 64482B04 		subq	%fs:40, %rax
 2646      25280000 
 2646      00
 2647 0451 750A     		jne	.L170
 2648 0453 4883C460 		addq	$96, %rsp
 2649              		.cfi_remember_state
 2650              		.cfi_def_cfa_offset 32
 2651 0457 5D       		popq	%rbp
 2652              		.cfi_def_cfa_offset 24
 2653 0458 415C     		popq	%r12
 2654              		.cfi_def_cfa_offset 16
 2655 045a 415D     		popq	%r13
 2656              		.cfi_def_cfa_offset 8
 2657 045c C3       		ret
 2658              	.L170:
 2659              		.cfi_restore_state
 2660 045d E8000000 		call	__stack_chk_fail@PLT
 2660      00
 2661              	.L166:
 2662 0462 F30F1EFA 		endbr64
 2663 0466 4889C7   		movq	%rax, %rdi
 2664 0469 E9000000 		jmp	.L160
 2664      00
 2665              	.L164:
 2666 046e F30F1EFA 		endbr64
 2667 0472 4889C7   		movq	%rax, %rdi
 2668 0475 E9000000 		jmp	.L157
 2668      00
 2669              		.section	.gcc_except_table
 2670              		.align 4
 2671              	.LLSDA1330:
 2672 00e4 FF       		.byte	0xff
 2673 00e5 9B       		.byte	0x9b
 2674 00e6 21       		.uleb128 .LLSDATT1330-.LLSDATTD1330
 2675              	.LLSDATTD1330:
 2676 00e7 01       		.byte	0x1
 2677 00e8 19       		.uleb128 .LLSDACSE1330-.LLSDACSB1330
 2678              	.LLSDACSB1330:
 2679 00e9 36       		.uleb128 .LEHB69-.LFB1330
 2680 00ea 05       		.uleb128 .LEHE69-.LEHB69
 2681 00eb 00       		.uleb128 0
 2682 00ec 00       		.uleb128 0
 2683 00ed 3F       		.uleb128 .LEHB70-.LFB1330
 2684 00ee 3C       		.uleb128 .LEHE70-.LEHB70
 2685 00ef 8E02     		.uleb128 .L164-.LFB1330
 2686 00f1 01       		.uleb128 0x1
 2687 00f2 9901     		.uleb128 .LEHB71-.LFB1330
 2688 00f4 05       		.uleb128 .LEHE71-.LEHB71
 2689 00f5 00       		.uleb128 0
 2690 00f6 00       		.uleb128 0
 2691 00f7 A401     		.uleb128 .LEHB72-.LFB1330
 2692 00f9 37       		.uleb128 .LEHE72-.LEHB72
 2693 00fa 8202     		.uleb128 .L166-.LFB1330
 2694 00fc 01       		.uleb128 0x1
 2695 00fd DE01     		.uleb128 .LEHB73-.LFB1330
 2696 00ff 05       		.uleb128 .LEHE73-.LEHB73
 2697 0100 00       		.uleb128 0
 2698 0101 00       		.uleb128 0
 2699              	.LLSDACSE1330:
 2700 0102 01       		.byte	0x1
 2701 0103 00       		.byte	0
 2702              		.align 4
 2703 0104 00000000 		.long	0
 2704              	
 2705              	.LLSDATT1330:
 2706              		.text
 2707              		.cfi_endproc
 2708              		.section	.text.unlikely
 2709              		.cfi_startproc
 2710              		.cfi_personality 0x9b,DW.ref.__gxx_personality_v0
 2711              		.cfi_lsda 0x1b,.LLSDAC1330
 2713              	_ZNK25TestHexIO_testJunkAddrLsb7RunImplEv.cold:
 2714              	.LFSB1330:
 2715              	.L160:
 2716              		.cfi_def_cfa_offset 128
 2717              		.cfi_offset 6, -32
 2718              		.cfi_offset 12, -24
 2719              		.cfi_offset 13, -16
 2720 01fe E8000000 		call	__cxa_begin_catch@PLT
 2720      00
 2721              	.LEHB74:
 2722 0203 E8000000 		call	_ZN8UnitTest11CurrentTest7ResultsEv@PLT
 2722      00
 2723 0208 4C8B28   		movq	(%rax), %r13
 2724 020b E8000000 		call	_ZN8UnitTest11CurrentTest7DetailsEv@PLT
 2724      00
 2725 0210 488B30   		movq	(%rax), %rsi
 2726 0213 BA750000 		movl	$117, %edx
 2726      00
 2727 0218 4889EF   		movq	%rbp, %rdi
 2728 021b E8000000 		call	_ZN8UnitTest11TestDetailsC1ERKS0_i@PLT
 2728      00
 2729 0220 488D1500 		leaq	.LC16(%rip), %rdx
 2729      000000
 2730 0227 4889EE   		movq	%rbp, %rsi
 2731 022a 4C89EF   		movq	%r13, %rdi
 2732 022d E8000000 		call	_ZN8UnitTest11TestResults13OnTestFailureERKNS_11TestDetailsEPKc@PLT
 2732      00
 2733              	.LEHE74:
 2734              	.LEHB75:
 2735 0232 E8000000 		call	__cxa_end_catch@PLT
 2735      00
 2736              	.LEHE75:
 2737 0237 E9000000 		jmp	.L161
 2737      00
 2738              	.L157:
 2739 023c E8000000 		call	__cxa_begin_catch@PLT
 2739      00
 2740              	.LEHB76:
 2741 0241 E8000000 		call	_ZN8UnitTest11CurrentTest7ResultsEv@PLT
 2741      00
 2742 0246 4C8B28   		movq	(%rax), %r13
 2743 0249 E8000000 		call	_ZN8UnitTest11CurrentTest7DetailsEv@PLT
 2743      00
 2744 024e 488D6C24 		leaq	48(%rsp), %rbp
 2744      30
 2745 0253 488B30   		movq	(%rax), %rsi
 2746 0256 BA730000 		movl	$115, %edx
 2746      00
 2747 025b 4889EF   		movq	%rbp, %rdi
 2748 025e E8000000 		call	_ZN8UnitTest11TestDetailsC1ERKS0_i@PLT
 2748      00
 2749 0263 488D1500 		leaq	.LC6(%rip), %rdx
 2749      000000
 2750 026a 4889EE   		movq	%rbp, %rsi
 2751 026d 4C89EF   		movq	%r13, %rdi
 2752 0270 E8000000 		call	_ZN8UnitTest11TestResults13OnTestFailureERKNS_11TestDetailsEPKc@PLT
 2752      00
 2753              	.LEHE76:
 2754              	.LEHB77:
 2755 0275 E8000000 		call	__cxa_end_catch@PLT
 2755      00
 2756              	.LEHE77:
 2757 027a E9000000 		jmp	.L158
 2757      00
 2758              	.L167:
 2759 027f F30F1EFA 		endbr64
 2760 0283 4889C5   		movq	%rax, %rbp
 2761 0286 E8000000 		call	__cxa_end_catch@PLT
 2761      00
 2762 028b 4889EF   		movq	%rbp, %rdi
 2763              	.LEHB78:
 2764 028e E8000000 		call	_Unwind_Resume@PLT
 2764      00
 2765              	.LEHE78:
 2766              	.L165:
 2767 0293 F30F1EFA 		endbr64
 2768 0297 4889C5   		movq	%rax, %rbp
 2769 029a E8000000 		call	__cxa_end_catch@PLT
 2769      00
 2770 029f 4889EF   		movq	%rbp, %rdi
 2771              	.LEHB79:
 2772 02a2 E8000000 		call	_Unwind_Resume@PLT
 2772      00
 2773              	.LEHE79:
 2774              		.cfi_endproc
 2775              	.LFE1330:
 2776              		.section	.gcc_except_table
 2777              		.align 4
 2778              	.LLSDAC1330:
 2779 0108 FF       		.byte	0xff
 2780 0109 9B       		.byte	0x9b
 2781 010a 25       		.uleb128 .LLSDATTC1330-.LLSDATTDC1330
 2782              	.LLSDATTDC1330:
 2783 010b 01       		.byte	0x1
 2784 010c 1C       		.uleb128 .LLSDACSEC1330-.LLSDACSBC1330
 2785              	.LLSDACSBC1330:
 2786 010d 05       		.uleb128 .LEHB74-.LCOLDB17
 2787 010e 2F       		.uleb128 .LEHE74-.LEHB74
 2788 010f 8101     		.uleb128 .L167-.LCOLDB17
 2789 0111 00       		.uleb128 0
 2790 0112 34       		.uleb128 .LEHB75-.LCOLDB17
 2791 0113 05       		.uleb128 .LEHE75-.LEHB75
 2792 0114 00       		.uleb128 0
 2793 0115 00       		.uleb128 0
 2794 0116 43       		.uleb128 .LEHB76-.LCOLDB17
 2795 0117 34       		.uleb128 .LEHE76-.LEHB76
 2796 0118 9501     		.uleb128 .L165-.LCOLDB17
 2797 011a 00       		.uleb128 0
 2798 011b 77       		.uleb128 .LEHB77-.LCOLDB17
 2799 011c 05       		.uleb128 .LEHE77-.LEHB77
 2800 011d 00       		.uleb128 0
 2801 011e 00       		.uleb128 0
 2802 011f 9001     		.uleb128 .LEHB78-.LCOLDB17
 2803 0121 05       		.uleb128 .LEHE78-.LEHB78
 2804 0122 00       		.uleb128 0
 2805 0123 00       		.uleb128 0
 2806 0124 A401     		.uleb128 .LEHB79-.LCOLDB17
 2807 0126 05       		.uleb128 .LEHE79-.LEHB79
 2808 0127 00       		.uleb128 0
 2809 0128 00       		.uleb128 0
 2810              	.LLSDACSEC1330:
 2811 0129 01       		.byte	0x1
 2812 012a 00       		.byte	0
 2813 012b 00       		.align 4
 2814 012c 00000000 		.long	0
 2815              	
 2816              	.LLSDATTC1330:
 2817              		.section	.text.unlikely
 2818              		.text
 2820              		.section	.text.unlikely
 2822              	.LCOLDE17:
 2823              		.text
 2824              	.LHOTE17:
 2825              		.section	.rodata.str1.1
 2826              	.LC18:
 2827 0054 3A303430 		.string	":040BE1..75820022F7\n"
 2827      4245312E 
 2827      2E373538 
 2827      32303032 
 2827      3246370A 
 2828              		.section	.rodata.str1.8
 2829 0136 0000     		.align 8
 2830              	.LC19:
 2831 0138 556E6861 		.string	"Unhandled exception in CHECK_EQUAL(HEX_JUNK_REC_TYPE, status)"
 2831      6E646C65 
 2831      64206578 
 2831      63657074 
 2831      696F6E20 
 2832              		.section	.text.unlikely
 2833 02a7 90       		.align 2
 2834              	.LCOLDB20:
 2835              		.text
 2836              	.LHOTB20:
 2837              		.align 2
 2838 047a 660F1F44 		.p2align 4
 2838      0000
 2839              		.globl	_ZNK25TestHexIO_testJunkRecType7RunImplEv
 2841              	_ZNK25TestHexIO_testJunkRecType7RunImplEv:
 2842              	.LFB1334:
 2843              		.cfi_startproc
 2844              		.cfi_personality 0x9b,DW.ref.__gxx_personality_v0
 2845              		.cfi_lsda 0x1b,.LLSDA1334
 2846 0480 F30F1EFA 		endbr64
 2847 0484 4155     		pushq	%r13
 2848              		.cfi_def_cfa_offset 16
 2849              		.cfi_offset 13, -16
 2850 0486 31C9     		xorl	%ecx, %ecx
 2851 0488 31D2     		xorl	%edx, %edx
 2852 048a BE000400 		movl	$1024, %esi
 2852      00
 2853 048f 4154     		pushq	%r12
 2854              		.cfi_def_cfa_offset 24
 2855              		.cfi_offset 12, -24
 2856 0491 55       		pushq	%rbp
 2857              		.cfi_def_cfa_offset 32
 2858              		.cfi_offset 6, -32
 2859 0492 4883EC60 		subq	$96, %rsp
 2860              		.cfi_def_cfa_offset 128
 2861 0496 64488B04 		movq	%fs:40, %rax
 2861      25280000 
 2861      00
 2862 049f 48894424 		movq	%rax, 88(%rsp)
 2862      58
 2863 04a4 31C0     		xorl	%eax, %eax
 2864 04a6 4C8D6424 		leaq	16(%rsp), %r12
 2864      10
 2865 04ab C7442408 		movl	$0, 8(%rsp)
 2865      00000000 
 2866 04b3 4C89E7   		movq	%r12, %rdi
 2867              	.LEHB80:
 2868 04b6 E8000000 		call	bufInitialise@PLT
 2868      00
 2869              	.LEHE80:
 2870 04bb 89442404 		movl	%eax, 4(%rsp)
 2871              	.LEHB81:
 2872 04bf E8000000 		call	_ZN8UnitTest11CurrentTest7DetailsEv@PLT
 2872      00
 2873 04c4 488D6C24 		leaq	48(%rsp), %rbp
 2873      30
 2874 04c9 488B30   		movq	(%rax), %rsi
 2875 04cc BA800000 		movl	$128, %edx
 2875      00
 2876 04d1 4889EF   		movq	%rbp, %rdi
 2877 04d4 E8000000 		call	_ZN8UnitTest11TestDetailsC1ERKS0_i@PLT
 2877      00
 2878 04d9 C744240C 		movl	$0, 12(%rsp)
 2878      00000000 
 2879 04e1 E8000000 		call	_ZN8UnitTest11CurrentTest7ResultsEv@PLT
 2879      00
 2880 04e6 488B38   		movq	(%rax), %rdi
 2881 04e9 488D5424 		leaq	4(%rsp), %rdx
 2881      04
 2882 04ee 488D7424 		leaq	12(%rsp), %rsi
 2882      0C
 2883 04f3 4889E9   		movq	%rbp, %rcx
 2884 04f6 E8000000 		call	_ZN8UnitTest10CheckEqualI12BufferStatusS1_EEvRNS_11TestResultsERKT_RKT0_RKNS_11TestDetailsE
 2884      00
 2885              	.LEHE81:
 2886              	.L173:
 2887 04fb 4883EC08 		subq	$8, %rsp
 2888              		.cfi_def_cfa_offset 136
 2889 04ff 4C89E2   		movq	%r12, %rdx
 2890 0502 31C9     		xorl	%ecx, %ecx
 2891 0504 31F6     		xorl	%esi, %esi
 2892 0506 6A00     		pushq	$0
 2893              		.cfi_def_cfa_offset 144
 2894 0508 488D3D00 		leaq	.LC18(%rip), %rdi
 2894      000000
 2895 050f 4C8D4C24 		leaq	19(%rsp), %r9
 2895      13
 2896 0514 4C8D4424 		leaq	24(%rsp), %r8
 2896      18
 2897              	.LEHB82:
 2898 0519 E8000000 		call	bufProcessLine@PLT
 2898      00
 2899              	.LEHE82:
 2900 051e 89442414 		movl	%eax, 20(%rsp)
 2901 0522 58       		popq	%rax
 2902              		.cfi_def_cfa_offset 136
 2903 0523 5A       		popq	%rdx
 2904              		.cfi_def_cfa_offset 128
 2905              	.LEHB83:
 2906 0524 E8000000 		call	_ZN8UnitTest11CurrentTest7DetailsEv@PLT
 2906      00
 2907 0529 488B30   		movq	(%rax), %rsi
 2908 052c BA820000 		movl	$130, %edx
 2908      00
 2909 0531 4889EF   		movq	%rbp, %rdi
 2910 0534 E8000000 		call	_ZN8UnitTest11TestDetailsC1ERKS0_i@PLT
 2910      00
 2911 0539 C744240C 		movl	$12, 12(%rsp)
 2911      0C000000 
 2912 0541 E8000000 		call	_ZN8UnitTest11CurrentTest7ResultsEv@PLT
 2912      00
 2913 0546 488B38   		movq	(%rax), %rdi
 2914 0549 488D5424 		leaq	4(%rsp), %rdx
 2914      04
 2915 054e 488D7424 		leaq	12(%rsp), %rsi
 2915      0C
 2916 0553 4889E9   		movq	%rbp, %rcx
 2917 0556 E8000000 		call	_ZN8UnitTest10CheckEqualI12BufferStatusS1_EEvRNS_11TestResultsERKT_RKT0_RKNS_11TestDetailsE
 2917      00
 2918              	.LEHE83:
 2919              	.L176:
 2920 055b 4C89E7   		movq	%r12, %rdi
 2921              	.LEHB84:
 2922 055e E8000000 		call	bufDestroy@PLT
 2922      00
 2923              	.LEHE84:
 2924 0563 488B4424 		movq	88(%rsp), %rax
 2924      58
 2925 0568 64482B04 		subq	%fs:40, %rax
 2925      25280000 
 2925      00
 2926 0571 750A     		jne	.L185
 2927 0573 4883C460 		addq	$96, %rsp
 2928              		.cfi_remember_state
 2929              		.cfi_def_cfa_offset 32
 2930 0577 5D       		popq	%rbp
 2931              		.cfi_def_cfa_offset 24
 2932 0578 415C     		popq	%r12
 2933              		.cfi_def_cfa_offset 16
 2934 057a 415D     		popq	%r13
 2935              		.cfi_def_cfa_offset 8
 2936 057c C3       		ret
 2937              	.L185:
 2938              		.cfi_restore_state
 2939 057d E8000000 		call	__stack_chk_fail@PLT
 2939      00
 2940              	.L181:
 2941 0582 F30F1EFA 		endbr64
 2942 0586 4889C7   		movq	%rax, %rdi
 2943 0589 E9000000 		jmp	.L175
 2943      00
 2944              	.L179:
 2945 058e F30F1EFA 		endbr64
 2946 0592 4889C7   		movq	%rax, %rdi
 2947 0595 E9000000 		jmp	.L172
 2947      00
 2948              		.section	.gcc_except_table
 2949              		.align 4
 2950              	.LLSDA1334:
 2951 0130 FF       		.byte	0xff
 2952 0131 9B       		.byte	0x9b
 2953 0132 21       		.uleb128 .LLSDATT1334-.LLSDATTD1334
 2954              	.LLSDATTD1334:
 2955 0133 01       		.byte	0x1
 2956 0134 19       		.uleb128 .LLSDACSE1334-.LLSDACSB1334
 2957              	.LLSDACSB1334:
 2958 0135 36       		.uleb128 .LEHB80-.LFB1334
 2959 0136 05       		.uleb128 .LEHE80-.LEHB80
 2960 0137 00       		.uleb128 0
 2961 0138 00       		.uleb128 0
 2962 0139 3F       		.uleb128 .LEHB81-.LFB1334
 2963 013a 3C       		.uleb128 .LEHE81-.LEHB81
 2964 013b 8E02     		.uleb128 .L179-.LFB1334
 2965 013d 01       		.uleb128 0x1
 2966 013e 9901     		.uleb128 .LEHB82-.LFB1334
 2967 0140 05       		.uleb128 .LEHE82-.LEHB82
 2968 0141 00       		.uleb128 0
 2969 0142 00       		.uleb128 0
 2970 0143 A401     		.uleb128 .LEHB83-.LFB1334
 2971 0145 37       		.uleb128 .LEHE83-.LEHB83
 2972 0146 8202     		.uleb128 .L181-.LFB1334
 2973 0148 01       		.uleb128 0x1
 2974 0149 DE01     		.uleb128 .LEHB84-.LFB1334
 2975 014b 05       		.uleb128 .LEHE84-.LEHB84
 2976 014c 00       		.uleb128 0
 2977 014d 00       		.uleb128 0
 2978              	.LLSDACSE1334:
 2979 014e 01       		.byte	0x1
 2980 014f 00       		.byte	0
 2981              		.align 4
 2982 0150 00000000 		.long	0
 2983              	
 2984              	.LLSDATT1334:
 2985              		.text
 2986              		.cfi_endproc
 2987              		.section	.text.unlikely
 2988              		.cfi_startproc
 2989              		.cfi_personality 0x9b,DW.ref.__gxx_personality_v0
 2990              		.cfi_lsda 0x1b,.LLSDAC1334
 2992              	_ZNK25TestHexIO_testJunkRecType7RunImplEv.cold:
 2993              	.LFSB1334:
 2994              	.L175:
 2995              		.cfi_def_cfa_offset 128
 2996              		.cfi_offset 6, -32
 2997              		.cfi_offset 12, -24
 2998              		.cfi_offset 13, -16
 2999 02a8 E8000000 		call	__cxa_begin_catch@PLT
 2999      00
 3000              	.LEHB85:
 3001 02ad E8000000 		call	_ZN8UnitTest11CurrentTest7ResultsEv@PLT
 3001      00
 3002 02b2 4C8B28   		movq	(%rax), %r13
 3003 02b5 E8000000 		call	_ZN8UnitTest11CurrentTest7DetailsEv@PLT
 3003      00
 3004 02ba 488B30   		movq	(%rax), %rsi
 3005 02bd BA820000 		movl	$130, %edx
 3005      00
 3006 02c2 4889EF   		movq	%rbp, %rdi
 3007 02c5 E8000000 		call	_ZN8UnitTest11TestDetailsC1ERKS0_i@PLT
 3007      00
 3008 02ca 488D1500 		leaq	.LC19(%rip), %rdx
 3008      000000
 3009 02d1 4889EE   		movq	%rbp, %rsi
 3010 02d4 4C89EF   		movq	%r13, %rdi
 3011 02d7 E8000000 		call	_ZN8UnitTest11TestResults13OnTestFailureERKNS_11TestDetailsEPKc@PLT
 3011      00
 3012              	.LEHE85:
 3013              	.LEHB86:
 3014 02dc E8000000 		call	__cxa_end_catch@PLT
 3014      00
 3015              	.LEHE86:
 3016 02e1 E9000000 		jmp	.L176
 3016      00
 3017              	.L172:
 3018 02e6 E8000000 		call	__cxa_begin_catch@PLT
 3018      00
 3019              	.LEHB87:
 3020 02eb E8000000 		call	_ZN8UnitTest11CurrentTest7ResultsEv@PLT
 3020      00
 3021 02f0 4C8B28   		movq	(%rax), %r13
 3022 02f3 E8000000 		call	_ZN8UnitTest11CurrentTest7DetailsEv@PLT
 3022      00
 3023 02f8 488D6C24 		leaq	48(%rsp), %rbp
 3023      30
 3024 02fd 488B30   		movq	(%rax), %rsi
 3025 0300 BA800000 		movl	$128, %edx
 3025      00
 3026 0305 4889EF   		movq	%rbp, %rdi
 3027 0308 E8000000 		call	_ZN8UnitTest11TestDetailsC1ERKS0_i@PLT
 3027      00
 3028 030d 488D1500 		leaq	.LC6(%rip), %rdx
 3028      000000
 3029 0314 4889EE   		movq	%rbp, %rsi
 3030 0317 4C89EF   		movq	%r13, %rdi
 3031 031a E8000000 		call	_ZN8UnitTest11TestResults13OnTestFailureERKNS_11TestDetailsEPKc@PLT
 3031      00
 3032              	.LEHE87:
 3033              	.LEHB88:
 3034 031f E8000000 		call	__cxa_end_catch@PLT
 3034      00
 3035              	.LEHE88:
 3036 0324 E9000000 		jmp	.L173
 3036      00
 3037              	.L182:
 3038 0329 F30F1EFA 		endbr64
 3039 032d 4889C5   		movq	%rax, %rbp
 3040 0330 E8000000 		call	__cxa_end_catch@PLT
 3040      00
 3041 0335 4889EF   		movq	%rbp, %rdi
 3042              	.LEHB89:
 3043 0338 E8000000 		call	_Unwind_Resume@PLT
 3043      00
 3044              	.LEHE89:
 3045              	.L180:
 3046 033d F30F1EFA 		endbr64
 3047 0341 4889C5   		movq	%rax, %rbp
 3048 0344 E8000000 		call	__cxa_end_catch@PLT
 3048      00
 3049 0349 4889EF   		movq	%rbp, %rdi
 3050              	.LEHB90:
 3051 034c E8000000 		call	_Unwind_Resume@PLT
 3051      00
 3052              	.LEHE90:
 3053              		.cfi_endproc
 3054              	.LFE1334:
 3055              		.section	.gcc_except_table
 3056              		.align 4
 3057              	.LLSDAC1334:
 3058 0154 FF       		.byte	0xff
 3059 0155 9B       		.byte	0x9b
 3060 0156 25       		.uleb128 .LLSDATTC1334-.LLSDATTDC1334
 3061              	.LLSDATTDC1334:
 3062 0157 01       		.byte	0x1
 3063 0158 1C       		.uleb128 .LLSDACSEC1334-.LLSDACSBC1334
 3064              	.LLSDACSBC1334:
 3065 0159 05       		.uleb128 .LEHB85-.LCOLDB20
 3066 015a 2F       		.uleb128 .LEHE85-.LEHB85
 3067 015b 8101     		.uleb128 .L182-.LCOLDB20
 3068 015d 00       		.uleb128 0
 3069 015e 34       		.uleb128 .LEHB86-.LCOLDB20
 3070 015f 05       		.uleb128 .LEHE86-.LEHB86
 3071 0160 00       		.uleb128 0
 3072 0161 00       		.uleb128 0
 3073 0162 43       		.uleb128 .LEHB87-.LCOLDB20
 3074 0163 34       		.uleb128 .LEHE87-.LEHB87
 3075 0164 9501     		.uleb128 .L180-.LCOLDB20
 3076 0166 00       		.uleb128 0
 3077 0167 77       		.uleb128 .LEHB88-.LCOLDB20
 3078 0168 05       		.uleb128 .LEHE88-.LEHB88
 3079 0169 00       		.uleb128 0
 3080 016a 00       		.uleb128 0
 3081 016b 9001     		.uleb128 .LEHB89-.LCOLDB20
 3082 016d 05       		.uleb128 .LEHE89-.LEHB89
 3083 016e 00       		.uleb128 0
 3084 016f 00       		.uleb128 0
 3085 0170 A401     		.uleb128 .LEHB90-.LCOLDB20
 3086 0172 05       		.uleb128 .LEHE90-.LEHB90
 3087 0173 00       		.uleb128 0
 3088 0174 00       		.uleb128 0
 3089              	.LLSDACSEC1334:
 3090 0175 01       		.byte	0x1
 3091 0176 00       		.byte	0
 3092 0177 00       		.align 4
 3093 0178 00000000 		.long	0
 3094              	
 3095              	.LLSDATTC1334:
 3096              		.section	.text.unlikely
 3097              		.text
 3099              		.section	.text.unlikely
 3101              	.LCOLDE20:
 3102              		.text
 3103              	.LHOTE20:
 3104              		.section	.rodata.str1.1
 3105              	.LC21:
 3106 0069 3A303430 		.string	":040BE100..820022F7\n"
 3106      42453130 
 3106      302E2E38 
 3106      32303032 
 3106      3246370A 
 3107              		.section	.rodata.str1.8
 3108 0176 0000     		.align 8
 3109              	.LC22:
 3110 0178 556E6861 		.string	"Unhandled exception in CHECK_EQUAL(HEX_JUNK_DATA_BYTE, status)"
 3110      6E646C65 
 3110      64206578 
 3110      63657074 
 3110      696F6E20 
 3111              		.section	.text.unlikely
 3112 0351 90       		.align 2
 3113              	.LCOLDB23:
 3114              		.text
 3115              	.LHOTB23:
 3116              		.align 2
 3117 059a 660F1F44 		.p2align 4
 3117      0000
 3118              		.globl	_ZNK26TestHexIO_testJunkDataByte7RunImplEv
 3120              	_ZNK26TestHexIO_testJunkDataByte7RunImplEv:
 3121              	.LFB1338:
 3122              		.cfi_startproc
 3123              		.cfi_personality 0x9b,DW.ref.__gxx_personality_v0
 3124              		.cfi_lsda 0x1b,.LLSDA1338
 3125 05a0 F30F1EFA 		endbr64
 3126 05a4 4155     		pushq	%r13
 3127              		.cfi_def_cfa_offset 16
 3128              		.cfi_offset 13, -16
 3129 05a6 31C9     		xorl	%ecx, %ecx
 3130 05a8 31D2     		xorl	%edx, %edx
 3131 05aa BE000400 		movl	$1024, %esi
 3131      00
 3132 05af 4154     		pushq	%r12
 3133              		.cfi_def_cfa_offset 24
 3134              		.cfi_offset 12, -24
 3135 05b1 55       		pushq	%rbp
 3136              		.cfi_def_cfa_offset 32
 3137              		.cfi_offset 6, -32
 3138 05b2 4883EC60 		subq	$96, %rsp
 3139              		.cfi_def_cfa_offset 128
 3140 05b6 64488B04 		movq	%fs:40, %rax
 3140      25280000 
 3140      00
 3141 05bf 48894424 		movq	%rax, 88(%rsp)
 3141      58
 3142 05c4 31C0     		xorl	%eax, %eax
 3143 05c6 4C8D6424 		leaq	16(%rsp), %r12
 3143      10
 3144 05cb C7442408 		movl	$0, 8(%rsp)
 3144      00000000 
 3145 05d3 4C89E7   		movq	%r12, %rdi
 3146              	.LEHB91:
 3147 05d6 E8000000 		call	bufInitialise@PLT
 3147      00
 3148              	.LEHE91:
 3149 05db 89442404 		movl	%eax, 4(%rsp)
 3150              	.LEHB92:
 3151 05df E8000000 		call	_ZN8UnitTest11CurrentTest7DetailsEv@PLT
 3151      00
 3152 05e4 488D6C24 		leaq	48(%rsp), %rbp
 3152      30
 3153 05e9 488B30   		movq	(%rax), %rsi
 3154 05ec BA8D0000 		movl	$141, %edx
 3154      00
 3155 05f1 4889EF   		movq	%rbp, %rdi
 3156 05f4 E8000000 		call	_ZN8UnitTest11TestDetailsC1ERKS0_i@PLT
 3156      00
 3157 05f9 C744240C 		movl	$0, 12(%rsp)
 3157      00000000 
 3158 0601 E8000000 		call	_ZN8UnitTest11CurrentTest7ResultsEv@PLT
 3158      00
 3159 0606 488B38   		movq	(%rax), %rdi
 3160 0609 488D5424 		leaq	4(%rsp), %rdx
 3160      04
 3161 060e 488D7424 		leaq	12(%rsp), %rsi
 3161      0C
 3162 0613 4889E9   		movq	%rbp, %rcx
 3163 0616 E8000000 		call	_ZN8UnitTest10CheckEqualI12BufferStatusS1_EEvRNS_11TestResultsERKT_RKT0_RKNS_11TestDetailsE
 3163      00
 3164              	.LEHE92:
 3165              	.L188:
 3166 061b 4883EC08 		subq	$8, %rsp
 3167              		.cfi_def_cfa_offset 136
 3168 061f 4C89E2   		movq	%r12, %rdx
 3169 0622 31C9     		xorl	%ecx, %ecx
 3170 0624 31F6     		xorl	%esi, %esi
 3171 0626 6A00     		pushq	$0
 3172              		.cfi_def_cfa_offset 144
 3173 0628 488D3D00 		leaq	.LC21(%rip), %rdi
 3173      000000
 3174 062f 4C8D4C24 		leaq	19(%rsp), %r9
 3174      13
 3175 0634 4C8D4424 		leaq	24(%rsp), %r8
 3175      18
 3176              	.LEHB93:
 3177 0639 E8000000 		call	bufProcessLine@PLT
 3177      00
 3178              	.LEHE93:
 3179 063e 89442414 		movl	%eax, 20(%rsp)
 3180 0642 58       		popq	%rax
 3181              		.cfi_def_cfa_offset 136
 3182 0643 5A       		popq	%rdx
 3183              		.cfi_def_cfa_offset 128
 3184              	.LEHB94:
 3185 0644 E8000000 		call	_ZN8UnitTest11CurrentTest7DetailsEv@PLT
 3185      00
 3186 0649 488B30   		movq	(%rax), %rsi
 3187 064c BA8F0000 		movl	$143, %edx
 3187      00
 3188 0651 4889EF   		movq	%rbp, %rdi
 3189 0654 E8000000 		call	_ZN8UnitTest11TestDetailsC1ERKS0_i@PLT
 3189      00
 3190 0659 C744240C 		movl	$14, 12(%rsp)
 3190      0E000000 
 3191 0661 E8000000 		call	_ZN8UnitTest11CurrentTest7ResultsEv@PLT
 3191      00
 3192 0666 488B38   		movq	(%rax), %rdi
 3193 0669 488D5424 		leaq	4(%rsp), %rdx
 3193      04
 3194 066e 488D7424 		leaq	12(%rsp), %rsi
 3194      0C
 3195 0673 4889E9   		movq	%rbp, %rcx
 3196 0676 E8000000 		call	_ZN8UnitTest10CheckEqualI12BufferStatusS1_EEvRNS_11TestResultsERKT_RKT0_RKNS_11TestDetailsE
 3196      00
 3197              	.LEHE94:
 3198              	.L191:
 3199 067b 4C89E7   		movq	%r12, %rdi
 3200              	.LEHB95:
 3201 067e E8000000 		call	bufDestroy@PLT
 3201      00
 3202              	.LEHE95:
 3203 0683 488B4424 		movq	88(%rsp), %rax
 3203      58
 3204 0688 64482B04 		subq	%fs:40, %rax
 3204      25280000 
 3204      00
 3205 0691 750A     		jne	.L200
 3206 0693 4883C460 		addq	$96, %rsp
 3207              		.cfi_remember_state
 3208              		.cfi_def_cfa_offset 32
 3209 0697 5D       		popq	%rbp
 3210              		.cfi_def_cfa_offset 24
 3211 0698 415C     		popq	%r12
 3212              		.cfi_def_cfa_offset 16
 3213 069a 415D     		popq	%r13
 3214              		.cfi_def_cfa_offset 8
 3215 069c C3       		ret
 3216              	.L200:
 3217              		.cfi_restore_state
 3218 069d E8000000 		call	__stack_chk_fail@PLT
 3218      00
 3219              	.L196:
 3220 06a2 F30F1EFA 		endbr64
 3221 06a6 4889C7   		movq	%rax, %rdi
 3222 06a9 E9000000 		jmp	.L190
 3222      00
 3223              	.L194:
 3224 06ae F30F1EFA 		endbr64
 3225 06b2 4889C7   		movq	%rax, %rdi
 3226 06b5 E9000000 		jmp	.L187
 3226      00
 3227              		.section	.gcc_except_table
 3228              		.align 4
 3229              	.LLSDA1338:
 3230 017c FF       		.byte	0xff
 3231 017d 9B       		.byte	0x9b
 3232 017e 21       		.uleb128 .LLSDATT1338-.LLSDATTD1338
 3233              	.LLSDATTD1338:
 3234 017f 01       		.byte	0x1
 3235 0180 19       		.uleb128 .LLSDACSE1338-.LLSDACSB1338
 3236              	.LLSDACSB1338:
 3237 0181 36       		.uleb128 .LEHB91-.LFB1338
 3238 0182 05       		.uleb128 .LEHE91-.LEHB91
 3239 0183 00       		.uleb128 0
 3240 0184 00       		.uleb128 0
 3241 0185 3F       		.uleb128 .LEHB92-.LFB1338
 3242 0186 3C       		.uleb128 .LEHE92-.LEHB92
 3243 0187 8E02     		.uleb128 .L194-.LFB1338
 3244 0189 01       		.uleb128 0x1
 3245 018a 9901     		.uleb128 .LEHB93-.LFB1338
 3246 018c 05       		.uleb128 .LEHE93-.LEHB93
 3247 018d 00       		.uleb128 0
 3248 018e 00       		.uleb128 0
 3249 018f A401     		.uleb128 .LEHB94-.LFB1338
 3250 0191 37       		.uleb128 .LEHE94-.LEHB94
 3251 0192 8202     		.uleb128 .L196-.LFB1338
 3252 0194 01       		.uleb128 0x1
 3253 0195 DE01     		.uleb128 .LEHB95-.LFB1338
 3254 0197 05       		.uleb128 .LEHE95-.LEHB95
 3255 0198 00       		.uleb128 0
 3256 0199 00       		.uleb128 0
 3257              	.LLSDACSE1338:
 3258 019a 01       		.byte	0x1
 3259 019b 00       		.byte	0
 3260              		.align 4
 3261 019c 00000000 		.long	0
 3262              	
 3263              	.LLSDATT1338:
 3264              		.text
 3265              		.cfi_endproc
 3266              		.section	.text.unlikely
 3267              		.cfi_startproc
 3268              		.cfi_personality 0x9b,DW.ref.__gxx_personality_v0
 3269              		.cfi_lsda 0x1b,.LLSDAC1338
 3271              	_ZNK26TestHexIO_testJunkDataByte7RunImplEv.cold:
 3272              	.LFSB1338:
 3273              	.L190:
 3274              		.cfi_def_cfa_offset 128
 3275              		.cfi_offset 6, -32
 3276              		.cfi_offset 12, -24
 3277              		.cfi_offset 13, -16
 3278 0352 E8000000 		call	__cxa_begin_catch@PLT
 3278      00
 3279              	.LEHB96:
 3280 0357 E8000000 		call	_ZN8UnitTest11CurrentTest7ResultsEv@PLT
 3280      00
 3281 035c 4C8B28   		movq	(%rax), %r13
 3282 035f E8000000 		call	_ZN8UnitTest11CurrentTest7DetailsEv@PLT
 3282      00
 3283 0364 488B30   		movq	(%rax), %rsi
 3284 0367 BA8F0000 		movl	$143, %edx
 3284      00
 3285 036c 4889EF   		movq	%rbp, %rdi
 3286 036f E8000000 		call	_ZN8UnitTest11TestDetailsC1ERKS0_i@PLT
 3286      00
 3287 0374 488D1500 		leaq	.LC22(%rip), %rdx
 3287      000000
 3288 037b 4889EE   		movq	%rbp, %rsi
 3289 037e 4C89EF   		movq	%r13, %rdi
 3290 0381 E8000000 		call	_ZN8UnitTest11TestResults13OnTestFailureERKNS_11TestDetailsEPKc@PLT
 3290      00
 3291              	.LEHE96:
 3292              	.LEHB97:
 3293 0386 E8000000 		call	__cxa_end_catch@PLT
 3293      00
 3294              	.LEHE97:
 3295 038b E9000000 		jmp	.L191
 3295      00
 3296              	.L187:
 3297 0390 E8000000 		call	__cxa_begin_catch@PLT
 3297      00
 3298              	.LEHB98:
 3299 0395 E8000000 		call	_ZN8UnitTest11CurrentTest7ResultsEv@PLT
 3299      00
 3300 039a 4C8B28   		movq	(%rax), %r13
 3301 039d E8000000 		call	_ZN8UnitTest11CurrentTest7DetailsEv@PLT
 3301      00
 3302 03a2 488D6C24 		leaq	48(%rsp), %rbp
 3302      30
 3303 03a7 488B30   		movq	(%rax), %rsi
 3304 03aa BA8D0000 		movl	$141, %edx
 3304      00
 3305 03af 4889EF   		movq	%rbp, %rdi
 3306 03b2 E8000000 		call	_ZN8UnitTest11TestDetailsC1ERKS0_i@PLT
 3306      00
 3307 03b7 488D1500 		leaq	.LC6(%rip), %rdx
 3307      000000
 3308 03be 4889EE   		movq	%rbp, %rsi
 3309 03c1 4C89EF   		movq	%r13, %rdi
 3310 03c4 E8000000 		call	_ZN8UnitTest11TestResults13OnTestFailureERKNS_11TestDetailsEPKc@PLT
 3310      00
 3311              	.LEHE98:
 3312              	.LEHB99:
 3313 03c9 E8000000 		call	__cxa_end_catch@PLT
 3313      00
 3314              	.LEHE99:
 3315 03ce E9000000 		jmp	.L188
 3315      00
 3316              	.L197:
 3317 03d3 F30F1EFA 		endbr64
 3318 03d7 4889C5   		movq	%rax, %rbp
 3319 03da E8000000 		call	__cxa_end_catch@PLT
 3319      00
 3320 03df 4889EF   		movq	%rbp, %rdi
 3321              	.LEHB100:
 3322 03e2 E8000000 		call	_Unwind_Resume@PLT
 3322      00
 3323              	.LEHE100:
 3324              	.L195:
 3325 03e7 F30F1EFA 		endbr64
 3326 03eb 4889C5   		movq	%rax, %rbp
 3327 03ee E8000000 		call	__cxa_end_catch@PLT
 3327      00
 3328 03f3 4889EF   		movq	%rbp, %rdi
 3329              	.LEHB101:
 3330 03f6 E8000000 		call	_Unwind_Resume@PLT
 3330      00
 3331              	.LEHE101:
 3332              		.cfi_endproc
 3333              	.LFE1338:
 3334              		.section	.gcc_except_table
 3335              		.align 4
 3336              	.LLSDAC1338:
 3337 01a0 FF       		.byte	0xff
 3338 01a1 9B       		.byte	0x9b
 3339 01a2 25       		.uleb128 .LLSDATTC1338-.LLSDATTDC1338
 3340              	.LLSDATTDC1338:
 3341 01a3 01       		.byte	0x1
 3342 01a4 1C       		.uleb128 .LLSDACSEC1338-.LLSDACSBC1338
 3343              	.LLSDACSBC1338:
 3344 01a5 05       		.uleb128 .LEHB96-.LCOLDB23
 3345 01a6 2F       		.uleb128 .LEHE96-.LEHB96
 3346 01a7 8101     		.uleb128 .L197-.LCOLDB23
 3347 01a9 00       		.uleb128 0
 3348 01aa 34       		.uleb128 .LEHB97-.LCOLDB23
 3349 01ab 05       		.uleb128 .LEHE97-.LEHB97
 3350 01ac 00       		.uleb128 0
 3351 01ad 00       		.uleb128 0
 3352 01ae 43       		.uleb128 .LEHB98-.LCOLDB23
 3353 01af 34       		.uleb128 .LEHE98-.LEHB98
 3354 01b0 9501     		.uleb128 .L195-.LCOLDB23
 3355 01b2 00       		.uleb128 0
 3356 01b3 77       		.uleb128 .LEHB99-.LCOLDB23
 3357 01b4 05       		.uleb128 .LEHE99-.LEHB99
 3358 01b5 00       		.uleb128 0
 3359 01b6 00       		.uleb128 0
 3360 01b7 9001     		.uleb128 .LEHB100-.LCOLDB23
 3361 01b9 05       		.uleb128 .LEHE100-.LEHB100
 3362 01ba 00       		.uleb128 0
 3363 01bb 00       		.uleb128 0
 3364 01bc A401     		.uleb128 .LEHB101-.LCOLDB23
 3365 01be 05       		.uleb128 .LEHE101-.LEHB101
 3366 01bf 00       		.uleb128 0
 3367 01c0 00       		.uleb128 0
 3368              	.LLSDACSEC1338:
 3369 01c1 01       		.byte	0x1
 3370 01c2 00       		.byte	0
 3371 01c3 00       		.align 4
 3372 01c4 00000000 		.long	0
 3373              	
 3374              	.LLSDATTC1338:
 3375              		.section	.text.unlikely
 3376              		.text
 3378              		.section	.text.unlikely
 3380              	.LCOLDE23:
 3381              		.text
 3382              	.LHOTE23:
 3383              		.section	.rodata.str1.1
 3384              	.LC24:
 3385 007e 3A303430 		.string	":040BE10075820022..\n"
 3385      42453130 
 3385      30373538 
 3385      32303032 
 3385      322E2E0A 
 3386              		.section	.rodata.str1.8
 3387 01b7 00       		.align 8
 3388              	.LC25:
 3389 01b8 556E6861 		.string	"Unhandled exception in CHECK_EQUAL(HEX_JUNK_CHECKSUM, status)"
 3389      6E646C65 
 3389      64206578 
 3389      63657074 
 3389      696F6E20 
 3390              		.section	.text.unlikely
 3391 03fb 90       		.align 2
 3392              	.LCOLDB26:
 3393              		.text
 3394              	.LHOTB26:
 3395              		.align 2
 3396 06ba 660F1F44 		.p2align 4
 3396      0000
 3397              		.globl	_ZNK26TestHexIO_testJunkChecksum7RunImplEv
 3399              	_ZNK26TestHexIO_testJunkChecksum7RunImplEv:
 3400              	.LFB1342:
 3401              		.cfi_startproc
 3402              		.cfi_personality 0x9b,DW.ref.__gxx_personality_v0
 3403              		.cfi_lsda 0x1b,.LLSDA1342
 3404 06c0 F30F1EFA 		endbr64
 3405 06c4 4155     		pushq	%r13
 3406              		.cfi_def_cfa_offset 16
 3407              		.cfi_offset 13, -16
 3408 06c6 31C9     		xorl	%ecx, %ecx
 3409 06c8 31D2     		xorl	%edx, %edx
 3410 06ca BE000400 		movl	$1024, %esi
 3410      00
 3411 06cf 4154     		pushq	%r12
 3412              		.cfi_def_cfa_offset 24
 3413              		.cfi_offset 12, -24
 3414 06d1 55       		pushq	%rbp
 3415              		.cfi_def_cfa_offset 32
 3416              		.cfi_offset 6, -32
 3417 06d2 4883EC60 		subq	$96, %rsp
 3418              		.cfi_def_cfa_offset 128
 3419 06d6 64488B04 		movq	%fs:40, %rax
 3419      25280000 
 3419      00
 3420 06df 48894424 		movq	%rax, 88(%rsp)
 3420      58
 3421 06e4 31C0     		xorl	%eax, %eax
 3422 06e6 4C8D6424 		leaq	16(%rsp), %r12
 3422      10
 3423 06eb C7442408 		movl	$0, 8(%rsp)
 3423      00000000 
 3424 06f3 4C89E7   		movq	%r12, %rdi
 3425              	.LEHB102:
 3426 06f6 E8000000 		call	bufInitialise@PLT
 3426      00
 3427              	.LEHE102:
 3428 06fb 89442404 		movl	%eax, 4(%rsp)
 3429              	.LEHB103:
 3430 06ff E8000000 		call	_ZN8UnitTest11CurrentTest7DetailsEv@PLT
 3430      00
 3431 0704 488D6C24 		leaq	48(%rsp), %rbp
 3431      30
 3432 0709 488B30   		movq	(%rax), %rsi
 3433 070c BA9A0000 		movl	$154, %edx
 3433      00
 3434 0711 4889EF   		movq	%rbp, %rdi
 3435 0714 E8000000 		call	_ZN8UnitTest11TestDetailsC1ERKS0_i@PLT
 3435      00
 3436 0719 C744240C 		movl	$0, 12(%rsp)
 3436      00000000 
 3437 0721 E8000000 		call	_ZN8UnitTest11CurrentTest7ResultsEv@PLT
 3437      00
 3438 0726 488B38   		movq	(%rax), %rdi
 3439 0729 488D5424 		leaq	4(%rsp), %rdx
 3439      04
 3440 072e 488D7424 		leaq	12(%rsp), %rsi
 3440      0C
 3441 0733 4889E9   		movq	%rbp, %rcx
 3442 0736 E8000000 		call	_ZN8UnitTest10CheckEqualI12BufferStatusS1_EEvRNS_11TestResultsERKT_RKT0_RKNS_11TestDetailsE
 3442      00
 3443              	.LEHE103:
 3444              	.L203:
 3445 073b 4883EC08 		subq	$8, %rsp
 3446              		.cfi_def_cfa_offset 136
 3447 073f 4C89E2   		movq	%r12, %rdx
 3448 0742 31C9     		xorl	%ecx, %ecx
 3449 0744 31F6     		xorl	%esi, %esi
 3450 0746 6A00     		pushq	$0
 3451              		.cfi_def_cfa_offset 144
 3452 0748 488D3D00 		leaq	.LC24(%rip), %rdi
 3452      000000
 3453 074f 4C8D4C24 		leaq	19(%rsp), %r9
 3453      13
 3454 0754 4C8D4424 		leaq	24(%rsp), %r8
 3454      18
 3455              	.LEHB104:
 3456 0759 E8000000 		call	bufProcessLine@PLT
 3456      00
 3457              	.LEHE104:
 3458 075e 89442414 		movl	%eax, 20(%rsp)
 3459 0762 58       		popq	%rax
 3460              		.cfi_def_cfa_offset 136
 3461 0763 5A       		popq	%rdx
 3462              		.cfi_def_cfa_offset 128
 3463              	.LEHB105:
 3464 0764 E8000000 		call	_ZN8UnitTest11CurrentTest7DetailsEv@PLT
 3464      00
 3465 0769 488B30   		movq	(%rax), %rsi
 3466 076c BA9C0000 		movl	$156, %edx
 3466      00
 3467 0771 4889EF   		movq	%rbp, %rdi
 3468 0774 E8000000 		call	_ZN8UnitTest11TestDetailsC1ERKS0_i@PLT
 3468      00
 3469 0779 C744240C 		movl	$15, 12(%rsp)
 3469      0F000000 
 3470 0781 E8000000 		call	_ZN8UnitTest11CurrentTest7ResultsEv@PLT
 3470      00
 3471 0786 488B38   		movq	(%rax), %rdi
 3472 0789 488D5424 		leaq	4(%rsp), %rdx
 3472      04
 3473 078e 488D7424 		leaq	12(%rsp), %rsi
 3473      0C
 3474 0793 4889E9   		movq	%rbp, %rcx
 3475 0796 E8000000 		call	_ZN8UnitTest10CheckEqualI12BufferStatusS1_EEvRNS_11TestResultsERKT_RKT0_RKNS_11TestDetailsE
 3475      00
 3476              	.LEHE105:
 3477              	.L206:
 3478 079b 4C89E7   		movq	%r12, %rdi
 3479              	.LEHB106:
 3480 079e E8000000 		call	bufDestroy@PLT
 3480      00
 3481              	.LEHE106:
 3482 07a3 488B4424 		movq	88(%rsp), %rax
 3482      58
 3483 07a8 64482B04 		subq	%fs:40, %rax
 3483      25280000 
 3483      00
 3484 07b1 750A     		jne	.L215
 3485 07b3 4883C460 		addq	$96, %rsp
 3486              		.cfi_remember_state
 3487              		.cfi_def_cfa_offset 32
 3488 07b7 5D       		popq	%rbp
 3489              		.cfi_def_cfa_offset 24
 3490 07b8 415C     		popq	%r12
 3491              		.cfi_def_cfa_offset 16
 3492 07ba 415D     		popq	%r13
 3493              		.cfi_def_cfa_offset 8
 3494 07bc C3       		ret
 3495              	.L215:
 3496              		.cfi_restore_state
 3497 07bd E8000000 		call	__stack_chk_fail@PLT
 3497      00
 3498              	.L211:
 3499 07c2 F30F1EFA 		endbr64
 3500 07c6 4889C7   		movq	%rax, %rdi
 3501 07c9 E9000000 		jmp	.L205
 3501      00
 3502              	.L209:
 3503 07ce F30F1EFA 		endbr64
 3504 07d2 4889C7   		movq	%rax, %rdi
 3505 07d5 E9000000 		jmp	.L202
 3505      00
 3506              		.section	.gcc_except_table
 3507              		.align 4
 3508              	.LLSDA1342:
 3509 01c8 FF       		.byte	0xff
 3510 01c9 9B       		.byte	0x9b
 3511 01ca 21       		.uleb128 .LLSDATT1342-.LLSDATTD1342
 3512              	.LLSDATTD1342:
 3513 01cb 01       		.byte	0x1
 3514 01cc 19       		.uleb128 .LLSDACSE1342-.LLSDACSB1342
 3515              	.LLSDACSB1342:
 3516 01cd 36       		.uleb128 .LEHB102-.LFB1342
 3517 01ce 05       		.uleb128 .LEHE102-.LEHB102
 3518 01cf 00       		.uleb128 0
 3519 01d0 00       		.uleb128 0
 3520 01d1 3F       		.uleb128 .LEHB103-.LFB1342
 3521 01d2 3C       		.uleb128 .LEHE103-.LEHB103
 3522 01d3 8E02     		.uleb128 .L209-.LFB1342
 3523 01d5 01       		.uleb128 0x1
 3524 01d6 9901     		.uleb128 .LEHB104-.LFB1342
 3525 01d8 05       		.uleb128 .LEHE104-.LEHB104
 3526 01d9 00       		.uleb128 0
 3527 01da 00       		.uleb128 0
 3528 01db A401     		.uleb128 .LEHB105-.LFB1342
 3529 01dd 37       		.uleb128 .LEHE105-.LEHB105
 3530 01de 8202     		.uleb128 .L211-.LFB1342
 3531 01e0 01       		.uleb128 0x1
 3532 01e1 DE01     		.uleb128 .LEHB106-.LFB1342
 3533 01e3 05       		.uleb128 .LEHE106-.LEHB106
 3534 01e4 00       		.uleb128 0
 3535 01e5 00       		.uleb128 0
 3536              	.LLSDACSE1342:
 3537 01e6 01       		.byte	0x1
 3538 01e7 00       		.byte	0
 3539              		.align 4
 3540 01e8 00000000 		.long	0
 3541              	
 3542              	.LLSDATT1342:
 3543              		.text
 3544              		.cfi_endproc
 3545              		.section	.text.unlikely
 3546              		.cfi_startproc
 3547              		.cfi_personality 0x9b,DW.ref.__gxx_personality_v0
 3548              		.cfi_lsda 0x1b,.LLSDAC1342
 3550              	_ZNK26TestHexIO_testJunkChecksum7RunImplEv.cold:
 3551              	.LFSB1342:
 3552              	.L205:
 3553              		.cfi_def_cfa_offset 128
 3554              		.cfi_offset 6, -32
 3555              		.cfi_offset 12, -24
 3556              		.cfi_offset 13, -16
 3557 03fc E8000000 		call	__cxa_begin_catch@PLT
 3557      00
 3558              	.LEHB107:
 3559 0401 E8000000 		call	_ZN8UnitTest11CurrentTest7ResultsEv@PLT
 3559      00
 3560 0406 4C8B28   		movq	(%rax), %r13
 3561 0409 E8000000 		call	_ZN8UnitTest11CurrentTest7DetailsEv@PLT
 3561      00
 3562 040e 488B30   		movq	(%rax), %rsi
 3563 0411 BA9C0000 		movl	$156, %edx
 3563      00
 3564 0416 4889EF   		movq	%rbp, %rdi
 3565 0419 E8000000 		call	_ZN8UnitTest11TestDetailsC1ERKS0_i@PLT
 3565      00
 3566 041e 488D1500 		leaq	.LC25(%rip), %rdx
 3566      000000
 3567 0425 4889EE   		movq	%rbp, %rsi
 3568 0428 4C89EF   		movq	%r13, %rdi
 3569 042b E8000000 		call	_ZN8UnitTest11TestResults13OnTestFailureERKNS_11TestDetailsEPKc@PLT
 3569      00
 3570              	.LEHE107:
 3571              	.LEHB108:
 3572 0430 E8000000 		call	__cxa_end_catch@PLT
 3572      00
 3573              	.LEHE108:
 3574 0435 E9000000 		jmp	.L206
 3574      00
 3575              	.L202:
 3576 043a E8000000 		call	__cxa_begin_catch@PLT
 3576      00
 3577              	.LEHB109:
 3578 043f E8000000 		call	_ZN8UnitTest11CurrentTest7ResultsEv@PLT
 3578      00
 3579 0444 4C8B28   		movq	(%rax), %r13
 3580 0447 E8000000 		call	_ZN8UnitTest11CurrentTest7DetailsEv@PLT
 3580      00
 3581 044c 488D6C24 		leaq	48(%rsp), %rbp
 3581      30
 3582 0451 488B30   		movq	(%rax), %rsi
 3583 0454 BA9A0000 		movl	$154, %edx
 3583      00
 3584 0459 4889EF   		movq	%rbp, %rdi
 3585 045c E8000000 		call	_ZN8UnitTest11TestDetailsC1ERKS0_i@PLT
 3585      00
 3586 0461 488D1500 		leaq	.LC6(%rip), %rdx
 3586      000000
 3587 0468 4889EE   		movq	%rbp, %rsi
 3588 046b 4C89EF   		movq	%r13, %rdi
 3589 046e E8000000 		call	_ZN8UnitTest11TestResults13OnTestFailureERKNS_11TestDetailsEPKc@PLT
 3589      00
 3590              	.LEHE109:
 3591              	.LEHB110:
 3592 0473 E8000000 		call	__cxa_end_catch@PLT
 3592      00
 3593              	.LEHE110:
 3594 0478 E9000000 		jmp	.L203
 3594      00
 3595              	.L212:
 3596 047d F30F1EFA 		endbr64
 3597 0481 4889C5   		movq	%rax, %rbp
 3598 0484 E8000000 		call	__cxa_end_catch@PLT
 3598      00
 3599 0489 4889EF   		movq	%rbp, %rdi
 3600              	.LEHB111:
 3601 048c E8000000 		call	_Unwind_Resume@PLT
 3601      00
 3602              	.LEHE111:
 3603              	.L210:
 3604 0491 F30F1EFA 		endbr64
 3605 0495 4889C5   		movq	%rax, %rbp
 3606 0498 E8000000 		call	__cxa_end_catch@PLT
 3606      00
 3607 049d 4889EF   		movq	%rbp, %rdi
 3608              	.LEHB112:
 3609 04a0 E8000000 		call	_Unwind_Resume@PLT
 3609      00
 3610              	.LEHE112:
 3611              		.cfi_endproc
 3612              	.LFE1342:
 3613              		.section	.gcc_except_table
 3614              		.align 4
 3615              	.LLSDAC1342:
 3616 01ec FF       		.byte	0xff
 3617 01ed 9B       		.byte	0x9b
 3618 01ee 25       		.uleb128 .LLSDATTC1342-.LLSDATTDC1342
 3619              	.LLSDATTDC1342:
 3620 01ef 01       		.byte	0x1
 3621 01f0 1C       		.uleb128 .LLSDACSEC1342-.LLSDACSBC1342
 3622              	.LLSDACSBC1342:
 3623 01f1 05       		.uleb128 .LEHB107-.LCOLDB26
 3624 01f2 2F       		.uleb128 .LEHE107-.LEHB107
 3625 01f3 8101     		.uleb128 .L212-.LCOLDB26
 3626 01f5 00       		.uleb128 0
 3627 01f6 34       		.uleb128 .LEHB108-.LCOLDB26
 3628 01f7 05       		.uleb128 .LEHE108-.LEHB108
 3629 01f8 00       		.uleb128 0
 3630 01f9 00       		.uleb128 0
 3631 01fa 43       		.uleb128 .LEHB109-.LCOLDB26
 3632 01fb 34       		.uleb128 .LEHE109-.LEHB109
 3633 01fc 9501     		.uleb128 .L210-.LCOLDB26
 3634 01fe 00       		.uleb128 0
 3635 01ff 77       		.uleb128 .LEHB110-.LCOLDB26
 3636 0200 05       		.uleb128 .LEHE110-.LEHB110
 3637 0201 00       		.uleb128 0
 3638 0202 00       		.uleb128 0
 3639 0203 9001     		.uleb128 .LEHB111-.LCOLDB26
 3640 0205 05       		.uleb128 .LEHE111-.LEHB111
 3641 0206 00       		.uleb128 0
 3642 0207 00       		.uleb128 0
 3643 0208 A401     		.uleb128 .LEHB112-.LCOLDB26
 3644 020a 05       		.uleb128 .LEHE112-.LEHB112
 3645 020b 00       		.uleb128 0
 3646 020c 00       		.uleb128 0
 3647              	.LLSDACSEC1342:
 3648 020d 01       		.byte	0x1
 3649 020e 00       		.byte	0
 3650 020f 00       		.align 4
 3651 0210 00000000 		.long	0
 3652              	
 3653              	.LLSDATTC1342:
 3654              		.section	.text.unlikely
 3655              		.text
 3657              		.section	.text.unlikely
 3659              	.LCOLDE26:
 3660              		.text
 3661              	.LHOTE26:
 3662              		.section	.rodata.str1.1
 3663              	.LC27:
 3664 0093 3A303430 		.string	":040BE10075820022F8\n"
 3664      42453130 
 3664      30373538 
 3664      32303032 
 3664      3246380A 
 3665              		.section	.rodata.str1.8
 3666 01f6 0000     		.align 8
 3667              	.LC28:
 3668 01f8 556E6861 		.string	"Unhandled exception in CHECK_EQUAL(HEX_BAD_CHECKSUM, status)"
 3668      6E646C65 
 3668      64206578 
 3668      63657074 
 3668      696F6E20 
 3669              		.section	.text.unlikely
 3670 04a5 90       		.align 2
 3671              	.LCOLDB29:
 3672              		.text
 3673              	.LHOTB29:
 3674              		.align 2
 3675 07da 660F1F44 		.p2align 4
 3675      0000
 3676              		.globl	_ZNK25TestHexIO_testBadChecksum7RunImplEv
 3678              	_ZNK25TestHexIO_testBadChecksum7RunImplEv:
 3679              	.LFB1346:
 3680              		.cfi_startproc
 3681              		.cfi_personality 0x9b,DW.ref.__gxx_personality_v0
 3682              		.cfi_lsda 0x1b,.LLSDA1346
 3683 07e0 F30F1EFA 		endbr64
 3684 07e4 4155     		pushq	%r13
 3685              		.cfi_def_cfa_offset 16
 3686              		.cfi_offset 13, -16
 3687 07e6 31C9     		xorl	%ecx, %ecx
 3688 07e8 31D2     		xorl	%edx, %edx
 3689 07ea BE000400 		movl	$1024, %esi
 3689      00
 3690 07ef 4154     		pushq	%r12
 3691              		.cfi_def_cfa_offset 24
 3692              		.cfi_offset 12, -24
 3693 07f1 55       		pushq	%rbp
 3694              		.cfi_def_cfa_offset 32
 3695              		.cfi_offset 6, -32
 3696 07f2 4883EC60 		subq	$96, %rsp
 3697              		.cfi_def_cfa_offset 128
 3698 07f6 64488B04 		movq	%fs:40, %rax
 3698      25280000 
 3698      00
 3699 07ff 48894424 		movq	%rax, 88(%rsp)
 3699      58
 3700 0804 31C0     		xorl	%eax, %eax
 3701 0806 4C8D6424 		leaq	16(%rsp), %r12
 3701      10
 3702 080b C7442408 		movl	$0, 8(%rsp)
 3702      00000000 
 3703 0813 4C89E7   		movq	%r12, %rdi
 3704              	.LEHB113:
 3705 0816 E8000000 		call	bufInitialise@PLT
 3705      00
 3706              	.LEHE113:
 3707 081b 89442404 		movl	%eax, 4(%rsp)
 3708              	.LEHB114:
 3709 081f E8000000 		call	_ZN8UnitTest11CurrentTest7DetailsEv@PLT
 3709      00
 3710 0824 488D6C24 		leaq	48(%rsp), %rbp
 3710      30
 3711 0829 488B30   		movq	(%rax), %rsi
 3712 082c BAA70000 		movl	$167, %edx
 3712      00
 3713 0831 4889EF   		movq	%rbp, %rdi
 3714 0834 E8000000 		call	_ZN8UnitTest11TestDetailsC1ERKS0_i@PLT
 3714      00
 3715 0839 C744240C 		movl	$0, 12(%rsp)
 3715      00000000 
 3716 0841 E8000000 		call	_ZN8UnitTest11CurrentTest7ResultsEv@PLT
 3716      00
 3717 0846 488B38   		movq	(%rax), %rdi
 3718 0849 488D5424 		leaq	4(%rsp), %rdx
 3718      04
 3719 084e 488D7424 		leaq	12(%rsp), %rsi
 3719      0C
 3720 0853 4889E9   		movq	%rbp, %rcx
 3721 0856 E8000000 		call	_ZN8UnitTest10CheckEqualI12BufferStatusS1_EEvRNS_11TestResultsERKT_RKT0_RKNS_11TestDetailsE
 3721      00
 3722              	.LEHE114:
 3723              	.L218:
 3724 085b 4883EC08 		subq	$8, %rsp
 3725              		.cfi_def_cfa_offset 136
 3726 085f 4C89E2   		movq	%r12, %rdx
 3727 0862 31C9     		xorl	%ecx, %ecx
 3728 0864 31F6     		xorl	%esi, %esi
 3729 0866 6A00     		pushq	$0
 3730              		.cfi_def_cfa_offset 144
 3731 0868 488D3D00 		leaq	.LC27(%rip), %rdi
 3731      000000
 3732 086f 4C8D4C24 		leaq	19(%rsp), %r9
 3732      13
 3733 0874 4C8D4424 		leaq	24(%rsp), %r8
 3733      18
 3734              	.LEHB115:
 3735 0879 E8000000 		call	bufProcessLine@PLT
 3735      00
 3736              	.LEHE115:
 3737 087e 89442414 		movl	%eax, 20(%rsp)
 3738 0882 58       		popq	%rax
 3739              		.cfi_def_cfa_offset 136
 3740 0883 5A       		popq	%rdx
 3741              		.cfi_def_cfa_offset 128
 3742              	.LEHB116:
 3743 0884 E8000000 		call	_ZN8UnitTest11CurrentTest7DetailsEv@PLT
 3743      00
 3744 0889 488B30   		movq	(%rax), %rsi
 3745 088c BAA90000 		movl	$169, %edx
 3745      00
 3746 0891 4889EF   		movq	%rbp, %rdi
 3747 0894 E8000000 		call	_ZN8UnitTest11TestDetailsC1ERKS0_i@PLT
 3747      00
 3748 0899 C744240C 		movl	$16, 12(%rsp)
 3748      10000000 
 3749 08a1 E8000000 		call	_ZN8UnitTest11CurrentTest7ResultsEv@PLT
 3749      00
 3750 08a6 488B38   		movq	(%rax), %rdi
 3751 08a9 488D5424 		leaq	4(%rsp), %rdx
 3751      04
 3752 08ae 488D7424 		leaq	12(%rsp), %rsi
 3752      0C
 3753 08b3 4889E9   		movq	%rbp, %rcx
 3754 08b6 E8000000 		call	_ZN8UnitTest10CheckEqualI12BufferStatusS1_EEvRNS_11TestResultsERKT_RKT0_RKNS_11TestDetailsE
 3754      00
 3755              	.LEHE116:
 3756              	.L221:
 3757 08bb 4C89E7   		movq	%r12, %rdi
 3758              	.LEHB117:
 3759 08be E8000000 		call	bufDestroy@PLT
 3759      00
 3760              	.LEHE117:
 3761 08c3 488B4424 		movq	88(%rsp), %rax
 3761      58
 3762 08c8 64482B04 		subq	%fs:40, %rax
 3762      25280000 
 3762      00
 3763 08d1 750A     		jne	.L230
 3764 08d3 4883C460 		addq	$96, %rsp
 3765              		.cfi_remember_state
 3766              		.cfi_def_cfa_offset 32
 3767 08d7 5D       		popq	%rbp
 3768              		.cfi_def_cfa_offset 24
 3769 08d8 415C     		popq	%r12
 3770              		.cfi_def_cfa_offset 16
 3771 08da 415D     		popq	%r13
 3772              		.cfi_def_cfa_offset 8
 3773 08dc C3       		ret
 3774              	.L230:
 3775              		.cfi_restore_state
 3776 08dd E8000000 		call	__stack_chk_fail@PLT
 3776      00
 3777              	.L226:
 3778 08e2 F30F1EFA 		endbr64
 3779 08e6 4889C7   		movq	%rax, %rdi
 3780 08e9 E9000000 		jmp	.L220
 3780      00
 3781              	.L224:
 3782 08ee F30F1EFA 		endbr64
 3783 08f2 4889C7   		movq	%rax, %rdi
 3784 08f5 E9000000 		jmp	.L217
 3784      00
 3785              		.section	.gcc_except_table
 3786              		.align 4
 3787              	.LLSDA1346:
 3788 0214 FF       		.byte	0xff
 3789 0215 9B       		.byte	0x9b
 3790 0216 21       		.uleb128 .LLSDATT1346-.LLSDATTD1346
 3791              	.LLSDATTD1346:
 3792 0217 01       		.byte	0x1
 3793 0218 19       		.uleb128 .LLSDACSE1346-.LLSDACSB1346
 3794              	.LLSDACSB1346:
 3795 0219 36       		.uleb128 .LEHB113-.LFB1346
 3796 021a 05       		.uleb128 .LEHE113-.LEHB113
 3797 021b 00       		.uleb128 0
 3798 021c 00       		.uleb128 0
 3799 021d 3F       		.uleb128 .LEHB114-.LFB1346
 3800 021e 3C       		.uleb128 .LEHE114-.LEHB114
 3801 021f 8E02     		.uleb128 .L224-.LFB1346
 3802 0221 01       		.uleb128 0x1
 3803 0222 9901     		.uleb128 .LEHB115-.LFB1346
 3804 0224 05       		.uleb128 .LEHE115-.LEHB115
 3805 0225 00       		.uleb128 0
 3806 0226 00       		.uleb128 0
 3807 0227 A401     		.uleb128 .LEHB116-.LFB1346
 3808 0229 37       		.uleb128 .LEHE116-.LEHB116
 3809 022a 8202     		.uleb128 .L226-.LFB1346
 3810 022c 01       		.uleb128 0x1
 3811 022d DE01     		.uleb128 .LEHB117-.LFB1346
 3812 022f 05       		.uleb128 .LEHE117-.LEHB117
 3813 0230 00       		.uleb128 0
 3814 0231 00       		.uleb128 0
 3815              	.LLSDACSE1346:
 3816 0232 01       		.byte	0x1
 3817 0233 00       		.byte	0
 3818              		.align 4
 3819 0234 00000000 		.long	0
 3820              	
 3821              	.LLSDATT1346:
 3822              		.text
 3823              		.cfi_endproc
 3824              		.section	.text.unlikely
 3825              		.cfi_startproc
 3826              		.cfi_personality 0x9b,DW.ref.__gxx_personality_v0
 3827              		.cfi_lsda 0x1b,.LLSDAC1346
 3829              	_ZNK25TestHexIO_testBadChecksum7RunImplEv.cold:
 3830              	.LFSB1346:
 3831              	.L220:
 3832              		.cfi_def_cfa_offset 128
 3833              		.cfi_offset 6, -32
 3834              		.cfi_offset 12, -24
 3835              		.cfi_offset 13, -16
 3836 04a6 E8000000 		call	__cxa_begin_catch@PLT
 3836      00
 3837              	.LEHB118:
 3838 04ab E8000000 		call	_ZN8UnitTest11CurrentTest7ResultsEv@PLT
 3838      00
 3839 04b0 4C8B28   		movq	(%rax), %r13
 3840 04b3 E8000000 		call	_ZN8UnitTest11CurrentTest7DetailsEv@PLT
 3840      00
 3841 04b8 488B30   		movq	(%rax), %rsi
 3842 04bb BAA90000 		movl	$169, %edx
 3842      00
 3843 04c0 4889EF   		movq	%rbp, %rdi
 3844 04c3 E8000000 		call	_ZN8UnitTest11TestDetailsC1ERKS0_i@PLT
 3844      00
 3845 04c8 488D1500 		leaq	.LC28(%rip), %rdx
 3845      000000
 3846 04cf 4889EE   		movq	%rbp, %rsi
 3847 04d2 4C89EF   		movq	%r13, %rdi
 3848 04d5 E8000000 		call	_ZN8UnitTest11TestResults13OnTestFailureERKNS_11TestDetailsEPKc@PLT
 3848      00
 3849              	.LEHE118:
 3850              	.LEHB119:
 3851 04da E8000000 		call	__cxa_end_catch@PLT
 3851      00
 3852              	.LEHE119:
 3853 04df E9000000 		jmp	.L221
 3853      00
 3854              	.L217:
 3855 04e4 E8000000 		call	__cxa_begin_catch@PLT
 3855      00
 3856              	.LEHB120:
 3857 04e9 E8000000 		call	_ZN8UnitTest11CurrentTest7ResultsEv@PLT
 3857      00
 3858 04ee 4C8B28   		movq	(%rax), %r13
 3859 04f1 E8000000 		call	_ZN8UnitTest11CurrentTest7DetailsEv@PLT
 3859      00
 3860 04f6 488D6C24 		leaq	48(%rsp), %rbp
 3860      30
 3861 04fb 488B30   		movq	(%rax), %rsi
 3862 04fe BAA70000 		movl	$167, %edx
 3862      00
 3863 0503 4889EF   		movq	%rbp, %rdi
 3864 0506 E8000000 		call	_ZN8UnitTest11TestDetailsC1ERKS0_i@PLT
 3864      00
 3865 050b 488D1500 		leaq	.LC6(%rip), %rdx
 3865      000000
 3866 0512 4889EE   		movq	%rbp, %rsi
 3867 0515 4C89EF   		movq	%r13, %rdi
 3868 0518 E8000000 		call	_ZN8UnitTest11TestResults13OnTestFailureERKNS_11TestDetailsEPKc@PLT
 3868      00
 3869              	.LEHE120:
 3870              	.LEHB121:
 3871 051d E8000000 		call	__cxa_end_catch@PLT
 3871      00
 3872              	.LEHE121:
 3873 0522 E9000000 		jmp	.L218
 3873      00
 3874              	.L227:
 3875 0527 F30F1EFA 		endbr64
 3876 052b 4889C5   		movq	%rax, %rbp
 3877 052e E8000000 		call	__cxa_end_catch@PLT
 3877      00
 3878 0533 4889EF   		movq	%rbp, %rdi
 3879              	.LEHB122:
 3880 0536 E8000000 		call	_Unwind_Resume@PLT
 3880      00
 3881              	.LEHE122:
 3882              	.L225:
 3883 053b F30F1EFA 		endbr64
 3884 053f 4889C5   		movq	%rax, %rbp
 3885 0542 E8000000 		call	__cxa_end_catch@PLT
 3885      00
 3886 0547 4889EF   		movq	%rbp, %rdi
 3887              	.LEHB123:
 3888 054a E8000000 		call	_Unwind_Resume@PLT
 3888      00
 3889              	.LEHE123:
 3890              		.cfi_endproc
 3891              	.LFE1346:
 3892              		.section	.gcc_except_table
 3893              		.align 4
 3894              	.LLSDAC1346:
 3895 0238 FF       		.byte	0xff
 3896 0239 9B       		.byte	0x9b
 3897 023a 25       		.uleb128 .LLSDATTC1346-.LLSDATTDC1346
 3898              	.LLSDATTDC1346:
 3899 023b 01       		.byte	0x1
 3900 023c 1C       		.uleb128 .LLSDACSEC1346-.LLSDACSBC1346
 3901              	.LLSDACSBC1346:
 3902 023d 05       		.uleb128 .LEHB118-.LCOLDB29
 3903 023e 2F       		.uleb128 .LEHE118-.LEHB118
 3904 023f 8101     		.uleb128 .L227-.LCOLDB29
 3905 0241 00       		.uleb128 0
 3906 0242 34       		.uleb128 .LEHB119-.LCOLDB29
 3907 0243 05       		.uleb128 .LEHE119-.LEHB119
 3908 0244 00       		.uleb128 0
 3909 0245 00       		.uleb128 0
 3910 0246 43       		.uleb128 .LEHB120-.LCOLDB29
 3911 0247 34       		.uleb128 .LEHE120-.LEHB120
 3912 0248 9501     		.uleb128 .L225-.LCOLDB29
 3913 024a 00       		.uleb128 0
 3914 024b 77       		.uleb128 .LEHB121-.LCOLDB29
 3915 024c 05       		.uleb128 .LEHE121-.LEHB121
 3916 024d 00       		.uleb128 0
 3917 024e 00       		.uleb128 0
 3918 024f 9001     		.uleb128 .LEHB122-.LCOLDB29
 3919 0251 05       		.uleb128 .LEHE122-.LEHB122
 3920 0252 00       		.uleb128 0
 3921 0253 00       		.uleb128 0
 3922 0254 A401     		.uleb128 .LEHB123-.LCOLDB29
 3923 0256 05       		.uleb128 .LEHE123-.LEHB123
 3924 0257 00       		.uleb128 0
 3925 0258 00       		.uleb128 0
 3926              	.LLSDACSEC1346:
 3927 0259 01       		.byte	0x1
 3928 025a 00       		.byte	0
 3929 025b 00       		.align 4
 3930 025c 00000000 		.long	0
 3931              	
 3932              	.LLSDATTC1346:
 3933              		.section	.text.unlikely
 3934              		.text
 3936              		.section	.text.unlikely
 3938              	.LCOLDE29:
 3939              		.text
 3940              	.LHOTE29:
 3941              		.section	.rodata.str1.1
 3942              	.LC30:
 3943 00a8 3A303430 		.string	":040BE10075820022F7 \n"
 3943      42453130 
 3943      30373538 
 3943      32303032 
 3943      32463720 
 3944              		.section	.rodata.str1.8
 3945 0235 000000   		.align 8
 3946              	.LC31:
 3947 0238 556E6861 		.string	"Unhandled exception in CHECK_EQUAL(HEX_CORRUPT_LINE, status)"
 3947      6E646C65 
 3947      64206578 
 3947      63657074 
 3947      696F6E20 
 3948              		.section	.text.unlikely
 3949 054f 90       		.align 2
 3950              	.LCOLDB32:
 3951              		.text
 3952              	.LHOTB32:
 3953              		.align 2
 3954 08fa 660F1F44 		.p2align 4
 3954      0000
 3955              		.globl	_ZNK25TestHexIO_testCorruptLine7RunImplEv
 3957              	_ZNK25TestHexIO_testCorruptLine7RunImplEv:
 3958              	.LFB1350:
 3959              		.cfi_startproc
 3960              		.cfi_personality 0x9b,DW.ref.__gxx_personality_v0
 3961              		.cfi_lsda 0x1b,.LLSDA1350
 3962 0900 F30F1EFA 		endbr64
 3963 0904 4155     		pushq	%r13
 3964              		.cfi_def_cfa_offset 16
 3965              		.cfi_offset 13, -16
 3966 0906 31C9     		xorl	%ecx, %ecx
 3967 0908 31D2     		xorl	%edx, %edx
 3968 090a BE000400 		movl	$1024, %esi
 3968      00
 3969 090f 4154     		pushq	%r12
 3970              		.cfi_def_cfa_offset 24
 3971              		.cfi_offset 12, -24
 3972 0911 55       		pushq	%rbp
 3973              		.cfi_def_cfa_offset 32
 3974              		.cfi_offset 6, -32
 3975 0912 4883EC60 		subq	$96, %rsp
 3976              		.cfi_def_cfa_offset 128
 3977 0916 64488B04 		movq	%fs:40, %rax
 3977      25280000 
 3977      00
 3978 091f 48894424 		movq	%rax, 88(%rsp)
 3978      58
 3979 0924 31C0     		xorl	%eax, %eax
 3980 0926 4C8D6424 		leaq	16(%rsp), %r12
 3980      10
 3981 092b C7442408 		movl	$0, 8(%rsp)
 3981      00000000 
 3982 0933 4C89E7   		movq	%r12, %rdi
 3983              	.LEHB124:
 3984 0936 E8000000 		call	bufInitialise@PLT
 3984      00
 3985              	.LEHE124:
 3986 093b 89442404 		movl	%eax, 4(%rsp)
 3987              	.LEHB125:
 3988 093f E8000000 		call	_ZN8UnitTest11CurrentTest7DetailsEv@PLT
 3988      00
 3989 0944 488D6C24 		leaq	48(%rsp), %rbp
 3989      30
 3990 0949 488B30   		movq	(%rax), %rsi
 3991 094c BAB40000 		movl	$180, %edx
 3991      00
 3992 0951 4889EF   		movq	%rbp, %rdi
 3993 0954 E8000000 		call	_ZN8UnitTest11TestDetailsC1ERKS0_i@PLT
 3993      00
 3994 0959 C744240C 		movl	$0, 12(%rsp)
 3994      00000000 
 3995 0961 E8000000 		call	_ZN8UnitTest11CurrentTest7ResultsEv@PLT
 3995      00
 3996 0966 488B38   		movq	(%rax), %rdi
 3997 0969 488D5424 		leaq	4(%rsp), %rdx
 3997      04
 3998 096e 488D7424 		leaq	12(%rsp), %rsi
 3998      0C
 3999 0973 4889E9   		movq	%rbp, %rcx
 4000 0976 E8000000 		call	_ZN8UnitTest10CheckEqualI12BufferStatusS1_EEvRNS_11TestResultsERKT_RKT0_RKNS_11TestDetailsE
 4000      00
 4001              	.LEHE125:
 4002              	.L233:
 4003 097b 4883EC08 		subq	$8, %rsp
 4004              		.cfi_def_cfa_offset 136
 4005 097f 4C89E2   		movq	%r12, %rdx
 4006 0982 31C9     		xorl	%ecx, %ecx
 4007 0984 31F6     		xorl	%esi, %esi
 4008 0986 6A00     		pushq	$0
 4009              		.cfi_def_cfa_offset 144
 4010 0988 488D3D00 		leaq	.LC30(%rip), %rdi
 4010      000000
 4011 098f 4C8D4C24 		leaq	19(%rsp), %r9
 4011      13
 4012 0994 4C8D4424 		leaq	24(%rsp), %r8
 4012      18
 4013              	.LEHB126:
 4014 0999 E8000000 		call	bufProcessLine@PLT
 4014      00
 4015              	.LEHE126:
 4016 099e 89442414 		movl	%eax, 20(%rsp)
 4017 09a2 58       		popq	%rax
 4018              		.cfi_def_cfa_offset 136
 4019 09a3 5A       		popq	%rdx
 4020              		.cfi_def_cfa_offset 128
 4021              	.LEHB127:
 4022 09a4 E8000000 		call	_ZN8UnitTest11CurrentTest7DetailsEv@PLT
 4022      00
 4023 09a9 488B30   		movq	(%rax), %rsi
 4024 09ac BAB60000 		movl	$182, %edx
 4024      00
 4025 09b1 4889EF   		movq	%rbp, %rdi
 4026 09b4 E8000000 		call	_ZN8UnitTest11TestDetailsC1ERKS0_i@PLT
 4026      00
 4027 09b9 C744240C 		movl	$17, 12(%rsp)
 4027      11000000 
 4028 09c1 E8000000 		call	_ZN8UnitTest11CurrentTest7ResultsEv@PLT
 4028      00
 4029 09c6 488B38   		movq	(%rax), %rdi
 4030 09c9 488D5424 		leaq	4(%rsp), %rdx
 4030      04
 4031 09ce 488D7424 		leaq	12(%rsp), %rsi
 4031      0C
 4032 09d3 4889E9   		movq	%rbp, %rcx
 4033 09d6 E8000000 		call	_ZN8UnitTest10CheckEqualI12BufferStatusS1_EEvRNS_11TestResultsERKT_RKT0_RKNS_11TestDetailsE
 4033      00
 4034              	.LEHE127:
 4035              	.L236:
 4036 09db 4C89E7   		movq	%r12, %rdi
 4037              	.LEHB128:
 4038 09de E8000000 		call	bufDestroy@PLT
 4038      00
 4039              	.LEHE128:
 4040 09e3 488B4424 		movq	88(%rsp), %rax
 4040      58
 4041 09e8 64482B04 		subq	%fs:40, %rax
 4041      25280000 
 4041      00
 4042 09f1 750A     		jne	.L245
 4043 09f3 4883C460 		addq	$96, %rsp
 4044              		.cfi_remember_state
 4045              		.cfi_def_cfa_offset 32
 4046 09f7 5D       		popq	%rbp
 4047              		.cfi_def_cfa_offset 24
 4048 09f8 415C     		popq	%r12
 4049              		.cfi_def_cfa_offset 16
 4050 09fa 415D     		popq	%r13
 4051              		.cfi_def_cfa_offset 8
 4052 09fc C3       		ret
 4053              	.L245:
 4054              		.cfi_restore_state
 4055 09fd E8000000 		call	__stack_chk_fail@PLT
 4055      00
 4056              	.L241:
 4057 0a02 F30F1EFA 		endbr64
 4058 0a06 4889C7   		movq	%rax, %rdi
 4059 0a09 E9000000 		jmp	.L235
 4059      00
 4060              	.L239:
 4061 0a0e F30F1EFA 		endbr64
 4062 0a12 4889C7   		movq	%rax, %rdi
 4063 0a15 E9000000 		jmp	.L232
 4063      00
 4064              		.section	.gcc_except_table
 4065              		.align 4
 4066              	.LLSDA1350:
 4067 0260 FF       		.byte	0xff
 4068 0261 9B       		.byte	0x9b
 4069 0262 21       		.uleb128 .LLSDATT1350-.LLSDATTD1350
 4070              	.LLSDATTD1350:
 4071 0263 01       		.byte	0x1
 4072 0264 19       		.uleb128 .LLSDACSE1350-.LLSDACSB1350
 4073              	.LLSDACSB1350:
 4074 0265 36       		.uleb128 .LEHB124-.LFB1350
 4075 0266 05       		.uleb128 .LEHE124-.LEHB124
 4076 0267 00       		.uleb128 0
 4077 0268 00       		.uleb128 0
 4078 0269 3F       		.uleb128 .LEHB125-.LFB1350
 4079 026a 3C       		.uleb128 .LEHE125-.LEHB125
 4080 026b 8E02     		.uleb128 .L239-.LFB1350
 4081 026d 01       		.uleb128 0x1
 4082 026e 9901     		.uleb128 .LEHB126-.LFB1350
 4083 0270 05       		.uleb128 .LEHE126-.LEHB126
 4084 0271 00       		.uleb128 0
 4085 0272 00       		.uleb128 0
 4086 0273 A401     		.uleb128 .LEHB127-.LFB1350
 4087 0275 37       		.uleb128 .LEHE127-.LEHB127
 4088 0276 8202     		.uleb128 .L241-.LFB1350
 4089 0278 01       		.uleb128 0x1
 4090 0279 DE01     		.uleb128 .LEHB128-.LFB1350
 4091 027b 05       		.uleb128 .LEHE128-.LEHB128
 4092 027c 00       		.uleb128 0
 4093 027d 00       		.uleb128 0
 4094              	.LLSDACSE1350:
 4095 027e 01       		.byte	0x1
 4096 027f 00       		.byte	0
 4097              		.align 4
 4098 0280 00000000 		.long	0
 4099              	
 4100              	.LLSDATT1350:
 4101              		.text
 4102              		.cfi_endproc
 4103              		.section	.text.unlikely
 4104              		.cfi_startproc
 4105              		.cfi_personality 0x9b,DW.ref.__gxx_personality_v0
 4106              		.cfi_lsda 0x1b,.LLSDAC1350
 4108              	_ZNK25TestHexIO_testCorruptLine7RunImplEv.cold:
 4109              	.LFSB1350:
 4110              	.L235:
 4111              		.cfi_def_cfa_offset 128
 4112              		.cfi_offset 6, -32
 4113              		.cfi_offset 12, -24
 4114              		.cfi_offset 13, -16
 4115 0550 E8000000 		call	__cxa_begin_catch@PLT
 4115      00
 4116              	.LEHB129:
 4117 0555 E8000000 		call	_ZN8UnitTest11CurrentTest7ResultsEv@PLT
 4117      00
 4118 055a 4C8B28   		movq	(%rax), %r13
 4119 055d E8000000 		call	_ZN8UnitTest11CurrentTest7DetailsEv@PLT
 4119      00
 4120 0562 488B30   		movq	(%rax), %rsi
 4121 0565 BAB60000 		movl	$182, %edx
 4121      00
 4122 056a 4889EF   		movq	%rbp, %rdi
 4123 056d E8000000 		call	_ZN8UnitTest11TestDetailsC1ERKS0_i@PLT
 4123      00
 4124 0572 488D1500 		leaq	.LC31(%rip), %rdx
 4124      000000
 4125 0579 4889EE   		movq	%rbp, %rsi
 4126 057c 4C89EF   		movq	%r13, %rdi
 4127 057f E8000000 		call	_ZN8UnitTest11TestResults13OnTestFailureERKNS_11TestDetailsEPKc@PLT
 4127      00
 4128              	.LEHE129:
 4129              	.LEHB130:
 4130 0584 E8000000 		call	__cxa_end_catch@PLT
 4130      00
 4131              	.LEHE130:
 4132 0589 E9000000 		jmp	.L236
 4132      00
 4133              	.L232:
 4134 058e E8000000 		call	__cxa_begin_catch@PLT
 4134      00
 4135              	.LEHB131:
 4136 0593 E8000000 		call	_ZN8UnitTest11CurrentTest7ResultsEv@PLT
 4136      00
 4137 0598 4C8B28   		movq	(%rax), %r13
 4138 059b E8000000 		call	_ZN8UnitTest11CurrentTest7DetailsEv@PLT
 4138      00
 4139 05a0 488D6C24 		leaq	48(%rsp), %rbp
 4139      30
 4140 05a5 488B30   		movq	(%rax), %rsi
 4141 05a8 BAB40000 		movl	$180, %edx
 4141      00
 4142 05ad 4889EF   		movq	%rbp, %rdi
 4143 05b0 E8000000 		call	_ZN8UnitTest11TestDetailsC1ERKS0_i@PLT
 4143      00
 4144 05b5 488D1500 		leaq	.LC6(%rip), %rdx
 4144      000000
 4145 05bc 4889EE   		movq	%rbp, %rsi
 4146 05bf 4C89EF   		movq	%r13, %rdi
 4147 05c2 E8000000 		call	_ZN8UnitTest11TestResults13OnTestFailureERKNS_11TestDetailsEPKc@PLT
 4147      00
 4148              	.LEHE131:
 4149              	.LEHB132:
 4150 05c7 E8000000 		call	__cxa_end_catch@PLT
 4150      00
 4151              	.LEHE132:
 4152 05cc E9000000 		jmp	.L233
 4152      00
 4153              	.L242:
 4154 05d1 F30F1EFA 		endbr64
 4155 05d5 4889C5   		movq	%rax, %rbp
 4156 05d8 E8000000 		call	__cxa_end_catch@PLT
 4156      00
 4157 05dd 4889EF   		movq	%rbp, %rdi
 4158              	.LEHB133:
 4159 05e0 E8000000 		call	_Unwind_Resume@PLT
 4159      00
 4160              	.LEHE133:
 4161              	.L240:
 4162 05e5 F30F1EFA 		endbr64
 4163 05e9 4889C5   		movq	%rax, %rbp
 4164 05ec E8000000 		call	__cxa_end_catch@PLT
 4164      00
 4165 05f1 4889EF   		movq	%rbp, %rdi
 4166              	.LEHB134:
 4167 05f4 E8000000 		call	_Unwind_Resume@PLT
 4167      00
 4168              	.LEHE134:
 4169              		.cfi_endproc
 4170              	.LFE1350:
 4171              		.section	.gcc_except_table
 4172              		.align 4
 4173              	.LLSDAC1350:
 4174 0284 FF       		.byte	0xff
 4175 0285 9B       		.byte	0x9b
 4176 0286 25       		.uleb128 .LLSDATTC1350-.LLSDATTDC1350
 4177              	.LLSDATTDC1350:
 4178 0287 01       		.byte	0x1
 4179 0288 1C       		.uleb128 .LLSDACSEC1350-.LLSDACSBC1350
 4180              	.LLSDACSBC1350:
 4181 0289 05       		.uleb128 .LEHB129-.LCOLDB32
 4182 028a 2F       		.uleb128 .LEHE129-.LEHB129
 4183 028b 8101     		.uleb128 .L242-.LCOLDB32
 4184 028d 00       		.uleb128 0
 4185 028e 34       		.uleb128 .LEHB130-.LCOLDB32
 4186 028f 05       		.uleb128 .LEHE130-.LEHB130
 4187 0290 00       		.uleb128 0
 4188 0291 00       		.uleb128 0
 4189 0292 43       		.uleb128 .LEHB131-.LCOLDB32
 4190 0293 34       		.uleb128 .LEHE131-.LEHB131
 4191 0294 9501     		.uleb128 .L240-.LCOLDB32
 4192 0296 00       		.uleb128 0
 4193 0297 77       		.uleb128 .LEHB132-.LCOLDB32
 4194 0298 05       		.uleb128 .LEHE132-.LEHB132
 4195 0299 00       		.uleb128 0
 4196 029a 00       		.uleb128 0
 4197 029b 9001     		.uleb128 .LEHB133-.LCOLDB32
 4198 029d 05       		.uleb128 .LEHE133-.LEHB133
 4199 029e 00       		.uleb128 0
 4200 029f 00       		.uleb128 0
 4201 02a0 A401     		.uleb128 .LEHB134-.LCOLDB32
 4202 02a2 05       		.uleb128 .LEHE134-.LEHB134
 4203 02a3 00       		.uleb128 0
 4204 02a4 00       		.uleb128 0
 4205              	.LLSDACSEC1350:
 4206 02a5 01       		.byte	0x1
 4207 02a6 00       		.byte	0
 4208 02a7 00       		.align 4
 4209 02a8 00000000 		.long	0
 4210              	
 4211              	.LLSDATTC1350:
 4212              		.section	.text.unlikely
 4213              		.text
 4215              		.section	.text.unlikely
 4217              	.LCOLDE32:
 4218              		.text
 4219              	.LHOTE32:
 4220              		.section	.text._ZN8UnitTest10CheckEqualIihEEvRNS_11TestResultsERKT_RKT0_RKNS_11TestDetailsE,"axG",
 4221              		.p2align 4
 4222              		.weak	_ZN8UnitTest10CheckEqualIihEEvRNS_11TestResultsERKT_RKT0_RKNS_11TestDetailsE
 4224              	_ZN8UnitTest10CheckEqualIihEEvRNS_11TestResultsERKT_RKT0_RKNS_11TestDetailsE:
 4225              	.LFB1393:
 4226              		.cfi_startproc
 4227              		.cfi_personality 0x9b,DW.ref.__gxx_personality_v0
 4228              		.cfi_lsda 0x1b,.LLSDA1393
 4229 0000 F30F1EFA 		endbr64
 4230 0004 4157     		pushq	%r15
 4231              		.cfi_def_cfa_offset 16
 4232              		.cfi_offset 15, -16
 4233 0006 4156     		pushq	%r14
 4234              		.cfi_def_cfa_offset 24
 4235              		.cfi_offset 14, -24
 4236 0008 4155     		pushq	%r13
 4237              		.cfi_def_cfa_offset 32
 4238              		.cfi_offset 13, -32
 4239 000a 4154     		pushq	%r12
 4240              		.cfi_def_cfa_offset 40
 4241              		.cfi_offset 12, -40
 4242 000c 55       		pushq	%rbp
 4243              		.cfi_def_cfa_offset 48
 4244              		.cfi_offset 6, -48
 4245 000d 53       		pushq	%rbx
 4246              		.cfi_def_cfa_offset 56
 4247              		.cfi_offset 3, -56
 4248 000e 4881ECE8 		subq	$488, %rsp
 4248      010000
 4249              		.cfi_def_cfa_offset 544
 4250 0015 F30F7E0D 		movq	.LC2(%rip), %xmm1
 4250      00000000 
 4251 001d 48897C24 		movq	%rdi, 16(%rsp)
 4251      10
 4252 0022 48894C24 		movq	%rcx, 24(%rsp)
 4252      18
 4253 0027 0F160D00 		movhps	.LC3(%rip), %xmm1
 4253      000000
 4254 002e 64488B04 		movq	%fs:40, %rax
 4254      25280000 
 4254      00
 4255 0037 48898424 		movq	%rax, 472(%rsp)
 4255      D8010000 
 4256 003f 31C0     		xorl	%eax, %eax
 4257 0041 0FB602   		movzbl	(%rdx), %eax
 4258 0044 0F290C24 		movaps	%xmm1, (%rsp)
 4259 0048 3906     		cmpl	%eax, (%rsi)
 4260 004a 752C     		jne	.L262
 4261              	.L246:
 4262 004c 488B8424 		movq	472(%rsp), %rax
 4262      D8010000 
 4263 0054 64482B04 		subq	%fs:40, %rax
 4263      25280000 
 4263      00
 4264 005d 0F855F02 		jne	.L263
 4264      0000
 4265 0063 4881C4E8 		addq	$488, %rsp
 4265      010000
 4266              		.cfi_remember_state
 4267              		.cfi_def_cfa_offset 56
 4268 006a 5B       		popq	%rbx
 4269              		.cfi_def_cfa_offset 48
 4270 006b 5D       		popq	%rbp
 4271              		.cfi_def_cfa_offset 40
 4272 006c 415C     		popq	%r12
 4273              		.cfi_def_cfa_offset 32
 4274 006e 415D     		popq	%r13
 4275              		.cfi_def_cfa_offset 24
 4276 0070 415E     		popq	%r14
 4277              		.cfi_def_cfa_offset 16
 4278 0072 415F     		popq	%r15
 4279              		.cfi_def_cfa_offset 8
 4280 0074 C3       		ret
 4281              		.p2align 4,,10
 4282 0075 0F1F00   		.p2align 3
 4283              	.L262:
 4284              		.cfi_restore_state
 4285 0078 4C8DAC24 		leaq	208(%rsp), %r13
 4285      D0000000 
 4286 0080 4889F5   		movq	%rsi, %rbp
 4287 0083 4889D3   		movq	%rdx, %rbx
 4288 0086 4C89EF   		movq	%r13, %rdi
 4289 0089 E8000000 		call	_ZNSt8ios_baseC2Ev@PLT
 4289      00
 4290 008e 31C0     		xorl	%eax, %eax
 4291 0090 660FEFC0 		pxor	%xmm0, %xmm0
 4292 0094 31F6     		xorl	%esi, %esi
 4293 0096 66898424 		movw	%ax, 432(%rsp)
 4293      B0010000 
 4294 009e 488D0500 		leaq	24+_ZTCN8UnitTest15MemoryOutStreamE0_So(%rip), %rax
 4294      000000
 4295 00a5 4C89EF   		movq	%r13, %rdi
 4296 00a8 48894424 		movq	%rax, 64(%rsp)
 4296      40
 4297 00ad 4883C028 		addq	$40, %rax
 4298 00b1 48C78424 		movq	$0, 424(%rsp)
 4298      A8010000 
 4298      00000000 
 4299 00bd 48898424 		movq	%rax, 208(%rsp)
 4299      D0000000 
 4300 00c5 0F118424 		movups	%xmm0, 440(%rsp)
 4300      B8010000 
 4301 00cd 0F118424 		movups	%xmm0, 456(%rsp)
 4301      C8010000 
 4302              	.LEHB135:
 4303 00d5 E8000000 		call	_ZNSt9basic_iosIcSt11char_traitsIcEE4initEPSt15basic_streambufIcS1_E@PLT
 4303      00
 4304              	.LEHE135:
 4305 00da 660F6F0C 		movdqa	(%rsp), %xmm1
 4305      24
 4306 00df 660FEFC0 		pxor	%xmm0, %xmm0
 4307 00e3 4C8DB424 		leaq	128(%rsp), %r14
 4307      80000000 
 4308 00eb 488D0500 		leaq	64+_ZTCN8UnitTest15MemoryOutStreamE0_NSt7__cxx1119basic_ostringstreamIcSt11char_traitsIcESaIc
 4308      000000
 4309 00f2 4C89F7   		movq	%r14, %rdi
 4310 00f5 0F294424 		movaps	%xmm0, 80(%rsp)
 4310      50
 4311 00fa 4C8D6424 		leaq	64(%rsp), %r12
 4311      40
 4312 00ff 4C8D7C24 		leaq	72(%rsp), %r15
 4312      48
 4313 0104 48898424 		movq	%rax, 208(%rsp)
 4313      D0000000 
 4314 010c 0F294C24 		movaps	%xmm1, 64(%rsp)
 4314      40
 4315 0111 0F294424 		movaps	%xmm0, 96(%rsp)
 4315      60
 4316 0116 0F294424 		movaps	%xmm0, 112(%rsp)
 4316      70
 4317 011b E8000000 		call	_ZNSt6localeC1Ev@PLT
 4317      00
 4318 0120 488D0500 		leaq	16+_ZTVNSt7__cxx1115basic_stringbufIcSt11char_traitsIcESaIcEEE(%rip), %rax
 4318      000000
 4319 0127 C68424A0 		movb	$0, 160(%rsp)
 4319      00000000 
 4320 012f 4C89FE   		movq	%r15, %rsi
 4321 0132 48894424 		movq	%rax, 72(%rsp)
 4321      48
 4322 0137 488D8424 		leaq	160(%rsp), %rax
 4322      A0000000 
 4323 013f 48894424 		movq	%rax, 32(%rsp)
 4323      20
 4324 0144 48898424 		movq	%rax, 144(%rsp)
 4324      90000000 
 4325 014c 488B4424 		movq	64(%rsp), %rax
 4325      40
 4326 0151 48C78424 		movq	$0, 152(%rsp)
 4326      98000000 
 4326      00000000 
 4327 015d C7842488 		movl	$16, 136(%rsp)
 4327      00000010 
 4327      000000
 4328 0168 488B78E8 		movq	-24(%rax), %rdi
 4329 016c 4C01E7   		addq	%r12, %rdi
 4330              	.LEHB136:
 4331 016f E8000000 		call	_ZNSt9basic_iosIcSt11char_traitsIcEE4initEPSt15basic_streambufIcS1_E@PLT
 4331      00
 4332              	.LEHE136:
 4333 0174 4C8D3D00 		leaq	24+_ZTVN8UnitTest15MemoryOutStreamE(%rip), %r15
 4333      000000
 4334 017b BA090000 		movl	$9, %edx
 4334      00
 4335 0180 4C89E7   		movq	%r12, %rdi
 4336 0183 48C78424 		movq	$0, 184(%rsp)
 4336      B8000000 
 4336      00000000 
 4337 018f 498D4728 		leaq	40(%r15), %rax
 4338 0193 488D3500 		leaq	.LC0(%rip), %rsi
 4338      000000
 4339 019a 4C897C24 		movq	%r15, 64(%rsp)
 4339      40
 4340 019f 48898424 		movq	%rax, 208(%rsp)
 4340      D0000000 
 4341 01a7 488D8424 		leaq	192(%rsp), %rax
 4341      C0000000 
 4342 01af 48894424 		movq	%rax, 40(%rsp)
 4342      28
 4343 01b4 48898424 		movq	%rax, 176(%rsp)
 4343      B0000000 
 4344 01bc C68424C0 		movb	$0, 192(%rsp)
 4344      00000000 
 4345              	.LEHB137:
 4346 01c4 E8000000 		call	_ZSt16__ostream_insertIcSt11char_traitsIcEERSt13basic_ostreamIT_T0_ES6_PKS3_l@PLT
 4346      00
 4347 01c9 8B7500   		movl	0(%rbp), %esi
 4348 01cc 4C89E7   		movq	%r12, %rdi
 4349 01cf E8000000 		call	_ZNSolsEi@PLT
 4349      00
 4350 01d4 BA090000 		movl	$9, %edx
 4350      00
 4351 01d9 488D3500 		leaq	.LC1(%rip), %rsi
 4351      000000
 4352 01e0 4889C7   		movq	%rax, %rdi
 4353 01e3 4889C5   		movq	%rax, %rbp
 4354 01e6 E8000000 		call	_ZSt16__ostream_insertIcSt11char_traitsIcEERSt13basic_ostreamIT_T0_ES6_PKS3_l@PLT
 4354      00
 4355 01eb 0FB603   		movzbl	(%rbx), %eax
 4356 01ee 488D7424 		leaq	63(%rsp), %rsi
 4356      3F
 4357 01f3 BA010000 		movl	$1, %edx
 4357      00
 4358 01f8 4889EF   		movq	%rbp, %rdi
 4359 01fb 8844243F 		movb	%al, 63(%rsp)
 4360 01ff E8000000 		call	_ZSt16__ostream_insertIcSt11char_traitsIcEERSt13basic_ostreamIT_T0_ES6_PKS3_l@PLT
 4360      00
 4361 0204 4C89E7   		movq	%r12, %rdi
 4362 0207 E8000000 		call	_ZNK8UnitTest15MemoryOutStream7GetTextEv@PLT
 4362      00
 4363 020c 488B7424 		movq	24(%rsp), %rsi
 4363      18
 4364 0211 488B7C24 		movq	16(%rsp), %rdi
 4364      10
 4365 0216 4889C2   		movq	%rax, %rdx
 4366 0219 F30F7E15 		movq	.LC2(%rip), %xmm2
 4366      00000000 
 4367 0221 0F161500 		movhps	.LC4(%rip), %xmm2
 4367      000000
 4368 0228 0F291424 		movaps	%xmm2, (%rsp)
 4369 022c E8000000 		call	_ZN8UnitTest11TestResults13OnTestFailureERKNS_11TestDetailsEPKc@PLT
 4369      00
 4370              	.LEHE137:
 4371 0231 488D0500 		leaq	64+_ZTVN8UnitTest15MemoryOutStreamE(%rip), %rax
 4371      000000
 4372 0238 4C897C24 		movq	%r15, 64(%rsp)
 4372      40
 4373 023d 488BBC24 		movq	176(%rsp), %rdi
 4373      B0000000 
 4374 0245 48898424 		movq	%rax, 208(%rsp)
 4374      D0000000 
 4375 024d 483B7C24 		cmpq	40(%rsp), %rdi
 4375      28
 4376 0252 7405     		je	.L252
 4377 0254 E8000000 		call	_ZdlPv@PLT
 4377      00
 4378              	.L252:
 4379 0259 660F6F1C 		movdqa	(%rsp), %xmm3
 4379      24
 4380 025e 488D0500 		leaq	64+_ZTCN8UnitTest15MemoryOutStreamE0_NSt7__cxx1119basic_ostringstreamIcSt11char_traitsIcESaIc
 4380      000000
 4381 0265 488BBC24 		movq	144(%rsp), %rdi
 4381      90000000 
 4382 026d 48898424 		movq	%rax, 208(%rsp)
 4382      D0000000 
 4383 0275 0F295C24 		movaps	%xmm3, 64(%rsp)
 4383      40
 4384 027a 483B7C24 		cmpq	32(%rsp), %rdi
 4384      20
 4385 027f 7405     		je	.L253
 4386 0281 E8000000 		call	_ZdlPv@PLT
 4386      00
 4387              	.L253:
 4388 0286 488D0500 		leaq	16+_ZTVSt15basic_streambufIcSt11char_traitsIcEE(%rip), %rax
 4388      000000
 4389 028d 4C89F7   		movq	%r14, %rdi
 4390 0290 48894424 		movq	%rax, 72(%rsp)
 4390      48
 4391 0295 E8000000 		call	_ZNSt6localeD1Ev@PLT
 4391      00
 4392 029a 488D0500 		leaq	24+_ZTCN8UnitTest15MemoryOutStreamE0_So(%rip), %rax
 4392      000000
 4393 02a1 4C89EF   		movq	%r13, %rdi
 4394 02a4 48894424 		movq	%rax, 64(%rsp)
 4394      40
 4395 02a9 488D0500 		leaq	16+_ZTVSt9basic_iosIcSt11char_traitsIcEE(%rip), %rax
 4395      000000
 4396 02b0 48898424 		movq	%rax, 208(%rsp)
 4396      D0000000 
 4397              	.LEHB138:
 4398 02b8 E8000000 		call	_ZNSt8ios_baseD2Ev@PLT
 4398      00
 4399              	.LEHE138:
 4400 02bd E98AFDFF 		jmp	.L246
 4400      FF
 4401              	.L263:
 4402 02c2 E8000000 		call	__stack_chk_fail@PLT
 4402      00
 4403              	.L257:
 4404 02c7 F30F1EFA 		endbr64
 4405 02cb 4889C5   		movq	%rax, %rbp
 4406 02ce EB26     		jmp	.L250
 4407              	.L258:
 4408 02d0 F30F1EFA 		endbr64
 4409 02d4 4889C5   		movq	%rax, %rbp
 4410 02d7 EB09     		jmp	.L249
 4411              	.L256:
 4412 02d9 F30F1EFA 		endbr64
 4413 02dd 4889C5   		movq	%rax, %rbp
 4414 02e0 EB33     		jmp	.L254
 4415              	.L249:
 4416 02e2 4C89FF   		movq	%r15, %rdi
 4417 02e5 E8000000 		call	_ZNSt7__cxx1115basic_stringbufIcSt11char_traitsIcESaIcEED1Ev
 4417      00
 4418 02ea 488D0500 		leaq	24+_ZTCN8UnitTest15MemoryOutStreamE0_So(%rip), %rax
 4418      000000
 4419 02f1 48894424 		movq	%rax, 64(%rsp)
 4419      40
 4420              	.L250:
 4421 02f6 488D0500 		leaq	16+_ZTVSt9basic_iosIcSt11char_traitsIcEE(%rip), %rax
 4421      000000
 4422 02fd 4C89EF   		movq	%r13, %rdi
 4423 0300 48898424 		movq	%rax, 208(%rsp)
 4423      D0000000 
 4424 0308 E8000000 		call	_ZNSt8ios_baseD2Ev@PLT
 4424      00
 4425 030d 4889EF   		movq	%rbp, %rdi
 4426              	.LEHB139:
 4427 0310 E8000000 		call	_Unwind_Resume@PLT
 4427      00
 4428              	.LEHE139:
 4429              	.L254:
 4430 0315 4C89E7   		movq	%r12, %rdi
 4431 0318 E8000000 		call	_ZN8UnitTest15MemoryOutStreamD1Ev
 4431      00
 4432 031d 4889EF   		movq	%rbp, %rdi
 4433              	.LEHB140:
 4434 0320 E8000000 		call	_Unwind_Resume@PLT
 4434      00
 4435              	.LEHE140:
 4436              		.cfi_endproc
 4437              	.LFE1393:
 4438              		.section	.gcc_except_table
 4439              	.LLSDA1393:
 4440 02ac FF       		.byte	0xff
 4441 02ad FF       		.byte	0xff
 4442 02ae 01       		.byte	0x1
 4443 02af 21       		.uleb128 .LLSDACSE1393-.LLSDACSB1393
 4444              	.LLSDACSB1393:
 4445 02b0 D501     		.uleb128 .LEHB135-.LFB1393
 4446 02b2 05       		.uleb128 .LEHE135-.LEHB135
 4447 02b3 C705     		.uleb128 .L257-.LFB1393
 4448 02b5 00       		.uleb128 0
 4449 02b6 EF02     		.uleb128 .LEHB136-.LFB1393
 4450 02b8 05       		.uleb128 .LEHE136-.LEHB136
 4451 02b9 D005     		.uleb128 .L258-.LFB1393
 4452 02bb 00       		.uleb128 0
 4453 02bc C403     		.uleb128 .LEHB137-.LFB1393
 4454 02be 6D       		.uleb128 .LEHE137-.LEHB137
 4455 02bf D905     		.uleb128 .L256-.LFB1393
 4456 02c1 00       		.uleb128 0
 4457 02c2 B805     		.uleb128 .LEHB138-.LFB1393
 4458 02c4 05       		.uleb128 .LEHE138-.LEHB138
 4459 02c5 00       		.uleb128 0
 4460 02c6 00       		.uleb128 0
 4461 02c7 9006     		.uleb128 .LEHB139-.LFB1393
 4462 02c9 05       		.uleb128 .LEHE139-.LEHB139
 4463 02ca 00       		.uleb128 0
 4464 02cb 00       		.uleb128 0
 4465 02cc A006     		.uleb128 .LEHB140-.LFB1393
 4466 02ce 05       		.uleb128 .LEHE140-.LEHB140
 4467 02cf 00       		.uleb128 0
 4468 02d0 00       		.uleb128 0
 4469              	.LLSDACSE1393:
 4470              		.section	.text._ZN8UnitTest10CheckEqualIihEEvRNS_11TestResultsERKT_RKT0_RKNS_11TestDetailsE,"axG",
 4472              		.section	.text._ZN8UnitTest10CheckEqualImmEEvRNS_11TestResultsERKT_RKT0_RKNS_11TestDetailsE,"axG",
 4473              		.p2align 4
 4474              		.weak	_ZN8UnitTest10CheckEqualImmEEvRNS_11TestResultsERKT_RKT0_RKNS_11TestDetailsE
 4476              	_ZN8UnitTest10CheckEqualImmEEvRNS_11TestResultsERKT_RKT0_RKNS_11TestDetailsE:
 4477              	.LFB1394:
 4478              		.cfi_startproc
 4479              		.cfi_personality 0x9b,DW.ref.__gxx_personality_v0
 4480              		.cfi_lsda 0x1b,.LLSDA1394
 4481 0000 F30F1EFA 		endbr64
 4482 0004 4157     		pushq	%r15
 4483              		.cfi_def_cfa_offset 16
 4484              		.cfi_offset 15, -16
 4485 0006 4156     		pushq	%r14
 4486              		.cfi_def_cfa_offset 24
 4487              		.cfi_offset 14, -24
 4488 0008 4155     		pushq	%r13
 4489              		.cfi_def_cfa_offset 32
 4490              		.cfi_offset 13, -32
 4491 000a 4154     		pushq	%r12
 4492              		.cfi_def_cfa_offset 40
 4493              		.cfi_offset 12, -40
 4494 000c 55       		pushq	%rbp
 4495              		.cfi_def_cfa_offset 48
 4496              		.cfi_offset 6, -48
 4497 000d 53       		pushq	%rbx
 4498              		.cfi_def_cfa_offset 56
 4499              		.cfi_offset 3, -56
 4500 000e 4881ECD8 		subq	$472, %rsp
 4500      010000
 4501              		.cfi_def_cfa_offset 528
 4502 0015 F30F7E0D 		movq	.LC2(%rip), %xmm1
 4502      00000000 
 4503 001d 48897C24 		movq	%rdi, 16(%rsp)
 4503      10
 4504 0022 48894C24 		movq	%rcx, 24(%rsp)
 4504      18
 4505 0027 0F160D00 		movhps	.LC3(%rip), %xmm1
 4505      000000
 4506 002e 64488B04 		movq	%fs:40, %rax
 4506      25280000 
 4506      00
 4507 0037 48898424 		movq	%rax, 456(%rsp)
 4507      C8010000 
 4508 003f 31C0     		xorl	%eax, %eax
 4509 0041 488B02   		movq	(%rdx), %rax
 4510 0044 0F290C24 		movaps	%xmm1, (%rsp)
 4511 0048 483906   		cmpq	%rax, (%rsi)
 4512 004b 7533     		jne	.L280
 4513              	.L264:
 4514 004d 488B8424 		movq	456(%rsp), %rax
 4514      C8010000 
 4515 0055 64482B04 		subq	%fs:40, %rax
 4515      25280000 
 4515      00
 4516 005e 0F855302 		jne	.L281
 4516      0000
 4517 0064 4881C4D8 		addq	$472, %rsp
 4517      010000
 4518              		.cfi_remember_state
 4519              		.cfi_def_cfa_offset 56
 4520 006b 5B       		popq	%rbx
 4521              		.cfi_def_cfa_offset 48
 4522 006c 5D       		popq	%rbp
 4523              		.cfi_def_cfa_offset 40
 4524 006d 415C     		popq	%r12
 4525              		.cfi_def_cfa_offset 32
 4526 006f 415D     		popq	%r13
 4527              		.cfi_def_cfa_offset 24
 4528 0071 415E     		popq	%r14
 4529              		.cfi_def_cfa_offset 16
 4530 0073 415F     		popq	%r15
 4531              		.cfi_def_cfa_offset 8
 4532 0075 C3       		ret
 4533 0076 662E0F1F 		.p2align 4,,10
 4533      84000000 
 4533      0000
 4534              		.p2align 3
 4535              	.L280:
 4536              		.cfi_restore_state
 4537 0080 4C8DAC24 		leaq	192(%rsp), %r13
 4537      C0000000 
 4538 0088 4889F5   		movq	%rsi, %rbp
 4539 008b 4889D3   		movq	%rdx, %rbx
 4540 008e 4C89EF   		movq	%r13, %rdi
 4541 0091 E8000000 		call	_ZNSt8ios_baseC2Ev@PLT
 4541      00
 4542 0096 31C0     		xorl	%eax, %eax
 4543 0098 660FEFC0 		pxor	%xmm0, %xmm0
 4544 009c 31F6     		xorl	%esi, %esi
 4545 009e 66898424 		movw	%ax, 416(%rsp)
 4545      A0010000 
 4546 00a6 488D0500 		leaq	24+_ZTCN8UnitTest15MemoryOutStreamE0_So(%rip), %rax
 4546      000000
 4547 00ad 4C89EF   		movq	%r13, %rdi
 4548 00b0 48894424 		movq	%rax, 48(%rsp)
 4548      30
 4549 00b5 4883C028 		addq	$40, %rax
 4550 00b9 48C78424 		movq	$0, 408(%rsp)
 4550      98010000 
 4550      00000000 
 4551 00c5 48898424 		movq	%rax, 192(%rsp)
 4551      C0000000 
 4552 00cd 0F118424 		movups	%xmm0, 424(%rsp)
 4552      A8010000 
 4553 00d5 0F118424 		movups	%xmm0, 440(%rsp)
 4553      B8010000 
 4554              	.LEHB141:
 4555 00dd E8000000 		call	_ZNSt9basic_iosIcSt11char_traitsIcEE4initEPSt15basic_streambufIcS1_E@PLT
 4555      00
 4556              	.LEHE141:
 4557 00e2 660F6F0C 		movdqa	(%rsp), %xmm1
 4557      24
 4558 00e7 4C8D7424 		leaq	112(%rsp), %r14
 4558      70
 4559 00ec 660FEFC0 		pxor	%xmm0, %xmm0
 4560 00f0 488D0500 		leaq	64+_ZTCN8UnitTest15MemoryOutStreamE0_NSt7__cxx1119basic_ostringstreamIcSt11char_traitsIcESaIc
 4560      000000
 4561 00f7 4C89F7   		movq	%r14, %rdi
 4562 00fa 0F294424 		movaps	%xmm0, 64(%rsp)
 4562      40
 4563 00ff 4C8D6424 		leaq	48(%rsp), %r12
 4563      30
 4564 0104 4C8D7C24 		leaq	56(%rsp), %r15
 4564      38
 4565 0109 48898424 		movq	%rax, 192(%rsp)
 4565      C0000000 
 4566 0111 0F294C24 		movaps	%xmm1, 48(%rsp)
 4566      30
 4567 0116 0F294424 		movaps	%xmm0, 80(%rsp)
 4567      50
 4568 011b 0F294424 		movaps	%xmm0, 96(%rsp)
 4568      60
 4569 0120 E8000000 		call	_ZNSt6localeC1Ev@PLT
 4569      00
 4570 0125 488D0500 		leaq	16+_ZTVNSt7__cxx1115basic_stringbufIcSt11char_traitsIcESaIcEEE(%rip), %rax
 4570      000000
 4571 012c 4C89FE   		movq	%r15, %rsi
 4572 012f 48C78424 		movq	$0, 136(%rsp)
 4572      88000000 
 4572      00000000 
 4573 013b 48894424 		movq	%rax, 56(%rsp)
 4573      38
 4574 0140 488D8424 		leaq	144(%rsp), %rax
 4574      90000000 
 4575 0148 48894424 		movq	%rax, 32(%rsp)
 4575      20
 4576 014d 48898424 		movq	%rax, 128(%rsp)
 4576      80000000 
 4577 0155 488B4424 		movq	48(%rsp), %rax
 4577      30
 4578 015a C6842490 		movb	$0, 144(%rsp)
 4578      00000000 
 4579 0162 488B78E8 		movq	-24(%rax), %rdi
 4580 0166 C7442478 		movl	$16, 120(%rsp)
 4580      10000000 
 4581 016e 4C01E7   		addq	%r12, %rdi
 4582              	.LEHB142:
 4583 0171 E8000000 		call	_ZNSt9basic_iosIcSt11char_traitsIcEE4initEPSt15basic_streambufIcS1_E@PLT
 4583      00
 4584              	.LEHE142:
 4585 0176 4C8D3D00 		leaq	24+_ZTVN8UnitTest15MemoryOutStreamE(%rip), %r15
 4585      000000
 4586 017d BA090000 		movl	$9, %edx
 4586      00
 4587 0182 4C89E7   		movq	%r12, %rdi
 4588 0185 48C78424 		movq	$0, 168(%rsp)
 4588      A8000000 
 4588      00000000 
 4589 0191 498D4728 		leaq	40(%r15), %rax
 4590 0195 488D3500 		leaq	.LC0(%rip), %rsi
 4590      000000
 4591 019c 4C897C24 		movq	%r15, 48(%rsp)
 4591      30
 4592 01a1 48898424 		movq	%rax, 192(%rsp)
 4592      C0000000 
 4593 01a9 488D8424 		leaq	176(%rsp), %rax
 4593      B0000000 
 4594 01b1 48894424 		movq	%rax, 40(%rsp)
 4594      28
 4595 01b6 48898424 		movq	%rax, 160(%rsp)
 4595      A0000000 
 4596 01be C68424B0 		movb	$0, 176(%rsp)
 4596      00000000 
 4597              	.LEHB143:
 4598 01c6 E8000000 		call	_ZSt16__ostream_insertIcSt11char_traitsIcEERSt13basic_ostreamIT_T0_ES6_PKS3_l@PLT
 4598      00
 4599 01cb 488B7500 		movq	0(%rbp), %rsi
 4600 01cf 4C89E7   		movq	%r12, %rdi
 4601 01d2 E8000000 		call	_ZNSo9_M_insertImEERSoT_@PLT
 4601      00
 4602 01d7 BA090000 		movl	$9, %edx
 4602      00
 4603 01dc 488D3500 		leaq	.LC1(%rip), %rsi
 4603      000000
 4604 01e3 4889C7   		movq	%rax, %rdi
 4605 01e6 4889C5   		movq	%rax, %rbp
 4606 01e9 E8000000 		call	_ZSt16__ostream_insertIcSt11char_traitsIcEERSt13basic_ostreamIT_T0_ES6_PKS3_l@PLT
 4606      00
 4607 01ee 488B33   		movq	(%rbx), %rsi
 4608 01f1 4889EF   		movq	%rbp, %rdi
 4609 01f4 E8000000 		call	_ZNSo9_M_insertImEERSoT_@PLT
 4609      00
 4610 01f9 4C89E7   		movq	%r12, %rdi
 4611 01fc E8000000 		call	_ZNK8UnitTest15MemoryOutStream7GetTextEv@PLT
 4611      00
 4612 0201 488B7424 		movq	24(%rsp), %rsi
 4612      18
 4613 0206 488B7C24 		movq	16(%rsp), %rdi
 4613      10
 4614 020b 4889C2   		movq	%rax, %rdx
 4615 020e F30F7E15 		movq	.LC2(%rip), %xmm2
 4615      00000000 
 4616 0216 0F161500 		movhps	.LC4(%rip), %xmm2
 4616      000000
 4617 021d 0F291424 		movaps	%xmm2, (%rsp)
 4618 0221 E8000000 		call	_ZN8UnitTest11TestResults13OnTestFailureERKNS_11TestDetailsEPKc@PLT
 4618      00
 4619              	.LEHE143:
 4620 0226 488D0500 		leaq	64+_ZTVN8UnitTest15MemoryOutStreamE(%rip), %rax
 4620      000000
 4621 022d 4C897C24 		movq	%r15, 48(%rsp)
 4621      30
 4622 0232 488BBC24 		movq	160(%rsp), %rdi
 4622      A0000000 
 4623 023a 48898424 		movq	%rax, 192(%rsp)
 4623      C0000000 
 4624 0242 483B7C24 		cmpq	40(%rsp), %rdi
 4624      28
 4625 0247 7405     		je	.L270
 4626 0249 E8000000 		call	_ZdlPv@PLT
 4626      00
 4627              	.L270:
 4628 024e 660F6F1C 		movdqa	(%rsp), %xmm3
 4628      24
 4629 0253 488D0500 		leaq	64+_ZTCN8UnitTest15MemoryOutStreamE0_NSt7__cxx1119basic_ostringstreamIcSt11char_traitsIcESaIc
 4629      000000
 4630 025a 488BBC24 		movq	128(%rsp), %rdi
 4630      80000000 
 4631 0262 48898424 		movq	%rax, 192(%rsp)
 4631      C0000000 
 4632 026a 0F295C24 		movaps	%xmm3, 48(%rsp)
 4632      30
 4633 026f 483B7C24 		cmpq	32(%rsp), %rdi
 4633      20
 4634 0274 7405     		je	.L271
 4635 0276 E8000000 		call	_ZdlPv@PLT
 4635      00
 4636              	.L271:
 4637 027b 488D0500 		leaq	16+_ZTVSt15basic_streambufIcSt11char_traitsIcEE(%rip), %rax
 4637      000000
 4638 0282 4C89F7   		movq	%r14, %rdi
 4639 0285 48894424 		movq	%rax, 56(%rsp)
 4639      38
 4640 028a E8000000 		call	_ZNSt6localeD1Ev@PLT
 4640      00
 4641 028f 488D0500 		leaq	24+_ZTCN8UnitTest15MemoryOutStreamE0_So(%rip), %rax
 4641      000000
 4642 0296 4C89EF   		movq	%r13, %rdi
 4643 0299 48894424 		movq	%rax, 48(%rsp)
 4643      30
 4644 029e 488D0500 		leaq	16+_ZTVSt9basic_iosIcSt11char_traitsIcEE(%rip), %rax
 4644      000000
 4645 02a5 48898424 		movq	%rax, 192(%rsp)
 4645      C0000000 
 4646              	.LEHB144:
 4647 02ad E8000000 		call	_ZNSt8ios_baseD2Ev@PLT
 4647      00
 4648              	.LEHE144:
 4649 02b2 E996FDFF 		jmp	.L264
 4649      FF
 4650              	.L281:
 4651 02b7 E8000000 		call	__stack_chk_fail@PLT
 4651      00
 4652              	.L275:
 4653 02bc F30F1EFA 		endbr64
 4654 02c0 4889C5   		movq	%rax, %rbp
 4655 02c3 EB26     		jmp	.L268
 4656              	.L276:
 4657 02c5 F30F1EFA 		endbr64
 4658 02c9 4889C5   		movq	%rax, %rbp
 4659 02cc EB09     		jmp	.L267
 4660              	.L274:
 4661 02ce F30F1EFA 		endbr64
 4662 02d2 4889C5   		movq	%rax, %rbp
 4663 02d5 EB33     		jmp	.L272
 4664              	.L267:
 4665 02d7 4C89FF   		movq	%r15, %rdi
 4666 02da E8000000 		call	_ZNSt7__cxx1115basic_stringbufIcSt11char_traitsIcESaIcEED1Ev
 4666      00
 4667 02df 488D0500 		leaq	24+_ZTCN8UnitTest15MemoryOutStreamE0_So(%rip), %rax
 4667      000000
 4668 02e6 48894424 		movq	%rax, 48(%rsp)
 4668      30
 4669              	.L268:
 4670 02eb 488D0500 		leaq	16+_ZTVSt9basic_iosIcSt11char_traitsIcEE(%rip), %rax
 4670      000000
 4671 02f2 4C89EF   		movq	%r13, %rdi
 4672 02f5 48898424 		movq	%rax, 192(%rsp)
 4672      C0000000 
 4673 02fd E8000000 		call	_ZNSt8ios_baseD2Ev@PLT
 4673      00
 4674 0302 4889EF   		movq	%rbp, %rdi
 4675              	.LEHB145:
 4676 0305 E8000000 		call	_Unwind_Resume@PLT
 4676      00
 4677              	.LEHE145:
 4678              	.L272:
 4679 030a 4C89E7   		movq	%r12, %rdi
 4680 030d E8000000 		call	_ZN8UnitTest15MemoryOutStreamD1Ev
 4680      00
 4681 0312 4889EF   		movq	%rbp, %rdi
 4682              	.LEHB146:
 4683 0315 E8000000 		call	_Unwind_Resume@PLT
 4683      00
 4684              	.LEHE146:
 4685              		.cfi_endproc
 4686              	.LFE1394:
 4687              		.section	.gcc_except_table
 4688              	.LLSDA1394:
 4689 02d1 FF       		.byte	0xff
 4690 02d2 FF       		.byte	0xff
 4691 02d3 01       		.byte	0x1
 4692 02d4 21       		.uleb128 .LLSDACSE1394-.LLSDACSB1394
 4693              	.LLSDACSB1394:
 4694 02d5 DD01     		.uleb128 .LEHB141-.LFB1394
 4695 02d7 05       		.uleb128 .LEHE141-.LEHB141
 4696 02d8 BC05     		.uleb128 .L275-.LFB1394
 4697 02da 00       		.uleb128 0
 4698 02db F102     		.uleb128 .LEHB142-.LFB1394
 4699 02dd 05       		.uleb128 .LEHE142-.LEHB142
 4700 02de C505     		.uleb128 .L276-.LFB1394
 4701 02e0 00       		.uleb128 0
 4702 02e1 C603     		.uleb128 .LEHB143-.LFB1394
 4703 02e3 60       		.uleb128 .LEHE143-.LEHB143
 4704 02e4 CE05     		.uleb128 .L274-.LFB1394
 4705 02e6 00       		.uleb128 0
 4706 02e7 AD05     		.uleb128 .LEHB144-.LFB1394
 4707 02e9 05       		.uleb128 .LEHE144-.LEHB144
 4708 02ea 00       		.uleb128 0
 4709 02eb 00       		.uleb128 0
 4710 02ec 8506     		.uleb128 .LEHB145-.LFB1394
 4711 02ee 05       		.uleb128 .LEHE145-.LEHB145
 4712 02ef 00       		.uleb128 0
 4713 02f0 00       		.uleb128 0
 4714 02f1 9506     		.uleb128 .LEHB146-.LFB1394
 4715 02f3 05       		.uleb128 .LEHE146-.LEHB146
 4716 02f4 00       		.uleb128 0
 4717 02f5 00       		.uleb128 0
 4718              	.LLSDACSE1394:
 4719              		.section	.text._ZN8UnitTest10CheckEqualImmEEvRNS_11TestResultsERKT_RKT0_RKNS_11TestDetailsE,"axG",
 4721              		.section	.rodata.str1.1
 4722              	.LC33:
 4723 00be 3A303030 		.string	":00000001FF\n"
 4723      30303030 
 4723      3146460A 
 4723      00
 4724              		.section	.rodata.str1.8
 4725 0275 000000   		.align 8
 4726              	.LC34:
 4727 0278 556E6861 		.string	"Unhandled exception in CHECK_EQUAL(0x01, recordType)"
 4727      6E646C65 
 4727      64206578 
 4727      63657074 
 4727      696F6E20 
 4728 02ad 000000   		.align 8
 4729              	.LC35:
 4730 02b0 556E6861 		.string	"Unhandled exception in CHECK_EQUAL(0UL, data.length)"
 4730      6E646C65 
 4730      64206578 
 4730      63657074 
 4730      696F6E20 
 4731 02e5 000000   		.align 8
 4732              	.LC36:
 4733 02e8 556E6861 		.string	"Unhandled exception in CHECK_EQUAL(0UL, mask.length)"
 4733      6E646C65 
 4733      64206578 
 4733      63657074 
 4733      696F6E20 
 4734              		.section	.text.unlikely
 4735 05f9 90       		.align 2
 4736              	.LCOLDB37:
 4737              		.text
 4738              	.LHOTB37:
 4739              		.align 2
 4740 0a1a 660F1F44 		.p2align 4
 4740      0000
 4741              		.globl	_ZNK22TestHexIO_testValidEOF7RunImplEv
 4743              	_ZNK22TestHexIO_testValidEOF7RunImplEv:
 4744              	.LFB1314:
 4745              		.cfi_startproc
 4746              		.cfi_personality 0x9b,DW.ref.__gxx_personality_v0
 4747              		.cfi_lsda 0x1b,.LLSDA1314
 4748 0a20 F30F1EFA 		endbr64
 4749 0a24 4157     		pushq	%r15
 4750              		.cfi_def_cfa_offset 16
 4751              		.cfi_offset 15, -16
 4752 0a26 31C9     		xorl	%ecx, %ecx
 4753 0a28 31D2     		xorl	%edx, %edx
 4754 0a2a BE000400 		movl	$1024, %esi
 4754      00
 4755 0a2f 4156     		pushq	%r14
 4756              		.cfi_def_cfa_offset 24
 4757              		.cfi_offset 14, -24
 4758 0a31 4155     		pushq	%r13
 4759              		.cfi_def_cfa_offset 32
 4760              		.cfi_offset 13, -32
 4761 0a33 4154     		pushq	%r12
 4762              		.cfi_def_cfa_offset 40
 4763              		.cfi_offset 12, -40
 4764 0a35 55       		pushq	%rbp
 4765              		.cfi_def_cfa_offset 48
 4766              		.cfi_offset 6, -48
 4767 0a36 4881EC90 		subq	$144, %rsp
 4767      000000
 4768              		.cfi_def_cfa_offset 192
 4769 0a3d 64488B04 		movq	%fs:40, %rax
 4769      25280000 
 4769      00
 4770 0a46 48898424 		movq	%rax, 136(%rsp)
 4770      88000000 
 4771 0a4e 31C0     		xorl	%eax, %eax
 4772 0a50 4C8D6C24 		leaq	32(%rsp), %r13
 4772      20
 4773 0a55 C7442414 		movl	$0, 20(%rsp)
 4773      00000000 
 4774 0a5d 4C89EF   		movq	%r13, %rdi
 4775              	.LEHB147:
 4776 0a60 E8000000 		call	bufInitialise@PLT
 4776      00
 4777              	.LEHE147:
 4778 0a65 89442410 		movl	%eax, 16(%rsp)
 4779              	.LEHB148:
 4780 0a69 E8000000 		call	_ZN8UnitTest11CurrentTest7DetailsEv@PLT
 4780      00
 4781 0a6e 488D6C24 		leaq	96(%rsp), %rbp
 4781      60
 4782 0a73 488B30   		movq	(%rax), %rsi
 4783 0a76 BA390000 		movl	$57, %edx
 4783      00
 4784 0a7b 4889EF   		movq	%rbp, %rdi
 4785 0a7e E8000000 		call	_ZN8UnitTest11TestDetailsC1ERKS0_i@PLT
 4785      00
 4786 0a83 C7442440 		movl	$0, 64(%rsp)
 4786      00000000 
 4787 0a8b E8000000 		call	_ZN8UnitTest11CurrentTest7ResultsEv@PLT
 4787      00
 4788 0a90 4C8D6424 		leaq	64(%rsp), %r12
 4788      40
 4789 0a95 488B38   		movq	(%rax), %rdi
 4790 0a98 488D5424 		leaq	16(%rsp), %rdx
 4790      10
 4791 0a9d 4889E9   		movq	%rbp, %rcx
 4792 0aa0 4C89E6   		movq	%r12, %rsi
 4793 0aa3 E8000000 		call	_ZN8UnitTest10CheckEqualI12BufferStatusS1_EEvRNS_11TestResultsERKT_RKT0_RKNS_11TestDetailsE
 4793      00
 4794              	.LEHE148:
 4795              	.L284:
 4796 0aa8 31C9     		xorl	%ecx, %ecx
 4797 0aaa 31D2     		xorl	%edx, %edx
 4798 0aac BE000400 		movl	$1024, %esi
 4798      00
 4799 0ab1 4C89E7   		movq	%r12, %rdi
 4800              	.LEHB149:
 4801 0ab4 E8000000 		call	bufInitialise@PLT
 4801      00
 4802              	.LEHE149:
 4803 0ab9 89442410 		movl	%eax, 16(%rsp)
 4804              	.LEHB150:
 4805 0abd E8000000 		call	_ZN8UnitTest11CurrentTest7DetailsEv@PLT
 4805      00
 4806 0ac2 488B30   		movq	(%rax), %rsi
 4807 0ac5 BA3B0000 		movl	$59, %edx
 4807      00
 4808 0aca 4889EF   		movq	%rbp, %rdi
 4809 0acd E8000000 		call	_ZN8UnitTest11TestDetailsC1ERKS0_i@PLT
 4809      00
 4810 0ad2 C7442418 		movl	$0, 24(%rsp)
 4810      00000000 
 4811 0ada E8000000 		call	_ZN8UnitTest11CurrentTest7ResultsEv@PLT
 4811      00
 4812 0adf 488B38   		movq	(%rax), %rdi
 4813 0ae2 488D5424 		leaq	16(%rsp), %rdx
 4813      10
 4814 0ae7 488D7424 		leaq	24(%rsp), %rsi
 4814      18
 4815 0aec 4889E9   		movq	%rbp, %rcx
 4816 0aef E8000000 		call	_ZN8UnitTest10CheckEqualI12BufferStatusS1_EEvRNS_11TestResultsERKT_RKT0_RKNS_11TestDetailsE
 4816      00
 4817              	.LEHE150:
 4818              	.L287:
 4819 0af4 4C8D7424 		leaq	15(%rsp), %r14
 4819      0F
 4820 0af9 4883EC08 		subq	$8, %rsp
 4821              		.cfi_def_cfa_offset 200
 4822 0afd 4C89EA   		movq	%r13, %rdx
 4823 0b00 4C89E1   		movq	%r12, %rcx
 4824 0b03 6A00     		pushq	$0
 4825              		.cfi_def_cfa_offset 208
 4826 0b05 4D89F1   		movq	%r14, %r9
 4827 0b08 31F6     		xorl	%esi, %esi
 4828 0b0a 488D3D00 		leaq	.LC33(%rip), %rdi
 4828      000000
 4829 0b11 4C8D4424 		leaq	36(%rsp), %r8
 4829      24
 4830              	.LEHB151:
 4831 0b16 E8000000 		call	bufProcessLine@PLT
 4831      00
 4832              	.LEHE151:
 4833 0b1b 89442420 		movl	%eax, 32(%rsp)
 4834 0b1f 58       		popq	%rax
 4835              		.cfi_def_cfa_offset 200
 4836 0b20 5A       		popq	%rdx
 4837              		.cfi_def_cfa_offset 192
 4838              	.LEHB152:
 4839 0b21 E8000000 		call	_ZN8UnitTest11CurrentTest7DetailsEv@PLT
 4839      00
 4840 0b26 488B30   		movq	(%rax), %rsi
 4841 0b29 BA3D0000 		movl	$61, %edx
 4841      00
 4842 0b2e 4889EF   		movq	%rbp, %rdi
 4843 0b31 E8000000 		call	_ZN8UnitTest11TestDetailsC1ERKS0_i@PLT
 4843      00
 4844 0b36 C7442418 		movl	$0, 24(%rsp)
 4844      00000000 
 4845 0b3e E8000000 		call	_ZN8UnitTest11CurrentTest7ResultsEv@PLT
 4845      00
 4846 0b43 488B38   		movq	(%rax), %rdi
 4847 0b46 488D5424 		leaq	16(%rsp), %rdx
 4847      10
 4848 0b4b 488D7424 		leaq	24(%rsp), %rsi
 4848      18
 4849 0b50 4889E9   		movq	%rbp, %rcx
 4850 0b53 E8000000 		call	_ZN8UnitTest10CheckEqualI12BufferStatusS1_EEvRNS_11TestResultsERKT_RKT0_RKNS_11TestDetailsE
 4850      00
 4851              	.LEHE152:
 4852              	.L290:
 4853              	.LEHB153:
 4854 0b58 E8000000 		call	_ZN8UnitTest11CurrentTest7DetailsEv@PLT
 4854      00
 4855 0b5d 488B30   		movq	(%rax), %rsi
 4856 0b60 BA3E0000 		movl	$62, %edx
 4856      00
 4857 0b65 4889EF   		movq	%rbp, %rdi
 4858 0b68 E8000000 		call	_ZN8UnitTest11TestDetailsC1ERKS0_i@PLT
 4858      00
 4859 0b6d C7442418 		movl	$1, 24(%rsp)
 4859      01000000 
 4860 0b75 E8000000 		call	_ZN8UnitTest11CurrentTest7ResultsEv@PLT
 4860      00
 4861 0b7a 488B38   		movq	(%rax), %rdi
 4862 0b7d 488D7424 		leaq	24(%rsp), %rsi
 4862      18
 4863 0b82 4889E9   		movq	%rbp, %rcx
 4864 0b85 4C89F2   		movq	%r14, %rdx
 4865 0b88 E8000000 		call	_ZN8UnitTest10CheckEqualIihEEvRNS_11TestResultsERKT_RKT0_RKNS_11TestDetailsE
 4865      00
 4866              	.LEHE153:
 4867              	.L293:
 4868              	.LEHB154:
 4869 0b8d E8000000 		call	_ZN8UnitTest11CurrentTest7DetailsEv@PLT
 4869      00
 4870 0b92 488B30   		movq	(%rax), %rsi
 4871 0b95 BA3F0000 		movl	$63, %edx
 4871      00
 4872 0b9a 4889EF   		movq	%rbp, %rdi
 4873 0b9d E8000000 		call	_ZN8UnitTest11TestDetailsC1ERKS0_i@PLT
 4873      00
 4874 0ba2 48C74424 		movq	$0, 24(%rsp)
 4874      18000000 
 4874      00
 4875 0bab E8000000 		call	_ZN8UnitTest11CurrentTest7ResultsEv@PLT
 4875      00
 4876 0bb0 488B38   		movq	(%rax), %rdi
 4877 0bb3 488D5424 		leaq	40(%rsp), %rdx
 4877      28
 4878 0bb8 488D7424 		leaq	24(%rsp), %rsi
 4878      18
 4879 0bbd 4889E9   		movq	%rbp, %rcx
 4880 0bc0 E8000000 		call	_ZN8UnitTest10CheckEqualImmEEvRNS_11TestResultsERKT_RKT0_RKNS_11TestDetailsE
 4880      00
 4881              	.LEHE154:
 4882              	.L296:
 4883              	.LEHB155:
 4884 0bc5 E8000000 		call	_ZN8UnitTest11CurrentTest7DetailsEv@PLT
 4884      00
 4885 0bca 488B30   		movq	(%rax), %rsi
 4886 0bcd BA400000 		movl	$64, %edx
 4886      00
 4887 0bd2 4889EF   		movq	%rbp, %rdi
 4888 0bd5 E8000000 		call	_ZN8UnitTest11TestDetailsC1ERKS0_i@PLT
 4888      00
 4889 0bda 48C74424 		movq	$0, 24(%rsp)
 4889      18000000 
 4889      00
 4890 0be3 E8000000 		call	_ZN8UnitTest11CurrentTest7ResultsEv@PLT
 4890      00
 4891 0be8 488B38   		movq	(%rax), %rdi
 4892 0beb 488D5424 		leaq	72(%rsp), %rdx
 4892      48
 4893 0bf0 488D7424 		leaq	24(%rsp), %rsi
 4893      18
 4894 0bf5 4889E9   		movq	%rbp, %rcx
 4895 0bf8 E8000000 		call	_ZN8UnitTest10CheckEqualImmEEvRNS_11TestResultsERKT_RKT0_RKNS_11TestDetailsE
 4895      00
 4896              	.LEHE155:
 4897              	.L299:
 4898 0bfd 4C89E7   		movq	%r12, %rdi
 4899              	.LEHB156:
 4900 0c00 E8000000 		call	bufDestroy@PLT
 4900      00
 4901 0c05 4C89EF   		movq	%r13, %rdi
 4902 0c08 E8000000 		call	bufDestroy@PLT
 4902      00
 4903              	.LEHE156:
 4904 0c0d 488B8424 		movq	136(%rsp), %rax
 4904      88000000 
 4905 0c15 64482B04 		subq	%fs:40, %rax
 4905      25280000 
 4905      00
 4906 0c1e 7511     		jne	.L316
 4907 0c20 4881C490 		addq	$144, %rsp
 4907      000000
 4908              		.cfi_remember_state
 4909              		.cfi_def_cfa_offset 48
 4910 0c27 5D       		popq	%rbp
 4911              		.cfi_def_cfa_offset 40
 4912 0c28 415C     		popq	%r12
 4913              		.cfi_def_cfa_offset 32
 4914 0c2a 415D     		popq	%r13
 4915              		.cfi_def_cfa_offset 24
 4916 0c2c 415E     		popq	%r14
 4917              		.cfi_def_cfa_offset 16
 4918 0c2e 415F     		popq	%r15
 4919              		.cfi_def_cfa_offset 8
 4920 0c30 C3       		ret
 4921              	.L316:
 4922              		.cfi_restore_state
 4923 0c31 E8000000 		call	__stack_chk_fail@PLT
 4923      00
 4924              	.L312:
 4925 0c36 F30F1EFA 		endbr64
 4926 0c3a 4889C7   		movq	%rax, %rdi
 4927 0c3d E9000000 		jmp	.L298
 4927      00
 4928              	.L310:
 4929 0c42 F30F1EFA 		endbr64
 4930 0c46 4889C7   		movq	%rax, %rdi
 4931 0c49 E9000000 		jmp	.L295
 4931      00
 4932              	.L308:
 4933 0c4e F30F1EFA 		endbr64
 4934 0c52 4889C7   		movq	%rax, %rdi
 4935 0c55 E9000000 		jmp	.L292
 4935      00
 4936              	.L306:
 4937 0c5a F30F1EFA 		endbr64
 4938 0c5e 4889C7   		movq	%rax, %rdi
 4939 0c61 E9000000 		jmp	.L289
 4939      00
 4940              	.L304:
 4941 0c66 F30F1EFA 		endbr64
 4942 0c6a 4889C7   		movq	%rax, %rdi
 4943 0c6d E9000000 		jmp	.L286
 4943      00
 4944              	.L302:
 4945 0c72 F30F1EFA 		endbr64
 4946 0c76 4889C7   		movq	%rax, %rdi
 4947 0c79 E9000000 		jmp	.L283
 4947      00
 4948              		.section	.gcc_except_table
 4949 02f6 0000     		.align 4
 4950              	.LLSDA1314:
 4951 02f8 FF       		.byte	0xff
 4952 02f9 9B       		.byte	0x9b
 4953 02fa 41       		.uleb128 .LLSDATT1314-.LLSDATTD1314
 4954              	.LLSDATTD1314:
 4955 02fb 01       		.byte	0x1
 4956 02fc 36       		.uleb128 .LLSDACSE1314-.LLSDACSB1314
 4957              	.LLSDACSB1314:
 4958 02fd 40       		.uleb128 .LEHB147-.LFB1314
 4959 02fe 05       		.uleb128 .LEHE147-.LEHB147
 4960 02ff 00       		.uleb128 0
 4961 0300 00       		.uleb128 0
 4962 0301 49       		.uleb128 .LEHB148-.LFB1314
 4963 0302 3F       		.uleb128 .LEHE148-.LEHB148
 4964 0303 D204     		.uleb128 .L302-.LFB1314
 4965 0305 01       		.uleb128 0x1
 4966 0306 9401     		.uleb128 .LEHB149-.LFB1314
 4967 0308 05       		.uleb128 .LEHE149-.LEHB149
 4968 0309 00       		.uleb128 0
 4969 030a 00       		.uleb128 0
 4970 030b 9D01     		.uleb128 .LEHB150-.LFB1314
 4971 030d 37       		.uleb128 .LEHE150-.LEHB150
 4972 030e C604     		.uleb128 .L304-.LFB1314
 4973 0310 01       		.uleb128 0x1
 4974 0311 F601     		.uleb128 .LEHB151-.LFB1314
 4975 0313 05       		.uleb128 .LEHE151-.LEHB151
 4976 0314 00       		.uleb128 0
 4977 0315 00       		.uleb128 0
 4978 0316 8102     		.uleb128 .LEHB152-.LFB1314
 4979 0318 37       		.uleb128 .LEHE152-.LEHB152
 4980 0319 BA04     		.uleb128 .L306-.LFB1314
 4981 031b 01       		.uleb128 0x1
 4982 031c B802     		.uleb128 .LEHB153-.LFB1314
 4983 031e 35       		.uleb128 .LEHE153-.LEHB153
 4984 031f AE04     		.uleb128 .L308-.LFB1314
 4985 0321 01       		.uleb128 0x1
 4986 0322 ED02     		.uleb128 .LEHB154-.LFB1314
 4987 0324 38       		.uleb128 .LEHE154-.LEHB154
 4988 0325 A204     		.uleb128 .L310-.LFB1314
 4989 0327 01       		.uleb128 0x1
 4990 0328 A503     		.uleb128 .LEHB155-.LFB1314
 4991 032a 38       		.uleb128 .LEHE155-.LEHB155
 4992 032b 9604     		.uleb128 .L312-.LFB1314
 4993 032d 01       		.uleb128 0x1
 4994 032e E003     		.uleb128 .LEHB156-.LFB1314
 4995 0330 0D       		.uleb128 .LEHE156-.LEHB156
 4996 0331 00       		.uleb128 0
 4997 0332 00       		.uleb128 0
 4998              	.LLSDACSE1314:
 4999 0333 01       		.byte	0x1
 5000 0334 00       		.byte	0
 5001 0335 000000   		.align 4
 5002 0338 00000000 		.long	0
 5003              	
 5004              	.LLSDATT1314:
 5005              		.text
 5006              		.cfi_endproc
 5007              		.section	.text.unlikely
 5008              		.cfi_startproc
 5009              		.cfi_personality 0x9b,DW.ref.__gxx_personality_v0
 5010              		.cfi_lsda 0x1b,.LLSDAC1314
 5012              	_ZNK22TestHexIO_testValidEOF7RunImplEv.cold:
 5013              	.LFSB1314:
 5014              	.L298:
 5015              		.cfi_def_cfa_offset 192
 5016              		.cfi_offset 6, -48
 5017              		.cfi_offset 12, -40
 5018              		.cfi_offset 13, -32
 5019              		.cfi_offset 14, -24
 5020              		.cfi_offset 15, -16
 5021 05fa E8000000 		call	__cxa_begin_catch@PLT
 5021      00
 5022              	.LEHB157:
 5023 05ff E8000000 		call	_ZN8UnitTest11CurrentTest7ResultsEv@PLT
 5023      00
 5024 0604 4C8B30   		movq	(%rax), %r14
 5025 0607 E8000000 		call	_ZN8UnitTest11CurrentTest7DetailsEv@PLT
 5025      00
 5026 060c 488B30   		movq	(%rax), %rsi
 5027 060f BA400000 		movl	$64, %edx
 5027      00
 5028 0614 4889EF   		movq	%rbp, %rdi
 5029 0617 E8000000 		call	_ZN8UnitTest11TestDetailsC1ERKS0_i@PLT
 5029      00
 5030 061c 488D1500 		leaq	.LC36(%rip), %rdx
 5030      000000
 5031 0623 4889EE   		movq	%rbp, %rsi
 5032 0626 4C89F7   		movq	%r14, %rdi
 5033 0629 E8000000 		call	_ZN8UnitTest11TestResults13OnTestFailureERKNS_11TestDetailsEPKc@PLT
 5033      00
 5034              	.LEHE157:
 5035              	.LEHB158:
 5036 062e E8000000 		call	__cxa_end_catch@PLT
 5036      00
 5037              	.LEHE158:
 5038 0633 E9000000 		jmp	.L299
 5038      00
 5039              	.L295:
 5040 0638 E8000000 		call	__cxa_begin_catch@PLT
 5040      00
 5041              	.LEHB159:
 5042 063d E8000000 		call	_ZN8UnitTest11CurrentTest7ResultsEv@PLT
 5042      00
 5043 0642 4C8B30   		movq	(%rax), %r14
 5044 0645 E8000000 		call	_ZN8UnitTest11CurrentTest7DetailsEv@PLT
 5044      00
 5045 064a 488B30   		movq	(%rax), %rsi
 5046 064d BA3F0000 		movl	$63, %edx
 5046      00
 5047 0652 4889EF   		movq	%rbp, %rdi
 5048 0655 E8000000 		call	_ZN8UnitTest11TestDetailsC1ERKS0_i@PLT
 5048      00
 5049 065a 488D1500 		leaq	.LC35(%rip), %rdx
 5049      000000
 5050 0661 4889EE   		movq	%rbp, %rsi
 5051 0664 4C89F7   		movq	%r14, %rdi
 5052 0667 E8000000 		call	_ZN8UnitTest11TestResults13OnTestFailureERKNS_11TestDetailsEPKc@PLT
 5052      00
 5053              	.LEHE159:
 5054              	.LEHB160:
 5055 066c E8000000 		call	__cxa_end_catch@PLT
 5055      00
 5056              	.LEHE160:
 5057 0671 E9000000 		jmp	.L296
 5057      00
 5058              	.L313:
 5059 0676 F30F1EFA 		endbr64
 5060 067a 4889C5   		movq	%rax, %rbp
 5061 067d E8000000 		call	__cxa_end_catch@PLT
 5061      00
 5062 0682 4889EF   		movq	%rbp, %rdi
 5063              	.LEHB161:
 5064 0685 E8000000 		call	_Unwind_Resume@PLT
 5064      00
 5065              	.LEHE161:
 5066              	.L311:
 5067 068a F30F1EFA 		endbr64
 5068 068e 4889C5   		movq	%rax, %rbp
 5069 0691 E8000000 		call	__cxa_end_catch@PLT
 5069      00
 5070 0696 4889EF   		movq	%rbp, %rdi
 5071              	.LEHB162:
 5072 0699 E8000000 		call	_Unwind_Resume@PLT
 5072      00
 5073              	.LEHE162:
 5074              	.L292:
 5075 069e E8000000 		call	__cxa_begin_catch@PLT
 5075      00
 5076              	.LEHB163:
 5077 06a3 E8000000 		call	_ZN8UnitTest11CurrentTest7ResultsEv@PLT
 5077      00
 5078 06a8 4C8B30   		movq	(%rax), %r14
 5079 06ab E8000000 		call	_ZN8UnitTest11CurrentTest7DetailsEv@PLT
 5079      00
 5080 06b0 488B30   		movq	(%rax), %rsi
 5081 06b3 BA3E0000 		movl	$62, %edx
 5081      00
 5082 06b8 4889EF   		movq	%rbp, %rdi
 5083 06bb E8000000 		call	_ZN8UnitTest11TestDetailsC1ERKS0_i@PLT
 5083      00
 5084 06c0 488D1500 		leaq	.LC34(%rip), %rdx
 5084      000000
 5085 06c7 4889EE   		movq	%rbp, %rsi
 5086 06ca 4C89F7   		movq	%r14, %rdi
 5087 06cd E8000000 		call	_ZN8UnitTest11TestResults13OnTestFailureERKNS_11TestDetailsEPKc@PLT
 5087      00
 5088              	.LEHE163:
 5089              	.LEHB164:
 5090 06d2 E8000000 		call	__cxa_end_catch@PLT
 5090      00
 5091              	.LEHE164:
 5092 06d7 E9000000 		jmp	.L293
 5092      00
 5093              	.L289:
 5094 06dc E8000000 		call	__cxa_begin_catch@PLT
 5094      00
 5095              	.LEHB165:
 5096 06e1 E8000000 		call	_ZN8UnitTest11CurrentTest7ResultsEv@PLT
 5096      00
 5097 06e6 4C8B38   		movq	(%rax), %r15
 5098 06e9 E8000000 		call	_ZN8UnitTest11CurrentTest7DetailsEv@PLT
 5098      00
 5099 06ee 488B30   		movq	(%rax), %rsi
 5100 06f1 BA3D0000 		movl	$61, %edx
 5100      00
 5101 06f6 4889EF   		movq	%rbp, %rdi
 5102 06f9 E8000000 		call	_ZN8UnitTest11TestDetailsC1ERKS0_i@PLT
 5102      00
 5103 06fe 488D1500 		leaq	.LC6(%rip), %rdx
 5103      000000
 5104 0705 4889EE   		movq	%rbp, %rsi
 5105 0708 4C89FF   		movq	%r15, %rdi
 5106 070b E8000000 		call	_ZN8UnitTest11TestResults13OnTestFailureERKNS_11TestDetailsEPKc@PLT
 5106      00
 5107              	.LEHE165:
 5108              	.LEHB166:
 5109 0710 E8000000 		call	__cxa_end_catch@PLT
 5109      00
 5110              	.LEHE166:
 5111 0715 E9000000 		jmp	.L290
 5111      00
 5112              	.L309:
 5113 071a F30F1EFA 		endbr64
 5114 071e 4889C5   		movq	%rax, %rbp
 5115 0721 E8000000 		call	__cxa_end_catch@PLT
 5115      00
 5116 0726 4889EF   		movq	%rbp, %rdi
 5117              	.LEHB167:
 5118 0729 E8000000 		call	_Unwind_Resume@PLT
 5118      00
 5119              	.LEHE167:
 5120              	.L307:
 5121 072e F30F1EFA 		endbr64
 5122 0732 4889C5   		movq	%rax, %rbp
 5123 0735 E8000000 		call	__cxa_end_catch@PLT
 5123      00
 5124 073a 4889EF   		movq	%rbp, %rdi
 5125              	.LEHB168:
 5126 073d E8000000 		call	_Unwind_Resume@PLT
 5126      00
 5127              	.LEHE168:
 5128              	.L286:
 5129 0742 E8000000 		call	__cxa_begin_catch@PLT
 5129      00
 5130              	.LEHB169:
 5131 0747 E8000000 		call	_ZN8UnitTest11CurrentTest7ResultsEv@PLT
 5131      00
 5132 074c 4C8B30   		movq	(%rax), %r14
 5133 074f E8000000 		call	_ZN8UnitTest11CurrentTest7DetailsEv@PLT
 5133      00
 5134 0754 488B30   		movq	(%rax), %rsi
 5135 0757 BA3B0000 		movl	$59, %edx
 5135      00
 5136 075c 4889EF   		movq	%rbp, %rdi
 5137 075f E8000000 		call	_ZN8UnitTest11TestDetailsC1ERKS0_i@PLT
 5137      00
 5138 0764 488D1500 		leaq	.LC6(%rip), %rdx
 5138      000000
 5139 076b 4889EE   		movq	%rbp, %rsi
 5140 076e 4C89F7   		movq	%r14, %rdi
 5141 0771 E8000000 		call	_ZN8UnitTest11TestResults13OnTestFailureERKNS_11TestDetailsEPKc@PLT
 5141      00
 5142              	.LEHE169:
 5143              	.LEHB170:
 5144 0776 E8000000 		call	__cxa_end_catch@PLT
 5144      00
 5145              	.LEHE170:
 5146 077b E9000000 		jmp	.L287
 5146      00
 5147              	.L283:
 5148 0780 E8000000 		call	__cxa_begin_catch@PLT
 5148      00
 5149              	.LEHB171:
 5150 0785 E8000000 		call	_ZN8UnitTest11CurrentTest7ResultsEv@PLT
 5150      00
 5151 078a 4C8B20   		movq	(%rax), %r12
 5152 078d E8000000 		call	_ZN8UnitTest11CurrentTest7DetailsEv@PLT
 5152      00
 5153 0792 488D6C24 		leaq	96(%rsp), %rbp
 5153      60
 5154 0797 488B30   		movq	(%rax), %rsi
 5155 079a BA390000 		movl	$57, %edx
 5155      00
 5156 079f 4889EF   		movq	%rbp, %rdi
 5157 07a2 E8000000 		call	_ZN8UnitTest11TestDetailsC1ERKS0_i@PLT
 5157      00
 5158 07a7 488D1500 		leaq	.LC6(%rip), %rdx
 5158      000000
 5159 07ae 4889EE   		movq	%rbp, %rsi
 5160 07b1 4C89E7   		movq	%r12, %rdi
 5161 07b4 E8000000 		call	_ZN8UnitTest11TestResults13OnTestFailureERKNS_11TestDetailsEPKc@PLT
 5161      00
 5162              	.LEHE171:
 5163              	.LEHB172:
 5164 07b9 E8000000 		call	__cxa_end_catch@PLT
 5164      00
 5165              	.LEHE172:
 5166 07be 4C8D6424 		leaq	64(%rsp), %r12
 5166      40
 5167 07c3 E9000000 		jmp	.L284
 5167      00
 5168              	.L305:
 5169 07c8 F30F1EFA 		endbr64
 5170 07cc 4889C5   		movq	%rax, %rbp
 5171 07cf E8000000 		call	__cxa_end_catch@PLT
 5171      00
 5172 07d4 4889EF   		movq	%rbp, %rdi
 5173              	.LEHB173:
 5174 07d7 E8000000 		call	_Unwind_Resume@PLT
 5174      00
 5175              	.LEHE173:
 5176              	.L303:
 5177 07dc F30F1EFA 		endbr64
 5178 07e0 4889C5   		movq	%rax, %rbp
 5179 07e3 E8000000 		call	__cxa_end_catch@PLT
 5179      00
 5180 07e8 4889EF   		movq	%rbp, %rdi
 5181              	.LEHB174:
 5182 07eb E8000000 		call	_Unwind_Resume@PLT
 5182      00
 5183              	.LEHE174:
 5184              		.cfi_endproc
 5185              	.LFE1314:
 5186              		.section	.gcc_except_table
 5187              		.align 4
 5188              	.LLSDAC1314:
 5189 033c FF       		.byte	0xff
 5190 033d 9B       		.byte	0x9b
 5191 033e 65       		.uleb128 .LLSDATTC1314-.LLSDATTDC1314
 5192              	.LLSDATTDC1314:
 5193 033f 01       		.byte	0x1
 5194 0340 5B       		.uleb128 .LLSDACSEC1314-.LLSDACSBC1314
 5195              	.LLSDACSBC1314:
 5196 0341 05       		.uleb128 .LEHB157-.LCOLDB37
 5197 0342 2F       		.uleb128 .LEHE157-.LEHB157
 5198 0343 7C       		.uleb128 .L313-.LCOLDB37
 5199 0344 00       		.uleb128 0
 5200 0345 34       		.uleb128 .LEHB158-.LCOLDB37
 5201 0346 05       		.uleb128 .LEHE158-.LEHB158
 5202 0347 00       		.uleb128 0
 5203 0348 00       		.uleb128 0
 5204 0349 43       		.uleb128 .LEHB159-.LCOLDB37
 5205 034a 2F       		.uleb128 .LEHE159-.LEHB159
 5206 034b 9001     		.uleb128 .L311-.LCOLDB37
 5207 034d 00       		.uleb128 0
 5208 034e 72       		.uleb128 .LEHB160-.LCOLDB37
 5209 034f 05       		.uleb128 .LEHE160-.LEHB160
 5210 0350 00       		.uleb128 0
 5211 0351 00       		.uleb128 0
 5212 0352 8B01     		.uleb128 .LEHB161-.LCOLDB37
 5213 0354 05       		.uleb128 .LEHE161-.LEHB161
 5214 0355 00       		.uleb128 0
 5215 0356 00       		.uleb128 0
 5216 0357 9F01     		.uleb128 .LEHB162-.LCOLDB37
 5217 0359 05       		.uleb128 .LEHE162-.LEHB162
 5218 035a 00       		.uleb128 0
 5219 035b 00       		.uleb128 0
 5220 035c A901     		.uleb128 .LEHB163-.LCOLDB37
 5221 035e 2F       		.uleb128 .LEHE163-.LEHB163
 5222 035f A002     		.uleb128 .L309-.LCOLDB37
 5223 0361 00       		.uleb128 0
 5224 0362 D801     		.uleb128 .LEHB164-.LCOLDB37
 5225 0364 05       		.uleb128 .LEHE164-.LEHB164
 5226 0365 00       		.uleb128 0
 5227 0366 00       		.uleb128 0
 5228 0367 E701     		.uleb128 .LEHB165-.LCOLDB37
 5229 0369 2F       		.uleb128 .LEHE165-.LEHB165
 5230 036a B402     		.uleb128 .L307-.LCOLDB37
 5231 036c 00       		.uleb128 0
 5232 036d 9602     		.uleb128 .LEHB166-.LCOLDB37
 5233 036f 05       		.uleb128 .LEHE166-.LEHB166
 5234 0370 00       		.uleb128 0
 5235 0371 00       		.uleb128 0
 5236 0372 AF02     		.uleb128 .LEHB167-.LCOLDB37
 5237 0374 05       		.uleb128 .LEHE167-.LEHB167
 5238 0375 00       		.uleb128 0
 5239 0376 00       		.uleb128 0
 5240 0377 C302     		.uleb128 .LEHB168-.LCOLDB37
 5241 0379 05       		.uleb128 .LEHE168-.LEHB168
 5242 037a 00       		.uleb128 0
 5243 037b 00       		.uleb128 0
 5244 037c CD02     		.uleb128 .LEHB169-.LCOLDB37
 5245 037e 2F       		.uleb128 .LEHE169-.LEHB169
 5246 037f CE03     		.uleb128 .L305-.LCOLDB37
 5247 0381 00       		.uleb128 0
 5248 0382 FC02     		.uleb128 .LEHB170-.LCOLDB37
 5249 0384 05       		.uleb128 .LEHE170-.LEHB170
 5250 0385 00       		.uleb128 0
 5251 0386 00       		.uleb128 0
 5252 0387 8B03     		.uleb128 .LEHB171-.LCOLDB37
 5253 0389 34       		.uleb128 .LEHE171-.LEHB171
 5254 038a E203     		.uleb128 .L303-.LCOLDB37
 5255 038c 00       		.uleb128 0
 5256 038d BF03     		.uleb128 .LEHB172-.LCOLDB37
 5257 038f 05       		.uleb128 .LEHE172-.LEHB172
 5258 0390 00       		.uleb128 0
 5259 0391 00       		.uleb128 0
 5260 0392 DD03     		.uleb128 .LEHB173-.LCOLDB37
 5261 0394 05       		.uleb128 .LEHE173-.LEHB173
 5262 0395 00       		.uleb128 0
 5263 0396 00       		.uleb128 0
 5264 0397 F103     		.uleb128 .LEHB174-.LCOLDB37
 5265 0399 05       		.uleb128 .LEHE174-.LEHB174
 5266 039a 00       		.uleb128 0
 5267 039b 00       		.uleb128 0
 5268              	.LLSDACSEC1314:
 5269 039c 01       		.byte	0x1
 5270 039d 00       		.byte	0
 5271 039e 0000     		.align 4
 5272 03a0 00000000 		.long	0
 5273              	
 5274              	.LLSDATTC1314:
 5275              		.section	.text.unlikely
 5276              		.text
 5278              		.section	.text.unlikely
 5280              	.LCOLDE37:
 5281              		.text
 5282              	.LHOTE37:
 5283              		.section	.rodata.str1.1
 5284              	.LC38:
 5285 00cb 3A303430 		.string	":040BE10075820022F7\n"
 5285      42453130 
 5285      30373538 
 5285      32303032 
 5285      3246370A 
 5286              	.LC39:
 5287 00e0 45787065 		.string	"Expected [ "
 5287      63746564 
 5287      205B2000 
 5288              	.LC40:
 5289 00ec 2000     		.string	" "
 5290              	.LC41:
 5291 00ee 5D206275 		.string	"] but was [ "
 5291      74207761 
 5291      73205B20 
 5291      00
 5292              	.LC42:
 5293 00fb 5D00     		.string	"]"
 5294              		.section	.rodata.str1.8
 5295 031d 000000   		.align 8
 5296              	.LC43:
 5297 0320 556E6861 		.string	"Unhandled exception in CHECK_EQUAL(0x00, recordType)"
 5297      6E646C65 
 5297      64206578 
 5297      63657074 
 5297      696F6E20 
 5298 0355 000000   		.align 8
 5299              	.LC44:
 5300 0358 556E6861 		.string	"Unhandled exception in CHECK_EQUAL(0x0BE1+4UL, data.length)"
 5300      6E646C65 
 5300      64206578 
 5300      63657074 
 5300      696F6E20 
 5301 0394 00000000 		.align 8
 5302              	.LC45:
 5303 0398 556E6861 		.string	"Unhandled exception in CHECK_EQUAL(0x0BE1+4UL, mask.length)"
 5303      6E646C65 
 5303      64206578 
 5303      63657074 
 5303      696F6E20 
 5304 03d4 00000000 		.align 8
 5305              	.LC46:
 5306 03d8 556E6861 		.string	"Unhandled exception in CHECK_EQUAL(4096UL, data.capacity)"
 5306      6E646C65 
 5306      64206578 
 5306      63657074 
 5306      696F6E20 
 5307 0412 00000000 		.align 8
 5307      0000
 5308              	.LC47:
 5309 0418 556E6861 		.string	"Unhandled exception in CHECK_EQUAL(4096UL, mask.capacity)"
 5309      6E646C65 
 5309      64206578 
 5309      63657074 
 5309      696F6E20 
 5310 0452 00000000 		.align 8
 5310      0000
 5311              	.LC48:
 5312 0458 556E6861 		.string	"Unhandled exception in CHECK_ARRAY_EQUAL(expected, data.data + 0x0BE1)"
 5312      6E646C65 
 5312      64206578 
 5312      63657074 
 5312      696F6E20 
 5313              		.section	.text.unlikely
 5314              		.align 2
 5315              	.LCOLDB49:
 5316              		.text
 5317              	.LHOTB49:
 5318              		.align 2
 5319 0c7e 6690     		.p2align 4
 5320              		.globl	_ZNK27TestHexIO_testValidDataLine7RunImplEv
 5322              	_ZNK27TestHexIO_testValidDataLine7RunImplEv:
 5323              	.LFB1310:
 5324              		.cfi_startproc
 5325              		.cfi_personality 0x9b,DW.ref.__gxx_personality_v0
 5326              		.cfi_lsda 0x1b,.LLSDA1310
 5327 0c80 F30F1EFA 		endbr64
 5328 0c84 4157     		pushq	%r15
 5329              		.cfi_def_cfa_offset 16
 5330              		.cfi_offset 15, -16
 5331 0c86 31C9     		xorl	%ecx, %ecx
 5332 0c88 31D2     		xorl	%edx, %edx
 5333 0c8a BE000400 		movl	$1024, %esi
 5333      00
 5334 0c8f 4156     		pushq	%r14
 5335              		.cfi_def_cfa_offset 24
 5336              		.cfi_offset 14, -24
 5337 0c91 4155     		pushq	%r13
 5338              		.cfi_def_cfa_offset 32
 5339              		.cfi_offset 13, -32
 5340 0c93 4154     		pushq	%r12
 5341              		.cfi_def_cfa_offset 40
 5342              		.cfi_offset 12, -40
 5343 0c95 55       		pushq	%rbp
 5344              		.cfi_def_cfa_offset 48
 5345              		.cfi_offset 6, -48
 5346 0c96 53       		pushq	%rbx
 5347              		.cfi_def_cfa_offset 56
 5348              		.cfi_offset 3, -56
 5349 0c97 4881EC88 		subq	$648, %rsp
 5349      020000
 5350              		.cfi_def_cfa_offset 704
 5351 0c9e 64488B04 		movq	%fs:40, %rax
 5351      25280000 
 5351      00
 5352 0ca7 48898424 		movq	%rax, 632(%rsp)
 5352      78020000 
 5353 0caf 31C0     		xorl	%eax, %eax
 5354 0cb1 488D4424 		leaq	112(%rsp), %rax
 5354      70
 5355 0cb6 C7442464 		movl	$0, 100(%rsp)
 5355      00000000 
 5356 0cbe 4889C7   		movq	%rax, %rdi
 5357 0cc1 48894424 		movq	%rax, 16(%rsp)
 5357      10
 5358 0cc6 C7842474 		movl	$570458741, 628(%rsp)
 5358      02000075 
 5358      820022
 5359              	.LEHB175:
 5360 0cd1 E8000000 		call	bufInitialise@PLT
 5360      00
 5361              	.LEHE175:
 5362 0cd6 89442460 		movl	%eax, 96(%rsp)
 5363              	.LEHB176:
 5364 0cda E8000000 		call	_ZN8UnitTest11CurrentTest7DetailsEv@PLT
 5364      00
 5365 0cdf 488DAC24 		leaq	176(%rsp), %rbp
 5365      B0000000 
 5366 0ce7 488B30   		movq	(%rax), %rsi
 5367 0cea BA230000 		movl	$35, %edx
 5367      00
 5368 0cef 4889EF   		movq	%rbp, %rdi
 5369 0cf2 E8000000 		call	_ZN8UnitTest11TestDetailsC1ERKS0_i@PLT
 5369      00
 5370 0cf7 C7842490 		movl	$0, 144(%rsp)
 5370      00000000 
 5370      000000
 5371 0d02 E8000000 		call	_ZN8UnitTest11CurrentTest7ResultsEv@PLT
 5371      00
 5372 0d07 4C8DBC24 		leaq	144(%rsp), %r15
 5372      90000000 
 5373 0d0f 488B38   		movq	(%rax), %rdi
 5374 0d12 488D5424 		leaq	96(%rsp), %rdx
 5374      60
 5375 0d17 4889E9   		movq	%rbp, %rcx
 5376 0d1a 4C89FE   		movq	%r15, %rsi
 5377 0d1d E8000000 		call	_ZN8UnitTest10CheckEqualI12BufferStatusS1_EEvRNS_11TestResultsERKT_RKT0_RKNS_11TestDetailsE
 5377      00
 5378              	.LEHE176:
 5379              	.L332:
 5380 0d22 31C9     		xorl	%ecx, %ecx
 5381 0d24 31D2     		xorl	%edx, %edx
 5382 0d26 BE000400 		movl	$1024, %esi
 5382      00
 5383 0d2b 4C89FF   		movq	%r15, %rdi
 5384              	.LEHB177:
 5385 0d2e E8000000 		call	bufInitialise@PLT
 5385      00
 5386              	.LEHE177:
 5387 0d33 89442460 		movl	%eax, 96(%rsp)
 5388              	.LEHB178:
 5389 0d37 E8000000 		call	_ZN8UnitTest11CurrentTest7DetailsEv@PLT
 5389      00
 5390 0d3c 488B30   		movq	(%rax), %rsi
 5391 0d3f BA250000 		movl	$37, %edx
 5391      00
 5392 0d44 4889EF   		movq	%rbp, %rdi
 5393 0d47 E8000000 		call	_ZN8UnitTest11TestDetailsC1ERKS0_i@PLT
 5393      00
 5394 0d4c C7442468 		movl	$0, 104(%rsp)
 5394      00000000 
 5395 0d54 E8000000 		call	_ZN8UnitTest11CurrentTest7ResultsEv@PLT
 5395      00
 5396 0d59 4C8D6424 		leaq	104(%rsp), %r12
 5396      68
 5397 0d5e 488B38   		movq	(%rax), %rdi
 5398 0d61 488D5424 		leaq	96(%rsp), %rdx
 5398      60
 5399 0d66 4889E9   		movq	%rbp, %rcx
 5400 0d69 4C89E6   		movq	%r12, %rsi
 5401 0d6c E8000000 		call	_ZN8UnitTest10CheckEqualI12BufferStatusS1_EEvRNS_11TestResultsERKT_RKT0_RKNS_11TestDetailsE
 5401      00
 5402              	.LEHE178:
 5403              	.L335:
 5404 0d71 4C8D6C24 		leaq	94(%rsp), %r13
 5404      5E
 5405 0d76 4883EC08 		subq	$8, %rsp
 5406              		.cfi_def_cfa_offset 712
 5407 0d7a 4C89F9   		movq	%r15, %rcx
 5408 0d7d 31F6     		xorl	%esi, %esi
 5409 0d7f 6A00     		pushq	$0
 5410              		.cfi_def_cfa_offset 720
 5411 0d81 488B5424 		movq	32(%rsp), %rdx
 5411      20
 5412 0d86 4D89E9   		movq	%r13, %r9
 5413 0d89 488D3D00 		leaq	.LC38(%rip), %rdi
 5413      000000
 5414 0d90 4C8D4424 		leaq	116(%rsp), %r8
 5414      74
 5415              	.LEHB179:
 5416 0d95 E8000000 		call	bufProcessLine@PLT
 5416      00
 5417              	.LEHE179:
 5418 0d9a 89442470 		movl	%eax, 112(%rsp)
 5419 0d9e 5A       		popq	%rdx
 5420              		.cfi_def_cfa_offset 712
 5421 0d9f 59       		popq	%rcx
 5422              		.cfi_def_cfa_offset 704
 5423              	.LEHB180:
 5424 0da0 E8000000 		call	_ZN8UnitTest11CurrentTest7DetailsEv@PLT
 5424      00
 5425 0da5 488B30   		movq	(%rax), %rsi
 5426 0da8 BA270000 		movl	$39, %edx
 5426      00
 5427 0dad 4889EF   		movq	%rbp, %rdi
 5428 0db0 E8000000 		call	_ZN8UnitTest11TestDetailsC1ERKS0_i@PLT
 5428      00
 5429 0db5 C7442468 		movl	$0, 104(%rsp)
 5429      00000000 
 5430 0dbd E8000000 		call	_ZN8UnitTest11CurrentTest7ResultsEv@PLT
 5430      00
 5431 0dc2 4C8D6424 		leaq	104(%rsp), %r12
 5431      68
 5432 0dc7 488B38   		movq	(%rax), %rdi
 5433 0dca 488D5424 		leaq	96(%rsp), %rdx
 5433      60
 5434 0dcf 4889E9   		movq	%rbp, %rcx
 5435 0dd2 4C89E6   		movq	%r12, %rsi
 5436 0dd5 E8000000 		call	_ZN8UnitTest10CheckEqualI12BufferStatusS1_EEvRNS_11TestResultsERKT_RKT0_RKNS_11TestDetailsE
 5436      00
 5437              	.LEHE180:
 5438              	.L338:
 5439              	.LEHB181:
 5440 0dda E8000000 		call	_ZN8UnitTest11CurrentTest7DetailsEv@PLT
 5440      00
 5441 0ddf 488B30   		movq	(%rax), %rsi
 5442 0de2 BA280000 		movl	$40, %edx
 5442      00
 5443 0de7 4889EF   		movq	%rbp, %rdi
 5444 0dea E8000000 		call	_ZN8UnitTest11TestDetailsC1ERKS0_i@PLT
 5444      00
 5445 0def C7442468 		movl	$0, 104(%rsp)
 5445      00000000 
 5446 0df7 E8000000 		call	_ZN8UnitTest11CurrentTest7ResultsEv@PLT
 5446      00
 5447 0dfc 4C8D6424 		leaq	104(%rsp), %r12
 5447      68
 5448 0e01 488B38   		movq	(%rax), %rdi
 5449 0e04 4889E9   		movq	%rbp, %rcx
 5450 0e07 4C89EA   		movq	%r13, %rdx
 5451 0e0a 4C89E6   		movq	%r12, %rsi
 5452 0e0d E8000000 		call	_ZN8UnitTest10CheckEqualIihEEvRNS_11TestResultsERKT_RKT0_RKNS_11TestDetailsE
 5452      00
 5453              	.LEHE181:
 5454              	.L341:
 5455              	.LEHB182:
 5456 0e12 E8000000 		call	_ZN8UnitTest11CurrentTest7DetailsEv@PLT
 5456      00
 5457 0e17 488B30   		movq	(%rax), %rsi
 5458 0e1a BA290000 		movl	$41, %edx
 5458      00
 5459 0e1f 4889EF   		movq	%rbp, %rdi
 5460 0e22 E8000000 		call	_ZN8UnitTest11TestDetailsC1ERKS0_i@PLT
 5460      00
 5461 0e27 48C74424 		movq	$3045, 104(%rsp)
 5461      68E50B00 
 5461      00
 5462 0e30 E8000000 		call	_ZN8UnitTest11CurrentTest7ResultsEv@PLT
 5462      00
 5463 0e35 4C8D6424 		leaq	104(%rsp), %r12
 5463      68
 5464 0e3a 488B38   		movq	(%rax), %rdi
 5465 0e3d 488D5424 		leaq	120(%rsp), %rdx
 5465      78
 5466 0e42 4889E9   		movq	%rbp, %rcx
 5467 0e45 4C89E6   		movq	%r12, %rsi
 5468 0e48 E8000000 		call	_ZN8UnitTest10CheckEqualImmEEvRNS_11TestResultsERKT_RKT0_RKNS_11TestDetailsE
 5468      00
 5469              	.LEHE182:
 5470              	.L344:
 5471              	.LEHB183:
 5472 0e4d E8000000 		call	_ZN8UnitTest11CurrentTest7DetailsEv@PLT
 5472      00
 5473 0e52 488B30   		movq	(%rax), %rsi
 5474 0e55 BA2A0000 		movl	$42, %edx
 5474      00
 5475 0e5a 4889EF   		movq	%rbp, %rdi
 5476 0e5d E8000000 		call	_ZN8UnitTest11TestDetailsC1ERKS0_i@PLT
 5476      00
 5477 0e62 48C74424 		movq	$3045, 104(%rsp)
 5477      68E50B00 
 5477      00
 5478 0e6b E8000000 		call	_ZN8UnitTest11CurrentTest7ResultsEv@PLT
 5478      00
 5479 0e70 4C8D6424 		leaq	104(%rsp), %r12
 5479      68
 5480 0e75 488B38   		movq	(%rax), %rdi
 5481 0e78 488D9424 		leaq	152(%rsp), %rdx
 5481      98000000 
 5482 0e80 4889E9   		movq	%rbp, %rcx
 5483 0e83 4C89E6   		movq	%r12, %rsi
 5484 0e86 E8000000 		call	_ZN8UnitTest10CheckEqualImmEEvRNS_11TestResultsERKT_RKT0_RKNS_11TestDetailsE
 5484      00
 5485              	.LEHE183:
 5486              	.L347:
 5487              	.LEHB184:
 5488 0e8b E8000000 		call	_ZN8UnitTest11CurrentTest7DetailsEv@PLT
 5488      00
 5489 0e90 488B30   		movq	(%rax), %rsi
 5490 0e93 BA2B0000 		movl	$43, %edx
 5490      00
